
/home/maveric/ics2023/am-kernels/tests/cpu-tests/build/hello-str-riscv64-nemu.elf:     file format elf64-littleriscv


Disassembly of section .text:

0000000080000000 <_start>:
    80000000:	00000413          	li	s0,0
    80000004:	00009117          	auipc	sp,0x9
    80000008:	ffc10113          	addi	sp,sp,-4 # 80009000 <_end>
    8000000c:	0f8000ef          	jal	ra,80000104 <_trm_init>

0000000080000010 <check>:
    80000010:	00050463          	beqz	a0,80000018 <check+0x8>
    80000014:	00008067          	ret
    80000018:	ff010113          	addi	sp,sp,-16
    8000001c:	00100513          	li	a0,1
    80000020:	00113423          	sd	ra,8(sp)
    80000024:	0d4000ef          	jal	ra,800000f8 <halt>

0000000080000028 <main>:
    80000028:	ff010113          	addi	sp,sp,-16
    8000002c:	00813023          	sd	s0,0(sp)
    80000030:	00000417          	auipc	s0,0x0
    80000034:	36840413          	addi	s0,s0,872 # 80000398 <buf>
    80000038:	00000617          	auipc	a2,0x0
    8000003c:	1d860613          	addi	a2,a2,472 # 80000210 <_etext+0x4>
    80000040:	00000597          	auipc	a1,0x0
    80000044:	1e058593          	addi	a1,a1,480 # 80000220 <_etext+0x14>
    80000048:	00040513          	mv	a0,s0
    8000004c:	00113423          	sd	ra,8(sp)
    80000050:	0d4000ef          	jal	ra,80000124 <sprintf>
    80000054:	00000597          	auipc	a1,0x0
    80000058:	1bc58593          	addi	a1,a1,444 # 80000210 <_etext+0x4>
    8000005c:	00040513          	mv	a0,s0
    80000060:	144000ef          	jal	ra,800001a4 <strcmp>
    80000064:	00153513          	seqz	a0,a0
    80000068:	fa9ff0ef          	jal	ra,80000010 <check>
    8000006c:	00200713          	li	a4,2
    80000070:	00100693          	li	a3,1
    80000074:	00100613          	li	a2,1
    80000078:	00000597          	auipc	a1,0x0
    8000007c:	1b058593          	addi	a1,a1,432 # 80000228 <_etext+0x1c>
    80000080:	00040513          	mv	a0,s0
    80000084:	0a0000ef          	jal	ra,80000124 <sprintf>
    80000088:	00000597          	auipc	a1,0x0
    8000008c:	1b058593          	addi	a1,a1,432 # 80000238 <_etext+0x2c>
    80000090:	00040513          	mv	a0,s0
    80000094:	110000ef          	jal	ra,800001a4 <strcmp>
    80000098:	00153513          	seqz	a0,a0
    8000009c:	f75ff0ef          	jal	ra,80000010 <check>
    800000a0:	00c00713          	li	a4,12
    800000a4:	00a00693          	li	a3,10
    800000a8:	00200613          	li	a2,2
    800000ac:	00000597          	auipc	a1,0x0
    800000b0:	17c58593          	addi	a1,a1,380 # 80000228 <_etext+0x1c>
    800000b4:	00040513          	mv	a0,s0
    800000b8:	06c000ef          	jal	ra,80000124 <sprintf>
    800000bc:	00000597          	auipc	a1,0x0
    800000c0:	18c58593          	addi	a1,a1,396 # 80000248 <_etext+0x3c>
    800000c4:	00040513          	mv	a0,s0
    800000c8:	0dc000ef          	jal	ra,800001a4 <strcmp>
    800000cc:	00153513          	seqz	a0,a0
    800000d0:	f41ff0ef          	jal	ra,80000010 <check>
    800000d4:	00813083          	ld	ra,8(sp)
    800000d8:	00013403          	ld	s0,0(sp)
    800000dc:	00000513          	li	a0,0
    800000e0:	01010113          	addi	sp,sp,16
    800000e4:	00008067          	ret

00000000800000e8 <putch>:
    800000e8:	00500793          	li	a5,5
    800000ec:	01d79793          	slli	a5,a5,0x1d
    800000f0:	3ea78c23          	sb	a0,1016(a5)
    800000f4:	00008067          	ret

00000000800000f8 <halt>:
    800000f8:	00050513          	mv	a0,a0
    800000fc:	00100073          	ebreak
    80000100:	0000006f          	j	80000100 <halt+0x8>

0000000080000104 <_trm_init>:
    80000104:	ff010113          	addi	sp,sp,-16
    80000108:	00000517          	auipc	a0,0x0
    8000010c:	28850513          	addi	a0,a0,648 # 80000390 <mainargs>
    80000110:	00113423          	sd	ra,8(sp)
    80000114:	f15ff0ef          	jal	ra,80000028 <main>
    80000118:	00050513          	mv	a0,a0
    8000011c:	00100073          	ebreak
    80000120:	0000006f          	j	80000120 <_trm_init+0x1c>

0000000080000124 <sprintf>:
    80000124:	fc010113          	addi	sp,sp,-64
    80000128:	00813023          	sd	s0,0(sp)
    8000012c:	00113423          	sd	ra,8(sp)
    80000130:	00c13823          	sd	a2,16(sp)
    80000134:	00d13c23          	sd	a3,24(sp)
    80000138:	02e13023          	sd	a4,32(sp)
    8000013c:	02f13423          	sd	a5,40(sp)
    80000140:	03013823          	sd	a6,48(sp)
    80000144:	03113c23          	sd	a7,56(sp)
    80000148:	00000417          	auipc	s0,0x0
    8000014c:	11040413          	addi	s0,s0,272 # 80000258 <_etext+0x4c>
    80000150:	04100513          	li	a0,65
    80000154:	00140413          	addi	s0,s0,1
    80000158:	f91ff0ef          	jal	ra,800000e8 <putch>
    8000015c:	00044503          	lbu	a0,0(s0)
    80000160:	fe051ae3          	bnez	a0,80000154 <sprintf+0x30>
    80000164:	00000417          	auipc	s0,0x0
    80000168:	10440413          	addi	s0,s0,260 # 80000268 <_etext+0x5c>
    8000016c:	04e00513          	li	a0,78
    80000170:	00140413          	addi	s0,s0,1
    80000174:	f75ff0ef          	jal	ra,800000e8 <putch>
    80000178:	00044503          	lbu	a0,0(s0)
    8000017c:	fe051ae3          	bnez	a0,80000170 <sprintf+0x4c>
    80000180:	00000417          	auipc	s0,0x0
    80000184:	13840413          	addi	s0,s0,312 # 800002b8 <_etext+0xac>
    80000188:	02000513          	li	a0,32
    8000018c:	00140413          	addi	s0,s0,1
    80000190:	f59ff0ef          	jal	ra,800000e8 <putch>
    80000194:	00044503          	lbu	a0,0(s0)
    80000198:	fe051ae3          	bnez	a0,8000018c <sprintf+0x68>
    8000019c:	00100513          	li	a0,1
    800001a0:	f59ff0ef          	jal	ra,800000f8 <halt>

00000000800001a4 <strcmp>:
    800001a4:	ff010113          	addi	sp,sp,-16
    800001a8:	00813023          	sd	s0,0(sp)
    800001ac:	00113423          	sd	ra,8(sp)
    800001b0:	00000417          	auipc	s0,0x0
    800001b4:	0a840413          	addi	s0,s0,168 # 80000258 <_etext+0x4c>
    800001b8:	04100513          	li	a0,65
    800001bc:	00140413          	addi	s0,s0,1
    800001c0:	f29ff0ef          	jal	ra,800000e8 <putch>
    800001c4:	00044503          	lbu	a0,0(s0)
    800001c8:	fe051ae3          	bnez	a0,800001bc <strcmp+0x18>
    800001cc:	00000417          	auipc	s0,0x0
    800001d0:	09c40413          	addi	s0,s0,156 # 80000268 <_etext+0x5c>
    800001d4:	04e00513          	li	a0,78
    800001d8:	00140413          	addi	s0,s0,1
    800001dc:	f0dff0ef          	jal	ra,800000e8 <putch>
    800001e0:	00044503          	lbu	a0,0(s0)
    800001e4:	fe051ae3          	bnez	a0,800001d8 <strcmp+0x34>
    800001e8:	00000417          	auipc	s0,0x0
    800001ec:	16040413          	addi	s0,s0,352 # 80000348 <_etext+0x13c>
    800001f0:	02000513          	li	a0,32
    800001f4:	00140413          	addi	s0,s0,1
    800001f8:	ef1ff0ef          	jal	ra,800000e8 <putch>
    800001fc:	00044503          	lbu	a0,0(s0)
    80000200:	fe051ae3          	bnez	a0,800001f4 <strcmp+0x50>
    80000204:	00100513          	li	a0,1
    80000208:	ef1ff0ef          	jal	ra,800000f8 <halt>
