
build/crc32-riscv64-nemu.bin:     file format binary


Disassembly of section .data:

0000000000000000 <.data>:
   0:	00000413          	addi	x8,x0,0
   4:	00009117          	auipc	x2,0x9
   8:	ffc10113          	addi	x2,x2,-4 # 0x9000
   c:	118000ef          	jal	x1,0x124
  10:	00050463          	beq	x10,x0,0x18
  14:	00008067          	jalr	x0,0(x1)
  18:	ff010113          	addi	x2,x2,-16
  1c:	00100513          	addi	x10,x0,1
  20:	00113423          	sd	x1,8(x2)
  24:	0f4000ef          	jal	x1,0x118
  28:	00000f97          	auipc	x31,0x0
  2c:	558f8f93          	addi	x31,x31,1368 # 0x580
  30:	000fae03          	lw	x28,0(x31)
  34:	040e1c63          	bne	x28,x0,0x8c
  38:	edb88337          	lui	x6,0xedb88
  3c:	00000e97          	auipc	x29,0x0
  40:	144e8e93          	addi	x29,x29,324 # 0x180
  44:	32030313          	addi	x6,x6,800 # 0xffffffffedb88320
  48:	10000f13          	addi	x30,x0,256
  4c:	000e079b          	addiw	x15,x28,0
  50:	00800713          	addi	x14,x0,8
  54:	0017d69b          	srliw	x13,x15,0x1
  58:	0017f813          	andi	x16,x15,1
  5c:	fff7071b          	addiw	x14,x14,-1
  60:	00d348b3          	xor	x17,x6,x13
  64:	0006879b          	addiw	x15,x13,0
  68:	00080463          	beq	x16,x0,0x70
  6c:	0008879b          	addiw	x15,x17,0
  70:	fe0712e3          	bne	x14,x0,0x54
  74:	00fea023          	sw	x15,0(x29)
  78:	001e0e1b          	addiw	x28,x28,1
  7c:	004e8e93          	addi	x29,x29,4
  80:	fdee16e3          	bne	x28,x30,0x4c
  84:	00100793          	addi	x15,x0,1
  88:	00ffa023          	sw	x15,0(x31)
  8c:	00c58633          	add	x12,x11,x12
  90:	fff54793          	xori	x15,x10,-1
  94:	02c5fe63          	bgeu	x11,x12,0xd0
  98:	00000517          	auipc	x10,0x0
  9c:	0e850513          	addi	x10,x10,232 # 0x180
  a0:	0005c683          	lbu	x13,0(x11)
  a4:	0087d71b          	srliw	x14,x15,0x8
  a8:	00158593          	addi	x11,x11,1
  ac:	00d7c7b3          	xor	x15,x15,x13
  b0:	0ff7f793          	andi	x15,x15,255
  b4:	00279793          	slli	x15,x15,0x2
  b8:	00f507b3          	add	x15,x10,x15
  bc:	0007a783          	lw	x15,0(x15)
  c0:	00e7c7b3          	xor	x15,x15,x14
  c4:	0007879b          	addiw	x15,x15,0
  c8:	fcb61ce3          	bne	x12,x11,0xa0
  cc:	fff7c513          	xori	x10,x15,-1
  d0:	00008067          	jalr	x0,0(x1)
  d4:	ff010113          	addi	x2,x2,-16
  d8:	02b00613          	addi	x12,x0,43
  dc:	00000597          	auipc	x11,0x0
  e0:	06c58593          	addi	x11,x11,108 # 0x148
  e4:	00000513          	addi	x10,x0,0
  e8:	00113423          	sd	x1,8(x2)
  ec:	f3dff0ef          	jal	x1,0x28
  f0:	414fa7b7          	lui	x15,0x414fa
  f4:	33978793          	addi	x15,x15,825 # 0x414fa339
  f8:	0005051b          	addiw	x10,x10,0
  fc:	40f50533          	sub	x10,x10,x15
 100:	00153513          	sltiu	x10,x10,1
 104:	f0dff0ef          	jal	x1,0x10
 108:	00813083          	ld	x1,8(x2)
 10c:	00000513          	addi	x10,x0,0
 110:	01010113          	addi	x2,x2,16
 114:	00008067          	jalr	x0,0(x1)
 118:	00050513          	addi	x10,x10,0
 11c:	00100073          	ebreak
 120:	0000006f          	jal	x0,0x120
 124:	ff010113          	addi	x2,x2,-16
 128:	00000517          	auipc	x10,0x0
 12c:	05050513          	addi	x10,x10,80 # 0x178
 130:	00113423          	sd	x1,8(x2)
 134:	fa1ff0ef          	jal	x1,0xd4
 138:	00050513          	addi	x10,x10,0
 13c:	00100073          	ebreak
 140:	0000006f          	jal	x0,0x140
 144:	0000                	c.unimp
 146:	0000                	c.unimp
 148:	6854                	c.ld	x13,144(x8)
 14a:	2065                	.insn	2, 0x2065
 14c:	7571                	c.lui	x10,0xffffc
 14e:	6369                	c.lui	x6,0x1a
 150:	7262206b          	.insn	4, 0x7262206b
 154:	206e776f          	jal	x14,0xe735a
 158:	6f66                	c.ldsp	x30,88(x2)
 15a:	2078                	c.fld	f14,192(x8)
 15c:	756a                	c.ldsp	x10,184(x2)
 15e:	706d                	c.lui	x0,0xffffb
 160:	766f2073          	csrrs	x0,0x766,x30
 164:	7265                	c.lui	x4,0xffff9
 166:	7420                	c.ld	x8,104(x8)
 168:	6568                	c.ld	x10,200(x10)
 16a:	6c20                	c.ld	x8,88(x8)
 16c:	7a61                	c.lui	x20,0xffff8
 16e:	2079                	.insn	2, 0x2079
 170:	6f64                	c.ld	x9,216(x14)
 172:	00000067          	jalr	x0,0(x0) # 0x0
	...
