
build/leap-year-riscv64-nemu.bin:     file format binary


Disassembly of section .data:

0000000000000000 <.data>:
   0:	00000413          	addi	x8,x0,0
   4:	00009117          	auipc	x2,0x9
   8:	ffc10113          	addi	x2,x2,-4 # 0x9000
   c:	0c0000ef          	jal	x1,0xcc
  10:	00050463          	beq	x10,x0,0x18
  14:	00008067          	jalr	x0,0(x1)
  18:	ff010113          	addi	x2,x2,-16
  1c:	00100513          	addi	x10,x0,1
  20:	00113423          	sd	x1,8(x2)
  24:	09c000ef          	jal	x1,0xc0
  28:	fd010113          	addi	x2,x2,-48
  2c:	02813023          	sd	x8,32(x2)
  30:	00913c23          	sd	x9,24(x2)
  34:	01213823          	sd	x18,16(x2)
  38:	01313423          	sd	x19,8(x2)
  3c:	01413023          	sd	x20,0(x2)
  40:	02113423          	sd	x1,40(x2)
  44:	00000497          	auipc	x9,0x0
  48:	0b448493          	addi	x9,x9,180 # 0xf8
  4c:	00000917          	auipc	x18,0x0
  50:	2a090913          	addi	x18,x18,672 # 0x2ec
  54:	76200413          	addi	x8,x0,1890
  58:	19000993          	addi	x19,x0,400
  5c:	06400a13          	addi	x20,x0,100
  60:	00347793          	andi	x15,x8,3
  64:	0004071b          	addiw	x14,x8,0
  68:	00079863          	bne	x15,x0,0x78
  6c:	034766bb          	remw	x13,x14,x20
  70:	00100793          	addi	x15,x0,1
  74:	00069663          	bne	x13,x0,0x80
  78:	0337673b          	remw	x14,x14,x19
  7c:	00173793          	sltiu	x15,x14,1
  80:	0004a503          	lw	x10,0(x9)
  84:	00448493          	addi	x9,x9,4
  88:	0014041b          	addiw	x8,x8,1
  8c:	40f50533          	sub	x10,x10,x15
  90:	00153513          	sltiu	x10,x10,1
  94:	f7dff0ef          	jal	x1,0x10
  98:	fd2494e3          	bne	x9,x18,0x60
  9c:	02813083          	ld	x1,40(x2)
  a0:	02013403          	ld	x8,32(x2)
  a4:	01813483          	ld	x9,24(x2)
  a8:	01013903          	ld	x18,16(x2)
  ac:	00813983          	ld	x19,8(x2)
  b0:	00013a03          	ld	x20,0(x2)
  b4:	00000513          	addi	x10,x0,0
  b8:	03010113          	addi	x2,x2,48
  bc:	00008067          	jalr	x0,0(x1)
  c0:	00050513          	addi	x10,x10,0
  c4:	00100073          	ebreak
  c8:	0000006f          	jal	x0,0xc8
  cc:	ff010113          	addi	x2,x2,-16
  d0:	00000517          	auipc	x10,0x0
  d4:	02050513          	addi	x10,x10,32 # 0xf0
  d8:	00113423          	sd	x1,8(x2)
  dc:	f4dff0ef          	jal	x1,0x28
  e0:	00050513          	addi	x10,x10,0
  e4:	00100073          	ebreak
  e8:	0000006f          	jal	x0,0xe8
	...
 100:	0001                	c.addi	x0,0
	...
 10e:	0000                	c.unimp
 110:	0001                	c.addi	x0,0
	...
 12e:	0000                	c.unimp
 130:	0001                	c.addi	x0,0
	...
 13e:	0000                	c.unimp
 140:	0001                	c.addi	x0,0
	...
 14e:	0000                	c.unimp
 150:	0001                	c.addi	x0,0
	...
 15e:	0000                	c.unimp
 160:	0001                	c.addi	x0,0
	...
 16e:	0000                	c.unimp
 170:	0001                	c.addi	x0,0
	...
 17e:	0000                	c.unimp
 180:	0001                	c.addi	x0,0
	...
 18e:	0000                	c.unimp
 190:	0001                	c.addi	x0,0
	...
 19e:	0000                	c.unimp
 1a0:	0001                	c.addi	x0,0
	...
 1ae:	0000                	c.unimp
 1b0:	0001                	c.addi	x0,0
	...
 1be:	0000                	c.unimp
 1c0:	0001                	c.addi	x0,0
	...
 1ce:	0000                	c.unimp
 1d0:	0001                	c.addi	x0,0
	...
 1de:	0000                	c.unimp
 1e0:	0001                	c.addi	x0,0
	...
 1ee:	0000                	c.unimp
 1f0:	0001                	c.addi	x0,0
	...
 1fe:	0000                	c.unimp
 200:	0001                	c.addi	x0,0
	...
 20e:	0000                	c.unimp
 210:	0001                	c.addi	x0,0
	...
 21e:	0000                	c.unimp
 220:	0001                	c.addi	x0,0
	...
 22e:	0000                	c.unimp
 230:	0001                	c.addi	x0,0
	...
 23e:	0000                	c.unimp
 240:	0001                	c.addi	x0,0
	...
 24e:	0000                	c.unimp
 250:	0001                	c.addi	x0,0
	...
 25e:	0000                	c.unimp
 260:	0001                	c.addi	x0,0
	...
 26e:	0000                	c.unimp
 270:	0001                	c.addi	x0,0
	...
 27e:	0000                	c.unimp
 280:	0001                	c.addi	x0,0
	...
 28e:	0000                	c.unimp
 290:	0001                	c.addi	x0,0
	...
 29e:	0000                	c.unimp
 2a0:	0001                	c.addi	x0,0
	...
 2ae:	0000                	c.unimp
 2b0:	0001                	c.addi	x0,0
	...
 2be:	0000                	c.unimp
 2c0:	0001                	c.addi	x0,0
	...
 2ce:	0000                	c.unimp
 2d0:	0001                	c.addi	x0,0
	...
 2de:	0000                	c.unimp
 2e0:	0001                	c.addi	x0,0
	...
