
build/quick-sort-riscv64-nemu.bin:     file format binary


Disassembly of section .data:

0000000000000000 <.data>:
   0:	00000413          	addi	x8,x0,0
   4:	00009117          	auipc	x2,0x9
   8:	ffc10113          	addi	x2,x2,-4 # 0x9000
   c:	3a8000ef          	jal	x1,0x3b4
  10:	00050463          	beq	x10,x0,0x18
  14:	00008067          	jalr	x0,0(x1)
  18:	ff010113          	addi	x2,x2,-16
  1c:	00100513          	addi	x10,x0,1
  20:	00113423          	sd	x1,8(x2)
  24:	384000ef          	jal	x1,0x3a8
  28:	00259813          	slli	x16,x11,0x2
  2c:	010506b3          	add	x13,x10,x16
  30:	00050313          	addi	x6,x10,0
  34:	0006a883          	lw	x17,0(x13)
  38:	00060513          	addi	x10,x12,0
  3c:	08c5d863          	bge	x11,x12,0xcc
  40:	00261793          	slli	x15,x12,0x2
  44:	00f307b3          	add	x15,x6,x15
  48:	0007a783          	lw	x15,0(x15)
  4c:	fff50693          	addi	x13,x10,-1
  50:	00269693          	slli	x13,x13,0x2
  54:	00d306b3          	add	x13,x6,x13
  58:	00068713          	addi	x14,x13,0
  5c:	02f8d663          	bge	x17,x15,0x88
  60:	fff5051b          	addiw	x10,x10,-1
  64:	00072783          	lw	x15,0(x14)
  68:	ffc70693          	addi	x13,x14,-4
  6c:	fea5c6e3          	blt	x11,x10,0x58
  70:	010306b3          	add	x13,x6,x16
  74:	00f6a023          	sw	x15,0(x13)
  78:	00058513          	addi	x10,x11,0
  7c:	00f72023          	sw	x15,0(x14)
  80:	0116a023          	sw	x17,0(x13)
  84:	00008067          	jalr	x0,0(x1)
  88:	010306b3          	add	x13,x6,x16
  8c:	00251713          	slli	x14,x10,0x2
  90:	00f6a023          	sw	x15,0(x13)
  94:	00e30733          	add	x14,x6,x14
  98:	04a5d063          	bge	x11,x10,0xd8
  9c:	00480613          	addi	x12,x16,4
  a0:	00c30633          	add	x12,x6,x12
  a4:	0015859b          	addiw	x11,x11,1
  a8:	00062783          	lw	x15,0(x12)
  ac:	00060693          	addi	x13,x12,0
  b0:	00460613          	addi	x12,x12,4
  b4:	fca584e3          	beq	x11,x10,0x7c
  b8:	fef8d6e3          	bge	x17,x15,0xa4
  bc:	00f72023          	sw	x15,0(x14)
  c0:	02a5d063          	bge	x11,x10,0xe0
  c4:	00259813          	slli	x16,x11,0x2
  c8:	f85ff06f          	jal	x0,0x4c
  cc:	00058513          	addi	x10,x11,0
  d0:	0116a023          	sw	x17,0(x13)
  d4:	00008067          	jalr	x0,0(x1)
  d8:	00058513          	addi	x10,x11,0
  dc:	fa1ff06f          	jal	x0,0x7c
  e0:	00259693          	slli	x13,x11,0x2
  e4:	00d306b3          	add	x13,x6,x13
  e8:	00058513          	addi	x10,x11,0
  ec:	f95ff06f          	jal	x0,0x80
  f0:	1ec5da63          	bge	x11,x12,0x2e4
  f4:	f5010113          	addi	x2,x2,-176
  f8:	0a813023          	sd	x8,160(x2)
  fc:	07513c23          	sd	x21,120(x2)
 100:	07713423          	sd	x23,104(x2)
 104:	0a113423          	sd	x1,168(x2)
 108:	08913c23          	sd	x9,152(x2)
 10c:	09213823          	sd	x18,144(x2)
 110:	09313423          	sd	x19,136(x2)
 114:	09413023          	sd	x20,128(x2)
 118:	07613823          	sd	x22,112(x2)
 11c:	07813023          	sd	x24,96(x2)
 120:	05913c23          	sd	x25,88(x2)
 124:	05a13823          	sd	x26,80(x2)
 128:	05b13423          	sd	x27,72(x2)
 12c:	00058b93          	addi	x23,x11,0
 130:	00060a93          	addi	x21,x12,0
 134:	00050413          	addi	x8,x10,0
 138:	000a8613          	addi	x12,x21,0
 13c:	000b8593          	addi	x11,x23,0
 140:	00040513          	addi	x10,x8,0
 144:	ee5ff0ef          	jal	x1,0x28
 148:	00a13423          	sd	x10,8(x2)
 14c:	fff50c9b          	addiw	x25,x10,-1
 150:	159bd663          	bge	x23,x25,0x29c
 154:	000c8613          	addi	x12,x25,0
 158:	000b8593          	addi	x11,x23,0
 15c:	00040513          	addi	x10,x8,0
 160:	ec9ff0ef          	jal	x1,0x28
 164:	00a13823          	sd	x10,16(x2)
 168:	fff50d1b          	addiw	x26,x10,-1
 16c:	13abd263          	bge	x23,x26,0x290
 170:	000d0613          	addi	x12,x26,0
 174:	000b8593          	addi	x11,x23,0
 178:	00040513          	addi	x10,x8,0
 17c:	eadff0ef          	jal	x1,0x28
 180:	00a13c23          	sd	x10,24(x2)
 184:	fff50d9b          	addiw	x27,x10,-1
 188:	0fbbde63          	bge	x23,x27,0x284
 18c:	000d8613          	addi	x12,x27,0
 190:	000b8593          	addi	x11,x23,0
 194:	00040513          	addi	x10,x8,0
 198:	e91ff0ef          	jal	x1,0x28
 19c:	02a13023          	sd	x10,32(x2)
 1a0:	fff5099b          	addiw	x19,x10,-1
 1a4:	0d3bda63          	bge	x23,x19,0x278
 1a8:	00098613          	addi	x12,x19,0
 1ac:	000b8593          	addi	x11,x23,0
 1b0:	00040513          	addi	x10,x8,0
 1b4:	e75ff0ef          	jal	x1,0x28
 1b8:	fff5091b          	addiw	x18,x10,-1
 1bc:	00050493          	addi	x9,x10,0
 1c0:	0b2bd863          	bge	x23,x18,0x270
 1c4:	00090613          	addi	x12,x18,0
 1c8:	000b8593          	addi	x11,x23,0
 1cc:	00040513          	addi	x10,x8,0
 1d0:	e59ff0ef          	jal	x1,0x28
 1d4:	fff50b1b          	addiw	x22,x10,-1
 1d8:	00050a13          	addi	x20,x10,0
 1dc:	096bd663          	bge	x23,x22,0x268
 1e0:	000b0613          	addi	x12,x22,0
 1e4:	000b8593          	addi	x11,x23,0
 1e8:	00040513          	addi	x10,x8,0
 1ec:	e3dff0ef          	jal	x1,0x28
 1f0:	02a13423          	sd	x10,40(x2)
 1f4:	fff50c1b          	addiw	x24,x10,-1
 1f8:	078bd263          	bge	x23,x24,0x25c
 1fc:	000c0613          	addi	x12,x24,0
 200:	000b8593          	addi	x11,x23,0
 204:	00040513          	addi	x10,x8,0
 208:	e21ff0ef          	jal	x1,0x28
 20c:	fff5081b          	addiw	x16,x10,-1
 210:	00050713          	addi	x14,x10,0
 214:	050bd063          	bge	x23,x16,0x254
 218:	00080613          	addi	x12,x16,0
 21c:	000b8593          	addi	x11,x23,0
 220:	00040513          	addi	x10,x8,0
 224:	02e13c23          	sd	x14,56(x2)
 228:	03013823          	sd	x16,48(x2)
 22c:	dfdff0ef          	jal	x1,0x28
 230:	00050893          	addi	x17,x10,0
 234:	000b8593          	addi	x11,x23,0
 238:	fff5061b          	addiw	x12,x10,-1
 23c:	00040513          	addi	x10,x8,0
 240:	00188b9b          	addiw	x23,x17,1
 244:	eadff0ef          	jal	x1,0xf0
 248:	03013803          	ld	x16,48(x2)
 24c:	03813703          	ld	x14,56(x2)
 250:	fd0bc4e3          	blt	x23,x16,0x218
 254:	00170b9b          	addiw	x23,x14,1
 258:	fb8bc2e3          	blt	x23,x24,0x1fc
 25c:	02813783          	ld	x15,40(x2)
 260:	00178b9b          	addiw	x23,x15,1
 264:	f76bcee3          	blt	x23,x22,0x1e0
 268:	001a0b9b          	addiw	x23,x20,1
 26c:	f52bcce3          	blt	x23,x18,0x1c4
 270:	00148b9b          	addiw	x23,x9,1
 274:	f33bcae3          	blt	x23,x19,0x1a8
 278:	02013783          	ld	x15,32(x2)
 27c:	00178b9b          	addiw	x23,x15,1
 280:	f1bbc6e3          	blt	x23,x27,0x18c
 284:	01813783          	ld	x15,24(x2)
 288:	00178b9b          	addiw	x23,x15,1
 28c:	efabc2e3          	blt	x23,x26,0x170
 290:	01013783          	ld	x15,16(x2)
 294:	00178b9b          	addiw	x23,x15,1
 298:	eb9bcee3          	blt	x23,x25,0x154
 29c:	00813783          	ld	x15,8(x2)
 2a0:	00178b9b          	addiw	x23,x15,1
 2a4:	e95bcae3          	blt	x23,x21,0x138
 2a8:	0a813083          	ld	x1,168(x2)
 2ac:	0a013403          	ld	x8,160(x2)
 2b0:	09813483          	ld	x9,152(x2)
 2b4:	09013903          	ld	x18,144(x2)
 2b8:	08813983          	ld	x19,136(x2)
 2bc:	08013a03          	ld	x20,128(x2)
 2c0:	07813a83          	ld	x21,120(x2)
 2c4:	07013b03          	ld	x22,112(x2)
 2c8:	06813b83          	ld	x23,104(x2)
 2cc:	06013c03          	ld	x24,96(x2)
 2d0:	05813c83          	ld	x25,88(x2)
 2d4:	05013d03          	ld	x26,80(x2)
 2d8:	04813d83          	ld	x27,72(x2)
 2dc:	0b010113          	addi	x2,x2,176
 2e0:	00008067          	jalr	x0,0(x1)
 2e4:	00008067          	jalr	x0,0(x1)
 2e8:	fd010113          	addi	x2,x2,-48
 2ec:	00000517          	auipc	x10,0x0
 2f0:	0f450513          	addi	x10,x10,244 # 0x3e0
 2f4:	00913c23          	sd	x9,24(x2)
 2f8:	01300613          	addi	x12,x0,19
 2fc:	00050493          	addi	x9,x10,0
 300:	00000593          	addi	x11,x0,0
 304:	02813023          	sd	x8,32(x2)
 308:	01213823          	sd	x18,16(x2)
 30c:	01313423          	sd	x19,8(x2)
 310:	02113423          	sd	x1,40(x2)
 314:	00048913          	addi	x18,x9,0
 318:	dd9ff0ef          	jal	x1,0xf0
 31c:	00000413          	addi	x8,x0,0
 320:	01400993          	addi	x19,x0,20
 324:	00092503          	lw	x10,0(x18)
 328:	00490913          	addi	x18,x18,4
 32c:	40850533          	sub	x10,x10,x8
 330:	00153513          	sltiu	x10,x10,1
 334:	0014041b          	addiw	x8,x8,1
 338:	cd9ff0ef          	jal	x1,0x10
 33c:	ff3414e3          	bne	x8,x19,0x324
 340:	00100513          	addi	x10,x0,1
 344:	ccdff0ef          	jal	x1,0x10
 348:	01300613          	addi	x12,x0,19
 34c:	00000593          	addi	x11,x0,0
 350:	00000517          	auipc	x10,0x0
 354:	09050513          	addi	x10,x10,144 # 0x3e0
 358:	d99ff0ef          	jal	x1,0xf0
 35c:	00000413          	addi	x8,x0,0
 360:	01400913          	addi	x18,x0,20
 364:	0004a503          	lw	x10,0(x9)
 368:	00448493          	addi	x9,x9,4
 36c:	40850533          	sub	x10,x10,x8
 370:	00153513          	sltiu	x10,x10,1
 374:	0014041b          	addiw	x8,x8,1
 378:	c99ff0ef          	jal	x1,0x10
 37c:	ff2414e3          	bne	x8,x18,0x364
 380:	00100513          	addi	x10,x0,1
 384:	c8dff0ef          	jal	x1,0x10
 388:	02813083          	ld	x1,40(x2)
 38c:	02013403          	ld	x8,32(x2)
 390:	01813483          	ld	x9,24(x2)
 394:	01013903          	ld	x18,16(x2)
 398:	00813983          	ld	x19,8(x2)
 39c:	00000513          	addi	x10,x0,0
 3a0:	03010113          	addi	x2,x2,48
 3a4:	00008067          	jalr	x0,0(x1)
 3a8:	00050513          	addi	x10,x10,0
 3ac:	00100073          	ebreak
 3b0:	0000006f          	jal	x0,0x3b0
 3b4:	ff010113          	addi	x2,x2,-16
 3b8:	00000517          	auipc	x10,0x0
 3bc:	02050513          	addi	x10,x10,32 # 0x3d8
 3c0:	00113423          	sd	x1,8(x2)
 3c4:	f25ff0ef          	jal	x1,0x2e8
 3c8:	00050513          	addi	x10,x10,0
 3cc:	00100073          	ebreak
 3d0:	0000006f          	jal	x0,0x3d0
	...
 3e0:	0002                	c.slli64	x0
 3e2:	0000                	c.unimp
 3e4:	000c                	.insn	2, 0x000c
 3e6:	0000                	c.unimp
 3e8:	000e                	c.slli	x0,0x3
 3ea:	0000                	c.unimp
 3ec:	0006                	c.slli	x0,0x1
 3ee:	0000                	c.unimp
 3f0:	000d                	c.addi	x0,3
 3f2:	0000                	c.unimp
 3f4:	0000000f          	fence	unknown,unknown
 3f8:	0010                	.insn	2, 0x0010
 3fa:	0000                	c.unimp
 3fc:	000a                	c.slli	x0,0x2
 3fe:	0000                	c.unimp
 400:	0000                	c.unimp
 402:	0000                	c.unimp
 404:	0012                	c.slli	x0,0x4
 406:	0000                	c.unimp
 408:	0000000b          	.insn	4, 0x000b
 40c:	00000013          	addi	x0,x0,0
 410:	0009                	c.addi	x0,2
 412:	0000                	c.unimp
 414:	0001                	c.addi	x0,0
 416:	0000                	c.unimp
 418:	00000007          	.insn	4, 0x0007
 41c:	0005                	c.addi	x0,1
 41e:	0000                	c.unimp
 420:	0004                	.insn	2, 0x0004
 422:	0000                	c.unimp
 424:	00000003          	lb	x0,0(x0) # 0x0
 428:	0008                	.insn	2, 0x0008
 42a:	0000                	c.unimp
 42c:	0011                	c.addi	x0,4
      0000
	...
