
build/recursion-riscv64-nemu.bin:     file format binary


Disassembly of section .data:

0000000000000000 <.data>:
   0:	00000413          	addi	x8,x0,0
   4:	00009117          	auipc	x2,0x9
   8:	ffc10113          	addi	x2,x2,-4 # 0x9000
   c:	248000ef          	jal	x1,0x254
  10:	00000797          	auipc	x15,0x0
  14:	2a078793          	addi	x15,x15,672 # 0x2b0
  18:	0007a703          	lw	x14,0(x15)
  1c:	00b75463          	bge	x14,x11,0x24
  20:	00b7a023          	sw	x11,0(x15)
  24:	00000717          	auipc	x14,0x0
  28:	29070713          	addi	x14,x14,656 # 0x2b4
  2c:	00072783          	lw	x15,0(x14)
  30:	0017879b          	addiw	x15,x15,1
  34:	00f72023          	sw	x15,0(x14)
  38:	00a05e63          	bge	x0,x10,0x54
  3c:	00300793          	addi	x15,x0,3
  40:	02f5453b          	divw	x10,x10,x15
  44:	0015859b          	addiw	x11,x11,1
  48:	00000797          	auipc	x15,0x0
  4c:	2607b783          	ld	x15,608(x15) # 0x2a8
  50:	00078067          	jalr	x0,0(x15)
  54:	00100513          	addi	x10,x0,1
  58:	00008067          	jalr	x0,0(x1)
  5c:	00000797          	auipc	x15,0x0
  60:	25478793          	addi	x15,x15,596 # 0x2b0
  64:	0007a703          	lw	x14,0(x15)
  68:	00b75463          	bge	x14,x11,0x70
  6c:	00b7a023          	sw	x11,0(x15)
  70:	00000717          	auipc	x14,0x0
  74:	24470713          	addi	x14,x14,580 # 0x2b4
  78:	00072783          	lw	x15,0(x14)
  7c:	0017879b          	addiw	x15,x15,1
  80:	00f72023          	sw	x15,0(x14)
  84:	00a05c63          	bge	x0,x10,0x9c
  88:	0015859b          	addiw	x11,x11,1
  8c:	fff5051b          	addiw	x10,x10,-1
  90:	00000797          	auipc	x15,0x0
  94:	2007b783          	ld	x15,512(x15) # 0x290
  98:	00078067          	jalr	x0,0(x15)
  9c:	00100513          	addi	x10,x0,1
  a0:	00008067          	jalr	x0,0(x1)
  a4:	00000717          	auipc	x14,0x0
  a8:	20c70713          	addi	x14,x14,524 # 0x2b0
  ac:	00072683          	lw	x13,0(x14)
  b0:	00050793          	addi	x15,x10,0
  b4:	00b6d463          	bge	x13,x11,0xbc
  b8:	00b72023          	sw	x11,0(x14)
  bc:	00000697          	auipc	x13,0x0
  c0:	1f868693          	addi	x13,x13,504 # 0x2b4
  c4:	0006a703          	lw	x14,0(x13)
  c8:	00100513          	addi	x10,x0,1
  cc:	0017071b          	addiw	x14,x14,1
  d0:	00e6a023          	sw	x14,0(x13)
  d4:	02f05863          	bge	x0,x15,0x104
  d8:	ff010113          	addi	x2,x2,-16
  dc:	00113423          	sd	x1,8(x2)
  e0:	00078513          	addi	x10,x15,0
  e4:	0015859b          	addiw	x11,x11,1
  e8:	00000797          	auipc	x15,0x0
  ec:	1b07b783          	ld	x15,432(x15) # 0x298
  f0:	000780e7          	jalr	x1,0(x15)
  f4:	00813083          	ld	x1,8(x2)
  f8:	0095051b          	addiw	x10,x10,9
  fc:	01010113          	addi	x2,x2,16
 100:	00008067          	jalr	x0,0(x1)
 104:	00008067          	jalr	x0,0(x1)
 108:	00000717          	auipc	x14,0x0
 10c:	1a870713          	addi	x14,x14,424 # 0x2b0
 110:	00072683          	lw	x13,0(x14)
 114:	00050793          	addi	x15,x10,0
 118:	00b6d463          	bge	x13,x11,0x120
 11c:	00b72023          	sw	x11,0(x14)
 120:	00000697          	auipc	x13,0x0
 124:	19468693          	addi	x13,x13,404 # 0x2b4
 128:	0006a703          	lw	x14,0(x13)
 12c:	00100513          	addi	x10,x0,1
 130:	0017071b          	addiw	x14,x14,1
 134:	00e6a023          	sw	x14,0(x13)
 138:	06f05a63          	bge	x0,x15,0x1ac
 13c:	fe010113          	addi	x2,x2,-32
 140:	01213023          	sd	x18,0(x2)
 144:	00000917          	auipc	x18,0x0
 148:	14c90913          	addi	x18,x18,332 # 0x290
 14c:	01093703          	ld	x14,16(x18)
 150:	00813823          	sd	x8,16(x2)
 154:	00913423          	sd	x9,8(x2)
 158:	0015841b          	addiw	x8,x11,1
 15c:	4017d493          	srai	x9,x15,0x1
 160:	00113c23          	sd	x1,24(x2)
 164:	00040593          	addi	x11,x8,0
 168:	00048513          	addi	x10,x9,0
 16c:	000700e7          	jalr	x1,0(x14)
 170:	01093783          	ld	x15,16(x18)
 174:	00040593          	addi	x11,x8,0
 178:	00050913          	addi	x18,x10,0
 17c:	00048513          	addi	x10,x9,0
 180:	000780e7          	jalr	x1,0(x15)
 184:	01813083          	ld	x1,24(x2)
 188:	01013403          	ld	x8,16(x2)
 18c:	0019179b          	slliw	x15,x18,0x1
 190:	012787bb          	addw	x15,x15,x18
 194:	0015151b          	slliw	x10,x10,0x1
 198:	00813483          	ld	x9,8(x2)
 19c:	00013903          	ld	x18,0(x2)
 1a0:	00a7853b          	addw	x10,x15,x10
 1a4:	02010113          	addi	x2,x2,32
 1a8:	00008067          	jalr	x0,0(x1)
 1ac:	00008067          	jalr	x0,0(x1)
 1b0:	00050463          	beq	x10,x0,0x1b8
 1b4:	00008067          	jalr	x0,0(x1)
 1b8:	ff010113          	addi	x2,x2,-16
 1bc:	00100513          	addi	x10,x0,1
 1c0:	00113423          	sd	x1,8(x2)
 1c4:	084000ef          	jal	x1,0x248
 1c8:	ff010113          	addi	x2,x2,-16
 1cc:	00004537          	lui	x10,0x4
 1d0:	00113423          	sd	x1,8(x2)
 1d4:	00813023          	sd	x8,0(x2)
 1d8:	00000593          	addi	x11,x0,0
 1dc:	00000797          	auipc	x15,0x0
 1e0:	0b47b783          	ld	x15,180(x15) # 0x290
 1e4:	82350513          	addi	x10,x10,-2013 # 0x3823
 1e8:	000780e7          	jalr	x1,0(x15)
 1ec:	00000417          	auipc	x8,0x0
 1f0:	09440413          	addi	x8,x8,148 # 0x280
 1f4:	00042783          	lw	x15,0(x8)
 1f8:	40a78533          	sub	x10,x15,x10
 1fc:	00153513          	sltiu	x10,x10,1
 200:	fb1ff0ef          	jal	x1,0x1b0
 204:	00442503          	lw	x10,4(x8)
 208:	00000797          	auipc	x15,0x0
 20c:	0ac7a783          	lw	x15,172(x15) # 0x2b4
 210:	40f50533          	sub	x10,x10,x15
 214:	00153513          	sltiu	x10,x10,1
 218:	f99ff0ef          	jal	x1,0x1b0
 21c:	00842503          	lw	x10,8(x8)
 220:	00000797          	auipc	x15,0x0
 224:	0907a783          	lw	x15,144(x15) # 0x2b0
 228:	40f50533          	sub	x10,x10,x15
 22c:	00153513          	sltiu	x10,x10,1
 230:	f81ff0ef          	jal	x1,0x1b0
 234:	00813083          	ld	x1,8(x2)
 238:	00013403          	ld	x8,0(x2)
 23c:	00000513          	addi	x10,x0,0
 240:	01010113          	addi	x2,x2,16
 244:	00008067          	jalr	x0,0(x1)
 248:	00050513          	addi	x10,x10,0
 24c:	00100073          	ebreak
 250:	0000006f          	jal	x0,0x250
 254:	ff010113          	addi	x2,x2,-16
 258:	00000517          	auipc	x10,0x0
 25c:	02050513          	addi	x10,x10,32 # 0x278
 260:	00113423          	sd	x1,8(x2)
 264:	f65ff0ef          	jal	x1,0x1c8
 268:	00050513          	addi	x10,x10,0
 26c:	00100073          	ebreak
 270:	0000006f          	jal	x0,0x270
	...
 280:	957e                	c.add	x10,x31
 282:	0000                	c.unimp
 284:	00da                	c.slli	x1,0x16
 286:	0000                	c.unimp
 288:	0014                	.insn	2, 0x0014
 28a:	0000                	c.unimp
 28c:	0000                	c.unimp
 28e:	0000                	c.unimp
 290:	0010                	.insn	2, 0x0010
 292:	8000                	.insn	2, 0x8000
 294:	0000                	c.unimp
 296:	0000                	c.unimp
 298:	005c                	c.addi4spn	x15,x2,4
 29a:	8000                	.insn	2, 0x8000
 29c:	0000                	c.unimp
 29e:	0000                	c.unimp
 2a0:	00a4                	c.addi4spn	x9,x2,72
 2a2:	8000                	.insn	2, 0x8000
 2a4:	0000                	c.unimp
 2a6:	0000                	c.unimp
 2a8:	0108                	c.addi4spn	x10,x2,128
 2aa:	8000                	.insn	2, 0x8000
	...
