
build/switch-riscv64-nemu.bin:     file format binary


Disassembly of section .data:

0000000000000000 <.data>:
   0:	00000413          	addi	x8,x0,0
   4:	00009117          	auipc	x2,0x9
   8:	ffc10113          	addi	x2,x2,-4 # 0x9000
   c:	0c4000ef          	jal	x1,0xd0
  10:	00050463          	beq	x10,x0,0x18
  14:	00008067          	jalr	x0,0(x1)
  18:	ff010113          	addi	x2,x2,-16
  1c:	00100513          	addi	x10,x0,1
  20:	00113423          	sd	x1,8(x2)
  24:	0a0000ef          	jal	x1,0xc4
  28:	fd010113          	addi	x2,x2,-48
  2c:	02813023          	sd	x8,32(x2)
  30:	00913c23          	sd	x9,24(x2)
  34:	01213823          	sd	x18,16(x2)
  38:	01313423          	sd	x19,8(x2)
  3c:	01413023          	sd	x20,0(x2)
  40:	02113423          	sd	x1,40(x2)
  44:	00000417          	auipc	x8,0x0
  48:	0ec40413          	addi	x8,x8,236 # 0x130
  4c:	00000917          	auipc	x18,0x0
  50:	0a490913          	addi	x18,x18,164 # 0xf0
  54:	00000997          	auipc	x19,0x0
  58:	11498993          	addi	x19,x19,276 # 0x168
  5c:	00000493          	addi	x9,x0,0
  60:	fff00793          	addi	x15,x0,-1
  64:	00c00a13          	addi	x20,x0,12
  68:	01c0006f          	jal	x0,0x84
  6c:	fff00793          	addi	x15,x0,-1
  70:	009a6463          	bltu	x20,x9,0x78
  74:	00092783          	lw	x15,0(x18)
  78:	0014849b          	addiw	x9,x9,1
  7c:	00440413          	addi	x8,x8,4
  80:	00490913          	addi	x18,x18,4
  84:	00042503          	lw	x10,0(x8)
  88:	40f50533          	sub	x10,x10,x15
  8c:	00153513          	sltiu	x10,x10,1
  90:	f81ff0ef          	jal	x1,0x10
  94:	fd341ce3          	bne	x8,x19,0x6c
  98:	00100513          	addi	x10,x0,1
  9c:	f75ff0ef          	jal	x1,0x10
  a0:	02813083          	ld	x1,40(x2)
  a4:	02013403          	ld	x8,32(x2)
  a8:	01813483          	ld	x9,24(x2)
  ac:	01013903          	ld	x18,16(x2)
  b0:	00813983          	ld	x19,8(x2)
  b4:	00013a03          	ld	x20,0(x2)
  b8:	00000513          	addi	x10,x0,0
  bc:	03010113          	addi	x2,x2,48
  c0:	00008067          	jalr	x0,0(x1)
  c4:	00050513          	addi	x10,x10,0
  c8:	00100073          	ebreak
  cc:	0000006f          	jal	x0,0xcc
  d0:	ff010113          	addi	x2,x2,-16
  d4:	00000517          	auipc	x10,0x0
  d8:	05450513          	addi	x10,x10,84 # 0x128
  dc:	00113423          	sd	x1,8(x2)
  e0:	f49ff0ef          	jal	x1,0x28
  e4:	00050513          	addi	x10,x10,0
  e8:	00100073          	ebreak
  ec:	0000006f          	jal	x0,0xec
  f0:	0000                	c.unimp
  f2:	0000                	c.unimp
  f4:	0002                	c.slli64	x0
  f6:	0000                	c.unimp
  f8:	0005                	c.addi	x0,1
  fa:	0000                	c.unimp
  fc:	0005                	c.addi	x0,1
  fe:	0000                	c.unimp
 100:	0008                	.insn	2, 0x0008
 102:	0000                	c.unimp
 104:	0008                	.insn	2, 0x0008
 106:	0000                	c.unimp
 108:	0008                	.insn	2, 0x0008
 10a:	0000                	c.unimp
 10c:	0008                	.insn	2, 0x0008
 10e:	0000                	c.unimp
 110:	000a                	c.slli	x0,0x2
 112:	0000                	c.unimp
 114:	000a                	c.slli	x0,0x2
 116:	0000                	c.unimp
 118:	000a                	c.slli	x0,0x2
 11a:	0000                	c.unimp
 11c:	000a                	c.slli	x0,0x2
 11e:	0000                	c.unimp
 120:	0000000f          	fence	unknown,unknown
	...
 130:	ffff                	.insn	2, 0xffff
 132:	ffff                	.insn	2, 0xffff
 134:	0000                	c.unimp
 136:	0000                	c.unimp
 138:	0002                	c.slli64	x0
 13a:	0000                	c.unimp
 13c:	0005                	c.addi	x0,1
 13e:	0000                	c.unimp
 140:	0005                	c.addi	x0,1
 142:	0000                	c.unimp
 144:	0008                	.insn	2, 0x0008
 146:	0000                	c.unimp
 148:	0008                	.insn	2, 0x0008
 14a:	0000                	c.unimp
 14c:	0008                	.insn	2, 0x0008
 14e:	0000                	c.unimp
 150:	0008                	.insn	2, 0x0008
 152:	0000                	c.unimp
 154:	000a                	c.slli	x0,0x2
 156:	0000                	c.unimp
 158:	000a                	c.slli	x0,0x2
 15a:	0000                	c.unimp
 15c:	000a                	c.slli	x0,0x2
 15e:	0000                	c.unimp
 160:	000a                	c.slli	x0,0x2
 162:	0000                	c.unimp
 164:	0000000f          	fence	unknown,unknown
 168:	ffff                	.insn	2, 0xffff
 16a:	ffff                	.insn	2, 0xffff
