
elf/riscv-tests/rv64ui-p-addw:     file format binary

Contents of section .data:
 1000 6f000005 732f2034 930f8000 6308ff03  o...s/ 4....c...
 1010 930f9000 6304ff03 930fb000 6300ff03  ....c.......c...
 1020 130f0000 63040f00 67000f00 732f2034  ....c...g...s/ 4
 1030 63540f00 6f004000 93e19153 171f0000  cT..o.@....S....
 1040 23223ffc 171f0000 23200ffc 6ff01fff  #"?.....# ..o...
 1050 93000000 13010000 93010000 13020000  ................
 1060 93020000 13030000 93030000 13040000  ................
 1070 93040000 13050000 93050000 13060000  ................
 1080 93060000 13070000 93070000 13080000  ................
 1090 93080000 13090000 93090000 130a0000  ................
 10a0 930a0000 130b0000 930b0000 130c0000  ................
 10b0 930c0000 130d0000 930d0000 130e0000  ................
 10c0 930e0000 130f0000 930f0000 732540f1  ............s%@.
 10d0 63100500 97020000 93820201 73905230  c...........s.R0
 10e0 73504474 97020000 93820201 73905230  sPDt........s.R0
 10f0 73500018 97020000 93824202 73905230  sP........B.s.R0
 1100 9b021000 93925203 9382f2ff 7390023b  ......R.....s..;
 1110 9302f001 7390023a 73504030 97020000  ....s..:sP@0....
 1120 93824201 73905230 73502030 73503030  ..B.s.R0sP 0sP00
 1130 93010000 97020000 938202ed 73905230  ............s.R0
 1140 13051000 1315f501 635c0500 0f00f00f  ........c\......
 1150 93011000 9308d005 13050000 73000000  ............s...
 1160 93020000 638a0200 73905210 b7b20000  ....c...s.R.....
 1170 9b829210 73902230 73500030 97020000  ....s."0sP.0....
 1180 93824201 73901234 732540f1 73002030  ..B.s..4s%@.s. 0
 1190 93012000 93000000 13010000 3b872000  .. .........;. .
 11a0 93030000 6316774c 93013000 93001000  ....c.wL..0.....
 11b0 13011000 3b872000 93032000 631a774a  ....;. ... .c.wJ
 11c0 93014000 93003000 13017000 3b872000  ..@...0...p.;. .
 11d0 9303a000 631e7748 93015000 93000000  ....c.wH..P.....
 11e0 3781ffff 3b872000 b783ffff 63127748  7...;. .....c.wH
 11f0 93016000 b7000080 13010000 3b872000  ..`.........;. .
 1200 b7030080 63167746 93017000 b7000080  ....c.wF..p.....
 1210 3781ffff 3b872000 b783ff7f 631a7744  7...;. .....c.wD
 1220 93018000 93000000 37810000 1b01f1ff  ........7.......
 1230 3b872000 b7830000 9b83f3ff 631a7742  ;. .........c.wB
 1240 93019000 b7000080 9b80f0ff 13010000  ................
 1250 3b872000 b7030080 9b83f3ff 631a7740  ;. .........c.w@
 1260 9301a000 b7000080 9b80f0ff 37810000  ............7...
 1270 1b01f1ff 3b872000 b7830080 9b83e3ff  ....;. .........
 1280 6318773e 9301b000 b7000080 37810000  c.w>........7...
 1290 1b01f1ff 3b872000 b7830080 9b83f3ff  ....;. .........
 12a0 6318773c 9301c000 b7000080 9b80f0ff  c.w<............
 12b0 3781ffff 3b872000 b783ff7f 9b83f3ff  7...;. .........
 12c0 6318773a 9301d000 93000000 1301f0ff  c.w:............
 12d0 3b872000 9303f0ff 631c7738 9301e000  ;. .....c.w8....
 12e0 9300f0ff 13011000 3b872000 93030000  ........;. .....
 12f0 63107738 9301f000 9300f0ff 1301f0ff  c.w8............
 1300 3b872000 9303e0ff 63147736 93010001  ;. .....c.w6....
 1310 93001000 37010080 1b01f1ff 3b872000  ....7.......;. .
 1320 b7030080 63167734 93011001 9300d000  ....c.w4........
 1330 1301b000 bb802000 93038001 639a7032  ...... .....c.p2
 1340 93012001 9300e000 1301b000 3b812000  .. .........;. .
 1350 93039001 631e7130 93013001 9300d000  ....c.q0..0.....
 1360 bb801000 9303a001 63947030 93014001  ........c.p0..@.
 1370 13020000 9300d000 1301b000 3b872000  ............;. .
 1380 13030700 13021200 93022000 e31452fe  .......... ...R.
 1390 93038001 631e732c 93015001 13020000  ....c.s,..P.....
 13a0 9300e000 1301b000 3b872000 13000000  ........;. .....
 13b0 13030700 13021200 93022000 e31252fe  .......... ...R.
 13c0 93039001 6316732a 93016001 13020000  ....c.s*..`.....
 13d0 9300f000 1301b000 3b872000 13000000  ........;. .....
 13e0 13000000 13030700 13021200 93022000  .............. .
 13f0 e31052fe 9303a001 631c7326 93017001  ..R.....c.s&..p.
 1400 13020000 9300d000 1301b000 3b872000  ............;. .
 1410 13021200 93022000 e31652fe 93038001  ...... ...R.....
 1420 63187724 93018001 13020000 9300e000  c.w$............
 1430 1301b000 13000000 3b872000 13021200  ........;. .....
 1440 93022000 e31452fe 93039001 63127722  .. ...R.....c.w"
 1450 93019001 13020000 9300f000 1301b000  ................
 1460 13000000 13000000 3b872000 13021200  ........;. .....
 1470 93022000 e31252fe 9303a001 631a771e  .. ...R.....c.w.
 1480 9301a001 13020000 9300d000 13000000  ................
 1490 1301b000 3b872000 13021200 93022000  ....;. ....... .
 14a0 e31452fe 93038001 6314771c 9301b001  ..R.....c.w.....
 14b0 13020000 9300e000 13000000 1301b000  ................
 14c0 13000000 3b872000 13021200 93022000  ....;. ....... .
 14d0 e31252fe 93039001 631c7718 9301c001  ..R.....c.w.....
 14e0 13020000 9300f000 13000000 13000000  ................
 14f0 1301b000 3b872000 13021200 93022000  ....;. ....... .
 1500 e31252fe 9303a001 63147716 9301d001  ..R.....c.w.....
 1510 13020000 1301b000 9300d000 3b872000  ............;. .
 1520 13021200 93022000 e31652fe 93038001  ...... ...R.....
 1530 63107714 9301e001 13020000 1301b000  c.w.............
 1540 9300e000 13000000 3b872000 13021200  ........;. .....
 1550 93022000 e31452fe 93039001 631a7710  .. ...R.....c.w.
 1560 9301f001 13020000 1301b000 9300f000  ................
 1570 13000000 13000000 3b872000 13021200  ........;. .....
 1580 93022000 e31252fe 9303a001 6312770e  .. ...R.....c.w.
 1590 93010002 13020000 1301b000 13000000  ................
 15a0 9300d000 3b872000 13021200 93022000  ....;. ....... .
 15b0 e31452fe 93038001 631c770a 93011002  ..R.....c.w.....
 15c0 13020000 1301b000 13000000 9300e000  ................
 15d0 13000000 3b872000 13021200 93022000  ....;. ....... .
 15e0 e31252fe 93039001 63147708 93012002  ..R.....c.w... .
 15f0 13020000 1301b000 13000000 13000000  ................
 1600 9300f000 3b872000 13021200 93022000  ....;. ....... .
 1610 e31252fe 9303a001 631c7704 93013002  ..R.....c.w...0.
 1620 9300f000 3b011000 9303f000 63127104  ....;.......c.q.
 1630 93014002 93000002 3b810000 93030002  ..@.....;.......
 1640 63187102 93015002 bb000000 93030000  c.q...P.........
 1650 63907002 93016002 93000001 1301e001  c.p...`.........
 1660 3b802000 93030000 63147000 63103002  ;. .....c.p.c.0.
 1670 0f00f00f 63800100 93911100 93e11100  ....c...........
 1680 9308d005 13850100 73000000 0f00f00f  ........s.......
 1690 93011000 9308d005 13050000 73000000  ............s...
 16a0 731000c0 00000000 00000000 00000000  s...............
 16b0 00000000 00000000 00000000 00000000  ................
 16c0 00000000 00000000 00000000 00000000  ................
 16d0 00000000 00000000 00000000 00000000  ................
 16e0 00000000 00000000 00000000 00000000  ................
 16f0 00000000 00000000 00000000 00000000  ................
 1700 00000000 00000000 00000000 00000000  ................
 1710 00000000 00000000 00000000 00000000  ................
 1720 00000000 00000000 00000000 00000000  ................
 1730 00000000 00000000 00000000 00000000  ................
 1740 00000000 00000000 00000000 00000000  ................
 1750 00000000 00000000 00000000 00000000  ................
 1760 00000000 00000000 00000000 00000000  ................
 1770 00000000 00000000 00000000 00000000  ................
 1780 00000000 00000000 00000000 00000000  ................
 1790 00000000 00000000 00000000 00000000  ................
 17a0 00000000 00000000 00000000 00000000  ................
 17b0 00000000 00000000 00000000 00000000  ................
 17c0 00000000 00000000 00000000 00000000  ................
 17d0 00000000 00000000 00000000 00000000  ................
 17e0 00000000 00000000 00000000 00000000  ................
 17f0 00000000 00000000 00000000 00000000  ................
 1800 00000000 00000000 00000000 00000000  ................
 1810 00000000 00000000 00000000 00000000  ................
 1820 00000000 00000000 00000000 00000000  ................
 1830 00000000 00000000 00000000 00000000  ................
 1840 00000000 00000000 00000000 00000000  ................
 1850 00000000 00000000 00000000 00000000  ................
 1860 00000000 00000000 00000000 00000000  ................
 1870 00000000 00000000 00000000 00000000  ................
 1880 00000000 00000000 00000000 00000000  ................
 1890 00000000 00000000 00000000 00000000  ................
 18a0 00000000 00000000 00000000 00000000  ................
 18b0 00000000 00000000 00000000 00000000  ................
 18c0 00000000 00000000 00000000 00000000  ................
 18d0 00000000 00000000 00000000 00000000  ................
 18e0 00000000 00000000 00000000 00000000  ................
 18f0 00000000 00000000 00000000 00000000  ................
 1900 00000000 00000000 00000000 00000000  ................
 1910 00000000 00000000 00000000 00000000  ................
 1920 00000000 00000000 00000000 00000000  ................
 1930 00000000 00000000 00000000 00000000  ................
 1940 00000000 00000000 00000000 00000000  ................
 1950 00000000 00000000 00000000 00000000  ................
 1960 00000000 00000000 00000000 00000000  ................
 1970 00000000 00000000 00000000 00000000  ................
 1980 00000000 00000000 00000000 00000000  ................
 1990 00000000 00000000 00000000 00000000  ................
 19a0 00000000 00000000 00000000 00000000  ................
 19b0 00000000 00000000 00000000 00000000  ................
 19c0 00000000 00000000 00000000 00000000  ................
 19d0 00000000 00000000 00000000 00000000  ................
 19e0 00000000 00000000 00000000 00000000  ................
 19f0 00000000 00000000 00000000 00000000  ................
 1a00 00000000 00000000 00000000 00000000  ................
 1a10 00000000 00000000 00000000 00000000  ................
 1a20 00000000 00000000 00000000 00000000  ................
 1a30 00000000 00000000 00000000 00000000  ................
 1a40 00000000 00000000 00000000 00000000  ................
 1a50 00000000 00000000 00000000 00000000  ................
 1a60 00000000 00000000 00000000 00000000  ................
 1a70 00000000 00000000 00000000 00000000  ................
 1a80 00000000 00000000 00000000 00000000  ................
 1a90 00000000 00000000 00000000 00000000  ................
 1aa0 00000000 00000000 00000000 00000000  ................
 1ab0 00000000 00000000 00000000 00000000  ................
 1ac0 00000000 00000000 00000000 00000000  ................
 1ad0 00000000 00000000 00000000 00000000  ................
 1ae0 00000000 00000000 00000000 00000000  ................
 1af0 00000000 00000000 00000000 00000000  ................
 1b00 00000000 00000000 00000000 00000000  ................
 1b10 00000000 00000000 00000000 00000000  ................
 1b20 00000000 00000000 00000000 00000000  ................
 1b30 00000000 00000000 00000000 00000000  ................
 1b40 00000000 00000000 00000000 00000000  ................
 1b50 00000000 00000000 00000000 00000000  ................
 1b60 00000000 00000000 00000000 00000000  ................
 1b70 00000000 00000000 00000000 00000000  ................
 1b80 00000000 00000000 00000000 00000000  ................
 1b90 00000000 00000000 00000000 00000000  ................
 1ba0 00000000 00000000 00000000 00000000  ................
 1bb0 00000000 00000000 00000000 00000000  ................
 1bc0 00000000 00000000 00000000 00000000  ................
 1bd0 00000000 00000000 00000000 00000000  ................
 1be0 00000000 00000000 00000000 00000000  ................
 1bf0 00000000 00000000 00000000 00000000  ................
 1c00 00000000 00000000 00000000 00000000  ................
 1c10 00000000 00000000 00000000 00000000  ................
 1c20 00000000 00000000 00000000 00000000  ................
 1c30 00000000 00000000 00000000 00000000  ................
 1c40 00000000 00000000 00000000 00000000  ................
 1c50 00000000 00000000 00000000 00000000  ................
 1c60 00000000 00000000 00000000 00000000  ................
 1c70 00000000 00000000 00000000 00000000  ................
 1c80 00000000 00000000 00000000 00000000  ................
 1c90 00000000 00000000 00000000 00000000  ................
 1ca0 00000000 00000000 00000000 00000000  ................
 1cb0 00000000 00000000 00000000 00000000  ................
 1cc0 00000000 00000000 00000000 00000000  ................
 1cd0 00000000 00000000 00000000 00000000  ................
 1ce0 00000000 00000000 00000000 00000000  ................
 1cf0 00000000 00000000 00000000 00000000  ................
 1d00 00000000 00000000 00000000 00000000  ................
 1d10 00000000 00000000 00000000 00000000  ................
 1d20 00000000 00000000 00000000 00000000  ................
 1d30 00000000 00000000 00000000 00000000  ................
 1d40 00000000 00000000 00000000 00000000  ................
 1d50 00000000 00000000 00000000 00000000  ................
 1d60 00000000 00000000 00000000 00000000  ................
 1d70 00000000 00000000 00000000 00000000  ................
 1d80 00000000 00000000 00000000 00000000  ................
 1d90 00000000 00000000 00000000 00000000  ................
 1da0 00000000 00000000 00000000 00000000  ................
 1db0 00000000 00000000 00000000 00000000  ................
 1dc0 00000000 00000000 00000000 00000000  ................
 1dd0 00000000 00000000 00000000 00000000  ................
 1de0 00000000 00000000 00000000 00000000  ................
 1df0 00000000 00000000 00000000 00000000  ................
 1e00 00000000 00000000 00000000 00000000  ................
 1e10 00000000 00000000 00000000 00000000  ................
 1e20 00000000 00000000 00000000 00000000  ................
 1e30 00000000 00000000 00000000 00000000  ................
 1e40 00000000 00000000 00000000 00000000  ................
 1e50 00000000 00000000 00000000 00000000  ................
 1e60 00000000 00000000 00000000 00000000  ................
 1e70 00000000 00000000 00000000 00000000  ................
 1e80 00000000 00000000 00000000 00000000  ................
 1e90 00000000 00000000 00000000 00000000  ................
 1ea0 00000000 00000000 00000000 00000000  ................
 1eb0 00000000 00000000 00000000 00000000  ................
 1ec0 00000000 00000000 00000000 00000000  ................
 1ed0 00000000 00000000 00000000 00000000  ................
 1ee0 00000000 00000000 00000000 00000000  ................
 1ef0 00000000 00000000 00000000 00000000  ................
 1f00 00000000 00000000 00000000 00000000  ................
 1f10 00000000 00000000 00000000 00000000  ................
 1f20 00000000 00000000 00000000 00000000  ................
 1f30 00000000 00000000 00000000 00000000  ................
 1f40 00000000 00000000 00000000 00000000  ................
 1f50 00000000 00000000 00000000 00000000  ................
 1f60 00000000 00000000 00000000 00000000  ................
 1f70 00000000 00000000 00000000 00000000  ................
 1f80 00000000 00000000 00000000 00000000  ................
 1f90 00000000 00000000 00000000 00000000  ................
 1fa0 00000000 00000000 00000000 00000000  ................
 1fb0 00000000 00000000 00000000 00000000  ................
 1fc0 00000000 00000000 00000000 00000000  ................
 1fd0 00000000 00000000 00000000 00000000  ................
 1fe0 00000000 00000000 00000000 00000000  ................
 1ff0 00000000 00000000 00000000 00000000  ................
 2000 00000000 00000000 00000000 00000000  ................
 2010 00000000 00000000 00000000 00000000  ................
 2020 00000000 00000000 00000000 00000000  ................
 2030 00000000 00000000 00000000 00000000  ................
 2040 00000000 00000000 414f0000 00726973  ........AO...ris
 2050 63760001 45000000 05727636 34693270  cv..E....rv64i2p
 2060 315f6d32 70305f61 3270315f 66327032  1_m2p0_a2p1_f2p2
 2070 5f643270 325f7a69 63737232 70305f7a  _d2p2_zicsr2p0_z
 2080 6966656e 63656932 70305f7a 6d6d756c  ifencei2p0_zmmul
 2090 31703000 08010a0b 00000000 00000000  1p0.............
 20a0 00000000 00000000 00000000 00000000  ................
 20b0 00000000 03000100 00000080 00000000  ................
 20c0 00000000 00000000 00000000 03000200  ................
 20d0 00100080 00000000 00000000 00000000  ................
 20e0 00000000 03000300 00000000 00000000  ................
 20f0 00000000 00000000 01000000 0400f1ff  ................
 2100 00000000 00000000 00000000 00000000  ................
 2110 0c000000 00000100 00000080 00000000  ................
 2120 00000000 00000000 49000000 00000100  ........I.......
 2130 50000080 00000000 00000000 00000000  P...............
 2140 56000000 00000100 04000080 00000000  V...............
 2150 00000000 00000000 62000000 00000100  ........b.......
 2160 3c000080 00000000 00000000 00000000  <...............
 2170 6f000000 00000100 38000080 00000000  o.......8.......
 2180 00000000 00000000 80000000 00000100  ................
 2190 38000080 00000000 00000000 00000000  8...............
 21a0 90000000 00000100 90010080 00000000  ................
 21b0 00000000 00000000 97000000 00000100  ................
 21c0 70060080 00000000 00000000 00000000  p...............
 21d0 9c000000 00000100 a8010080 00000000  ................
 21e0 00000000 00000000 a3000000 00000100  ................
 21f0 c0010080 00000000 00000000 00000000  ................
 2200 aa000000 00000100 d8010080 00000000  ................
 2210 00000000 00000000 b1000000 00000100  ................
 2220 f0010080 00000000 00000000 00000000  ................
 2230 b8000000 00000100 08020080 00000000  ................
 2240 00000000 00000000 bf000000 00000100  ................
 2250 20020080 00000000 00000000 00000000   ...............
 2260 c6000000 00000100 40020080 00000000  ........@.......
 2270 00000000 00000000 cd000000 00000100  ................
 2280 60020080 00000000 00000000 00000000  `...............
 2290 d5000000 00000100 84020080 00000000  ................
 22a0 00000000 00000000 dd000000 00000100  ................
 22b0 a4020080 00000000 00000000 00000000  ................
 22c0 e5000000 00000100 c4020080 00000000  ................
 22d0 00000000 00000000 ed000000 00000100  ................
 22e0 dc020080 00000000 00000000 00000000  ................
 22f0 f5000000 00000100 f4020080 00000000  ................
 2300 00000000 00000000 fd000000 00000100  ................
 2310 0c030080 00000000 00000000 00000000  ................
 2320 05010000 00000100 28030080 00000000  ........(.......
 2330 00000000 00000000 0d010000 00000100  ................
 2340 40030080 00000000 00000000 00000000  @...............
 2350 15010000 00000100 58030080 00000000  ........X.......
 2360 00000000 00000000 1d010000 00000100  ................
 2370 6c030080 00000000 00000000 00000000  l...............
 2380 25010000 00000100 98030080 00000000  %...............
 2390 00000000 00000000 2d010000 00000100  ........-.......
 23a0 c8030080 00000000 00000000 00000000  ................
 23b0 35010000 00000100 fc030080 00000000  5...............
 23c0 00000000 00000000 3d010000 00000100  ........=.......
 23d0 24040080 00000000 00000000 00000000  $...............
 23e0 45010000 00000100 50040080 00000000  E.......P.......
 23f0 00000000 00000000 4d010000 00000100  ........M.......
 2400 80040080 00000000 00000000 00000000  ................
 2410 55010000 00000100 ac040080 00000000  U...............
 2420 00000000 00000000 5d010000 00000100  ........].......
 2430 dc040080 00000000 00000000 00000000  ................
 2440 65010000 00000100 0c050080 00000000  e...............
 2450 00000000 00000000 6d010000 00000100  ........m.......
 2460 34050080 00000000 00000000 00000000  4...............
 2470 75010000 00000100 60050080 00000000  u.......`.......
 2480 00000000 00000000 7d010000 00000100  ........}.......
 2490 90050080 00000000 00000000 00000000  ................
 24a0 85010000 00000100 bc050080 00000000  ................
 24b0 00000000 00000000 8d010000 00000100  ................
 24c0 ec050080 00000000 00000000 00000000  ................
 24d0 95010000 00000100 1c060080 00000000  ................
 24e0 00000000 00000000 9d010000 00000100  ................
 24f0 30060080 00000000 00000000 00000000  0...............
 2500 a5010000 00000100 44060080 00000000  ........D.......
 2510 00000000 00000000 ad010000 00000100  ................
 2520 54060080 00000000 00000000 00000000  T...............
 2530 b5010000 00000100 8c060080 00000000  ................
 2540 00000000 00000000 ba010000 10000200  ................
 2550 00200080 00000000 00000000 00000000  . ..............
 2560 c8010000 10000200 00200080 00000000  ......... ......
 2570 00000000 00000000 d8010000 10000100  ................
 2580 00000080 00000000 00000000 00000000  ................
 2590 df010000 10000200 00200080 00000000  ......... ......
 25a0 00000000 00000000 e4010000 10000200  ................
 25b0 40100080 00000000 08000000 00000000  @...............
 25c0 68000000 10000200 00100080 00000000  h...............
 25d0 08000000 00000000 00636374 6f784473  .........cctoxDs
 25e0 662e6f00 24787276 36346932 70315f6d  f.o.$xrv64i2p1_m
 25f0 3270305f 61327031 5f663270 325f6432  2p0_a2p1_f2p2_d2
 2600 70325f7a 69637372 3270305f 7a696665  p2_zicsr2p0_zife
 2610 6e636569 3270305f 7a6d6d75 6c317030  ncei2p0_zmmul1p0
 2620 00726573 65745f76 6563746f 72007472  .reset_vector.tr
 2630 61705f76 6563746f 72007772 6974655f  ap_vector.write_
 2640 746f686f 73740068 616e646c 655f6578  tohost.handle_ex
 2650 63657074 696f6e00 6f746865 725f6578  ception.other_ex
 2660 63657074 696f6e00 74657374 5f320066  ception.test_2.f
 2670 61696c00 74657374 5f330074 6573745f  ail.test_3.test_
 2680 34007465 73745f35 00746573 745f3600  4.test_5.test_6.
 2690 74657374 5f370074 6573745f 38007465  test_7.test_8.te
 26a0 73745f39 00746573 745f3130 00746573  st_9.test_10.tes
 26b0 745f3131 00746573 745f3132 00746573  t_11.test_12.tes
 26c0 745f3133 00746573 745f3134 00746573  t_13.test_14.tes
 26d0 745f3135 00746573 745f3136 00746573  t_15.test_16.tes
 26e0 745f3137 00746573 745f3138 00746573  t_17.test_18.tes
 26f0 745f3139 00746573 745f3230 00746573  t_19.test_20.tes
 2700 745f3231 00746573 745f3232 00746573  t_21.test_22.tes
 2710 745f3233 00746573 745f3234 00746573  t_23.test_24.tes
 2720 745f3235 00746573 745f3236 00746573  t_25.test_26.tes
 2730 745f3237 00746573 745f3238 00746573  t_27.test_28.tes
 2740 745f3239 00746573 745f3330 00746573  t_29.test_30.tes
 2750 745f3331 00746573 745f3332 00746573  t_31.test_32.tes
 2760 745f3333 00746573 745f3334 00746573  t_33.test_34.tes
 2770 745f3335 00746573 745f3336 00746573  t_35.test_36.tes
 2780 745f3337 00746573 745f3338 00706173  t_37.test_38.pas
 2790 7300656e 645f7369 676e6174 75726500  s.end_signature.
 27a0 62656769 6e5f7369 676e6174 75726500  begin_signature.
 27b0 5f737461 7274005f 656e6400 66726f6d  _start._end.from
 27c0 686f7374 00002e73 796d7461 62002e73  host...symtab..s
 27d0 74727461 62002e73 68737472 74616200  trtab..shstrtab.
 27e0 2e746578 742e696e 6974002e 746f686f  .text.init..toho
 27f0 7374002e 72697363 762e6174 74726962  st..riscv.attrib
 2800 75746573 00000000 00000000 00000000  utes............
 2810 00000000 00000000 00000000 00000000  ................
 2820 00000000 00000000 00000000 00000000  ................
 2830 00000000 00000000 00000000 00000000  ................
 2840 00000000 00000000 1b000000 01000000  ................
 2850 06000000 00000000 00000080 00000000  ................
 2860 00100000 00000000 bc060000 00000000  ................
 2870 00000000 00000000 40000000 00000000  ........@.......
 2880 00000000 00000000 26000000 01000000  ........&.......
 2890 03000000 00000000 00100080 00000000  ................
 28a0 00200000 00000000 48000000 00000000  . ......H.......
 28b0 00000000 00000000 40000000 00000000  ........@.......
 28c0 00000000 00000000 2e000000 03000070  ...............p
 28d0 00000000 00000000 00000000 00000000  ................
 28e0 48200000 00000000 50000000 00000000  H ......P.......
 28f0 00000000 00000000 01000000 00000000  ................
 2900 00000000 00000000 01000000 02000000  ................
 2910 00000000 00000000 00000000 00000000  ................
 2920 98200000 00000000 40050000 00000000  . ......@.......
 2930 05000000 32000000 08000000 00000000  ....2...........
 2940 18000000 00000000 09000000 03000000  ................
 2950 00000000 00000000 00000000 00000000  ................
 2960 d8250000 00000000 ed010000 00000000  .%..............
 2970 00000000 00000000 01000000 00000000  ................
 2980 00000000 00000000 11000000 03000000  ................
 2990 00000000 00000000 00000000 00000000  ................
 29a0 c5270000 00000000 40000000 00000000  .'......@.......
 29b0 00000000 00000000 01000000 00000000  ................
 29c0 00000000 00000000                    ........        

Disassembly of section .data:

0000000000001000 <.data+0x1000>:
    1000:	0500006f          	jal	x0,0x1050
    1004:	34202f73          	csrrs	x30,mcause,x0
    1008:	00800f93          	addi	x31,x0,8
    100c:	03ff0863          	beq	x30,x31,0x103c
    1010:	00900f93          	addi	x31,x0,9
    1014:	03ff0463          	beq	x30,x31,0x103c
    1018:	00b00f93          	addi	x31,x0,11
    101c:	03ff0063          	beq	x30,x31,0x103c
    1020:	00000f13          	addi	x30,x0,0
    1024:	000f0463          	beq	x30,x0,0x102c
    1028:	000f0067          	jalr	x0,0(x30)
    102c:	34202f73          	csrrs	x30,mcause,x0
    1030:	000f5463          	bge	x30,x0,0x1038
    1034:	0040006f          	jal	x0,0x1038
    1038:	5391e193          	ori	x3,x3,1337
    103c:	00001f17          	auipc	x30,0x1
    1040:	fc3f2223          	sw	x3,-60(x30) # 0x2000
    1044:	00001f17          	auipc	x30,0x1
    1048:	fc0f2023          	sw	x0,-64(x30) # 0x2004
    104c:	ff1ff06f          	jal	x0,0x103c
    1050:	00000093          	addi	x1,x0,0
    1054:	00000113          	addi	x2,x0,0
    1058:	00000193          	addi	x3,x0,0
    105c:	00000213          	addi	x4,x0,0
    1060:	00000293          	addi	x5,x0,0
    1064:	00000313          	addi	x6,x0,0
    1068:	00000393          	addi	x7,x0,0
    106c:	00000413          	addi	x8,x0,0
    1070:	00000493          	addi	x9,x0,0
    1074:	00000513          	addi	x10,x0,0
    1078:	00000593          	addi	x11,x0,0
    107c:	00000613          	addi	x12,x0,0
    1080:	00000693          	addi	x13,x0,0
    1084:	00000713          	addi	x14,x0,0
    1088:	00000793          	addi	x15,x0,0
    108c:	00000813          	addi	x16,x0,0
    1090:	00000893          	addi	x17,x0,0
    1094:	00000913          	addi	x18,x0,0
    1098:	00000993          	addi	x19,x0,0
    109c:	00000a13          	addi	x20,x0,0
    10a0:	00000a93          	addi	x21,x0,0
    10a4:	00000b13          	addi	x22,x0,0
    10a8:	00000b93          	addi	x23,x0,0
    10ac:	00000c13          	addi	x24,x0,0
    10b0:	00000c93          	addi	x25,x0,0
    10b4:	00000d13          	addi	x26,x0,0
    10b8:	00000d93          	addi	x27,x0,0
    10bc:	00000e13          	addi	x28,x0,0
    10c0:	00000e93          	addi	x29,x0,0
    10c4:	00000f13          	addi	x30,x0,0
    10c8:	00000f93          	addi	x31,x0,0
    10cc:	f1402573          	csrrs	x10,mhartid,x0
    10d0:	00051063          	bne	x10,x0,0x10d0
    10d4:	00000297          	auipc	x5,0x0
    10d8:	01028293          	addi	x5,x5,16 # 0x10e4
    10dc:	30529073          	csrrw	x0,mtvec,x5
    10e0:	74445073          	csrrwi	x0,0x744,8
    10e4:	00000297          	auipc	x5,0x0
    10e8:	01028293          	addi	x5,x5,16 # 0x10f4
    10ec:	30529073          	csrrw	x0,mtvec,x5
    10f0:	18005073          	csrrwi	x0,satp,0
    10f4:	00000297          	auipc	x5,0x0
    10f8:	02428293          	addi	x5,x5,36 # 0x1118
    10fc:	30529073          	csrrw	x0,mtvec,x5
    1100:	0010029b          	addiw	x5,x0,1
    1104:	03529293          	slli	x5,x5,0x35
    1108:	fff28293          	addi	x5,x5,-1
    110c:	3b029073          	csrrw	x0,pmpaddr0,x5
    1110:	01f00293          	addi	x5,x0,31
    1114:	3a029073          	csrrw	x0,pmpcfg0,x5
    1118:	30405073          	csrrwi	x0,mie,0
    111c:	00000297          	auipc	x5,0x0
    1120:	01428293          	addi	x5,x5,20 # 0x1130
    1124:	30529073          	csrrw	x0,mtvec,x5
    1128:	30205073          	csrrwi	x0,medeleg,0
    112c:	30305073          	csrrwi	x0,mideleg,0
    1130:	00000193          	addi	x3,x0,0
    1134:	00000297          	auipc	x5,0x0
    1138:	ed028293          	addi	x5,x5,-304 # 0x1004
    113c:	30529073          	csrrw	x0,mtvec,x5
    1140:	00100513          	addi	x10,x0,1
    1144:	01f51513          	slli	x10,x10,0x1f
    1148:	00055c63          	bge	x10,x0,0x1160
    114c:	0ff0000f          	fence	iorw,iorw
    1150:	00100193          	addi	x3,x0,1
    1154:	05d00893          	addi	x17,x0,93
    1158:	00000513          	addi	x10,x0,0
    115c:	00000073          	ecall
    1160:	00000293          	addi	x5,x0,0
    1164:	00028a63          	beq	x5,x0,0x1178
    1168:	10529073          	csrrw	x0,stvec,x5
    116c:	0000b2b7          	lui	x5,0xb
    1170:	1092829b          	addiw	x5,x5,265 # 0xb109
    1174:	30229073          	csrrw	x0,medeleg,x5
    1178:	30005073          	csrrwi	x0,mstatus,0
    117c:	00000297          	auipc	x5,0x0
    1180:	01428293          	addi	x5,x5,20 # 0x1190
    1184:	34129073          	csrrw	x0,mepc,x5
    1188:	f1402573          	csrrs	x10,mhartid,x0
    118c:	30200073          	mret
    1190:	00200193          	addi	x3,x0,2
    1194:	00000093          	addi	x1,x0,0
    1198:	00000113          	addi	x2,x0,0
    119c:	0020873b          	addw	x14,x1,x2
    11a0:	00000393          	addi	x7,x0,0
    11a4:	4c771663          	bne	x14,x7,0x1670
    11a8:	00300193          	addi	x3,x0,3
    11ac:	00100093          	addi	x1,x0,1
    11b0:	00100113          	addi	x2,x0,1
    11b4:	0020873b          	addw	x14,x1,x2
    11b8:	00200393          	addi	x7,x0,2
    11bc:	4a771a63          	bne	x14,x7,0x1670
    11c0:	00400193          	addi	x3,x0,4
    11c4:	00300093          	addi	x1,x0,3
    11c8:	00700113          	addi	x2,x0,7
    11cc:	0020873b          	addw	x14,x1,x2
    11d0:	00a00393          	addi	x7,x0,10
    11d4:	48771e63          	bne	x14,x7,0x1670
    11d8:	00500193          	addi	x3,x0,5
    11dc:	00000093          	addi	x1,x0,0
    11e0:	ffff8137          	lui	x2,0xffff8
    11e4:	0020873b          	addw	x14,x1,x2
    11e8:	ffff83b7          	lui	x7,0xffff8
    11ec:	48771263          	bne	x14,x7,0x1670
    11f0:	00600193          	addi	x3,x0,6
    11f4:	800000b7          	lui	x1,0x80000
    11f8:	00000113          	addi	x2,x0,0
    11fc:	0020873b          	addw	x14,x1,x2
    1200:	800003b7          	lui	x7,0x80000
    1204:	46771663          	bne	x14,x7,0x1670
    1208:	00700193          	addi	x3,x0,7
    120c:	800000b7          	lui	x1,0x80000
    1210:	ffff8137          	lui	x2,0xffff8
    1214:	0020873b          	addw	x14,x1,x2
    1218:	7fff83b7          	lui	x7,0x7fff8
    121c:	44771a63          	bne	x14,x7,0x1670
    1220:	00800193          	addi	x3,x0,8
    1224:	00000093          	addi	x1,x0,0
    1228:	00008137          	lui	x2,0x8
    122c:	fff1011b          	addiw	x2,x2,-1 # 0x7fff
    1230:	0020873b          	addw	x14,x1,x2
    1234:	000083b7          	lui	x7,0x8
    1238:	fff3839b          	addiw	x7,x7,-1 # 0x7fff
    123c:	42771a63          	bne	x14,x7,0x1670
    1240:	00900193          	addi	x3,x0,9
    1244:	800000b7          	lui	x1,0x80000
    1248:	fff0809b          	addiw	x1,x1,-1 # 0x7fffffff
    124c:	00000113          	addi	x2,x0,0
    1250:	0020873b          	addw	x14,x1,x2
    1254:	800003b7          	lui	x7,0x80000
    1258:	fff3839b          	addiw	x7,x7,-1 # 0x7fffffff
    125c:	40771a63          	bne	x14,x7,0x1670
    1260:	00a00193          	addi	x3,x0,10
    1264:	800000b7          	lui	x1,0x80000
    1268:	fff0809b          	addiw	x1,x1,-1 # 0x7fffffff
    126c:	00008137          	lui	x2,0x8
    1270:	fff1011b          	addiw	x2,x2,-1 # 0x7fff
    1274:	0020873b          	addw	x14,x1,x2
    1278:	800083b7          	lui	x7,0x80008
    127c:	ffe3839b          	addiw	x7,x7,-2 # 0xffffffff80007ffe
    1280:	3e771863          	bne	x14,x7,0x1670
    1284:	00b00193          	addi	x3,x0,11
    1288:	800000b7          	lui	x1,0x80000
    128c:	00008137          	lui	x2,0x8
    1290:	fff1011b          	addiw	x2,x2,-1 # 0x7fff
    1294:	0020873b          	addw	x14,x1,x2
    1298:	800083b7          	lui	x7,0x80008
    129c:	fff3839b          	addiw	x7,x7,-1 # 0xffffffff80007fff
    12a0:	3c771863          	bne	x14,x7,0x1670
    12a4:	00c00193          	addi	x3,x0,12
    12a8:	800000b7          	lui	x1,0x80000
    12ac:	fff0809b          	addiw	x1,x1,-1 # 0x7fffffff
    12b0:	ffff8137          	lui	x2,0xffff8
    12b4:	0020873b          	addw	x14,x1,x2
    12b8:	7fff83b7          	lui	x7,0x7fff8
    12bc:	fff3839b          	addiw	x7,x7,-1 # 0x7fff7fff
    12c0:	3a771863          	bne	x14,x7,0x1670
    12c4:	00d00193          	addi	x3,x0,13
    12c8:	00000093          	addi	x1,x0,0
    12cc:	fff00113          	addi	x2,x0,-1
    12d0:	0020873b          	addw	x14,x1,x2
    12d4:	fff00393          	addi	x7,x0,-1
    12d8:	38771c63          	bne	x14,x7,0x1670
    12dc:	00e00193          	addi	x3,x0,14
    12e0:	fff00093          	addi	x1,x0,-1
    12e4:	00100113          	addi	x2,x0,1
    12e8:	0020873b          	addw	x14,x1,x2
    12ec:	00000393          	addi	x7,x0,0
    12f0:	38771063          	bne	x14,x7,0x1670
    12f4:	00f00193          	addi	x3,x0,15
    12f8:	fff00093          	addi	x1,x0,-1
    12fc:	fff00113          	addi	x2,x0,-1
    1300:	0020873b          	addw	x14,x1,x2
    1304:	ffe00393          	addi	x7,x0,-2
    1308:	36771463          	bne	x14,x7,0x1670
    130c:	01000193          	addi	x3,x0,16
    1310:	00100093          	addi	x1,x0,1
    1314:	80000137          	lui	x2,0x80000
    1318:	fff1011b          	addiw	x2,x2,-1 # 0x7fffffff
    131c:	0020873b          	addw	x14,x1,x2
    1320:	800003b7          	lui	x7,0x80000
    1324:	34771663          	bne	x14,x7,0x1670
    1328:	01100193          	addi	x3,x0,17
    132c:	00d00093          	addi	x1,x0,13
    1330:	00b00113          	addi	x2,x0,11
    1334:	002080bb          	addw	x1,x1,x2
    1338:	01800393          	addi	x7,x0,24
    133c:	32709a63          	bne	x1,x7,0x1670
    1340:	01200193          	addi	x3,x0,18
    1344:	00e00093          	addi	x1,x0,14
    1348:	00b00113          	addi	x2,x0,11
    134c:	0020813b          	addw	x2,x1,x2
    1350:	01900393          	addi	x7,x0,25
    1354:	30711e63          	bne	x2,x7,0x1670
    1358:	01300193          	addi	x3,x0,19
    135c:	00d00093          	addi	x1,x0,13
    1360:	001080bb          	addw	x1,x1,x1
    1364:	01a00393          	addi	x7,x0,26
    1368:	30709463          	bne	x1,x7,0x1670
    136c:	01400193          	addi	x3,x0,20
    1370:	00000213          	addi	x4,x0,0
    1374:	00d00093          	addi	x1,x0,13
    1378:	00b00113          	addi	x2,x0,11
    137c:	0020873b          	addw	x14,x1,x2
    1380:	00070313          	addi	x6,x14,0
    1384:	00120213          	addi	x4,x4,1 # 0x1
    1388:	00200293          	addi	x5,x0,2
    138c:	fe5214e3          	bne	x4,x5,0x1374
    1390:	01800393          	addi	x7,x0,24
    1394:	2c731e63          	bne	x6,x7,0x1670
    1398:	01500193          	addi	x3,x0,21
    139c:	00000213          	addi	x4,x0,0
    13a0:	00e00093          	addi	x1,x0,14
    13a4:	00b00113          	addi	x2,x0,11
    13a8:	0020873b          	addw	x14,x1,x2
    13ac:	00000013          	addi	x0,x0,0
    13b0:	00070313          	addi	x6,x14,0
    13b4:	00120213          	addi	x4,x4,1 # 0x1
    13b8:	00200293          	addi	x5,x0,2
    13bc:	fe5212e3          	bne	x4,x5,0x13a0
    13c0:	01900393          	addi	x7,x0,25
    13c4:	2a731663          	bne	x6,x7,0x1670
    13c8:	01600193          	addi	x3,x0,22
    13cc:	00000213          	addi	x4,x0,0
    13d0:	00f00093          	addi	x1,x0,15
    13d4:	00b00113          	addi	x2,x0,11
    13d8:	0020873b          	addw	x14,x1,x2
    13dc:	00000013          	addi	x0,x0,0
    13e0:	00000013          	addi	x0,x0,0
    13e4:	00070313          	addi	x6,x14,0
    13e8:	00120213          	addi	x4,x4,1 # 0x1
    13ec:	00200293          	addi	x5,x0,2
    13f0:	fe5210e3          	bne	x4,x5,0x13d0
    13f4:	01a00393          	addi	x7,x0,26
    13f8:	26731c63          	bne	x6,x7,0x1670
    13fc:	01700193          	addi	x3,x0,23
    1400:	00000213          	addi	x4,x0,0
    1404:	00d00093          	addi	x1,x0,13
    1408:	00b00113          	addi	x2,x0,11
    140c:	0020873b          	addw	x14,x1,x2
    1410:	00120213          	addi	x4,x4,1 # 0x1
    1414:	00200293          	addi	x5,x0,2
    1418:	fe5216e3          	bne	x4,x5,0x1404
    141c:	01800393          	addi	x7,x0,24
    1420:	24771863          	bne	x14,x7,0x1670
    1424:	01800193          	addi	x3,x0,24
    1428:	00000213          	addi	x4,x0,0
    142c:	00e00093          	addi	x1,x0,14
    1430:	00b00113          	addi	x2,x0,11
    1434:	00000013          	addi	x0,x0,0
    1438:	0020873b          	addw	x14,x1,x2
    143c:	00120213          	addi	x4,x4,1 # 0x1
    1440:	00200293          	addi	x5,x0,2
    1444:	fe5214e3          	bne	x4,x5,0x142c
    1448:	01900393          	addi	x7,x0,25
    144c:	22771263          	bne	x14,x7,0x1670
    1450:	01900193          	addi	x3,x0,25
    1454:	00000213          	addi	x4,x0,0
    1458:	00f00093          	addi	x1,x0,15
    145c:	00b00113          	addi	x2,x0,11
    1460:	00000013          	addi	x0,x0,0
    1464:	00000013          	addi	x0,x0,0
    1468:	0020873b          	addw	x14,x1,x2
    146c:	00120213          	addi	x4,x4,1 # 0x1
    1470:	00200293          	addi	x5,x0,2
    1474:	fe5212e3          	bne	x4,x5,0x1458
    1478:	01a00393          	addi	x7,x0,26
    147c:	1e771a63          	bne	x14,x7,0x1670
    1480:	01a00193          	addi	x3,x0,26
    1484:	00000213          	addi	x4,x0,0
    1488:	00d00093          	addi	x1,x0,13
    148c:	00000013          	addi	x0,x0,0
    1490:	00b00113          	addi	x2,x0,11
    1494:	0020873b          	addw	x14,x1,x2
    1498:	00120213          	addi	x4,x4,1 # 0x1
    149c:	00200293          	addi	x5,x0,2
    14a0:	fe5214e3          	bne	x4,x5,0x1488
    14a4:	01800393          	addi	x7,x0,24
    14a8:	1c771463          	bne	x14,x7,0x1670
    14ac:	01b00193          	addi	x3,x0,27
    14b0:	00000213          	addi	x4,x0,0
    14b4:	00e00093          	addi	x1,x0,14
    14b8:	00000013          	addi	x0,x0,0
    14bc:	00b00113          	addi	x2,x0,11
    14c0:	00000013          	addi	x0,x0,0
    14c4:	0020873b          	addw	x14,x1,x2
    14c8:	00120213          	addi	x4,x4,1 # 0x1
    14cc:	00200293          	addi	x5,x0,2
    14d0:	fe5212e3          	bne	x4,x5,0x14b4
    14d4:	01900393          	addi	x7,x0,25
    14d8:	18771c63          	bne	x14,x7,0x1670
    14dc:	01c00193          	addi	x3,x0,28
    14e0:	00000213          	addi	x4,x0,0
    14e4:	00f00093          	addi	x1,x0,15
    14e8:	00000013          	addi	x0,x0,0
    14ec:	00000013          	addi	x0,x0,0
    14f0:	00b00113          	addi	x2,x0,11
    14f4:	0020873b          	addw	x14,x1,x2
    14f8:	00120213          	addi	x4,x4,1 # 0x1
    14fc:	00200293          	addi	x5,x0,2
    1500:	fe5212e3          	bne	x4,x5,0x14e4
    1504:	01a00393          	addi	x7,x0,26
    1508:	16771463          	bne	x14,x7,0x1670
    150c:	01d00193          	addi	x3,x0,29
    1510:	00000213          	addi	x4,x0,0
    1514:	00b00113          	addi	x2,x0,11
    1518:	00d00093          	addi	x1,x0,13
    151c:	0020873b          	addw	x14,x1,x2
    1520:	00120213          	addi	x4,x4,1 # 0x1
    1524:	00200293          	addi	x5,x0,2
    1528:	fe5216e3          	bne	x4,x5,0x1514
    152c:	01800393          	addi	x7,x0,24
    1530:	14771063          	bne	x14,x7,0x1670
    1534:	01e00193          	addi	x3,x0,30
    1538:	00000213          	addi	x4,x0,0
    153c:	00b00113          	addi	x2,x0,11
    1540:	00e00093          	addi	x1,x0,14
    1544:	00000013          	addi	x0,x0,0
    1548:	0020873b          	addw	x14,x1,x2
    154c:	00120213          	addi	x4,x4,1 # 0x1
    1550:	00200293          	addi	x5,x0,2
    1554:	fe5214e3          	bne	x4,x5,0x153c
    1558:	01900393          	addi	x7,x0,25
    155c:	10771a63          	bne	x14,x7,0x1670
    1560:	01f00193          	addi	x3,x0,31
    1564:	00000213          	addi	x4,x0,0
    1568:	00b00113          	addi	x2,x0,11
    156c:	00f00093          	addi	x1,x0,15
    1570:	00000013          	addi	x0,x0,0
    1574:	00000013          	addi	x0,x0,0
    1578:	0020873b          	addw	x14,x1,x2
    157c:	00120213          	addi	x4,x4,1 # 0x1
    1580:	00200293          	addi	x5,x0,2
    1584:	fe5212e3          	bne	x4,x5,0x1568
    1588:	01a00393          	addi	x7,x0,26
    158c:	0e771263          	bne	x14,x7,0x1670
    1590:	02000193          	addi	x3,x0,32
    1594:	00000213          	addi	x4,x0,0
    1598:	00b00113          	addi	x2,x0,11
    159c:	00000013          	addi	x0,x0,0
    15a0:	00d00093          	addi	x1,x0,13
    15a4:	0020873b          	addw	x14,x1,x2
    15a8:	00120213          	addi	x4,x4,1 # 0x1
    15ac:	00200293          	addi	x5,x0,2
    15b0:	fe5214e3          	bne	x4,x5,0x1598
    15b4:	01800393          	addi	x7,x0,24
    15b8:	0a771c63          	bne	x14,x7,0x1670
    15bc:	02100193          	addi	x3,x0,33
    15c0:	00000213          	addi	x4,x0,0
    15c4:	00b00113          	addi	x2,x0,11
    15c8:	00000013          	addi	x0,x0,0
    15cc:	00e00093          	addi	x1,x0,14
    15d0:	00000013          	addi	x0,x0,0
    15d4:	0020873b          	addw	x14,x1,x2
    15d8:	00120213          	addi	x4,x4,1 # 0x1
    15dc:	00200293          	addi	x5,x0,2
    15e0:	fe5212e3          	bne	x4,x5,0x15c4
    15e4:	01900393          	addi	x7,x0,25
    15e8:	08771463          	bne	x14,x7,0x1670
    15ec:	02200193          	addi	x3,x0,34
    15f0:	00000213          	addi	x4,x0,0
    15f4:	00b00113          	addi	x2,x0,11
    15f8:	00000013          	addi	x0,x0,0
    15fc:	00000013          	addi	x0,x0,0
    1600:	00f00093          	addi	x1,x0,15
    1604:	0020873b          	addw	x14,x1,x2
    1608:	00120213          	addi	x4,x4,1 # 0x1
    160c:	00200293          	addi	x5,x0,2
    1610:	fe5212e3          	bne	x4,x5,0x15f4
    1614:	01a00393          	addi	x7,x0,26
    1618:	04771c63          	bne	x14,x7,0x1670
    161c:	02300193          	addi	x3,x0,35
    1620:	00f00093          	addi	x1,x0,15
    1624:	0010013b          	addw	x2,x0,x1
    1628:	00f00393          	addi	x7,x0,15
    162c:	04711263          	bne	x2,x7,0x1670
    1630:	02400193          	addi	x3,x0,36
    1634:	02000093          	addi	x1,x0,32
    1638:	0000813b          	addw	x2,x1,x0
    163c:	02000393          	addi	x7,x0,32
    1640:	02711863          	bne	x2,x7,0x1670
    1644:	02500193          	addi	x3,x0,37
    1648:	000000bb          	addw	x1,x0,x0
    164c:	00000393          	addi	x7,x0,0
    1650:	02709063          	bne	x1,x7,0x1670
    1654:	02600193          	addi	x3,x0,38
    1658:	01000093          	addi	x1,x0,16
    165c:	01e00113          	addi	x2,x0,30
    1660:	0020803b          	addw	x0,x1,x2
    1664:	00000393          	addi	x7,x0,0
    1668:	00701463          	bne	x0,x7,0x1670
    166c:	02301063          	bne	x0,x3,0x168c
    1670:	0ff0000f          	fence	iorw,iorw
    1674:	00018063          	beq	x3,x0,0x1674
    1678:	00119193          	slli	x3,x3,0x1
    167c:	0011e193          	ori	x3,x3,1
    1680:	05d00893          	addi	x17,x0,93
    1684:	00018513          	addi	x10,x3,0
    1688:	00000073          	ecall
    168c:	0ff0000f          	fence	iorw,iorw
    1690:	00100193          	addi	x3,x0,1
    1694:	05d00893          	addi	x17,x0,93
    1698:	00000513          	addi	x10,x0,0
    169c:	00000073          	ecall
    16a0:	c0001073          	unimp
	...
    2048:	4f41                	c.li	x30,16
    204a:	0000                	c.unimp
    204c:	7200                	c.ld	x8,32(x12)
    204e:	7369                	c.lui	x6,0xffffa
    2050:	01007663          	bgeu	x0,x16,0x205c
    2054:	0045                	c.addi	x0,17
    2056:	0000                	c.unimp
    2058:	7205                	c.lui	x4,0xfffe1
    205a:	3676                	c.fldsp	f12,376(x2)
    205c:	6934                	c.ld	x13,80(x10)
    205e:	7032                	.insn	2, 0x7032
    2060:	5f31                	c.li	x30,-20
    2062:	326d                	c.addiw	x4,-5 # 0xfffffffffffe0ffb
    2064:	3070                	c.fld	f12,224(x8)
    2066:	615f 7032 5f31      	.insn	6, 0x5f317032615f
    206c:	3266                	c.fldsp	f4,120(x2)
    206e:	3270                	c.fld	f12,224(x12)
    2070:	645f 7032 5f32      	.insn	6, 0x5f327032645f
    2076:	697a                	c.ldsp	x18,408(x2)
    2078:	32727363          	bgeu	x4,x7,0x239e
    207c:	3070                	c.fld	f12,224(x8)
    207e:	7a5f 6669 6e65      	.insn	6, 0x6e6566697a5f
    2084:	32696563          	bltu	x18,x6,0x23ae
    2088:	3070                	c.fld	f12,224(x8)
    208a:	7a5f 6d6d 6c75      	.insn	6, 0x6c756d6d7a5f
    2090:	7031                	c.lui	x0,0xfffec
    2092:	0030                	c.addi4spn	x12,x2,8
    2094:	0108                	c.addi4spn	x10,x2,128
    2096:	0b0a                	c.slli	x22,0x2
	...
    20b4:	00010003          	lb	x0,0(x2)
    20b8:	0000                	c.unimp
    20ba:	8000                	.insn	2, 0x8000
	...
    20cc:	00020003          	lb	x0,0(x4) # 0x0
    20d0:	1000                	c.addi4spn	x8,x2,32
    20d2:	8000                	.insn	2, 0x8000
	...
    20e4:	00030003          	lb	x0,0(x6) # 0xffffffffffffa000
	...
    20f8:	0001                	c.addi	x0,0
    20fa:	0000                	c.unimp
    20fc:	0004                	.insn	2, 0x0004
    20fe:	fff1                	c.bnez	x15,0x20da
	...
    2110:	000c                	.insn	2, 0x000c
    2112:	0000                	c.unimp
    2114:	0000                	c.unimp
    2116:	0001                	c.addi	x0,0
    2118:	0000                	c.unimp
    211a:	8000                	.insn	2, 0x8000
	...
    2128:	0049                	c.addi	x0,18
    212a:	0000                	c.unimp
    212c:	0000                	c.unimp
    212e:	0001                	c.addi	x0,0
    2130:	0050                	c.addi4spn	x12,x2,4
    2132:	8000                	.insn	2, 0x8000
	...
    2140:	0056                	c.slli	x0,0x15
    2142:	0000                	c.unimp
    2144:	0000                	c.unimp
    2146:	0001                	c.addi	x0,0
    2148:	0004                	.insn	2, 0x0004
    214a:	8000                	.insn	2, 0x8000
	...
    2158:	0062                	c.slli	x0,0x18
    215a:	0000                	c.unimp
    215c:	0000                	c.unimp
    215e:	0001                	c.addi	x0,0
    2160:	003c                	c.addi4spn	x15,x2,8
    2162:	8000                	.insn	2, 0x8000
	...
    2170:	0000006f          	jal	x0,0x2170
    2174:	0000                	c.unimp
    2176:	0001                	c.addi	x0,0
    2178:	0038                	c.addi4spn	x14,x2,8
    217a:	8000                	.insn	2, 0x8000
	...
    2188:	0080                	c.addi4spn	x8,x2,64
    218a:	0000                	c.unimp
    218c:	0000                	c.unimp
    218e:	0001                	c.addi	x0,0
    2190:	0038                	c.addi4spn	x14,x2,8
    2192:	8000                	.insn	2, 0x8000
	...
    21a0:	0090                	c.addi4spn	x12,x2,64
    21a2:	0000                	c.unimp
    21a4:	0000                	c.unimp
    21a6:	0001                	c.addi	x0,0
    21a8:	0190                	c.addi4spn	x12,x2,192
    21aa:	8000                	.insn	2, 0x8000
	...
    21b8:	00000097          	auipc	x1,0x0
    21bc:	0000                	c.unimp
    21be:	0001                	c.addi	x0,0
    21c0:	0670                	c.addi4spn	x12,x2,780
    21c2:	8000                	.insn	2, 0x8000
	...
    21d0:	009c                	c.addi4spn	x15,x2,64
    21d2:	0000                	c.unimp
    21d4:	0000                	c.unimp
    21d6:	0001                	c.addi	x0,0
    21d8:	01a8                	c.addi4spn	x10,x2,200
    21da:	8000                	.insn	2, 0x8000
	...
    21e8:	000000a3          	sb	x0,1(x0) # 0x1
    21ec:	0000                	c.unimp
    21ee:	0001                	c.addi	x0,0
    21f0:	01c0                	c.addi4spn	x8,x2,196
    21f2:	8000                	.insn	2, 0x8000
	...
    2200:	00aa                	c.slli	x1,0xa
    2202:	0000                	c.unimp
    2204:	0000                	c.unimp
    2206:	0001                	c.addi	x0,0
    2208:	01d8                	c.addi4spn	x14,x2,196
    220a:	8000                	.insn	2, 0x8000
	...
    2218:	00b1                	c.addi	x1,12 # 0x21c4
    221a:	0000                	c.unimp
    221c:	0000                	c.unimp
    221e:	0001                	c.addi	x0,0
    2220:	01f0                	c.addi4spn	x12,x2,204
    2222:	8000                	.insn	2, 0x8000
	...
    2230:	00b8                	c.addi4spn	x14,x2,72
    2232:	0000                	c.unimp
    2234:	0000                	c.unimp
    2236:	0001                	c.addi	x0,0
    2238:	0208                	c.addi4spn	x10,x2,256
    223a:	8000                	.insn	2, 0x8000
	...
    2248:	000000bf 00010000 	.insn	8, 0x00010000000000bf
    2250:	0220                	c.addi4spn	x8,x2,264
    2252:	8000                	.insn	2, 0x8000
	...
    2260:	00c6                	c.slli	x1,0x11
    2262:	0000                	c.unimp
    2264:	0000                	c.unimp
    2266:	0001                	c.addi	x0,0
    2268:	0240                	c.addi4spn	x8,x2,260
    226a:	8000                	.insn	2, 0x8000
	...
    2278:	00cd                	c.addi	x1,19
    227a:	0000                	c.unimp
    227c:	0000                	c.unimp
    227e:	0001                	c.addi	x0,0
    2280:	0260                	c.addi4spn	x8,x2,268
    2282:	8000                	.insn	2, 0x8000
	...
    2290:	00d5                	c.addi	x1,21
    2292:	0000                	c.unimp
    2294:	0000                	c.unimp
    2296:	0001                	c.addi	x0,0
    2298:	0284                	c.addi4spn	x9,x2,320
    229a:	8000                	.insn	2, 0x8000
	...
    22a8:	00dd                	c.addi	x1,23
    22aa:	0000                	c.unimp
    22ac:	0000                	c.unimp
    22ae:	0001                	c.addi	x0,0
    22b0:	02a4                	c.addi4spn	x9,x2,328
    22b2:	8000                	.insn	2, 0x8000
	...
    22c0:	00e5                	c.addi	x1,25
    22c2:	0000                	c.unimp
    22c4:	0000                	c.unimp
    22c6:	0001                	c.addi	x0,0
    22c8:	02c4                	c.addi4spn	x9,x2,324
    22ca:	8000                	.insn	2, 0x8000
	...
    22d8:	00ed                	c.addi	x1,27
    22da:	0000                	c.unimp
    22dc:	0000                	c.unimp
    22de:	0001                	c.addi	x0,0
    22e0:	02dc                	c.addi4spn	x15,x2,324
    22e2:	8000                	.insn	2, 0x8000
	...
    22f0:	00f5                	c.addi	x1,29
    22f2:	0000                	c.unimp
    22f4:	0000                	c.unimp
    22f6:	0001                	c.addi	x0,0
    22f8:	02f4                	c.addi4spn	x13,x2,332
    22fa:	8000                	.insn	2, 0x8000
	...
    2308:	00fd                	c.addi	x1,31
    230a:	0000                	c.unimp
    230c:	0000                	c.unimp
    230e:	0001                	c.addi	x0,0
    2310:	030c                	c.addi4spn	x11,x2,384
    2312:	8000                	.insn	2, 0x8000
	...
    2320:	0105                	c.addi	x2,1
    2322:	0000                	c.unimp
    2324:	0000                	c.unimp
    2326:	0001                	c.addi	x0,0
    2328:	0328                	c.addi4spn	x10,x2,392
    232a:	8000                	.insn	2, 0x8000
	...
    2338:	010d                	c.addi	x2,3
    233a:	0000                	c.unimp
    233c:	0000                	c.unimp
    233e:	0001                	c.addi	x0,0
    2340:	0340                	c.addi4spn	x8,x2,388
    2342:	8000                	.insn	2, 0x8000
	...
    2350:	0115                	c.addi	x2,5
    2352:	0000                	c.unimp
    2354:	0000                	c.unimp
    2356:	0001                	c.addi	x0,0
    2358:	0358                	c.addi4spn	x14,x2,388
    235a:	8000                	.insn	2, 0x8000
	...
    2368:	011d                	c.addi	x2,7
    236a:	0000                	c.unimp
    236c:	0000                	c.unimp
    236e:	0001                	c.addi	x0,0
    2370:	036c                	c.addi4spn	x11,x2,396
    2372:	8000                	.insn	2, 0x8000
	...
    2380:	0125                	c.addi	x2,9
    2382:	0000                	c.unimp
    2384:	0000                	c.unimp
    2386:	0001                	c.addi	x0,0
    2388:	0398                	c.addi4spn	x14,x2,448
    238a:	8000                	.insn	2, 0x8000
	...
    2398:	012d                	c.addi	x2,11
    239a:	0000                	c.unimp
    239c:	0000                	c.unimp
    239e:	0001                	c.addi	x0,0
    23a0:	03c8                	c.addi4spn	x10,x2,452
    23a2:	8000                	.insn	2, 0x8000
	...
    23b0:	0135                	c.addi	x2,13
    23b2:	0000                	c.unimp
    23b4:	0000                	c.unimp
    23b6:	0001                	c.addi	x0,0
    23b8:	03fc                	c.addi4spn	x15,x2,460
    23ba:	8000                	.insn	2, 0x8000
	...
    23c8:	013d                	c.addi	x2,15
    23ca:	0000                	c.unimp
    23cc:	0000                	c.unimp
    23ce:	0001                	c.addi	x0,0
    23d0:	0424                	c.addi4spn	x9,x2,520
    23d2:	8000                	.insn	2, 0x8000
	...
    23e0:	0145                	c.addi	x2,17
    23e2:	0000                	c.unimp
    23e4:	0000                	c.unimp
    23e6:	0001                	c.addi	x0,0
    23e8:	0450                	c.addi4spn	x12,x2,516
    23ea:	8000                	.insn	2, 0x8000
	...
    23f8:	014d                	c.addi	x2,19
    23fa:	0000                	c.unimp
    23fc:	0000                	c.unimp
    23fe:	0001                	c.addi	x0,0
    2400:	0480                	c.addi4spn	x8,x2,576
    2402:	8000                	.insn	2, 0x8000
	...
    2410:	0155                	c.addi	x2,21
    2412:	0000                	c.unimp
    2414:	0000                	c.unimp
    2416:	0001                	c.addi	x0,0
    2418:	04ac                	c.addi4spn	x11,x2,584
    241a:	8000                	.insn	2, 0x8000
	...
    2428:	015d                	c.addi	x2,23
    242a:	0000                	c.unimp
    242c:	0000                	c.unimp
    242e:	0001                	c.addi	x0,0
    2430:	04dc                	c.addi4spn	x15,x2,580
    2432:	8000                	.insn	2, 0x8000
	...
    2440:	0165                	c.addi	x2,25
    2442:	0000                	c.unimp
    2444:	0000                	c.unimp
    2446:	0001                	c.addi	x0,0
    2448:	050c                	c.addi4spn	x11,x2,640
    244a:	8000                	.insn	2, 0x8000
	...
    2458:	016d                	c.addi	x2,27
    245a:	0000                	c.unimp
    245c:	0000                	c.unimp
    245e:	0001                	c.addi	x0,0
    2460:	0534                	c.addi4spn	x13,x2,648
    2462:	8000                	.insn	2, 0x8000
	...
    2470:	0175                	c.addi	x2,29
    2472:	0000                	c.unimp
    2474:	0000                	c.unimp
    2476:	0001                	c.addi	x0,0
    2478:	0560                	c.addi4spn	x8,x2,652
    247a:	8000                	.insn	2, 0x8000
	...
    2488:	017d                	c.addi	x2,31
    248a:	0000                	c.unimp
    248c:	0000                	c.unimp
    248e:	0001                	c.addi	x0,0
    2490:	0590                	c.addi4spn	x12,x2,704
    2492:	8000                	.insn	2, 0x8000
	...
    24a0:	0185                	c.addi	x3,1
    24a2:	0000                	c.unimp
    24a4:	0000                	c.unimp
    24a6:	0001                	c.addi	x0,0
    24a8:	05bc                	c.addi4spn	x15,x2,712
    24aa:	8000                	.insn	2, 0x8000
	...
    24b8:	018d                	c.addi	x3,3
    24ba:	0000                	c.unimp
    24bc:	0000                	c.unimp
    24be:	0001                	c.addi	x0,0
    24c0:	05ec                	c.addi4spn	x11,x2,716
    24c2:	8000                	.insn	2, 0x8000
	...
    24d0:	0195                	c.addi	x3,5
    24d2:	0000                	c.unimp
    24d4:	0000                	c.unimp
    24d6:	0001                	c.addi	x0,0
    24d8:	061c                	c.addi4spn	x15,x2,768
    24da:	8000                	.insn	2, 0x8000
	...
    24e8:	019d                	c.addi	x3,7
    24ea:	0000                	c.unimp
    24ec:	0000                	c.unimp
    24ee:	0001                	c.addi	x0,0
    24f0:	0630                	c.addi4spn	x12,x2,776
    24f2:	8000                	.insn	2, 0x8000
	...
    2500:	01a5                	c.addi	x3,9
    2502:	0000                	c.unimp
    2504:	0000                	c.unimp
    2506:	0001                	c.addi	x0,0
    2508:	0644                	c.addi4spn	x9,x2,772
    250a:	8000                	.insn	2, 0x8000
	...
    2518:	01ad                	c.addi	x3,11
    251a:	0000                	c.unimp
    251c:	0000                	c.unimp
    251e:	0001                	c.addi	x0,0
    2520:	0654                	c.addi4spn	x13,x2,772
    2522:	8000                	.insn	2, 0x8000
	...
    2530:	01b5                	c.addi	x3,13
    2532:	0000                	c.unimp
    2534:	0000                	c.unimp
    2536:	0001                	c.addi	x0,0
    2538:	068c                	c.addi4spn	x11,x2,832
    253a:	8000                	.insn	2, 0x8000
	...
    2548:	01ba                	c.slli	x3,0xe
    254a:	0000                	c.unimp
    254c:	0010                	.insn	2, 0x0010
    254e:	0002                	c.slli64	x0
    2550:	2000                	c.fld	f8,0(x8)
    2552:	8000                	.insn	2, 0x8000
	...
    2560:	01c8                	c.addi4spn	x10,x2,196
    2562:	0000                	c.unimp
    2564:	0010                	.insn	2, 0x0010
    2566:	0002                	c.slli64	x0
    2568:	2000                	c.fld	f8,0(x8)
    256a:	8000                	.insn	2, 0x8000
	...
    2578:	01d8                	c.addi4spn	x14,x2,196
    257a:	0000                	c.unimp
    257c:	0010                	.insn	2, 0x0010
    257e:	0001                	c.addi	x0,0
    2580:	0000                	c.unimp
    2582:	8000                	.insn	2, 0x8000
	...
    2590:	01df 0000 0010      	.insn	6, 0x0010000001df
    2596:	0002                	c.slli64	x0
    2598:	2000                	c.fld	f8,0(x8)
    259a:	8000                	.insn	2, 0x8000
	...
    25a8:	01e4                	c.addi4spn	x9,x2,204
    25aa:	0000                	c.unimp
    25ac:	0010                	.insn	2, 0x0010
    25ae:	0002                	c.slli64	x0
    25b0:	1040                	c.addi4spn	x8,x2,36
    25b2:	8000                	.insn	2, 0x8000
    25b4:	0000                	c.unimp
    25b6:	0000                	c.unimp
    25b8:	0008                	.insn	2, 0x0008
    25ba:	0000                	c.unimp
    25bc:	0000                	c.unimp
    25be:	0000                	c.unimp
    25c0:	0068                	c.addi4spn	x10,x2,12
    25c2:	0000                	c.unimp
    25c4:	0010                	.insn	2, 0x0010
    25c6:	0002                	c.slli64	x0
    25c8:	1000                	c.addi4spn	x8,x2,32
    25ca:	8000                	.insn	2, 0x8000
    25cc:	0000                	c.unimp
    25ce:	0000                	c.unimp
    25d0:	0008                	.insn	2, 0x0008
    25d2:	0000                	c.unimp
    25d4:	0000                	c.unimp
    25d6:	0000                	c.unimp
    25d8:	6300                	c.ld	x8,0(x14)
    25da:	786f7463          	bgeu	x30,x6,0x2d62
    25de:	7344                	c.ld	x9,160(x14)
    25e0:	2e66                	c.fldsp	f28,88(x2)
    25e2:	7824006f          	jal	x0,0x42d64
    25e6:	7672                	c.ldsp	x12,312(x2)
    25e8:	3436                	c.fldsp	f8,360(x2)
    25ea:	3269                	c.addiw	x4,-6 # 0xfffffffffffffffa
    25ec:	3170                	c.fld	f12,224(x10)
    25ee:	6d5f 7032 5f30      	.insn	6, 0x5f3070326d5f
    25f4:	3261                	c.addiw	x4,-8 # 0xfffffffffffffff8
    25f6:	3170                	c.fld	f12,224(x10)
    25f8:	665f 7032 5f32      	.insn	6, 0x5f327032665f
    25fe:	3264                	c.fld	f9,224(x12)
    2600:	3270                	c.fld	f12,224(x12)
    2602:	7a5f 6369 7273      	.insn	6, 0x727363697a5f
    2608:	7032                	.insn	2, 0x7032
    260a:	5f30                	c.lw	x12,120(x14)
    260c:	697a                	c.ldsp	x18,408(x2)
    260e:	6566                	c.ldsp	x10,88(x2)
    2610:	636e                	c.ldsp	x6,216(x2)
    2612:	6965                	c.lui	x18,0x19
    2614:	7032                	.insn	2, 0x7032
    2616:	5f30                	c.lw	x12,120(x14)
    2618:	6d7a                	c.ldsp	x26,408(x2)
    261a:	756d                	c.lui	x10,0xffffb
    261c:	316c                	c.fld	f11,224(x10)
    261e:	3070                	c.fld	f12,224(x8)
    2620:	7200                	c.ld	x8,32(x12)
    2622:	7365                	c.lui	x6,0xffff9
    2624:	7465                	c.lui	x8,0xffff9
    2626:	765f 6365 6f74      	.insn	6, 0x6f746365765f
    262c:	0072                	c.slli	x0,0x1c
    262e:	7274                	c.ld	x13,224(x12)
    2630:	7061                	c.lui	x0,0xffff8
    2632:	765f 6365 6f74      	.insn	6, 0x6f746365765f
    2638:	0072                	c.slli	x0,0x1c
    263a:	74697277          	.insn	4, 0x74697277
    263e:	5f65                	c.li	x30,-7
    2640:	6f74                	c.ld	x13,216(x14)
    2642:	6f68                	c.ld	x10,216(x14)
    2644:	68007473          	csrrci	x8,hgatp,0
    2648:	6e61                	c.lui	x28,0x18
    264a:	6c64                	c.ld	x9,216(x8)
    264c:	5f65                	c.li	x30,-7
    264e:	7865                	c.lui	x16,0xffff9
    2650:	74706563          	bltu	x0,x7,0x2d9a
    2654:	6f69                	c.lui	x30,0x1a
    2656:	006e                	c.slli	x0,0x1b
    2658:	6568746f          	jal	x8,0x89cae
    265c:	5f72                	c.lwsp	x30,60(x2)
    265e:	7865                	c.lui	x16,0xffff9
    2660:	74706563          	bltu	x0,x7,0x2daa
    2664:	6f69                	c.lui	x30,0x1a
    2666:	006e                	c.slli	x0,0x1b
    2668:	6574                	c.ld	x13,200(x10)
    266a:	325f7473          	csrrci	x8,mhpmevent5,30
    266e:	6600                	c.ld	x8,8(x12)
    2670:	6961                	c.lui	x18,0x18
    2672:	006c                	c.addi4spn	x11,x2,12
    2674:	6574                	c.ld	x13,200(x10)
    2676:	335f7473          	csrrci	x8,mhpmevent21,30
    267a:	7400                	c.ld	x8,40(x8)
    267c:	7365                	c.lui	x6,0xffff9
    267e:	5f74                	c.lw	x13,124(x14)
    2680:	0034                	c.addi4spn	x13,x2,8
    2682:	6574                	c.ld	x13,200(x10)
    2684:	355f7473          	csrrci	x8,0x355,30
    2688:	7400                	c.ld	x8,40(x8)
    268a:	7365                	c.lui	x6,0xffff9
    268c:	5f74                	c.lw	x13,124(x14)
    268e:	0036                	c.slli	x0,0xd
    2690:	6574                	c.ld	x13,200(x10)
    2692:	375f7473          	csrrci	x8,0x375,30
    2696:	7400                	c.ld	x8,40(x8)
    2698:	7365                	c.lui	x6,0xffff9
    269a:	5f74                	c.lw	x13,124(x14)
    269c:	0038                	c.addi4spn	x14,x2,8
    269e:	6574                	c.ld	x13,200(x10)
    26a0:	395f7473          	csrrci	x8,0x395,30
    26a4:	7400                	c.ld	x8,40(x8)
    26a6:	7365                	c.lui	x6,0xffff9
    26a8:	5f74                	c.lw	x13,124(x14)
    26aa:	3031                	.insn	2, 0x3031
    26ac:	7400                	c.ld	x8,40(x8)
    26ae:	7365                	c.lui	x6,0xffff9
    26b0:	5f74                	c.lw	x13,124(x14)
    26b2:	3131                	c.addiw	x2,-20
    26b4:	7400                	c.ld	x8,40(x8)
    26b6:	7365                	c.lui	x6,0xffff9
    26b8:	5f74                	c.lw	x13,124(x14)
    26ba:	3231                	c.addiw	x4,-20 # 0xffffffffffffffec
    26bc:	7400                	c.ld	x8,40(x8)
    26be:	7365                	c.lui	x6,0xffff9
    26c0:	5f74                	c.lw	x13,124(x14)
    26c2:	3331                	c.addiw	x6,-20 # 0xffffffffffff8fec
    26c4:	7400                	c.ld	x8,40(x8)
    26c6:	7365                	c.lui	x6,0xffff9
    26c8:	5f74                	c.lw	x13,124(x14)
    26ca:	3431                	c.addiw	x8,-20 # 0xffffffffffff8fec
    26cc:	7400                	c.ld	x8,40(x8)
    26ce:	7365                	c.lui	x6,0xffff9
    26d0:	5f74                	c.lw	x13,124(x14)
    26d2:	3531                	c.addiw	x10,-20 # 0xffffffffffffafec
    26d4:	7400                	c.ld	x8,40(x8)
    26d6:	7365                	c.lui	x6,0xffff9
    26d8:	5f74                	c.lw	x13,124(x14)
    26da:	3631                	c.addiw	x12,-20
    26dc:	7400                	c.ld	x8,40(x8)
    26de:	7365                	c.lui	x6,0xffff9
    26e0:	5f74                	c.lw	x13,124(x14)
    26e2:	3731                	c.addiw	x14,-20
    26e4:	7400                	c.ld	x8,40(x8)
    26e6:	7365                	c.lui	x6,0xffff9
    26e8:	5f74                	c.lw	x13,124(x14)
    26ea:	3831                	c.addiw	x16,-20 # 0xffffffffffff8fec
    26ec:	7400                	c.ld	x8,40(x8)
    26ee:	7365                	c.lui	x6,0xffff9
    26f0:	5f74                	c.lw	x13,124(x14)
    26f2:	3931                	c.addiw	x18,-20 # 0x17fec
    26f4:	7400                	c.ld	x8,40(x8)
    26f6:	7365                	c.lui	x6,0xffff9
    26f8:	5f74                	c.lw	x13,124(x14)
    26fa:	3032                	c.fldsp	f0,296(x2)
    26fc:	7400                	c.ld	x8,40(x8)
    26fe:	7365                	c.lui	x6,0xffff9
    2700:	5f74                	c.lw	x13,124(x14)
    2702:	3132                	c.fldsp	f2,296(x2)
    2704:	7400                	c.ld	x8,40(x8)
    2706:	7365                	c.lui	x6,0xffff9
    2708:	5f74                	c.lw	x13,124(x14)
    270a:	3232                	c.fldsp	f4,296(x2)
    270c:	7400                	c.ld	x8,40(x8)
    270e:	7365                	c.lui	x6,0xffff9
    2710:	5f74                	c.lw	x13,124(x14)
    2712:	3332                	c.fldsp	f6,296(x2)
    2714:	7400                	c.ld	x8,40(x8)
    2716:	7365                	c.lui	x6,0xffff9
    2718:	5f74                	c.lw	x13,124(x14)
    271a:	3432                	c.fldsp	f8,296(x2)
    271c:	7400                	c.ld	x8,40(x8)
    271e:	7365                	c.lui	x6,0xffff9
    2720:	5f74                	c.lw	x13,124(x14)
    2722:	3532                	c.fldsp	f10,296(x2)
    2724:	7400                	c.ld	x8,40(x8)
    2726:	7365                	c.lui	x6,0xffff9
    2728:	5f74                	c.lw	x13,124(x14)
    272a:	3632                	c.fldsp	f12,296(x2)
    272c:	7400                	c.ld	x8,40(x8)
    272e:	7365                	c.lui	x6,0xffff9
    2730:	5f74                	c.lw	x13,124(x14)
    2732:	3732                	c.fldsp	f14,296(x2)
    2734:	7400                	c.ld	x8,40(x8)
    2736:	7365                	c.lui	x6,0xffff9
    2738:	5f74                	c.lw	x13,124(x14)
    273a:	3832                	c.fldsp	f16,296(x2)
    273c:	7400                	c.ld	x8,40(x8)
    273e:	7365                	c.lui	x6,0xffff9
    2740:	5f74                	c.lw	x13,124(x14)
    2742:	3932                	c.fldsp	f18,296(x2)
    2744:	7400                	c.ld	x8,40(x8)
    2746:	7365                	c.lui	x6,0xffff9
    2748:	5f74                	c.lw	x13,124(x14)
    274a:	74003033          	.insn	4, 0x74003033
    274e:	7365                	c.lui	x6,0xffff9
    2750:	5f74                	c.lw	x13,124(x14)
    2752:	74003133          	.insn	4, 0x74003133
    2756:	7365                	c.lui	x6,0xffff9
    2758:	5f74                	c.lw	x13,124(x14)
    275a:	74003233          	.insn	4, 0x74003233
    275e:	7365                	c.lui	x6,0xffff9
    2760:	5f74                	c.lw	x13,124(x14)
    2762:	74003333          	.insn	4, 0x74003333
    2766:	7365                	c.lui	x6,0xffff9
    2768:	5f74                	c.lw	x13,124(x14)
    276a:	74003433          	.insn	4, 0x74003433
    276e:	7365                	c.lui	x6,0xffff9
    2770:	5f74                	c.lw	x13,124(x14)
    2772:	74003533          	.insn	4, 0x74003533
    2776:	7365                	c.lui	x6,0xffff9
    2778:	5f74                	c.lw	x13,124(x14)
    277a:	74003633          	.insn	4, 0x74003633
    277e:	7365                	c.lui	x6,0xffff9
    2780:	5f74                	c.lw	x13,124(x14)
    2782:	74003733          	.insn	4, 0x74003733
    2786:	7365                	c.lui	x6,0xffff9
    2788:	5f74                	c.lw	x13,124(x14)
    278a:	70003833          	.insn	4, 0x70003833
    278e:	7361                	c.lui	x6,0xffff8
    2790:	6e650073          	.insn	4, 0x6e650073
    2794:	5f64                	c.lw	x9,124(x14)
    2796:	6e676973          	csrrsi	x18,0x6e6,14
    279a:	7461                	c.lui	x8,0xffff8
    279c:	7275                	c.lui	x4,0xffffd
    279e:	0065                	c.addi	x0,25
    27a0:	6562                	c.ldsp	x10,24(x2)
    27a2:	5f6e6967          	.insn	4, 0x5f6e6967
    27a6:	6e676973          	csrrsi	x18,0x6e6,14
    27aa:	7461                	c.lui	x8,0xffff8
    27ac:	7275                	c.lui	x4,0xffffd
    27ae:	0065                	c.addi	x0,25
    27b0:	735f 6174 7472      	.insn	6, 0x74726174735f
    27b6:	5f00                	c.lw	x8,56(x14)
    27b8:	6e65                	c.lui	x28,0x19
    27ba:	0064                	c.addi4spn	x9,x2,12
    27bc:	7266                	c.ldsp	x4,120(x2)
    27be:	6f686d6f          	jal	x26,0x88eb4
    27c2:	00007473          	csrrci	x8,0x0,0
    27c6:	732e                	c.ldsp	x6,232(x2)
    27c8:	6d79                	c.lui	x26,0x1e
    27ca:	6174                	c.ld	x13,192(x10)
    27cc:	0062                	c.slli	x0,0x18
    27ce:	732e                	c.ldsp	x6,232(x2)
    27d0:	7274                	c.ld	x13,224(x12)
    27d2:	6174                	c.ld	x13,192(x10)
    27d4:	0062                	c.slli	x0,0x18
    27d6:	732e                	c.ldsp	x6,232(x2)
    27d8:	7368                	c.ld	x10,224(x14)
    27da:	7274                	c.ld	x13,224(x12)
    27dc:	6174                	c.ld	x13,192(x10)
    27de:	0062                	c.slli	x0,0x18
    27e0:	742e                	c.ldsp	x8,232(x2)
    27e2:	7865                	c.lui	x16,0xffff9
    27e4:	2e74                	c.fld	f13,216(x12)
    27e6:	6e69                	c.lui	x28,0x1a
    27e8:	7469                	c.lui	x8,0xffffa
    27ea:	2e00                	c.fld	f8,24(x12)
    27ec:	6f74                	c.ld	x13,216(x14)
    27ee:	6f68                	c.ld	x10,216(x14)
    27f0:	2e007473          	csrrci	x8,0x2e0,0
    27f4:	6972                	c.ldsp	x18,280(x2)
    27f6:	2e766373          	csrrsi	x6,0x2e7,12
    27fa:	7461                	c.lui	x8,0xffff8
    27fc:	7274                	c.ld	x13,224(x12)
    27fe:	6269                	c.lui	x4,0x1a
    2800:	7475                	c.lui	x8,0xffffd
    2802:	7365                	c.lui	x6,0xffff9
	...
    2848:	0000001b          	addiw	x0,x0,0
    284c:	0001                	c.addi	x0,0
    284e:	0000                	c.unimp
    2850:	0006                	c.slli	x0,0x1
	...
    285a:	8000                	.insn	2, 0x8000
    285c:	0000                	c.unimp
    285e:	0000                	c.unimp
    2860:	1000                	c.addi4spn	x8,x2,32
    2862:	0000                	c.unimp
    2864:	0000                	c.unimp
    2866:	0000                	c.unimp
    2868:	06bc                	c.addi4spn	x15,x2,840
	...
    2876:	0000                	c.unimp
    2878:	0040                	c.addi4spn	x8,x2,4
	...
    2886:	0000                	c.unimp
    2888:	0026                	c.slli	x0,0x9
    288a:	0000                	c.unimp
    288c:	0001                	c.addi	x0,0
    288e:	0000                	c.unimp
    2890:	00000003          	lb	x0,0(x0) # 0x0
    2894:	0000                	c.unimp
    2896:	0000                	c.unimp
    2898:	1000                	c.addi4spn	x8,x2,32
    289a:	8000                	.insn	2, 0x8000
    289c:	0000                	c.unimp
    289e:	0000                	c.unimp
    28a0:	2000                	c.fld	f8,0(x8)
    28a2:	0000                	c.unimp
    28a4:	0000                	c.unimp
    28a6:	0000                	c.unimp
    28a8:	0048                	c.addi4spn	x10,x2,4
	...
    28b6:	0000                	c.unimp
    28b8:	0040                	c.addi4spn	x8,x2,4
	...
    28c6:	0000                	c.unimp
    28c8:	002e                	c.slli	x0,0xb
    28ca:	0000                	c.unimp
    28cc:	70000003          	lb	x0,1792(x0) # 0x700
	...
    28e0:	2048                	c.fld	f10,128(x8)
    28e2:	0000                	c.unimp
    28e4:	0000                	c.unimp
    28e6:	0000                	c.unimp
    28e8:	0050                	c.addi4spn	x12,x2,4
	...
    28f6:	0000                	c.unimp
    28f8:	0001                	c.addi	x0,0
	...
    2906:	0000                	c.unimp
    2908:	0001                	c.addi	x0,0
    290a:	0000                	c.unimp
    290c:	0002                	c.slli64	x0
	...
    291e:	0000                	c.unimp
    2920:	2098                	c.fld	f14,0(x9)
    2922:	0000                	c.unimp
    2924:	0000                	c.unimp
    2926:	0000                	c.unimp
    2928:	0540                	c.addi4spn	x8,x2,644
    292a:	0000                	c.unimp
    292c:	0000                	c.unimp
    292e:	0000                	c.unimp
    2930:	0005                	c.addi	x0,1
    2932:	0000                	c.unimp
    2934:	0032                	c.slli	x0,0xc
    2936:	0000                	c.unimp
    2938:	0008                	.insn	2, 0x0008
    293a:	0000                	c.unimp
    293c:	0000                	c.unimp
    293e:	0000                	c.unimp
    2940:	0018                	.insn	2, 0x0018
    2942:	0000                	c.unimp
    2944:	0000                	c.unimp
    2946:	0000                	c.unimp
    2948:	0009                	c.addi	x0,2
    294a:	0000                	c.unimp
    294c:	00000003          	lb	x0,0(x0) # 0x0
	...
    2960:	25d8                	c.fld	f14,136(x11)
    2962:	0000                	c.unimp
    2964:	0000                	c.unimp
    2966:	0000                	c.unimp
    2968:	01ed                	c.addi	x3,27
	...
    2976:	0000                	c.unimp
    2978:	0001                	c.addi	x0,0
	...
    2986:	0000                	c.unimp
    2988:	0011                	c.addi	x0,4
    298a:	0000                	c.unimp
    298c:	00000003          	lb	x0,0(x0) # 0x0
	...
    29a0:	27c5                	c.addiw	x15,17
    29a2:	0000                	c.unimp
    29a4:	0000                	c.unimp
    29a6:	0000                	c.unimp
    29a8:	0040                	c.addi4spn	x8,x2,4
	...
    29b6:	0000                	c.unimp
    29b8:	0001                	c.addi	x0,0
	...
