
elf/riscv-tests/rv64ui-p-ma_data:     file format binary

Contents of section .data:
 1000 6f000005 732f2034 930f8000 6308ff03  o...s/ 4....c...
 1010 930f9000 6304ff03 930fb000 6300ff03  ....c.......c...
 1020 130f0000 63040f00 67000f00 732f2034  ....c...g...s/ 4
 1030 63540f00 6f004000 93e19153 172f0000  cT..o.@....S./..
 1040 23223ffc 172f0000 23200ffc 6ff01fff  #"?../..# ..o...
 1050 93000000 13010000 93010000 13020000  ................
 1060 93020000 13030000 93030000 13040000  ................
 1070 93040000 13050000 93050000 13060000  ................
 1080 93060000 13070000 93070000 13080000  ................
 1090 93080000 13090000 93090000 130a0000  ................
 10a0 930a0000 130b0000 930b0000 130c0000  ................
 10b0 930c0000 130d0000 930d0000 130e0000  ................
 10c0 930e0000 130f0000 930f0000 732540f1  ............s%@.
 10d0 63100500 97020000 93820201 73905230  c...........s.R0
 10e0 73504474 97020000 93820201 73905230  sPDt........s.R0
 10f0 73500018 97020000 93824202 73905230  sP........B.s.R0
 1100 9b021000 93925203 9382f2ff 7390023b  ......R.....s..;
 1110 9302f001 7390023a 73504030 97020000  ....s..:sP@0....
 1120 93824201 73905230 73502030 73503030  ..B.s.R0sP 0sP00
 1130 93010000 97020000 938202ed 73905230  ............s.R0
 1140 13051000 1315f501 635c0500 0f00f00f  ........c\......
 1150 93011000 9308d005 13050000 73000000  ............s...
 1160 93020000 638a0200 73905210 b7b20000  ....c...s.R.....
 1170 9b829210 73902230 73500030 97020000  ....s."0sP.0....
 1180 93824201 73901234 732540f1 73002030  ..B.s..4s%@.s. 0
 1190 17340000 130404e7 93011000 13031020  .4............. 
 11a0 83131400 63047300 6f101046 93012000  ....c.s.o..F.. .
 11b0 13031020 83531400 63047300 6f10d044  ... .S..c.s.o..D
 11c0 93013000 37030304 1b031320 83231400  ..0.7...... .#..
 11d0 63047300 6f105043 93014000 37030405  c.s.o.PC..@.7...
 11e0 1b032330 83232400 63047300 6f10d041  ..#0.#$.c.s.o..A
 11f0 93015000 37030506 1b033340 83233400  ..P.7.....3@.#4.
 1200 63047300 6f105040 93016000 37030304  c.s.o.P@..`.7...
 1210 1b031320 83631400 63047300 6f10d03e  ... .c..c.s.o..>
 1220 93017000 37030405 1b032330 83632400  ..p.7.....#0.c$.
 1230 63047300 6f10503d 93018000 37030506  c.s.o.P=....7...
 1240 1b033340 83633400 63047300 6f10d03b  ..3@.c4.c.s.o..;
 1250 93019000 37030708 1b035360 13130301  ....7.....S`....
 1260 13033340 13130301 13031320 83331400  ..3@....... .3..
 1270 63047300 6f105039 9301a000 37038404  c.s.o.P9....7...
 1280 1b033338 1313f300 13031314 13132301  ..38..........#.
 1290 13032330 83332400 63047300 6f10d036  ..#0.3$.c.s.o..6
 12a0 9301b000 3713090a 1b037380 13130301  ....7.....s.....
 12b0 13035360 13130301 13033340 83333400  ..S`......3@.34.
 12c0 63047300 6f105034 9301c000 37436101  c.s.o.P4....7Ca.
 12d0 1b031312 13132301 13033338 13131301  ......#...38....
 12e0 13034350 83334400 63047300 6f10d031  ..CP.3D.c.s.o..1
 12f0 9301d000 37030600 1b035358 1313d300  ....7.....SX....
 1300 13031309 1313c300 13037380 13130301  ..........s.....
 1310 13035360 83335400 63047300 6f10d02e  ..S`.3T.c.s.o...
 1320 9301e000 37038606 1b035358 1313e300  ....7.....SX....
 1330 13031312 13133301 13036370 83336400  ......3...cp.3d.
 1340 63047300 6f10502c 9301f000 37830300  c.s.o.P,....7...
 1350 1b033334 13131301 13035358 1313d300  ..34......SX....
 1360 13031309 1313c300 13037380 83337400  ..........s..3t.
 1370 63047300 6f105029 93010001 37230000  c.s.o.P)....7#..
 1380 1b03f301 8313f401 63047300 6f10d027  ........c.s.o..'
 1390 93011001 37230000 1b03f301 8353f401  ....7#.......S..
 13a0 63047300 6f105026 93012001 37231f20  c.s.o.P&.. .7#. 
 13b0 1b03d3e1 8323d401 63047300 6f10d024  .....#..c.s.o..$
 13c0 93013001 37232021 1b03e3f1 8323e401  ..0.7# !.....#..
 13d0 63047300 6f105023 93014001 37232122  c.s.o.P#..@.7#!"
 13e0 1b03f301 8323f401 63047300 6f10d021  .....#..c.s.o..!
 13f0 93015001 37231f20 1b03d3e1 8363d401  ..P.7#. .....c..
 1400 63047300 6f105020 93016001 37232021  c.s.o.P ..`.7# !
 1410 1b03e3f1 8363e401 63047300 6f10d01e  .....c..c.s.o...
 1420 93017001 37232122 1b03f301 8363f401  ..p.7#!".....c..
 1430 63047300 6f10501d 93018001 37131000  c.s.o.P.....7...
 1440 1b03f3f8 1313f300 13037374 1313d300  ..........st....
 1450 1303930d 1313d300 130393a1 83339401  .............3..
 1460 63047300 6f10501a 93019001 37030901  c.s.o.P.....7...
 1470 1b03930f 1313c300 1303f3f0 1313c300  ................
 1480 1303138e 1313d300 1303a3b1 8333a401  .............3..
 1490 63047300 6f105017 9301a001 37131101  c.s.o.P.....7...
 14a0 1b031390 1313c300 1303f3f8 1313c300  ................
 14b0 1303930e 1313d300 1303b3c1 8333b401  .............3..
 14c0 63047300 6f105014 9301b001 37931100  c.s.o.P.....7...
 14d0 1b031311 1313c300 13031390 13130301  ................
 14e0 1303138f 1313d300 1303c3d1 8333c401  .............3..
 14f0 63047300 6f105011 9301c001 37131200  c.s.o.P.....7...
 1500 1b031319 1313c300 13039310 13130301  ................
 1510 1303930f 1313d300 1303d3e1 8333d401  .............3..
 1520 63047300 6f10500e 9301d001 37232901  c.s.o.P.....7#).
 1530 1b039311 1313c300 13031311 1313c300  ................
 1540 13031390 1313d300 1303e3f1 8333e401  .............3..
 1550 63047300 6f10500b 9301e001 37333101  c.s.o.P.....731.
 1560 1b031392 1313c300 13031319 1313c300  ................
 1570 13039310 1313d300 1303f301 8333f401  .............3..
 1580 63047300 6f105008 9301f001 37430000  c.s.o.P.....7C..
 1590 1b03f303 8313f403 63047300 6f10d006  ........c.s.o...
 15a0 93010002 37430000 1b03f303 8353f403  ....7C.......S..
 15b0 63047300 6f105005 93011002 37433f40  c.s.o.P.....7C?@
 15c0 1b03d3e3 8323d403 63047300 6f10d003  .....#..c.s.o...
 15d0 93012002 37434041 1b03e3f3 8323e403  .. .7C@A.....#..
 15e0 63047300 6f105002 93013002 37434142  c.s.o.P...0.7CAB
 15f0 1b03f303 8323f403 63047300 6f10d000  .....#..c.s.o...
 1600 93014002 37433f40 1b03d3e3 8363d403  ..@.7C?@.....c..
 1610 63047300 6f10407f 93015002 37434041  c.s.o.@...P.7C@A
 1620 1b03e3f3 8363e403 63047300 6f10c07d  .....c..c.s.o..}
 1630 93016002 37434142 1b03f303 8363f403  ..`.7CAB.....c..
 1640 63047300 6f10407c 93017002 37030101  c.s.o.@|..p.7...
 1650 1b0393cf 1313c300 1303f3f4 1313c300  ................
 1660 1303d30e 1313e300 130393a3 83339403  .............3..
 1670 63047300 6f104079 93018002 37030501  c.s.o.@y....7...
 1680 1b03d30f 1313c300 1303f3f8 1313c300  ................
 1690 1303134f 1313e300 1303a3b3 8333a403  ...O.........3..
 16a0 63047300 6f104076 93019002 37130100  c.s.o.@v....7...
 16b0 1b035390 13130301 1303d30f 13130301  ..S.............
 16c0 1303538f 1313e300 1303b3c3 8333b403  ..S..........3..
 16d0 63047300 6f104073 9301a002 37130100  c.s.o.@s....7...
 16e0 1b0393d0 13130301 13031350 13130301  ...........P....
 16f0 130393cf 1313e300 1303c3d3 8333c403  .............3..
 1700 63047300 6f104070 9301b002 37131100  c.s.o.@p....7...
 1710 1b03130d 1313c300 13035390 13130301  ..........S.....
 1720 1303d30f 1313e300 1303d3e3 8333d403  .............3..
 1730 63047300 6f10406d 9301c002 37531100  c.s.o.@m....7S..
 1740 1b031311 1313c300 130393d0 13130301  ................
 1750 13031350 1313e300 1303e3f3 8333e403  ...P.........3..
 1760 63047300 6f10406a 9301d002 37131901  c.s.o.@j....7...
 1770 1b031351 1313c300 1303130d 1313c300  ...Q............
 1780 13035390 1313e300 1303f303 8333f403  ..S..........3..
 1790 63047300 6f104067 9301e002 3783ffff  c.s.o.@g....7...
 17a0 1b030318 a3106400 83131400 63047300  ......d.....c.s.
 17b0 6f108065 9301f002 37830000 1b032338  o..e....7.....#8
 17c0 a3106400 83531400 63047300 6f10c063  ..d..S..c.s.o..c
 17d0 93010003 37838687 1b034358 a3206400  ....7.....CX. d.
 17e0 83231400 63047300 6f100062 93011003  .#..c.s.o..b....
 17f0 37938a8b 1b038398 23216400 83232400  7.......#!d..#$.
 1800 63047300 6f104060 93012003 37938e8f  c.s.o.@`.. .7...
 1810 1b03c3d8 a3216400 83233400 63047300  .....!d..#4.c.s.
 1820 6f10805e 93013003 37430900 1b039392  o..^..0.7C......
 1830 1313c300 13030319 a3206400 83631400  ......... d..c..
 1840 63047300 6f10405c 93014003 37830900  c.s.o.@\..@.7...
 1850 1b039396 1313c300 13034359 23216400  ..........CY#!d.
 1860 83632400 63047300 6f10005a 93015003  .c$.c.s.o..Z..P.
 1870 37e30400 1b0353cd 1313d300 13038399  7.....S.........
 1880 a3216400 83633400 63047300 6f10c057  .!d..c4.c.s.o..W
 1890 93016003 37d3d1ff 1b031315 1313c300  ..`.7...........
 18a0 130353d0 13130301 130353cf 1313d300  ..S.......S.....
 18b0 1303c3d9 a3306400 83331400 63047300  .....0d..3..c.s.
 18c0 6f108054 93017003 375357ff 1b033355  o..T..p.7SW...3U
 18d0 1313c300 13035351 1313e300 130353d3  ......SQ......S.
 18e0 1313d300 1303435a 23316400 83332400  ......CZ#1d..3$.
 18f0 63047300 6f104051 93018003 37e3d9ff  c.s.o.@Q....7...
 1900 1b039395 1313d300 1303b3b0 13130301  ................
 1910 1303b3ae 1313c300 1303c3da a3316400  .............1d.
 1920 83333400 63047300 6f10004e 93019003  .34.c.s.o..N....
 1930 377377ff 1b033357 1313c300 13037371  7sw...3W......sq
 1940 1313f300 1303b3b6 1313c300 1303435b  ..............C[
 1950 23326400 83334400 63047300 6f10c04a  #2d..3D.c.s.o..J
 1960 9301a003 3713ffff 1b03b3f0 13130301  ....7...........
 1970 13033370 13130301 1303b3ef 1313e300  ..3p............
 1980 1303c3db a3326400 83335400 63047300  .....2d..3T.c.s.
 1990 6f108047 9301b003 37e3e5ff 1b035356  o..G....7.....SV
 19a0 1313e300 13039391 1313d300 1303b3f1  ................
 19b0 1313e300 1303435c 23336400 83336400  ......C\#3d..3d.
 19c0 63047300 6f104044 9301c003 37f3e9ff  c.s.o.@D....7...
 19d0 1b039396 1313d300 1303d3d0 13130301  ................
 19e0 1303d3ce 1313c300 1303c3dc a3336400  .............3d.
 19f0 83337400 63047300 6f100041 9301d003  .3t.c.s.o..A....
 1a00 37d3ffff 1b03435d a31f6400 8313f401  7.....C]..d.....
 1a10 63047300 6f10403f 9301e003 37d30000  c.s.o.@?....7...
 1a20 1b03637d a31f6400 8353f401 63047300  ..c}..d..S..c.s.
 1a30 6f10803d 9301f003 37e3dadb 1b03839d  o..=....7.......
 1a40 a32e6400 8323d401 63047300 6f10c03b  ..d..#..c.s.o..;
 1a50 93010004 37e3dedf 1b03c3dd 232f6400  ....7.......#/d.
 1a60 8323e401 63047300 6f10003a 93011004  .#..c.s.o..:....
 1a70 37e3e2e3 1b03031e a32f6400 8323f401  7......../d..#..
 1a80 63047300 6f104038 93012004 37430700  c.s.o.@8.. .7C..
 1a90 1b0373f3 1313d300 1303435e a32e6400  ..s.......C^..d.
 1aa0 8363d401 63047300 6f100036 93013004  .c..c.s.o..6..0.
 1ab0 37c30e00 1b03f3ea 1313c300 1303839e  7...............
 1ac0 232f6400 8363e401 63047300 6f10c033  #/d..c..c.s.o..3
 1ad0 93014004 37030f00 1b03f3ee 1313c300  ..@.7...........
 1ae0 1303c3de a32f6400 8363f401 63047300  ...../d..c..c.s.
 1af0 6f108031 93015004 3703fcff 1b03b3b7  o..1..P.7.......
 1b00 1313f300 1303d3d3 1313e300 1303f3f2  ................
 1b10 1313c300 1303031f a33c6400 83339401  .........<d..3..
 1b20 63047300 6f10402e 93016004 3703ffff  c.s.o.@...`.7...
 1b30 1b03d3df 13130301 1303b3bf 13130301  ................
 1b40 1303839f 233d6400 8333a401 63047300  ....#=d..3..c.s.
 1b50 6f10802b 93017004 3783c101 1b031314  o..+..p.7.......
 1b60 13131301 13031318 13131301 13030310  ................
 1b70 a33d6400 8333b401 63047300 6f10c028  .=d..3..c.s.o..(
 1b80 93018004 37e3f000 1b03130d 1313c300  ....7...........
 1b90 1303b3c0 1313c300 1303130a 1313c300  ................
 1ba0 13038390 233e6400 8333c401 63047300  ....#>d..3..c.s.
 1bb0 6f108025 93019004 37637101 1b031315  o..%....7cq.....
 1bc0 1313c300 13033341 1313c300 13031312  ......3A........
 1bd0 1313c300 13030311 a33e6400 8333d401  .........>d..3..
 1be0 63047300 6f104022 9301a004 37231f00  c.s.o.@"....7#..
 1bf0 1b03d3e1 1313e300 13037370 1313d300  ..........sp....
 1c00 1303138d 1313d300 13038391 233f6400  ............#?d.
 1c10 8333e401 63047300 6f10001f 9301b004  .3..c.s.o.......
 1c20 37a39c00 1b035389 1313c300 13039390  7.....S.........
 1c30 1313d300 13031391 1313d300 13030312  ................
 1c40 a33f6400 8333f401 63047300 6f10c01b  .?d..3..c.s.o...
 1c50 9301c004 37330000 1b034353 a31f6402  ....73....CS..d.
 1c60 8313f403 63047300 6f10001a 9301d004  ....c.s.o.......
 1c70 37330000 1b036373 a31f6402 8353f403  73....cs..d..S..
 1c80 63047300 6f104018 9301e004 37433a3b  c.s.o.@.....7C:;
 1c90 1b038393 a32e6402 8323d403 63047300  ......d..#..c.s.
 1ca0 6f108016 9301f004 37433e3f 1b03c3d3  o.......7C>?....
 1cb0 232f6402 8323e403 63047300 6f10c014  #/d..#..c.s.o...
 1cc0 93010005 37434243 1b030314 a32f6402  ....7CBC...../d.
 1cd0 8323f403 63047300 6f100013 93011005  .#..c.s.o.......
 1ce0 37434647 1b034354 a32e6402 8363d403  7CFG..CT..d..c..
 1cf0 63047300 6f104011 93012005 37534a4b  c.s.o.@... .7SJK
 1d00 1b038394 232f6402 8363e403 63047300  ....#/d..c..c.s.
 1d10 6f10800f 93013005 37534e4f 1b03c3d4  o.....0.7SNO....
 1d20 a32f6402 8363f403 63047300 6f10c00d  ./d..c..c.s.o...
 1d30 93014005 37637505 1b035355 1313c300  ..@.7cu...SU....
 1d40 13033345 1313c300 13035352 1313c300  ..3E......SR....
 1d50 13030315 a33c6402 83339403 63047300  .....<d..3..c.s.
 1d60 6f10800a 93015005 37837d01 1b035397  o.....P.7.}...S.
 1d70 1313c300 13037371 1313d300 130333ad  ......sq......3.
 1d80 1313d300 13038395 233d6402 8333a403  ........#=d..3..
 1d90 63047300 6f104007 93016005 37d3ce00  c.s.o.@...`.7...
 1da0 1b03b3cc 1313d300 13039391 1313d300  ................
 1db0 130333b1 1313d300 13030316 a33d6402  ..3..........=d.
 1dc0 8333b403 63047300 6f100004 93017005  .3..c.s.o.....p.
 1dd0 37e3f606 1b03736d 1313c300 1303b3c6  7.....sm........
 1de0 1313c300 1303736a 1313c300 13038396  ......sj........
 1df0 233e6402 8333c403 63047300 6f10c000  #>d..3..c.s.o...
 1e00 93018005 37637707 1b037375 1313c300  ....7cw...su....
 1e10 13033347 1313c300 13037372 1313c300  ..3G......sr....
 1e20 13030317 a33e6402 8333d403 e31e737c  .....>d..3....s|
 1e30 93019005 3703ff00 1b03b3cf 1313c300  ....7...........
 1e40 1303f3f8 1313c300 1303536f 1313f300  ..........So....
 1e50 13038397 233f6402 8333e403 e316737a  ....#?d..3....sz
 1e60 9301a005 37f3f0ff 1b03130d 1313c300  ....7...........
 1e70 130393b0 13130301 13035370 1313f300  ..........Sp....
 1e80 13030318 a33f6402 8333f403 e31e7376  .....?d..3....sv
 1e90 9301b005 37a30000 1b038399 930380f9  ....7...........
 1ea0 a3106400 030e1400 e390c377 9301c005  ..d........w....
 1eb0 37a30000 1b03a3b9 9303b0f9 a3106400  7.............d.
 1ec0 030e2400 e392c375 9301d005 37a30000  ..$....u....7...
 1ed0 1b03c3d9 9303c009 a3106400 034e1400  ..........d..N..
 1ee0 e394c373 9301e005 37a30000 1b03e3f9  ...s....7.......
 1ef0 9303f009 a3106400 034e2400 e396c371  ......d..N$....q
 1f00 9301f005 37230500 1b0353d1 1313d300  ....7#....S.....
 1f10 1303031a 930300fa a3206400 030e1400  ......... d.....
 1f20 e394c36f 93010006 37430500 1b0353d3  ...o....7C....S.
 1f30 1313d300 1303435a 9303500a 23216400  ......CZ..P.#!d.
 1f40 034e3400 e392c36d 93011006 37c30a00  .N4....m....7...
 1f50 1b03b3aa 1313c300 1303839a b7b3ffff  ................
 1f60 9b8393aa a3216400 031e4400 e39ec369  .....!d...D....i
 1f70 93012006 37030b00 1b03b3ae 1313c300  .. .7...........
 1f80 1303c3da b7b30000 9b83e3fa a3216400  .............!d.
 1f90 035e5400 e39ac367 93013006 37e3defe  .^T....g..0.7...
 1fa0 1b0373ad 1313c300 1303d3d2 1313e300  ..s.............
 1fb0 1303b3b2 1313c300 1303031b 930360fb  ..............`.
 1fc0 a3306400 030e7400 e390c365 93014006  .0d...t....e..@.
 1fd0 3703fffe 1b0373af 1313c300 1303f3f2  7.....s.........
 1fe0 1313c300 1303b3ee 1313e300 1303839b  ................
 1ff0 9303900b 23316400 034e3400 e396c361  ....#1d..N4....a
 2000 93015006 37231fff 1b0373b1 1313c300  ..P.7#....s.....
 2010 13031313 1313c300 1303b3f0 1313e300  ................
 2020 1303031c b7c3ffff 9b83637c a3316400  ..........c|.1d.
 2030 031e9400 e39ac35d 93016006 37433fff  .......]..`.7C?.
 2040 1b0373b3 1313c300 13033333 1313e300  ..s.......33....
 2050 1303d3ca 1313c300 1303839c b7d30000  ................
 2060 9b8393ac 23326400 035e5400 e39ec359  ....#2d..^T....Y
 2070 93017006 37635fff 1b0373b5 1313c300  ..p.7c_...s.....
 2080 13035353 1313e300 1303d3d2 1313c300  ..SS............
 2090 1303031d b7d3d6d7 9b83435d a3326400  ..........C].2d.
 20a0 032e9400 e392c357 93018006 37837fff  .......W....7...
 20b0 1b0373b7 1313c300 13037373 1313d300  ..s.......ss....
 20c0 130373ed 1313d300 1303839d b7e3dcdd  ..s.............
 20d0 9b83a3bd 23336400 032e8400 e396c353  ....#3d........S
 20e0 93019006 37f3f3ff 1b033337 1313f300  ....7.....37....
 20f0 13039393 1313d300 130373f1 1313d300  ..........s.....
 2100 1303031e b7230700 9b83f371 9393d300  .....#.....q....
 2110 9383132e a3336400 036e8400 e396c34f  .....3d..n.....O
 2120 9301a006 37f30000 1b03839e 930380fe  ....7...........
 2130 a31f6400 030ef401 e398c34d 9301b006  ..d........M....
 2140 37f30000 1b03a3be 9303b0fe a31f6400  7.............d.
 2150 030e0402 e39ac34b 9301c006 37f30000  .......K....7...
 2160 1b03c3de 9303c00e a31f6400 034ef401  ..........d..N..
 2170 e39cc349 9301d006 37f30000 1b03e3fe  ...I....7.......
 2180 9303f00e a31f6400 034e0402 e39ec347  ......d..N.....G
 2190 9301e006 37430f00 1b03f3f2 1313c300  ....7C..........
 21a0 1303031f 930300ff a32e6400 030ed401  ..........d.....
 21b0 e39cc345 9301f006 37830f00 1b03f3f6  ...E....7.......
 21c0 1313c300 1303435f 9303600f 232f6400  ......C_..`.#/d.
 21d0 034e0402 e39ac343 93010007 37030100  .N.....C....7...
 21e0 1b03b3bf 13130301 1303839f 9303a0bf  ................
 21f0 a32e6400 031ef401 e398c341 93011007  ..d........A....
 2200 37030100 1b03f3ff 13130301 1303c3df  7...............
 2210 b7030100 9b83c3df a32f6400 035ef401  ........./d..^..
 2220 e394c33f 93012007 3783c101 1b031314  ...?.. .7.......
 2230 13131301 13031318 13131301 13030310  ................
 2240 93037000 a33c6400 030e0402 e39ec33b  ..p..<d........;
 2250 93013007 37e3f000 1b03130d 1313c300  ..0.7...........
 2260 1303b3c0 1313c300 1303130a 1313c300  ................
 2270 13038390 9303f000 233d6400 034e1402  ........#=d..N..
 2280 e394c339 93014007 37637101 1b031315  ...9..@.7cq.....
 2290 1313c300 13033341 1313c300 13031312  ......3A........
 22a0 1313c300 13030311 b7130000 9b834351  ..............CQ
 22b0 a33d6400 031ef401 e398c335 93015007  .=d........5..P.
 22c0 37231f00 1b03d3e1 1313e300 13037370  7#............sp
 22d0 1313d300 1303138d 1313d300 13038391  ................
 22e0 b7230000 9b83b3c1 233e6400 035ef401  .#......#>d..^..
 22f0 e39cc331 93016007 37a39c00 1b035389  ...1..`.7.....S.
 2300 1313c300 13039390 1313d300 13031391  ................
 2310 1313d300 13030312 b7232223 9b830312  .........#"#....
 2320 a33e6400 032ed401 e390c32f 93017007  .>d......../..p.
 2330 37e3f202 1b03332d 1313c300 1303b3c2  7.....3-........
 2340 1313c300 1303332a 1313c300 13038392  ......3*........
 2350 b7332a2b 9b838392 233f6400 032ee401  .3*+....#?d.....
 2360 e394c32b 93018007 37637303 1b033335  ...+....7cs...35
 2370 1313c300 13033343 1313c300 13033332  ......3C......32
 2380 1313c300 13030313 b7333233 9b830313  .........323....
 2390 a33f6400 036ef401 e398c327 93019007  .?d..n.....'....
 23a0 37530000 1b038394 93038004 a31f6402  7S............d.
 23b0 030ef403 e39ac325 9301a007 37530000  .......%....7S..
 23c0 1b03a3b4 9303b004 a31f6402 030e0404  ..........d.....
 23d0 e39cc323 9301b007 37530000 1b03c3d4  ...#....7S......
 23e0 9303c004 a31f6402 034ef403 e39ec321  ......d..N.....!
 23f0 9301c007 37530000 1b03e3f4 9303f004  ....7S..........
 2400 a31f6402 034e0404 e390c321 9301d007  ..d..N.....!....
 2410 37535253 1b030315 93030005 a32e6402  7SRS..........d.
 2420 030ed403 e392c31f 9301e007 37535657  ............7SVW
 2430 1b034355 93036005 232f6402 034e0404  ..CU..`.#/d..N..
 2440 e394c31d 9301f007 37635a5b 1b038395  ........7cZ[....
 2450 b7630000 9b83a3b5 a32e6402 031ef403  .c........d.....
 2460 e394c31b 93010008 37635e5f 1b03c3d5  ........7c^_....
 2470 b7630000 9b83c3d5 a32f6402 035ef403  .c......./d..^..
 2480 e394c319 93011008 37d3ce00 1b03b3cc  ........7.......
 2490 1313d300 13039391 1313d300 130333b1  ..............3.
 24a0 1313d300 13030316 93037006 a33c6402  ..........p..<d.
 24b0 030e0404 e39ac315 93012008 37e3f606  .......... .7...
 24c0 1b03736d 1313c300 1303b3c6 1313c300  ..sm............
 24d0 1303736a 1313c300 13038396 9303f006  ..sj............
 24e0 233d6402 034e1404 e390c313 93013008  #=d..N........0.
 24f0 37637707 1b037375 1313c300 13033347  7cw...su......3G
 2500 1313c300 13037372 1313c300 13030317  ......sr........
 2510 b7730000 9b834357 a33d6402 031ef403  .s....CW.=d.....
 2520 e394c30f 93014008 3703ff00 1b03b3cf  ......@.7.......
 2530 1313c300 1303f3f8 1313c300 1303536f  ..............So
 2540 1313f300 13038397 b7830000 9b83b3c7  ................
 2550 233e6402 035ef403 e398c30b 93015008  #>d..^........P.
 2560 37f3f0ff 1b03130d 1313c300 130393b0  7...............
 2570 13130301 13035370 1313f300 13030318  ......Sp........
 2580 b7838283 9b830318 a33e6402 032ed403  .........>d.....
 2590 e39cc307 93016008 37231fff 1b03b3d1  ......`.7#......
 25a0 1313d300 13033332 1313e300 1303938a  ......32........
 25b0 1313c300 13038398 b7938a8b 9b838398  ................
 25c0 233f6402 032ee403 e390c305 93017008  #?d...........p.
 25d0 37332fff 1b03b3d2 1313d300 13035352  73/...........SR
 25e0 1313e300 13039392 1313c300 13030319  ................
 25f0 b7430900 9b839392 9393c300 93830319  .C..............
 2600 a33f6402 036ef403 e390c301 93018008  .?d..n..........
 2610 13038009 b7c3ffff 9b838389 a3006400  ..............d.
 2620 031e1400 6392c37f 93019008 13039009  ....c...........
 2630 b7a30000 9b838399 23016400 035e1400  ........#.d..^..
 2640 6394c37d 9301a008 37a30000 1b03a3b9  c..}....7.......
 2650 b7a3c0c8 9b83a3b9 a3106400 032e1400  ..........d.....
 2660 6394c37b 9301b008 37a30000 1b03c3d9  c..{....7.......
 2670 b7a39dd0 9b83b3c9 a3116400 032e2400  ..........d...$.
 2680 6394c379 9301c008 37a30000 1b03e3f9  c..y....7.......
 2690 b7a39e9f 9b83c3d9 a3126400 032e3400  ..........d...4.
 26a0 6394c377 9301d008 1303000a b7f30400  c..w............
 26b0 9b8353ce 9393d300 9383a309 23016400  ..S.........#.d.
 26c0 036e1400 6392c375 9301e008 37a30000  .n..c..u....7...
 26d0 1b03132a b7f30400 9b835351 9393d300  ...*......SQ....
 26e0 9383031a a3116400 036e2400 639ec371  ......d..n$.c..q
 26f0 9301f008 37a30000 1b03334a b7230500  ....7.....3J.#..
 2700 9b83d351 9393d300 9383132a a3126400  ...Q.......*..d.
 2710 036e3400 639ac36f 93010009 1303500a  .n4.c..o......P.
 2720 b7030fff 9b835352 9393c300 9383131d  ......SR........
 2730 9393c300 9383d350 9393d300 9383a359  .......P.......Y
 2740 23016400 033e1400 6390c36d 93011009  #.d..>..c..m....
 2750 37a30000 1b03637a b7a38aff 9b83b3e9  7.....cz........
 2760 9393c300 93839392 9393d300 938353d1  ..............S.
 2770 9393d300 9383531a a3136400 033e2400  ......S...d..>$.
 2780 6394c369 93012009 37b30000 1b03839a  c..i.. .7.......
 2790 b7a3a6fe 9b83f329 9393c300 9383939a  .......)........
 27a0 9393d300 9383d351 9393d300 9383132a  .......Q.......*
 27b0 a3146400 033e3400 6398c365 93013009  ..d..>4.c..e..0.
 27c0 37e30a00 1b03b3ac 1313c300 1303a3ba  7...............
 27d0 b7a34afe 9b83b3a8 9393c300 9383d3da  ..J.............
 27e0 9393c300 9383b3ab 9393c300 938323aa  ..............#.
 27f0 a3226400 033e4400 6398c361 93014009  ."d..>D.c..a..@.
 2800 37230b00 1b03b3b0 1313c300 1303e3fa  7#..............
 2810 b7f3f2ff 9b839325 9393d300 9383b3b0  .......%........
 2820 93930301 9383b3ae 9393c300 9383a3ba  ................
 2830 a3236400 033e5400 6398c35d 93015009  .#d..>T.c..]..P.
 2840 37630b00 1b03b3b4 1313c300 1303233b  7c............#;
 2850 b7636bfe 9b83b3b4 9393c300 9383333b  .ck...........3;
 2860 9393c300 9383b3af 9393c300 9383b3ea  ................
 2870 a3246400 033e6400 6398c359 93016009  .$d..>d.c..Y..`.
 2880 37a30b00 1b03b3b8 1313c300 1303637b  7.............c{
 2890 b7e3e6fe 9b83f32d 9393c300 9383d3da  .......-........
 28a0 9393e300 9383b3b2 9393c300 9383e3fa  ................
 28b0 a3256400 033e7400 6398c355 93017009  .%d..>t.c..U..p.
 28c0 1303a00b b7330000 9b83a31b a30f6400  .....3........d.
 28d0 031ef401 639ac353 93018009 1303b00b  ....c..S........
 28e0 b7c30000 9b83a3bb 23006402 035ef401  ........#.d..^..
 28f0 639cc351 93019009 37c30000 1b03c3db  c..Q....7.......
 2900 b7c3bb32 9b83c3db 231f6400 032ee401  ...2....#.d.....
 2910 639cc34f 9301a009 37c30000 1b03e3fb  c..O....7.......
 2920 b7c3bf32 9b83c3eb a31f6400 032ee401  ...2......d.....
 2930 639cc34d 9301b009 37c30000 1b03031c  c..M....7.......
 2940 b7c3c0c1 9b83c3eb 23106402 032ee401  ........#.d.....
 2950 639cc34b 9301c009 1303200c b7c3c133  c..K...... ....3
 2960 9b83e32b 23006402 036ef401 639ec349  ...+#.d..n..c..I
 2970 9301d009 37c30000 1b03334c b7130300  ....7.....3L....
 2980 9b83f330 9393e300 938303c2 a31f6400  ...0..........d.
 2990 036ed401 639ac347 9301e009 37c30000  .n..c..G....7...
 29a0 1b03536c b7230300 9b8373b1 9393e300  ..Sl.#....s.....
 29b0 9383c33b 23106402 036ee401 6396c345  ...;#.d..n..c..E
 29c0 9301f009 1303700c b7f3f1ff 9b83f30e  ......p.........
 29d0 9393f300 93833340 9393f300 93831310  ......3@........
 29e0 9393c300 93830380 23006402 033e9401  ........#.d..>..
 29f0 639cc341 9301000a 37d30000 1b03839c  c..A....7.......
 2a00 b7e3f8ff 9b839393 9393e300 9383135e  ...............^
 2a10 93931301 93831318 9393c300 93838300  ................
 2a20 a31f6400 033ea401 6390c33f 9301100a  ..d..>..c..?....
 2a30 37d30000 1b03a3bc b723cf00 9b83f3b2  7........#......
 2a40 9393c300 9383f32a 9393d300 93831310  .......*........
 2a50 9393d300 93830381 a31f6400 033eb401  ..........d..>..
 2a60 6394c33b 9301200a 37030d00 1b03d3ce  c..;.. .7.......
 2a70 1313c300 1303c3dc b7433fff 9b8373b3  .........C?...s.
 2a80 9393d300 93835366 9393c300 9383135e  ......Sf.......^
 2a90 9393d300 93838301 23206402 033ec401  ........# d..>..
 2aa0 6394c337 9301300a 37430d00 1b03d3d2  c..7..0.7C......
 2ab0 1313c300 1303031d b7730d00 9b83533f  .........s....S?
 2ac0 9393e300 9383d3d2 9393e300 93833374  ..............3t
 2ad0 9393e300 938303c2 a32f6400 033ed401  ........./d..>..
 2ae0 6394c333 9301400a 37830d00 1b03d3d6  c..3..@.7.......
 2af0 1313c300 1303435d b7630300 9b83d335  ......C].c.....5
 2b00 93931301 9383b3a7 9393f300 9383d3d6  ................
 2b10 9393c300 9383435d 232f6400 033ee401  ......C]#/d..>..
 2b20 6394c32f 9301500a 37e30600 1b0373ed  c../..P.7.....s.
 2b30 1313d300 1303839d b7e3dc00 9b83738d  ..............s.
 2b40 9393c300 9383533f 9393d300 9383f3eb  ......S?........
 2b50 9393d300 9383a3bd a32e6400 033ef401  ..........d..>..
 2b60 6394c32b 9301600a 1303c00d b793ffff  c..+..`.........
 2b70 9b83c31d a30f6402 031ef403 6396c329  ......d.....c..)
 2b80 9301700a 1303d00d b7e30000 9b83c3dd  ..p.............
 2b90 23006404 035ef403 6398c327 9301800a  #.d..^..c..'....
 2ba0 37e30000 1b03e3fd b7e3dd92 9b83e3fd  7...............
 2bb0 231f6402 032ee403 6398c325 9301900a  #.d.....c..%....
 2bc0 37e30000 1b03031e b7e3e192 9b83e30d  7...............
 2bd0 a31f6402 032ee403 6398c323 9301a00a  ..d.....c..#....
 2be0 37e30000 1b03233e b7e3e2e3 9b83e30d  7.....#>........
 2bf0 23106404 032ee403 6398c321 9301b00a  #.d.....c..!....
 2c00 1303400e b7a30400 9b83f3f1 9393d300  ..@.............
 2c10 9383034e 23006404 036ef403 6396c31f  ...N#.d..n..c...
 2c20 9301c00a 37e30000 1b03536e b7330700  ....7.....Sn.3..
 2c30 9b83f372 9393d300 938303e8 a31f6402  ...r..........d.
 2c40 036ed403 6392c31d 9301d00a 37f30000  .n..c.......7...
 2c50 1b03738e b7430700 9b83f373 9393d300  ..s..C.....s....
 2c60 9383e35d 23106404 036ee403 639ec319  ...]#.d..n..c...
 2c70 9301e00a 1303900e b7d3d3ff 9b83d3bb  ................
 2c80 9393c300 9383f300 9393f300 93837370  ..............sp
 2c90 9393c300 93830386 23006404 033e9403  ........#.d..>..
 2ca0 6394c317 9301f00a 37f30000 1b03a3be  c.......7.......
 2cb0 b7d3d7d1 9b83d35b 93933301 93837378  .......[..3...sx
 2cc0 9393c300 93838306 a31f6402 033ea403  ..........d..>..
 2cd0 639cc313 9301000b 37f30000 1b03c3de  c.......7.......
 2ce0 b7f3c9ff 9b837347 9393c300 938373f6  ......sG......s.
 2cf0 9393e300 938313d0 9393f300 93830387  ................
 2d00 a31f6402 033eb403 6390c311 9301100b  ..d..>..c.......
 2d10 37230f00 1b03f3f0 1313c300 1303e3fe  7#..............
 2d20 b723ffff 9b83f3f0 93930301 9383f3ee  .#..............
 2d30 9393d300 9383d39b 9393f300 93838307  ................
 2d40 23206404 033ec403 6390c30d 9301200b  # d..>..c..... .
 2d50 37630f00 1b03f3f4 1313c300 1303233f  7c............#?
 2d60 b703cbff 9b83b38f 9393f300 9383d3d3  ................
 2d70 9393d300 938373f9 9393d300 938303e8  ......s.........
 2d80 a32f6402 033ed403 6390c309 9301300b  ./d..>..c.....0.
 2d90 37a30f00 1b03f3f8 1313c300 1303637f  7.............c.
 2da0 b753cbff 9b8393af 93930301 9383d3af  .S..............
 2db0 9393d300 9383f3f8 9393c300 9383637f  ..............c.
 2dc0 232f6402 033ee403 6390c305 9301400b  #/d..>..c.....@.
 2dd0 37030100 1b03d3df 13130301 1303a3bf  7...............
 2de0 b753cbcb 9b8393af 93930301 9383d3af  .S..............
 2df0 93931301 9383c3df a32e6402 033ef403  ..........d..>..
 2e00 6394c301 63103002 0f00f00f 63800100  c...c.0.....c...
 2e10 93911100 93e11100 9308d005 13850100  ................
 2e20 73000000 0f00f00f 93011000 9308d005  s...............
 2e30 13050000 73000000 731000c0 00000000  ....s...s.......
 2e40 00000000 00000000 00000000 00000000  ................
 2e50 00000000 00000000 00000000 00000000  ................
 2e60 00000000 00000000 00000000 00000000  ................
 2e70 00000000 00000000 00000000 00000000  ................
 2e80 00000000 00000000 00000000 00000000  ................
 2e90 00000000 00000000 00000000 00000000  ................
 2ea0 00000000 00000000 00000000 00000000  ................
 2eb0 00000000 00000000 00000000 00000000  ................
 2ec0 00000000 00000000 00000000 00000000  ................
 2ed0 00000000 00000000 00000000 00000000  ................
 2ee0 00000000 00000000 00000000 00000000  ................
 2ef0 00000000 00000000 00000000 00000000  ................
 2f00 00000000 00000000 00000000 00000000  ................
 2f10 00000000 00000000 00000000 00000000  ................
 2f20 00000000 00000000 00000000 00000000  ................
 2f30 00000000 00000000 00000000 00000000  ................
 2f40 00000000 00000000 00000000 00000000  ................
 2f50 00000000 00000000 00000000 00000000  ................
 2f60 00000000 00000000 00000000 00000000  ................
 2f70 00000000 00000000 00000000 00000000  ................
 2f80 00000000 00000000 00000000 00000000  ................
 2f90 00000000 00000000 00000000 00000000  ................
 2fa0 00000000 00000000 00000000 00000000  ................
 2fb0 00000000 00000000 00000000 00000000  ................
 2fc0 00000000 00000000 00000000 00000000  ................
 2fd0 00000000 00000000 00000000 00000000  ................
 2fe0 00000000 00000000 00000000 00000000  ................
 2ff0 00000000 00000000 00000000 00000000  ................
 3000 00000000 00000000 00000000 00000000  ................
 3010 00000000 00000000 00000000 00000000  ................
 3020 00000000 00000000 00000000 00000000  ................
 3030 00000000 00000000 00000000 00000000  ................
 3040 00000000 00000000 00000000 00000000  ................
 3050 00000000 00000000 00000000 00000000  ................
 3060 00000000 00000000 00000000 00000000  ................
 3070 00000000 00000000 00000000 00000000  ................
 3080 00000000 00000000 00000000 00000000  ................
 3090 00000000 00000000 00000000 00000000  ................
 30a0 00000000 00000000 00000000 00000000  ................
 30b0 00000000 00000000 00000000 00000000  ................
 30c0 00000000 00000000 00000000 00000000  ................
 30d0 00000000 00000000 00000000 00000000  ................
 30e0 00000000 00000000 00000000 00000000  ................
 30f0 00000000 00000000 00000000 00000000  ................
 3100 00000000 00000000 00000000 00000000  ................
 3110 00000000 00000000 00000000 00000000  ................
 3120 00000000 00000000 00000000 00000000  ................
 3130 00000000 00000000 00000000 00000000  ................
 3140 00000000 00000000 00000000 00000000  ................
 3150 00000000 00000000 00000000 00000000  ................
 3160 00000000 00000000 00000000 00000000  ................
 3170 00000000 00000000 00000000 00000000  ................
 3180 00000000 00000000 00000000 00000000  ................
 3190 00000000 00000000 00000000 00000000  ................
 31a0 00000000 00000000 00000000 00000000  ................
 31b0 00000000 00000000 00000000 00000000  ................
 31c0 00000000 00000000 00000000 00000000  ................
 31d0 00000000 00000000 00000000 00000000  ................
 31e0 00000000 00000000 00000000 00000000  ................
 31f0 00000000 00000000 00000000 00000000  ................
 3200 00000000 00000000 00000000 00000000  ................
 3210 00000000 00000000 00000000 00000000  ................
 3220 00000000 00000000 00000000 00000000  ................
 3230 00000000 00000000 00000000 00000000  ................
 3240 00000000 00000000 00000000 00000000  ................
 3250 00000000 00000000 00000000 00000000  ................
 3260 00000000 00000000 00000000 00000000  ................
 3270 00000000 00000000 00000000 00000000  ................
 3280 00000000 00000000 00000000 00000000  ................
 3290 00000000 00000000 00000000 00000000  ................
 32a0 00000000 00000000 00000000 00000000  ................
 32b0 00000000 00000000 00000000 00000000  ................
 32c0 00000000 00000000 00000000 00000000  ................
 32d0 00000000 00000000 00000000 00000000  ................
 32e0 00000000 00000000 00000000 00000000  ................
 32f0 00000000 00000000 00000000 00000000  ................
 3300 00000000 00000000 00000000 00000000  ................
 3310 00000000 00000000 00000000 00000000  ................
 3320 00000000 00000000 00000000 00000000  ................
 3330 00000000 00000000 00000000 00000000  ................
 3340 00000000 00000000 00000000 00000000  ................
 3350 00000000 00000000 00000000 00000000  ................
 3360 00000000 00000000 00000000 00000000  ................
 3370 00000000 00000000 00000000 00000000  ................
 3380 00000000 00000000 00000000 00000000  ................
 3390 00000000 00000000 00000000 00000000  ................
 33a0 00000000 00000000 00000000 00000000  ................
 33b0 00000000 00000000 00000000 00000000  ................
 33c0 00000000 00000000 00000000 00000000  ................
 33d0 00000000 00000000 00000000 00000000  ................
 33e0 00000000 00000000 00000000 00000000  ................
 33f0 00000000 00000000 00000000 00000000  ................
 3400 00000000 00000000 00000000 00000000  ................
 3410 00000000 00000000 00000000 00000000  ................
 3420 00000000 00000000 00000000 00000000  ................
 3430 00000000 00000000 00000000 00000000  ................
 3440 00000000 00000000 00000000 00000000  ................
 3450 00000000 00000000 00000000 00000000  ................
 3460 00000000 00000000 00000000 00000000  ................
 3470 00000000 00000000 00000000 00000000  ................
 3480 00000000 00000000 00000000 00000000  ................
 3490 00000000 00000000 00000000 00000000  ................
 34a0 00000000 00000000 00000000 00000000  ................
 34b0 00000000 00000000 00000000 00000000  ................
 34c0 00000000 00000000 00000000 00000000  ................
 34d0 00000000 00000000 00000000 00000000  ................
 34e0 00000000 00000000 00000000 00000000  ................
 34f0 00000000 00000000 00000000 00000000  ................
 3500 00000000 00000000 00000000 00000000  ................
 3510 00000000 00000000 00000000 00000000  ................
 3520 00000000 00000000 00000000 00000000  ................
 3530 00000000 00000000 00000000 00000000  ................
 3540 00000000 00000000 00000000 00000000  ................
 3550 00000000 00000000 00000000 00000000  ................
 3560 00000000 00000000 00000000 00000000  ................
 3570 00000000 00000000 00000000 00000000  ................
 3580 00000000 00000000 00000000 00000000  ................
 3590 00000000 00000000 00000000 00000000  ................
 35a0 00000000 00000000 00000000 00000000  ................
 35b0 00000000 00000000 00000000 00000000  ................
 35c0 00000000 00000000 00000000 00000000  ................
 35d0 00000000 00000000 00000000 00000000  ................
 35e0 00000000 00000000 00000000 00000000  ................
 35f0 00000000 00000000 00000000 00000000  ................
 3600 00000000 00000000 00000000 00000000  ................
 3610 00000000 00000000 00000000 00000000  ................
 3620 00000000 00000000 00000000 00000000  ................
 3630 00000000 00000000 00000000 00000000  ................
 3640 00000000 00000000 00000000 00000000  ................
 3650 00000000 00000000 00000000 00000000  ................
 3660 00000000 00000000 00000000 00000000  ................
 3670 00000000 00000000 00000000 00000000  ................
 3680 00000000 00000000 00000000 00000000  ................
 3690 00000000 00000000 00000000 00000000  ................
 36a0 00000000 00000000 00000000 00000000  ................
 36b0 00000000 00000000 00000000 00000000  ................
 36c0 00000000 00000000 00000000 00000000  ................
 36d0 00000000 00000000 00000000 00000000  ................
 36e0 00000000 00000000 00000000 00000000  ................
 36f0 00000000 00000000 00000000 00000000  ................
 3700 00000000 00000000 00000000 00000000  ................
 3710 00000000 00000000 00000000 00000000  ................
 3720 00000000 00000000 00000000 00000000  ................
 3730 00000000 00000000 00000000 00000000  ................
 3740 00000000 00000000 00000000 00000000  ................
 3750 00000000 00000000 00000000 00000000  ................
 3760 00000000 00000000 00000000 00000000  ................
 3770 00000000 00000000 00000000 00000000  ................
 3780 00000000 00000000 00000000 00000000  ................
 3790 00000000 00000000 00000000 00000000  ................
 37a0 00000000 00000000 00000000 00000000  ................
 37b0 00000000 00000000 00000000 00000000  ................
 37c0 00000000 00000000 00000000 00000000  ................
 37d0 00000000 00000000 00000000 00000000  ................
 37e0 00000000 00000000 00000000 00000000  ................
 37f0 00000000 00000000 00000000 00000000  ................
 3800 00000000 00000000 00000000 00000000  ................
 3810 00000000 00000000 00000000 00000000  ................
 3820 00000000 00000000 00000000 00000000  ................
 3830 00000000 00000000 00000000 00000000  ................
 3840 00000000 00000000 00000000 00000000  ................
 3850 00000000 00000000 00000000 00000000  ................
 3860 00000000 00000000 00000000 00000000  ................
 3870 00000000 00000000 00000000 00000000  ................
 3880 00000000 00000000 00000000 00000000  ................
 3890 00000000 00000000 00000000 00000000  ................
 38a0 00000000 00000000 00000000 00000000  ................
 38b0 00000000 00000000 00000000 00000000  ................
 38c0 00000000 00000000 00000000 00000000  ................
 38d0 00000000 00000000 00000000 00000000  ................
 38e0 00000000 00000000 00000000 00000000  ................
 38f0 00000000 00000000 00000000 00000000  ................
 3900 00000000 00000000 00000000 00000000  ................
 3910 00000000 00000000 00000000 00000000  ................
 3920 00000000 00000000 00000000 00000000  ................
 3930 00000000 00000000 00000000 00000000  ................
 3940 00000000 00000000 00000000 00000000  ................
 3950 00000000 00000000 00000000 00000000  ................
 3960 00000000 00000000 00000000 00000000  ................
 3970 00000000 00000000 00000000 00000000  ................
 3980 00000000 00000000 00000000 00000000  ................
 3990 00000000 00000000 00000000 00000000  ................
 39a0 00000000 00000000 00000000 00000000  ................
 39b0 00000000 00000000 00000000 00000000  ................
 39c0 00000000 00000000 00000000 00000000  ................
 39d0 00000000 00000000 00000000 00000000  ................
 39e0 00000000 00000000 00000000 00000000  ................
 39f0 00000000 00000000 00000000 00000000  ................
 3a00 00000000 00000000 00000000 00000000  ................
 3a10 00000000 00000000 00000000 00000000  ................
 3a20 00000000 00000000 00000000 00000000  ................
 3a30 00000000 00000000 00000000 00000000  ................
 3a40 00000000 00000000 00000000 00000000  ................
 3a50 00000000 00000000 00000000 00000000  ................
 3a60 00000000 00000000 00000000 00000000  ................
 3a70 00000000 00000000 00000000 00000000  ................
 3a80 00000000 00000000 00000000 00000000  ................
 3a90 00000000 00000000 00000000 00000000  ................
 3aa0 00000000 00000000 00000000 00000000  ................
 3ab0 00000000 00000000 00000000 00000000  ................
 3ac0 00000000 00000000 00000000 00000000  ................
 3ad0 00000000 00000000 00000000 00000000  ................
 3ae0 00000000 00000000 00000000 00000000  ................
 3af0 00000000 00000000 00000000 00000000  ................
 3b00 00000000 00000000 00000000 00000000  ................
 3b10 00000000 00000000 00000000 00000000  ................
 3b20 00000000 00000000 00000000 00000000  ................
 3b30 00000000 00000000 00000000 00000000  ................
 3b40 00000000 00000000 00000000 00000000  ................
 3b50 00000000 00000000 00000000 00000000  ................
 3b60 00000000 00000000 00000000 00000000  ................
 3b70 00000000 00000000 00000000 00000000  ................
 3b80 00000000 00000000 00000000 00000000  ................
 3b90 00000000 00000000 00000000 00000000  ................
 3ba0 00000000 00000000 00000000 00000000  ................
 3bb0 00000000 00000000 00000000 00000000  ................
 3bc0 00000000 00000000 00000000 00000000  ................
 3bd0 00000000 00000000 00000000 00000000  ................
 3be0 00000000 00000000 00000000 00000000  ................
 3bf0 00000000 00000000 00000000 00000000  ................
 3c00 00000000 00000000 00000000 00000000  ................
 3c10 00000000 00000000 00000000 00000000  ................
 3c20 00000000 00000000 00000000 00000000  ................
 3c30 00000000 00000000 00000000 00000000  ................
 3c40 00000000 00000000 00000000 00000000  ................
 3c50 00000000 00000000 00000000 00000000  ................
 3c60 00000000 00000000 00000000 00000000  ................
 3c70 00000000 00000000 00000000 00000000  ................
 3c80 00000000 00000000 00000000 00000000  ................
 3c90 00000000 00000000 00000000 00000000  ................
 3ca0 00000000 00000000 00000000 00000000  ................
 3cb0 00000000 00000000 00000000 00000000  ................
 3cc0 00000000 00000000 00000000 00000000  ................
 3cd0 00000000 00000000 00000000 00000000  ................
 3ce0 00000000 00000000 00000000 00000000  ................
 3cf0 00000000 00000000 00000000 00000000  ................
 3d00 00000000 00000000 00000000 00000000  ................
 3d10 00000000 00000000 00000000 00000000  ................
 3d20 00000000 00000000 00000000 00000000  ................
 3d30 00000000 00000000 00000000 00000000  ................
 3d40 00000000 00000000 00000000 00000000  ................
 3d50 00000000 00000000 00000000 00000000  ................
 3d60 00000000 00000000 00000000 00000000  ................
 3d70 00000000 00000000 00000000 00000000  ................
 3d80 00000000 00000000 00000000 00000000  ................
 3d90 00000000 00000000 00000000 00000000  ................
 3da0 00000000 00000000 00000000 00000000  ................
 3db0 00000000 00000000 00000000 00000000  ................
 3dc0 00000000 00000000 00000000 00000000  ................
 3dd0 00000000 00000000 00000000 00000000  ................
 3de0 00000000 00000000 00000000 00000000  ................
 3df0 00000000 00000000 00000000 00000000  ................
 3e00 00000000 00000000 00000000 00000000  ................
 3e10 00000000 00000000 00000000 00000000  ................
 3e20 00000000 00000000 00000000 00000000  ................
 3e30 00000000 00000000 00000000 00000000  ................
 3e40 00000000 00000000 00000000 00000000  ................
 3e50 00000000 00000000 00000000 00000000  ................
 3e60 00000000 00000000 00000000 00000000  ................
 3e70 00000000 00000000 00000000 00000000  ................
 3e80 00000000 00000000 00000000 00000000  ................
 3e90 00000000 00000000 00000000 00000000  ................
 3ea0 00000000 00000000 00000000 00000000  ................
 3eb0 00000000 00000000 00000000 00000000  ................
 3ec0 00000000 00000000 00000000 00000000  ................
 3ed0 00000000 00000000 00000000 00000000  ................
 3ee0 00000000 00000000 00000000 00000000  ................
 3ef0 00000000 00000000 00000000 00000000  ................
 3f00 00000000 00000000 00000000 00000000  ................
 3f10 00000000 00000000 00000000 00000000  ................
 3f20 00000000 00000000 00000000 00000000  ................
 3f30 00000000 00000000 00000000 00000000  ................
 3f40 00000000 00000000 00000000 00000000  ................
 3f50 00000000 00000000 00000000 00000000  ................
 3f60 00000000 00000000 00000000 00000000  ................
 3f70 00000000 00000000 00000000 00000000  ................
 3f80 00000000 00000000 00000000 00000000  ................
 3f90 00000000 00000000 00000000 00000000  ................
 3fa0 00000000 00000000 00000000 00000000  ................
 3fb0 00000000 00000000 00000000 00000000  ................
 3fc0 00000000 00000000 00000000 00000000  ................
 3fd0 00000000 00000000 00000000 00000000  ................
 3fe0 00000000 00000000 00000000 00000000  ................
 3ff0 00000000 00000000 00000000 00000000  ................
 4000 00010203 04050607 08090a0b 0c0d0e0f  ................
 4010 10111213 14151617 18191a1b 1c1d1e1f  ................
 4020 20212223 24252627 28292a2b 2c2d2e2f   !"#$%&'()*+,-./
 4030 30313233 34353637 38393a3b 3c3d3e3f  0123456789:;<=>?
 4040 40414243 44454647 48494a4b 4c4d4e4f  @ABCDEFGHIJKLMNO
 4050 50515253 54555657 58595a5b 5c5d5e5f  PQRSTUVWXYZ[\]^_
 4060 60616263 64656667 68696a6b 6c6d6e6f  `abcdefghijklmno
 4070 70717273 74757677 78797a7b 7c7d7e7f  pqrstuvwxyz{|}~.
 4080 50505050 50505050 50505050 50505050  PPPPPPPPPPPPPPPP
 4090 50505050 50505050 50505050 50505050  PPPPPPPPPPPPPPPP
 40a0 50505050 50505050 50505050 50505050  PPPPPPPPPPPPPPPP
 40b0 50505050 50505050 50505050 50505050  PPPPPPPPPPPPPPPP
 40c0 50505050 50505050 50505050 50505050  PPPPPPPPPPPPPPPP
 40d0 50505050 50505050 50505050 50505050  PPPPPPPPPPPPPPPP
 40e0 50505050 50505050 50505050 50505050  PPPPPPPPPPPPPPPP
 40f0 50505050 50505050 50505050 50505050  PPPPPPPPPPPPPPPP
 4100 50505050 50505050 50505050 50505050  PPPPPPPPPPPPPPPP
 4110 50505050 50505050 50505050 50505050  PPPPPPPPPPPPPPPP
 4120 50505050 50505050 50505050 50505050  PPPPPPPPPPPPPPPP
 4130 50505050 50505050 50505050 50505050  PPPPPPPPPPPPPPPP
 4140 50505050 50505050 50505050 50505050  PPPPPPPPPPPPPPPP
 4150 50505050 50505050 50505050 50505050  PPPPPPPPPPPPPPPP
 4160 50505050 50505050 50505050 50505050  PPPPPPPPPPPPPPPP
 4170 50505050 50505050 50505050 50505000  PPPPPPPPPPPPPPP.
 4180 414f0000 00726973 63760001 45000000  AO...riscv..E...
 4190 05727636 34693270 315f6d32 70305f61  .rv64i2p1_m2p0_a
 41a0 3270315f 66327032 5f643270 325f7a69  2p1_f2p2_d2p2_zi
 41b0 63737232 70305f7a 6966656e 63656932  csr2p0_zifencei2
 41c0 70305f7a 6d6d756c 31703000 08010a0b  p0_zmmul1p0.....
 41d0 00000000 00000000 00000000 00000000  ................
 41e0 00000000 00000000 00000000 03000100  ................
 41f0 00000080 00000000 00000000 00000000  ................
 4200 00000000 03000200 00200080 00000000  ......... ......
 4210 00000000 00000000 00000000 03000300  ................
 4220 00300080 00000000 00000000 00000000  .0..............
 4230 00000000 03000400 00000000 00000000  ................
 4240 00000000 00000000 01000000 0400f1ff  ................
 4250 00000000 00000000 00000000 00000000  ................
 4260 0c000000 00000100 00000080 00000000  ................
 4270 00000000 00000000 49000000 00000100  ........I.......
 4280 50000080 00000000 00000000 00000000  P...............
 4290 56000000 00000100 04000080 00000000  V...............
 42a0 00000000 00000000 62000000 00000100  ........b.......
 42b0 3c000080 00000000 00000000 00000000  <...............
 42c0 6f000000 00000100 38000080 00000000  o.......8.......
 42d0 00000000 00000000 80000000 00000100  ................
 42e0 38000080 00000000 00000000 00000000  8...............
 42f0 90000000 00000300 00300080 00000000  .........0......
 4300 00000000 00000000 95000000 00000100  ................
 4310 081e0080 00000000 00000000 00000000  ................
 4320 9a000000 00000100 241e0080 00000000  ........$.......
 4330 00000000 00000000 9f000000 10000300  ................
 4340 80310080 00000000 00000000 00000000  .1..............
 4350 ad000000 10000300 00300080 00000000  .........0......
 4360 00000000 00000000 bd000000 10000100  ................
 4370 00000080 00000000 00000000 00000000  ................
 4380 c4000000 10000300 80310080 00000000  .........1......
 4390 00000000 00000000 c9000000 10000200  ................
 43a0 40200080 00000000 08000000 00000000  @ ..............
 43b0 68000000 10000200 00200080 00000000  h........ ......
 43c0 08000000 00000000 00636366 4f51306f  .........ccfOQ0o
 43d0 5a2e6f00 24787276 36346932 70315f6d  Z.o.$xrv64i2p1_m
 43e0 3270305f 61327031 5f663270 325f6432  2p0_a2p1_f2p2_d2
 43f0 70325f7a 69637372 3270305f 7a696665  p2_zicsr2p0_zife
 4400 6e636569 3270305f 7a6d6d75 6c317030  ncei2p0_zmmul1p0
 4410 00726573 65745f76 6563746f 72007472  .reset_vector.tr
 4420 61705f76 6563746f 72007772 6974655f  ap_vector.write_
 4430 746f686f 73740068 616e646c 655f6578  tohost.handle_ex
 4440 63657074 696f6e00 6f746865 725f6578  ception.other_ex
 4450 63657074 696f6e00 64617461 00666169  ception.data.fai
 4460 6c007061 73730065 6e645f73 69676e61  l.pass.end_signa
 4470 74757265 00626567 696e5f73 69676e61  ture.begin_signa
 4480 74757265 005f7374 61727400 5f656e64  ture._start._end
 4490 0066726f 6d686f73 7400002e 73796d74  .fromhost...symt
 44a0 6162002e 73747274 6162002e 73687374  ab..strtab..shst
 44b0 72746162 002e7465 78742e69 6e697400  rtab..text.init.
 44c0 2e746f68 6f737400 2e646174 61002e72  .tohost..data..r
 44d0 69736376 2e617474 72696275 74657300  iscv.attributes.
 44e0 00000000 00000000 00000000 00000000  ................
 44f0 00000000 00000000 00000000 00000000  ................
 4500 00000000 00000000 00000000 00000000  ................
 4510 00000000 00000000 00000000 00000000  ................
 4520 1b000000 01000000 06000000 00000000  ................
 4530 00000080 00000000 00100000 00000000  ................
 4540 3c1e0000 00000000 00000000 00000000  <...............
 4550 40000000 00000000 00000000 00000000  @...............
 4560 26000000 01000000 03000000 00000000  &...............
 4570 00200080 00000000 00300000 00000000  . .......0......
 4580 48000000 00000000 00000000 00000000  H...............
 4590 40000000 00000000 00000000 00000000  @...............
 45a0 2e000000 01000000 03000000 00000000  ................
 45b0 00300080 00000000 00400000 00000000  .0.......@......
 45c0 80010000 00000000 00000000 00000000  ................
 45d0 10000000 00000000 00000000 00000000  ................
 45e0 34000000 03000070 00000000 00000000  4......p........
 45f0 00000000 00000000 80410000 00000000  .........A......
 4600 50000000 00000000 00000000 00000000  P...............
 4610 01000000 00000000 00000000 00000000  ................
 4620 01000000 02000000 00000000 00000000  ................
 4630 00000000 00000000 d0410000 00000000  .........A......
 4640 f8010000 00000000 06000000 0f000000  ................
 4650 08000000 00000000 18000000 00000000  ................
 4660 09000000 03000000 00000000 00000000  ................
 4670 00000000 00000000 c8430000 00000000  .........C......
 4680 d2000000 00000000 00000000 00000000  ................
 4690 01000000 00000000 00000000 00000000  ................
 46a0 11000000 03000000 00000000 00000000  ................
 46b0 00000000 00000000 9a440000 00000000  .........D......
 46c0 46000000 00000000 00000000 00000000  F...............
 46d0 01000000 00000000 00000000 00000000  ................

Disassembly of section .data:

0000000000001000 <.data+0x1000>:
    1000:	0500006f          	jal	x0,0x1050
    1004:	34202f73          	csrrs	x30,mcause,x0
    1008:	00800f93          	addi	x31,x0,8
    100c:	03ff0863          	beq	x30,x31,0x103c
    1010:	00900f93          	addi	x31,x0,9
    1014:	03ff0463          	beq	x30,x31,0x103c
    1018:	00b00f93          	addi	x31,x0,11
    101c:	03ff0063          	beq	x30,x31,0x103c
    1020:	00000f13          	addi	x30,x0,0
    1024:	000f0463          	beq	x30,x0,0x102c
    1028:	000f0067          	jalr	x0,0(x30)
    102c:	34202f73          	csrrs	x30,mcause,x0
    1030:	000f5463          	bge	x30,x0,0x1038
    1034:	0040006f          	jal	x0,0x1038
    1038:	5391e193          	ori	x3,x3,1337
    103c:	00002f17          	auipc	x30,0x2
    1040:	fc3f2223          	sw	x3,-60(x30) # 0x3000
    1044:	00002f17          	auipc	x30,0x2
    1048:	fc0f2023          	sw	x0,-64(x30) # 0x3004
    104c:	ff1ff06f          	jal	x0,0x103c
    1050:	00000093          	addi	x1,x0,0
    1054:	00000113          	addi	x2,x0,0
    1058:	00000193          	addi	x3,x0,0
    105c:	00000213          	addi	x4,x0,0
    1060:	00000293          	addi	x5,x0,0
    1064:	00000313          	addi	x6,x0,0
    1068:	00000393          	addi	x7,x0,0
    106c:	00000413          	addi	x8,x0,0
    1070:	00000493          	addi	x9,x0,0
    1074:	00000513          	addi	x10,x0,0
    1078:	00000593          	addi	x11,x0,0
    107c:	00000613          	addi	x12,x0,0
    1080:	00000693          	addi	x13,x0,0
    1084:	00000713          	addi	x14,x0,0
    1088:	00000793          	addi	x15,x0,0
    108c:	00000813          	addi	x16,x0,0
    1090:	00000893          	addi	x17,x0,0
    1094:	00000913          	addi	x18,x0,0
    1098:	00000993          	addi	x19,x0,0
    109c:	00000a13          	addi	x20,x0,0
    10a0:	00000a93          	addi	x21,x0,0
    10a4:	00000b13          	addi	x22,x0,0
    10a8:	00000b93          	addi	x23,x0,0
    10ac:	00000c13          	addi	x24,x0,0
    10b0:	00000c93          	addi	x25,x0,0
    10b4:	00000d13          	addi	x26,x0,0
    10b8:	00000d93          	addi	x27,x0,0
    10bc:	00000e13          	addi	x28,x0,0
    10c0:	00000e93          	addi	x29,x0,0
    10c4:	00000f13          	addi	x30,x0,0
    10c8:	00000f93          	addi	x31,x0,0
    10cc:	f1402573          	csrrs	x10,mhartid,x0
    10d0:	00051063          	bne	x10,x0,0x10d0
    10d4:	00000297          	auipc	x5,0x0
    10d8:	01028293          	addi	x5,x5,16 # 0x10e4
    10dc:	30529073          	csrrw	x0,mtvec,x5
    10e0:	74445073          	csrrwi	x0,0x744,8
    10e4:	00000297          	auipc	x5,0x0
    10e8:	01028293          	addi	x5,x5,16 # 0x10f4
    10ec:	30529073          	csrrw	x0,mtvec,x5
    10f0:	18005073          	csrrwi	x0,satp,0
    10f4:	00000297          	auipc	x5,0x0
    10f8:	02428293          	addi	x5,x5,36 # 0x1118
    10fc:	30529073          	csrrw	x0,mtvec,x5
    1100:	0010029b          	addiw	x5,x0,1
    1104:	03529293          	slli	x5,x5,0x35
    1108:	fff28293          	addi	x5,x5,-1
    110c:	3b029073          	csrrw	x0,pmpaddr0,x5
    1110:	01f00293          	addi	x5,x0,31
    1114:	3a029073          	csrrw	x0,pmpcfg0,x5
    1118:	30405073          	csrrwi	x0,mie,0
    111c:	00000297          	auipc	x5,0x0
    1120:	01428293          	addi	x5,x5,20 # 0x1130
    1124:	30529073          	csrrw	x0,mtvec,x5
    1128:	30205073          	csrrwi	x0,medeleg,0
    112c:	30305073          	csrrwi	x0,mideleg,0
    1130:	00000193          	addi	x3,x0,0
    1134:	00000297          	auipc	x5,0x0
    1138:	ed028293          	addi	x5,x5,-304 # 0x1004
    113c:	30529073          	csrrw	x0,mtvec,x5
    1140:	00100513          	addi	x10,x0,1
    1144:	01f51513          	slli	x10,x10,0x1f
    1148:	00055c63          	bge	x10,x0,0x1160
    114c:	0ff0000f          	fence	iorw,iorw
    1150:	00100193          	addi	x3,x0,1
    1154:	05d00893          	addi	x17,x0,93
    1158:	00000513          	addi	x10,x0,0
    115c:	00000073          	ecall
    1160:	00000293          	addi	x5,x0,0
    1164:	00028a63          	beq	x5,x0,0x1178
    1168:	10529073          	csrrw	x0,stvec,x5
    116c:	0000b2b7          	lui	x5,0xb
    1170:	1092829b          	addiw	x5,x5,265 # 0xb109
    1174:	30229073          	csrrw	x0,medeleg,x5
    1178:	30005073          	csrrwi	x0,mstatus,0
    117c:	00000297          	auipc	x5,0x0
    1180:	01428293          	addi	x5,x5,20 # 0x1190
    1184:	34129073          	csrrw	x0,mepc,x5
    1188:	f1402573          	csrrs	x10,mhartid,x0
    118c:	30200073          	mret
    1190:	00003417          	auipc	x8,0x3
    1194:	e7040413          	addi	x8,x8,-400 # 0x4000
    1198:	00100193          	addi	x3,x0,1
    119c:	20100313          	addi	x6,x0,513
    11a0:	00141383          	lh	x7,1(x8)
    11a4:	00730463          	beq	x6,x7,0x11ac
    11a8:	4610106f          	jal	x0,0x2e08
    11ac:	00200193          	addi	x3,x0,2
    11b0:	20100313          	addi	x6,x0,513
    11b4:	00145383          	lhu	x7,1(x8)
    11b8:	00730463          	beq	x6,x7,0x11c0
    11bc:	44d0106f          	jal	x0,0x2e08
    11c0:	00300193          	addi	x3,x0,3
    11c4:	04030337          	lui	x6,0x4030
    11c8:	2013031b          	addiw	x6,x6,513 # 0x4030201
    11cc:	00142383          	lw	x7,1(x8)
    11d0:	00730463          	beq	x6,x7,0x11d8
    11d4:	4350106f          	jal	x0,0x2e08
    11d8:	00400193          	addi	x3,x0,4
    11dc:	05040337          	lui	x6,0x5040
    11e0:	3023031b          	addiw	x6,x6,770 # 0x5040302
    11e4:	00242383          	lw	x7,2(x8)
    11e8:	00730463          	beq	x6,x7,0x11f0
    11ec:	41d0106f          	jal	x0,0x2e08
    11f0:	00500193          	addi	x3,x0,5
    11f4:	06050337          	lui	x6,0x6050
    11f8:	4033031b          	addiw	x6,x6,1027 # 0x6050403
    11fc:	00342383          	lw	x7,3(x8)
    1200:	00730463          	beq	x6,x7,0x1208
    1204:	4050106f          	jal	x0,0x2e08
    1208:	00600193          	addi	x3,x0,6
    120c:	04030337          	lui	x6,0x4030
    1210:	2013031b          	addiw	x6,x6,513 # 0x4030201
    1214:	00146383          	lwu	x7,1(x8)
    1218:	00730463          	beq	x6,x7,0x1220
    121c:	3ed0106f          	jal	x0,0x2e08
    1220:	00700193          	addi	x3,x0,7
    1224:	05040337          	lui	x6,0x5040
    1228:	3023031b          	addiw	x6,x6,770 # 0x5040302
    122c:	00246383          	lwu	x7,2(x8)
    1230:	00730463          	beq	x6,x7,0x1238
    1234:	3d50106f          	jal	x0,0x2e08
    1238:	00800193          	addi	x3,x0,8
    123c:	06050337          	lui	x6,0x6050
    1240:	4033031b          	addiw	x6,x6,1027 # 0x6050403
    1244:	00346383          	lwu	x7,3(x8)
    1248:	00730463          	beq	x6,x7,0x1250
    124c:	3bd0106f          	jal	x0,0x2e08
    1250:	00900193          	addi	x3,x0,9
    1254:	08070337          	lui	x6,0x8070
    1258:	6053031b          	addiw	x6,x6,1541 # 0x8070605
    125c:	01031313          	slli	x6,x6,0x10
    1260:	40330313          	addi	x6,x6,1027
    1264:	01031313          	slli	x6,x6,0x10
    1268:	20130313          	addi	x6,x6,513
    126c:	00143383          	ld	x7,1(x8)
    1270:	00730463          	beq	x6,x7,0x1278
    1274:	3950106f          	jal	x0,0x2e08
    1278:	00a00193          	addi	x3,x0,10
    127c:	04840337          	lui	x6,0x4840
    1280:	3833031b          	addiw	x6,x6,899 # 0x4840383
    1284:	00f31313          	slli	x6,x6,0xf
    1288:	14130313          	addi	x6,x6,321
    128c:	01231313          	slli	x6,x6,0x12
    1290:	30230313          	addi	x6,x6,770
    1294:	00243383          	ld	x7,2(x8)
    1298:	00730463          	beq	x6,x7,0x12a0
    129c:	36d0106f          	jal	x0,0x2e08
    12a0:	00b00193          	addi	x3,x0,11
    12a4:	0a091337          	lui	x6,0xa091
    12a8:	8073031b          	addiw	x6,x6,-2041 # 0xa090807
    12ac:	01031313          	slli	x6,x6,0x10
    12b0:	60530313          	addi	x6,x6,1541
    12b4:	01031313          	slli	x6,x6,0x10
    12b8:	40330313          	addi	x6,x6,1027
    12bc:	00343383          	ld	x7,3(x8)
    12c0:	00730463          	beq	x6,x7,0x12c8
    12c4:	3450106f          	jal	x0,0x2e08
    12c8:	00c00193          	addi	x3,x0,12
    12cc:	01614337          	lui	x6,0x1614
    12d0:	1213031b          	addiw	x6,x6,289 # 0x1614121
    12d4:	01231313          	slli	x6,x6,0x12
    12d8:	38330313          	addi	x6,x6,899
    12dc:	01131313          	slli	x6,x6,0x11
    12e0:	50430313          	addi	x6,x6,1284
    12e4:	00443383          	ld	x7,4(x8)
    12e8:	00730463          	beq	x6,x7,0x12f0
    12ec:	31d0106f          	jal	x0,0x2e08
    12f0:	00d00193          	addi	x3,x0,13
    12f4:	00060337          	lui	x6,0x60
    12f8:	5853031b          	addiw	x6,x6,1413 # 0x60585
    12fc:	00d31313          	slli	x6,x6,0xd
    1300:	09130313          	addi	x6,x6,145
    1304:	00c31313          	slli	x6,x6,0xc
    1308:	80730313          	addi	x6,x6,-2041
    130c:	01031313          	slli	x6,x6,0x10
    1310:	60530313          	addi	x6,x6,1541
    1314:	00543383          	ld	x7,5(x8)
    1318:	00730463          	beq	x6,x7,0x1320
    131c:	2ed0106f          	jal	x0,0x2e08
    1320:	00e00193          	addi	x3,x0,14
    1324:	06860337          	lui	x6,0x6860
    1328:	5853031b          	addiw	x6,x6,1413 # 0x6860585
    132c:	00e31313          	slli	x6,x6,0xe
    1330:	12130313          	addi	x6,x6,289
    1334:	01331313          	slli	x6,x6,0x13
    1338:	70630313          	addi	x6,x6,1798
    133c:	00643383          	ld	x7,6(x8)
    1340:	00730463          	beq	x6,x7,0x1348
    1344:	2c50106f          	jal	x0,0x2e08
    1348:	00f00193          	addi	x3,x0,15
    134c:	00038337          	lui	x6,0x38
    1350:	3433031b          	addiw	x6,x6,835 # 0x38343
    1354:	01131313          	slli	x6,x6,0x11
    1358:	58530313          	addi	x6,x6,1413
    135c:	00d31313          	slli	x6,x6,0xd
    1360:	09130313          	addi	x6,x6,145
    1364:	00c31313          	slli	x6,x6,0xc
    1368:	80730313          	addi	x6,x6,-2041
    136c:	00743383          	ld	x7,7(x8)
    1370:	00730463          	beq	x6,x7,0x1378
    1374:	2950106f          	jal	x0,0x2e08
    1378:	01000193          	addi	x3,x0,16
    137c:	00002337          	lui	x6,0x2
    1380:	01f3031b          	addiw	x6,x6,31 # 0x201f
    1384:	01f41383          	lh	x7,31(x8)
    1388:	00730463          	beq	x6,x7,0x1390
    138c:	27d0106f          	jal	x0,0x2e08
    1390:	01100193          	addi	x3,x0,17
    1394:	00002337          	lui	x6,0x2
    1398:	01f3031b          	addiw	x6,x6,31 # 0x201f
    139c:	01f45383          	lhu	x7,31(x8)
    13a0:	00730463          	beq	x6,x7,0x13a8
    13a4:	2650106f          	jal	x0,0x2e08
    13a8:	01200193          	addi	x3,x0,18
    13ac:	201f2337          	lui	x6,0x201f2
    13b0:	e1d3031b          	addiw	x6,x6,-483 # 0x201f1e1d
    13b4:	01d42383          	lw	x7,29(x8)
    13b8:	00730463          	beq	x6,x7,0x13c0
    13bc:	24d0106f          	jal	x0,0x2e08
    13c0:	01300193          	addi	x3,x0,19
    13c4:	21202337          	lui	x6,0x21202
    13c8:	f1e3031b          	addiw	x6,x6,-226 # 0x21201f1e
    13cc:	01e42383          	lw	x7,30(x8)
    13d0:	00730463          	beq	x6,x7,0x13d8
    13d4:	2350106f          	jal	x0,0x2e08
    13d8:	01400193          	addi	x3,x0,20
    13dc:	22212337          	lui	x6,0x22212
    13e0:	01f3031b          	addiw	x6,x6,31 # 0x2221201f
    13e4:	01f42383          	lw	x7,31(x8)
    13e8:	00730463          	beq	x6,x7,0x13f0
    13ec:	21d0106f          	jal	x0,0x2e08
    13f0:	01500193          	addi	x3,x0,21
    13f4:	201f2337          	lui	x6,0x201f2
    13f8:	e1d3031b          	addiw	x6,x6,-483 # 0x201f1e1d
    13fc:	01d46383          	lwu	x7,29(x8)
    1400:	00730463          	beq	x6,x7,0x1408
    1404:	2050106f          	jal	x0,0x2e08
    1408:	01600193          	addi	x3,x0,22
    140c:	21202337          	lui	x6,0x21202
    1410:	f1e3031b          	addiw	x6,x6,-226 # 0x21201f1e
    1414:	01e46383          	lwu	x7,30(x8)
    1418:	00730463          	beq	x6,x7,0x1420
    141c:	1ed0106f          	jal	x0,0x2e08
    1420:	01700193          	addi	x3,x0,23
    1424:	22212337          	lui	x6,0x22212
    1428:	01f3031b          	addiw	x6,x6,31 # 0x2221201f
    142c:	01f46383          	lwu	x7,31(x8)
    1430:	00730463          	beq	x6,x7,0x1438
    1434:	1d50106f          	jal	x0,0x2e08
    1438:	01800193          	addi	x3,x0,24
    143c:	00101337          	lui	x6,0x101
    1440:	f8f3031b          	addiw	x6,x6,-113 # 0x100f8f
    1444:	00f31313          	slli	x6,x6,0xf
    1448:	74730313          	addi	x6,x6,1863
    144c:	00d31313          	slli	x6,x6,0xd
    1450:	0d930313          	addi	x6,x6,217
    1454:	00d31313          	slli	x6,x6,0xd
    1458:	a1930313          	addi	x6,x6,-1511
    145c:	01943383          	ld	x7,25(x8)
    1460:	00730463          	beq	x6,x7,0x1468
    1464:	1a50106f          	jal	x0,0x2e08
    1468:	01900193          	addi	x3,x0,25
    146c:	01090337          	lui	x6,0x1090
    1470:	0f93031b          	addiw	x6,x6,249 # 0x10900f9
    1474:	00c31313          	slli	x6,x6,0xc
    1478:	f0f30313          	addi	x6,x6,-241
    147c:	00c31313          	slli	x6,x6,0xc
    1480:	8e130313          	addi	x6,x6,-1823
    1484:	00d31313          	slli	x6,x6,0xd
    1488:	b1a30313          	addi	x6,x6,-1254
    148c:	01a43383          	ld	x7,26(x8)
    1490:	00730463          	beq	x6,x7,0x1498
    1494:	1750106f          	jal	x0,0x2e08
    1498:	01a00193          	addi	x3,x0,26
    149c:	01111337          	lui	x6,0x1111
    14a0:	9013031b          	addiw	x6,x6,-1791 # 0x1110901
    14a4:	00c31313          	slli	x6,x6,0xc
    14a8:	f8f30313          	addi	x6,x6,-113
    14ac:	00c31313          	slli	x6,x6,0xc
    14b0:	0e930313          	addi	x6,x6,233
    14b4:	00d31313          	slli	x6,x6,0xd
    14b8:	c1b30313          	addi	x6,x6,-997
    14bc:	01b43383          	ld	x7,27(x8)
    14c0:	00730463          	beq	x6,x7,0x14c8
    14c4:	1450106f          	jal	x0,0x2e08
    14c8:	01b00193          	addi	x3,x0,27
    14cc:	00119337          	lui	x6,0x119
    14d0:	1113031b          	addiw	x6,x6,273 # 0x119111
    14d4:	00c31313          	slli	x6,x6,0xc
    14d8:	90130313          	addi	x6,x6,-1791
    14dc:	01031313          	slli	x6,x6,0x10
    14e0:	8f130313          	addi	x6,x6,-1807
    14e4:	00d31313          	slli	x6,x6,0xd
    14e8:	d1c30313          	addi	x6,x6,-740
    14ec:	01c43383          	ld	x7,28(x8)
    14f0:	00730463          	beq	x6,x7,0x14f8
    14f4:	1150106f          	jal	x0,0x2e08
    14f8:	01c00193          	addi	x3,x0,28
    14fc:	00121337          	lui	x6,0x121
    1500:	1913031b          	addiw	x6,x6,401 # 0x121191
    1504:	00c31313          	slli	x6,x6,0xc
    1508:	10930313          	addi	x6,x6,265
    150c:	01031313          	slli	x6,x6,0x10
    1510:	0f930313          	addi	x6,x6,249
    1514:	00d31313          	slli	x6,x6,0xd
    1518:	e1d30313          	addi	x6,x6,-483
    151c:	01d43383          	ld	x7,29(x8)
    1520:	00730463          	beq	x6,x7,0x1528
    1524:	0e50106f          	jal	x0,0x2e08
    1528:	01d00193          	addi	x3,x0,29
    152c:	01292337          	lui	x6,0x1292
    1530:	1193031b          	addiw	x6,x6,281 # 0x1292119
    1534:	00c31313          	slli	x6,x6,0xc
    1538:	11130313          	addi	x6,x6,273
    153c:	00c31313          	slli	x6,x6,0xc
    1540:	90130313          	addi	x6,x6,-1791
    1544:	00d31313          	slli	x6,x6,0xd
    1548:	f1e30313          	addi	x6,x6,-226
    154c:	01e43383          	ld	x7,30(x8)
    1550:	00730463          	beq	x6,x7,0x1558
    1554:	0b50106f          	jal	x0,0x2e08
    1558:	01e00193          	addi	x3,x0,30
    155c:	01313337          	lui	x6,0x1313
    1560:	9213031b          	addiw	x6,x6,-1759 # 0x1312921
    1564:	00c31313          	slli	x6,x6,0xc
    1568:	19130313          	addi	x6,x6,401
    156c:	00c31313          	slli	x6,x6,0xc
    1570:	10930313          	addi	x6,x6,265
    1574:	00d31313          	slli	x6,x6,0xd
    1578:	01f30313          	addi	x6,x6,31
    157c:	01f43383          	ld	x7,31(x8)
    1580:	00730463          	beq	x6,x7,0x1588
    1584:	0850106f          	jal	x0,0x2e08
    1588:	01f00193          	addi	x3,x0,31
    158c:	00004337          	lui	x6,0x4
    1590:	03f3031b          	addiw	x6,x6,63 # 0x403f
    1594:	03f41383          	lh	x7,63(x8)
    1598:	00730463          	beq	x6,x7,0x15a0
    159c:	06d0106f          	jal	x0,0x2e08
    15a0:	02000193          	addi	x3,x0,32
    15a4:	00004337          	lui	x6,0x4
    15a8:	03f3031b          	addiw	x6,x6,63 # 0x403f
    15ac:	03f45383          	lhu	x7,63(x8)
    15b0:	00730463          	beq	x6,x7,0x15b8
    15b4:	0550106f          	jal	x0,0x2e08
    15b8:	02100193          	addi	x3,x0,33
    15bc:	403f4337          	lui	x6,0x403f4
    15c0:	e3d3031b          	addiw	x6,x6,-451 # 0x403f3e3d
    15c4:	03d42383          	lw	x7,61(x8)
    15c8:	00730463          	beq	x6,x7,0x15d0
    15cc:	03d0106f          	jal	x0,0x2e08
    15d0:	02200193          	addi	x3,x0,34
    15d4:	41404337          	lui	x6,0x41404
    15d8:	f3e3031b          	addiw	x6,x6,-194 # 0x41403f3e
    15dc:	03e42383          	lw	x7,62(x8)
    15e0:	00730463          	beq	x6,x7,0x15e8
    15e4:	0250106f          	jal	x0,0x2e08
    15e8:	02300193          	addi	x3,x0,35
    15ec:	42414337          	lui	x6,0x42414
    15f0:	03f3031b          	addiw	x6,x6,63 # 0x4241403f
    15f4:	03f42383          	lw	x7,63(x8)
    15f8:	00730463          	beq	x6,x7,0x1600
    15fc:	00d0106f          	jal	x0,0x2e08
    1600:	02400193          	addi	x3,x0,36
    1604:	403f4337          	lui	x6,0x403f4
    1608:	e3d3031b          	addiw	x6,x6,-451 # 0x403f3e3d
    160c:	03d46383          	lwu	x7,61(x8)
    1610:	00730463          	beq	x6,x7,0x1618
    1614:	7f40106f          	jal	x0,0x2e08
    1618:	02500193          	addi	x3,x0,37
    161c:	41404337          	lui	x6,0x41404
    1620:	f3e3031b          	addiw	x6,x6,-194 # 0x41403f3e
    1624:	03e46383          	lwu	x7,62(x8)
    1628:	00730463          	beq	x6,x7,0x1630
    162c:	7dc0106f          	jal	x0,0x2e08
    1630:	02600193          	addi	x3,x0,38
    1634:	42414337          	lui	x6,0x42414
    1638:	03f3031b          	addiw	x6,x6,63 # 0x4241403f
    163c:	03f46383          	lwu	x7,63(x8)
    1640:	00730463          	beq	x6,x7,0x1648
    1644:	7c40106f          	jal	x0,0x2e08
    1648:	02700193          	addi	x3,x0,39
    164c:	01010337          	lui	x6,0x1010
    1650:	cf93031b          	addiw	x6,x6,-775 # 0x100fcf9
    1654:	00c31313          	slli	x6,x6,0xc
    1658:	f4f30313          	addi	x6,x6,-177
    165c:	00c31313          	slli	x6,x6,0xc
    1660:	0ed30313          	addi	x6,x6,237
    1664:	00e31313          	slli	x6,x6,0xe
    1668:	a3930313          	addi	x6,x6,-1479
    166c:	03943383          	ld	x7,57(x8)
    1670:	00730463          	beq	x6,x7,0x1678
    1674:	7940106f          	jal	x0,0x2e08
    1678:	02800193          	addi	x3,x0,40
    167c:	01050337          	lui	x6,0x1050
    1680:	0fd3031b          	addiw	x6,x6,253 # 0x10500fd
    1684:	00c31313          	slli	x6,x6,0xc
    1688:	f8f30313          	addi	x6,x6,-113
    168c:	00c31313          	slli	x6,x6,0xc
    1690:	4f130313          	addi	x6,x6,1265
    1694:	00e31313          	slli	x6,x6,0xe
    1698:	b3a30313          	addi	x6,x6,-1222
    169c:	03a43383          	ld	x7,58(x8)
    16a0:	00730463          	beq	x6,x7,0x16a8
    16a4:	7640106f          	jal	x0,0x2e08
    16a8:	02900193          	addi	x3,x0,41
    16ac:	00011337          	lui	x6,0x11
    16b0:	9053031b          	addiw	x6,x6,-1787 # 0x10905
    16b4:	01031313          	slli	x6,x6,0x10
    16b8:	0fd30313          	addi	x6,x6,253
    16bc:	01031313          	slli	x6,x6,0x10
    16c0:	8f530313          	addi	x6,x6,-1803
    16c4:	00e31313          	slli	x6,x6,0xe
    16c8:	c3b30313          	addi	x6,x6,-965
    16cc:	03b43383          	ld	x7,59(x8)
    16d0:	00730463          	beq	x6,x7,0x16d8
    16d4:	7340106f          	jal	x0,0x2e08
    16d8:	02a00193          	addi	x3,x0,42
    16dc:	00011337          	lui	x6,0x11
    16e0:	d093031b          	addiw	x6,x6,-759 # 0x10d09
    16e4:	01031313          	slli	x6,x6,0x10
    16e8:	50130313          	addi	x6,x6,1281
    16ec:	01031313          	slli	x6,x6,0x10
    16f0:	cf930313          	addi	x6,x6,-775
    16f4:	00e31313          	slli	x6,x6,0xe
    16f8:	d3c30313          	addi	x6,x6,-708
    16fc:	03c43383          	ld	x7,60(x8)
    1700:	00730463          	beq	x6,x7,0x1708
    1704:	7040106f          	jal	x0,0x2e08
    1708:	02b00193          	addi	x3,x0,43
    170c:	00111337          	lui	x6,0x111
    1710:	0d13031b          	addiw	x6,x6,209 # 0x1110d1
    1714:	00c31313          	slli	x6,x6,0xc
    1718:	90530313          	addi	x6,x6,-1787
    171c:	01031313          	slli	x6,x6,0x10
    1720:	0fd30313          	addi	x6,x6,253
    1724:	00e31313          	slli	x6,x6,0xe
    1728:	e3d30313          	addi	x6,x6,-451
    172c:	03d43383          	ld	x7,61(x8)
    1730:	00730463          	beq	x6,x7,0x1738
    1734:	6d40106f          	jal	x0,0x2e08
    1738:	02c00193          	addi	x3,x0,44
    173c:	00115337          	lui	x6,0x115
    1740:	1113031b          	addiw	x6,x6,273 # 0x115111
    1744:	00c31313          	slli	x6,x6,0xc
    1748:	d0930313          	addi	x6,x6,-759
    174c:	01031313          	slli	x6,x6,0x10
    1750:	50130313          	addi	x6,x6,1281
    1754:	00e31313          	slli	x6,x6,0xe
    1758:	f3e30313          	addi	x6,x6,-194
    175c:	03e43383          	ld	x7,62(x8)
    1760:	00730463          	beq	x6,x7,0x1768
    1764:	6a40106f          	jal	x0,0x2e08
    1768:	02d00193          	addi	x3,x0,45
    176c:	01191337          	lui	x6,0x1191
    1770:	5113031b          	addiw	x6,x6,1297 # 0x1191511
    1774:	00c31313          	slli	x6,x6,0xc
    1778:	0d130313          	addi	x6,x6,209
    177c:	00c31313          	slli	x6,x6,0xc
    1780:	90530313          	addi	x6,x6,-1787
    1784:	00e31313          	slli	x6,x6,0xe
    1788:	03f30313          	addi	x6,x6,63
    178c:	03f43383          	ld	x7,63(x8)
    1790:	00730463          	beq	x6,x7,0x1798
    1794:	6740106f          	jal	x0,0x2e08
    1798:	02e00193          	addi	x3,x0,46
    179c:	ffff8337          	lui	x6,0xffff8
    17a0:	1803031b          	addiw	x6,x6,384 # 0xffffffffffff8180
    17a4:	006410a3          	sh	x6,1(x8)
    17a8:	00141383          	lh	x7,1(x8)
    17ac:	00730463          	beq	x6,x7,0x17b4
    17b0:	6580106f          	jal	x0,0x2e08
    17b4:	02f00193          	addi	x3,x0,47
    17b8:	00008337          	lui	x6,0x8
    17bc:	3823031b          	addiw	x6,x6,898 # 0x8382
    17c0:	006410a3          	sh	x6,1(x8)
    17c4:	00145383          	lhu	x7,1(x8)
    17c8:	00730463          	beq	x6,x7,0x17d0
    17cc:	63c0106f          	jal	x0,0x2e08
    17d0:	03000193          	addi	x3,x0,48
    17d4:	87868337          	lui	x6,0x87868
    17d8:	5843031b          	addiw	x6,x6,1412 # 0xffffffff87868584
    17dc:	006420a3          	sw	x6,1(x8)
    17e0:	00142383          	lw	x7,1(x8)
    17e4:	00730463          	beq	x6,x7,0x17ec
    17e8:	6200106f          	jal	x0,0x2e08
    17ec:	03100193          	addi	x3,x0,49
    17f0:	8b8a9337          	lui	x6,0x8b8a9
    17f4:	9883031b          	addiw	x6,x6,-1656 # 0xffffffff8b8a8988
    17f8:	00642123          	sw	x6,2(x8)
    17fc:	00242383          	lw	x7,2(x8)
    1800:	00730463          	beq	x6,x7,0x1808
    1804:	6040106f          	jal	x0,0x2e08
    1808:	03200193          	addi	x3,x0,50
    180c:	8f8e9337          	lui	x6,0x8f8e9
    1810:	d8c3031b          	addiw	x6,x6,-628 # 0xffffffff8f8e8d8c
    1814:	006421a3          	sw	x6,3(x8)
    1818:	00342383          	lw	x7,3(x8)
    181c:	00730463          	beq	x6,x7,0x1824
    1820:	5e80106f          	jal	x0,0x2e08
    1824:	03300193          	addi	x3,x0,51
    1828:	00094337          	lui	x6,0x94
    182c:	9293031b          	addiw	x6,x6,-1751 # 0x93929
    1830:	00c31313          	slli	x6,x6,0xc
    1834:	19030313          	addi	x6,x6,400
    1838:	006420a3          	sw	x6,1(x8)
    183c:	00146383          	lwu	x7,1(x8)
    1840:	00730463          	beq	x6,x7,0x1848
    1844:	5c40106f          	jal	x0,0x2e08
    1848:	03400193          	addi	x3,x0,52
    184c:	00098337          	lui	x6,0x98
    1850:	9693031b          	addiw	x6,x6,-1687 # 0x97969
    1854:	00c31313          	slli	x6,x6,0xc
    1858:	59430313          	addi	x6,x6,1428
    185c:	00642123          	sw	x6,2(x8)
    1860:	00246383          	lwu	x7,2(x8)
    1864:	00730463          	beq	x6,x7,0x186c
    1868:	5a00106f          	jal	x0,0x2e08
    186c:	03500193          	addi	x3,x0,53
    1870:	0004e337          	lui	x6,0x4e
    1874:	cd53031b          	addiw	x6,x6,-811 # 0x4dcd5
    1878:	00d31313          	slli	x6,x6,0xd
    187c:	99830313          	addi	x6,x6,-1640
    1880:	006421a3          	sw	x6,3(x8)
    1884:	00346383          	lwu	x7,3(x8)
    1888:	00730463          	beq	x6,x7,0x1890
    188c:	57c0106f          	jal	x0,0x2e08
    1890:	03600193          	addi	x3,x0,54
    1894:	ffd1d337          	lui	x6,0xffd1d
    1898:	1513031b          	addiw	x6,x6,337 # 0xffffffffffd1d151
    189c:	00c31313          	slli	x6,x6,0xc
    18a0:	d0530313          	addi	x6,x6,-763
    18a4:	01031313          	slli	x6,x6,0x10
    18a8:	cf530313          	addi	x6,x6,-779
    18ac:	00d31313          	slli	x6,x6,0xd
    18b0:	d9c30313          	addi	x6,x6,-612
    18b4:	006430a3          	sd	x6,1(x8)
    18b8:	00143383          	ld	x7,1(x8)
    18bc:	00730463          	beq	x6,x7,0x18c4
    18c0:	5480106f          	jal	x0,0x2e08
    18c4:	03700193          	addi	x3,x0,55
    18c8:	ff575337          	lui	x6,0xff575
    18cc:	5533031b          	addiw	x6,x6,1363 # 0xffffffffff575553
    18d0:	00c31313          	slli	x6,x6,0xc
    18d4:	51530313          	addi	x6,x6,1301
    18d8:	00e31313          	slli	x6,x6,0xe
    18dc:	d3530313          	addi	x6,x6,-715
    18e0:	00d31313          	slli	x6,x6,0xd
    18e4:	5a430313          	addi	x6,x6,1444
    18e8:	00643123          	sd	x6,2(x8)
    18ec:	00243383          	ld	x7,2(x8)
    18f0:	00730463          	beq	x6,x7,0x18f8
    18f4:	5140106f          	jal	x0,0x2e08
    18f8:	03800193          	addi	x3,x0,56
    18fc:	ffd9e337          	lui	x6,0xffd9e
    1900:	9593031b          	addiw	x6,x6,-1703 # 0xffffffffffd9d959
    1904:	00d31313          	slli	x6,x6,0xd
    1908:	b0b30313          	addi	x6,x6,-1269
    190c:	01031313          	slli	x6,x6,0x10
    1910:	aeb30313          	addi	x6,x6,-1301
    1914:	00c31313          	slli	x6,x6,0xc
    1918:	dac30313          	addi	x6,x6,-596
    191c:	006431a3          	sd	x6,3(x8)
    1920:	00343383          	ld	x7,3(x8)
    1924:	00730463          	beq	x6,x7,0x192c
    1928:	4e00106f          	jal	x0,0x2e08
    192c:	03900193          	addi	x3,x0,57
    1930:	ff777337          	lui	x6,0xff777
    1934:	5733031b          	addiw	x6,x6,1395 # 0xffffffffff777573
    1938:	00c31313          	slli	x6,x6,0xc
    193c:	71730313          	addi	x6,x6,1815
    1940:	00f31313          	slli	x6,x6,0xf
    1944:	b6b30313          	addi	x6,x6,-1173
    1948:	00c31313          	slli	x6,x6,0xc
    194c:	5b430313          	addi	x6,x6,1460
    1950:	00643223          	sd	x6,4(x8)
    1954:	00443383          	ld	x7,4(x8)
    1958:	00730463          	beq	x6,x7,0x1960
    195c:	4ac0106f          	jal	x0,0x2e08
    1960:	03a00193          	addi	x3,x0,58
    1964:	ffff1337          	lui	x6,0xffff1
    1968:	f0b3031b          	addiw	x6,x6,-245 # 0xffffffffffff0f0b
    196c:	01031313          	slli	x6,x6,0x10
    1970:	70330313          	addi	x6,x6,1795
    1974:	01031313          	slli	x6,x6,0x10
    1978:	efb30313          	addi	x6,x6,-261
    197c:	00e31313          	slli	x6,x6,0xe
    1980:	dbc30313          	addi	x6,x6,-580
    1984:	006432a3          	sd	x6,5(x8)
    1988:	00543383          	ld	x7,5(x8)
    198c:	00730463          	beq	x6,x7,0x1994
    1990:	4780106f          	jal	x0,0x2e08
    1994:	03b00193          	addi	x3,x0,59
    1998:	ffe5e337          	lui	x6,0xffe5e
    199c:	5653031b          	addiw	x6,x6,1381 # 0xffffffffffe5e565
    19a0:	00e31313          	slli	x6,x6,0xe
    19a4:	91930313          	addi	x6,x6,-1767
    19a8:	00d31313          	slli	x6,x6,0xd
    19ac:	f1b30313          	addi	x6,x6,-229
    19b0:	00e31313          	slli	x6,x6,0xe
    19b4:	5c430313          	addi	x6,x6,1476
    19b8:	00643323          	sd	x6,6(x8)
    19bc:	00643383          	ld	x7,6(x8)
    19c0:	00730463          	beq	x6,x7,0x19c8
    19c4:	4440106f          	jal	x0,0x2e08
    19c8:	03c00193          	addi	x3,x0,60
    19cc:	ffe9f337          	lui	x6,0xffe9f
    19d0:	9693031b          	addiw	x6,x6,-1687 # 0xffffffffffe9e969
    19d4:	00d31313          	slli	x6,x6,0xd
    19d8:	d0d30313          	addi	x6,x6,-755
    19dc:	01031313          	slli	x6,x6,0x10
    19e0:	ced30313          	addi	x6,x6,-787
    19e4:	00c31313          	slli	x6,x6,0xc
    19e8:	dcc30313          	addi	x6,x6,-564
    19ec:	006433a3          	sd	x6,7(x8)
    19f0:	00743383          	ld	x7,7(x8)
    19f4:	00730463          	beq	x6,x7,0x19fc
    19f8:	4100106f          	jal	x0,0x2e08
    19fc:	03d00193          	addi	x3,x0,61
    1a00:	ffffd337          	lui	x6,0xffffd
    1a04:	5d43031b          	addiw	x6,x6,1492 # 0xffffffffffffd5d4
    1a08:	00641fa3          	sh	x6,31(x8)
    1a0c:	01f41383          	lh	x7,31(x8)
    1a10:	00730463          	beq	x6,x7,0x1a18
    1a14:	3f40106f          	jal	x0,0x2e08
    1a18:	03e00193          	addi	x3,x0,62
    1a1c:	0000d337          	lui	x6,0xd
    1a20:	7d63031b          	addiw	x6,x6,2006 # 0xd7d6
    1a24:	00641fa3          	sh	x6,31(x8)
    1a28:	01f45383          	lhu	x7,31(x8)
    1a2c:	00730463          	beq	x6,x7,0x1a34
    1a30:	3d80106f          	jal	x0,0x2e08
    1a34:	03f00193          	addi	x3,x0,63
    1a38:	dbdae337          	lui	x6,0xdbdae
    1a3c:	9d83031b          	addiw	x6,x6,-1576 # 0xffffffffdbdad9d8
    1a40:	00642ea3          	sw	x6,29(x8)
    1a44:	01d42383          	lw	x7,29(x8)
    1a48:	00730463          	beq	x6,x7,0x1a50
    1a4c:	3bc0106f          	jal	x0,0x2e08
    1a50:	04000193          	addi	x3,x0,64
    1a54:	dfdee337          	lui	x6,0xdfdee
    1a58:	ddc3031b          	addiw	x6,x6,-548 # 0xffffffffdfdedddc
    1a5c:	00642f23          	sw	x6,30(x8)
    1a60:	01e42383          	lw	x7,30(x8)
    1a64:	00730463          	beq	x6,x7,0x1a6c
    1a68:	3a00106f          	jal	x0,0x2e08
    1a6c:	04100193          	addi	x3,x0,65
    1a70:	e3e2e337          	lui	x6,0xe3e2e
    1a74:	1e03031b          	addiw	x6,x6,480 # 0xffffffffe3e2e1e0
    1a78:	00642fa3          	sw	x6,31(x8)
    1a7c:	01f42383          	lw	x7,31(x8)
    1a80:	00730463          	beq	x6,x7,0x1a88
    1a84:	3840106f          	jal	x0,0x2e08
    1a88:	04200193          	addi	x3,x0,66
    1a8c:	00074337          	lui	x6,0x74
    1a90:	f373031b          	addiw	x6,x6,-201 # 0x73f37
    1a94:	00d31313          	slli	x6,x6,0xd
    1a98:	5e430313          	addi	x6,x6,1508
    1a9c:	00642ea3          	sw	x6,29(x8)
    1aa0:	01d46383          	lwu	x7,29(x8)
    1aa4:	00730463          	beq	x6,x7,0x1aac
    1aa8:	3600106f          	jal	x0,0x2e08
    1aac:	04300193          	addi	x3,x0,67
    1ab0:	000ec337          	lui	x6,0xec
    1ab4:	eaf3031b          	addiw	x6,x6,-337 # 0xebeaf
    1ab8:	00c31313          	slli	x6,x6,0xc
    1abc:	9e830313          	addi	x6,x6,-1560
    1ac0:	00642f23          	sw	x6,30(x8)
    1ac4:	01e46383          	lwu	x7,30(x8)
    1ac8:	00730463          	beq	x6,x7,0x1ad0
    1acc:	33c0106f          	jal	x0,0x2e08
    1ad0:	04400193          	addi	x3,x0,68
    1ad4:	000f0337          	lui	x6,0xf0
    1ad8:	eef3031b          	addiw	x6,x6,-273 # 0xefeef
    1adc:	00c31313          	slli	x6,x6,0xc
    1ae0:	dec30313          	addi	x6,x6,-532
    1ae4:	00642fa3          	sw	x6,31(x8)
    1ae8:	01f46383          	lwu	x7,31(x8)
    1aec:	00730463          	beq	x6,x7,0x1af4
    1af0:	3180106f          	jal	x0,0x2e08
    1af4:	04500193          	addi	x3,x0,69
    1af8:	fffc0337          	lui	x6,0xfffc0
    1afc:	b7b3031b          	addiw	x6,x6,-1157 # 0xfffffffffffbfb7b
    1b00:	00f31313          	slli	x6,x6,0xf
    1b04:	d3d30313          	addi	x6,x6,-707
    1b08:	00e31313          	slli	x6,x6,0xe
    1b0c:	f2f30313          	addi	x6,x6,-209
    1b10:	00c31313          	slli	x6,x6,0xc
    1b14:	1f030313          	addi	x6,x6,496
    1b18:	00643ca3          	sd	x6,25(x8)
    1b1c:	01943383          	ld	x7,25(x8)
    1b20:	00730463          	beq	x6,x7,0x1b28
    1b24:	2e40106f          	jal	x0,0x2e08
    1b28:	04600193          	addi	x3,x0,70
    1b2c:	ffff0337          	lui	x6,0xffff0
    1b30:	dfd3031b          	addiw	x6,x6,-515 # 0xfffffffffffefdfd
    1b34:	01031313          	slli	x6,x6,0x10
    1b38:	bfb30313          	addi	x6,x6,-1029
    1b3c:	01031313          	slli	x6,x6,0x10
    1b40:	9f830313          	addi	x6,x6,-1544
    1b44:	00643d23          	sd	x6,26(x8)
    1b48:	01a43383          	ld	x7,26(x8)
    1b4c:	00730463          	beq	x6,x7,0x1b54
    1b50:	2b80106f          	jal	x0,0x2e08
    1b54:	04700193          	addi	x3,x0,71
    1b58:	01c18337          	lui	x6,0x1c18
    1b5c:	1413031b          	addiw	x6,x6,321 # 0x1c18141
    1b60:	01131313          	slli	x6,x6,0x11
    1b64:	18130313          	addi	x6,x6,385
    1b68:	01131313          	slli	x6,x6,0x11
    1b6c:	10030313          	addi	x6,x6,256
    1b70:	00643da3          	sd	x6,27(x8)
    1b74:	01b43383          	ld	x7,27(x8)
    1b78:	00730463          	beq	x6,x7,0x1b80
    1b7c:	28c0106f          	jal	x0,0x2e08
    1b80:	04800193          	addi	x3,x0,72
    1b84:	00f0e337          	lui	x6,0xf0e
    1b88:	0d13031b          	addiw	x6,x6,209 # 0xf0e0d1
    1b8c:	00c31313          	slli	x6,x6,0xc
    1b90:	c0b30313          	addi	x6,x6,-1013
    1b94:	00c31313          	slli	x6,x6,0xc
    1b98:	0a130313          	addi	x6,x6,161
    1b9c:	00c31313          	slli	x6,x6,0xc
    1ba0:	90830313          	addi	x6,x6,-1784
    1ba4:	00643e23          	sd	x6,28(x8)
    1ba8:	01c43383          	ld	x7,28(x8)
    1bac:	00730463          	beq	x6,x7,0x1bb4
    1bb0:	2580106f          	jal	x0,0x2e08
    1bb4:	04900193          	addi	x3,x0,73
    1bb8:	01716337          	lui	x6,0x1716
    1bbc:	1513031b          	addiw	x6,x6,337 # 0x1716151
    1bc0:	00c31313          	slli	x6,x6,0xc
    1bc4:	41330313          	addi	x6,x6,1043
    1bc8:	00c31313          	slli	x6,x6,0xc
    1bcc:	12130313          	addi	x6,x6,289
    1bd0:	00c31313          	slli	x6,x6,0xc
    1bd4:	11030313          	addi	x6,x6,272
    1bd8:	00643ea3          	sd	x6,29(x8)
    1bdc:	01d43383          	ld	x7,29(x8)
    1be0:	00730463          	beq	x6,x7,0x1be8
    1be4:	2240106f          	jal	x0,0x2e08
    1be8:	04a00193          	addi	x3,x0,74
    1bec:	001f2337          	lui	x6,0x1f2
    1bf0:	e1d3031b          	addiw	x6,x6,-483 # 0x1f1e1d
    1bf4:	00e31313          	slli	x6,x6,0xe
    1bf8:	70730313          	addi	x6,x6,1799
    1bfc:	00d31313          	slli	x6,x6,0xd
    1c00:	8d130313          	addi	x6,x6,-1839
    1c04:	00d31313          	slli	x6,x6,0xd
    1c08:	91830313          	addi	x6,x6,-1768
    1c0c:	00643f23          	sd	x6,30(x8)
    1c10:	01e43383          	ld	x7,30(x8)
    1c14:	00730463          	beq	x6,x7,0x1c1c
    1c18:	1f00106f          	jal	x0,0x2e08
    1c1c:	04b00193          	addi	x3,x0,75
    1c20:	009ca337          	lui	x6,0x9ca
    1c24:	8953031b          	addiw	x6,x6,-1899 # 0x9c9895
    1c28:	00c31313          	slli	x6,x6,0xc
    1c2c:	90930313          	addi	x6,x6,-1783
    1c30:	00d31313          	slli	x6,x6,0xd
    1c34:	91130313          	addi	x6,x6,-1775
    1c38:	00d31313          	slli	x6,x6,0xd
    1c3c:	12030313          	addi	x6,x6,288
    1c40:	00643fa3          	sd	x6,31(x8)
    1c44:	01f43383          	ld	x7,31(x8)
    1c48:	00730463          	beq	x6,x7,0x1c50
    1c4c:	1bc0106f          	jal	x0,0x2e08
    1c50:	04c00193          	addi	x3,x0,76
    1c54:	00003337          	lui	x6,0x3
    1c58:	5343031b          	addiw	x6,x6,1332 # 0x3534
    1c5c:	02641fa3          	sh	x6,63(x8)
    1c60:	03f41383          	lh	x7,63(x8)
    1c64:	00730463          	beq	x6,x7,0x1c6c
    1c68:	1a00106f          	jal	x0,0x2e08
    1c6c:	04d00193          	addi	x3,x0,77
    1c70:	00003337          	lui	x6,0x3
    1c74:	7363031b          	addiw	x6,x6,1846 # 0x3736
    1c78:	02641fa3          	sh	x6,63(x8)
    1c7c:	03f45383          	lhu	x7,63(x8)
    1c80:	00730463          	beq	x6,x7,0x1c88
    1c84:	1840106f          	jal	x0,0x2e08
    1c88:	04e00193          	addi	x3,x0,78
    1c8c:	3b3a4337          	lui	x6,0x3b3a4
    1c90:	9383031b          	addiw	x6,x6,-1736 # 0x3b3a3938
    1c94:	02642ea3          	sw	x6,61(x8)
    1c98:	03d42383          	lw	x7,61(x8)
    1c9c:	00730463          	beq	x6,x7,0x1ca4
    1ca0:	1680106f          	jal	x0,0x2e08
    1ca4:	04f00193          	addi	x3,x0,79
    1ca8:	3f3e4337          	lui	x6,0x3f3e4
    1cac:	d3c3031b          	addiw	x6,x6,-708 # 0x3f3e3d3c
    1cb0:	02642f23          	sw	x6,62(x8)
    1cb4:	03e42383          	lw	x7,62(x8)
    1cb8:	00730463          	beq	x6,x7,0x1cc0
    1cbc:	14c0106f          	jal	x0,0x2e08
    1cc0:	05000193          	addi	x3,x0,80
    1cc4:	43424337          	lui	x6,0x43424
    1cc8:	1403031b          	addiw	x6,x6,320 # 0x43424140
    1ccc:	02642fa3          	sw	x6,63(x8)
    1cd0:	03f42383          	lw	x7,63(x8)
    1cd4:	00730463          	beq	x6,x7,0x1cdc
    1cd8:	1300106f          	jal	x0,0x2e08
    1cdc:	05100193          	addi	x3,x0,81
    1ce0:	47464337          	lui	x6,0x47464
    1ce4:	5443031b          	addiw	x6,x6,1348 # 0x47464544
    1ce8:	02642ea3          	sw	x6,61(x8)
    1cec:	03d46383          	lwu	x7,61(x8)
    1cf0:	00730463          	beq	x6,x7,0x1cf8
    1cf4:	1140106f          	jal	x0,0x2e08
    1cf8:	05200193          	addi	x3,x0,82
    1cfc:	4b4a5337          	lui	x6,0x4b4a5
    1d00:	9483031b          	addiw	x6,x6,-1720 # 0x4b4a4948
    1d04:	02642f23          	sw	x6,62(x8)
    1d08:	03e46383          	lwu	x7,62(x8)
    1d0c:	00730463          	beq	x6,x7,0x1d14
    1d10:	0f80106f          	jal	x0,0x2e08
    1d14:	05300193          	addi	x3,x0,83
    1d18:	4f4e5337          	lui	x6,0x4f4e5
    1d1c:	d4c3031b          	addiw	x6,x6,-692 # 0x4f4e4d4c
    1d20:	02642fa3          	sw	x6,63(x8)
    1d24:	03f46383          	lwu	x7,63(x8)
    1d28:	00730463          	beq	x6,x7,0x1d30
    1d2c:	0dc0106f          	jal	x0,0x2e08
    1d30:	05400193          	addi	x3,x0,84
    1d34:	05756337          	lui	x6,0x5756
    1d38:	5553031b          	addiw	x6,x6,1365 # 0x5756555
    1d3c:	00c31313          	slli	x6,x6,0xc
    1d40:	45330313          	addi	x6,x6,1107
    1d44:	00c31313          	slli	x6,x6,0xc
    1d48:	52530313          	addi	x6,x6,1317
    1d4c:	00c31313          	slli	x6,x6,0xc
    1d50:	15030313          	addi	x6,x6,336
    1d54:	02643ca3          	sd	x6,57(x8)
    1d58:	03943383          	ld	x7,57(x8)
    1d5c:	00730463          	beq	x6,x7,0x1d64
    1d60:	0a80106f          	jal	x0,0x2e08
    1d64:	05500193          	addi	x3,x0,85
    1d68:	017d8337          	lui	x6,0x17d8
    1d6c:	9753031b          	addiw	x6,x6,-1675 # 0x17d7975
    1d70:	00c31313          	slli	x6,x6,0xc
    1d74:	71730313          	addi	x6,x6,1815
    1d78:	00d31313          	slli	x6,x6,0xd
    1d7c:	ad330313          	addi	x6,x6,-1325
    1d80:	00d31313          	slli	x6,x6,0xd
    1d84:	95830313          	addi	x6,x6,-1704
    1d88:	02643d23          	sd	x6,58(x8)
    1d8c:	03a43383          	ld	x7,58(x8)
    1d90:	00730463          	beq	x6,x7,0x1d98
    1d94:	0740106f          	jal	x0,0x2e08
    1d98:	05600193          	addi	x3,x0,86
    1d9c:	00ced337          	lui	x6,0xced
    1da0:	ccb3031b          	addiw	x6,x6,-821 # 0xcecccb
    1da4:	00d31313          	slli	x6,x6,0xd
    1da8:	91930313          	addi	x6,x6,-1767
    1dac:	00d31313          	slli	x6,x6,0xd
    1db0:	b1330313          	addi	x6,x6,-1261
    1db4:	00d31313          	slli	x6,x6,0xd
    1db8:	16030313          	addi	x6,x6,352
    1dbc:	02643da3          	sd	x6,59(x8)
    1dc0:	03b43383          	ld	x7,59(x8)
    1dc4:	00730463          	beq	x6,x7,0x1dcc
    1dc8:	0400106f          	jal	x0,0x2e08
    1dcc:	05700193          	addi	x3,x0,87
    1dd0:	06f6e337          	lui	x6,0x6f6e
    1dd4:	6d73031b          	addiw	x6,x6,1751 # 0x6f6e6d7
    1dd8:	00c31313          	slli	x6,x6,0xc
    1ddc:	c6b30313          	addi	x6,x6,-917
    1de0:	00c31313          	slli	x6,x6,0xc
    1de4:	6a730313          	addi	x6,x6,1703
    1de8:	00c31313          	slli	x6,x6,0xc
    1dec:	96830313          	addi	x6,x6,-1688
    1df0:	02643e23          	sd	x6,60(x8)
    1df4:	03c43383          	ld	x7,60(x8)
    1df8:	00730463          	beq	x6,x7,0x1e00
    1dfc:	00c0106f          	jal	x0,0x2e08
    1e00:	05800193          	addi	x3,x0,88
    1e04:	07776337          	lui	x6,0x7776
    1e08:	7573031b          	addiw	x6,x6,1879 # 0x7776757
    1e0c:	00c31313          	slli	x6,x6,0xc
    1e10:	47330313          	addi	x6,x6,1139
    1e14:	00c31313          	slli	x6,x6,0xc
    1e18:	72730313          	addi	x6,x6,1831
    1e1c:	00c31313          	slli	x6,x6,0xc
    1e20:	17030313          	addi	x6,x6,368
    1e24:	02643ea3          	sd	x6,61(x8)
    1e28:	03d43383          	ld	x7,61(x8)
    1e2c:	7c731ee3          	bne	x6,x7,0x2e08
    1e30:	05900193          	addi	x3,x0,89
    1e34:	00ff0337          	lui	x6,0xff0
    1e38:	cfb3031b          	addiw	x6,x6,-773 # 0xfefcfb
    1e3c:	00c31313          	slli	x6,x6,0xc
    1e40:	f8f30313          	addi	x6,x6,-113
    1e44:	00c31313          	slli	x6,x6,0xc
    1e48:	6f530313          	addi	x6,x6,1781
    1e4c:	00f31313          	slli	x6,x6,0xf
    1e50:	97830313          	addi	x6,x6,-1672
    1e54:	02643f23          	sd	x6,62(x8)
    1e58:	03e43383          	ld	x7,62(x8)
    1e5c:	7a7316e3          	bne	x6,x7,0x2e08
    1e60:	05a00193          	addi	x3,x0,90
    1e64:	fff0f337          	lui	x6,0xfff0f
    1e68:	0d13031b          	addiw	x6,x6,209 # 0xfffffffffff0f0d1
    1e6c:	00c31313          	slli	x6,x6,0xc
    1e70:	b0930313          	addi	x6,x6,-1271
    1e74:	01031313          	slli	x6,x6,0x10
    1e78:	70530313          	addi	x6,x6,1797
    1e7c:	00f31313          	slli	x6,x6,0xf
    1e80:	18030313          	addi	x6,x6,384
    1e84:	02643fa3          	sd	x6,63(x8)
    1e88:	03f43383          	ld	x7,63(x8)
    1e8c:	76731ee3          	bne	x6,x7,0x2e08
    1e90:	05b00193          	addi	x3,x0,91
    1e94:	0000a337          	lui	x6,0xa
    1e98:	9983031b          	addiw	x6,x6,-1640 # 0x9998
    1e9c:	f9800393          	addi	x7,x0,-104
    1ea0:	006410a3          	sh	x6,1(x8)
    1ea4:	00140e03          	lb	x28,1(x8)
    1ea8:	77c390e3          	bne	x7,x28,0x2e08
    1eac:	05c00193          	addi	x3,x0,92
    1eb0:	0000a337          	lui	x6,0xa
    1eb4:	b9a3031b          	addiw	x6,x6,-1126 # 0x9b9a
    1eb8:	f9b00393          	addi	x7,x0,-101
    1ebc:	006410a3          	sh	x6,1(x8)
    1ec0:	00240e03          	lb	x28,2(x8)
    1ec4:	75c392e3          	bne	x7,x28,0x2e08
    1ec8:	05d00193          	addi	x3,x0,93
    1ecc:	0000a337          	lui	x6,0xa
    1ed0:	d9c3031b          	addiw	x6,x6,-612 # 0x9d9c
    1ed4:	09c00393          	addi	x7,x0,156
    1ed8:	006410a3          	sh	x6,1(x8)
    1edc:	00144e03          	lbu	x28,1(x8)
    1ee0:	73c394e3          	bne	x7,x28,0x2e08
    1ee4:	05e00193          	addi	x3,x0,94
    1ee8:	0000a337          	lui	x6,0xa
    1eec:	f9e3031b          	addiw	x6,x6,-98 # 0x9f9e
    1ef0:	09f00393          	addi	x7,x0,159
    1ef4:	006410a3          	sh	x6,1(x8)
    1ef8:	00244e03          	lbu	x28,2(x8)
    1efc:	71c396e3          	bne	x7,x28,0x2e08
    1f00:	05f00193          	addi	x3,x0,95
    1f04:	00052337          	lui	x6,0x52
    1f08:	d153031b          	addiw	x6,x6,-747 # 0x51d15
    1f0c:	00d31313          	slli	x6,x6,0xd
    1f10:	1a030313          	addi	x6,x6,416
    1f14:	fa000393          	addi	x7,x0,-96
    1f18:	006420a3          	sw	x6,1(x8)
    1f1c:	00140e03          	lb	x28,1(x8)
    1f20:	6fc394e3          	bne	x7,x28,0x2e08
    1f24:	06000193          	addi	x3,x0,96
    1f28:	00054337          	lui	x6,0x54
    1f2c:	d353031b          	addiw	x6,x6,-715 # 0x53d35
    1f30:	00d31313          	slli	x6,x6,0xd
    1f34:	5a430313          	addi	x6,x6,1444
    1f38:	0a500393          	addi	x7,x0,165
    1f3c:	00642123          	sw	x6,2(x8)
    1f40:	00344e03          	lbu	x28,3(x8)
    1f44:	6dc392e3          	bne	x7,x28,0x2e08
    1f48:	06100193          	addi	x3,x0,97
    1f4c:	000ac337          	lui	x6,0xac
    1f50:	aab3031b          	addiw	x6,x6,-1365 # 0xabaab
    1f54:	00c31313          	slli	x6,x6,0xc
    1f58:	9a830313          	addi	x6,x6,-1624
    1f5c:	ffffb3b7          	lui	x7,0xffffb
    1f60:	aa93839b          	addiw	x7,x7,-1367 # 0xffffffffffffaaa9
    1f64:	006421a3          	sw	x6,3(x8)
    1f68:	00441e03          	lh	x28,4(x8)
    1f6c:	69c39ee3          	bne	x7,x28,0x2e08
    1f70:	06200193          	addi	x3,x0,98
    1f74:	000b0337          	lui	x6,0xb0
    1f78:	aeb3031b          	addiw	x6,x6,-1301 # 0xafaeb
    1f7c:	00c31313          	slli	x6,x6,0xc
    1f80:	dac30313          	addi	x6,x6,-596
    1f84:	0000b3b7          	lui	x7,0xb
    1f88:	fae3839b          	addiw	x7,x7,-82 # 0xafae
    1f8c:	006421a3          	sw	x6,3(x8)
    1f90:	00545e03          	lhu	x28,5(x8)
    1f94:	67c39ae3          	bne	x7,x28,0x2e08
    1f98:	06300193          	addi	x3,x0,99
    1f9c:	fedee337          	lui	x6,0xfedee
    1fa0:	ad73031b          	addiw	x6,x6,-1321 # 0xfffffffffededad7
    1fa4:	00c31313          	slli	x6,x6,0xc
    1fa8:	d2d30313          	addi	x6,x6,-723
    1fac:	00e31313          	slli	x6,x6,0xe
    1fb0:	b2b30313          	addi	x6,x6,-1237
    1fb4:	00c31313          	slli	x6,x6,0xc
    1fb8:	1b030313          	addi	x6,x6,432
    1fbc:	fb600393          	addi	x7,x0,-74
    1fc0:	006430a3          	sd	x6,1(x8)
    1fc4:	00740e03          	lb	x28,7(x8)
    1fc8:	65c390e3          	bne	x7,x28,0x2e08
    1fcc:	06400193          	addi	x3,x0,100
    1fd0:	feff0337          	lui	x6,0xfeff0
    1fd4:	af73031b          	addiw	x6,x6,-1289 # 0xfffffffffefefaf7
    1fd8:	00c31313          	slli	x6,x6,0xc
    1fdc:	f2f30313          	addi	x6,x6,-209
    1fe0:	00c31313          	slli	x6,x6,0xc
    1fe4:	eeb30313          	addi	x6,x6,-277
    1fe8:	00e31313          	slli	x6,x6,0xe
    1fec:	9b830313          	addi	x6,x6,-1608
    1ff0:	0b900393          	addi	x7,x0,185
    1ff4:	00643123          	sd	x6,2(x8)
    1ff8:	00344e03          	lbu	x28,3(x8)
    1ffc:	61c396e3          	bne	x7,x28,0x2e08
    2000:	06500193          	addi	x3,x0,101
    2004:	ff1f2337          	lui	x6,0xff1f2
    2008:	b173031b          	addiw	x6,x6,-1257 # 0xffffffffff1f1b17
    200c:	00c31313          	slli	x6,x6,0xc
    2010:	13130313          	addi	x6,x6,305
    2014:	00c31313          	slli	x6,x6,0xc
    2018:	f0b30313          	addi	x6,x6,-245
    201c:	00e31313          	slli	x6,x6,0xe
    2020:	1c030313          	addi	x6,x6,448
    2024:	ffffc3b7          	lui	x7,0xffffc
    2028:	7c63839b          	addiw	x7,x7,1990 # 0xffffffffffffc7c6
    202c:	006431a3          	sd	x6,3(x8)
    2030:	00941e03          	lh	x28,9(x8)
    2034:	5dc39ae3          	bne	x7,x28,0x2e08
    2038:	06600193          	addi	x3,x0,102
    203c:	ff3f4337          	lui	x6,0xff3f4
    2040:	b373031b          	addiw	x6,x6,-1225 # 0xffffffffff3f3b37
    2044:	00c31313          	slli	x6,x6,0xc
    2048:	33330313          	addi	x6,x6,819
    204c:	00e31313          	slli	x6,x6,0xe
    2050:	cad30313          	addi	x6,x6,-851
    2054:	00c31313          	slli	x6,x6,0xc
    2058:	9c830313          	addi	x6,x6,-1592
    205c:	0000d3b7          	lui	x7,0xd
    2060:	ac93839b          	addiw	x7,x7,-1335 # 0xcac9
    2064:	00643223          	sd	x6,4(x8)
    2068:	00545e03          	lhu	x28,5(x8)
    206c:	59c39ee3          	bne	x7,x28,0x2e08
    2070:	06700193          	addi	x3,x0,103
    2074:	ff5f6337          	lui	x6,0xff5f6
    2078:	b573031b          	addiw	x6,x6,-1193 # 0xffffffffff5f5b57
    207c:	00c31313          	slli	x6,x6,0xc
    2080:	53530313          	addi	x6,x6,1333
    2084:	00e31313          	slli	x6,x6,0xe
    2088:	d2d30313          	addi	x6,x6,-723
    208c:	00c31313          	slli	x6,x6,0xc
    2090:	1d030313          	addi	x6,x6,464
    2094:	d7d6d3b7          	lui	x7,0xd7d6d
    2098:	5d43839b          	addiw	x7,x7,1492 # 0xffffffffd7d6d5d4
    209c:	006432a3          	sd	x6,5(x8)
    20a0:	00942e03          	lw	x28,9(x8)
    20a4:	57c392e3          	bne	x7,x28,0x2e08
    20a8:	06800193          	addi	x3,x0,104
    20ac:	ff7f8337          	lui	x6,0xff7f8
    20b0:	b773031b          	addiw	x6,x6,-1161 # 0xffffffffff7f7b77
    20b4:	00c31313          	slli	x6,x6,0xc
    20b8:	73730313          	addi	x6,x6,1847
    20bc:	00d31313          	slli	x6,x6,0xd
    20c0:	ed730313          	addi	x6,x6,-297
    20c4:	00d31313          	slli	x6,x6,0xd
    20c8:	9d830313          	addi	x6,x6,-1576
    20cc:	dddce3b7          	lui	x7,0xdddce
    20d0:	bda3839b          	addiw	x7,x7,-1062 # 0xffffffffdddcdbda
    20d4:	00643323          	sd	x6,6(x8)
    20d8:	00842e03          	lw	x28,8(x8)
    20dc:	53c396e3          	bne	x7,x28,0x2e08
    20e0:	06900193          	addi	x3,x0,105
    20e4:	fff3f337          	lui	x6,0xfff3f
    20e8:	3733031b          	addiw	x6,x6,883 # 0xfffffffffff3f373
    20ec:	00f31313          	slli	x6,x6,0xf
    20f0:	93930313          	addi	x6,x6,-1735
    20f4:	00d31313          	slli	x6,x6,0xd
    20f8:	f1730313          	addi	x6,x6,-233
    20fc:	00d31313          	slli	x6,x6,0xd
    2100:	1e030313          	addi	x6,x6,480
    2104:	000723b7          	lui	x7,0x72
    2108:	71f3839b          	addiw	x7,x7,1823 # 0x7271f
    210c:	00d39393          	slli	x7,x7,0xd
    2110:	2e138393          	addi	x7,x7,737
    2114:	006433a3          	sd	x6,7(x8)
    2118:	00846e03          	lwu	x28,8(x8)
    211c:	4fc396e3          	bne	x7,x28,0x2e08
    2120:	06a00193          	addi	x3,x0,106
    2124:	0000f337          	lui	x6,0xf
    2128:	9e83031b          	addiw	x6,x6,-1560 # 0xe9e8
    212c:	fe800393          	addi	x7,x0,-24
    2130:	00641fa3          	sh	x6,31(x8)
    2134:	01f40e03          	lb	x28,31(x8)
    2138:	4dc398e3          	bne	x7,x28,0x2e08
    213c:	06b00193          	addi	x3,x0,107
    2140:	0000f337          	lui	x6,0xf
    2144:	bea3031b          	addiw	x6,x6,-1046 # 0xebea
    2148:	feb00393          	addi	x7,x0,-21
    214c:	00641fa3          	sh	x6,31(x8)
    2150:	02040e03          	lb	x28,32(x8)
    2154:	4bc39ae3          	bne	x7,x28,0x2e08
    2158:	06c00193          	addi	x3,x0,108
    215c:	0000f337          	lui	x6,0xf
    2160:	dec3031b          	addiw	x6,x6,-532 # 0xedec
    2164:	0ec00393          	addi	x7,x0,236
    2168:	00641fa3          	sh	x6,31(x8)
    216c:	01f44e03          	lbu	x28,31(x8)
    2170:	49c39ce3          	bne	x7,x28,0x2e08
    2174:	06d00193          	addi	x3,x0,109
    2178:	0000f337          	lui	x6,0xf
    217c:	fee3031b          	addiw	x6,x6,-18 # 0xefee
    2180:	0ef00393          	addi	x7,x0,239
    2184:	00641fa3          	sh	x6,31(x8)
    2188:	02044e03          	lbu	x28,32(x8)
    218c:	47c39ee3          	bne	x7,x28,0x2e08
    2190:	06e00193          	addi	x3,x0,110
    2194:	000f4337          	lui	x6,0xf4
    2198:	f2f3031b          	addiw	x6,x6,-209 # 0xf3f2f
    219c:	00c31313          	slli	x6,x6,0xc
    21a0:	1f030313          	addi	x6,x6,496
    21a4:	ff000393          	addi	x7,x0,-16
    21a8:	00642ea3          	sw	x6,29(x8)
    21ac:	01d40e03          	lb	x28,29(x8)
    21b0:	45c39ce3          	bne	x7,x28,0x2e08
    21b4:	06f00193          	addi	x3,x0,111
    21b8:	000f8337          	lui	x6,0xf8
    21bc:	f6f3031b          	addiw	x6,x6,-145 # 0xf7f6f
    21c0:	00c31313          	slli	x6,x6,0xc
    21c4:	5f430313          	addi	x6,x6,1524
    21c8:	0f600393          	addi	x7,x0,246
    21cc:	00642f23          	sw	x6,30(x8)
    21d0:	02044e03          	lbu	x28,32(x8)
    21d4:	43c39ae3          	bne	x7,x28,0x2e08
    21d8:	07000193          	addi	x3,x0,112
    21dc:	00010337          	lui	x6,0x10
    21e0:	bfb3031b          	addiw	x6,x6,-1029 # 0xfbfb
    21e4:	01031313          	slli	x6,x6,0x10
    21e8:	9f830313          	addi	x6,x6,-1544
    21ec:	bfa00393          	addi	x7,x0,-1030
    21f0:	00642ea3          	sw	x6,29(x8)
    21f4:	01f41e03          	lh	x28,31(x8)
    21f8:	41c398e3          	bne	x7,x28,0x2e08
    21fc:	07100193          	addi	x3,x0,113
    2200:	00010337          	lui	x6,0x10
    2204:	fff3031b          	addiw	x6,x6,-1 # 0xffff
    2208:	01031313          	slli	x6,x6,0x10
    220c:	dfc30313          	addi	x6,x6,-516
    2210:	000103b7          	lui	x7,0x10
    2214:	dfc3839b          	addiw	x7,x7,-516 # 0xfdfc
    2218:	00642fa3          	sw	x6,31(x8)
    221c:	01f45e03          	lhu	x28,31(x8)
    2220:	3fc394e3          	bne	x7,x28,0x2e08
    2224:	07200193          	addi	x3,x0,114
    2228:	01c18337          	lui	x6,0x1c18
    222c:	1413031b          	addiw	x6,x6,321 # 0x1c18141
    2230:	01131313          	slli	x6,x6,0x11
    2234:	18130313          	addi	x6,x6,385
    2238:	01131313          	slli	x6,x6,0x11
    223c:	10030313          	addi	x6,x6,256
    2240:	00700393          	addi	x7,x0,7
    2244:	00643ca3          	sd	x6,25(x8)
    2248:	02040e03          	lb	x28,32(x8)
    224c:	3bc39ee3          	bne	x7,x28,0x2e08
    2250:	07300193          	addi	x3,x0,115
    2254:	00f0e337          	lui	x6,0xf0e
    2258:	0d13031b          	addiw	x6,x6,209 # 0xf0e0d1
    225c:	00c31313          	slli	x6,x6,0xc
    2260:	c0b30313          	addi	x6,x6,-1013
    2264:	00c31313          	slli	x6,x6,0xc
    2268:	0a130313          	addi	x6,x6,161
    226c:	00c31313          	slli	x6,x6,0xc
    2270:	90830313          	addi	x6,x6,-1784
    2274:	00f00393          	addi	x7,x0,15
    2278:	00643d23          	sd	x6,26(x8)
    227c:	02144e03          	lbu	x28,33(x8)
    2280:	39c394e3          	bne	x7,x28,0x2e08
    2284:	07400193          	addi	x3,x0,116
    2288:	01716337          	lui	x6,0x1716
    228c:	1513031b          	addiw	x6,x6,337 # 0x1716151
    2290:	00c31313          	slli	x6,x6,0xc
    2294:	41330313          	addi	x6,x6,1043
    2298:	00c31313          	slli	x6,x6,0xc
    229c:	12130313          	addi	x6,x6,289
    22a0:	00c31313          	slli	x6,x6,0xc
    22a4:	11030313          	addi	x6,x6,272
    22a8:	000013b7          	lui	x7,0x1
    22ac:	5143839b          	addiw	x7,x7,1300 # 0x1514
    22b0:	00643da3          	sd	x6,27(x8)
    22b4:	01f41e03          	lh	x28,31(x8)
    22b8:	35c398e3          	bne	x7,x28,0x2e08
    22bc:	07500193          	addi	x3,x0,117
    22c0:	001f2337          	lui	x6,0x1f2
    22c4:	e1d3031b          	addiw	x6,x6,-483 # 0x1f1e1d
    22c8:	00e31313          	slli	x6,x6,0xe
    22cc:	70730313          	addi	x6,x6,1799
    22d0:	00d31313          	slli	x6,x6,0xd
    22d4:	8d130313          	addi	x6,x6,-1839
    22d8:	00d31313          	slli	x6,x6,0xd
    22dc:	91830313          	addi	x6,x6,-1768
    22e0:	000023b7          	lui	x7,0x2
    22e4:	c1b3839b          	addiw	x7,x7,-997 # 0x1c1b
    22e8:	00643e23          	sd	x6,28(x8)
    22ec:	01f45e03          	lhu	x28,31(x8)
    22f0:	31c39ce3          	bne	x7,x28,0x2e08
    22f4:	07600193          	addi	x3,x0,118
    22f8:	009ca337          	lui	x6,0x9ca
    22fc:	8953031b          	addiw	x6,x6,-1899 # 0x9c9895
    2300:	00c31313          	slli	x6,x6,0xc
    2304:	90930313          	addi	x6,x6,-1783
    2308:	00d31313          	slli	x6,x6,0xd
    230c:	91130313          	addi	x6,x6,-1775
    2310:	00d31313          	slli	x6,x6,0xd
    2314:	12030313          	addi	x6,x6,288
    2318:	232223b7          	lui	x7,0x23222
    231c:	1203839b          	addiw	x7,x7,288 # 0x23222120
    2320:	00643ea3          	sd	x6,29(x8)
    2324:	01d42e03          	lw	x28,29(x8)
    2328:	2fc390e3          	bne	x7,x28,0x2e08
    232c:	07700193          	addi	x3,x0,119
    2330:	02f2e337          	lui	x6,0x2f2e
    2334:	2d33031b          	addiw	x6,x6,723 # 0x2f2e2d3
    2338:	00c31313          	slli	x6,x6,0xc
    233c:	c2b30313          	addi	x6,x6,-981
    2340:	00c31313          	slli	x6,x6,0xc
    2344:	2a330313          	addi	x6,x6,675
    2348:	00c31313          	slli	x6,x6,0xc
    234c:	92830313          	addi	x6,x6,-1752
    2350:	2b2a33b7          	lui	x7,0x2b2a3
    2354:	9283839b          	addiw	x7,x7,-1752 # 0x2b2a2928
    2358:	00643f23          	sd	x6,30(x8)
    235c:	01e42e03          	lw	x28,30(x8)
    2360:	2bc394e3          	bne	x7,x28,0x2e08
    2364:	07800193          	addi	x3,x0,120
    2368:	03736337          	lui	x6,0x3736
    236c:	3533031b          	addiw	x6,x6,851 # 0x3736353
    2370:	00c31313          	slli	x6,x6,0xc
    2374:	43330313          	addi	x6,x6,1075
    2378:	00c31313          	slli	x6,x6,0xc
    237c:	32330313          	addi	x6,x6,803
    2380:	00c31313          	slli	x6,x6,0xc
    2384:	13030313          	addi	x6,x6,304
    2388:	333233b7          	lui	x7,0x33323
    238c:	1303839b          	addiw	x7,x7,304 # 0x33323130
    2390:	00643fa3          	sd	x6,31(x8)
    2394:	01f46e03          	lwu	x28,31(x8)
    2398:	27c398e3          	bne	x7,x28,0x2e08
    239c:	07900193          	addi	x3,x0,121
    23a0:	00005337          	lui	x6,0x5
    23a4:	9483031b          	addiw	x6,x6,-1720 # 0x4948
    23a8:	04800393          	addi	x7,x0,72
    23ac:	02641fa3          	sh	x6,63(x8)
    23b0:	03f40e03          	lb	x28,63(x8)
    23b4:	25c39ae3          	bne	x7,x28,0x2e08
    23b8:	07a00193          	addi	x3,x0,122
    23bc:	00005337          	lui	x6,0x5
    23c0:	b4a3031b          	addiw	x6,x6,-1206 # 0x4b4a
    23c4:	04b00393          	addi	x7,x0,75
    23c8:	02641fa3          	sh	x6,63(x8)
    23cc:	04040e03          	lb	x28,64(x8)
    23d0:	23c39ce3          	bne	x7,x28,0x2e08
    23d4:	07b00193          	addi	x3,x0,123
    23d8:	00005337          	lui	x6,0x5
    23dc:	d4c3031b          	addiw	x6,x6,-692 # 0x4d4c
    23e0:	04c00393          	addi	x7,x0,76
    23e4:	02641fa3          	sh	x6,63(x8)
    23e8:	03f44e03          	lbu	x28,63(x8)
    23ec:	21c39ee3          	bne	x7,x28,0x2e08
    23f0:	07c00193          	addi	x3,x0,124
    23f4:	00005337          	lui	x6,0x5
    23f8:	f4e3031b          	addiw	x6,x6,-178 # 0x4f4e
    23fc:	04f00393          	addi	x7,x0,79
    2400:	02641fa3          	sh	x6,63(x8)
    2404:	04044e03          	lbu	x28,64(x8)
    2408:	21c390e3          	bne	x7,x28,0x2e08
    240c:	07d00193          	addi	x3,x0,125
    2410:	53525337          	lui	x6,0x53525
    2414:	1503031b          	addiw	x6,x6,336 # 0x53525150
    2418:	05000393          	addi	x7,x0,80
    241c:	02642ea3          	sw	x6,61(x8)
    2420:	03d40e03          	lb	x28,61(x8)
    2424:	1fc392e3          	bne	x7,x28,0x2e08
    2428:	07e00193          	addi	x3,x0,126
    242c:	57565337          	lui	x6,0x57565
    2430:	5543031b          	addiw	x6,x6,1364 # 0x57565554
    2434:	05600393          	addi	x7,x0,86
    2438:	02642f23          	sw	x6,62(x8)
    243c:	04044e03          	lbu	x28,64(x8)
    2440:	1dc394e3          	bne	x7,x28,0x2e08
    2444:	07f00193          	addi	x3,x0,127
    2448:	5b5a6337          	lui	x6,0x5b5a6
    244c:	9583031b          	addiw	x6,x6,-1704 # 0x5b5a5958
    2450:	000063b7          	lui	x7,0x6
    2454:	b5a3839b          	addiw	x7,x7,-1190 # 0x5b5a
    2458:	02642ea3          	sw	x6,61(x8)
    245c:	03f41e03          	lh	x28,63(x8)
    2460:	1bc394e3          	bne	x7,x28,0x2e08
    2464:	08000193          	addi	x3,x0,128
    2468:	5f5e6337          	lui	x6,0x5f5e6
    246c:	d5c3031b          	addiw	x6,x6,-676 # 0x5f5e5d5c
    2470:	000063b7          	lui	x7,0x6
    2474:	d5c3839b          	addiw	x7,x7,-676 # 0x5d5c
    2478:	02642fa3          	sw	x6,63(x8)
    247c:	03f45e03          	lhu	x28,63(x8)
    2480:	19c394e3          	bne	x7,x28,0x2e08
    2484:	08100193          	addi	x3,x0,129
    2488:	00ced337          	lui	x6,0xced
    248c:	ccb3031b          	addiw	x6,x6,-821 # 0xcecccb
    2490:	00d31313          	slli	x6,x6,0xd
    2494:	91930313          	addi	x6,x6,-1767
    2498:	00d31313          	slli	x6,x6,0xd
    249c:	b1330313          	addi	x6,x6,-1261
    24a0:	00d31313          	slli	x6,x6,0xd
    24a4:	16030313          	addi	x6,x6,352
    24a8:	06700393          	addi	x7,x0,103
    24ac:	02643ca3          	sd	x6,57(x8)
    24b0:	04040e03          	lb	x28,64(x8)
    24b4:	15c39ae3          	bne	x7,x28,0x2e08
    24b8:	08200193          	addi	x3,x0,130
    24bc:	06f6e337          	lui	x6,0x6f6e
    24c0:	6d73031b          	addiw	x6,x6,1751 # 0x6f6e6d7
    24c4:	00c31313          	slli	x6,x6,0xc
    24c8:	c6b30313          	addi	x6,x6,-917
    24cc:	00c31313          	slli	x6,x6,0xc
    24d0:	6a730313          	addi	x6,x6,1703
    24d4:	00c31313          	slli	x6,x6,0xc
    24d8:	96830313          	addi	x6,x6,-1688
    24dc:	06f00393          	addi	x7,x0,111
    24e0:	02643d23          	sd	x6,58(x8)
    24e4:	04144e03          	lbu	x28,65(x8)
    24e8:	13c390e3          	bne	x7,x28,0x2e08
    24ec:	08300193          	addi	x3,x0,131
    24f0:	07776337          	lui	x6,0x7776
    24f4:	7573031b          	addiw	x6,x6,1879 # 0x7776757
    24f8:	00c31313          	slli	x6,x6,0xc
    24fc:	47330313          	addi	x6,x6,1139
    2500:	00c31313          	slli	x6,x6,0xc
    2504:	72730313          	addi	x6,x6,1831
    2508:	00c31313          	slli	x6,x6,0xc
    250c:	17030313          	addi	x6,x6,368
    2510:	000073b7          	lui	x7,0x7
    2514:	5743839b          	addiw	x7,x7,1396 # 0x7574
    2518:	02643da3          	sd	x6,59(x8)
    251c:	03f41e03          	lh	x28,63(x8)
    2520:	0fc394e3          	bne	x7,x28,0x2e08
    2524:	08400193          	addi	x3,x0,132
    2528:	00ff0337          	lui	x6,0xff0
    252c:	cfb3031b          	addiw	x6,x6,-773 # 0xfefcfb
    2530:	00c31313          	slli	x6,x6,0xc
    2534:	f8f30313          	addi	x6,x6,-113
    2538:	00c31313          	slli	x6,x6,0xc
    253c:	6f530313          	addi	x6,x6,1781
    2540:	00f31313          	slli	x6,x6,0xf
    2544:	97830313          	addi	x6,x6,-1672
    2548:	000083b7          	lui	x7,0x8
    254c:	c7b3839b          	addiw	x7,x7,-901 # 0x7c7b
    2550:	02643e23          	sd	x6,60(x8)
    2554:	03f45e03          	lhu	x28,63(x8)
    2558:	0bc398e3          	bne	x7,x28,0x2e08
    255c:	08500193          	addi	x3,x0,133
    2560:	fff0f337          	lui	x6,0xfff0f
    2564:	0d13031b          	addiw	x6,x6,209 # 0xfffffffffff0f0d1
    2568:	00c31313          	slli	x6,x6,0xc
    256c:	b0930313          	addi	x6,x6,-1271
    2570:	01031313          	slli	x6,x6,0x10
    2574:	70530313          	addi	x6,x6,1797
    2578:	00f31313          	slli	x6,x6,0xf
    257c:	18030313          	addi	x6,x6,384
    2580:	838283b7          	lui	x7,0x83828
    2584:	1803839b          	addiw	x7,x7,384 # 0xffffffff83828180
    2588:	02643ea3          	sd	x6,61(x8)
    258c:	03d42e03          	lw	x28,61(x8)
    2590:	07c39ce3          	bne	x7,x28,0x2e08
    2594:	08600193          	addi	x3,x0,134
    2598:	ff1f2337          	lui	x6,0xff1f2
    259c:	d1b3031b          	addiw	x6,x6,-741 # 0xffffffffff1f1d1b
    25a0:	00d31313          	slli	x6,x6,0xd
    25a4:	32330313          	addi	x6,x6,803
    25a8:	00e31313          	slli	x6,x6,0xe
    25ac:	8a930313          	addi	x6,x6,-1879
    25b0:	00c31313          	slli	x6,x6,0xc
    25b4:	98830313          	addi	x6,x6,-1656
    25b8:	8b8a93b7          	lui	x7,0x8b8a9
    25bc:	9883839b          	addiw	x7,x7,-1656 # 0xffffffff8b8a8988
    25c0:	02643f23          	sd	x6,62(x8)
    25c4:	03e42e03          	lw	x28,62(x8)
    25c8:	05c390e3          	bne	x7,x28,0x2e08
    25cc:	08700193          	addi	x3,x0,135
    25d0:	ff2f3337          	lui	x6,0xff2f3
    25d4:	d2b3031b          	addiw	x6,x6,-725 # 0xffffffffff2f2d2b
    25d8:	00d31313          	slli	x6,x6,0xd
    25dc:	52530313          	addi	x6,x6,1317
    25e0:	00e31313          	slli	x6,x6,0xe
    25e4:	92930313          	addi	x6,x6,-1751
    25e8:	00c31313          	slli	x6,x6,0xc
    25ec:	19030313          	addi	x6,x6,400
    25f0:	000943b7          	lui	x7,0x94
    25f4:	9293839b          	addiw	x7,x7,-1751 # 0x93929
    25f8:	00c39393          	slli	x7,x7,0xc
    25fc:	19038393          	addi	x7,x7,400
    2600:	02643fa3          	sd	x6,63(x8)
    2604:	03f46e03          	lwu	x28,63(x8)
    2608:	01c390e3          	bne	x7,x28,0x2e08
    260c:	08800193          	addi	x3,x0,136
    2610:	09800313          	addi	x6,x0,152
    2614:	ffffc3b7          	lui	x7,0xffffc
    2618:	8983839b          	addiw	x7,x7,-1896 # 0xffffffffffffb898
    261c:	006400a3          	sb	x6,1(x8)
    2620:	00141e03          	lh	x28,1(x8)
    2624:	7fc39263          	bne	x7,x28,0x2e08
    2628:	08900193          	addi	x3,x0,137
    262c:	09900313          	addi	x6,x0,153
    2630:	0000a3b7          	lui	x7,0xa
    2634:	9983839b          	addiw	x7,x7,-1640 # 0x9998
    2638:	00640123          	sb	x6,2(x8)
    263c:	00145e03          	lhu	x28,1(x8)
    2640:	7dc39463          	bne	x7,x28,0x2e08
    2644:	08a00193          	addi	x3,x0,138
    2648:	0000a337          	lui	x6,0xa
    264c:	b9a3031b          	addiw	x6,x6,-1126 # 0x9b9a
    2650:	c8c0a3b7          	lui	x7,0xc8c0a
    2654:	b9a3839b          	addiw	x7,x7,-1126 # 0xffffffffc8c09b9a
    2658:	006410a3          	sh	x6,1(x8)
    265c:	00142e03          	lw	x28,1(x8)
    2660:	7bc39463          	bne	x7,x28,0x2e08
    2664:	08b00193          	addi	x3,x0,139
    2668:	0000a337          	lui	x6,0xa
    266c:	d9c3031b          	addiw	x6,x6,-612 # 0x9d9c
    2670:	d09da3b7          	lui	x7,0xd09da
    2674:	c9b3839b          	addiw	x7,x7,-869 # 0xffffffffd09d9c9b
    2678:	006411a3          	sh	x6,3(x8)
    267c:	00242e03          	lw	x28,2(x8)
    2680:	79c39463          	bne	x7,x28,0x2e08
    2684:	08c00193          	addi	x3,x0,140
    2688:	0000a337          	lui	x6,0xa
    268c:	f9e3031b          	addiw	x6,x6,-98 # 0x9f9e
    2690:	9f9ea3b7          	lui	x7,0x9f9ea
    2694:	d9c3839b          	addiw	x7,x7,-612 # 0xffffffff9f9e9d9c
    2698:	006412a3          	sh	x6,5(x8)
    269c:	00342e03          	lw	x28,3(x8)
    26a0:	77c39463          	bne	x7,x28,0x2e08
    26a4:	08d00193          	addi	x3,x0,141
    26a8:	0a000313          	addi	x6,x0,160
    26ac:	0004f3b7          	lui	x7,0x4f
    26b0:	ce53839b          	addiw	x7,x7,-795 # 0x4ece5
    26b4:	00d39393          	slli	x7,x7,0xd
    26b8:	09a38393          	addi	x7,x7,154
    26bc:	00640123          	sb	x6,2(x8)
    26c0:	00146e03          	lwu	x28,1(x8)
    26c4:	75c39263          	bne	x7,x28,0x2e08
    26c8:	08e00193          	addi	x3,x0,142
    26cc:	0000a337          	lui	x6,0xa
    26d0:	2a13031b          	addiw	x6,x6,673 # 0xa2a1
    26d4:	0004f3b7          	lui	x7,0x4f
    26d8:	5153839b          	addiw	x7,x7,1301 # 0x4f515
    26dc:	00d39393          	slli	x7,x7,0xd
    26e0:	1a038393          	addi	x7,x7,416
    26e4:	006411a3          	sh	x6,3(x8)
    26e8:	00246e03          	lwu	x28,2(x8)
    26ec:	71c39e63          	bne	x7,x28,0x2e08
    26f0:	08f00193          	addi	x3,x0,143
    26f4:	0000a337          	lui	x6,0xa
    26f8:	4a33031b          	addiw	x6,x6,1187 # 0xa4a3
    26fc:	000523b7          	lui	x7,0x52
    2700:	51d3839b          	addiw	x7,x7,1309 # 0x5251d
    2704:	00d39393          	slli	x7,x7,0xd
    2708:	2a138393          	addi	x7,x7,673
    270c:	006412a3          	sh	x6,5(x8)
    2710:	00346e03          	lwu	x28,3(x8)
    2714:	6fc39a63          	bne	x7,x28,0x2e08
    2718:	09000193          	addi	x3,x0,144
    271c:	0a500313          	addi	x6,x0,165
    2720:	ff0f03b7          	lui	x7,0xff0f0
    2724:	5253839b          	addiw	x7,x7,1317 # 0xffffffffff0f0525
    2728:	00c39393          	slli	x7,x7,0xc
    272c:	1d138393          	addi	x7,x7,465
    2730:	00c39393          	slli	x7,x7,0xc
    2734:	50d38393          	addi	x7,x7,1293
    2738:	00d39393          	slli	x7,x7,0xd
    273c:	59a38393          	addi	x7,x7,1434
    2740:	00640123          	sb	x6,2(x8)
    2744:	00143e03          	ld	x28,1(x8)
    2748:	6dc39063          	bne	x7,x28,0x2e08
    274c:	09100193          	addi	x3,x0,145
    2750:	0000a337          	lui	x6,0xa
    2754:	7a63031b          	addiw	x6,x6,1958 # 0xa7a6
    2758:	ff8aa3b7          	lui	x7,0xff8aa
    275c:	e9b3839b          	addiw	x7,x7,-357 # 0xffffffffff8a9e9b
    2760:	00c39393          	slli	x7,x7,0xc
    2764:	92938393          	addi	x7,x7,-1751
    2768:	00d39393          	slli	x7,x7,0xd
    276c:	d1538393          	addi	x7,x7,-747
    2770:	00d39393          	slli	x7,x7,0xd
    2774:	1a538393          	addi	x7,x7,421
    2778:	006413a3          	sh	x6,7(x8)
    277c:	00243e03          	ld	x28,2(x8)
    2780:	69c39463          	bne	x7,x28,0x2e08
    2784:	09200193          	addi	x3,x0,146
    2788:	0000b337          	lui	x6,0xb
    278c:	9a83031b          	addiw	x6,x6,-1624 # 0xa9a8
    2790:	fea6a3b7          	lui	x7,0xfea6a
    2794:	29f3839b          	addiw	x7,x7,671 # 0xfffffffffea6a29f
    2798:	00c39393          	slli	x7,x7,0xc
    279c:	9a938393          	addi	x7,x7,-1623
    27a0:	00d39393          	slli	x7,x7,0xd
    27a4:	51d38393          	addi	x7,x7,1309
    27a8:	00d39393          	slli	x7,x7,0xd
    27ac:	2a138393          	addi	x7,x7,673
    27b0:	006414a3          	sh	x6,9(x8)
    27b4:	00343e03          	ld	x28,3(x8)
    27b8:	65c39863          	bne	x7,x28,0x2e08
    27bc:	09300193          	addi	x3,x0,147
    27c0:	000ae337          	lui	x6,0xae
    27c4:	acb3031b          	addiw	x6,x6,-1333 # 0xadacb
    27c8:	00c31313          	slli	x6,x6,0xc
    27cc:	baa30313          	addi	x6,x6,-1110
    27d0:	fe4aa3b7          	lui	x7,0xfe4aa
    27d4:	a8b3839b          	addiw	x7,x7,-1397 # 0xfffffffffe4a9a8b
    27d8:	00c39393          	slli	x7,x7,0xc
    27dc:	dad38393          	addi	x7,x7,-595
    27e0:	00c39393          	slli	x7,x7,0xc
    27e4:	abb38393          	addi	x7,x7,-1349
    27e8:	00c39393          	slli	x7,x7,0xc
    27ec:	aa238393          	addi	x7,x7,-1374
    27f0:	006422a3          	sw	x6,5(x8)
    27f4:	00443e03          	ld	x28,4(x8)
    27f8:	61c39863          	bne	x7,x28,0x2e08
    27fc:	09400193          	addi	x3,x0,148
    2800:	000b2337          	lui	x6,0xb2
    2804:	b0b3031b          	addiw	x6,x6,-1269 # 0xb1b0b
    2808:	00c31313          	slli	x6,x6,0xc
    280c:	fae30313          	addi	x6,x6,-82
    2810:	fff2f3b7          	lui	x7,0xfff2f
    2814:	2593839b          	addiw	x7,x7,601 # 0xfffffffffff2f259
    2818:	00d39393          	slli	x7,x7,0xd
    281c:	b0b38393          	addi	x7,x7,-1269
    2820:	01039393          	slli	x7,x7,0x10
    2824:	aeb38393          	addi	x7,x7,-1301
    2828:	00c39393          	slli	x7,x7,0xc
    282c:	baa38393          	addi	x7,x7,-1110
    2830:	006423a3          	sw	x6,7(x8)
    2834:	00543e03          	ld	x28,5(x8)
    2838:	5dc39863          	bne	x7,x28,0x2e08
    283c:	09500193          	addi	x3,x0,149
    2840:	000b6337          	lui	x6,0xb6
    2844:	b4b3031b          	addiw	x6,x6,-1205 # 0xb5b4b
    2848:	00c31313          	slli	x6,x6,0xc
    284c:	3b230313          	addi	x6,x6,946
    2850:	fe6b63b7          	lui	x7,0xfe6b6
    2854:	b4b3839b          	addiw	x7,x7,-1205 # 0xfffffffffe6b5b4b
    2858:	00c39393          	slli	x7,x7,0xc
    285c:	3b338393          	addi	x7,x7,947
    2860:	00c39393          	slli	x7,x7,0xc
    2864:	afb38393          	addi	x7,x7,-1285
    2868:	00c39393          	slli	x7,x7,0xc
    286c:	eab38393          	addi	x7,x7,-341
    2870:	006424a3          	sw	x6,9(x8)
    2874:	00643e03          	ld	x28,6(x8)
    2878:	59c39863          	bne	x7,x28,0x2e08
    287c:	09600193          	addi	x3,x0,150
    2880:	000ba337          	lui	x6,0xba
    2884:	b8b3031b          	addiw	x6,x6,-1141 # 0xb9b8b
    2888:	00c31313          	slli	x6,x6,0xc
    288c:	7b630313          	addi	x6,x6,1974
    2890:	fee6e3b7          	lui	x7,0xfee6e
    2894:	2df3839b          	addiw	x7,x7,735 # 0xfffffffffee6e2df
    2898:	00c39393          	slli	x7,x7,0xc
    289c:	dad38393          	addi	x7,x7,-595
    28a0:	00e39393          	slli	x7,x7,0xe
    28a4:	b2b38393          	addi	x7,x7,-1237
    28a8:	00c39393          	slli	x7,x7,0xc
    28ac:	fae38393          	addi	x7,x7,-82
    28b0:	006425a3          	sw	x6,11(x8)
    28b4:	00743e03          	ld	x28,7(x8)
    28b8:	55c39863          	bne	x7,x28,0x2e08
    28bc:	09700193          	addi	x3,x0,151
    28c0:	0ba00313          	addi	x6,x0,186
    28c4:	000033b7          	lui	x7,0x3
    28c8:	1ba3839b          	addiw	x7,x7,442 # 0x31ba
    28cc:	00640fa3          	sb	x6,31(x8)
    28d0:	01f41e03          	lh	x28,31(x8)
    28d4:	53c39a63          	bne	x7,x28,0x2e08
    28d8:	09800193          	addi	x3,x0,152
    28dc:	0bb00313          	addi	x6,x0,187
    28e0:	0000c3b7          	lui	x7,0xc
    28e4:	bba3839b          	addiw	x7,x7,-1094 # 0xbbba
    28e8:	02640023          	sb	x6,32(x8)
    28ec:	01f45e03          	lhu	x28,31(x8)
    28f0:	51c39c63          	bne	x7,x28,0x2e08
    28f4:	09900193          	addi	x3,x0,153
    28f8:	0000c337          	lui	x6,0xc
    28fc:	dbc3031b          	addiw	x6,x6,-580 # 0xbdbc
    2900:	32bbc3b7          	lui	x7,0x32bbc
    2904:	dbc3839b          	addiw	x7,x7,-580 # 0x32bbbdbc
    2908:	00641f23          	sh	x6,30(x8)
    290c:	01e42e03          	lw	x28,30(x8)
    2910:	4fc39c63          	bne	x7,x28,0x2e08
    2914:	09a00193          	addi	x3,x0,154
    2918:	0000c337          	lui	x6,0xc
    291c:	fbe3031b          	addiw	x6,x6,-66 # 0xbfbe
    2920:	32bfc3b7          	lui	x7,0x32bfc
    2924:	ebc3839b          	addiw	x7,x7,-324 # 0x32bfbebc
    2928:	00641fa3          	sh	x6,31(x8)
    292c:	01e42e03          	lw	x28,30(x8)
    2930:	4dc39c63          	bne	x7,x28,0x2e08
    2934:	09b00193          	addi	x3,x0,155
    2938:	0000c337          	lui	x6,0xc
    293c:	1c03031b          	addiw	x6,x6,448 # 0xc1c0
    2940:	c1c0c3b7          	lui	x7,0xc1c0c
    2944:	ebc3839b          	addiw	x7,x7,-324 # 0xffffffffc1c0bebc
    2948:	02641023          	sh	x6,32(x8)
    294c:	01e42e03          	lw	x28,30(x8)
    2950:	4bc39c63          	bne	x7,x28,0x2e08
    2954:	09c00193          	addi	x3,x0,156
    2958:	0c200313          	addi	x6,x0,194
    295c:	33c1c3b7          	lui	x7,0x33c1c
    2960:	2be3839b          	addiw	x7,x7,702 # 0x33c1c2be
    2964:	02640023          	sb	x6,32(x8)
    2968:	01f46e03          	lwu	x28,31(x8)
    296c:	49c39e63          	bne	x7,x28,0x2e08
    2970:	09d00193          	addi	x3,x0,157
    2974:	0000c337          	lui	x6,0xc
    2978:	4c33031b          	addiw	x6,x6,1219 # 0xc4c3
    297c:	000313b7          	lui	x7,0x31
    2980:	30f3839b          	addiw	x7,x7,783 # 0x3130f
    2984:	00e39393          	slli	x7,x7,0xe
    2988:	c2038393          	addi	x7,x7,-992
    298c:	00641fa3          	sh	x6,31(x8)
    2990:	01d46e03          	lwu	x28,29(x8)
    2994:	47c39a63          	bne	x7,x28,0x2e08
    2998:	09e00193          	addi	x3,x0,158
    299c:	0000c337          	lui	x6,0xc
    29a0:	6c53031b          	addiw	x6,x6,1733 # 0xc6c5
    29a4:	000323b7          	lui	x7,0x32
    29a8:	b173839b          	addiw	x7,x7,-1257 # 0x31b17
    29ac:	00e39393          	slli	x7,x7,0xe
    29b0:	3bc38393          	addi	x7,x7,956
    29b4:	02641023          	sh	x6,32(x8)
    29b8:	01e46e03          	lwu	x28,30(x8)
    29bc:	45c39663          	bne	x7,x28,0x2e08
    29c0:	09f00193          	addi	x3,x0,159
    29c4:	0c700313          	addi	x6,x0,199
    29c8:	fff1f3b7          	lui	x7,0xfff1f
    29cc:	0ef3839b          	addiw	x7,x7,239 # 0xfffffffffff1f0ef
    29d0:	00f39393          	slli	x7,x7,0xf
    29d4:	40338393          	addi	x7,x7,1027
    29d8:	00f39393          	slli	x7,x7,0xf
    29dc:	10138393          	addi	x7,x7,257
    29e0:	00c39393          	slli	x7,x7,0xc
    29e4:	80038393          	addi	x7,x7,-2048
    29e8:	02640023          	sb	x6,32(x8)
    29ec:	01943e03          	ld	x28,25(x8)
    29f0:	41c39c63          	bne	x7,x28,0x2e08
    29f4:	0a000193          	addi	x3,x0,160
    29f8:	0000d337          	lui	x6,0xd
    29fc:	9c83031b          	addiw	x6,x6,-1592 # 0xc9c8
    2a00:	fff8e3b7          	lui	x7,0xfff8e
    2a04:	9393839b          	addiw	x7,x7,-1735 # 0xfffffffffff8d939
    2a08:	00e39393          	slli	x7,x7,0xe
    2a0c:	5e138393          	addi	x7,x7,1505
    2a10:	01139393          	slli	x7,x7,0x11
    2a14:	18138393          	addi	x7,x7,385
    2a18:	00c39393          	slli	x7,x7,0xc
    2a1c:	00838393          	addi	x7,x7,8
    2a20:	00641fa3          	sh	x6,31(x8)
    2a24:	01a43e03          	ld	x28,26(x8)
    2a28:	3fc39063          	bne	x7,x28,0x2e08
    2a2c:	0a100193          	addi	x3,x0,161
    2a30:	0000d337          	lui	x6,0xd
    2a34:	bca3031b          	addiw	x6,x6,-1078 # 0xcbca
    2a38:	00cf23b7          	lui	x7,0xcf2
    2a3c:	b2f3839b          	addiw	x7,x7,-1233 # 0xcf1b2f
    2a40:	00c39393          	slli	x7,x7,0xc
    2a44:	2af38393          	addi	x7,x7,687
    2a48:	00d39393          	slli	x7,x7,0xd
    2a4c:	10138393          	addi	x7,x7,257
    2a50:	00d39393          	slli	x7,x7,0xd
    2a54:	81038393          	addi	x7,x7,-2032
    2a58:	00641fa3          	sh	x6,31(x8)
    2a5c:	01b43e03          	ld	x28,27(x8)
    2a60:	3bc39463          	bne	x7,x28,0x2e08
    2a64:	0a200193          	addi	x3,x0,162
    2a68:	000d0337          	lui	x6,0xd0
    2a6c:	ced3031b          	addiw	x6,x6,-787 # 0xcfced
    2a70:	00c31313          	slli	x6,x6,0xc
    2a74:	dcc30313          	addi	x6,x6,-564
    2a78:	ff3f43b7          	lui	x7,0xff3f4
    2a7c:	b373839b          	addiw	x7,x7,-1225 # 0xffffffffff3f3b37
    2a80:	00d39393          	slli	x7,x7,0xd
    2a84:	66538393          	addi	x7,x7,1637
    2a88:	00c39393          	slli	x7,x7,0xc
    2a8c:	5e138393          	addi	x7,x7,1505
    2a90:	00d39393          	slli	x7,x7,0xd
    2a94:	01838393          	addi	x7,x7,24
    2a98:	02642023          	sw	x6,32(x8)
    2a9c:	01c43e03          	ld	x28,28(x8)
    2aa0:	37c39463          	bne	x7,x28,0x2e08
    2aa4:	0a300193          	addi	x3,x0,163
    2aa8:	000d4337          	lui	x6,0xd4
    2aac:	d2d3031b          	addiw	x6,x6,-723 # 0xd3d2d
    2ab0:	00c31313          	slli	x6,x6,0xc
    2ab4:	1d030313          	addi	x6,x6,464
    2ab8:	000d73b7          	lui	x7,0xd7
    2abc:	3f53839b          	addiw	x7,x7,1013 # 0xd73f5
    2ac0:	00e39393          	slli	x7,x7,0xe
    2ac4:	d2d38393          	addi	x7,x7,-723
    2ac8:	00e39393          	slli	x7,x7,0xe
    2acc:	74338393          	addi	x7,x7,1859
    2ad0:	00e39393          	slli	x7,x7,0xe
    2ad4:	c2038393          	addi	x7,x7,-992
    2ad8:	00642fa3          	sw	x6,31(x8)
    2adc:	01d43e03          	ld	x28,29(x8)
    2ae0:	33c39463          	bne	x7,x28,0x2e08
    2ae4:	0a400193          	addi	x3,x0,164
    2ae8:	000d8337          	lui	x6,0xd8
    2aec:	d6d3031b          	addiw	x6,x6,-659 # 0xd7d6d
    2af0:	00c31313          	slli	x6,x6,0xc
    2af4:	5d430313          	addi	x6,x6,1492
    2af8:	000363b7          	lui	x7,0x36
    2afc:	35d3839b          	addiw	x7,x7,861 # 0x3635d
    2b00:	01139393          	slli	x7,x7,0x11
    2b04:	a7b38393          	addi	x7,x7,-1413
    2b08:	00f39393          	slli	x7,x7,0xf
    2b0c:	d6d38393          	addi	x7,x7,-659
    2b10:	00c39393          	slli	x7,x7,0xc
    2b14:	5d438393          	addi	x7,x7,1492
    2b18:	00642f23          	sw	x6,30(x8)
    2b1c:	01e43e03          	ld	x28,30(x8)
    2b20:	2fc39463          	bne	x7,x28,0x2e08
    2b24:	0a500193          	addi	x3,x0,165
    2b28:	0006e337          	lui	x6,0x6e
    2b2c:	ed73031b          	addiw	x6,x6,-297 # 0x6ded7
    2b30:	00d31313          	slli	x6,x6,0xd
    2b34:	9d830313          	addi	x6,x6,-1576
    2b38:	00dce3b7          	lui	x7,0xdce
    2b3c:	8d73839b          	addiw	x7,x7,-1833 # 0xdcd8d7
    2b40:	00c39393          	slli	x7,x7,0xc
    2b44:	3f538393          	addi	x7,x7,1013
    2b48:	00d39393          	slli	x7,x7,0xd
    2b4c:	ebf38393          	addi	x7,x7,-321
    2b50:	00d39393          	slli	x7,x7,0xd
    2b54:	bda38393          	addi	x7,x7,-1062
    2b58:	00642ea3          	sw	x6,29(x8)
    2b5c:	01f43e03          	ld	x28,31(x8)
    2b60:	2bc39463          	bne	x7,x28,0x2e08
    2b64:	0a600193          	addi	x3,x0,166
    2b68:	0dc00313          	addi	x6,x0,220
    2b6c:	ffff93b7          	lui	x7,0xffff9
    2b70:	1dc3839b          	addiw	x7,x7,476 # 0xffffffffffff91dc
    2b74:	02640fa3          	sb	x6,63(x8)
    2b78:	03f41e03          	lh	x28,63(x8)
    2b7c:	29c39663          	bne	x7,x28,0x2e08
    2b80:	0a700193          	addi	x3,x0,167
    2b84:	0dd00313          	addi	x6,x0,221
    2b88:	0000e3b7          	lui	x7,0xe
    2b8c:	ddc3839b          	addiw	x7,x7,-548 # 0xdddc
    2b90:	04640023          	sb	x6,64(x8)
    2b94:	03f45e03          	lhu	x28,63(x8)
    2b98:	27c39863          	bne	x7,x28,0x2e08
    2b9c:	0a800193          	addi	x3,x0,168
    2ba0:	0000e337          	lui	x6,0xe
    2ba4:	fde3031b          	addiw	x6,x6,-34 # 0xdfde
    2ba8:	92dde3b7          	lui	x7,0x92dde
    2bac:	fde3839b          	addiw	x7,x7,-34 # 0xffffffff92dddfde
    2bb0:	02641f23          	sh	x6,62(x8)
    2bb4:	03e42e03          	lw	x28,62(x8)
    2bb8:	25c39863          	bne	x7,x28,0x2e08
    2bbc:	0a900193          	addi	x3,x0,169
    2bc0:	0000e337          	lui	x6,0xe
    2bc4:	1e03031b          	addiw	x6,x6,480 # 0xe1e0
    2bc8:	92e1e3b7          	lui	x7,0x92e1e
    2bcc:	0de3839b          	addiw	x7,x7,222 # 0xffffffff92e1e0de
    2bd0:	02641fa3          	sh	x6,63(x8)
    2bd4:	03e42e03          	lw	x28,62(x8)
    2bd8:	23c39863          	bne	x7,x28,0x2e08
    2bdc:	0aa00193          	addi	x3,x0,170
    2be0:	0000e337          	lui	x6,0xe
    2be4:	3e23031b          	addiw	x6,x6,994 # 0xe3e2
    2be8:	e3e2e3b7          	lui	x7,0xe3e2e
    2bec:	0de3839b          	addiw	x7,x7,222 # 0xffffffffe3e2e0de
    2bf0:	04641023          	sh	x6,64(x8)
    2bf4:	03e42e03          	lw	x28,62(x8)
    2bf8:	21c39863          	bne	x7,x28,0x2e08
    2bfc:	0ab00193          	addi	x3,x0,171
    2c00:	0e400313          	addi	x6,x0,228
    2c04:	0004a3b7          	lui	x7,0x4a
    2c08:	f1f3839b          	addiw	x7,x7,-225 # 0x49f1f
    2c0c:	00d39393          	slli	x7,x7,0xd
    2c10:	4e038393          	addi	x7,x7,1248
    2c14:	04640023          	sb	x6,64(x8)
    2c18:	03f46e03          	lwu	x28,63(x8)
    2c1c:	1fc39663          	bne	x7,x28,0x2e08
    2c20:	0ac00193          	addi	x3,x0,172
    2c24:	0000e337          	lui	x6,0xe
    2c28:	6e53031b          	addiw	x6,x6,1765 # 0xe6e5
    2c2c:	000733b7          	lui	x7,0x73
    2c30:	72f3839b          	addiw	x7,x7,1839 # 0x7372f
    2c34:	00d39393          	slli	x7,x7,0xd
    2c38:	e8038393          	addi	x7,x7,-384
    2c3c:	02641fa3          	sh	x6,63(x8)
    2c40:	03d46e03          	lwu	x28,61(x8)
    2c44:	1dc39263          	bne	x7,x28,0x2e08
    2c48:	0ad00193          	addi	x3,x0,173
    2c4c:	0000f337          	lui	x6,0xf
    2c50:	8e73031b          	addiw	x6,x6,-1817 # 0xe8e7
    2c54:	000743b7          	lui	x7,0x74
    2c58:	73f3839b          	addiw	x7,x7,1855 # 0x7473f
    2c5c:	00d39393          	slli	x7,x7,0xd
    2c60:	5de38393          	addi	x7,x7,1502
    2c64:	04641023          	sh	x6,64(x8)
    2c68:	03e46e03          	lwu	x28,62(x8)
    2c6c:	19c39e63          	bne	x7,x28,0x2e08
    2c70:	0ae00193          	addi	x3,x0,174
    2c74:	0e900313          	addi	x6,x0,233
    2c78:	ffd3d3b7          	lui	x7,0xffd3d
    2c7c:	bbd3839b          	addiw	x7,x7,-1091 # 0xffffffffffd3cbbd
    2c80:	00c39393          	slli	x7,x7,0xc
    2c84:	00f38393          	addi	x7,x7,15
    2c88:	00f39393          	slli	x7,x7,0xf
    2c8c:	70738393          	addi	x7,x7,1799
    2c90:	00c39393          	slli	x7,x7,0xc
    2c94:	86038393          	addi	x7,x7,-1952
    2c98:	04640023          	sb	x6,64(x8)
    2c9c:	03943e03          	ld	x28,57(x8)
    2ca0:	17c39463          	bne	x7,x28,0x2e08
    2ca4:	0af00193          	addi	x3,x0,175
    2ca8:	0000f337          	lui	x6,0xf
    2cac:	bea3031b          	addiw	x6,x6,-1046 # 0xebea
    2cb0:	d1d7d3b7          	lui	x7,0xd1d7d
    2cb4:	5bd3839b          	addiw	x7,x7,1469 # 0xffffffffd1d7d5bd
    2cb8:	01339393          	slli	x7,x7,0x13
    2cbc:	78738393          	addi	x7,x7,1927
    2cc0:	00c39393          	slli	x7,x7,0xc
    2cc4:	06838393          	addi	x7,x7,104
    2cc8:	02641fa3          	sh	x6,63(x8)
    2ccc:	03a43e03          	ld	x28,58(x8)
    2cd0:	13c39c63          	bne	x7,x28,0x2e08
    2cd4:	0b000193          	addi	x3,x0,176
    2cd8:	0000f337          	lui	x6,0xf
    2cdc:	dec3031b          	addiw	x6,x6,-532 # 0xedec
    2ce0:	ffc9f3b7          	lui	x7,0xffc9f
    2ce4:	4773839b          	addiw	x7,x7,1143 # 0xffffffffffc9f477
    2ce8:	00c39393          	slli	x7,x7,0xc
    2cec:	f6738393          	addi	x7,x7,-153
    2cf0:	00e39393          	slli	x7,x7,0xe
    2cf4:	d0138393          	addi	x7,x7,-767
    2cf8:	00f39393          	slli	x7,x7,0xf
    2cfc:	87038393          	addi	x7,x7,-1936
    2d00:	02641fa3          	sh	x6,63(x8)
    2d04:	03b43e03          	ld	x28,59(x8)
    2d08:	11c39063          	bne	x7,x28,0x2e08
    2d0c:	0b100193          	addi	x3,x0,177
    2d10:	000f2337          	lui	x6,0xf2
    2d14:	f0f3031b          	addiw	x6,x6,-241 # 0xf1f0f
    2d18:	00c31313          	slli	x6,x6,0xc
    2d1c:	fee30313          	addi	x6,x6,-18
    2d20:	ffff23b7          	lui	x7,0xffff2
    2d24:	f0f3839b          	addiw	x7,x7,-241 # 0xffffffffffff1f0f
    2d28:	01039393          	slli	x7,x7,0x10
    2d2c:	eef38393          	addi	x7,x7,-273
    2d30:	00d39393          	slli	x7,x7,0xd
    2d34:	9bd38393          	addi	x7,x7,-1603
    2d38:	00f39393          	slli	x7,x7,0xf
    2d3c:	07838393          	addi	x7,x7,120
    2d40:	04642023          	sw	x6,64(x8)
    2d44:	03c43e03          	ld	x28,60(x8)
    2d48:	0dc39063          	bne	x7,x28,0x2e08
    2d4c:	0b200193          	addi	x3,x0,178
    2d50:	000f6337          	lui	x6,0xf6
    2d54:	f4f3031b          	addiw	x6,x6,-177 # 0xf5f4f
    2d58:	00c31313          	slli	x6,x6,0xc
    2d5c:	3f230313          	addi	x6,x6,1010
    2d60:	ffcb03b7          	lui	x7,0xffcb0
    2d64:	8fb3839b          	addiw	x7,x7,-1797 # 0xffffffffffcaf8fb
    2d68:	00f39393          	slli	x7,x7,0xf
    2d6c:	d3d38393          	addi	x7,x7,-707
    2d70:	00d39393          	slli	x7,x7,0xd
    2d74:	f9738393          	addi	x7,x7,-105
    2d78:	00d39393          	slli	x7,x7,0xd
    2d7c:	e8038393          	addi	x7,x7,-384
    2d80:	02642fa3          	sw	x6,63(x8)
    2d84:	03d43e03          	ld	x28,61(x8)
    2d88:	09c39063          	bne	x7,x28,0x2e08
    2d8c:	0b300193          	addi	x3,x0,179
    2d90:	000fa337          	lui	x6,0xfa
    2d94:	f8f3031b          	addiw	x6,x6,-113 # 0xf9f8f
    2d98:	00c31313          	slli	x6,x6,0xc
    2d9c:	7f630313          	addi	x6,x6,2038
    2da0:	ffcb53b7          	lui	x7,0xffcb5
    2da4:	af93839b          	addiw	x7,x7,-1287 # 0xffffffffffcb4af9
    2da8:	01039393          	slli	x7,x7,0x10
    2dac:	afd38393          	addi	x7,x7,-1283
    2db0:	00d39393          	slli	x7,x7,0xd
    2db4:	f8f38393          	addi	x7,x7,-113
    2db8:	00c39393          	slli	x7,x7,0xc
    2dbc:	7f638393          	addi	x7,x7,2038
    2dc0:	02642f23          	sw	x6,62(x8)
    2dc4:	03e43e03          	ld	x28,62(x8)
    2dc8:	05c39063          	bne	x7,x28,0x2e08
    2dcc:	0b400193          	addi	x3,x0,180
    2dd0:	00010337          	lui	x6,0x10
    2dd4:	dfd3031b          	addiw	x6,x6,-515 # 0xfdfd
    2dd8:	01031313          	slli	x6,x6,0x10
    2ddc:	bfa30313          	addi	x6,x6,-1030
    2de0:	cbcb53b7          	lui	x7,0xcbcb5
    2de4:	af93839b          	addiw	x7,x7,-1287 # 0xffffffffcbcb4af9
    2de8:	01039393          	slli	x7,x7,0x10
    2dec:	afd38393          	addi	x7,x7,-1283
    2df0:	01139393          	slli	x7,x7,0x11
    2df4:	dfc38393          	addi	x7,x7,-516
    2df8:	02642ea3          	sw	x6,61(x8)
    2dfc:	03f43e03          	ld	x28,63(x8)
    2e00:	01c39463          	bne	x7,x28,0x2e08
    2e04:	02301063          	bne	x0,x3,0x2e24
    2e08:	0ff0000f          	fence	iorw,iorw
    2e0c:	00018063          	beq	x3,x0,0x2e0c
    2e10:	00119193          	slli	x3,x3,0x1
    2e14:	0011e193          	ori	x3,x3,1
    2e18:	05d00893          	addi	x17,x0,93
    2e1c:	00018513          	addi	x10,x3,0
    2e20:	00000073          	ecall
    2e24:	0ff0000f          	fence	iorw,iorw
    2e28:	00100193          	addi	x3,x0,1
    2e2c:	05d00893          	addi	x17,x0,93
    2e30:	00000513          	addi	x10,x0,0
    2e34:	00000073          	ecall
    2e38:	c0001073          	unimp
	...
    4000:	0100                	c.addi4spn	x8,x2,128
    4002:	0302                	c.slli64	x6
    4004:	0504                	c.addi4spn	x9,x2,640
    4006:	0706                	c.slli	x14,0x1
    4008:	0908                	c.addi4spn	x10,x2,144
    400a:	0b0a                	c.slli	x22,0x2
    400c:	0d0c                	c.addi4spn	x11,x2,656
    400e:	0f0e                	c.slli	x30,0x3
    4010:	1110                	c.addi4spn	x12,x2,160
    4012:	1312                	c.slli	x6,0x24
    4014:	1514                	c.addi4spn	x13,x2,672
    4016:	1716                	c.slli	x14,0x25
    4018:	1918                	c.addi4spn	x14,x2,176
    401a:	1b1a                	c.slli	x22,0x26
    401c:	1d1c                	c.addi4spn	x15,x2,688
    401e:	1f1e                	c.slli	x30,0x27
    4020:	2120                	c.fld	f8,64(x10)
    4022:	2322                	c.fldsp	f6,8(x2)
    4024:	2524                	c.fld	f9,72(x10)
    4026:	2726                	c.fldsp	f14,72(x2)
    4028:	2928                	c.fld	f10,80(x10)
    402a:	2b2a                	c.fldsp	f22,136(x2)
    402c:	2d2c                	c.fld	f11,88(x10)
    402e:	2f2e                	c.fldsp	f30,200(x2)
    4030:	3130                	c.fld	f12,96(x10)
    4032:	3332                	c.fldsp	f6,296(x2)
    4034:	3534                	c.fld	f13,104(x10)
    4036:	3736                	c.fldsp	f14,360(x2)
    4038:	3938                	c.fld	f14,112(x10)
    403a:	3b3a                	c.fldsp	f22,424(x2)
    403c:	3d3c                	c.fld	f15,120(x10)
    403e:	3f3e                	c.fldsp	f30,488(x2)
    4040:	4140                	c.lw	x8,4(x10)
    4042:	4342                	c.lwsp	x6,16(x2)
    4044:	4544                	c.lw	x9,12(x10)
    4046:	4746                	c.lwsp	x14,80(x2)
    4048:	4948                	c.lw	x10,20(x10)
    404a:	4b4a                	c.lwsp	x22,144(x2)
    404c:	4d4c                	c.lw	x11,28(x10)
    404e:	4f4e                	c.lwsp	x30,208(x2)
    4050:	5150                	c.lw	x12,36(x10)
    4052:	5352                	c.lwsp	x6,52(x2)
    4054:	5554                	c.lw	x13,44(x10)
    4056:	5756                	c.lwsp	x14,116(x2)
    4058:	5958                	c.lw	x14,52(x10)
    405a:	5b5a                	c.lwsp	x22,180(x2)
    405c:	5d5c                	c.lw	x15,60(x10)
    405e:	5f5e                	c.lwsp	x30,244(x2)
    4060:	6160                	c.ld	x8,192(x10)
    4062:	6362                	c.ldsp	x6,24(x2)
    4064:	6564                	c.ld	x9,200(x10)
    4066:	6766                	c.ldsp	x14,88(x2)
    4068:	6968                	c.ld	x10,208(x10)
    406a:	6b6a                	c.ldsp	x22,152(x2)
    406c:	6d6c                	c.ld	x11,216(x10)
    406e:	6f6e                	c.ldsp	x30,216(x2)
    4070:	7170                	c.ld	x12,224(x10)
    4072:	7372                	c.ldsp	x6,312(x2)
    4074:	7574                	c.ld	x13,232(x10)
    4076:	7776                	c.ldsp	x14,376(x2)
    4078:	7978                	c.ld	x14,240(x10)
    407a:	7b7a                	c.ldsp	x22,440(x2)
    407c:	7d7c                	c.ld	x15,248(x10)
    407e:	7f7e                	c.ldsp	x30,504(x2)
    4080:	5050                	c.lw	x12,36(x8)
    4082:	5050                	c.lw	x12,36(x8)
    4084:	5050                	c.lw	x12,36(x8)
    4086:	5050                	c.lw	x12,36(x8)
    4088:	5050                	c.lw	x12,36(x8)
    408a:	5050                	c.lw	x12,36(x8)
    408c:	5050                	c.lw	x12,36(x8)
    408e:	5050                	c.lw	x12,36(x8)
    4090:	5050                	c.lw	x12,36(x8)
    4092:	5050                	c.lw	x12,36(x8)
    4094:	5050                	c.lw	x12,36(x8)
    4096:	5050                	c.lw	x12,36(x8)
    4098:	5050                	c.lw	x12,36(x8)
    409a:	5050                	c.lw	x12,36(x8)
    409c:	5050                	c.lw	x12,36(x8)
    409e:	5050                	c.lw	x12,36(x8)
    40a0:	5050                	c.lw	x12,36(x8)
    40a2:	5050                	c.lw	x12,36(x8)
    40a4:	5050                	c.lw	x12,36(x8)
    40a6:	5050                	c.lw	x12,36(x8)
    40a8:	5050                	c.lw	x12,36(x8)
    40aa:	5050                	c.lw	x12,36(x8)
    40ac:	5050                	c.lw	x12,36(x8)
    40ae:	5050                	c.lw	x12,36(x8)
    40b0:	5050                	c.lw	x12,36(x8)
    40b2:	5050                	c.lw	x12,36(x8)
    40b4:	5050                	c.lw	x12,36(x8)
    40b6:	5050                	c.lw	x12,36(x8)
    40b8:	5050                	c.lw	x12,36(x8)
    40ba:	5050                	c.lw	x12,36(x8)
    40bc:	5050                	c.lw	x12,36(x8)
    40be:	5050                	c.lw	x12,36(x8)
    40c0:	5050                	c.lw	x12,36(x8)
    40c2:	5050                	c.lw	x12,36(x8)
    40c4:	5050                	c.lw	x12,36(x8)
    40c6:	5050                	c.lw	x12,36(x8)
    40c8:	5050                	c.lw	x12,36(x8)
    40ca:	5050                	c.lw	x12,36(x8)
    40cc:	5050                	c.lw	x12,36(x8)
    40ce:	5050                	c.lw	x12,36(x8)
    40d0:	5050                	c.lw	x12,36(x8)
    40d2:	5050                	c.lw	x12,36(x8)
    40d4:	5050                	c.lw	x12,36(x8)
    40d6:	5050                	c.lw	x12,36(x8)
    40d8:	5050                	c.lw	x12,36(x8)
    40da:	5050                	c.lw	x12,36(x8)
    40dc:	5050                	c.lw	x12,36(x8)
    40de:	5050                	c.lw	x12,36(x8)
    40e0:	5050                	c.lw	x12,36(x8)
    40e2:	5050                	c.lw	x12,36(x8)
    40e4:	5050                	c.lw	x12,36(x8)
    40e6:	5050                	c.lw	x12,36(x8)
    40e8:	5050                	c.lw	x12,36(x8)
    40ea:	5050                	c.lw	x12,36(x8)
    40ec:	5050                	c.lw	x12,36(x8)
    40ee:	5050                	c.lw	x12,36(x8)
    40f0:	5050                	c.lw	x12,36(x8)
    40f2:	5050                	c.lw	x12,36(x8)
    40f4:	5050                	c.lw	x12,36(x8)
    40f6:	5050                	c.lw	x12,36(x8)
    40f8:	5050                	c.lw	x12,36(x8)
    40fa:	5050                	c.lw	x12,36(x8)
    40fc:	5050                	c.lw	x12,36(x8)
    40fe:	5050                	c.lw	x12,36(x8)
    4100:	5050                	c.lw	x12,36(x8)
    4102:	5050                	c.lw	x12,36(x8)
    4104:	5050                	c.lw	x12,36(x8)
    4106:	5050                	c.lw	x12,36(x8)
    4108:	5050                	c.lw	x12,36(x8)
    410a:	5050                	c.lw	x12,36(x8)
    410c:	5050                	c.lw	x12,36(x8)
    410e:	5050                	c.lw	x12,36(x8)
    4110:	5050                	c.lw	x12,36(x8)
    4112:	5050                	c.lw	x12,36(x8)
    4114:	5050                	c.lw	x12,36(x8)
    4116:	5050                	c.lw	x12,36(x8)
    4118:	5050                	c.lw	x12,36(x8)
    411a:	5050                	c.lw	x12,36(x8)
    411c:	5050                	c.lw	x12,36(x8)
    411e:	5050                	c.lw	x12,36(x8)
    4120:	5050                	c.lw	x12,36(x8)
    4122:	5050                	c.lw	x12,36(x8)
    4124:	5050                	c.lw	x12,36(x8)
    4126:	5050                	c.lw	x12,36(x8)
    4128:	5050                	c.lw	x12,36(x8)
    412a:	5050                	c.lw	x12,36(x8)
    412c:	5050                	c.lw	x12,36(x8)
    412e:	5050                	c.lw	x12,36(x8)
    4130:	5050                	c.lw	x12,36(x8)
    4132:	5050                	c.lw	x12,36(x8)
    4134:	5050                	c.lw	x12,36(x8)
    4136:	5050                	c.lw	x12,36(x8)
    4138:	5050                	c.lw	x12,36(x8)
    413a:	5050                	c.lw	x12,36(x8)
    413c:	5050                	c.lw	x12,36(x8)
    413e:	5050                	c.lw	x12,36(x8)
    4140:	5050                	c.lw	x12,36(x8)
    4142:	5050                	c.lw	x12,36(x8)
    4144:	5050                	c.lw	x12,36(x8)
    4146:	5050                	c.lw	x12,36(x8)
    4148:	5050                	c.lw	x12,36(x8)
    414a:	5050                	c.lw	x12,36(x8)
    414c:	5050                	c.lw	x12,36(x8)
    414e:	5050                	c.lw	x12,36(x8)
    4150:	5050                	c.lw	x12,36(x8)
    4152:	5050                	c.lw	x12,36(x8)
    4154:	5050                	c.lw	x12,36(x8)
    4156:	5050                	c.lw	x12,36(x8)
    4158:	5050                	c.lw	x12,36(x8)
    415a:	5050                	c.lw	x12,36(x8)
    415c:	5050                	c.lw	x12,36(x8)
    415e:	5050                	c.lw	x12,36(x8)
    4160:	5050                	c.lw	x12,36(x8)
    4162:	5050                	c.lw	x12,36(x8)
    4164:	5050                	c.lw	x12,36(x8)
    4166:	5050                	c.lw	x12,36(x8)
    4168:	5050                	c.lw	x12,36(x8)
    416a:	5050                	c.lw	x12,36(x8)
    416c:	5050                	c.lw	x12,36(x8)
    416e:	5050                	c.lw	x12,36(x8)
    4170:	5050                	c.lw	x12,36(x8)
    4172:	5050                	c.lw	x12,36(x8)
    4174:	5050                	c.lw	x12,36(x8)
    4176:	5050                	c.lw	x12,36(x8)
    4178:	5050                	c.lw	x12,36(x8)
    417a:	5050                	c.lw	x12,36(x8)
    417c:	5050                	c.lw	x12,36(x8)
    417e:	0050                	c.addi4spn	x12,x2,4
    4180:	4f41                	c.li	x30,16
    4182:	0000                	c.unimp
    4184:	7200                	c.ld	x8,32(x12)
    4186:	7369                	c.lui	x6,0xffffa
    4188:	01007663          	bgeu	x0,x16,0x4194
    418c:	0045                	c.addi	x0,17
    418e:	0000                	c.unimp
    4190:	7205                	c.lui	x4,0xfffe1
    4192:	3676                	c.fldsp	f12,376(x2)
    4194:	6934                	c.ld	x13,80(x10)
    4196:	7032                	.insn	2, 0x7032
    4198:	5f31                	c.li	x30,-20
    419a:	326d                	c.addiw	x4,-5 # 0xfffffffffffe0ffb
    419c:	3070                	c.fld	f12,224(x8)
    419e:	615f 7032 5f31      	.insn	6, 0x5f317032615f
    41a4:	3266                	c.fldsp	f4,120(x2)
    41a6:	3270                	c.fld	f12,224(x12)
    41a8:	645f 7032 5f32      	.insn	6, 0x5f327032645f
    41ae:	697a                	c.ldsp	x18,408(x2)
    41b0:	32727363          	bgeu	x4,x7,0x44d6
    41b4:	3070                	c.fld	f12,224(x8)
    41b6:	7a5f 6669 6e65      	.insn	6, 0x6e6566697a5f
    41bc:	32696563          	bltu	x18,x6,0x44e6
    41c0:	3070                	c.fld	f12,224(x8)
    41c2:	7a5f 6d6d 6c75      	.insn	6, 0x6c756d6d7a5f
    41c8:	7031                	c.lui	x0,0xfffec
    41ca:	0030                	c.addi4spn	x12,x2,8
    41cc:	0108                	c.addi4spn	x10,x2,128
    41ce:	0b0a                	c.slli	x22,0x2
	...
    41ec:	00010003          	lb	x0,0(x2)
    41f0:	0000                	c.unimp
    41f2:	8000                	.insn	2, 0x8000
	...
    4204:	00020003          	lb	x0,0(x4) # 0x0
    4208:	2000                	c.fld	f8,0(x8)
    420a:	8000                	.insn	2, 0x8000
	...
    421c:	00030003          	lb	x0,0(x6) # 0xffffffffffffa000
    4220:	3000                	c.fld	f8,32(x8)
    4222:	8000                	.insn	2, 0x8000
	...
    4234:	00040003          	lb	x0,0(x8)
	...
    4248:	0001                	c.addi	x0,0
    424a:	0000                	c.unimp
    424c:	0004                	.insn	2, 0x0004
    424e:	fff1                	c.bnez	x15,0x422a
	...
    4260:	000c                	.insn	2, 0x000c
    4262:	0000                	c.unimp
    4264:	0000                	c.unimp
    4266:	0001                	c.addi	x0,0
    4268:	0000                	c.unimp
    426a:	8000                	.insn	2, 0x8000
	...
    4278:	0049                	c.addi	x0,18
    427a:	0000                	c.unimp
    427c:	0000                	c.unimp
    427e:	0001                	c.addi	x0,0
    4280:	0050                	c.addi4spn	x12,x2,4
    4282:	8000                	.insn	2, 0x8000
	...
    4290:	0056                	c.slli	x0,0x15
    4292:	0000                	c.unimp
    4294:	0000                	c.unimp
    4296:	0001                	c.addi	x0,0
    4298:	0004                	.insn	2, 0x0004
    429a:	8000                	.insn	2, 0x8000
	...
    42a8:	0062                	c.slli	x0,0x18
    42aa:	0000                	c.unimp
    42ac:	0000                	c.unimp
    42ae:	0001                	c.addi	x0,0
    42b0:	003c                	c.addi4spn	x15,x2,8
    42b2:	8000                	.insn	2, 0x8000
	...
    42c0:	0000006f          	jal	x0,0x42c0
    42c4:	0000                	c.unimp
    42c6:	0001                	c.addi	x0,0
    42c8:	0038                	c.addi4spn	x14,x2,8
    42ca:	8000                	.insn	2, 0x8000
	...
    42d8:	0080                	c.addi4spn	x8,x2,64
    42da:	0000                	c.unimp
    42dc:	0000                	c.unimp
    42de:	0001                	c.addi	x0,0
    42e0:	0038                	c.addi4spn	x14,x2,8
    42e2:	8000                	.insn	2, 0x8000
	...
    42f0:	0090                	c.addi4spn	x12,x2,64
    42f2:	0000                	c.unimp
    42f4:	0000                	c.unimp
    42f6:	30000003          	lb	x0,768(x0) # 0x300
    42fa:	8000                	.insn	2, 0x8000
	...
    4308:	0095                	c.addi	x1,5
    430a:	0000                	c.unimp
    430c:	0000                	c.unimp
    430e:	0001                	c.addi	x0,0
    4310:	1e08                	c.addi4spn	x10,x2,816
    4312:	8000                	.insn	2, 0x8000
	...
    4320:	009a                	c.slli	x1,0x6
    4322:	0000                	c.unimp
    4324:	0000                	c.unimp
    4326:	0001                	c.addi	x0,0
    4328:	1e24                	c.addi4spn	x9,x2,824
    432a:	8000                	.insn	2, 0x8000
	...
    4338:	009f 0000 0010      	.insn	6, 0x00100000009f
    433e:	31800003          	lb	x0,792(x0) # 0x318
    4342:	8000                	.insn	2, 0x8000
	...
    4350:	00ad                	c.addi	x1,11
    4352:	0000                	c.unimp
    4354:	0010                	.insn	2, 0x0010
    4356:	30000003          	lb	x0,768(x0) # 0x300
    435a:	8000                	.insn	2, 0x8000
	...
    4368:	00bd                	c.addi	x1,15
    436a:	0000                	c.unimp
    436c:	0010                	.insn	2, 0x0010
    436e:	0001                	c.addi	x0,0
    4370:	0000                	c.unimp
    4372:	8000                	.insn	2, 0x8000
	...
    4380:	00c4                	c.addi4spn	x9,x2,68
    4382:	0000                	c.unimp
    4384:	0010                	.insn	2, 0x0010
    4386:	31800003          	lb	x0,792(x0) # 0x318
    438a:	8000                	.insn	2, 0x8000
	...
    4398:	00c9                	c.addi	x1,18
    439a:	0000                	c.unimp
    439c:	0010                	.insn	2, 0x0010
    439e:	0002                	c.slli64	x0
    43a0:	2040                	c.fld	f8,128(x8)
    43a2:	8000                	.insn	2, 0x8000
    43a4:	0000                	c.unimp
    43a6:	0000                	c.unimp
    43a8:	0008                	.insn	2, 0x0008
    43aa:	0000                	c.unimp
    43ac:	0000                	c.unimp
    43ae:	0000                	c.unimp
    43b0:	0068                	c.addi4spn	x10,x2,12
    43b2:	0000                	c.unimp
    43b4:	0010                	.insn	2, 0x0010
    43b6:	0002                	c.slli64	x0
    43b8:	2000                	c.fld	f8,0(x8)
    43ba:	8000                	.insn	2, 0x8000
    43bc:	0000                	c.unimp
    43be:	0000                	c.unimp
    43c0:	0008                	.insn	2, 0x0008
    43c2:	0000                	c.unimp
    43c4:	0000                	c.unimp
    43c6:	0000                	c.unimp
    43c8:	6300                	c.ld	x8,0(x14)
    43ca:	514f6663          	bltu	x30,x20,0x48d6
    43ce:	6f30                	c.ld	x12,88(x14)
    43d0:	2e5a                	c.fldsp	f28,400(x2)
    43d2:	7824006f          	jal	x0,0x44b54
    43d6:	7672                	c.ldsp	x12,312(x2)
    43d8:	3436                	c.fldsp	f8,360(x2)
    43da:	3269                	c.addiw	x4,-6 # 0xfffffffffffffffa
    43dc:	3170                	c.fld	f12,224(x10)
    43de:	6d5f 7032 5f30      	.insn	6, 0x5f3070326d5f
    43e4:	3261                	c.addiw	x4,-8 # 0xfffffffffffffff8
    43e6:	3170                	c.fld	f12,224(x10)
    43e8:	665f 7032 5f32      	.insn	6, 0x5f327032665f
    43ee:	3264                	c.fld	f9,224(x12)
    43f0:	3270                	c.fld	f12,224(x12)
    43f2:	7a5f 6369 7273      	.insn	6, 0x727363697a5f
    43f8:	7032                	.insn	2, 0x7032
    43fa:	5f30                	c.lw	x12,120(x14)
    43fc:	697a                	c.ldsp	x18,408(x2)
    43fe:	6566                	c.ldsp	x10,88(x2)
    4400:	636e                	c.ldsp	x6,216(x2)
    4402:	6965                	c.lui	x18,0x19
    4404:	7032                	.insn	2, 0x7032
    4406:	5f30                	c.lw	x12,120(x14)
    4408:	6d7a                	c.ldsp	x26,408(x2)
    440a:	756d                	c.lui	x10,0xffffb
    440c:	316c                	c.fld	f11,224(x10)
    440e:	3070                	c.fld	f12,224(x8)
    4410:	7200                	c.ld	x8,32(x12)
    4412:	7365                	c.lui	x6,0xffff9
    4414:	7465                	c.lui	x8,0xffff9
    4416:	765f 6365 6f74      	.insn	6, 0x6f746365765f
    441c:	0072                	c.slli	x0,0x1c
    441e:	7274                	c.ld	x13,224(x12)
    4420:	7061                	c.lui	x0,0xffff8
    4422:	765f 6365 6f74      	.insn	6, 0x6f746365765f
    4428:	0072                	c.slli	x0,0x1c
    442a:	74697277          	.insn	4, 0x74697277
    442e:	5f65                	c.li	x30,-7
    4430:	6f74                	c.ld	x13,216(x14)
    4432:	6f68                	c.ld	x10,216(x14)
    4434:	68007473          	csrrci	x8,hgatp,0
    4438:	6e61                	c.lui	x28,0x18
    443a:	6c64                	c.ld	x9,216(x8)
    443c:	5f65                	c.li	x30,-7
    443e:	7865                	c.lui	x16,0xffff9
    4440:	74706563          	bltu	x0,x7,0x4b8a
    4444:	6f69                	c.lui	x30,0x1a
    4446:	006e                	c.slli	x0,0x1b
    4448:	6568746f          	jal	x8,0x8ba9e
    444c:	5f72                	c.lwsp	x30,60(x2)
    444e:	7865                	c.lui	x16,0xffff9
    4450:	74706563          	bltu	x0,x7,0x4b9a
    4454:	6f69                	c.lui	x30,0x1a
    4456:	006e                	c.slli	x0,0x1b
    4458:	6164                	c.ld	x9,192(x10)
    445a:	6174                	c.ld	x13,192(x10)
    445c:	6600                	c.ld	x8,8(x12)
    445e:	6961                	c.lui	x18,0x18
    4460:	006c                	c.addi4spn	x11,x2,12
    4462:	6170                	c.ld	x12,192(x10)
    4464:	65007373          	csrrci	x6,0x650,0
    4468:	646e                	c.ldsp	x8,216(x2)
    446a:	735f 6769 616e      	.insn	6, 0x616e6769735f
    4470:	7574                	c.ld	x13,232(x10)
    4472:	6572                	c.ldsp	x10,280(x2)
    4474:	6200                	c.ld	x8,0(x12)
    4476:	6765                	c.lui	x14,0x19
    4478:	6e69                	c.lui	x28,0x1a
    447a:	735f 6769 616e      	.insn	6, 0x616e6769735f
    4480:	7574                	c.ld	x13,232(x10)
    4482:	6572                	c.ldsp	x10,280(x2)
    4484:	5f00                	c.lw	x8,56(x14)
    4486:	72617473          	csrrci	x8,mhpmevent6h,2
    448a:	0074                	c.addi4spn	x13,x2,12
    448c:	655f 646e 6600      	.insn	6, 0x6600646e655f
    4492:	6f72                	c.ldsp	x30,280(x2)
    4494:	686d                	c.lui	x16,0x1b
    4496:	0074736f          	jal	x6,0x4bc9c
    449a:	2e00                	c.fld	f8,24(x12)
    449c:	746d7973          	csrrci	x18,0x746,26
    44a0:	6261                	c.lui	x4,0x18
    44a2:	2e00                	c.fld	f8,24(x12)
    44a4:	74727473          	csrrci	x8,mseccfg,4
    44a8:	6261                	c.lui	x4,0x18
    44aa:	2e00                	c.fld	f8,24(x12)
    44ac:	74736873          	csrrsi	x16,mseccfg,6
    44b0:	7472                	c.ldsp	x8,312(x2)
    44b2:	6261                	c.lui	x4,0x18
    44b4:	2e00                	c.fld	f8,24(x12)
    44b6:	6574                	c.ld	x13,200(x10)
    44b8:	7478                	c.ld	x14,232(x8)
    44ba:	692e                	c.ldsp	x18,200(x2)
    44bc:	696e                	c.ldsp	x18,216(x2)
    44be:	0074                	c.addi4spn	x13,x2,12
    44c0:	742e                	c.ldsp	x8,232(x2)
    44c2:	736f686f          	jal	x16,0xfabf8
    44c6:	0074                	c.addi4spn	x13,x2,12
    44c8:	642e                	c.ldsp	x8,200(x2)
    44ca:	7461                	c.lui	x8,0xffff8
    44cc:	0061                	c.addi	x0,24
    44ce:	722e                	c.ldsp	x4,232(x2)
    44d0:	7369                	c.lui	x6,0xffffa
    44d2:	612e7663          	bgeu	x28,x18,0x4ade
    44d6:	7474                	c.ld	x13,232(x8)
    44d8:	6972                	c.ldsp	x18,280(x2)
    44da:	7562                	c.ldsp	x10,56(x2)
    44dc:	6574                	c.ld	x13,200(x10)
    44de:	00000073          	ecall
	...
    451e:	0000                	c.unimp
    4520:	0000001b          	addiw	x0,x0,0
    4524:	0001                	c.addi	x0,0
    4526:	0000                	c.unimp
    4528:	0006                	c.slli	x0,0x1
	...
    4532:	8000                	.insn	2, 0x8000
    4534:	0000                	c.unimp
    4536:	0000                	c.unimp
    4538:	1000                	c.addi4spn	x8,x2,32
    453a:	0000                	c.unimp
    453c:	0000                	c.unimp
    453e:	0000                	c.unimp
    4540:	1e3c                	c.addi4spn	x15,x2,824
	...
    454e:	0000                	c.unimp
    4550:	0040                	c.addi4spn	x8,x2,4
	...
    455e:	0000                	c.unimp
    4560:	0026                	c.slli	x0,0x9
    4562:	0000                	c.unimp
    4564:	0001                	c.addi	x0,0
    4566:	0000                	c.unimp
    4568:	00000003          	lb	x0,0(x0) # 0x0
    456c:	0000                	c.unimp
    456e:	0000                	c.unimp
    4570:	2000                	c.fld	f8,0(x8)
    4572:	8000                	.insn	2, 0x8000
    4574:	0000                	c.unimp
    4576:	0000                	c.unimp
    4578:	3000                	c.fld	f8,32(x8)
    457a:	0000                	c.unimp
    457c:	0000                	c.unimp
    457e:	0000                	c.unimp
    4580:	0048                	c.addi4spn	x10,x2,4
	...
    458e:	0000                	c.unimp
    4590:	0040                	c.addi4spn	x8,x2,4
	...
    459e:	0000                	c.unimp
    45a0:	002e                	c.slli	x0,0xb
    45a2:	0000                	c.unimp
    45a4:	0001                	c.addi	x0,0
    45a6:	0000                	c.unimp
    45a8:	00000003          	lb	x0,0(x0) # 0x0
    45ac:	0000                	c.unimp
    45ae:	0000                	c.unimp
    45b0:	3000                	c.fld	f8,32(x8)
    45b2:	8000                	.insn	2, 0x8000
    45b4:	0000                	c.unimp
    45b6:	0000                	c.unimp
    45b8:	4000                	c.lw	x8,0(x8)
    45ba:	0000                	c.unimp
    45bc:	0000                	c.unimp
    45be:	0000                	c.unimp
    45c0:	0180                	c.addi4spn	x8,x2,192
	...
    45ce:	0000                	c.unimp
    45d0:	0010                	.insn	2, 0x0010
	...
    45de:	0000                	c.unimp
    45e0:	0034                	c.addi4spn	x13,x2,8
    45e2:	0000                	c.unimp
    45e4:	70000003          	lb	x0,1792(x0) # 0x700
	...
    45f8:	4180                	c.lw	x8,0(x11)
    45fa:	0000                	c.unimp
    45fc:	0000                	c.unimp
    45fe:	0000                	c.unimp
    4600:	0050                	c.addi4spn	x12,x2,4
	...
    460e:	0000                	c.unimp
    4610:	0001                	c.addi	x0,0
	...
    461e:	0000                	c.unimp
    4620:	0001                	c.addi	x0,0
    4622:	0000                	c.unimp
    4624:	0002                	c.slli64	x0
	...
    4636:	0000                	c.unimp
    4638:	41d0                	c.lw	x12,4(x11)
    463a:	0000                	c.unimp
    463c:	0000                	c.unimp
    463e:	0000                	c.unimp
    4640:	01f8                	c.addi4spn	x14,x2,204
    4642:	0000                	c.unimp
    4644:	0000                	c.unimp
    4646:	0000                	c.unimp
    4648:	0006                	c.slli	x0,0x1
    464a:	0000                	c.unimp
    464c:	0000000f          	fence	unknown,unknown
    4650:	0008                	.insn	2, 0x0008
    4652:	0000                	c.unimp
    4654:	0000                	c.unimp
    4656:	0000                	c.unimp
    4658:	0018                	.insn	2, 0x0018
    465a:	0000                	c.unimp
    465c:	0000                	c.unimp
    465e:	0000                	c.unimp
    4660:	0009                	c.addi	x0,2
    4662:	0000                	c.unimp
    4664:	00000003          	lb	x0,0(x0) # 0x0
	...
    4678:	43c8                	c.lw	x10,4(x15)
    467a:	0000                	c.unimp
    467c:	0000                	c.unimp
    467e:	0000                	c.unimp
    4680:	00d2                	c.slli	x1,0x14
	...
    468e:	0000                	c.unimp
    4690:	0001                	c.addi	x0,0
	...
    469e:	0000                	c.unimp
    46a0:	0011                	c.addi	x0,4
    46a2:	0000                	c.unimp
    46a4:	00000003          	lb	x0,0(x0) # 0x0
	...
    46b8:	449a                	c.lwsp	x9,132(x2)
    46ba:	0000                	c.unimp
    46bc:	0000                	c.unimp
    46be:	0000                	c.unimp
    46c0:	0046                	c.slli	x0,0x11
	...
    46ce:	0000                	c.unimp
    46d0:	0001                	c.addi	x0,0
	...
