
rvtest/rv64ui-p-sh:     file format binary

Contents of section .data:
 1000 6f000005 732f2034 930f8000 6308ff03  o...s/ 4....c...
 1010 930f9000 6304ff03 930fb000 6300ff03  ....c.......c...
 1020 130f0000 63040f00 67000f00 732f2034  ....c...g...s/ 4
 1030 63540f00 6f004000 93e19153 171f0000  cT..o.@....S....
 1040 23223ffc 171f0000 23200ffc 6ff01fff  #"?.....# ..o...
 1050 93000000 13010000 93010000 13020000  ................
 1060 93020000 13030000 93030000 13040000  ................
 1070 93040000 13050000 93050000 13060000  ................
 1080 93060000 13070000 93070000 13080000  ................
 1090 93080000 13090000 93090000 130a0000  ................
 10a0 930a0000 130b0000 930b0000 130c0000  ................
 10b0 930c0000 130d0000 930d0000 130e0000  ................
 10c0 930e0000 130f0000 930f0000 732540f1  ............s%@.
 10d0 63100500 97020000 93820201 73905230  c...........s.R0
 10e0 73504474 97020000 93820201 73905230  sPDt........s.R0
 10f0 73500018 97020000 93824202 73905230  sP........B.s.R0
 1100 9b021000 93925203 9382f2ff 7390023b  ......R.....s..;
 1110 9302f001 7390023a 73504030 97020000  ....s..:sP@0....
 1120 93824201 73905230 73502030 73503030  ..B.s.R0sP 0sP00
 1130 93010000 97020000 938202ed 73905230  ............s.R0
 1140 13051000 1315f501 635c0500 0f00f00f  ........c\......
 1150 93011000 9308d005 13050000 73000000  ............s...
 1160 93020000 638a0200 73905210 b7b20000  ....c...s.R.....
 1170 9b829210 73902230 73500030 97020000  ....s."0sP.0....
 1180 93824201 73901234 732540f1 73002030  ..B.s..4s%@.s. 0
 1190 93012000 97200000 9380c0e6 1301a00a  .. .. ..........
 11a0 97070000 93874701 23902000 03970000  ......G.#. .....
 11b0 6f008000 13070100 9303a00a 6316774c  o...........c.wL
 11c0 93013000 97200000 9380c0e3 37b1ffff  ..0.. ......7...
 11d0 1b0101a0 97070000 93874701 23912000  ..........G.#. .
 11e0 03972000 6f008000 13070100 b7b3ffff  .. .o...........
 11f0 9b8303a0 631a7748 93014000 97200000  ....c.wH..@.. ..
 1200 938040e0 3711efbe 1b0101aa 97070000  ..@.7...........
 1210 93874701 23922000 03a74000 6f008000  ..G.#. ...@.o...
 1220 13070100 b713efbe 9b8303aa 631e7744  ............c.wD
 1230 93015000 97200000 9380c0dc 37a1ffff  ..P.. ......7...
 1240 1b01a100 97070000 93874701 23932000  ..........G.#. .
 1250 03976000 6f008000 13070100 b7a3ffff  ..`.o...........
 1260 9b83a300 63127742 93016000 97200000  ....c.wB..`.. ..
 1270 938020da 1301a00a 97070000 93874701  .. ...........G.
 1280 239d20fe 0397a0ff 6f008000 13070100  #. .....o.......
 1290 9303a00a 631a773e 93017000 97200000  ....c.w>..p.. ..
 12a0 938020d7 37b1ffff 1b0101a0 97070000  .. .7...........
 12b0 93874701 239e20fe 0397c0ff 6f008000  ..G.#. .....o...
 12c0 13070100 b7b3ffff 9b8303a0 631e773a  ............c.w:
 12d0 93018000 97200000 9380a0d3 37110000  ..... ......7...
 12e0 1b0101aa 97070000 93874701 239f20fe  ..........G.#. .
 12f0 0397e0ff 6f008000 13070100 b7130000  ....o...........
 1300 9b8303aa 63127738 93019000 97200000  ....c.w8..... ..
 1310 938020d0 37a1ffff 1b01a100 97070000  .. .7...........
 1320 93874701 23902000 03970000 6f008000  ..G.#. .....o...
 1330 13070100 b7a3ffff 9b83a300 63167734  ............c.w4
 1340 9301a000 97200000 9380c0cc 37513412  ..... ......7Q4.
 1350 1b018167 138200fe 23102202 83920000  ...g....#.".....
 1360 b7530000 9b838367 63907232 9301b000  .S.....gc.r2....
 1370 97200000 938000ca 37310000 1b018109  . ......71......
 1380 9380b0ff a3932000 17220000 1302a2c8  ...... .."......
 1390 83120200 b7330000 9b838309 6396722e  .....3......c.r.
 13a0 9301c000 13020000 b7d0ffff 9b80d0cd  ................
 13b0 17210000 130101c5 23101100 03170100  .!......#.......
 13c0 b7d3ffff 9b83d3cd 6310772c 13021200  ........c.w,....
 13d0 93022000 e31a52fc 9301d000 13020000  .. ...R.........
 13e0 b7c0ffff 9b80d0cc 17210000 130181c1  .........!......
 13f0 13000000 23111100 03172100 b7c3ffff  ....#.....!.....
 1400 9b83d3cc 63127728 13021200 93022000  ....c.w(...... .
 1410 e31852fc 9301e000 13020000 b7c0ffff  ..R.............
 1420 9b80c0bc 17210000 1301c1bd 13000000  .....!..........
 1430 13000000 23121100 03174100 b7c3ffff  ....#.....A.....
 1440 9b83c3bc 63127724 13021200 93022000  ....c.w$...... .
 1450 e31652fc 9301f000 13020000 b7b0ffff  ..R.............
 1460 9b80c0bb 13000000 17210000 130181b9  .........!......
 1470 23131100 03176100 b7b3ffff 9b83c3bb  #.....a.........
 1480 63147720 13021200 93022000 e31852fc  c.w ...... ...R.
 1490 93010001 13020000 b7b0ffff 9b80b0ab  ................
 14a0 13000000 17210000 1301c1b5 13000000  .....!..........
 14b0 23141100 03178100 b7b3ffff 9b83b3ab  #...............
 14c0 6314771c 13021200 93022000 e31652fc  c.w....... ...R.
 14d0 93011001 13020000 b7e0ffff 9b80b0aa  ................
 14e0 13000000 13000000 17210000 130181b1  .........!......
 14f0 23151100 0317a100 b7e3ffff 9b83b3aa  #...............
 1500 63147718 13021200 93022000 e31652fc  c.w....... ...R.
 1510 93012001 13020000 17210000 130181ae  .. ......!......
 1520 b7200000 9b803023 23101100 03170100  . ....0##.......
 1530 b7230000 9b833323 63187714 13021200  .#....3#c.w.....
 1540 93022000 e31a52fc 93013001 13020000  .. ...R...0.....
 1550 17210000 130101ab b7100000 9b803022  .!............0"
 1560 13000000 23111100 03172100 b7130000  ....#.....!.....
 1570 9b833322 631a7710 13021200 93022000  ..3"c.w....... .
 1580 e31852fc 93014001 13020000 17210000  ..R...@......!..
 1590 130141a7 b7100000 9b802012 13000000  ..A....... .....
 15a0 13000000 23121100 03174100 b7130000  ....#.....A.....
 15b0 9b832312 631a770c 13021200 93022000  ..#.c.w....... .
 15c0 e31652fc 93015001 13020000 17210000  ..R...P......!..
 15d0 130141a3 13000000 93002011 23131100  ..A....... .#...
 15e0 03176100 93032011 6310770a 13021200  ..a... .c.w.....
 15f0 93022000 e31c52fc 93016001 13020000  .. ...R...`.....
 1600 17210000 130101a0 13000000 93001001  .!..............
 1610 13000000 23141100 03178100 93031001  ....#...........
 1620 63147706 13021200 93022000 e31a52fc  c.w....... ...R.
 1630 93017001 13020000 17210000 1301819c  ..p......!......
 1640 13000000 13000000 b7300000 9b801000  .........0......
 1650 23151100 0317a100 b7330000 9b831300  #........3......
 1660 63147702 13021200 93022000 e31652fc  c.w....... ...R.
 1670 37c50000 1b05f5ee 97250000 93858598  7........%......
 1680 2393a500 63103002 0f00f00f 63800100  #...c.0.....c...
 1690 93911100 93e11100 9308d005 13850100  ................
 16a0 73000000 0f00f00f 93011000 9308d005  s...............
 16b0 13050000 73000000 731000c0 00000000  ....s...s.......
 16c0 00000000 00000000 00000000 00000000  ................
 16d0 00000000 00000000 00000000 00000000  ................
 16e0 00000000 00000000 00000000 00000000  ................
 16f0 00000000 00000000 00000000 00000000  ................
 1700 00000000 00000000 00000000 00000000  ................
 1710 00000000 00000000 00000000 00000000  ................
 1720 00000000 00000000 00000000 00000000  ................
 1730 00000000 00000000 00000000 00000000  ................
 1740 00000000 00000000 00000000 00000000  ................
 1750 00000000 00000000 00000000 00000000  ................
 1760 00000000 00000000 00000000 00000000  ................
 1770 00000000 00000000 00000000 00000000  ................
 1780 00000000 00000000 00000000 00000000  ................
 1790 00000000 00000000 00000000 00000000  ................
 17a0 00000000 00000000 00000000 00000000  ................
 17b0 00000000 00000000 00000000 00000000  ................
 17c0 00000000 00000000 00000000 00000000  ................
 17d0 00000000 00000000 00000000 00000000  ................
 17e0 00000000 00000000 00000000 00000000  ................
 17f0 00000000 00000000 00000000 00000000  ................
 1800 00000000 00000000 00000000 00000000  ................
 1810 00000000 00000000 00000000 00000000  ................
 1820 00000000 00000000 00000000 00000000  ................
 1830 00000000 00000000 00000000 00000000  ................
 1840 00000000 00000000 00000000 00000000  ................
 1850 00000000 00000000 00000000 00000000  ................
 1860 00000000 00000000 00000000 00000000  ................
 1870 00000000 00000000 00000000 00000000  ................
 1880 00000000 00000000 00000000 00000000  ................
 1890 00000000 00000000 00000000 00000000  ................
 18a0 00000000 00000000 00000000 00000000  ................
 18b0 00000000 00000000 00000000 00000000  ................
 18c0 00000000 00000000 00000000 00000000  ................
 18d0 00000000 00000000 00000000 00000000  ................
 18e0 00000000 00000000 00000000 00000000  ................
 18f0 00000000 00000000 00000000 00000000  ................
 1900 00000000 00000000 00000000 00000000  ................
 1910 00000000 00000000 00000000 00000000  ................
 1920 00000000 00000000 00000000 00000000  ................
 1930 00000000 00000000 00000000 00000000  ................
 1940 00000000 00000000 00000000 00000000  ................
 1950 00000000 00000000 00000000 00000000  ................
 1960 00000000 00000000 00000000 00000000  ................
 1970 00000000 00000000 00000000 00000000  ................
 1980 00000000 00000000 00000000 00000000  ................
 1990 00000000 00000000 00000000 00000000  ................
 19a0 00000000 00000000 00000000 00000000  ................
 19b0 00000000 00000000 00000000 00000000  ................
 19c0 00000000 00000000 00000000 00000000  ................
 19d0 00000000 00000000 00000000 00000000  ................
 19e0 00000000 00000000 00000000 00000000  ................
 19f0 00000000 00000000 00000000 00000000  ................
 1a00 00000000 00000000 00000000 00000000  ................
 1a10 00000000 00000000 00000000 00000000  ................
 1a20 00000000 00000000 00000000 00000000  ................
 1a30 00000000 00000000 00000000 00000000  ................
 1a40 00000000 00000000 00000000 00000000  ................
 1a50 00000000 00000000 00000000 00000000  ................
 1a60 00000000 00000000 00000000 00000000  ................
 1a70 00000000 00000000 00000000 00000000  ................
 1a80 00000000 00000000 00000000 00000000  ................
 1a90 00000000 00000000 00000000 00000000  ................
 1aa0 00000000 00000000 00000000 00000000  ................
 1ab0 00000000 00000000 00000000 00000000  ................
 1ac0 00000000 00000000 00000000 00000000  ................
 1ad0 00000000 00000000 00000000 00000000  ................
 1ae0 00000000 00000000 00000000 00000000  ................
 1af0 00000000 00000000 00000000 00000000  ................
 1b00 00000000 00000000 00000000 00000000  ................
 1b10 00000000 00000000 00000000 00000000  ................
 1b20 00000000 00000000 00000000 00000000  ................
 1b30 00000000 00000000 00000000 00000000  ................
 1b40 00000000 00000000 00000000 00000000  ................
 1b50 00000000 00000000 00000000 00000000  ................
 1b60 00000000 00000000 00000000 00000000  ................
 1b70 00000000 00000000 00000000 00000000  ................
 1b80 00000000 00000000 00000000 00000000  ................
 1b90 00000000 00000000 00000000 00000000  ................
 1ba0 00000000 00000000 00000000 00000000  ................
 1bb0 00000000 00000000 00000000 00000000  ................
 1bc0 00000000 00000000 00000000 00000000  ................
 1bd0 00000000 00000000 00000000 00000000  ................
 1be0 00000000 00000000 00000000 00000000  ................
 1bf0 00000000 00000000 00000000 00000000  ................
 1c00 00000000 00000000 00000000 00000000  ................
 1c10 00000000 00000000 00000000 00000000  ................
 1c20 00000000 00000000 00000000 00000000  ................
 1c30 00000000 00000000 00000000 00000000  ................
 1c40 00000000 00000000 00000000 00000000  ................
 1c50 00000000 00000000 00000000 00000000  ................
 1c60 00000000 00000000 00000000 00000000  ................
 1c70 00000000 00000000 00000000 00000000  ................
 1c80 00000000 00000000 00000000 00000000  ................
 1c90 00000000 00000000 00000000 00000000  ................
 1ca0 00000000 00000000 00000000 00000000  ................
 1cb0 00000000 00000000 00000000 00000000  ................
 1cc0 00000000 00000000 00000000 00000000  ................
 1cd0 00000000 00000000 00000000 00000000  ................
 1ce0 00000000 00000000 00000000 00000000  ................
 1cf0 00000000 00000000 00000000 00000000  ................
 1d00 00000000 00000000 00000000 00000000  ................
 1d10 00000000 00000000 00000000 00000000  ................
 1d20 00000000 00000000 00000000 00000000  ................
 1d30 00000000 00000000 00000000 00000000  ................
 1d40 00000000 00000000 00000000 00000000  ................
 1d50 00000000 00000000 00000000 00000000  ................
 1d60 00000000 00000000 00000000 00000000  ................
 1d70 00000000 00000000 00000000 00000000  ................
 1d80 00000000 00000000 00000000 00000000  ................
 1d90 00000000 00000000 00000000 00000000  ................
 1da0 00000000 00000000 00000000 00000000  ................
 1db0 00000000 00000000 00000000 00000000  ................
 1dc0 00000000 00000000 00000000 00000000  ................
 1dd0 00000000 00000000 00000000 00000000  ................
 1de0 00000000 00000000 00000000 00000000  ................
 1df0 00000000 00000000 00000000 00000000  ................
 1e00 00000000 00000000 00000000 00000000  ................
 1e10 00000000 00000000 00000000 00000000  ................
 1e20 00000000 00000000 00000000 00000000  ................
 1e30 00000000 00000000 00000000 00000000  ................
 1e40 00000000 00000000 00000000 00000000  ................
 1e50 00000000 00000000 00000000 00000000  ................
 1e60 00000000 00000000 00000000 00000000  ................
 1e70 00000000 00000000 00000000 00000000  ................
 1e80 00000000 00000000 00000000 00000000  ................
 1e90 00000000 00000000 00000000 00000000  ................
 1ea0 00000000 00000000 00000000 00000000  ................
 1eb0 00000000 00000000 00000000 00000000  ................
 1ec0 00000000 00000000 00000000 00000000  ................
 1ed0 00000000 00000000 00000000 00000000  ................
 1ee0 00000000 00000000 00000000 00000000  ................
 1ef0 00000000 00000000 00000000 00000000  ................
 1f00 00000000 00000000 00000000 00000000  ................
 1f10 00000000 00000000 00000000 00000000  ................
 1f20 00000000 00000000 00000000 00000000  ................
 1f30 00000000 00000000 00000000 00000000  ................
 1f40 00000000 00000000 00000000 00000000  ................
 1f50 00000000 00000000 00000000 00000000  ................
 1f60 00000000 00000000 00000000 00000000  ................
 1f70 00000000 00000000 00000000 00000000  ................
 1f80 00000000 00000000 00000000 00000000  ................
 1f90 00000000 00000000 00000000 00000000  ................
 1fa0 00000000 00000000 00000000 00000000  ................
 1fb0 00000000 00000000 00000000 00000000  ................
 1fc0 00000000 00000000 00000000 00000000  ................
 1fd0 00000000 00000000 00000000 00000000  ................
 1fe0 00000000 00000000 00000000 00000000  ................
 1ff0 00000000 00000000 00000000 00000000  ................
 2000 00000000 00000000 00000000 00000000  ................
 2010 00000000 00000000 00000000 00000000  ................
 2020 00000000 00000000 00000000 00000000  ................
 2030 00000000 00000000 00000000 00000000  ................
 2040 00000000 00000000 00000000 00000000  ................
 2050 00000000 00000000 00000000 00000000  ................
 2060 00000000 00000000 00000000 00000000  ................
 2070 00000000 00000000 00000000 00000000  ................
 2080 00000000 00000000 00000000 00000000  ................
 2090 00000000 00000000 00000000 00000000  ................
 20a0 00000000 00000000 00000000 00000000  ................
 20b0 00000000 00000000 00000000 00000000  ................
 20c0 00000000 00000000 00000000 00000000  ................
 20d0 00000000 00000000 00000000 00000000  ................
 20e0 00000000 00000000 00000000 00000000  ................
 20f0 00000000 00000000 00000000 00000000  ................
 2100 00000000 00000000 00000000 00000000  ................
 2110 00000000 00000000 00000000 00000000  ................
 2120 00000000 00000000 00000000 00000000  ................
 2130 00000000 00000000 00000000 00000000  ................
 2140 00000000 00000000 00000000 00000000  ................
 2150 00000000 00000000 00000000 00000000  ................
 2160 00000000 00000000 00000000 00000000  ................
 2170 00000000 00000000 00000000 00000000  ................
 2180 00000000 00000000 00000000 00000000  ................
 2190 00000000 00000000 00000000 00000000  ................
 21a0 00000000 00000000 00000000 00000000  ................
 21b0 00000000 00000000 00000000 00000000  ................
 21c0 00000000 00000000 00000000 00000000  ................
 21d0 00000000 00000000 00000000 00000000  ................
 21e0 00000000 00000000 00000000 00000000  ................
 21f0 00000000 00000000 00000000 00000000  ................
 2200 00000000 00000000 00000000 00000000  ................
 2210 00000000 00000000 00000000 00000000  ................
 2220 00000000 00000000 00000000 00000000  ................
 2230 00000000 00000000 00000000 00000000  ................
 2240 00000000 00000000 00000000 00000000  ................
 2250 00000000 00000000 00000000 00000000  ................
 2260 00000000 00000000 00000000 00000000  ................
 2270 00000000 00000000 00000000 00000000  ................
 2280 00000000 00000000 00000000 00000000  ................
 2290 00000000 00000000 00000000 00000000  ................
 22a0 00000000 00000000 00000000 00000000  ................
 22b0 00000000 00000000 00000000 00000000  ................
 22c0 00000000 00000000 00000000 00000000  ................
 22d0 00000000 00000000 00000000 00000000  ................
 22e0 00000000 00000000 00000000 00000000  ................
 22f0 00000000 00000000 00000000 00000000  ................
 2300 00000000 00000000 00000000 00000000  ................
 2310 00000000 00000000 00000000 00000000  ................
 2320 00000000 00000000 00000000 00000000  ................
 2330 00000000 00000000 00000000 00000000  ................
 2340 00000000 00000000 00000000 00000000  ................
 2350 00000000 00000000 00000000 00000000  ................
 2360 00000000 00000000 00000000 00000000  ................
 2370 00000000 00000000 00000000 00000000  ................
 2380 00000000 00000000 00000000 00000000  ................
 2390 00000000 00000000 00000000 00000000  ................
 23a0 00000000 00000000 00000000 00000000  ................
 23b0 00000000 00000000 00000000 00000000  ................
 23c0 00000000 00000000 00000000 00000000  ................
 23d0 00000000 00000000 00000000 00000000  ................
 23e0 00000000 00000000 00000000 00000000  ................
 23f0 00000000 00000000 00000000 00000000  ................
 2400 00000000 00000000 00000000 00000000  ................
 2410 00000000 00000000 00000000 00000000  ................
 2420 00000000 00000000 00000000 00000000  ................
 2430 00000000 00000000 00000000 00000000  ................
 2440 00000000 00000000 00000000 00000000  ................
 2450 00000000 00000000 00000000 00000000  ................
 2460 00000000 00000000 00000000 00000000  ................
 2470 00000000 00000000 00000000 00000000  ................
 2480 00000000 00000000 00000000 00000000  ................
 2490 00000000 00000000 00000000 00000000  ................
 24a0 00000000 00000000 00000000 00000000  ................
 24b0 00000000 00000000 00000000 00000000  ................
 24c0 00000000 00000000 00000000 00000000  ................
 24d0 00000000 00000000 00000000 00000000  ................
 24e0 00000000 00000000 00000000 00000000  ................
 24f0 00000000 00000000 00000000 00000000  ................
 2500 00000000 00000000 00000000 00000000  ................
 2510 00000000 00000000 00000000 00000000  ................
 2520 00000000 00000000 00000000 00000000  ................
 2530 00000000 00000000 00000000 00000000  ................
 2540 00000000 00000000 00000000 00000000  ................
 2550 00000000 00000000 00000000 00000000  ................
 2560 00000000 00000000 00000000 00000000  ................
 2570 00000000 00000000 00000000 00000000  ................
 2580 00000000 00000000 00000000 00000000  ................
 2590 00000000 00000000 00000000 00000000  ................
 25a0 00000000 00000000 00000000 00000000  ................
 25b0 00000000 00000000 00000000 00000000  ................
 25c0 00000000 00000000 00000000 00000000  ................
 25d0 00000000 00000000 00000000 00000000  ................
 25e0 00000000 00000000 00000000 00000000  ................
 25f0 00000000 00000000 00000000 00000000  ................
 2600 00000000 00000000 00000000 00000000  ................
 2610 00000000 00000000 00000000 00000000  ................
 2620 00000000 00000000 00000000 00000000  ................
 2630 00000000 00000000 00000000 00000000  ................
 2640 00000000 00000000 00000000 00000000  ................
 2650 00000000 00000000 00000000 00000000  ................
 2660 00000000 00000000 00000000 00000000  ................
 2670 00000000 00000000 00000000 00000000  ................
 2680 00000000 00000000 00000000 00000000  ................
 2690 00000000 00000000 00000000 00000000  ................
 26a0 00000000 00000000 00000000 00000000  ................
 26b0 00000000 00000000 00000000 00000000  ................
 26c0 00000000 00000000 00000000 00000000  ................
 26d0 00000000 00000000 00000000 00000000  ................
 26e0 00000000 00000000 00000000 00000000  ................
 26f0 00000000 00000000 00000000 00000000  ................
 2700 00000000 00000000 00000000 00000000  ................
 2710 00000000 00000000 00000000 00000000  ................
 2720 00000000 00000000 00000000 00000000  ................
 2730 00000000 00000000 00000000 00000000  ................
 2740 00000000 00000000 00000000 00000000  ................
 2750 00000000 00000000 00000000 00000000  ................
 2760 00000000 00000000 00000000 00000000  ................
 2770 00000000 00000000 00000000 00000000  ................
 2780 00000000 00000000 00000000 00000000  ................
 2790 00000000 00000000 00000000 00000000  ................
 27a0 00000000 00000000 00000000 00000000  ................
 27b0 00000000 00000000 00000000 00000000  ................
 27c0 00000000 00000000 00000000 00000000  ................
 27d0 00000000 00000000 00000000 00000000  ................
 27e0 00000000 00000000 00000000 00000000  ................
 27f0 00000000 00000000 00000000 00000000  ................
 2800 00000000 00000000 00000000 00000000  ................
 2810 00000000 00000000 00000000 00000000  ................
 2820 00000000 00000000 00000000 00000000  ................
 2830 00000000 00000000 00000000 00000000  ................
 2840 00000000 00000000 00000000 00000000  ................
 2850 00000000 00000000 00000000 00000000  ................
 2860 00000000 00000000 00000000 00000000  ................
 2870 00000000 00000000 00000000 00000000  ................
 2880 00000000 00000000 00000000 00000000  ................
 2890 00000000 00000000 00000000 00000000  ................
 28a0 00000000 00000000 00000000 00000000  ................
 28b0 00000000 00000000 00000000 00000000  ................
 28c0 00000000 00000000 00000000 00000000  ................
 28d0 00000000 00000000 00000000 00000000  ................
 28e0 00000000 00000000 00000000 00000000  ................
 28f0 00000000 00000000 00000000 00000000  ................
 2900 00000000 00000000 00000000 00000000  ................
 2910 00000000 00000000 00000000 00000000  ................
 2920 00000000 00000000 00000000 00000000  ................
 2930 00000000 00000000 00000000 00000000  ................
 2940 00000000 00000000 00000000 00000000  ................
 2950 00000000 00000000 00000000 00000000  ................
 2960 00000000 00000000 00000000 00000000  ................
 2970 00000000 00000000 00000000 00000000  ................
 2980 00000000 00000000 00000000 00000000  ................
 2990 00000000 00000000 00000000 00000000  ................
 29a0 00000000 00000000 00000000 00000000  ................
 29b0 00000000 00000000 00000000 00000000  ................
 29c0 00000000 00000000 00000000 00000000  ................
 29d0 00000000 00000000 00000000 00000000  ................
 29e0 00000000 00000000 00000000 00000000  ................
 29f0 00000000 00000000 00000000 00000000  ................
 2a00 00000000 00000000 00000000 00000000  ................
 2a10 00000000 00000000 00000000 00000000  ................
 2a20 00000000 00000000 00000000 00000000  ................
 2a30 00000000 00000000 00000000 00000000  ................
 2a40 00000000 00000000 00000000 00000000  ................
 2a50 00000000 00000000 00000000 00000000  ................
 2a60 00000000 00000000 00000000 00000000  ................
 2a70 00000000 00000000 00000000 00000000  ................
 2a80 00000000 00000000 00000000 00000000  ................
 2a90 00000000 00000000 00000000 00000000  ................
 2aa0 00000000 00000000 00000000 00000000  ................
 2ab0 00000000 00000000 00000000 00000000  ................
 2ac0 00000000 00000000 00000000 00000000  ................
 2ad0 00000000 00000000 00000000 00000000  ................
 2ae0 00000000 00000000 00000000 00000000  ................
 2af0 00000000 00000000 00000000 00000000  ................
 2b00 00000000 00000000 00000000 00000000  ................
 2b10 00000000 00000000 00000000 00000000  ................
 2b20 00000000 00000000 00000000 00000000  ................
 2b30 00000000 00000000 00000000 00000000  ................
 2b40 00000000 00000000 00000000 00000000  ................
 2b50 00000000 00000000 00000000 00000000  ................
 2b60 00000000 00000000 00000000 00000000  ................
 2b70 00000000 00000000 00000000 00000000  ................
 2b80 00000000 00000000 00000000 00000000  ................
 2b90 00000000 00000000 00000000 00000000  ................
 2ba0 00000000 00000000 00000000 00000000  ................
 2bb0 00000000 00000000 00000000 00000000  ................
 2bc0 00000000 00000000 00000000 00000000  ................
 2bd0 00000000 00000000 00000000 00000000  ................
 2be0 00000000 00000000 00000000 00000000  ................
 2bf0 00000000 00000000 00000000 00000000  ................
 2c00 00000000 00000000 00000000 00000000  ................
 2c10 00000000 00000000 00000000 00000000  ................
 2c20 00000000 00000000 00000000 00000000  ................
 2c30 00000000 00000000 00000000 00000000  ................
 2c40 00000000 00000000 00000000 00000000  ................
 2c50 00000000 00000000 00000000 00000000  ................
 2c60 00000000 00000000 00000000 00000000  ................
 2c70 00000000 00000000 00000000 00000000  ................
 2c80 00000000 00000000 00000000 00000000  ................
 2c90 00000000 00000000 00000000 00000000  ................
 2ca0 00000000 00000000 00000000 00000000  ................
 2cb0 00000000 00000000 00000000 00000000  ................
 2cc0 00000000 00000000 00000000 00000000  ................
 2cd0 00000000 00000000 00000000 00000000  ................
 2ce0 00000000 00000000 00000000 00000000  ................
 2cf0 00000000 00000000 00000000 00000000  ................
 2d00 00000000 00000000 00000000 00000000  ................
 2d10 00000000 00000000 00000000 00000000  ................
 2d20 00000000 00000000 00000000 00000000  ................
 2d30 00000000 00000000 00000000 00000000  ................
 2d40 00000000 00000000 00000000 00000000  ................
 2d50 00000000 00000000 00000000 00000000  ................
 2d60 00000000 00000000 00000000 00000000  ................
 2d70 00000000 00000000 00000000 00000000  ................
 2d80 00000000 00000000 00000000 00000000  ................
 2d90 00000000 00000000 00000000 00000000  ................
 2da0 00000000 00000000 00000000 00000000  ................
 2db0 00000000 00000000 00000000 00000000  ................
 2dc0 00000000 00000000 00000000 00000000  ................
 2dd0 00000000 00000000 00000000 00000000  ................
 2de0 00000000 00000000 00000000 00000000  ................
 2df0 00000000 00000000 00000000 00000000  ................
 2e00 00000000 00000000 00000000 00000000  ................
 2e10 00000000 00000000 00000000 00000000  ................
 2e20 00000000 00000000 00000000 00000000  ................
 2e30 00000000 00000000 00000000 00000000  ................
 2e40 00000000 00000000 00000000 00000000  ................
 2e50 00000000 00000000 00000000 00000000  ................
 2e60 00000000 00000000 00000000 00000000  ................
 2e70 00000000 00000000 00000000 00000000  ................
 2e80 00000000 00000000 00000000 00000000  ................
 2e90 00000000 00000000 00000000 00000000  ................
 2ea0 00000000 00000000 00000000 00000000  ................
 2eb0 00000000 00000000 00000000 00000000  ................
 2ec0 00000000 00000000 00000000 00000000  ................
 2ed0 00000000 00000000 00000000 00000000  ................
 2ee0 00000000 00000000 00000000 00000000  ................
 2ef0 00000000 00000000 00000000 00000000  ................
 2f00 00000000 00000000 00000000 00000000  ................
 2f10 00000000 00000000 00000000 00000000  ................
 2f20 00000000 00000000 00000000 00000000  ................
 2f30 00000000 00000000 00000000 00000000  ................
 2f40 00000000 00000000 00000000 00000000  ................
 2f50 00000000 00000000 00000000 00000000  ................
 2f60 00000000 00000000 00000000 00000000  ................
 2f70 00000000 00000000 00000000 00000000  ................
 2f80 00000000 00000000 00000000 00000000  ................
 2f90 00000000 00000000 00000000 00000000  ................
 2fa0 00000000 00000000 00000000 00000000  ................
 2fb0 00000000 00000000 00000000 00000000  ................
 2fc0 00000000 00000000 00000000 00000000  ................
 2fd0 00000000 00000000 00000000 00000000  ................
 2fe0 00000000 00000000 00000000 00000000  ................
 2ff0 00000000 00000000 00000000 00000000  ................
 3000 efbeefbe efbeefbe efbeefbe efbeefbe  ................
 3010 efbeefbe 00000000 00000000 00000000  ................
 3020 414f0000 00726973 63760001 45000000  AO...riscv..E...
 3030 05727636 34693270 315f6d32 70305f61  .rv64i2p1_m2p0_a
 3040 3270315f 66327032 5f643270 325f7a69  2p1_f2p2_d2p2_zi
 3050 63737232 70305f7a 6966656e 63656932  csr2p0_zifencei2
 3060 70305f7a 6d6d756c 31703000 08010a0b  p0_zmmul1p0.....

Disassembly of section .data:

0000000000001000 <.data+0x1000>:
    1000:	0500006f          	jal	x0,0x1050
    1004:	34202f73          	csrrs	x30,mcause,x0
    1008:	00800f93          	addi	x31,x0,8
    100c:	03ff0863          	beq	x30,x31,0x103c
    1010:	00900f93          	addi	x31,x0,9
    1014:	03ff0463          	beq	x30,x31,0x103c
    1018:	00b00f93          	addi	x31,x0,11
    101c:	03ff0063          	beq	x30,x31,0x103c
    1020:	00000f13          	addi	x30,x0,0
    1024:	000f0463          	beq	x30,x0,0x102c
    1028:	000f0067          	jalr	x0,0(x30)
    102c:	34202f73          	csrrs	x30,mcause,x0
    1030:	000f5463          	bge	x30,x0,0x1038
    1034:	0040006f          	jal	x0,0x1038
    1038:	5391e193          	ori	x3,x3,1337
    103c:	00001f17          	auipc	x30,0x1
    1040:	fc3f2223          	sw	x3,-60(x30) # 0x2000
    1044:	00001f17          	auipc	x30,0x1
    1048:	fc0f2023          	sw	x0,-64(x30) # 0x2004
    104c:	ff1ff06f          	jal	x0,0x103c
    1050:	00000093          	addi	x1,x0,0
    1054:	00000113          	addi	x2,x0,0
    1058:	00000193          	addi	x3,x0,0
    105c:	00000213          	addi	x4,x0,0
    1060:	00000293          	addi	x5,x0,0
    1064:	00000313          	addi	x6,x0,0
    1068:	00000393          	addi	x7,x0,0
    106c:	00000413          	addi	x8,x0,0
    1070:	00000493          	addi	x9,x0,0
    1074:	00000513          	addi	x10,x0,0
    1078:	00000593          	addi	x11,x0,0
    107c:	00000613          	addi	x12,x0,0
    1080:	00000693          	addi	x13,x0,0
    1084:	00000713          	addi	x14,x0,0
    1088:	00000793          	addi	x15,x0,0
    108c:	00000813          	addi	x16,x0,0
    1090:	00000893          	addi	x17,x0,0
    1094:	00000913          	addi	x18,x0,0
    1098:	00000993          	addi	x19,x0,0
    109c:	00000a13          	addi	x20,x0,0
    10a0:	00000a93          	addi	x21,x0,0
    10a4:	00000b13          	addi	x22,x0,0
    10a8:	00000b93          	addi	x23,x0,0
    10ac:	00000c13          	addi	x24,x0,0
    10b0:	00000c93          	addi	x25,x0,0
    10b4:	00000d13          	addi	x26,x0,0
    10b8:	00000d93          	addi	x27,x0,0
    10bc:	00000e13          	addi	x28,x0,0
    10c0:	00000e93          	addi	x29,x0,0
    10c4:	00000f13          	addi	x30,x0,0
    10c8:	00000f93          	addi	x31,x0,0
    10cc:	f1402573          	csrrs	x10,mhartid,x0
    10d0:	00051063          	bne	x10,x0,0x10d0
    10d4:	00000297          	auipc	x5,0x0
    10d8:	01028293          	addi	x5,x5,16 # 0x10e4
    10dc:	30529073          	csrrw	x0,mtvec,x5
    10e0:	74445073          	csrrwi	x0,0x744,8
    10e4:	00000297          	auipc	x5,0x0
    10e8:	01028293          	addi	x5,x5,16 # 0x10f4
    10ec:	30529073          	csrrw	x0,mtvec,x5
    10f0:	18005073          	csrrwi	x0,satp,0
    10f4:	00000297          	auipc	x5,0x0
    10f8:	02428293          	addi	x5,x5,36 # 0x1118
    10fc:	30529073          	csrrw	x0,mtvec,x5
    1100:	0010029b          	addiw	x5,x0,1
    1104:	03529293          	slli	x5,x5,0x35
    1108:	fff28293          	addi	x5,x5,-1
    110c:	3b029073          	csrrw	x0,pmpaddr0,x5
    1110:	01f00293          	addi	x5,x0,31
    1114:	3a029073          	csrrw	x0,pmpcfg0,x5
    1118:	30405073          	csrrwi	x0,mie,0
    111c:	00000297          	auipc	x5,0x0
    1120:	01428293          	addi	x5,x5,20 # 0x1130
    1124:	30529073          	csrrw	x0,mtvec,x5
    1128:	30205073          	csrrwi	x0,medeleg,0
    112c:	30305073          	csrrwi	x0,mideleg,0
    1130:	00000193          	addi	x3,x0,0
    1134:	00000297          	auipc	x5,0x0
    1138:	ed028293          	addi	x5,x5,-304 # 0x1004
    113c:	30529073          	csrrw	x0,mtvec,x5
    1140:	00100513          	addi	x10,x0,1
    1144:	01f51513          	slli	x10,x10,0x1f
    1148:	00055c63          	bge	x10,x0,0x1160
    114c:	0ff0000f          	fence	iorw,iorw
    1150:	00100193          	addi	x3,x0,1
    1154:	05d00893          	addi	x17,x0,93
    1158:	00000513          	addi	x10,x0,0
    115c:	00000073          	ecall
    1160:	00000293          	addi	x5,x0,0
    1164:	00028a63          	beq	x5,x0,0x1178
    1168:	10529073          	csrrw	x0,stvec,x5
    116c:	0000b2b7          	lui	x5,0xb
    1170:	1092829b          	addiw	x5,x5,265 # 0xb109
    1174:	30229073          	csrrw	x0,medeleg,x5
    1178:	30005073          	csrrwi	x0,mstatus,0
    117c:	00000297          	auipc	x5,0x0
    1180:	01428293          	addi	x5,x5,20 # 0x1190
    1184:	34129073          	csrrw	x0,mepc,x5
    1188:	f1402573          	csrrs	x10,mhartid,x0
    118c:	30200073          	mret
    1190:	00200193          	addi	x3,x0,2
    1194:	00002097          	auipc	x1,0x2
    1198:	e6c08093          	addi	x1,x1,-404 # 0x3000
    119c:	0aa00113          	addi	x2,x0,170
    11a0:	00000797          	auipc	x15,0x0
    11a4:	01478793          	addi	x15,x15,20 # 0x11b4
    11a8:	00209023          	sh	x2,0(x1)
    11ac:	00009703          	lh	x14,0(x1)
    11b0:	0080006f          	jal	x0,0x11b8
    11b4:	00010713          	addi	x14,x2,0
    11b8:	0aa00393          	addi	x7,x0,170
    11bc:	4c771663          	bne	x14,x7,0x1688
    11c0:	00300193          	addi	x3,x0,3
    11c4:	00002097          	auipc	x1,0x2
    11c8:	e3c08093          	addi	x1,x1,-452 # 0x3000
    11cc:	ffffb137          	lui	x2,0xffffb
    11d0:	a001011b          	addiw	x2,x2,-1536 # 0xffffffffffffaa00
    11d4:	00000797          	auipc	x15,0x0
    11d8:	01478793          	addi	x15,x15,20 # 0x11e8
    11dc:	00209123          	sh	x2,2(x1)
    11e0:	00209703          	lh	x14,2(x1)
    11e4:	0080006f          	jal	x0,0x11ec
    11e8:	00010713          	addi	x14,x2,0
    11ec:	ffffb3b7          	lui	x7,0xffffb
    11f0:	a003839b          	addiw	x7,x7,-1536 # 0xffffffffffffaa00
    11f4:	48771a63          	bne	x14,x7,0x1688
    11f8:	00400193          	addi	x3,x0,4
    11fc:	00002097          	auipc	x1,0x2
    1200:	e0408093          	addi	x1,x1,-508 # 0x3000
    1204:	beef1137          	lui	x2,0xbeef1
    1208:	aa01011b          	addiw	x2,x2,-1376 # 0xffffffffbeef0aa0
    120c:	00000797          	auipc	x15,0x0
    1210:	01478793          	addi	x15,x15,20 # 0x1220
    1214:	00209223          	sh	x2,4(x1)
    1218:	0040a703          	lw	x14,4(x1)
    121c:	0080006f          	jal	x0,0x1224
    1220:	00010713          	addi	x14,x2,0
    1224:	beef13b7          	lui	x7,0xbeef1
    1228:	aa03839b          	addiw	x7,x7,-1376 # 0xffffffffbeef0aa0
    122c:	44771e63          	bne	x14,x7,0x1688
    1230:	00500193          	addi	x3,x0,5
    1234:	00002097          	auipc	x1,0x2
    1238:	dcc08093          	addi	x1,x1,-564 # 0x3000
    123c:	ffffa137          	lui	x2,0xffffa
    1240:	00a1011b          	addiw	x2,x2,10 # 0xffffffffffffa00a
    1244:	00000797          	auipc	x15,0x0
    1248:	01478793          	addi	x15,x15,20 # 0x1258
    124c:	00209323          	sh	x2,6(x1)
    1250:	00609703          	lh	x14,6(x1)
    1254:	0080006f          	jal	x0,0x125c
    1258:	00010713          	addi	x14,x2,0
    125c:	ffffa3b7          	lui	x7,0xffffa
    1260:	00a3839b          	addiw	x7,x7,10 # 0xffffffffffffa00a
    1264:	42771263          	bne	x14,x7,0x1688
    1268:	00600193          	addi	x3,x0,6
    126c:	00002097          	auipc	x1,0x2
    1270:	da208093          	addi	x1,x1,-606 # 0x300e
    1274:	0aa00113          	addi	x2,x0,170
    1278:	00000797          	auipc	x15,0x0
    127c:	01478793          	addi	x15,x15,20 # 0x128c
    1280:	fe209d23          	sh	x2,-6(x1)
    1284:	ffa09703          	lh	x14,-6(x1)
    1288:	0080006f          	jal	x0,0x1290
    128c:	00010713          	addi	x14,x2,0
    1290:	0aa00393          	addi	x7,x0,170
    1294:	3e771a63          	bne	x14,x7,0x1688
    1298:	00700193          	addi	x3,x0,7
    129c:	00002097          	auipc	x1,0x2
    12a0:	d7208093          	addi	x1,x1,-654 # 0x300e
    12a4:	ffffb137          	lui	x2,0xffffb
    12a8:	a001011b          	addiw	x2,x2,-1536 # 0xffffffffffffaa00
    12ac:	00000797          	auipc	x15,0x0
    12b0:	01478793          	addi	x15,x15,20 # 0x12c0
    12b4:	fe209e23          	sh	x2,-4(x1)
    12b8:	ffc09703          	lh	x14,-4(x1)
    12bc:	0080006f          	jal	x0,0x12c4
    12c0:	00010713          	addi	x14,x2,0
    12c4:	ffffb3b7          	lui	x7,0xffffb
    12c8:	a003839b          	addiw	x7,x7,-1536 # 0xffffffffffffaa00
    12cc:	3a771e63          	bne	x14,x7,0x1688
    12d0:	00800193          	addi	x3,x0,8
    12d4:	00002097          	auipc	x1,0x2
    12d8:	d3a08093          	addi	x1,x1,-710 # 0x300e
    12dc:	00001137          	lui	x2,0x1
    12e0:	aa01011b          	addiw	x2,x2,-1376 # 0xaa0
    12e4:	00000797          	auipc	x15,0x0
    12e8:	01478793          	addi	x15,x15,20 # 0x12f8
    12ec:	fe209f23          	sh	x2,-2(x1)
    12f0:	ffe09703          	lh	x14,-2(x1)
    12f4:	0080006f          	jal	x0,0x12fc
    12f8:	00010713          	addi	x14,x2,0
    12fc:	000013b7          	lui	x7,0x1
    1300:	aa03839b          	addiw	x7,x7,-1376 # 0xaa0
    1304:	38771263          	bne	x14,x7,0x1688
    1308:	00900193          	addi	x3,x0,9
    130c:	00002097          	auipc	x1,0x2
    1310:	d0208093          	addi	x1,x1,-766 # 0x300e
    1314:	ffffa137          	lui	x2,0xffffa
    1318:	00a1011b          	addiw	x2,x2,10 # 0xffffffffffffa00a
    131c:	00000797          	auipc	x15,0x0
    1320:	01478793          	addi	x15,x15,20 # 0x1330
    1324:	00209023          	sh	x2,0(x1)
    1328:	00009703          	lh	x14,0(x1)
    132c:	0080006f          	jal	x0,0x1334
    1330:	00010713          	addi	x14,x2,0
    1334:	ffffa3b7          	lui	x7,0xffffa
    1338:	00a3839b          	addiw	x7,x7,10 # 0xffffffffffffa00a
    133c:	34771663          	bne	x14,x7,0x1688
    1340:	00a00193          	addi	x3,x0,10
    1344:	00002097          	auipc	x1,0x2
    1348:	ccc08093          	addi	x1,x1,-820 # 0x3010
    134c:	12345137          	lui	x2,0x12345
    1350:	6781011b          	addiw	x2,x2,1656 # 0x12345678
    1354:	fe008213          	addi	x4,x1,-32
    1358:	02221023          	sh	x2,32(x4) # 0x20
    135c:	00009283          	lh	x5,0(x1)
    1360:	000053b7          	lui	x7,0x5
    1364:	6783839b          	addiw	x7,x7,1656 # 0x5678
    1368:	32729063          	bne	x5,x7,0x1688
    136c:	00b00193          	addi	x3,x0,11
    1370:	00002097          	auipc	x1,0x2
    1374:	ca008093          	addi	x1,x1,-864 # 0x3010
    1378:	00003137          	lui	x2,0x3
    137c:	0981011b          	addiw	x2,x2,152 # 0x3098
    1380:	ffb08093          	addi	x1,x1,-5
    1384:	002093a3          	sh	x2,7(x1)
    1388:	00002217          	auipc	x4,0x2
    138c:	c8a20213          	addi	x4,x4,-886 # 0x3012
    1390:	00021283          	lh	x5,0(x4) # 0x0
    1394:	000033b7          	lui	x7,0x3
    1398:	0983839b          	addiw	x7,x7,152 # 0x3098
    139c:	2e729663          	bne	x5,x7,0x1688
    13a0:	00c00193          	addi	x3,x0,12
    13a4:	00000213          	addi	x4,x0,0
    13a8:	ffffd0b7          	lui	x1,0xffffd
    13ac:	cdd0809b          	addiw	x1,x1,-803 # 0xffffffffffffccdd
    13b0:	00002117          	auipc	x2,0x2
    13b4:	c5010113          	addi	x2,x2,-944 # 0x3000
    13b8:	00111023          	sh	x1,0(x2)
    13bc:	00011703          	lh	x14,0(x2)
    13c0:	ffffd3b7          	lui	x7,0xffffd
    13c4:	cdd3839b          	addiw	x7,x7,-803 # 0xffffffffffffccdd
    13c8:	2c771063          	bne	x14,x7,0x1688
    13cc:	00120213          	addi	x4,x4,1 # 0x1
    13d0:	00200293          	addi	x5,x0,2
    13d4:	fc521ae3          	bne	x4,x5,0x13a8
    13d8:	00d00193          	addi	x3,x0,13
    13dc:	00000213          	addi	x4,x0,0
    13e0:	ffffc0b7          	lui	x1,0xffffc
    13e4:	ccd0809b          	addiw	x1,x1,-819 # 0xffffffffffffbccd
    13e8:	00002117          	auipc	x2,0x2
    13ec:	c1810113          	addi	x2,x2,-1000 # 0x3000
    13f0:	00000013          	addi	x0,x0,0
    13f4:	00111123          	sh	x1,2(x2)
    13f8:	00211703          	lh	x14,2(x2)
    13fc:	ffffc3b7          	lui	x7,0xffffc
    1400:	ccd3839b          	addiw	x7,x7,-819 # 0xffffffffffffbccd
    1404:	28771263          	bne	x14,x7,0x1688
    1408:	00120213          	addi	x4,x4,1 # 0x1
    140c:	00200293          	addi	x5,x0,2
    1410:	fc5218e3          	bne	x4,x5,0x13e0
    1414:	00e00193          	addi	x3,x0,14
    1418:	00000213          	addi	x4,x0,0
    141c:	ffffc0b7          	lui	x1,0xffffc
    1420:	bcc0809b          	addiw	x1,x1,-1076 # 0xffffffffffffbbcc
    1424:	00002117          	auipc	x2,0x2
    1428:	bdc10113          	addi	x2,x2,-1060 # 0x3000
    142c:	00000013          	addi	x0,x0,0
    1430:	00000013          	addi	x0,x0,0
    1434:	00111223          	sh	x1,4(x2)
    1438:	00411703          	lh	x14,4(x2)
    143c:	ffffc3b7          	lui	x7,0xffffc
    1440:	bcc3839b          	addiw	x7,x7,-1076 # 0xffffffffffffbbcc
    1444:	24771263          	bne	x14,x7,0x1688
    1448:	00120213          	addi	x4,x4,1 # 0x1
    144c:	00200293          	addi	x5,x0,2
    1450:	fc5216e3          	bne	x4,x5,0x141c
    1454:	00f00193          	addi	x3,x0,15
    1458:	00000213          	addi	x4,x0,0
    145c:	ffffb0b7          	lui	x1,0xffffb
    1460:	bbc0809b          	addiw	x1,x1,-1092 # 0xffffffffffffabbc
    1464:	00000013          	addi	x0,x0,0
    1468:	00002117          	auipc	x2,0x2
    146c:	b9810113          	addi	x2,x2,-1128 # 0x3000
    1470:	00111323          	sh	x1,6(x2)
    1474:	00611703          	lh	x14,6(x2)
    1478:	ffffb3b7          	lui	x7,0xffffb
    147c:	bbc3839b          	addiw	x7,x7,-1092 # 0xffffffffffffabbc
    1480:	20771463          	bne	x14,x7,0x1688
    1484:	00120213          	addi	x4,x4,1 # 0x1
    1488:	00200293          	addi	x5,x0,2
    148c:	fc5218e3          	bne	x4,x5,0x145c
    1490:	01000193          	addi	x3,x0,16
    1494:	00000213          	addi	x4,x0,0
    1498:	ffffb0b7          	lui	x1,0xffffb
    149c:	abb0809b          	addiw	x1,x1,-1349 # 0xffffffffffffaabb
    14a0:	00000013          	addi	x0,x0,0
    14a4:	00002117          	auipc	x2,0x2
    14a8:	b5c10113          	addi	x2,x2,-1188 # 0x3000
    14ac:	00000013          	addi	x0,x0,0
    14b0:	00111423          	sh	x1,8(x2)
    14b4:	00811703          	lh	x14,8(x2)
    14b8:	ffffb3b7          	lui	x7,0xffffb
    14bc:	abb3839b          	addiw	x7,x7,-1349 # 0xffffffffffffaabb
    14c0:	1c771463          	bne	x14,x7,0x1688
    14c4:	00120213          	addi	x4,x4,1 # 0x1
    14c8:	00200293          	addi	x5,x0,2
    14cc:	fc5216e3          	bne	x4,x5,0x1498
    14d0:	01100193          	addi	x3,x0,17
    14d4:	00000213          	addi	x4,x0,0
    14d8:	ffffe0b7          	lui	x1,0xffffe
    14dc:	aab0809b          	addiw	x1,x1,-1365 # 0xffffffffffffdaab
    14e0:	00000013          	addi	x0,x0,0
    14e4:	00000013          	addi	x0,x0,0
    14e8:	00002117          	auipc	x2,0x2
    14ec:	b1810113          	addi	x2,x2,-1256 # 0x3000
    14f0:	00111523          	sh	x1,10(x2)
    14f4:	00a11703          	lh	x14,10(x2)
    14f8:	ffffe3b7          	lui	x7,0xffffe
    14fc:	aab3839b          	addiw	x7,x7,-1365 # 0xffffffffffffdaab
    1500:	18771463          	bne	x14,x7,0x1688
    1504:	00120213          	addi	x4,x4,1 # 0x1
    1508:	00200293          	addi	x5,x0,2
    150c:	fc5216e3          	bne	x4,x5,0x14d8
    1510:	01200193          	addi	x3,x0,18
    1514:	00000213          	addi	x4,x0,0
    1518:	00002117          	auipc	x2,0x2
    151c:	ae810113          	addi	x2,x2,-1304 # 0x3000
    1520:	000020b7          	lui	x1,0x2
    1524:	2330809b          	addiw	x1,x1,563 # 0x2233
    1528:	00111023          	sh	x1,0(x2)
    152c:	00011703          	lh	x14,0(x2)
    1530:	000023b7          	lui	x7,0x2
    1534:	2333839b          	addiw	x7,x7,563 # 0x2233
    1538:	14771863          	bne	x14,x7,0x1688
    153c:	00120213          	addi	x4,x4,1 # 0x1
    1540:	00200293          	addi	x5,x0,2
    1544:	fc521ae3          	bne	x4,x5,0x1518
    1548:	01300193          	addi	x3,x0,19
    154c:	00000213          	addi	x4,x0,0
    1550:	00002117          	auipc	x2,0x2
    1554:	ab010113          	addi	x2,x2,-1360 # 0x3000
    1558:	000010b7          	lui	x1,0x1
    155c:	2230809b          	addiw	x1,x1,547 # 0x1223
    1560:	00000013          	addi	x0,x0,0
    1564:	00111123          	sh	x1,2(x2)
    1568:	00211703          	lh	x14,2(x2)
    156c:	000013b7          	lui	x7,0x1
    1570:	2233839b          	addiw	x7,x7,547 # 0x1223
    1574:	10771a63          	bne	x14,x7,0x1688
    1578:	00120213          	addi	x4,x4,1 # 0x1
    157c:	00200293          	addi	x5,x0,2
    1580:	fc5218e3          	bne	x4,x5,0x1550
    1584:	01400193          	addi	x3,x0,20
    1588:	00000213          	addi	x4,x0,0
    158c:	00002117          	auipc	x2,0x2
    1590:	a7410113          	addi	x2,x2,-1420 # 0x3000
    1594:	000010b7          	lui	x1,0x1
    1598:	1220809b          	addiw	x1,x1,290 # 0x1122
    159c:	00000013          	addi	x0,x0,0
    15a0:	00000013          	addi	x0,x0,0
    15a4:	00111223          	sh	x1,4(x2)
    15a8:	00411703          	lh	x14,4(x2)
    15ac:	000013b7          	lui	x7,0x1
    15b0:	1223839b          	addiw	x7,x7,290 # 0x1122
    15b4:	0c771a63          	bne	x14,x7,0x1688
    15b8:	00120213          	addi	x4,x4,1 # 0x1
    15bc:	00200293          	addi	x5,x0,2
    15c0:	fc5216e3          	bne	x4,x5,0x158c
    15c4:	01500193          	addi	x3,x0,21
    15c8:	00000213          	addi	x4,x0,0
    15cc:	00002117          	auipc	x2,0x2
    15d0:	a3410113          	addi	x2,x2,-1484 # 0x3000
    15d4:	00000013          	addi	x0,x0,0
    15d8:	11200093          	addi	x1,x0,274
    15dc:	00111323          	sh	x1,6(x2)
    15e0:	00611703          	lh	x14,6(x2)
    15e4:	11200393          	addi	x7,x0,274
    15e8:	0a771063          	bne	x14,x7,0x1688
    15ec:	00120213          	addi	x4,x4,1 # 0x1
    15f0:	00200293          	addi	x5,x0,2
    15f4:	fc521ce3          	bne	x4,x5,0x15cc
    15f8:	01600193          	addi	x3,x0,22
    15fc:	00000213          	addi	x4,x0,0
    1600:	00002117          	auipc	x2,0x2
    1604:	a0010113          	addi	x2,x2,-1536 # 0x3000
    1608:	00000013          	addi	x0,x0,0
    160c:	01100093          	addi	x1,x0,17
    1610:	00000013          	addi	x0,x0,0
    1614:	00111423          	sh	x1,8(x2)
    1618:	00811703          	lh	x14,8(x2)
    161c:	01100393          	addi	x7,x0,17
    1620:	06771463          	bne	x14,x7,0x1688
    1624:	00120213          	addi	x4,x4,1 # 0x1
    1628:	00200293          	addi	x5,x0,2
    162c:	fc521ae3          	bne	x4,x5,0x1600
    1630:	01700193          	addi	x3,x0,23
    1634:	00000213          	addi	x4,x0,0
    1638:	00002117          	auipc	x2,0x2
    163c:	9c810113          	addi	x2,x2,-1592 # 0x3000
    1640:	00000013          	addi	x0,x0,0
    1644:	00000013          	addi	x0,x0,0
    1648:	000030b7          	lui	x1,0x3
    164c:	0010809b          	addiw	x1,x1,1 # 0x3001
    1650:	00111523          	sh	x1,10(x2)
    1654:	00a11703          	lh	x14,10(x2)
    1658:	000033b7          	lui	x7,0x3
    165c:	0013839b          	addiw	x7,x7,1 # 0x3001
    1660:	02771463          	bne	x14,x7,0x1688
    1664:	00120213          	addi	x4,x4,1 # 0x1
    1668:	00200293          	addi	x5,x0,2
    166c:	fc5216e3          	bne	x4,x5,0x1638
    1670:	0000c537          	lui	x10,0xc
    1674:	eef5051b          	addiw	x10,x10,-273 # 0xbeef
    1678:	00002597          	auipc	x11,0x2
    167c:	98858593          	addi	x11,x11,-1656 # 0x3000
    1680:	00a59323          	sh	x10,6(x11)
    1684:	02301063          	bne	x0,x3,0x16a4
    1688:	0ff0000f          	fence	iorw,iorw
    168c:	00018063          	beq	x3,x0,0x168c
    1690:	00119193          	slli	x3,x3,0x1
    1694:	0011e193          	ori	x3,x3,1
    1698:	05d00893          	addi	x17,x0,93
    169c:	00018513          	addi	x10,x3,0
    16a0:	00000073          	ecall
    16a4:	0ff0000f          	fence	iorw,iorw
    16a8:	00100193          	addi	x3,x0,1
    16ac:	05d00893          	addi	x17,x0,93
    16b0:	00000513          	addi	x10,x0,0
    16b4:	00000073          	ecall
    16b8:	c0001073          	unimp
	...
    3000:	beefbeef          	jal	x29,0xffffffffffffe3ee
    3004:	beefbeef          	jal	x29,0xffffffffffffe3f2
    3008:	beefbeef          	jal	x29,0xffffffffffffe3f6
    300c:	beefbeef          	jal	x29,0xffffffffffffe3fa
    3010:	beefbeef          	jal	x29,0xffffffffffffe3fe
	...
    3020:	4f41                	c.li	x30,16
    3022:	0000                	c.unimp
    3024:	7200                	c.ld	x8,32(x12)
    3026:	7369                	c.lui	x6,0xffffa
    3028:	01007663          	bgeu	x0,x16,0x3034
    302c:	0045                	c.addi	x0,17
    302e:	0000                	c.unimp
    3030:	7205                	c.lui	x4,0xfffe1
    3032:	3676                	c.fldsp	f12,376(x2)
    3034:	6934                	c.ld	x13,80(x10)
    3036:	7032                	.insn	2, 0x7032
    3038:	5f31                	c.li	x30,-20
    303a:	326d                	c.addiw	x4,-5 # 0xfffffffffffe0ffb
    303c:	3070                	c.fld	f12,224(x8)
    303e:	615f 7032 5f31      	.insn	6, 0x5f317032615f
    3044:	3266                	c.fldsp	f4,120(x2)
    3046:	3270                	c.fld	f12,224(x12)
    3048:	645f 7032 5f32      	.insn	6, 0x5f327032645f
    304e:	697a                	c.ldsp	x18,408(x2)
    3050:	32727363          	bgeu	x4,x7,0x3376
    3054:	3070                	c.fld	f12,224(x8)
    3056:	7a5f 6669 6e65      	.insn	6, 0x6e6566697a5f
    305c:	32696563          	bltu	x18,x6,0x3386
    3060:	3070                	c.fld	f12,224(x8)
    3062:	7a5f 6d6d 6c75      	.insn	6, 0x6c756d6d7a5f
    3068:	7031                	c.lui	x0,0xfffec
    306a:	0030                	c.addi4spn	x12,x2,8
    306c:	0108                	c.addi4spn	x10,x2,128
    306e:	0b0a                	c.slli	x22,0x2
