
rvtest/rv64ui-p-lhu:     file format binary

Contents of section .data:
 1000 6f000005 732f2034 930f8000 6308ff03  o...s/ 4....c...
 1010 930f9000 6304ff03 930fb000 6300ff03  ....c.......c...
 1020 130f0000 63040f00 67000f00 732f2034  ....c...g...s/ 4
 1030 63540f00 6f004000 93e19153 171f0000  cT..o.@....S....
 1040 23223ffc 171f0000 23200ffc 6ff01fff  #"?.....# ..o...
 1050 93000000 13010000 93010000 13020000  ................
 1060 93020000 13030000 93030000 13040000  ................
 1070 93040000 13050000 93050000 13060000  ................
 1080 93060000 13070000 93070000 13080000  ................
 1090 93080000 13090000 93090000 130a0000  ................
 10a0 930a0000 130b0000 930b0000 130c0000  ................
 10b0 930c0000 130d0000 930d0000 130e0000  ................
 10c0 930e0000 130f0000 930f0000 732540f1  ............s%@.
 10d0 63100500 97020000 93820201 73905230  c...........s.R0
 10e0 73504474 97020000 93820201 73905230  sPDt........s.R0
 10f0 73500018 97020000 93824202 73905230  sP........B.s.R0
 1100 9b021000 93925203 9382f2ff 7390023b  ......R.....s..;
 1110 9302f001 7390023a 73504030 97020000  ....s..:sP@0....
 1120 93824201 73905230 73502030 73503030  ..B.s.R0sP 0sP00
 1130 93010000 97020000 938202ed 73905230  ............s.R0
 1140 13051000 1315f501 635c0500 0f00f00f  ........c\......
 1150 93011000 9308d005 13050000 73000000  ............s...
 1160 93020000 638a0200 73905210 b7b20000  ....c...s.R.....
 1170 9b829210 73902230 73500030 97020000  ....s."0sP.0....
 1180 93824201 73901234 732540f1 73002030  ..B.s..4s%@.s. 0
 1190 93012000 9307f00f 97200000 938080e6  .. ...... ......
 11a0 03d70000 9303f00f 6310772a 93013000  ........c.w*..0.
 11b0 b7070100 9b8707f0 97200000 938080e4  ......... ......
 11c0 03d72000 b7030100 9b8303f0 631e7726  .. .........c.w&
 11d0 93014000 b7170000 9b8707ff 97200000  ..@.......... ..
 11e0 938040e2 03d74000 b7130000 9b8303ff  ..@...@.........
 11f0 631c7724 93015000 b7f70000 9b87f700  c.w$..P.........
 1200 97200000 938000e0 03d76000 b7f30000  . ........`.....
 1210 9b83f300 631a7722 93016000 9307f00f  ....c.w"..`.....
 1220 97200000 938060de 03d7a0ff 9303f00f  . ....`.........
 1230 631c7720 93017000 b7070100 9b8707f0  c.w ..p.........
 1240 97200000 938060dc 03d7c0ff b7030100  . ....`.........
 1250 9b8303f0 631a771e 93018000 b7170000  ....c.w.........
 1260 9b8707ff 97200000 938020da 03d7e0ff  ..... .... .....
 1270 b7130000 9b8303ff 6318771c 93019000  ........c.w.....
 1280 b7f70000 9b87f700 97200000 9380e0d7  ......... ......
 1290 03d70000 b7f30000 9b83f300 6316771a  ............c.w.
 12a0 9301a000 97200000 9380c0d5 938000fe  ..... ..........
 12b0 83d20002 9303f00f 63987218 9301b000  ........c.r.....
 12c0 97200000 938000d4 9380b0ff 83d27000  . ............p.
 12d0 b7030100 9b8303f0 63987216 9301c000  ........c.r.....
 12e0 13020000 97200000 9380e0d1 03d72000  ..... ........ .
 12f0 13030700 b7130000 9b8303ff 63167314  ............c.s.
 1300 13021200 93022000 e31e52fc 9301d000  ...... ...R.....
 1310 13020000 97200000 938000cf 03d72000  ..... ........ .
 1320 13000000 13030700 b7f30000 9b83f300  ................
 1330 631c7310 13021200 93022000 e31c52fc  c.s....... ...R.
 1340 9301e000 13020000 97200000 938080cb  ......... ......
 1350 03d72000 13000000 13000000 13030700  .. .............
 1360 b7030100 9b8303f0 6310730e 13021200  ........c.s.....
 1370 93022000 e31a52fc 9301f000 13020000  .. ...R.........
 1380 97200000 938020c8 03d72000 b7130000  . .... ... .....
 1390 9b8303ff 631a770a 13021200 93022000  ....c.w....... .
 13a0 e31052fe 93010001 13020000 97200000  ..R.......... ..
 13b0 938080c5 13000000 03d72000 b7f30000  .......... .....
 13c0 9b83f300 63127708 13021200 93022000  ....c.w....... .
 13d0 e31e52fc 93011001 13020000 97200000  ..R.......... ..
 13e0 938040c2 13000000 13000000 03d72000  ..@........... .
 13f0 b7030100 9b8303f0 63187704 13021200  ........c.w.....
 1400 93022000 e31c52fc 93012001 97220000  .. ...R... .."..
 1410 938242bf 03d10200 13012000 93032000  ..B....... ... .
 1420 63147102 93013001 97220000 938282bd  c.q...0.."......
 1430 03d10200 13000000 13012000 93032000  .......... ... .
 1440 63147100 63103002 0f00f00f 63800100  c.q.c.0.....c...
 1450 93911100 93e11100 9308d005 13850100  ................
 1460 73000000 0f00f00f 93011000 9308d005  s...............
 1470 13050000 73000000 731000c0 00000000  ....s...s.......
 1480 00000000 00000000 00000000 00000000  ................
 1490 00000000 00000000 00000000 00000000  ................
 14a0 00000000 00000000 00000000 00000000  ................
 14b0 00000000 00000000 00000000 00000000  ................
 14c0 00000000 00000000 00000000 00000000  ................
 14d0 00000000 00000000 00000000 00000000  ................
 14e0 00000000 00000000 00000000 00000000  ................
 14f0 00000000 00000000 00000000 00000000  ................
 1500 00000000 00000000 00000000 00000000  ................
 1510 00000000 00000000 00000000 00000000  ................
 1520 00000000 00000000 00000000 00000000  ................
 1530 00000000 00000000 00000000 00000000  ................
 1540 00000000 00000000 00000000 00000000  ................
 1550 00000000 00000000 00000000 00000000  ................
 1560 00000000 00000000 00000000 00000000  ................
 1570 00000000 00000000 00000000 00000000  ................
 1580 00000000 00000000 00000000 00000000  ................
 1590 00000000 00000000 00000000 00000000  ................
 15a0 00000000 00000000 00000000 00000000  ................
 15b0 00000000 00000000 00000000 00000000  ................
 15c0 00000000 00000000 00000000 00000000  ................
 15d0 00000000 00000000 00000000 00000000  ................
 15e0 00000000 00000000 00000000 00000000  ................
 15f0 00000000 00000000 00000000 00000000  ................
 1600 00000000 00000000 00000000 00000000  ................
 1610 00000000 00000000 00000000 00000000  ................
 1620 00000000 00000000 00000000 00000000  ................
 1630 00000000 00000000 00000000 00000000  ................
 1640 00000000 00000000 00000000 00000000  ................
 1650 00000000 00000000 00000000 00000000  ................
 1660 00000000 00000000 00000000 00000000  ................
 1670 00000000 00000000 00000000 00000000  ................
 1680 00000000 00000000 00000000 00000000  ................
 1690 00000000 00000000 00000000 00000000  ................
 16a0 00000000 00000000 00000000 00000000  ................
 16b0 00000000 00000000 00000000 00000000  ................
 16c0 00000000 00000000 00000000 00000000  ................
 16d0 00000000 00000000 00000000 00000000  ................
 16e0 00000000 00000000 00000000 00000000  ................
 16f0 00000000 00000000 00000000 00000000  ................
 1700 00000000 00000000 00000000 00000000  ................
 1710 00000000 00000000 00000000 00000000  ................
 1720 00000000 00000000 00000000 00000000  ................
 1730 00000000 00000000 00000000 00000000  ................
 1740 00000000 00000000 00000000 00000000  ................
 1750 00000000 00000000 00000000 00000000  ................
 1760 00000000 00000000 00000000 00000000  ................
 1770 00000000 00000000 00000000 00000000  ................
 1780 00000000 00000000 00000000 00000000  ................
 1790 00000000 00000000 00000000 00000000  ................
 17a0 00000000 00000000 00000000 00000000  ................
 17b0 00000000 00000000 00000000 00000000  ................
 17c0 00000000 00000000 00000000 00000000  ................
 17d0 00000000 00000000 00000000 00000000  ................
 17e0 00000000 00000000 00000000 00000000  ................
 17f0 00000000 00000000 00000000 00000000  ................
 1800 00000000 00000000 00000000 00000000  ................
 1810 00000000 00000000 00000000 00000000  ................
 1820 00000000 00000000 00000000 00000000  ................
 1830 00000000 00000000 00000000 00000000  ................
 1840 00000000 00000000 00000000 00000000  ................
 1850 00000000 00000000 00000000 00000000  ................
 1860 00000000 00000000 00000000 00000000  ................
 1870 00000000 00000000 00000000 00000000  ................
 1880 00000000 00000000 00000000 00000000  ................
 1890 00000000 00000000 00000000 00000000  ................
 18a0 00000000 00000000 00000000 00000000  ................
 18b0 00000000 00000000 00000000 00000000  ................
 18c0 00000000 00000000 00000000 00000000  ................
 18d0 00000000 00000000 00000000 00000000  ................
 18e0 00000000 00000000 00000000 00000000  ................
 18f0 00000000 00000000 00000000 00000000  ................
 1900 00000000 00000000 00000000 00000000  ................
 1910 00000000 00000000 00000000 00000000  ................
 1920 00000000 00000000 00000000 00000000  ................
 1930 00000000 00000000 00000000 00000000  ................
 1940 00000000 00000000 00000000 00000000  ................
 1950 00000000 00000000 00000000 00000000  ................
 1960 00000000 00000000 00000000 00000000  ................
 1970 00000000 00000000 00000000 00000000  ................
 1980 00000000 00000000 00000000 00000000  ................
 1990 00000000 00000000 00000000 00000000  ................
 19a0 00000000 00000000 00000000 00000000  ................
 19b0 00000000 00000000 00000000 00000000  ................
 19c0 00000000 00000000 00000000 00000000  ................
 19d0 00000000 00000000 00000000 00000000  ................
 19e0 00000000 00000000 00000000 00000000  ................
 19f0 00000000 00000000 00000000 00000000  ................
 1a00 00000000 00000000 00000000 00000000  ................
 1a10 00000000 00000000 00000000 00000000  ................
 1a20 00000000 00000000 00000000 00000000  ................
 1a30 00000000 00000000 00000000 00000000  ................
 1a40 00000000 00000000 00000000 00000000  ................
 1a50 00000000 00000000 00000000 00000000  ................
 1a60 00000000 00000000 00000000 00000000  ................
 1a70 00000000 00000000 00000000 00000000  ................
 1a80 00000000 00000000 00000000 00000000  ................
 1a90 00000000 00000000 00000000 00000000  ................
 1aa0 00000000 00000000 00000000 00000000  ................
 1ab0 00000000 00000000 00000000 00000000  ................
 1ac0 00000000 00000000 00000000 00000000  ................
 1ad0 00000000 00000000 00000000 00000000  ................
 1ae0 00000000 00000000 00000000 00000000  ................
 1af0 00000000 00000000 00000000 00000000  ................
 1b00 00000000 00000000 00000000 00000000  ................
 1b10 00000000 00000000 00000000 00000000  ................
 1b20 00000000 00000000 00000000 00000000  ................
 1b30 00000000 00000000 00000000 00000000  ................
 1b40 00000000 00000000 00000000 00000000  ................
 1b50 00000000 00000000 00000000 00000000  ................
 1b60 00000000 00000000 00000000 00000000  ................
 1b70 00000000 00000000 00000000 00000000  ................
 1b80 00000000 00000000 00000000 00000000  ................
 1b90 00000000 00000000 00000000 00000000  ................
 1ba0 00000000 00000000 00000000 00000000  ................
 1bb0 00000000 00000000 00000000 00000000  ................
 1bc0 00000000 00000000 00000000 00000000  ................
 1bd0 00000000 00000000 00000000 00000000  ................
 1be0 00000000 00000000 00000000 00000000  ................
 1bf0 00000000 00000000 00000000 00000000  ................
 1c00 00000000 00000000 00000000 00000000  ................
 1c10 00000000 00000000 00000000 00000000  ................
 1c20 00000000 00000000 00000000 00000000  ................
 1c30 00000000 00000000 00000000 00000000  ................
 1c40 00000000 00000000 00000000 00000000  ................
 1c50 00000000 00000000 00000000 00000000  ................
 1c60 00000000 00000000 00000000 00000000  ................
 1c70 00000000 00000000 00000000 00000000  ................
 1c80 00000000 00000000 00000000 00000000  ................
 1c90 00000000 00000000 00000000 00000000  ................
 1ca0 00000000 00000000 00000000 00000000  ................
 1cb0 00000000 00000000 00000000 00000000  ................
 1cc0 00000000 00000000 00000000 00000000  ................
 1cd0 00000000 00000000 00000000 00000000  ................
 1ce0 00000000 00000000 00000000 00000000  ................
 1cf0 00000000 00000000 00000000 00000000  ................
 1d00 00000000 00000000 00000000 00000000  ................
 1d10 00000000 00000000 00000000 00000000  ................
 1d20 00000000 00000000 00000000 00000000  ................
 1d30 00000000 00000000 00000000 00000000  ................
 1d40 00000000 00000000 00000000 00000000  ................
 1d50 00000000 00000000 00000000 00000000  ................
 1d60 00000000 00000000 00000000 00000000  ................
 1d70 00000000 00000000 00000000 00000000  ................
 1d80 00000000 00000000 00000000 00000000  ................
 1d90 00000000 00000000 00000000 00000000  ................
 1da0 00000000 00000000 00000000 00000000  ................
 1db0 00000000 00000000 00000000 00000000  ................
 1dc0 00000000 00000000 00000000 00000000  ................
 1dd0 00000000 00000000 00000000 00000000  ................
 1de0 00000000 00000000 00000000 00000000  ................
 1df0 00000000 00000000 00000000 00000000  ................
 1e00 00000000 00000000 00000000 00000000  ................
 1e10 00000000 00000000 00000000 00000000  ................
 1e20 00000000 00000000 00000000 00000000  ................
 1e30 00000000 00000000 00000000 00000000  ................
 1e40 00000000 00000000 00000000 00000000  ................
 1e50 00000000 00000000 00000000 00000000  ................
 1e60 00000000 00000000 00000000 00000000  ................
 1e70 00000000 00000000 00000000 00000000  ................
 1e80 00000000 00000000 00000000 00000000  ................
 1e90 00000000 00000000 00000000 00000000  ................
 1ea0 00000000 00000000 00000000 00000000  ................
 1eb0 00000000 00000000 00000000 00000000  ................
 1ec0 00000000 00000000 00000000 00000000  ................
 1ed0 00000000 00000000 00000000 00000000  ................
 1ee0 00000000 00000000 00000000 00000000  ................
 1ef0 00000000 00000000 00000000 00000000  ................
 1f00 00000000 00000000 00000000 00000000  ................
 1f10 00000000 00000000 00000000 00000000  ................
 1f20 00000000 00000000 00000000 00000000  ................
 1f30 00000000 00000000 00000000 00000000  ................
 1f40 00000000 00000000 00000000 00000000  ................
 1f50 00000000 00000000 00000000 00000000  ................
 1f60 00000000 00000000 00000000 00000000  ................
 1f70 00000000 00000000 00000000 00000000  ................
 1f80 00000000 00000000 00000000 00000000  ................
 1f90 00000000 00000000 00000000 00000000  ................
 1fa0 00000000 00000000 00000000 00000000  ................
 1fb0 00000000 00000000 00000000 00000000  ................
 1fc0 00000000 00000000 00000000 00000000  ................
 1fd0 00000000 00000000 00000000 00000000  ................
 1fe0 00000000 00000000 00000000 00000000  ................
 1ff0 00000000 00000000 00000000 00000000  ................
 2000 00000000 00000000 00000000 00000000  ................
 2010 00000000 00000000 00000000 00000000  ................
 2020 00000000 00000000 00000000 00000000  ................
 2030 00000000 00000000 00000000 00000000  ................
 2040 00000000 00000000 00000000 00000000  ................
 2050 00000000 00000000 00000000 00000000  ................
 2060 00000000 00000000 00000000 00000000  ................
 2070 00000000 00000000 00000000 00000000  ................
 2080 00000000 00000000 00000000 00000000  ................
 2090 00000000 00000000 00000000 00000000  ................
 20a0 00000000 00000000 00000000 00000000  ................
 20b0 00000000 00000000 00000000 00000000  ................
 20c0 00000000 00000000 00000000 00000000  ................
 20d0 00000000 00000000 00000000 00000000  ................
 20e0 00000000 00000000 00000000 00000000  ................
 20f0 00000000 00000000 00000000 00000000  ................
 2100 00000000 00000000 00000000 00000000  ................
 2110 00000000 00000000 00000000 00000000  ................
 2120 00000000 00000000 00000000 00000000  ................
 2130 00000000 00000000 00000000 00000000  ................
 2140 00000000 00000000 00000000 00000000  ................
 2150 00000000 00000000 00000000 00000000  ................
 2160 00000000 00000000 00000000 00000000  ................
 2170 00000000 00000000 00000000 00000000  ................
 2180 00000000 00000000 00000000 00000000  ................
 2190 00000000 00000000 00000000 00000000  ................
 21a0 00000000 00000000 00000000 00000000  ................
 21b0 00000000 00000000 00000000 00000000  ................
 21c0 00000000 00000000 00000000 00000000  ................
 21d0 00000000 00000000 00000000 00000000  ................
 21e0 00000000 00000000 00000000 00000000  ................
 21f0 00000000 00000000 00000000 00000000  ................
 2200 00000000 00000000 00000000 00000000  ................
 2210 00000000 00000000 00000000 00000000  ................
 2220 00000000 00000000 00000000 00000000  ................
 2230 00000000 00000000 00000000 00000000  ................
 2240 00000000 00000000 00000000 00000000  ................
 2250 00000000 00000000 00000000 00000000  ................
 2260 00000000 00000000 00000000 00000000  ................
 2270 00000000 00000000 00000000 00000000  ................
 2280 00000000 00000000 00000000 00000000  ................
 2290 00000000 00000000 00000000 00000000  ................
 22a0 00000000 00000000 00000000 00000000  ................
 22b0 00000000 00000000 00000000 00000000  ................
 22c0 00000000 00000000 00000000 00000000  ................
 22d0 00000000 00000000 00000000 00000000  ................
 22e0 00000000 00000000 00000000 00000000  ................
 22f0 00000000 00000000 00000000 00000000  ................
 2300 00000000 00000000 00000000 00000000  ................
 2310 00000000 00000000 00000000 00000000  ................
 2320 00000000 00000000 00000000 00000000  ................
 2330 00000000 00000000 00000000 00000000  ................
 2340 00000000 00000000 00000000 00000000  ................
 2350 00000000 00000000 00000000 00000000  ................
 2360 00000000 00000000 00000000 00000000  ................
 2370 00000000 00000000 00000000 00000000  ................
 2380 00000000 00000000 00000000 00000000  ................
 2390 00000000 00000000 00000000 00000000  ................
 23a0 00000000 00000000 00000000 00000000  ................
 23b0 00000000 00000000 00000000 00000000  ................
 23c0 00000000 00000000 00000000 00000000  ................
 23d0 00000000 00000000 00000000 00000000  ................
 23e0 00000000 00000000 00000000 00000000  ................
 23f0 00000000 00000000 00000000 00000000  ................
 2400 00000000 00000000 00000000 00000000  ................
 2410 00000000 00000000 00000000 00000000  ................
 2420 00000000 00000000 00000000 00000000  ................
 2430 00000000 00000000 00000000 00000000  ................
 2440 00000000 00000000 00000000 00000000  ................
 2450 00000000 00000000 00000000 00000000  ................
 2460 00000000 00000000 00000000 00000000  ................
 2470 00000000 00000000 00000000 00000000  ................
 2480 00000000 00000000 00000000 00000000  ................
 2490 00000000 00000000 00000000 00000000  ................
 24a0 00000000 00000000 00000000 00000000  ................
 24b0 00000000 00000000 00000000 00000000  ................
 24c0 00000000 00000000 00000000 00000000  ................
 24d0 00000000 00000000 00000000 00000000  ................
 24e0 00000000 00000000 00000000 00000000  ................
 24f0 00000000 00000000 00000000 00000000  ................
 2500 00000000 00000000 00000000 00000000  ................
 2510 00000000 00000000 00000000 00000000  ................
 2520 00000000 00000000 00000000 00000000  ................
 2530 00000000 00000000 00000000 00000000  ................
 2540 00000000 00000000 00000000 00000000  ................
 2550 00000000 00000000 00000000 00000000  ................
 2560 00000000 00000000 00000000 00000000  ................
 2570 00000000 00000000 00000000 00000000  ................
 2580 00000000 00000000 00000000 00000000  ................
 2590 00000000 00000000 00000000 00000000  ................
 25a0 00000000 00000000 00000000 00000000  ................
 25b0 00000000 00000000 00000000 00000000  ................
 25c0 00000000 00000000 00000000 00000000  ................
 25d0 00000000 00000000 00000000 00000000  ................
 25e0 00000000 00000000 00000000 00000000  ................
 25f0 00000000 00000000 00000000 00000000  ................
 2600 00000000 00000000 00000000 00000000  ................
 2610 00000000 00000000 00000000 00000000  ................
 2620 00000000 00000000 00000000 00000000  ................
 2630 00000000 00000000 00000000 00000000  ................
 2640 00000000 00000000 00000000 00000000  ................
 2650 00000000 00000000 00000000 00000000  ................
 2660 00000000 00000000 00000000 00000000  ................
 2670 00000000 00000000 00000000 00000000  ................
 2680 00000000 00000000 00000000 00000000  ................
 2690 00000000 00000000 00000000 00000000  ................
 26a0 00000000 00000000 00000000 00000000  ................
 26b0 00000000 00000000 00000000 00000000  ................
 26c0 00000000 00000000 00000000 00000000  ................
 26d0 00000000 00000000 00000000 00000000  ................
 26e0 00000000 00000000 00000000 00000000  ................
 26f0 00000000 00000000 00000000 00000000  ................
 2700 00000000 00000000 00000000 00000000  ................
 2710 00000000 00000000 00000000 00000000  ................
 2720 00000000 00000000 00000000 00000000  ................
 2730 00000000 00000000 00000000 00000000  ................
 2740 00000000 00000000 00000000 00000000  ................
 2750 00000000 00000000 00000000 00000000  ................
 2760 00000000 00000000 00000000 00000000  ................
 2770 00000000 00000000 00000000 00000000  ................
 2780 00000000 00000000 00000000 00000000  ................
 2790 00000000 00000000 00000000 00000000  ................
 27a0 00000000 00000000 00000000 00000000  ................
 27b0 00000000 00000000 00000000 00000000  ................
 27c0 00000000 00000000 00000000 00000000  ................
 27d0 00000000 00000000 00000000 00000000  ................
 27e0 00000000 00000000 00000000 00000000  ................
 27f0 00000000 00000000 00000000 00000000  ................
 2800 00000000 00000000 00000000 00000000  ................
 2810 00000000 00000000 00000000 00000000  ................
 2820 00000000 00000000 00000000 00000000  ................
 2830 00000000 00000000 00000000 00000000  ................
 2840 00000000 00000000 00000000 00000000  ................
 2850 00000000 00000000 00000000 00000000  ................
 2860 00000000 00000000 00000000 00000000  ................
 2870 00000000 00000000 00000000 00000000  ................
 2880 00000000 00000000 00000000 00000000  ................
 2890 00000000 00000000 00000000 00000000  ................
 28a0 00000000 00000000 00000000 00000000  ................
 28b0 00000000 00000000 00000000 00000000  ................
 28c0 00000000 00000000 00000000 00000000  ................
 28d0 00000000 00000000 00000000 00000000  ................
 28e0 00000000 00000000 00000000 00000000  ................
 28f0 00000000 00000000 00000000 00000000  ................
 2900 00000000 00000000 00000000 00000000  ................
 2910 00000000 00000000 00000000 00000000  ................
 2920 00000000 00000000 00000000 00000000  ................
 2930 00000000 00000000 00000000 00000000  ................
 2940 00000000 00000000 00000000 00000000  ................
 2950 00000000 00000000 00000000 00000000  ................
 2960 00000000 00000000 00000000 00000000  ................
 2970 00000000 00000000 00000000 00000000  ................
 2980 00000000 00000000 00000000 00000000  ................
 2990 00000000 00000000 00000000 00000000  ................
 29a0 00000000 00000000 00000000 00000000  ................
 29b0 00000000 00000000 00000000 00000000  ................
 29c0 00000000 00000000 00000000 00000000  ................
 29d0 00000000 00000000 00000000 00000000  ................
 29e0 00000000 00000000 00000000 00000000  ................
 29f0 00000000 00000000 00000000 00000000  ................
 2a00 00000000 00000000 00000000 00000000  ................
 2a10 00000000 00000000 00000000 00000000  ................
 2a20 00000000 00000000 00000000 00000000  ................
 2a30 00000000 00000000 00000000 00000000  ................
 2a40 00000000 00000000 00000000 00000000  ................
 2a50 00000000 00000000 00000000 00000000  ................
 2a60 00000000 00000000 00000000 00000000  ................
 2a70 00000000 00000000 00000000 00000000  ................
 2a80 00000000 00000000 00000000 00000000  ................
 2a90 00000000 00000000 00000000 00000000  ................
 2aa0 00000000 00000000 00000000 00000000  ................
 2ab0 00000000 00000000 00000000 00000000  ................
 2ac0 00000000 00000000 00000000 00000000  ................
 2ad0 00000000 00000000 00000000 00000000  ................
 2ae0 00000000 00000000 00000000 00000000  ................
 2af0 00000000 00000000 00000000 00000000  ................
 2b00 00000000 00000000 00000000 00000000  ................
 2b10 00000000 00000000 00000000 00000000  ................
 2b20 00000000 00000000 00000000 00000000  ................
 2b30 00000000 00000000 00000000 00000000  ................
 2b40 00000000 00000000 00000000 00000000  ................
 2b50 00000000 00000000 00000000 00000000  ................
 2b60 00000000 00000000 00000000 00000000  ................
 2b70 00000000 00000000 00000000 00000000  ................
 2b80 00000000 00000000 00000000 00000000  ................
 2b90 00000000 00000000 00000000 00000000  ................
 2ba0 00000000 00000000 00000000 00000000  ................
 2bb0 00000000 00000000 00000000 00000000  ................
 2bc0 00000000 00000000 00000000 00000000  ................
 2bd0 00000000 00000000 00000000 00000000  ................
 2be0 00000000 00000000 00000000 00000000  ................
 2bf0 00000000 00000000 00000000 00000000  ................
 2c00 00000000 00000000 00000000 00000000  ................
 2c10 00000000 00000000 00000000 00000000  ................
 2c20 00000000 00000000 00000000 00000000  ................
 2c30 00000000 00000000 00000000 00000000  ................
 2c40 00000000 00000000 00000000 00000000  ................
 2c50 00000000 00000000 00000000 00000000  ................
 2c60 00000000 00000000 00000000 00000000  ................
 2c70 00000000 00000000 00000000 00000000  ................
 2c80 00000000 00000000 00000000 00000000  ................
 2c90 00000000 00000000 00000000 00000000  ................
 2ca0 00000000 00000000 00000000 00000000  ................
 2cb0 00000000 00000000 00000000 00000000  ................
 2cc0 00000000 00000000 00000000 00000000  ................
 2cd0 00000000 00000000 00000000 00000000  ................
 2ce0 00000000 00000000 00000000 00000000  ................
 2cf0 00000000 00000000 00000000 00000000  ................
 2d00 00000000 00000000 00000000 00000000  ................
 2d10 00000000 00000000 00000000 00000000  ................
 2d20 00000000 00000000 00000000 00000000  ................
 2d30 00000000 00000000 00000000 00000000  ................
 2d40 00000000 00000000 00000000 00000000  ................
 2d50 00000000 00000000 00000000 00000000  ................
 2d60 00000000 00000000 00000000 00000000  ................
 2d70 00000000 00000000 00000000 00000000  ................
 2d80 00000000 00000000 00000000 00000000  ................
 2d90 00000000 00000000 00000000 00000000  ................
 2da0 00000000 00000000 00000000 00000000  ................
 2db0 00000000 00000000 00000000 00000000  ................
 2dc0 00000000 00000000 00000000 00000000  ................
 2dd0 00000000 00000000 00000000 00000000  ................
 2de0 00000000 00000000 00000000 00000000  ................
 2df0 00000000 00000000 00000000 00000000  ................
 2e00 00000000 00000000 00000000 00000000  ................
 2e10 00000000 00000000 00000000 00000000  ................
 2e20 00000000 00000000 00000000 00000000  ................
 2e30 00000000 00000000 00000000 00000000  ................
 2e40 00000000 00000000 00000000 00000000  ................
 2e50 00000000 00000000 00000000 00000000  ................
 2e60 00000000 00000000 00000000 00000000  ................
 2e70 00000000 00000000 00000000 00000000  ................
 2e80 00000000 00000000 00000000 00000000  ................
 2e90 00000000 00000000 00000000 00000000  ................
 2ea0 00000000 00000000 00000000 00000000  ................
 2eb0 00000000 00000000 00000000 00000000  ................
 2ec0 00000000 00000000 00000000 00000000  ................
 2ed0 00000000 00000000 00000000 00000000  ................
 2ee0 00000000 00000000 00000000 00000000  ................
 2ef0 00000000 00000000 00000000 00000000  ................
 2f00 00000000 00000000 00000000 00000000  ................
 2f10 00000000 00000000 00000000 00000000  ................
 2f20 00000000 00000000 00000000 00000000  ................
 2f30 00000000 00000000 00000000 00000000  ................
 2f40 00000000 00000000 00000000 00000000  ................
 2f50 00000000 00000000 00000000 00000000  ................
 2f60 00000000 00000000 00000000 00000000  ................
 2f70 00000000 00000000 00000000 00000000  ................
 2f80 00000000 00000000 00000000 00000000  ................
 2f90 00000000 00000000 00000000 00000000  ................
 2fa0 00000000 00000000 00000000 00000000  ................
 2fb0 00000000 00000000 00000000 00000000  ................
 2fc0 00000000 00000000 00000000 00000000  ................
 2fd0 00000000 00000000 00000000 00000000  ................
 2fe0 00000000 00000000 00000000 00000000  ................
 2ff0 00000000 00000000 00000000 00000000  ................
 3000 ff0000ff f00f0ff0 00000000 00000000  ................
 3010 414f0000 00726973 63760001 45000000  AO...riscv..E...
 3020 05727636 34693270 315f6d32 70305f61  .rv64i2p1_m2p0_a
 3030 3270315f 66327032 5f643270 325f7a69  2p1_f2p2_d2p2_zi
 3040 63737232 70305f7a 6966656e 63656932  csr2p0_zifencei2
 3050 70305f7a 6d6d756c 31703000 08010a0b  p0_zmmul1p0.....
 3060 00000000 00000000 00000000 00000000  ................

Disassembly of section .data:

0000000000001000 <.data+0x1000>:
    1000:	0500006f          	jal	x0,0x1050
    1004:	34202f73          	csrrs	x30,mcause,x0
    1008:	00800f93          	addi	x31,x0,8
    100c:	03ff0863          	beq	x30,x31,0x103c
    1010:	00900f93          	addi	x31,x0,9
    1014:	03ff0463          	beq	x30,x31,0x103c
    1018:	00b00f93          	addi	x31,x0,11
    101c:	03ff0063          	beq	x30,x31,0x103c
    1020:	00000f13          	addi	x30,x0,0
    1024:	000f0463          	beq	x30,x0,0x102c
    1028:	000f0067          	jalr	x0,0(x30)
    102c:	34202f73          	csrrs	x30,mcause,x0
    1030:	000f5463          	bge	x30,x0,0x1038
    1034:	0040006f          	jal	x0,0x1038
    1038:	5391e193          	ori	x3,x3,1337
    103c:	00001f17          	auipc	x30,0x1
    1040:	fc3f2223          	sw	x3,-60(x30) # 0x2000
    1044:	00001f17          	auipc	x30,0x1
    1048:	fc0f2023          	sw	x0,-64(x30) # 0x2004
    104c:	ff1ff06f          	jal	x0,0x103c
    1050:	00000093          	addi	x1,x0,0
    1054:	00000113          	addi	x2,x0,0
    1058:	00000193          	addi	x3,x0,0
    105c:	00000213          	addi	x4,x0,0
    1060:	00000293          	addi	x5,x0,0
    1064:	00000313          	addi	x6,x0,0
    1068:	00000393          	addi	x7,x0,0
    106c:	00000413          	addi	x8,x0,0
    1070:	00000493          	addi	x9,x0,0
    1074:	00000513          	addi	x10,x0,0
    1078:	00000593          	addi	x11,x0,0
    107c:	00000613          	addi	x12,x0,0
    1080:	00000693          	addi	x13,x0,0
    1084:	00000713          	addi	x14,x0,0
    1088:	00000793          	addi	x15,x0,0
    108c:	00000813          	addi	x16,x0,0
    1090:	00000893          	addi	x17,x0,0
    1094:	00000913          	addi	x18,x0,0
    1098:	00000993          	addi	x19,x0,0
    109c:	00000a13          	addi	x20,x0,0
    10a0:	00000a93          	addi	x21,x0,0
    10a4:	00000b13          	addi	x22,x0,0
    10a8:	00000b93          	addi	x23,x0,0
    10ac:	00000c13          	addi	x24,x0,0
    10b0:	00000c93          	addi	x25,x0,0
    10b4:	00000d13          	addi	x26,x0,0
    10b8:	00000d93          	addi	x27,x0,0
    10bc:	00000e13          	addi	x28,x0,0
    10c0:	00000e93          	addi	x29,x0,0
    10c4:	00000f13          	addi	x30,x0,0
    10c8:	00000f93          	addi	x31,x0,0
    10cc:	f1402573          	csrrs	x10,mhartid,x0
    10d0:	00051063          	bne	x10,x0,0x10d0
    10d4:	00000297          	auipc	x5,0x0
    10d8:	01028293          	addi	x5,x5,16 # 0x10e4
    10dc:	30529073          	csrrw	x0,mtvec,x5
    10e0:	74445073          	csrrwi	x0,0x744,8
    10e4:	00000297          	auipc	x5,0x0
    10e8:	01028293          	addi	x5,x5,16 # 0x10f4
    10ec:	30529073          	csrrw	x0,mtvec,x5
    10f0:	18005073          	csrrwi	x0,satp,0
    10f4:	00000297          	auipc	x5,0x0
    10f8:	02428293          	addi	x5,x5,36 # 0x1118
    10fc:	30529073          	csrrw	x0,mtvec,x5
    1100:	0010029b          	addiw	x5,x0,1
    1104:	03529293          	slli	x5,x5,0x35
    1108:	fff28293          	addi	x5,x5,-1
    110c:	3b029073          	csrrw	x0,pmpaddr0,x5
    1110:	01f00293          	addi	x5,x0,31
    1114:	3a029073          	csrrw	x0,pmpcfg0,x5
    1118:	30405073          	csrrwi	x0,mie,0
    111c:	00000297          	auipc	x5,0x0
    1120:	01428293          	addi	x5,x5,20 # 0x1130
    1124:	30529073          	csrrw	x0,mtvec,x5
    1128:	30205073          	csrrwi	x0,medeleg,0
    112c:	30305073          	csrrwi	x0,mideleg,0
    1130:	00000193          	addi	x3,x0,0
    1134:	00000297          	auipc	x5,0x0
    1138:	ed028293          	addi	x5,x5,-304 # 0x1004
    113c:	30529073          	csrrw	x0,mtvec,x5
    1140:	00100513          	addi	x10,x0,1
    1144:	01f51513          	slli	x10,x10,0x1f
    1148:	00055c63          	bge	x10,x0,0x1160
    114c:	0ff0000f          	fence	iorw,iorw
    1150:	00100193          	addi	x3,x0,1
    1154:	05d00893          	addi	x17,x0,93
    1158:	00000513          	addi	x10,x0,0
    115c:	00000073          	ecall
    1160:	00000293          	addi	x5,x0,0
    1164:	00028a63          	beq	x5,x0,0x1178
    1168:	10529073          	csrrw	x0,stvec,x5
    116c:	0000b2b7          	lui	x5,0xb
    1170:	1092829b          	addiw	x5,x5,265 # 0xb109
    1174:	30229073          	csrrw	x0,medeleg,x5
    1178:	30005073          	csrrwi	x0,mstatus,0
    117c:	00000297          	auipc	x5,0x0
    1180:	01428293          	addi	x5,x5,20 # 0x1190
    1184:	34129073          	csrrw	x0,mepc,x5
    1188:	f1402573          	csrrs	x10,mhartid,x0
    118c:	30200073          	mret
    1190:	00200193          	addi	x3,x0,2
    1194:	0ff00793          	addi	x15,x0,255
    1198:	00002097          	auipc	x1,0x2
    119c:	e6808093          	addi	x1,x1,-408 # 0x3000
    11a0:	0000d703          	lhu	x14,0(x1)
    11a4:	0ff00393          	addi	x7,x0,255
    11a8:	2a771063          	bne	x14,x7,0x1448
    11ac:	00300193          	addi	x3,x0,3
    11b0:	000107b7          	lui	x15,0x10
    11b4:	f007879b          	addiw	x15,x15,-256 # 0xff00
    11b8:	00002097          	auipc	x1,0x2
    11bc:	e4808093          	addi	x1,x1,-440 # 0x3000
    11c0:	0020d703          	lhu	x14,2(x1)
    11c4:	000103b7          	lui	x7,0x10
    11c8:	f003839b          	addiw	x7,x7,-256 # 0xff00
    11cc:	26771e63          	bne	x14,x7,0x1448
    11d0:	00400193          	addi	x3,x0,4
    11d4:	000017b7          	lui	x15,0x1
    11d8:	ff07879b          	addiw	x15,x15,-16 # 0xff0
    11dc:	00002097          	auipc	x1,0x2
    11e0:	e2408093          	addi	x1,x1,-476 # 0x3000
    11e4:	0040d703          	lhu	x14,4(x1)
    11e8:	000013b7          	lui	x7,0x1
    11ec:	ff03839b          	addiw	x7,x7,-16 # 0xff0
    11f0:	24771c63          	bne	x14,x7,0x1448
    11f4:	00500193          	addi	x3,x0,5
    11f8:	0000f7b7          	lui	x15,0xf
    11fc:	00f7879b          	addiw	x15,x15,15 # 0xf00f
    1200:	00002097          	auipc	x1,0x2
    1204:	e0008093          	addi	x1,x1,-512 # 0x3000
    1208:	0060d703          	lhu	x14,6(x1)
    120c:	0000f3b7          	lui	x7,0xf
    1210:	00f3839b          	addiw	x7,x7,15 # 0xf00f
    1214:	22771a63          	bne	x14,x7,0x1448
    1218:	00600193          	addi	x3,x0,6
    121c:	0ff00793          	addi	x15,x0,255
    1220:	00002097          	auipc	x1,0x2
    1224:	de608093          	addi	x1,x1,-538 # 0x3006
    1228:	ffa0d703          	lhu	x14,-6(x1)
    122c:	0ff00393          	addi	x7,x0,255
    1230:	20771c63          	bne	x14,x7,0x1448
    1234:	00700193          	addi	x3,x0,7
    1238:	000107b7          	lui	x15,0x10
    123c:	f007879b          	addiw	x15,x15,-256 # 0xff00
    1240:	00002097          	auipc	x1,0x2
    1244:	dc608093          	addi	x1,x1,-570 # 0x3006
    1248:	ffc0d703          	lhu	x14,-4(x1)
    124c:	000103b7          	lui	x7,0x10
    1250:	f003839b          	addiw	x7,x7,-256 # 0xff00
    1254:	1e771a63          	bne	x14,x7,0x1448
    1258:	00800193          	addi	x3,x0,8
    125c:	000017b7          	lui	x15,0x1
    1260:	ff07879b          	addiw	x15,x15,-16 # 0xff0
    1264:	00002097          	auipc	x1,0x2
    1268:	da208093          	addi	x1,x1,-606 # 0x3006
    126c:	ffe0d703          	lhu	x14,-2(x1)
    1270:	000013b7          	lui	x7,0x1
    1274:	ff03839b          	addiw	x7,x7,-16 # 0xff0
    1278:	1c771863          	bne	x14,x7,0x1448
    127c:	00900193          	addi	x3,x0,9
    1280:	0000f7b7          	lui	x15,0xf
    1284:	00f7879b          	addiw	x15,x15,15 # 0xf00f
    1288:	00002097          	auipc	x1,0x2
    128c:	d7e08093          	addi	x1,x1,-642 # 0x3006
    1290:	0000d703          	lhu	x14,0(x1)
    1294:	0000f3b7          	lui	x7,0xf
    1298:	00f3839b          	addiw	x7,x7,15 # 0xf00f
    129c:	1a771663          	bne	x14,x7,0x1448
    12a0:	00a00193          	addi	x3,x0,10
    12a4:	00002097          	auipc	x1,0x2
    12a8:	d5c08093          	addi	x1,x1,-676 # 0x3000
    12ac:	fe008093          	addi	x1,x1,-32
    12b0:	0200d283          	lhu	x5,32(x1)
    12b4:	0ff00393          	addi	x7,x0,255
    12b8:	18729863          	bne	x5,x7,0x1448
    12bc:	00b00193          	addi	x3,x0,11
    12c0:	00002097          	auipc	x1,0x2
    12c4:	d4008093          	addi	x1,x1,-704 # 0x3000
    12c8:	ffb08093          	addi	x1,x1,-5
    12cc:	0070d283          	lhu	x5,7(x1)
    12d0:	000103b7          	lui	x7,0x10
    12d4:	f003839b          	addiw	x7,x7,-256 # 0xff00
    12d8:	16729863          	bne	x5,x7,0x1448
    12dc:	00c00193          	addi	x3,x0,12
    12e0:	00000213          	addi	x4,x0,0
    12e4:	00002097          	auipc	x1,0x2
    12e8:	d1e08093          	addi	x1,x1,-738 # 0x3002
    12ec:	0020d703          	lhu	x14,2(x1)
    12f0:	00070313          	addi	x6,x14,0
    12f4:	000013b7          	lui	x7,0x1
    12f8:	ff03839b          	addiw	x7,x7,-16 # 0xff0
    12fc:	14731663          	bne	x6,x7,0x1448
    1300:	00120213          	addi	x4,x4,1 # 0x1
    1304:	00200293          	addi	x5,x0,2
    1308:	fc521ee3          	bne	x4,x5,0x12e4
    130c:	00d00193          	addi	x3,x0,13
    1310:	00000213          	addi	x4,x0,0
    1314:	00002097          	auipc	x1,0x2
    1318:	cf008093          	addi	x1,x1,-784 # 0x3004
    131c:	0020d703          	lhu	x14,2(x1)
    1320:	00000013          	addi	x0,x0,0
    1324:	00070313          	addi	x6,x14,0
    1328:	0000f3b7          	lui	x7,0xf
    132c:	00f3839b          	addiw	x7,x7,15 # 0xf00f
    1330:	10731c63          	bne	x6,x7,0x1448
    1334:	00120213          	addi	x4,x4,1 # 0x1
    1338:	00200293          	addi	x5,x0,2
    133c:	fc521ce3          	bne	x4,x5,0x1314
    1340:	00e00193          	addi	x3,x0,14
    1344:	00000213          	addi	x4,x0,0
    1348:	00002097          	auipc	x1,0x2
    134c:	cb808093          	addi	x1,x1,-840 # 0x3000
    1350:	0020d703          	lhu	x14,2(x1)
    1354:	00000013          	addi	x0,x0,0
    1358:	00000013          	addi	x0,x0,0
    135c:	00070313          	addi	x6,x14,0
    1360:	000103b7          	lui	x7,0x10
    1364:	f003839b          	addiw	x7,x7,-256 # 0xff00
    1368:	0e731063          	bne	x6,x7,0x1448
    136c:	00120213          	addi	x4,x4,1 # 0x1
    1370:	00200293          	addi	x5,x0,2
    1374:	fc521ae3          	bne	x4,x5,0x1348
    1378:	00f00193          	addi	x3,x0,15
    137c:	00000213          	addi	x4,x0,0
    1380:	00002097          	auipc	x1,0x2
    1384:	c8208093          	addi	x1,x1,-894 # 0x3002
    1388:	0020d703          	lhu	x14,2(x1)
    138c:	000013b7          	lui	x7,0x1
    1390:	ff03839b          	addiw	x7,x7,-16 # 0xff0
    1394:	0a771a63          	bne	x14,x7,0x1448
    1398:	00120213          	addi	x4,x4,1 # 0x1
    139c:	00200293          	addi	x5,x0,2
    13a0:	fe5210e3          	bne	x4,x5,0x1380
    13a4:	01000193          	addi	x3,x0,16
    13a8:	00000213          	addi	x4,x0,0
    13ac:	00002097          	auipc	x1,0x2
    13b0:	c5808093          	addi	x1,x1,-936 # 0x3004
    13b4:	00000013          	addi	x0,x0,0
    13b8:	0020d703          	lhu	x14,2(x1)
    13bc:	0000f3b7          	lui	x7,0xf
    13c0:	00f3839b          	addiw	x7,x7,15 # 0xf00f
    13c4:	08771263          	bne	x14,x7,0x1448
    13c8:	00120213          	addi	x4,x4,1 # 0x1
    13cc:	00200293          	addi	x5,x0,2
    13d0:	fc521ee3          	bne	x4,x5,0x13ac
    13d4:	01100193          	addi	x3,x0,17
    13d8:	00000213          	addi	x4,x0,0
    13dc:	00002097          	auipc	x1,0x2
    13e0:	c2408093          	addi	x1,x1,-988 # 0x3000
    13e4:	00000013          	addi	x0,x0,0
    13e8:	00000013          	addi	x0,x0,0
    13ec:	0020d703          	lhu	x14,2(x1)
    13f0:	000103b7          	lui	x7,0x10
    13f4:	f003839b          	addiw	x7,x7,-256 # 0xff00
    13f8:	04771863          	bne	x14,x7,0x1448
    13fc:	00120213          	addi	x4,x4,1 # 0x1
    1400:	00200293          	addi	x5,x0,2
    1404:	fc521ce3          	bne	x4,x5,0x13dc
    1408:	01200193          	addi	x3,x0,18
    140c:	00002297          	auipc	x5,0x2
    1410:	bf428293          	addi	x5,x5,-1036 # 0x3000
    1414:	0002d103          	lhu	x2,0(x5)
    1418:	00200113          	addi	x2,x0,2
    141c:	00200393          	addi	x7,x0,2
    1420:	02711463          	bne	x2,x7,0x1448
    1424:	01300193          	addi	x3,x0,19
    1428:	00002297          	auipc	x5,0x2
    142c:	bd828293          	addi	x5,x5,-1064 # 0x3000
    1430:	0002d103          	lhu	x2,0(x5)
    1434:	00000013          	addi	x0,x0,0
    1438:	00200113          	addi	x2,x0,2
    143c:	00200393          	addi	x7,x0,2
    1440:	00711463          	bne	x2,x7,0x1448
    1444:	02301063          	bne	x0,x3,0x1464
    1448:	0ff0000f          	fence	iorw,iorw
    144c:	00018063          	beq	x3,x0,0x144c
    1450:	00119193          	slli	x3,x3,0x1
    1454:	0011e193          	ori	x3,x3,1
    1458:	05d00893          	addi	x17,x0,93
    145c:	00018513          	addi	x10,x3,0
    1460:	00000073          	ecall
    1464:	0ff0000f          	fence	iorw,iorw
    1468:	00100193          	addi	x3,x0,1
    146c:	05d00893          	addi	x17,x0,93
    1470:	00000513          	addi	x10,x0,0
    1474:	00000073          	ecall
    1478:	c0001073          	unimp
	...
    3000:	00ff ff00 0ff0 f00f 	.insn	10, 0xf00f0ff0ff0000ff
    3008:	0000 
    300a:	0000                	c.unimp
    300c:	0000                	c.unimp
    300e:	0000                	c.unimp
    3010:	4f41                	c.li	x30,16
    3012:	0000                	c.unimp
    3014:	7200                	c.ld	x8,32(x12)
    3016:	7369                	c.lui	x6,0xffffa
    3018:	01007663          	bgeu	x0,x16,0x3024
    301c:	0045                	c.addi	x0,17
    301e:	0000                	c.unimp
    3020:	7205                	c.lui	x4,0xfffe1
    3022:	3676                	c.fldsp	f12,376(x2)
    3024:	6934                	c.ld	x13,80(x10)
    3026:	7032                	.insn	2, 0x7032
    3028:	5f31                	c.li	x30,-20
    302a:	326d                	c.addiw	x4,-5 # 0xfffffffffffe0ffb
    302c:	3070                	c.fld	f12,224(x8)
    302e:	615f 7032 5f31      	.insn	6, 0x5f317032615f
    3034:	3266                	c.fldsp	f4,120(x2)
    3036:	3270                	c.fld	f12,224(x12)
    3038:	645f 7032 5f32      	.insn	6, 0x5f327032645f
    303e:	697a                	c.ldsp	x18,408(x2)
    3040:	32727363          	bgeu	x4,x7,0x3366
    3044:	3070                	c.fld	f12,224(x8)
    3046:	7a5f 6669 6e65      	.insn	6, 0x6e6566697a5f
    304c:	32696563          	bltu	x18,x6,0x3376
    3050:	3070                	c.fld	f12,224(x8)
    3052:	7a5f 6d6d 6c75      	.insn	6, 0x6c756d6d7a5f
    3058:	7031                	c.lui	x0,0xfffec
    305a:	0030                	c.addi4spn	x12,x2,8
    305c:	0108                	c.addi4spn	x10,x2,128
    305e:	0b0a                	c.slli	x22,0x2
	...
