
/home/maveric/ics2023/riscv-arch-test-am/build/addiw-riscv64-nemu.elf:     file format elf64-littleriscv


Disassembly of section .text:

0000000080000000 <_start>:
    80000000:	00000413          	li	s0,0
    80000004:	00012117          	auipc	sp,0x12
    80000008:	ffc10113          	addi	sp,sp,-4 # 80012000 <_end>
    8000000c:	759060ef          	jal	ra,80006f64 <_trm_init>

0000000080000010 <main>:
    80000010:	030000ef          	jal	ra,80000040 <rvtest_entry_point>
    80000014:	00100513          	li	a0,1
    80000018:	741060ef          	jal	ra,80006f58 <halt>
    8000001c:	00000513          	li	a0,0
    80000020:	00008067          	ret

0000000080000024 <rvtest_error>:
    80000024:	00100513          	li	a0,1
    80000028:	731060ef          	jal	ra,80006f58 <halt>
    8000002c:	00008067          	ret
	...

0000000080000040 <rvtest_entry_point>:
    80000040:	feedc0b7          	lui	ra,0xfeedc
    80000044:	ead08093          	addi	ra,ra,-339 # fffffffffeedbead <absimm+0xffffffff441ce3dd>
    80000048:	00b09093          	slli	ra,ra,0xb
    8000004c:	7f708093          	addi	ra,ra,2039
    80000050:	00b09093          	slli	ra,ra,0xb
    80000054:	36f08093          	addi	ra,ra,879
    80000058:	00a09093          	slli	ra,ra,0xa
    8000005c:	2ad08093          	addi	ra,ra,685
    80000060:	ff76e137          	lui	sp,0xff76e
    80000064:	f5610113          	addi	sp,sp,-170 # ffffffffff76df56 <absimm+0xffffffff44a60486>
    80000068:	00b11113          	slli	sp,sp,0xb
    8000006c:	7fb10113          	addi	sp,sp,2043
    80000070:	00b11113          	slli	sp,sp,0xb
    80000074:	5b710113          	addi	sp,sp,1463
    80000078:	00a11113          	slli	sp,sp,0xa
    8000007c:	35610113          	addi	sp,sp,854
    80000080:	7fbb71b7          	lui	gp,0x7fbb7
    80000084:	fab18193          	addi	gp,gp,-85 # 7fbb6fab <absimmsh+0x740e61fe>
    80000088:	00b19193          	slli	gp,gp,0xb
    8000008c:	3fd18193          	addi	gp,gp,1021
    80000090:	00b19193          	slli	gp,gp,0xb
    80000094:	6db18193          	addi	gp,gp,1755
    80000098:	00a19193          	slli	gp,gp,0xa
    8000009c:	3ab18193          	addi	gp,gp,939
    800000a0:	bfddb237          	lui	tp,0xbfddb
    800000a4:	7d520213          	addi	tp,tp,2005 # ffffffffbfddb7d5 <absimm+0xffffffff050cdd05>
    800000a8:	00b21213          	slli	tp,tp,0xb
    800000ac:	5fe20213          	addi	tp,tp,1534 # 5fe <offset+0x326>
    800000b0:	00b21213          	slli	tp,tp,0xb
    800000b4:	76d20213          	addi	tp,tp,1901 # 76d <offset+0x495>
    800000b8:	00a21213          	slli	tp,tp,0xa
    800000bc:	3d520213          	addi	tp,tp,981 # 3d5 <offset+0xfd>
    800000c0:	dfeee2b7          	lui	t0,0xdfeee
    800000c4:	bea28293          	addi	t0,t0,-1046 # ffffffffdfeedbea <absimm+0xffffffff251e011a>
    800000c8:	00b29293          	slli	t0,t0,0xb
    800000cc:	6ff28293          	addi	t0,t0,1791
    800000d0:	00b29293          	slli	t0,t0,0xb
    800000d4:	3b628293          	addi	t0,t0,950
    800000d8:	00a29293          	slli	t0,t0,0xa
    800000dc:	3ea28293          	addi	t0,t0,1002
    800000e0:	6ff77337          	lui	t1,0x6ff77
    800000e4:	df530313          	addi	t1,t1,-523 # 6ff76df5 <absimmsh+0x644a6048>
    800000e8:	00b31313          	slli	t1,t1,0xb
    800000ec:	37f30313          	addi	t1,t1,895
    800000f0:	00b31313          	slli	t1,t1,0xb
    800000f4:	5db30313          	addi	t1,t1,1499
    800000f8:	00a31313          	slli	t1,t1,0xa
    800000fc:	1f530313          	addi	t1,t1,501
    80000100:	b7fbb3b7          	lui	t2,0xb7fbb
    80000104:	6fa38393          	addi	t2,t2,1786 # ffffffffb7fbb6fa <absimm+0xfffffffefd2adc2a>
    80000108:	00b39393          	slli	t2,t2,0xb
    8000010c:	5bf38393          	addi	t2,t2,1471
    80000110:	00b39393          	slli	t2,t2,0xb
    80000114:	6ed38393          	addi	t2,t2,1773
    80000118:	00a39393          	slli	t2,t2,0xa
    8000011c:	2fa38393          	addi	t2,t2,762
    80000120:	5bfde437          	lui	s0,0x5bfde
    80000124:	b7d40413          	addi	s0,s0,-1155 # 5bfddb7d <absimmsh+0x5050cdd0>
    80000128:	00b41413          	slli	s0,s0,0xb
    8000012c:	2df40413          	addi	s0,s0,735
    80000130:	00b41413          	slli	s0,s0,0xb
    80000134:	77640413          	addi	s0,s0,1910
    80000138:	00a41413          	slli	s0,s0,0xa
    8000013c:	37d40413          	addi	s0,s0,893
    80000140:	adfef4b7          	lui	s1,0xadfef
    80000144:	dbe48493          	addi	s1,s1,-578 # ffffffffadfeedbe <absimm+0xfffffffef32e12ee>
    80000148:	00b49493          	slli	s1,s1,0xb
    8000014c:	56f48493          	addi	s1,s1,1391
    80000150:	00b49493          	slli	s1,s1,0xb
    80000154:	7bb48493          	addi	s1,s1,1979
    80000158:	00a49493          	slli	s1,s1,0xa
    8000015c:	1be48493          	addi	s1,s1,446
    80000160:	56ff7537          	lui	a0,0x56ff7
    80000164:	6df50513          	addi	a0,a0,1759 # 56ff76df <absimmsh+0x4b526932>
    80000168:	00b51513          	slli	a0,a0,0xb
    8000016c:	2b750513          	addi	a0,a0,695
    80000170:	00b51513          	slli	a0,a0,0xb
    80000174:	7dd50513          	addi	a0,a0,2013
    80000178:	00a51513          	slli	a0,a0,0xa
    8000017c:	2df50513          	addi	a0,a0,735
    80000180:	ab7fc5b7          	lui	a1,0xab7fc
    80000184:	b6f58593          	addi	a1,a1,-1169 # ffffffffab7fbb6f <absimm+0xfffffffef0aee09f>
    80000188:	00b59593          	slli	a1,a1,0xb
    8000018c:	55b58593          	addi	a1,a1,1371
    80000190:	00b59593          	slli	a1,a1,0xb
    80000194:	7ee58593          	addi	a1,a1,2030
    80000198:	00a59593          	slli	a1,a1,0xa
    8000019c:	36f58593          	addi	a1,a1,879
    800001a0:	d5bfe637          	lui	a2,0xd5bfe
    800001a4:	db760613          	addi	a2,a2,-585 # ffffffffd5bfddb7 <absimm+0xffffffff1aef02e7>
    800001a8:	00b61613          	slli	a2,a2,0xb
    800001ac:	6ad60613          	addi	a2,a2,1709
    800001b0:	00b61613          	slli	a2,a2,0xb
    800001b4:	7f760613          	addi	a2,a2,2039
    800001b8:	00a61613          	slli	a2,a2,0xa
    800001bc:	1b760613          	addi	a2,a2,439
    800001c0:	eadff6b7          	lui	a3,0xeadff
    800001c4:	edb68693          	addi	a3,a3,-293 # ffffffffeadfeedb <absimm+0xffffffff300f140b>
    800001c8:	00b69693          	slli	a3,a3,0xb
    800001cc:	75668693          	addi	a3,a3,1878
    800001d0:	00b69693          	slli	a3,a3,0xb
    800001d4:	7fb68693          	addi	a3,a3,2043
    800001d8:	00a69693          	slli	a3,a3,0xa
    800001dc:	2db68693          	addi	a3,a3,731
    800001e0:	f56ff737          	lui	a4,0xf56ff
    800001e4:	76d70713          	addi	a4,a4,1901 # fffffffff56ff76d <absimm+0xffffffff3a9f1c9d>
    800001e8:	00b71713          	slli	a4,a4,0xb
    800001ec:	7ab70713          	addi	a4,a4,1963
    800001f0:	00b71713          	slli	a4,a4,0xb
    800001f4:	3fd70713          	addi	a4,a4,1021
    800001f8:	00a71713          	slli	a4,a4,0xa
    800001fc:	36d70713          	addi	a4,a4,877
    80000200:	fab807b7          	lui	a5,0xfab80
    80000204:	bb678793          	addi	a5,a5,-1098 # fffffffffab7fbb6 <absimm+0xffffffff3fe720e6>
    80000208:	00b79793          	slli	a5,a5,0xb
    8000020c:	7d578793          	addi	a5,a5,2005
    80000210:	00b79793          	slli	a5,a5,0xb
    80000214:	5fe78793          	addi	a5,a5,1534
    80000218:	00a79793          	slli	a5,a5,0xa
    8000021c:	3b678793          	addi	a5,a5,950
    80000220:	7d5c0837          	lui	a6,0x7d5c0
    80000224:	ddb80813          	addi	a6,a6,-549 # 7d5bfddb <absimmsh+0x71aef02e>
    80000228:	00b81813          	slli	a6,a6,0xb
    8000022c:	3ea80813          	addi	a6,a6,1002
    80000230:	00b81813          	slli	a6,a6,0xb
    80000234:	6ff80813          	addi	a6,a6,1791
    80000238:	00a81813          	slli	a6,a6,0xa
    8000023c:	1db80813          	addi	a6,a6,475
    80000240:	beae08b7          	lui	a7,0xbeae0
    80000244:	eed88893          	addi	a7,a7,-275 # ffffffffbeadfeed <absimm+0xffffffff03dd241d>
    80000248:	00b89893          	slli	a7,a7,0xb
    8000024c:	5f588893          	addi	a7,a7,1525
    80000250:	00b89893          	slli	a7,a7,0xb
    80000254:	37f88893          	addi	a7,a7,895
    80000258:	00a89893          	slli	a7,a7,0xa
    8000025c:	2ed88893          	addi	a7,a7,749
    80000260:	df570937          	lui	s2,0xdf570
    80000264:	f7690913          	addi	s2,s2,-138 # ffffffffdf56ff76 <absimm+0xffffffff248624a6>
    80000268:	00b91913          	slli	s2,s2,0xb
    8000026c:	6fa90913          	addi	s2,s2,1786
    80000270:	00b91913          	slli	s2,s2,0xb
    80000274:	5bf90913          	addi	s2,s2,1471
    80000278:	00a91913          	slli	s2,s2,0xa
    8000027c:	37690913          	addi	s2,s2,886
    80000280:	6fab89b7          	lui	s3,0x6fab8
    80000284:	fbb98993          	addi	s3,s3,-69 # 6fab7fbb <absimmsh+0x63fe720e>
    80000288:	00b99993          	slli	s3,s3,0xb
    8000028c:	37d98993          	addi	s3,s3,893
    80000290:	00b99993          	slli	s3,s3,0xb
    80000294:	2df98993          	addi	s3,s3,735
    80000298:	00a99993          	slli	s3,s3,0xa
    8000029c:	3bb98993          	addi	s3,s3,955
    800002a0:	b7d5ca37          	lui	s4,0xb7d5c
    800002a4:	fdda0a13          	addi	s4,s4,-35 # ffffffffb7d5bfdd <absimm+0xfffffffefd04e50d>
    800002a8:	00ba1a13          	slli	s4,s4,0xb
    800002ac:	5bea0a13          	addi	s4,s4,1470
    800002b0:	00ba1a13          	slli	s4,s4,0xb
    800002b4:	56fa0a13          	addi	s4,s4,1391
    800002b8:	00aa1a13          	slli	s4,s4,0xa
    800002bc:	3dda0a13          	addi	s4,s4,989
    800002c0:	dbeaeab7          	lui	s5,0xdbeae
    800002c4:	feea8a93          	addi	s5,s5,-18 # ffffffffdbeadfee <absimm+0xffffffff211a051e>
    800002c8:	00ba9a93          	slli	s5,s5,0xb
    800002cc:	6dfa8a93          	addi	s5,s5,1759
    800002d0:	00ba9a93          	slli	s5,s5,0xb
    800002d4:	2b7a8a93          	addi	s5,s5,695
    800002d8:	00aa9a93          	slli	s5,s5,0xa
    800002dc:	3eea8a93          	addi	s5,s5,1006
    800002e0:	6df57b37          	lui	s6,0x6df57
    800002e4:	ff7b0b13          	addi	s6,s6,-9 # 6df56ff7 <absimmsh+0x6248624a>
    800002e8:	00bb1b13          	slli	s6,s6,0xb
    800002ec:	36fb0b13          	addi	s6,s6,879
    800002f0:	00bb1b13          	slli	s6,s6,0xb
    800002f4:	55bb0b13          	addi	s6,s6,1371
    800002f8:	00ab1b13          	slli	s6,s6,0xa
    800002fc:	3f7b0b13          	addi	s6,s6,1015
    80000300:	b6fabbb7          	lui	s7,0xb6fab
    80000304:	7fbb8b93          	addi	s7,s7,2043 # ffffffffb6fab7fb <absimm+0xfffffffefc29dd2b>
    80000308:	00bb9b93          	slli	s7,s7,0xb
    8000030c:	5b7b8b93          	addi	s7,s7,1463
    80000310:	00bb9b93          	slli	s7,s7,0xb
    80000314:	6adb8b93          	addi	s7,s7,1709
    80000318:	00ab9b93          	slli	s7,s7,0xa
    8000031c:	3fbb8b93          	addi	s7,s7,1019
    80000320:	db7d6c37          	lui	s8,0xdb7d6
    80000324:	bfdc0c13          	addi	s8,s8,-1027 # ffffffffdb7d5bfd <absimm+0xffffffff20ac812d>
    80000328:	00bc1c13          	slli	s8,s8,0xb
    8000032c:	6dbc0c13          	addi	s8,s8,1755
    80000330:	00bc1c13          	slli	s8,s8,0xb
    80000334:	756c0c13          	addi	s8,s8,1878
    80000338:	00ac1c13          	slli	s8,s8,0xa
    8000033c:	3fdc0c13          	addi	s8,s8,1021
    80000340:	edbebcb7          	lui	s9,0xedbeb
    80000344:	dfec8c93          	addi	s9,s9,-514 # ffffffffedbeadfe <absimm+0xffffffff32edd32e>
    80000348:	00bc9c93          	slli	s9,s9,0xb
    8000034c:	76dc8c93          	addi	s9,s9,1901
    80000350:	00bc9c93          	slli	s9,s9,0xb
    80000354:	7abc8c93          	addi	s9,s9,1963
    80000358:	00ac9c93          	slli	s9,s9,0xa
    8000035c:	1fec8c93          	addi	s9,s9,510
    80000360:	76df5d37          	lui	s10,0x76df5
    80000364:	6ffd0d13          	addi	s10,s10,1791 # 76df56ff <absimmsh+0x6b324952>
    80000368:	00bd1d13          	slli	s10,s10,0xb
    8000036c:	3b6d0d13          	addi	s10,s10,950
    80000370:	00bd1d13          	slli	s10,s10,0xb
    80000374:	7d5d0d13          	addi	s10,s10,2005
    80000378:	00ad1d13          	slli	s10,s10,0xa
    8000037c:	2ffd0d13          	addi	s10,s10,767
    80000380:	bb6fbdb7          	lui	s11,0xbb6fb
    80000384:	b7fd8d93          	addi	s11,s11,-1153 # ffffffffbb6fab7f <absimm+0xffffffff009ed0af>
    80000388:	00bd9d93          	slli	s11,s11,0xb
    8000038c:	5dbd8d93          	addi	s11,s11,1499
    80000390:	00bd9d93          	slli	s11,s11,0xb
    80000394:	3ead8d93          	addi	s11,s11,1002
    80000398:	00ad9d93          	slli	s11,s11,0xa
    8000039c:	37fd8d93          	addi	s11,s11,895
    800003a0:	ddb7de37          	lui	t3,0xddb7d
    800003a4:	5bfe0e13          	addi	t3,t3,1471 # ffffffffddb7d5bf <absimm+0xffffffff22e6faef>
    800003a8:	00be1e13          	slli	t3,t3,0xb
    800003ac:	6ede0e13          	addi	t3,t3,1773
    800003b0:	00be1e13          	slli	t3,t3,0xb
    800003b4:	5f5e0e13          	addi	t3,t3,1525
    800003b8:	00ae1e13          	slli	t3,t3,0xa
    800003bc:	1bfe0e13          	addi	t3,t3,447
    800003c0:	eedbfeb7          	lui	t4,0xeedbf
    800003c4:	adfe8e93          	addi	t4,t4,-1313 # ffffffffeedbeadf <absimm+0xffffffff340b100f>
    800003c8:	00be9e93          	slli	t4,t4,0xb
    800003cc:	776e8e93          	addi	t4,t4,1910
    800003d0:	00be9e93          	slli	t4,t4,0xb
    800003d4:	6fae8e93          	addi	t4,t4,1786
    800003d8:	00ae9e93          	slli	t4,t4,0xa
    800003dc:	2dfe8e93          	addi	t4,t4,735
    800003e0:	f76dff37          	lui	t5,0xf76df
    800003e4:	56ff0f13          	addi	t5,t5,1391 # fffffffff76df56f <absimm+0xffffffff3c9d1a9f>
    800003e8:	00bf1f13          	slli	t5,t5,0xb
    800003ec:	7bbf0f13          	addi	t5,t5,1979
    800003f0:	00bf1f13          	slli	t5,t5,0xb
    800003f4:	37df0f13          	addi	t5,t5,893
    800003f8:	00af1f13          	slli	t5,t5,0xa
    800003fc:	16ff0f13          	addi	t5,t5,367
    80000400:	fbb70fb7          	lui	t6,0xfbb70
    80000404:	ab7f8f93          	addi	t6,t6,-1353 # fffffffffbb6fab7 <absimm+0xffffffff40e61fe7>
    80000408:	00bf9f93          	slli	t6,t6,0xb
    8000040c:	7ddf8f93          	addi	t6,t6,2013
    80000410:	00bf9f93          	slli	t6,t6,0xb
    80000414:	5bef8f93          	addi	t6,t6,1470
    80000418:	00af9f93          	slli	t6,t6,0xa
    8000041c:	2b7f8f93          	addi	t6,t6,695

0000000080000420 <rvtest_code_begin>:
    80000420:	00008797          	auipc	a5,0x8
    80000424:	be878793          	addi	a5,a5,-1048 # 80008008 <signature_x15_0>
    80000428:	00000013          	nop
    8000042c:	00000013          	nop
    80000430:	00000013          	nop
    80000434:	00000013          	nop
    80000438:	00000013          	nop
    8000043c:	00000013          	nop

0000000080000440 <inst_0>:
    80000440:	aaaab8b7          	lui	a7,0xaaaab
    80000444:	aaa88893          	addi	a7,a7,-1366 # ffffffffaaaaaaaa <absimm+0xfffffffeefd9cfda>
    80000448:	00b89893          	slli	a7,a7,0xb
    8000044c:	55588893          	addi	a7,a7,1365
    80000450:	00b89893          	slli	a7,a7,0xb
    80000454:	2aa88893          	addi	a7,a7,682
    80000458:	00a89893          	slli	a7,a7,0xa
    8000045c:	2aa88893          	addi	a7,a7,682
    80000460:	8008889b          	addiw	a7,a7,-2048
    80000464:	0117b023          	sd	a7,0(a5)
    80000468:	aaaaa2b7          	lui	t0,0xaaaaa
    8000046c:	2aa2829b          	addiw	t0,t0,682 # ffffffffaaaaa2aa <absimm+0xfffffffeefd9c7da>
    80000470:	01128463          	beq	t0,a7,80000478 <inst_1>
    80000474:	bb1ff06f          	j	80000024 <rvtest_error>

0000000080000478 <inst_1>:
    80000478:	00100113          	li	sp,1
    8000047c:	01d11113          	slli	sp,sp,0x1d
    80000480:	fff14113          	not	sp,sp
    80000484:	00010a1b          	sext.w	s4,sp
    80000488:	0147b423          	sd	s4,8(a5)
    8000048c:	e00002b7          	lui	t0,0xe0000
    80000490:	fff2829b          	addiw	t0,t0,-1 # ffffffffdfffffff <absimm+0xffffffff252f252f>
    80000494:	01428463          	beq	t0,s4,8000049c <inst_2>
    80000498:	b8dff06f          	j	80000024 <rvtest_error>

000000008000049c <inst_2>:
    8000049c:	fff00a13          	li	s4,-1
    800004a0:	03ea1a13          	slli	s4,s4,0x3e
    800004a4:	7ffa081b          	addiw	a6,s4,2047
    800004a8:	0107b823          	sd	a6,16(a5)
    800004ac:	7ff00293          	li	t0,2047
    800004b0:	01028463          	beq	t0,a6,800004b8 <inst_3>
    800004b4:	b71ff06f          	j	80000024 <rvtest_error>

00000000800004b8 <inst_3>:
    800004b8:	55555d37          	lui	s10,0x55555
    800004bc:	555d0d13          	addi	s10,s10,1365 # 55555555 <absimmsh+0x49a847a8>
    800004c0:	00bd1d13          	slli	s10,s10,0xb
    800004c4:	2aad0d13          	addi	s10,s10,682
    800004c8:	00bd1d13          	slli	s10,s10,0xb
    800004cc:	555d0d13          	addi	s10,s10,1365
    800004d0:	00ad1d13          	slli	s10,s10,0xa
    800004d4:	156d0d13          	addi	s10,s10,342
    800004d8:	001d0e9b          	addiw	t4,s10,1
    800004dc:	01d7bc23          	sd	t4,24(a5)
    800004e0:	555552b7          	lui	t0,0x55555
    800004e4:	5572829b          	addiw	t0,t0,1367 # 55555557 <absimmsh+0x49a847aa>
    800004e8:	01d28463          	beq	t0,t4,800004f0 <inst_4>
    800004ec:	b39ff06f          	j	80000024 <rvtest_error>

00000000800004f0 <inst_4>:
    800004f0:	fff00413          	li	s0,-1
    800004f4:	03f41413          	slli	s0,s0,0x3f
    800004f8:	33340d9b          	addiw	s11,s0,819
    800004fc:	03b7b023          	sd	s11,32(a5)
    80000500:	33300293          	li	t0,819
    80000504:	01b28463          	beq	t0,s11,8000050c <inst_5>
    80000508:	b1dff06f          	j	80000024 <rvtest_error>

000000008000050c <inst_5>:
    8000050c:	00000913          	li	s2,0
    80000510:	aaa90c9b          	addiw	s9,s2,-1366
    80000514:	0397b423          	sd	s9,40(a5)
    80000518:	aaa00293          	li	t0,-1366
    8000051c:	01928463          	beq	t0,s9,80000524 <inst_6>
    80000520:	b05ff06f          	j	80000024 <rvtest_error>

0000000080000524 <inst_6>:
    80000524:	fff00393          	li	t2,-1
    80000528:	0013d393          	srli	t2,t2,0x1
    8000052c:	0073831b          	addiw	t1,t2,7
    80000530:	0267b823          	sd	t1,48(a5)
    80000534:	00600293          	li	t0,6
    80000538:	00628463          	beq	t0,t1,80000540 <inst_7>
    8000053c:	ae9ff06f          	j	80000024 <rvtest_error>

0000000080000540 <inst_7>:
    80000540:	00100513          	li	a0,1
    80000544:	0065001b          	addiw	zero,a0,6
    80000548:	0207bc23          	sd	zero,56(a5)
    8000054c:	00000293          	li	t0,0
    80000550:	00028463          	beqz	t0,80000558 <inst_8>
    80000554:	ad1ff06f          	j	80000024 <rvtest_error>

0000000080000558 <inst_8>:
    80000558:	00800d93          	li	s11,8
    8000055c:	008d849b          	addiw	s1,s11,8
    80000560:	0497b023          	sd	s1,64(a5)
    80000564:	01000293          	li	t0,16
    80000568:	00928463          	beq	t0,s1,80000570 <inst_9>
    8000056c:	ab9ff06f          	j	80000024 <rvtest_error>

0000000080000570 <inst_9>:
    80000570:	00700313          	li	t1,7
    80000574:	c0030f9b          	addiw	t6,t1,-1024
    80000578:	05f7b423          	sd	t6,72(a5)
    8000057c:	c0700293          	li	t0,-1017
    80000580:	01f28463          	beq	t0,t6,80000588 <inst_10>
    80000584:	aa1ff06f          	j	80000024 <rvtest_error>

0000000080000588 <inst_10>:
    80000588:	00000013          	nop
    8000058c:	00200b1b          	addiw	s6,zero,2
    80000590:	0567b823          	sd	s6,80(a5)
    80000594:	00200293          	li	t0,2
    80000598:	01628463          	beq	t0,s6,800005a0 <inst_11>
    8000059c:	a89ff06f          	j	80000024 <rvtest_error>

00000000800005a0 <inst_11>:
    800005a0:	ffe00813          	li	a6,-2
    800005a4:	0048039b          	addiw	t2,a6,4
    800005a8:	0477bc23          	sd	t2,88(a5)
    800005ac:	00200293          	li	t0,2
    800005b0:	00728463          	beq	t0,t2,800005b8 <inst_12>
    800005b4:	a71ff06f          	j	80000024 <rvtest_error>

00000000800005b8 <inst_12>:
    800005b8:	00400993          	li	s3,4
    800005bc:	01098a9b          	addiw	s5,s3,16
    800005c0:	0757b023          	sd	s5,96(a5)
    800005c4:	01400293          	li	t0,20
    800005c8:	01528463          	beq	t0,s5,800005d0 <inst_13>
    800005cc:	a59ff06f          	j	80000024 <rvtest_error>

00000000800005d0 <inst_13>:
    800005d0:	00100093          	li	ra,1
    800005d4:	03109093          	slli	ra,ra,0x31
    800005d8:	fff0c093          	not	ra,ra
    800005dc:	0200821b          	addiw	tp,ra,32
    800005e0:	0647b423          	sd	tp,104(a5)
    800005e4:	01f00293          	li	t0,31
    800005e8:	00428463          	beq	t0,tp,800005f0 <inst_14>
    800005ec:	a39ff06f          	j	80000024 <rvtest_error>

00000000800005f0 <inst_14>:
    800005f0:	00100693          	li	a3,1
    800005f4:	00e69693          	slli	a3,a3,0xe
    800005f8:	04068b9b          	addiw	s7,a3,64
    800005fc:	0777b823          	sd	s7,112(a5)
    80000600:	000042b7          	lui	t0,0x4
    80000604:	0402829b          	addiw	t0,t0,64 # 4040 <offset+0x3d68>
    80000608:	01728463          	beq	t0,s7,80000610 <inst_15>
    8000060c:	a19ff06f          	j	80000024 <rvtest_error>

0000000080000610 <inst_15>:
    80000610:	fff00e93          	li	t4,-1
    80000614:	03ee9e93          	slli	t4,t4,0x3e
    80000618:	080e869b          	addiw	a3,t4,128
    8000061c:	06d7bc23          	sd	a3,120(a5)
    80000620:	08000293          	li	t0,128
    80000624:	00d28463          	beq	t0,a3,8000062c <inst_16>
    80000628:	9fdff06f          	j	80000024 <rvtest_error>

000000008000062c <inst_16>:
    8000062c:	ff900c13          	li	s8,-7
    80000630:	100c061b          	addiw	a2,s8,256
    80000634:	08c7b023          	sd	a2,128(a5)
    80000638:	0f900293          	li	t0,249
    8000063c:	00c28463          	beq	t0,a2,80000644 <inst_17>
    80000640:	9e5ff06f          	j	80000024 <rvtest_error>

0000000080000644 <inst_17>:
    80000644:	00100f93          	li	t6,1
    80000648:	02bf9f93          	slli	t6,t6,0x2b
    8000064c:	ffffcf93          	not	t6,t6
    80000650:	200f851b          	addiw	a0,t6,512
    80000654:	08a7b423          	sd	a0,136(a5)
    80000658:	1ff00293          	li	t0,511
    8000065c:	00a28463          	beq	t0,a0,80000664 <inst_18>
    80000660:	9c5ff06f          	j	80000024 <rvtest_error>

0000000080000664 <inst_18>:
    80000664:	000005b7          	lui	a1,0x0
    80000668:	00058593          	mv	a1,a1
    8000066c:	00b59593          	slli	a1,a1,0xb
    80000670:	5a858593          	addi	a1,a1,1448 # 5a8 <offset+0x2d0>
    80000674:	00b59593          	slli	a1,a1,0xb
    80000678:	13c58593          	addi	a1,a1,316
    8000067c:	00a59593          	slli	a1,a1,0xa
    80000680:	33258593          	addi	a1,a1,818
    80000684:	4005819b          	addiw	gp,a1,1024
    80000688:	0837b823          	sd	gp,144(a5)
    8000068c:	b504f2b7          	lui	t0,0xb504f
    80000690:	7322829b          	addiw	t0,t0,1842 # ffffffffb504f732 <absimm+0xfffffffefa341c62>
    80000694:	00328463          	beq	t0,gp,8000069c <inst_19>
    80000698:	98dff06f          	j	80000024 <rvtest_error>

000000008000069c <inst_19>:
    8000069c:	00100493          	li	s1,1
    800006a0:	03449493          	slli	s1,s1,0x34
    800006a4:	ffe4871b          	addiw	a4,s1,-2
    800006a8:	08e7bc23          	sd	a4,152(a5)
    800006ac:	ffe00293          	li	t0,-2
    800006b0:	00e28463          	beq	t0,a4,800006b8 <inst_20>
    800006b4:	971ff06f          	j	80000024 <rvtest_error>

00000000800006b8 <inst_20>:
    800006b8:	00100713          	li	a4,1
    800006bc:	01e71713          	slli	a4,a4,0x1e
    800006c0:	ffd70d1b          	addiw	s10,a4,-3
    800006c4:	0ba7b023          	sd	s10,160(a5)
    800006c8:	400003b7          	lui	t2,0x40000
    800006cc:	ffd3839b          	addiw	t2,t2,-3 # 3ffffffd <absimmsh+0x3452f250>
    800006d0:	01a38463          	beq	t2,s10,800006d8 <inst_21>
    800006d4:	951ff06f          	j	80000024 <rvtest_error>

00000000800006d8 <inst_21>:
    800006d8:	00000e13          	li	t3,0
    800006dc:	ffbe029b          	addiw	t0,t3,-5
    800006e0:	0a57b423          	sd	t0,168(a5)
    800006e4:	ffb00393          	li	t2,-5
    800006e8:	00538463          	beq	t2,t0,800006f0 <inst_21+0x18>
    800006ec:	939ff06f          	j	80000024 <rvtest_error>
    800006f0:	00000013          	nop
    800006f4:	00000013          	nop
    800006f8:	00000013          	nop
    800006fc:	00000013          	nop
    80000700:	00008317          	auipc	t1,0x8
    80000704:	9b830313          	addi	t1,t1,-1608 # 800080b8 <signature_x6_0>
    80000708:	00000013          	nop
    8000070c:	00000013          	nop
    80000710:	00000013          	nop
    80000714:	00000013          	nop
    80000718:	00000013          	nop
    8000071c:	00000013          	nop

0000000080000720 <inst_22>:
    80000720:	00100c93          	li	s9,1
    80000724:	01fc9c93          	slli	s9,s9,0x1f
    80000728:	fffccc93          	not	s9,s9
    8000072c:	ff7c891b          	addiw	s2,s9,-9
    80000730:	01233023          	sd	s2,0(t1)
    80000734:	800003b7          	lui	t2,0x80000
    80000738:	ff63839b          	addiw	t2,t2,-10 # 7ffffff6 <absimmsh+0x7452f249>
    8000073c:	01238463          	beq	t2,s2,80000744 <inst_23>
    80000740:	8e5ff06f          	j	80000024 <rvtest_error>

0000000080000744 <inst_23>:
    80000744:	00100213          	li	tp,1
    80000748:	03721213          	slli	tp,tp,0x37
    8000074c:	fff24213          	not	tp,tp
    80000750:	fef2099b          	addiw	s3,tp,-17 # ffffffffffffffef <imm12sh+0x242>
    80000754:	01333423          	sd	s3,8(t1)
    80000758:	fee00393          	li	t2,-18
    8000075c:	01338463          	beq	t2,s3,80000764 <inst_24>
    80000760:	8c5ff06f          	j	80000024 <rvtest_error>

0000000080000764 <inst_24>:
    80000764:	00100f13          	li	t5,1
    80000768:	014f1f13          	slli	t5,t5,0x14
    8000076c:	ffff4f13          	not	t5,t5
    80000770:	fdff011b          	addiw	sp,t5,-33
    80000774:	00233823          	sd	sp,16(t1)
    80000778:	fff003b7          	lui	t2,0xfff00
    8000077c:	fde3839b          	addiw	t2,t2,-34 # ffffffffffefffde <absimm+0xffffffff451f250e>
    80000780:	00238463          	beq	t2,sp,80000788 <inst_25>
    80000784:	8a1ff06f          	j	80000024 <rvtest_error>

0000000080000788 <inst_25>:
    80000788:	00100a93          	li	s5,1
    8000078c:	03aa9a93          	slli	s5,s5,0x3a
    80000790:	fffaca93          	not	s5,s5
    80000794:	fbfa879b          	addiw	a5,s5,-65
    80000798:	00f33c23          	sd	a5,24(t1)
    8000079c:	fbe00393          	li	t2,-66
    800007a0:	00f38463          	beq	t2,a5,800007a8 <inst_26>
    800007a4:	881ff06f          	j	80000024 <rvtest_error>

00000000800007a8 <inst_26>:
    800007a8:	fff00193          	li	gp,-1
    800007ac:	03f19193          	slli	gp,gp,0x3f
    800007b0:	f7f1841b          	addiw	s0,gp,-129
    800007b4:	02833023          	sd	s0,32(t1)
    800007b8:	f7f00393          	li	t2,-129
    800007bc:	00838463          	beq	t2,s0,800007c4 <inst_27>
    800007c0:	865ff06f          	j	80000024 <rvtest_error>

00000000800007c4 <inst_27>:
    800007c4:	33333637          	lui	a2,0x33333
    800007c8:	33360613          	addi	a2,a2,819 # 33333333 <absimmsh+0x27862586>
    800007cc:	00b61613          	slli	a2,a2,0xb
    800007d0:	19960613          	addi	a2,a2,409
    800007d4:	00b61613          	slli	a2,a2,0xb
    800007d8:	4cc60613          	addi	a2,a2,1228
    800007dc:	00a61613          	slli	a2,a2,0xa
    800007e0:	33460613          	addi	a2,a2,820
    800007e4:	eff60f1b          	addiw	t5,a2,-257
    800007e8:	03e33423          	sd	t5,40(t1)
    800007ec:	333333b7          	lui	t2,0x33333
    800007f0:	2333839b          	addiw	t2,t2,563 # 33333233 <absimmsh+0x27862486>
    800007f4:	01e38463          	beq	t2,t5,800007fc <inst_28>
    800007f8:	82dff06f          	j	80000024 <rvtest_error>

00000000800007fc <inst_28>:
    800007fc:	00100793          	li	a5,1
    80000800:	01679793          	slli	a5,a5,0x16
    80000804:	dff7859b          	addiw	a1,a5,-513
    80000808:	02b33823          	sd	a1,48(t1)
    8000080c:	004003b7          	lui	t2,0x400
    80000810:	dff3839b          	addiw	t2,t2,-513 # 3ffdff <offset+0x3ffb27>
    80000814:	00b38463          	beq	t2,a1,8000081c <inst_29>
    80000818:	80dff06f          	j	80000024 <rvtest_error>

000000008000081c <inst_29>:
    8000081c:	ff600b93          	li	s7,-10
    80000820:	bffb8c1b          	addiw	s8,s7,-1025
    80000824:	03833c23          	sd	s8,56(t1)
    80000828:	bf500393          	li	t2,-1035
    8000082c:	01838463          	beq	t2,s8,80000834 <inst_30>
    80000830:	ff4ff06f          	j	80000024 <rvtest_error>

0000000080000834 <inst_30>:
    80000834:	aaaab2b7          	lui	t0,0xaaaab
    80000838:	aaa28293          	addi	t0,t0,-1366 # ffffffffaaaaaaaa <absimm+0xfffffffeefd9cfda>
    8000083c:	00b29293          	slli	t0,t0,0xb
    80000840:	55528293          	addi	t0,t0,1365
    80000844:	00b29293          	slli	t0,t0,0xb
    80000848:	2aa28293          	addi	t0,t0,682
    8000084c:	00a29293          	slli	t0,t0,0xa
    80000850:	2aa28293          	addi	t0,t0,682
    80000854:	55528e1b          	addiw	t3,t0,1365
    80000858:	05c33023          	sd	t3,64(t1)
    8000085c:	aaaab3b7          	lui	t2,0xaaaab
    80000860:	fff3839b          	addiw	t2,t2,-1 # ffffffffaaaaafff <absimm+0xfffffffeefd9d52f>
    80000864:	01c38463          	beq	t2,t3,8000086c <inst_31>
    80000868:	fbcff06f          	j	80000024 <rvtest_error>

000000008000086c <inst_31>:
    8000086c:	00200b13          	li	s6,2
    80000870:	333b009b          	addiw	ra,s6,819
    80000874:	04133423          	sd	ra,72(t1)
    80000878:	33500393          	li	t2,821
    8000087c:	00138463          	beq	t2,ra,80000884 <inst_32>
    80000880:	fa4ff06f          	j	80000024 <rvtest_error>

0000000080000884 <inst_32>:
    80000884:	01000513          	li	a0,16
    80000888:	0095059b          	addiw	a1,a0,9
    8000088c:	04b33823          	sd	a1,80(t1)
    80000890:	01900393          	li	t2,25
    80000894:	00b38463          	beq	t2,a1,8000089c <inst_33>
    80000898:	f8cff06f          	j	80000024 <rvtest_error>

000000008000089c <inst_33>:
    8000089c:	02000513          	li	a0,32
    800008a0:	0045059b          	addiw	a1,a0,4
    800008a4:	04b33c23          	sd	a1,88(t1)
    800008a8:	02400393          	li	t2,36
    800008ac:	00b38463          	beq	t2,a1,800008b4 <inst_34>
    800008b0:	f74ff06f          	j	80000024 <rvtest_error>

00000000800008b4 <inst_34>:
    800008b4:	04000513          	li	a0,64
    800008b8:	5545059b          	addiw	a1,a0,1364
    800008bc:	06b33023          	sd	a1,96(t1)
    800008c0:	59400393          	li	t2,1428
    800008c4:	00b38463          	beq	t2,a1,800008cc <inst_35>
    800008c8:	f5cff06f          	j	80000024 <rvtest_error>

00000000800008cc <inst_35>:
    800008cc:	08000513          	li	a0,128
    800008d0:	0005059b          	sext.w	a1,a0
    800008d4:	06b33423          	sd	a1,104(t1)
    800008d8:	08000393          	li	t2,128
    800008dc:	00b38463          	beq	t2,a1,800008e4 <inst_36>
    800008e0:	f44ff06f          	j	80000024 <rvtest_error>

00000000800008e4 <inst_36>:
    800008e4:	10000513          	li	a0,256
    800008e8:	0085059b          	addiw	a1,a0,8
    800008ec:	06b33823          	sd	a1,112(t1)
    800008f0:	10800393          	li	t2,264
    800008f4:	00b38463          	beq	t2,a1,800008fc <inst_37>
    800008f8:	f2cff06f          	j	80000024 <rvtest_error>

00000000800008fc <inst_37>:
    800008fc:	20000513          	li	a0,512
    80000900:	3ff5059b          	addiw	a1,a0,1023
    80000904:	06b33c23          	sd	a1,120(t1)
    80000908:	5ff00393          	li	t2,1535
    8000090c:	00b38463          	beq	t2,a1,80000914 <inst_38>
    80000910:	f14ff06f          	j	80000024 <rvtest_error>

0000000080000914 <inst_38>:
    80000914:	40000513          	li	a0,1024
    80000918:	02e5059b          	addiw	a1,a0,46
    8000091c:	08b33023          	sd	a1,128(t1)
    80000920:	42e00393          	li	t2,1070
    80000924:	00b38463          	beq	t2,a1,8000092c <inst_39>
    80000928:	efcff06f          	j	80000024 <rvtest_error>

000000008000092c <inst_39>:
    8000092c:	00100513          	li	a0,1
    80000930:	00b51513          	slli	a0,a0,0xb
    80000934:	3345059b          	addiw	a1,a0,820
    80000938:	08b33423          	sd	a1,136(t1)
    8000093c:	000013b7          	lui	t2,0x1
    80000940:	b343839b          	addiw	t2,t2,-1228 # b34 <offset+0x85c>
    80000944:	00b38463          	beq	t2,a1,8000094c <inst_40>
    80000948:	edcff06f          	j	80000024 <rvtest_error>

000000008000094c <inst_40>:
    8000094c:	00100513          	li	a0,1
    80000950:	00c51513          	slli	a0,a0,0xc
    80000954:	5555059b          	addiw	a1,a0,1365
    80000958:	08b33823          	sd	a1,144(t1)
    8000095c:	000013b7          	lui	t2,0x1
    80000960:	5553839b          	addiw	t2,t2,1365 # 1555 <offset+0x127d>
    80000964:	00b38463          	beq	t2,a1,8000096c <inst_41>
    80000968:	ebcff06f          	j	80000024 <rvtest_error>

000000008000096c <inst_41>:
    8000096c:	00100513          	li	a0,1
    80000970:	00d51513          	slli	a0,a0,0xd
    80000974:	0805059b          	addiw	a1,a0,128
    80000978:	08b33c23          	sd	a1,152(t1)
    8000097c:	000023b7          	lui	t2,0x2
    80000980:	0803839b          	addiw	t2,t2,128 # 2080 <offset+0x1da8>
    80000984:	00b38463          	beq	t2,a1,8000098c <inst_42>
    80000988:	e9cff06f          	j	80000024 <rvtest_error>

000000008000098c <inst_42>:
    8000098c:	00100513          	li	a0,1
    80000990:	00f51513          	slli	a0,a0,0xf
    80000994:	0805059b          	addiw	a1,a0,128
    80000998:	0ab33023          	sd	a1,160(t1)
    8000099c:	000083b7          	lui	t2,0x8
    800009a0:	0803839b          	addiw	t2,t2,128 # 8080 <offset+0x7da8>
    800009a4:	00b38463          	beq	t2,a1,800009ac <inst_43>
    800009a8:	e7cff06f          	j	80000024 <rvtest_error>

00000000800009ac <inst_43>:
    800009ac:	00100513          	li	a0,1
    800009b0:	01051513          	slli	a0,a0,0x10
    800009b4:	ff95059b          	addiw	a1,a0,-7
    800009b8:	0ab33423          	sd	a1,168(t1)
    800009bc:	000103b7          	lui	t2,0x10
    800009c0:	ff93839b          	addiw	t2,t2,-7 # fff9 <offset+0xfd21>
    800009c4:	00b38463          	beq	t2,a1,800009cc <inst_44>
    800009c8:	e5cff06f          	j	80000024 <rvtest_error>

00000000800009cc <inst_44>:
    800009cc:	00100513          	li	a0,1
    800009d0:	01151513          	slli	a0,a0,0x11
    800009d4:	0075059b          	addiw	a1,a0,7
    800009d8:	0ab33823          	sd	a1,176(t1)
    800009dc:	000203b7          	lui	t2,0x20
    800009e0:	0073839b          	addiw	t2,t2,7 # 20007 <offset+0x1fd2f>
    800009e4:	00b38463          	beq	t2,a1,800009ec <inst_45>
    800009e8:	e3cff06f          	j	80000024 <rvtest_error>

00000000800009ec <inst_45>:
    800009ec:	00100513          	li	a0,1
    800009f0:	01251513          	slli	a0,a0,0x12
    800009f4:	fd45059b          	addiw	a1,a0,-44
    800009f8:	0ab33c23          	sd	a1,184(t1)
    800009fc:	000403b7          	lui	t2,0x40
    80000a00:	fd43839b          	addiw	t2,t2,-44 # 3ffd4 <offset+0x3fcfc>
    80000a04:	00b38463          	beq	t2,a1,80000a0c <inst_46>
    80000a08:	e1cff06f          	j	80000024 <rvtest_error>

0000000080000a0c <inst_46>:
    80000a0c:	00100513          	li	a0,1
    80000a10:	01351513          	slli	a0,a0,0x13
    80000a14:	6655059b          	addiw	a1,a0,1637
    80000a18:	0cb33023          	sd	a1,192(t1)
    80000a1c:	000803b7          	lui	t2,0x80
    80000a20:	6653839b          	addiw	t2,t2,1637 # 80665 <offset+0x8038d>
    80000a24:	00b38463          	beq	t2,a1,80000a2c <inst_47>
    80000a28:	dfcff06f          	j	80000024 <rvtest_error>

0000000080000a2c <inst_47>:
    80000a2c:	00100513          	li	a0,1
    80000a30:	01451513          	slli	a0,a0,0x14
    80000a34:	ff75059b          	addiw	a1,a0,-9
    80000a38:	0cb33423          	sd	a1,200(t1)
    80000a3c:	001003b7          	lui	t2,0x100
    80000a40:	ff73839b          	addiw	t2,t2,-9 # ffff7 <offset+0xffd1f>
    80000a44:	00b38463          	beq	t2,a1,80000a4c <inst_48>
    80000a48:	ddcff06f          	j	80000024 <rvtest_error>

0000000080000a4c <inst_48>:
    80000a4c:	00100513          	li	a0,1
    80000a50:	01551513          	slli	a0,a0,0x15
    80000a54:	0025059b          	addiw	a1,a0,2
    80000a58:	0cb33823          	sd	a1,208(t1)
    80000a5c:	002003b7          	lui	t2,0x200
    80000a60:	0023839b          	addiw	t2,t2,2 # 200002 <offset+0x1ffd2a>
    80000a64:	00b38463          	beq	t2,a1,80000a6c <inst_49>
    80000a68:	dbcff06f          	j	80000024 <rvtest_error>

0000000080000a6c <inst_49>:
    80000a6c:	00100513          	li	a0,1
    80000a70:	01751513          	slli	a0,a0,0x17
    80000a74:	0045059b          	addiw	a1,a0,4
    80000a78:	0cb33c23          	sd	a1,216(t1)
    80000a7c:	008003b7          	lui	t2,0x800
    80000a80:	0043839b          	addiw	t2,t2,4 # 800004 <offset+0x7ffd2c>
    80000a84:	00b38463          	beq	t2,a1,80000a8c <inst_50>
    80000a88:	d9cff06f          	j	80000024 <rvtest_error>

0000000080000a8c <inst_50>:
    80000a8c:	00100513          	li	a0,1
    80000a90:	01851513          	slli	a0,a0,0x18
    80000a94:	0035059b          	addiw	a1,a0,3
    80000a98:	0eb33023          	sd	a1,224(t1)
    80000a9c:	010003b7          	lui	t2,0x1000
    80000aa0:	0033839b          	addiw	t2,t2,3 # 1000003 <offset+0xfffd2b>
    80000aa4:	00b38463          	beq	t2,a1,80000aac <inst_51>
    80000aa8:	d7cff06f          	j	80000024 <rvtest_error>

0000000080000aac <inst_51>:
    80000aac:	00100513          	li	a0,1
    80000ab0:	01951513          	slli	a0,a0,0x19
    80000ab4:	6665059b          	addiw	a1,a0,1638
    80000ab8:	0eb33423          	sd	a1,232(t1)
    80000abc:	020003b7          	lui	t2,0x2000
    80000ac0:	6663839b          	addiw	t2,t2,1638 # 2000666 <offset+0x200038e>
    80000ac4:	00b38463          	beq	t2,a1,80000acc <inst_52>
    80000ac8:	d5cff06f          	j	80000024 <rvtest_error>

0000000080000acc <inst_52>:
    80000acc:	00100513          	li	a0,1
    80000ad0:	01a51513          	slli	a0,a0,0x1a
    80000ad4:	0205059b          	addiw	a1,a0,32
    80000ad8:	0eb33823          	sd	a1,240(t1)
    80000adc:	040003b7          	lui	t2,0x4000
    80000ae0:	0203839b          	addiw	t2,t2,32 # 4000020 <offset+0x3fffd48>
    80000ae4:	00b38463          	beq	t2,a1,80000aec <inst_53>
    80000ae8:	d3cff06f          	j	80000024 <rvtest_error>

0000000080000aec <inst_53>:
    80000aec:	00100513          	li	a0,1
    80000af0:	01b51513          	slli	a0,a0,0x1b
    80000af4:	0095059b          	addiw	a1,a0,9
    80000af8:	0eb33c23          	sd	a1,248(t1)
    80000afc:	080003b7          	lui	t2,0x8000
    80000b00:	0093839b          	addiw	t2,t2,9 # 8000009 <offset+0x7fffd31>
    80000b04:	00b38463          	beq	t2,a1,80000b0c <inst_54>
    80000b08:	d1cff06f          	j	80000024 <rvtest_error>

0000000080000b0c <inst_54>:
    80000b0c:	00100513          	li	a0,1
    80000b10:	01c51513          	slli	a0,a0,0x1c
    80000b14:	0045059b          	addiw	a1,a0,4
    80000b18:	10b33023          	sd	a1,256(t1)
    80000b1c:	100003b7          	lui	t2,0x10000
    80000b20:	0043839b          	addiw	t2,t2,4 # 10000004 <absimmsh+0x452f257>
    80000b24:	00b38463          	beq	t2,a1,80000b2c <inst_55>
    80000b28:	cfcff06f          	j	80000024 <rvtest_error>

0000000080000b2c <inst_55>:
    80000b2c:	00100513          	li	a0,1
    80000b30:	01d51513          	slli	a0,a0,0x1d
    80000b34:	ff95059b          	addiw	a1,a0,-7
    80000b38:	10b33423          	sd	a1,264(t1)
    80000b3c:	200003b7          	lui	t2,0x20000
    80000b40:	ff93839b          	addiw	t2,t2,-7 # 1ffffff9 <absimmsh+0x1452f24c>
    80000b44:	00b38463          	beq	t2,a1,80000b4c <inst_56>
    80000b48:	cdcff06f          	j	80000024 <rvtest_error>

0000000080000b4c <inst_56>:
    80000b4c:	00100513          	li	a0,1
    80000b50:	01f51513          	slli	a0,a0,0x1f
    80000b54:	3345059b          	addiw	a1,a0,820
    80000b58:	10b33823          	sd	a1,272(t1)
    80000b5c:	800003b7          	lui	t2,0x80000
    80000b60:	3343839b          	addiw	t2,t2,820 # ffffffff80000334 <absimm+0xfffffffec52f2864>
    80000b64:	00b38463          	beq	t2,a1,80000b6c <inst_57>
    80000b68:	cbcff06f          	j	80000024 <rvtest_error>

0000000080000b6c <inst_57>:
    80000b6c:	00100513          	li	a0,1
    80000b70:	02151513          	slli	a0,a0,0x21
    80000b74:	0095059b          	addiw	a1,a0,9
    80000b78:	10b33c23          	sd	a1,280(t1)
    80000b7c:	00900393          	li	t2,9
    80000b80:	00b38463          	beq	t2,a1,80000b88 <inst_58>
    80000b84:	ca0ff06f          	j	80000024 <rvtest_error>

0000000080000b88 <inst_58>:
    80000b88:	00100513          	li	a0,1
    80000b8c:	02251513          	slli	a0,a0,0x22
    80000b90:	fd35059b          	addiw	a1,a0,-45
    80000b94:	12b33023          	sd	a1,288(t1)
    80000b98:	fd300393          	li	t2,-45
    80000b9c:	00b38463          	beq	t2,a1,80000ba4 <inst_59>
    80000ba0:	c84ff06f          	j	80000024 <rvtest_error>

0000000080000ba4 <inst_59>:
    80000ba4:	00100513          	li	a0,1
    80000ba8:	02351513          	slli	a0,a0,0x23
    80000bac:	0055059b          	addiw	a1,a0,5
    80000bb0:	12b33423          	sd	a1,296(t1)
    80000bb4:	00500393          	li	t2,5
    80000bb8:	00b38463          	beq	t2,a1,80000bc0 <inst_60>
    80000bbc:	c68ff06f          	j	80000024 <rvtest_error>

0000000080000bc0 <inst_60>:
    80000bc0:	00100513          	li	a0,1
    80000bc4:	02451513          	slli	a0,a0,0x24
    80000bc8:	ffa5059b          	addiw	a1,a0,-6
    80000bcc:	12b33823          	sd	a1,304(t1)
    80000bd0:	ffa00393          	li	t2,-6
    80000bd4:	00b38463          	beq	t2,a1,80000bdc <inst_61>
    80000bd8:	c4cff06f          	j	80000024 <rvtest_error>

0000000080000bdc <inst_61>:
    80000bdc:	00100513          	li	a0,1
    80000be0:	02551513          	slli	a0,a0,0x25
    80000be4:	fd35059b          	addiw	a1,a0,-45
    80000be8:	12b33c23          	sd	a1,312(t1)
    80000bec:	fd300393          	li	t2,-45
    80000bf0:	00b38463          	beq	t2,a1,80000bf8 <inst_62>
    80000bf4:	c30ff06f          	j	80000024 <rvtest_error>

0000000080000bf8 <inst_62>:
    80000bf8:	00100513          	li	a0,1
    80000bfc:	02651513          	slli	a0,a0,0x26
    80000c00:	0045059b          	addiw	a1,a0,4
    80000c04:	14b33023          	sd	a1,320(t1)
    80000c08:	00400393          	li	t2,4
    80000c0c:	00b38463          	beq	t2,a1,80000c14 <inst_63>
    80000c10:	c14ff06f          	j	80000024 <rvtest_error>

0000000080000c14 <inst_63>:
    80000c14:	00100513          	li	a0,1
    80000c18:	02751513          	slli	a0,a0,0x27
    80000c1c:	1005059b          	addiw	a1,a0,256
    80000c20:	14b33423          	sd	a1,328(t1)
    80000c24:	10000393          	li	t2,256
    80000c28:	00b38463          	beq	t2,a1,80000c30 <inst_64>
    80000c2c:	bf8ff06f          	j	80000024 <rvtest_error>

0000000080000c30 <inst_64>:
    80000c30:	00100513          	li	a0,1
    80000c34:	02851513          	slli	a0,a0,0x28
    80000c38:	0065059b          	addiw	a1,a0,6
    80000c3c:	14b33823          	sd	a1,336(t1)
    80000c40:	00600393          	li	t2,6
    80000c44:	00b38463          	beq	t2,a1,80000c4c <inst_65>
    80000c48:	bdcff06f          	j	80000024 <rvtest_error>

0000000080000c4c <inst_65>:
    80000c4c:	00100513          	li	a0,1
    80000c50:	02951513          	slli	a0,a0,0x29
    80000c54:	ffd5059b          	addiw	a1,a0,-3
    80000c58:	14b33c23          	sd	a1,344(t1)
    80000c5c:	ffd00393          	li	t2,-3
    80000c60:	00b38463          	beq	t2,a1,80000c68 <inst_66>
    80000c64:	bc0ff06f          	j	80000024 <rvtest_error>

0000000080000c68 <inst_66>:
    80000c68:	00100513          	li	a0,1
    80000c6c:	02a51513          	slli	a0,a0,0x2a
    80000c70:	ff65059b          	addiw	a1,a0,-10
    80000c74:	16b33023          	sd	a1,352(t1)
    80000c78:	ff600393          	li	t2,-10
    80000c7c:	00b38463          	beq	t2,a1,80000c84 <inst_67>
    80000c80:	ba4ff06f          	j	80000024 <rvtest_error>

0000000080000c84 <inst_67>:
    80000c84:	00100513          	li	a0,1
    80000c88:	02b51513          	slli	a0,a0,0x2b
    80000c8c:	0055059b          	addiw	a1,a0,5
    80000c90:	16b33423          	sd	a1,360(t1)
    80000c94:	00500393          	li	t2,5
    80000c98:	00b38463          	beq	t2,a1,80000ca0 <inst_68>
    80000c9c:	b88ff06f          	j	80000024 <rvtest_error>

0000000080000ca0 <inst_68>:
    80000ca0:	00100513          	li	a0,1
    80000ca4:	02c51513          	slli	a0,a0,0x2c
    80000ca8:	ffa5059b          	addiw	a1,a0,-6
    80000cac:	16b33823          	sd	a1,368(t1)
    80000cb0:	ffa00393          	li	t2,-6
    80000cb4:	00b38463          	beq	t2,a1,80000cbc <inst_69>
    80000cb8:	b6cff06f          	j	80000024 <rvtest_error>

0000000080000cbc <inst_69>:
    80000cbc:	00100513          	li	a0,1
    80000cc0:	02d51513          	slli	a0,a0,0x2d
    80000cc4:	ffc5059b          	addiw	a1,a0,-4
    80000cc8:	16b33c23          	sd	a1,376(t1)
    80000ccc:	ffc00393          	li	t2,-4
    80000cd0:	00b38463          	beq	t2,a1,80000cd8 <inst_70>
    80000cd4:	b50ff06f          	j	80000024 <rvtest_error>

0000000080000cd8 <inst_70>:
    80000cd8:	00100513          	li	a0,1
    80000cdc:	02e51513          	slli	a0,a0,0x2e
    80000ce0:	3345059b          	addiw	a1,a0,820
    80000ce4:	18b33023          	sd	a1,384(t1)
    80000ce8:	33400393          	li	t2,820
    80000cec:	00b38463          	beq	t2,a1,80000cf4 <inst_71>
    80000cf0:	b34ff06f          	j	80000024 <rvtest_error>

0000000080000cf4 <inst_71>:
    80000cf4:	00100513          	li	a0,1
    80000cf8:	02f51513          	slli	a0,a0,0x2f
    80000cfc:	5555059b          	addiw	a1,a0,1365
    80000d00:	18b33423          	sd	a1,392(t1)
    80000d04:	55500393          	li	t2,1365
    80000d08:	00b38463          	beq	t2,a1,80000d10 <inst_72>
    80000d0c:	b18ff06f          	j	80000024 <rvtest_error>

0000000080000d10 <inst_72>:
    80000d10:	00100513          	li	a0,1
    80000d14:	03051513          	slli	a0,a0,0x30
    80000d18:	02c5059b          	addiw	a1,a0,44
    80000d1c:	18b33823          	sd	a1,400(t1)
    80000d20:	02c00393          	li	t2,44
    80000d24:	00b38463          	beq	t2,a1,80000d2c <inst_73>
    80000d28:	afcff06f          	j	80000024 <rvtest_error>

0000000080000d2c <inst_73>:
    80000d2c:	00100513          	li	a0,1
    80000d30:	03151513          	slli	a0,a0,0x31
    80000d34:	0045059b          	addiw	a1,a0,4
    80000d38:	18b33c23          	sd	a1,408(t1)
    80000d3c:	00400393          	li	t2,4
    80000d40:	00b38463          	beq	t2,a1,80000d48 <inst_74>
    80000d44:	ae0ff06f          	j	80000024 <rvtest_error>

0000000080000d48 <inst_74>:
    80000d48:	00100513          	li	a0,1
    80000d4c:	03251513          	slli	a0,a0,0x32
    80000d50:	6675059b          	addiw	a1,a0,1639
    80000d54:	1ab33023          	sd	a1,416(t1)
    80000d58:	66700393          	li	t2,1639
    80000d5c:	00b38463          	beq	t2,a1,80000d64 <inst_75>
    80000d60:	ac4ff06f          	j	80000024 <rvtest_error>

0000000080000d64 <inst_75>:
    80000d64:	00100513          	li	a0,1
    80000d68:	03351513          	slli	a0,a0,0x33
    80000d6c:	3325059b          	addiw	a1,a0,818
    80000d70:	1ab33423          	sd	a1,424(t1)
    80000d74:	33200393          	li	t2,818
    80000d78:	00b38463          	beq	t2,a1,80000d80 <inst_76>
    80000d7c:	aa8ff06f          	j	80000024 <rvtest_error>

0000000080000d80 <inst_76>:
    80000d80:	00100513          	li	a0,1
    80000d84:	03551513          	slli	a0,a0,0x35
    80000d88:	ff75059b          	addiw	a1,a0,-9
    80000d8c:	1ab33823          	sd	a1,432(t1)
    80000d90:	ff700393          	li	t2,-9
    80000d94:	00b38463          	beq	t2,a1,80000d9c <inst_77>
    80000d98:	a8cff06f          	j	80000024 <rvtest_error>

0000000080000d9c <inst_77>:
    80000d9c:	00100513          	li	a0,1
    80000da0:	03651513          	slli	a0,a0,0x36
    80000da4:	ffd5059b          	addiw	a1,a0,-3
    80000da8:	1ab33c23          	sd	a1,440(t1)
    80000dac:	ffd00393          	li	t2,-3
    80000db0:	00b38463          	beq	t2,a1,80000db8 <inst_78>
    80000db4:	a70ff06f          	j	80000024 <rvtest_error>

0000000080000db8 <inst_78>:
    80000db8:	00100513          	li	a0,1
    80000dbc:	03751513          	slli	a0,a0,0x37
    80000dc0:	ffc5059b          	addiw	a1,a0,-4
    80000dc4:	1cb33023          	sd	a1,448(t1)
    80000dc8:	ffc00393          	li	t2,-4
    80000dcc:	00b38463          	beq	t2,a1,80000dd4 <inst_79>
    80000dd0:	a54ff06f          	j	80000024 <rvtest_error>

0000000080000dd4 <inst_79>:
    80000dd4:	00100513          	li	a0,1
    80000dd8:	03851513          	slli	a0,a0,0x38
    80000ddc:	0085059b          	addiw	a1,a0,8
    80000de0:	1cb33423          	sd	a1,456(t1)
    80000de4:	00800393          	li	t2,8
    80000de8:	00b38463          	beq	t2,a1,80000df0 <inst_80>
    80000dec:	a38ff06f          	j	80000024 <rvtest_error>

0000000080000df0 <inst_80>:
    80000df0:	00100513          	li	a0,1
    80000df4:	03951513          	slli	a0,a0,0x39
    80000df8:	ff85059b          	addiw	a1,a0,-8
    80000dfc:	1cb33823          	sd	a1,464(t1)
    80000e00:	ff800393          	li	t2,-8
    80000e04:	00b38463          	beq	t2,a1,80000e0c <inst_81>
    80000e08:	a1cff06f          	j	80000024 <rvtest_error>

0000000080000e0c <inst_81>:
    80000e0c:	00100513          	li	a0,1
    80000e10:	03a51513          	slli	a0,a0,0x3a
    80000e14:	0015059b          	addiw	a1,a0,1
    80000e18:	1cb33c23          	sd	a1,472(t1)
    80000e1c:	00100393          	li	t2,1
    80000e20:	00b38463          	beq	t2,a1,80000e28 <inst_82>
    80000e24:	a00ff06f          	j	80000024 <rvtest_error>

0000000080000e28 <inst_82>:
    80000e28:	00100513          	li	a0,1
    80000e2c:	03b51513          	slli	a0,a0,0x3b
    80000e30:	0015059b          	addiw	a1,a0,1
    80000e34:	1eb33023          	sd	a1,480(t1)
    80000e38:	00100393          	li	t2,1
    80000e3c:	00b38463          	beq	t2,a1,80000e44 <inst_83>
    80000e40:	9e4ff06f          	j	80000024 <rvtest_error>

0000000080000e44 <inst_83>:
    80000e44:	00100513          	li	a0,1
    80000e48:	03c51513          	slli	a0,a0,0x3c
    80000e4c:	0025059b          	addiw	a1,a0,2
    80000e50:	1eb33423          	sd	a1,488(t1)
    80000e54:	00200393          	li	t2,2
    80000e58:	00b38463          	beq	t2,a1,80000e60 <inst_84>
    80000e5c:	9c8ff06f          	j	80000024 <rvtest_error>

0000000080000e60 <inst_84>:
    80000e60:	00100513          	li	a0,1
    80000e64:	03d51513          	slli	a0,a0,0x3d
    80000e68:	0085059b          	addiw	a1,a0,8
    80000e6c:	1eb33823          	sd	a1,496(t1)
    80000e70:	00800393          	li	t2,8
    80000e74:	00b38463          	beq	t2,a1,80000e7c <inst_85>
    80000e78:	9acff06f          	j	80000024 <rvtest_error>

0000000080000e7c <inst_85>:
    80000e7c:	00100513          	li	a0,1
    80000e80:	03e51513          	slli	a0,a0,0x3e
    80000e84:	3345059b          	addiw	a1,a0,820
    80000e88:	1eb33c23          	sd	a1,504(t1)
    80000e8c:	33400393          	li	t2,820
    80000e90:	00b38463          	beq	t2,a1,80000e98 <inst_86>
    80000e94:	990ff06f          	j	80000024 <rvtest_error>

0000000080000e98 <inst_86>:
    80000e98:	ffd00513          	li	a0,-3
    80000e9c:	5545059b          	addiw	a1,a0,1364
    80000ea0:	20b33023          	sd	a1,512(t1)
    80000ea4:	55100393          	li	t2,1361
    80000ea8:	00b38463          	beq	t2,a1,80000eb0 <inst_87>
    80000eac:	978ff06f          	j	80000024 <rvtest_error>

0000000080000eb0 <inst_87>:
    80000eb0:	ffb00513          	li	a0,-5
    80000eb4:	ffa5059b          	addiw	a1,a0,-6
    80000eb8:	20b33423          	sd	a1,520(t1)
    80000ebc:	ff500393          	li	t2,-11
    80000ec0:	00b38463          	beq	t2,a1,80000ec8 <inst_88>
    80000ec4:	960ff06f          	j	80000024 <rvtest_error>

0000000080000ec8 <inst_88>:
    80000ec8:	ff700513          	li	a0,-9
    80000ecc:	ffa5059b          	addiw	a1,a0,-6
    80000ed0:	20b33823          	sd	a1,528(t1)
    80000ed4:	ff100393          	li	t2,-15
    80000ed8:	00b38463          	beq	t2,a1,80000ee0 <inst_89>
    80000edc:	948ff06f          	j	80000024 <rvtest_error>

0000000080000ee0 <inst_89>:
    80000ee0:	fef00513          	li	a0,-17
    80000ee4:	02c5059b          	addiw	a1,a0,44
    80000ee8:	20b33c23          	sd	a1,536(t1)
    80000eec:	01b00393          	li	t2,27
    80000ef0:	00b38463          	beq	t2,a1,80000ef8 <inst_90>
    80000ef4:	930ff06f          	j	80000024 <rvtest_error>

0000000080000ef8 <inst_90>:
    80000ef8:	fdf00513          	li	a0,-33
    80000efc:	3345059b          	addiw	a1,a0,820
    80000f00:	22b33023          	sd	a1,544(t1)
    80000f04:	31300393          	li	t2,787
    80000f08:	00b38463          	beq	t2,a1,80000f10 <inst_91>
    80000f0c:	918ff06f          	j	80000024 <rvtest_error>

0000000080000f10 <inst_91>:
    80000f10:	fbf00513          	li	a0,-65
    80000f14:	eff5059b          	addiw	a1,a0,-257
    80000f18:	22b33423          	sd	a1,552(t1)
    80000f1c:	ebe00393          	li	t2,-322
    80000f20:	00b38463          	beq	t2,a1,80000f28 <inst_92>
    80000f24:	900ff06f          	j	80000024 <rvtest_error>

0000000080000f28 <inst_92>:
    80000f28:	f7f00513          	li	a0,-129
    80000f2c:	02d5059b          	addiw	a1,a0,45
    80000f30:	22b33823          	sd	a1,560(t1)
    80000f34:	fac00393          	li	t2,-84
    80000f38:	00b38463          	beq	t2,a1,80000f40 <inst_93>
    80000f3c:	8e8ff06f          	j	80000024 <rvtest_error>

0000000080000f40 <inst_93>:
    80000f40:	eff00513          	li	a0,-257
    80000f44:	2005059b          	addiw	a1,a0,512
    80000f48:	22b33c23          	sd	a1,568(t1)
    80000f4c:	0ff00393          	li	t2,255
    80000f50:	00b38463          	beq	t2,a1,80000f58 <inst_94>
    80000f54:	8d0ff06f          	j	80000024 <rvtest_error>

0000000080000f58 <inst_94>:
    80000f58:	dff00513          	li	a0,-513
    80000f5c:	ff65059b          	addiw	a1,a0,-10
    80000f60:	24b33023          	sd	a1,576(t1)
    80000f64:	df500393          	li	t2,-523
    80000f68:	00b38463          	beq	t2,a1,80000f70 <inst_95>
    80000f6c:	8b8ff06f          	j	80000024 <rvtest_error>

0000000080000f70 <inst_95>:
    80000f70:	bff00513          	li	a0,-1025
    80000f74:	ff85059b          	addiw	a1,a0,-8
    80000f78:	24b33423          	sd	a1,584(t1)
    80000f7c:	bf700393          	li	t2,-1033
    80000f80:	00b38463          	beq	t2,a1,80000f88 <inst_96>
    80000f84:	8a0ff06f          	j	80000024 <rvtest_error>

0000000080000f88 <inst_96>:
    80000f88:	00100513          	li	a0,1
    80000f8c:	00b51513          	slli	a0,a0,0xb
    80000f90:	fff54513          	not	a0,a0
    80000f94:	0045059b          	addiw	a1,a0,4
    80000f98:	24b33823          	sd	a1,592(t1)
    80000f9c:	80300393          	li	t2,-2045
    80000fa0:	00b38463          	beq	t2,a1,80000fa8 <inst_97>
    80000fa4:	880ff06f          	j	80000024 <rvtest_error>

0000000080000fa8 <inst_97>:
    80000fa8:	00100513          	li	a0,1
    80000fac:	00c51513          	slli	a0,a0,0xc
    80000fb0:	fff54513          	not	a0,a0
    80000fb4:	6665059b          	addiw	a1,a0,1638
    80000fb8:	24b33c23          	sd	a1,600(t1)
    80000fbc:	fffff3b7          	lui	t2,0xfffff
    80000fc0:	6653839b          	addiw	t2,t2,1637 # fffffffffffff665 <absimm+0xffffffff452f1b95>
    80000fc4:	00b38463          	beq	t2,a1,80000fcc <inst_98>
    80000fc8:	85cff06f          	j	80000024 <rvtest_error>

0000000080000fcc <inst_98>:
    80000fcc:	00100513          	li	a0,1
    80000fd0:	00d51513          	slli	a0,a0,0xd
    80000fd4:	fff54513          	not	a0,a0
    80000fd8:	bff5059b          	addiw	a1,a0,-1025
    80000fdc:	26b33023          	sd	a1,608(t1)
    80000fe0:	ffffe3b7          	lui	t2,0xffffe
    80000fe4:	bfe3839b          	addiw	t2,t2,-1026 # ffffffffffffdbfe <absimm+0xffffffff452f012e>
    80000fe8:	00b38463          	beq	t2,a1,80000ff0 <inst_99>
    80000fec:	838ff06f          	j	80000024 <rvtest_error>

0000000080000ff0 <inst_99>:
    80000ff0:	00100513          	li	a0,1
    80000ff4:	00e51513          	slli	a0,a0,0xe
    80000ff8:	fff54513          	not	a0,a0
    80000ffc:	3325059b          	addiw	a1,a0,818
    80001000:	26b33423          	sd	a1,616(t1)
    80001004:	ffffc3b7          	lui	t2,0xffffc
    80001008:	3313839b          	addiw	t2,t2,817 # ffffffffffffc331 <absimm+0xffffffff452ee861>
    8000100c:	00b38463          	beq	t2,a1,80001014 <inst_100>
    80001010:	814ff06f          	j	80000024 <rvtest_error>

0000000080001014 <inst_100>:
    80001014:	00100513          	li	a0,1
    80001018:	00f51513          	slli	a0,a0,0xf
    8000101c:	fff54513          	not	a0,a0
    80001020:	0805059b          	addiw	a1,a0,128
    80001024:	26b33823          	sd	a1,624(t1)
    80001028:	ffff83b7          	lui	t2,0xffff8
    8000102c:	07f3839b          	addiw	t2,t2,127 # ffffffffffff807f <absimm+0xffffffff452ea5af>
    80001030:	00b38463          	beq	t2,a1,80001038 <inst_101>
    80001034:	ff1fe06f          	j	80000024 <rvtest_error>

0000000080001038 <inst_101>:
    80001038:	00100513          	li	a0,1
    8000103c:	01051513          	slli	a0,a0,0x10
    80001040:	fff54513          	not	a0,a0
    80001044:	eff5059b          	addiw	a1,a0,-257
    80001048:	26b33c23          	sd	a1,632(t1)
    8000104c:	ffff03b7          	lui	t2,0xffff0
    80001050:	efe3839b          	addiw	t2,t2,-258 # fffffffffffefefe <absimm+0xffffffff452e242e>
    80001054:	00b38463          	beq	t2,a1,8000105c <inst_102>
    80001058:	fcdfe06f          	j	80000024 <rvtest_error>

000000008000105c <inst_102>:
    8000105c:	00100513          	li	a0,1
    80001060:	01151513          	slli	a0,a0,0x11
    80001064:	fff54513          	not	a0,a0
    80001068:	0025059b          	addiw	a1,a0,2
    8000106c:	28b33023          	sd	a1,640(t1)
    80001070:	fffe03b7          	lui	t2,0xfffe0
    80001074:	0013839b          	addiw	t2,t2,1 # fffffffffffe0001 <absimm+0xffffffff452d2531>
    80001078:	00b38463          	beq	t2,a1,80001080 <inst_103>
    8000107c:	fa9fe06f          	j	80000024 <rvtest_error>

0000000080001080 <inst_103>:
    80001080:	00100513          	li	a0,1
    80001084:	01251513          	slli	a0,a0,0x12
    80001088:	fff54513          	not	a0,a0
    8000108c:	aaa5059b          	addiw	a1,a0,-1366
    80001090:	28b33423          	sd	a1,648(t1)
    80001094:	fffc03b7          	lui	t2,0xfffc0
    80001098:	aa93839b          	addiw	t2,t2,-1367 # fffffffffffbfaa9 <absimm+0xffffffff452b1fd9>
    8000109c:	00b38463          	beq	t2,a1,800010a4 <inst_104>
    800010a0:	f85fe06f          	j	80000024 <rvtest_error>

00000000800010a4 <inst_104>:
    800010a4:	00100513          	li	a0,1
    800010a8:	01351513          	slli	a0,a0,0x13
    800010ac:	fff54513          	not	a0,a0
    800010b0:	ff85059b          	addiw	a1,a0,-8
    800010b4:	28b33823          	sd	a1,656(t1)
    800010b8:	fff803b7          	lui	t2,0xfff80
    800010bc:	ff73839b          	addiw	t2,t2,-9 # fffffffffff7fff7 <absimm+0xffffffff45272527>
    800010c0:	00b38463          	beq	t2,a1,800010c8 <inst_105>
    800010c4:	f61fe06f          	j	80000024 <rvtest_error>

00000000800010c8 <inst_105>:
    800010c8:	00100513          	li	a0,1
    800010cc:	01551513          	slli	a0,a0,0x15
    800010d0:	fff54513          	not	a0,a0
    800010d4:	ff85059b          	addiw	a1,a0,-8
    800010d8:	28b33c23          	sd	a1,664(t1)
    800010dc:	ffe003b7          	lui	t2,0xffe00
    800010e0:	ff73839b          	addiw	t2,t2,-9 # ffffffffffdffff7 <absimm+0xffffffff450f2527>
    800010e4:	00b38463          	beq	t2,a1,800010ec <inst_106>
    800010e8:	f3dfe06f          	j	80000024 <rvtest_error>

00000000800010ec <inst_106>:
    800010ec:	00100513          	li	a0,1
    800010f0:	01651513          	slli	a0,a0,0x16
    800010f4:	fff54513          	not	a0,a0
    800010f8:	0025059b          	addiw	a1,a0,2
    800010fc:	2ab33023          	sd	a1,672(t1)
    80001100:	ffc003b7          	lui	t2,0xffc00
    80001104:	0013839b          	addiw	t2,t2,1 # ffffffffffc00001 <absimm+0xffffffff44ef2531>
    80001108:	00b38463          	beq	t2,a1,80001110 <inst_107>
    8000110c:	f19fe06f          	j	80000024 <rvtest_error>

0000000080001110 <inst_107>:
    80001110:	00100513          	li	a0,1
    80001114:	01751513          	slli	a0,a0,0x17
    80001118:	fff54513          	not	a0,a0
    8000111c:	4005059b          	addiw	a1,a0,1024
    80001120:	2ab33423          	sd	a1,680(t1)
    80001124:	ff8003b7          	lui	t2,0xff800
    80001128:	3ff3839b          	addiw	t2,t2,1023 # ffffffffff8003ff <absimm+0xffffffff44af292f>
    8000112c:	00b38463          	beq	t2,a1,80001134 <inst_108>
    80001130:	ef5fe06f          	j	80000024 <rvtest_error>

0000000080001134 <inst_108>:
    80001134:	00100513          	li	a0,1
    80001138:	01851513          	slli	a0,a0,0x18
    8000113c:	fff54513          	not	a0,a0
    80001140:	ff95059b          	addiw	a1,a0,-7
    80001144:	2ab33823          	sd	a1,688(t1)
    80001148:	ff0003b7          	lui	t2,0xff000
    8000114c:	ff83839b          	addiw	t2,t2,-8 # fffffffffefffff8 <absimm+0xffffffff442f2528>
    80001150:	00b38463          	beq	t2,a1,80001158 <inst_109>
    80001154:	ed1fe06f          	j	80000024 <rvtest_error>

0000000080001158 <inst_109>:
    80001158:	00100513          	li	a0,1
    8000115c:	01951513          	slli	a0,a0,0x19
    80001160:	fff54513          	not	a0,a0
    80001164:	fd45059b          	addiw	a1,a0,-44
    80001168:	2ab33c23          	sd	a1,696(t1)
    8000116c:	fe0003b7          	lui	t2,0xfe000
    80001170:	fd33839b          	addiw	t2,t2,-45 # fffffffffdffffd3 <absimm+0xffffffff432f2503>
    80001174:	00b38463          	beq	t2,a1,8000117c <inst_110>
    80001178:	eadfe06f          	j	80000024 <rvtest_error>

000000008000117c <inst_110>:
    8000117c:	00100513          	li	a0,1
    80001180:	01a51513          	slli	a0,a0,0x1a
    80001184:	fff54513          	not	a0,a0
    80001188:	8005059b          	addiw	a1,a0,-2048
    8000118c:	2cb33023          	sd	a1,704(t1)
    80001190:	fbfff3b7          	lui	t2,0xfbfff
    80001194:	7ff3839b          	addiw	t2,t2,2047 # fffffffffbfff7ff <absimm+0xffffffff412f1d2f>
    80001198:	00b38463          	beq	t2,a1,800011a0 <inst_111>
    8000119c:	e89fe06f          	j	80000024 <rvtest_error>

00000000800011a0 <inst_111>:
    800011a0:	00100513          	li	a0,1
    800011a4:	01b51513          	slli	a0,a0,0x1b
    800011a8:	fff54513          	not	a0,a0
    800011ac:	5545059b          	addiw	a1,a0,1364
    800011b0:	2cb33423          	sd	a1,712(t1)
    800011b4:	f80003b7          	lui	t2,0xf8000
    800011b8:	5533839b          	addiw	t2,t2,1363 # fffffffff8000553 <absimm+0xffffffff3d2f2a83>
    800011bc:	00b38463          	beq	t2,a1,800011c4 <inst_112>
    800011c0:	e65fe06f          	j	80000024 <rvtest_error>

00000000800011c4 <inst_112>:
    800011c4:	00100513          	li	a0,1
    800011c8:	01c51513          	slli	a0,a0,0x1c
    800011cc:	fff54513          	not	a0,a0
    800011d0:	3ff5059b          	addiw	a1,a0,1023
    800011d4:	2cb33823          	sd	a1,720(t1)
    800011d8:	f00003b7          	lui	t2,0xf0000
    800011dc:	3fe3839b          	addiw	t2,t2,1022 # fffffffff00003fe <absimm+0xffffffff352f292e>
    800011e0:	00b38463          	beq	t2,a1,800011e8 <inst_113>
    800011e4:	e41fe06f          	j	80000024 <rvtest_error>

00000000800011e8 <inst_113>:
    800011e8:	00100513          	li	a0,1
    800011ec:	01e51513          	slli	a0,a0,0x1e
    800011f0:	fff54513          	not	a0,a0
    800011f4:	0405059b          	addiw	a1,a0,64
    800011f8:	2cb33c23          	sd	a1,728(t1)
    800011fc:	c00003b7          	lui	t2,0xc0000
    80001200:	03f3839b          	addiw	t2,t2,63 # ffffffffc000003f <absimm+0xffffffff052f256f>
    80001204:	00b38463          	beq	t2,a1,8000120c <inst_114>
    80001208:	e1dfe06f          	j	80000024 <rvtest_error>

000000008000120c <inst_114>:
    8000120c:	00100513          	li	a0,1
    80001210:	02051513          	slli	a0,a0,0x20
    80001214:	fff54513          	not	a0,a0
    80001218:	fd35059b          	addiw	a1,a0,-45
    8000121c:	2eb33023          	sd	a1,736(t1)
    80001220:	fd200393          	li	t2,-46
    80001224:	00b38463          	beq	t2,a1,8000122c <inst_115>
    80001228:	dfdfe06f          	j	80000024 <rvtest_error>

000000008000122c <inst_115>:
    8000122c:	00100513          	li	a0,1
    80001230:	02151513          	slli	a0,a0,0x21
    80001234:	fff54513          	not	a0,a0
    80001238:	0055059b          	addiw	a1,a0,5
    8000123c:	2eb33423          	sd	a1,744(t1)
    80001240:	00400393          	li	t2,4
    80001244:	00b38463          	beq	t2,a1,8000124c <inst_116>
    80001248:	dddfe06f          	j	80000024 <rvtest_error>

000000008000124c <inst_116>:
    8000124c:	00100513          	li	a0,1
    80001250:	02251513          	slli	a0,a0,0x22
    80001254:	fff54513          	not	a0,a0
    80001258:	ff95059b          	addiw	a1,a0,-7
    8000125c:	2eb33823          	sd	a1,752(t1)
    80001260:	ff800393          	li	t2,-8
    80001264:	00b38463          	beq	t2,a1,8000126c <inst_117>
    80001268:	dbdfe06f          	j	80000024 <rvtest_error>

000000008000126c <inst_117>:
    8000126c:	00100513          	li	a0,1
    80001270:	02351513          	slli	a0,a0,0x23
    80001274:	fff54513          	not	a0,a0
    80001278:	5565059b          	addiw	a1,a0,1366
    8000127c:	2eb33c23          	sd	a1,760(t1)
    80001280:	55500393          	li	t2,1365
    80001284:	00b38463          	beq	t2,a1,8000128c <inst_118>
    80001288:	d9dfe06f          	j	80000024 <rvtest_error>

000000008000128c <inst_118>:
    8000128c:	00100513          	li	a0,1
    80001290:	02451513          	slli	a0,a0,0x24
    80001294:	fff54513          	not	a0,a0
    80001298:	0005059b          	sext.w	a1,a0
    8000129c:	30b33023          	sd	a1,768(t1)
    800012a0:	fff00393          	li	t2,-1
    800012a4:	00b38463          	beq	t2,a1,800012ac <inst_119>
    800012a8:	d7dfe06f          	j	80000024 <rvtest_error>

00000000800012ac <inst_119>:
    800012ac:	00100513          	li	a0,1
    800012b0:	02551513          	slli	a0,a0,0x25
    800012b4:	fff54513          	not	a0,a0
    800012b8:	0105059b          	addiw	a1,a0,16
    800012bc:	30b33423          	sd	a1,776(t1)
    800012c0:	00f00393          	li	t2,15
    800012c4:	00b38463          	beq	t2,a1,800012cc <inst_120>
    800012c8:	d5dfe06f          	j	80000024 <rvtest_error>

00000000800012cc <inst_120>:
    800012cc:	00100513          	li	a0,1
    800012d0:	02651513          	slli	a0,a0,0x26
    800012d4:	fff54513          	not	a0,a0
    800012d8:	0065059b          	addiw	a1,a0,6
    800012dc:	30b33823          	sd	a1,784(t1)
    800012e0:	00500393          	li	t2,5
    800012e4:	00b38463          	beq	t2,a1,800012ec <inst_121>
    800012e8:	d3dfe06f          	j	80000024 <rvtest_error>

00000000800012ec <inst_121>:
    800012ec:	00100513          	li	a0,1
    800012f0:	02751513          	slli	a0,a0,0x27
    800012f4:	fff54513          	not	a0,a0
    800012f8:	0035059b          	addiw	a1,a0,3
    800012fc:	30b33c23          	sd	a1,792(t1)
    80001300:	00200393          	li	t2,2
    80001304:	00b38463          	beq	t2,a1,8000130c <inst_122>
    80001308:	d1dfe06f          	j	80000024 <rvtest_error>

000000008000130c <inst_122>:
    8000130c:	00100513          	li	a0,1
    80001310:	02851513          	slli	a0,a0,0x28
    80001314:	fff54513          	not	a0,a0
    80001318:	2005059b          	addiw	a1,a0,512
    8000131c:	32b33023          	sd	a1,800(t1)
    80001320:	1ff00393          	li	t2,511
    80001324:	00b38463          	beq	t2,a1,8000132c <inst_123>
    80001328:	cfdfe06f          	j	80000024 <rvtest_error>

000000008000132c <inst_123>:
    8000132c:	00100513          	li	a0,1
    80001330:	02951513          	slli	a0,a0,0x29
    80001334:	fff54513          	not	a0,a0
    80001338:	6675059b          	addiw	a1,a0,1639
    8000133c:	32b33423          	sd	a1,808(t1)
    80001340:	66600393          	li	t2,1638
    80001344:	00b38463          	beq	t2,a1,8000134c <inst_124>
    80001348:	cddfe06f          	j	80000024 <rvtest_error>

000000008000134c <inst_124>:
    8000134c:	00100513          	li	a0,1
    80001350:	02a51513          	slli	a0,a0,0x2a
    80001354:	fff54513          	not	a0,a0
    80001358:	0045059b          	addiw	a1,a0,4
    8000135c:	32b33823          	sd	a1,816(t1)
    80001360:	00300393          	li	t2,3
    80001364:	00b38463          	beq	t2,a1,8000136c <inst_125>
    80001368:	cbdfe06f          	j	80000024 <rvtest_error>

000000008000136c <inst_125>:
    8000136c:	00100513          	li	a0,1
    80001370:	02c51513          	slli	a0,a0,0x2c
    80001374:	fff54513          	not	a0,a0
    80001378:	ffe5059b          	addiw	a1,a0,-2
    8000137c:	32b33c23          	sd	a1,824(t1)
    80001380:	ffd00393          	li	t2,-3
    80001384:	00b38463          	beq	t2,a1,8000138c <inst_126>
    80001388:	c9dfe06f          	j	80000024 <rvtest_error>

000000008000138c <inst_126>:
    8000138c:	00100513          	li	a0,1
    80001390:	02d51513          	slli	a0,a0,0x2d
    80001394:	fff54513          	not	a0,a0
    80001398:	3ff5059b          	addiw	a1,a0,1023
    8000139c:	34b33023          	sd	a1,832(t1)
    800013a0:	3fe00393          	li	t2,1022
    800013a4:	00b38463          	beq	t2,a1,800013ac <inst_127>
    800013a8:	c7dfe06f          	j	80000024 <rvtest_error>

00000000800013ac <inst_127>:
    800013ac:	00100513          	li	a0,1
    800013b0:	02e51513          	slli	a0,a0,0x2e
    800013b4:	fff54513          	not	a0,a0
    800013b8:	0805059b          	addiw	a1,a0,128
    800013bc:	34b33423          	sd	a1,840(t1)
    800013c0:	07f00393          	li	t2,127
    800013c4:	00b38463          	beq	t2,a1,800013cc <inst_128>
    800013c8:	c5dfe06f          	j	80000024 <rvtest_error>

00000000800013cc <inst_128>:
    800013cc:	00100513          	li	a0,1
    800013d0:	02f51513          	slli	a0,a0,0x2f
    800013d4:	fff54513          	not	a0,a0
    800013d8:	fbf5059b          	addiw	a1,a0,-65
    800013dc:	34b33823          	sd	a1,848(t1)
    800013e0:	fbe00393          	li	t2,-66
    800013e4:	00b38463          	beq	t2,a1,800013ec <inst_129>
    800013e8:	c3dfe06f          	j	80000024 <rvtest_error>

00000000800013ec <inst_129>:
    800013ec:	00100513          	li	a0,1
    800013f0:	03051513          	slli	a0,a0,0x30
    800013f4:	fff54513          	not	a0,a0
    800013f8:	0005059b          	sext.w	a1,a0
    800013fc:	34b33c23          	sd	a1,856(t1)
    80001400:	fff00393          	li	t2,-1
    80001404:	00b38463          	beq	t2,a1,8000140c <inst_130>
    80001408:	c1dfe06f          	j	80000024 <rvtest_error>

000000008000140c <inst_130>:
    8000140c:	00100513          	li	a0,1
    80001410:	03251513          	slli	a0,a0,0x32
    80001414:	fff54513          	not	a0,a0
    80001418:	0035059b          	addiw	a1,a0,3
    8000141c:	36b33023          	sd	a1,864(t1)
    80001420:	00200393          	li	t2,2
    80001424:	00b38463          	beq	t2,a1,8000142c <inst_131>
    80001428:	bfdfe06f          	j	80000024 <rvtest_error>

000000008000142c <inst_131>:
    8000142c:	00100513          	li	a0,1
    80001430:	03351513          	slli	a0,a0,0x33
    80001434:	fff54513          	not	a0,a0
    80001438:	8005059b          	addiw	a1,a0,-2048
    8000143c:	36b33423          	sd	a1,872(t1)
    80001440:	fffff3b7          	lui	t2,0xfffff
    80001444:	7ff3839b          	addiw	t2,t2,2047 # fffffffffffff7ff <absimm+0xffffffff452f1d2f>
    80001448:	00b38463          	beq	t2,a1,80001450 <inst_132>
    8000144c:	bd9fe06f          	j	80000024 <rvtest_error>

0000000080001450 <inst_132>:
    80001450:	00100513          	li	a0,1
    80001454:	03451513          	slli	a0,a0,0x34
    80001458:	fff54513          	not	a0,a0
    8000145c:	fd45059b          	addiw	a1,a0,-44
    80001460:	36b33823          	sd	a1,880(t1)
    80001464:	fd300393          	li	t2,-45
    80001468:	00b38463          	beq	t2,a1,80001470 <inst_133>
    8000146c:	bb9fe06f          	j	80000024 <rvtest_error>

0000000080001470 <inst_133>:
    80001470:	00100513          	li	a0,1
    80001474:	03551513          	slli	a0,a0,0x35
    80001478:	fff54513          	not	a0,a0
    8000147c:	fef5059b          	addiw	a1,a0,-17
    80001480:	36b33c23          	sd	a1,888(t1)
    80001484:	fee00393          	li	t2,-18
    80001488:	00b38463          	beq	t2,a1,80001490 <inst_134>
    8000148c:	b99fe06f          	j	80000024 <rvtest_error>

0000000080001490 <inst_134>:
    80001490:	00100513          	li	a0,1
    80001494:	03651513          	slli	a0,a0,0x36
    80001498:	fff54513          	not	a0,a0
    8000149c:	0205059b          	addiw	a1,a0,32
    800014a0:	38b33023          	sd	a1,896(t1)
    800014a4:	01f00393          	li	t2,31
    800014a8:	00b38463          	beq	t2,a1,800014b0 <inst_135>
    800014ac:	b79fe06f          	j	80000024 <rvtest_error>

00000000800014b0 <inst_135>:
    800014b0:	00100513          	li	a0,1
    800014b4:	03851513          	slli	a0,a0,0x38
    800014b8:	fff54513          	not	a0,a0
    800014bc:	4005059b          	addiw	a1,a0,1024
    800014c0:	38b33423          	sd	a1,904(t1)
    800014c4:	3ff00393          	li	t2,1023
    800014c8:	00b38463          	beq	t2,a1,800014d0 <inst_136>
    800014cc:	b59fe06f          	j	80000024 <rvtest_error>

00000000800014d0 <inst_136>:
    800014d0:	00100513          	li	a0,1
    800014d4:	03951513          	slli	a0,a0,0x39
    800014d8:	fff54513          	not	a0,a0
    800014dc:	6675059b          	addiw	a1,a0,1639
    800014e0:	38b33823          	sd	a1,912(t1)
    800014e4:	66600393          	li	t2,1638
    800014e8:	00b38463          	beq	t2,a1,800014f0 <inst_137>
    800014ec:	b39fe06f          	j	80000024 <rvtest_error>

00000000800014f0 <inst_137>:
    800014f0:	00100513          	li	a0,1
    800014f4:	03b51513          	slli	a0,a0,0x3b
    800014f8:	fff54513          	not	a0,a0
    800014fc:	ffe5059b          	addiw	a1,a0,-2
    80001500:	38b33c23          	sd	a1,920(t1)
    80001504:	ffd00393          	li	t2,-3
    80001508:	00b38463          	beq	t2,a1,80001510 <inst_138>
    8000150c:	b19fe06f          	j	80000024 <rvtest_error>

0000000080001510 <inst_138>:
    80001510:	00100513          	li	a0,1
    80001514:	03c51513          	slli	a0,a0,0x3c
    80001518:	fff54513          	not	a0,a0
    8000151c:	fef5059b          	addiw	a1,a0,-17
    80001520:	3ab33023          	sd	a1,928(t1)
    80001524:	fee00393          	li	t2,-18
    80001528:	00b38463          	beq	t2,a1,80001530 <inst_139>
    8000152c:	af9fe06f          	j	80000024 <rvtest_error>

0000000080001530 <inst_139>:
    80001530:	00100513          	li	a0,1
    80001534:	03d51513          	slli	a0,a0,0x3d
    80001538:	fff54513          	not	a0,a0
    8000153c:	fd35059b          	addiw	a1,a0,-45
    80001540:	3ab33423          	sd	a1,936(t1)
    80001544:	fd200393          	li	t2,-46
    80001548:	00b38463          	beq	t2,a1,80001550 <inst_140>
    8000154c:	ad9fe06f          	j	80000024 <rvtest_error>

0000000080001550 <inst_140>:
    80001550:	00100513          	li	a0,1
    80001554:	03e51513          	slli	a0,a0,0x3e
    80001558:	fff54513          	not	a0,a0
    8000155c:	0005059b          	sext.w	a1,a0
    80001560:	3ab33823          	sd	a1,944(t1)
    80001564:	fff00393          	li	t2,-1
    80001568:	00b38463          	beq	t2,a1,80001570 <inst_141>
    8000156c:	ab9fe06f          	j	80000024 <rvtest_error>

0000000080001570 <inst_141>:
    80001570:	55555537          	lui	a0,0x55555
    80001574:	55550513          	addi	a0,a0,1365 # 55555555 <absimmsh+0x49a847a8>
    80001578:	00b51513          	slli	a0,a0,0xb
    8000157c:	2aa50513          	addi	a0,a0,682
    80001580:	00b51513          	slli	a0,a0,0xb
    80001584:	55550513          	addi	a0,a0,1365
    80001588:	00a51513          	slli	a0,a0,0xa
    8000158c:	15550513          	addi	a0,a0,341
    80001590:	f7f5059b          	addiw	a1,a0,-129
    80001594:	3ab33c23          	sd	a1,952(t1)
    80001598:	555553b7          	lui	t2,0x55555
    8000159c:	4d43839b          	addiw	t2,t2,1236 # 555554d4 <absimmsh+0x49a84727>
    800015a0:	00b38463          	beq	t2,a1,800015a8 <inst_142>
    800015a4:	a81fe06f          	j	80000024 <rvtest_error>

00000000800015a8 <inst_142>:
    800015a8:	00300513          	li	a0,3
    800015ac:	0035059b          	addiw	a1,a0,3
    800015b0:	3cb33023          	sd	a1,960(t1)
    800015b4:	00600393          	li	t2,6
    800015b8:	00b38463          	beq	t2,a1,800015c0 <inst_143>
    800015bc:	a69fe06f          	j	80000024 <rvtest_error>

00000000800015c0 <inst_143>:
    800015c0:	00300513          	li	a0,3
    800015c4:	5555059b          	addiw	a1,a0,1365
    800015c8:	3cb33423          	sd	a1,968(t1)
    800015cc:	55800393          	li	t2,1368
    800015d0:	00b38463          	beq	t2,a1,800015d8 <inst_144>
    800015d4:	a51fe06f          	j	80000024 <rvtest_error>

00000000800015d8 <inst_144>:
    800015d8:	00300513          	li	a0,3
    800015dc:	aaa5059b          	addiw	a1,a0,-1366
    800015e0:	3cb33823          	sd	a1,976(t1)
    800015e4:	aad00393          	li	t2,-1363
    800015e8:	00b38463          	beq	t2,a1,800015f0 <inst_145>
    800015ec:	a39fe06f          	j	80000024 <rvtest_error>

00000000800015f0 <inst_145>:
    800015f0:	00300513          	li	a0,3
    800015f4:	0055059b          	addiw	a1,a0,5
    800015f8:	3cb33c23          	sd	a1,984(t1)
    800015fc:	00800393          	li	t2,8
    80001600:	00b38463          	beq	t2,a1,80001608 <inst_146>
    80001604:	a21fe06f          	j	80000024 <rvtest_error>

0000000080001608 <inst_146>:
    80001608:	00300513          	li	a0,3
    8000160c:	3335059b          	addiw	a1,a0,819
    80001610:	3eb33023          	sd	a1,992(t1)
    80001614:	33600393          	li	t2,822
    80001618:	00b38463          	beq	t2,a1,80001620 <inst_147>
    8000161c:	a09fe06f          	j	80000024 <rvtest_error>

0000000080001620 <inst_147>:
    80001620:	00300513          	li	a0,3
    80001624:	6665059b          	addiw	a1,a0,1638
    80001628:	3eb33423          	sd	a1,1000(t1)
    8000162c:	66900393          	li	t2,1641
    80001630:	00b38463          	beq	t2,a1,80001638 <inst_148>
    80001634:	9f1fe06f          	j	80000024 <rvtest_error>

0000000080001638 <inst_148>:
    80001638:	00300513          	li	a0,3
    8000163c:	fd35059b          	addiw	a1,a0,-45
    80001640:	3eb33823          	sd	a1,1008(t1)
    80001644:	fd600393          	li	t2,-42
    80001648:	00b38463          	beq	t2,a1,80001650 <inst_149>
    8000164c:	9d9fe06f          	j	80000024 <rvtest_error>

0000000080001650 <inst_149>:
    80001650:	00300513          	li	a0,3
    80001654:	02d5059b          	addiw	a1,a0,45
    80001658:	3eb33c23          	sd	a1,1016(t1)
    8000165c:	03000393          	li	t2,48
    80001660:	00b38463          	beq	t2,a1,80001668 <inst_150>
    80001664:	9c1fe06f          	j	80000024 <rvtest_error>

0000000080001668 <inst_150>:
    80001668:	00300513          	li	a0,3
    8000166c:	0025059b          	addiw	a1,a0,2
    80001670:	40b33023          	sd	a1,1024(t1)
    80001674:	00500393          	li	t2,5
    80001678:	00b38463          	beq	t2,a1,80001680 <inst_151>
    8000167c:	9a9fe06f          	j	80000024 <rvtest_error>

0000000080001680 <inst_151>:
    80001680:	00300513          	li	a0,3
    80001684:	5545059b          	addiw	a1,a0,1364
    80001688:	40b33423          	sd	a1,1032(t1)
    8000168c:	55700393          	li	t2,1367
    80001690:	00b38463          	beq	t2,a1,80001698 <inst_152>
    80001694:	991fe06f          	j	80000024 <rvtest_error>

0000000080001698 <inst_152>:
    80001698:	00300513          	li	a0,3
    8000169c:	0005059b          	sext.w	a1,a0
    800016a0:	40b33823          	sd	a1,1040(t1)
    800016a4:	00300393          	li	t2,3
    800016a8:	00b38463          	beq	t2,a1,800016b0 <inst_153>
    800016ac:	979fe06f          	j	80000024 <rvtest_error>

00000000800016b0 <inst_153>:
    800016b0:	00300513          	li	a0,3
    800016b4:	0045059b          	addiw	a1,a0,4
    800016b8:	40b33c23          	sd	a1,1048(t1)
    800016bc:	00700393          	li	t2,7
    800016c0:	00b38463          	beq	t2,a1,800016c8 <inst_154>
    800016c4:	961fe06f          	j	80000024 <rvtest_error>

00000000800016c8 <inst_154>:
    800016c8:	00300513          	li	a0,3
    800016cc:	3325059b          	addiw	a1,a0,818
    800016d0:	42b33023          	sd	a1,1056(t1)
    800016d4:	33500393          	li	t2,821
    800016d8:	00b38463          	beq	t2,a1,800016e0 <inst_155>
    800016dc:	949fe06f          	j	80000024 <rvtest_error>

00000000800016e0 <inst_155>:
    800016e0:	00300513          	li	a0,3
    800016e4:	6655059b          	addiw	a1,a0,1637
    800016e8:	42b33423          	sd	a1,1064(t1)
    800016ec:	66800393          	li	t2,1640
    800016f0:	00b38463          	beq	t2,a1,800016f8 <inst_156>
    800016f4:	931fe06f          	j	80000024 <rvtest_error>

00000000800016f8 <inst_156>:
    800016f8:	00300513          	li	a0,3
    800016fc:	02c5059b          	addiw	a1,a0,44
    80001700:	42b33823          	sd	a1,1072(t1)
    80001704:	02f00393          	li	t2,47
    80001708:	00b38463          	beq	t2,a1,80001710 <inst_157>
    8000170c:	919fe06f          	j	80000024 <rvtest_error>

0000000080001710 <inst_157>:
    80001710:	00300513          	li	a0,3
    80001714:	5565059b          	addiw	a1,a0,1366
    80001718:	42b33c23          	sd	a1,1080(t1)
    8000171c:	55900393          	li	t2,1369
    80001720:	00b38463          	beq	t2,a1,80001728 <inst_158>
    80001724:	901fe06f          	j	80000024 <rvtest_error>

0000000080001728 <inst_158>:
    80001728:	00300513          	li	a0,3
    8000172c:	aab5059b          	addiw	a1,a0,-1365
    80001730:	44b33023          	sd	a1,1088(t1)
    80001734:	aae00393          	li	t2,-1362
    80001738:	00b38463          	beq	t2,a1,80001740 <inst_159>
    8000173c:	8e9fe06f          	j	80000024 <rvtest_error>

0000000080001740 <inst_159>:
    80001740:	00300513          	li	a0,3
    80001744:	0065059b          	addiw	a1,a0,6
    80001748:	44b33423          	sd	a1,1096(t1)
    8000174c:	00900393          	li	t2,9
    80001750:	00b38463          	beq	t2,a1,80001758 <inst_160>
    80001754:	8d1fe06f          	j	80000024 <rvtest_error>

0000000080001758 <inst_160>:
    80001758:	00300513          	li	a0,3
    8000175c:	3345059b          	addiw	a1,a0,820
    80001760:	44b33823          	sd	a1,1104(t1)
    80001764:	33700393          	li	t2,823
    80001768:	00b38463          	beq	t2,a1,80001770 <inst_161>
    8000176c:	8b9fe06f          	j	80000024 <rvtest_error>

0000000080001770 <inst_161>:
    80001770:	00300513          	li	a0,3
    80001774:	6675059b          	addiw	a1,a0,1639
    80001778:	44b33c23          	sd	a1,1112(t1)
    8000177c:	66a00393          	li	t2,1642
    80001780:	00b38463          	beq	t2,a1,80001788 <inst_162>
    80001784:	8a1fe06f          	j	80000024 <rvtest_error>

0000000080001788 <inst_162>:
    80001788:	00300513          	li	a0,3
    8000178c:	fd45059b          	addiw	a1,a0,-44
    80001790:	46b33023          	sd	a1,1120(t1)
    80001794:	fd700393          	li	t2,-41
    80001798:	00b38463          	beq	t2,a1,800017a0 <inst_163>
    8000179c:	889fe06f          	j	80000024 <rvtest_error>

00000000800017a0 <inst_163>:
    800017a0:	00300513          	li	a0,3
    800017a4:	02e5059b          	addiw	a1,a0,46
    800017a8:	46b33423          	sd	a1,1128(t1)
    800017ac:	03100393          	li	t2,49
    800017b0:	00b38463          	beq	t2,a1,800017b8 <inst_164>
    800017b4:	871fe06f          	j	80000024 <rvtest_error>

00000000800017b8 <inst_164>:
    800017b8:	55555537          	lui	a0,0x55555
    800017bc:	55550513          	addi	a0,a0,1365 # 55555555 <absimmsh+0x49a847a8>
    800017c0:	00b51513          	slli	a0,a0,0xb
    800017c4:	2aa50513          	addi	a0,a0,682
    800017c8:	00b51513          	slli	a0,a0,0xb
    800017cc:	55550513          	addi	a0,a0,1365
    800017d0:	00a51513          	slli	a0,a0,0xa
    800017d4:	15550513          	addi	a0,a0,341
    800017d8:	0035059b          	addiw	a1,a0,3
    800017dc:	46b33823          	sd	a1,1136(t1)
    800017e0:	555553b7          	lui	t2,0x55555
    800017e4:	5583839b          	addiw	t2,t2,1368 # 55555558 <absimmsh+0x49a847ab>
    800017e8:	00b38463          	beq	t2,a1,800017f0 <inst_165>
    800017ec:	839fe06f          	j	80000024 <rvtest_error>

00000000800017f0 <inst_165>:
    800017f0:	55555537          	lui	a0,0x55555
    800017f4:	55550513          	addi	a0,a0,1365 # 55555555 <absimmsh+0x49a847a8>
    800017f8:	00b51513          	slli	a0,a0,0xb
    800017fc:	2aa50513          	addi	a0,a0,682
    80001800:	00b51513          	slli	a0,a0,0xb
    80001804:	55550513          	addi	a0,a0,1365
    80001808:	00a51513          	slli	a0,a0,0xa
    8000180c:	15550513          	addi	a0,a0,341
    80001810:	5555059b          	addiw	a1,a0,1365
    80001814:	46b33c23          	sd	a1,1144(t1)
    80001818:	555563b7          	lui	t2,0x55556
    8000181c:	aaa3839b          	addiw	t2,t2,-1366 # 55555aaa <absimmsh+0x49a84cfd>
    80001820:	00b38463          	beq	t2,a1,80001828 <inst_166>
    80001824:	801fe06f          	j	80000024 <rvtest_error>

0000000080001828 <inst_166>:
    80001828:	55555537          	lui	a0,0x55555
    8000182c:	55550513          	addi	a0,a0,1365 # 55555555 <absimmsh+0x49a847a8>
    80001830:	00b51513          	slli	a0,a0,0xb
    80001834:	2aa50513          	addi	a0,a0,682
    80001838:	00b51513          	slli	a0,a0,0xb
    8000183c:	55550513          	addi	a0,a0,1365
    80001840:	00a51513          	slli	a0,a0,0xa
    80001844:	15550513          	addi	a0,a0,341
    80001848:	aaa5059b          	addiw	a1,a0,-1366
    8000184c:	48b33023          	sd	a1,1152(t1)
    80001850:	555553b7          	lui	t2,0x55555
    80001854:	fff3839b          	addiw	t2,t2,-1 # 55554fff <absimmsh+0x49a84252>
    80001858:	00b38463          	beq	t2,a1,80001860 <inst_167>
    8000185c:	fc8fe06f          	j	80000024 <rvtest_error>

0000000080001860 <inst_167>:
    80001860:	55555537          	lui	a0,0x55555
    80001864:	55550513          	addi	a0,a0,1365 # 55555555 <absimmsh+0x49a847a8>
    80001868:	00b51513          	slli	a0,a0,0xb
    8000186c:	2aa50513          	addi	a0,a0,682
    80001870:	00b51513          	slli	a0,a0,0xb
    80001874:	55550513          	addi	a0,a0,1365
    80001878:	00a51513          	slli	a0,a0,0xa
    8000187c:	15550513          	addi	a0,a0,341
    80001880:	0055059b          	addiw	a1,a0,5
    80001884:	48b33423          	sd	a1,1160(t1)
    80001888:	555553b7          	lui	t2,0x55555
    8000188c:	55a3839b          	addiw	t2,t2,1370 # 5555555a <absimmsh+0x49a847ad>
    80001890:	00b38463          	beq	t2,a1,80001898 <inst_168>
    80001894:	f90fe06f          	j	80000024 <rvtest_error>

0000000080001898 <inst_168>:
    80001898:	55555537          	lui	a0,0x55555
    8000189c:	55550513          	addi	a0,a0,1365 # 55555555 <absimmsh+0x49a847a8>
    800018a0:	00b51513          	slli	a0,a0,0xb
    800018a4:	2aa50513          	addi	a0,a0,682
    800018a8:	00b51513          	slli	a0,a0,0xb
    800018ac:	55550513          	addi	a0,a0,1365
    800018b0:	00a51513          	slli	a0,a0,0xa
    800018b4:	15550513          	addi	a0,a0,341
    800018b8:	3335059b          	addiw	a1,a0,819
    800018bc:	48b33823          	sd	a1,1168(t1)
    800018c0:	555563b7          	lui	t2,0x55556
    800018c4:	8883839b          	addiw	t2,t2,-1912 # 55555888 <absimmsh+0x49a84adb>
    800018c8:	00b38463          	beq	t2,a1,800018d0 <inst_169>
    800018cc:	f58fe06f          	j	80000024 <rvtest_error>

00000000800018d0 <inst_169>:
    800018d0:	55555537          	lui	a0,0x55555
    800018d4:	55550513          	addi	a0,a0,1365 # 55555555 <absimmsh+0x49a847a8>
    800018d8:	00b51513          	slli	a0,a0,0xb
    800018dc:	2aa50513          	addi	a0,a0,682
    800018e0:	00b51513          	slli	a0,a0,0xb
    800018e4:	55550513          	addi	a0,a0,1365
    800018e8:	00a51513          	slli	a0,a0,0xa
    800018ec:	15550513          	addi	a0,a0,341
    800018f0:	6665059b          	addiw	a1,a0,1638
    800018f4:	48b33c23          	sd	a1,1176(t1)
    800018f8:	555563b7          	lui	t2,0x55556
    800018fc:	bbb3839b          	addiw	t2,t2,-1093 # 55555bbb <absimmsh+0x49a84e0e>
    80001900:	00b38463          	beq	t2,a1,80001908 <inst_170>
    80001904:	f20fe06f          	j	80000024 <rvtest_error>

0000000080001908 <inst_170>:
    80001908:	55555537          	lui	a0,0x55555
    8000190c:	55550513          	addi	a0,a0,1365 # 55555555 <absimmsh+0x49a847a8>
    80001910:	00b51513          	slli	a0,a0,0xb
    80001914:	2aa50513          	addi	a0,a0,682
    80001918:	00b51513          	slli	a0,a0,0xb
    8000191c:	55550513          	addi	a0,a0,1365
    80001920:	00a51513          	slli	a0,a0,0xa
    80001924:	15550513          	addi	a0,a0,341
    80001928:	fd35059b          	addiw	a1,a0,-45
    8000192c:	4ab33023          	sd	a1,1184(t1)
    80001930:	555553b7          	lui	t2,0x55555
    80001934:	5283839b          	addiw	t2,t2,1320 # 55555528 <absimmsh+0x49a8477b>
    80001938:	00b38463          	beq	t2,a1,80001940 <inst_171>
    8000193c:	ee8fe06f          	j	80000024 <rvtest_error>

0000000080001940 <inst_171>:
    80001940:	55555537          	lui	a0,0x55555
    80001944:	55550513          	addi	a0,a0,1365 # 55555555 <absimmsh+0x49a847a8>
    80001948:	00b51513          	slli	a0,a0,0xb
    8000194c:	2aa50513          	addi	a0,a0,682
    80001950:	00b51513          	slli	a0,a0,0xb
    80001954:	55550513          	addi	a0,a0,1365
    80001958:	00a51513          	slli	a0,a0,0xa
    8000195c:	15550513          	addi	a0,a0,341
    80001960:	02d5059b          	addiw	a1,a0,45
    80001964:	4ab33423          	sd	a1,1192(t1)
    80001968:	555553b7          	lui	t2,0x55555
    8000196c:	5823839b          	addiw	t2,t2,1410 # 55555582 <absimmsh+0x49a847d5>
    80001970:	00b38463          	beq	t2,a1,80001978 <inst_172>
    80001974:	eb0fe06f          	j	80000024 <rvtest_error>

0000000080001978 <inst_172>:
    80001978:	55555537          	lui	a0,0x55555
    8000197c:	55550513          	addi	a0,a0,1365 # 55555555 <absimmsh+0x49a847a8>
    80001980:	00b51513          	slli	a0,a0,0xb
    80001984:	2aa50513          	addi	a0,a0,682
    80001988:	00b51513          	slli	a0,a0,0xb
    8000198c:	55550513          	addi	a0,a0,1365
    80001990:	00a51513          	slli	a0,a0,0xa
    80001994:	15550513          	addi	a0,a0,341
    80001998:	0025059b          	addiw	a1,a0,2
    8000199c:	4ab33823          	sd	a1,1200(t1)
    800019a0:	555553b7          	lui	t2,0x55555
    800019a4:	5573839b          	addiw	t2,t2,1367 # 55555557 <absimmsh+0x49a847aa>
    800019a8:	00b38463          	beq	t2,a1,800019b0 <inst_173>
    800019ac:	e78fe06f          	j	80000024 <rvtest_error>

00000000800019b0 <inst_173>:
    800019b0:	55555537          	lui	a0,0x55555
    800019b4:	55550513          	addi	a0,a0,1365 # 55555555 <absimmsh+0x49a847a8>
    800019b8:	00b51513          	slli	a0,a0,0xb
    800019bc:	2aa50513          	addi	a0,a0,682
    800019c0:	00b51513          	slli	a0,a0,0xb
    800019c4:	55550513          	addi	a0,a0,1365
    800019c8:	00a51513          	slli	a0,a0,0xa
    800019cc:	15550513          	addi	a0,a0,341
    800019d0:	5545059b          	addiw	a1,a0,1364
    800019d4:	4ab33c23          	sd	a1,1208(t1)
    800019d8:	555563b7          	lui	t2,0x55556
    800019dc:	aa93839b          	addiw	t2,t2,-1367 # 55555aa9 <absimmsh+0x49a84cfc>
    800019e0:	00b38463          	beq	t2,a1,800019e8 <inst_174>
    800019e4:	e40fe06f          	j	80000024 <rvtest_error>

00000000800019e8 <inst_174>:
    800019e8:	55555537          	lui	a0,0x55555
    800019ec:	55550513          	addi	a0,a0,1365 # 55555555 <absimmsh+0x49a847a8>
    800019f0:	00b51513          	slli	a0,a0,0xb
    800019f4:	2aa50513          	addi	a0,a0,682
    800019f8:	00b51513          	slli	a0,a0,0xb
    800019fc:	55550513          	addi	a0,a0,1365
    80001a00:	00a51513          	slli	a0,a0,0xa
    80001a04:	15550513          	addi	a0,a0,341
    80001a08:	0005059b          	sext.w	a1,a0
    80001a0c:	4cb33023          	sd	a1,1216(t1)
    80001a10:	555553b7          	lui	t2,0x55555
    80001a14:	5553839b          	addiw	t2,t2,1365 # 55555555 <absimmsh+0x49a847a8>
    80001a18:	00b38463          	beq	t2,a1,80001a20 <inst_175>
    80001a1c:	e08fe06f          	j	80000024 <rvtest_error>

0000000080001a20 <inst_175>:
    80001a20:	55555537          	lui	a0,0x55555
    80001a24:	55550513          	addi	a0,a0,1365 # 55555555 <absimmsh+0x49a847a8>
    80001a28:	00b51513          	slli	a0,a0,0xb
    80001a2c:	2aa50513          	addi	a0,a0,682
    80001a30:	00b51513          	slli	a0,a0,0xb
    80001a34:	55550513          	addi	a0,a0,1365
    80001a38:	00a51513          	slli	a0,a0,0xa
    80001a3c:	15550513          	addi	a0,a0,341
    80001a40:	0045059b          	addiw	a1,a0,4
    80001a44:	4cb33423          	sd	a1,1224(t1)
    80001a48:	555553b7          	lui	t2,0x55555
    80001a4c:	5593839b          	addiw	t2,t2,1369 # 55555559 <absimmsh+0x49a847ac>
    80001a50:	00b38463          	beq	t2,a1,80001a58 <inst_176>
    80001a54:	dd0fe06f          	j	80000024 <rvtest_error>

0000000080001a58 <inst_176>:
    80001a58:	55555537          	lui	a0,0x55555
    80001a5c:	55550513          	addi	a0,a0,1365 # 55555555 <absimmsh+0x49a847a8>
    80001a60:	00b51513          	slli	a0,a0,0xb
    80001a64:	2aa50513          	addi	a0,a0,682
    80001a68:	00b51513          	slli	a0,a0,0xb
    80001a6c:	55550513          	addi	a0,a0,1365
    80001a70:	00a51513          	slli	a0,a0,0xa
    80001a74:	15550513          	addi	a0,a0,341
    80001a78:	3325059b          	addiw	a1,a0,818
    80001a7c:	4cb33823          	sd	a1,1232(t1)
    80001a80:	555563b7          	lui	t2,0x55556
    80001a84:	8873839b          	addiw	t2,t2,-1913 # 55555887 <absimmsh+0x49a84ada>
    80001a88:	00b38463          	beq	t2,a1,80001a90 <inst_177>
    80001a8c:	d98fe06f          	j	80000024 <rvtest_error>

0000000080001a90 <inst_177>:
    80001a90:	55555537          	lui	a0,0x55555
    80001a94:	55550513          	addi	a0,a0,1365 # 55555555 <absimmsh+0x49a847a8>
    80001a98:	00b51513          	slli	a0,a0,0xb
    80001a9c:	2aa50513          	addi	a0,a0,682
    80001aa0:	00b51513          	slli	a0,a0,0xb
    80001aa4:	55550513          	addi	a0,a0,1365
    80001aa8:	00a51513          	slli	a0,a0,0xa
    80001aac:	15550513          	addi	a0,a0,341
    80001ab0:	6655059b          	addiw	a1,a0,1637
    80001ab4:	4cb33c23          	sd	a1,1240(t1)
    80001ab8:	555563b7          	lui	t2,0x55556
    80001abc:	bba3839b          	addiw	t2,t2,-1094 # 55555bba <absimmsh+0x49a84e0d>
    80001ac0:	00b38463          	beq	t2,a1,80001ac8 <inst_178>
    80001ac4:	d60fe06f          	j	80000024 <rvtest_error>

0000000080001ac8 <inst_178>:
    80001ac8:	55555537          	lui	a0,0x55555
    80001acc:	55550513          	addi	a0,a0,1365 # 55555555 <absimmsh+0x49a847a8>
    80001ad0:	00b51513          	slli	a0,a0,0xb
    80001ad4:	2aa50513          	addi	a0,a0,682
    80001ad8:	00b51513          	slli	a0,a0,0xb
    80001adc:	55550513          	addi	a0,a0,1365
    80001ae0:	00a51513          	slli	a0,a0,0xa
    80001ae4:	15550513          	addi	a0,a0,341
    80001ae8:	02c5059b          	addiw	a1,a0,44
    80001aec:	4eb33023          	sd	a1,1248(t1)
    80001af0:	555553b7          	lui	t2,0x55555
    80001af4:	5813839b          	addiw	t2,t2,1409 # 55555581 <absimmsh+0x49a847d4>
    80001af8:	00b38463          	beq	t2,a1,80001b00 <inst_179>
    80001afc:	d28fe06f          	j	80000024 <rvtest_error>

0000000080001b00 <inst_179>:
    80001b00:	55555537          	lui	a0,0x55555
    80001b04:	55550513          	addi	a0,a0,1365 # 55555555 <absimmsh+0x49a847a8>
    80001b08:	00b51513          	slli	a0,a0,0xb
    80001b0c:	2aa50513          	addi	a0,a0,682
    80001b10:	00b51513          	slli	a0,a0,0xb
    80001b14:	55550513          	addi	a0,a0,1365
    80001b18:	00a51513          	slli	a0,a0,0xa
    80001b1c:	15550513          	addi	a0,a0,341
    80001b20:	5565059b          	addiw	a1,a0,1366
    80001b24:	4eb33423          	sd	a1,1256(t1)
    80001b28:	555563b7          	lui	t2,0x55556
    80001b2c:	aab3839b          	addiw	t2,t2,-1365 # 55555aab <absimmsh+0x49a84cfe>
    80001b30:	00b38463          	beq	t2,a1,80001b38 <inst_180>
    80001b34:	cf0fe06f          	j	80000024 <rvtest_error>

0000000080001b38 <inst_180>:
    80001b38:	55555537          	lui	a0,0x55555
    80001b3c:	55550513          	addi	a0,a0,1365 # 55555555 <absimmsh+0x49a847a8>
    80001b40:	00b51513          	slli	a0,a0,0xb
    80001b44:	2aa50513          	addi	a0,a0,682
    80001b48:	00b51513          	slli	a0,a0,0xb
    80001b4c:	55550513          	addi	a0,a0,1365
    80001b50:	00a51513          	slli	a0,a0,0xa
    80001b54:	15550513          	addi	a0,a0,341
    80001b58:	aab5059b          	addiw	a1,a0,-1365
    80001b5c:	4eb33823          	sd	a1,1264(t1)
    80001b60:	555553b7          	lui	t2,0x55555
    80001b64:	00b38463          	beq	t2,a1,80001b6c <inst_181>
    80001b68:	cbcfe06f          	j	80000024 <rvtest_error>

0000000080001b6c <inst_181>:
    80001b6c:	55555537          	lui	a0,0x55555
    80001b70:	55550513          	addi	a0,a0,1365 # 55555555 <absimmsh+0x49a847a8>
    80001b74:	00b51513          	slli	a0,a0,0xb
    80001b78:	2aa50513          	addi	a0,a0,682
    80001b7c:	00b51513          	slli	a0,a0,0xb
    80001b80:	55550513          	addi	a0,a0,1365
    80001b84:	00a51513          	slli	a0,a0,0xa
    80001b88:	15550513          	addi	a0,a0,341
    80001b8c:	0065059b          	addiw	a1,a0,6
    80001b90:	4eb33c23          	sd	a1,1272(t1)
    80001b94:	555553b7          	lui	t2,0x55555
    80001b98:	55b3839b          	addiw	t2,t2,1371 # 5555555b <absimmsh+0x49a847ae>
    80001b9c:	00b38463          	beq	t2,a1,80001ba4 <inst_182>
    80001ba0:	c84fe06f          	j	80000024 <rvtest_error>

0000000080001ba4 <inst_182>:
    80001ba4:	55555537          	lui	a0,0x55555
    80001ba8:	55550513          	addi	a0,a0,1365 # 55555555 <absimmsh+0x49a847a8>
    80001bac:	00b51513          	slli	a0,a0,0xb
    80001bb0:	2aa50513          	addi	a0,a0,682
    80001bb4:	00b51513          	slli	a0,a0,0xb
    80001bb8:	55550513          	addi	a0,a0,1365
    80001bbc:	00a51513          	slli	a0,a0,0xa
    80001bc0:	15550513          	addi	a0,a0,341
    80001bc4:	3345059b          	addiw	a1,a0,820
    80001bc8:	50b33023          	sd	a1,1280(t1)
    80001bcc:	555563b7          	lui	t2,0x55556
    80001bd0:	8893839b          	addiw	t2,t2,-1911 # 55555889 <absimmsh+0x49a84adc>
    80001bd4:	00b38463          	beq	t2,a1,80001bdc <inst_183>
    80001bd8:	c4cfe06f          	j	80000024 <rvtest_error>

0000000080001bdc <inst_183>:
    80001bdc:	55555537          	lui	a0,0x55555
    80001be0:	55550513          	addi	a0,a0,1365 # 55555555 <absimmsh+0x49a847a8>
    80001be4:	00b51513          	slli	a0,a0,0xb
    80001be8:	2aa50513          	addi	a0,a0,682
    80001bec:	00b51513          	slli	a0,a0,0xb
    80001bf0:	55550513          	addi	a0,a0,1365
    80001bf4:	00a51513          	slli	a0,a0,0xa
    80001bf8:	15550513          	addi	a0,a0,341
    80001bfc:	6675059b          	addiw	a1,a0,1639
    80001c00:	50b33423          	sd	a1,1288(t1)
    80001c04:	555563b7          	lui	t2,0x55556
    80001c08:	bbc3839b          	addiw	t2,t2,-1092 # 55555bbc <absimmsh+0x49a84e0f>
    80001c0c:	00b38463          	beq	t2,a1,80001c14 <inst_184>
    80001c10:	c14fe06f          	j	80000024 <rvtest_error>

0000000080001c14 <inst_184>:
    80001c14:	55555537          	lui	a0,0x55555
    80001c18:	55550513          	addi	a0,a0,1365 # 55555555 <absimmsh+0x49a847a8>
    80001c1c:	00b51513          	slli	a0,a0,0xb
    80001c20:	2aa50513          	addi	a0,a0,682
    80001c24:	00b51513          	slli	a0,a0,0xb
    80001c28:	55550513          	addi	a0,a0,1365
    80001c2c:	00a51513          	slli	a0,a0,0xa
    80001c30:	15550513          	addi	a0,a0,341
    80001c34:	fd45059b          	addiw	a1,a0,-44
    80001c38:	50b33823          	sd	a1,1296(t1)
    80001c3c:	555553b7          	lui	t2,0x55555
    80001c40:	5293839b          	addiw	t2,t2,1321 # 55555529 <absimmsh+0x49a8477c>
    80001c44:	00b38463          	beq	t2,a1,80001c4c <inst_185>
    80001c48:	bdcfe06f          	j	80000024 <rvtest_error>

0000000080001c4c <inst_185>:
    80001c4c:	55555537          	lui	a0,0x55555
    80001c50:	55550513          	addi	a0,a0,1365 # 55555555 <absimmsh+0x49a847a8>
    80001c54:	00b51513          	slli	a0,a0,0xb
    80001c58:	2aa50513          	addi	a0,a0,682
    80001c5c:	00b51513          	slli	a0,a0,0xb
    80001c60:	55550513          	addi	a0,a0,1365
    80001c64:	00a51513          	slli	a0,a0,0xa
    80001c68:	15550513          	addi	a0,a0,341
    80001c6c:	02e5059b          	addiw	a1,a0,46
    80001c70:	50b33c23          	sd	a1,1304(t1)
    80001c74:	555553b7          	lui	t2,0x55555
    80001c78:	5833839b          	addiw	t2,t2,1411 # 55555583 <absimmsh+0x49a847d6>
    80001c7c:	00b38463          	beq	t2,a1,80001c84 <inst_186>
    80001c80:	ba4fe06f          	j	80000024 <rvtest_error>

0000000080001c84 <inst_186>:
    80001c84:	aaaab537          	lui	a0,0xaaaab
    80001c88:	aaa50513          	addi	a0,a0,-1366 # ffffffffaaaaaaaa <absimm+0xfffffffeefd9cfda>
    80001c8c:	00b51513          	slli	a0,a0,0xb
    80001c90:	55550513          	addi	a0,a0,1365
    80001c94:	00b51513          	slli	a0,a0,0xb
    80001c98:	2aa50513          	addi	a0,a0,682
    80001c9c:	00a51513          	slli	a0,a0,0xa
    80001ca0:	2aa50513          	addi	a0,a0,682
    80001ca4:	0035059b          	addiw	a1,a0,3
    80001ca8:	52b33023          	sd	a1,1312(t1)
    80001cac:	aaaab3b7          	lui	t2,0xaaaab
    80001cb0:	aad3839b          	addiw	t2,t2,-1363 # ffffffffaaaaaaad <absimm+0xfffffffeefd9cfdd>
    80001cb4:	00b38463          	beq	t2,a1,80001cbc <inst_187>
    80001cb8:	b6cfe06f          	j	80000024 <rvtest_error>

0000000080001cbc <inst_187>:
    80001cbc:	aaaab537          	lui	a0,0xaaaab
    80001cc0:	aaa50513          	addi	a0,a0,-1366 # ffffffffaaaaaaaa <absimm+0xfffffffeefd9cfda>
    80001cc4:	00b51513          	slli	a0,a0,0xb
    80001cc8:	55550513          	addi	a0,a0,1365
    80001ccc:	00b51513          	slli	a0,a0,0xb
    80001cd0:	2aa50513          	addi	a0,a0,682
    80001cd4:	00a51513          	slli	a0,a0,0xa
    80001cd8:	2aa50513          	addi	a0,a0,682
    80001cdc:	aaa5059b          	addiw	a1,a0,-1366
    80001ce0:	52b33423          	sd	a1,1320(t1)
    80001ce4:	aaaaa3b7          	lui	t2,0xaaaaa
    80001ce8:	5543839b          	addiw	t2,t2,1364 # ffffffffaaaaa554 <absimm+0xfffffffeefd9ca84>
    80001cec:	00b38463          	beq	t2,a1,80001cf4 <inst_188>
    80001cf0:	b34fe06f          	j	80000024 <rvtest_error>

0000000080001cf4 <inst_188>:
    80001cf4:	aaaab537          	lui	a0,0xaaaab
    80001cf8:	aaa50513          	addi	a0,a0,-1366 # ffffffffaaaaaaaa <absimm+0xfffffffeefd9cfda>
    80001cfc:	00b51513          	slli	a0,a0,0xb
    80001d00:	55550513          	addi	a0,a0,1365
    80001d04:	00b51513          	slli	a0,a0,0xb
    80001d08:	2aa50513          	addi	a0,a0,682
    80001d0c:	00a51513          	slli	a0,a0,0xa
    80001d10:	2aa50513          	addi	a0,a0,682
    80001d14:	0055059b          	addiw	a1,a0,5
    80001d18:	52b33823          	sd	a1,1328(t1)
    80001d1c:	aaaab3b7          	lui	t2,0xaaaab
    80001d20:	aaf3839b          	addiw	t2,t2,-1361 # ffffffffaaaaaaaf <absimm+0xfffffffeefd9cfdf>
    80001d24:	00b38463          	beq	t2,a1,80001d2c <inst_189>
    80001d28:	afcfe06f          	j	80000024 <rvtest_error>

0000000080001d2c <inst_189>:
    80001d2c:	aaaab537          	lui	a0,0xaaaab
    80001d30:	aaa50513          	addi	a0,a0,-1366 # ffffffffaaaaaaaa <absimm+0xfffffffeefd9cfda>
    80001d34:	00b51513          	slli	a0,a0,0xb
    80001d38:	55550513          	addi	a0,a0,1365
    80001d3c:	00b51513          	slli	a0,a0,0xb
    80001d40:	2aa50513          	addi	a0,a0,682
    80001d44:	00a51513          	slli	a0,a0,0xa
    80001d48:	2aa50513          	addi	a0,a0,682
    80001d4c:	3335059b          	addiw	a1,a0,819
    80001d50:	52b33c23          	sd	a1,1336(t1)
    80001d54:	aaaab3b7          	lui	t2,0xaaaab
    80001d58:	ddd3839b          	addiw	t2,t2,-547 # ffffffffaaaaaddd <absimm+0xfffffffeefd9d30d>
    80001d5c:	00b38463          	beq	t2,a1,80001d64 <inst_190>
    80001d60:	ac4fe06f          	j	80000024 <rvtest_error>

0000000080001d64 <inst_190>:
    80001d64:	aaaab537          	lui	a0,0xaaaab
    80001d68:	aaa50513          	addi	a0,a0,-1366 # ffffffffaaaaaaaa <absimm+0xfffffffeefd9cfda>
    80001d6c:	00b51513          	slli	a0,a0,0xb
    80001d70:	55550513          	addi	a0,a0,1365
    80001d74:	00b51513          	slli	a0,a0,0xb
    80001d78:	2aa50513          	addi	a0,a0,682
    80001d7c:	00a51513          	slli	a0,a0,0xa
    80001d80:	2aa50513          	addi	a0,a0,682
    80001d84:	6665059b          	addiw	a1,a0,1638
    80001d88:	54b33023          	sd	a1,1344(t1)
    80001d8c:	aaaab3b7          	lui	t2,0xaaaab
    80001d90:	1103839b          	addiw	t2,t2,272 # ffffffffaaaab110 <absimm+0xfffffffeefd9d640>
    80001d94:	00b38463          	beq	t2,a1,80001d9c <inst_191>
    80001d98:	a8cfe06f          	j	80000024 <rvtest_error>

0000000080001d9c <inst_191>:
    80001d9c:	aaaab537          	lui	a0,0xaaaab
    80001da0:	aaa50513          	addi	a0,a0,-1366 # ffffffffaaaaaaaa <absimm+0xfffffffeefd9cfda>
    80001da4:	00b51513          	slli	a0,a0,0xb
    80001da8:	55550513          	addi	a0,a0,1365
    80001dac:	00b51513          	slli	a0,a0,0xb
    80001db0:	2aa50513          	addi	a0,a0,682
    80001db4:	00a51513          	slli	a0,a0,0xa
    80001db8:	2aa50513          	addi	a0,a0,682
    80001dbc:	fd35059b          	addiw	a1,a0,-45
    80001dc0:	54b33423          	sd	a1,1352(t1)
    80001dc4:	aaaab3b7          	lui	t2,0xaaaab
    80001dc8:	a7d3839b          	addiw	t2,t2,-1411 # ffffffffaaaaaa7d <absimm+0xfffffffeefd9cfad>
    80001dcc:	00b38463          	beq	t2,a1,80001dd4 <inst_192>
    80001dd0:	a54fe06f          	j	80000024 <rvtest_error>

0000000080001dd4 <inst_192>:
    80001dd4:	aaaab537          	lui	a0,0xaaaab
    80001dd8:	aaa50513          	addi	a0,a0,-1366 # ffffffffaaaaaaaa <absimm+0xfffffffeefd9cfda>
    80001ddc:	00b51513          	slli	a0,a0,0xb
    80001de0:	55550513          	addi	a0,a0,1365
    80001de4:	00b51513          	slli	a0,a0,0xb
    80001de8:	2aa50513          	addi	a0,a0,682
    80001dec:	00a51513          	slli	a0,a0,0xa
    80001df0:	2aa50513          	addi	a0,a0,682
    80001df4:	02d5059b          	addiw	a1,a0,45
    80001df8:	54b33823          	sd	a1,1360(t1)
    80001dfc:	aaaab3b7          	lui	t2,0xaaaab
    80001e00:	ad73839b          	addiw	t2,t2,-1321 # ffffffffaaaaaad7 <absimm+0xfffffffeefd9d007>
    80001e04:	00b38463          	beq	t2,a1,80001e0c <inst_193>
    80001e08:	a1cfe06f          	j	80000024 <rvtest_error>

0000000080001e0c <inst_193>:
    80001e0c:	aaaab537          	lui	a0,0xaaaab
    80001e10:	aaa50513          	addi	a0,a0,-1366 # ffffffffaaaaaaaa <absimm+0xfffffffeefd9cfda>
    80001e14:	00b51513          	slli	a0,a0,0xb
    80001e18:	55550513          	addi	a0,a0,1365
    80001e1c:	00b51513          	slli	a0,a0,0xb
    80001e20:	2aa50513          	addi	a0,a0,682
    80001e24:	00a51513          	slli	a0,a0,0xa
    80001e28:	2aa50513          	addi	a0,a0,682
    80001e2c:	0025059b          	addiw	a1,a0,2
    80001e30:	54b33c23          	sd	a1,1368(t1)
    80001e34:	aaaab3b7          	lui	t2,0xaaaab
    80001e38:	aac3839b          	addiw	t2,t2,-1364 # ffffffffaaaaaaac <absimm+0xfffffffeefd9cfdc>
    80001e3c:	00b38463          	beq	t2,a1,80001e44 <inst_194>
    80001e40:	9e4fe06f          	j	80000024 <rvtest_error>

0000000080001e44 <inst_194>:
    80001e44:	aaaab537          	lui	a0,0xaaaab
    80001e48:	aaa50513          	addi	a0,a0,-1366 # ffffffffaaaaaaaa <absimm+0xfffffffeefd9cfda>
    80001e4c:	00b51513          	slli	a0,a0,0xb
    80001e50:	55550513          	addi	a0,a0,1365
    80001e54:	00b51513          	slli	a0,a0,0xb
    80001e58:	2aa50513          	addi	a0,a0,682
    80001e5c:	00a51513          	slli	a0,a0,0xa
    80001e60:	2aa50513          	addi	a0,a0,682
    80001e64:	5545059b          	addiw	a1,a0,1364
    80001e68:	56b33023          	sd	a1,1376(t1)
    80001e6c:	aaaab3b7          	lui	t2,0xaaaab
    80001e70:	ffe3839b          	addiw	t2,t2,-2 # ffffffffaaaaaffe <absimm+0xfffffffeefd9d52e>
    80001e74:	00b38463          	beq	t2,a1,80001e7c <inst_195>
    80001e78:	9acfe06f          	j	80000024 <rvtest_error>

0000000080001e7c <inst_195>:
    80001e7c:	aaaab537          	lui	a0,0xaaaab
    80001e80:	aaa50513          	addi	a0,a0,-1366 # ffffffffaaaaaaaa <absimm+0xfffffffeefd9cfda>
    80001e84:	00b51513          	slli	a0,a0,0xb
    80001e88:	55550513          	addi	a0,a0,1365
    80001e8c:	00b51513          	slli	a0,a0,0xb
    80001e90:	2aa50513          	addi	a0,a0,682
    80001e94:	00a51513          	slli	a0,a0,0xa
    80001e98:	2aa50513          	addi	a0,a0,682
    80001e9c:	0005059b          	sext.w	a1,a0
    80001ea0:	56b33423          	sd	a1,1384(t1)
    80001ea4:	aaaab3b7          	lui	t2,0xaaaab
    80001ea8:	aaa3839b          	addiw	t2,t2,-1366 # ffffffffaaaaaaaa <absimm+0xfffffffeefd9cfda>
    80001eac:	00b38463          	beq	t2,a1,80001eb4 <inst_196>
    80001eb0:	974fe06f          	j	80000024 <rvtest_error>

0000000080001eb4 <inst_196>:
    80001eb4:	aaaab537          	lui	a0,0xaaaab
    80001eb8:	aaa50513          	addi	a0,a0,-1366 # ffffffffaaaaaaaa <absimm+0xfffffffeefd9cfda>
    80001ebc:	00b51513          	slli	a0,a0,0xb
    80001ec0:	55550513          	addi	a0,a0,1365
    80001ec4:	00b51513          	slli	a0,a0,0xb
    80001ec8:	2aa50513          	addi	a0,a0,682
    80001ecc:	00a51513          	slli	a0,a0,0xa
    80001ed0:	2aa50513          	addi	a0,a0,682
    80001ed4:	0045059b          	addiw	a1,a0,4
    80001ed8:	56b33823          	sd	a1,1392(t1)
    80001edc:	aaaab3b7          	lui	t2,0xaaaab
    80001ee0:	aae3839b          	addiw	t2,t2,-1362 # ffffffffaaaaaaae <absimm+0xfffffffeefd9cfde>
    80001ee4:	00b38463          	beq	t2,a1,80001eec <inst_197>
    80001ee8:	93cfe06f          	j	80000024 <rvtest_error>

0000000080001eec <inst_197>:
    80001eec:	aaaab537          	lui	a0,0xaaaab
    80001ef0:	aaa50513          	addi	a0,a0,-1366 # ffffffffaaaaaaaa <absimm+0xfffffffeefd9cfda>
    80001ef4:	00b51513          	slli	a0,a0,0xb
    80001ef8:	55550513          	addi	a0,a0,1365
    80001efc:	00b51513          	slli	a0,a0,0xb
    80001f00:	2aa50513          	addi	a0,a0,682
    80001f04:	00a51513          	slli	a0,a0,0xa
    80001f08:	2aa50513          	addi	a0,a0,682
    80001f0c:	3325059b          	addiw	a1,a0,818
    80001f10:	56b33c23          	sd	a1,1400(t1)
    80001f14:	aaaab3b7          	lui	t2,0xaaaab
    80001f18:	ddc3839b          	addiw	t2,t2,-548 # ffffffffaaaaaddc <absimm+0xfffffffeefd9d30c>
    80001f1c:	00b38463          	beq	t2,a1,80001f24 <inst_198>
    80001f20:	904fe06f          	j	80000024 <rvtest_error>

0000000080001f24 <inst_198>:
    80001f24:	aaaab537          	lui	a0,0xaaaab
    80001f28:	aaa50513          	addi	a0,a0,-1366 # ffffffffaaaaaaaa <absimm+0xfffffffeefd9cfda>
    80001f2c:	00b51513          	slli	a0,a0,0xb
    80001f30:	55550513          	addi	a0,a0,1365
    80001f34:	00b51513          	slli	a0,a0,0xb
    80001f38:	2aa50513          	addi	a0,a0,682
    80001f3c:	00a51513          	slli	a0,a0,0xa
    80001f40:	2aa50513          	addi	a0,a0,682
    80001f44:	6655059b          	addiw	a1,a0,1637
    80001f48:	58b33023          	sd	a1,1408(t1)
    80001f4c:	aaaab3b7          	lui	t2,0xaaaab
    80001f50:	10f3839b          	addiw	t2,t2,271 # ffffffffaaaab10f <absimm+0xfffffffeefd9d63f>
    80001f54:	00b38463          	beq	t2,a1,80001f5c <inst_199>
    80001f58:	8ccfe06f          	j	80000024 <rvtest_error>

0000000080001f5c <inst_199>:
    80001f5c:	aaaab537          	lui	a0,0xaaaab
    80001f60:	aaa50513          	addi	a0,a0,-1366 # ffffffffaaaaaaaa <absimm+0xfffffffeefd9cfda>
    80001f64:	00b51513          	slli	a0,a0,0xb
    80001f68:	55550513          	addi	a0,a0,1365
    80001f6c:	00b51513          	slli	a0,a0,0xb
    80001f70:	2aa50513          	addi	a0,a0,682
    80001f74:	00a51513          	slli	a0,a0,0xa
    80001f78:	2aa50513          	addi	a0,a0,682
    80001f7c:	02c5059b          	addiw	a1,a0,44
    80001f80:	58b33423          	sd	a1,1416(t1)
    80001f84:	aaaab3b7          	lui	t2,0xaaaab
    80001f88:	ad63839b          	addiw	t2,t2,-1322 # ffffffffaaaaaad6 <absimm+0xfffffffeefd9d006>
    80001f8c:	00b38463          	beq	t2,a1,80001f94 <inst_200>
    80001f90:	894fe06f          	j	80000024 <rvtest_error>

0000000080001f94 <inst_200>:
    80001f94:	aaaab537          	lui	a0,0xaaaab
    80001f98:	aaa50513          	addi	a0,a0,-1366 # ffffffffaaaaaaaa <absimm+0xfffffffeefd9cfda>
    80001f9c:	00b51513          	slli	a0,a0,0xb
    80001fa0:	55550513          	addi	a0,a0,1365
    80001fa4:	00b51513          	slli	a0,a0,0xb
    80001fa8:	2aa50513          	addi	a0,a0,682
    80001fac:	00a51513          	slli	a0,a0,0xa
    80001fb0:	2aa50513          	addi	a0,a0,682
    80001fb4:	5565059b          	addiw	a1,a0,1366
    80001fb8:	58b33823          	sd	a1,1424(t1)
    80001fbc:	aaaab3b7          	lui	t2,0xaaaab
    80001fc0:	00b38463          	beq	t2,a1,80001fc8 <inst_201>
    80001fc4:	860fe06f          	j	80000024 <rvtest_error>

0000000080001fc8 <inst_201>:
    80001fc8:	aaaab537          	lui	a0,0xaaaab
    80001fcc:	aaa50513          	addi	a0,a0,-1366 # ffffffffaaaaaaaa <absimm+0xfffffffeefd9cfda>
    80001fd0:	00b51513          	slli	a0,a0,0xb
    80001fd4:	55550513          	addi	a0,a0,1365
    80001fd8:	00b51513          	slli	a0,a0,0xb
    80001fdc:	2aa50513          	addi	a0,a0,682
    80001fe0:	00a51513          	slli	a0,a0,0xa
    80001fe4:	2aa50513          	addi	a0,a0,682
    80001fe8:	aab5059b          	addiw	a1,a0,-1365
    80001fec:	58b33c23          	sd	a1,1432(t1)
    80001ff0:	aaaaa3b7          	lui	t2,0xaaaaa
    80001ff4:	5553839b          	addiw	t2,t2,1365 # ffffffffaaaaa555 <absimm+0xfffffffeefd9ca85>
    80001ff8:	00b38463          	beq	t2,a1,80002000 <inst_202>
    80001ffc:	828fe06f          	j	80000024 <rvtest_error>

0000000080002000 <inst_202>:
    80002000:	aaaab537          	lui	a0,0xaaaab
    80002004:	aaa50513          	addi	a0,a0,-1366 # ffffffffaaaaaaaa <absimm+0xfffffffeefd9cfda>
    80002008:	00b51513          	slli	a0,a0,0xb
    8000200c:	55550513          	addi	a0,a0,1365
    80002010:	00b51513          	slli	a0,a0,0xb
    80002014:	2aa50513          	addi	a0,a0,682
    80002018:	00a51513          	slli	a0,a0,0xa
    8000201c:	2aa50513          	addi	a0,a0,682
    80002020:	0065059b          	addiw	a1,a0,6
    80002024:	5ab33023          	sd	a1,1440(t1)
    80002028:	aaaab3b7          	lui	t2,0xaaaab
    8000202c:	ab03839b          	addiw	t2,t2,-1360 # ffffffffaaaaaab0 <absimm+0xfffffffeefd9cfe0>
    80002030:	00b38463          	beq	t2,a1,80002038 <inst_203>
    80002034:	ff1fd06f          	j	80000024 <rvtest_error>

0000000080002038 <inst_203>:
    80002038:	aaaab537          	lui	a0,0xaaaab
    8000203c:	aaa50513          	addi	a0,a0,-1366 # ffffffffaaaaaaaa <absimm+0xfffffffeefd9cfda>
    80002040:	00b51513          	slli	a0,a0,0xb
    80002044:	55550513          	addi	a0,a0,1365
    80002048:	00b51513          	slli	a0,a0,0xb
    8000204c:	2aa50513          	addi	a0,a0,682
    80002050:	00a51513          	slli	a0,a0,0xa
    80002054:	2aa50513          	addi	a0,a0,682
    80002058:	3345059b          	addiw	a1,a0,820
    8000205c:	5ab33423          	sd	a1,1448(t1)
    80002060:	aaaab3b7          	lui	t2,0xaaaab
    80002064:	dde3839b          	addiw	t2,t2,-546 # ffffffffaaaaadde <absimm+0xfffffffeefd9d30e>
    80002068:	00b38463          	beq	t2,a1,80002070 <inst_204>
    8000206c:	fb9fd06f          	j	80000024 <rvtest_error>

0000000080002070 <inst_204>:
    80002070:	aaaab537          	lui	a0,0xaaaab
    80002074:	aaa50513          	addi	a0,a0,-1366 # ffffffffaaaaaaaa <absimm+0xfffffffeefd9cfda>
    80002078:	00b51513          	slli	a0,a0,0xb
    8000207c:	55550513          	addi	a0,a0,1365
    80002080:	00b51513          	slli	a0,a0,0xb
    80002084:	2aa50513          	addi	a0,a0,682
    80002088:	00a51513          	slli	a0,a0,0xa
    8000208c:	2aa50513          	addi	a0,a0,682
    80002090:	6675059b          	addiw	a1,a0,1639
    80002094:	5ab33823          	sd	a1,1456(t1)
    80002098:	aaaab3b7          	lui	t2,0xaaaab
    8000209c:	1113839b          	addiw	t2,t2,273 # ffffffffaaaab111 <absimm+0xfffffffeefd9d641>
    800020a0:	00b38463          	beq	t2,a1,800020a8 <inst_205>
    800020a4:	f81fd06f          	j	80000024 <rvtest_error>

00000000800020a8 <inst_205>:
    800020a8:	aaaab537          	lui	a0,0xaaaab
    800020ac:	aaa50513          	addi	a0,a0,-1366 # ffffffffaaaaaaaa <absimm+0xfffffffeefd9cfda>
    800020b0:	00b51513          	slli	a0,a0,0xb
    800020b4:	55550513          	addi	a0,a0,1365
    800020b8:	00b51513          	slli	a0,a0,0xb
    800020bc:	2aa50513          	addi	a0,a0,682
    800020c0:	00a51513          	slli	a0,a0,0xa
    800020c4:	2aa50513          	addi	a0,a0,682
    800020c8:	fd45059b          	addiw	a1,a0,-44
    800020cc:	5ab33c23          	sd	a1,1464(t1)
    800020d0:	aaaab3b7          	lui	t2,0xaaaab
    800020d4:	a7e3839b          	addiw	t2,t2,-1410 # ffffffffaaaaaa7e <absimm+0xfffffffeefd9cfae>
    800020d8:	00b38463          	beq	t2,a1,800020e0 <inst_206>
    800020dc:	f49fd06f          	j	80000024 <rvtest_error>

00000000800020e0 <inst_206>:
    800020e0:	aaaab537          	lui	a0,0xaaaab
    800020e4:	aaa50513          	addi	a0,a0,-1366 # ffffffffaaaaaaaa <absimm+0xfffffffeefd9cfda>
    800020e8:	00b51513          	slli	a0,a0,0xb
    800020ec:	55550513          	addi	a0,a0,1365
    800020f0:	00b51513          	slli	a0,a0,0xb
    800020f4:	2aa50513          	addi	a0,a0,682
    800020f8:	00a51513          	slli	a0,a0,0xa
    800020fc:	2aa50513          	addi	a0,a0,682
    80002100:	02e5059b          	addiw	a1,a0,46
    80002104:	5cb33023          	sd	a1,1472(t1)
    80002108:	aaaab3b7          	lui	t2,0xaaaab
    8000210c:	ad83839b          	addiw	t2,t2,-1320 # ffffffffaaaaaad8 <absimm+0xfffffffeefd9d008>
    80002110:	00b38463          	beq	t2,a1,80002118 <inst_207>
    80002114:	f11fd06f          	j	80000024 <rvtest_error>

0000000080002118 <inst_207>:
    80002118:	00500513          	li	a0,5
    8000211c:	0035059b          	addiw	a1,a0,3
    80002120:	5cb33423          	sd	a1,1480(t1)
    80002124:	00800393          	li	t2,8
    80002128:	00b38463          	beq	t2,a1,80002130 <inst_208>
    8000212c:	ef9fd06f          	j	80000024 <rvtest_error>

0000000080002130 <inst_208>:
    80002130:	00500513          	li	a0,5
    80002134:	5555059b          	addiw	a1,a0,1365
    80002138:	5cb33823          	sd	a1,1488(t1)
    8000213c:	55a00393          	li	t2,1370
    80002140:	00b38463          	beq	t2,a1,80002148 <inst_209>
    80002144:	ee1fd06f          	j	80000024 <rvtest_error>

0000000080002148 <inst_209>:
    80002148:	00500513          	li	a0,5
    8000214c:	aaa5059b          	addiw	a1,a0,-1366
    80002150:	5cb33c23          	sd	a1,1496(t1)
    80002154:	aaf00393          	li	t2,-1361
    80002158:	00b38463          	beq	t2,a1,80002160 <inst_210>
    8000215c:	ec9fd06f          	j	80000024 <rvtest_error>

0000000080002160 <inst_210>:
    80002160:	00500513          	li	a0,5
    80002164:	0055059b          	addiw	a1,a0,5
    80002168:	5eb33023          	sd	a1,1504(t1)
    8000216c:	00a00393          	li	t2,10
    80002170:	00b38463          	beq	t2,a1,80002178 <inst_211>
    80002174:	eb1fd06f          	j	80000024 <rvtest_error>

0000000080002178 <inst_211>:
    80002178:	00500513          	li	a0,5
    8000217c:	3335059b          	addiw	a1,a0,819
    80002180:	5eb33423          	sd	a1,1512(t1)
    80002184:	33800393          	li	t2,824
    80002188:	00b38463          	beq	t2,a1,80002190 <inst_212>
    8000218c:	e99fd06f          	j	80000024 <rvtest_error>

0000000080002190 <inst_212>:
    80002190:	00500513          	li	a0,5
    80002194:	6665059b          	addiw	a1,a0,1638
    80002198:	5eb33823          	sd	a1,1520(t1)
    8000219c:	66b00393          	li	t2,1643
    800021a0:	00b38463          	beq	t2,a1,800021a8 <inst_213>
    800021a4:	e81fd06f          	j	80000024 <rvtest_error>

00000000800021a8 <inst_213>:
    800021a8:	00500513          	li	a0,5
    800021ac:	fd35059b          	addiw	a1,a0,-45
    800021b0:	5eb33c23          	sd	a1,1528(t1)
    800021b4:	fd800393          	li	t2,-40
    800021b8:	00b38463          	beq	t2,a1,800021c0 <inst_214>
    800021bc:	e69fd06f          	j	80000024 <rvtest_error>

00000000800021c0 <inst_214>:
    800021c0:	00500513          	li	a0,5
    800021c4:	02d5059b          	addiw	a1,a0,45
    800021c8:	60b33023          	sd	a1,1536(t1)
    800021cc:	03200393          	li	t2,50
    800021d0:	00b38463          	beq	t2,a1,800021d8 <inst_215>
    800021d4:	e51fd06f          	j	80000024 <rvtest_error>

00000000800021d8 <inst_215>:
    800021d8:	00500513          	li	a0,5
    800021dc:	0025059b          	addiw	a1,a0,2
    800021e0:	60b33423          	sd	a1,1544(t1)
    800021e4:	00700393          	li	t2,7
    800021e8:	00b38463          	beq	t2,a1,800021f0 <inst_216>
    800021ec:	e39fd06f          	j	80000024 <rvtest_error>

00000000800021f0 <inst_216>:
    800021f0:	00500513          	li	a0,5
    800021f4:	5545059b          	addiw	a1,a0,1364
    800021f8:	60b33823          	sd	a1,1552(t1)
    800021fc:	55900393          	li	t2,1369
    80002200:	00b38463          	beq	t2,a1,80002208 <inst_217>
    80002204:	e21fd06f          	j	80000024 <rvtest_error>

0000000080002208 <inst_217>:
    80002208:	00500513          	li	a0,5
    8000220c:	0005059b          	sext.w	a1,a0
    80002210:	60b33c23          	sd	a1,1560(t1)
    80002214:	00500393          	li	t2,5
    80002218:	00b38463          	beq	t2,a1,80002220 <inst_218>
    8000221c:	e09fd06f          	j	80000024 <rvtest_error>

0000000080002220 <inst_218>:
    80002220:	00500513          	li	a0,5
    80002224:	0045059b          	addiw	a1,a0,4
    80002228:	62b33023          	sd	a1,1568(t1)
    8000222c:	00900393          	li	t2,9
    80002230:	00b38463          	beq	t2,a1,80002238 <inst_219>
    80002234:	df1fd06f          	j	80000024 <rvtest_error>

0000000080002238 <inst_219>:
    80002238:	00500513          	li	a0,5
    8000223c:	3325059b          	addiw	a1,a0,818
    80002240:	62b33423          	sd	a1,1576(t1)
    80002244:	33700393          	li	t2,823
    80002248:	00b38463          	beq	t2,a1,80002250 <inst_220>
    8000224c:	dd9fd06f          	j	80000024 <rvtest_error>

0000000080002250 <inst_220>:
    80002250:	00500513          	li	a0,5
    80002254:	6655059b          	addiw	a1,a0,1637
    80002258:	62b33823          	sd	a1,1584(t1)
    8000225c:	66a00393          	li	t2,1642
    80002260:	00b38463          	beq	t2,a1,80002268 <inst_221>
    80002264:	dc1fd06f          	j	80000024 <rvtest_error>

0000000080002268 <inst_221>:
    80002268:	00500513          	li	a0,5
    8000226c:	02c5059b          	addiw	a1,a0,44
    80002270:	62b33c23          	sd	a1,1592(t1)
    80002274:	03100393          	li	t2,49
    80002278:	00b38463          	beq	t2,a1,80002280 <inst_222>
    8000227c:	da9fd06f          	j	80000024 <rvtest_error>

0000000080002280 <inst_222>:
    80002280:	00500513          	li	a0,5
    80002284:	5565059b          	addiw	a1,a0,1366
    80002288:	64b33023          	sd	a1,1600(t1)
    8000228c:	55b00393          	li	t2,1371
    80002290:	00b38463          	beq	t2,a1,80002298 <inst_223>
    80002294:	d91fd06f          	j	80000024 <rvtest_error>

0000000080002298 <inst_223>:
    80002298:	00500513          	li	a0,5
    8000229c:	aab5059b          	addiw	a1,a0,-1365
    800022a0:	64b33423          	sd	a1,1608(t1)
    800022a4:	ab000393          	li	t2,-1360
    800022a8:	00b38463          	beq	t2,a1,800022b0 <inst_224>
    800022ac:	d79fd06f          	j	80000024 <rvtest_error>

00000000800022b0 <inst_224>:
    800022b0:	00500513          	li	a0,5
    800022b4:	0065059b          	addiw	a1,a0,6
    800022b8:	64b33823          	sd	a1,1616(t1)
    800022bc:	00b00393          	li	t2,11
    800022c0:	00b38463          	beq	t2,a1,800022c8 <inst_225>
    800022c4:	d61fd06f          	j	80000024 <rvtest_error>

00000000800022c8 <inst_225>:
    800022c8:	00500513          	li	a0,5
    800022cc:	3345059b          	addiw	a1,a0,820
    800022d0:	64b33c23          	sd	a1,1624(t1)
    800022d4:	33900393          	li	t2,825
    800022d8:	00b38463          	beq	t2,a1,800022e0 <inst_226>
    800022dc:	d49fd06f          	j	80000024 <rvtest_error>

00000000800022e0 <inst_226>:
    800022e0:	00500513          	li	a0,5
    800022e4:	6675059b          	addiw	a1,a0,1639
    800022e8:	66b33023          	sd	a1,1632(t1)
    800022ec:	66c00393          	li	t2,1644
    800022f0:	00b38463          	beq	t2,a1,800022f8 <inst_227>
    800022f4:	d31fd06f          	j	80000024 <rvtest_error>

00000000800022f8 <inst_227>:
    800022f8:	00500513          	li	a0,5
    800022fc:	fd45059b          	addiw	a1,a0,-44
    80002300:	66b33423          	sd	a1,1640(t1)
    80002304:	fd900393          	li	t2,-39
    80002308:	00b38463          	beq	t2,a1,80002310 <inst_228>
    8000230c:	d19fd06f          	j	80000024 <rvtest_error>

0000000080002310 <inst_228>:
    80002310:	00500513          	li	a0,5
    80002314:	02e5059b          	addiw	a1,a0,46
    80002318:	66b33823          	sd	a1,1648(t1)
    8000231c:	03300393          	li	t2,51
    80002320:	00b38463          	beq	t2,a1,80002328 <inst_229>
    80002324:	d01fd06f          	j	80000024 <rvtest_error>

0000000080002328 <inst_229>:
    80002328:	33333537          	lui	a0,0x33333
    8000232c:	33350513          	addi	a0,a0,819 # 33333333 <absimmsh+0x27862586>
    80002330:	00b51513          	slli	a0,a0,0xb
    80002334:	19950513          	addi	a0,a0,409
    80002338:	00b51513          	slli	a0,a0,0xb
    8000233c:	4cc50513          	addi	a0,a0,1228
    80002340:	00a51513          	slli	a0,a0,0xa
    80002344:	33350513          	addi	a0,a0,819
    80002348:	0035059b          	addiw	a1,a0,3
    8000234c:	66b33c23          	sd	a1,1656(t1)
    80002350:	333333b7          	lui	t2,0x33333
    80002354:	3363839b          	addiw	t2,t2,822 # 33333336 <absimmsh+0x27862589>
    80002358:	00b38463          	beq	t2,a1,80002360 <inst_230>
    8000235c:	cc9fd06f          	j	80000024 <rvtest_error>

0000000080002360 <inst_230>:
    80002360:	33333537          	lui	a0,0x33333
    80002364:	33350513          	addi	a0,a0,819 # 33333333 <absimmsh+0x27862586>
    80002368:	00b51513          	slli	a0,a0,0xb
    8000236c:	19950513          	addi	a0,a0,409
    80002370:	00b51513          	slli	a0,a0,0xb
    80002374:	4cc50513          	addi	a0,a0,1228
    80002378:	00a51513          	slli	a0,a0,0xa
    8000237c:	33350513          	addi	a0,a0,819
    80002380:	5555059b          	addiw	a1,a0,1365
    80002384:	68b33023          	sd	a1,1664(t1)
    80002388:	333343b7          	lui	t2,0x33334
    8000238c:	8883839b          	addiw	t2,t2,-1912 # 33333888 <absimmsh+0x27862adb>
    80002390:	00b38463          	beq	t2,a1,80002398 <inst_231>
    80002394:	c91fd06f          	j	80000024 <rvtest_error>

0000000080002398 <inst_231>:
    80002398:	33333537          	lui	a0,0x33333
    8000239c:	33350513          	addi	a0,a0,819 # 33333333 <absimmsh+0x27862586>
    800023a0:	00b51513          	slli	a0,a0,0xb
    800023a4:	19950513          	addi	a0,a0,409
    800023a8:	00b51513          	slli	a0,a0,0xb
    800023ac:	4cc50513          	addi	a0,a0,1228
    800023b0:	00a51513          	slli	a0,a0,0xa
    800023b4:	33350513          	addi	a0,a0,819
    800023b8:	aaa5059b          	addiw	a1,a0,-1366
    800023bc:	68b33423          	sd	a1,1672(t1)
    800023c0:	333333b7          	lui	t2,0x33333
    800023c4:	ddd3839b          	addiw	t2,t2,-547 # 33332ddd <absimmsh+0x27862030>
    800023c8:	00b38463          	beq	t2,a1,800023d0 <inst_232>
    800023cc:	c59fd06f          	j	80000024 <rvtest_error>

00000000800023d0 <inst_232>:
    800023d0:	33333537          	lui	a0,0x33333
    800023d4:	33350513          	addi	a0,a0,819 # 33333333 <absimmsh+0x27862586>
    800023d8:	00b51513          	slli	a0,a0,0xb
    800023dc:	19950513          	addi	a0,a0,409
    800023e0:	00b51513          	slli	a0,a0,0xb
    800023e4:	4cc50513          	addi	a0,a0,1228
    800023e8:	00a51513          	slli	a0,a0,0xa
    800023ec:	33350513          	addi	a0,a0,819
    800023f0:	0055059b          	addiw	a1,a0,5
    800023f4:	68b33823          	sd	a1,1680(t1)
    800023f8:	333333b7          	lui	t2,0x33333
    800023fc:	3383839b          	addiw	t2,t2,824 # 33333338 <absimmsh+0x2786258b>
    80002400:	00b38463          	beq	t2,a1,80002408 <inst_233>
    80002404:	c21fd06f          	j	80000024 <rvtest_error>

0000000080002408 <inst_233>:
    80002408:	33333537          	lui	a0,0x33333
    8000240c:	33350513          	addi	a0,a0,819 # 33333333 <absimmsh+0x27862586>
    80002410:	00b51513          	slli	a0,a0,0xb
    80002414:	19950513          	addi	a0,a0,409
    80002418:	00b51513          	slli	a0,a0,0xb
    8000241c:	4cc50513          	addi	a0,a0,1228
    80002420:	00a51513          	slli	a0,a0,0xa
    80002424:	33350513          	addi	a0,a0,819
    80002428:	3335059b          	addiw	a1,a0,819
    8000242c:	68b33c23          	sd	a1,1688(t1)
    80002430:	333333b7          	lui	t2,0x33333
    80002434:	6663839b          	addiw	t2,t2,1638 # 33333666 <absimmsh+0x278628b9>
    80002438:	00b38463          	beq	t2,a1,80002440 <inst_234>
    8000243c:	be9fd06f          	j	80000024 <rvtest_error>

0000000080002440 <inst_234>:
    80002440:	33333537          	lui	a0,0x33333
    80002444:	33350513          	addi	a0,a0,819 # 33333333 <absimmsh+0x27862586>
    80002448:	00b51513          	slli	a0,a0,0xb
    8000244c:	19950513          	addi	a0,a0,409
    80002450:	00b51513          	slli	a0,a0,0xb
    80002454:	4cc50513          	addi	a0,a0,1228
    80002458:	00a51513          	slli	a0,a0,0xa
    8000245c:	33350513          	addi	a0,a0,819
    80002460:	6665059b          	addiw	a1,a0,1638
    80002464:	6ab33023          	sd	a1,1696(t1)
    80002468:	333343b7          	lui	t2,0x33334
    8000246c:	9993839b          	addiw	t2,t2,-1639 # 33333999 <absimmsh+0x27862bec>
    80002470:	00b38463          	beq	t2,a1,80002478 <inst_235>
    80002474:	bb1fd06f          	j	80000024 <rvtest_error>

0000000080002478 <inst_235>:
    80002478:	33333537          	lui	a0,0x33333
    8000247c:	33350513          	addi	a0,a0,819 # 33333333 <absimmsh+0x27862586>
    80002480:	00b51513          	slli	a0,a0,0xb
    80002484:	19950513          	addi	a0,a0,409
    80002488:	00b51513          	slli	a0,a0,0xb
    8000248c:	4cc50513          	addi	a0,a0,1228
    80002490:	00a51513          	slli	a0,a0,0xa
    80002494:	33350513          	addi	a0,a0,819
    80002498:	fd35059b          	addiw	a1,a0,-45
    8000249c:	6ab33423          	sd	a1,1704(t1)
    800024a0:	333333b7          	lui	t2,0x33333
    800024a4:	3063839b          	addiw	t2,t2,774 # 33333306 <absimmsh+0x27862559>
    800024a8:	00b38463          	beq	t2,a1,800024b0 <inst_236>
    800024ac:	b79fd06f          	j	80000024 <rvtest_error>

00000000800024b0 <inst_236>:
    800024b0:	33333537          	lui	a0,0x33333
    800024b4:	33350513          	addi	a0,a0,819 # 33333333 <absimmsh+0x27862586>
    800024b8:	00b51513          	slli	a0,a0,0xb
    800024bc:	19950513          	addi	a0,a0,409
    800024c0:	00b51513          	slli	a0,a0,0xb
    800024c4:	4cc50513          	addi	a0,a0,1228
    800024c8:	00a51513          	slli	a0,a0,0xa
    800024cc:	33350513          	addi	a0,a0,819
    800024d0:	02d5059b          	addiw	a1,a0,45
    800024d4:	6ab33823          	sd	a1,1712(t1)
    800024d8:	333333b7          	lui	t2,0x33333
    800024dc:	3603839b          	addiw	t2,t2,864 # 33333360 <absimmsh+0x278625b3>
    800024e0:	00b38463          	beq	t2,a1,800024e8 <inst_237>
    800024e4:	b41fd06f          	j	80000024 <rvtest_error>

00000000800024e8 <inst_237>:
    800024e8:	33333537          	lui	a0,0x33333
    800024ec:	33350513          	addi	a0,a0,819 # 33333333 <absimmsh+0x27862586>
    800024f0:	00b51513          	slli	a0,a0,0xb
    800024f4:	19950513          	addi	a0,a0,409
    800024f8:	00b51513          	slli	a0,a0,0xb
    800024fc:	4cc50513          	addi	a0,a0,1228
    80002500:	00a51513          	slli	a0,a0,0xa
    80002504:	33350513          	addi	a0,a0,819
    80002508:	0025059b          	addiw	a1,a0,2
    8000250c:	6ab33c23          	sd	a1,1720(t1)
    80002510:	333333b7          	lui	t2,0x33333
    80002514:	3353839b          	addiw	t2,t2,821 # 33333335 <absimmsh+0x27862588>
    80002518:	00b38463          	beq	t2,a1,80002520 <inst_238>
    8000251c:	b09fd06f          	j	80000024 <rvtest_error>

0000000080002520 <inst_238>:
    80002520:	33333537          	lui	a0,0x33333
    80002524:	33350513          	addi	a0,a0,819 # 33333333 <absimmsh+0x27862586>
    80002528:	00b51513          	slli	a0,a0,0xb
    8000252c:	19950513          	addi	a0,a0,409
    80002530:	00b51513          	slli	a0,a0,0xb
    80002534:	4cc50513          	addi	a0,a0,1228
    80002538:	00a51513          	slli	a0,a0,0xa
    8000253c:	33350513          	addi	a0,a0,819
    80002540:	5545059b          	addiw	a1,a0,1364
    80002544:	6cb33023          	sd	a1,1728(t1)
    80002548:	333343b7          	lui	t2,0x33334
    8000254c:	8873839b          	addiw	t2,t2,-1913 # 33333887 <absimmsh+0x27862ada>
    80002550:	00b38463          	beq	t2,a1,80002558 <inst_239>
    80002554:	ad1fd06f          	j	80000024 <rvtest_error>

0000000080002558 <inst_239>:
    80002558:	33333537          	lui	a0,0x33333
    8000255c:	33350513          	addi	a0,a0,819 # 33333333 <absimmsh+0x27862586>
    80002560:	00b51513          	slli	a0,a0,0xb
    80002564:	19950513          	addi	a0,a0,409
    80002568:	00b51513          	slli	a0,a0,0xb
    8000256c:	4cc50513          	addi	a0,a0,1228
    80002570:	00a51513          	slli	a0,a0,0xa
    80002574:	33350513          	addi	a0,a0,819
    80002578:	0005059b          	sext.w	a1,a0
    8000257c:	6cb33423          	sd	a1,1736(t1)
    80002580:	333333b7          	lui	t2,0x33333
    80002584:	3333839b          	addiw	t2,t2,819 # 33333333 <absimmsh+0x27862586>
    80002588:	00b38463          	beq	t2,a1,80002590 <inst_240>
    8000258c:	a99fd06f          	j	80000024 <rvtest_error>

0000000080002590 <inst_240>:
    80002590:	33333537          	lui	a0,0x33333
    80002594:	33350513          	addi	a0,a0,819 # 33333333 <absimmsh+0x27862586>
    80002598:	00b51513          	slli	a0,a0,0xb
    8000259c:	19950513          	addi	a0,a0,409
    800025a0:	00b51513          	slli	a0,a0,0xb
    800025a4:	4cc50513          	addi	a0,a0,1228
    800025a8:	00a51513          	slli	a0,a0,0xa
    800025ac:	33350513          	addi	a0,a0,819
    800025b0:	0045059b          	addiw	a1,a0,4
    800025b4:	6cb33823          	sd	a1,1744(t1)
    800025b8:	333333b7          	lui	t2,0x33333
    800025bc:	3373839b          	addiw	t2,t2,823 # 33333337 <absimmsh+0x2786258a>
    800025c0:	00b38463          	beq	t2,a1,800025c8 <inst_241>
    800025c4:	a61fd06f          	j	80000024 <rvtest_error>

00000000800025c8 <inst_241>:
    800025c8:	33333537          	lui	a0,0x33333
    800025cc:	33350513          	addi	a0,a0,819 # 33333333 <absimmsh+0x27862586>
    800025d0:	00b51513          	slli	a0,a0,0xb
    800025d4:	19950513          	addi	a0,a0,409
    800025d8:	00b51513          	slli	a0,a0,0xb
    800025dc:	4cc50513          	addi	a0,a0,1228
    800025e0:	00a51513          	slli	a0,a0,0xa
    800025e4:	33350513          	addi	a0,a0,819
    800025e8:	3325059b          	addiw	a1,a0,818
    800025ec:	6cb33c23          	sd	a1,1752(t1)
    800025f0:	333333b7          	lui	t2,0x33333
    800025f4:	6653839b          	addiw	t2,t2,1637 # 33333665 <absimmsh+0x278628b8>
    800025f8:	00b38463          	beq	t2,a1,80002600 <inst_242>
    800025fc:	a29fd06f          	j	80000024 <rvtest_error>

0000000080002600 <inst_242>:
    80002600:	33333537          	lui	a0,0x33333
    80002604:	33350513          	addi	a0,a0,819 # 33333333 <absimmsh+0x27862586>
    80002608:	00b51513          	slli	a0,a0,0xb
    8000260c:	19950513          	addi	a0,a0,409
    80002610:	00b51513          	slli	a0,a0,0xb
    80002614:	4cc50513          	addi	a0,a0,1228
    80002618:	00a51513          	slli	a0,a0,0xa
    8000261c:	33350513          	addi	a0,a0,819
    80002620:	6655059b          	addiw	a1,a0,1637
    80002624:	6eb33023          	sd	a1,1760(t1)
    80002628:	333343b7          	lui	t2,0x33334
    8000262c:	9983839b          	addiw	t2,t2,-1640 # 33333998 <absimmsh+0x27862beb>
    80002630:	00b38463          	beq	t2,a1,80002638 <inst_243>
    80002634:	9f1fd06f          	j	80000024 <rvtest_error>

0000000080002638 <inst_243>:
    80002638:	33333537          	lui	a0,0x33333
    8000263c:	33350513          	addi	a0,a0,819 # 33333333 <absimmsh+0x27862586>
    80002640:	00b51513          	slli	a0,a0,0xb
    80002644:	19950513          	addi	a0,a0,409
    80002648:	00b51513          	slli	a0,a0,0xb
    8000264c:	4cc50513          	addi	a0,a0,1228
    80002650:	00a51513          	slli	a0,a0,0xa
    80002654:	33350513          	addi	a0,a0,819
    80002658:	02c5059b          	addiw	a1,a0,44
    8000265c:	6eb33423          	sd	a1,1768(t1)
    80002660:	333333b7          	lui	t2,0x33333
    80002664:	35f3839b          	addiw	t2,t2,863 # 3333335f <absimmsh+0x278625b2>
    80002668:	00b38463          	beq	t2,a1,80002670 <inst_244>
    8000266c:	9b9fd06f          	j	80000024 <rvtest_error>

0000000080002670 <inst_244>:
    80002670:	33333537          	lui	a0,0x33333
    80002674:	33350513          	addi	a0,a0,819 # 33333333 <absimmsh+0x27862586>
    80002678:	00b51513          	slli	a0,a0,0xb
    8000267c:	19950513          	addi	a0,a0,409
    80002680:	00b51513          	slli	a0,a0,0xb
    80002684:	4cc50513          	addi	a0,a0,1228
    80002688:	00a51513          	slli	a0,a0,0xa
    8000268c:	33350513          	addi	a0,a0,819
    80002690:	5565059b          	addiw	a1,a0,1366
    80002694:	6eb33823          	sd	a1,1776(t1)
    80002698:	333343b7          	lui	t2,0x33334
    8000269c:	8893839b          	addiw	t2,t2,-1911 # 33333889 <absimmsh+0x27862adc>
    800026a0:	00b38463          	beq	t2,a1,800026a8 <inst_245>
    800026a4:	981fd06f          	j	80000024 <rvtest_error>

00000000800026a8 <inst_245>:
    800026a8:	33333537          	lui	a0,0x33333
    800026ac:	33350513          	addi	a0,a0,819 # 33333333 <absimmsh+0x27862586>
    800026b0:	00b51513          	slli	a0,a0,0xb
    800026b4:	19950513          	addi	a0,a0,409
    800026b8:	00b51513          	slli	a0,a0,0xb
    800026bc:	4cc50513          	addi	a0,a0,1228
    800026c0:	00a51513          	slli	a0,a0,0xa
    800026c4:	33350513          	addi	a0,a0,819
    800026c8:	aab5059b          	addiw	a1,a0,-1365
    800026cc:	6eb33c23          	sd	a1,1784(t1)
    800026d0:	333333b7          	lui	t2,0x33333
    800026d4:	dde3839b          	addiw	t2,t2,-546 # 33332dde <absimmsh+0x27862031>
    800026d8:	00b38463          	beq	t2,a1,800026e0 <inst_246>
    800026dc:	949fd06f          	j	80000024 <rvtest_error>

00000000800026e0 <inst_246>:
    800026e0:	33333537          	lui	a0,0x33333
    800026e4:	33350513          	addi	a0,a0,819 # 33333333 <absimmsh+0x27862586>
    800026e8:	00b51513          	slli	a0,a0,0xb
    800026ec:	19950513          	addi	a0,a0,409
    800026f0:	00b51513          	slli	a0,a0,0xb
    800026f4:	4cc50513          	addi	a0,a0,1228
    800026f8:	00a51513          	slli	a0,a0,0xa
    800026fc:	33350513          	addi	a0,a0,819
    80002700:	0065059b          	addiw	a1,a0,6
    80002704:	70b33023          	sd	a1,1792(t1)
    80002708:	333333b7          	lui	t2,0x33333
    8000270c:	3393839b          	addiw	t2,t2,825 # 33333339 <absimmsh+0x2786258c>
    80002710:	00b38463          	beq	t2,a1,80002718 <inst_247>
    80002714:	911fd06f          	j	80000024 <rvtest_error>

0000000080002718 <inst_247>:
    80002718:	33333537          	lui	a0,0x33333
    8000271c:	33350513          	addi	a0,a0,819 # 33333333 <absimmsh+0x27862586>
    80002720:	00b51513          	slli	a0,a0,0xb
    80002724:	19950513          	addi	a0,a0,409
    80002728:	00b51513          	slli	a0,a0,0xb
    8000272c:	4cc50513          	addi	a0,a0,1228
    80002730:	00a51513          	slli	a0,a0,0xa
    80002734:	33350513          	addi	a0,a0,819
    80002738:	3345059b          	addiw	a1,a0,820
    8000273c:	70b33423          	sd	a1,1800(t1)
    80002740:	333333b7          	lui	t2,0x33333
    80002744:	6673839b          	addiw	t2,t2,1639 # 33333667 <absimmsh+0x278628ba>
    80002748:	00b38463          	beq	t2,a1,80002750 <inst_248>
    8000274c:	8d9fd06f          	j	80000024 <rvtest_error>

0000000080002750 <inst_248>:
    80002750:	33333537          	lui	a0,0x33333
    80002754:	33350513          	addi	a0,a0,819 # 33333333 <absimmsh+0x27862586>
    80002758:	00b51513          	slli	a0,a0,0xb
    8000275c:	19950513          	addi	a0,a0,409
    80002760:	00b51513          	slli	a0,a0,0xb
    80002764:	4cc50513          	addi	a0,a0,1228
    80002768:	00a51513          	slli	a0,a0,0xa
    8000276c:	33350513          	addi	a0,a0,819
    80002770:	6675059b          	addiw	a1,a0,1639
    80002774:	70b33823          	sd	a1,1808(t1)
    80002778:	333343b7          	lui	t2,0x33334
    8000277c:	99a3839b          	addiw	t2,t2,-1638 # 3333399a <absimmsh+0x27862bed>
    80002780:	00b38463          	beq	t2,a1,80002788 <inst_249>
    80002784:	8a1fd06f          	j	80000024 <rvtest_error>

0000000080002788 <inst_249>:
    80002788:	33333537          	lui	a0,0x33333
    8000278c:	33350513          	addi	a0,a0,819 # 33333333 <absimmsh+0x27862586>
    80002790:	00b51513          	slli	a0,a0,0xb
    80002794:	19950513          	addi	a0,a0,409
    80002798:	00b51513          	slli	a0,a0,0xb
    8000279c:	4cc50513          	addi	a0,a0,1228
    800027a0:	00a51513          	slli	a0,a0,0xa
    800027a4:	33350513          	addi	a0,a0,819
    800027a8:	fd45059b          	addiw	a1,a0,-44
    800027ac:	70b33c23          	sd	a1,1816(t1)
    800027b0:	333333b7          	lui	t2,0x33333
    800027b4:	3073839b          	addiw	t2,t2,775 # 33333307 <absimmsh+0x2786255a>
    800027b8:	00b38463          	beq	t2,a1,800027c0 <inst_250>
    800027bc:	869fd06f          	j	80000024 <rvtest_error>

00000000800027c0 <inst_250>:
    800027c0:	33333537          	lui	a0,0x33333
    800027c4:	33350513          	addi	a0,a0,819 # 33333333 <absimmsh+0x27862586>
    800027c8:	00b51513          	slli	a0,a0,0xb
    800027cc:	19950513          	addi	a0,a0,409
    800027d0:	00b51513          	slli	a0,a0,0xb
    800027d4:	4cc50513          	addi	a0,a0,1228
    800027d8:	00a51513          	slli	a0,a0,0xa
    800027dc:	33350513          	addi	a0,a0,819
    800027e0:	02e5059b          	addiw	a1,a0,46
    800027e4:	72b33023          	sd	a1,1824(t1)
    800027e8:	333333b7          	lui	t2,0x33333
    800027ec:	3613839b          	addiw	t2,t2,865 # 33333361 <absimmsh+0x278625b4>
    800027f0:	00b38463          	beq	t2,a1,800027f8 <inst_251>
    800027f4:	831fd06f          	j	80000024 <rvtest_error>

00000000800027f8 <inst_251>:
    800027f8:	66666537          	lui	a0,0x66666
    800027fc:	66650513          	addi	a0,a0,1638 # 66666666 <absimmsh+0x5ab958b9>
    80002800:	00b51513          	slli	a0,a0,0xb
    80002804:	33350513          	addi	a0,a0,819
    80002808:	00b51513          	slli	a0,a0,0xb
    8000280c:	19950513          	addi	a0,a0,409
    80002810:	00a51513          	slli	a0,a0,0xa
    80002814:	26650513          	addi	a0,a0,614
    80002818:	0035059b          	addiw	a1,a0,3
    8000281c:	72b33423          	sd	a1,1832(t1)
    80002820:	666663b7          	lui	t2,0x66666
    80002824:	6693839b          	addiw	t2,t2,1641 # 66666669 <absimmsh+0x5ab958bc>
    80002828:	00b38463          	beq	t2,a1,80002830 <inst_252>
    8000282c:	ff8fd06f          	j	80000024 <rvtest_error>

0000000080002830 <inst_252>:
    80002830:	66666537          	lui	a0,0x66666
    80002834:	66650513          	addi	a0,a0,1638 # 66666666 <absimmsh+0x5ab958b9>
    80002838:	00b51513          	slli	a0,a0,0xb
    8000283c:	33350513          	addi	a0,a0,819
    80002840:	00b51513          	slli	a0,a0,0xb
    80002844:	19950513          	addi	a0,a0,409
    80002848:	00a51513          	slli	a0,a0,0xa
    8000284c:	26650513          	addi	a0,a0,614
    80002850:	5555059b          	addiw	a1,a0,1365
    80002854:	72b33823          	sd	a1,1840(t1)
    80002858:	666673b7          	lui	t2,0x66667
    8000285c:	bbb3839b          	addiw	t2,t2,-1093 # 66666bbb <absimmsh+0x5ab95e0e>
    80002860:	00b38463          	beq	t2,a1,80002868 <inst_253>
    80002864:	fc0fd06f          	j	80000024 <rvtest_error>

0000000080002868 <inst_253>:
    80002868:	66666537          	lui	a0,0x66666
    8000286c:	66650513          	addi	a0,a0,1638 # 66666666 <absimmsh+0x5ab958b9>
    80002870:	00b51513          	slli	a0,a0,0xb
    80002874:	33350513          	addi	a0,a0,819
    80002878:	00b51513          	slli	a0,a0,0xb
    8000287c:	19950513          	addi	a0,a0,409
    80002880:	00a51513          	slli	a0,a0,0xa
    80002884:	26650513          	addi	a0,a0,614
    80002888:	aaa5059b          	addiw	a1,a0,-1366
    8000288c:	72b33c23          	sd	a1,1848(t1)
    80002890:	666663b7          	lui	t2,0x66666
    80002894:	1103839b          	addiw	t2,t2,272 # 66666110 <absimmsh+0x5ab95363>
    80002898:	00b38463          	beq	t2,a1,800028a0 <inst_254>
    8000289c:	f88fd06f          	j	80000024 <rvtest_error>

00000000800028a0 <inst_254>:
    800028a0:	66666537          	lui	a0,0x66666
    800028a4:	66650513          	addi	a0,a0,1638 # 66666666 <absimmsh+0x5ab958b9>
    800028a8:	00b51513          	slli	a0,a0,0xb
    800028ac:	33350513          	addi	a0,a0,819
    800028b0:	00b51513          	slli	a0,a0,0xb
    800028b4:	19950513          	addi	a0,a0,409
    800028b8:	00a51513          	slli	a0,a0,0xa
    800028bc:	26650513          	addi	a0,a0,614
    800028c0:	0055059b          	addiw	a1,a0,5
    800028c4:	74b33023          	sd	a1,1856(t1)
    800028c8:	666663b7          	lui	t2,0x66666
    800028cc:	66b3839b          	addiw	t2,t2,1643 # 6666666b <absimmsh+0x5ab958be>
    800028d0:	00b38463          	beq	t2,a1,800028d8 <inst_255>
    800028d4:	f50fd06f          	j	80000024 <rvtest_error>

00000000800028d8 <inst_255>:
    800028d8:	66666537          	lui	a0,0x66666
    800028dc:	66650513          	addi	a0,a0,1638 # 66666666 <absimmsh+0x5ab958b9>
    800028e0:	00b51513          	slli	a0,a0,0xb
    800028e4:	33350513          	addi	a0,a0,819
    800028e8:	00b51513          	slli	a0,a0,0xb
    800028ec:	19950513          	addi	a0,a0,409
    800028f0:	00a51513          	slli	a0,a0,0xa
    800028f4:	26650513          	addi	a0,a0,614
    800028f8:	3335059b          	addiw	a1,a0,819
    800028fc:	74b33423          	sd	a1,1864(t1)
    80002900:	666673b7          	lui	t2,0x66667
    80002904:	9993839b          	addiw	t2,t2,-1639 # 66666999 <absimmsh+0x5ab95bec>
    80002908:	00b38463          	beq	t2,a1,80002910 <inst_256>
    8000290c:	f18fd06f          	j	80000024 <rvtest_error>

0000000080002910 <inst_256>:
    80002910:	66666537          	lui	a0,0x66666
    80002914:	66650513          	addi	a0,a0,1638 # 66666666 <absimmsh+0x5ab958b9>
    80002918:	00b51513          	slli	a0,a0,0xb
    8000291c:	33350513          	addi	a0,a0,819
    80002920:	00b51513          	slli	a0,a0,0xb
    80002924:	19950513          	addi	a0,a0,409
    80002928:	00a51513          	slli	a0,a0,0xa
    8000292c:	26650513          	addi	a0,a0,614
    80002930:	6665059b          	addiw	a1,a0,1638
    80002934:	74b33823          	sd	a1,1872(t1)
    80002938:	666673b7          	lui	t2,0x66667
    8000293c:	ccc3839b          	addiw	t2,t2,-820 # 66666ccc <absimmsh+0x5ab95f1f>
    80002940:	00b38463          	beq	t2,a1,80002948 <inst_257>
    80002944:	ee0fd06f          	j	80000024 <rvtest_error>

0000000080002948 <inst_257>:
    80002948:	66666537          	lui	a0,0x66666
    8000294c:	66650513          	addi	a0,a0,1638 # 66666666 <absimmsh+0x5ab958b9>
    80002950:	00b51513          	slli	a0,a0,0xb
    80002954:	33350513          	addi	a0,a0,819
    80002958:	00b51513          	slli	a0,a0,0xb
    8000295c:	19950513          	addi	a0,a0,409
    80002960:	00a51513          	slli	a0,a0,0xa
    80002964:	26650513          	addi	a0,a0,614
    80002968:	fd35059b          	addiw	a1,a0,-45
    8000296c:	74b33c23          	sd	a1,1880(t1)
    80002970:	666663b7          	lui	t2,0x66666
    80002974:	6393839b          	addiw	t2,t2,1593 # 66666639 <absimmsh+0x5ab9588c>
    80002978:	00b38463          	beq	t2,a1,80002980 <inst_258>
    8000297c:	ea8fd06f          	j	80000024 <rvtest_error>

0000000080002980 <inst_258>:
    80002980:	66666537          	lui	a0,0x66666
    80002984:	66650513          	addi	a0,a0,1638 # 66666666 <absimmsh+0x5ab958b9>
    80002988:	00b51513          	slli	a0,a0,0xb
    8000298c:	33350513          	addi	a0,a0,819
    80002990:	00b51513          	slli	a0,a0,0xb
    80002994:	19950513          	addi	a0,a0,409
    80002998:	00a51513          	slli	a0,a0,0xa
    8000299c:	26650513          	addi	a0,a0,614
    800029a0:	02d5059b          	addiw	a1,a0,45
    800029a4:	76b33023          	sd	a1,1888(t1)
    800029a8:	666663b7          	lui	t2,0x66666
    800029ac:	6933839b          	addiw	t2,t2,1683 # 66666693 <absimmsh+0x5ab958e6>
    800029b0:	00b38463          	beq	t2,a1,800029b8 <inst_259>
    800029b4:	e70fd06f          	j	80000024 <rvtest_error>

00000000800029b8 <inst_259>:
    800029b8:	66666537          	lui	a0,0x66666
    800029bc:	66650513          	addi	a0,a0,1638 # 66666666 <absimmsh+0x5ab958b9>
    800029c0:	00b51513          	slli	a0,a0,0xb
    800029c4:	33350513          	addi	a0,a0,819
    800029c8:	00b51513          	slli	a0,a0,0xb
    800029cc:	19950513          	addi	a0,a0,409
    800029d0:	00a51513          	slli	a0,a0,0xa
    800029d4:	26650513          	addi	a0,a0,614
    800029d8:	0025059b          	addiw	a1,a0,2
    800029dc:	76b33423          	sd	a1,1896(t1)
    800029e0:	666663b7          	lui	t2,0x66666
    800029e4:	6683839b          	addiw	t2,t2,1640 # 66666668 <absimmsh+0x5ab958bb>
    800029e8:	00b38463          	beq	t2,a1,800029f0 <inst_260>
    800029ec:	e38fd06f          	j	80000024 <rvtest_error>

00000000800029f0 <inst_260>:
    800029f0:	66666537          	lui	a0,0x66666
    800029f4:	66650513          	addi	a0,a0,1638 # 66666666 <absimmsh+0x5ab958b9>
    800029f8:	00b51513          	slli	a0,a0,0xb
    800029fc:	33350513          	addi	a0,a0,819
    80002a00:	00b51513          	slli	a0,a0,0xb
    80002a04:	19950513          	addi	a0,a0,409
    80002a08:	00a51513          	slli	a0,a0,0xa
    80002a0c:	26650513          	addi	a0,a0,614
    80002a10:	5545059b          	addiw	a1,a0,1364
    80002a14:	76b33823          	sd	a1,1904(t1)
    80002a18:	666673b7          	lui	t2,0x66667
    80002a1c:	bba3839b          	addiw	t2,t2,-1094 # 66666bba <absimmsh+0x5ab95e0d>
    80002a20:	00b38463          	beq	t2,a1,80002a28 <inst_261>
    80002a24:	e00fd06f          	j	80000024 <rvtest_error>

0000000080002a28 <inst_261>:
    80002a28:	66666537          	lui	a0,0x66666
    80002a2c:	66650513          	addi	a0,a0,1638 # 66666666 <absimmsh+0x5ab958b9>
    80002a30:	00b51513          	slli	a0,a0,0xb
    80002a34:	33350513          	addi	a0,a0,819
    80002a38:	00b51513          	slli	a0,a0,0xb
    80002a3c:	19950513          	addi	a0,a0,409
    80002a40:	00a51513          	slli	a0,a0,0xa
    80002a44:	26650513          	addi	a0,a0,614
    80002a48:	0005059b          	sext.w	a1,a0
    80002a4c:	76b33c23          	sd	a1,1912(t1)
    80002a50:	666663b7          	lui	t2,0x66666
    80002a54:	6663839b          	addiw	t2,t2,1638 # 66666666 <absimmsh+0x5ab958b9>
    80002a58:	00b38463          	beq	t2,a1,80002a60 <inst_262>
    80002a5c:	dc8fd06f          	j	80000024 <rvtest_error>

0000000080002a60 <inst_262>:
    80002a60:	66666537          	lui	a0,0x66666
    80002a64:	66650513          	addi	a0,a0,1638 # 66666666 <absimmsh+0x5ab958b9>
    80002a68:	00b51513          	slli	a0,a0,0xb
    80002a6c:	33350513          	addi	a0,a0,819
    80002a70:	00b51513          	slli	a0,a0,0xb
    80002a74:	19950513          	addi	a0,a0,409
    80002a78:	00a51513          	slli	a0,a0,0xa
    80002a7c:	26650513          	addi	a0,a0,614
    80002a80:	0045059b          	addiw	a1,a0,4
    80002a84:	78b33023          	sd	a1,1920(t1)
    80002a88:	666663b7          	lui	t2,0x66666
    80002a8c:	66a3839b          	addiw	t2,t2,1642 # 6666666a <absimmsh+0x5ab958bd>
    80002a90:	00b38463          	beq	t2,a1,80002a98 <inst_263>
    80002a94:	d90fd06f          	j	80000024 <rvtest_error>

0000000080002a98 <inst_263>:
    80002a98:	66666537          	lui	a0,0x66666
    80002a9c:	66650513          	addi	a0,a0,1638 # 66666666 <absimmsh+0x5ab958b9>
    80002aa0:	00b51513          	slli	a0,a0,0xb
    80002aa4:	33350513          	addi	a0,a0,819
    80002aa8:	00b51513          	slli	a0,a0,0xb
    80002aac:	19950513          	addi	a0,a0,409
    80002ab0:	00a51513          	slli	a0,a0,0xa
    80002ab4:	26650513          	addi	a0,a0,614
    80002ab8:	3325059b          	addiw	a1,a0,818
    80002abc:	78b33423          	sd	a1,1928(t1)
    80002ac0:	666673b7          	lui	t2,0x66667
    80002ac4:	9983839b          	addiw	t2,t2,-1640 # 66666998 <absimmsh+0x5ab95beb>
    80002ac8:	00b38463          	beq	t2,a1,80002ad0 <inst_264>
    80002acc:	d58fd06f          	j	80000024 <rvtest_error>

0000000080002ad0 <inst_264>:
    80002ad0:	66666537          	lui	a0,0x66666
    80002ad4:	66650513          	addi	a0,a0,1638 # 66666666 <absimmsh+0x5ab958b9>
    80002ad8:	00b51513          	slli	a0,a0,0xb
    80002adc:	33350513          	addi	a0,a0,819
    80002ae0:	00b51513          	slli	a0,a0,0xb
    80002ae4:	19950513          	addi	a0,a0,409
    80002ae8:	00a51513          	slli	a0,a0,0xa
    80002aec:	26650513          	addi	a0,a0,614
    80002af0:	6655059b          	addiw	a1,a0,1637
    80002af4:	78b33823          	sd	a1,1936(t1)
    80002af8:	666673b7          	lui	t2,0x66667
    80002afc:	ccb3839b          	addiw	t2,t2,-821 # 66666ccb <absimmsh+0x5ab95f1e>
    80002b00:	00b38463          	beq	t2,a1,80002b08 <inst_265>
    80002b04:	d20fd06f          	j	80000024 <rvtest_error>

0000000080002b08 <inst_265>:
    80002b08:	66666537          	lui	a0,0x66666
    80002b0c:	66650513          	addi	a0,a0,1638 # 66666666 <absimmsh+0x5ab958b9>
    80002b10:	00b51513          	slli	a0,a0,0xb
    80002b14:	33350513          	addi	a0,a0,819
    80002b18:	00b51513          	slli	a0,a0,0xb
    80002b1c:	19950513          	addi	a0,a0,409
    80002b20:	00a51513          	slli	a0,a0,0xa
    80002b24:	26650513          	addi	a0,a0,614
    80002b28:	02c5059b          	addiw	a1,a0,44
    80002b2c:	78b33c23          	sd	a1,1944(t1)
    80002b30:	666663b7          	lui	t2,0x66666
    80002b34:	6923839b          	addiw	t2,t2,1682 # 66666692 <absimmsh+0x5ab958e5>
    80002b38:	00b38463          	beq	t2,a1,80002b40 <inst_266>
    80002b3c:	ce8fd06f          	j	80000024 <rvtest_error>

0000000080002b40 <inst_266>:
    80002b40:	66666537          	lui	a0,0x66666
    80002b44:	66650513          	addi	a0,a0,1638 # 66666666 <absimmsh+0x5ab958b9>
    80002b48:	00b51513          	slli	a0,a0,0xb
    80002b4c:	33350513          	addi	a0,a0,819
    80002b50:	00b51513          	slli	a0,a0,0xb
    80002b54:	19950513          	addi	a0,a0,409
    80002b58:	00a51513          	slli	a0,a0,0xa
    80002b5c:	26650513          	addi	a0,a0,614
    80002b60:	5565059b          	addiw	a1,a0,1366
    80002b64:	7ab33023          	sd	a1,1952(t1)
    80002b68:	666673b7          	lui	t2,0x66667
    80002b6c:	bbc3839b          	addiw	t2,t2,-1092 # 66666bbc <absimmsh+0x5ab95e0f>
    80002b70:	00b38463          	beq	t2,a1,80002b78 <inst_267>
    80002b74:	cb0fd06f          	j	80000024 <rvtest_error>

0000000080002b78 <inst_267>:
    80002b78:	66666537          	lui	a0,0x66666
    80002b7c:	66650513          	addi	a0,a0,1638 # 66666666 <absimmsh+0x5ab958b9>
    80002b80:	00b51513          	slli	a0,a0,0xb
    80002b84:	33350513          	addi	a0,a0,819
    80002b88:	00b51513          	slli	a0,a0,0xb
    80002b8c:	19950513          	addi	a0,a0,409
    80002b90:	00a51513          	slli	a0,a0,0xa
    80002b94:	26650513          	addi	a0,a0,614
    80002b98:	aab5059b          	addiw	a1,a0,-1365
    80002b9c:	7ab33423          	sd	a1,1960(t1)
    80002ba0:	666663b7          	lui	t2,0x66666
    80002ba4:	1113839b          	addiw	t2,t2,273 # 66666111 <absimmsh+0x5ab95364>
    80002ba8:	00b38463          	beq	t2,a1,80002bb0 <inst_268>
    80002bac:	c78fd06f          	j	80000024 <rvtest_error>

0000000080002bb0 <inst_268>:
    80002bb0:	66666537          	lui	a0,0x66666
    80002bb4:	66650513          	addi	a0,a0,1638 # 66666666 <absimmsh+0x5ab958b9>
    80002bb8:	00b51513          	slli	a0,a0,0xb
    80002bbc:	33350513          	addi	a0,a0,819
    80002bc0:	00b51513          	slli	a0,a0,0xb
    80002bc4:	19950513          	addi	a0,a0,409
    80002bc8:	00a51513          	slli	a0,a0,0xa
    80002bcc:	26650513          	addi	a0,a0,614
    80002bd0:	0065059b          	addiw	a1,a0,6
    80002bd4:	7ab33823          	sd	a1,1968(t1)
    80002bd8:	666663b7          	lui	t2,0x66666
    80002bdc:	66c3839b          	addiw	t2,t2,1644 # 6666666c <absimmsh+0x5ab958bf>
    80002be0:	00b38463          	beq	t2,a1,80002be8 <inst_269>
    80002be4:	c40fd06f          	j	80000024 <rvtest_error>

0000000080002be8 <inst_269>:
    80002be8:	66666537          	lui	a0,0x66666
    80002bec:	66650513          	addi	a0,a0,1638 # 66666666 <absimmsh+0x5ab958b9>
    80002bf0:	00b51513          	slli	a0,a0,0xb
    80002bf4:	33350513          	addi	a0,a0,819
    80002bf8:	00b51513          	slli	a0,a0,0xb
    80002bfc:	19950513          	addi	a0,a0,409
    80002c00:	00a51513          	slli	a0,a0,0xa
    80002c04:	26650513          	addi	a0,a0,614
    80002c08:	3345059b          	addiw	a1,a0,820
    80002c0c:	7ab33c23          	sd	a1,1976(t1)
    80002c10:	666673b7          	lui	t2,0x66667
    80002c14:	99a3839b          	addiw	t2,t2,-1638 # 6666699a <absimmsh+0x5ab95bed>
    80002c18:	00b38463          	beq	t2,a1,80002c20 <inst_270>
    80002c1c:	c08fd06f          	j	80000024 <rvtest_error>

0000000080002c20 <inst_270>:
    80002c20:	66666537          	lui	a0,0x66666
    80002c24:	66650513          	addi	a0,a0,1638 # 66666666 <absimmsh+0x5ab958b9>
    80002c28:	00b51513          	slli	a0,a0,0xb
    80002c2c:	33350513          	addi	a0,a0,819
    80002c30:	00b51513          	slli	a0,a0,0xb
    80002c34:	19950513          	addi	a0,a0,409
    80002c38:	00a51513          	slli	a0,a0,0xa
    80002c3c:	26650513          	addi	a0,a0,614
    80002c40:	6675059b          	addiw	a1,a0,1639
    80002c44:	7cb33023          	sd	a1,1984(t1)
    80002c48:	666673b7          	lui	t2,0x66667
    80002c4c:	ccd3839b          	addiw	t2,t2,-819 # 66666ccd <absimmsh+0x5ab95f20>
    80002c50:	00b38463          	beq	t2,a1,80002c58 <inst_271>
    80002c54:	bd0fd06f          	j	80000024 <rvtest_error>

0000000080002c58 <inst_271>:
    80002c58:	66666537          	lui	a0,0x66666
    80002c5c:	66650513          	addi	a0,a0,1638 # 66666666 <absimmsh+0x5ab958b9>
    80002c60:	00b51513          	slli	a0,a0,0xb
    80002c64:	33350513          	addi	a0,a0,819
    80002c68:	00b51513          	slli	a0,a0,0xb
    80002c6c:	19950513          	addi	a0,a0,409
    80002c70:	00a51513          	slli	a0,a0,0xa
    80002c74:	26650513          	addi	a0,a0,614
    80002c78:	fd45059b          	addiw	a1,a0,-44
    80002c7c:	7cb33423          	sd	a1,1992(t1)
    80002c80:	666663b7          	lui	t2,0x66666
    80002c84:	63a3839b          	addiw	t2,t2,1594 # 6666663a <absimmsh+0x5ab9588d>
    80002c88:	00b38463          	beq	t2,a1,80002c90 <inst_272>
    80002c8c:	b98fd06f          	j	80000024 <rvtest_error>

0000000080002c90 <inst_272>:
    80002c90:	66666537          	lui	a0,0x66666
    80002c94:	66650513          	addi	a0,a0,1638 # 66666666 <absimmsh+0x5ab958b9>
    80002c98:	00b51513          	slli	a0,a0,0xb
    80002c9c:	33350513          	addi	a0,a0,819
    80002ca0:	00b51513          	slli	a0,a0,0xb
    80002ca4:	19950513          	addi	a0,a0,409
    80002ca8:	00a51513          	slli	a0,a0,0xa
    80002cac:	26650513          	addi	a0,a0,614
    80002cb0:	02e5059b          	addiw	a1,a0,46
    80002cb4:	7cb33823          	sd	a1,2000(t1)
    80002cb8:	666663b7          	lui	t2,0x66666
    80002cbc:	6943839b          	addiw	t2,t2,1684 # 66666694 <absimmsh+0x5ab958e7>
    80002cc0:	00b38463          	beq	t2,a1,80002cc8 <inst_273>
    80002cc4:	b60fd06f          	j	80000024 <rvtest_error>

0000000080002cc8 <inst_273>:
    80002cc8:	00000537          	lui	a0,0x0
    80002ccc:	fff50513          	addi	a0,a0,-1
    80002cd0:	00b51513          	slli	a0,a0,0xb
    80002cd4:	25750513          	addi	a0,a0,599
    80002cd8:	00b51513          	slli	a0,a0,0xb
    80002cdc:	6c350513          	addi	a0,a0,1731
    80002ce0:	00a51513          	slli	a0,a0,0xa
    80002ce4:	0cd50513          	addi	a0,a0,205
    80002ce8:	0035059b          	addiw	a1,a0,3
    80002cec:	7cb33c23          	sd	a1,2008(t1)
    80002cf0:	4afb13b7          	lui	t2,0x4afb1
    80002cf4:	cd03839b          	addiw	t2,t2,-816 # 4afb0cd0 <absimmsh+0x3f4dff23>
    80002cf8:	00b38463          	beq	t2,a1,80002d00 <inst_274>
    80002cfc:	b28fd06f          	j	80000024 <rvtest_error>

0000000080002d00 <inst_274>:
    80002d00:	00000537          	lui	a0,0x0
    80002d04:	fff50513          	addi	a0,a0,-1
    80002d08:	00b51513          	slli	a0,a0,0xb
    80002d0c:	25750513          	addi	a0,a0,599
    80002d10:	00b51513          	slli	a0,a0,0xb
    80002d14:	6c350513          	addi	a0,a0,1731
    80002d18:	00a51513          	slli	a0,a0,0xa
    80002d1c:	0cd50513          	addi	a0,a0,205
    80002d20:	5555059b          	addiw	a1,a0,1365
    80002d24:	7eb33023          	sd	a1,2016(t1)
    80002d28:	4afb13b7          	lui	t2,0x4afb1
    80002d2c:	2223839b          	addiw	t2,t2,546 # 4afb1222 <absimmsh+0x3f4e0475>
    80002d30:	00b38463          	beq	t2,a1,80002d38 <inst_275>
    80002d34:	af0fd06f          	j	80000024 <rvtest_error>

0000000080002d38 <inst_275>:
    80002d38:	00000537          	lui	a0,0x0
    80002d3c:	fff50513          	addi	a0,a0,-1
    80002d40:	00b51513          	slli	a0,a0,0xb
    80002d44:	25750513          	addi	a0,a0,599
    80002d48:	00b51513          	slli	a0,a0,0xb
    80002d4c:	6c350513          	addi	a0,a0,1731
    80002d50:	00a51513          	slli	a0,a0,0xa
    80002d54:	0cd50513          	addi	a0,a0,205
    80002d58:	aaa5059b          	addiw	a1,a0,-1366
    80002d5c:	7eb33423          	sd	a1,2024(t1)
    80002d60:	4afb03b7          	lui	t2,0x4afb0
    80002d64:	7773839b          	addiw	t2,t2,1911 # 4afb0777 <absimmsh+0x3f4df9ca>
    80002d68:	00b38463          	beq	t2,a1,80002d70 <inst_276>
    80002d6c:	ab8fd06f          	j	80000024 <rvtest_error>

0000000080002d70 <inst_276>:
    80002d70:	00000537          	lui	a0,0x0
    80002d74:	fff50513          	addi	a0,a0,-1
    80002d78:	00b51513          	slli	a0,a0,0xb
    80002d7c:	25750513          	addi	a0,a0,599
    80002d80:	00b51513          	slli	a0,a0,0xb
    80002d84:	6c350513          	addi	a0,a0,1731
    80002d88:	00a51513          	slli	a0,a0,0xa
    80002d8c:	0cd50513          	addi	a0,a0,205
    80002d90:	0055059b          	addiw	a1,a0,5
    80002d94:	7eb33823          	sd	a1,2032(t1)
    80002d98:	4afb13b7          	lui	t2,0x4afb1
    80002d9c:	cd23839b          	addiw	t2,t2,-814 # 4afb0cd2 <absimmsh+0x3f4dff25>
    80002da0:	00b38463          	beq	t2,a1,80002da8 <inst_277>
    80002da4:	a80fd06f          	j	80000024 <rvtest_error>

0000000080002da8 <inst_277>:
    80002da8:	00000537          	lui	a0,0x0
    80002dac:	fff50513          	addi	a0,a0,-1
    80002db0:	00b51513          	slli	a0,a0,0xb
    80002db4:	25750513          	addi	a0,a0,599
    80002db8:	00b51513          	slli	a0,a0,0xb
    80002dbc:	6c350513          	addi	a0,a0,1731
    80002dc0:	00a51513          	slli	a0,a0,0xa
    80002dc4:	0cd50513          	addi	a0,a0,205
    80002dc8:	3335059b          	addiw	a1,a0,819
    80002dcc:	7eb33c23          	sd	a1,2040(t1)
    80002dd0:	4afb13b7          	lui	t2,0x4afb1
    80002dd4:	00b38463          	beq	t2,a1,80002ddc <inst_277+0x34>
    80002dd8:	a4cfd06f          	j	80000024 <rvtest_error>
    80002ddc:	00000013          	nop
    80002de0:	00006317          	auipc	t1,0x6
    80002de4:	ad830313          	addi	t1,t1,-1320 # 800088b8 <signature_x6_1>
    80002de8:	00000013          	nop
    80002dec:	00000013          	nop
    80002df0:	00000013          	nop
    80002df4:	00000013          	nop
    80002df8:	00000013          	nop
    80002dfc:	00000013          	nop

0000000080002e00 <inst_278>:
    80002e00:	00000537          	lui	a0,0x0
    80002e04:	fff50513          	addi	a0,a0,-1
    80002e08:	00b51513          	slli	a0,a0,0xb
    80002e0c:	25750513          	addi	a0,a0,599
    80002e10:	00b51513          	slli	a0,a0,0xb
    80002e14:	6c350513          	addi	a0,a0,1731
    80002e18:	00a51513          	slli	a0,a0,0xa
    80002e1c:	0cd50513          	addi	a0,a0,205
    80002e20:	6665059b          	addiw	a1,a0,1638
    80002e24:	00b33023          	sd	a1,0(t1)
    80002e28:	4afb13b7          	lui	t2,0x4afb1
    80002e2c:	3333839b          	addiw	t2,t2,819 # 4afb1333 <absimmsh+0x3f4e0586>
    80002e30:	00b38463          	beq	t2,a1,80002e38 <inst_279>
    80002e34:	9f0fd06f          	j	80000024 <rvtest_error>

0000000080002e38 <inst_279>:
    80002e38:	00000537          	lui	a0,0x0
    80002e3c:	fff50513          	addi	a0,a0,-1
    80002e40:	00b51513          	slli	a0,a0,0xb
    80002e44:	25750513          	addi	a0,a0,599
    80002e48:	00b51513          	slli	a0,a0,0xb
    80002e4c:	6c350513          	addi	a0,a0,1731
    80002e50:	00a51513          	slli	a0,a0,0xa
    80002e54:	0cd50513          	addi	a0,a0,205
    80002e58:	fd35059b          	addiw	a1,a0,-45
    80002e5c:	00b33423          	sd	a1,8(t1)
    80002e60:	4afb13b7          	lui	t2,0x4afb1
    80002e64:	ca03839b          	addiw	t2,t2,-864 # 4afb0ca0 <absimmsh+0x3f4dfef3>
    80002e68:	00b38463          	beq	t2,a1,80002e70 <inst_280>
    80002e6c:	9b8fd06f          	j	80000024 <rvtest_error>

0000000080002e70 <inst_280>:
    80002e70:	00000537          	lui	a0,0x0
    80002e74:	fff50513          	addi	a0,a0,-1
    80002e78:	00b51513          	slli	a0,a0,0xb
    80002e7c:	25750513          	addi	a0,a0,599
    80002e80:	00b51513          	slli	a0,a0,0xb
    80002e84:	6c350513          	addi	a0,a0,1731
    80002e88:	00a51513          	slli	a0,a0,0xa
    80002e8c:	0cd50513          	addi	a0,a0,205
    80002e90:	02d5059b          	addiw	a1,a0,45
    80002e94:	00b33823          	sd	a1,16(t1)
    80002e98:	4afb13b7          	lui	t2,0x4afb1
    80002e9c:	cfa3839b          	addiw	t2,t2,-774 # 4afb0cfa <absimmsh+0x3f4dff4d>
    80002ea0:	00b38463          	beq	t2,a1,80002ea8 <inst_281>
    80002ea4:	980fd06f          	j	80000024 <rvtest_error>

0000000080002ea8 <inst_281>:
    80002ea8:	00000537          	lui	a0,0x0
    80002eac:	fff50513          	addi	a0,a0,-1
    80002eb0:	00b51513          	slli	a0,a0,0xb
    80002eb4:	25750513          	addi	a0,a0,599
    80002eb8:	00b51513          	slli	a0,a0,0xb
    80002ebc:	6c350513          	addi	a0,a0,1731
    80002ec0:	00a51513          	slli	a0,a0,0xa
    80002ec4:	0cd50513          	addi	a0,a0,205
    80002ec8:	0025059b          	addiw	a1,a0,2
    80002ecc:	00b33c23          	sd	a1,24(t1)
    80002ed0:	4afb13b7          	lui	t2,0x4afb1
    80002ed4:	ccf3839b          	addiw	t2,t2,-817 # 4afb0ccf <absimmsh+0x3f4dff22>
    80002ed8:	00b38463          	beq	t2,a1,80002ee0 <inst_282>
    80002edc:	948fd06f          	j	80000024 <rvtest_error>

0000000080002ee0 <inst_282>:
    80002ee0:	00000537          	lui	a0,0x0
    80002ee4:	fff50513          	addi	a0,a0,-1
    80002ee8:	00b51513          	slli	a0,a0,0xb
    80002eec:	25750513          	addi	a0,a0,599
    80002ef0:	00b51513          	slli	a0,a0,0xb
    80002ef4:	6c350513          	addi	a0,a0,1731
    80002ef8:	00a51513          	slli	a0,a0,0xa
    80002efc:	0cd50513          	addi	a0,a0,205
    80002f00:	5545059b          	addiw	a1,a0,1364
    80002f04:	02b33023          	sd	a1,32(t1)
    80002f08:	4afb13b7          	lui	t2,0x4afb1
    80002f0c:	2213839b          	addiw	t2,t2,545 # 4afb1221 <absimmsh+0x3f4e0474>
    80002f10:	00b38463          	beq	t2,a1,80002f18 <inst_283>
    80002f14:	910fd06f          	j	80000024 <rvtest_error>

0000000080002f18 <inst_283>:
    80002f18:	00000537          	lui	a0,0x0
    80002f1c:	fff50513          	addi	a0,a0,-1
    80002f20:	00b51513          	slli	a0,a0,0xb
    80002f24:	25750513          	addi	a0,a0,599
    80002f28:	00b51513          	slli	a0,a0,0xb
    80002f2c:	6c350513          	addi	a0,a0,1731
    80002f30:	00a51513          	slli	a0,a0,0xa
    80002f34:	0cd50513          	addi	a0,a0,205
    80002f38:	0005059b          	sext.w	a1,a0
    80002f3c:	02b33423          	sd	a1,40(t1)
    80002f40:	4afb13b7          	lui	t2,0x4afb1
    80002f44:	ccd3839b          	addiw	t2,t2,-819 # 4afb0ccd <absimmsh+0x3f4dff20>
    80002f48:	00b38463          	beq	t2,a1,80002f50 <inst_284>
    80002f4c:	8d8fd06f          	j	80000024 <rvtest_error>

0000000080002f50 <inst_284>:
    80002f50:	00000537          	lui	a0,0x0
    80002f54:	fff50513          	addi	a0,a0,-1
    80002f58:	00b51513          	slli	a0,a0,0xb
    80002f5c:	25750513          	addi	a0,a0,599
    80002f60:	00b51513          	slli	a0,a0,0xb
    80002f64:	6c350513          	addi	a0,a0,1731
    80002f68:	00a51513          	slli	a0,a0,0xa
    80002f6c:	0cd50513          	addi	a0,a0,205
    80002f70:	0045059b          	addiw	a1,a0,4
    80002f74:	02b33823          	sd	a1,48(t1)
    80002f78:	4afb13b7          	lui	t2,0x4afb1
    80002f7c:	cd13839b          	addiw	t2,t2,-815 # 4afb0cd1 <absimmsh+0x3f4dff24>
    80002f80:	00b38463          	beq	t2,a1,80002f88 <inst_285>
    80002f84:	8a0fd06f          	j	80000024 <rvtest_error>

0000000080002f88 <inst_285>:
    80002f88:	00000537          	lui	a0,0x0
    80002f8c:	fff50513          	addi	a0,a0,-1
    80002f90:	00b51513          	slli	a0,a0,0xb
    80002f94:	25750513          	addi	a0,a0,599
    80002f98:	00b51513          	slli	a0,a0,0xb
    80002f9c:	6c350513          	addi	a0,a0,1731
    80002fa0:	00a51513          	slli	a0,a0,0xa
    80002fa4:	0cd50513          	addi	a0,a0,205
    80002fa8:	3325059b          	addiw	a1,a0,818
    80002fac:	02b33c23          	sd	a1,56(t1)
    80002fb0:	4afb13b7          	lui	t2,0x4afb1
    80002fb4:	fff3839b          	addiw	t2,t2,-1 # 4afb0fff <absimmsh+0x3f4e0252>
    80002fb8:	00b38463          	beq	t2,a1,80002fc0 <inst_286>
    80002fbc:	868fd06f          	j	80000024 <rvtest_error>

0000000080002fc0 <inst_286>:
    80002fc0:	00000537          	lui	a0,0x0
    80002fc4:	fff50513          	addi	a0,a0,-1
    80002fc8:	00b51513          	slli	a0,a0,0xb
    80002fcc:	25750513          	addi	a0,a0,599
    80002fd0:	00b51513          	slli	a0,a0,0xb
    80002fd4:	6c350513          	addi	a0,a0,1731
    80002fd8:	00a51513          	slli	a0,a0,0xa
    80002fdc:	0cd50513          	addi	a0,a0,205
    80002fe0:	6655059b          	addiw	a1,a0,1637
    80002fe4:	04b33023          	sd	a1,64(t1)
    80002fe8:	4afb13b7          	lui	t2,0x4afb1
    80002fec:	3323839b          	addiw	t2,t2,818 # 4afb1332 <absimmsh+0x3f4e0585>
    80002ff0:	00b38463          	beq	t2,a1,80002ff8 <inst_287>
    80002ff4:	830fd06f          	j	80000024 <rvtest_error>

0000000080002ff8 <inst_287>:
    80002ff8:	00000537          	lui	a0,0x0
    80002ffc:	fff50513          	addi	a0,a0,-1
    80003000:	00b51513          	slli	a0,a0,0xb
    80003004:	25750513          	addi	a0,a0,599
    80003008:	00b51513          	slli	a0,a0,0xb
    8000300c:	6c350513          	addi	a0,a0,1731
    80003010:	00a51513          	slli	a0,a0,0xa
    80003014:	0cd50513          	addi	a0,a0,205
    80003018:	02c5059b          	addiw	a1,a0,44
    8000301c:	04b33423          	sd	a1,72(t1)
    80003020:	4afb13b7          	lui	t2,0x4afb1
    80003024:	cf93839b          	addiw	t2,t2,-775 # 4afb0cf9 <absimmsh+0x3f4dff4c>
    80003028:	00b38463          	beq	t2,a1,80003030 <inst_288>
    8000302c:	ff9fc06f          	j	80000024 <rvtest_error>

0000000080003030 <inst_288>:
    80003030:	00000537          	lui	a0,0x0
    80003034:	fff50513          	addi	a0,a0,-1
    80003038:	00b51513          	slli	a0,a0,0xb
    8000303c:	25750513          	addi	a0,a0,599
    80003040:	00b51513          	slli	a0,a0,0xb
    80003044:	6c350513          	addi	a0,a0,1731
    80003048:	00a51513          	slli	a0,a0,0xa
    8000304c:	0cd50513          	addi	a0,a0,205
    80003050:	5565059b          	addiw	a1,a0,1366
    80003054:	04b33823          	sd	a1,80(t1)
    80003058:	4afb13b7          	lui	t2,0x4afb1
    8000305c:	2233839b          	addiw	t2,t2,547 # 4afb1223 <absimmsh+0x3f4e0476>
    80003060:	00b38463          	beq	t2,a1,80003068 <inst_289>
    80003064:	fc1fc06f          	j	80000024 <rvtest_error>

0000000080003068 <inst_289>:
    80003068:	00000537          	lui	a0,0x0
    8000306c:	fff50513          	addi	a0,a0,-1
    80003070:	00b51513          	slli	a0,a0,0xb
    80003074:	25750513          	addi	a0,a0,599
    80003078:	00b51513          	slli	a0,a0,0xb
    8000307c:	6c350513          	addi	a0,a0,1731
    80003080:	00a51513          	slli	a0,a0,0xa
    80003084:	0cd50513          	addi	a0,a0,205
    80003088:	aab5059b          	addiw	a1,a0,-1365
    8000308c:	04b33c23          	sd	a1,88(t1)
    80003090:	4afb03b7          	lui	t2,0x4afb0
    80003094:	7783839b          	addiw	t2,t2,1912 # 4afb0778 <absimmsh+0x3f4df9cb>
    80003098:	00b38463          	beq	t2,a1,800030a0 <inst_290>
    8000309c:	f89fc06f          	j	80000024 <rvtest_error>

00000000800030a0 <inst_290>:
    800030a0:	00000537          	lui	a0,0x0
    800030a4:	fff50513          	addi	a0,a0,-1
    800030a8:	00b51513          	slli	a0,a0,0xb
    800030ac:	25750513          	addi	a0,a0,599
    800030b0:	00b51513          	slli	a0,a0,0xb
    800030b4:	6c350513          	addi	a0,a0,1731
    800030b8:	00a51513          	slli	a0,a0,0xa
    800030bc:	0cd50513          	addi	a0,a0,205
    800030c0:	0065059b          	addiw	a1,a0,6
    800030c4:	06b33023          	sd	a1,96(t1)
    800030c8:	4afb13b7          	lui	t2,0x4afb1
    800030cc:	cd33839b          	addiw	t2,t2,-813 # 4afb0cd3 <absimmsh+0x3f4dff26>
    800030d0:	00b38463          	beq	t2,a1,800030d8 <inst_291>
    800030d4:	f51fc06f          	j	80000024 <rvtest_error>

00000000800030d8 <inst_291>:
    800030d8:	00000537          	lui	a0,0x0
    800030dc:	fff50513          	addi	a0,a0,-1
    800030e0:	00b51513          	slli	a0,a0,0xb
    800030e4:	25750513          	addi	a0,a0,599
    800030e8:	00b51513          	slli	a0,a0,0xb
    800030ec:	6c350513          	addi	a0,a0,1731
    800030f0:	00a51513          	slli	a0,a0,0xa
    800030f4:	0cd50513          	addi	a0,a0,205
    800030f8:	3345059b          	addiw	a1,a0,820
    800030fc:	06b33423          	sd	a1,104(t1)
    80003100:	4afb13b7          	lui	t2,0x4afb1
    80003104:	0013839b          	addiw	t2,t2,1 # 4afb1001 <absimmsh+0x3f4e0254>
    80003108:	00b38463          	beq	t2,a1,80003110 <inst_292>
    8000310c:	f19fc06f          	j	80000024 <rvtest_error>

0000000080003110 <inst_292>:
    80003110:	00000537          	lui	a0,0x0
    80003114:	fff50513          	addi	a0,a0,-1
    80003118:	00b51513          	slli	a0,a0,0xb
    8000311c:	25750513          	addi	a0,a0,599
    80003120:	00b51513          	slli	a0,a0,0xb
    80003124:	6c350513          	addi	a0,a0,1731
    80003128:	00a51513          	slli	a0,a0,0xa
    8000312c:	0cd50513          	addi	a0,a0,205
    80003130:	6675059b          	addiw	a1,a0,1639
    80003134:	06b33823          	sd	a1,112(t1)
    80003138:	4afb13b7          	lui	t2,0x4afb1
    8000313c:	3343839b          	addiw	t2,t2,820 # 4afb1334 <absimmsh+0x3f4e0587>
    80003140:	00b38463          	beq	t2,a1,80003148 <inst_293>
    80003144:	ee1fc06f          	j	80000024 <rvtest_error>

0000000080003148 <inst_293>:
    80003148:	00000537          	lui	a0,0x0
    8000314c:	fff50513          	addi	a0,a0,-1
    80003150:	00b51513          	slli	a0,a0,0xb
    80003154:	25750513          	addi	a0,a0,599
    80003158:	00b51513          	slli	a0,a0,0xb
    8000315c:	6c350513          	addi	a0,a0,1731
    80003160:	00a51513          	slli	a0,a0,0xa
    80003164:	0cd50513          	addi	a0,a0,205
    80003168:	fd45059b          	addiw	a1,a0,-44
    8000316c:	06b33c23          	sd	a1,120(t1)
    80003170:	4afb13b7          	lui	t2,0x4afb1
    80003174:	ca13839b          	addiw	t2,t2,-863 # 4afb0ca1 <absimmsh+0x3f4dfef4>
    80003178:	00b38463          	beq	t2,a1,80003180 <inst_294>
    8000317c:	ea9fc06f          	j	80000024 <rvtest_error>

0000000080003180 <inst_294>:
    80003180:	00000537          	lui	a0,0x0
    80003184:	fff50513          	addi	a0,a0,-1
    80003188:	00b51513          	slli	a0,a0,0xb
    8000318c:	25750513          	addi	a0,a0,599
    80003190:	00b51513          	slli	a0,a0,0xb
    80003194:	6c350513          	addi	a0,a0,1731
    80003198:	00a51513          	slli	a0,a0,0xa
    8000319c:	0cd50513          	addi	a0,a0,205
    800031a0:	02e5059b          	addiw	a1,a0,46
    800031a4:	08b33023          	sd	a1,128(t1)
    800031a8:	4afb13b7          	lui	t2,0x4afb1
    800031ac:	cfb3839b          	addiw	t2,t2,-773 # 4afb0cfb <absimmsh+0x3f4dff4e>
    800031b0:	00b38463          	beq	t2,a1,800031b8 <inst_295>
    800031b4:	e71fc06f          	j	80000024 <rvtest_error>

00000000800031b8 <inst_295>:
    800031b8:	00000537          	lui	a0,0x0
    800031bc:	00050513          	mv	a0,a0
    800031c0:	00b51513          	slli	a0,a0,0xb
    800031c4:	5a850513          	addi	a0,a0,1448 # 5a8 <offset+0x2d0>
    800031c8:	00b51513          	slli	a0,a0,0xb
    800031cc:	13c50513          	addi	a0,a0,316
    800031d0:	00a51513          	slli	a0,a0,0xa
    800031d4:	33350513          	addi	a0,a0,819
    800031d8:	0035059b          	addiw	a1,a0,3
    800031dc:	08b33423          	sd	a1,136(t1)
    800031e0:	b504f3b7          	lui	t2,0xb504f
    800031e4:	3363839b          	addiw	t2,t2,822 # ffffffffb504f336 <absimm+0xfffffffefa341866>
    800031e8:	00b38463          	beq	t2,a1,800031f0 <inst_296>
    800031ec:	e39fc06f          	j	80000024 <rvtest_error>

00000000800031f0 <inst_296>:
    800031f0:	00000537          	lui	a0,0x0
    800031f4:	00050513          	mv	a0,a0
    800031f8:	00b51513          	slli	a0,a0,0xb
    800031fc:	5a850513          	addi	a0,a0,1448 # 5a8 <offset+0x2d0>
    80003200:	00b51513          	slli	a0,a0,0xb
    80003204:	13c50513          	addi	a0,a0,316
    80003208:	00a51513          	slli	a0,a0,0xa
    8000320c:	33350513          	addi	a0,a0,819
    80003210:	5555059b          	addiw	a1,a0,1365
    80003214:	08b33823          	sd	a1,144(t1)
    80003218:	b50503b7          	lui	t2,0xb5050
    8000321c:	8883839b          	addiw	t2,t2,-1912 # ffffffffb504f888 <absimm+0xfffffffefa341db8>
    80003220:	00b38463          	beq	t2,a1,80003228 <inst_297>
    80003224:	e01fc06f          	j	80000024 <rvtest_error>

0000000080003228 <inst_297>:
    80003228:	00000537          	lui	a0,0x0
    8000322c:	00050513          	mv	a0,a0
    80003230:	00b51513          	slli	a0,a0,0xb
    80003234:	5a850513          	addi	a0,a0,1448 # 5a8 <offset+0x2d0>
    80003238:	00b51513          	slli	a0,a0,0xb
    8000323c:	13c50513          	addi	a0,a0,316
    80003240:	00a51513          	slli	a0,a0,0xa
    80003244:	33350513          	addi	a0,a0,819
    80003248:	aaa5059b          	addiw	a1,a0,-1366
    8000324c:	08b33c23          	sd	a1,152(t1)
    80003250:	b504f3b7          	lui	t2,0xb504f
    80003254:	ddd3839b          	addiw	t2,t2,-547 # ffffffffb504eddd <absimm+0xfffffffefa34130d>
    80003258:	00b38463          	beq	t2,a1,80003260 <inst_298>
    8000325c:	dc9fc06f          	j	80000024 <rvtest_error>

0000000080003260 <inst_298>:
    80003260:	00000537          	lui	a0,0x0
    80003264:	00050513          	mv	a0,a0
    80003268:	00b51513          	slli	a0,a0,0xb
    8000326c:	5a850513          	addi	a0,a0,1448 # 5a8 <offset+0x2d0>
    80003270:	00b51513          	slli	a0,a0,0xb
    80003274:	13c50513          	addi	a0,a0,316
    80003278:	00a51513          	slli	a0,a0,0xa
    8000327c:	33350513          	addi	a0,a0,819
    80003280:	0055059b          	addiw	a1,a0,5
    80003284:	0ab33023          	sd	a1,160(t1)
    80003288:	b504f3b7          	lui	t2,0xb504f
    8000328c:	3383839b          	addiw	t2,t2,824 # ffffffffb504f338 <absimm+0xfffffffefa341868>
    80003290:	00b38463          	beq	t2,a1,80003298 <inst_299>
    80003294:	d91fc06f          	j	80000024 <rvtest_error>

0000000080003298 <inst_299>:
    80003298:	00000537          	lui	a0,0x0
    8000329c:	00050513          	mv	a0,a0
    800032a0:	00b51513          	slli	a0,a0,0xb
    800032a4:	5a850513          	addi	a0,a0,1448 # 5a8 <offset+0x2d0>
    800032a8:	00b51513          	slli	a0,a0,0xb
    800032ac:	13c50513          	addi	a0,a0,316
    800032b0:	00a51513          	slli	a0,a0,0xa
    800032b4:	33350513          	addi	a0,a0,819
    800032b8:	3335059b          	addiw	a1,a0,819
    800032bc:	0ab33423          	sd	a1,168(t1)
    800032c0:	b504f3b7          	lui	t2,0xb504f
    800032c4:	6663839b          	addiw	t2,t2,1638 # ffffffffb504f666 <absimm+0xfffffffefa341b96>
    800032c8:	00b38463          	beq	t2,a1,800032d0 <inst_300>
    800032cc:	d59fc06f          	j	80000024 <rvtest_error>

00000000800032d0 <inst_300>:
    800032d0:	00000537          	lui	a0,0x0
    800032d4:	00050513          	mv	a0,a0
    800032d8:	00b51513          	slli	a0,a0,0xb
    800032dc:	5a850513          	addi	a0,a0,1448 # 5a8 <offset+0x2d0>
    800032e0:	00b51513          	slli	a0,a0,0xb
    800032e4:	13c50513          	addi	a0,a0,316
    800032e8:	00a51513          	slli	a0,a0,0xa
    800032ec:	33350513          	addi	a0,a0,819
    800032f0:	6665059b          	addiw	a1,a0,1638
    800032f4:	0ab33823          	sd	a1,176(t1)
    800032f8:	b50503b7          	lui	t2,0xb5050
    800032fc:	9993839b          	addiw	t2,t2,-1639 # ffffffffb504f999 <absimm+0xfffffffefa341ec9>
    80003300:	00b38463          	beq	t2,a1,80003308 <inst_301>
    80003304:	d21fc06f          	j	80000024 <rvtest_error>

0000000080003308 <inst_301>:
    80003308:	00000537          	lui	a0,0x0
    8000330c:	00050513          	mv	a0,a0
    80003310:	00b51513          	slli	a0,a0,0xb
    80003314:	5a850513          	addi	a0,a0,1448 # 5a8 <offset+0x2d0>
    80003318:	00b51513          	slli	a0,a0,0xb
    8000331c:	13c50513          	addi	a0,a0,316
    80003320:	00a51513          	slli	a0,a0,0xa
    80003324:	33350513          	addi	a0,a0,819
    80003328:	fd35059b          	addiw	a1,a0,-45
    8000332c:	0ab33c23          	sd	a1,184(t1)
    80003330:	b504f3b7          	lui	t2,0xb504f
    80003334:	3063839b          	addiw	t2,t2,774 # ffffffffb504f306 <absimm+0xfffffffefa341836>
    80003338:	00b38463          	beq	t2,a1,80003340 <inst_302>
    8000333c:	ce9fc06f          	j	80000024 <rvtest_error>

0000000080003340 <inst_302>:
    80003340:	00000537          	lui	a0,0x0
    80003344:	00050513          	mv	a0,a0
    80003348:	00b51513          	slli	a0,a0,0xb
    8000334c:	5a850513          	addi	a0,a0,1448 # 5a8 <offset+0x2d0>
    80003350:	00b51513          	slli	a0,a0,0xb
    80003354:	13c50513          	addi	a0,a0,316
    80003358:	00a51513          	slli	a0,a0,0xa
    8000335c:	33350513          	addi	a0,a0,819
    80003360:	02d5059b          	addiw	a1,a0,45
    80003364:	0cb33023          	sd	a1,192(t1)
    80003368:	b504f3b7          	lui	t2,0xb504f
    8000336c:	3603839b          	addiw	t2,t2,864 # ffffffffb504f360 <absimm+0xfffffffefa341890>
    80003370:	00b38463          	beq	t2,a1,80003378 <inst_303>
    80003374:	cb1fc06f          	j	80000024 <rvtest_error>

0000000080003378 <inst_303>:
    80003378:	00000537          	lui	a0,0x0
    8000337c:	00050513          	mv	a0,a0
    80003380:	00b51513          	slli	a0,a0,0xb
    80003384:	5a850513          	addi	a0,a0,1448 # 5a8 <offset+0x2d0>
    80003388:	00b51513          	slli	a0,a0,0xb
    8000338c:	13c50513          	addi	a0,a0,316
    80003390:	00a51513          	slli	a0,a0,0xa
    80003394:	33350513          	addi	a0,a0,819
    80003398:	0025059b          	addiw	a1,a0,2
    8000339c:	0cb33423          	sd	a1,200(t1)
    800033a0:	b504f3b7          	lui	t2,0xb504f
    800033a4:	3353839b          	addiw	t2,t2,821 # ffffffffb504f335 <absimm+0xfffffffefa341865>
    800033a8:	00b38463          	beq	t2,a1,800033b0 <inst_304>
    800033ac:	c79fc06f          	j	80000024 <rvtest_error>

00000000800033b0 <inst_304>:
    800033b0:	00000537          	lui	a0,0x0
    800033b4:	00050513          	mv	a0,a0
    800033b8:	00b51513          	slli	a0,a0,0xb
    800033bc:	5a850513          	addi	a0,a0,1448 # 5a8 <offset+0x2d0>
    800033c0:	00b51513          	slli	a0,a0,0xb
    800033c4:	13c50513          	addi	a0,a0,316
    800033c8:	00a51513          	slli	a0,a0,0xa
    800033cc:	33350513          	addi	a0,a0,819
    800033d0:	5545059b          	addiw	a1,a0,1364
    800033d4:	0cb33823          	sd	a1,208(t1)
    800033d8:	b50503b7          	lui	t2,0xb5050
    800033dc:	8873839b          	addiw	t2,t2,-1913 # ffffffffb504f887 <absimm+0xfffffffefa341db7>
    800033e0:	00b38463          	beq	t2,a1,800033e8 <inst_305>
    800033e4:	c41fc06f          	j	80000024 <rvtest_error>

00000000800033e8 <inst_305>:
    800033e8:	00000537          	lui	a0,0x0
    800033ec:	00050513          	mv	a0,a0
    800033f0:	00b51513          	slli	a0,a0,0xb
    800033f4:	5a850513          	addi	a0,a0,1448 # 5a8 <offset+0x2d0>
    800033f8:	00b51513          	slli	a0,a0,0xb
    800033fc:	13c50513          	addi	a0,a0,316
    80003400:	00a51513          	slli	a0,a0,0xa
    80003404:	33350513          	addi	a0,a0,819
    80003408:	0005059b          	sext.w	a1,a0
    8000340c:	0cb33c23          	sd	a1,216(t1)
    80003410:	b504f3b7          	lui	t2,0xb504f
    80003414:	3333839b          	addiw	t2,t2,819 # ffffffffb504f333 <absimm+0xfffffffefa341863>
    80003418:	00b38463          	beq	t2,a1,80003420 <inst_306>
    8000341c:	c09fc06f          	j	80000024 <rvtest_error>

0000000080003420 <inst_306>:
    80003420:	00000537          	lui	a0,0x0
    80003424:	00050513          	mv	a0,a0
    80003428:	00b51513          	slli	a0,a0,0xb
    8000342c:	5a850513          	addi	a0,a0,1448 # 5a8 <offset+0x2d0>
    80003430:	00b51513          	slli	a0,a0,0xb
    80003434:	13c50513          	addi	a0,a0,316
    80003438:	00a51513          	slli	a0,a0,0xa
    8000343c:	33350513          	addi	a0,a0,819
    80003440:	0045059b          	addiw	a1,a0,4
    80003444:	0eb33023          	sd	a1,224(t1)
    80003448:	b504f3b7          	lui	t2,0xb504f
    8000344c:	3373839b          	addiw	t2,t2,823 # ffffffffb504f337 <absimm+0xfffffffefa341867>
    80003450:	00b38463          	beq	t2,a1,80003458 <inst_307>
    80003454:	bd1fc06f          	j	80000024 <rvtest_error>

0000000080003458 <inst_307>:
    80003458:	00000537          	lui	a0,0x0
    8000345c:	00050513          	mv	a0,a0
    80003460:	00b51513          	slli	a0,a0,0xb
    80003464:	5a850513          	addi	a0,a0,1448 # 5a8 <offset+0x2d0>
    80003468:	00b51513          	slli	a0,a0,0xb
    8000346c:	13c50513          	addi	a0,a0,316
    80003470:	00a51513          	slli	a0,a0,0xa
    80003474:	33350513          	addi	a0,a0,819
    80003478:	3325059b          	addiw	a1,a0,818
    8000347c:	0eb33423          	sd	a1,232(t1)
    80003480:	b504f3b7          	lui	t2,0xb504f
    80003484:	6653839b          	addiw	t2,t2,1637 # ffffffffb504f665 <absimm+0xfffffffefa341b95>
    80003488:	00b38463          	beq	t2,a1,80003490 <inst_308>
    8000348c:	b99fc06f          	j	80000024 <rvtest_error>

0000000080003490 <inst_308>:
    80003490:	00000537          	lui	a0,0x0
    80003494:	00050513          	mv	a0,a0
    80003498:	00b51513          	slli	a0,a0,0xb
    8000349c:	5a850513          	addi	a0,a0,1448 # 5a8 <offset+0x2d0>
    800034a0:	00b51513          	slli	a0,a0,0xb
    800034a4:	13c50513          	addi	a0,a0,316
    800034a8:	00a51513          	slli	a0,a0,0xa
    800034ac:	33350513          	addi	a0,a0,819
    800034b0:	6655059b          	addiw	a1,a0,1637
    800034b4:	0eb33823          	sd	a1,240(t1)
    800034b8:	b50503b7          	lui	t2,0xb5050
    800034bc:	9983839b          	addiw	t2,t2,-1640 # ffffffffb504f998 <absimm+0xfffffffefa341ec8>
    800034c0:	00b38463          	beq	t2,a1,800034c8 <inst_309>
    800034c4:	b61fc06f          	j	80000024 <rvtest_error>

00000000800034c8 <inst_309>:
    800034c8:	00000537          	lui	a0,0x0
    800034cc:	00050513          	mv	a0,a0
    800034d0:	00b51513          	slli	a0,a0,0xb
    800034d4:	5a850513          	addi	a0,a0,1448 # 5a8 <offset+0x2d0>
    800034d8:	00b51513          	slli	a0,a0,0xb
    800034dc:	13c50513          	addi	a0,a0,316
    800034e0:	00a51513          	slli	a0,a0,0xa
    800034e4:	33350513          	addi	a0,a0,819
    800034e8:	02c5059b          	addiw	a1,a0,44
    800034ec:	0eb33c23          	sd	a1,248(t1)
    800034f0:	b504f3b7          	lui	t2,0xb504f
    800034f4:	35f3839b          	addiw	t2,t2,863 # ffffffffb504f35f <absimm+0xfffffffefa34188f>
    800034f8:	00b38463          	beq	t2,a1,80003500 <inst_310>
    800034fc:	b29fc06f          	j	80000024 <rvtest_error>

0000000080003500 <inst_310>:
    80003500:	00000537          	lui	a0,0x0
    80003504:	00050513          	mv	a0,a0
    80003508:	00b51513          	slli	a0,a0,0xb
    8000350c:	5a850513          	addi	a0,a0,1448 # 5a8 <offset+0x2d0>
    80003510:	00b51513          	slli	a0,a0,0xb
    80003514:	13c50513          	addi	a0,a0,316
    80003518:	00a51513          	slli	a0,a0,0xa
    8000351c:	33350513          	addi	a0,a0,819
    80003520:	5565059b          	addiw	a1,a0,1366
    80003524:	10b33023          	sd	a1,256(t1)
    80003528:	b50503b7          	lui	t2,0xb5050
    8000352c:	8893839b          	addiw	t2,t2,-1911 # ffffffffb504f889 <absimm+0xfffffffefa341db9>
    80003530:	00b38463          	beq	t2,a1,80003538 <inst_311>
    80003534:	af1fc06f          	j	80000024 <rvtest_error>

0000000080003538 <inst_311>:
    80003538:	00000537          	lui	a0,0x0
    8000353c:	00050513          	mv	a0,a0
    80003540:	00b51513          	slli	a0,a0,0xb
    80003544:	5a850513          	addi	a0,a0,1448 # 5a8 <offset+0x2d0>
    80003548:	00b51513          	slli	a0,a0,0xb
    8000354c:	13c50513          	addi	a0,a0,316
    80003550:	00a51513          	slli	a0,a0,0xa
    80003554:	33350513          	addi	a0,a0,819
    80003558:	aab5059b          	addiw	a1,a0,-1365
    8000355c:	10b33423          	sd	a1,264(t1)
    80003560:	b504f3b7          	lui	t2,0xb504f
    80003564:	dde3839b          	addiw	t2,t2,-546 # ffffffffb504edde <absimm+0xfffffffefa34130e>
    80003568:	00b38463          	beq	t2,a1,80003570 <inst_312>
    8000356c:	ab9fc06f          	j	80000024 <rvtest_error>

0000000080003570 <inst_312>:
    80003570:	00000537          	lui	a0,0x0
    80003574:	00050513          	mv	a0,a0
    80003578:	00b51513          	slli	a0,a0,0xb
    8000357c:	5a850513          	addi	a0,a0,1448 # 5a8 <offset+0x2d0>
    80003580:	00b51513          	slli	a0,a0,0xb
    80003584:	13c50513          	addi	a0,a0,316
    80003588:	00a51513          	slli	a0,a0,0xa
    8000358c:	33350513          	addi	a0,a0,819
    80003590:	0065059b          	addiw	a1,a0,6
    80003594:	10b33823          	sd	a1,272(t1)
    80003598:	b504f3b7          	lui	t2,0xb504f
    8000359c:	3393839b          	addiw	t2,t2,825 # ffffffffb504f339 <absimm+0xfffffffefa341869>
    800035a0:	00b38463          	beq	t2,a1,800035a8 <inst_313>
    800035a4:	a81fc06f          	j	80000024 <rvtest_error>

00000000800035a8 <inst_313>:
    800035a8:	00000537          	lui	a0,0x0
    800035ac:	00050513          	mv	a0,a0
    800035b0:	00b51513          	slli	a0,a0,0xb
    800035b4:	5a850513          	addi	a0,a0,1448 # 5a8 <offset+0x2d0>
    800035b8:	00b51513          	slli	a0,a0,0xb
    800035bc:	13c50513          	addi	a0,a0,316
    800035c0:	00a51513          	slli	a0,a0,0xa
    800035c4:	33350513          	addi	a0,a0,819
    800035c8:	3345059b          	addiw	a1,a0,820
    800035cc:	10b33c23          	sd	a1,280(t1)
    800035d0:	b504f3b7          	lui	t2,0xb504f
    800035d4:	6673839b          	addiw	t2,t2,1639 # ffffffffb504f667 <absimm+0xfffffffefa341b97>
    800035d8:	00b38463          	beq	t2,a1,800035e0 <inst_314>
    800035dc:	a49fc06f          	j	80000024 <rvtest_error>

00000000800035e0 <inst_314>:
    800035e0:	00000537          	lui	a0,0x0
    800035e4:	00050513          	mv	a0,a0
    800035e8:	00b51513          	slli	a0,a0,0xb
    800035ec:	5a850513          	addi	a0,a0,1448 # 5a8 <offset+0x2d0>
    800035f0:	00b51513          	slli	a0,a0,0xb
    800035f4:	13c50513          	addi	a0,a0,316
    800035f8:	00a51513          	slli	a0,a0,0xa
    800035fc:	33350513          	addi	a0,a0,819
    80003600:	6675059b          	addiw	a1,a0,1639
    80003604:	12b33023          	sd	a1,288(t1)
    80003608:	b50503b7          	lui	t2,0xb5050
    8000360c:	99a3839b          	addiw	t2,t2,-1638 # ffffffffb504f99a <absimm+0xfffffffefa341eca>
    80003610:	00b38463          	beq	t2,a1,80003618 <inst_315>
    80003614:	a11fc06f          	j	80000024 <rvtest_error>

0000000080003618 <inst_315>:
    80003618:	00000537          	lui	a0,0x0
    8000361c:	00050513          	mv	a0,a0
    80003620:	00b51513          	slli	a0,a0,0xb
    80003624:	5a850513          	addi	a0,a0,1448 # 5a8 <offset+0x2d0>
    80003628:	00b51513          	slli	a0,a0,0xb
    8000362c:	13c50513          	addi	a0,a0,316
    80003630:	00a51513          	slli	a0,a0,0xa
    80003634:	33350513          	addi	a0,a0,819
    80003638:	fd45059b          	addiw	a1,a0,-44
    8000363c:	12b33423          	sd	a1,296(t1)
    80003640:	b504f3b7          	lui	t2,0xb504f
    80003644:	3073839b          	addiw	t2,t2,775 # ffffffffb504f307 <absimm+0xfffffffefa341837>
    80003648:	00b38463          	beq	t2,a1,80003650 <inst_316>
    8000364c:	9d9fc06f          	j	80000024 <rvtest_error>

0000000080003650 <inst_316>:
    80003650:	00000537          	lui	a0,0x0
    80003654:	00050513          	mv	a0,a0
    80003658:	00b51513          	slli	a0,a0,0xb
    8000365c:	5a850513          	addi	a0,a0,1448 # 5a8 <offset+0x2d0>
    80003660:	00b51513          	slli	a0,a0,0xb
    80003664:	13c50513          	addi	a0,a0,316
    80003668:	00a51513          	slli	a0,a0,0xa
    8000366c:	33350513          	addi	a0,a0,819
    80003670:	02e5059b          	addiw	a1,a0,46
    80003674:	12b33823          	sd	a1,304(t1)
    80003678:	b504f3b7          	lui	t2,0xb504f
    8000367c:	3613839b          	addiw	t2,t2,865 # ffffffffb504f361 <absimm+0xfffffffefa341891>
    80003680:	00b38463          	beq	t2,a1,80003688 <inst_317>
    80003684:	9a1fc06f          	j	80000024 <rvtest_error>

0000000080003688 <inst_317>:
    80003688:	00200513          	li	a0,2
    8000368c:	0035059b          	addiw	a1,a0,3
    80003690:	12b33c23          	sd	a1,312(t1)
    80003694:	00500393          	li	t2,5
    80003698:	00b38463          	beq	t2,a1,800036a0 <inst_318>
    8000369c:	989fc06f          	j	80000024 <rvtest_error>

00000000800036a0 <inst_318>:
    800036a0:	00200513          	li	a0,2
    800036a4:	5555059b          	addiw	a1,a0,1365
    800036a8:	14b33023          	sd	a1,320(t1)
    800036ac:	55700393          	li	t2,1367
    800036b0:	00b38463          	beq	t2,a1,800036b8 <inst_319>
    800036b4:	971fc06f          	j	80000024 <rvtest_error>

00000000800036b8 <inst_319>:
    800036b8:	00200513          	li	a0,2
    800036bc:	aaa5059b          	addiw	a1,a0,-1366
    800036c0:	14b33423          	sd	a1,328(t1)
    800036c4:	aac00393          	li	t2,-1364
    800036c8:	00b38463          	beq	t2,a1,800036d0 <inst_320>
    800036cc:	959fc06f          	j	80000024 <rvtest_error>

00000000800036d0 <inst_320>:
    800036d0:	00200513          	li	a0,2
    800036d4:	0055059b          	addiw	a1,a0,5
    800036d8:	14b33823          	sd	a1,336(t1)
    800036dc:	00700393          	li	t2,7
    800036e0:	00b38463          	beq	t2,a1,800036e8 <inst_321>
    800036e4:	941fc06f          	j	80000024 <rvtest_error>

00000000800036e8 <inst_321>:
    800036e8:	00200513          	li	a0,2
    800036ec:	6665059b          	addiw	a1,a0,1638
    800036f0:	14b33c23          	sd	a1,344(t1)
    800036f4:	66800393          	li	t2,1640
    800036f8:	00b38463          	beq	t2,a1,80003700 <inst_322>
    800036fc:	929fc06f          	j	80000024 <rvtest_error>

0000000080003700 <inst_322>:
    80003700:	00200513          	li	a0,2
    80003704:	fd35059b          	addiw	a1,a0,-45
    80003708:	16b33023          	sd	a1,352(t1)
    8000370c:	fd500393          	li	t2,-43
    80003710:	00b38463          	beq	t2,a1,80003718 <inst_323>
    80003714:	911fc06f          	j	80000024 <rvtest_error>

0000000080003718 <inst_323>:
    80003718:	00200513          	li	a0,2
    8000371c:	02d5059b          	addiw	a1,a0,45
    80003720:	16b33423          	sd	a1,360(t1)
    80003724:	02f00393          	li	t2,47
    80003728:	00b38463          	beq	t2,a1,80003730 <inst_324>
    8000372c:	8f9fc06f          	j	80000024 <rvtest_error>

0000000080003730 <inst_324>:
    80003730:	00200513          	li	a0,2
    80003734:	0025059b          	addiw	a1,a0,2
    80003738:	16b33823          	sd	a1,368(t1)
    8000373c:	00400393          	li	t2,4
    80003740:	00b38463          	beq	t2,a1,80003748 <inst_325>
    80003744:	8e1fc06f          	j	80000024 <rvtest_error>

0000000080003748 <inst_325>:
    80003748:	00200513          	li	a0,2
    8000374c:	5545059b          	addiw	a1,a0,1364
    80003750:	16b33c23          	sd	a1,376(t1)
    80003754:	55600393          	li	t2,1366
    80003758:	00b38463          	beq	t2,a1,80003760 <inst_326>
    8000375c:	8c9fc06f          	j	80000024 <rvtest_error>

0000000080003760 <inst_326>:
    80003760:	00200513          	li	a0,2
    80003764:	0005059b          	sext.w	a1,a0
    80003768:	18b33023          	sd	a1,384(t1)
    8000376c:	00200393          	li	t2,2
    80003770:	00b38463          	beq	t2,a1,80003778 <inst_327>
    80003774:	8b1fc06f          	j	80000024 <rvtest_error>

0000000080003778 <inst_327>:
    80003778:	00200513          	li	a0,2
    8000377c:	0045059b          	addiw	a1,a0,4
    80003780:	18b33423          	sd	a1,392(t1)
    80003784:	00600393          	li	t2,6
    80003788:	00b38463          	beq	t2,a1,80003790 <inst_328>
    8000378c:	899fc06f          	j	80000024 <rvtest_error>

0000000080003790 <inst_328>:
    80003790:	00200513          	li	a0,2
    80003794:	3325059b          	addiw	a1,a0,818
    80003798:	18b33823          	sd	a1,400(t1)
    8000379c:	33400393          	li	t2,820
    800037a0:	00b38463          	beq	t2,a1,800037a8 <inst_329>
    800037a4:	881fc06f          	j	80000024 <rvtest_error>

00000000800037a8 <inst_329>:
    800037a8:	00200513          	li	a0,2
    800037ac:	6655059b          	addiw	a1,a0,1637
    800037b0:	18b33c23          	sd	a1,408(t1)
    800037b4:	66700393          	li	t2,1639
    800037b8:	00b38463          	beq	t2,a1,800037c0 <inst_330>
    800037bc:	869fc06f          	j	80000024 <rvtest_error>

00000000800037c0 <inst_330>:
    800037c0:	00200513          	li	a0,2
    800037c4:	02c5059b          	addiw	a1,a0,44
    800037c8:	1ab33023          	sd	a1,416(t1)
    800037cc:	02e00393          	li	t2,46
    800037d0:	00b38463          	beq	t2,a1,800037d8 <inst_331>
    800037d4:	851fc06f          	j	80000024 <rvtest_error>

00000000800037d8 <inst_331>:
    800037d8:	00200513          	li	a0,2
    800037dc:	5565059b          	addiw	a1,a0,1366
    800037e0:	1ab33423          	sd	a1,424(t1)
    800037e4:	55800393          	li	t2,1368
    800037e8:	00b38463          	beq	t2,a1,800037f0 <inst_332>
    800037ec:	839fc06f          	j	80000024 <rvtest_error>

00000000800037f0 <inst_332>:
    800037f0:	00200513          	li	a0,2
    800037f4:	aab5059b          	addiw	a1,a0,-1365
    800037f8:	1ab33823          	sd	a1,432(t1)
    800037fc:	aad00393          	li	t2,-1363
    80003800:	00b38463          	beq	t2,a1,80003808 <inst_333>
    80003804:	821fc06f          	j	80000024 <rvtest_error>

0000000080003808 <inst_333>:
    80003808:	00200513          	li	a0,2
    8000380c:	0065059b          	addiw	a1,a0,6
    80003810:	1ab33c23          	sd	a1,440(t1)
    80003814:	00800393          	li	t2,8
    80003818:	00b38463          	beq	t2,a1,80003820 <inst_334>
    8000381c:	809fc06f          	j	80000024 <rvtest_error>

0000000080003820 <inst_334>:
    80003820:	00200513          	li	a0,2
    80003824:	3345059b          	addiw	a1,a0,820
    80003828:	1cb33023          	sd	a1,448(t1)
    8000382c:	33600393          	li	t2,822
    80003830:	00b38463          	beq	t2,a1,80003838 <inst_335>
    80003834:	ff0fc06f          	j	80000024 <rvtest_error>

0000000080003838 <inst_335>:
    80003838:	00200513          	li	a0,2
    8000383c:	6675059b          	addiw	a1,a0,1639
    80003840:	1cb33423          	sd	a1,456(t1)
    80003844:	66900393          	li	t2,1641
    80003848:	00b38463          	beq	t2,a1,80003850 <inst_336>
    8000384c:	fd8fc06f          	j	80000024 <rvtest_error>

0000000080003850 <inst_336>:
    80003850:	00200513          	li	a0,2
    80003854:	fd45059b          	addiw	a1,a0,-44
    80003858:	1cb33823          	sd	a1,464(t1)
    8000385c:	fd600393          	li	t2,-42
    80003860:	00b38463          	beq	t2,a1,80003868 <inst_337>
    80003864:	fc0fc06f          	j	80000024 <rvtest_error>

0000000080003868 <inst_337>:
    80003868:	00200513          	li	a0,2
    8000386c:	02e5059b          	addiw	a1,a0,46
    80003870:	1cb33c23          	sd	a1,472(t1)
    80003874:	03000393          	li	t2,48
    80003878:	00b38463          	beq	t2,a1,80003880 <inst_338>
    8000387c:	fa8fc06f          	j	80000024 <rvtest_error>

0000000080003880 <inst_338>:
    80003880:	55555537          	lui	a0,0x55555
    80003884:	55550513          	addi	a0,a0,1365 # 55555555 <absimmsh+0x49a847a8>
    80003888:	00b51513          	slli	a0,a0,0xb
    8000388c:	2aa50513          	addi	a0,a0,682
    80003890:	00b51513          	slli	a0,a0,0xb
    80003894:	55550513          	addi	a0,a0,1365
    80003898:	00a51513          	slli	a0,a0,0xa
    8000389c:	15450513          	addi	a0,a0,340
    800038a0:	0035059b          	addiw	a1,a0,3
    800038a4:	1eb33023          	sd	a1,480(t1)
    800038a8:	555553b7          	lui	t2,0x55555
    800038ac:	5573839b          	addiw	t2,t2,1367 # 55555557 <absimmsh+0x49a847aa>
    800038b0:	00b38463          	beq	t2,a1,800038b8 <inst_339>
    800038b4:	f70fc06f          	j	80000024 <rvtest_error>

00000000800038b8 <inst_339>:
    800038b8:	55555537          	lui	a0,0x55555
    800038bc:	55550513          	addi	a0,a0,1365 # 55555555 <absimmsh+0x49a847a8>
    800038c0:	00b51513          	slli	a0,a0,0xb
    800038c4:	2aa50513          	addi	a0,a0,682
    800038c8:	00b51513          	slli	a0,a0,0xb
    800038cc:	55550513          	addi	a0,a0,1365
    800038d0:	00a51513          	slli	a0,a0,0xa
    800038d4:	15450513          	addi	a0,a0,340
    800038d8:	5555059b          	addiw	a1,a0,1365
    800038dc:	1eb33423          	sd	a1,488(t1)
    800038e0:	555563b7          	lui	t2,0x55556
    800038e4:	aa93839b          	addiw	t2,t2,-1367 # 55555aa9 <absimmsh+0x49a84cfc>
    800038e8:	00b38463          	beq	t2,a1,800038f0 <inst_340>
    800038ec:	f38fc06f          	j	80000024 <rvtest_error>

00000000800038f0 <inst_340>:
    800038f0:	55555537          	lui	a0,0x55555
    800038f4:	55550513          	addi	a0,a0,1365 # 55555555 <absimmsh+0x49a847a8>
    800038f8:	00b51513          	slli	a0,a0,0xb
    800038fc:	2aa50513          	addi	a0,a0,682
    80003900:	00b51513          	slli	a0,a0,0xb
    80003904:	55550513          	addi	a0,a0,1365
    80003908:	00a51513          	slli	a0,a0,0xa
    8000390c:	15450513          	addi	a0,a0,340
    80003910:	aaa5059b          	addiw	a1,a0,-1366
    80003914:	1eb33823          	sd	a1,496(t1)
    80003918:	555553b7          	lui	t2,0x55555
    8000391c:	ffe3839b          	addiw	t2,t2,-2 # 55554ffe <absimmsh+0x49a84251>
    80003920:	00b38463          	beq	t2,a1,80003928 <inst_341>
    80003924:	f00fc06f          	j	80000024 <rvtest_error>

0000000080003928 <inst_341>:
    80003928:	55555537          	lui	a0,0x55555
    8000392c:	55550513          	addi	a0,a0,1365 # 55555555 <absimmsh+0x49a847a8>
    80003930:	00b51513          	slli	a0,a0,0xb
    80003934:	2aa50513          	addi	a0,a0,682
    80003938:	00b51513          	slli	a0,a0,0xb
    8000393c:	55550513          	addi	a0,a0,1365
    80003940:	00a51513          	slli	a0,a0,0xa
    80003944:	15450513          	addi	a0,a0,340
    80003948:	0055059b          	addiw	a1,a0,5
    8000394c:	1eb33c23          	sd	a1,504(t1)
    80003950:	555553b7          	lui	t2,0x55555
    80003954:	5593839b          	addiw	t2,t2,1369 # 55555559 <absimmsh+0x49a847ac>
    80003958:	00b38463          	beq	t2,a1,80003960 <inst_342>
    8000395c:	ec8fc06f          	j	80000024 <rvtest_error>

0000000080003960 <inst_342>:
    80003960:	55555537          	lui	a0,0x55555
    80003964:	55550513          	addi	a0,a0,1365 # 55555555 <absimmsh+0x49a847a8>
    80003968:	00b51513          	slli	a0,a0,0xb
    8000396c:	2aa50513          	addi	a0,a0,682
    80003970:	00b51513          	slli	a0,a0,0xb
    80003974:	55550513          	addi	a0,a0,1365
    80003978:	00a51513          	slli	a0,a0,0xa
    8000397c:	15450513          	addi	a0,a0,340
    80003980:	3335059b          	addiw	a1,a0,819
    80003984:	20b33023          	sd	a1,512(t1)
    80003988:	555563b7          	lui	t2,0x55556
    8000398c:	8873839b          	addiw	t2,t2,-1913 # 55555887 <absimmsh+0x49a84ada>
    80003990:	00b38463          	beq	t2,a1,80003998 <inst_343>
    80003994:	e90fc06f          	j	80000024 <rvtest_error>

0000000080003998 <inst_343>:
    80003998:	55555537          	lui	a0,0x55555
    8000399c:	55550513          	addi	a0,a0,1365 # 55555555 <absimmsh+0x49a847a8>
    800039a0:	00b51513          	slli	a0,a0,0xb
    800039a4:	2aa50513          	addi	a0,a0,682
    800039a8:	00b51513          	slli	a0,a0,0xb
    800039ac:	55550513          	addi	a0,a0,1365
    800039b0:	00a51513          	slli	a0,a0,0xa
    800039b4:	15450513          	addi	a0,a0,340
    800039b8:	6665059b          	addiw	a1,a0,1638
    800039bc:	20b33423          	sd	a1,520(t1)
    800039c0:	555563b7          	lui	t2,0x55556
    800039c4:	bba3839b          	addiw	t2,t2,-1094 # 55555bba <absimmsh+0x49a84e0d>
    800039c8:	00b38463          	beq	t2,a1,800039d0 <inst_344>
    800039cc:	e58fc06f          	j	80000024 <rvtest_error>

00000000800039d0 <inst_344>:
    800039d0:	55555537          	lui	a0,0x55555
    800039d4:	55550513          	addi	a0,a0,1365 # 55555555 <absimmsh+0x49a847a8>
    800039d8:	00b51513          	slli	a0,a0,0xb
    800039dc:	2aa50513          	addi	a0,a0,682
    800039e0:	00b51513          	slli	a0,a0,0xb
    800039e4:	55550513          	addi	a0,a0,1365
    800039e8:	00a51513          	slli	a0,a0,0xa
    800039ec:	15450513          	addi	a0,a0,340
    800039f0:	fd35059b          	addiw	a1,a0,-45
    800039f4:	20b33823          	sd	a1,528(t1)
    800039f8:	555553b7          	lui	t2,0x55555
    800039fc:	5273839b          	addiw	t2,t2,1319 # 55555527 <absimmsh+0x49a8477a>
    80003a00:	00b38463          	beq	t2,a1,80003a08 <inst_345>
    80003a04:	e20fc06f          	j	80000024 <rvtest_error>

0000000080003a08 <inst_345>:
    80003a08:	55555537          	lui	a0,0x55555
    80003a0c:	55550513          	addi	a0,a0,1365 # 55555555 <absimmsh+0x49a847a8>
    80003a10:	00b51513          	slli	a0,a0,0xb
    80003a14:	2aa50513          	addi	a0,a0,682
    80003a18:	00b51513          	slli	a0,a0,0xb
    80003a1c:	55550513          	addi	a0,a0,1365
    80003a20:	00a51513          	slli	a0,a0,0xa
    80003a24:	15450513          	addi	a0,a0,340
    80003a28:	02d5059b          	addiw	a1,a0,45
    80003a2c:	20b33c23          	sd	a1,536(t1)
    80003a30:	555553b7          	lui	t2,0x55555
    80003a34:	5813839b          	addiw	t2,t2,1409 # 55555581 <absimmsh+0x49a847d4>
    80003a38:	00b38463          	beq	t2,a1,80003a40 <inst_346>
    80003a3c:	de8fc06f          	j	80000024 <rvtest_error>

0000000080003a40 <inst_346>:
    80003a40:	55555537          	lui	a0,0x55555
    80003a44:	55550513          	addi	a0,a0,1365 # 55555555 <absimmsh+0x49a847a8>
    80003a48:	00b51513          	slli	a0,a0,0xb
    80003a4c:	2aa50513          	addi	a0,a0,682
    80003a50:	00b51513          	slli	a0,a0,0xb
    80003a54:	55550513          	addi	a0,a0,1365
    80003a58:	00a51513          	slli	a0,a0,0xa
    80003a5c:	15450513          	addi	a0,a0,340
    80003a60:	0025059b          	addiw	a1,a0,2
    80003a64:	22b33023          	sd	a1,544(t1)
    80003a68:	555553b7          	lui	t2,0x55555
    80003a6c:	5563839b          	addiw	t2,t2,1366 # 55555556 <absimmsh+0x49a847a9>
    80003a70:	00b38463          	beq	t2,a1,80003a78 <inst_347>
    80003a74:	db0fc06f          	j	80000024 <rvtest_error>

0000000080003a78 <inst_347>:
    80003a78:	55555537          	lui	a0,0x55555
    80003a7c:	55550513          	addi	a0,a0,1365 # 55555555 <absimmsh+0x49a847a8>
    80003a80:	00b51513          	slli	a0,a0,0xb
    80003a84:	2aa50513          	addi	a0,a0,682
    80003a88:	00b51513          	slli	a0,a0,0xb
    80003a8c:	55550513          	addi	a0,a0,1365
    80003a90:	00a51513          	slli	a0,a0,0xa
    80003a94:	15450513          	addi	a0,a0,340
    80003a98:	5545059b          	addiw	a1,a0,1364
    80003a9c:	22b33423          	sd	a1,552(t1)
    80003aa0:	555563b7          	lui	t2,0x55556
    80003aa4:	aa83839b          	addiw	t2,t2,-1368 # 55555aa8 <absimmsh+0x49a84cfb>
    80003aa8:	00b38463          	beq	t2,a1,80003ab0 <inst_348>
    80003aac:	d78fc06f          	j	80000024 <rvtest_error>

0000000080003ab0 <inst_348>:
    80003ab0:	55555537          	lui	a0,0x55555
    80003ab4:	55550513          	addi	a0,a0,1365 # 55555555 <absimmsh+0x49a847a8>
    80003ab8:	00b51513          	slli	a0,a0,0xb
    80003abc:	2aa50513          	addi	a0,a0,682
    80003ac0:	00b51513          	slli	a0,a0,0xb
    80003ac4:	55550513          	addi	a0,a0,1365
    80003ac8:	00a51513          	slli	a0,a0,0xa
    80003acc:	15450513          	addi	a0,a0,340
    80003ad0:	0005059b          	sext.w	a1,a0
    80003ad4:	22b33823          	sd	a1,560(t1)
    80003ad8:	555553b7          	lui	t2,0x55555
    80003adc:	5543839b          	addiw	t2,t2,1364 # 55555554 <absimmsh+0x49a847a7>
    80003ae0:	00b38463          	beq	t2,a1,80003ae8 <inst_349>
    80003ae4:	d40fc06f          	j	80000024 <rvtest_error>

0000000080003ae8 <inst_349>:
    80003ae8:	55555537          	lui	a0,0x55555
    80003aec:	55550513          	addi	a0,a0,1365 # 55555555 <absimmsh+0x49a847a8>
    80003af0:	00b51513          	slli	a0,a0,0xb
    80003af4:	2aa50513          	addi	a0,a0,682
    80003af8:	00b51513          	slli	a0,a0,0xb
    80003afc:	55550513          	addi	a0,a0,1365
    80003b00:	00a51513          	slli	a0,a0,0xa
    80003b04:	15450513          	addi	a0,a0,340
    80003b08:	0045059b          	addiw	a1,a0,4
    80003b0c:	22b33c23          	sd	a1,568(t1)
    80003b10:	555553b7          	lui	t2,0x55555
    80003b14:	5583839b          	addiw	t2,t2,1368 # 55555558 <absimmsh+0x49a847ab>
    80003b18:	00b38463          	beq	t2,a1,80003b20 <inst_350>
    80003b1c:	d08fc06f          	j	80000024 <rvtest_error>

0000000080003b20 <inst_350>:
    80003b20:	55555537          	lui	a0,0x55555
    80003b24:	55550513          	addi	a0,a0,1365 # 55555555 <absimmsh+0x49a847a8>
    80003b28:	00b51513          	slli	a0,a0,0xb
    80003b2c:	2aa50513          	addi	a0,a0,682
    80003b30:	00b51513          	slli	a0,a0,0xb
    80003b34:	55550513          	addi	a0,a0,1365
    80003b38:	00a51513          	slli	a0,a0,0xa
    80003b3c:	15450513          	addi	a0,a0,340
    80003b40:	3325059b          	addiw	a1,a0,818
    80003b44:	24b33023          	sd	a1,576(t1)
    80003b48:	555563b7          	lui	t2,0x55556
    80003b4c:	8863839b          	addiw	t2,t2,-1914 # 55555886 <absimmsh+0x49a84ad9>
    80003b50:	00b38463          	beq	t2,a1,80003b58 <inst_351>
    80003b54:	cd0fc06f          	j	80000024 <rvtest_error>

0000000080003b58 <inst_351>:
    80003b58:	55555537          	lui	a0,0x55555
    80003b5c:	55550513          	addi	a0,a0,1365 # 55555555 <absimmsh+0x49a847a8>
    80003b60:	00b51513          	slli	a0,a0,0xb
    80003b64:	2aa50513          	addi	a0,a0,682
    80003b68:	00b51513          	slli	a0,a0,0xb
    80003b6c:	55550513          	addi	a0,a0,1365
    80003b70:	00a51513          	slli	a0,a0,0xa
    80003b74:	15450513          	addi	a0,a0,340
    80003b78:	6655059b          	addiw	a1,a0,1637
    80003b7c:	24b33423          	sd	a1,584(t1)
    80003b80:	555563b7          	lui	t2,0x55556
    80003b84:	bb93839b          	addiw	t2,t2,-1095 # 55555bb9 <absimmsh+0x49a84e0c>
    80003b88:	00b38463          	beq	t2,a1,80003b90 <inst_352>
    80003b8c:	c98fc06f          	j	80000024 <rvtest_error>

0000000080003b90 <inst_352>:
    80003b90:	55555537          	lui	a0,0x55555
    80003b94:	55550513          	addi	a0,a0,1365 # 55555555 <absimmsh+0x49a847a8>
    80003b98:	00b51513          	slli	a0,a0,0xb
    80003b9c:	2aa50513          	addi	a0,a0,682
    80003ba0:	00b51513          	slli	a0,a0,0xb
    80003ba4:	55550513          	addi	a0,a0,1365
    80003ba8:	00a51513          	slli	a0,a0,0xa
    80003bac:	15450513          	addi	a0,a0,340
    80003bb0:	02c5059b          	addiw	a1,a0,44
    80003bb4:	24b33823          	sd	a1,592(t1)
    80003bb8:	555553b7          	lui	t2,0x55555
    80003bbc:	5803839b          	addiw	t2,t2,1408 # 55555580 <absimmsh+0x49a847d3>
    80003bc0:	00b38463          	beq	t2,a1,80003bc8 <inst_353>
    80003bc4:	c60fc06f          	j	80000024 <rvtest_error>

0000000080003bc8 <inst_353>:
    80003bc8:	55555537          	lui	a0,0x55555
    80003bcc:	55550513          	addi	a0,a0,1365 # 55555555 <absimmsh+0x49a847a8>
    80003bd0:	00b51513          	slli	a0,a0,0xb
    80003bd4:	2aa50513          	addi	a0,a0,682
    80003bd8:	00b51513          	slli	a0,a0,0xb
    80003bdc:	55550513          	addi	a0,a0,1365
    80003be0:	00a51513          	slli	a0,a0,0xa
    80003be4:	15450513          	addi	a0,a0,340
    80003be8:	5565059b          	addiw	a1,a0,1366
    80003bec:	24b33c23          	sd	a1,600(t1)
    80003bf0:	555563b7          	lui	t2,0x55556
    80003bf4:	aaa3839b          	addiw	t2,t2,-1366 # 55555aaa <absimmsh+0x49a84cfd>
    80003bf8:	00b38463          	beq	t2,a1,80003c00 <inst_354>
    80003bfc:	c28fc06f          	j	80000024 <rvtest_error>

0000000080003c00 <inst_354>:
    80003c00:	55555537          	lui	a0,0x55555
    80003c04:	55550513          	addi	a0,a0,1365 # 55555555 <absimmsh+0x49a847a8>
    80003c08:	00b51513          	slli	a0,a0,0xb
    80003c0c:	2aa50513          	addi	a0,a0,682
    80003c10:	00b51513          	slli	a0,a0,0xb
    80003c14:	55550513          	addi	a0,a0,1365
    80003c18:	00a51513          	slli	a0,a0,0xa
    80003c1c:	15450513          	addi	a0,a0,340
    80003c20:	aab5059b          	addiw	a1,a0,-1365
    80003c24:	26b33023          	sd	a1,608(t1)
    80003c28:	555553b7          	lui	t2,0x55555
    80003c2c:	fff3839b          	addiw	t2,t2,-1 # 55554fff <absimmsh+0x49a84252>
    80003c30:	00b38463          	beq	t2,a1,80003c38 <inst_355>
    80003c34:	bf0fc06f          	j	80000024 <rvtest_error>

0000000080003c38 <inst_355>:
    80003c38:	55555537          	lui	a0,0x55555
    80003c3c:	55550513          	addi	a0,a0,1365 # 55555555 <absimmsh+0x49a847a8>
    80003c40:	00b51513          	slli	a0,a0,0xb
    80003c44:	2aa50513          	addi	a0,a0,682
    80003c48:	00b51513          	slli	a0,a0,0xb
    80003c4c:	55550513          	addi	a0,a0,1365
    80003c50:	00a51513          	slli	a0,a0,0xa
    80003c54:	15450513          	addi	a0,a0,340
    80003c58:	0065059b          	addiw	a1,a0,6
    80003c5c:	26b33423          	sd	a1,616(t1)
    80003c60:	555553b7          	lui	t2,0x55555
    80003c64:	55a3839b          	addiw	t2,t2,1370 # 5555555a <absimmsh+0x49a847ad>
    80003c68:	00b38463          	beq	t2,a1,80003c70 <inst_356>
    80003c6c:	bb8fc06f          	j	80000024 <rvtest_error>

0000000080003c70 <inst_356>:
    80003c70:	55555537          	lui	a0,0x55555
    80003c74:	55550513          	addi	a0,a0,1365 # 55555555 <absimmsh+0x49a847a8>
    80003c78:	00b51513          	slli	a0,a0,0xb
    80003c7c:	2aa50513          	addi	a0,a0,682
    80003c80:	00b51513          	slli	a0,a0,0xb
    80003c84:	55550513          	addi	a0,a0,1365
    80003c88:	00a51513          	slli	a0,a0,0xa
    80003c8c:	15450513          	addi	a0,a0,340
    80003c90:	3345059b          	addiw	a1,a0,820
    80003c94:	26b33823          	sd	a1,624(t1)
    80003c98:	555563b7          	lui	t2,0x55556
    80003c9c:	8883839b          	addiw	t2,t2,-1912 # 55555888 <absimmsh+0x49a84adb>
    80003ca0:	00b38463          	beq	t2,a1,80003ca8 <inst_357>
    80003ca4:	b80fc06f          	j	80000024 <rvtest_error>

0000000080003ca8 <inst_357>:
    80003ca8:	55555537          	lui	a0,0x55555
    80003cac:	55550513          	addi	a0,a0,1365 # 55555555 <absimmsh+0x49a847a8>
    80003cb0:	00b51513          	slli	a0,a0,0xb
    80003cb4:	2aa50513          	addi	a0,a0,682
    80003cb8:	00b51513          	slli	a0,a0,0xb
    80003cbc:	55550513          	addi	a0,a0,1365
    80003cc0:	00a51513          	slli	a0,a0,0xa
    80003cc4:	15450513          	addi	a0,a0,340
    80003cc8:	6675059b          	addiw	a1,a0,1639
    80003ccc:	26b33c23          	sd	a1,632(t1)
    80003cd0:	555563b7          	lui	t2,0x55556
    80003cd4:	bbb3839b          	addiw	t2,t2,-1093 # 55555bbb <absimmsh+0x49a84e0e>
    80003cd8:	00b38463          	beq	t2,a1,80003ce0 <inst_358>
    80003cdc:	b48fc06f          	j	80000024 <rvtest_error>

0000000080003ce0 <inst_358>:
    80003ce0:	55555537          	lui	a0,0x55555
    80003ce4:	55550513          	addi	a0,a0,1365 # 55555555 <absimmsh+0x49a847a8>
    80003ce8:	00b51513          	slli	a0,a0,0xb
    80003cec:	2aa50513          	addi	a0,a0,682
    80003cf0:	00b51513          	slli	a0,a0,0xb
    80003cf4:	55550513          	addi	a0,a0,1365
    80003cf8:	00a51513          	slli	a0,a0,0xa
    80003cfc:	15450513          	addi	a0,a0,340
    80003d00:	fd45059b          	addiw	a1,a0,-44
    80003d04:	28b33023          	sd	a1,640(t1)
    80003d08:	555553b7          	lui	t2,0x55555
    80003d0c:	5283839b          	addiw	t2,t2,1320 # 55555528 <absimmsh+0x49a8477b>
    80003d10:	00b38463          	beq	t2,a1,80003d18 <inst_359>
    80003d14:	b10fc06f          	j	80000024 <rvtest_error>

0000000080003d18 <inst_359>:
    80003d18:	55555537          	lui	a0,0x55555
    80003d1c:	55550513          	addi	a0,a0,1365 # 55555555 <absimmsh+0x49a847a8>
    80003d20:	00b51513          	slli	a0,a0,0xb
    80003d24:	2aa50513          	addi	a0,a0,682
    80003d28:	00b51513          	slli	a0,a0,0xb
    80003d2c:	55550513          	addi	a0,a0,1365
    80003d30:	00a51513          	slli	a0,a0,0xa
    80003d34:	15450513          	addi	a0,a0,340
    80003d38:	02e5059b          	addiw	a1,a0,46
    80003d3c:	28b33423          	sd	a1,648(t1)
    80003d40:	555553b7          	lui	t2,0x55555
    80003d44:	5823839b          	addiw	t2,t2,1410 # 55555582 <absimmsh+0x49a847d5>
    80003d48:	00b38463          	beq	t2,a1,80003d50 <inst_360>
    80003d4c:	ad8fc06f          	j	80000024 <rvtest_error>

0000000080003d50 <inst_360>:
    80003d50:	00000513          	li	a0,0
    80003d54:	0035059b          	addiw	a1,a0,3
    80003d58:	28b33823          	sd	a1,656(t1)
    80003d5c:	00300393          	li	t2,3
    80003d60:	00b38463          	beq	t2,a1,80003d68 <inst_361>
    80003d64:	ac0fc06f          	j	80000024 <rvtest_error>

0000000080003d68 <inst_361>:
    80003d68:	00000513          	li	a0,0
    80003d6c:	5555059b          	addiw	a1,a0,1365
    80003d70:	28b33c23          	sd	a1,664(t1)
    80003d74:	55500393          	li	t2,1365
    80003d78:	00b38463          	beq	t2,a1,80003d80 <inst_362>
    80003d7c:	aa8fc06f          	j	80000024 <rvtest_error>

0000000080003d80 <inst_362>:
    80003d80:	00000513          	li	a0,0
    80003d84:	0055059b          	addiw	a1,a0,5
    80003d88:	2ab33023          	sd	a1,672(t1)
    80003d8c:	00500393          	li	t2,5
    80003d90:	00b38463          	beq	t2,a1,80003d98 <inst_363>
    80003d94:	a90fc06f          	j	80000024 <rvtest_error>

0000000080003d98 <inst_363>:
    80003d98:	00000513          	li	a0,0
    80003d9c:	3335059b          	addiw	a1,a0,819
    80003da0:	2ab33423          	sd	a1,680(t1)
    80003da4:	33300393          	li	t2,819
    80003da8:	00b38463          	beq	t2,a1,80003db0 <inst_364>
    80003dac:	a78fc06f          	j	80000024 <rvtest_error>

0000000080003db0 <inst_364>:
    80003db0:	00000513          	li	a0,0
    80003db4:	6665059b          	addiw	a1,a0,1638
    80003db8:	2ab33823          	sd	a1,688(t1)
    80003dbc:	66600393          	li	t2,1638
    80003dc0:	00b38463          	beq	t2,a1,80003dc8 <inst_365>
    80003dc4:	a60fc06f          	j	80000024 <rvtest_error>

0000000080003dc8 <inst_365>:
    80003dc8:	00000513          	li	a0,0
    80003dcc:	fd35059b          	addiw	a1,a0,-45
    80003dd0:	2ab33c23          	sd	a1,696(t1)
    80003dd4:	fd300393          	li	t2,-45
    80003dd8:	00b38463          	beq	t2,a1,80003de0 <inst_366>
    80003ddc:	a48fc06f          	j	80000024 <rvtest_error>

0000000080003de0 <inst_366>:
    80003de0:	00000513          	li	a0,0
    80003de4:	02d5059b          	addiw	a1,a0,45
    80003de8:	2cb33023          	sd	a1,704(t1)
    80003dec:	02d00393          	li	t2,45
    80003df0:	00b38463          	beq	t2,a1,80003df8 <inst_367>
    80003df4:	a30fc06f          	j	80000024 <rvtest_error>

0000000080003df8 <inst_367>:
    80003df8:	00000513          	li	a0,0
    80003dfc:	0025059b          	addiw	a1,a0,2
    80003e00:	2cb33423          	sd	a1,712(t1)
    80003e04:	00200393          	li	t2,2
    80003e08:	00b38463          	beq	t2,a1,80003e10 <inst_368>
    80003e0c:	a18fc06f          	j	80000024 <rvtest_error>

0000000080003e10 <inst_368>:
    80003e10:	55555537          	lui	a0,0x55555
    80003e14:	55550513          	addi	a0,a0,1365 # 55555555 <absimmsh+0x49a847a8>
    80003e18:	00b51513          	slli	a0,a0,0xb
    80003e1c:	2aa50513          	addi	a0,a0,682
    80003e20:	00b51513          	slli	a0,a0,0xb
    80003e24:	55550513          	addi	a0,a0,1365
    80003e28:	00a51513          	slli	a0,a0,0xa
    80003e2c:	15650513          	addi	a0,a0,342
    80003e30:	02c5059b          	addiw	a1,a0,44
    80003e34:	2cb33823          	sd	a1,720(t1)
    80003e38:	555553b7          	lui	t2,0x55555
    80003e3c:	5823839b          	addiw	t2,t2,1410 # 55555582 <absimmsh+0x49a847d5>
    80003e40:	00b38463          	beq	t2,a1,80003e48 <inst_369>
    80003e44:	9e0fc06f          	j	80000024 <rvtest_error>

0000000080003e48 <inst_369>:
    80003e48:	55555537          	lui	a0,0x55555
    80003e4c:	55550513          	addi	a0,a0,1365 # 55555555 <absimmsh+0x49a847a8>
    80003e50:	00b51513          	slli	a0,a0,0xb
    80003e54:	2aa50513          	addi	a0,a0,682
    80003e58:	00b51513          	slli	a0,a0,0xb
    80003e5c:	55550513          	addi	a0,a0,1365
    80003e60:	00a51513          	slli	a0,a0,0xa
    80003e64:	15650513          	addi	a0,a0,342
    80003e68:	5565059b          	addiw	a1,a0,1366
    80003e6c:	2cb33c23          	sd	a1,728(t1)
    80003e70:	555563b7          	lui	t2,0x55556
    80003e74:	aac3839b          	addiw	t2,t2,-1364 # 55555aac <absimmsh+0x49a84cff>
    80003e78:	00b38463          	beq	t2,a1,80003e80 <inst_370>
    80003e7c:	9a8fc06f          	j	80000024 <rvtest_error>

0000000080003e80 <inst_370>:
    80003e80:	55555537          	lui	a0,0x55555
    80003e84:	55550513          	addi	a0,a0,1365 # 55555555 <absimmsh+0x49a847a8>
    80003e88:	00b51513          	slli	a0,a0,0xb
    80003e8c:	2aa50513          	addi	a0,a0,682
    80003e90:	00b51513          	slli	a0,a0,0xb
    80003e94:	55550513          	addi	a0,a0,1365
    80003e98:	00a51513          	slli	a0,a0,0xa
    80003e9c:	15650513          	addi	a0,a0,342
    80003ea0:	aab5059b          	addiw	a1,a0,-1365
    80003ea4:	2eb33023          	sd	a1,736(t1)
    80003ea8:	555553b7          	lui	t2,0x55555
    80003eac:	0013839b          	addiw	t2,t2,1 # 55555001 <absimmsh+0x49a84254>
    80003eb0:	00b38463          	beq	t2,a1,80003eb8 <inst_371>
    80003eb4:	970fc06f          	j	80000024 <rvtest_error>

0000000080003eb8 <inst_371>:
    80003eb8:	55555537          	lui	a0,0x55555
    80003ebc:	55550513          	addi	a0,a0,1365 # 55555555 <absimmsh+0x49a847a8>
    80003ec0:	00b51513          	slli	a0,a0,0xb
    80003ec4:	2aa50513          	addi	a0,a0,682
    80003ec8:	00b51513          	slli	a0,a0,0xb
    80003ecc:	55550513          	addi	a0,a0,1365
    80003ed0:	00a51513          	slli	a0,a0,0xa
    80003ed4:	15650513          	addi	a0,a0,342
    80003ed8:	0065059b          	addiw	a1,a0,6
    80003edc:	2eb33423          	sd	a1,744(t1)
    80003ee0:	555553b7          	lui	t2,0x55555
    80003ee4:	55c3839b          	addiw	t2,t2,1372 # 5555555c <absimmsh+0x49a847af>
    80003ee8:	00b38463          	beq	t2,a1,80003ef0 <inst_372>
    80003eec:	938fc06f          	j	80000024 <rvtest_error>

0000000080003ef0 <inst_372>:
    80003ef0:	55555537          	lui	a0,0x55555
    80003ef4:	55550513          	addi	a0,a0,1365 # 55555555 <absimmsh+0x49a847a8>
    80003ef8:	00b51513          	slli	a0,a0,0xb
    80003efc:	2aa50513          	addi	a0,a0,682
    80003f00:	00b51513          	slli	a0,a0,0xb
    80003f04:	55550513          	addi	a0,a0,1365
    80003f08:	00a51513          	slli	a0,a0,0xa
    80003f0c:	15650513          	addi	a0,a0,342
    80003f10:	3345059b          	addiw	a1,a0,820
    80003f14:	2eb33823          	sd	a1,752(t1)
    80003f18:	555563b7          	lui	t2,0x55556
    80003f1c:	88a3839b          	addiw	t2,t2,-1910 # 5555588a <absimmsh+0x49a84add>
    80003f20:	00b38463          	beq	t2,a1,80003f28 <inst_373>
    80003f24:	900fc06f          	j	80000024 <rvtest_error>

0000000080003f28 <inst_373>:
    80003f28:	55555537          	lui	a0,0x55555
    80003f2c:	55550513          	addi	a0,a0,1365 # 55555555 <absimmsh+0x49a847a8>
    80003f30:	00b51513          	slli	a0,a0,0xb
    80003f34:	2aa50513          	addi	a0,a0,682
    80003f38:	00b51513          	slli	a0,a0,0xb
    80003f3c:	55550513          	addi	a0,a0,1365
    80003f40:	00a51513          	slli	a0,a0,0xa
    80003f44:	15650513          	addi	a0,a0,342
    80003f48:	6675059b          	addiw	a1,a0,1639
    80003f4c:	2eb33c23          	sd	a1,760(t1)
    80003f50:	555563b7          	lui	t2,0x55556
    80003f54:	bbd3839b          	addiw	t2,t2,-1091 # 55555bbd <absimmsh+0x49a84e10>
    80003f58:	00b38463          	beq	t2,a1,80003f60 <inst_374>
    80003f5c:	8c8fc06f          	j	80000024 <rvtest_error>

0000000080003f60 <inst_374>:
    80003f60:	55555537          	lui	a0,0x55555
    80003f64:	55550513          	addi	a0,a0,1365 # 55555555 <absimmsh+0x49a847a8>
    80003f68:	00b51513          	slli	a0,a0,0xb
    80003f6c:	2aa50513          	addi	a0,a0,682
    80003f70:	00b51513          	slli	a0,a0,0xb
    80003f74:	55550513          	addi	a0,a0,1365
    80003f78:	00a51513          	slli	a0,a0,0xa
    80003f7c:	15650513          	addi	a0,a0,342
    80003f80:	fd45059b          	addiw	a1,a0,-44
    80003f84:	30b33023          	sd	a1,768(t1)
    80003f88:	555553b7          	lui	t2,0x55555
    80003f8c:	52a3839b          	addiw	t2,t2,1322 # 5555552a <absimmsh+0x49a8477d>
    80003f90:	00b38463          	beq	t2,a1,80003f98 <inst_375>
    80003f94:	890fc06f          	j	80000024 <rvtest_error>

0000000080003f98 <inst_375>:
    80003f98:	55555537          	lui	a0,0x55555
    80003f9c:	55550513          	addi	a0,a0,1365 # 55555555 <absimmsh+0x49a847a8>
    80003fa0:	00b51513          	slli	a0,a0,0xb
    80003fa4:	2aa50513          	addi	a0,a0,682
    80003fa8:	00b51513          	slli	a0,a0,0xb
    80003fac:	55550513          	addi	a0,a0,1365
    80003fb0:	00a51513          	slli	a0,a0,0xa
    80003fb4:	15650513          	addi	a0,a0,342
    80003fb8:	02e5059b          	addiw	a1,a0,46
    80003fbc:	30b33423          	sd	a1,776(t1)
    80003fc0:	555553b7          	lui	t2,0x55555
    80003fc4:	5843839b          	addiw	t2,t2,1412 # 55555584 <absimmsh+0x49a847d7>
    80003fc8:	00b38463          	beq	t2,a1,80003fd0 <inst_376>
    80003fcc:	858fc06f          	j	80000024 <rvtest_error>

0000000080003fd0 <inst_376>:
    80003fd0:	aaaab537          	lui	a0,0xaaaab
    80003fd4:	aaa50513          	addi	a0,a0,-1366 # ffffffffaaaaaaaa <absimm+0xfffffffeefd9cfda>
    80003fd8:	00b51513          	slli	a0,a0,0xb
    80003fdc:	55550513          	addi	a0,a0,1365
    80003fe0:	00b51513          	slli	a0,a0,0xb
    80003fe4:	2aa50513          	addi	a0,a0,682
    80003fe8:	00a51513          	slli	a0,a0,0xa
    80003fec:	2ab50513          	addi	a0,a0,683
    80003ff0:	0035059b          	addiw	a1,a0,3
    80003ff4:	30b33823          	sd	a1,784(t1)
    80003ff8:	aaaab3b7          	lui	t2,0xaaaab
    80003ffc:	aae3839b          	addiw	t2,t2,-1362 # ffffffffaaaaaaae <absimm+0xfffffffeefd9cfde>
    80004000:	00b38463          	beq	t2,a1,80004008 <inst_377>
    80004004:	820fc06f          	j	80000024 <rvtest_error>

0000000080004008 <inst_377>:
    80004008:	aaaab537          	lui	a0,0xaaaab
    8000400c:	aaa50513          	addi	a0,a0,-1366 # ffffffffaaaaaaaa <absimm+0xfffffffeefd9cfda>
    80004010:	00b51513          	slli	a0,a0,0xb
    80004014:	55550513          	addi	a0,a0,1365
    80004018:	00b51513          	slli	a0,a0,0xb
    8000401c:	2aa50513          	addi	a0,a0,682
    80004020:	00a51513          	slli	a0,a0,0xa
    80004024:	2ab50513          	addi	a0,a0,683
    80004028:	5555059b          	addiw	a1,a0,1365
    8000402c:	30b33c23          	sd	a1,792(t1)
    80004030:	aaaab3b7          	lui	t2,0xaaaab
    80004034:	00b38463          	beq	t2,a1,8000403c <inst_378>
    80004038:	fedfb06f          	j	80000024 <rvtest_error>

000000008000403c <inst_378>:
    8000403c:	aaaab537          	lui	a0,0xaaaab
    80004040:	aaa50513          	addi	a0,a0,-1366 # ffffffffaaaaaaaa <absimm+0xfffffffeefd9cfda>
    80004044:	00b51513          	slli	a0,a0,0xb
    80004048:	55550513          	addi	a0,a0,1365
    8000404c:	00b51513          	slli	a0,a0,0xb
    80004050:	2aa50513          	addi	a0,a0,682
    80004054:	00a51513          	slli	a0,a0,0xa
    80004058:	2ab50513          	addi	a0,a0,683
    8000405c:	aaa5059b          	addiw	a1,a0,-1366
    80004060:	32b33023          	sd	a1,800(t1)
    80004064:	aaaaa3b7          	lui	t2,0xaaaaa
    80004068:	5553839b          	addiw	t2,t2,1365 # ffffffffaaaaa555 <absimm+0xfffffffeefd9ca85>
    8000406c:	00b38463          	beq	t2,a1,80004074 <inst_379>
    80004070:	fb5fb06f          	j	80000024 <rvtest_error>

0000000080004074 <inst_379>:
    80004074:	aaaab537          	lui	a0,0xaaaab
    80004078:	aaa50513          	addi	a0,a0,-1366 # ffffffffaaaaaaaa <absimm+0xfffffffeefd9cfda>
    8000407c:	00b51513          	slli	a0,a0,0xb
    80004080:	55550513          	addi	a0,a0,1365
    80004084:	00b51513          	slli	a0,a0,0xb
    80004088:	2aa50513          	addi	a0,a0,682
    8000408c:	00a51513          	slli	a0,a0,0xa
    80004090:	2ab50513          	addi	a0,a0,683
    80004094:	0055059b          	addiw	a1,a0,5
    80004098:	32b33423          	sd	a1,808(t1)
    8000409c:	aaaab3b7          	lui	t2,0xaaaab
    800040a0:	ab03839b          	addiw	t2,t2,-1360 # ffffffffaaaaaab0 <absimm+0xfffffffeefd9cfe0>
    800040a4:	00b38463          	beq	t2,a1,800040ac <inst_380>
    800040a8:	f7dfb06f          	j	80000024 <rvtest_error>

00000000800040ac <inst_380>:
    800040ac:	aaaab537          	lui	a0,0xaaaab
    800040b0:	aaa50513          	addi	a0,a0,-1366 # ffffffffaaaaaaaa <absimm+0xfffffffeefd9cfda>
    800040b4:	00b51513          	slli	a0,a0,0xb
    800040b8:	55550513          	addi	a0,a0,1365
    800040bc:	00b51513          	slli	a0,a0,0xb
    800040c0:	2aa50513          	addi	a0,a0,682
    800040c4:	00a51513          	slli	a0,a0,0xa
    800040c8:	2ab50513          	addi	a0,a0,683
    800040cc:	3335059b          	addiw	a1,a0,819
    800040d0:	32b33823          	sd	a1,816(t1)
    800040d4:	aaaab3b7          	lui	t2,0xaaaab
    800040d8:	dde3839b          	addiw	t2,t2,-546 # ffffffffaaaaadde <absimm+0xfffffffeefd9d30e>
    800040dc:	00b38463          	beq	t2,a1,800040e4 <inst_381>
    800040e0:	f45fb06f          	j	80000024 <rvtest_error>

00000000800040e4 <inst_381>:
    800040e4:	aaaab537          	lui	a0,0xaaaab
    800040e8:	aaa50513          	addi	a0,a0,-1366 # ffffffffaaaaaaaa <absimm+0xfffffffeefd9cfda>
    800040ec:	00b51513          	slli	a0,a0,0xb
    800040f0:	55550513          	addi	a0,a0,1365
    800040f4:	00b51513          	slli	a0,a0,0xb
    800040f8:	2aa50513          	addi	a0,a0,682
    800040fc:	00a51513          	slli	a0,a0,0xa
    80004100:	2ab50513          	addi	a0,a0,683
    80004104:	6665059b          	addiw	a1,a0,1638
    80004108:	32b33c23          	sd	a1,824(t1)
    8000410c:	aaaab3b7          	lui	t2,0xaaaab
    80004110:	1113839b          	addiw	t2,t2,273 # ffffffffaaaab111 <absimm+0xfffffffeefd9d641>
    80004114:	00b38463          	beq	t2,a1,8000411c <inst_382>
    80004118:	f0dfb06f          	j	80000024 <rvtest_error>

000000008000411c <inst_382>:
    8000411c:	aaaab537          	lui	a0,0xaaaab
    80004120:	aaa50513          	addi	a0,a0,-1366 # ffffffffaaaaaaaa <absimm+0xfffffffeefd9cfda>
    80004124:	00b51513          	slli	a0,a0,0xb
    80004128:	55550513          	addi	a0,a0,1365
    8000412c:	00b51513          	slli	a0,a0,0xb
    80004130:	2aa50513          	addi	a0,a0,682
    80004134:	00a51513          	slli	a0,a0,0xa
    80004138:	2ab50513          	addi	a0,a0,683
    8000413c:	fd35059b          	addiw	a1,a0,-45
    80004140:	34b33023          	sd	a1,832(t1)
    80004144:	aaaab3b7          	lui	t2,0xaaaab
    80004148:	a7e3839b          	addiw	t2,t2,-1410 # ffffffffaaaaaa7e <absimm+0xfffffffeefd9cfae>
    8000414c:	00b38463          	beq	t2,a1,80004154 <inst_383>
    80004150:	ed5fb06f          	j	80000024 <rvtest_error>

0000000080004154 <inst_383>:
    80004154:	aaaab537          	lui	a0,0xaaaab
    80004158:	aaa50513          	addi	a0,a0,-1366 # ffffffffaaaaaaaa <absimm+0xfffffffeefd9cfda>
    8000415c:	00b51513          	slli	a0,a0,0xb
    80004160:	55550513          	addi	a0,a0,1365
    80004164:	00b51513          	slli	a0,a0,0xb
    80004168:	2aa50513          	addi	a0,a0,682
    8000416c:	00a51513          	slli	a0,a0,0xa
    80004170:	2ab50513          	addi	a0,a0,683
    80004174:	02d5059b          	addiw	a1,a0,45
    80004178:	34b33423          	sd	a1,840(t1)
    8000417c:	aaaab3b7          	lui	t2,0xaaaab
    80004180:	ad83839b          	addiw	t2,t2,-1320 # ffffffffaaaaaad8 <absimm+0xfffffffeefd9d008>
    80004184:	00b38463          	beq	t2,a1,8000418c <inst_384>
    80004188:	e9dfb06f          	j	80000024 <rvtest_error>

000000008000418c <inst_384>:
    8000418c:	aaaab537          	lui	a0,0xaaaab
    80004190:	aaa50513          	addi	a0,a0,-1366 # ffffffffaaaaaaaa <absimm+0xfffffffeefd9cfda>
    80004194:	00b51513          	slli	a0,a0,0xb
    80004198:	55550513          	addi	a0,a0,1365
    8000419c:	00b51513          	slli	a0,a0,0xb
    800041a0:	2aa50513          	addi	a0,a0,682
    800041a4:	00a51513          	slli	a0,a0,0xa
    800041a8:	2ab50513          	addi	a0,a0,683
    800041ac:	0025059b          	addiw	a1,a0,2
    800041b0:	34b33823          	sd	a1,848(t1)
    800041b4:	aaaab3b7          	lui	t2,0xaaaab
    800041b8:	aad3839b          	addiw	t2,t2,-1363 # ffffffffaaaaaaad <absimm+0xfffffffeefd9cfdd>
    800041bc:	00b38463          	beq	t2,a1,800041c4 <inst_385>
    800041c0:	e65fb06f          	j	80000024 <rvtest_error>

00000000800041c4 <inst_385>:
    800041c4:	aaaab537          	lui	a0,0xaaaab
    800041c8:	aaa50513          	addi	a0,a0,-1366 # ffffffffaaaaaaaa <absimm+0xfffffffeefd9cfda>
    800041cc:	00b51513          	slli	a0,a0,0xb
    800041d0:	55550513          	addi	a0,a0,1365
    800041d4:	00b51513          	slli	a0,a0,0xb
    800041d8:	2aa50513          	addi	a0,a0,682
    800041dc:	00a51513          	slli	a0,a0,0xa
    800041e0:	2ab50513          	addi	a0,a0,683
    800041e4:	5545059b          	addiw	a1,a0,1364
    800041e8:	34b33c23          	sd	a1,856(t1)
    800041ec:	aaaab3b7          	lui	t2,0xaaaab
    800041f0:	fff3839b          	addiw	t2,t2,-1 # ffffffffaaaaafff <absimm+0xfffffffeefd9d52f>
    800041f4:	00b38463          	beq	t2,a1,800041fc <inst_386>
    800041f8:	e2dfb06f          	j	80000024 <rvtest_error>

00000000800041fc <inst_386>:
    800041fc:	aaaab537          	lui	a0,0xaaaab
    80004200:	aaa50513          	addi	a0,a0,-1366 # ffffffffaaaaaaaa <absimm+0xfffffffeefd9cfda>
    80004204:	00b51513          	slli	a0,a0,0xb
    80004208:	55550513          	addi	a0,a0,1365
    8000420c:	00b51513          	slli	a0,a0,0xb
    80004210:	2aa50513          	addi	a0,a0,682
    80004214:	00a51513          	slli	a0,a0,0xa
    80004218:	2ab50513          	addi	a0,a0,683
    8000421c:	0005059b          	sext.w	a1,a0
    80004220:	36b33023          	sd	a1,864(t1)
    80004224:	aaaab3b7          	lui	t2,0xaaaab
    80004228:	aab3839b          	addiw	t2,t2,-1365 # ffffffffaaaaaaab <absimm+0xfffffffeefd9cfdb>
    8000422c:	00b38463          	beq	t2,a1,80004234 <inst_387>
    80004230:	df5fb06f          	j	80000024 <rvtest_error>

0000000080004234 <inst_387>:
    80004234:	aaaab537          	lui	a0,0xaaaab
    80004238:	aaa50513          	addi	a0,a0,-1366 # ffffffffaaaaaaaa <absimm+0xfffffffeefd9cfda>
    8000423c:	00b51513          	slli	a0,a0,0xb
    80004240:	55550513          	addi	a0,a0,1365
    80004244:	00b51513          	slli	a0,a0,0xb
    80004248:	2aa50513          	addi	a0,a0,682
    8000424c:	00a51513          	slli	a0,a0,0xa
    80004250:	2ab50513          	addi	a0,a0,683
    80004254:	0045059b          	addiw	a1,a0,4
    80004258:	36b33423          	sd	a1,872(t1)
    8000425c:	aaaab3b7          	lui	t2,0xaaaab
    80004260:	aaf3839b          	addiw	t2,t2,-1361 # ffffffffaaaaaaaf <absimm+0xfffffffeefd9cfdf>
    80004264:	00b38463          	beq	t2,a1,8000426c <inst_388>
    80004268:	dbdfb06f          	j	80000024 <rvtest_error>

000000008000426c <inst_388>:
    8000426c:	aaaab537          	lui	a0,0xaaaab
    80004270:	aaa50513          	addi	a0,a0,-1366 # ffffffffaaaaaaaa <absimm+0xfffffffeefd9cfda>
    80004274:	00b51513          	slli	a0,a0,0xb
    80004278:	55550513          	addi	a0,a0,1365
    8000427c:	00b51513          	slli	a0,a0,0xb
    80004280:	2aa50513          	addi	a0,a0,682
    80004284:	00a51513          	slli	a0,a0,0xa
    80004288:	2ab50513          	addi	a0,a0,683
    8000428c:	3325059b          	addiw	a1,a0,818
    80004290:	36b33823          	sd	a1,880(t1)
    80004294:	aaaab3b7          	lui	t2,0xaaaab
    80004298:	ddd3839b          	addiw	t2,t2,-547 # ffffffffaaaaaddd <absimm+0xfffffffeefd9d30d>
    8000429c:	00b38463          	beq	t2,a1,800042a4 <inst_389>
    800042a0:	d85fb06f          	j	80000024 <rvtest_error>

00000000800042a4 <inst_389>:
    800042a4:	aaaab537          	lui	a0,0xaaaab
    800042a8:	aaa50513          	addi	a0,a0,-1366 # ffffffffaaaaaaaa <absimm+0xfffffffeefd9cfda>
    800042ac:	00b51513          	slli	a0,a0,0xb
    800042b0:	55550513          	addi	a0,a0,1365
    800042b4:	00b51513          	slli	a0,a0,0xb
    800042b8:	2aa50513          	addi	a0,a0,682
    800042bc:	00a51513          	slli	a0,a0,0xa
    800042c0:	2ab50513          	addi	a0,a0,683
    800042c4:	6655059b          	addiw	a1,a0,1637
    800042c8:	36b33c23          	sd	a1,888(t1)
    800042cc:	aaaab3b7          	lui	t2,0xaaaab
    800042d0:	1103839b          	addiw	t2,t2,272 # ffffffffaaaab110 <absimm+0xfffffffeefd9d640>
    800042d4:	00b38463          	beq	t2,a1,800042dc <inst_390>
    800042d8:	d4dfb06f          	j	80000024 <rvtest_error>

00000000800042dc <inst_390>:
    800042dc:	aaaab537          	lui	a0,0xaaaab
    800042e0:	aaa50513          	addi	a0,a0,-1366 # ffffffffaaaaaaaa <absimm+0xfffffffeefd9cfda>
    800042e4:	00b51513          	slli	a0,a0,0xb
    800042e8:	55550513          	addi	a0,a0,1365
    800042ec:	00b51513          	slli	a0,a0,0xb
    800042f0:	2aa50513          	addi	a0,a0,682
    800042f4:	00a51513          	slli	a0,a0,0xa
    800042f8:	2ab50513          	addi	a0,a0,683
    800042fc:	02c5059b          	addiw	a1,a0,44
    80004300:	38b33023          	sd	a1,896(t1)
    80004304:	aaaab3b7          	lui	t2,0xaaaab
    80004308:	ad73839b          	addiw	t2,t2,-1321 # ffffffffaaaaaad7 <absimm+0xfffffffeefd9d007>
    8000430c:	00b38463          	beq	t2,a1,80004314 <inst_391>
    80004310:	d15fb06f          	j	80000024 <rvtest_error>

0000000080004314 <inst_391>:
    80004314:	aaaab537          	lui	a0,0xaaaab
    80004318:	aaa50513          	addi	a0,a0,-1366 # ffffffffaaaaaaaa <absimm+0xfffffffeefd9cfda>
    8000431c:	00b51513          	slli	a0,a0,0xb
    80004320:	55550513          	addi	a0,a0,1365
    80004324:	00b51513          	slli	a0,a0,0xb
    80004328:	2aa50513          	addi	a0,a0,682
    8000432c:	00a51513          	slli	a0,a0,0xa
    80004330:	2ab50513          	addi	a0,a0,683
    80004334:	5565059b          	addiw	a1,a0,1366
    80004338:	38b33423          	sd	a1,904(t1)
    8000433c:	aaaab3b7          	lui	t2,0xaaaab
    80004340:	0013839b          	addiw	t2,t2,1 # ffffffffaaaab001 <absimm+0xfffffffeefd9d531>
    80004344:	00b38463          	beq	t2,a1,8000434c <inst_392>
    80004348:	cddfb06f          	j	80000024 <rvtest_error>

000000008000434c <inst_392>:
    8000434c:	aaaab537          	lui	a0,0xaaaab
    80004350:	aaa50513          	addi	a0,a0,-1366 # ffffffffaaaaaaaa <absimm+0xfffffffeefd9cfda>
    80004354:	00b51513          	slli	a0,a0,0xb
    80004358:	55550513          	addi	a0,a0,1365
    8000435c:	00b51513          	slli	a0,a0,0xb
    80004360:	2aa50513          	addi	a0,a0,682
    80004364:	00a51513          	slli	a0,a0,0xa
    80004368:	2ab50513          	addi	a0,a0,683
    8000436c:	aab5059b          	addiw	a1,a0,-1365
    80004370:	38b33823          	sd	a1,912(t1)
    80004374:	aaaaa3b7          	lui	t2,0xaaaaa
    80004378:	5563839b          	addiw	t2,t2,1366 # ffffffffaaaaa556 <absimm+0xfffffffeefd9ca86>
    8000437c:	00b38463          	beq	t2,a1,80004384 <inst_393>
    80004380:	ca5fb06f          	j	80000024 <rvtest_error>

0000000080004384 <inst_393>:
    80004384:	aaaab537          	lui	a0,0xaaaab
    80004388:	aaa50513          	addi	a0,a0,-1366 # ffffffffaaaaaaaa <absimm+0xfffffffeefd9cfda>
    8000438c:	00b51513          	slli	a0,a0,0xb
    80004390:	55550513          	addi	a0,a0,1365
    80004394:	00b51513          	slli	a0,a0,0xb
    80004398:	2aa50513          	addi	a0,a0,682
    8000439c:	00a51513          	slli	a0,a0,0xa
    800043a0:	2ab50513          	addi	a0,a0,683
    800043a4:	0065059b          	addiw	a1,a0,6
    800043a8:	38b33c23          	sd	a1,920(t1)
    800043ac:	aaaab3b7          	lui	t2,0xaaaab
    800043b0:	ab13839b          	addiw	t2,t2,-1359 # ffffffffaaaaaab1 <absimm+0xfffffffeefd9cfe1>
    800043b4:	00b38463          	beq	t2,a1,800043bc <inst_394>
    800043b8:	c6dfb06f          	j	80000024 <rvtest_error>

00000000800043bc <inst_394>:
    800043bc:	aaaab537          	lui	a0,0xaaaab
    800043c0:	aaa50513          	addi	a0,a0,-1366 # ffffffffaaaaaaaa <absimm+0xfffffffeefd9cfda>
    800043c4:	00b51513          	slli	a0,a0,0xb
    800043c8:	55550513          	addi	a0,a0,1365
    800043cc:	00b51513          	slli	a0,a0,0xb
    800043d0:	2aa50513          	addi	a0,a0,682
    800043d4:	00a51513          	slli	a0,a0,0xa
    800043d8:	2ab50513          	addi	a0,a0,683
    800043dc:	3345059b          	addiw	a1,a0,820
    800043e0:	3ab33023          	sd	a1,928(t1)
    800043e4:	aaaab3b7          	lui	t2,0xaaaab
    800043e8:	ddf3839b          	addiw	t2,t2,-545 # ffffffffaaaaaddf <absimm+0xfffffffeefd9d30f>
    800043ec:	00b38463          	beq	t2,a1,800043f4 <inst_395>
    800043f0:	c35fb06f          	j	80000024 <rvtest_error>

00000000800043f4 <inst_395>:
    800043f4:	aaaab537          	lui	a0,0xaaaab
    800043f8:	aaa50513          	addi	a0,a0,-1366 # ffffffffaaaaaaaa <absimm+0xfffffffeefd9cfda>
    800043fc:	00b51513          	slli	a0,a0,0xb
    80004400:	55550513          	addi	a0,a0,1365
    80004404:	00b51513          	slli	a0,a0,0xb
    80004408:	2aa50513          	addi	a0,a0,682
    8000440c:	00a51513          	slli	a0,a0,0xa
    80004410:	2ab50513          	addi	a0,a0,683
    80004414:	6675059b          	addiw	a1,a0,1639
    80004418:	3ab33423          	sd	a1,936(t1)
    8000441c:	aaaab3b7          	lui	t2,0xaaaab
    80004420:	1123839b          	addiw	t2,t2,274 # ffffffffaaaab112 <absimm+0xfffffffeefd9d642>
    80004424:	00b38463          	beq	t2,a1,8000442c <inst_396>
    80004428:	bfdfb06f          	j	80000024 <rvtest_error>

000000008000442c <inst_396>:
    8000442c:	aaaab537          	lui	a0,0xaaaab
    80004430:	aaa50513          	addi	a0,a0,-1366 # ffffffffaaaaaaaa <absimm+0xfffffffeefd9cfda>
    80004434:	00b51513          	slli	a0,a0,0xb
    80004438:	55550513          	addi	a0,a0,1365
    8000443c:	00b51513          	slli	a0,a0,0xb
    80004440:	2aa50513          	addi	a0,a0,682
    80004444:	00a51513          	slli	a0,a0,0xa
    80004448:	2ab50513          	addi	a0,a0,683
    8000444c:	fd45059b          	addiw	a1,a0,-44
    80004450:	3ab33823          	sd	a1,944(t1)
    80004454:	aaaab3b7          	lui	t2,0xaaaab
    80004458:	a7f3839b          	addiw	t2,t2,-1409 # ffffffffaaaaaa7f <absimm+0xfffffffeefd9cfaf>
    8000445c:	00b38463          	beq	t2,a1,80004464 <inst_397>
    80004460:	bc5fb06f          	j	80000024 <rvtest_error>

0000000080004464 <inst_397>:
    80004464:	aaaab537          	lui	a0,0xaaaab
    80004468:	aaa50513          	addi	a0,a0,-1366 # ffffffffaaaaaaaa <absimm+0xfffffffeefd9cfda>
    8000446c:	00b51513          	slli	a0,a0,0xb
    80004470:	55550513          	addi	a0,a0,1365
    80004474:	00b51513          	slli	a0,a0,0xb
    80004478:	2aa50513          	addi	a0,a0,682
    8000447c:	00a51513          	slli	a0,a0,0xa
    80004480:	2ab50513          	addi	a0,a0,683
    80004484:	02e5059b          	addiw	a1,a0,46
    80004488:	3ab33c23          	sd	a1,952(t1)
    8000448c:	aaaab3b7          	lui	t2,0xaaaab
    80004490:	ad93839b          	addiw	t2,t2,-1319 # ffffffffaaaaaad9 <absimm+0xfffffffeefd9d009>
    80004494:	00b38463          	beq	t2,a1,8000449c <inst_398>
    80004498:	b8dfb06f          	j	80000024 <rvtest_error>

000000008000449c <inst_398>:
    8000449c:	00600513          	li	a0,6
    800044a0:	0035059b          	addiw	a1,a0,3
    800044a4:	3cb33023          	sd	a1,960(t1)
    800044a8:	00900393          	li	t2,9
    800044ac:	00b38463          	beq	t2,a1,800044b4 <inst_399>
    800044b0:	b75fb06f          	j	80000024 <rvtest_error>

00000000800044b4 <inst_399>:
    800044b4:	00600513          	li	a0,6
    800044b8:	5555059b          	addiw	a1,a0,1365
    800044bc:	3cb33423          	sd	a1,968(t1)
    800044c0:	55b00393          	li	t2,1371
    800044c4:	00b38463          	beq	t2,a1,800044cc <inst_400>
    800044c8:	b5dfb06f          	j	80000024 <rvtest_error>

00000000800044cc <inst_400>:
    800044cc:	00600513          	li	a0,6
    800044d0:	aaa5059b          	addiw	a1,a0,-1366
    800044d4:	3cb33823          	sd	a1,976(t1)
    800044d8:	ab000393          	li	t2,-1360
    800044dc:	00b38463          	beq	t2,a1,800044e4 <inst_401>
    800044e0:	b45fb06f          	j	80000024 <rvtest_error>

00000000800044e4 <inst_401>:
    800044e4:	00600513          	li	a0,6
    800044e8:	0055059b          	addiw	a1,a0,5
    800044ec:	3cb33c23          	sd	a1,984(t1)
    800044f0:	00b00393          	li	t2,11
    800044f4:	00b38463          	beq	t2,a1,800044fc <inst_402>
    800044f8:	b2dfb06f          	j	80000024 <rvtest_error>

00000000800044fc <inst_402>:
    800044fc:	00600513          	li	a0,6
    80004500:	3335059b          	addiw	a1,a0,819
    80004504:	3eb33023          	sd	a1,992(t1)
    80004508:	33900393          	li	t2,825
    8000450c:	00b38463          	beq	t2,a1,80004514 <inst_403>
    80004510:	b15fb06f          	j	80000024 <rvtest_error>

0000000080004514 <inst_403>:
    80004514:	00600513          	li	a0,6
    80004518:	6665059b          	addiw	a1,a0,1638
    8000451c:	3eb33423          	sd	a1,1000(t1)
    80004520:	66c00393          	li	t2,1644
    80004524:	00b38463          	beq	t2,a1,8000452c <inst_404>
    80004528:	afdfb06f          	j	80000024 <rvtest_error>

000000008000452c <inst_404>:
    8000452c:	00600513          	li	a0,6
    80004530:	fd35059b          	addiw	a1,a0,-45
    80004534:	3eb33823          	sd	a1,1008(t1)
    80004538:	fd900393          	li	t2,-39
    8000453c:	00b38463          	beq	t2,a1,80004544 <inst_405>
    80004540:	ae5fb06f          	j	80000024 <rvtest_error>

0000000080004544 <inst_405>:
    80004544:	00600513          	li	a0,6
    80004548:	02d5059b          	addiw	a1,a0,45
    8000454c:	3eb33c23          	sd	a1,1016(t1)
    80004550:	03300393          	li	t2,51
    80004554:	00b38463          	beq	t2,a1,8000455c <inst_406>
    80004558:	acdfb06f          	j	80000024 <rvtest_error>

000000008000455c <inst_406>:
    8000455c:	00600513          	li	a0,6
    80004560:	0025059b          	addiw	a1,a0,2
    80004564:	40b33023          	sd	a1,1024(t1)
    80004568:	00800393          	li	t2,8
    8000456c:	00b38463          	beq	t2,a1,80004574 <inst_407>
    80004570:	ab5fb06f          	j	80000024 <rvtest_error>

0000000080004574 <inst_407>:
    80004574:	00600513          	li	a0,6
    80004578:	5545059b          	addiw	a1,a0,1364
    8000457c:	40b33423          	sd	a1,1032(t1)
    80004580:	55a00393          	li	t2,1370
    80004584:	00b38463          	beq	t2,a1,8000458c <inst_408>
    80004588:	a9dfb06f          	j	80000024 <rvtest_error>

000000008000458c <inst_408>:
    8000458c:	00600513          	li	a0,6
    80004590:	0005059b          	sext.w	a1,a0
    80004594:	40b33823          	sd	a1,1040(t1)
    80004598:	00600393          	li	t2,6
    8000459c:	00b38463          	beq	t2,a1,800045a4 <inst_409>
    800045a0:	a85fb06f          	j	80000024 <rvtest_error>

00000000800045a4 <inst_409>:
    800045a4:	00600513          	li	a0,6
    800045a8:	0045059b          	addiw	a1,a0,4
    800045ac:	40b33c23          	sd	a1,1048(t1)
    800045b0:	00a00393          	li	t2,10
    800045b4:	00b38463          	beq	t2,a1,800045bc <inst_410>
    800045b8:	a6dfb06f          	j	80000024 <rvtest_error>

00000000800045bc <inst_410>:
    800045bc:	00600513          	li	a0,6
    800045c0:	3325059b          	addiw	a1,a0,818
    800045c4:	42b33023          	sd	a1,1056(t1)
    800045c8:	33800393          	li	t2,824
    800045cc:	00b38463          	beq	t2,a1,800045d4 <inst_411>
    800045d0:	a55fb06f          	j	80000024 <rvtest_error>

00000000800045d4 <inst_411>:
    800045d4:	00600513          	li	a0,6
    800045d8:	6655059b          	addiw	a1,a0,1637
    800045dc:	42b33423          	sd	a1,1064(t1)
    800045e0:	66b00393          	li	t2,1643
    800045e4:	00b38463          	beq	t2,a1,800045ec <inst_412>
    800045e8:	a3dfb06f          	j	80000024 <rvtest_error>

00000000800045ec <inst_412>:
    800045ec:	00600513          	li	a0,6
    800045f0:	02c5059b          	addiw	a1,a0,44
    800045f4:	42b33823          	sd	a1,1072(t1)
    800045f8:	03200393          	li	t2,50
    800045fc:	00b38463          	beq	t2,a1,80004604 <inst_413>
    80004600:	a25fb06f          	j	80000024 <rvtest_error>

0000000080004604 <inst_413>:
    80004604:	00600513          	li	a0,6
    80004608:	5565059b          	addiw	a1,a0,1366
    8000460c:	42b33c23          	sd	a1,1080(t1)
    80004610:	55c00393          	li	t2,1372
    80004614:	00b38463          	beq	t2,a1,8000461c <inst_414>
    80004618:	a0dfb06f          	j	80000024 <rvtest_error>

000000008000461c <inst_414>:
    8000461c:	00600513          	li	a0,6
    80004620:	aab5059b          	addiw	a1,a0,-1365
    80004624:	44b33023          	sd	a1,1088(t1)
    80004628:	ab100393          	li	t2,-1359
    8000462c:	00b38463          	beq	t2,a1,80004634 <inst_415>
    80004630:	9f5fb06f          	j	80000024 <rvtest_error>

0000000080004634 <inst_415>:
    80004634:	00600513          	li	a0,6
    80004638:	0065059b          	addiw	a1,a0,6
    8000463c:	44b33423          	sd	a1,1096(t1)
    80004640:	00c00393          	li	t2,12
    80004644:	00b38463          	beq	t2,a1,8000464c <inst_416>
    80004648:	9ddfb06f          	j	80000024 <rvtest_error>

000000008000464c <inst_416>:
    8000464c:	00600513          	li	a0,6
    80004650:	3345059b          	addiw	a1,a0,820
    80004654:	44b33823          	sd	a1,1104(t1)
    80004658:	33a00393          	li	t2,826
    8000465c:	00b38463          	beq	t2,a1,80004664 <inst_417>
    80004660:	9c5fb06f          	j	80000024 <rvtest_error>

0000000080004664 <inst_417>:
    80004664:	00600513          	li	a0,6
    80004668:	6675059b          	addiw	a1,a0,1639
    8000466c:	44b33c23          	sd	a1,1112(t1)
    80004670:	66d00393          	li	t2,1645
    80004674:	00b38463          	beq	t2,a1,8000467c <inst_418>
    80004678:	9adfb06f          	j	80000024 <rvtest_error>

000000008000467c <inst_418>:
    8000467c:	00600513          	li	a0,6
    80004680:	fd45059b          	addiw	a1,a0,-44
    80004684:	46b33023          	sd	a1,1120(t1)
    80004688:	fda00393          	li	t2,-38
    8000468c:	00b38463          	beq	t2,a1,80004694 <inst_419>
    80004690:	995fb06f          	j	80000024 <rvtest_error>

0000000080004694 <inst_419>:
    80004694:	00600513          	li	a0,6
    80004698:	02e5059b          	addiw	a1,a0,46
    8000469c:	46b33423          	sd	a1,1128(t1)
    800046a0:	03400393          	li	t2,52
    800046a4:	00b38463          	beq	t2,a1,800046ac <inst_420>
    800046a8:	97dfb06f          	j	80000024 <rvtest_error>

00000000800046ac <inst_420>:
    800046ac:	33333537          	lui	a0,0x33333
    800046b0:	33350513          	addi	a0,a0,819 # 33333333 <absimmsh+0x27862586>
    800046b4:	00b51513          	slli	a0,a0,0xb
    800046b8:	19950513          	addi	a0,a0,409
    800046bc:	00b51513          	slli	a0,a0,0xb
    800046c0:	4cc50513          	addi	a0,a0,1228
    800046c4:	00a51513          	slli	a0,a0,0xa
    800046c8:	33450513          	addi	a0,a0,820
    800046cc:	0035059b          	addiw	a1,a0,3
    800046d0:	46b33823          	sd	a1,1136(t1)
    800046d4:	333333b7          	lui	t2,0x33333
    800046d8:	3373839b          	addiw	t2,t2,823 # 33333337 <absimmsh+0x2786258a>
    800046dc:	00b38463          	beq	t2,a1,800046e4 <inst_421>
    800046e0:	945fb06f          	j	80000024 <rvtest_error>

00000000800046e4 <inst_421>:
    800046e4:	33333537          	lui	a0,0x33333
    800046e8:	33350513          	addi	a0,a0,819 # 33333333 <absimmsh+0x27862586>
    800046ec:	00b51513          	slli	a0,a0,0xb
    800046f0:	19950513          	addi	a0,a0,409
    800046f4:	00b51513          	slli	a0,a0,0xb
    800046f8:	4cc50513          	addi	a0,a0,1228
    800046fc:	00a51513          	slli	a0,a0,0xa
    80004700:	33450513          	addi	a0,a0,820
    80004704:	5555059b          	addiw	a1,a0,1365
    80004708:	46b33c23          	sd	a1,1144(t1)
    8000470c:	333343b7          	lui	t2,0x33334
    80004710:	8893839b          	addiw	t2,t2,-1911 # 33333889 <absimmsh+0x27862adc>
    80004714:	00b38463          	beq	t2,a1,8000471c <inst_422>
    80004718:	90dfb06f          	j	80000024 <rvtest_error>

000000008000471c <inst_422>:
    8000471c:	33333537          	lui	a0,0x33333
    80004720:	33350513          	addi	a0,a0,819 # 33333333 <absimmsh+0x27862586>
    80004724:	00b51513          	slli	a0,a0,0xb
    80004728:	19950513          	addi	a0,a0,409
    8000472c:	00b51513          	slli	a0,a0,0xb
    80004730:	4cc50513          	addi	a0,a0,1228
    80004734:	00a51513          	slli	a0,a0,0xa
    80004738:	33450513          	addi	a0,a0,820
    8000473c:	aaa5059b          	addiw	a1,a0,-1366
    80004740:	48b33023          	sd	a1,1152(t1)
    80004744:	333333b7          	lui	t2,0x33333
    80004748:	dde3839b          	addiw	t2,t2,-546 # 33332dde <absimmsh+0x27862031>
    8000474c:	00b38463          	beq	t2,a1,80004754 <inst_423>
    80004750:	8d5fb06f          	j	80000024 <rvtest_error>

0000000080004754 <inst_423>:
    80004754:	33333537          	lui	a0,0x33333
    80004758:	33350513          	addi	a0,a0,819 # 33333333 <absimmsh+0x27862586>
    8000475c:	00b51513          	slli	a0,a0,0xb
    80004760:	19950513          	addi	a0,a0,409
    80004764:	00b51513          	slli	a0,a0,0xb
    80004768:	4cc50513          	addi	a0,a0,1228
    8000476c:	00a51513          	slli	a0,a0,0xa
    80004770:	33450513          	addi	a0,a0,820
    80004774:	0055059b          	addiw	a1,a0,5
    80004778:	48b33423          	sd	a1,1160(t1)
    8000477c:	333333b7          	lui	t2,0x33333
    80004780:	3393839b          	addiw	t2,t2,825 # 33333339 <absimmsh+0x2786258c>
    80004784:	00b38463          	beq	t2,a1,8000478c <inst_424>
    80004788:	89dfb06f          	j	80000024 <rvtest_error>

000000008000478c <inst_424>:
    8000478c:	33333537          	lui	a0,0x33333
    80004790:	33350513          	addi	a0,a0,819 # 33333333 <absimmsh+0x27862586>
    80004794:	00b51513          	slli	a0,a0,0xb
    80004798:	19950513          	addi	a0,a0,409
    8000479c:	00b51513          	slli	a0,a0,0xb
    800047a0:	4cc50513          	addi	a0,a0,1228
    800047a4:	00a51513          	slli	a0,a0,0xa
    800047a8:	33450513          	addi	a0,a0,820
    800047ac:	3335059b          	addiw	a1,a0,819
    800047b0:	48b33823          	sd	a1,1168(t1)
    800047b4:	333333b7          	lui	t2,0x33333
    800047b8:	6673839b          	addiw	t2,t2,1639 # 33333667 <absimmsh+0x278628ba>
    800047bc:	00b38463          	beq	t2,a1,800047c4 <inst_425>
    800047c0:	865fb06f          	j	80000024 <rvtest_error>

00000000800047c4 <inst_425>:
    800047c4:	33333537          	lui	a0,0x33333
    800047c8:	33350513          	addi	a0,a0,819 # 33333333 <absimmsh+0x27862586>
    800047cc:	00b51513          	slli	a0,a0,0xb
    800047d0:	19950513          	addi	a0,a0,409
    800047d4:	00b51513          	slli	a0,a0,0xb
    800047d8:	4cc50513          	addi	a0,a0,1228
    800047dc:	00a51513          	slli	a0,a0,0xa
    800047e0:	33450513          	addi	a0,a0,820
    800047e4:	6665059b          	addiw	a1,a0,1638
    800047e8:	48b33c23          	sd	a1,1176(t1)
    800047ec:	333343b7          	lui	t2,0x33334
    800047f0:	99a3839b          	addiw	t2,t2,-1638 # 3333399a <absimmsh+0x27862bed>
    800047f4:	00b38463          	beq	t2,a1,800047fc <inst_426>
    800047f8:	82dfb06f          	j	80000024 <rvtest_error>

00000000800047fc <inst_426>:
    800047fc:	33333537          	lui	a0,0x33333
    80004800:	33350513          	addi	a0,a0,819 # 33333333 <absimmsh+0x27862586>
    80004804:	00b51513          	slli	a0,a0,0xb
    80004808:	19950513          	addi	a0,a0,409
    8000480c:	00b51513          	slli	a0,a0,0xb
    80004810:	4cc50513          	addi	a0,a0,1228
    80004814:	00a51513          	slli	a0,a0,0xa
    80004818:	33450513          	addi	a0,a0,820
    8000481c:	fd35059b          	addiw	a1,a0,-45
    80004820:	4ab33023          	sd	a1,1184(t1)
    80004824:	333333b7          	lui	t2,0x33333
    80004828:	3073839b          	addiw	t2,t2,775 # 33333307 <absimmsh+0x2786255a>
    8000482c:	00b38463          	beq	t2,a1,80004834 <inst_427>
    80004830:	ff4fb06f          	j	80000024 <rvtest_error>

0000000080004834 <inst_427>:
    80004834:	33333537          	lui	a0,0x33333
    80004838:	33350513          	addi	a0,a0,819 # 33333333 <absimmsh+0x27862586>
    8000483c:	00b51513          	slli	a0,a0,0xb
    80004840:	19950513          	addi	a0,a0,409
    80004844:	00b51513          	slli	a0,a0,0xb
    80004848:	4cc50513          	addi	a0,a0,1228
    8000484c:	00a51513          	slli	a0,a0,0xa
    80004850:	33450513          	addi	a0,a0,820
    80004854:	02d5059b          	addiw	a1,a0,45
    80004858:	4ab33423          	sd	a1,1192(t1)
    8000485c:	333333b7          	lui	t2,0x33333
    80004860:	3613839b          	addiw	t2,t2,865 # 33333361 <absimmsh+0x278625b4>
    80004864:	00b38463          	beq	t2,a1,8000486c <inst_428>
    80004868:	fbcfb06f          	j	80000024 <rvtest_error>

000000008000486c <inst_428>:
    8000486c:	33333537          	lui	a0,0x33333
    80004870:	33350513          	addi	a0,a0,819 # 33333333 <absimmsh+0x27862586>
    80004874:	00b51513          	slli	a0,a0,0xb
    80004878:	19950513          	addi	a0,a0,409
    8000487c:	00b51513          	slli	a0,a0,0xb
    80004880:	4cc50513          	addi	a0,a0,1228
    80004884:	00a51513          	slli	a0,a0,0xa
    80004888:	33450513          	addi	a0,a0,820
    8000488c:	0025059b          	addiw	a1,a0,2
    80004890:	4ab33823          	sd	a1,1200(t1)
    80004894:	333333b7          	lui	t2,0x33333
    80004898:	3363839b          	addiw	t2,t2,822 # 33333336 <absimmsh+0x27862589>
    8000489c:	00b38463          	beq	t2,a1,800048a4 <inst_429>
    800048a0:	f84fb06f          	j	80000024 <rvtest_error>

00000000800048a4 <inst_429>:
    800048a4:	33333537          	lui	a0,0x33333
    800048a8:	33350513          	addi	a0,a0,819 # 33333333 <absimmsh+0x27862586>
    800048ac:	00b51513          	slli	a0,a0,0xb
    800048b0:	19950513          	addi	a0,a0,409
    800048b4:	00b51513          	slli	a0,a0,0xb
    800048b8:	4cc50513          	addi	a0,a0,1228
    800048bc:	00a51513          	slli	a0,a0,0xa
    800048c0:	33450513          	addi	a0,a0,820
    800048c4:	5545059b          	addiw	a1,a0,1364
    800048c8:	4ab33c23          	sd	a1,1208(t1)
    800048cc:	333343b7          	lui	t2,0x33334
    800048d0:	8883839b          	addiw	t2,t2,-1912 # 33333888 <absimmsh+0x27862adb>
    800048d4:	00b38463          	beq	t2,a1,800048dc <inst_430>
    800048d8:	f4cfb06f          	j	80000024 <rvtest_error>

00000000800048dc <inst_430>:
    800048dc:	33333537          	lui	a0,0x33333
    800048e0:	33350513          	addi	a0,a0,819 # 33333333 <absimmsh+0x27862586>
    800048e4:	00b51513          	slli	a0,a0,0xb
    800048e8:	19950513          	addi	a0,a0,409
    800048ec:	00b51513          	slli	a0,a0,0xb
    800048f0:	4cc50513          	addi	a0,a0,1228
    800048f4:	00a51513          	slli	a0,a0,0xa
    800048f8:	33450513          	addi	a0,a0,820
    800048fc:	0005059b          	sext.w	a1,a0
    80004900:	4cb33023          	sd	a1,1216(t1)
    80004904:	333333b7          	lui	t2,0x33333
    80004908:	3343839b          	addiw	t2,t2,820 # 33333334 <absimmsh+0x27862587>
    8000490c:	00b38463          	beq	t2,a1,80004914 <inst_431>
    80004910:	f14fb06f          	j	80000024 <rvtest_error>

0000000080004914 <inst_431>:
    80004914:	33333537          	lui	a0,0x33333
    80004918:	33350513          	addi	a0,a0,819 # 33333333 <absimmsh+0x27862586>
    8000491c:	00b51513          	slli	a0,a0,0xb
    80004920:	19950513          	addi	a0,a0,409
    80004924:	00b51513          	slli	a0,a0,0xb
    80004928:	4cc50513          	addi	a0,a0,1228
    8000492c:	00a51513          	slli	a0,a0,0xa
    80004930:	33450513          	addi	a0,a0,820
    80004934:	0045059b          	addiw	a1,a0,4
    80004938:	4cb33423          	sd	a1,1224(t1)
    8000493c:	333333b7          	lui	t2,0x33333
    80004940:	3383839b          	addiw	t2,t2,824 # 33333338 <absimmsh+0x2786258b>
    80004944:	00b38463          	beq	t2,a1,8000494c <inst_432>
    80004948:	edcfb06f          	j	80000024 <rvtest_error>

000000008000494c <inst_432>:
    8000494c:	33333537          	lui	a0,0x33333
    80004950:	33350513          	addi	a0,a0,819 # 33333333 <absimmsh+0x27862586>
    80004954:	00b51513          	slli	a0,a0,0xb
    80004958:	19950513          	addi	a0,a0,409
    8000495c:	00b51513          	slli	a0,a0,0xb
    80004960:	4cc50513          	addi	a0,a0,1228
    80004964:	00a51513          	slli	a0,a0,0xa
    80004968:	33450513          	addi	a0,a0,820
    8000496c:	3325059b          	addiw	a1,a0,818
    80004970:	4cb33823          	sd	a1,1232(t1)
    80004974:	333333b7          	lui	t2,0x33333
    80004978:	6663839b          	addiw	t2,t2,1638 # 33333666 <absimmsh+0x278628b9>
    8000497c:	00b38463          	beq	t2,a1,80004984 <inst_433>
    80004980:	ea4fb06f          	j	80000024 <rvtest_error>

0000000080004984 <inst_433>:
    80004984:	33333537          	lui	a0,0x33333
    80004988:	33350513          	addi	a0,a0,819 # 33333333 <absimmsh+0x27862586>
    8000498c:	00b51513          	slli	a0,a0,0xb
    80004990:	19950513          	addi	a0,a0,409
    80004994:	00b51513          	slli	a0,a0,0xb
    80004998:	4cc50513          	addi	a0,a0,1228
    8000499c:	00a51513          	slli	a0,a0,0xa
    800049a0:	33450513          	addi	a0,a0,820
    800049a4:	6655059b          	addiw	a1,a0,1637
    800049a8:	4cb33c23          	sd	a1,1240(t1)
    800049ac:	333343b7          	lui	t2,0x33334
    800049b0:	9993839b          	addiw	t2,t2,-1639 # 33333999 <absimmsh+0x27862bec>
    800049b4:	00b38463          	beq	t2,a1,800049bc <inst_434>
    800049b8:	e6cfb06f          	j	80000024 <rvtest_error>

00000000800049bc <inst_434>:
    800049bc:	33333537          	lui	a0,0x33333
    800049c0:	33350513          	addi	a0,a0,819 # 33333333 <absimmsh+0x27862586>
    800049c4:	00b51513          	slli	a0,a0,0xb
    800049c8:	19950513          	addi	a0,a0,409
    800049cc:	00b51513          	slli	a0,a0,0xb
    800049d0:	4cc50513          	addi	a0,a0,1228
    800049d4:	00a51513          	slli	a0,a0,0xa
    800049d8:	33450513          	addi	a0,a0,820
    800049dc:	02c5059b          	addiw	a1,a0,44
    800049e0:	4eb33023          	sd	a1,1248(t1)
    800049e4:	333333b7          	lui	t2,0x33333
    800049e8:	3603839b          	addiw	t2,t2,864 # 33333360 <absimmsh+0x278625b3>
    800049ec:	00b38463          	beq	t2,a1,800049f4 <inst_435>
    800049f0:	e34fb06f          	j	80000024 <rvtest_error>

00000000800049f4 <inst_435>:
    800049f4:	33333537          	lui	a0,0x33333
    800049f8:	33350513          	addi	a0,a0,819 # 33333333 <absimmsh+0x27862586>
    800049fc:	00b51513          	slli	a0,a0,0xb
    80004a00:	19950513          	addi	a0,a0,409
    80004a04:	00b51513          	slli	a0,a0,0xb
    80004a08:	4cc50513          	addi	a0,a0,1228
    80004a0c:	00a51513          	slli	a0,a0,0xa
    80004a10:	33450513          	addi	a0,a0,820
    80004a14:	5565059b          	addiw	a1,a0,1366
    80004a18:	4eb33423          	sd	a1,1256(t1)
    80004a1c:	333343b7          	lui	t2,0x33334
    80004a20:	88a3839b          	addiw	t2,t2,-1910 # 3333388a <absimmsh+0x27862add>
    80004a24:	00b38463          	beq	t2,a1,80004a2c <inst_436>
    80004a28:	dfcfb06f          	j	80000024 <rvtest_error>

0000000080004a2c <inst_436>:
    80004a2c:	33333537          	lui	a0,0x33333
    80004a30:	33350513          	addi	a0,a0,819 # 33333333 <absimmsh+0x27862586>
    80004a34:	00b51513          	slli	a0,a0,0xb
    80004a38:	19950513          	addi	a0,a0,409
    80004a3c:	00b51513          	slli	a0,a0,0xb
    80004a40:	4cc50513          	addi	a0,a0,1228
    80004a44:	00a51513          	slli	a0,a0,0xa
    80004a48:	33450513          	addi	a0,a0,820
    80004a4c:	aab5059b          	addiw	a1,a0,-1365
    80004a50:	4eb33823          	sd	a1,1264(t1)
    80004a54:	333333b7          	lui	t2,0x33333
    80004a58:	ddf3839b          	addiw	t2,t2,-545 # 33332ddf <absimmsh+0x27862032>
    80004a5c:	00b38463          	beq	t2,a1,80004a64 <inst_437>
    80004a60:	dc4fb06f          	j	80000024 <rvtest_error>

0000000080004a64 <inst_437>:
    80004a64:	33333537          	lui	a0,0x33333
    80004a68:	33350513          	addi	a0,a0,819 # 33333333 <absimmsh+0x27862586>
    80004a6c:	00b51513          	slli	a0,a0,0xb
    80004a70:	19950513          	addi	a0,a0,409
    80004a74:	00b51513          	slli	a0,a0,0xb
    80004a78:	4cc50513          	addi	a0,a0,1228
    80004a7c:	00a51513          	slli	a0,a0,0xa
    80004a80:	33450513          	addi	a0,a0,820
    80004a84:	0065059b          	addiw	a1,a0,6
    80004a88:	4eb33c23          	sd	a1,1272(t1)
    80004a8c:	333333b7          	lui	t2,0x33333
    80004a90:	33a3839b          	addiw	t2,t2,826 # 3333333a <absimmsh+0x2786258d>
    80004a94:	00b38463          	beq	t2,a1,80004a9c <inst_438>
    80004a98:	d8cfb06f          	j	80000024 <rvtest_error>

0000000080004a9c <inst_438>:
    80004a9c:	33333537          	lui	a0,0x33333
    80004aa0:	33350513          	addi	a0,a0,819 # 33333333 <absimmsh+0x27862586>
    80004aa4:	00b51513          	slli	a0,a0,0xb
    80004aa8:	19950513          	addi	a0,a0,409
    80004aac:	00b51513          	slli	a0,a0,0xb
    80004ab0:	4cc50513          	addi	a0,a0,1228
    80004ab4:	00a51513          	slli	a0,a0,0xa
    80004ab8:	33450513          	addi	a0,a0,820
    80004abc:	3345059b          	addiw	a1,a0,820
    80004ac0:	50b33023          	sd	a1,1280(t1)
    80004ac4:	333333b7          	lui	t2,0x33333
    80004ac8:	6683839b          	addiw	t2,t2,1640 # 33333668 <absimmsh+0x278628bb>
    80004acc:	00b38463          	beq	t2,a1,80004ad4 <inst_439>
    80004ad0:	d54fb06f          	j	80000024 <rvtest_error>

0000000080004ad4 <inst_439>:
    80004ad4:	33333537          	lui	a0,0x33333
    80004ad8:	33350513          	addi	a0,a0,819 # 33333333 <absimmsh+0x27862586>
    80004adc:	00b51513          	slli	a0,a0,0xb
    80004ae0:	19950513          	addi	a0,a0,409
    80004ae4:	00b51513          	slli	a0,a0,0xb
    80004ae8:	4cc50513          	addi	a0,a0,1228
    80004aec:	00a51513          	slli	a0,a0,0xa
    80004af0:	33450513          	addi	a0,a0,820
    80004af4:	6675059b          	addiw	a1,a0,1639
    80004af8:	50b33423          	sd	a1,1288(t1)
    80004afc:	333343b7          	lui	t2,0x33334
    80004b00:	99b3839b          	addiw	t2,t2,-1637 # 3333399b <absimmsh+0x27862bee>
    80004b04:	00b38463          	beq	t2,a1,80004b0c <inst_440>
    80004b08:	d1cfb06f          	j	80000024 <rvtest_error>

0000000080004b0c <inst_440>:
    80004b0c:	33333537          	lui	a0,0x33333
    80004b10:	33350513          	addi	a0,a0,819 # 33333333 <absimmsh+0x27862586>
    80004b14:	00b51513          	slli	a0,a0,0xb
    80004b18:	19950513          	addi	a0,a0,409
    80004b1c:	00b51513          	slli	a0,a0,0xb
    80004b20:	4cc50513          	addi	a0,a0,1228
    80004b24:	00a51513          	slli	a0,a0,0xa
    80004b28:	33450513          	addi	a0,a0,820
    80004b2c:	fd45059b          	addiw	a1,a0,-44
    80004b30:	50b33823          	sd	a1,1296(t1)
    80004b34:	333333b7          	lui	t2,0x33333
    80004b38:	3083839b          	addiw	t2,t2,776 # 33333308 <absimmsh+0x2786255b>
    80004b3c:	00b38463          	beq	t2,a1,80004b44 <inst_441>
    80004b40:	ce4fb06f          	j	80000024 <rvtest_error>

0000000080004b44 <inst_441>:
    80004b44:	33333537          	lui	a0,0x33333
    80004b48:	33350513          	addi	a0,a0,819 # 33333333 <absimmsh+0x27862586>
    80004b4c:	00b51513          	slli	a0,a0,0xb
    80004b50:	19950513          	addi	a0,a0,409
    80004b54:	00b51513          	slli	a0,a0,0xb
    80004b58:	4cc50513          	addi	a0,a0,1228
    80004b5c:	00a51513          	slli	a0,a0,0xa
    80004b60:	33450513          	addi	a0,a0,820
    80004b64:	02e5059b          	addiw	a1,a0,46
    80004b68:	50b33c23          	sd	a1,1304(t1)
    80004b6c:	333333b7          	lui	t2,0x33333
    80004b70:	3623839b          	addiw	t2,t2,866 # 33333362 <absimmsh+0x278625b5>
    80004b74:	00b38463          	beq	t2,a1,80004b7c <inst_442>
    80004b78:	cacfb06f          	j	80000024 <rvtest_error>

0000000080004b7c <inst_442>:
    80004b7c:	66666537          	lui	a0,0x66666
    80004b80:	66650513          	addi	a0,a0,1638 # 66666666 <absimmsh+0x5ab958b9>
    80004b84:	00b51513          	slli	a0,a0,0xb
    80004b88:	33350513          	addi	a0,a0,819
    80004b8c:	00b51513          	slli	a0,a0,0xb
    80004b90:	19950513          	addi	a0,a0,409
    80004b94:	00a51513          	slli	a0,a0,0xa
    80004b98:	26750513          	addi	a0,a0,615
    80004b9c:	0035059b          	addiw	a1,a0,3
    80004ba0:	52b33023          	sd	a1,1312(t1)
    80004ba4:	666663b7          	lui	t2,0x66666
    80004ba8:	66a3839b          	addiw	t2,t2,1642 # 6666666a <absimmsh+0x5ab958bd>
    80004bac:	00b38463          	beq	t2,a1,80004bb4 <inst_443>
    80004bb0:	c74fb06f          	j	80000024 <rvtest_error>

0000000080004bb4 <inst_443>:
    80004bb4:	66666537          	lui	a0,0x66666
    80004bb8:	66650513          	addi	a0,a0,1638 # 66666666 <absimmsh+0x5ab958b9>
    80004bbc:	00b51513          	slli	a0,a0,0xb
    80004bc0:	33350513          	addi	a0,a0,819
    80004bc4:	00b51513          	slli	a0,a0,0xb
    80004bc8:	19950513          	addi	a0,a0,409
    80004bcc:	00a51513          	slli	a0,a0,0xa
    80004bd0:	26750513          	addi	a0,a0,615
    80004bd4:	5555059b          	addiw	a1,a0,1365
    80004bd8:	52b33423          	sd	a1,1320(t1)
    80004bdc:	666673b7          	lui	t2,0x66667
    80004be0:	bbc3839b          	addiw	t2,t2,-1092 # 66666bbc <absimmsh+0x5ab95e0f>
    80004be4:	00b38463          	beq	t2,a1,80004bec <inst_444>
    80004be8:	c3cfb06f          	j	80000024 <rvtest_error>

0000000080004bec <inst_444>:
    80004bec:	66666537          	lui	a0,0x66666
    80004bf0:	66650513          	addi	a0,a0,1638 # 66666666 <absimmsh+0x5ab958b9>
    80004bf4:	00b51513          	slli	a0,a0,0xb
    80004bf8:	33350513          	addi	a0,a0,819
    80004bfc:	00b51513          	slli	a0,a0,0xb
    80004c00:	19950513          	addi	a0,a0,409
    80004c04:	00a51513          	slli	a0,a0,0xa
    80004c08:	26750513          	addi	a0,a0,615
    80004c0c:	aaa5059b          	addiw	a1,a0,-1366
    80004c10:	52b33823          	sd	a1,1328(t1)
    80004c14:	666663b7          	lui	t2,0x66666
    80004c18:	1113839b          	addiw	t2,t2,273 # 66666111 <absimmsh+0x5ab95364>
    80004c1c:	00b38463          	beq	t2,a1,80004c24 <inst_445>
    80004c20:	c04fb06f          	j	80000024 <rvtest_error>

0000000080004c24 <inst_445>:
    80004c24:	66666537          	lui	a0,0x66666
    80004c28:	66650513          	addi	a0,a0,1638 # 66666666 <absimmsh+0x5ab958b9>
    80004c2c:	00b51513          	slli	a0,a0,0xb
    80004c30:	33350513          	addi	a0,a0,819
    80004c34:	00b51513          	slli	a0,a0,0xb
    80004c38:	19950513          	addi	a0,a0,409
    80004c3c:	00a51513          	slli	a0,a0,0xa
    80004c40:	26750513          	addi	a0,a0,615
    80004c44:	0055059b          	addiw	a1,a0,5
    80004c48:	52b33c23          	sd	a1,1336(t1)
    80004c4c:	666663b7          	lui	t2,0x66666
    80004c50:	66c3839b          	addiw	t2,t2,1644 # 6666666c <absimmsh+0x5ab958bf>
    80004c54:	00b38463          	beq	t2,a1,80004c5c <inst_446>
    80004c58:	bccfb06f          	j	80000024 <rvtest_error>

0000000080004c5c <inst_446>:
    80004c5c:	66666537          	lui	a0,0x66666
    80004c60:	66650513          	addi	a0,a0,1638 # 66666666 <absimmsh+0x5ab958b9>
    80004c64:	00b51513          	slli	a0,a0,0xb
    80004c68:	33350513          	addi	a0,a0,819
    80004c6c:	00b51513          	slli	a0,a0,0xb
    80004c70:	19950513          	addi	a0,a0,409
    80004c74:	00a51513          	slli	a0,a0,0xa
    80004c78:	26750513          	addi	a0,a0,615
    80004c7c:	3335059b          	addiw	a1,a0,819
    80004c80:	54b33023          	sd	a1,1344(t1)
    80004c84:	666673b7          	lui	t2,0x66667
    80004c88:	99a3839b          	addiw	t2,t2,-1638 # 6666699a <absimmsh+0x5ab95bed>
    80004c8c:	00b38463          	beq	t2,a1,80004c94 <inst_447>
    80004c90:	b94fb06f          	j	80000024 <rvtest_error>

0000000080004c94 <inst_447>:
    80004c94:	66666537          	lui	a0,0x66666
    80004c98:	66650513          	addi	a0,a0,1638 # 66666666 <absimmsh+0x5ab958b9>
    80004c9c:	00b51513          	slli	a0,a0,0xb
    80004ca0:	33350513          	addi	a0,a0,819
    80004ca4:	00b51513          	slli	a0,a0,0xb
    80004ca8:	19950513          	addi	a0,a0,409
    80004cac:	00a51513          	slli	a0,a0,0xa
    80004cb0:	26750513          	addi	a0,a0,615
    80004cb4:	6665059b          	addiw	a1,a0,1638
    80004cb8:	54b33423          	sd	a1,1352(t1)
    80004cbc:	666673b7          	lui	t2,0x66667
    80004cc0:	ccd3839b          	addiw	t2,t2,-819 # 66666ccd <absimmsh+0x5ab95f20>
    80004cc4:	00b38463          	beq	t2,a1,80004ccc <inst_448>
    80004cc8:	b5cfb06f          	j	80000024 <rvtest_error>

0000000080004ccc <inst_448>:
    80004ccc:	66666537          	lui	a0,0x66666
    80004cd0:	66650513          	addi	a0,a0,1638 # 66666666 <absimmsh+0x5ab958b9>
    80004cd4:	00b51513          	slli	a0,a0,0xb
    80004cd8:	33350513          	addi	a0,a0,819
    80004cdc:	00b51513          	slli	a0,a0,0xb
    80004ce0:	19950513          	addi	a0,a0,409
    80004ce4:	00a51513          	slli	a0,a0,0xa
    80004ce8:	26750513          	addi	a0,a0,615
    80004cec:	fd35059b          	addiw	a1,a0,-45
    80004cf0:	54b33823          	sd	a1,1360(t1)
    80004cf4:	666663b7          	lui	t2,0x66666
    80004cf8:	63a3839b          	addiw	t2,t2,1594 # 6666663a <absimmsh+0x5ab9588d>
    80004cfc:	00b38463          	beq	t2,a1,80004d04 <inst_449>
    80004d00:	b24fb06f          	j	80000024 <rvtest_error>

0000000080004d04 <inst_449>:
    80004d04:	66666537          	lui	a0,0x66666
    80004d08:	66650513          	addi	a0,a0,1638 # 66666666 <absimmsh+0x5ab958b9>
    80004d0c:	00b51513          	slli	a0,a0,0xb
    80004d10:	33350513          	addi	a0,a0,819
    80004d14:	00b51513          	slli	a0,a0,0xb
    80004d18:	19950513          	addi	a0,a0,409
    80004d1c:	00a51513          	slli	a0,a0,0xa
    80004d20:	26750513          	addi	a0,a0,615
    80004d24:	02d5059b          	addiw	a1,a0,45
    80004d28:	54b33c23          	sd	a1,1368(t1)
    80004d2c:	666663b7          	lui	t2,0x66666
    80004d30:	6943839b          	addiw	t2,t2,1684 # 66666694 <absimmsh+0x5ab958e7>
    80004d34:	00b38463          	beq	t2,a1,80004d3c <inst_450>
    80004d38:	aecfb06f          	j	80000024 <rvtest_error>

0000000080004d3c <inst_450>:
    80004d3c:	66666537          	lui	a0,0x66666
    80004d40:	66650513          	addi	a0,a0,1638 # 66666666 <absimmsh+0x5ab958b9>
    80004d44:	00b51513          	slli	a0,a0,0xb
    80004d48:	33350513          	addi	a0,a0,819
    80004d4c:	00b51513          	slli	a0,a0,0xb
    80004d50:	19950513          	addi	a0,a0,409
    80004d54:	00a51513          	slli	a0,a0,0xa
    80004d58:	26750513          	addi	a0,a0,615
    80004d5c:	0025059b          	addiw	a1,a0,2
    80004d60:	56b33023          	sd	a1,1376(t1)
    80004d64:	666663b7          	lui	t2,0x66666
    80004d68:	6693839b          	addiw	t2,t2,1641 # 66666669 <absimmsh+0x5ab958bc>
    80004d6c:	00b38463          	beq	t2,a1,80004d74 <inst_451>
    80004d70:	ab4fb06f          	j	80000024 <rvtest_error>

0000000080004d74 <inst_451>:
    80004d74:	66666537          	lui	a0,0x66666
    80004d78:	66650513          	addi	a0,a0,1638 # 66666666 <absimmsh+0x5ab958b9>
    80004d7c:	00b51513          	slli	a0,a0,0xb
    80004d80:	33350513          	addi	a0,a0,819
    80004d84:	00b51513          	slli	a0,a0,0xb
    80004d88:	19950513          	addi	a0,a0,409
    80004d8c:	00a51513          	slli	a0,a0,0xa
    80004d90:	26750513          	addi	a0,a0,615
    80004d94:	5545059b          	addiw	a1,a0,1364
    80004d98:	56b33423          	sd	a1,1384(t1)
    80004d9c:	666673b7          	lui	t2,0x66667
    80004da0:	bbb3839b          	addiw	t2,t2,-1093 # 66666bbb <absimmsh+0x5ab95e0e>
    80004da4:	00b38463          	beq	t2,a1,80004dac <inst_452>
    80004da8:	a7cfb06f          	j	80000024 <rvtest_error>

0000000080004dac <inst_452>:
    80004dac:	66666537          	lui	a0,0x66666
    80004db0:	66650513          	addi	a0,a0,1638 # 66666666 <absimmsh+0x5ab958b9>
    80004db4:	00b51513          	slli	a0,a0,0xb
    80004db8:	33350513          	addi	a0,a0,819
    80004dbc:	00b51513          	slli	a0,a0,0xb
    80004dc0:	19950513          	addi	a0,a0,409
    80004dc4:	00a51513          	slli	a0,a0,0xa
    80004dc8:	26750513          	addi	a0,a0,615
    80004dcc:	0005059b          	sext.w	a1,a0
    80004dd0:	56b33823          	sd	a1,1392(t1)
    80004dd4:	666663b7          	lui	t2,0x66666
    80004dd8:	6673839b          	addiw	t2,t2,1639 # 66666667 <absimmsh+0x5ab958ba>
    80004ddc:	00b38463          	beq	t2,a1,80004de4 <inst_453>
    80004de0:	a44fb06f          	j	80000024 <rvtest_error>

0000000080004de4 <inst_453>:
    80004de4:	66666537          	lui	a0,0x66666
    80004de8:	66650513          	addi	a0,a0,1638 # 66666666 <absimmsh+0x5ab958b9>
    80004dec:	00b51513          	slli	a0,a0,0xb
    80004df0:	33350513          	addi	a0,a0,819
    80004df4:	00b51513          	slli	a0,a0,0xb
    80004df8:	19950513          	addi	a0,a0,409
    80004dfc:	00a51513          	slli	a0,a0,0xa
    80004e00:	26750513          	addi	a0,a0,615
    80004e04:	0045059b          	addiw	a1,a0,4
    80004e08:	56b33c23          	sd	a1,1400(t1)
    80004e0c:	666663b7          	lui	t2,0x66666
    80004e10:	66b3839b          	addiw	t2,t2,1643 # 6666666b <absimmsh+0x5ab958be>
    80004e14:	00b38463          	beq	t2,a1,80004e1c <inst_454>
    80004e18:	a0cfb06f          	j	80000024 <rvtest_error>

0000000080004e1c <inst_454>:
    80004e1c:	66666537          	lui	a0,0x66666
    80004e20:	66650513          	addi	a0,a0,1638 # 66666666 <absimmsh+0x5ab958b9>
    80004e24:	00b51513          	slli	a0,a0,0xb
    80004e28:	33350513          	addi	a0,a0,819
    80004e2c:	00b51513          	slli	a0,a0,0xb
    80004e30:	19950513          	addi	a0,a0,409
    80004e34:	00a51513          	slli	a0,a0,0xa
    80004e38:	26750513          	addi	a0,a0,615
    80004e3c:	3325059b          	addiw	a1,a0,818
    80004e40:	58b33023          	sd	a1,1408(t1)
    80004e44:	666673b7          	lui	t2,0x66667
    80004e48:	9993839b          	addiw	t2,t2,-1639 # 66666999 <absimmsh+0x5ab95bec>
    80004e4c:	00b38463          	beq	t2,a1,80004e54 <inst_455>
    80004e50:	9d4fb06f          	j	80000024 <rvtest_error>

0000000080004e54 <inst_455>:
    80004e54:	66666537          	lui	a0,0x66666
    80004e58:	66650513          	addi	a0,a0,1638 # 66666666 <absimmsh+0x5ab958b9>
    80004e5c:	00b51513          	slli	a0,a0,0xb
    80004e60:	33350513          	addi	a0,a0,819
    80004e64:	00b51513          	slli	a0,a0,0xb
    80004e68:	19950513          	addi	a0,a0,409
    80004e6c:	00a51513          	slli	a0,a0,0xa
    80004e70:	26750513          	addi	a0,a0,615
    80004e74:	6655059b          	addiw	a1,a0,1637
    80004e78:	58b33423          	sd	a1,1416(t1)
    80004e7c:	666673b7          	lui	t2,0x66667
    80004e80:	ccc3839b          	addiw	t2,t2,-820 # 66666ccc <absimmsh+0x5ab95f1f>
    80004e84:	00b38463          	beq	t2,a1,80004e8c <inst_456>
    80004e88:	99cfb06f          	j	80000024 <rvtest_error>

0000000080004e8c <inst_456>:
    80004e8c:	66666537          	lui	a0,0x66666
    80004e90:	66650513          	addi	a0,a0,1638 # 66666666 <absimmsh+0x5ab958b9>
    80004e94:	00b51513          	slli	a0,a0,0xb
    80004e98:	33350513          	addi	a0,a0,819
    80004e9c:	00b51513          	slli	a0,a0,0xb
    80004ea0:	19950513          	addi	a0,a0,409
    80004ea4:	00a51513          	slli	a0,a0,0xa
    80004ea8:	26750513          	addi	a0,a0,615
    80004eac:	02c5059b          	addiw	a1,a0,44
    80004eb0:	58b33823          	sd	a1,1424(t1)
    80004eb4:	666663b7          	lui	t2,0x66666
    80004eb8:	6933839b          	addiw	t2,t2,1683 # 66666693 <absimmsh+0x5ab958e6>
    80004ebc:	00b38463          	beq	t2,a1,80004ec4 <inst_457>
    80004ec0:	964fb06f          	j	80000024 <rvtest_error>

0000000080004ec4 <inst_457>:
    80004ec4:	66666537          	lui	a0,0x66666
    80004ec8:	66650513          	addi	a0,a0,1638 # 66666666 <absimmsh+0x5ab958b9>
    80004ecc:	00b51513          	slli	a0,a0,0xb
    80004ed0:	33350513          	addi	a0,a0,819
    80004ed4:	00b51513          	slli	a0,a0,0xb
    80004ed8:	19950513          	addi	a0,a0,409
    80004edc:	00a51513          	slli	a0,a0,0xa
    80004ee0:	26750513          	addi	a0,a0,615
    80004ee4:	5565059b          	addiw	a1,a0,1366
    80004ee8:	58b33c23          	sd	a1,1432(t1)
    80004eec:	666673b7          	lui	t2,0x66667
    80004ef0:	bbd3839b          	addiw	t2,t2,-1091 # 66666bbd <absimmsh+0x5ab95e10>
    80004ef4:	00b38463          	beq	t2,a1,80004efc <inst_458>
    80004ef8:	92cfb06f          	j	80000024 <rvtest_error>

0000000080004efc <inst_458>:
    80004efc:	66666537          	lui	a0,0x66666
    80004f00:	66650513          	addi	a0,a0,1638 # 66666666 <absimmsh+0x5ab958b9>
    80004f04:	00b51513          	slli	a0,a0,0xb
    80004f08:	33350513          	addi	a0,a0,819
    80004f0c:	00b51513          	slli	a0,a0,0xb
    80004f10:	19950513          	addi	a0,a0,409
    80004f14:	00a51513          	slli	a0,a0,0xa
    80004f18:	26750513          	addi	a0,a0,615
    80004f1c:	aab5059b          	addiw	a1,a0,-1365
    80004f20:	5ab33023          	sd	a1,1440(t1)
    80004f24:	666663b7          	lui	t2,0x66666
    80004f28:	1123839b          	addiw	t2,t2,274 # 66666112 <absimmsh+0x5ab95365>
    80004f2c:	00b38463          	beq	t2,a1,80004f34 <inst_459>
    80004f30:	8f4fb06f          	j	80000024 <rvtest_error>

0000000080004f34 <inst_459>:
    80004f34:	66666537          	lui	a0,0x66666
    80004f38:	66650513          	addi	a0,a0,1638 # 66666666 <absimmsh+0x5ab958b9>
    80004f3c:	00b51513          	slli	a0,a0,0xb
    80004f40:	33350513          	addi	a0,a0,819
    80004f44:	00b51513          	slli	a0,a0,0xb
    80004f48:	19950513          	addi	a0,a0,409
    80004f4c:	00a51513          	slli	a0,a0,0xa
    80004f50:	26750513          	addi	a0,a0,615
    80004f54:	0065059b          	addiw	a1,a0,6
    80004f58:	5ab33423          	sd	a1,1448(t1)
    80004f5c:	666663b7          	lui	t2,0x66666
    80004f60:	66d3839b          	addiw	t2,t2,1645 # 6666666d <absimmsh+0x5ab958c0>
    80004f64:	00b38463          	beq	t2,a1,80004f6c <inst_460>
    80004f68:	8bcfb06f          	j	80000024 <rvtest_error>

0000000080004f6c <inst_460>:
    80004f6c:	66666537          	lui	a0,0x66666
    80004f70:	66650513          	addi	a0,a0,1638 # 66666666 <absimmsh+0x5ab958b9>
    80004f74:	00b51513          	slli	a0,a0,0xb
    80004f78:	33350513          	addi	a0,a0,819
    80004f7c:	00b51513          	slli	a0,a0,0xb
    80004f80:	19950513          	addi	a0,a0,409
    80004f84:	00a51513          	slli	a0,a0,0xa
    80004f88:	26750513          	addi	a0,a0,615
    80004f8c:	3345059b          	addiw	a1,a0,820
    80004f90:	5ab33823          	sd	a1,1456(t1)
    80004f94:	666673b7          	lui	t2,0x66667
    80004f98:	99b3839b          	addiw	t2,t2,-1637 # 6666699b <absimmsh+0x5ab95bee>
    80004f9c:	00b38463          	beq	t2,a1,80004fa4 <inst_461>
    80004fa0:	884fb06f          	j	80000024 <rvtest_error>

0000000080004fa4 <inst_461>:
    80004fa4:	66666537          	lui	a0,0x66666
    80004fa8:	66650513          	addi	a0,a0,1638 # 66666666 <absimmsh+0x5ab958b9>
    80004fac:	00b51513          	slli	a0,a0,0xb
    80004fb0:	33350513          	addi	a0,a0,819
    80004fb4:	00b51513          	slli	a0,a0,0xb
    80004fb8:	19950513          	addi	a0,a0,409
    80004fbc:	00a51513          	slli	a0,a0,0xa
    80004fc0:	26750513          	addi	a0,a0,615
    80004fc4:	6675059b          	addiw	a1,a0,1639
    80004fc8:	5ab33c23          	sd	a1,1464(t1)
    80004fcc:	666673b7          	lui	t2,0x66667
    80004fd0:	cce3839b          	addiw	t2,t2,-818 # 66666cce <absimmsh+0x5ab95f21>
    80004fd4:	00b38463          	beq	t2,a1,80004fdc <inst_462>
    80004fd8:	84cfb06f          	j	80000024 <rvtest_error>

0000000080004fdc <inst_462>:
    80004fdc:	66666537          	lui	a0,0x66666
    80004fe0:	66650513          	addi	a0,a0,1638 # 66666666 <absimmsh+0x5ab958b9>
    80004fe4:	00b51513          	slli	a0,a0,0xb
    80004fe8:	33350513          	addi	a0,a0,819
    80004fec:	00b51513          	slli	a0,a0,0xb
    80004ff0:	19950513          	addi	a0,a0,409
    80004ff4:	00a51513          	slli	a0,a0,0xa
    80004ff8:	26750513          	addi	a0,a0,615
    80004ffc:	fd45059b          	addiw	a1,a0,-44
    80005000:	5cb33023          	sd	a1,1472(t1)
    80005004:	666663b7          	lui	t2,0x66666
    80005008:	63b3839b          	addiw	t2,t2,1595 # 6666663b <absimmsh+0x5ab9588e>
    8000500c:	00b38463          	beq	t2,a1,80005014 <inst_463>
    80005010:	814fb06f          	j	80000024 <rvtest_error>

0000000080005014 <inst_463>:
    80005014:	66666537          	lui	a0,0x66666
    80005018:	66650513          	addi	a0,a0,1638 # 66666666 <absimmsh+0x5ab958b9>
    8000501c:	00b51513          	slli	a0,a0,0xb
    80005020:	33350513          	addi	a0,a0,819
    80005024:	00b51513          	slli	a0,a0,0xb
    80005028:	19950513          	addi	a0,a0,409
    8000502c:	00a51513          	slli	a0,a0,0xa
    80005030:	26750513          	addi	a0,a0,615
    80005034:	02e5059b          	addiw	a1,a0,46
    80005038:	5cb33423          	sd	a1,1480(t1)
    8000503c:	666663b7          	lui	t2,0x66666
    80005040:	6953839b          	addiw	t2,t2,1685 # 66666695 <absimmsh+0x5ab958e8>
    80005044:	00b38463          	beq	t2,a1,8000504c <inst_464>
    80005048:	fddfa06f          	j	80000024 <rvtest_error>

000000008000504c <inst_464>:
    8000504c:	00000537          	lui	a0,0x0
    80005050:	fff50513          	addi	a0,a0,-1
    80005054:	00b51513          	slli	a0,a0,0xb
    80005058:	25750513          	addi	a0,a0,599
    8000505c:	00b51513          	slli	a0,a0,0xb
    80005060:	6c350513          	addi	a0,a0,1731
    80005064:	00a51513          	slli	a0,a0,0xa
    80005068:	0ce50513          	addi	a0,a0,206
    8000506c:	0035059b          	addiw	a1,a0,3
    80005070:	5cb33823          	sd	a1,1488(t1)
    80005074:	4afb13b7          	lui	t2,0x4afb1
    80005078:	cd13839b          	addiw	t2,t2,-815 # 4afb0cd1 <absimmsh+0x3f4dff24>
    8000507c:	00b38463          	beq	t2,a1,80005084 <inst_465>
    80005080:	fa5fa06f          	j	80000024 <rvtest_error>

0000000080005084 <inst_465>:
    80005084:	00000537          	lui	a0,0x0
    80005088:	fff50513          	addi	a0,a0,-1
    8000508c:	00b51513          	slli	a0,a0,0xb
    80005090:	25750513          	addi	a0,a0,599
    80005094:	00b51513          	slli	a0,a0,0xb
    80005098:	6c350513          	addi	a0,a0,1731
    8000509c:	00a51513          	slli	a0,a0,0xa
    800050a0:	0ce50513          	addi	a0,a0,206
    800050a4:	5555059b          	addiw	a1,a0,1365
    800050a8:	5cb33c23          	sd	a1,1496(t1)
    800050ac:	4afb13b7          	lui	t2,0x4afb1
    800050b0:	2233839b          	addiw	t2,t2,547 # 4afb1223 <absimmsh+0x3f4e0476>
    800050b4:	00b38463          	beq	t2,a1,800050bc <inst_466>
    800050b8:	f6dfa06f          	j	80000024 <rvtest_error>

00000000800050bc <inst_466>:
    800050bc:	00000537          	lui	a0,0x0
    800050c0:	fff50513          	addi	a0,a0,-1
    800050c4:	00b51513          	slli	a0,a0,0xb
    800050c8:	25750513          	addi	a0,a0,599
    800050cc:	00b51513          	slli	a0,a0,0xb
    800050d0:	6c350513          	addi	a0,a0,1731
    800050d4:	00a51513          	slli	a0,a0,0xa
    800050d8:	0ce50513          	addi	a0,a0,206
    800050dc:	aaa5059b          	addiw	a1,a0,-1366
    800050e0:	5eb33023          	sd	a1,1504(t1)
    800050e4:	4afb03b7          	lui	t2,0x4afb0
    800050e8:	7783839b          	addiw	t2,t2,1912 # 4afb0778 <absimmsh+0x3f4df9cb>
    800050ec:	00b38463          	beq	t2,a1,800050f4 <inst_467>
    800050f0:	f35fa06f          	j	80000024 <rvtest_error>

00000000800050f4 <inst_467>:
    800050f4:	00000537          	lui	a0,0x0
    800050f8:	fff50513          	addi	a0,a0,-1
    800050fc:	00b51513          	slli	a0,a0,0xb
    80005100:	25750513          	addi	a0,a0,599
    80005104:	00b51513          	slli	a0,a0,0xb
    80005108:	6c350513          	addi	a0,a0,1731
    8000510c:	00a51513          	slli	a0,a0,0xa
    80005110:	0ce50513          	addi	a0,a0,206
    80005114:	0055059b          	addiw	a1,a0,5
    80005118:	5eb33423          	sd	a1,1512(t1)
    8000511c:	4afb13b7          	lui	t2,0x4afb1
    80005120:	cd33839b          	addiw	t2,t2,-813 # 4afb0cd3 <absimmsh+0x3f4dff26>
    80005124:	00b38463          	beq	t2,a1,8000512c <inst_468>
    80005128:	efdfa06f          	j	80000024 <rvtest_error>

000000008000512c <inst_468>:
    8000512c:	00000537          	lui	a0,0x0
    80005130:	fff50513          	addi	a0,a0,-1
    80005134:	00b51513          	slli	a0,a0,0xb
    80005138:	25750513          	addi	a0,a0,599
    8000513c:	00b51513          	slli	a0,a0,0xb
    80005140:	6c350513          	addi	a0,a0,1731
    80005144:	00a51513          	slli	a0,a0,0xa
    80005148:	0ce50513          	addi	a0,a0,206
    8000514c:	3335059b          	addiw	a1,a0,819
    80005150:	5eb33823          	sd	a1,1520(t1)
    80005154:	4afb13b7          	lui	t2,0x4afb1
    80005158:	0013839b          	addiw	t2,t2,1 # 4afb1001 <absimmsh+0x3f4e0254>
    8000515c:	00b38463          	beq	t2,a1,80005164 <inst_469>
    80005160:	ec5fa06f          	j	80000024 <rvtest_error>

0000000080005164 <inst_469>:
    80005164:	00000537          	lui	a0,0x0
    80005168:	fff50513          	addi	a0,a0,-1
    8000516c:	00b51513          	slli	a0,a0,0xb
    80005170:	25750513          	addi	a0,a0,599
    80005174:	00b51513          	slli	a0,a0,0xb
    80005178:	6c350513          	addi	a0,a0,1731
    8000517c:	00a51513          	slli	a0,a0,0xa
    80005180:	0ce50513          	addi	a0,a0,206
    80005184:	6665059b          	addiw	a1,a0,1638
    80005188:	5eb33c23          	sd	a1,1528(t1)
    8000518c:	4afb13b7          	lui	t2,0x4afb1
    80005190:	3343839b          	addiw	t2,t2,820 # 4afb1334 <absimmsh+0x3f4e0587>
    80005194:	00b38463          	beq	t2,a1,8000519c <inst_470>
    80005198:	e8dfa06f          	j	80000024 <rvtest_error>

000000008000519c <inst_470>:
    8000519c:	00000537          	lui	a0,0x0
    800051a0:	fff50513          	addi	a0,a0,-1
    800051a4:	00b51513          	slli	a0,a0,0xb
    800051a8:	25750513          	addi	a0,a0,599
    800051ac:	00b51513          	slli	a0,a0,0xb
    800051b0:	6c350513          	addi	a0,a0,1731
    800051b4:	00a51513          	slli	a0,a0,0xa
    800051b8:	0ce50513          	addi	a0,a0,206
    800051bc:	fd35059b          	addiw	a1,a0,-45
    800051c0:	60b33023          	sd	a1,1536(t1)
    800051c4:	4afb13b7          	lui	t2,0x4afb1
    800051c8:	ca13839b          	addiw	t2,t2,-863 # 4afb0ca1 <absimmsh+0x3f4dfef4>
    800051cc:	00b38463          	beq	t2,a1,800051d4 <inst_471>
    800051d0:	e55fa06f          	j	80000024 <rvtest_error>

00000000800051d4 <inst_471>:
    800051d4:	00000537          	lui	a0,0x0
    800051d8:	fff50513          	addi	a0,a0,-1
    800051dc:	00b51513          	slli	a0,a0,0xb
    800051e0:	25750513          	addi	a0,a0,599
    800051e4:	00b51513          	slli	a0,a0,0xb
    800051e8:	6c350513          	addi	a0,a0,1731
    800051ec:	00a51513          	slli	a0,a0,0xa
    800051f0:	0ce50513          	addi	a0,a0,206
    800051f4:	02d5059b          	addiw	a1,a0,45
    800051f8:	60b33423          	sd	a1,1544(t1)
    800051fc:	4afb13b7          	lui	t2,0x4afb1
    80005200:	cfb3839b          	addiw	t2,t2,-773 # 4afb0cfb <absimmsh+0x3f4dff4e>
    80005204:	00b38463          	beq	t2,a1,8000520c <inst_472>
    80005208:	e1dfa06f          	j	80000024 <rvtest_error>

000000008000520c <inst_472>:
    8000520c:	00000537          	lui	a0,0x0
    80005210:	fff50513          	addi	a0,a0,-1
    80005214:	00b51513          	slli	a0,a0,0xb
    80005218:	25750513          	addi	a0,a0,599
    8000521c:	00b51513          	slli	a0,a0,0xb
    80005220:	6c350513          	addi	a0,a0,1731
    80005224:	00a51513          	slli	a0,a0,0xa
    80005228:	0ce50513          	addi	a0,a0,206
    8000522c:	0025059b          	addiw	a1,a0,2
    80005230:	60b33823          	sd	a1,1552(t1)
    80005234:	4afb13b7          	lui	t2,0x4afb1
    80005238:	cd03839b          	addiw	t2,t2,-816 # 4afb0cd0 <absimmsh+0x3f4dff23>
    8000523c:	00b38463          	beq	t2,a1,80005244 <inst_473>
    80005240:	de5fa06f          	j	80000024 <rvtest_error>

0000000080005244 <inst_473>:
    80005244:	00000537          	lui	a0,0x0
    80005248:	fff50513          	addi	a0,a0,-1
    8000524c:	00b51513          	slli	a0,a0,0xb
    80005250:	25750513          	addi	a0,a0,599
    80005254:	00b51513          	slli	a0,a0,0xb
    80005258:	6c350513          	addi	a0,a0,1731
    8000525c:	00a51513          	slli	a0,a0,0xa
    80005260:	0ce50513          	addi	a0,a0,206
    80005264:	5545059b          	addiw	a1,a0,1364
    80005268:	60b33c23          	sd	a1,1560(t1)
    8000526c:	4afb13b7          	lui	t2,0x4afb1
    80005270:	2223839b          	addiw	t2,t2,546 # 4afb1222 <absimmsh+0x3f4e0475>
    80005274:	00b38463          	beq	t2,a1,8000527c <inst_474>
    80005278:	dadfa06f          	j	80000024 <rvtest_error>

000000008000527c <inst_474>:
    8000527c:	00000537          	lui	a0,0x0
    80005280:	fff50513          	addi	a0,a0,-1
    80005284:	00b51513          	slli	a0,a0,0xb
    80005288:	25750513          	addi	a0,a0,599
    8000528c:	00b51513          	slli	a0,a0,0xb
    80005290:	6c350513          	addi	a0,a0,1731
    80005294:	00a51513          	slli	a0,a0,0xa
    80005298:	0ce50513          	addi	a0,a0,206
    8000529c:	0005059b          	sext.w	a1,a0
    800052a0:	62b33023          	sd	a1,1568(t1)
    800052a4:	4afb13b7          	lui	t2,0x4afb1
    800052a8:	cce3839b          	addiw	t2,t2,-818 # 4afb0cce <absimmsh+0x3f4dff21>
    800052ac:	00b38463          	beq	t2,a1,800052b4 <inst_475>
    800052b0:	d75fa06f          	j	80000024 <rvtest_error>

00000000800052b4 <inst_475>:
    800052b4:	00000537          	lui	a0,0x0
    800052b8:	fff50513          	addi	a0,a0,-1
    800052bc:	00b51513          	slli	a0,a0,0xb
    800052c0:	25750513          	addi	a0,a0,599
    800052c4:	00b51513          	slli	a0,a0,0xb
    800052c8:	6c350513          	addi	a0,a0,1731
    800052cc:	00a51513          	slli	a0,a0,0xa
    800052d0:	0ce50513          	addi	a0,a0,206
    800052d4:	0045059b          	addiw	a1,a0,4
    800052d8:	62b33423          	sd	a1,1576(t1)
    800052dc:	4afb13b7          	lui	t2,0x4afb1
    800052e0:	cd23839b          	addiw	t2,t2,-814 # 4afb0cd2 <absimmsh+0x3f4dff25>
    800052e4:	00b38463          	beq	t2,a1,800052ec <inst_476>
    800052e8:	d3dfa06f          	j	80000024 <rvtest_error>

00000000800052ec <inst_476>:
    800052ec:	00000537          	lui	a0,0x0
    800052f0:	fff50513          	addi	a0,a0,-1
    800052f4:	00b51513          	slli	a0,a0,0xb
    800052f8:	25750513          	addi	a0,a0,599
    800052fc:	00b51513          	slli	a0,a0,0xb
    80005300:	6c350513          	addi	a0,a0,1731
    80005304:	00a51513          	slli	a0,a0,0xa
    80005308:	0ce50513          	addi	a0,a0,206
    8000530c:	3325059b          	addiw	a1,a0,818
    80005310:	62b33823          	sd	a1,1584(t1)
    80005314:	4afb13b7          	lui	t2,0x4afb1
    80005318:	00b38463          	beq	t2,a1,80005320 <inst_477>
    8000531c:	d09fa06f          	j	80000024 <rvtest_error>

0000000080005320 <inst_477>:
    80005320:	00000537          	lui	a0,0x0
    80005324:	fff50513          	addi	a0,a0,-1
    80005328:	00b51513          	slli	a0,a0,0xb
    8000532c:	25750513          	addi	a0,a0,599
    80005330:	00b51513          	slli	a0,a0,0xb
    80005334:	6c350513          	addi	a0,a0,1731
    80005338:	00a51513          	slli	a0,a0,0xa
    8000533c:	0ce50513          	addi	a0,a0,206
    80005340:	6655059b          	addiw	a1,a0,1637
    80005344:	62b33c23          	sd	a1,1592(t1)
    80005348:	4afb13b7          	lui	t2,0x4afb1
    8000534c:	3333839b          	addiw	t2,t2,819 # 4afb1333 <absimmsh+0x3f4e0586>
    80005350:	00b38463          	beq	t2,a1,80005358 <inst_478>
    80005354:	cd1fa06f          	j	80000024 <rvtest_error>

0000000080005358 <inst_478>:
    80005358:	00000537          	lui	a0,0x0
    8000535c:	fff50513          	addi	a0,a0,-1
    80005360:	00b51513          	slli	a0,a0,0xb
    80005364:	25750513          	addi	a0,a0,599
    80005368:	00b51513          	slli	a0,a0,0xb
    8000536c:	6c350513          	addi	a0,a0,1731
    80005370:	00a51513          	slli	a0,a0,0xa
    80005374:	0ce50513          	addi	a0,a0,206
    80005378:	02c5059b          	addiw	a1,a0,44
    8000537c:	64b33023          	sd	a1,1600(t1)
    80005380:	4afb13b7          	lui	t2,0x4afb1
    80005384:	cfa3839b          	addiw	t2,t2,-774 # 4afb0cfa <absimmsh+0x3f4dff4d>
    80005388:	00b38463          	beq	t2,a1,80005390 <inst_479>
    8000538c:	c99fa06f          	j	80000024 <rvtest_error>

0000000080005390 <inst_479>:
    80005390:	00000537          	lui	a0,0x0
    80005394:	fff50513          	addi	a0,a0,-1
    80005398:	00b51513          	slli	a0,a0,0xb
    8000539c:	25750513          	addi	a0,a0,599
    800053a0:	00b51513          	slli	a0,a0,0xb
    800053a4:	6c350513          	addi	a0,a0,1731
    800053a8:	00a51513          	slli	a0,a0,0xa
    800053ac:	0ce50513          	addi	a0,a0,206
    800053b0:	5565059b          	addiw	a1,a0,1366
    800053b4:	64b33423          	sd	a1,1608(t1)
    800053b8:	4afb13b7          	lui	t2,0x4afb1
    800053bc:	2243839b          	addiw	t2,t2,548 # 4afb1224 <absimmsh+0x3f4e0477>
    800053c0:	00b38463          	beq	t2,a1,800053c8 <inst_480>
    800053c4:	c61fa06f          	j	80000024 <rvtest_error>

00000000800053c8 <inst_480>:
    800053c8:	00000537          	lui	a0,0x0
    800053cc:	fff50513          	addi	a0,a0,-1
    800053d0:	00b51513          	slli	a0,a0,0xb
    800053d4:	25750513          	addi	a0,a0,599
    800053d8:	00b51513          	slli	a0,a0,0xb
    800053dc:	6c350513          	addi	a0,a0,1731
    800053e0:	00a51513          	slli	a0,a0,0xa
    800053e4:	0ce50513          	addi	a0,a0,206
    800053e8:	aab5059b          	addiw	a1,a0,-1365
    800053ec:	64b33823          	sd	a1,1616(t1)
    800053f0:	4afb03b7          	lui	t2,0x4afb0
    800053f4:	7793839b          	addiw	t2,t2,1913 # 4afb0779 <absimmsh+0x3f4df9cc>
    800053f8:	00b38463          	beq	t2,a1,80005400 <inst_481>
    800053fc:	c29fa06f          	j	80000024 <rvtest_error>

0000000080005400 <inst_481>:
    80005400:	00000537          	lui	a0,0x0
    80005404:	fff50513          	addi	a0,a0,-1
    80005408:	00b51513          	slli	a0,a0,0xb
    8000540c:	25750513          	addi	a0,a0,599
    80005410:	00b51513          	slli	a0,a0,0xb
    80005414:	6c350513          	addi	a0,a0,1731
    80005418:	00a51513          	slli	a0,a0,0xa
    8000541c:	0ce50513          	addi	a0,a0,206
    80005420:	0065059b          	addiw	a1,a0,6
    80005424:	64b33c23          	sd	a1,1624(t1)
    80005428:	4afb13b7          	lui	t2,0x4afb1
    8000542c:	cd43839b          	addiw	t2,t2,-812 # 4afb0cd4 <absimmsh+0x3f4dff27>
    80005430:	00b38463          	beq	t2,a1,80005438 <inst_482>
    80005434:	bf1fa06f          	j	80000024 <rvtest_error>

0000000080005438 <inst_482>:
    80005438:	00000537          	lui	a0,0x0
    8000543c:	fff50513          	addi	a0,a0,-1
    80005440:	00b51513          	slli	a0,a0,0xb
    80005444:	25750513          	addi	a0,a0,599
    80005448:	00b51513          	slli	a0,a0,0xb
    8000544c:	6c350513          	addi	a0,a0,1731
    80005450:	00a51513          	slli	a0,a0,0xa
    80005454:	0ce50513          	addi	a0,a0,206
    80005458:	3345059b          	addiw	a1,a0,820
    8000545c:	66b33023          	sd	a1,1632(t1)
    80005460:	4afb13b7          	lui	t2,0x4afb1
    80005464:	0023839b          	addiw	t2,t2,2 # 4afb1002 <absimmsh+0x3f4e0255>
    80005468:	00b38463          	beq	t2,a1,80005470 <inst_483>
    8000546c:	bb9fa06f          	j	80000024 <rvtest_error>

0000000080005470 <inst_483>:
    80005470:	00000537          	lui	a0,0x0
    80005474:	fff50513          	addi	a0,a0,-1
    80005478:	00b51513          	slli	a0,a0,0xb
    8000547c:	25750513          	addi	a0,a0,599
    80005480:	00b51513          	slli	a0,a0,0xb
    80005484:	6c350513          	addi	a0,a0,1731
    80005488:	00a51513          	slli	a0,a0,0xa
    8000548c:	0ce50513          	addi	a0,a0,206
    80005490:	6675059b          	addiw	a1,a0,1639
    80005494:	66b33423          	sd	a1,1640(t1)
    80005498:	4afb13b7          	lui	t2,0x4afb1
    8000549c:	3353839b          	addiw	t2,t2,821 # 4afb1335 <absimmsh+0x3f4e0588>
    800054a0:	00b38463          	beq	t2,a1,800054a8 <inst_484>
    800054a4:	b81fa06f          	j	80000024 <rvtest_error>

00000000800054a8 <inst_484>:
    800054a8:	00000537          	lui	a0,0x0
    800054ac:	fff50513          	addi	a0,a0,-1
    800054b0:	00b51513          	slli	a0,a0,0xb
    800054b4:	25750513          	addi	a0,a0,599
    800054b8:	00b51513          	slli	a0,a0,0xb
    800054bc:	6c350513          	addi	a0,a0,1731
    800054c0:	00a51513          	slli	a0,a0,0xa
    800054c4:	0ce50513          	addi	a0,a0,206
    800054c8:	fd45059b          	addiw	a1,a0,-44
    800054cc:	66b33823          	sd	a1,1648(t1)
    800054d0:	4afb13b7          	lui	t2,0x4afb1
    800054d4:	ca23839b          	addiw	t2,t2,-862 # 4afb0ca2 <absimmsh+0x3f4dfef5>
    800054d8:	00b38463          	beq	t2,a1,800054e0 <inst_485>
    800054dc:	b49fa06f          	j	80000024 <rvtest_error>

00000000800054e0 <inst_485>:
    800054e0:	00000537          	lui	a0,0x0
    800054e4:	fff50513          	addi	a0,a0,-1
    800054e8:	00b51513          	slli	a0,a0,0xb
    800054ec:	25750513          	addi	a0,a0,599
    800054f0:	00b51513          	slli	a0,a0,0xb
    800054f4:	6c350513          	addi	a0,a0,1731
    800054f8:	00a51513          	slli	a0,a0,0xa
    800054fc:	0ce50513          	addi	a0,a0,206
    80005500:	02e5059b          	addiw	a1,a0,46
    80005504:	66b33c23          	sd	a1,1656(t1)
    80005508:	4afb13b7          	lui	t2,0x4afb1
    8000550c:	cfc3839b          	addiw	t2,t2,-772 # 4afb0cfc <absimmsh+0x3f4dff4f>
    80005510:	00b38463          	beq	t2,a1,80005518 <inst_486>
    80005514:	b11fa06f          	j	80000024 <rvtest_error>

0000000080005518 <inst_486>:
    80005518:	00000537          	lui	a0,0x0
    8000551c:	00050513          	mv	a0,a0
    80005520:	00b51513          	slli	a0,a0,0xb
    80005524:	5a850513          	addi	a0,a0,1448 # 5a8 <offset+0x2d0>
    80005528:	00b51513          	slli	a0,a0,0xb
    8000552c:	13c50513          	addi	a0,a0,316
    80005530:	00a51513          	slli	a0,a0,0xa
    80005534:	33450513          	addi	a0,a0,820
    80005538:	0035059b          	addiw	a1,a0,3
    8000553c:	68b33023          	sd	a1,1664(t1)
    80005540:	b504f3b7          	lui	t2,0xb504f
    80005544:	3373839b          	addiw	t2,t2,823 # ffffffffb504f337 <absimm+0xfffffffefa341867>
    80005548:	00b38463          	beq	t2,a1,80005550 <inst_487>
    8000554c:	ad9fa06f          	j	80000024 <rvtest_error>

0000000080005550 <inst_487>:
    80005550:	00000537          	lui	a0,0x0
    80005554:	00050513          	mv	a0,a0
    80005558:	00b51513          	slli	a0,a0,0xb
    8000555c:	5a850513          	addi	a0,a0,1448 # 5a8 <offset+0x2d0>
    80005560:	00b51513          	slli	a0,a0,0xb
    80005564:	13c50513          	addi	a0,a0,316
    80005568:	00a51513          	slli	a0,a0,0xa
    8000556c:	33450513          	addi	a0,a0,820
    80005570:	5555059b          	addiw	a1,a0,1365
    80005574:	68b33423          	sd	a1,1672(t1)
    80005578:	b50503b7          	lui	t2,0xb5050
    8000557c:	8893839b          	addiw	t2,t2,-1911 # ffffffffb504f889 <absimm+0xfffffffefa341db9>
    80005580:	00b38463          	beq	t2,a1,80005588 <inst_488>
    80005584:	aa1fa06f          	j	80000024 <rvtest_error>

0000000080005588 <inst_488>:
    80005588:	00000537          	lui	a0,0x0
    8000558c:	00050513          	mv	a0,a0
    80005590:	00b51513          	slli	a0,a0,0xb
    80005594:	5a850513          	addi	a0,a0,1448 # 5a8 <offset+0x2d0>
    80005598:	00b51513          	slli	a0,a0,0xb
    8000559c:	13c50513          	addi	a0,a0,316
    800055a0:	00a51513          	slli	a0,a0,0xa
    800055a4:	33450513          	addi	a0,a0,820
    800055a8:	aaa5059b          	addiw	a1,a0,-1366
    800055ac:	68b33823          	sd	a1,1680(t1)
    800055b0:	b504f3b7          	lui	t2,0xb504f
    800055b4:	dde3839b          	addiw	t2,t2,-546 # ffffffffb504edde <absimm+0xfffffffefa34130e>
    800055b8:	00b38463          	beq	t2,a1,800055c0 <inst_489>
    800055bc:	a69fa06f          	j	80000024 <rvtest_error>

00000000800055c0 <inst_489>:
    800055c0:	00000537          	lui	a0,0x0
    800055c4:	00050513          	mv	a0,a0
    800055c8:	00b51513          	slli	a0,a0,0xb
    800055cc:	5a850513          	addi	a0,a0,1448 # 5a8 <offset+0x2d0>
    800055d0:	00b51513          	slli	a0,a0,0xb
    800055d4:	13c50513          	addi	a0,a0,316
    800055d8:	00a51513          	slli	a0,a0,0xa
    800055dc:	33450513          	addi	a0,a0,820
    800055e0:	0055059b          	addiw	a1,a0,5
    800055e4:	68b33c23          	sd	a1,1688(t1)
    800055e8:	b504f3b7          	lui	t2,0xb504f
    800055ec:	3393839b          	addiw	t2,t2,825 # ffffffffb504f339 <absimm+0xfffffffefa341869>
    800055f0:	00b38463          	beq	t2,a1,800055f8 <inst_490>
    800055f4:	a31fa06f          	j	80000024 <rvtest_error>

00000000800055f8 <inst_490>:
    800055f8:	00000537          	lui	a0,0x0
    800055fc:	00050513          	mv	a0,a0
    80005600:	00b51513          	slli	a0,a0,0xb
    80005604:	5a850513          	addi	a0,a0,1448 # 5a8 <offset+0x2d0>
    80005608:	00b51513          	slli	a0,a0,0xb
    8000560c:	13c50513          	addi	a0,a0,316
    80005610:	00a51513          	slli	a0,a0,0xa
    80005614:	33450513          	addi	a0,a0,820
    80005618:	3335059b          	addiw	a1,a0,819
    8000561c:	6ab33023          	sd	a1,1696(t1)
    80005620:	b504f3b7          	lui	t2,0xb504f
    80005624:	6673839b          	addiw	t2,t2,1639 # ffffffffb504f667 <absimm+0xfffffffefa341b97>
    80005628:	00b38463          	beq	t2,a1,80005630 <inst_491>
    8000562c:	9f9fa06f          	j	80000024 <rvtest_error>

0000000080005630 <inst_491>:
    80005630:	00000537          	lui	a0,0x0
    80005634:	00050513          	mv	a0,a0
    80005638:	00b51513          	slli	a0,a0,0xb
    8000563c:	5a850513          	addi	a0,a0,1448 # 5a8 <offset+0x2d0>
    80005640:	00b51513          	slli	a0,a0,0xb
    80005644:	13c50513          	addi	a0,a0,316
    80005648:	00a51513          	slli	a0,a0,0xa
    8000564c:	33450513          	addi	a0,a0,820
    80005650:	6665059b          	addiw	a1,a0,1638
    80005654:	6ab33423          	sd	a1,1704(t1)
    80005658:	b50503b7          	lui	t2,0xb5050
    8000565c:	99a3839b          	addiw	t2,t2,-1638 # ffffffffb504f99a <absimm+0xfffffffefa341eca>
    80005660:	00b38463          	beq	t2,a1,80005668 <inst_492>
    80005664:	9c1fa06f          	j	80000024 <rvtest_error>

0000000080005668 <inst_492>:
    80005668:	00000537          	lui	a0,0x0
    8000566c:	00050513          	mv	a0,a0
    80005670:	00b51513          	slli	a0,a0,0xb
    80005674:	5a850513          	addi	a0,a0,1448 # 5a8 <offset+0x2d0>
    80005678:	00b51513          	slli	a0,a0,0xb
    8000567c:	13c50513          	addi	a0,a0,316
    80005680:	00a51513          	slli	a0,a0,0xa
    80005684:	33450513          	addi	a0,a0,820
    80005688:	fd35059b          	addiw	a1,a0,-45
    8000568c:	6ab33823          	sd	a1,1712(t1)
    80005690:	b504f3b7          	lui	t2,0xb504f
    80005694:	3073839b          	addiw	t2,t2,775 # ffffffffb504f307 <absimm+0xfffffffefa341837>
    80005698:	00b38463          	beq	t2,a1,800056a0 <inst_493>
    8000569c:	989fa06f          	j	80000024 <rvtest_error>

00000000800056a0 <inst_493>:
    800056a0:	00000537          	lui	a0,0x0
    800056a4:	00050513          	mv	a0,a0
    800056a8:	00b51513          	slli	a0,a0,0xb
    800056ac:	5a850513          	addi	a0,a0,1448 # 5a8 <offset+0x2d0>
    800056b0:	00b51513          	slli	a0,a0,0xb
    800056b4:	13c50513          	addi	a0,a0,316
    800056b8:	00a51513          	slli	a0,a0,0xa
    800056bc:	33450513          	addi	a0,a0,820
    800056c0:	02d5059b          	addiw	a1,a0,45
    800056c4:	6ab33c23          	sd	a1,1720(t1)
    800056c8:	b504f3b7          	lui	t2,0xb504f
    800056cc:	3613839b          	addiw	t2,t2,865 # ffffffffb504f361 <absimm+0xfffffffefa341891>
    800056d0:	00b38463          	beq	t2,a1,800056d8 <inst_494>
    800056d4:	951fa06f          	j	80000024 <rvtest_error>

00000000800056d8 <inst_494>:
    800056d8:	00000537          	lui	a0,0x0
    800056dc:	00050513          	mv	a0,a0
    800056e0:	00b51513          	slli	a0,a0,0xb
    800056e4:	5a850513          	addi	a0,a0,1448 # 5a8 <offset+0x2d0>
    800056e8:	00b51513          	slli	a0,a0,0xb
    800056ec:	13c50513          	addi	a0,a0,316
    800056f0:	00a51513          	slli	a0,a0,0xa
    800056f4:	33450513          	addi	a0,a0,820
    800056f8:	0025059b          	addiw	a1,a0,2
    800056fc:	6cb33023          	sd	a1,1728(t1)
    80005700:	b504f3b7          	lui	t2,0xb504f
    80005704:	3363839b          	addiw	t2,t2,822 # ffffffffb504f336 <absimm+0xfffffffefa341866>
    80005708:	00b38463          	beq	t2,a1,80005710 <inst_495>
    8000570c:	919fa06f          	j	80000024 <rvtest_error>

0000000080005710 <inst_495>:
    80005710:	00000537          	lui	a0,0x0
    80005714:	00050513          	mv	a0,a0
    80005718:	00b51513          	slli	a0,a0,0xb
    8000571c:	5a850513          	addi	a0,a0,1448 # 5a8 <offset+0x2d0>
    80005720:	00b51513          	slli	a0,a0,0xb
    80005724:	13c50513          	addi	a0,a0,316
    80005728:	00a51513          	slli	a0,a0,0xa
    8000572c:	33450513          	addi	a0,a0,820
    80005730:	5545059b          	addiw	a1,a0,1364
    80005734:	6cb33423          	sd	a1,1736(t1)
    80005738:	b50503b7          	lui	t2,0xb5050
    8000573c:	8883839b          	addiw	t2,t2,-1912 # ffffffffb504f888 <absimm+0xfffffffefa341db8>
    80005740:	00b38463          	beq	t2,a1,80005748 <inst_496>
    80005744:	8e1fa06f          	j	80000024 <rvtest_error>

0000000080005748 <inst_496>:
    80005748:	00000537          	lui	a0,0x0
    8000574c:	00050513          	mv	a0,a0
    80005750:	00b51513          	slli	a0,a0,0xb
    80005754:	5a850513          	addi	a0,a0,1448 # 5a8 <offset+0x2d0>
    80005758:	00b51513          	slli	a0,a0,0xb
    8000575c:	13c50513          	addi	a0,a0,316
    80005760:	00a51513          	slli	a0,a0,0xa
    80005764:	33450513          	addi	a0,a0,820
    80005768:	0005059b          	sext.w	a1,a0
    8000576c:	6cb33823          	sd	a1,1744(t1)
    80005770:	b504f3b7          	lui	t2,0xb504f
    80005774:	3343839b          	addiw	t2,t2,820 # ffffffffb504f334 <absimm+0xfffffffefa341864>
    80005778:	00b38463          	beq	t2,a1,80005780 <inst_497>
    8000577c:	8a9fa06f          	j	80000024 <rvtest_error>

0000000080005780 <inst_497>:
    80005780:	00000537          	lui	a0,0x0
    80005784:	00050513          	mv	a0,a0
    80005788:	00b51513          	slli	a0,a0,0xb
    8000578c:	5a850513          	addi	a0,a0,1448 # 5a8 <offset+0x2d0>
    80005790:	00b51513          	slli	a0,a0,0xb
    80005794:	13c50513          	addi	a0,a0,316
    80005798:	00a51513          	slli	a0,a0,0xa
    8000579c:	33450513          	addi	a0,a0,820
    800057a0:	0045059b          	addiw	a1,a0,4
    800057a4:	6cb33c23          	sd	a1,1752(t1)
    800057a8:	b504f3b7          	lui	t2,0xb504f
    800057ac:	3383839b          	addiw	t2,t2,824 # ffffffffb504f338 <absimm+0xfffffffefa341868>
    800057b0:	00b38463          	beq	t2,a1,800057b8 <inst_498>
    800057b4:	871fa06f          	j	80000024 <rvtest_error>

00000000800057b8 <inst_498>:
    800057b8:	00000537          	lui	a0,0x0
    800057bc:	00050513          	mv	a0,a0
    800057c0:	00b51513          	slli	a0,a0,0xb
    800057c4:	5a850513          	addi	a0,a0,1448 # 5a8 <offset+0x2d0>
    800057c8:	00b51513          	slli	a0,a0,0xb
    800057cc:	13c50513          	addi	a0,a0,316
    800057d0:	00a51513          	slli	a0,a0,0xa
    800057d4:	33450513          	addi	a0,a0,820
    800057d8:	3325059b          	addiw	a1,a0,818
    800057dc:	6eb33023          	sd	a1,1760(t1)
    800057e0:	b504f3b7          	lui	t2,0xb504f
    800057e4:	6663839b          	addiw	t2,t2,1638 # ffffffffb504f666 <absimm+0xfffffffefa341b96>
    800057e8:	00b38463          	beq	t2,a1,800057f0 <inst_499>
    800057ec:	839fa06f          	j	80000024 <rvtest_error>

00000000800057f0 <inst_499>:
    800057f0:	00000537          	lui	a0,0x0
    800057f4:	00050513          	mv	a0,a0
    800057f8:	00b51513          	slli	a0,a0,0xb
    800057fc:	5a850513          	addi	a0,a0,1448 # 5a8 <offset+0x2d0>
    80005800:	00b51513          	slli	a0,a0,0xb
    80005804:	13c50513          	addi	a0,a0,316
    80005808:	00a51513          	slli	a0,a0,0xa
    8000580c:	33450513          	addi	a0,a0,820
    80005810:	6655059b          	addiw	a1,a0,1637
    80005814:	6eb33423          	sd	a1,1768(t1)
    80005818:	b50503b7          	lui	t2,0xb5050
    8000581c:	9993839b          	addiw	t2,t2,-1639 # ffffffffb504f999 <absimm+0xfffffffefa341ec9>
    80005820:	00b38463          	beq	t2,a1,80005828 <inst_500>
    80005824:	801fa06f          	j	80000024 <rvtest_error>

0000000080005828 <inst_500>:
    80005828:	00000537          	lui	a0,0x0
    8000582c:	00050513          	mv	a0,a0
    80005830:	00b51513          	slli	a0,a0,0xb
    80005834:	5a850513          	addi	a0,a0,1448 # 5a8 <offset+0x2d0>
    80005838:	00b51513          	slli	a0,a0,0xb
    8000583c:	13c50513          	addi	a0,a0,316
    80005840:	00a51513          	slli	a0,a0,0xa
    80005844:	33450513          	addi	a0,a0,820
    80005848:	02c5059b          	addiw	a1,a0,44
    8000584c:	6eb33823          	sd	a1,1776(t1)
    80005850:	b504f3b7          	lui	t2,0xb504f
    80005854:	3603839b          	addiw	t2,t2,864 # ffffffffb504f360 <absimm+0xfffffffefa341890>
    80005858:	00b38463          	beq	t2,a1,80005860 <inst_501>
    8000585c:	fc8fa06f          	j	80000024 <rvtest_error>

0000000080005860 <inst_501>:
    80005860:	00000537          	lui	a0,0x0
    80005864:	00050513          	mv	a0,a0
    80005868:	00b51513          	slli	a0,a0,0xb
    8000586c:	5a850513          	addi	a0,a0,1448 # 5a8 <offset+0x2d0>
    80005870:	00b51513          	slli	a0,a0,0xb
    80005874:	13c50513          	addi	a0,a0,316
    80005878:	00a51513          	slli	a0,a0,0xa
    8000587c:	33450513          	addi	a0,a0,820
    80005880:	5565059b          	addiw	a1,a0,1366
    80005884:	6eb33c23          	sd	a1,1784(t1)
    80005888:	b50503b7          	lui	t2,0xb5050
    8000588c:	88a3839b          	addiw	t2,t2,-1910 # ffffffffb504f88a <absimm+0xfffffffefa341dba>
    80005890:	00b38463          	beq	t2,a1,80005898 <inst_502>
    80005894:	f90fa06f          	j	80000024 <rvtest_error>

0000000080005898 <inst_502>:
    80005898:	00000537          	lui	a0,0x0
    8000589c:	00050513          	mv	a0,a0
    800058a0:	00b51513          	slli	a0,a0,0xb
    800058a4:	5a850513          	addi	a0,a0,1448 # 5a8 <offset+0x2d0>
    800058a8:	00b51513          	slli	a0,a0,0xb
    800058ac:	13c50513          	addi	a0,a0,316
    800058b0:	00a51513          	slli	a0,a0,0xa
    800058b4:	33450513          	addi	a0,a0,820
    800058b8:	aab5059b          	addiw	a1,a0,-1365
    800058bc:	70b33023          	sd	a1,1792(t1)
    800058c0:	b504f3b7          	lui	t2,0xb504f
    800058c4:	ddf3839b          	addiw	t2,t2,-545 # ffffffffb504eddf <absimm+0xfffffffefa34130f>
    800058c8:	00b38463          	beq	t2,a1,800058d0 <inst_503>
    800058cc:	f58fa06f          	j	80000024 <rvtest_error>

00000000800058d0 <inst_503>:
    800058d0:	00000537          	lui	a0,0x0
    800058d4:	00050513          	mv	a0,a0
    800058d8:	00b51513          	slli	a0,a0,0xb
    800058dc:	5a850513          	addi	a0,a0,1448 # 5a8 <offset+0x2d0>
    800058e0:	00b51513          	slli	a0,a0,0xb
    800058e4:	13c50513          	addi	a0,a0,316
    800058e8:	00a51513          	slli	a0,a0,0xa
    800058ec:	33450513          	addi	a0,a0,820
    800058f0:	0065059b          	addiw	a1,a0,6
    800058f4:	70b33423          	sd	a1,1800(t1)
    800058f8:	b504f3b7          	lui	t2,0xb504f
    800058fc:	33a3839b          	addiw	t2,t2,826 # ffffffffb504f33a <absimm+0xfffffffefa34186a>
    80005900:	00b38463          	beq	t2,a1,80005908 <inst_504>
    80005904:	f20fa06f          	j	80000024 <rvtest_error>

0000000080005908 <inst_504>:
    80005908:	00000537          	lui	a0,0x0
    8000590c:	00050513          	mv	a0,a0
    80005910:	00b51513          	slli	a0,a0,0xb
    80005914:	5a850513          	addi	a0,a0,1448 # 5a8 <offset+0x2d0>
    80005918:	00b51513          	slli	a0,a0,0xb
    8000591c:	13c50513          	addi	a0,a0,316
    80005920:	00a51513          	slli	a0,a0,0xa
    80005924:	33450513          	addi	a0,a0,820
    80005928:	3345059b          	addiw	a1,a0,820
    8000592c:	70b33823          	sd	a1,1808(t1)
    80005930:	b504f3b7          	lui	t2,0xb504f
    80005934:	6683839b          	addiw	t2,t2,1640 # ffffffffb504f668 <absimm+0xfffffffefa341b98>
    80005938:	00b38463          	beq	t2,a1,80005940 <inst_505>
    8000593c:	ee8fa06f          	j	80000024 <rvtest_error>

0000000080005940 <inst_505>:
    80005940:	00000537          	lui	a0,0x0
    80005944:	00050513          	mv	a0,a0
    80005948:	00b51513          	slli	a0,a0,0xb
    8000594c:	5a850513          	addi	a0,a0,1448 # 5a8 <offset+0x2d0>
    80005950:	00b51513          	slli	a0,a0,0xb
    80005954:	13c50513          	addi	a0,a0,316
    80005958:	00a51513          	slli	a0,a0,0xa
    8000595c:	33450513          	addi	a0,a0,820
    80005960:	6675059b          	addiw	a1,a0,1639
    80005964:	70b33c23          	sd	a1,1816(t1)
    80005968:	b50503b7          	lui	t2,0xb5050
    8000596c:	99b3839b          	addiw	t2,t2,-1637 # ffffffffb504f99b <absimm+0xfffffffefa341ecb>
    80005970:	00b38463          	beq	t2,a1,80005978 <inst_506>
    80005974:	eb0fa06f          	j	80000024 <rvtest_error>

0000000080005978 <inst_506>:
    80005978:	00000537          	lui	a0,0x0
    8000597c:	00050513          	mv	a0,a0
    80005980:	00b51513          	slli	a0,a0,0xb
    80005984:	5a850513          	addi	a0,a0,1448 # 5a8 <offset+0x2d0>
    80005988:	00b51513          	slli	a0,a0,0xb
    8000598c:	13c50513          	addi	a0,a0,316
    80005990:	00a51513          	slli	a0,a0,0xa
    80005994:	33450513          	addi	a0,a0,820
    80005998:	fd45059b          	addiw	a1,a0,-44
    8000599c:	72b33023          	sd	a1,1824(t1)
    800059a0:	b504f3b7          	lui	t2,0xb504f
    800059a4:	3083839b          	addiw	t2,t2,776 # ffffffffb504f308 <absimm+0xfffffffefa341838>
    800059a8:	00b38463          	beq	t2,a1,800059b0 <inst_507>
    800059ac:	e78fa06f          	j	80000024 <rvtest_error>

00000000800059b0 <inst_507>:
    800059b0:	00000537          	lui	a0,0x0
    800059b4:	00050513          	mv	a0,a0
    800059b8:	00b51513          	slli	a0,a0,0xb
    800059bc:	5a850513          	addi	a0,a0,1448 # 5a8 <offset+0x2d0>
    800059c0:	00b51513          	slli	a0,a0,0xb
    800059c4:	13c50513          	addi	a0,a0,316
    800059c8:	00a51513          	slli	a0,a0,0xa
    800059cc:	33450513          	addi	a0,a0,820
    800059d0:	02e5059b          	addiw	a1,a0,46
    800059d4:	72b33423          	sd	a1,1832(t1)
    800059d8:	b504f3b7          	lui	t2,0xb504f
    800059dc:	3623839b          	addiw	t2,t2,866 # ffffffffb504f362 <absimm+0xfffffffefa341892>
    800059e0:	00b38463          	beq	t2,a1,800059e8 <inst_508>
    800059e4:	e40fa06f          	j	80000024 <rvtest_error>

00000000800059e8 <inst_508>:
    800059e8:	00000513          	li	a0,0
    800059ec:	5545059b          	addiw	a1,a0,1364
    800059f0:	72b33823          	sd	a1,1840(t1)
    800059f4:	55400393          	li	t2,1364
    800059f8:	00b38463          	beq	t2,a1,80005a00 <inst_509>
    800059fc:	e28fa06f          	j	80000024 <rvtest_error>

0000000080005a00 <inst_509>:
    80005a00:	00000513          	li	a0,0
    80005a04:	0005059b          	sext.w	a1,a0
    80005a08:	72b33c23          	sd	a1,1848(t1)
    80005a0c:	00000393          	li	t2,0
    80005a10:	00b38463          	beq	t2,a1,80005a18 <inst_510>
    80005a14:	e10fa06f          	j	80000024 <rvtest_error>

0000000080005a18 <inst_510>:
    80005a18:	00000513          	li	a0,0
    80005a1c:	0045059b          	addiw	a1,a0,4
    80005a20:	74b33023          	sd	a1,1856(t1)
    80005a24:	00400393          	li	t2,4
    80005a28:	00b38463          	beq	t2,a1,80005a30 <inst_511>
    80005a2c:	df8fa06f          	j	80000024 <rvtest_error>

0000000080005a30 <inst_511>:
    80005a30:	00000513          	li	a0,0
    80005a34:	3325059b          	addiw	a1,a0,818
    80005a38:	74b33423          	sd	a1,1864(t1)
    80005a3c:	33200393          	li	t2,818
    80005a40:	00b38463          	beq	t2,a1,80005a48 <inst_512>
    80005a44:	de0fa06f          	j	80000024 <rvtest_error>

0000000080005a48 <inst_512>:
    80005a48:	00000513          	li	a0,0
    80005a4c:	6655059b          	addiw	a1,a0,1637
    80005a50:	74b33823          	sd	a1,1872(t1)
    80005a54:	66500393          	li	t2,1637
    80005a58:	00b38463          	beq	t2,a1,80005a60 <inst_513>
    80005a5c:	dc8fa06f          	j	80000024 <rvtest_error>

0000000080005a60 <inst_513>:
    80005a60:	00000513          	li	a0,0
    80005a64:	02c5059b          	addiw	a1,a0,44
    80005a68:	74b33c23          	sd	a1,1880(t1)
    80005a6c:	02c00393          	li	t2,44
    80005a70:	00b38463          	beq	t2,a1,80005a78 <inst_514>
    80005a74:	db0fa06f          	j	80000024 <rvtest_error>

0000000080005a78 <inst_514>:
    80005a78:	00000513          	li	a0,0
    80005a7c:	5565059b          	addiw	a1,a0,1366
    80005a80:	76b33023          	sd	a1,1888(t1)
    80005a84:	55600393          	li	t2,1366
    80005a88:	00b38463          	beq	t2,a1,80005a90 <inst_515>
    80005a8c:	d98fa06f          	j	80000024 <rvtest_error>

0000000080005a90 <inst_515>:
    80005a90:	00000513          	li	a0,0
    80005a94:	aab5059b          	addiw	a1,a0,-1365
    80005a98:	76b33423          	sd	a1,1896(t1)
    80005a9c:	aab00393          	li	t2,-1365
    80005aa0:	00b38463          	beq	t2,a1,80005aa8 <inst_516>
    80005aa4:	d80fa06f          	j	80000024 <rvtest_error>

0000000080005aa8 <inst_516>:
    80005aa8:	00000513          	li	a0,0
    80005aac:	0065059b          	addiw	a1,a0,6
    80005ab0:	76b33823          	sd	a1,1904(t1)
    80005ab4:	00600393          	li	t2,6
    80005ab8:	00b38463          	beq	t2,a1,80005ac0 <inst_517>
    80005abc:	d68fa06f          	j	80000024 <rvtest_error>

0000000080005ac0 <inst_517>:
    80005ac0:	00000513          	li	a0,0
    80005ac4:	3345059b          	addiw	a1,a0,820
    80005ac8:	76b33c23          	sd	a1,1912(t1)
    80005acc:	33400393          	li	t2,820
    80005ad0:	00b38463          	beq	t2,a1,80005ad8 <inst_518>
    80005ad4:	d50fa06f          	j	80000024 <rvtest_error>

0000000080005ad8 <inst_518>:
    80005ad8:	00000513          	li	a0,0
    80005adc:	6675059b          	addiw	a1,a0,1639
    80005ae0:	78b33023          	sd	a1,1920(t1)
    80005ae4:	66700393          	li	t2,1639
    80005ae8:	00b38463          	beq	t2,a1,80005af0 <inst_519>
    80005aec:	d38fa06f          	j	80000024 <rvtest_error>

0000000080005af0 <inst_519>:
    80005af0:	00000513          	li	a0,0
    80005af4:	fd45059b          	addiw	a1,a0,-44
    80005af8:	78b33423          	sd	a1,1928(t1)
    80005afc:	fd400393          	li	t2,-44
    80005b00:	00b38463          	beq	t2,a1,80005b08 <inst_520>
    80005b04:	d20fa06f          	j	80000024 <rvtest_error>

0000000080005b08 <inst_520>:
    80005b08:	00000513          	li	a0,0
    80005b0c:	02e5059b          	addiw	a1,a0,46
    80005b10:	78b33823          	sd	a1,1936(t1)
    80005b14:	02e00393          	li	t2,46
    80005b18:	00b38463          	beq	t2,a1,80005b20 <inst_521>
    80005b1c:	d08fa06f          	j	80000024 <rvtest_error>

0000000080005b20 <inst_521>:
    80005b20:	00400513          	li	a0,4
    80005b24:	0035059b          	addiw	a1,a0,3
    80005b28:	78b33c23          	sd	a1,1944(t1)
    80005b2c:	00700393          	li	t2,7
    80005b30:	00b38463          	beq	t2,a1,80005b38 <inst_522>
    80005b34:	cf0fa06f          	j	80000024 <rvtest_error>

0000000080005b38 <inst_522>:
    80005b38:	00400513          	li	a0,4
    80005b3c:	5555059b          	addiw	a1,a0,1365
    80005b40:	7ab33023          	sd	a1,1952(t1)
    80005b44:	55900393          	li	t2,1369
    80005b48:	00b38463          	beq	t2,a1,80005b50 <inst_523>
    80005b4c:	cd8fa06f          	j	80000024 <rvtest_error>

0000000080005b50 <inst_523>:
    80005b50:	00400513          	li	a0,4
    80005b54:	aaa5059b          	addiw	a1,a0,-1366
    80005b58:	7ab33423          	sd	a1,1960(t1)
    80005b5c:	aae00393          	li	t2,-1362
    80005b60:	00b38463          	beq	t2,a1,80005b68 <inst_524>
    80005b64:	cc0fa06f          	j	80000024 <rvtest_error>

0000000080005b68 <inst_524>:
    80005b68:	00400513          	li	a0,4
    80005b6c:	0055059b          	addiw	a1,a0,5
    80005b70:	7ab33823          	sd	a1,1968(t1)
    80005b74:	00900393          	li	t2,9
    80005b78:	00b38463          	beq	t2,a1,80005b80 <inst_525>
    80005b7c:	ca8fa06f          	j	80000024 <rvtest_error>

0000000080005b80 <inst_525>:
    80005b80:	00400513          	li	a0,4
    80005b84:	3335059b          	addiw	a1,a0,819
    80005b88:	7ab33c23          	sd	a1,1976(t1)
    80005b8c:	33700393          	li	t2,823
    80005b90:	00b38463          	beq	t2,a1,80005b98 <inst_526>
    80005b94:	c90fa06f          	j	80000024 <rvtest_error>

0000000080005b98 <inst_526>:
    80005b98:	00400513          	li	a0,4
    80005b9c:	6665059b          	addiw	a1,a0,1638
    80005ba0:	7cb33023          	sd	a1,1984(t1)
    80005ba4:	66a00393          	li	t2,1642
    80005ba8:	00b38463          	beq	t2,a1,80005bb0 <inst_527>
    80005bac:	c78fa06f          	j	80000024 <rvtest_error>

0000000080005bb0 <inst_527>:
    80005bb0:	00400513          	li	a0,4
    80005bb4:	fd35059b          	addiw	a1,a0,-45
    80005bb8:	7cb33423          	sd	a1,1992(t1)
    80005bbc:	fd700393          	li	t2,-41
    80005bc0:	00b38463          	beq	t2,a1,80005bc8 <inst_528>
    80005bc4:	c60fa06f          	j	80000024 <rvtest_error>

0000000080005bc8 <inst_528>:
    80005bc8:	00400513          	li	a0,4
    80005bcc:	02d5059b          	addiw	a1,a0,45
    80005bd0:	7cb33823          	sd	a1,2000(t1)
    80005bd4:	03100393          	li	t2,49
    80005bd8:	00b38463          	beq	t2,a1,80005be0 <inst_529>
    80005bdc:	c48fa06f          	j	80000024 <rvtest_error>

0000000080005be0 <inst_529>:
    80005be0:	00400513          	li	a0,4
    80005be4:	0025059b          	addiw	a1,a0,2
    80005be8:	7cb33c23          	sd	a1,2008(t1)
    80005bec:	00600393          	li	t2,6
    80005bf0:	00b38463          	beq	t2,a1,80005bf8 <inst_530>
    80005bf4:	c30fa06f          	j	80000024 <rvtest_error>

0000000080005bf8 <inst_530>:
    80005bf8:	00400513          	li	a0,4
    80005bfc:	5545059b          	addiw	a1,a0,1364
    80005c00:	7eb33023          	sd	a1,2016(t1)
    80005c04:	55800393          	li	t2,1368
    80005c08:	00b38463          	beq	t2,a1,80005c10 <inst_531>
    80005c0c:	c18fa06f          	j	80000024 <rvtest_error>

0000000080005c10 <inst_531>:
    80005c10:	00400513          	li	a0,4
    80005c14:	0005059b          	sext.w	a1,a0
    80005c18:	7eb33423          	sd	a1,2024(t1)
    80005c1c:	00400393          	li	t2,4
    80005c20:	00b38463          	beq	t2,a1,80005c28 <inst_532>
    80005c24:	c00fa06f          	j	80000024 <rvtest_error>

0000000080005c28 <inst_532>:
    80005c28:	00400513          	li	a0,4
    80005c2c:	0045059b          	addiw	a1,a0,4
    80005c30:	7eb33823          	sd	a1,2032(t1)
    80005c34:	00800393          	li	t2,8
    80005c38:	00b38463          	beq	t2,a1,80005c40 <inst_533>
    80005c3c:	be8fa06f          	j	80000024 <rvtest_error>

0000000080005c40 <inst_533>:
    80005c40:	00400513          	li	a0,4
    80005c44:	3325059b          	addiw	a1,a0,818
    80005c48:	7eb33c23          	sd	a1,2040(t1)
    80005c4c:	33600393          	li	t2,822
    80005c50:	00b38463          	beq	t2,a1,80005c58 <inst_533+0x18>
    80005c54:	bd0fa06f          	j	80000024 <rvtest_error>
    80005c58:	00000013          	nop
    80005c5c:	00000013          	nop
    80005c60:	00003317          	auipc	t1,0x3
    80005c64:	45830313          	addi	t1,t1,1112 # 800090b8 <signature_x6_2>
    80005c68:	00000013          	nop
    80005c6c:	00000013          	nop
    80005c70:	00000013          	nop
    80005c74:	00000013          	nop
    80005c78:	00000013          	nop
    80005c7c:	00000013          	nop

0000000080005c80 <inst_534>:
    80005c80:	00400513          	li	a0,4
    80005c84:	6655059b          	addiw	a1,a0,1637
    80005c88:	00b33023          	sd	a1,0(t1)
    80005c8c:	66900393          	li	t2,1641
    80005c90:	00b38463          	beq	t2,a1,80005c98 <inst_535>
    80005c94:	b90fa06f          	j	80000024 <rvtest_error>

0000000080005c98 <inst_535>:
    80005c98:	00400513          	li	a0,4
    80005c9c:	02c5059b          	addiw	a1,a0,44
    80005ca0:	00b33423          	sd	a1,8(t1)
    80005ca4:	03000393          	li	t2,48
    80005ca8:	00b38463          	beq	t2,a1,80005cb0 <inst_536>
    80005cac:	b78fa06f          	j	80000024 <rvtest_error>

0000000080005cb0 <inst_536>:
    80005cb0:	00400513          	li	a0,4
    80005cb4:	5565059b          	addiw	a1,a0,1366
    80005cb8:	00b33823          	sd	a1,16(t1)
    80005cbc:	55a00393          	li	t2,1370
    80005cc0:	00b38463          	beq	t2,a1,80005cc8 <inst_537>
    80005cc4:	b60fa06f          	j	80000024 <rvtest_error>

0000000080005cc8 <inst_537>:
    80005cc8:	00400513          	li	a0,4
    80005ccc:	aab5059b          	addiw	a1,a0,-1365
    80005cd0:	00b33c23          	sd	a1,24(t1)
    80005cd4:	aaf00393          	li	t2,-1361
    80005cd8:	00b38463          	beq	t2,a1,80005ce0 <inst_538>
    80005cdc:	b48fa06f          	j	80000024 <rvtest_error>

0000000080005ce0 <inst_538>:
    80005ce0:	00400513          	li	a0,4
    80005ce4:	0065059b          	addiw	a1,a0,6
    80005ce8:	02b33023          	sd	a1,32(t1)
    80005cec:	00a00393          	li	t2,10
    80005cf0:	00b38463          	beq	t2,a1,80005cf8 <inst_539>
    80005cf4:	b30fa06f          	j	80000024 <rvtest_error>

0000000080005cf8 <inst_539>:
    80005cf8:	00400513          	li	a0,4
    80005cfc:	3345059b          	addiw	a1,a0,820
    80005d00:	02b33423          	sd	a1,40(t1)
    80005d04:	33800393          	li	t2,824
    80005d08:	00b38463          	beq	t2,a1,80005d10 <inst_540>
    80005d0c:	b18fa06f          	j	80000024 <rvtest_error>

0000000080005d10 <inst_540>:
    80005d10:	00400513          	li	a0,4
    80005d14:	6675059b          	addiw	a1,a0,1639
    80005d18:	02b33823          	sd	a1,48(t1)
    80005d1c:	66b00393          	li	t2,1643
    80005d20:	00b38463          	beq	t2,a1,80005d28 <inst_541>
    80005d24:	b00fa06f          	j	80000024 <rvtest_error>

0000000080005d28 <inst_541>:
    80005d28:	00400513          	li	a0,4
    80005d2c:	fd45059b          	addiw	a1,a0,-44
    80005d30:	02b33c23          	sd	a1,56(t1)
    80005d34:	fd800393          	li	t2,-40
    80005d38:	00b38463          	beq	t2,a1,80005d40 <inst_542>
    80005d3c:	ae8fa06f          	j	80000024 <rvtest_error>

0000000080005d40 <inst_542>:
    80005d40:	00400513          	li	a0,4
    80005d44:	02e5059b          	addiw	a1,a0,46
    80005d48:	04b33023          	sd	a1,64(t1)
    80005d4c:	03200393          	li	t2,50
    80005d50:	00b38463          	beq	t2,a1,80005d58 <inst_543>
    80005d54:	ad0fa06f          	j	80000024 <rvtest_error>

0000000080005d58 <inst_543>:
    80005d58:	33333537          	lui	a0,0x33333
    80005d5c:	33350513          	addi	a0,a0,819 # 33333333 <absimmsh+0x27862586>
    80005d60:	00b51513          	slli	a0,a0,0xb
    80005d64:	19950513          	addi	a0,a0,409
    80005d68:	00b51513          	slli	a0,a0,0xb
    80005d6c:	4cc50513          	addi	a0,a0,1228
    80005d70:	00a51513          	slli	a0,a0,0xa
    80005d74:	33250513          	addi	a0,a0,818
    80005d78:	0035059b          	addiw	a1,a0,3
    80005d7c:	04b33423          	sd	a1,72(t1)
    80005d80:	333333b7          	lui	t2,0x33333
    80005d84:	3353839b          	addiw	t2,t2,821 # 33333335 <absimmsh+0x27862588>
    80005d88:	00b38463          	beq	t2,a1,80005d90 <inst_544>
    80005d8c:	a98fa06f          	j	80000024 <rvtest_error>

0000000080005d90 <inst_544>:
    80005d90:	33333537          	lui	a0,0x33333
    80005d94:	33350513          	addi	a0,a0,819 # 33333333 <absimmsh+0x27862586>
    80005d98:	00b51513          	slli	a0,a0,0xb
    80005d9c:	19950513          	addi	a0,a0,409
    80005da0:	00b51513          	slli	a0,a0,0xb
    80005da4:	4cc50513          	addi	a0,a0,1228
    80005da8:	00a51513          	slli	a0,a0,0xa
    80005dac:	33250513          	addi	a0,a0,818
    80005db0:	5555059b          	addiw	a1,a0,1365
    80005db4:	04b33823          	sd	a1,80(t1)
    80005db8:	333343b7          	lui	t2,0x33334
    80005dbc:	8873839b          	addiw	t2,t2,-1913 # 33333887 <absimmsh+0x27862ada>
    80005dc0:	00b38463          	beq	t2,a1,80005dc8 <inst_545>
    80005dc4:	a60fa06f          	j	80000024 <rvtest_error>

0000000080005dc8 <inst_545>:
    80005dc8:	33333537          	lui	a0,0x33333
    80005dcc:	33350513          	addi	a0,a0,819 # 33333333 <absimmsh+0x27862586>
    80005dd0:	00b51513          	slli	a0,a0,0xb
    80005dd4:	19950513          	addi	a0,a0,409
    80005dd8:	00b51513          	slli	a0,a0,0xb
    80005ddc:	4cc50513          	addi	a0,a0,1228
    80005de0:	00a51513          	slli	a0,a0,0xa
    80005de4:	33250513          	addi	a0,a0,818
    80005de8:	aaa5059b          	addiw	a1,a0,-1366
    80005dec:	04b33c23          	sd	a1,88(t1)
    80005df0:	333333b7          	lui	t2,0x33333
    80005df4:	ddc3839b          	addiw	t2,t2,-548 # 33332ddc <absimmsh+0x2786202f>
    80005df8:	00b38463          	beq	t2,a1,80005e00 <inst_546>
    80005dfc:	a28fa06f          	j	80000024 <rvtest_error>

0000000080005e00 <inst_546>:
    80005e00:	33333537          	lui	a0,0x33333
    80005e04:	33350513          	addi	a0,a0,819 # 33333333 <absimmsh+0x27862586>
    80005e08:	00b51513          	slli	a0,a0,0xb
    80005e0c:	19950513          	addi	a0,a0,409
    80005e10:	00b51513          	slli	a0,a0,0xb
    80005e14:	4cc50513          	addi	a0,a0,1228
    80005e18:	00a51513          	slli	a0,a0,0xa
    80005e1c:	33250513          	addi	a0,a0,818
    80005e20:	0055059b          	addiw	a1,a0,5
    80005e24:	06b33023          	sd	a1,96(t1)
    80005e28:	333333b7          	lui	t2,0x33333
    80005e2c:	3373839b          	addiw	t2,t2,823 # 33333337 <absimmsh+0x2786258a>
    80005e30:	00b38463          	beq	t2,a1,80005e38 <inst_547>
    80005e34:	9f0fa06f          	j	80000024 <rvtest_error>

0000000080005e38 <inst_547>:
    80005e38:	33333537          	lui	a0,0x33333
    80005e3c:	33350513          	addi	a0,a0,819 # 33333333 <absimmsh+0x27862586>
    80005e40:	00b51513          	slli	a0,a0,0xb
    80005e44:	19950513          	addi	a0,a0,409
    80005e48:	00b51513          	slli	a0,a0,0xb
    80005e4c:	4cc50513          	addi	a0,a0,1228
    80005e50:	00a51513          	slli	a0,a0,0xa
    80005e54:	33250513          	addi	a0,a0,818
    80005e58:	3335059b          	addiw	a1,a0,819
    80005e5c:	06b33423          	sd	a1,104(t1)
    80005e60:	333333b7          	lui	t2,0x33333
    80005e64:	6653839b          	addiw	t2,t2,1637 # 33333665 <absimmsh+0x278628b8>
    80005e68:	00b38463          	beq	t2,a1,80005e70 <inst_548>
    80005e6c:	9b8fa06f          	j	80000024 <rvtest_error>

0000000080005e70 <inst_548>:
    80005e70:	33333537          	lui	a0,0x33333
    80005e74:	33350513          	addi	a0,a0,819 # 33333333 <absimmsh+0x27862586>
    80005e78:	00b51513          	slli	a0,a0,0xb
    80005e7c:	19950513          	addi	a0,a0,409
    80005e80:	00b51513          	slli	a0,a0,0xb
    80005e84:	4cc50513          	addi	a0,a0,1228
    80005e88:	00a51513          	slli	a0,a0,0xa
    80005e8c:	33250513          	addi	a0,a0,818
    80005e90:	6665059b          	addiw	a1,a0,1638
    80005e94:	06b33823          	sd	a1,112(t1)
    80005e98:	333343b7          	lui	t2,0x33334
    80005e9c:	9983839b          	addiw	t2,t2,-1640 # 33333998 <absimmsh+0x27862beb>
    80005ea0:	00b38463          	beq	t2,a1,80005ea8 <inst_549>
    80005ea4:	980fa06f          	j	80000024 <rvtest_error>

0000000080005ea8 <inst_549>:
    80005ea8:	33333537          	lui	a0,0x33333
    80005eac:	33350513          	addi	a0,a0,819 # 33333333 <absimmsh+0x27862586>
    80005eb0:	00b51513          	slli	a0,a0,0xb
    80005eb4:	19950513          	addi	a0,a0,409
    80005eb8:	00b51513          	slli	a0,a0,0xb
    80005ebc:	4cc50513          	addi	a0,a0,1228
    80005ec0:	00a51513          	slli	a0,a0,0xa
    80005ec4:	33250513          	addi	a0,a0,818
    80005ec8:	fd35059b          	addiw	a1,a0,-45
    80005ecc:	06b33c23          	sd	a1,120(t1)
    80005ed0:	333333b7          	lui	t2,0x33333
    80005ed4:	3053839b          	addiw	t2,t2,773 # 33333305 <absimmsh+0x27862558>
    80005ed8:	00b38463          	beq	t2,a1,80005ee0 <inst_550>
    80005edc:	948fa06f          	j	80000024 <rvtest_error>

0000000080005ee0 <inst_550>:
    80005ee0:	33333537          	lui	a0,0x33333
    80005ee4:	33350513          	addi	a0,a0,819 # 33333333 <absimmsh+0x27862586>
    80005ee8:	00b51513          	slli	a0,a0,0xb
    80005eec:	19950513          	addi	a0,a0,409
    80005ef0:	00b51513          	slli	a0,a0,0xb
    80005ef4:	4cc50513          	addi	a0,a0,1228
    80005ef8:	00a51513          	slli	a0,a0,0xa
    80005efc:	33250513          	addi	a0,a0,818
    80005f00:	02d5059b          	addiw	a1,a0,45
    80005f04:	08b33023          	sd	a1,128(t1)
    80005f08:	333333b7          	lui	t2,0x33333
    80005f0c:	35f3839b          	addiw	t2,t2,863 # 3333335f <absimmsh+0x278625b2>
    80005f10:	00b38463          	beq	t2,a1,80005f18 <inst_551>
    80005f14:	910fa06f          	j	80000024 <rvtest_error>

0000000080005f18 <inst_551>:
    80005f18:	33333537          	lui	a0,0x33333
    80005f1c:	33350513          	addi	a0,a0,819 # 33333333 <absimmsh+0x27862586>
    80005f20:	00b51513          	slli	a0,a0,0xb
    80005f24:	19950513          	addi	a0,a0,409
    80005f28:	00b51513          	slli	a0,a0,0xb
    80005f2c:	4cc50513          	addi	a0,a0,1228
    80005f30:	00a51513          	slli	a0,a0,0xa
    80005f34:	33250513          	addi	a0,a0,818
    80005f38:	0025059b          	addiw	a1,a0,2
    80005f3c:	08b33423          	sd	a1,136(t1)
    80005f40:	333333b7          	lui	t2,0x33333
    80005f44:	3343839b          	addiw	t2,t2,820 # 33333334 <absimmsh+0x27862587>
    80005f48:	00b38463          	beq	t2,a1,80005f50 <inst_552>
    80005f4c:	8d8fa06f          	j	80000024 <rvtest_error>

0000000080005f50 <inst_552>:
    80005f50:	33333537          	lui	a0,0x33333
    80005f54:	33350513          	addi	a0,a0,819 # 33333333 <absimmsh+0x27862586>
    80005f58:	00b51513          	slli	a0,a0,0xb
    80005f5c:	19950513          	addi	a0,a0,409
    80005f60:	00b51513          	slli	a0,a0,0xb
    80005f64:	4cc50513          	addi	a0,a0,1228
    80005f68:	00a51513          	slli	a0,a0,0xa
    80005f6c:	33250513          	addi	a0,a0,818
    80005f70:	5545059b          	addiw	a1,a0,1364
    80005f74:	08b33823          	sd	a1,144(t1)
    80005f78:	333343b7          	lui	t2,0x33334
    80005f7c:	8863839b          	addiw	t2,t2,-1914 # 33333886 <absimmsh+0x27862ad9>
    80005f80:	00b38463          	beq	t2,a1,80005f88 <inst_553>
    80005f84:	8a0fa06f          	j	80000024 <rvtest_error>

0000000080005f88 <inst_553>:
    80005f88:	33333537          	lui	a0,0x33333
    80005f8c:	33350513          	addi	a0,a0,819 # 33333333 <absimmsh+0x27862586>
    80005f90:	00b51513          	slli	a0,a0,0xb
    80005f94:	19950513          	addi	a0,a0,409
    80005f98:	00b51513          	slli	a0,a0,0xb
    80005f9c:	4cc50513          	addi	a0,a0,1228
    80005fa0:	00a51513          	slli	a0,a0,0xa
    80005fa4:	33250513          	addi	a0,a0,818
    80005fa8:	0005059b          	sext.w	a1,a0
    80005fac:	08b33c23          	sd	a1,152(t1)
    80005fb0:	333333b7          	lui	t2,0x33333
    80005fb4:	3323839b          	addiw	t2,t2,818 # 33333332 <absimmsh+0x27862585>
    80005fb8:	00b38463          	beq	t2,a1,80005fc0 <inst_554>
    80005fbc:	868fa06f          	j	80000024 <rvtest_error>

0000000080005fc0 <inst_554>:
    80005fc0:	33333537          	lui	a0,0x33333
    80005fc4:	33350513          	addi	a0,a0,819 # 33333333 <absimmsh+0x27862586>
    80005fc8:	00b51513          	slli	a0,a0,0xb
    80005fcc:	19950513          	addi	a0,a0,409
    80005fd0:	00b51513          	slli	a0,a0,0xb
    80005fd4:	4cc50513          	addi	a0,a0,1228
    80005fd8:	00a51513          	slli	a0,a0,0xa
    80005fdc:	33250513          	addi	a0,a0,818
    80005fe0:	0045059b          	addiw	a1,a0,4
    80005fe4:	0ab33023          	sd	a1,160(t1)
    80005fe8:	333333b7          	lui	t2,0x33333
    80005fec:	3363839b          	addiw	t2,t2,822 # 33333336 <absimmsh+0x27862589>
    80005ff0:	00b38463          	beq	t2,a1,80005ff8 <inst_555>
    80005ff4:	830fa06f          	j	80000024 <rvtest_error>

0000000080005ff8 <inst_555>:
    80005ff8:	33333537          	lui	a0,0x33333
    80005ffc:	33350513          	addi	a0,a0,819 # 33333333 <absimmsh+0x27862586>
    80006000:	00b51513          	slli	a0,a0,0xb
    80006004:	19950513          	addi	a0,a0,409
    80006008:	00b51513          	slli	a0,a0,0xb
    8000600c:	4cc50513          	addi	a0,a0,1228
    80006010:	00a51513          	slli	a0,a0,0xa
    80006014:	33250513          	addi	a0,a0,818
    80006018:	3325059b          	addiw	a1,a0,818
    8000601c:	0ab33423          	sd	a1,168(t1)
    80006020:	333333b7          	lui	t2,0x33333
    80006024:	6643839b          	addiw	t2,t2,1636 # 33333664 <absimmsh+0x278628b7>
    80006028:	00b38463          	beq	t2,a1,80006030 <inst_556>
    8000602c:	ff9f906f          	j	80000024 <rvtest_error>

0000000080006030 <inst_556>:
    80006030:	33333537          	lui	a0,0x33333
    80006034:	33350513          	addi	a0,a0,819 # 33333333 <absimmsh+0x27862586>
    80006038:	00b51513          	slli	a0,a0,0xb
    8000603c:	19950513          	addi	a0,a0,409
    80006040:	00b51513          	slli	a0,a0,0xb
    80006044:	4cc50513          	addi	a0,a0,1228
    80006048:	00a51513          	slli	a0,a0,0xa
    8000604c:	33250513          	addi	a0,a0,818
    80006050:	6655059b          	addiw	a1,a0,1637
    80006054:	0ab33823          	sd	a1,176(t1)
    80006058:	333343b7          	lui	t2,0x33334
    8000605c:	9973839b          	addiw	t2,t2,-1641 # 33333997 <absimmsh+0x27862bea>
    80006060:	00b38463          	beq	t2,a1,80006068 <inst_557>
    80006064:	fc1f906f          	j	80000024 <rvtest_error>

0000000080006068 <inst_557>:
    80006068:	33333537          	lui	a0,0x33333
    8000606c:	33350513          	addi	a0,a0,819 # 33333333 <absimmsh+0x27862586>
    80006070:	00b51513          	slli	a0,a0,0xb
    80006074:	19950513          	addi	a0,a0,409
    80006078:	00b51513          	slli	a0,a0,0xb
    8000607c:	4cc50513          	addi	a0,a0,1228
    80006080:	00a51513          	slli	a0,a0,0xa
    80006084:	33250513          	addi	a0,a0,818
    80006088:	02c5059b          	addiw	a1,a0,44
    8000608c:	0ab33c23          	sd	a1,184(t1)
    80006090:	333333b7          	lui	t2,0x33333
    80006094:	35e3839b          	addiw	t2,t2,862 # 3333335e <absimmsh+0x278625b1>
    80006098:	00b38463          	beq	t2,a1,800060a0 <inst_558>
    8000609c:	f89f906f          	j	80000024 <rvtest_error>

00000000800060a0 <inst_558>:
    800060a0:	33333537          	lui	a0,0x33333
    800060a4:	33350513          	addi	a0,a0,819 # 33333333 <absimmsh+0x27862586>
    800060a8:	00b51513          	slli	a0,a0,0xb
    800060ac:	19950513          	addi	a0,a0,409
    800060b0:	00b51513          	slli	a0,a0,0xb
    800060b4:	4cc50513          	addi	a0,a0,1228
    800060b8:	00a51513          	slli	a0,a0,0xa
    800060bc:	33250513          	addi	a0,a0,818
    800060c0:	5565059b          	addiw	a1,a0,1366
    800060c4:	0cb33023          	sd	a1,192(t1)
    800060c8:	333343b7          	lui	t2,0x33334
    800060cc:	8883839b          	addiw	t2,t2,-1912 # 33333888 <absimmsh+0x27862adb>
    800060d0:	00b38463          	beq	t2,a1,800060d8 <inst_559>
    800060d4:	f51f906f          	j	80000024 <rvtest_error>

00000000800060d8 <inst_559>:
    800060d8:	33333537          	lui	a0,0x33333
    800060dc:	33350513          	addi	a0,a0,819 # 33333333 <absimmsh+0x27862586>
    800060e0:	00b51513          	slli	a0,a0,0xb
    800060e4:	19950513          	addi	a0,a0,409
    800060e8:	00b51513          	slli	a0,a0,0xb
    800060ec:	4cc50513          	addi	a0,a0,1228
    800060f0:	00a51513          	slli	a0,a0,0xa
    800060f4:	33250513          	addi	a0,a0,818
    800060f8:	aab5059b          	addiw	a1,a0,-1365
    800060fc:	0cb33423          	sd	a1,200(t1)
    80006100:	333333b7          	lui	t2,0x33333
    80006104:	ddd3839b          	addiw	t2,t2,-547 # 33332ddd <absimmsh+0x27862030>
    80006108:	00b38463          	beq	t2,a1,80006110 <inst_560>
    8000610c:	f19f906f          	j	80000024 <rvtest_error>

0000000080006110 <inst_560>:
    80006110:	33333537          	lui	a0,0x33333
    80006114:	33350513          	addi	a0,a0,819 # 33333333 <absimmsh+0x27862586>
    80006118:	00b51513          	slli	a0,a0,0xb
    8000611c:	19950513          	addi	a0,a0,409
    80006120:	00b51513          	slli	a0,a0,0xb
    80006124:	4cc50513          	addi	a0,a0,1228
    80006128:	00a51513          	slli	a0,a0,0xa
    8000612c:	33250513          	addi	a0,a0,818
    80006130:	0065059b          	addiw	a1,a0,6
    80006134:	0cb33823          	sd	a1,208(t1)
    80006138:	333333b7          	lui	t2,0x33333
    8000613c:	3383839b          	addiw	t2,t2,824 # 33333338 <absimmsh+0x2786258b>
    80006140:	00b38463          	beq	t2,a1,80006148 <inst_561>
    80006144:	ee1f906f          	j	80000024 <rvtest_error>

0000000080006148 <inst_561>:
    80006148:	33333537          	lui	a0,0x33333
    8000614c:	33350513          	addi	a0,a0,819 # 33333333 <absimmsh+0x27862586>
    80006150:	00b51513          	slli	a0,a0,0xb
    80006154:	19950513          	addi	a0,a0,409
    80006158:	00b51513          	slli	a0,a0,0xb
    8000615c:	4cc50513          	addi	a0,a0,1228
    80006160:	00a51513          	slli	a0,a0,0xa
    80006164:	33250513          	addi	a0,a0,818
    80006168:	3345059b          	addiw	a1,a0,820
    8000616c:	0cb33c23          	sd	a1,216(t1)
    80006170:	333333b7          	lui	t2,0x33333
    80006174:	6663839b          	addiw	t2,t2,1638 # 33333666 <absimmsh+0x278628b9>
    80006178:	00b38463          	beq	t2,a1,80006180 <inst_562>
    8000617c:	ea9f906f          	j	80000024 <rvtest_error>

0000000080006180 <inst_562>:
    80006180:	33333537          	lui	a0,0x33333
    80006184:	33350513          	addi	a0,a0,819 # 33333333 <absimmsh+0x27862586>
    80006188:	00b51513          	slli	a0,a0,0xb
    8000618c:	19950513          	addi	a0,a0,409
    80006190:	00b51513          	slli	a0,a0,0xb
    80006194:	4cc50513          	addi	a0,a0,1228
    80006198:	00a51513          	slli	a0,a0,0xa
    8000619c:	33250513          	addi	a0,a0,818
    800061a0:	6675059b          	addiw	a1,a0,1639
    800061a4:	0eb33023          	sd	a1,224(t1)
    800061a8:	333343b7          	lui	t2,0x33334
    800061ac:	9993839b          	addiw	t2,t2,-1639 # 33333999 <absimmsh+0x27862bec>
    800061b0:	00b38463          	beq	t2,a1,800061b8 <inst_563>
    800061b4:	e71f906f          	j	80000024 <rvtest_error>

00000000800061b8 <inst_563>:
    800061b8:	33333537          	lui	a0,0x33333
    800061bc:	33350513          	addi	a0,a0,819 # 33333333 <absimmsh+0x27862586>
    800061c0:	00b51513          	slli	a0,a0,0xb
    800061c4:	19950513          	addi	a0,a0,409
    800061c8:	00b51513          	slli	a0,a0,0xb
    800061cc:	4cc50513          	addi	a0,a0,1228
    800061d0:	00a51513          	slli	a0,a0,0xa
    800061d4:	33250513          	addi	a0,a0,818
    800061d8:	fd45059b          	addiw	a1,a0,-44
    800061dc:	0eb33423          	sd	a1,232(t1)
    800061e0:	333333b7          	lui	t2,0x33333
    800061e4:	3063839b          	addiw	t2,t2,774 # 33333306 <absimmsh+0x27862559>
    800061e8:	00b38463          	beq	t2,a1,800061f0 <inst_564>
    800061ec:	e39f906f          	j	80000024 <rvtest_error>

00000000800061f0 <inst_564>:
    800061f0:	33333537          	lui	a0,0x33333
    800061f4:	33350513          	addi	a0,a0,819 # 33333333 <absimmsh+0x27862586>
    800061f8:	00b51513          	slli	a0,a0,0xb
    800061fc:	19950513          	addi	a0,a0,409
    80006200:	00b51513          	slli	a0,a0,0xb
    80006204:	4cc50513          	addi	a0,a0,1228
    80006208:	00a51513          	slli	a0,a0,0xa
    8000620c:	33250513          	addi	a0,a0,818
    80006210:	02e5059b          	addiw	a1,a0,46
    80006214:	0eb33823          	sd	a1,240(t1)
    80006218:	333333b7          	lui	t2,0x33333
    8000621c:	3603839b          	addiw	t2,t2,864 # 33333360 <absimmsh+0x278625b3>
    80006220:	00b38463          	beq	t2,a1,80006228 <inst_565>
    80006224:	e01f906f          	j	80000024 <rvtest_error>

0000000080006228 <inst_565>:
    80006228:	66666537          	lui	a0,0x66666
    8000622c:	66650513          	addi	a0,a0,1638 # 66666666 <absimmsh+0x5ab958b9>
    80006230:	00b51513          	slli	a0,a0,0xb
    80006234:	33350513          	addi	a0,a0,819
    80006238:	00b51513          	slli	a0,a0,0xb
    8000623c:	19950513          	addi	a0,a0,409
    80006240:	00a51513          	slli	a0,a0,0xa
    80006244:	26550513          	addi	a0,a0,613
    80006248:	0035059b          	addiw	a1,a0,3
    8000624c:	0eb33c23          	sd	a1,248(t1)
    80006250:	666663b7          	lui	t2,0x66666
    80006254:	6683839b          	addiw	t2,t2,1640 # 66666668 <absimmsh+0x5ab958bb>
    80006258:	00b38463          	beq	t2,a1,80006260 <inst_566>
    8000625c:	dc9f906f          	j	80000024 <rvtest_error>

0000000080006260 <inst_566>:
    80006260:	66666537          	lui	a0,0x66666
    80006264:	66650513          	addi	a0,a0,1638 # 66666666 <absimmsh+0x5ab958b9>
    80006268:	00b51513          	slli	a0,a0,0xb
    8000626c:	33350513          	addi	a0,a0,819
    80006270:	00b51513          	slli	a0,a0,0xb
    80006274:	19950513          	addi	a0,a0,409
    80006278:	00a51513          	slli	a0,a0,0xa
    8000627c:	26550513          	addi	a0,a0,613
    80006280:	5555059b          	addiw	a1,a0,1365
    80006284:	10b33023          	sd	a1,256(t1)
    80006288:	666673b7          	lui	t2,0x66667
    8000628c:	bba3839b          	addiw	t2,t2,-1094 # 66666bba <absimmsh+0x5ab95e0d>
    80006290:	00b38463          	beq	t2,a1,80006298 <inst_567>
    80006294:	d91f906f          	j	80000024 <rvtest_error>

0000000080006298 <inst_567>:
    80006298:	66666537          	lui	a0,0x66666
    8000629c:	66650513          	addi	a0,a0,1638 # 66666666 <absimmsh+0x5ab958b9>
    800062a0:	00b51513          	slli	a0,a0,0xb
    800062a4:	33350513          	addi	a0,a0,819
    800062a8:	00b51513          	slli	a0,a0,0xb
    800062ac:	19950513          	addi	a0,a0,409
    800062b0:	00a51513          	slli	a0,a0,0xa
    800062b4:	26550513          	addi	a0,a0,613
    800062b8:	aaa5059b          	addiw	a1,a0,-1366
    800062bc:	10b33423          	sd	a1,264(t1)
    800062c0:	666663b7          	lui	t2,0x66666
    800062c4:	10f3839b          	addiw	t2,t2,271 # 6666610f <absimmsh+0x5ab95362>
    800062c8:	00b38463          	beq	t2,a1,800062d0 <inst_568>
    800062cc:	d59f906f          	j	80000024 <rvtest_error>

00000000800062d0 <inst_568>:
    800062d0:	66666537          	lui	a0,0x66666
    800062d4:	66650513          	addi	a0,a0,1638 # 66666666 <absimmsh+0x5ab958b9>
    800062d8:	00b51513          	slli	a0,a0,0xb
    800062dc:	33350513          	addi	a0,a0,819
    800062e0:	00b51513          	slli	a0,a0,0xb
    800062e4:	19950513          	addi	a0,a0,409
    800062e8:	00a51513          	slli	a0,a0,0xa
    800062ec:	26550513          	addi	a0,a0,613
    800062f0:	0055059b          	addiw	a1,a0,5
    800062f4:	10b33823          	sd	a1,272(t1)
    800062f8:	666663b7          	lui	t2,0x66666
    800062fc:	66a3839b          	addiw	t2,t2,1642 # 6666666a <absimmsh+0x5ab958bd>
    80006300:	00b38463          	beq	t2,a1,80006308 <inst_569>
    80006304:	d21f906f          	j	80000024 <rvtest_error>

0000000080006308 <inst_569>:
    80006308:	66666537          	lui	a0,0x66666
    8000630c:	66650513          	addi	a0,a0,1638 # 66666666 <absimmsh+0x5ab958b9>
    80006310:	00b51513          	slli	a0,a0,0xb
    80006314:	33350513          	addi	a0,a0,819
    80006318:	00b51513          	slli	a0,a0,0xb
    8000631c:	19950513          	addi	a0,a0,409
    80006320:	00a51513          	slli	a0,a0,0xa
    80006324:	26550513          	addi	a0,a0,613
    80006328:	3335059b          	addiw	a1,a0,819
    8000632c:	10b33c23          	sd	a1,280(t1)
    80006330:	666673b7          	lui	t2,0x66667
    80006334:	9983839b          	addiw	t2,t2,-1640 # 66666998 <absimmsh+0x5ab95beb>
    80006338:	00b38463          	beq	t2,a1,80006340 <inst_570>
    8000633c:	ce9f906f          	j	80000024 <rvtest_error>

0000000080006340 <inst_570>:
    80006340:	66666537          	lui	a0,0x66666
    80006344:	66650513          	addi	a0,a0,1638 # 66666666 <absimmsh+0x5ab958b9>
    80006348:	00b51513          	slli	a0,a0,0xb
    8000634c:	33350513          	addi	a0,a0,819
    80006350:	00b51513          	slli	a0,a0,0xb
    80006354:	19950513          	addi	a0,a0,409
    80006358:	00a51513          	slli	a0,a0,0xa
    8000635c:	26550513          	addi	a0,a0,613
    80006360:	6665059b          	addiw	a1,a0,1638
    80006364:	12b33023          	sd	a1,288(t1)
    80006368:	666673b7          	lui	t2,0x66667
    8000636c:	ccb3839b          	addiw	t2,t2,-821 # 66666ccb <absimmsh+0x5ab95f1e>
    80006370:	00b38463          	beq	t2,a1,80006378 <inst_571>
    80006374:	cb1f906f          	j	80000024 <rvtest_error>

0000000080006378 <inst_571>:
    80006378:	66666537          	lui	a0,0x66666
    8000637c:	66650513          	addi	a0,a0,1638 # 66666666 <absimmsh+0x5ab958b9>
    80006380:	00b51513          	slli	a0,a0,0xb
    80006384:	33350513          	addi	a0,a0,819
    80006388:	00b51513          	slli	a0,a0,0xb
    8000638c:	19950513          	addi	a0,a0,409
    80006390:	00a51513          	slli	a0,a0,0xa
    80006394:	26550513          	addi	a0,a0,613
    80006398:	fd35059b          	addiw	a1,a0,-45
    8000639c:	12b33423          	sd	a1,296(t1)
    800063a0:	666663b7          	lui	t2,0x66666
    800063a4:	6383839b          	addiw	t2,t2,1592 # 66666638 <absimmsh+0x5ab9588b>
    800063a8:	00b38463          	beq	t2,a1,800063b0 <inst_572>
    800063ac:	c79f906f          	j	80000024 <rvtest_error>

00000000800063b0 <inst_572>:
    800063b0:	66666537          	lui	a0,0x66666
    800063b4:	66650513          	addi	a0,a0,1638 # 66666666 <absimmsh+0x5ab958b9>
    800063b8:	00b51513          	slli	a0,a0,0xb
    800063bc:	33350513          	addi	a0,a0,819
    800063c0:	00b51513          	slli	a0,a0,0xb
    800063c4:	19950513          	addi	a0,a0,409
    800063c8:	00a51513          	slli	a0,a0,0xa
    800063cc:	26550513          	addi	a0,a0,613
    800063d0:	02d5059b          	addiw	a1,a0,45
    800063d4:	12b33823          	sd	a1,304(t1)
    800063d8:	666663b7          	lui	t2,0x66666
    800063dc:	6923839b          	addiw	t2,t2,1682 # 66666692 <absimmsh+0x5ab958e5>
    800063e0:	00b38463          	beq	t2,a1,800063e8 <inst_573>
    800063e4:	c41f906f          	j	80000024 <rvtest_error>

00000000800063e8 <inst_573>:
    800063e8:	66666537          	lui	a0,0x66666
    800063ec:	66650513          	addi	a0,a0,1638 # 66666666 <absimmsh+0x5ab958b9>
    800063f0:	00b51513          	slli	a0,a0,0xb
    800063f4:	33350513          	addi	a0,a0,819
    800063f8:	00b51513          	slli	a0,a0,0xb
    800063fc:	19950513          	addi	a0,a0,409
    80006400:	00a51513          	slli	a0,a0,0xa
    80006404:	26550513          	addi	a0,a0,613
    80006408:	0025059b          	addiw	a1,a0,2
    8000640c:	12b33c23          	sd	a1,312(t1)
    80006410:	666663b7          	lui	t2,0x66666
    80006414:	6673839b          	addiw	t2,t2,1639 # 66666667 <absimmsh+0x5ab958ba>
    80006418:	00b38463          	beq	t2,a1,80006420 <inst_574>
    8000641c:	c09f906f          	j	80000024 <rvtest_error>

0000000080006420 <inst_574>:
    80006420:	66666537          	lui	a0,0x66666
    80006424:	66650513          	addi	a0,a0,1638 # 66666666 <absimmsh+0x5ab958b9>
    80006428:	00b51513          	slli	a0,a0,0xb
    8000642c:	33350513          	addi	a0,a0,819
    80006430:	00b51513          	slli	a0,a0,0xb
    80006434:	19950513          	addi	a0,a0,409
    80006438:	00a51513          	slli	a0,a0,0xa
    8000643c:	26550513          	addi	a0,a0,613
    80006440:	5545059b          	addiw	a1,a0,1364
    80006444:	14b33023          	sd	a1,320(t1)
    80006448:	666673b7          	lui	t2,0x66667
    8000644c:	bb93839b          	addiw	t2,t2,-1095 # 66666bb9 <absimmsh+0x5ab95e0c>
    80006450:	00b38463          	beq	t2,a1,80006458 <inst_575>
    80006454:	bd1f906f          	j	80000024 <rvtest_error>

0000000080006458 <inst_575>:
    80006458:	66666537          	lui	a0,0x66666
    8000645c:	66650513          	addi	a0,a0,1638 # 66666666 <absimmsh+0x5ab958b9>
    80006460:	00b51513          	slli	a0,a0,0xb
    80006464:	33350513          	addi	a0,a0,819
    80006468:	00b51513          	slli	a0,a0,0xb
    8000646c:	19950513          	addi	a0,a0,409
    80006470:	00a51513          	slli	a0,a0,0xa
    80006474:	26550513          	addi	a0,a0,613
    80006478:	0005059b          	sext.w	a1,a0
    8000647c:	14b33423          	sd	a1,328(t1)
    80006480:	666663b7          	lui	t2,0x66666
    80006484:	6653839b          	addiw	t2,t2,1637 # 66666665 <absimmsh+0x5ab958b8>
    80006488:	00b38463          	beq	t2,a1,80006490 <inst_576>
    8000648c:	b99f906f          	j	80000024 <rvtest_error>

0000000080006490 <inst_576>:
    80006490:	66666537          	lui	a0,0x66666
    80006494:	66650513          	addi	a0,a0,1638 # 66666666 <absimmsh+0x5ab958b9>
    80006498:	00b51513          	slli	a0,a0,0xb
    8000649c:	33350513          	addi	a0,a0,819
    800064a0:	00b51513          	slli	a0,a0,0xb
    800064a4:	19950513          	addi	a0,a0,409
    800064a8:	00a51513          	slli	a0,a0,0xa
    800064ac:	26550513          	addi	a0,a0,613
    800064b0:	0045059b          	addiw	a1,a0,4
    800064b4:	14b33823          	sd	a1,336(t1)
    800064b8:	666663b7          	lui	t2,0x66666
    800064bc:	6693839b          	addiw	t2,t2,1641 # 66666669 <absimmsh+0x5ab958bc>
    800064c0:	00b38463          	beq	t2,a1,800064c8 <inst_577>
    800064c4:	b61f906f          	j	80000024 <rvtest_error>

00000000800064c8 <inst_577>:
    800064c8:	66666537          	lui	a0,0x66666
    800064cc:	66650513          	addi	a0,a0,1638 # 66666666 <absimmsh+0x5ab958b9>
    800064d0:	00b51513          	slli	a0,a0,0xb
    800064d4:	33350513          	addi	a0,a0,819
    800064d8:	00b51513          	slli	a0,a0,0xb
    800064dc:	19950513          	addi	a0,a0,409
    800064e0:	00a51513          	slli	a0,a0,0xa
    800064e4:	26550513          	addi	a0,a0,613
    800064e8:	3325059b          	addiw	a1,a0,818
    800064ec:	14b33c23          	sd	a1,344(t1)
    800064f0:	666673b7          	lui	t2,0x66667
    800064f4:	9973839b          	addiw	t2,t2,-1641 # 66666997 <absimmsh+0x5ab95bea>
    800064f8:	00b38463          	beq	t2,a1,80006500 <inst_578>
    800064fc:	b29f906f          	j	80000024 <rvtest_error>

0000000080006500 <inst_578>:
    80006500:	66666537          	lui	a0,0x66666
    80006504:	66650513          	addi	a0,a0,1638 # 66666666 <absimmsh+0x5ab958b9>
    80006508:	00b51513          	slli	a0,a0,0xb
    8000650c:	33350513          	addi	a0,a0,819
    80006510:	00b51513          	slli	a0,a0,0xb
    80006514:	19950513          	addi	a0,a0,409
    80006518:	00a51513          	slli	a0,a0,0xa
    8000651c:	26550513          	addi	a0,a0,613
    80006520:	6655059b          	addiw	a1,a0,1637
    80006524:	16b33023          	sd	a1,352(t1)
    80006528:	666673b7          	lui	t2,0x66667
    8000652c:	cca3839b          	addiw	t2,t2,-822 # 66666cca <absimmsh+0x5ab95f1d>
    80006530:	00b38463          	beq	t2,a1,80006538 <inst_579>
    80006534:	af1f906f          	j	80000024 <rvtest_error>

0000000080006538 <inst_579>:
    80006538:	66666537          	lui	a0,0x66666
    8000653c:	66650513          	addi	a0,a0,1638 # 66666666 <absimmsh+0x5ab958b9>
    80006540:	00b51513          	slli	a0,a0,0xb
    80006544:	33350513          	addi	a0,a0,819
    80006548:	00b51513          	slli	a0,a0,0xb
    8000654c:	19950513          	addi	a0,a0,409
    80006550:	00a51513          	slli	a0,a0,0xa
    80006554:	26550513          	addi	a0,a0,613
    80006558:	02c5059b          	addiw	a1,a0,44
    8000655c:	16b33423          	sd	a1,360(t1)
    80006560:	666663b7          	lui	t2,0x66666
    80006564:	6913839b          	addiw	t2,t2,1681 # 66666691 <absimmsh+0x5ab958e4>
    80006568:	00b38463          	beq	t2,a1,80006570 <inst_580>
    8000656c:	ab9f906f          	j	80000024 <rvtest_error>

0000000080006570 <inst_580>:
    80006570:	66666537          	lui	a0,0x66666
    80006574:	66650513          	addi	a0,a0,1638 # 66666666 <absimmsh+0x5ab958b9>
    80006578:	00b51513          	slli	a0,a0,0xb
    8000657c:	33350513          	addi	a0,a0,819
    80006580:	00b51513          	slli	a0,a0,0xb
    80006584:	19950513          	addi	a0,a0,409
    80006588:	00a51513          	slli	a0,a0,0xa
    8000658c:	26550513          	addi	a0,a0,613
    80006590:	5565059b          	addiw	a1,a0,1366
    80006594:	16b33823          	sd	a1,368(t1)
    80006598:	666673b7          	lui	t2,0x66667
    8000659c:	bbb3839b          	addiw	t2,t2,-1093 # 66666bbb <absimmsh+0x5ab95e0e>
    800065a0:	00b38463          	beq	t2,a1,800065a8 <inst_581>
    800065a4:	a81f906f          	j	80000024 <rvtest_error>

00000000800065a8 <inst_581>:
    800065a8:	66666537          	lui	a0,0x66666
    800065ac:	66650513          	addi	a0,a0,1638 # 66666666 <absimmsh+0x5ab958b9>
    800065b0:	00b51513          	slli	a0,a0,0xb
    800065b4:	33350513          	addi	a0,a0,819
    800065b8:	00b51513          	slli	a0,a0,0xb
    800065bc:	19950513          	addi	a0,a0,409
    800065c0:	00a51513          	slli	a0,a0,0xa
    800065c4:	26550513          	addi	a0,a0,613
    800065c8:	aab5059b          	addiw	a1,a0,-1365
    800065cc:	16b33c23          	sd	a1,376(t1)
    800065d0:	666663b7          	lui	t2,0x66666
    800065d4:	1103839b          	addiw	t2,t2,272 # 66666110 <absimmsh+0x5ab95363>
    800065d8:	00b38463          	beq	t2,a1,800065e0 <inst_582>
    800065dc:	a49f906f          	j	80000024 <rvtest_error>

00000000800065e0 <inst_582>:
    800065e0:	66666537          	lui	a0,0x66666
    800065e4:	66650513          	addi	a0,a0,1638 # 66666666 <absimmsh+0x5ab958b9>
    800065e8:	00b51513          	slli	a0,a0,0xb
    800065ec:	33350513          	addi	a0,a0,819
    800065f0:	00b51513          	slli	a0,a0,0xb
    800065f4:	19950513          	addi	a0,a0,409
    800065f8:	00a51513          	slli	a0,a0,0xa
    800065fc:	26550513          	addi	a0,a0,613
    80006600:	0065059b          	addiw	a1,a0,6
    80006604:	18b33023          	sd	a1,384(t1)
    80006608:	666663b7          	lui	t2,0x66666
    8000660c:	66b3839b          	addiw	t2,t2,1643 # 6666666b <absimmsh+0x5ab958be>
    80006610:	00b38463          	beq	t2,a1,80006618 <inst_583>
    80006614:	a11f906f          	j	80000024 <rvtest_error>

0000000080006618 <inst_583>:
    80006618:	66666537          	lui	a0,0x66666
    8000661c:	66650513          	addi	a0,a0,1638 # 66666666 <absimmsh+0x5ab958b9>
    80006620:	00b51513          	slli	a0,a0,0xb
    80006624:	33350513          	addi	a0,a0,819
    80006628:	00b51513          	slli	a0,a0,0xb
    8000662c:	19950513          	addi	a0,a0,409
    80006630:	00a51513          	slli	a0,a0,0xa
    80006634:	26550513          	addi	a0,a0,613
    80006638:	3345059b          	addiw	a1,a0,820
    8000663c:	18b33423          	sd	a1,392(t1)
    80006640:	666673b7          	lui	t2,0x66667
    80006644:	9993839b          	addiw	t2,t2,-1639 # 66666999 <absimmsh+0x5ab95bec>
    80006648:	00b38463          	beq	t2,a1,80006650 <inst_584>
    8000664c:	9d9f906f          	j	80000024 <rvtest_error>

0000000080006650 <inst_584>:
    80006650:	66666537          	lui	a0,0x66666
    80006654:	66650513          	addi	a0,a0,1638 # 66666666 <absimmsh+0x5ab958b9>
    80006658:	00b51513          	slli	a0,a0,0xb
    8000665c:	33350513          	addi	a0,a0,819
    80006660:	00b51513          	slli	a0,a0,0xb
    80006664:	19950513          	addi	a0,a0,409
    80006668:	00a51513          	slli	a0,a0,0xa
    8000666c:	26550513          	addi	a0,a0,613
    80006670:	6675059b          	addiw	a1,a0,1639
    80006674:	18b33823          	sd	a1,400(t1)
    80006678:	666673b7          	lui	t2,0x66667
    8000667c:	ccc3839b          	addiw	t2,t2,-820 # 66666ccc <absimmsh+0x5ab95f1f>
    80006680:	00b38463          	beq	t2,a1,80006688 <inst_585>
    80006684:	9a1f906f          	j	80000024 <rvtest_error>

0000000080006688 <inst_585>:
    80006688:	66666537          	lui	a0,0x66666
    8000668c:	66650513          	addi	a0,a0,1638 # 66666666 <absimmsh+0x5ab958b9>
    80006690:	00b51513          	slli	a0,a0,0xb
    80006694:	33350513          	addi	a0,a0,819
    80006698:	00b51513          	slli	a0,a0,0xb
    8000669c:	19950513          	addi	a0,a0,409
    800066a0:	00a51513          	slli	a0,a0,0xa
    800066a4:	26550513          	addi	a0,a0,613
    800066a8:	fd45059b          	addiw	a1,a0,-44
    800066ac:	18b33c23          	sd	a1,408(t1)
    800066b0:	666663b7          	lui	t2,0x66666
    800066b4:	6393839b          	addiw	t2,t2,1593 # 66666639 <absimmsh+0x5ab9588c>
    800066b8:	00b38463          	beq	t2,a1,800066c0 <inst_586>
    800066bc:	969f906f          	j	80000024 <rvtest_error>

00000000800066c0 <inst_586>:
    800066c0:	66666537          	lui	a0,0x66666
    800066c4:	66650513          	addi	a0,a0,1638 # 66666666 <absimmsh+0x5ab958b9>
    800066c8:	00b51513          	slli	a0,a0,0xb
    800066cc:	33350513          	addi	a0,a0,819
    800066d0:	00b51513          	slli	a0,a0,0xb
    800066d4:	19950513          	addi	a0,a0,409
    800066d8:	00a51513          	slli	a0,a0,0xa
    800066dc:	26550513          	addi	a0,a0,613
    800066e0:	02e5059b          	addiw	a1,a0,46
    800066e4:	1ab33023          	sd	a1,416(t1)
    800066e8:	666663b7          	lui	t2,0x66666
    800066ec:	6933839b          	addiw	t2,t2,1683 # 66666693 <absimmsh+0x5ab958e6>
    800066f0:	00b38463          	beq	t2,a1,800066f8 <inst_587>
    800066f4:	931f906f          	j	80000024 <rvtest_error>

00000000800066f8 <inst_587>:
    800066f8:	00000537          	lui	a0,0x0
    800066fc:	00050513          	mv	a0,a0
    80006700:	00b51513          	slli	a0,a0,0xb
    80006704:	5a850513          	addi	a0,a0,1448 # 5a8 <offset+0x2d0>
    80006708:	00b51513          	slli	a0,a0,0xb
    8000670c:	13c50513          	addi	a0,a0,316
    80006710:	00a51513          	slli	a0,a0,0xa
    80006714:	33250513          	addi	a0,a0,818
    80006718:	0035059b          	addiw	a1,a0,3
    8000671c:	1ab33423          	sd	a1,424(t1)
    80006720:	b504f3b7          	lui	t2,0xb504f
    80006724:	3353839b          	addiw	t2,t2,821 # ffffffffb504f335 <absimm+0xfffffffefa341865>
    80006728:	00b38463          	beq	t2,a1,80006730 <inst_588>
    8000672c:	8f9f906f          	j	80000024 <rvtest_error>

0000000080006730 <inst_588>:
    80006730:	00000537          	lui	a0,0x0
    80006734:	00050513          	mv	a0,a0
    80006738:	00b51513          	slli	a0,a0,0xb
    8000673c:	5a850513          	addi	a0,a0,1448 # 5a8 <offset+0x2d0>
    80006740:	00b51513          	slli	a0,a0,0xb
    80006744:	13c50513          	addi	a0,a0,316
    80006748:	00a51513          	slli	a0,a0,0xa
    8000674c:	33250513          	addi	a0,a0,818
    80006750:	5555059b          	addiw	a1,a0,1365
    80006754:	1ab33823          	sd	a1,432(t1)
    80006758:	b50503b7          	lui	t2,0xb5050
    8000675c:	8873839b          	addiw	t2,t2,-1913 # ffffffffb504f887 <absimm+0xfffffffefa341db7>
    80006760:	00b38463          	beq	t2,a1,80006768 <inst_589>
    80006764:	8c1f906f          	j	80000024 <rvtest_error>

0000000080006768 <inst_589>:
    80006768:	00000537          	lui	a0,0x0
    8000676c:	00050513          	mv	a0,a0
    80006770:	00b51513          	slli	a0,a0,0xb
    80006774:	5a850513          	addi	a0,a0,1448 # 5a8 <offset+0x2d0>
    80006778:	00b51513          	slli	a0,a0,0xb
    8000677c:	13c50513          	addi	a0,a0,316
    80006780:	00a51513          	slli	a0,a0,0xa
    80006784:	33250513          	addi	a0,a0,818
    80006788:	aaa5059b          	addiw	a1,a0,-1366
    8000678c:	1ab33c23          	sd	a1,440(t1)
    80006790:	b504f3b7          	lui	t2,0xb504f
    80006794:	ddc3839b          	addiw	t2,t2,-548 # ffffffffb504eddc <absimm+0xfffffffefa34130c>
    80006798:	00b38463          	beq	t2,a1,800067a0 <inst_590>
    8000679c:	889f906f          	j	80000024 <rvtest_error>

00000000800067a0 <inst_590>:
    800067a0:	00000537          	lui	a0,0x0
    800067a4:	00050513          	mv	a0,a0
    800067a8:	00b51513          	slli	a0,a0,0xb
    800067ac:	5a850513          	addi	a0,a0,1448 # 5a8 <offset+0x2d0>
    800067b0:	00b51513          	slli	a0,a0,0xb
    800067b4:	13c50513          	addi	a0,a0,316
    800067b8:	00a51513          	slli	a0,a0,0xa
    800067bc:	33250513          	addi	a0,a0,818
    800067c0:	0055059b          	addiw	a1,a0,5
    800067c4:	1cb33023          	sd	a1,448(t1)
    800067c8:	b504f3b7          	lui	t2,0xb504f
    800067cc:	3373839b          	addiw	t2,t2,823 # ffffffffb504f337 <absimm+0xfffffffefa341867>
    800067d0:	00b38463          	beq	t2,a1,800067d8 <inst_591>
    800067d4:	851f906f          	j	80000024 <rvtest_error>

00000000800067d8 <inst_591>:
    800067d8:	00000537          	lui	a0,0x0
    800067dc:	00050513          	mv	a0,a0
    800067e0:	00b51513          	slli	a0,a0,0xb
    800067e4:	5a850513          	addi	a0,a0,1448 # 5a8 <offset+0x2d0>
    800067e8:	00b51513          	slli	a0,a0,0xb
    800067ec:	13c50513          	addi	a0,a0,316
    800067f0:	00a51513          	slli	a0,a0,0xa
    800067f4:	33250513          	addi	a0,a0,818
    800067f8:	3335059b          	addiw	a1,a0,819
    800067fc:	1cb33423          	sd	a1,456(t1)
    80006800:	b504f3b7          	lui	t2,0xb504f
    80006804:	6653839b          	addiw	t2,t2,1637 # ffffffffb504f665 <absimm+0xfffffffefa341b95>
    80006808:	00b38463          	beq	t2,a1,80006810 <inst_592>
    8000680c:	819f906f          	j	80000024 <rvtest_error>

0000000080006810 <inst_592>:
    80006810:	00000537          	lui	a0,0x0
    80006814:	00050513          	mv	a0,a0
    80006818:	00b51513          	slli	a0,a0,0xb
    8000681c:	5a850513          	addi	a0,a0,1448 # 5a8 <offset+0x2d0>
    80006820:	00b51513          	slli	a0,a0,0xb
    80006824:	13c50513          	addi	a0,a0,316
    80006828:	00a51513          	slli	a0,a0,0xa
    8000682c:	33250513          	addi	a0,a0,818
    80006830:	6665059b          	addiw	a1,a0,1638
    80006834:	1cb33823          	sd	a1,464(t1)
    80006838:	b50503b7          	lui	t2,0xb5050
    8000683c:	9983839b          	addiw	t2,t2,-1640 # ffffffffb504f998 <absimm+0xfffffffefa341ec8>
    80006840:	00b38463          	beq	t2,a1,80006848 <inst_593>
    80006844:	fe0f906f          	j	80000024 <rvtest_error>

0000000080006848 <inst_593>:
    80006848:	00000537          	lui	a0,0x0
    8000684c:	00050513          	mv	a0,a0
    80006850:	00b51513          	slli	a0,a0,0xb
    80006854:	5a850513          	addi	a0,a0,1448 # 5a8 <offset+0x2d0>
    80006858:	00b51513          	slli	a0,a0,0xb
    8000685c:	13c50513          	addi	a0,a0,316
    80006860:	00a51513          	slli	a0,a0,0xa
    80006864:	33250513          	addi	a0,a0,818
    80006868:	fd35059b          	addiw	a1,a0,-45
    8000686c:	1cb33c23          	sd	a1,472(t1)
    80006870:	b504f3b7          	lui	t2,0xb504f
    80006874:	3053839b          	addiw	t2,t2,773 # ffffffffb504f305 <absimm+0xfffffffefa341835>
    80006878:	00b38463          	beq	t2,a1,80006880 <inst_594>
    8000687c:	fa8f906f          	j	80000024 <rvtest_error>

0000000080006880 <inst_594>:
    80006880:	00000537          	lui	a0,0x0
    80006884:	00050513          	mv	a0,a0
    80006888:	00b51513          	slli	a0,a0,0xb
    8000688c:	5a850513          	addi	a0,a0,1448 # 5a8 <offset+0x2d0>
    80006890:	00b51513          	slli	a0,a0,0xb
    80006894:	13c50513          	addi	a0,a0,316
    80006898:	00a51513          	slli	a0,a0,0xa
    8000689c:	33250513          	addi	a0,a0,818
    800068a0:	02d5059b          	addiw	a1,a0,45
    800068a4:	1eb33023          	sd	a1,480(t1)
    800068a8:	b504f3b7          	lui	t2,0xb504f
    800068ac:	35f3839b          	addiw	t2,t2,863 # ffffffffb504f35f <absimm+0xfffffffefa34188f>
    800068b0:	00b38463          	beq	t2,a1,800068b8 <inst_595>
    800068b4:	f70f906f          	j	80000024 <rvtest_error>

00000000800068b8 <inst_595>:
    800068b8:	00000537          	lui	a0,0x0
    800068bc:	00050513          	mv	a0,a0
    800068c0:	00b51513          	slli	a0,a0,0xb
    800068c4:	5a850513          	addi	a0,a0,1448 # 5a8 <offset+0x2d0>
    800068c8:	00b51513          	slli	a0,a0,0xb
    800068cc:	13c50513          	addi	a0,a0,316
    800068d0:	00a51513          	slli	a0,a0,0xa
    800068d4:	33250513          	addi	a0,a0,818
    800068d8:	0025059b          	addiw	a1,a0,2
    800068dc:	1eb33423          	sd	a1,488(t1)
    800068e0:	b504f3b7          	lui	t2,0xb504f
    800068e4:	3343839b          	addiw	t2,t2,820 # ffffffffb504f334 <absimm+0xfffffffefa341864>
    800068e8:	00b38463          	beq	t2,a1,800068f0 <inst_596>
    800068ec:	f38f906f          	j	80000024 <rvtest_error>

00000000800068f0 <inst_596>:
    800068f0:	00000537          	lui	a0,0x0
    800068f4:	00050513          	mv	a0,a0
    800068f8:	00b51513          	slli	a0,a0,0xb
    800068fc:	5a850513          	addi	a0,a0,1448 # 5a8 <offset+0x2d0>
    80006900:	00b51513          	slli	a0,a0,0xb
    80006904:	13c50513          	addi	a0,a0,316
    80006908:	00a51513          	slli	a0,a0,0xa
    8000690c:	33250513          	addi	a0,a0,818
    80006910:	5545059b          	addiw	a1,a0,1364
    80006914:	1eb33823          	sd	a1,496(t1)
    80006918:	b50503b7          	lui	t2,0xb5050
    8000691c:	8863839b          	addiw	t2,t2,-1914 # ffffffffb504f886 <absimm+0xfffffffefa341db6>
    80006920:	00b38463          	beq	t2,a1,80006928 <inst_597>
    80006924:	f00f906f          	j	80000024 <rvtest_error>

0000000080006928 <inst_597>:
    80006928:	00000537          	lui	a0,0x0
    8000692c:	00050513          	mv	a0,a0
    80006930:	00b51513          	slli	a0,a0,0xb
    80006934:	5a850513          	addi	a0,a0,1448 # 5a8 <offset+0x2d0>
    80006938:	00b51513          	slli	a0,a0,0xb
    8000693c:	13c50513          	addi	a0,a0,316
    80006940:	00a51513          	slli	a0,a0,0xa
    80006944:	33250513          	addi	a0,a0,818
    80006948:	0005059b          	sext.w	a1,a0
    8000694c:	1eb33c23          	sd	a1,504(t1)
    80006950:	b504f3b7          	lui	t2,0xb504f
    80006954:	3323839b          	addiw	t2,t2,818 # ffffffffb504f332 <absimm+0xfffffffefa341862>
    80006958:	00b38463          	beq	t2,a1,80006960 <inst_598>
    8000695c:	ec8f906f          	j	80000024 <rvtest_error>

0000000080006960 <inst_598>:
    80006960:	00000537          	lui	a0,0x0
    80006964:	00050513          	mv	a0,a0
    80006968:	00b51513          	slli	a0,a0,0xb
    8000696c:	5a850513          	addi	a0,a0,1448 # 5a8 <offset+0x2d0>
    80006970:	00b51513          	slli	a0,a0,0xb
    80006974:	13c50513          	addi	a0,a0,316
    80006978:	00a51513          	slli	a0,a0,0xa
    8000697c:	33250513          	addi	a0,a0,818
    80006980:	0045059b          	addiw	a1,a0,4
    80006984:	20b33023          	sd	a1,512(t1)
    80006988:	b504f3b7          	lui	t2,0xb504f
    8000698c:	3363839b          	addiw	t2,t2,822 # ffffffffb504f336 <absimm+0xfffffffefa341866>
    80006990:	00b38463          	beq	t2,a1,80006998 <inst_599>
    80006994:	e90f906f          	j	80000024 <rvtest_error>

0000000080006998 <inst_599>:
    80006998:	00000537          	lui	a0,0x0
    8000699c:	00050513          	mv	a0,a0
    800069a0:	00b51513          	slli	a0,a0,0xb
    800069a4:	5a850513          	addi	a0,a0,1448 # 5a8 <offset+0x2d0>
    800069a8:	00b51513          	slli	a0,a0,0xb
    800069ac:	13c50513          	addi	a0,a0,316
    800069b0:	00a51513          	slli	a0,a0,0xa
    800069b4:	33250513          	addi	a0,a0,818
    800069b8:	3325059b          	addiw	a1,a0,818
    800069bc:	20b33423          	sd	a1,520(t1)
    800069c0:	b504f3b7          	lui	t2,0xb504f
    800069c4:	6643839b          	addiw	t2,t2,1636 # ffffffffb504f664 <absimm+0xfffffffefa341b94>
    800069c8:	00b38463          	beq	t2,a1,800069d0 <inst_600>
    800069cc:	e58f906f          	j	80000024 <rvtest_error>

00000000800069d0 <inst_600>:
    800069d0:	00000537          	lui	a0,0x0
    800069d4:	00050513          	mv	a0,a0
    800069d8:	00b51513          	slli	a0,a0,0xb
    800069dc:	5a850513          	addi	a0,a0,1448 # 5a8 <offset+0x2d0>
    800069e0:	00b51513          	slli	a0,a0,0xb
    800069e4:	13c50513          	addi	a0,a0,316
    800069e8:	00a51513          	slli	a0,a0,0xa
    800069ec:	33250513          	addi	a0,a0,818
    800069f0:	6655059b          	addiw	a1,a0,1637
    800069f4:	20b33823          	sd	a1,528(t1)
    800069f8:	b50503b7          	lui	t2,0xb5050
    800069fc:	9973839b          	addiw	t2,t2,-1641 # ffffffffb504f997 <absimm+0xfffffffefa341ec7>
    80006a00:	00b38463          	beq	t2,a1,80006a08 <inst_601>
    80006a04:	e20f906f          	j	80000024 <rvtest_error>

0000000080006a08 <inst_601>:
    80006a08:	00000537          	lui	a0,0x0
    80006a0c:	00050513          	mv	a0,a0
    80006a10:	00b51513          	slli	a0,a0,0xb
    80006a14:	5a850513          	addi	a0,a0,1448 # 5a8 <offset+0x2d0>
    80006a18:	00b51513          	slli	a0,a0,0xb
    80006a1c:	13c50513          	addi	a0,a0,316
    80006a20:	00a51513          	slli	a0,a0,0xa
    80006a24:	33250513          	addi	a0,a0,818
    80006a28:	02c5059b          	addiw	a1,a0,44
    80006a2c:	20b33c23          	sd	a1,536(t1)
    80006a30:	b504f3b7          	lui	t2,0xb504f
    80006a34:	35e3839b          	addiw	t2,t2,862 # ffffffffb504f35e <absimm+0xfffffffefa34188e>
    80006a38:	00b38463          	beq	t2,a1,80006a40 <inst_602>
    80006a3c:	de8f906f          	j	80000024 <rvtest_error>

0000000080006a40 <inst_602>:
    80006a40:	00000537          	lui	a0,0x0
    80006a44:	00050513          	mv	a0,a0
    80006a48:	00b51513          	slli	a0,a0,0xb
    80006a4c:	5a850513          	addi	a0,a0,1448 # 5a8 <offset+0x2d0>
    80006a50:	00b51513          	slli	a0,a0,0xb
    80006a54:	13c50513          	addi	a0,a0,316
    80006a58:	00a51513          	slli	a0,a0,0xa
    80006a5c:	33250513          	addi	a0,a0,818
    80006a60:	5565059b          	addiw	a1,a0,1366
    80006a64:	22b33023          	sd	a1,544(t1)
    80006a68:	b50503b7          	lui	t2,0xb5050
    80006a6c:	8883839b          	addiw	t2,t2,-1912 # ffffffffb504f888 <absimm+0xfffffffefa341db8>
    80006a70:	00b38463          	beq	t2,a1,80006a78 <inst_603>
    80006a74:	db0f906f          	j	80000024 <rvtest_error>

0000000080006a78 <inst_603>:
    80006a78:	00000537          	lui	a0,0x0
    80006a7c:	00050513          	mv	a0,a0
    80006a80:	00b51513          	slli	a0,a0,0xb
    80006a84:	5a850513          	addi	a0,a0,1448 # 5a8 <offset+0x2d0>
    80006a88:	00b51513          	slli	a0,a0,0xb
    80006a8c:	13c50513          	addi	a0,a0,316
    80006a90:	00a51513          	slli	a0,a0,0xa
    80006a94:	33250513          	addi	a0,a0,818
    80006a98:	aab5059b          	addiw	a1,a0,-1365
    80006a9c:	22b33423          	sd	a1,552(t1)
    80006aa0:	b504f3b7          	lui	t2,0xb504f
    80006aa4:	ddd3839b          	addiw	t2,t2,-547 # ffffffffb504eddd <absimm+0xfffffffefa34130d>
    80006aa8:	00b38463          	beq	t2,a1,80006ab0 <inst_604>
    80006aac:	d78f906f          	j	80000024 <rvtest_error>

0000000080006ab0 <inst_604>:
    80006ab0:	00000537          	lui	a0,0x0
    80006ab4:	00050513          	mv	a0,a0
    80006ab8:	00b51513          	slli	a0,a0,0xb
    80006abc:	5a850513          	addi	a0,a0,1448 # 5a8 <offset+0x2d0>
    80006ac0:	00b51513          	slli	a0,a0,0xb
    80006ac4:	13c50513          	addi	a0,a0,316
    80006ac8:	00a51513          	slli	a0,a0,0xa
    80006acc:	33250513          	addi	a0,a0,818
    80006ad0:	0065059b          	addiw	a1,a0,6
    80006ad4:	22b33823          	sd	a1,560(t1)
    80006ad8:	b504f3b7          	lui	t2,0xb504f
    80006adc:	3383839b          	addiw	t2,t2,824 # ffffffffb504f338 <absimm+0xfffffffefa341868>
    80006ae0:	00b38463          	beq	t2,a1,80006ae8 <inst_605>
    80006ae4:	d40f906f          	j	80000024 <rvtest_error>

0000000080006ae8 <inst_605>:
    80006ae8:	00000537          	lui	a0,0x0
    80006aec:	00050513          	mv	a0,a0
    80006af0:	00b51513          	slli	a0,a0,0xb
    80006af4:	5a850513          	addi	a0,a0,1448 # 5a8 <offset+0x2d0>
    80006af8:	00b51513          	slli	a0,a0,0xb
    80006afc:	13c50513          	addi	a0,a0,316
    80006b00:	00a51513          	slli	a0,a0,0xa
    80006b04:	33250513          	addi	a0,a0,818
    80006b08:	3345059b          	addiw	a1,a0,820
    80006b0c:	22b33c23          	sd	a1,568(t1)
    80006b10:	b504f3b7          	lui	t2,0xb504f
    80006b14:	6663839b          	addiw	t2,t2,1638 # ffffffffb504f666 <absimm+0xfffffffefa341b96>
    80006b18:	00b38463          	beq	t2,a1,80006b20 <inst_606>
    80006b1c:	d08f906f          	j	80000024 <rvtest_error>

0000000080006b20 <inst_606>:
    80006b20:	00000537          	lui	a0,0x0
    80006b24:	00050513          	mv	a0,a0
    80006b28:	00b51513          	slli	a0,a0,0xb
    80006b2c:	5a850513          	addi	a0,a0,1448 # 5a8 <offset+0x2d0>
    80006b30:	00b51513          	slli	a0,a0,0xb
    80006b34:	13c50513          	addi	a0,a0,316
    80006b38:	00a51513          	slli	a0,a0,0xa
    80006b3c:	33250513          	addi	a0,a0,818
    80006b40:	6675059b          	addiw	a1,a0,1639
    80006b44:	24b33023          	sd	a1,576(t1)
    80006b48:	b50503b7          	lui	t2,0xb5050
    80006b4c:	9993839b          	addiw	t2,t2,-1639 # ffffffffb504f999 <absimm+0xfffffffefa341ec9>
    80006b50:	00b38463          	beq	t2,a1,80006b58 <inst_607>
    80006b54:	cd0f906f          	j	80000024 <rvtest_error>

0000000080006b58 <inst_607>:
    80006b58:	00000537          	lui	a0,0x0
    80006b5c:	00050513          	mv	a0,a0
    80006b60:	00b51513          	slli	a0,a0,0xb
    80006b64:	5a850513          	addi	a0,a0,1448 # 5a8 <offset+0x2d0>
    80006b68:	00b51513          	slli	a0,a0,0xb
    80006b6c:	13c50513          	addi	a0,a0,316
    80006b70:	00a51513          	slli	a0,a0,0xa
    80006b74:	33250513          	addi	a0,a0,818
    80006b78:	fd45059b          	addiw	a1,a0,-44
    80006b7c:	24b33423          	sd	a1,584(t1)
    80006b80:	b504f3b7          	lui	t2,0xb504f
    80006b84:	3063839b          	addiw	t2,t2,774 # ffffffffb504f306 <absimm+0xfffffffefa341836>
    80006b88:	00b38463          	beq	t2,a1,80006b90 <inst_608>
    80006b8c:	c98f906f          	j	80000024 <rvtest_error>

0000000080006b90 <inst_608>:
    80006b90:	00000537          	lui	a0,0x0
    80006b94:	00050513          	mv	a0,a0
    80006b98:	00b51513          	slli	a0,a0,0xb
    80006b9c:	5a850513          	addi	a0,a0,1448 # 5a8 <offset+0x2d0>
    80006ba0:	00b51513          	slli	a0,a0,0xb
    80006ba4:	13c50513          	addi	a0,a0,316
    80006ba8:	00a51513          	slli	a0,a0,0xa
    80006bac:	33250513          	addi	a0,a0,818
    80006bb0:	02e5059b          	addiw	a1,a0,46
    80006bb4:	24b33823          	sd	a1,592(t1)
    80006bb8:	b504f3b7          	lui	t2,0xb504f
    80006bbc:	3603839b          	addiw	t2,t2,864 # ffffffffb504f360 <absimm+0xfffffffefa341890>
    80006bc0:	00b38463          	beq	t2,a1,80006bc8 <inst_609>
    80006bc4:	c60f906f          	j	80000024 <rvtest_error>

0000000080006bc8 <inst_609>:
    80006bc8:	55555537          	lui	a0,0x55555
    80006bcc:	55550513          	addi	a0,a0,1365 # 55555555 <absimmsh+0x49a847a8>
    80006bd0:	00b51513          	slli	a0,a0,0xb
    80006bd4:	2aa50513          	addi	a0,a0,682
    80006bd8:	00b51513          	slli	a0,a0,0xb
    80006bdc:	55550513          	addi	a0,a0,1365
    80006be0:	00a51513          	slli	a0,a0,0xa
    80006be4:	15650513          	addi	a0,a0,342
    80006be8:	0035059b          	addiw	a1,a0,3
    80006bec:	24b33c23          	sd	a1,600(t1)
    80006bf0:	555553b7          	lui	t2,0x55555
    80006bf4:	5593839b          	addiw	t2,t2,1369 # 55555559 <absimmsh+0x49a847ac>
    80006bf8:	00b38463          	beq	t2,a1,80006c00 <inst_610>
    80006bfc:	c28f906f          	j	80000024 <rvtest_error>

0000000080006c00 <inst_610>:
    80006c00:	55555537          	lui	a0,0x55555
    80006c04:	55550513          	addi	a0,a0,1365 # 55555555 <absimmsh+0x49a847a8>
    80006c08:	00b51513          	slli	a0,a0,0xb
    80006c0c:	2aa50513          	addi	a0,a0,682
    80006c10:	00b51513          	slli	a0,a0,0xb
    80006c14:	55550513          	addi	a0,a0,1365
    80006c18:	00a51513          	slli	a0,a0,0xa
    80006c1c:	15650513          	addi	a0,a0,342
    80006c20:	5555059b          	addiw	a1,a0,1365
    80006c24:	26b33023          	sd	a1,608(t1)
    80006c28:	555563b7          	lui	t2,0x55556
    80006c2c:	aab3839b          	addiw	t2,t2,-1365 # 55555aab <absimmsh+0x49a84cfe>
    80006c30:	00b38463          	beq	t2,a1,80006c38 <inst_611>
    80006c34:	bf0f906f          	j	80000024 <rvtest_error>

0000000080006c38 <inst_611>:
    80006c38:	55555537          	lui	a0,0x55555
    80006c3c:	55550513          	addi	a0,a0,1365 # 55555555 <absimmsh+0x49a847a8>
    80006c40:	00b51513          	slli	a0,a0,0xb
    80006c44:	2aa50513          	addi	a0,a0,682
    80006c48:	00b51513          	slli	a0,a0,0xb
    80006c4c:	55550513          	addi	a0,a0,1365
    80006c50:	00a51513          	slli	a0,a0,0xa
    80006c54:	15650513          	addi	a0,a0,342
    80006c58:	aaa5059b          	addiw	a1,a0,-1366
    80006c5c:	26b33423          	sd	a1,616(t1)
    80006c60:	555553b7          	lui	t2,0x55555
    80006c64:	00b38463          	beq	t2,a1,80006c6c <inst_612>
    80006c68:	bbcf906f          	j	80000024 <rvtest_error>

0000000080006c6c <inst_612>:
    80006c6c:	55555537          	lui	a0,0x55555
    80006c70:	55550513          	addi	a0,a0,1365 # 55555555 <absimmsh+0x49a847a8>
    80006c74:	00b51513          	slli	a0,a0,0xb
    80006c78:	2aa50513          	addi	a0,a0,682
    80006c7c:	00b51513          	slli	a0,a0,0xb
    80006c80:	55550513          	addi	a0,a0,1365
    80006c84:	00a51513          	slli	a0,a0,0xa
    80006c88:	15650513          	addi	a0,a0,342
    80006c8c:	0055059b          	addiw	a1,a0,5
    80006c90:	26b33823          	sd	a1,624(t1)
    80006c94:	555553b7          	lui	t2,0x55555
    80006c98:	55b3839b          	addiw	t2,t2,1371 # 5555555b <absimmsh+0x49a847ae>
    80006c9c:	00b38463          	beq	t2,a1,80006ca4 <inst_613>
    80006ca0:	b84f906f          	j	80000024 <rvtest_error>

0000000080006ca4 <inst_613>:
    80006ca4:	55555537          	lui	a0,0x55555
    80006ca8:	55550513          	addi	a0,a0,1365 # 55555555 <absimmsh+0x49a847a8>
    80006cac:	00b51513          	slli	a0,a0,0xb
    80006cb0:	2aa50513          	addi	a0,a0,682
    80006cb4:	00b51513          	slli	a0,a0,0xb
    80006cb8:	55550513          	addi	a0,a0,1365
    80006cbc:	00a51513          	slli	a0,a0,0xa
    80006cc0:	15650513          	addi	a0,a0,342
    80006cc4:	3335059b          	addiw	a1,a0,819
    80006cc8:	26b33c23          	sd	a1,632(t1)
    80006ccc:	555563b7          	lui	t2,0x55556
    80006cd0:	8893839b          	addiw	t2,t2,-1911 # 55555889 <absimmsh+0x49a84adc>
    80006cd4:	00b38463          	beq	t2,a1,80006cdc <inst_614>
    80006cd8:	b4cf906f          	j	80000024 <rvtest_error>

0000000080006cdc <inst_614>:
    80006cdc:	55555537          	lui	a0,0x55555
    80006ce0:	55550513          	addi	a0,a0,1365 # 55555555 <absimmsh+0x49a847a8>
    80006ce4:	00b51513          	slli	a0,a0,0xb
    80006ce8:	2aa50513          	addi	a0,a0,682
    80006cec:	00b51513          	slli	a0,a0,0xb
    80006cf0:	55550513          	addi	a0,a0,1365
    80006cf4:	00a51513          	slli	a0,a0,0xa
    80006cf8:	15650513          	addi	a0,a0,342
    80006cfc:	6665059b          	addiw	a1,a0,1638
    80006d00:	28b33023          	sd	a1,640(t1)
    80006d04:	555563b7          	lui	t2,0x55556
    80006d08:	bbc3839b          	addiw	t2,t2,-1092 # 55555bbc <absimmsh+0x49a84e0f>
    80006d0c:	00b38463          	beq	t2,a1,80006d14 <inst_615>
    80006d10:	b14f906f          	j	80000024 <rvtest_error>

0000000080006d14 <inst_615>:
    80006d14:	55555537          	lui	a0,0x55555
    80006d18:	55550513          	addi	a0,a0,1365 # 55555555 <absimmsh+0x49a847a8>
    80006d1c:	00b51513          	slli	a0,a0,0xb
    80006d20:	2aa50513          	addi	a0,a0,682
    80006d24:	00b51513          	slli	a0,a0,0xb
    80006d28:	55550513          	addi	a0,a0,1365
    80006d2c:	00a51513          	slli	a0,a0,0xa
    80006d30:	15650513          	addi	a0,a0,342
    80006d34:	fd35059b          	addiw	a1,a0,-45
    80006d38:	28b33423          	sd	a1,648(t1)
    80006d3c:	555553b7          	lui	t2,0x55555
    80006d40:	5293839b          	addiw	t2,t2,1321 # 55555529 <absimmsh+0x49a8477c>
    80006d44:	00b38463          	beq	t2,a1,80006d4c <inst_616>
    80006d48:	adcf906f          	j	80000024 <rvtest_error>

0000000080006d4c <inst_616>:
    80006d4c:	55555537          	lui	a0,0x55555
    80006d50:	55550513          	addi	a0,a0,1365 # 55555555 <absimmsh+0x49a847a8>
    80006d54:	00b51513          	slli	a0,a0,0xb
    80006d58:	2aa50513          	addi	a0,a0,682
    80006d5c:	00b51513          	slli	a0,a0,0xb
    80006d60:	55550513          	addi	a0,a0,1365
    80006d64:	00a51513          	slli	a0,a0,0xa
    80006d68:	15650513          	addi	a0,a0,342
    80006d6c:	02d5059b          	addiw	a1,a0,45
    80006d70:	28b33823          	sd	a1,656(t1)
    80006d74:	555553b7          	lui	t2,0x55555
    80006d78:	5833839b          	addiw	t2,t2,1411 # 55555583 <absimmsh+0x49a847d6>
    80006d7c:	00b38463          	beq	t2,a1,80006d84 <inst_617>
    80006d80:	aa4f906f          	j	80000024 <rvtest_error>

0000000080006d84 <inst_617>:
    80006d84:	55555537          	lui	a0,0x55555
    80006d88:	55550513          	addi	a0,a0,1365 # 55555555 <absimmsh+0x49a847a8>
    80006d8c:	00b51513          	slli	a0,a0,0xb
    80006d90:	2aa50513          	addi	a0,a0,682
    80006d94:	00b51513          	slli	a0,a0,0xb
    80006d98:	55550513          	addi	a0,a0,1365
    80006d9c:	00a51513          	slli	a0,a0,0xa
    80006da0:	15650513          	addi	a0,a0,342
    80006da4:	0025059b          	addiw	a1,a0,2
    80006da8:	28b33c23          	sd	a1,664(t1)
    80006dac:	555553b7          	lui	t2,0x55555
    80006db0:	5583839b          	addiw	t2,t2,1368 # 55555558 <absimmsh+0x49a847ab>
    80006db4:	00b38463          	beq	t2,a1,80006dbc <inst_618>
    80006db8:	a6cf906f          	j	80000024 <rvtest_error>

0000000080006dbc <inst_618>:
    80006dbc:	55555537          	lui	a0,0x55555
    80006dc0:	55550513          	addi	a0,a0,1365 # 55555555 <absimmsh+0x49a847a8>
    80006dc4:	00b51513          	slli	a0,a0,0xb
    80006dc8:	2aa50513          	addi	a0,a0,682
    80006dcc:	00b51513          	slli	a0,a0,0xb
    80006dd0:	55550513          	addi	a0,a0,1365
    80006dd4:	00a51513          	slli	a0,a0,0xa
    80006dd8:	15650513          	addi	a0,a0,342
    80006ddc:	5545059b          	addiw	a1,a0,1364
    80006de0:	2ab33023          	sd	a1,672(t1)
    80006de4:	555563b7          	lui	t2,0x55556
    80006de8:	aaa3839b          	addiw	t2,t2,-1366 # 55555aaa <absimmsh+0x49a84cfd>
    80006dec:	00b38463          	beq	t2,a1,80006df4 <inst_619>
    80006df0:	a34f906f          	j	80000024 <rvtest_error>

0000000080006df4 <inst_619>:
    80006df4:	55555537          	lui	a0,0x55555
    80006df8:	55550513          	addi	a0,a0,1365 # 55555555 <absimmsh+0x49a847a8>
    80006dfc:	00b51513          	slli	a0,a0,0xb
    80006e00:	2aa50513          	addi	a0,a0,682
    80006e04:	00b51513          	slli	a0,a0,0xb
    80006e08:	55550513          	addi	a0,a0,1365
    80006e0c:	00a51513          	slli	a0,a0,0xa
    80006e10:	15650513          	addi	a0,a0,342
    80006e14:	0005059b          	sext.w	a1,a0
    80006e18:	2ab33423          	sd	a1,680(t1)
    80006e1c:	555553b7          	lui	t2,0x55555
    80006e20:	5563839b          	addiw	t2,t2,1366 # 55555556 <absimmsh+0x49a847a9>
    80006e24:	00b38463          	beq	t2,a1,80006e2c <inst_620>
    80006e28:	9fcf906f          	j	80000024 <rvtest_error>

0000000080006e2c <inst_620>:
    80006e2c:	55555537          	lui	a0,0x55555
    80006e30:	55550513          	addi	a0,a0,1365 # 55555555 <absimmsh+0x49a847a8>
    80006e34:	00b51513          	slli	a0,a0,0xb
    80006e38:	2aa50513          	addi	a0,a0,682
    80006e3c:	00b51513          	slli	a0,a0,0xb
    80006e40:	55550513          	addi	a0,a0,1365
    80006e44:	00a51513          	slli	a0,a0,0xa
    80006e48:	15650513          	addi	a0,a0,342
    80006e4c:	0045059b          	addiw	a1,a0,4
    80006e50:	2ab33823          	sd	a1,688(t1)
    80006e54:	555553b7          	lui	t2,0x55555
    80006e58:	55a3839b          	addiw	t2,t2,1370 # 5555555a <absimmsh+0x49a847ad>
    80006e5c:	00b38463          	beq	t2,a1,80006e64 <inst_621>
    80006e60:	9c4f906f          	j	80000024 <rvtest_error>

0000000080006e64 <inst_621>:
    80006e64:	55555537          	lui	a0,0x55555
    80006e68:	55550513          	addi	a0,a0,1365 # 55555555 <absimmsh+0x49a847a8>
    80006e6c:	00b51513          	slli	a0,a0,0xb
    80006e70:	2aa50513          	addi	a0,a0,682
    80006e74:	00b51513          	slli	a0,a0,0xb
    80006e78:	55550513          	addi	a0,a0,1365
    80006e7c:	00a51513          	slli	a0,a0,0xa
    80006e80:	15650513          	addi	a0,a0,342
    80006e84:	3325059b          	addiw	a1,a0,818
    80006e88:	2ab33c23          	sd	a1,696(t1)
    80006e8c:	555563b7          	lui	t2,0x55556
    80006e90:	8883839b          	addiw	t2,t2,-1912 # 55555888 <absimmsh+0x49a84adb>
    80006e94:	00b38463          	beq	t2,a1,80006e9c <inst_622>
    80006e98:	98cf906f          	j	80000024 <rvtest_error>

0000000080006e9c <inst_622>:
    80006e9c:	55555537          	lui	a0,0x55555
    80006ea0:	55550513          	addi	a0,a0,1365 # 55555555 <absimmsh+0x49a847a8>
    80006ea4:	00b51513          	slli	a0,a0,0xb
    80006ea8:	2aa50513          	addi	a0,a0,682
    80006eac:	00b51513          	slli	a0,a0,0xb
    80006eb0:	55550513          	addi	a0,a0,1365
    80006eb4:	00a51513          	slli	a0,a0,0xa
    80006eb8:	15650513          	addi	a0,a0,342
    80006ebc:	6655059b          	addiw	a1,a0,1637
    80006ec0:	2cb33023          	sd	a1,704(t1)
    80006ec4:	555563b7          	lui	t2,0x55556
    80006ec8:	bbb3839b          	addiw	t2,t2,-1093 # 55555bbb <absimmsh+0x49a84e0e>
    80006ecc:	00b38463          	beq	t2,a1,80006ed4 <inst_623>
    80006ed0:	954f906f          	j	80000024 <rvtest_error>

0000000080006ed4 <inst_623>:
    80006ed4:	00100513          	li	a0,1
    80006ed8:	0065059b          	addiw	a1,a0,6
    80006edc:	2cb33423          	sd	a1,712(t1)
    80006ee0:	00700393          	li	t2,7
    80006ee4:	00b38463          	beq	t2,a1,80006eec <inst_624>
    80006ee8:	93cf906f          	j	80000024 <rvtest_error>

0000000080006eec <inst_624>:
    80006eec:	00100513          	li	a0,1
    80006ef0:	02051513          	slli	a0,a0,0x20
    80006ef4:	0025059b          	addiw	a1,a0,2
    80006ef8:	2cb33823          	sd	a1,720(t1)
    80006efc:	00200393          	li	t2,2
    80006f00:	00b38463          	beq	t2,a1,80006f08 <cleanup_epilogs>
    80006f04:	920f906f          	j	80000024 <rvtest_error>

0000000080006f08 <cleanup_epilogs>:
    80006f08:	0380006f          	j	80006f40 <exit_cleanup>

0000000080006f0c <abort_tests>:
    80006f0c:	1f813483          	ld	s1,504(sp)
    80006f10:	20013303          	ld	t1,512(sp)
    80006f14:	00930333          	add	t1,t1,s1
    80006f18:	00000337          	lui	t1,0x0
    80006f1c:	00030313          	mv	t1,t1
    80006f20:	00b31313          	slli	t1,t1,0xb
    80006f24:	5d630313          	addi	t1,t1,1494 # 5d6 <offset+0x2fe>
    80006f28:	00b31313          	slli	t1,t1,0xb
    80006f2c:	43630313          	addi	t1,t1,1078
    80006f30:	00a31313          	slli	t1,t1,0xa
    80006f34:	2d030313          	addi	t1,t1,720
    80006f38:	fe64be23          	sd	t1,-4(s1)
    80006f3c:	0040006f          	j	80006f40 <exit_cleanup>

0000000080006f40 <exit_cleanup>:
    80006f40:	00000513          	li	a0,0
    80006f44:	0140006f          	j	80006f58 <halt>
	...

0000000080006f58 <halt>:
    80006f58:	00050513          	mv	a0,a0
    80006f5c:	00100073          	ebreak
    80006f60:	0000006f          	j	80006f60 <halt+0x8>

0000000080006f64 <_trm_init>:
    80006f64:	ff010113          	addi	sp,sp,-16
    80006f68:	00000517          	auipc	a0,0x0
    80006f6c:	02050513          	addi	a0,a0,32 # 80006f88 <mainargs>
    80006f70:	00113423          	sd	ra,8(sp)
    80006f74:	89cf90ef          	jal	ra,80000010 <main>
    80006f78:	00050513          	mv	a0,a0
    80006f7c:	00100073          	ebreak
    80006f80:	0000006f          	j	80006f80 <_trm_init+0x1c>
