
/home/maveric/ics2023/riscv-arch-test-am/build/addw-riscv64-nemu.elf:     file format elf64-littleriscv


Disassembly of section .text:

0000000080000000 <_start>:
    80000000:	00000413          	li	s0,0
    80000004:	00016117          	auipc	sp,0x16
    80000008:	ffc10113          	addi	sp,sp,-4 # 80016000 <_end>
    8000000c:	4e50a0ef          	jal	ra,8000acf0 <_trm_init>

0000000080000010 <main>:
    80000010:	030000ef          	jal	ra,80000040 <rvtest_entry_point>
    80000014:	00100513          	li	a0,1
    80000018:	4cd0a0ef          	jal	ra,8000ace4 <halt>
    8000001c:	00000513          	li	a0,0
    80000020:	00008067          	ret

0000000080000024 <rvtest_error>:
    80000024:	00100513          	li	a0,1
    80000028:	4bd0a0ef          	jal	ra,8000ace4 <halt>
    8000002c:	00008067          	ret
	...

0000000080000040 <rvtest_entry_point>:
    80000040:	feedc0b7          	lui	ra,0xfeedc
    80000044:	ead08093          	addi	ra,ra,-339 # fffffffffeedbead <absimm+0xffffffff441ce3dd>
    80000048:	00b09093          	slli	ra,ra,0xb
    8000004c:	7f708093          	addi	ra,ra,2039
    80000050:	00b09093          	slli	ra,ra,0xb
    80000054:	36f08093          	addi	ra,ra,879
    80000058:	00a09093          	slli	ra,ra,0xa
    8000005c:	2ad08093          	addi	ra,ra,685
    80000060:	ff76e137          	lui	sp,0xff76e
    80000064:	f5610113          	addi	sp,sp,-170 # ffffffffff76df56 <absimm+0xffffffff44a60486>
    80000068:	00b11113          	slli	sp,sp,0xb
    8000006c:	7fb10113          	addi	sp,sp,2043
    80000070:	00b11113          	slli	sp,sp,0xb
    80000074:	5b710113          	addi	sp,sp,1463
    80000078:	00a11113          	slli	sp,sp,0xa
    8000007c:	35610113          	addi	sp,sp,854
    80000080:	7fbb71b7          	lui	gp,0x7fbb7
    80000084:	fab18193          	addi	gp,gp,-85 # 7fbb6fab <absimmsh+0x740e61fe>
    80000088:	00b19193          	slli	gp,gp,0xb
    8000008c:	3fd18193          	addi	gp,gp,1021
    80000090:	00b19193          	slli	gp,gp,0xb
    80000094:	6db18193          	addi	gp,gp,1755
    80000098:	00a19193          	slli	gp,gp,0xa
    8000009c:	3ab18193          	addi	gp,gp,939
    800000a0:	bfddb237          	lui	tp,0xbfddb
    800000a4:	7d520213          	addi	tp,tp,2005 # ffffffffbfddb7d5 <absimm+0xffffffff050cdd05>
    800000a8:	00b21213          	slli	tp,tp,0xb
    800000ac:	5fe20213          	addi	tp,tp,1534 # 5fe <offset+0x166>
    800000b0:	00b21213          	slli	tp,tp,0xb
    800000b4:	76d20213          	addi	tp,tp,1901 # 76d <offset+0x2d5>
    800000b8:	00a21213          	slli	tp,tp,0xa
    800000bc:	3d520213          	addi	tp,tp,981 # 3d5 <pos+0x395>
    800000c0:	dfeee2b7          	lui	t0,0xdfeee
    800000c4:	bea28293          	addi	t0,t0,-1046 # ffffffffdfeedbea <absimm+0xffffffff251e011a>
    800000c8:	00b29293          	slli	t0,t0,0xb
    800000cc:	6ff28293          	addi	t0,t0,1791
    800000d0:	00b29293          	slli	t0,t0,0xb
    800000d4:	3b628293          	addi	t0,t0,950
    800000d8:	00a29293          	slli	t0,t0,0xa
    800000dc:	3ea28293          	addi	t0,t0,1002
    800000e0:	6ff77337          	lui	t1,0x6ff77
    800000e4:	df530313          	addi	t1,t1,-523 # 6ff76df5 <absimmsh+0x644a6048>
    800000e8:	00b31313          	slli	t1,t1,0xb
    800000ec:	37f30313          	addi	t1,t1,895
    800000f0:	00b31313          	slli	t1,t1,0xb
    800000f4:	5db30313          	addi	t1,t1,1499
    800000f8:	00a31313          	slli	t1,t1,0xa
    800000fc:	1f530313          	addi	t1,t1,501
    80000100:	b7fbb3b7          	lui	t2,0xb7fbb
    80000104:	6fa38393          	addi	t2,t2,1786 # ffffffffb7fbb6fa <absimm+0xfffffffefd2adc2a>
    80000108:	00b39393          	slli	t2,t2,0xb
    8000010c:	5bf38393          	addi	t2,t2,1471
    80000110:	00b39393          	slli	t2,t2,0xb
    80000114:	6ed38393          	addi	t2,t2,1773
    80000118:	00a39393          	slli	t2,t2,0xa
    8000011c:	2fa38393          	addi	t2,t2,762
    80000120:	5bfde437          	lui	s0,0x5bfde
    80000124:	b7d40413          	addi	s0,s0,-1155 # 5bfddb7d <absimmsh+0x5050cdd0>
    80000128:	00b41413          	slli	s0,s0,0xb
    8000012c:	2df40413          	addi	s0,s0,735
    80000130:	00b41413          	slli	s0,s0,0xb
    80000134:	77640413          	addi	s0,s0,1910
    80000138:	00a41413          	slli	s0,s0,0xa
    8000013c:	37d40413          	addi	s0,s0,893
    80000140:	adfef4b7          	lui	s1,0xadfef
    80000144:	dbe48493          	addi	s1,s1,-578 # ffffffffadfeedbe <absimm+0xfffffffef32e12ee>
    80000148:	00b49493          	slli	s1,s1,0xb
    8000014c:	56f48493          	addi	s1,s1,1391
    80000150:	00b49493          	slli	s1,s1,0xb
    80000154:	7bb48493          	addi	s1,s1,1979
    80000158:	00a49493          	slli	s1,s1,0xa
    8000015c:	1be48493          	addi	s1,s1,446
    80000160:	56ff7537          	lui	a0,0x56ff7
    80000164:	6df50513          	addi	a0,a0,1759 # 56ff76df <absimmsh+0x4b526932>
    80000168:	00b51513          	slli	a0,a0,0xb
    8000016c:	2b750513          	addi	a0,a0,695
    80000170:	00b51513          	slli	a0,a0,0xb
    80000174:	7dd50513          	addi	a0,a0,2013
    80000178:	00a51513          	slli	a0,a0,0xa
    8000017c:	2df50513          	addi	a0,a0,735
    80000180:	ab7fc5b7          	lui	a1,0xab7fc
    80000184:	b6f58593          	addi	a1,a1,-1169 # ffffffffab7fbb6f <absimm+0xfffffffef0aee09f>
    80000188:	00b59593          	slli	a1,a1,0xb
    8000018c:	55b58593          	addi	a1,a1,1371
    80000190:	00b59593          	slli	a1,a1,0xb
    80000194:	7ee58593          	addi	a1,a1,2030
    80000198:	00a59593          	slli	a1,a1,0xa
    8000019c:	36f58593          	addi	a1,a1,879
    800001a0:	d5bfe637          	lui	a2,0xd5bfe
    800001a4:	db760613          	addi	a2,a2,-585 # ffffffffd5bfddb7 <absimm+0xffffffff1aef02e7>
    800001a8:	00b61613          	slli	a2,a2,0xb
    800001ac:	6ad60613          	addi	a2,a2,1709
    800001b0:	00b61613          	slli	a2,a2,0xb
    800001b4:	7f760613          	addi	a2,a2,2039
    800001b8:	00a61613          	slli	a2,a2,0xa
    800001bc:	1b760613          	addi	a2,a2,439
    800001c0:	eadff6b7          	lui	a3,0xeadff
    800001c4:	edb68693          	addi	a3,a3,-293 # ffffffffeadfeedb <absimm+0xffffffff300f140b>
    800001c8:	00b69693          	slli	a3,a3,0xb
    800001cc:	75668693          	addi	a3,a3,1878
    800001d0:	00b69693          	slli	a3,a3,0xb
    800001d4:	7fb68693          	addi	a3,a3,2043
    800001d8:	00a69693          	slli	a3,a3,0xa
    800001dc:	2db68693          	addi	a3,a3,731
    800001e0:	f56ff737          	lui	a4,0xf56ff
    800001e4:	76d70713          	addi	a4,a4,1901 # fffffffff56ff76d <absimm+0xffffffff3a9f1c9d>
    800001e8:	00b71713          	slli	a4,a4,0xb
    800001ec:	7ab70713          	addi	a4,a4,1963
    800001f0:	00b71713          	slli	a4,a4,0xb
    800001f4:	3fd70713          	addi	a4,a4,1021
    800001f8:	00a71713          	slli	a4,a4,0xa
    800001fc:	36d70713          	addi	a4,a4,877
    80000200:	fab807b7          	lui	a5,0xfab80
    80000204:	bb678793          	addi	a5,a5,-1098 # fffffffffab7fbb6 <absimm+0xffffffff3fe720e6>
    80000208:	00b79793          	slli	a5,a5,0xb
    8000020c:	7d578793          	addi	a5,a5,2005
    80000210:	00b79793          	slli	a5,a5,0xb
    80000214:	5fe78793          	addi	a5,a5,1534
    80000218:	00a79793          	slli	a5,a5,0xa
    8000021c:	3b678793          	addi	a5,a5,950
    80000220:	7d5c0837          	lui	a6,0x7d5c0
    80000224:	ddb80813          	addi	a6,a6,-549 # 7d5bfddb <absimmsh+0x71aef02e>
    80000228:	00b81813          	slli	a6,a6,0xb
    8000022c:	3ea80813          	addi	a6,a6,1002
    80000230:	00b81813          	slli	a6,a6,0xb
    80000234:	6ff80813          	addi	a6,a6,1791
    80000238:	00a81813          	slli	a6,a6,0xa
    8000023c:	1db80813          	addi	a6,a6,475
    80000240:	beae08b7          	lui	a7,0xbeae0
    80000244:	eed88893          	addi	a7,a7,-275 # ffffffffbeadfeed <absimm+0xffffffff03dd241d>
    80000248:	00b89893          	slli	a7,a7,0xb
    8000024c:	5f588893          	addi	a7,a7,1525
    80000250:	00b89893          	slli	a7,a7,0xb
    80000254:	37f88893          	addi	a7,a7,895
    80000258:	00a89893          	slli	a7,a7,0xa
    8000025c:	2ed88893          	addi	a7,a7,749
    80000260:	df570937          	lui	s2,0xdf570
    80000264:	f7690913          	addi	s2,s2,-138 # ffffffffdf56ff76 <absimm+0xffffffff248624a6>
    80000268:	00b91913          	slli	s2,s2,0xb
    8000026c:	6fa90913          	addi	s2,s2,1786
    80000270:	00b91913          	slli	s2,s2,0xb
    80000274:	5bf90913          	addi	s2,s2,1471
    80000278:	00a91913          	slli	s2,s2,0xa
    8000027c:	37690913          	addi	s2,s2,886
    80000280:	6fab89b7          	lui	s3,0x6fab8
    80000284:	fbb98993          	addi	s3,s3,-69 # 6fab7fbb <absimmsh+0x63fe720e>
    80000288:	00b99993          	slli	s3,s3,0xb
    8000028c:	37d98993          	addi	s3,s3,893
    80000290:	00b99993          	slli	s3,s3,0xb
    80000294:	2df98993          	addi	s3,s3,735
    80000298:	00a99993          	slli	s3,s3,0xa
    8000029c:	3bb98993          	addi	s3,s3,955
    800002a0:	b7d5ca37          	lui	s4,0xb7d5c
    800002a4:	fdda0a13          	addi	s4,s4,-35 # ffffffffb7d5bfdd <absimm+0xfffffffefd04e50d>
    800002a8:	00ba1a13          	slli	s4,s4,0xb
    800002ac:	5bea0a13          	addi	s4,s4,1470
    800002b0:	00ba1a13          	slli	s4,s4,0xb
    800002b4:	56fa0a13          	addi	s4,s4,1391
    800002b8:	00aa1a13          	slli	s4,s4,0xa
    800002bc:	3dda0a13          	addi	s4,s4,989
    800002c0:	dbeaeab7          	lui	s5,0xdbeae
    800002c4:	feea8a93          	addi	s5,s5,-18 # ffffffffdbeadfee <absimm+0xffffffff211a051e>
    800002c8:	00ba9a93          	slli	s5,s5,0xb
    800002cc:	6dfa8a93          	addi	s5,s5,1759
    800002d0:	00ba9a93          	slli	s5,s5,0xb
    800002d4:	2b7a8a93          	addi	s5,s5,695
    800002d8:	00aa9a93          	slli	s5,s5,0xa
    800002dc:	3eea8a93          	addi	s5,s5,1006
    800002e0:	6df57b37          	lui	s6,0x6df57
    800002e4:	ff7b0b13          	addi	s6,s6,-9 # 6df56ff7 <absimmsh+0x6248624a>
    800002e8:	00bb1b13          	slli	s6,s6,0xb
    800002ec:	36fb0b13          	addi	s6,s6,879
    800002f0:	00bb1b13          	slli	s6,s6,0xb
    800002f4:	55bb0b13          	addi	s6,s6,1371
    800002f8:	00ab1b13          	slli	s6,s6,0xa
    800002fc:	3f7b0b13          	addi	s6,s6,1015
    80000300:	b6fabbb7          	lui	s7,0xb6fab
    80000304:	7fbb8b93          	addi	s7,s7,2043 # ffffffffb6fab7fb <absimm+0xfffffffefc29dd2b>
    80000308:	00bb9b93          	slli	s7,s7,0xb
    8000030c:	5b7b8b93          	addi	s7,s7,1463
    80000310:	00bb9b93          	slli	s7,s7,0xb
    80000314:	6adb8b93          	addi	s7,s7,1709
    80000318:	00ab9b93          	slli	s7,s7,0xa
    8000031c:	3fbb8b93          	addi	s7,s7,1019
    80000320:	db7d6c37          	lui	s8,0xdb7d6
    80000324:	bfdc0c13          	addi	s8,s8,-1027 # ffffffffdb7d5bfd <absimm+0xffffffff20ac812d>
    80000328:	00bc1c13          	slli	s8,s8,0xb
    8000032c:	6dbc0c13          	addi	s8,s8,1755
    80000330:	00bc1c13          	slli	s8,s8,0xb
    80000334:	756c0c13          	addi	s8,s8,1878
    80000338:	00ac1c13          	slli	s8,s8,0xa
    8000033c:	3fdc0c13          	addi	s8,s8,1021
    80000340:	edbebcb7          	lui	s9,0xedbeb
    80000344:	dfec8c93          	addi	s9,s9,-514 # ffffffffedbeadfe <absimm+0xffffffff32edd32e>
    80000348:	00bc9c93          	slli	s9,s9,0xb
    8000034c:	76dc8c93          	addi	s9,s9,1901
    80000350:	00bc9c93          	slli	s9,s9,0xb
    80000354:	7abc8c93          	addi	s9,s9,1963
    80000358:	00ac9c93          	slli	s9,s9,0xa
    8000035c:	1fec8c93          	addi	s9,s9,510
    80000360:	76df5d37          	lui	s10,0x76df5
    80000364:	6ffd0d13          	addi	s10,s10,1791 # 76df56ff <absimmsh+0x6b324952>
    80000368:	00bd1d13          	slli	s10,s10,0xb
    8000036c:	3b6d0d13          	addi	s10,s10,950
    80000370:	00bd1d13          	slli	s10,s10,0xb
    80000374:	7d5d0d13          	addi	s10,s10,2005
    80000378:	00ad1d13          	slli	s10,s10,0xa
    8000037c:	2ffd0d13          	addi	s10,s10,767
    80000380:	bb6fbdb7          	lui	s11,0xbb6fb
    80000384:	b7fd8d93          	addi	s11,s11,-1153 # ffffffffbb6fab7f <absimm+0xffffffff009ed0af>
    80000388:	00bd9d93          	slli	s11,s11,0xb
    8000038c:	5dbd8d93          	addi	s11,s11,1499
    80000390:	00bd9d93          	slli	s11,s11,0xb
    80000394:	3ead8d93          	addi	s11,s11,1002
    80000398:	00ad9d93          	slli	s11,s11,0xa
    8000039c:	37fd8d93          	addi	s11,s11,895
    800003a0:	ddb7de37          	lui	t3,0xddb7d
    800003a4:	5bfe0e13          	addi	t3,t3,1471 # ffffffffddb7d5bf <absimm+0xffffffff22e6faef>
    800003a8:	00be1e13          	slli	t3,t3,0xb
    800003ac:	6ede0e13          	addi	t3,t3,1773
    800003b0:	00be1e13          	slli	t3,t3,0xb
    800003b4:	5f5e0e13          	addi	t3,t3,1525
    800003b8:	00ae1e13          	slli	t3,t3,0xa
    800003bc:	1bfe0e13          	addi	t3,t3,447
    800003c0:	eedbfeb7          	lui	t4,0xeedbf
    800003c4:	adfe8e93          	addi	t4,t4,-1313 # ffffffffeedbeadf <absimm+0xffffffff340b100f>
    800003c8:	00be9e93          	slli	t4,t4,0xb
    800003cc:	776e8e93          	addi	t4,t4,1910
    800003d0:	00be9e93          	slli	t4,t4,0xb
    800003d4:	6fae8e93          	addi	t4,t4,1786
    800003d8:	00ae9e93          	slli	t4,t4,0xa
    800003dc:	2dfe8e93          	addi	t4,t4,735
    800003e0:	f76dff37          	lui	t5,0xf76df
    800003e4:	56ff0f13          	addi	t5,t5,1391 # fffffffff76df56f <absimm+0xffffffff3c9d1a9f>
    800003e8:	00bf1f13          	slli	t5,t5,0xb
    800003ec:	7bbf0f13          	addi	t5,t5,1979
    800003f0:	00bf1f13          	slli	t5,t5,0xb
    800003f4:	37df0f13          	addi	t5,t5,893
    800003f8:	00af1f13          	slli	t5,t5,0xa
    800003fc:	16ff0f13          	addi	t5,t5,367
    80000400:	fbb70fb7          	lui	t6,0xfbb70
    80000404:	ab7f8f93          	addi	t6,t6,-1353 # fffffffffbb6fab7 <absimm+0xffffffff40e61fe7>
    80000408:	00bf9f93          	slli	t6,t6,0xb
    8000040c:	7ddf8f93          	addi	t6,t6,2013
    80000410:	00bf9f93          	slli	t6,t6,0xb
    80000414:	5bef8f93          	addi	t6,t6,1470
    80000418:	00af9f93          	slli	t6,t6,0xa
    8000041c:	2b7f8f93          	addi	t6,t6,695

0000000080000420 <rvtest_code_begin>:
    80000420:	0000c097          	auipc	ra,0xc
    80000424:	be808093          	addi	ra,ra,-1048 # 8000c008 <signature_x1_0>
    80000428:	00000013          	nop
    8000042c:	00000013          	nop
    80000430:	00000013          	nop
    80000434:	00000013          	nop
    80000438:	00000013          	nop
    8000043c:	00000013          	nop

0000000080000440 <inst_0>:
    80000440:	00100a93          	li	s5,1
    80000444:	021a9a93          	slli	s5,s5,0x21
    80000448:	00100a93          	li	s5,1
    8000044c:	021a9a93          	slli	s5,s5,0x21
    80000450:	015a81bb          	addw	gp,s5,s5
    80000454:	0030b023          	sd	gp,0(ra)
    80000458:	00000313          	li	t1,0
    8000045c:	00330463          	beq	t1,gp,80000464 <inst_1>
    80000460:	bc5ff06f          	j	80000024 <rvtest_error>

0000000080000464 <inst_1>:
    80000464:	02000293          	li	t0,32
    80000468:	00100813          	li	a6,1
    8000046c:	01081813          	slli	a6,a6,0x10
    80000470:	fff84813          	not	a6,a6
    80000474:	0102883b          	addw	a6,t0,a6
    80000478:	0100b423          	sd	a6,8(ra)
    8000047c:	ffff0337          	lui	t1,0xffff0
    80000480:	01f3031b          	addiw	t1,t1,31 # ffffffffffff001f <absimm+0xffffffff452e254f>
    80000484:	01030463          	beq	t1,a6,8000048c <inst_2>
    80000488:	b9dff06f          	j	80000024 <rvtest_error>

000000008000048c <inst_2>:
    8000048c:	00100393          	li	t2,1
    80000490:	02739393          	slli	t2,t2,0x27
    80000494:	fff3c393          	not	t2,t2
    80000498:	00100393          	li	t2,1
    8000049c:	02739393          	slli	t2,t2,0x27
    800004a0:	fff3c393          	not	t2,t2
    800004a4:	007383bb          	addw	t2,t2,t2
    800004a8:	0070b823          	sd	t2,16(ra)
    800004ac:	ffe00313          	li	t1,-2
    800004b0:	00730463          	beq	t1,t2,800004b8 <inst_3>
    800004b4:	b71ff06f          	j	80000024 <rvtest_error>

00000000800004b8 <inst_3>:
    800004b8:	00100e93          	li	t4,1
    800004bc:	00ee9e93          	slli	t4,t4,0xe
    800004c0:	fffece93          	not	t4,t4
    800004c4:	00100593          	li	a1,1
    800004c8:	03259593          	slli	a1,a1,0x32
    800004cc:	00be823b          	addw	tp,t4,a1
    800004d0:	0040bc23          	sd	tp,24(ra)
    800004d4:	ffffc337          	lui	t1,0xffffc
    800004d8:	fff3031b          	addiw	t1,t1,-1 # ffffffffffffbfff <absimm+0xffffffff452ee52f>
    800004dc:	00430463          	beq	t1,tp,800004e4 <inst_4>
    800004e0:	b45ff06f          	j	80000024 <rvtest_error>

00000000800004e4 <inst_4>:
    800004e4:	00100b93          	li	s7,1
    800004e8:	02fb9b93          	slli	s7,s7,0x2f
    800004ec:	fffbcb93          	not	s7,s7
    800004f0:	00100413          	li	s0,1
    800004f4:	02f41413          	slli	s0,s0,0x2f
    800004f8:	fff44413          	not	s0,s0
    800004fc:	008b8bbb          	addw	s7,s7,s0
    80000500:	0370b023          	sd	s7,32(ra)
    80000504:	ffe00313          	li	t1,-2
    80000508:	01730463          	beq	t1,s7,80000510 <inst_5>
    8000050c:	b19ff06f          	j	80000024 <rvtest_error>

0000000080000510 <inst_5>:
    80000510:	fff00d13          	li	s10,-1
    80000514:	001d5d13          	srli	s10,s10,0x1
    80000518:	fff00e13          	li	t3,-1
    8000051c:	03fe1e13          	slli	t3,t3,0x3f
    80000520:	01cd06bb          	addw	a3,s10,t3
    80000524:	02d0b423          	sd	a3,40(ra)
    80000528:	fff00313          	li	t1,-1
    8000052c:	00d30463          	beq	t1,a3,80000534 <inst_6>
    80000530:	af5ff06f          	j	80000024 <rvtest_error>

0000000080000534 <inst_6>:
    80000534:	00100493          	li	s1,1
    80000538:	02149493          	slli	s1,s1,0x21
    8000053c:	00000f13          	li	t5,0
    80000540:	01e489bb          	addw	s3,s1,t5
    80000544:	0330b823          	sd	s3,48(ra)
    80000548:	00000313          	li	t1,0
    8000054c:	01330463          	beq	t1,s3,80000554 <inst_7>
    80000550:	ad5ff06f          	j	80000024 <rvtest_error>

0000000080000554 <inst_7>:
    80000554:	33333437          	lui	s0,0x33333
    80000558:	33340413          	addi	s0,s0,819 # 33333333 <absimmsh+0x27862586>
    8000055c:	00b41413          	slli	s0,s0,0xb
    80000560:	19940413          	addi	s0,s0,409
    80000564:	00b41413          	slli	s0,s0,0xb
    80000568:	4cc40413          	addi	s0,s0,1228
    8000056c:	00a41413          	slli	s0,s0,0xa
    80000570:	33240413          	addi	s0,s0,818
    80000574:	fff00913          	li	s2,-1
    80000578:	00195913          	srli	s2,s2,0x1
    8000057c:	01240dbb          	addw	s11,s0,s2
    80000580:	03b0bc23          	sd	s11,56(ra)
    80000584:	33333337          	lui	t1,0x33333
    80000588:	3313031b          	addiw	t1,t1,817 # 33333331 <absimmsh+0x27862584>
    8000058c:	01b30463          	beq	t1,s11,80000594 <inst_8>
    80000590:	a95ff06f          	j	80000024 <rvtest_error>

0000000080000594 <inst_8>:
    80000594:	00100913          	li	s2,1
    80000598:	01c91913          	slli	s2,s2,0x1c
    8000059c:	fff94913          	not	s2,s2
    800005a0:	00100b13          	li	s6,1
    800005a4:	0169043b          	addw	s0,s2,s6
    800005a8:	0480b023          	sd	s0,64(ra)
    800005ac:	f0000337          	lui	t1,0xf0000
    800005b0:	00830463          	beq	t1,s0,800005b8 <inst_9>
    800005b4:	a71ff06f          	j	80000024 <rvtest_error>

00000000800005b8 <inst_9>:
    800005b8:	fff00693          	li	a3,-1
    800005bc:	03f69693          	slli	a3,a3,0x3f
    800005c0:	00100a13          	li	s4,1
    800005c4:	00da1a13          	slli	s4,s4,0xd
    800005c8:	0146803b          	addw	zero,a3,s4
    800005cc:	0400b423          	sd	zero,72(ra)
    800005d0:	00000313          	li	t1,0
    800005d4:	00030463          	beqz	t1,800005dc <inst_10>
    800005d8:	a4dff06f          	j	80000024 <rvtest_error>

00000000800005dc <inst_10>:
    800005dc:	00000f13          	li	t5,0
    800005e0:	00100c13          	li	s8,1
    800005e4:	019c1c13          	slli	s8,s8,0x19
    800005e8:	018f0e3b          	addw	t3,t5,s8
    800005ec:	05c0b823          	sd	t3,80(ra)
    800005f0:	02000337          	lui	t1,0x2000
    800005f4:	01c30463          	beq	t1,t3,800005fc <inst_11>
    800005f8:	a2dff06f          	j	80000024 <rvtest_error>

00000000800005fc <inst_11>:
    800005fc:	00100893          	li	a7,1
    80000600:	00000013          	nop
    80000604:	00088b3b          	addw	s6,a7,zero
    80000608:	0560bc23          	sd	s6,88(ra)
    8000060c:	00100313          	li	t1,1
    80000610:	01630463          	beq	t1,s6,80000618 <inst_12>
    80000614:	a11ff06f          	j	80000024 <rvtest_error>

0000000080000618 <inst_12>:
    80000618:	00000013          	nop
    8000061c:	00200213          	li	tp,2
    80000620:	0040013b          	addw	sp,zero,tp
    80000624:	0620b023          	sd	sp,96(ra)
    80000628:	00200313          	li	t1,2
    8000062c:	00230463          	beq	t1,sp,80000634 <inst_13>
    80000630:	9f5ff06f          	j	80000024 <rvtest_error>

0000000080000634 <inst_13>:
    80000634:	00100e13          	li	t3,1
    80000638:	01be1e13          	slli	t3,t3,0x1b
    8000063c:	00400713          	li	a4,4
    80000640:	00ee0abb          	addw	s5,t3,a4
    80000644:	0750b423          	sd	s5,104(ra)
    80000648:	08000337          	lui	t1,0x8000
    8000064c:	0043031b          	addiw	t1,t1,4 # 8000004 <offset+0x7fffb6c>
    80000650:	01530463          	beq	t1,s5,80000658 <inst_14>
    80000654:	9d1ff06f          	j	80000024 <rvtest_error>

0000000080000658 <inst_14>:
    80000658:	00100213          	li	tp,1
    8000065c:	03b21213          	slli	tp,tp,0x3b
    80000660:	00800f93          	li	t6,8
    80000664:	01f2053b          	addw	a0,tp,t6
    80000668:	06a0b823          	sd	a0,112(ra)
    8000066c:	00800313          	li	t1,8
    80000670:	00a30463          	beq	t1,a0,80000678 <inst_15>
    80000674:	9b1ff06f          	j	80000024 <rvtest_error>

0000000080000678 <inst_15>:
    80000678:	00000a37          	lui	s4,0x0
    8000067c:	fffa0a13          	addi	s4,s4,-1
    80000680:	00ba1a13          	slli	s4,s4,0xb
    80000684:	257a0a13          	addi	s4,s4,599
    80000688:	00ba1a13          	slli	s4,s4,0xb
    8000068c:	6c3a0a13          	addi	s4,s4,1731
    80000690:	00aa1a13          	slli	s4,s4,0xa
    80000694:	0cda0a13          	addi	s4,s4,205
    80000698:	01000c93          	li	s9,16
    8000069c:	019a0fbb          	addw	t6,s4,s9
    800006a0:	07f0bc23          	sd	t6,120(ra)
    800006a4:	4afb1337          	lui	t1,0x4afb1
    800006a8:	cdd3031b          	addiw	t1,t1,-803 # 4afb0cdd <absimmsh+0x3f4dff30>
    800006ac:	01f30463          	beq	t1,t6,800006b4 <inst_16>
    800006b0:	975ff06f          	j	80000024 <rvtest_error>

00000000800006b4 <inst_16>:
    800006b4:	00100993          	li	s3,1
    800006b8:	00b99993          	slli	s3,s3,0xb
    800006bc:	fff9c993          	not	s3,s3
    800006c0:	02000193          	li	gp,32
    800006c4:	00398cbb          	addw	s9,s3,gp
    800006c8:	0990b023          	sd	s9,128(ra)
    800006cc:	81f00413          	li	s0,-2017
    800006d0:	01940463          	beq	s0,s9,800006d8 <inst_17>
    800006d4:	951ff06f          	j	80000024 <rvtest_error>

00000000800006d8 <inst_17>:
    800006d8:	00100513          	li	a0,1
    800006dc:	00c51513          	slli	a0,a0,0xc
    800006e0:	fff54513          	not	a0,a0
    800006e4:	04000893          	li	a7,64
    800006e8:	01150c3b          	addw	s8,a0,a7
    800006ec:	0980b423          	sd	s8,136(ra)
    800006f0:	fffff437          	lui	s0,0xfffff
    800006f4:	03f4041b          	addiw	s0,s0,63 # fffffffffffff03f <absimm+0xffffffff452f156f>
    800006f8:	01840463          	beq	s0,s8,80000700 <inst_18>
    800006fc:	929ff06f          	j	80000024 <rvtest_error>

0000000080000700 <inst_18>:
    80000700:	00100793          	li	a5,1
    80000704:	02679793          	slli	a5,a5,0x26
    80000708:	08000693          	li	a3,128
    8000070c:	00d7873b          	addw	a4,a5,a3
    80000710:	08e0b823          	sd	a4,144(ra)
    80000714:	08000413          	li	s0,128
    80000718:	00e40463          	beq	s0,a4,80000720 <inst_18+0x20>
    8000071c:	909ff06f          	j	80000024 <rvtest_error>
    80000720:	0000c397          	auipc	t2,0xc
    80000724:	98038393          	addi	t2,t2,-1664 # 8000c0a0 <signature_x7_0>
    80000728:	00000013          	nop
    8000072c:	00000013          	nop
    80000730:	00000013          	nop
    80000734:	00000013          	nop
    80000738:	00000013          	nop
    8000073c:	00000013          	nop

0000000080000740 <inst_19>:
    80000740:	ff600193          	li	gp,-10
    80000744:	10000093          	li	ra,256
    80000748:	00118d3b          	addw	s10,gp,ra
    8000074c:	01a3b023          	sd	s10,0(t2)
    80000750:	0f600413          	li	s0,246
    80000754:	01a40463          	beq	s0,s10,8000075c <inst_20>
    80000758:	8cdff06f          	j	80000024 <rvtest_error>

000000008000075c <inst_20>:
    8000075c:	00100093          	li	ra,1
    80000760:	02209093          	slli	ra,ra,0x22
    80000764:	20000113          	li	sp,512
    80000768:	00208ebb          	addw	t4,ra,sp
    8000076c:	01d3b423          	sd	t4,8(t2)
    80000770:	20000413          	li	s0,512
    80000774:	01d40463          	beq	s0,t4,8000077c <inst_21>
    80000778:	8adff06f          	j	80000024 <rvtest_error>

000000008000077c <inst_21>:
    8000077c:	00500713          	li	a4,5
    80000780:	40000293          	li	t0,1024
    80000784:	0057093b          	addw	s2,a4,t0
    80000788:	0123b823          	sd	s2,16(t2)
    8000078c:	40500413          	li	s0,1029
    80000790:	01240463          	beq	s0,s2,80000798 <inst_22>
    80000794:	891ff06f          	j	80000024 <rvtest_error>

0000000080000798 <inst_22>:
    80000798:	00100d93          	li	s11,1
    8000079c:	00bd9d93          	slli	s11,s11,0xb
    800007a0:	00100d13          	li	s10,1
    800007a4:	00bd1d13          	slli	s10,s10,0xb
    800007a8:	01ad8a3b          	addw	s4,s11,s10
    800007ac:	0143bc23          	sd	s4,24(t2)
    800007b0:	00001437          	lui	s0,0x1
    800007b4:	01440463          	beq	s0,s4,800007bc <inst_23>
    800007b8:	86dff06f          	j	80000024 <rvtest_error>

00000000800007bc <inst_23>:
    800007bc:	00100c13          	li	s8,1
    800007c0:	02ec1c13          	slli	s8,s8,0x2e
    800007c4:	fffc4c13          	not	s8,s8
    800007c8:	00100e93          	li	t4,1
    800007cc:	00ce9e93          	slli	t4,t4,0xc
    800007d0:	01dc063b          	addw	a2,s8,t4
    800007d4:	02c3b023          	sd	a2,32(t2)
    800007d8:	00001437          	lui	s0,0x1
    800007dc:	fff4041b          	addiw	s0,s0,-1 # fff <offset+0xb67>
    800007e0:	00c40463          	beq	s0,a2,800007e8 <inst_24>
    800007e4:	841ff06f          	j	80000024 <rvtest_error>

00000000800007e8 <inst_24>:
    800007e8:	dff00613          	li	a2,-513
    800007ec:	00100313          	li	t1,1
    800007f0:	00e31313          	slli	t1,t1,0xe
    800007f4:	006600bb          	addw	ra,a2,t1
    800007f8:	0213b423          	sd	ra,40(t2)
    800007fc:	00004437          	lui	s0,0x4
    80000800:	dff4041b          	addiw	s0,s0,-513 # 3dff <offset+0x3967>
    80000804:	00140463          	beq	s0,ra,8000080c <inst_25>
    80000808:	81dff06f          	j	80000024 <rvtest_error>

000000008000080c <inst_25>:
    8000080c:	ffa00b13          	li	s6,-6
    80000810:	00100493          	li	s1,1
    80000814:	00f49493          	slli	s1,s1,0xf
    80000818:	009b02bb          	addw	t0,s6,s1
    8000081c:	0253b823          	sd	t0,48(t2)
    80000820:	00008437          	lui	s0,0x8
    80000824:	ffa4041b          	addiw	s0,s0,-6 # 7ffa <offset+0x7b62>
    80000828:	00540463          	beq	s0,t0,80000830 <inst_26>
    8000082c:	ff8ff06f          	j	80000024 <rvtest_error>

0000000080000830 <inst_26>:
    80000830:	333335b7          	lui	a1,0x33333
    80000834:	33358593          	addi	a1,a1,819 # 33333333 <absimmsh+0x27862586>
    80000838:	00b59593          	slli	a1,a1,0xb
    8000083c:	19958593          	addi	a1,a1,409
    80000840:	00b59593          	slli	a1,a1,0xb
    80000844:	4cc58593          	addi	a1,a1,1228
    80000848:	00a59593          	slli	a1,a1,0xa
    8000084c:	33258593          	addi	a1,a1,818
    80000850:	00100993          	li	s3,1
    80000854:	01099993          	slli	s3,s3,0x10
    80000858:	013584bb          	addw	s1,a1,s3
    8000085c:	0293bc23          	sd	s1,56(t2)
    80000860:	33343437          	lui	s0,0x33343
    80000864:	3324041b          	addiw	s0,s0,818 # 33343332 <absimmsh+0x27872585>
    80000868:	00940463          	beq	s0,s1,80000870 <inst_27>
    8000086c:	fb8ff06f          	j	80000024 <rvtest_error>

0000000080000870 <inst_27>:
    80000870:	66666fb7          	lui	t6,0x66666
    80000874:	666f8f93          	addi	t6,t6,1638 # 66666666 <absimmsh+0x5ab958b9>
    80000878:	00bf9f93          	slli	t6,t6,0xb
    8000087c:	333f8f93          	addi	t6,t6,819
    80000880:	00bf9f93          	slli	t6,t6,0xb
    80000884:	199f8f93          	addi	t6,t6,409
    80000888:	00af9f93          	slli	t6,t6,0xa
    8000088c:	267f8f93          	addi	t6,t6,615
    80000890:	00100d93          	li	s11,1
    80000894:	011d9d93          	slli	s11,s11,0x11
    80000898:	01bf88bb          	addw	a7,t6,s11
    8000089c:	0513b023          	sd	a7,64(t2)
    800008a0:	66686437          	lui	s0,0x66686
    800008a4:	6674041b          	addiw	s0,s0,1639 # 66686667 <absimmsh+0x5abb58ba>
    800008a8:	01140463          	beq	s0,a7,800008b0 <inst_28>
    800008ac:	f78ff06f          	j	80000024 <rvtest_error>

00000000800008b0 <inst_28>:
    800008b0:	00100113          	li	sp,1
    800008b4:	02911113          	slli	sp,sp,0x29
    800008b8:	fff14113          	not	sp,sp
    800008bc:	00100613          	li	a2,1
    800008c0:	01261613          	slli	a2,a2,0x12
    800008c4:	00c105bb          	addw	a1,sp,a2
    800008c8:	04b3b423          	sd	a1,72(t2)
    800008cc:	00040437          	lui	s0,0x40
    800008d0:	fff4041b          	addiw	s0,s0,-1 # 3ffff <offset+0x3fb67>
    800008d4:	00b40463          	beq	s0,a1,800008dc <inst_29>
    800008d8:	f4cff06f          	j	80000024 <rvtest_error>

00000000800008dc <inst_29>:
    800008dc:	00100813          	li	a6,1
    800008e0:	00f81813          	slli	a6,a6,0xf
    800008e4:	fff84813          	not	a6,a6
    800008e8:	00100b93          	li	s7,1
    800008ec:	013b9b93          	slli	s7,s7,0x13
    800008f0:	01780f3b          	addw	t5,a6,s7
    800008f4:	05e3b823          	sd	t5,80(t2)
    800008f8:	00078437          	lui	s0,0x78
    800008fc:	fff4041b          	addiw	s0,s0,-1 # 77fff <offset+0x77b67>
    80000900:	01e40463          	beq	s0,t5,80000908 <inst_30>
    80000904:	f20ff06f          	j	80000024 <rvtest_error>

0000000080000908 <inst_30>:
    80000908:	00100c93          	li	s9,1
    8000090c:	00100513          	li	a0,1
    80000910:	01451513          	slli	a0,a0,0x14
    80000914:	00ac833b          	addw	t1,s9,a0
    80000918:	0463bc23          	sd	t1,88(t2)
    8000091c:	00100437          	lui	s0,0x100
    80000920:	0014041b          	addiw	s0,s0,1 # 100001 <offset+0xffb69>
    80000924:	00640463          	beq	s0,t1,8000092c <inst_31>
    80000928:	efcff06f          	j	80000024 <rvtest_error>

000000008000092c <inst_31>:
    8000092c:	fef00313          	li	t1,-17
    80000930:	00100213          	li	tp,1
    80000934:	01521213          	slli	tp,tp,0x15
    80000938:	004305bb          	addw	a1,t1,tp
    8000093c:	06b3b023          	sd	a1,96(t2)
    80000940:	00200437          	lui	s0,0x200
    80000944:	fef4041b          	addiw	s0,s0,-17 # 1fffef <offset+0x1ffb57>
    80000948:	00b40463          	beq	s0,a1,80000950 <inst_32>
    8000094c:	ed8ff06f          	j	80000024 <rvtest_error>

0000000080000950 <inst_32>:
    80000950:	ff700b93          	li	s7,-9
    80000954:	00100793          	li	a5,1
    80000958:	01679793          	slli	a5,a5,0x16
    8000095c:	00fb873b          	addw	a4,s7,a5
    80000960:	06e3b423          	sd	a4,104(t2)
    80000964:	004000b7          	lui	ra,0x400
    80000968:	ff70809b          	addiw	ra,ra,-9 # 3ffff7 <offset+0x3ffb5f>
    8000096c:	00e08463          	beq	ra,a4,80000974 <inst_33>
    80000970:	eb4ff06f          	j	80000024 <rvtest_error>

0000000080000974 <inst_33>:
    80000974:	00100493          	li	s1,1
    80000978:	03b49493          	slli	s1,s1,0x3b
    8000097c:	fff4c493          	not	s1,s1
    80000980:	00100993          	li	s3,1
    80000984:	01799993          	slli	s3,s3,0x17
    80000988:	013487bb          	addw	a5,s1,s3
    8000098c:	06f3b823          	sd	a5,112(t2)
    80000990:	008000b7          	lui	ra,0x800
    80000994:	fff0809b          	addiw	ra,ra,-1 # 7fffff <offset+0x7ffb67>
    80000998:	00f08463          	beq	ra,a5,800009a0 <inst_34>
    8000099c:	e88ff06f          	j	80000024 <rvtest_error>

00000000800009a0 <inst_34>:
    800009a0:	66666537          	lui	a0,0x66666
    800009a4:	66650513          	addi	a0,a0,1638 # 66666666 <absimmsh+0x5ab958b9>
    800009a8:	00b51513          	slli	a0,a0,0xb
    800009ac:	33350513          	addi	a0,a0,819
    800009b0:	00b51513          	slli	a0,a0,0xb
    800009b4:	19950513          	addi	a0,a0,409
    800009b8:	00a51513          	slli	a0,a0,0xa
    800009bc:	26650513          	addi	a0,a0,614
    800009c0:	00100593          	li	a1,1
    800009c4:	01859593          	slli	a1,a1,0x18
    800009c8:	00b5063b          	addw	a2,a0,a1
    800009cc:	06c3bc23          	sd	a2,120(t2)
    800009d0:	676660b7          	lui	ra,0x67666
    800009d4:	6660809b          	addiw	ra,ra,1638 # 67666666 <absimmsh+0x5bb958b9>
    800009d8:	00c08463          	beq	ra,a2,800009e0 <inst_35>
    800009dc:	e48ff06f          	j	80000024 <rvtest_error>

00000000800009e0 <inst_35>:
    800009e0:	00100513          	li	a0,1
    800009e4:	01751513          	slli	a0,a0,0x17
    800009e8:	00100593          	li	a1,1
    800009ec:	01a59593          	slli	a1,a1,0x1a
    800009f0:	00b5063b          	addw	a2,a0,a1
    800009f4:	08c3b023          	sd	a2,128(t2)
    800009f8:	048000b7          	lui	ra,0x4800
    800009fc:	00c08463          	beq	ra,a2,80000a04 <inst_36>
    80000a00:	e24ff06f          	j	80000024 <rvtest_error>

0000000080000a04 <inst_36>:
    80000a04:	ff800513          	li	a0,-8
    80000a08:	00100593          	li	a1,1
    80000a0c:	01b59593          	slli	a1,a1,0x1b
    80000a10:	00b5063b          	addw	a2,a0,a1
    80000a14:	08c3b423          	sd	a2,136(t2)
    80000a18:	080000b7          	lui	ra,0x8000
    80000a1c:	ff80809b          	addiw	ra,ra,-8 # 7fffff8 <offset+0x7fffb60>
    80000a20:	00c08463          	beq	ra,a2,80000a28 <inst_37>
    80000a24:	e00ff06f          	j	80000024 <rvtest_error>

0000000080000a28 <inst_37>:
    80000a28:	00100513          	li	a0,1
    80000a2c:	00f51513          	slli	a0,a0,0xf
    80000a30:	fff54513          	not	a0,a0
    80000a34:	00100593          	li	a1,1
    80000a38:	01c59593          	slli	a1,a1,0x1c
    80000a3c:	00b5063b          	addw	a2,a0,a1
    80000a40:	08c3b823          	sd	a2,144(t2)
    80000a44:	0fff80b7          	lui	ra,0xfff8
    80000a48:	fff0809b          	addiw	ra,ra,-1 # fff7fff <absimmsh+0x4527252>
    80000a4c:	00c08463          	beq	ra,a2,80000a54 <inst_38>
    80000a50:	dd4ff06f          	j	80000024 <rvtest_error>

0000000080000a54 <inst_38>:
    80000a54:	00100513          	li	a0,1
    80000a58:	01f51513          	slli	a0,a0,0x1f
    80000a5c:	00100593          	li	a1,1
    80000a60:	01d59593          	slli	a1,a1,0x1d
    80000a64:	00b5063b          	addw	a2,a0,a1
    80000a68:	08c3bc23          	sd	a2,152(t2)
    80000a6c:	a00000b7          	lui	ra,0xa0000
    80000a70:	00c08463          	beq	ra,a2,80000a78 <inst_39>
    80000a74:	db0ff06f          	j	80000024 <rvtest_error>

0000000080000a78 <inst_39>:
    80000a78:	00100513          	li	a0,1
    80000a7c:	03c51513          	slli	a0,a0,0x3c
    80000a80:	fff54513          	not	a0,a0
    80000a84:	00100593          	li	a1,1
    80000a88:	01e59593          	slli	a1,a1,0x1e
    80000a8c:	00b5063b          	addw	a2,a0,a1
    80000a90:	0ac3b023          	sd	a2,160(t2)
    80000a94:	400000b7          	lui	ra,0x40000
    80000a98:	fff0809b          	addiw	ra,ra,-1 # 3fffffff <absimmsh+0x3452f252>
    80000a9c:	00c08463          	beq	ra,a2,80000aa4 <inst_40>
    80000aa0:	d84ff06f          	j	80000024 <rvtest_error>

0000000080000aa4 <inst_40>:
    80000aa4:	00100513          	li	a0,1
    80000aa8:	01351513          	slli	a0,a0,0x13
    80000aac:	00100593          	li	a1,1
    80000ab0:	01f59593          	slli	a1,a1,0x1f
    80000ab4:	00b5063b          	addw	a2,a0,a1
    80000ab8:	0ac3b423          	sd	a2,168(t2)
    80000abc:	800800b7          	lui	ra,0x80080
    80000ac0:	00c08463          	beq	ra,a2,80000ac8 <inst_41>
    80000ac4:	d60ff06f          	j	80000024 <rvtest_error>

0000000080000ac8 <inst_41>:
    80000ac8:	eff00513          	li	a0,-257
    80000acc:	00100593          	li	a1,1
    80000ad0:	02059593          	slli	a1,a1,0x20
    80000ad4:	00b5063b          	addw	a2,a0,a1
    80000ad8:	0ac3b823          	sd	a2,176(t2)
    80000adc:	eff00093          	li	ra,-257
    80000ae0:	00c08463          	beq	ra,a2,80000ae8 <inst_42>
    80000ae4:	d40ff06f          	j	80000024 <rvtest_error>

0000000080000ae8 <inst_42>:
    80000ae8:	00100513          	li	a0,1
    80000aec:	01f51513          	slli	a0,a0,0x1f
    80000af0:	00100593          	li	a1,1
    80000af4:	02159593          	slli	a1,a1,0x21
    80000af8:	00b5063b          	addw	a2,a0,a1
    80000afc:	0ac3bc23          	sd	a2,184(t2)
    80000b00:	800000b7          	lui	ra,0x80000
    80000b04:	00c08463          	beq	ra,a2,80000b0c <inst_43>
    80000b08:	d1cff06f          	j	80000024 <rvtest_error>

0000000080000b0c <inst_43>:
    80000b0c:	ff900513          	li	a0,-7
    80000b10:	00100593          	li	a1,1
    80000b14:	02259593          	slli	a1,a1,0x22
    80000b18:	00b5063b          	addw	a2,a0,a1
    80000b1c:	0cc3b023          	sd	a2,192(t2)
    80000b20:	ff900093          	li	ra,-7
    80000b24:	00c08463          	beq	ra,a2,80000b2c <inst_44>
    80000b28:	cfcff06f          	j	80000024 <rvtest_error>

0000000080000b2c <inst_44>:
    80000b2c:	00100513          	li	a0,1
    80000b30:	00f51513          	slli	a0,a0,0xf
    80000b34:	fff54513          	not	a0,a0
    80000b38:	00100593          	li	a1,1
    80000b3c:	02359593          	slli	a1,a1,0x23
    80000b40:	00b5063b          	addw	a2,a0,a1
    80000b44:	0cc3b423          	sd	a2,200(t2)
    80000b48:	ffff80b7          	lui	ra,0xffff8
    80000b4c:	fff0809b          	addiw	ra,ra,-1 # ffffffffffff7fff <absimm+0xffffffff452ea52f>
    80000b50:	00c08463          	beq	ra,a2,80000b58 <inst_45>
    80000b54:	cd0ff06f          	j	80000024 <rvtest_error>

0000000080000b58 <inst_45>:
    80000b58:	00100513          	li	a0,1
    80000b5c:	03a51513          	slli	a0,a0,0x3a
    80000b60:	00100593          	li	a1,1
    80000b64:	02459593          	slli	a1,a1,0x24
    80000b68:	00b5063b          	addw	a2,a0,a1
    80000b6c:	0cc3b823          	sd	a2,208(t2)
    80000b70:	00000093          	li	ra,0
    80000b74:	00c08463          	beq	ra,a2,80000b7c <inst_46>
    80000b78:	cacff06f          	j	80000024 <rvtest_error>

0000000080000b7c <inst_46>:
    80000b7c:	00400513          	li	a0,4
    80000b80:	00100593          	li	a1,1
    80000b84:	02559593          	slli	a1,a1,0x25
    80000b88:	00b5063b          	addw	a2,a0,a1
    80000b8c:	0cc3bc23          	sd	a2,216(t2)
    80000b90:	00400093          	li	ra,4
    80000b94:	00c08463          	beq	ra,a2,80000b9c <inst_47>
    80000b98:	c8cff06f          	j	80000024 <rvtest_error>

0000000080000b9c <inst_47>:
    80000b9c:	00100513          	li	a0,1
    80000ba0:	01151513          	slli	a0,a0,0x11
    80000ba4:	00100593          	li	a1,1
    80000ba8:	02659593          	slli	a1,a1,0x26
    80000bac:	00b5063b          	addw	a2,a0,a1
    80000bb0:	0ec3b023          	sd	a2,224(t2)
    80000bb4:	000200b7          	lui	ra,0x20
    80000bb8:	00c08463          	beq	ra,a2,80000bc0 <inst_48>
    80000bbc:	c68ff06f          	j	80000024 <rvtest_error>

0000000080000bc0 <inst_48>:
    80000bc0:	00100513          	li	a0,1
    80000bc4:	03051513          	slli	a0,a0,0x30
    80000bc8:	00100593          	li	a1,1
    80000bcc:	02759593          	slli	a1,a1,0x27
    80000bd0:	00b5063b          	addw	a2,a0,a1
    80000bd4:	0ec3b423          	sd	a2,232(t2)
    80000bd8:	00000093          	li	ra,0
    80000bdc:	00c08463          	beq	ra,a2,80000be4 <inst_49>
    80000be0:	c44ff06f          	j	80000024 <rvtest_error>

0000000080000be4 <inst_49>:
    80000be4:	00100513          	li	a0,1
    80000be8:	01951513          	slli	a0,a0,0x19
    80000bec:	00100593          	li	a1,1
    80000bf0:	02859593          	slli	a1,a1,0x28
    80000bf4:	00b5063b          	addw	a2,a0,a1
    80000bf8:	0ec3b823          	sd	a2,240(t2)
    80000bfc:	020000b7          	lui	ra,0x2000
    80000c00:	00c08463          	beq	ra,a2,80000c08 <inst_50>
    80000c04:	c20ff06f          	j	80000024 <rvtest_error>

0000000080000c08 <inst_50>:
    80000c08:	00100513          	li	a0,1
    80000c0c:	03551513          	slli	a0,a0,0x35
    80000c10:	00100593          	li	a1,1
    80000c14:	02959593          	slli	a1,a1,0x29
    80000c18:	00b5063b          	addw	a2,a0,a1
    80000c1c:	0ec3bc23          	sd	a2,248(t2)
    80000c20:	00000093          	li	ra,0
    80000c24:	00c08463          	beq	ra,a2,80000c2c <inst_51>
    80000c28:	bfcff06f          	j	80000024 <rvtest_error>

0000000080000c2c <inst_51>:
    80000c2c:	00100513          	li	a0,1
    80000c30:	02951513          	slli	a0,a0,0x29
    80000c34:	fff54513          	not	a0,a0
    80000c38:	00100593          	li	a1,1
    80000c3c:	02a59593          	slli	a1,a1,0x2a
    80000c40:	00b5063b          	addw	a2,a0,a1
    80000c44:	10c3b023          	sd	a2,256(t2)
    80000c48:	fff00093          	li	ra,-1
    80000c4c:	00c08463          	beq	ra,a2,80000c54 <inst_52>
    80000c50:	bd4ff06f          	j	80000024 <rvtest_error>

0000000080000c54 <inst_52>:
    80000c54:	ffe00513          	li	a0,-2
    80000c58:	00100593          	li	a1,1
    80000c5c:	02c59593          	slli	a1,a1,0x2c
    80000c60:	00b5063b          	addw	a2,a0,a1
    80000c64:	10c3b423          	sd	a2,264(t2)
    80000c68:	ffe00093          	li	ra,-2
    80000c6c:	00c08463          	beq	ra,a2,80000c74 <inst_53>
    80000c70:	bb4ff06f          	j	80000024 <rvtest_error>

0000000080000c74 <inst_53>:
    80000c74:	00100513          	li	a0,1
    80000c78:	00f51513          	slli	a0,a0,0xf
    80000c7c:	fff54513          	not	a0,a0
    80000c80:	00100593          	li	a1,1
    80000c84:	02d59593          	slli	a1,a1,0x2d
    80000c88:	00b5063b          	addw	a2,a0,a1
    80000c8c:	10c3b823          	sd	a2,272(t2)
    80000c90:	ffff80b7          	lui	ra,0xffff8
    80000c94:	fff0809b          	addiw	ra,ra,-1 # ffffffffffff7fff <absimm+0xffffffff452ea52f>
    80000c98:	00c08463          	beq	ra,a2,80000ca0 <inst_54>
    80000c9c:	b88ff06f          	j	80000024 <rvtest_error>

0000000080000ca0 <inst_54>:
    80000ca0:	02000513          	li	a0,32
    80000ca4:	00100593          	li	a1,1
    80000ca8:	02e59593          	slli	a1,a1,0x2e
    80000cac:	00b5063b          	addw	a2,a0,a1
    80000cb0:	10c3bc23          	sd	a2,280(t2)
    80000cb4:	02000093          	li	ra,32
    80000cb8:	00c08463          	beq	ra,a2,80000cc0 <inst_55>
    80000cbc:	b68ff06f          	j	80000024 <rvtest_error>

0000000080000cc0 <inst_55>:
    80000cc0:	00100513          	li	a0,1
    80000cc4:	01551513          	slli	a0,a0,0x15
    80000cc8:	00100593          	li	a1,1
    80000ccc:	02f59593          	slli	a1,a1,0x2f
    80000cd0:	00b5063b          	addw	a2,a0,a1
    80000cd4:	12c3b023          	sd	a2,288(t2)
    80000cd8:	002000b7          	lui	ra,0x200
    80000cdc:	00c08463          	beq	ra,a2,80000ce4 <inst_56>
    80000ce0:	b44ff06f          	j	80000024 <rvtest_error>

0000000080000ce4 <inst_56>:
    80000ce4:	00400513          	li	a0,4
    80000ce8:	00100593          	li	a1,1
    80000cec:	03059593          	slli	a1,a1,0x30
    80000cf0:	00b5063b          	addw	a2,a0,a1
    80000cf4:	12c3b423          	sd	a2,296(t2)
    80000cf8:	00400093          	li	ra,4
    80000cfc:	00c08463          	beq	ra,a2,80000d04 <inst_57>
    80000d00:	b24ff06f          	j	80000024 <rvtest_error>

0000000080000d04 <inst_57>:
    80000d04:	00100513          	li	a0,1
    80000d08:	02151513          	slli	a0,a0,0x21
    80000d0c:	fff54513          	not	a0,a0
    80000d10:	00100593          	li	a1,1
    80000d14:	03159593          	slli	a1,a1,0x31
    80000d18:	00b5063b          	addw	a2,a0,a1
    80000d1c:	12c3b823          	sd	a2,304(t2)
    80000d20:	fff00093          	li	ra,-1
    80000d24:	00c08463          	beq	ra,a2,80000d2c <inst_58>
    80000d28:	afcff06f          	j	80000024 <rvtest_error>

0000000080000d2c <inst_58>:
    80000d2c:	00100513          	li	a0,1
    80000d30:	01c51513          	slli	a0,a0,0x1c
    80000d34:	00100593          	li	a1,1
    80000d38:	03359593          	slli	a1,a1,0x33
    80000d3c:	00b5063b          	addw	a2,a0,a1
    80000d40:	12c3bc23          	sd	a2,312(t2)
    80000d44:	100000b7          	lui	ra,0x10000
    80000d48:	00c08463          	beq	ra,a2,80000d50 <inst_59>
    80000d4c:	ad8ff06f          	j	80000024 <rvtest_error>

0000000080000d50 <inst_59>:
    80000d50:	00100513          	li	a0,1
    80000d54:	01551513          	slli	a0,a0,0x15
    80000d58:	00100593          	li	a1,1
    80000d5c:	03459593          	slli	a1,a1,0x34
    80000d60:	00b5063b          	addw	a2,a0,a1
    80000d64:	14c3b023          	sd	a2,320(t2)
    80000d68:	002000b7          	lui	ra,0x200
    80000d6c:	00c08463          	beq	ra,a2,80000d74 <inst_60>
    80000d70:	ab4ff06f          	j	80000024 <rvtest_error>

0000000080000d74 <inst_60>:
    80000d74:	00100513          	li	a0,1
    80000d78:	01a51513          	slli	a0,a0,0x1a
    80000d7c:	fff54513          	not	a0,a0
    80000d80:	00100593          	li	a1,1
    80000d84:	03559593          	slli	a1,a1,0x35
    80000d88:	00b5063b          	addw	a2,a0,a1
    80000d8c:	14c3b423          	sd	a2,328(t2)
    80000d90:	fc0000b7          	lui	ra,0xfc000
    80000d94:	fff0809b          	addiw	ra,ra,-1 # fffffffffbffffff <absimm+0xffffffff412f252f>
    80000d98:	00c08463          	beq	ra,a2,80000da0 <inst_61>
    80000d9c:	a88ff06f          	j	80000024 <rvtest_error>

0000000080000da0 <inst_61>:
    80000da0:	00100513          	li	a0,1
    80000da4:	01251513          	slli	a0,a0,0x12
    80000da8:	fff54513          	not	a0,a0
    80000dac:	00100593          	li	a1,1
    80000db0:	03659593          	slli	a1,a1,0x36
    80000db4:	00b5063b          	addw	a2,a0,a1
    80000db8:	14c3b823          	sd	a2,336(t2)
    80000dbc:	fffc00b7          	lui	ra,0xfffc0
    80000dc0:	fff0809b          	addiw	ra,ra,-1 # fffffffffffbffff <absimm+0xffffffff452b252f>
    80000dc4:	00c08463          	beq	ra,a2,80000dcc <inst_62>
    80000dc8:	a5cff06f          	j	80000024 <rvtest_error>

0000000080000dcc <inst_62>:
    80000dcc:	f7f00513          	li	a0,-129
    80000dd0:	00100593          	li	a1,1
    80000dd4:	03759593          	slli	a1,a1,0x37
    80000dd8:	00b5063b          	addw	a2,a0,a1
    80000ddc:	14c3bc23          	sd	a2,344(t2)
    80000de0:	f7f00093          	li	ra,-129
    80000de4:	00c08463          	beq	ra,a2,80000dec <inst_63>
    80000de8:	a3cff06f          	j	80000024 <rvtest_error>

0000000080000dec <inst_63>:
    80000dec:	00100513          	li	a0,1
    80000df0:	03151513          	slli	a0,a0,0x31
    80000df4:	00100593          	li	a1,1
    80000df8:	03859593          	slli	a1,a1,0x38
    80000dfc:	00b5063b          	addw	a2,a0,a1
    80000e00:	16c3b023          	sd	a2,352(t2)
    80000e04:	00000093          	li	ra,0
    80000e08:	00c08463          	beq	ra,a2,80000e10 <inst_64>
    80000e0c:	a18ff06f          	j	80000024 <rvtest_error>

0000000080000e10 <inst_64>:
    80000e10:	00100513          	li	a0,1
    80000e14:	03651513          	slli	a0,a0,0x36
    80000e18:	00100593          	li	a1,1
    80000e1c:	03959593          	slli	a1,a1,0x39
    80000e20:	00b5063b          	addw	a2,a0,a1
    80000e24:	16c3b423          	sd	a2,360(t2)
    80000e28:	00000093          	li	ra,0
    80000e2c:	00c08463          	beq	ra,a2,80000e34 <inst_65>
    80000e30:	9f4ff06f          	j	80000024 <rvtest_error>

0000000080000e34 <inst_65>:
    80000e34:	00100513          	li	a0,1
    80000e38:	01351513          	slli	a0,a0,0x13
    80000e3c:	fff54513          	not	a0,a0
    80000e40:	00100593          	li	a1,1
    80000e44:	03a59593          	slli	a1,a1,0x3a
    80000e48:	00b5063b          	addw	a2,a0,a1
    80000e4c:	16c3b823          	sd	a2,368(t2)
    80000e50:	fff800b7          	lui	ra,0xfff80
    80000e54:	fff0809b          	addiw	ra,ra,-1 # fffffffffff7ffff <absimm+0xffffffff4527252f>
    80000e58:	00c08463          	beq	ra,a2,80000e60 <inst_66>
    80000e5c:	9c8ff06f          	j	80000024 <rvtest_error>

0000000080000e60 <inst_66>:
    80000e60:	00100513          	li	a0,1
    80000e64:	01a51513          	slli	a0,a0,0x1a
    80000e68:	00100593          	li	a1,1
    80000e6c:	03b59593          	slli	a1,a1,0x3b
    80000e70:	00b5063b          	addw	a2,a0,a1
    80000e74:	16c3bc23          	sd	a2,376(t2)
    80000e78:	040000b7          	lui	ra,0x4000
    80000e7c:	00c08463          	beq	ra,a2,80000e84 <inst_67>
    80000e80:	9a4ff06f          	j	80000024 <rvtest_error>

0000000080000e84 <inst_67>:
    80000e84:	dff00513          	li	a0,-513
    80000e88:	00100593          	li	a1,1
    80000e8c:	03c59593          	slli	a1,a1,0x3c
    80000e90:	00b5063b          	addw	a2,a0,a1
    80000e94:	18c3b023          	sd	a2,384(t2)
    80000e98:	dff00093          	li	ra,-513
    80000e9c:	00c08463          	beq	ra,a2,80000ea4 <inst_68>
    80000ea0:	984ff06f          	j	80000024 <rvtest_error>

0000000080000ea4 <inst_68>:
    80000ea4:	00100513          	li	a0,1
    80000ea8:	01551513          	slli	a0,a0,0x15
    80000eac:	00100593          	li	a1,1
    80000eb0:	03d59593          	slli	a1,a1,0x3d
    80000eb4:	00b5063b          	addw	a2,a0,a1
    80000eb8:	18c3b423          	sd	a2,392(t2)
    80000ebc:	002000b7          	lui	ra,0x200
    80000ec0:	00c08463          	beq	ra,a2,80000ec8 <inst_69>
    80000ec4:	960ff06f          	j	80000024 <rvtest_error>

0000000080000ec8 <inst_69>:
    80000ec8:	00100513          	li	a0,1
    80000ecc:	01751513          	slli	a0,a0,0x17
    80000ed0:	fff54513          	not	a0,a0
    80000ed4:	00100593          	li	a1,1
    80000ed8:	03e59593          	slli	a1,a1,0x3e
    80000edc:	00b5063b          	addw	a2,a0,a1
    80000ee0:	18c3b823          	sd	a2,400(t2)
    80000ee4:	ff8000b7          	lui	ra,0xff800
    80000ee8:	fff0809b          	addiw	ra,ra,-1 # ffffffffff7fffff <absimm+0xffffffff44af252f>
    80000eec:	00c08463          	beq	ra,a2,80000ef4 <inst_70>
    80000ef0:	934ff06f          	j	80000024 <rvtest_error>

0000000080000ef4 <inst_70>:
    80000ef4:	00100513          	li	a0,1
    80000ef8:	03b51513          	slli	a0,a0,0x3b
    80000efc:	ffe00593          	li	a1,-2
    80000f00:	00b5063b          	addw	a2,a0,a1
    80000f04:	18c3bc23          	sd	a2,408(t2)
    80000f08:	ffe00093          	li	ra,-2
    80000f0c:	00c08463          	beq	ra,a2,80000f14 <inst_71>
    80000f10:	914ff06f          	j	80000024 <rvtest_error>

0000000080000f14 <inst_71>:
    80000f14:	00100513          	li	a0,1
    80000f18:	02a51513          	slli	a0,a0,0x2a
    80000f1c:	ffd00593          	li	a1,-3
    80000f20:	00b5063b          	addw	a2,a0,a1
    80000f24:	1ac3b023          	sd	a2,416(t2)
    80000f28:	ffd00093          	li	ra,-3
    80000f2c:	00c08463          	beq	ra,a2,80000f34 <inst_72>
    80000f30:	8f4ff06f          	j	80000024 <rvtest_error>

0000000080000f34 <inst_72>:
    80000f34:	00000513          	li	a0,0
    80000f38:	ffb00593          	li	a1,-5
    80000f3c:	00b5063b          	addw	a2,a0,a1
    80000f40:	1ac3b423          	sd	a2,424(t2)
    80000f44:	ffb00093          	li	ra,-5
    80000f48:	00c08463          	beq	ra,a2,80000f50 <inst_73>
    80000f4c:	8d8ff06f          	j	80000024 <rvtest_error>

0000000080000f50 <inst_73>:
    80000f50:	00100513          	li	a0,1
    80000f54:	02b51513          	slli	a0,a0,0x2b
    80000f58:	fff54513          	not	a0,a0
    80000f5c:	ff700593          	li	a1,-9
    80000f60:	00b5063b          	addw	a2,a0,a1
    80000f64:	1ac3b823          	sd	a2,432(t2)
    80000f68:	ff600093          	li	ra,-10
    80000f6c:	00c08463          	beq	ra,a2,80000f74 <inst_74>
    80000f70:	8b4ff06f          	j	80000024 <rvtest_error>

0000000080000f74 <inst_74>:
    80000f74:	f7f00513          	li	a0,-129
    80000f78:	fef00593          	li	a1,-17
    80000f7c:	00b5063b          	addw	a2,a0,a1
    80000f80:	1ac3bc23          	sd	a2,440(t2)
    80000f84:	f6e00093          	li	ra,-146
    80000f88:	00c08463          	beq	ra,a2,80000f90 <inst_75>
    80000f8c:	898ff06f          	j	80000024 <rvtest_error>

0000000080000f90 <inst_75>:
    80000f90:	00100513          	li	a0,1
    80000f94:	01f51513          	slli	a0,a0,0x1f
    80000f98:	fdf00593          	li	a1,-33
    80000f9c:	00b5063b          	addw	a2,a0,a1
    80000fa0:	1cc3b023          	sd	a2,448(t2)
    80000fa4:	800000b7          	lui	ra,0x80000
    80000fa8:	fdf0809b          	addiw	ra,ra,-33 # 7fffffdf <absimmsh+0x7452f232>
    80000fac:	00c08463          	beq	ra,a2,80000fb4 <inst_76>
    80000fb0:	874ff06f          	j	80000024 <rvtest_error>

0000000080000fb4 <inst_76>:
    80000fb4:	00000537          	lui	a0,0x0
    80000fb8:	fff50513          	addi	a0,a0,-1
    80000fbc:	00b51513          	slli	a0,a0,0xb
    80000fc0:	25750513          	addi	a0,a0,599
    80000fc4:	00b51513          	slli	a0,a0,0xb
    80000fc8:	6c350513          	addi	a0,a0,1731
    80000fcc:	00a51513          	slli	a0,a0,0xa
    80000fd0:	0ce50513          	addi	a0,a0,206
    80000fd4:	fbf00593          	li	a1,-65
    80000fd8:	00b5063b          	addw	a2,a0,a1
    80000fdc:	1cc3b423          	sd	a2,456(t2)
    80000fe0:	4afb10b7          	lui	ra,0x4afb1
    80000fe4:	c8d0809b          	addiw	ra,ra,-883 # 4afb0c8d <absimmsh+0x3f4dfee0>
    80000fe8:	00c08463          	beq	ra,a2,80000ff0 <inst_77>
    80000fec:	838ff06f          	j	80000024 <rvtest_error>

0000000080000ff0 <inst_77>:
    80000ff0:	ffe00513          	li	a0,-2
    80000ff4:	f7f00593          	li	a1,-129
    80000ff8:	00b5063b          	addw	a2,a0,a1
    80000ffc:	1cc3b823          	sd	a2,464(t2)
    80001000:	f7d00093          	li	ra,-131
    80001004:	00c08463          	beq	ra,a2,8000100c <inst_78>
    80001008:	81cff06f          	j	80000024 <rvtest_error>

000000008000100c <inst_78>:
    8000100c:	ffe00513          	li	a0,-2
    80001010:	eff00593          	li	a1,-257
    80001014:	00b5063b          	addw	a2,a0,a1
    80001018:	1cc3bc23          	sd	a2,472(t2)
    8000101c:	efd00093          	li	ra,-259
    80001020:	00c08463          	beq	ra,a2,80001028 <inst_79>
    80001024:	800ff06f          	j	80000024 <rvtest_error>

0000000080001028 <inst_79>:
    80001028:	00100513          	li	a0,1
    8000102c:	01351513          	slli	a0,a0,0x13
    80001030:	dff00593          	li	a1,-513
    80001034:	00b5063b          	addw	a2,a0,a1
    80001038:	1ec3b023          	sd	a2,480(t2)
    8000103c:	000800b7          	lui	ra,0x80
    80001040:	dff0809b          	addiw	ra,ra,-513 # 7fdff <offset+0x7f967>
    80001044:	00c08463          	beq	ra,a2,8000104c <inst_80>
    80001048:	fddfe06f          	j	80000024 <rvtest_error>

000000008000104c <inst_80>:
    8000104c:	00100513          	li	a0,1
    80001050:	02551513          	slli	a0,a0,0x25
    80001054:	fff54513          	not	a0,a0
    80001058:	bff00593          	li	a1,-1025
    8000105c:	00b5063b          	addw	a2,a0,a1
    80001060:	1ec3b423          	sd	a2,488(t2)
    80001064:	bfe00093          	li	ra,-1026
    80001068:	00c08463          	beq	ra,a2,80001070 <inst_81>
    8000106c:	fb9fe06f          	j	80000024 <rvtest_error>

0000000080001070 <inst_81>:
    80001070:	00600513          	li	a0,6
    80001074:	00100593          	li	a1,1
    80001078:	00b59593          	slli	a1,a1,0xb
    8000107c:	fff5c593          	not	a1,a1
    80001080:	00b5063b          	addw	a2,a0,a1
    80001084:	1ec3b823          	sd	a2,496(t2)
    80001088:	80500093          	li	ra,-2043
    8000108c:	00c08463          	beq	ra,a2,80001094 <inst_82>
    80001090:	f95fe06f          	j	80000024 <rvtest_error>

0000000080001094 <inst_82>:
    80001094:	00400513          	li	a0,4
    80001098:	00100593          	li	a1,1
    8000109c:	00c59593          	slli	a1,a1,0xc
    800010a0:	fff5c593          	not	a1,a1
    800010a4:	00b5063b          	addw	a2,a0,a1
    800010a8:	1ec3bc23          	sd	a2,504(t2)
    800010ac:	fffff0b7          	lui	ra,0xfffff
    800010b0:	0030809b          	addiw	ra,ra,3 # fffffffffffff003 <absimm+0xffffffff452f1533>
    800010b4:	00c08463          	beq	ra,a2,800010bc <inst_83>
    800010b8:	f6dfe06f          	j	80000024 <rvtest_error>

00000000800010bc <inst_83>:
    800010bc:	00100513          	li	a0,1
    800010c0:	03551513          	slli	a0,a0,0x35
    800010c4:	00100593          	li	a1,1
    800010c8:	00d59593          	slli	a1,a1,0xd
    800010cc:	fff5c593          	not	a1,a1
    800010d0:	00b5063b          	addw	a2,a0,a1
    800010d4:	20c3b023          	sd	a2,512(t2)
    800010d8:	ffffe0b7          	lui	ra,0xffffe
    800010dc:	fff0809b          	addiw	ra,ra,-1 # ffffffffffffdfff <absimm+0xffffffff452f052f>
    800010e0:	00c08463          	beq	ra,a2,800010e8 <inst_84>
    800010e4:	f41fe06f          	j	80000024 <rvtest_error>

00000000800010e8 <inst_84>:
    800010e8:	00100513          	li	a0,1
    800010ec:	01851513          	slli	a0,a0,0x18
    800010f0:	00100593          	li	a1,1
    800010f4:	00e59593          	slli	a1,a1,0xe
    800010f8:	fff5c593          	not	a1,a1
    800010fc:	00b5063b          	addw	a2,a0,a1
    80001100:	20c3b423          	sd	a2,520(t2)
    80001104:	00ffc0b7          	lui	ra,0xffc
    80001108:	fff0809b          	addiw	ra,ra,-1 # ffbfff <offset+0xffbb67>
    8000110c:	00c08463          	beq	ra,a2,80001114 <inst_85>
    80001110:	f15fe06f          	j	80000024 <rvtest_error>

0000000080001114 <inst_85>:
    80001114:	00100513          	li	a0,1
    80001118:	02951513          	slli	a0,a0,0x29
    8000111c:	00100593          	li	a1,1
    80001120:	00f59593          	slli	a1,a1,0xf
    80001124:	fff5c593          	not	a1,a1
    80001128:	00b5063b          	addw	a2,a0,a1
    8000112c:	20c3b823          	sd	a2,528(t2)
    80001130:	ffff80b7          	lui	ra,0xffff8
    80001134:	fff0809b          	addiw	ra,ra,-1 # ffffffffffff7fff <absimm+0xffffffff452ea52f>
    80001138:	00c08463          	beq	ra,a2,80001140 <inst_86>
    8000113c:	ee9fe06f          	j	80000024 <rvtest_error>

0000000080001140 <inst_86>:
    80001140:	00100513          	li	a0,1
    80001144:	02151513          	slli	a0,a0,0x21
    80001148:	fff54513          	not	a0,a0
    8000114c:	00100593          	li	a1,1
    80001150:	01159593          	slli	a1,a1,0x11
    80001154:	fff5c593          	not	a1,a1
    80001158:	00b5063b          	addw	a2,a0,a1
    8000115c:	20c3bc23          	sd	a2,536(t2)
    80001160:	fffe00b7          	lui	ra,0xfffe0
    80001164:	ffe0809b          	addiw	ra,ra,-2 # fffffffffffdfffe <absimm+0xffffffff452d252e>
    80001168:	00c08463          	beq	ra,a2,80001170 <inst_87>
    8000116c:	eb9fe06f          	j	80000024 <rvtest_error>

0000000080001170 <inst_87>:
    80001170:	ff800513          	li	a0,-8
    80001174:	00100593          	li	a1,1
    80001178:	01259593          	slli	a1,a1,0x12
    8000117c:	fff5c593          	not	a1,a1
    80001180:	00b5063b          	addw	a2,a0,a1
    80001184:	22c3b023          	sd	a2,544(t2)
    80001188:	fffc00b7          	lui	ra,0xfffc0
    8000118c:	ff70809b          	addiw	ra,ra,-9 # fffffffffffbfff7 <absimm+0xffffffff452b2527>
    80001190:	00c08463          	beq	ra,a2,80001198 <inst_88>
    80001194:	e91fe06f          	j	80000024 <rvtest_error>

0000000080001198 <inst_88>:
    80001198:	ffa00513          	li	a0,-6
    8000119c:	00100593          	li	a1,1
    800011a0:	01359593          	slli	a1,a1,0x13
    800011a4:	fff5c593          	not	a1,a1
    800011a8:	00b5063b          	addw	a2,a0,a1
    800011ac:	22c3b423          	sd	a2,552(t2)
    800011b0:	fff800b7          	lui	ra,0xfff80
    800011b4:	ff90809b          	addiw	ra,ra,-7 # fffffffffff7fff9 <absimm+0xffffffff45272529>
    800011b8:	00c08463          	beq	ra,a2,800011c0 <inst_89>
    800011bc:	e69fe06f          	j	80000024 <rvtest_error>

00000000800011c0 <inst_89>:
    800011c0:	00100513          	li	a0,1
    800011c4:	00b51513          	slli	a0,a0,0xb
    800011c8:	00100593          	li	a1,1
    800011cc:	01459593          	slli	a1,a1,0x14
    800011d0:	fff5c593          	not	a1,a1
    800011d4:	00b5063b          	addw	a2,a0,a1
    800011d8:	22c3b823          	sd	a2,560(t2)
    800011dc:	fff000b7          	lui	ra,0xfff00
    800011e0:	7ff0809b          	addiw	ra,ra,2047 # fffffffffff007ff <absimm+0xffffffff451f2d2f>
    800011e4:	00c08463          	beq	ra,a2,800011ec <inst_90>
    800011e8:	e3dfe06f          	j	80000024 <rvtest_error>

00000000800011ec <inst_90>:
    800011ec:	00100513          	li	a0,1
    800011f0:	01551513          	slli	a0,a0,0x15
    800011f4:	fff54513          	not	a0,a0
    800011f8:	00100593          	li	a1,1
    800011fc:	01559593          	slli	a1,a1,0x15
    80001200:	fff5c593          	not	a1,a1
    80001204:	00b5063b          	addw	a2,a0,a1
    80001208:	22c3bc23          	sd	a2,568(t2)
    8000120c:	ffc000b7          	lui	ra,0xffc00
    80001210:	ffe0809b          	addiw	ra,ra,-2 # ffffffffffbffffe <absimm+0xffffffff44ef252e>
    80001214:	00c08463          	beq	ra,a2,8000121c <inst_91>
    80001218:	e0dfe06f          	j	80000024 <rvtest_error>

000000008000121c <inst_91>:
    8000121c:	10000513          	li	a0,256
    80001220:	00100593          	li	a1,1
    80001224:	01759593          	slli	a1,a1,0x17
    80001228:	fff5c593          	not	a1,a1
    8000122c:	00b5063b          	addw	a2,a0,a1
    80001230:	24c3b023          	sd	a2,576(t2)
    80001234:	ff8000b7          	lui	ra,0xff800
    80001238:	0ff0809b          	addiw	ra,ra,255 # ffffffffff8000ff <absimm+0xffffffff44af262f>
    8000123c:	00c08463          	beq	ra,a2,80001244 <inst_92>
    80001240:	de5fe06f          	j	80000024 <rvtest_error>

0000000080001244 <inst_92>:
    80001244:	20000513          	li	a0,512
    80001248:	00100593          	li	a1,1
    8000124c:	01859593          	slli	a1,a1,0x18
    80001250:	fff5c593          	not	a1,a1
    80001254:	00b5063b          	addw	a2,a0,a1
    80001258:	24c3b423          	sd	a2,584(t2)
    8000125c:	ff0000b7          	lui	ra,0xff000
    80001260:	1ff0809b          	addiw	ra,ra,511 # ffffffffff0001ff <absimm+0xffffffff442f272f>
    80001264:	00c08463          	beq	ra,a2,8000126c <inst_93>
    80001268:	dbdfe06f          	j	80000024 <rvtest_error>

000000008000126c <inst_93>:
    8000126c:	00100513          	li	a0,1
    80001270:	00d51513          	slli	a0,a0,0xd
    80001274:	00100593          	li	a1,1
    80001278:	01959593          	slli	a1,a1,0x19
    8000127c:	fff5c593          	not	a1,a1
    80001280:	00b5063b          	addw	a2,a0,a1
    80001284:	24c3b823          	sd	a2,592(t2)
    80001288:	fe0020b7          	lui	ra,0xfe002
    8000128c:	fff0809b          	addiw	ra,ra,-1 # fffffffffe001fff <absimm+0xffffffff432f452f>
    80001290:	00c08463          	beq	ra,a2,80001298 <inst_94>
    80001294:	d91fe06f          	j	80000024 <rvtest_error>

0000000080001298 <inst_94>:
    80001298:	00100513          	li	a0,1
    8000129c:	03551513          	slli	a0,a0,0x35
    800012a0:	fff54513          	not	a0,a0
    800012a4:	00100593          	li	a1,1
    800012a8:	01a59593          	slli	a1,a1,0x1a
    800012ac:	fff5c593          	not	a1,a1
    800012b0:	00b5063b          	addw	a2,a0,a1
    800012b4:	24c3bc23          	sd	a2,600(t2)
    800012b8:	fc0000b7          	lui	ra,0xfc000
    800012bc:	ffe0809b          	addiw	ra,ra,-2 # fffffffffbfffffe <absimm+0xffffffff412f252e>
    800012c0:	00c08463          	beq	ra,a2,800012c8 <inst_95>
    800012c4:	d61fe06f          	j	80000024 <rvtest_error>

00000000800012c8 <inst_95>:
    800012c8:	00100513          	li	a0,1
    800012cc:	02251513          	slli	a0,a0,0x22
    800012d0:	fff54513          	not	a0,a0
    800012d4:	00100593          	li	a1,1
    800012d8:	01b59593          	slli	a1,a1,0x1b
    800012dc:	fff5c593          	not	a1,a1
    800012e0:	00b5063b          	addw	a2,a0,a1
    800012e4:	26c3b023          	sd	a2,608(t2)
    800012e8:	f80000b7          	lui	ra,0xf8000
    800012ec:	ffe0809b          	addiw	ra,ra,-2 # fffffffff7fffffe <absimm+0xffffffff3d2f252e>
    800012f0:	00c08463          	beq	ra,a2,800012f8 <inst_96>
    800012f4:	d31fe06f          	j	80000024 <rvtest_error>

00000000800012f8 <inst_96>:
    800012f8:	00100513          	li	a0,1
    800012fc:	02851513          	slli	a0,a0,0x28
    80001300:	00100593          	li	a1,1
    80001304:	01c59593          	slli	a1,a1,0x1c
    80001308:	fff5c593          	not	a1,a1
    8000130c:	00b5063b          	addw	a2,a0,a1
    80001310:	26c3b423          	sd	a2,616(t2)
    80001314:	f00000b7          	lui	ra,0xf0000
    80001318:	fff0809b          	addiw	ra,ra,-1 # ffffffffefffffff <absimm+0xffffffff352f252f>
    8000131c:	00c08463          	beq	ra,a2,80001324 <inst_97>
    80001320:	d05fe06f          	j	80000024 <rvtest_error>

0000000080001324 <inst_97>:
    80001324:	00100513          	li	a0,1
    80001328:	03551513          	slli	a0,a0,0x35
    8000132c:	00100593          	li	a1,1
    80001330:	01d59593          	slli	a1,a1,0x1d
    80001334:	fff5c593          	not	a1,a1
    80001338:	00b5063b          	addw	a2,a0,a1
    8000133c:	26c3b823          	sd	a2,624(t2)
    80001340:	e00000b7          	lui	ra,0xe0000
    80001344:	fff0809b          	addiw	ra,ra,-1 # ffffffffdfffffff <absimm+0xffffffff252f252f>
    80001348:	00c08463          	beq	ra,a2,80001350 <inst_98>
    8000134c:	cd9fe06f          	j	80000024 <rvtest_error>

0000000080001350 <inst_98>:
    80001350:	00100513          	li	a0,1
    80001354:	00100593          	li	a1,1
    80001358:	01e59593          	slli	a1,a1,0x1e
    8000135c:	fff5c593          	not	a1,a1
    80001360:	00b5063b          	addw	a2,a0,a1
    80001364:	26c3bc23          	sd	a2,632(t2)
    80001368:	c00000b7          	lui	ra,0xc0000
    8000136c:	00c08463          	beq	ra,a2,80001374 <inst_99>
    80001370:	cb5fe06f          	j	80000024 <rvtest_error>

0000000080001374 <inst_99>:
    80001374:	00000513          	li	a0,0
    80001378:	00100593          	li	a1,1
    8000137c:	01f59593          	slli	a1,a1,0x1f
    80001380:	fff5c593          	not	a1,a1
    80001384:	00b5063b          	addw	a2,a0,a1
    80001388:	28c3b023          	sd	a2,640(t2)
    8000138c:	800000b7          	lui	ra,0x80000
    80001390:	fff0809b          	addiw	ra,ra,-1 # 7fffffff <absimmsh+0x7452f252>
    80001394:	00c08463          	beq	ra,a2,8000139c <inst_100>
    80001398:	c8dfe06f          	j	80000024 <rvtest_error>

000000008000139c <inst_100>:
    8000139c:	00100513          	li	a0,1
    800013a0:	01651513          	slli	a0,a0,0x16
    800013a4:	fff54513          	not	a0,a0
    800013a8:	00100593          	li	a1,1
    800013ac:	02059593          	slli	a1,a1,0x20
    800013b0:	fff5c593          	not	a1,a1
    800013b4:	00b5063b          	addw	a2,a0,a1
    800013b8:	28c3b423          	sd	a2,648(t2)
    800013bc:	ffc000b7          	lui	ra,0xffc00
    800013c0:	ffe0809b          	addiw	ra,ra,-2 # ffffffffffbffffe <absimm+0xffffffff44ef252e>
    800013c4:	00c08463          	beq	ra,a2,800013cc <inst_101>
    800013c8:	c5dfe06f          	j	80000024 <rvtest_error>

00000000800013cc <inst_101>:
    800013cc:	00200513          	li	a0,2
    800013d0:	00100593          	li	a1,1
    800013d4:	02159593          	slli	a1,a1,0x21
    800013d8:	fff5c593          	not	a1,a1
    800013dc:	00b5063b          	addw	a2,a0,a1
    800013e0:	28c3b823          	sd	a2,656(t2)
    800013e4:	00100093          	li	ra,1
    800013e8:	00c08463          	beq	ra,a2,800013f0 <inst_102>
    800013ec:	c39fe06f          	j	80000024 <rvtest_error>

00000000800013f0 <inst_102>:
    800013f0:	00300513          	li	a0,3
    800013f4:	00100593          	li	a1,1
    800013f8:	02259593          	slli	a1,a1,0x22
    800013fc:	fff5c593          	not	a1,a1
    80001400:	00b5063b          	addw	a2,a0,a1
    80001404:	28c3bc23          	sd	a2,664(t2)
    80001408:	00200093          	li	ra,2
    8000140c:	00c08463          	beq	ra,a2,80001414 <inst_103>
    80001410:	c15fe06f          	j	80000024 <rvtest_error>

0000000080001414 <inst_103>:
    80001414:	00000537          	lui	a0,0x0
    80001418:	00050513          	mv	a0,a0
    8000141c:	00b51513          	slli	a0,a0,0xb
    80001420:	5a850513          	addi	a0,a0,1448 # 5a8 <offset+0x110>
    80001424:	00b51513          	slli	a0,a0,0xb
    80001428:	13c50513          	addi	a0,a0,316
    8000142c:	00a51513          	slli	a0,a0,0xa
    80001430:	33350513          	addi	a0,a0,819
    80001434:	00100593          	li	a1,1
    80001438:	02359593          	slli	a1,a1,0x23
    8000143c:	fff5c593          	not	a1,a1
    80001440:	00b5063b          	addw	a2,a0,a1
    80001444:	2ac3b023          	sd	a2,672(t2)
    80001448:	b504f0b7          	lui	ra,0xb504f
    8000144c:	3320809b          	addiw	ra,ra,818 # ffffffffb504f332 <absimm+0xfffffffefa341862>
    80001450:	00c08463          	beq	ra,a2,80001458 <inst_104>
    80001454:	bd1fe06f          	j	80000024 <rvtest_error>

0000000080001458 <inst_104>:
    80001458:	00100513          	li	a0,1
    8000145c:	00d51513          	slli	a0,a0,0xd
    80001460:	fff54513          	not	a0,a0
    80001464:	00100593          	li	a1,1
    80001468:	02459593          	slli	a1,a1,0x24
    8000146c:	fff5c593          	not	a1,a1
    80001470:	00b5063b          	addw	a2,a0,a1
    80001474:	2ac3b423          	sd	a2,680(t2)
    80001478:	ffffe0b7          	lui	ra,0xffffe
    8000147c:	ffe0809b          	addiw	ra,ra,-2 # ffffffffffffdffe <absimm+0xffffffff452f052e>
    80001480:	00c08463          	beq	ra,a2,80001488 <inst_105>
    80001484:	ba1fe06f          	j	80000024 <rvtest_error>

0000000080001488 <inst_105>:
    80001488:	00100513          	li	a0,1
    8000148c:	02551513          	slli	a0,a0,0x25
    80001490:	fff54513          	not	a0,a0
    80001494:	00100593          	li	a1,1
    80001498:	02559593          	slli	a1,a1,0x25
    8000149c:	fff5c593          	not	a1,a1
    800014a0:	00b5063b          	addw	a2,a0,a1
    800014a4:	2ac3b823          	sd	a2,688(t2)
    800014a8:	ffe00093          	li	ra,-2
    800014ac:	00c08463          	beq	ra,a2,800014b4 <inst_106>
    800014b0:	b75fe06f          	j	80000024 <rvtest_error>

00000000800014b4 <inst_106>:
    800014b4:	00100513          	li	a0,1
    800014b8:	01b51513          	slli	a0,a0,0x1b
    800014bc:	fff54513          	not	a0,a0
    800014c0:	00100593          	li	a1,1
    800014c4:	02659593          	slli	a1,a1,0x26
    800014c8:	fff5c593          	not	a1,a1
    800014cc:	00b5063b          	addw	a2,a0,a1
    800014d0:	2ac3bc23          	sd	a2,696(t2)
    800014d4:	f80000b7          	lui	ra,0xf8000
    800014d8:	ffe0809b          	addiw	ra,ra,-2 # fffffffff7fffffe <absimm+0xffffffff3d2f252e>
    800014dc:	00c08463          	beq	ra,a2,800014e4 <inst_107>
    800014e0:	b45fe06f          	j	80000024 <rvtest_error>

00000000800014e4 <inst_107>:
    800014e4:	00100513          	li	a0,1
    800014e8:	01e51513          	slli	a0,a0,0x1e
    800014ec:	fff54513          	not	a0,a0
    800014f0:	00100593          	li	a1,1
    800014f4:	02759593          	slli	a1,a1,0x27
    800014f8:	fff5c593          	not	a1,a1
    800014fc:	00b5063b          	addw	a2,a0,a1
    80001500:	2cc3b023          	sd	a2,704(t2)
    80001504:	c00000b7          	lui	ra,0xc0000
    80001508:	ffe0809b          	addiw	ra,ra,-2 # ffffffffbffffffe <absimm+0xffffffff052f252e>
    8000150c:	00c08463          	beq	ra,a2,80001514 <inst_108>
    80001510:	b15fe06f          	j	80000024 <rvtest_error>

0000000080001514 <inst_108>:
    80001514:	aaaab537          	lui	a0,0xaaaab
    80001518:	aaa50513          	addi	a0,a0,-1366 # ffffffffaaaaaaaa <absimm+0xfffffffeefd9cfda>
    8000151c:	00b51513          	slli	a0,a0,0xb
    80001520:	55550513          	addi	a0,a0,1365
    80001524:	00b51513          	slli	a0,a0,0xb
    80001528:	2aa50513          	addi	a0,a0,682
    8000152c:	00a51513          	slli	a0,a0,0xa
    80001530:	2aa50513          	addi	a0,a0,682
    80001534:	00100593          	li	a1,1
    80001538:	02859593          	slli	a1,a1,0x28
    8000153c:	fff5c593          	not	a1,a1
    80001540:	00b5063b          	addw	a2,a0,a1
    80001544:	2cc3b423          	sd	a2,712(t2)
    80001548:	aaaab0b7          	lui	ra,0xaaaab
    8000154c:	aa90809b          	addiw	ra,ra,-1367 # ffffffffaaaaaaa9 <absimm+0xfffffffeefd9cfd9>
    80001550:	00c08463          	beq	ra,a2,80001558 <inst_109>
    80001554:	ad1fe06f          	j	80000024 <rvtest_error>

0000000080001558 <inst_109>:
    80001558:	00100513          	li	a0,1
    8000155c:	01451513          	slli	a0,a0,0x14
    80001560:	00100593          	li	a1,1
    80001564:	02959593          	slli	a1,a1,0x29
    80001568:	fff5c593          	not	a1,a1
    8000156c:	00b5063b          	addw	a2,a0,a1
    80001570:	2cc3b823          	sd	a2,720(t2)
    80001574:	001000b7          	lui	ra,0x100
    80001578:	fff0809b          	addiw	ra,ra,-1 # fffff <offset+0xffb67>
    8000157c:	00c08463          	beq	ra,a2,80001584 <inst_110>
    80001580:	aa5fe06f          	j	80000024 <rvtest_error>

0000000080001584 <inst_110>:
    80001584:	00100513          	li	a0,1
    80001588:	01651513          	slli	a0,a0,0x16
    8000158c:	00100593          	li	a1,1
    80001590:	02a59593          	slli	a1,a1,0x2a
    80001594:	fff5c593          	not	a1,a1
    80001598:	00b5063b          	addw	a2,a0,a1
    8000159c:	2cc3bc23          	sd	a2,728(t2)
    800015a0:	004000b7          	lui	ra,0x400
    800015a4:	fff0809b          	addiw	ra,ra,-1 # 3fffff <offset+0x3ffb67>
    800015a8:	00c08463          	beq	ra,a2,800015b0 <inst_111>
    800015ac:	a79fe06f          	j	80000024 <rvtest_error>

00000000800015b0 <inst_111>:
    800015b0:	00100513          	li	a0,1
    800015b4:	03e51513          	slli	a0,a0,0x3e
    800015b8:	00100593          	li	a1,1
    800015bc:	02b59593          	slli	a1,a1,0x2b
    800015c0:	fff5c593          	not	a1,a1
    800015c4:	00b5063b          	addw	a2,a0,a1
    800015c8:	2ec3b023          	sd	a2,736(t2)
    800015cc:	fff00093          	li	ra,-1
    800015d0:	00c08463          	beq	ra,a2,800015d8 <inst_112>
    800015d4:	a51fe06f          	j	80000024 <rvtest_error>

00000000800015d8 <inst_112>:
    800015d8:	00100513          	li	a0,1
    800015dc:	03d51513          	slli	a0,a0,0x3d
    800015e0:	00100593          	li	a1,1
    800015e4:	02c59593          	slli	a1,a1,0x2c
    800015e8:	fff5c593          	not	a1,a1
    800015ec:	00b5063b          	addw	a2,a0,a1
    800015f0:	2ec3b423          	sd	a2,744(t2)
    800015f4:	fff00093          	li	ra,-1
    800015f8:	00c08463          	beq	ra,a2,80001600 <inst_113>
    800015fc:	a29fe06f          	j	80000024 <rvtest_error>

0000000080001600 <inst_113>:
    80001600:	00000513          	li	a0,0
    80001604:	00100593          	li	a1,1
    80001608:	02d59593          	slli	a1,a1,0x2d
    8000160c:	fff5c593          	not	a1,a1
    80001610:	00b5063b          	addw	a2,a0,a1
    80001614:	2ec3b823          	sd	a2,752(t2)
    80001618:	fff00093          	li	ra,-1
    8000161c:	00c08463          	beq	ra,a2,80001624 <inst_114>
    80001620:	a05fe06f          	j	80000024 <rvtest_error>

0000000080001624 <inst_114>:
    80001624:	00600513          	li	a0,6
    80001628:	00100593          	li	a1,1
    8000162c:	02e59593          	slli	a1,a1,0x2e
    80001630:	fff5c593          	not	a1,a1
    80001634:	00b5063b          	addw	a2,a0,a1
    80001638:	2ec3bc23          	sd	a2,760(t2)
    8000163c:	00500093          	li	ra,5
    80001640:	00c08463          	beq	ra,a2,80001648 <inst_115>
    80001644:	9e1fe06f          	j	80000024 <rvtest_error>

0000000080001648 <inst_115>:
    80001648:	00100513          	li	a0,1
    8000164c:	02451513          	slli	a0,a0,0x24
    80001650:	00100593          	li	a1,1
    80001654:	03059593          	slli	a1,a1,0x30
    80001658:	fff5c593          	not	a1,a1
    8000165c:	00b5063b          	addw	a2,a0,a1
    80001660:	30c3b023          	sd	a2,768(t2)
    80001664:	fff00093          	li	ra,-1
    80001668:	00c08463          	beq	ra,a2,80001670 <inst_116>
    8000166c:	9b9fe06f          	j	80000024 <rvtest_error>

0000000080001670 <inst_116>:
    80001670:	00100513          	li	a0,1
    80001674:	03051513          	slli	a0,a0,0x30
    80001678:	00100593          	li	a1,1
    8000167c:	03159593          	slli	a1,a1,0x31
    80001680:	fff5c593          	not	a1,a1
    80001684:	00b5063b          	addw	a2,a0,a1
    80001688:	30c3b423          	sd	a2,776(t2)
    8000168c:	fff00093          	li	ra,-1
    80001690:	00c08463          	beq	ra,a2,80001698 <inst_117>
    80001694:	991fe06f          	j	80000024 <rvtest_error>

0000000080001698 <inst_117>:
    80001698:	55555537          	lui	a0,0x55555
    8000169c:	55550513          	addi	a0,a0,1365 # 55555555 <absimmsh+0x49a847a8>
    800016a0:	00b51513          	slli	a0,a0,0xb
    800016a4:	2aa50513          	addi	a0,a0,682
    800016a8:	00b51513          	slli	a0,a0,0xb
    800016ac:	55550513          	addi	a0,a0,1365
    800016b0:	00a51513          	slli	a0,a0,0xa
    800016b4:	15650513          	addi	a0,a0,342
    800016b8:	00100593          	li	a1,1
    800016bc:	03259593          	slli	a1,a1,0x32
    800016c0:	fff5c593          	not	a1,a1
    800016c4:	00b5063b          	addw	a2,a0,a1
    800016c8:	30c3b823          	sd	a2,784(t2)
    800016cc:	555550b7          	lui	ra,0x55555
    800016d0:	5550809b          	addiw	ra,ra,1365 # 55555555 <absimmsh+0x49a847a8>
    800016d4:	00c08463          	beq	ra,a2,800016dc <inst_118>
    800016d8:	94dfe06f          	j	80000024 <rvtest_error>

00000000800016dc <inst_118>:
    800016dc:	00100513          	li	a0,1
    800016e0:	02e51513          	slli	a0,a0,0x2e
    800016e4:	fff54513          	not	a0,a0
    800016e8:	00100593          	li	a1,1
    800016ec:	03359593          	slli	a1,a1,0x33
    800016f0:	fff5c593          	not	a1,a1
    800016f4:	00b5063b          	addw	a2,a0,a1
    800016f8:	30c3bc23          	sd	a2,792(t2)
    800016fc:	ffe00093          	li	ra,-2
    80001700:	00c08463          	beq	ra,a2,80001708 <inst_119>
    80001704:	921fe06f          	j	80000024 <rvtest_error>

0000000080001708 <inst_119>:
    80001708:	00000513          	li	a0,0
    8000170c:	00100593          	li	a1,1
    80001710:	03459593          	slli	a1,a1,0x34
    80001714:	fff5c593          	not	a1,a1
    80001718:	00b5063b          	addw	a2,a0,a1
    8000171c:	32c3b023          	sd	a2,800(t2)
    80001720:	fff00093          	li	ra,-1
    80001724:	00c08463          	beq	ra,a2,8000172c <inst_120>
    80001728:	8fdfe06f          	j	80000024 <rvtest_error>

000000008000172c <inst_120>:
    8000172c:	02000513          	li	a0,32
    80001730:	00100593          	li	a1,1
    80001734:	03559593          	slli	a1,a1,0x35
    80001738:	fff5c593          	not	a1,a1
    8000173c:	00b5063b          	addw	a2,a0,a1
    80001740:	32c3b423          	sd	a2,808(t2)
    80001744:	01f00093          	li	ra,31
    80001748:	00c08463          	beq	ra,a2,80001750 <inst_121>
    8000174c:	8d9fe06f          	j	80000024 <rvtest_error>

0000000080001750 <inst_121>:
    80001750:	66666537          	lui	a0,0x66666
    80001754:	66650513          	addi	a0,a0,1638 # 66666666 <absimmsh+0x5ab958b9>
    80001758:	00b51513          	slli	a0,a0,0xb
    8000175c:	33350513          	addi	a0,a0,819
    80001760:	00b51513          	slli	a0,a0,0xb
    80001764:	19950513          	addi	a0,a0,409
    80001768:	00a51513          	slli	a0,a0,0xa
    8000176c:	26550513          	addi	a0,a0,613
    80001770:	00100593          	li	a1,1
    80001774:	03659593          	slli	a1,a1,0x36
    80001778:	fff5c593          	not	a1,a1
    8000177c:	00b5063b          	addw	a2,a0,a1
    80001780:	32c3b823          	sd	a2,816(t2)
    80001784:	666660b7          	lui	ra,0x66666
    80001788:	6640809b          	addiw	ra,ra,1636 # 66666664 <absimmsh+0x5ab958b7>
    8000178c:	00c08463          	beq	ra,a2,80001794 <inst_122>
    80001790:	895fe06f          	j	80000024 <rvtest_error>

0000000080001794 <inst_122>:
    80001794:	ffb00513          	li	a0,-5
    80001798:	00100593          	li	a1,1
    8000179c:	03759593          	slli	a1,a1,0x37
    800017a0:	fff5c593          	not	a1,a1
    800017a4:	00b5063b          	addw	a2,a0,a1
    800017a8:	32c3bc23          	sd	a2,824(t2)
    800017ac:	ffa00093          	li	ra,-6
    800017b0:	00c08463          	beq	ra,a2,800017b8 <inst_123>
    800017b4:	871fe06f          	j	80000024 <rvtest_error>

00000000800017b8 <inst_123>:
    800017b8:	55555537          	lui	a0,0x55555
    800017bc:	55550513          	addi	a0,a0,1365 # 55555555 <absimmsh+0x49a847a8>
    800017c0:	00b51513          	slli	a0,a0,0xb
    800017c4:	2aa50513          	addi	a0,a0,682
    800017c8:	00b51513          	slli	a0,a0,0xb
    800017cc:	55550513          	addi	a0,a0,1365
    800017d0:	00a51513          	slli	a0,a0,0xa
    800017d4:	15450513          	addi	a0,a0,340
    800017d8:	00100593          	li	a1,1
    800017dc:	03859593          	slli	a1,a1,0x38
    800017e0:	fff5c593          	not	a1,a1
    800017e4:	00b5063b          	addw	a2,a0,a1
    800017e8:	34c3b023          	sd	a2,832(t2)
    800017ec:	555550b7          	lui	ra,0x55555
    800017f0:	5530809b          	addiw	ra,ra,1363 # 55555553 <absimmsh+0x49a847a6>
    800017f4:	00c08463          	beq	ra,a2,800017fc <inst_124>
    800017f8:	82dfe06f          	j	80000024 <rvtest_error>

00000000800017fc <inst_124>:
    800017fc:	ffe00513          	li	a0,-2
    80001800:	00100593          	li	a1,1
    80001804:	03959593          	slli	a1,a1,0x39
    80001808:	fff5c593          	not	a1,a1
    8000180c:	00b5063b          	addw	a2,a0,a1
    80001810:	34c3b423          	sd	a2,840(t2)
    80001814:	ffd00093          	li	ra,-3
    80001818:	00c08463          	beq	ra,a2,80001820 <inst_125>
    8000181c:	809fe06f          	j	80000024 <rvtest_error>

0000000080001820 <inst_125>:
    80001820:	00100513          	li	a0,1
    80001824:	02451513          	slli	a0,a0,0x24
    80001828:	00100593          	li	a1,1
    8000182c:	03a59593          	slli	a1,a1,0x3a
    80001830:	fff5c593          	not	a1,a1
    80001834:	00b5063b          	addw	a2,a0,a1
    80001838:	34c3b823          	sd	a2,848(t2)
    8000183c:	fff00093          	li	ra,-1
    80001840:	00c08463          	beq	ra,a2,80001848 <inst_126>
    80001844:	fe0fe06f          	j	80000024 <rvtest_error>

0000000080001848 <inst_126>:
    80001848:	fdf00513          	li	a0,-33
    8000184c:	00100593          	li	a1,1
    80001850:	03b59593          	slli	a1,a1,0x3b
    80001854:	fff5c593          	not	a1,a1
    80001858:	00b5063b          	addw	a2,a0,a1
    8000185c:	34c3bc23          	sd	a2,856(t2)
    80001860:	fde00093          	li	ra,-34
    80001864:	00c08463          	beq	ra,a2,8000186c <inst_127>
    80001868:	fbcfe06f          	j	80000024 <rvtest_error>

000000008000186c <inst_127>:
    8000186c:	ff700513          	li	a0,-9
    80001870:	00100593          	li	a1,1
    80001874:	03c59593          	slli	a1,a1,0x3c
    80001878:	fff5c593          	not	a1,a1
    8000187c:	00b5063b          	addw	a2,a0,a1
    80001880:	36c3b023          	sd	a2,864(t2)
    80001884:	ff600093          	li	ra,-10
    80001888:	00c08463          	beq	ra,a2,80001890 <inst_128>
    8000188c:	f98fe06f          	j	80000024 <rvtest_error>

0000000080001890 <inst_128>:
    80001890:	00100513          	li	a0,1
    80001894:	02251513          	slli	a0,a0,0x22
    80001898:	00100593          	li	a1,1
    8000189c:	03d59593          	slli	a1,a1,0x3d
    800018a0:	fff5c593          	not	a1,a1
    800018a4:	00b5063b          	addw	a2,a0,a1
    800018a8:	36c3b423          	sd	a2,872(t2)
    800018ac:	fff00093          	li	ra,-1
    800018b0:	00c08463          	beq	ra,a2,800018b8 <inst_129>
    800018b4:	f70fe06f          	j	80000024 <rvtest_error>

00000000800018b8 <inst_129>:
    800018b8:	00100513          	li	a0,1
    800018bc:	01151513          	slli	a0,a0,0x11
    800018c0:	00100593          	li	a1,1
    800018c4:	03e59593          	slli	a1,a1,0x3e
    800018c8:	fff5c593          	not	a1,a1
    800018cc:	00b5063b          	addw	a2,a0,a1
    800018d0:	36c3b823          	sd	a2,880(t2)
    800018d4:	000200b7          	lui	ra,0x20
    800018d8:	fff0809b          	addiw	ra,ra,-1 # 1ffff <offset+0x1fb67>
    800018dc:	00c08463          	beq	ra,a2,800018e4 <inst_130>
    800018e0:	f44fe06f          	j	80000024 <rvtest_error>

00000000800018e4 <inst_130>:
    800018e4:	00100513          	li	a0,1
    800018e8:	02351513          	slli	a0,a0,0x23
    800018ec:	555555b7          	lui	a1,0x55555
    800018f0:	55558593          	addi	a1,a1,1365 # 55555555 <absimmsh+0x49a847a8>
    800018f4:	00b59593          	slli	a1,a1,0xb
    800018f8:	2aa58593          	addi	a1,a1,682
    800018fc:	00b59593          	slli	a1,a1,0xb
    80001900:	55558593          	addi	a1,a1,1365
    80001904:	00a59593          	slli	a1,a1,0xa
    80001908:	15558593          	addi	a1,a1,341
    8000190c:	00b5063b          	addw	a2,a0,a1
    80001910:	36c3bc23          	sd	a2,888(t2)
    80001914:	555550b7          	lui	ra,0x55555
    80001918:	5550809b          	addiw	ra,ra,1365 # 55555555 <absimmsh+0x49a847a8>
    8000191c:	00c08463          	beq	ra,a2,80001924 <inst_131>
    80001920:	f04fe06f          	j	80000024 <rvtest_error>

0000000080001924 <inst_131>:
    80001924:	00100513          	li	a0,1
    80001928:	00b51513          	slli	a0,a0,0xb
    8000192c:	aaaab5b7          	lui	a1,0xaaaab
    80001930:	aaa58593          	addi	a1,a1,-1366 # ffffffffaaaaaaaa <absimm+0xfffffffeefd9cfda>
    80001934:	00b59593          	slli	a1,a1,0xb
    80001938:	55558593          	addi	a1,a1,1365
    8000193c:	00b59593          	slli	a1,a1,0xb
    80001940:	2aa58593          	addi	a1,a1,682
    80001944:	00a59593          	slli	a1,a1,0xa
    80001948:	2aa58593          	addi	a1,a1,682
    8000194c:	00b5063b          	addw	a2,a0,a1
    80001950:	38c3b023          	sd	a2,896(t2)
    80001954:	aaaab0b7          	lui	ra,0xaaaab
    80001958:	2aa0809b          	addiw	ra,ra,682 # ffffffffaaaab2aa <absimm+0xfffffffeefd9d7da>
    8000195c:	00c08463          	beq	ra,a2,80001964 <inst_132>
    80001960:	ec4fe06f          	j	80000024 <rvtest_error>

0000000080001964 <inst_132>:
    80001964:	00800513          	li	a0,8
    80001968:	fff00593          	li	a1,-1
    8000196c:	0015d593          	srli	a1,a1,0x1
    80001970:	00b5063b          	addw	a2,a0,a1
    80001974:	38c3b423          	sd	a2,904(t2)
    80001978:	00700093          	li	ra,7
    8000197c:	00c08463          	beq	ra,a2,80001984 <inst_133>
    80001980:	ea4fe06f          	j	80000024 <rvtest_error>

0000000080001984 <inst_133>:
    80001984:	01000513          	li	a0,16
    80001988:	00200593          	li	a1,2
    8000198c:	00b5063b          	addw	a2,a0,a1
    80001990:	38c3b823          	sd	a2,912(t2)
    80001994:	01200093          	li	ra,18
    80001998:	00c08463          	beq	ra,a2,800019a0 <inst_134>
    8000199c:	e88fe06f          	j	80000024 <rvtest_error>

00000000800019a0 <inst_134>:
    800019a0:	04000513          	li	a0,64
    800019a4:	555555b7          	lui	a1,0x55555
    800019a8:	55558593          	addi	a1,a1,1365 # 55555555 <absimmsh+0x49a847a8>
    800019ac:	00b59593          	slli	a1,a1,0xb
    800019b0:	2aa58593          	addi	a1,a1,682
    800019b4:	00b59593          	slli	a1,a1,0xb
    800019b8:	55558593          	addi	a1,a1,1365
    800019bc:	00a59593          	slli	a1,a1,0xa
    800019c0:	15658593          	addi	a1,a1,342
    800019c4:	00b5063b          	addw	a2,a0,a1
    800019c8:	38c3bc23          	sd	a2,920(t2)
    800019cc:	555550b7          	lui	ra,0x55555
    800019d0:	5960809b          	addiw	ra,ra,1430 # 55555596 <absimmsh+0x49a847e9>
    800019d4:	00c08463          	beq	ra,a2,800019dc <inst_135>
    800019d8:	e4cfe06f          	j	80000024 <rvtest_error>

00000000800019dc <inst_135>:
    800019dc:	08000513          	li	a0,128
    800019e0:	40000593          	li	a1,1024
    800019e4:	00b5063b          	addw	a2,a0,a1
    800019e8:	3ac3b023          	sd	a2,928(t2)
    800019ec:	48000093          	li	ra,1152
    800019f0:	00c08463          	beq	ra,a2,800019f8 <inst_136>
    800019f4:	e30fe06f          	j	80000024 <rvtest_error>

00000000800019f8 <inst_136>:
    800019f8:	40000513          	li	a0,1024
    800019fc:	00100593          	li	a1,1
    80001a00:	03959593          	slli	a1,a1,0x39
    80001a04:	fff5c593          	not	a1,a1
    80001a08:	00b5063b          	addw	a2,a0,a1
    80001a0c:	3ac3b423          	sd	a2,936(t2)
    80001a10:	3ff00093          	li	ra,1023
    80001a14:	00c08463          	beq	ra,a2,80001a1c <inst_137>
    80001a18:	e0cfe06f          	j	80000024 <rvtest_error>

0000000080001a1c <inst_137>:
    80001a1c:	00100513          	li	a0,1
    80001a20:	00c51513          	slli	a0,a0,0xc
    80001a24:	00100593          	li	a1,1
    80001a28:	02f59593          	slli	a1,a1,0x2f
    80001a2c:	00b5063b          	addw	a2,a0,a1
    80001a30:	3ac3b823          	sd	a2,944(t2)
    80001a34:	000010b7          	lui	ra,0x1
    80001a38:	00c08463          	beq	ra,a2,80001a40 <inst_138>
    80001a3c:	de8fe06f          	j	80000024 <rvtest_error>

0000000080001a40 <inst_138>:
    80001a40:	00100513          	li	a0,1
    80001a44:	00e51513          	slli	a0,a0,0xe
    80001a48:	00100593          	li	a1,1
    80001a4c:	01c59593          	slli	a1,a1,0x1c
    80001a50:	fff5c593          	not	a1,a1
    80001a54:	00b5063b          	addw	a2,a0,a1
    80001a58:	3ac3bc23          	sd	a2,952(t2)
    80001a5c:	f00040b7          	lui	ra,0xf0004
    80001a60:	fff0809b          	addiw	ra,ra,-1 # fffffffff0003fff <absimm+0xffffffff352f652f>
    80001a64:	00c08463          	beq	ra,a2,80001a6c <inst_139>
    80001a68:	dbcfe06f          	j	80000024 <rvtest_error>

0000000080001a6c <inst_139>:
    80001a6c:	00100513          	li	a0,1
    80001a70:	00f51513          	slli	a0,a0,0xf
    80001a74:	00100593          	li	a1,1
    80001a78:	00b5063b          	addw	a2,a0,a1
    80001a7c:	3cc3b023          	sd	a2,960(t2)
    80001a80:	000080b7          	lui	ra,0x8
    80001a84:	0010809b          	addiw	ra,ra,1 # 8001 <offset+0x7b69>
    80001a88:	00c08463          	beq	ra,a2,80001a90 <inst_140>
    80001a8c:	d98fe06f          	j	80000024 <rvtest_error>

0000000080001a90 <inst_140>:
    80001a90:	00100513          	li	a0,1
    80001a94:	01051513          	slli	a0,a0,0x10
    80001a98:	00300593          	li	a1,3
    80001a9c:	00b5063b          	addw	a2,a0,a1
    80001aa0:	3cc3b423          	sd	a2,968(t2)
    80001aa4:	000100b7          	lui	ra,0x10
    80001aa8:	0030809b          	addiw	ra,ra,3 # 10003 <offset+0xfb6b>
    80001aac:	00c08463          	beq	ra,a2,80001ab4 <inst_141>
    80001ab0:	d74fe06f          	j	80000024 <rvtest_error>

0000000080001ab4 <inst_141>:
    80001ab4:	00100513          	li	a0,1
    80001ab8:	01251513          	slli	a0,a0,0x12
    80001abc:	00100593          	li	a1,1
    80001ac0:	02159593          	slli	a1,a1,0x21
    80001ac4:	00b5063b          	addw	a2,a0,a1
    80001ac8:	3cc3b823          	sd	a2,976(t2)
    80001acc:	000400b7          	lui	ra,0x40
    80001ad0:	00c08463          	beq	ra,a2,80001ad8 <inst_142>
    80001ad4:	d50fe06f          	j	80000024 <rvtest_error>

0000000080001ad8 <inst_142>:
    80001ad8:	00100513          	li	a0,1
    80001adc:	01d51513          	slli	a0,a0,0x1d
    80001ae0:	00100593          	li	a1,1
    80001ae4:	03859593          	slli	a1,a1,0x38
    80001ae8:	fff5c593          	not	a1,a1
    80001aec:	00b5063b          	addw	a2,a0,a1
    80001af0:	3cc3bc23          	sd	a2,984(t2)
    80001af4:	200000b7          	lui	ra,0x20000
    80001af8:	fff0809b          	addiw	ra,ra,-1 # 1fffffff <absimmsh+0x1452f252>
    80001afc:	00c08463          	beq	ra,a2,80001b04 <inst_143>
    80001b00:	d24fe06f          	j	80000024 <rvtest_error>

0000000080001b04 <inst_143>:
    80001b04:	00100513          	li	a0,1
    80001b08:	01e51513          	slli	a0,a0,0x1e
    80001b0c:	00100593          	li	a1,1
    80001b10:	02a59593          	slli	a1,a1,0x2a
    80001b14:	fff5c593          	not	a1,a1
    80001b18:	00b5063b          	addw	a2,a0,a1
    80001b1c:	3ec3b023          	sd	a2,992(t2)
    80001b20:	400000b7          	lui	ra,0x40000
    80001b24:	fff0809b          	addiw	ra,ra,-1 # 3fffffff <absimmsh+0x3452f252>
    80001b28:	00c08463          	beq	ra,a2,80001b30 <inst_144>
    80001b2c:	cf8fe06f          	j	80000024 <rvtest_error>

0000000080001b30 <inst_144>:
    80001b30:	00100513          	li	a0,1
    80001b34:	02051513          	slli	a0,a0,0x20
    80001b38:	555555b7          	lui	a1,0x55555
    80001b3c:	55558593          	addi	a1,a1,1365 # 55555555 <absimmsh+0x49a847a8>
    80001b40:	00b59593          	slli	a1,a1,0xb
    80001b44:	2aa58593          	addi	a1,a1,682
    80001b48:	00b59593          	slli	a1,a1,0xb
    80001b4c:	55558593          	addi	a1,a1,1365
    80001b50:	00a59593          	slli	a1,a1,0xa
    80001b54:	15458593          	addi	a1,a1,340
    80001b58:	00b5063b          	addw	a2,a0,a1
    80001b5c:	3ec3b423          	sd	a2,1000(t2)
    80001b60:	555550b7          	lui	ra,0x55555
    80001b64:	5540809b          	addiw	ra,ra,1364 # 55555554 <absimmsh+0x49a847a7>
    80001b68:	00c08463          	beq	ra,a2,80001b70 <inst_145>
    80001b6c:	cb8fe06f          	j	80000024 <rvtest_error>

0000000080001b70 <inst_145>:
    80001b70:	00100513          	li	a0,1
    80001b74:	02551513          	slli	a0,a0,0x25
    80001b78:	00200593          	li	a1,2
    80001b7c:	00b5063b          	addw	a2,a0,a1
    80001b80:	3ec3b823          	sd	a2,1008(t2)
    80001b84:	00200093          	li	ra,2
    80001b88:	00c08463          	beq	ra,a2,80001b90 <inst_146>
    80001b8c:	c98fe06f          	j	80000024 <rvtest_error>

0000000080001b90 <inst_146>:
    80001b90:	00100513          	li	a0,1
    80001b94:	02751513          	slli	a0,a0,0x27
    80001b98:	00100593          	li	a1,1
    80001b9c:	03c59593          	slli	a1,a1,0x3c
    80001ba0:	00b5063b          	addw	a2,a0,a1
    80001ba4:	3ec3bc23          	sd	a2,1016(t2)
    80001ba8:	00000093          	li	ra,0
    80001bac:	00c08463          	beq	ra,a2,80001bb4 <inst_147>
    80001bb0:	c74fe06f          	j	80000024 <rvtest_error>

0000000080001bb4 <inst_147>:
    80001bb4:	00100513          	li	a0,1
    80001bb8:	02b51513          	slli	a0,a0,0x2b
    80001bbc:	00100593          	li	a1,1
    80001bc0:	01c59593          	slli	a1,a1,0x1c
    80001bc4:	00b5063b          	addw	a2,a0,a1
    80001bc8:	40c3b023          	sd	a2,1024(t2)
    80001bcc:	100000b7          	lui	ra,0x10000
    80001bd0:	00c08463          	beq	ra,a2,80001bd8 <inst_148>
    80001bd4:	c50fe06f          	j	80000024 <rvtest_error>

0000000080001bd8 <inst_148>:
    80001bd8:	00100513          	li	a0,1
    80001bdc:	02c51513          	slli	a0,a0,0x2c
    80001be0:	333335b7          	lui	a1,0x33333
    80001be4:	33358593          	addi	a1,a1,819 # 33333333 <absimmsh+0x27862586>
    80001be8:	00b59593          	slli	a1,a1,0xb
    80001bec:	19958593          	addi	a1,a1,409
    80001bf0:	00b59593          	slli	a1,a1,0xb
    80001bf4:	4cc58593          	addi	a1,a1,1228
    80001bf8:	00a59593          	slli	a1,a1,0xa
    80001bfc:	33258593          	addi	a1,a1,818
    80001c00:	00b5063b          	addw	a2,a0,a1
    80001c04:	40c3b423          	sd	a2,1032(t2)
    80001c08:	333330b7          	lui	ra,0x33333
    80001c0c:	3320809b          	addiw	ra,ra,818 # 33333332 <absimmsh+0x27862585>
    80001c10:	00c08463          	beq	ra,a2,80001c18 <inst_149>
    80001c14:	c10fe06f          	j	80000024 <rvtest_error>

0000000080001c18 <inst_149>:
    80001c18:	00100513          	li	a0,1
    80001c1c:	02d51513          	slli	a0,a0,0x2d
    80001c20:	00400593          	li	a1,4
    80001c24:	00b5063b          	addw	a2,a0,a1
    80001c28:	40c3b823          	sd	a2,1040(t2)
    80001c2c:	00400093          	li	ra,4
    80001c30:	00c08463          	beq	ra,a2,80001c38 <inst_150>
    80001c34:	bf0fe06f          	j	80000024 <rvtest_error>

0000000080001c38 <inst_150>:
    80001c38:	00100513          	li	a0,1
    80001c3c:	02e51513          	slli	a0,a0,0x2e
    80001c40:	dff00593          	li	a1,-513
    80001c44:	00b5063b          	addw	a2,a0,a1
    80001c48:	40c3bc23          	sd	a2,1048(t2)
    80001c4c:	dff00093          	li	ra,-513
    80001c50:	00c08463          	beq	ra,a2,80001c58 <inst_151>
    80001c54:	bd0fe06f          	j	80000024 <rvtest_error>

0000000080001c58 <inst_151>:
    80001c58:	00100513          	li	a0,1
    80001c5c:	02f51513          	slli	a0,a0,0x2f
    80001c60:	fef00593          	li	a1,-17
    80001c64:	00b5063b          	addw	a2,a0,a1
    80001c68:	42c3b023          	sd	a2,1056(t2)
    80001c6c:	fef00093          	li	ra,-17
    80001c70:	00c08463          	beq	ra,a2,80001c78 <inst_152>
    80001c74:	bb0fe06f          	j	80000024 <rvtest_error>

0000000080001c78 <inst_152>:
    80001c78:	00100513          	li	a0,1
    80001c7c:	03251513          	slli	a0,a0,0x32
    80001c80:	333335b7          	lui	a1,0x33333
    80001c84:	33358593          	addi	a1,a1,819 # 33333333 <absimmsh+0x27862586>
    80001c88:	00b59593          	slli	a1,a1,0xb
    80001c8c:	19958593          	addi	a1,a1,409
    80001c90:	00b59593          	slli	a1,a1,0xb
    80001c94:	4cc58593          	addi	a1,a1,1228
    80001c98:	00a59593          	slli	a1,a1,0xa
    80001c9c:	33458593          	addi	a1,a1,820
    80001ca0:	00b5063b          	addw	a2,a0,a1
    80001ca4:	42c3b423          	sd	a2,1064(t2)
    80001ca8:	333330b7          	lui	ra,0x33333
    80001cac:	3340809b          	addiw	ra,ra,820 # 33333334 <absimmsh+0x27862587>
    80001cb0:	00c08463          	beq	ra,a2,80001cb8 <inst_153>
    80001cb4:	b70fe06f          	j	80000024 <rvtest_error>

0000000080001cb8 <inst_153>:
    80001cb8:	00100513          	li	a0,1
    80001cbc:	03351513          	slli	a0,a0,0x33
    80001cc0:	00100593          	li	a1,1
    80001cc4:	03959593          	slli	a1,a1,0x39
    80001cc8:	fff5c593          	not	a1,a1
    80001ccc:	00b5063b          	addw	a2,a0,a1
    80001cd0:	42c3b823          	sd	a2,1072(t2)
    80001cd4:	fff00093          	li	ra,-1
    80001cd8:	00c08463          	beq	ra,a2,80001ce0 <inst_154>
    80001cdc:	b48fe06f          	j	80000024 <rvtest_error>

0000000080001ce0 <inst_154>:
    80001ce0:	00100513          	li	a0,1
    80001ce4:	03451513          	slli	a0,a0,0x34
    80001ce8:	08000593          	li	a1,128
    80001cec:	00b5063b          	addw	a2,a0,a1
    80001cf0:	42c3bc23          	sd	a2,1080(t2)
    80001cf4:	08000093          	li	ra,128
    80001cf8:	00c08463          	beq	ra,a2,80001d00 <inst_155>
    80001cfc:	b28fe06f          	j	80000024 <rvtest_error>

0000000080001d00 <inst_155>:
    80001d00:	00100513          	li	a0,1
    80001d04:	03751513          	slli	a0,a0,0x37
    80001d08:	00100593          	li	a1,1
    80001d0c:	01159593          	slli	a1,a1,0x11
    80001d10:	00b5063b          	addw	a2,a0,a1
    80001d14:	44c3b023          	sd	a2,1088(t2)
    80001d18:	000200b7          	lui	ra,0x20
    80001d1c:	00c08463          	beq	ra,a2,80001d24 <inst_156>
    80001d20:	b04fe06f          	j	80000024 <rvtest_error>

0000000080001d24 <inst_156>:
    80001d24:	00100513          	li	a0,1
    80001d28:	03851513          	slli	a0,a0,0x38
    80001d2c:	00900593          	li	a1,9
    80001d30:	00b5063b          	addw	a2,a0,a1
    80001d34:	44c3b423          	sd	a2,1096(t2)
    80001d38:	00900093          	li	ra,9
    80001d3c:	00c08463          	beq	ra,a2,80001d44 <inst_157>
    80001d40:	ae4fe06f          	j	80000024 <rvtest_error>

0000000080001d44 <inst_157>:
    80001d44:	00100513          	li	a0,1
    80001d48:	03951513          	slli	a0,a0,0x39
    80001d4c:	00100593          	li	a1,1
    80001d50:	03a59593          	slli	a1,a1,0x3a
    80001d54:	00b5063b          	addw	a2,a0,a1
    80001d58:	44c3b823          	sd	a2,1104(t2)
    80001d5c:	00000093          	li	ra,0
    80001d60:	00c08463          	beq	ra,a2,80001d68 <inst_158>
    80001d64:	ac0fe06f          	j	80000024 <rvtest_error>

0000000080001d68 <inst_158>:
    80001d68:	00100513          	li	a0,1
    80001d6c:	03c51513          	slli	a0,a0,0x3c
    80001d70:	333335b7          	lui	a1,0x33333
    80001d74:	33358593          	addi	a1,a1,819 # 33333333 <absimmsh+0x27862586>
    80001d78:	00b59593          	slli	a1,a1,0xb
    80001d7c:	19958593          	addi	a1,a1,409
    80001d80:	00b59593          	slli	a1,a1,0xb
    80001d84:	4cc58593          	addi	a1,a1,1228
    80001d88:	00a59593          	slli	a1,a1,0xa
    80001d8c:	33458593          	addi	a1,a1,820
    80001d90:	00b5063b          	addw	a2,a0,a1
    80001d94:	44c3bc23          	sd	a2,1112(t2)
    80001d98:	333330b7          	lui	ra,0x33333
    80001d9c:	3340809b          	addiw	ra,ra,820 # 33333334 <absimmsh+0x27862587>
    80001da0:	00c08463          	beq	ra,a2,80001da8 <inst_159>
    80001da4:	a80fe06f          	j	80000024 <rvtest_error>

0000000080001da8 <inst_159>:
    80001da8:	ffd00513          	li	a0,-3
    80001dac:	00100593          	li	a1,1
    80001db0:	03159593          	slli	a1,a1,0x31
    80001db4:	fff5c593          	not	a1,a1
    80001db8:	00b5063b          	addw	a2,a0,a1
    80001dbc:	46c3b023          	sd	a2,1120(t2)
    80001dc0:	ffc00093          	li	ra,-4
    80001dc4:	00c08463          	beq	ra,a2,80001dcc <inst_160>
    80001dc8:	a5cfe06f          	j	80000024 <rvtest_error>

0000000080001dcc <inst_160>:
    80001dcc:	fbf00513          	li	a0,-65
    80001dd0:	08000593          	li	a1,128
    80001dd4:	00b5063b          	addw	a2,a0,a1
    80001dd8:	46c3b423          	sd	a2,1128(t2)
    80001ddc:	03f00093          	li	ra,63
    80001de0:	00c08463          	beq	ra,a2,80001de8 <inst_161>
    80001de4:	a40fe06f          	j	80000024 <rvtest_error>

0000000080001de8 <inst_161>:
    80001de8:	bff00513          	li	a0,-1025
    80001dec:	555555b7          	lui	a1,0x55555
    80001df0:	55558593          	addi	a1,a1,1365 # 55555555 <absimmsh+0x49a847a8>
    80001df4:	00b59593          	slli	a1,a1,0xb
    80001df8:	2aa58593          	addi	a1,a1,682
    80001dfc:	00b59593          	slli	a1,a1,0xb
    80001e00:	55558593          	addi	a1,a1,1365
    80001e04:	00a59593          	slli	a1,a1,0xa
    80001e08:	15458593          	addi	a1,a1,340
    80001e0c:	00b5063b          	addw	a2,a0,a1
    80001e10:	46c3b823          	sd	a2,1136(t2)
    80001e14:	555550b7          	lui	ra,0x55555
    80001e18:	1530809b          	addiw	ra,ra,339 # 55555153 <absimmsh+0x49a843a6>
    80001e1c:	00c08463          	beq	ra,a2,80001e24 <inst_162>
    80001e20:	a04fe06f          	j	80000024 <rvtest_error>

0000000080001e24 <inst_162>:
    80001e24:	00100513          	li	a0,1
    80001e28:	01051513          	slli	a0,a0,0x10
    80001e2c:	fff54513          	not	a0,a0
    80001e30:	00100593          	li	a1,1
    80001e34:	02559593          	slli	a1,a1,0x25
    80001e38:	fff5c593          	not	a1,a1
    80001e3c:	00b5063b          	addw	a2,a0,a1
    80001e40:	46c3bc23          	sd	a2,1144(t2)
    80001e44:	ffff00b7          	lui	ra,0xffff0
    80001e48:	ffe0809b          	addiw	ra,ra,-2 # fffffffffffefffe <absimm+0xffffffff452e252e>
    80001e4c:	00c08463          	beq	ra,a2,80001e54 <inst_163>
    80001e50:	9d4fe06f          	j	80000024 <rvtest_error>

0000000080001e54 <inst_163>:
    80001e54:	00100513          	li	a0,1
    80001e58:	01151513          	slli	a0,a0,0x11
    80001e5c:	fff54513          	not	a0,a0
    80001e60:	ff700593          	li	a1,-9
    80001e64:	00b5063b          	addw	a2,a0,a1
    80001e68:	48c3b023          	sd	a2,1152(t2)
    80001e6c:	fffe00b7          	lui	ra,0xfffe0
    80001e70:	ff60809b          	addiw	ra,ra,-10 # fffffffffffdfff6 <absimm+0xffffffff452d2526>
    80001e74:	00c08463          	beq	ra,a2,80001e7c <inst_164>
    80001e78:	9acfe06f          	j	80000024 <rvtest_error>

0000000080001e7c <inst_164>:
    80001e7c:	00100513          	li	a0,1
    80001e80:	01451513          	slli	a0,a0,0x14
    80001e84:	fff54513          	not	a0,a0
    80001e88:	00100593          	li	a1,1
    80001e8c:	01859593          	slli	a1,a1,0x18
    80001e90:	fff5c593          	not	a1,a1
    80001e94:	00b5063b          	addw	a2,a0,a1
    80001e98:	48c3b423          	sd	a2,1160(t2)
    80001e9c:	fef000b7          	lui	ra,0xfef00
    80001ea0:	ffe0809b          	addiw	ra,ra,-2 # fffffffffeeffffe <absimm+0xffffffff441f252e>
    80001ea4:	00c08463          	beq	ra,a2,80001eac <inst_165>
    80001ea8:	97cfe06f          	j	80000024 <rvtest_error>

0000000080001eac <inst_165>:
    80001eac:	00100513          	li	a0,1
    80001eb0:	01851513          	slli	a0,a0,0x18
    80001eb4:	fff54513          	not	a0,a0
    80001eb8:	00100593          	li	a1,1
    80001ebc:	02459593          	slli	a1,a1,0x24
    80001ec0:	00b5063b          	addw	a2,a0,a1
    80001ec4:	48c3b823          	sd	a2,1168(t2)
    80001ec8:	ff0000b7          	lui	ra,0xff000
    80001ecc:	fff0809b          	addiw	ra,ra,-1 # fffffffffeffffff <absimm+0xffffffff442f252f>
    80001ed0:	00c08463          	beq	ra,a2,80001ed8 <inst_166>
    80001ed4:	950fe06f          	j	80000024 <rvtest_error>

0000000080001ed8 <inst_166>:
    80001ed8:	00100513          	li	a0,1
    80001edc:	01951513          	slli	a0,a0,0x19
    80001ee0:	fff54513          	not	a0,a0
    80001ee4:	333335b7          	lui	a1,0x33333
    80001ee8:	33358593          	addi	a1,a1,819 # 33333333 <absimmsh+0x27862586>
    80001eec:	00b59593          	slli	a1,a1,0xb
    80001ef0:	19958593          	addi	a1,a1,409
    80001ef4:	00b59593          	slli	a1,a1,0xb
    80001ef8:	4cc58593          	addi	a1,a1,1228
    80001efc:	00a59593          	slli	a1,a1,0xa
    80001f00:	33258593          	addi	a1,a1,818
    80001f04:	00b5063b          	addw	a2,a0,a1
    80001f08:	48c3bc23          	sd	a2,1176(t2)
    80001f0c:	313330b7          	lui	ra,0x31333
    80001f10:	3310809b          	addiw	ra,ra,817 # 31333331 <absimmsh+0x25862584>
    80001f14:	00c08463          	beq	ra,a2,80001f1c <inst_167>
    80001f18:	90cfe06f          	j	80000024 <rvtest_error>

0000000080001f1c <inst_167>:
    80001f1c:	00100513          	li	a0,1
    80001f20:	01d51513          	slli	a0,a0,0x1d
    80001f24:	fff54513          	not	a0,a0
    80001f28:	00200593          	li	a1,2
    80001f2c:	00b5063b          	addw	a2,a0,a1
    80001f30:	4ac3b023          	sd	a2,1184(t2)
    80001f34:	e00000b7          	lui	ra,0xe0000
    80001f38:	0010809b          	addiw	ra,ra,1 # ffffffffe0000001 <absimm+0xffffffff252f2531>
    80001f3c:	00c08463          	beq	ra,a2,80001f44 <inst_168>
    80001f40:	8e4fe06f          	j	80000024 <rvtest_error>

0000000080001f44 <inst_168>:
    80001f44:	00100513          	li	a0,1
    80001f48:	01f51513          	slli	a0,a0,0x1f
    80001f4c:	fff54513          	not	a0,a0
    80001f50:	00100593          	li	a1,1
    80001f54:	01f59593          	slli	a1,a1,0x1f
    80001f58:	00b5063b          	addw	a2,a0,a1
    80001f5c:	4ac3b423          	sd	a2,1192(t2)
    80001f60:	fff00093          	li	ra,-1
    80001f64:	00c08463          	beq	ra,a2,80001f6c <inst_169>
    80001f68:	8bcfe06f          	j	80000024 <rvtest_error>

0000000080001f6c <inst_169>:
    80001f6c:	00100513          	li	a0,1
    80001f70:	02051513          	slli	a0,a0,0x20
    80001f74:	fff54513          	not	a0,a0
    80001f78:	00100593          	li	a1,1
    80001f7c:	03659593          	slli	a1,a1,0x36
    80001f80:	00b5063b          	addw	a2,a0,a1
    80001f84:	4ac3b823          	sd	a2,1200(t2)
    80001f88:	fff00093          	li	ra,-1
    80001f8c:	00c08463          	beq	ra,a2,80001f94 <inst_170>
    80001f90:	894fe06f          	j	80000024 <rvtest_error>

0000000080001f94 <inst_170>:
    80001f94:	00100513          	li	a0,1
    80001f98:	02351513          	slli	a0,a0,0x23
    80001f9c:	fff54513          	not	a0,a0
    80001fa0:	00100593          	li	a1,1
    80001fa4:	03b59593          	slli	a1,a1,0x3b
    80001fa8:	00b5063b          	addw	a2,a0,a1
    80001fac:	4ac3bc23          	sd	a2,1208(t2)
    80001fb0:	fff00093          	li	ra,-1
    80001fb4:	00c08463          	beq	ra,a2,80001fbc <inst_171>
    80001fb8:	86cfe06f          	j	80000024 <rvtest_error>

0000000080001fbc <inst_171>:
    80001fbc:	00100513          	li	a0,1
    80001fc0:	02451513          	slli	a0,a0,0x24
    80001fc4:	fff54513          	not	a0,a0
    80001fc8:	00100593          	li	a1,1
    80001fcc:	02d59593          	slli	a1,a1,0x2d
    80001fd0:	00b5063b          	addw	a2,a0,a1
    80001fd4:	4cc3b023          	sd	a2,1216(t2)
    80001fd8:	fff00093          	li	ra,-1
    80001fdc:	00c08463          	beq	ra,a2,80001fe4 <inst_172>
    80001fe0:	844fe06f          	j	80000024 <rvtest_error>

0000000080001fe4 <inst_172>:
    80001fe4:	00100513          	li	a0,1
    80001fe8:	02651513          	slli	a0,a0,0x26
    80001fec:	fff54513          	not	a0,a0
    80001ff0:	04000593          	li	a1,64
    80001ff4:	00b5063b          	addw	a2,a0,a1
    80001ff8:	4cc3b423          	sd	a2,1224(t2)
    80001ffc:	03f00093          	li	ra,63
    80002000:	00c08463          	beq	ra,a2,80002008 <inst_173>
    80002004:	820fe06f          	j	80000024 <rvtest_error>

0000000080002008 <inst_173>:
    80002008:	00100513          	li	a0,1
    8000200c:	02851513          	slli	a0,a0,0x28
    80002010:	fff54513          	not	a0,a0
    80002014:	00100593          	li	a1,1
    80002018:	03e59593          	slli	a1,a1,0x3e
    8000201c:	fff5c593          	not	a1,a1
    80002020:	00b5063b          	addw	a2,a0,a1
    80002024:	4cc3b823          	sd	a2,1232(t2)
    80002028:	ffe00093          	li	ra,-2
    8000202c:	00c08463          	beq	ra,a2,80002034 <inst_174>
    80002030:	ff5fd06f          	j	80000024 <rvtest_error>

0000000080002034 <inst_174>:
    80002034:	00100513          	li	a0,1
    80002038:	02a51513          	slli	a0,a0,0x2a
    8000203c:	fff54513          	not	a0,a0
    80002040:	00100593          	li	a1,1
    80002044:	00c59593          	slli	a1,a1,0xc
    80002048:	00b5063b          	addw	a2,a0,a1
    8000204c:	4cc3bc23          	sd	a2,1240(t2)
    80002050:	000010b7          	lui	ra,0x1
    80002054:	fff0809b          	addiw	ra,ra,-1 # fff <offset+0xb67>
    80002058:	00c08463          	beq	ra,a2,80002060 <inst_175>
    8000205c:	fc9fd06f          	j	80000024 <rvtest_error>

0000000080002060 <inst_175>:
    80002060:	00100513          	li	a0,1
    80002064:	02c51513          	slli	a0,a0,0x2c
    80002068:	fff54513          	not	a0,a0
    8000206c:	00100593          	li	a1,1
    80002070:	03559593          	slli	a1,a1,0x35
    80002074:	fff5c593          	not	a1,a1
    80002078:	00b5063b          	addw	a2,a0,a1
    8000207c:	4ec3b023          	sd	a2,1248(t2)
    80002080:	ffe00093          	li	ra,-2
    80002084:	00c08463          	beq	ra,a2,8000208c <inst_176>
    80002088:	f9dfd06f          	j	80000024 <rvtest_error>

000000008000208c <inst_176>:
    8000208c:	00100513          	li	a0,1
    80002090:	02d51513          	slli	a0,a0,0x2d
    80002094:	fff54513          	not	a0,a0
    80002098:	00100593          	li	a1,1
    8000209c:	03359593          	slli	a1,a1,0x33
    800020a0:	00b5063b          	addw	a2,a0,a1
    800020a4:	4ec3b423          	sd	a2,1256(t2)
    800020a8:	fff00093          	li	ra,-1
    800020ac:	00c08463          	beq	ra,a2,800020b4 <inst_177>
    800020b0:	f75fd06f          	j	80000024 <rvtest_error>

00000000800020b4 <inst_177>:
    800020b4:	00100513          	li	a0,1
    800020b8:	03051513          	slli	a0,a0,0x30
    800020bc:	fff54513          	not	a0,a0
    800020c0:	00300593          	li	a1,3
    800020c4:	00b5063b          	addw	a2,a0,a1
    800020c8:	4ec3b823          	sd	a2,1264(t2)
    800020cc:	00200093          	li	ra,2
    800020d0:	00c08463          	beq	ra,a2,800020d8 <inst_178>
    800020d4:	f51fd06f          	j	80000024 <rvtest_error>

00000000800020d8 <inst_178>:
    800020d8:	00100513          	li	a0,1
    800020dc:	03151513          	slli	a0,a0,0x31
    800020e0:	fff54513          	not	a0,a0
    800020e4:	00100593          	li	a1,1
    800020e8:	03659593          	slli	a1,a1,0x36
    800020ec:	00b5063b          	addw	a2,a0,a1
    800020f0:	4ec3bc23          	sd	a2,1272(t2)
    800020f4:	fff00093          	li	ra,-1
    800020f8:	00c08463          	beq	ra,a2,80002100 <inst_179>
    800020fc:	f29fd06f          	j	80000024 <rvtest_error>

0000000080002100 <inst_179>:
    80002100:	00100513          	li	a0,1
    80002104:	03251513          	slli	a0,a0,0x32
    80002108:	fff54513          	not	a0,a0
    8000210c:	00100593          	li	a1,1
    80002110:	02a59593          	slli	a1,a1,0x2a
    80002114:	00b5063b          	addw	a2,a0,a1
    80002118:	50c3b023          	sd	a2,1280(t2)
    8000211c:	fff00093          	li	ra,-1
    80002120:	00c08463          	beq	ra,a2,80002128 <inst_180>
    80002124:	f01fd06f          	j	80000024 <rvtest_error>

0000000080002128 <inst_180>:
    80002128:	00100513          	li	a0,1
    8000212c:	03351513          	slli	a0,a0,0x33
    80002130:	fff54513          	not	a0,a0
    80002134:	00100593          	li	a1,1
    80002138:	03659593          	slli	a1,a1,0x36
    8000213c:	fff5c593          	not	a1,a1
    80002140:	00b5063b          	addw	a2,a0,a1
    80002144:	50c3b423          	sd	a2,1288(t2)
    80002148:	ffe00093          	li	ra,-2
    8000214c:	00c08463          	beq	ra,a2,80002154 <inst_181>
    80002150:	ed5fd06f          	j	80000024 <rvtest_error>

0000000080002154 <inst_181>:
    80002154:	00100513          	li	a0,1
    80002158:	03451513          	slli	a0,a0,0x34
    8000215c:	fff54513          	not	a0,a0
    80002160:	00100593          	li	a1,1
    80002164:	01959593          	slli	a1,a1,0x19
    80002168:	00b5063b          	addw	a2,a0,a1
    8000216c:	50c3b823          	sd	a2,1296(t2)
    80002170:	020000b7          	lui	ra,0x2000
    80002174:	fff0809b          	addiw	ra,ra,-1 # 1ffffff <offset+0x1fffb67>
    80002178:	00c08463          	beq	ra,a2,80002180 <inst_182>
    8000217c:	ea9fd06f          	j	80000024 <rvtest_error>

0000000080002180 <inst_182>:
    80002180:	00100513          	li	a0,1
    80002184:	03651513          	slli	a0,a0,0x36
    80002188:	fff54513          	not	a0,a0
    8000218c:	00100593          	li	a1,1
    80002190:	02659593          	slli	a1,a1,0x26
    80002194:	fff5c593          	not	a1,a1
    80002198:	00b5063b          	addw	a2,a0,a1
    8000219c:	50c3bc23          	sd	a2,1304(t2)
    800021a0:	ffe00093          	li	ra,-2
    800021a4:	00c08463          	beq	ra,a2,800021ac <inst_183>
    800021a8:	e7dfd06f          	j	80000024 <rvtest_error>

00000000800021ac <inst_183>:
    800021ac:	00100513          	li	a0,1
    800021b0:	03751513          	slli	a0,a0,0x37
    800021b4:	fff54513          	not	a0,a0
    800021b8:	ff700593          	li	a1,-9
    800021bc:	00b5063b          	addw	a2,a0,a1
    800021c0:	52c3b023          	sd	a2,1312(t2)
    800021c4:	ff600093          	li	ra,-10
    800021c8:	00c08463          	beq	ra,a2,800021d0 <inst_184>
    800021cc:	e59fd06f          	j	80000024 <rvtest_error>

00000000800021d0 <inst_184>:
    800021d0:	00100513          	li	a0,1
    800021d4:	03851513          	slli	a0,a0,0x38
    800021d8:	fff54513          	not	a0,a0
    800021dc:	aaaab5b7          	lui	a1,0xaaaab
    800021e0:	aaa58593          	addi	a1,a1,-1366 # ffffffffaaaaaaaa <absimm+0xfffffffeefd9cfda>
    800021e4:	00b59593          	slli	a1,a1,0xb
    800021e8:	55558593          	addi	a1,a1,1365
    800021ec:	00b59593          	slli	a1,a1,0xb
    800021f0:	2aa58593          	addi	a1,a1,682
    800021f4:	00a59593          	slli	a1,a1,0xa
    800021f8:	2aa58593          	addi	a1,a1,682
    800021fc:	00b5063b          	addw	a2,a0,a1
    80002200:	52c3b423          	sd	a2,1320(t2)
    80002204:	aaaab0b7          	lui	ra,0xaaaab
    80002208:	aa90809b          	addiw	ra,ra,-1367 # ffffffffaaaaaaa9 <absimm+0xfffffffeefd9cfd9>
    8000220c:	00c08463          	beq	ra,a2,80002214 <inst_185>
    80002210:	e15fd06f          	j	80000024 <rvtest_error>

0000000080002214 <inst_185>:
    80002214:	00100513          	li	a0,1
    80002218:	03951513          	slli	a0,a0,0x39
    8000221c:	fff54513          	not	a0,a0
    80002220:	00100593          	li	a1,1
    80002224:	01e59593          	slli	a1,a1,0x1e
    80002228:	00b5063b          	addw	a2,a0,a1
    8000222c:	52c3b823          	sd	a2,1328(t2)
    80002230:	400000b7          	lui	ra,0x40000
    80002234:	fff0809b          	addiw	ra,ra,-1 # 3fffffff <absimmsh+0x3452f252>
    80002238:	00c08463          	beq	ra,a2,80002240 <inst_186>
    8000223c:	de9fd06f          	j	80000024 <rvtest_error>

0000000080002240 <inst_186>:
    80002240:	00100513          	li	a0,1
    80002244:	03a51513          	slli	a0,a0,0x3a
    80002248:	fff54513          	not	a0,a0
    8000224c:	00100593          	li	a1,1
    80002250:	02e59593          	slli	a1,a1,0x2e
    80002254:	fff5c593          	not	a1,a1
    80002258:	00b5063b          	addw	a2,a0,a1
    8000225c:	52c3bc23          	sd	a2,1336(t2)
    80002260:	ffe00093          	li	ra,-2
    80002264:	00c08463          	beq	ra,a2,8000226c <inst_187>
    80002268:	dbdfd06f          	j	80000024 <rvtest_error>

000000008000226c <inst_187>:
    8000226c:	00100513          	li	a0,1
    80002270:	03d51513          	slli	a0,a0,0x3d
    80002274:	fff54513          	not	a0,a0
    80002278:	00400593          	li	a1,4
    8000227c:	00b5063b          	addw	a2,a0,a1
    80002280:	54c3b023          	sd	a2,1344(t2)
    80002284:	00300093          	li	ra,3
    80002288:	00c08463          	beq	ra,a2,80002290 <inst_188>
    8000228c:	d99fd06f          	j	80000024 <rvtest_error>

0000000080002290 <inst_188>:
    80002290:	00100513          	li	a0,1
    80002294:	03e51513          	slli	a0,a0,0x3e
    80002298:	fff54513          	not	a0,a0
    8000229c:	00600593          	li	a1,6
    800022a0:	00b5063b          	addw	a2,a0,a1
    800022a4:	54c3b423          	sd	a2,1352(t2)
    800022a8:	00500093          	li	ra,5
    800022ac:	00c08463          	beq	ra,a2,800022b4 <inst_189>
    800022b0:	d75fd06f          	j	80000024 <rvtest_error>

00000000800022b4 <inst_189>:
    800022b4:	55555537          	lui	a0,0x55555
    800022b8:	55550513          	addi	a0,a0,1365 # 55555555 <absimmsh+0x49a847a8>
    800022bc:	00b51513          	slli	a0,a0,0xb
    800022c0:	2aa50513          	addi	a0,a0,682
    800022c4:	00b51513          	slli	a0,a0,0xb
    800022c8:	55550513          	addi	a0,a0,1365
    800022cc:	00a51513          	slli	a0,a0,0xa
    800022d0:	15550513          	addi	a0,a0,341
    800022d4:	00100593          	li	a1,1
    800022d8:	02f59593          	slli	a1,a1,0x2f
    800022dc:	fff5c593          	not	a1,a1
    800022e0:	00b5063b          	addw	a2,a0,a1
    800022e4:	54c3b823          	sd	a2,1360(t2)
    800022e8:	555550b7          	lui	ra,0x55555
    800022ec:	5540809b          	addiw	ra,ra,1364 # 55555554 <absimmsh+0x49a847a7>
    800022f0:	00c08463          	beq	ra,a2,800022f8 <inst_190>
    800022f4:	d31fd06f          	j	80000024 <rvtest_error>

00000000800022f8 <inst_190>:
    800022f8:	00300513          	li	a0,3
    800022fc:	00300593          	li	a1,3
    80002300:	00b5063b          	addw	a2,a0,a1
    80002304:	54c3bc23          	sd	a2,1368(t2)
    80002308:	00600093          	li	ra,6
    8000230c:	00c08463          	beq	ra,a2,80002314 <inst_191>
    80002310:	d15fd06f          	j	80000024 <rvtest_error>

0000000080002314 <inst_191>:
    80002314:	00300513          	li	a0,3
    80002318:	555555b7          	lui	a1,0x55555
    8000231c:	55558593          	addi	a1,a1,1365 # 55555555 <absimmsh+0x49a847a8>
    80002320:	00b59593          	slli	a1,a1,0xb
    80002324:	2aa58593          	addi	a1,a1,682
    80002328:	00b59593          	slli	a1,a1,0xb
    8000232c:	55558593          	addi	a1,a1,1365
    80002330:	00a59593          	slli	a1,a1,0xa
    80002334:	15558593          	addi	a1,a1,341
    80002338:	00b5063b          	addw	a2,a0,a1
    8000233c:	56c3b023          	sd	a2,1376(t2)
    80002340:	555550b7          	lui	ra,0x55555
    80002344:	5580809b          	addiw	ra,ra,1368 # 55555558 <absimmsh+0x49a847ab>
    80002348:	00c08463          	beq	ra,a2,80002350 <inst_192>
    8000234c:	cd9fd06f          	j	80000024 <rvtest_error>

0000000080002350 <inst_192>:
    80002350:	00300513          	li	a0,3
    80002354:	aaaab5b7          	lui	a1,0xaaaab
    80002358:	aaa58593          	addi	a1,a1,-1366 # ffffffffaaaaaaaa <absimm+0xfffffffeefd9cfda>
    8000235c:	00b59593          	slli	a1,a1,0xb
    80002360:	55558593          	addi	a1,a1,1365
    80002364:	00b59593          	slli	a1,a1,0xb
    80002368:	2aa58593          	addi	a1,a1,682
    8000236c:	00a59593          	slli	a1,a1,0xa
    80002370:	2aa58593          	addi	a1,a1,682
    80002374:	00b5063b          	addw	a2,a0,a1
    80002378:	56c3b423          	sd	a2,1384(t2)
    8000237c:	aaaab0b7          	lui	ra,0xaaaab
    80002380:	aad0809b          	addiw	ra,ra,-1363 # ffffffffaaaaaaad <absimm+0xfffffffeefd9cfdd>
    80002384:	00c08463          	beq	ra,a2,8000238c <inst_193>
    80002388:	c9dfd06f          	j	80000024 <rvtest_error>

000000008000238c <inst_193>:
    8000238c:	00300513          	li	a0,3
    80002390:	00500593          	li	a1,5
    80002394:	00b5063b          	addw	a2,a0,a1
    80002398:	56c3b823          	sd	a2,1392(t2)
    8000239c:	00800093          	li	ra,8
    800023a0:	00c08463          	beq	ra,a2,800023a8 <inst_194>
    800023a4:	c81fd06f          	j	80000024 <rvtest_error>

00000000800023a8 <inst_194>:
    800023a8:	00300513          	li	a0,3
    800023ac:	333335b7          	lui	a1,0x33333
    800023b0:	33358593          	addi	a1,a1,819 # 33333333 <absimmsh+0x27862586>
    800023b4:	00b59593          	slli	a1,a1,0xb
    800023b8:	19958593          	addi	a1,a1,409
    800023bc:	00b59593          	slli	a1,a1,0xb
    800023c0:	4cc58593          	addi	a1,a1,1228
    800023c4:	00a59593          	slli	a1,a1,0xa
    800023c8:	33358593          	addi	a1,a1,819
    800023cc:	00b5063b          	addw	a2,a0,a1
    800023d0:	56c3bc23          	sd	a2,1400(t2)
    800023d4:	333330b7          	lui	ra,0x33333
    800023d8:	3360809b          	addiw	ra,ra,822 # 33333336 <absimmsh+0x27862589>
    800023dc:	00c08463          	beq	ra,a2,800023e4 <inst_195>
    800023e0:	c45fd06f          	j	80000024 <rvtest_error>

00000000800023e4 <inst_195>:
    800023e4:	00300513          	li	a0,3
    800023e8:	666665b7          	lui	a1,0x66666
    800023ec:	66658593          	addi	a1,a1,1638 # 66666666 <absimmsh+0x5ab958b9>
    800023f0:	00b59593          	slli	a1,a1,0xb
    800023f4:	33358593          	addi	a1,a1,819
    800023f8:	00b59593          	slli	a1,a1,0xb
    800023fc:	19958593          	addi	a1,a1,409
    80002400:	00a59593          	slli	a1,a1,0xa
    80002404:	26658593          	addi	a1,a1,614
    80002408:	00b5063b          	addw	a2,a0,a1
    8000240c:	58c3b023          	sd	a2,1408(t2)
    80002410:	666660b7          	lui	ra,0x66666
    80002414:	6690809b          	addiw	ra,ra,1641 # 66666669 <absimmsh+0x5ab958bc>
    80002418:	00c08463          	beq	ra,a2,80002420 <inst_196>
    8000241c:	c09fd06f          	j	80000024 <rvtest_error>

0000000080002420 <inst_196>:
    80002420:	00300513          	li	a0,3
    80002424:	000005b7          	lui	a1,0x0
    80002428:	fff58593          	addi	a1,a1,-1
    8000242c:	00b59593          	slli	a1,a1,0xb
    80002430:	25758593          	addi	a1,a1,599
    80002434:	00b59593          	slli	a1,a1,0xb
    80002438:	6c358593          	addi	a1,a1,1731
    8000243c:	00a59593          	slli	a1,a1,0xa
    80002440:	0cd58593          	addi	a1,a1,205
    80002444:	00b5063b          	addw	a2,a0,a1
    80002448:	58c3b423          	sd	a2,1416(t2)
    8000244c:	4afb10b7          	lui	ra,0x4afb1
    80002450:	cd00809b          	addiw	ra,ra,-816 # 4afb0cd0 <absimmsh+0x3f4dff23>
    80002454:	00c08463          	beq	ra,a2,8000245c <inst_197>
    80002458:	bcdfd06f          	j	80000024 <rvtest_error>

000000008000245c <inst_197>:
    8000245c:	00300513          	li	a0,3
    80002460:	000005b7          	lui	a1,0x0
    80002464:	00058593          	mv	a1,a1
    80002468:	00b59593          	slli	a1,a1,0xb
    8000246c:	5a858593          	addi	a1,a1,1448 # 5a8 <offset+0x110>
    80002470:	00b59593          	slli	a1,a1,0xb
    80002474:	13c58593          	addi	a1,a1,316
    80002478:	00a59593          	slli	a1,a1,0xa
    8000247c:	33358593          	addi	a1,a1,819
    80002480:	00b5063b          	addw	a2,a0,a1
    80002484:	58c3b823          	sd	a2,1424(t2)
    80002488:	b504f0b7          	lui	ra,0xb504f
    8000248c:	3360809b          	addiw	ra,ra,822 # ffffffffb504f336 <absimm+0xfffffffefa341866>
    80002490:	00c08463          	beq	ra,a2,80002498 <inst_198>
    80002494:	b91fd06f          	j	80000024 <rvtest_error>

0000000080002498 <inst_198>:
    80002498:	00300513          	li	a0,3
    8000249c:	00200593          	li	a1,2
    800024a0:	00b5063b          	addw	a2,a0,a1
    800024a4:	58c3bc23          	sd	a2,1432(t2)
    800024a8:	00500093          	li	ra,5
    800024ac:	00c08463          	beq	ra,a2,800024b4 <inst_199>
    800024b0:	b75fd06f          	j	80000024 <rvtest_error>

00000000800024b4 <inst_199>:
    800024b4:	00300513          	li	a0,3
    800024b8:	555555b7          	lui	a1,0x55555
    800024bc:	55558593          	addi	a1,a1,1365 # 55555555 <absimmsh+0x49a847a8>
    800024c0:	00b59593          	slli	a1,a1,0xb
    800024c4:	2aa58593          	addi	a1,a1,682
    800024c8:	00b59593          	slli	a1,a1,0xb
    800024cc:	55558593          	addi	a1,a1,1365
    800024d0:	00a59593          	slli	a1,a1,0xa
    800024d4:	15458593          	addi	a1,a1,340
    800024d8:	00b5063b          	addw	a2,a0,a1
    800024dc:	5ac3b023          	sd	a2,1440(t2)
    800024e0:	555550b7          	lui	ra,0x55555
    800024e4:	5570809b          	addiw	ra,ra,1367 # 55555557 <absimmsh+0x49a847aa>
    800024e8:	00c08463          	beq	ra,a2,800024f0 <inst_200>
    800024ec:	b39fd06f          	j	80000024 <rvtest_error>

00000000800024f0 <inst_200>:
    800024f0:	00300513          	li	a0,3
    800024f4:	00000593          	li	a1,0
    800024f8:	00b5063b          	addw	a2,a0,a1
    800024fc:	5ac3b423          	sd	a2,1448(t2)
    80002500:	00300093          	li	ra,3
    80002504:	00c08463          	beq	ra,a2,8000250c <inst_201>
    80002508:	b1dfd06f          	j	80000024 <rvtest_error>

000000008000250c <inst_201>:
    8000250c:	00300513          	li	a0,3
    80002510:	00400593          	li	a1,4
    80002514:	00b5063b          	addw	a2,a0,a1
    80002518:	5ac3b823          	sd	a2,1456(t2)
    8000251c:	00700093          	li	ra,7
    80002520:	00c08463          	beq	ra,a2,80002528 <inst_202>
    80002524:	b01fd06f          	j	80000024 <rvtest_error>

0000000080002528 <inst_202>:
    80002528:	00300513          	li	a0,3
    8000252c:	333335b7          	lui	a1,0x33333
    80002530:	33358593          	addi	a1,a1,819 # 33333333 <absimmsh+0x27862586>
    80002534:	00b59593          	slli	a1,a1,0xb
    80002538:	19958593          	addi	a1,a1,409
    8000253c:	00b59593          	slli	a1,a1,0xb
    80002540:	4cc58593          	addi	a1,a1,1228
    80002544:	00a59593          	slli	a1,a1,0xa
    80002548:	33258593          	addi	a1,a1,818
    8000254c:	00b5063b          	addw	a2,a0,a1
    80002550:	5ac3bc23          	sd	a2,1464(t2)
    80002554:	333330b7          	lui	ra,0x33333
    80002558:	3350809b          	addiw	ra,ra,821 # 33333335 <absimmsh+0x27862588>
    8000255c:	00c08463          	beq	ra,a2,80002564 <inst_203>
    80002560:	ac5fd06f          	j	80000024 <rvtest_error>

0000000080002564 <inst_203>:
    80002564:	00300513          	li	a0,3
    80002568:	666665b7          	lui	a1,0x66666
    8000256c:	66658593          	addi	a1,a1,1638 # 66666666 <absimmsh+0x5ab958b9>
    80002570:	00b59593          	slli	a1,a1,0xb
    80002574:	33358593          	addi	a1,a1,819
    80002578:	00b59593          	slli	a1,a1,0xb
    8000257c:	19958593          	addi	a1,a1,409
    80002580:	00a59593          	slli	a1,a1,0xa
    80002584:	26558593          	addi	a1,a1,613
    80002588:	00b5063b          	addw	a2,a0,a1
    8000258c:	5cc3b023          	sd	a2,1472(t2)
    80002590:	666660b7          	lui	ra,0x66666
    80002594:	6680809b          	addiw	ra,ra,1640 # 66666668 <absimmsh+0x5ab958bb>
    80002598:	00c08463          	beq	ra,a2,800025a0 <inst_204>
    8000259c:	a89fd06f          	j	80000024 <rvtest_error>

00000000800025a0 <inst_204>:
    800025a0:	00300513          	li	a0,3
    800025a4:	000005b7          	lui	a1,0x0
    800025a8:	00058593          	mv	a1,a1
    800025ac:	00b59593          	slli	a1,a1,0xb
    800025b0:	5a858593          	addi	a1,a1,1448 # 5a8 <offset+0x110>
    800025b4:	00b59593          	slli	a1,a1,0xb
    800025b8:	13c58593          	addi	a1,a1,316
    800025bc:	00a59593          	slli	a1,a1,0xa
    800025c0:	33258593          	addi	a1,a1,818
    800025c4:	00b5063b          	addw	a2,a0,a1
    800025c8:	5cc3b423          	sd	a2,1480(t2)
    800025cc:	b504f0b7          	lui	ra,0xb504f
    800025d0:	3350809b          	addiw	ra,ra,821 # ffffffffb504f335 <absimm+0xfffffffefa341865>
    800025d4:	00c08463          	beq	ra,a2,800025dc <inst_205>
    800025d8:	a4dfd06f          	j	80000024 <rvtest_error>

00000000800025dc <inst_205>:
    800025dc:	00300513          	li	a0,3
    800025e0:	555555b7          	lui	a1,0x55555
    800025e4:	55558593          	addi	a1,a1,1365 # 55555555 <absimmsh+0x49a847a8>
    800025e8:	00b59593          	slli	a1,a1,0xb
    800025ec:	2aa58593          	addi	a1,a1,682
    800025f0:	00b59593          	slli	a1,a1,0xb
    800025f4:	55558593          	addi	a1,a1,1365
    800025f8:	00a59593          	slli	a1,a1,0xa
    800025fc:	15658593          	addi	a1,a1,342
    80002600:	00b5063b          	addw	a2,a0,a1
    80002604:	5cc3b823          	sd	a2,1488(t2)
    80002608:	555550b7          	lui	ra,0x55555
    8000260c:	5590809b          	addiw	ra,ra,1369 # 55555559 <absimmsh+0x49a847ac>
    80002610:	00c08463          	beq	ra,a2,80002618 <inst_206>
    80002614:	a11fd06f          	j	80000024 <rvtest_error>

0000000080002618 <inst_206>:
    80002618:	00300513          	li	a0,3
    8000261c:	aaaab5b7          	lui	a1,0xaaaab
    80002620:	aaa58593          	addi	a1,a1,-1366 # ffffffffaaaaaaaa <absimm+0xfffffffeefd9cfda>
    80002624:	00b59593          	slli	a1,a1,0xb
    80002628:	55558593          	addi	a1,a1,1365
    8000262c:	00b59593          	slli	a1,a1,0xb
    80002630:	2aa58593          	addi	a1,a1,682
    80002634:	00a59593          	slli	a1,a1,0xa
    80002638:	2ab58593          	addi	a1,a1,683
    8000263c:	00b5063b          	addw	a2,a0,a1
    80002640:	5cc3bc23          	sd	a2,1496(t2)
    80002644:	aaaab0b7          	lui	ra,0xaaaab
    80002648:	aae0809b          	addiw	ra,ra,-1362 # ffffffffaaaaaaae <absimm+0xfffffffeefd9cfde>
    8000264c:	00c08463          	beq	ra,a2,80002654 <inst_207>
    80002650:	9d5fd06f          	j	80000024 <rvtest_error>

0000000080002654 <inst_207>:
    80002654:	00300513          	li	a0,3
    80002658:	00600593          	li	a1,6
    8000265c:	00b5063b          	addw	a2,a0,a1
    80002660:	5ec3b023          	sd	a2,1504(t2)
    80002664:	00900093          	li	ra,9
    80002668:	00c08463          	beq	ra,a2,80002670 <inst_208>
    8000266c:	9b9fd06f          	j	80000024 <rvtest_error>

0000000080002670 <inst_208>:
    80002670:	00300513          	li	a0,3
    80002674:	333335b7          	lui	a1,0x33333
    80002678:	33358593          	addi	a1,a1,819 # 33333333 <absimmsh+0x27862586>
    8000267c:	00b59593          	slli	a1,a1,0xb
    80002680:	19958593          	addi	a1,a1,409
    80002684:	00b59593          	slli	a1,a1,0xb
    80002688:	4cc58593          	addi	a1,a1,1228
    8000268c:	00a59593          	slli	a1,a1,0xa
    80002690:	33458593          	addi	a1,a1,820
    80002694:	00b5063b          	addw	a2,a0,a1
    80002698:	5ec3b423          	sd	a2,1512(t2)
    8000269c:	333330b7          	lui	ra,0x33333
    800026a0:	3370809b          	addiw	ra,ra,823 # 33333337 <absimmsh+0x2786258a>
    800026a4:	00c08463          	beq	ra,a2,800026ac <inst_209>
    800026a8:	97dfd06f          	j	80000024 <rvtest_error>

00000000800026ac <inst_209>:
    800026ac:	00300513          	li	a0,3
    800026b0:	666665b7          	lui	a1,0x66666
    800026b4:	66658593          	addi	a1,a1,1638 # 66666666 <absimmsh+0x5ab958b9>
    800026b8:	00b59593          	slli	a1,a1,0xb
    800026bc:	33358593          	addi	a1,a1,819
    800026c0:	00b59593          	slli	a1,a1,0xb
    800026c4:	19958593          	addi	a1,a1,409
    800026c8:	00a59593          	slli	a1,a1,0xa
    800026cc:	26758593          	addi	a1,a1,615
    800026d0:	00b5063b          	addw	a2,a0,a1
    800026d4:	5ec3b823          	sd	a2,1520(t2)
    800026d8:	666660b7          	lui	ra,0x66666
    800026dc:	66a0809b          	addiw	ra,ra,1642 # 6666666a <absimmsh+0x5ab958bd>
    800026e0:	00c08463          	beq	ra,a2,800026e8 <inst_210>
    800026e4:	941fd06f          	j	80000024 <rvtest_error>

00000000800026e8 <inst_210>:
    800026e8:	00300513          	li	a0,3
    800026ec:	000005b7          	lui	a1,0x0
    800026f0:	fff58593          	addi	a1,a1,-1
    800026f4:	00b59593          	slli	a1,a1,0xb
    800026f8:	25758593          	addi	a1,a1,599
    800026fc:	00b59593          	slli	a1,a1,0xb
    80002700:	6c358593          	addi	a1,a1,1731
    80002704:	00a59593          	slli	a1,a1,0xa
    80002708:	0ce58593          	addi	a1,a1,206
    8000270c:	00b5063b          	addw	a2,a0,a1
    80002710:	5ec3bc23          	sd	a2,1528(t2)
    80002714:	4afb10b7          	lui	ra,0x4afb1
    80002718:	cd10809b          	addiw	ra,ra,-815 # 4afb0cd1 <absimmsh+0x3f4dff24>
    8000271c:	00c08463          	beq	ra,a2,80002724 <inst_211>
    80002720:	905fd06f          	j	80000024 <rvtest_error>

0000000080002724 <inst_211>:
    80002724:	00300513          	li	a0,3
    80002728:	000005b7          	lui	a1,0x0
    8000272c:	00058593          	mv	a1,a1
    80002730:	00b59593          	slli	a1,a1,0xb
    80002734:	5a858593          	addi	a1,a1,1448 # 5a8 <offset+0x110>
    80002738:	00b59593          	slli	a1,a1,0xb
    8000273c:	13c58593          	addi	a1,a1,316
    80002740:	00a59593          	slli	a1,a1,0xa
    80002744:	33458593          	addi	a1,a1,820
    80002748:	00b5063b          	addw	a2,a0,a1
    8000274c:	60c3b023          	sd	a2,1536(t2)
    80002750:	b504f0b7          	lui	ra,0xb504f
    80002754:	3370809b          	addiw	ra,ra,823 # ffffffffb504f337 <absimm+0xfffffffefa341867>
    80002758:	00c08463          	beq	ra,a2,80002760 <inst_212>
    8000275c:	8c9fd06f          	j	80000024 <rvtest_error>

0000000080002760 <inst_212>:
    80002760:	55555537          	lui	a0,0x55555
    80002764:	55550513          	addi	a0,a0,1365 # 55555555 <absimmsh+0x49a847a8>
    80002768:	00b51513          	slli	a0,a0,0xb
    8000276c:	2aa50513          	addi	a0,a0,682
    80002770:	00b51513          	slli	a0,a0,0xb
    80002774:	55550513          	addi	a0,a0,1365
    80002778:	00a51513          	slli	a0,a0,0xa
    8000277c:	15550513          	addi	a0,a0,341
    80002780:	00300593          	li	a1,3
    80002784:	00b5063b          	addw	a2,a0,a1
    80002788:	60c3b423          	sd	a2,1544(t2)
    8000278c:	555550b7          	lui	ra,0x55555
    80002790:	5580809b          	addiw	ra,ra,1368 # 55555558 <absimmsh+0x49a847ab>
    80002794:	00c08463          	beq	ra,a2,8000279c <inst_213>
    80002798:	88dfd06f          	j	80000024 <rvtest_error>

000000008000279c <inst_213>:
    8000279c:	55555537          	lui	a0,0x55555
    800027a0:	55550513          	addi	a0,a0,1365 # 55555555 <absimmsh+0x49a847a8>
    800027a4:	00b51513          	slli	a0,a0,0xb
    800027a8:	2aa50513          	addi	a0,a0,682
    800027ac:	00b51513          	slli	a0,a0,0xb
    800027b0:	55550513          	addi	a0,a0,1365
    800027b4:	00a51513          	slli	a0,a0,0xa
    800027b8:	15550513          	addi	a0,a0,341
    800027bc:	555555b7          	lui	a1,0x55555
    800027c0:	55558593          	addi	a1,a1,1365 # 55555555 <absimmsh+0x49a847a8>
    800027c4:	00b59593          	slli	a1,a1,0xb
    800027c8:	2aa58593          	addi	a1,a1,682
    800027cc:	00b59593          	slli	a1,a1,0xb
    800027d0:	55558593          	addi	a1,a1,1365
    800027d4:	00a59593          	slli	a1,a1,0xa
    800027d8:	15558593          	addi	a1,a1,341
    800027dc:	00b5063b          	addw	a2,a0,a1
    800027e0:	60c3b823          	sd	a2,1552(t2)
    800027e4:	aaaab0b7          	lui	ra,0xaaaab
    800027e8:	aaa0809b          	addiw	ra,ra,-1366 # ffffffffaaaaaaaa <absimm+0xfffffffeefd9cfda>
    800027ec:	00c08463          	beq	ra,a2,800027f4 <inst_214>
    800027f0:	835fd06f          	j	80000024 <rvtest_error>

00000000800027f4 <inst_214>:
    800027f4:	55555537          	lui	a0,0x55555
    800027f8:	55550513          	addi	a0,a0,1365 # 55555555 <absimmsh+0x49a847a8>
    800027fc:	00b51513          	slli	a0,a0,0xb
    80002800:	2aa50513          	addi	a0,a0,682
    80002804:	00b51513          	slli	a0,a0,0xb
    80002808:	55550513          	addi	a0,a0,1365
    8000280c:	00a51513          	slli	a0,a0,0xa
    80002810:	15550513          	addi	a0,a0,341
    80002814:	aaaab5b7          	lui	a1,0xaaaab
    80002818:	aaa58593          	addi	a1,a1,-1366 # ffffffffaaaaaaaa <absimm+0xfffffffeefd9cfda>
    8000281c:	00b59593          	slli	a1,a1,0xb
    80002820:	55558593          	addi	a1,a1,1365
    80002824:	00b59593          	slli	a1,a1,0xb
    80002828:	2aa58593          	addi	a1,a1,682
    8000282c:	00a59593          	slli	a1,a1,0xa
    80002830:	2aa58593          	addi	a1,a1,682
    80002834:	00b5063b          	addw	a2,a0,a1
    80002838:	60c3bc23          	sd	a2,1560(t2)
    8000283c:	fff00093          	li	ra,-1
    80002840:	00c08463          	beq	ra,a2,80002848 <inst_215>
    80002844:	fe0fd06f          	j	80000024 <rvtest_error>

0000000080002848 <inst_215>:
    80002848:	55555537          	lui	a0,0x55555
    8000284c:	55550513          	addi	a0,a0,1365 # 55555555 <absimmsh+0x49a847a8>
    80002850:	00b51513          	slli	a0,a0,0xb
    80002854:	2aa50513          	addi	a0,a0,682
    80002858:	00b51513          	slli	a0,a0,0xb
    8000285c:	55550513          	addi	a0,a0,1365
    80002860:	00a51513          	slli	a0,a0,0xa
    80002864:	15550513          	addi	a0,a0,341
    80002868:	00500593          	li	a1,5
    8000286c:	00b5063b          	addw	a2,a0,a1
    80002870:	62c3b023          	sd	a2,1568(t2)
    80002874:	555550b7          	lui	ra,0x55555
    80002878:	55a0809b          	addiw	ra,ra,1370 # 5555555a <absimmsh+0x49a847ad>
    8000287c:	00c08463          	beq	ra,a2,80002884 <inst_216>
    80002880:	fa4fd06f          	j	80000024 <rvtest_error>

0000000080002884 <inst_216>:
    80002884:	55555537          	lui	a0,0x55555
    80002888:	55550513          	addi	a0,a0,1365 # 55555555 <absimmsh+0x49a847a8>
    8000288c:	00b51513          	slli	a0,a0,0xb
    80002890:	2aa50513          	addi	a0,a0,682
    80002894:	00b51513          	slli	a0,a0,0xb
    80002898:	55550513          	addi	a0,a0,1365
    8000289c:	00a51513          	slli	a0,a0,0xa
    800028a0:	15550513          	addi	a0,a0,341
    800028a4:	333335b7          	lui	a1,0x33333
    800028a8:	33358593          	addi	a1,a1,819 # 33333333 <absimmsh+0x27862586>
    800028ac:	00b59593          	slli	a1,a1,0xb
    800028b0:	19958593          	addi	a1,a1,409
    800028b4:	00b59593          	slli	a1,a1,0xb
    800028b8:	4cc58593          	addi	a1,a1,1228
    800028bc:	00a59593          	slli	a1,a1,0xa
    800028c0:	33358593          	addi	a1,a1,819
    800028c4:	00b5063b          	addw	a2,a0,a1
    800028c8:	62c3b423          	sd	a2,1576(t2)
    800028cc:	888890b7          	lui	ra,0x88889
    800028d0:	8880809b          	addiw	ra,ra,-1912 # ffffffff88888888 <absimm+0xfffffffecdb7adb8>
    800028d4:	00c08463          	beq	ra,a2,800028dc <inst_217>
    800028d8:	f4cfd06f          	j	80000024 <rvtest_error>

00000000800028dc <inst_217>:
    800028dc:	55555537          	lui	a0,0x55555
    800028e0:	55550513          	addi	a0,a0,1365 # 55555555 <absimmsh+0x49a847a8>
    800028e4:	00b51513          	slli	a0,a0,0xb
    800028e8:	2aa50513          	addi	a0,a0,682
    800028ec:	00b51513          	slli	a0,a0,0xb
    800028f0:	55550513          	addi	a0,a0,1365
    800028f4:	00a51513          	slli	a0,a0,0xa
    800028f8:	15550513          	addi	a0,a0,341
    800028fc:	666665b7          	lui	a1,0x66666
    80002900:	66658593          	addi	a1,a1,1638 # 66666666 <absimmsh+0x5ab958b9>
    80002904:	00b59593          	slli	a1,a1,0xb
    80002908:	33358593          	addi	a1,a1,819
    8000290c:	00b59593          	slli	a1,a1,0xb
    80002910:	19958593          	addi	a1,a1,409
    80002914:	00a59593          	slli	a1,a1,0xa
    80002918:	26658593          	addi	a1,a1,614
    8000291c:	00b5063b          	addw	a2,a0,a1
    80002920:	62c3b823          	sd	a2,1584(t2)
    80002924:	bbbbc0b7          	lui	ra,0xbbbbc
    80002928:	bbb0809b          	addiw	ra,ra,-1093 # ffffffffbbbbbbbb <absimm+0xffffffff00eae0eb>
    8000292c:	00c08463          	beq	ra,a2,80002934 <inst_218>
    80002930:	ef4fd06f          	j	80000024 <rvtest_error>

0000000080002934 <inst_218>:
    80002934:	55555537          	lui	a0,0x55555
    80002938:	55550513          	addi	a0,a0,1365 # 55555555 <absimmsh+0x49a847a8>
    8000293c:	00b51513          	slli	a0,a0,0xb
    80002940:	2aa50513          	addi	a0,a0,682
    80002944:	00b51513          	slli	a0,a0,0xb
    80002948:	55550513          	addi	a0,a0,1365
    8000294c:	00a51513          	slli	a0,a0,0xa
    80002950:	15550513          	addi	a0,a0,341
    80002954:	000005b7          	lui	a1,0x0
    80002958:	fff58593          	addi	a1,a1,-1
    8000295c:	00b59593          	slli	a1,a1,0xb
    80002960:	25758593          	addi	a1,a1,599
    80002964:	00b59593          	slli	a1,a1,0xb
    80002968:	6c358593          	addi	a1,a1,1731
    8000296c:	00a59593          	slli	a1,a1,0xa
    80002970:	0cd58593          	addi	a1,a1,205
    80002974:	00b5063b          	addw	a2,a0,a1
    80002978:	62c3bc23          	sd	a2,1592(t2)
    8000297c:	a05060b7          	lui	ra,0xa0506
    80002980:	2220809b          	addiw	ra,ra,546 # ffffffffa0506222 <absimm+0xfffffffee57f8752>
    80002984:	00c08463          	beq	ra,a2,8000298c <inst_219>
    80002988:	e9cfd06f          	j	80000024 <rvtest_error>

000000008000298c <inst_219>:
    8000298c:	55555537          	lui	a0,0x55555
    80002990:	55550513          	addi	a0,a0,1365 # 55555555 <absimmsh+0x49a847a8>
    80002994:	00b51513          	slli	a0,a0,0xb
    80002998:	2aa50513          	addi	a0,a0,682
    8000299c:	00b51513          	slli	a0,a0,0xb
    800029a0:	55550513          	addi	a0,a0,1365
    800029a4:	00a51513          	slli	a0,a0,0xa
    800029a8:	15550513          	addi	a0,a0,341
    800029ac:	000005b7          	lui	a1,0x0
    800029b0:	00058593          	mv	a1,a1
    800029b4:	00b59593          	slli	a1,a1,0xb
    800029b8:	5a858593          	addi	a1,a1,1448 # 5a8 <offset+0x110>
    800029bc:	00b59593          	slli	a1,a1,0xb
    800029c0:	13c58593          	addi	a1,a1,316
    800029c4:	00a59593          	slli	a1,a1,0xa
    800029c8:	33358593          	addi	a1,a1,819
    800029cc:	00b5063b          	addw	a2,a0,a1
    800029d0:	64c3b023          	sd	a2,1600(t2)
    800029d4:	0a5a50b7          	lui	ra,0xa5a5
    800029d8:	8880809b          	addiw	ra,ra,-1912 # a5a4888 <offset+0xa5a43f0>
    800029dc:	00c08463          	beq	ra,a2,800029e4 <inst_220>
    800029e0:	e44fd06f          	j	80000024 <rvtest_error>

00000000800029e4 <inst_220>:
    800029e4:	55555537          	lui	a0,0x55555
    800029e8:	55550513          	addi	a0,a0,1365 # 55555555 <absimmsh+0x49a847a8>
    800029ec:	00b51513          	slli	a0,a0,0xb
    800029f0:	2aa50513          	addi	a0,a0,682
    800029f4:	00b51513          	slli	a0,a0,0xb
    800029f8:	55550513          	addi	a0,a0,1365
    800029fc:	00a51513          	slli	a0,a0,0xa
    80002a00:	15550513          	addi	a0,a0,341
    80002a04:	00200593          	li	a1,2
    80002a08:	00b5063b          	addw	a2,a0,a1
    80002a0c:	64c3b423          	sd	a2,1608(t2)
    80002a10:	555550b7          	lui	ra,0x55555
    80002a14:	5570809b          	addiw	ra,ra,1367 # 55555557 <absimmsh+0x49a847aa>
    80002a18:	00c08463          	beq	ra,a2,80002a20 <inst_221>
    80002a1c:	e08fd06f          	j	80000024 <rvtest_error>

0000000080002a20 <inst_221>:
    80002a20:	55555537          	lui	a0,0x55555
    80002a24:	55550513          	addi	a0,a0,1365 # 55555555 <absimmsh+0x49a847a8>
    80002a28:	00b51513          	slli	a0,a0,0xb
    80002a2c:	2aa50513          	addi	a0,a0,682
    80002a30:	00b51513          	slli	a0,a0,0xb
    80002a34:	55550513          	addi	a0,a0,1365
    80002a38:	00a51513          	slli	a0,a0,0xa
    80002a3c:	15550513          	addi	a0,a0,341
    80002a40:	555555b7          	lui	a1,0x55555
    80002a44:	55558593          	addi	a1,a1,1365 # 55555555 <absimmsh+0x49a847a8>
    80002a48:	00b59593          	slli	a1,a1,0xb
    80002a4c:	2aa58593          	addi	a1,a1,682
    80002a50:	00b59593          	slli	a1,a1,0xb
    80002a54:	55558593          	addi	a1,a1,1365
    80002a58:	00a59593          	slli	a1,a1,0xa
    80002a5c:	15458593          	addi	a1,a1,340
    80002a60:	00b5063b          	addw	a2,a0,a1
    80002a64:	64c3b823          	sd	a2,1616(t2)
    80002a68:	aaaab0b7          	lui	ra,0xaaaab
    80002a6c:	aa90809b          	addiw	ra,ra,-1367 # ffffffffaaaaaaa9 <absimm+0xfffffffeefd9cfd9>
    80002a70:	00c08463          	beq	ra,a2,80002a78 <inst_222>
    80002a74:	db0fd06f          	j	80000024 <rvtest_error>

0000000080002a78 <inst_222>:
    80002a78:	55555537          	lui	a0,0x55555
    80002a7c:	55550513          	addi	a0,a0,1365 # 55555555 <absimmsh+0x49a847a8>
    80002a80:	00b51513          	slli	a0,a0,0xb
    80002a84:	2aa50513          	addi	a0,a0,682
    80002a88:	00b51513          	slli	a0,a0,0xb
    80002a8c:	55550513          	addi	a0,a0,1365
    80002a90:	00a51513          	slli	a0,a0,0xa
    80002a94:	15550513          	addi	a0,a0,341
    80002a98:	00000593          	li	a1,0
    80002a9c:	00b5063b          	addw	a2,a0,a1
    80002aa0:	64c3bc23          	sd	a2,1624(t2)
    80002aa4:	555550b7          	lui	ra,0x55555
    80002aa8:	5550809b          	addiw	ra,ra,1365 # 55555555 <absimmsh+0x49a847a8>
    80002aac:	00c08463          	beq	ra,a2,80002ab4 <inst_223>
    80002ab0:	d74fd06f          	j	80000024 <rvtest_error>

0000000080002ab4 <inst_223>:
    80002ab4:	55555537          	lui	a0,0x55555
    80002ab8:	55550513          	addi	a0,a0,1365 # 55555555 <absimmsh+0x49a847a8>
    80002abc:	00b51513          	slli	a0,a0,0xb
    80002ac0:	2aa50513          	addi	a0,a0,682
    80002ac4:	00b51513          	slli	a0,a0,0xb
    80002ac8:	55550513          	addi	a0,a0,1365
    80002acc:	00a51513          	slli	a0,a0,0xa
    80002ad0:	15550513          	addi	a0,a0,341
    80002ad4:	00400593          	li	a1,4
    80002ad8:	00b5063b          	addw	a2,a0,a1
    80002adc:	66c3b023          	sd	a2,1632(t2)
    80002ae0:	555550b7          	lui	ra,0x55555
    80002ae4:	5590809b          	addiw	ra,ra,1369 # 55555559 <absimmsh+0x49a847ac>
    80002ae8:	00c08463          	beq	ra,a2,80002af0 <inst_224>
    80002aec:	d38fd06f          	j	80000024 <rvtest_error>

0000000080002af0 <inst_224>:
    80002af0:	55555537          	lui	a0,0x55555
    80002af4:	55550513          	addi	a0,a0,1365 # 55555555 <absimmsh+0x49a847a8>
    80002af8:	00b51513          	slli	a0,a0,0xb
    80002afc:	2aa50513          	addi	a0,a0,682
    80002b00:	00b51513          	slli	a0,a0,0xb
    80002b04:	55550513          	addi	a0,a0,1365
    80002b08:	00a51513          	slli	a0,a0,0xa
    80002b0c:	15550513          	addi	a0,a0,341
    80002b10:	333335b7          	lui	a1,0x33333
    80002b14:	33358593          	addi	a1,a1,819 # 33333333 <absimmsh+0x27862586>
    80002b18:	00b59593          	slli	a1,a1,0xb
    80002b1c:	19958593          	addi	a1,a1,409
    80002b20:	00b59593          	slli	a1,a1,0xb
    80002b24:	4cc58593          	addi	a1,a1,1228
    80002b28:	00a59593          	slli	a1,a1,0xa
    80002b2c:	33258593          	addi	a1,a1,818
    80002b30:	00b5063b          	addw	a2,a0,a1
    80002b34:	66c3b423          	sd	a2,1640(t2)
    80002b38:	888890b7          	lui	ra,0x88889
    80002b3c:	8870809b          	addiw	ra,ra,-1913 # ffffffff88888887 <absimm+0xfffffffecdb7adb7>
    80002b40:	00c08463          	beq	ra,a2,80002b48 <inst_225>
    80002b44:	ce0fd06f          	j	80000024 <rvtest_error>

0000000080002b48 <inst_225>:
    80002b48:	55555537          	lui	a0,0x55555
    80002b4c:	55550513          	addi	a0,a0,1365 # 55555555 <absimmsh+0x49a847a8>
    80002b50:	00b51513          	slli	a0,a0,0xb
    80002b54:	2aa50513          	addi	a0,a0,682
    80002b58:	00b51513          	slli	a0,a0,0xb
    80002b5c:	55550513          	addi	a0,a0,1365
    80002b60:	00a51513          	slli	a0,a0,0xa
    80002b64:	15550513          	addi	a0,a0,341
    80002b68:	666665b7          	lui	a1,0x66666
    80002b6c:	66658593          	addi	a1,a1,1638 # 66666666 <absimmsh+0x5ab958b9>
    80002b70:	00b59593          	slli	a1,a1,0xb
    80002b74:	33358593          	addi	a1,a1,819
    80002b78:	00b59593          	slli	a1,a1,0xb
    80002b7c:	19958593          	addi	a1,a1,409
    80002b80:	00a59593          	slli	a1,a1,0xa
    80002b84:	26558593          	addi	a1,a1,613
    80002b88:	00b5063b          	addw	a2,a0,a1
    80002b8c:	66c3b823          	sd	a2,1648(t2)
    80002b90:	bbbbc0b7          	lui	ra,0xbbbbc
    80002b94:	bba0809b          	addiw	ra,ra,-1094 # ffffffffbbbbbbba <absimm+0xffffffff00eae0ea>
    80002b98:	00c08463          	beq	ra,a2,80002ba0 <inst_226>
    80002b9c:	c88fd06f          	j	80000024 <rvtest_error>

0000000080002ba0 <inst_226>:
    80002ba0:	55555537          	lui	a0,0x55555
    80002ba4:	55550513          	addi	a0,a0,1365 # 55555555 <absimmsh+0x49a847a8>
    80002ba8:	00b51513          	slli	a0,a0,0xb
    80002bac:	2aa50513          	addi	a0,a0,682
    80002bb0:	00b51513          	slli	a0,a0,0xb
    80002bb4:	55550513          	addi	a0,a0,1365
    80002bb8:	00a51513          	slli	a0,a0,0xa
    80002bbc:	15550513          	addi	a0,a0,341
    80002bc0:	000005b7          	lui	a1,0x0
    80002bc4:	00058593          	mv	a1,a1
    80002bc8:	00b59593          	slli	a1,a1,0xb
    80002bcc:	5a858593          	addi	a1,a1,1448 # 5a8 <offset+0x110>
    80002bd0:	00b59593          	slli	a1,a1,0xb
    80002bd4:	13c58593          	addi	a1,a1,316
    80002bd8:	00a59593          	slli	a1,a1,0xa
    80002bdc:	33258593          	addi	a1,a1,818
    80002be0:	00b5063b          	addw	a2,a0,a1
    80002be4:	66c3bc23          	sd	a2,1656(t2)
    80002be8:	0a5a50b7          	lui	ra,0xa5a5
    80002bec:	8870809b          	addiw	ra,ra,-1913 # a5a4887 <offset+0xa5a43ef>
    80002bf0:	00c08463          	beq	ra,a2,80002bf8 <inst_227>
    80002bf4:	c30fd06f          	j	80000024 <rvtest_error>

0000000080002bf8 <inst_227>:
    80002bf8:	55555537          	lui	a0,0x55555
    80002bfc:	55550513          	addi	a0,a0,1365 # 55555555 <absimmsh+0x49a847a8>
    80002c00:	00b51513          	slli	a0,a0,0xb
    80002c04:	2aa50513          	addi	a0,a0,682
    80002c08:	00b51513          	slli	a0,a0,0xb
    80002c0c:	55550513          	addi	a0,a0,1365
    80002c10:	00a51513          	slli	a0,a0,0xa
    80002c14:	15550513          	addi	a0,a0,341
    80002c18:	555555b7          	lui	a1,0x55555
    80002c1c:	55558593          	addi	a1,a1,1365 # 55555555 <absimmsh+0x49a847a8>
    80002c20:	00b59593          	slli	a1,a1,0xb
    80002c24:	2aa58593          	addi	a1,a1,682
    80002c28:	00b59593          	slli	a1,a1,0xb
    80002c2c:	55558593          	addi	a1,a1,1365
    80002c30:	00a59593          	slli	a1,a1,0xa
    80002c34:	15658593          	addi	a1,a1,342
    80002c38:	00b5063b          	addw	a2,a0,a1
    80002c3c:	68c3b023          	sd	a2,1664(t2)
    80002c40:	aaaab0b7          	lui	ra,0xaaaab
    80002c44:	aab0809b          	addiw	ra,ra,-1365 # ffffffffaaaaaaab <absimm+0xfffffffeefd9cfdb>
    80002c48:	00c08463          	beq	ra,a2,80002c50 <inst_228>
    80002c4c:	bd8fd06f          	j	80000024 <rvtest_error>

0000000080002c50 <inst_228>:
    80002c50:	55555537          	lui	a0,0x55555
    80002c54:	55550513          	addi	a0,a0,1365 # 55555555 <absimmsh+0x49a847a8>
    80002c58:	00b51513          	slli	a0,a0,0xb
    80002c5c:	2aa50513          	addi	a0,a0,682
    80002c60:	00b51513          	slli	a0,a0,0xb
    80002c64:	55550513          	addi	a0,a0,1365
    80002c68:	00a51513          	slli	a0,a0,0xa
    80002c6c:	15550513          	addi	a0,a0,341
    80002c70:	aaaab5b7          	lui	a1,0xaaaab
    80002c74:	aaa58593          	addi	a1,a1,-1366 # ffffffffaaaaaaaa <absimm+0xfffffffeefd9cfda>
    80002c78:	00b59593          	slli	a1,a1,0xb
    80002c7c:	55558593          	addi	a1,a1,1365
    80002c80:	00b59593          	slli	a1,a1,0xb
    80002c84:	2aa58593          	addi	a1,a1,682
    80002c88:	00a59593          	slli	a1,a1,0xa
    80002c8c:	2ab58593          	addi	a1,a1,683
    80002c90:	00b5063b          	addw	a2,a0,a1
    80002c94:	68c3b423          	sd	a2,1672(t2)
    80002c98:	00000093          	li	ra,0
    80002c9c:	00c08463          	beq	ra,a2,80002ca4 <inst_229>
    80002ca0:	b84fd06f          	j	80000024 <rvtest_error>

0000000080002ca4 <inst_229>:
    80002ca4:	55555537          	lui	a0,0x55555
    80002ca8:	55550513          	addi	a0,a0,1365 # 55555555 <absimmsh+0x49a847a8>
    80002cac:	00b51513          	slli	a0,a0,0xb
    80002cb0:	2aa50513          	addi	a0,a0,682
    80002cb4:	00b51513          	slli	a0,a0,0xb
    80002cb8:	55550513          	addi	a0,a0,1365
    80002cbc:	00a51513          	slli	a0,a0,0xa
    80002cc0:	15550513          	addi	a0,a0,341
    80002cc4:	00600593          	li	a1,6
    80002cc8:	00b5063b          	addw	a2,a0,a1
    80002ccc:	68c3b823          	sd	a2,1680(t2)
    80002cd0:	555550b7          	lui	ra,0x55555
    80002cd4:	55b0809b          	addiw	ra,ra,1371 # 5555555b <absimmsh+0x49a847ae>
    80002cd8:	00c08463          	beq	ra,a2,80002ce0 <inst_230>
    80002cdc:	b48fd06f          	j	80000024 <rvtest_error>

0000000080002ce0 <inst_230>:
    80002ce0:	55555537          	lui	a0,0x55555
    80002ce4:	55550513          	addi	a0,a0,1365 # 55555555 <absimmsh+0x49a847a8>
    80002ce8:	00b51513          	slli	a0,a0,0xb
    80002cec:	2aa50513          	addi	a0,a0,682
    80002cf0:	00b51513          	slli	a0,a0,0xb
    80002cf4:	55550513          	addi	a0,a0,1365
    80002cf8:	00a51513          	slli	a0,a0,0xa
    80002cfc:	15550513          	addi	a0,a0,341
    80002d00:	333335b7          	lui	a1,0x33333
    80002d04:	33358593          	addi	a1,a1,819 # 33333333 <absimmsh+0x27862586>
    80002d08:	00b59593          	slli	a1,a1,0xb
    80002d0c:	19958593          	addi	a1,a1,409
    80002d10:	00b59593          	slli	a1,a1,0xb
    80002d14:	4cc58593          	addi	a1,a1,1228
    80002d18:	00a59593          	slli	a1,a1,0xa
    80002d1c:	33458593          	addi	a1,a1,820
    80002d20:	00b5063b          	addw	a2,a0,a1
    80002d24:	68c3bc23          	sd	a2,1688(t2)
    80002d28:	888890b7          	lui	ra,0x88889
    80002d2c:	8890809b          	addiw	ra,ra,-1911 # ffffffff88888889 <absimm+0xfffffffecdb7adb9>
    80002d30:	00c08463          	beq	ra,a2,80002d38 <inst_231>
    80002d34:	af0fd06f          	j	80000024 <rvtest_error>

0000000080002d38 <inst_231>:
    80002d38:	55555537          	lui	a0,0x55555
    80002d3c:	55550513          	addi	a0,a0,1365 # 55555555 <absimmsh+0x49a847a8>
    80002d40:	00b51513          	slli	a0,a0,0xb
    80002d44:	2aa50513          	addi	a0,a0,682
    80002d48:	00b51513          	slli	a0,a0,0xb
    80002d4c:	55550513          	addi	a0,a0,1365
    80002d50:	00a51513          	slli	a0,a0,0xa
    80002d54:	15550513          	addi	a0,a0,341
    80002d58:	666665b7          	lui	a1,0x66666
    80002d5c:	66658593          	addi	a1,a1,1638 # 66666666 <absimmsh+0x5ab958b9>
    80002d60:	00b59593          	slli	a1,a1,0xb
    80002d64:	33358593          	addi	a1,a1,819
    80002d68:	00b59593          	slli	a1,a1,0xb
    80002d6c:	19958593          	addi	a1,a1,409
    80002d70:	00a59593          	slli	a1,a1,0xa
    80002d74:	26758593          	addi	a1,a1,615
    80002d78:	00b5063b          	addw	a2,a0,a1
    80002d7c:	6ac3b023          	sd	a2,1696(t2)
    80002d80:	bbbbc0b7          	lui	ra,0xbbbbc
    80002d84:	bbc0809b          	addiw	ra,ra,-1092 # ffffffffbbbbbbbc <absimm+0xffffffff00eae0ec>
    80002d88:	00c08463          	beq	ra,a2,80002d90 <inst_232>
    80002d8c:	a98fd06f          	j	80000024 <rvtest_error>

0000000080002d90 <inst_232>:
    80002d90:	55555537          	lui	a0,0x55555
    80002d94:	55550513          	addi	a0,a0,1365 # 55555555 <absimmsh+0x49a847a8>
    80002d98:	00b51513          	slli	a0,a0,0xb
    80002d9c:	2aa50513          	addi	a0,a0,682
    80002da0:	00b51513          	slli	a0,a0,0xb
    80002da4:	55550513          	addi	a0,a0,1365
    80002da8:	00a51513          	slli	a0,a0,0xa
    80002dac:	15550513          	addi	a0,a0,341
    80002db0:	000005b7          	lui	a1,0x0
    80002db4:	fff58593          	addi	a1,a1,-1
    80002db8:	00b59593          	slli	a1,a1,0xb
    80002dbc:	25758593          	addi	a1,a1,599
    80002dc0:	00b59593          	slli	a1,a1,0xb
    80002dc4:	6c358593          	addi	a1,a1,1731
    80002dc8:	00a59593          	slli	a1,a1,0xa
    80002dcc:	0ce58593          	addi	a1,a1,206
    80002dd0:	00b5063b          	addw	a2,a0,a1
    80002dd4:	6ac3b423          	sd	a2,1704(t2)
    80002dd8:	a05060b7          	lui	ra,0xa0506
    80002ddc:	2230809b          	addiw	ra,ra,547 # ffffffffa0506223 <absimm+0xfffffffee57f8753>
    80002de0:	00c08463          	beq	ra,a2,80002de8 <inst_233>
    80002de4:	a40fd06f          	j	80000024 <rvtest_error>

0000000080002de8 <inst_233>:
    80002de8:	55555537          	lui	a0,0x55555
    80002dec:	55550513          	addi	a0,a0,1365 # 55555555 <absimmsh+0x49a847a8>
    80002df0:	00b51513          	slli	a0,a0,0xb
    80002df4:	2aa50513          	addi	a0,a0,682
    80002df8:	00b51513          	slli	a0,a0,0xb
    80002dfc:	55550513          	addi	a0,a0,1365
    80002e00:	00a51513          	slli	a0,a0,0xa
    80002e04:	15550513          	addi	a0,a0,341
    80002e08:	000005b7          	lui	a1,0x0
    80002e0c:	00058593          	mv	a1,a1
    80002e10:	00b59593          	slli	a1,a1,0xb
    80002e14:	5a858593          	addi	a1,a1,1448 # 5a8 <offset+0x110>
    80002e18:	00b59593          	slli	a1,a1,0xb
    80002e1c:	13c58593          	addi	a1,a1,316
    80002e20:	00a59593          	slli	a1,a1,0xa
    80002e24:	33458593          	addi	a1,a1,820
    80002e28:	00b5063b          	addw	a2,a0,a1
    80002e2c:	6ac3b823          	sd	a2,1712(t2)
    80002e30:	0a5a50b7          	lui	ra,0xa5a5
    80002e34:	8890809b          	addiw	ra,ra,-1911 # a5a4889 <offset+0xa5a43f1>
    80002e38:	00c08463          	beq	ra,a2,80002e40 <inst_234>
    80002e3c:	9e8fd06f          	j	80000024 <rvtest_error>

0000000080002e40 <inst_234>:
    80002e40:	aaaab537          	lui	a0,0xaaaab
    80002e44:	aaa50513          	addi	a0,a0,-1366 # ffffffffaaaaaaaa <absimm+0xfffffffeefd9cfda>
    80002e48:	00b51513          	slli	a0,a0,0xb
    80002e4c:	55550513          	addi	a0,a0,1365
    80002e50:	00b51513          	slli	a0,a0,0xb
    80002e54:	2aa50513          	addi	a0,a0,682
    80002e58:	00a51513          	slli	a0,a0,0xa
    80002e5c:	2aa50513          	addi	a0,a0,682
    80002e60:	00300593          	li	a1,3
    80002e64:	00b5063b          	addw	a2,a0,a1
    80002e68:	6ac3bc23          	sd	a2,1720(t2)
    80002e6c:	aaaab0b7          	lui	ra,0xaaaab
    80002e70:	aad0809b          	addiw	ra,ra,-1363 # ffffffffaaaaaaad <absimm+0xfffffffeefd9cfdd>
    80002e74:	00c08463          	beq	ra,a2,80002e7c <inst_235>
    80002e78:	9acfd06f          	j	80000024 <rvtest_error>

0000000080002e7c <inst_235>:
    80002e7c:	aaaab537          	lui	a0,0xaaaab
    80002e80:	aaa50513          	addi	a0,a0,-1366 # ffffffffaaaaaaaa <absimm+0xfffffffeefd9cfda>
    80002e84:	00b51513          	slli	a0,a0,0xb
    80002e88:	55550513          	addi	a0,a0,1365
    80002e8c:	00b51513          	slli	a0,a0,0xb
    80002e90:	2aa50513          	addi	a0,a0,682
    80002e94:	00a51513          	slli	a0,a0,0xa
    80002e98:	2aa50513          	addi	a0,a0,682
    80002e9c:	555555b7          	lui	a1,0x55555
    80002ea0:	55558593          	addi	a1,a1,1365 # 55555555 <absimmsh+0x49a847a8>
    80002ea4:	00b59593          	slli	a1,a1,0xb
    80002ea8:	2aa58593          	addi	a1,a1,682
    80002eac:	00b59593          	slli	a1,a1,0xb
    80002eb0:	55558593          	addi	a1,a1,1365
    80002eb4:	00a59593          	slli	a1,a1,0xa
    80002eb8:	15558593          	addi	a1,a1,341
    80002ebc:	00b5063b          	addw	a2,a0,a1
    80002ec0:	6cc3b023          	sd	a2,1728(t2)
    80002ec4:	fff00093          	li	ra,-1
    80002ec8:	00c08463          	beq	ra,a2,80002ed0 <inst_236>
    80002ecc:	958fd06f          	j	80000024 <rvtest_error>

0000000080002ed0 <inst_236>:
    80002ed0:	aaaab537          	lui	a0,0xaaaab
    80002ed4:	aaa50513          	addi	a0,a0,-1366 # ffffffffaaaaaaaa <absimm+0xfffffffeefd9cfda>
    80002ed8:	00b51513          	slli	a0,a0,0xb
    80002edc:	55550513          	addi	a0,a0,1365
    80002ee0:	00b51513          	slli	a0,a0,0xb
    80002ee4:	2aa50513          	addi	a0,a0,682
    80002ee8:	00a51513          	slli	a0,a0,0xa
    80002eec:	2aa50513          	addi	a0,a0,682
    80002ef0:	aaaab5b7          	lui	a1,0xaaaab
    80002ef4:	aaa58593          	addi	a1,a1,-1366 # ffffffffaaaaaaaa <absimm+0xfffffffeefd9cfda>
    80002ef8:	00b59593          	slli	a1,a1,0xb
    80002efc:	55558593          	addi	a1,a1,1365
    80002f00:	00b59593          	slli	a1,a1,0xb
    80002f04:	2aa58593          	addi	a1,a1,682
    80002f08:	00a59593          	slli	a1,a1,0xa
    80002f0c:	2aa58593          	addi	a1,a1,682
    80002f10:	00b5063b          	addw	a2,a0,a1
    80002f14:	6cc3b423          	sd	a2,1736(t2)
    80002f18:	555550b7          	lui	ra,0x55555
    80002f1c:	5540809b          	addiw	ra,ra,1364 # 55555554 <absimmsh+0x49a847a7>
    80002f20:	00c08463          	beq	ra,a2,80002f28 <inst_237>
    80002f24:	900fd06f          	j	80000024 <rvtest_error>

0000000080002f28 <inst_237>:
    80002f28:	aaaab537          	lui	a0,0xaaaab
    80002f2c:	aaa50513          	addi	a0,a0,-1366 # ffffffffaaaaaaaa <absimm+0xfffffffeefd9cfda>
    80002f30:	00b51513          	slli	a0,a0,0xb
    80002f34:	55550513          	addi	a0,a0,1365
    80002f38:	00b51513          	slli	a0,a0,0xb
    80002f3c:	2aa50513          	addi	a0,a0,682
    80002f40:	00a51513          	slli	a0,a0,0xa
    80002f44:	2aa50513          	addi	a0,a0,682
    80002f48:	00500593          	li	a1,5
    80002f4c:	00b5063b          	addw	a2,a0,a1
    80002f50:	6cc3b823          	sd	a2,1744(t2)
    80002f54:	aaaab0b7          	lui	ra,0xaaaab
    80002f58:	aaf0809b          	addiw	ra,ra,-1361 # ffffffffaaaaaaaf <absimm+0xfffffffeefd9cfdf>
    80002f5c:	00c08463          	beq	ra,a2,80002f64 <inst_238>
    80002f60:	8c4fd06f          	j	80000024 <rvtest_error>

0000000080002f64 <inst_238>:
    80002f64:	aaaab537          	lui	a0,0xaaaab
    80002f68:	aaa50513          	addi	a0,a0,-1366 # ffffffffaaaaaaaa <absimm+0xfffffffeefd9cfda>
    80002f6c:	00b51513          	slli	a0,a0,0xb
    80002f70:	55550513          	addi	a0,a0,1365
    80002f74:	00b51513          	slli	a0,a0,0xb
    80002f78:	2aa50513          	addi	a0,a0,682
    80002f7c:	00a51513          	slli	a0,a0,0xa
    80002f80:	2aa50513          	addi	a0,a0,682
    80002f84:	333335b7          	lui	a1,0x33333
    80002f88:	33358593          	addi	a1,a1,819 # 33333333 <absimmsh+0x27862586>
    80002f8c:	00b59593          	slli	a1,a1,0xb
    80002f90:	19958593          	addi	a1,a1,409
    80002f94:	00b59593          	slli	a1,a1,0xb
    80002f98:	4cc58593          	addi	a1,a1,1228
    80002f9c:	00a59593          	slli	a1,a1,0xa
    80002fa0:	33358593          	addi	a1,a1,819
    80002fa4:	00b5063b          	addw	a2,a0,a1
    80002fa8:	6cc3bc23          	sd	a2,1752(t2)
    80002fac:	dddde0b7          	lui	ra,0xdddde
    80002fb0:	ddd0809b          	addiw	ra,ra,-547 # ffffffffdddddddd <absimm+0xffffffff230d030d>
    80002fb4:	00c08463          	beq	ra,a2,80002fbc <inst_239>
    80002fb8:	86cfd06f          	j	80000024 <rvtest_error>

0000000080002fbc <inst_239>:
    80002fbc:	aaaab537          	lui	a0,0xaaaab
    80002fc0:	aaa50513          	addi	a0,a0,-1366 # ffffffffaaaaaaaa <absimm+0xfffffffeefd9cfda>
    80002fc4:	00b51513          	slli	a0,a0,0xb
    80002fc8:	55550513          	addi	a0,a0,1365
    80002fcc:	00b51513          	slli	a0,a0,0xb
    80002fd0:	2aa50513          	addi	a0,a0,682
    80002fd4:	00a51513          	slli	a0,a0,0xa
    80002fd8:	2aa50513          	addi	a0,a0,682
    80002fdc:	666665b7          	lui	a1,0x66666
    80002fe0:	66658593          	addi	a1,a1,1638 # 66666666 <absimmsh+0x5ab958b9>
    80002fe4:	00b59593          	slli	a1,a1,0xb
    80002fe8:	33358593          	addi	a1,a1,819
    80002fec:	00b59593          	slli	a1,a1,0xb
    80002ff0:	19958593          	addi	a1,a1,409
    80002ff4:	00a59593          	slli	a1,a1,0xa
    80002ff8:	26658593          	addi	a1,a1,614
    80002ffc:	00b5063b          	addw	a2,a0,a1
    80003000:	6ec3b023          	sd	a2,1760(t2)
    80003004:	111110b7          	lui	ra,0x11111
    80003008:	1100809b          	addiw	ra,ra,272 # 11111110 <absimmsh+0x5640363>
    8000300c:	00c08463          	beq	ra,a2,80003014 <inst_240>
    80003010:	814fd06f          	j	80000024 <rvtest_error>

0000000080003014 <inst_240>:
    80003014:	aaaab537          	lui	a0,0xaaaab
    80003018:	aaa50513          	addi	a0,a0,-1366 # ffffffffaaaaaaaa <absimm+0xfffffffeefd9cfda>
    8000301c:	00b51513          	slli	a0,a0,0xb
    80003020:	55550513          	addi	a0,a0,1365
    80003024:	00b51513          	slli	a0,a0,0xb
    80003028:	2aa50513          	addi	a0,a0,682
    8000302c:	00a51513          	slli	a0,a0,0xa
    80003030:	2aa50513          	addi	a0,a0,682
    80003034:	000005b7          	lui	a1,0x0
    80003038:	fff58593          	addi	a1,a1,-1
    8000303c:	00b59593          	slli	a1,a1,0xb
    80003040:	25758593          	addi	a1,a1,599
    80003044:	00b59593          	slli	a1,a1,0xb
    80003048:	6c358593          	addi	a1,a1,1731
    8000304c:	00a59593          	slli	a1,a1,0xa
    80003050:	0cd58593          	addi	a1,a1,205
    80003054:	00b5063b          	addw	a2,a0,a1
    80003058:	6ec3b423          	sd	a2,1768(t2)
    8000305c:	f5a5b0b7          	lui	ra,0xf5a5b
    80003060:	7770809b          	addiw	ra,ra,1911 # fffffffff5a5b777 <absimm+0xffffffff3ad4dca7>
    80003064:	00c08463          	beq	ra,a2,8000306c <inst_241>
    80003068:	fbdfc06f          	j	80000024 <rvtest_error>

000000008000306c <inst_241>:
    8000306c:	aaaab537          	lui	a0,0xaaaab
    80003070:	aaa50513          	addi	a0,a0,-1366 # ffffffffaaaaaaaa <absimm+0xfffffffeefd9cfda>
    80003074:	00b51513          	slli	a0,a0,0xb
    80003078:	55550513          	addi	a0,a0,1365
    8000307c:	00b51513          	slli	a0,a0,0xb
    80003080:	2aa50513          	addi	a0,a0,682
    80003084:	00a51513          	slli	a0,a0,0xa
    80003088:	2aa50513          	addi	a0,a0,682
    8000308c:	000005b7          	lui	a1,0x0
    80003090:	00058593          	mv	a1,a1
    80003094:	00b59593          	slli	a1,a1,0xb
    80003098:	5a858593          	addi	a1,a1,1448 # 5a8 <offset+0x110>
    8000309c:	00b59593          	slli	a1,a1,0xb
    800030a0:	13c58593          	addi	a1,a1,316
    800030a4:	00a59593          	slli	a1,a1,0xa
    800030a8:	33358593          	addi	a1,a1,819
    800030ac:	00b5063b          	addw	a2,a0,a1
    800030b0:	6ec3b823          	sd	a2,1776(t2)
    800030b4:	5fafa0b7          	lui	ra,0x5fafa
    800030b8:	ddd0809b          	addiw	ra,ra,-547 # 5faf9ddd <absimmsh+0x54029030>
    800030bc:	00c08463          	beq	ra,a2,800030c4 <inst_242>
    800030c0:	f65fc06f          	j	80000024 <rvtest_error>

00000000800030c4 <inst_242>:
    800030c4:	aaaab537          	lui	a0,0xaaaab
    800030c8:	aaa50513          	addi	a0,a0,-1366 # ffffffffaaaaaaaa <absimm+0xfffffffeefd9cfda>
    800030cc:	00b51513          	slli	a0,a0,0xb
    800030d0:	55550513          	addi	a0,a0,1365
    800030d4:	00b51513          	slli	a0,a0,0xb
    800030d8:	2aa50513          	addi	a0,a0,682
    800030dc:	00a51513          	slli	a0,a0,0xa
    800030e0:	2aa50513          	addi	a0,a0,682
    800030e4:	00200593          	li	a1,2
    800030e8:	00b5063b          	addw	a2,a0,a1
    800030ec:	6ec3bc23          	sd	a2,1784(t2)
    800030f0:	aaaab0b7          	lui	ra,0xaaaab
    800030f4:	aac0809b          	addiw	ra,ra,-1364 # ffffffffaaaaaaac <absimm+0xfffffffeefd9cfdc>
    800030f8:	00c08463          	beq	ra,a2,80003100 <inst_243>
    800030fc:	f29fc06f          	j	80000024 <rvtest_error>

0000000080003100 <inst_243>:
    80003100:	aaaab537          	lui	a0,0xaaaab
    80003104:	aaa50513          	addi	a0,a0,-1366 # ffffffffaaaaaaaa <absimm+0xfffffffeefd9cfda>
    80003108:	00b51513          	slli	a0,a0,0xb
    8000310c:	55550513          	addi	a0,a0,1365
    80003110:	00b51513          	slli	a0,a0,0xb
    80003114:	2aa50513          	addi	a0,a0,682
    80003118:	00a51513          	slli	a0,a0,0xa
    8000311c:	2aa50513          	addi	a0,a0,682
    80003120:	555555b7          	lui	a1,0x55555
    80003124:	55558593          	addi	a1,a1,1365 # 55555555 <absimmsh+0x49a847a8>
    80003128:	00b59593          	slli	a1,a1,0xb
    8000312c:	2aa58593          	addi	a1,a1,682
    80003130:	00b59593          	slli	a1,a1,0xb
    80003134:	55558593          	addi	a1,a1,1365
    80003138:	00a59593          	slli	a1,a1,0xa
    8000313c:	15458593          	addi	a1,a1,340
    80003140:	00b5063b          	addw	a2,a0,a1
    80003144:	70c3b023          	sd	a2,1792(t2)
    80003148:	ffe00093          	li	ra,-2
    8000314c:	00c08463          	beq	ra,a2,80003154 <inst_244>
    80003150:	ed5fc06f          	j	80000024 <rvtest_error>

0000000080003154 <inst_244>:
    80003154:	aaaab537          	lui	a0,0xaaaab
    80003158:	aaa50513          	addi	a0,a0,-1366 # ffffffffaaaaaaaa <absimm+0xfffffffeefd9cfda>
    8000315c:	00b51513          	slli	a0,a0,0xb
    80003160:	55550513          	addi	a0,a0,1365
    80003164:	00b51513          	slli	a0,a0,0xb
    80003168:	2aa50513          	addi	a0,a0,682
    8000316c:	00a51513          	slli	a0,a0,0xa
    80003170:	2aa50513          	addi	a0,a0,682
    80003174:	00000593          	li	a1,0
    80003178:	00b5063b          	addw	a2,a0,a1
    8000317c:	70c3b423          	sd	a2,1800(t2)
    80003180:	aaaab0b7          	lui	ra,0xaaaab
    80003184:	aaa0809b          	addiw	ra,ra,-1366 # ffffffffaaaaaaaa <absimm+0xfffffffeefd9cfda>
    80003188:	00c08463          	beq	ra,a2,80003190 <inst_245>
    8000318c:	e99fc06f          	j	80000024 <rvtest_error>

0000000080003190 <inst_245>:
    80003190:	aaaab537          	lui	a0,0xaaaab
    80003194:	aaa50513          	addi	a0,a0,-1366 # ffffffffaaaaaaaa <absimm+0xfffffffeefd9cfda>
    80003198:	00b51513          	slli	a0,a0,0xb
    8000319c:	55550513          	addi	a0,a0,1365
    800031a0:	00b51513          	slli	a0,a0,0xb
    800031a4:	2aa50513          	addi	a0,a0,682
    800031a8:	00a51513          	slli	a0,a0,0xa
    800031ac:	2aa50513          	addi	a0,a0,682
    800031b0:	00400593          	li	a1,4
    800031b4:	00b5063b          	addw	a2,a0,a1
    800031b8:	70c3b823          	sd	a2,1808(t2)
    800031bc:	aaaab0b7          	lui	ra,0xaaaab
    800031c0:	aae0809b          	addiw	ra,ra,-1362 # ffffffffaaaaaaae <absimm+0xfffffffeefd9cfde>
    800031c4:	00c08463          	beq	ra,a2,800031cc <inst_246>
    800031c8:	e5dfc06f          	j	80000024 <rvtest_error>

00000000800031cc <inst_246>:
    800031cc:	aaaab537          	lui	a0,0xaaaab
    800031d0:	aaa50513          	addi	a0,a0,-1366 # ffffffffaaaaaaaa <absimm+0xfffffffeefd9cfda>
    800031d4:	00b51513          	slli	a0,a0,0xb
    800031d8:	55550513          	addi	a0,a0,1365
    800031dc:	00b51513          	slli	a0,a0,0xb
    800031e0:	2aa50513          	addi	a0,a0,682
    800031e4:	00a51513          	slli	a0,a0,0xa
    800031e8:	2aa50513          	addi	a0,a0,682
    800031ec:	333335b7          	lui	a1,0x33333
    800031f0:	33358593          	addi	a1,a1,819 # 33333333 <absimmsh+0x27862586>
    800031f4:	00b59593          	slli	a1,a1,0xb
    800031f8:	19958593          	addi	a1,a1,409
    800031fc:	00b59593          	slli	a1,a1,0xb
    80003200:	4cc58593          	addi	a1,a1,1228
    80003204:	00a59593          	slli	a1,a1,0xa
    80003208:	33258593          	addi	a1,a1,818
    8000320c:	00b5063b          	addw	a2,a0,a1
    80003210:	70c3bc23          	sd	a2,1816(t2)
    80003214:	dddde0b7          	lui	ra,0xdddde
    80003218:	ddc0809b          	addiw	ra,ra,-548 # ffffffffdddddddc <absimm+0xffffffff230d030c>
    8000321c:	00c08463          	beq	ra,a2,80003224 <inst_247>
    80003220:	e05fc06f          	j	80000024 <rvtest_error>

0000000080003224 <inst_247>:
    80003224:	aaaab537          	lui	a0,0xaaaab
    80003228:	aaa50513          	addi	a0,a0,-1366 # ffffffffaaaaaaaa <absimm+0xfffffffeefd9cfda>
    8000322c:	00b51513          	slli	a0,a0,0xb
    80003230:	55550513          	addi	a0,a0,1365
    80003234:	00b51513          	slli	a0,a0,0xb
    80003238:	2aa50513          	addi	a0,a0,682
    8000323c:	00a51513          	slli	a0,a0,0xa
    80003240:	2aa50513          	addi	a0,a0,682
    80003244:	666665b7          	lui	a1,0x66666
    80003248:	66658593          	addi	a1,a1,1638 # 66666666 <absimmsh+0x5ab958b9>
    8000324c:	00b59593          	slli	a1,a1,0xb
    80003250:	33358593          	addi	a1,a1,819
    80003254:	00b59593          	slli	a1,a1,0xb
    80003258:	19958593          	addi	a1,a1,409
    8000325c:	00a59593          	slli	a1,a1,0xa
    80003260:	26558593          	addi	a1,a1,613
    80003264:	00b5063b          	addw	a2,a0,a1
    80003268:	72c3b023          	sd	a2,1824(t2)
    8000326c:	111110b7          	lui	ra,0x11111
    80003270:	10f0809b          	addiw	ra,ra,271 # 1111110f <absimmsh+0x5640362>
    80003274:	00c08463          	beq	ra,a2,8000327c <inst_248>
    80003278:	dadfc06f          	j	80000024 <rvtest_error>

000000008000327c <inst_248>:
    8000327c:	aaaab537          	lui	a0,0xaaaab
    80003280:	aaa50513          	addi	a0,a0,-1366 # ffffffffaaaaaaaa <absimm+0xfffffffeefd9cfda>
    80003284:	00b51513          	slli	a0,a0,0xb
    80003288:	55550513          	addi	a0,a0,1365
    8000328c:	00b51513          	slli	a0,a0,0xb
    80003290:	2aa50513          	addi	a0,a0,682
    80003294:	00a51513          	slli	a0,a0,0xa
    80003298:	2aa50513          	addi	a0,a0,682
    8000329c:	000005b7          	lui	a1,0x0
    800032a0:	00058593          	mv	a1,a1
    800032a4:	00b59593          	slli	a1,a1,0xb
    800032a8:	5a858593          	addi	a1,a1,1448 # 5a8 <offset+0x110>
    800032ac:	00b59593          	slli	a1,a1,0xb
    800032b0:	13c58593          	addi	a1,a1,316
    800032b4:	00a59593          	slli	a1,a1,0xa
    800032b8:	33258593          	addi	a1,a1,818
    800032bc:	00b5063b          	addw	a2,a0,a1
    800032c0:	72c3b423          	sd	a2,1832(t2)
    800032c4:	5fafa0b7          	lui	ra,0x5fafa
    800032c8:	ddc0809b          	addiw	ra,ra,-548 # 5faf9ddc <absimmsh+0x5402902f>
    800032cc:	00c08463          	beq	ra,a2,800032d4 <inst_249>
    800032d0:	d55fc06f          	j	80000024 <rvtest_error>

00000000800032d4 <inst_249>:
    800032d4:	aaaab537          	lui	a0,0xaaaab
    800032d8:	aaa50513          	addi	a0,a0,-1366 # ffffffffaaaaaaaa <absimm+0xfffffffeefd9cfda>
    800032dc:	00b51513          	slli	a0,a0,0xb
    800032e0:	55550513          	addi	a0,a0,1365
    800032e4:	00b51513          	slli	a0,a0,0xb
    800032e8:	2aa50513          	addi	a0,a0,682
    800032ec:	00a51513          	slli	a0,a0,0xa
    800032f0:	2aa50513          	addi	a0,a0,682
    800032f4:	555555b7          	lui	a1,0x55555
    800032f8:	55558593          	addi	a1,a1,1365 # 55555555 <absimmsh+0x49a847a8>
    800032fc:	00b59593          	slli	a1,a1,0xb
    80003300:	2aa58593          	addi	a1,a1,682
    80003304:	00b59593          	slli	a1,a1,0xb
    80003308:	55558593          	addi	a1,a1,1365
    8000330c:	00a59593          	slli	a1,a1,0xa
    80003310:	15658593          	addi	a1,a1,342
    80003314:	00b5063b          	addw	a2,a0,a1
    80003318:	72c3b823          	sd	a2,1840(t2)
    8000331c:	00000093          	li	ra,0
    80003320:	00c08463          	beq	ra,a2,80003328 <inst_250>
    80003324:	d01fc06f          	j	80000024 <rvtest_error>

0000000080003328 <inst_250>:
    80003328:	aaaab537          	lui	a0,0xaaaab
    8000332c:	aaa50513          	addi	a0,a0,-1366 # ffffffffaaaaaaaa <absimm+0xfffffffeefd9cfda>
    80003330:	00b51513          	slli	a0,a0,0xb
    80003334:	55550513          	addi	a0,a0,1365
    80003338:	00b51513          	slli	a0,a0,0xb
    8000333c:	2aa50513          	addi	a0,a0,682
    80003340:	00a51513          	slli	a0,a0,0xa
    80003344:	2aa50513          	addi	a0,a0,682
    80003348:	aaaab5b7          	lui	a1,0xaaaab
    8000334c:	aaa58593          	addi	a1,a1,-1366 # ffffffffaaaaaaaa <absimm+0xfffffffeefd9cfda>
    80003350:	00b59593          	slli	a1,a1,0xb
    80003354:	55558593          	addi	a1,a1,1365
    80003358:	00b59593          	slli	a1,a1,0xb
    8000335c:	2aa58593          	addi	a1,a1,682
    80003360:	00a59593          	slli	a1,a1,0xa
    80003364:	2ab58593          	addi	a1,a1,683
    80003368:	00b5063b          	addw	a2,a0,a1
    8000336c:	72c3bc23          	sd	a2,1848(t2)
    80003370:	555550b7          	lui	ra,0x55555
    80003374:	5550809b          	addiw	ra,ra,1365 # 55555555 <absimmsh+0x49a847a8>
    80003378:	00c08463          	beq	ra,a2,80003380 <inst_251>
    8000337c:	ca9fc06f          	j	80000024 <rvtest_error>

0000000080003380 <inst_251>:
    80003380:	aaaab537          	lui	a0,0xaaaab
    80003384:	aaa50513          	addi	a0,a0,-1366 # ffffffffaaaaaaaa <absimm+0xfffffffeefd9cfda>
    80003388:	00b51513          	slli	a0,a0,0xb
    8000338c:	55550513          	addi	a0,a0,1365
    80003390:	00b51513          	slli	a0,a0,0xb
    80003394:	2aa50513          	addi	a0,a0,682
    80003398:	00a51513          	slli	a0,a0,0xa
    8000339c:	2aa50513          	addi	a0,a0,682
    800033a0:	00600593          	li	a1,6
    800033a4:	00b5063b          	addw	a2,a0,a1
    800033a8:	74c3b023          	sd	a2,1856(t2)
    800033ac:	aaaab0b7          	lui	ra,0xaaaab
    800033b0:	ab00809b          	addiw	ra,ra,-1360 # ffffffffaaaaaab0 <absimm+0xfffffffeefd9cfe0>
    800033b4:	00c08463          	beq	ra,a2,800033bc <inst_252>
    800033b8:	c6dfc06f          	j	80000024 <rvtest_error>

00000000800033bc <inst_252>:
    800033bc:	aaaab537          	lui	a0,0xaaaab
    800033c0:	aaa50513          	addi	a0,a0,-1366 # ffffffffaaaaaaaa <absimm+0xfffffffeefd9cfda>
    800033c4:	00b51513          	slli	a0,a0,0xb
    800033c8:	55550513          	addi	a0,a0,1365
    800033cc:	00b51513          	slli	a0,a0,0xb
    800033d0:	2aa50513          	addi	a0,a0,682
    800033d4:	00a51513          	slli	a0,a0,0xa
    800033d8:	2aa50513          	addi	a0,a0,682
    800033dc:	333335b7          	lui	a1,0x33333
    800033e0:	33358593          	addi	a1,a1,819 # 33333333 <absimmsh+0x27862586>
    800033e4:	00b59593          	slli	a1,a1,0xb
    800033e8:	19958593          	addi	a1,a1,409
    800033ec:	00b59593          	slli	a1,a1,0xb
    800033f0:	4cc58593          	addi	a1,a1,1228
    800033f4:	00a59593          	slli	a1,a1,0xa
    800033f8:	33458593          	addi	a1,a1,820
    800033fc:	00b5063b          	addw	a2,a0,a1
    80003400:	74c3b423          	sd	a2,1864(t2)
    80003404:	dddde0b7          	lui	ra,0xdddde
    80003408:	dde0809b          	addiw	ra,ra,-546 # ffffffffddddddde <absimm+0xffffffff230d030e>
    8000340c:	00c08463          	beq	ra,a2,80003414 <inst_253>
    80003410:	c15fc06f          	j	80000024 <rvtest_error>

0000000080003414 <inst_253>:
    80003414:	aaaab537          	lui	a0,0xaaaab
    80003418:	aaa50513          	addi	a0,a0,-1366 # ffffffffaaaaaaaa <absimm+0xfffffffeefd9cfda>
    8000341c:	00b51513          	slli	a0,a0,0xb
    80003420:	55550513          	addi	a0,a0,1365
    80003424:	00b51513          	slli	a0,a0,0xb
    80003428:	2aa50513          	addi	a0,a0,682
    8000342c:	00a51513          	slli	a0,a0,0xa
    80003430:	2aa50513          	addi	a0,a0,682
    80003434:	666665b7          	lui	a1,0x66666
    80003438:	66658593          	addi	a1,a1,1638 # 66666666 <absimmsh+0x5ab958b9>
    8000343c:	00b59593          	slli	a1,a1,0xb
    80003440:	33358593          	addi	a1,a1,819
    80003444:	00b59593          	slli	a1,a1,0xb
    80003448:	19958593          	addi	a1,a1,409
    8000344c:	00a59593          	slli	a1,a1,0xa
    80003450:	26758593          	addi	a1,a1,615
    80003454:	00b5063b          	addw	a2,a0,a1
    80003458:	74c3b823          	sd	a2,1872(t2)
    8000345c:	111110b7          	lui	ra,0x11111
    80003460:	1110809b          	addiw	ra,ra,273 # 11111111 <absimmsh+0x5640364>
    80003464:	00c08463          	beq	ra,a2,8000346c <inst_254>
    80003468:	bbdfc06f          	j	80000024 <rvtest_error>

000000008000346c <inst_254>:
    8000346c:	aaaab537          	lui	a0,0xaaaab
    80003470:	aaa50513          	addi	a0,a0,-1366 # ffffffffaaaaaaaa <absimm+0xfffffffeefd9cfda>
    80003474:	00b51513          	slli	a0,a0,0xb
    80003478:	55550513          	addi	a0,a0,1365
    8000347c:	00b51513          	slli	a0,a0,0xb
    80003480:	2aa50513          	addi	a0,a0,682
    80003484:	00a51513          	slli	a0,a0,0xa
    80003488:	2aa50513          	addi	a0,a0,682
    8000348c:	000005b7          	lui	a1,0x0
    80003490:	fff58593          	addi	a1,a1,-1
    80003494:	00b59593          	slli	a1,a1,0xb
    80003498:	25758593          	addi	a1,a1,599
    8000349c:	00b59593          	slli	a1,a1,0xb
    800034a0:	6c358593          	addi	a1,a1,1731
    800034a4:	00a59593          	slli	a1,a1,0xa
    800034a8:	0ce58593          	addi	a1,a1,206
    800034ac:	00b5063b          	addw	a2,a0,a1
    800034b0:	74c3bc23          	sd	a2,1880(t2)
    800034b4:	f5a5b0b7          	lui	ra,0xf5a5b
    800034b8:	7780809b          	addiw	ra,ra,1912 # fffffffff5a5b778 <absimm+0xffffffff3ad4dca8>
    800034bc:	00c08463          	beq	ra,a2,800034c4 <inst_255>
    800034c0:	b65fc06f          	j	80000024 <rvtest_error>

00000000800034c4 <inst_255>:
    800034c4:	aaaab537          	lui	a0,0xaaaab
    800034c8:	aaa50513          	addi	a0,a0,-1366 # ffffffffaaaaaaaa <absimm+0xfffffffeefd9cfda>
    800034cc:	00b51513          	slli	a0,a0,0xb
    800034d0:	55550513          	addi	a0,a0,1365
    800034d4:	00b51513          	slli	a0,a0,0xb
    800034d8:	2aa50513          	addi	a0,a0,682
    800034dc:	00a51513          	slli	a0,a0,0xa
    800034e0:	2aa50513          	addi	a0,a0,682
    800034e4:	000005b7          	lui	a1,0x0
    800034e8:	00058593          	mv	a1,a1
    800034ec:	00b59593          	slli	a1,a1,0xb
    800034f0:	5a858593          	addi	a1,a1,1448 # 5a8 <offset+0x110>
    800034f4:	00b59593          	slli	a1,a1,0xb
    800034f8:	13c58593          	addi	a1,a1,316
    800034fc:	00a59593          	slli	a1,a1,0xa
    80003500:	33458593          	addi	a1,a1,820
    80003504:	00b5063b          	addw	a2,a0,a1
    80003508:	76c3b023          	sd	a2,1888(t2)
    8000350c:	5fafa0b7          	lui	ra,0x5fafa
    80003510:	dde0809b          	addiw	ra,ra,-546 # 5faf9dde <absimmsh+0x54029031>
    80003514:	00c08463          	beq	ra,a2,8000351c <inst_256>
    80003518:	b0dfc06f          	j	80000024 <rvtest_error>

000000008000351c <inst_256>:
    8000351c:	00500513          	li	a0,5
    80003520:	00300593          	li	a1,3
    80003524:	00b5063b          	addw	a2,a0,a1
    80003528:	76c3b423          	sd	a2,1896(t2)
    8000352c:	00800093          	li	ra,8
    80003530:	00c08463          	beq	ra,a2,80003538 <inst_257>
    80003534:	af1fc06f          	j	80000024 <rvtest_error>

0000000080003538 <inst_257>:
    80003538:	00500513          	li	a0,5
    8000353c:	555555b7          	lui	a1,0x55555
    80003540:	55558593          	addi	a1,a1,1365 # 55555555 <absimmsh+0x49a847a8>
    80003544:	00b59593          	slli	a1,a1,0xb
    80003548:	2aa58593          	addi	a1,a1,682
    8000354c:	00b59593          	slli	a1,a1,0xb
    80003550:	55558593          	addi	a1,a1,1365
    80003554:	00a59593          	slli	a1,a1,0xa
    80003558:	15558593          	addi	a1,a1,341
    8000355c:	00b5063b          	addw	a2,a0,a1
    80003560:	76c3b823          	sd	a2,1904(t2)
    80003564:	555550b7          	lui	ra,0x55555
    80003568:	55a0809b          	addiw	ra,ra,1370 # 5555555a <absimmsh+0x49a847ad>
    8000356c:	00c08463          	beq	ra,a2,80003574 <inst_258>
    80003570:	ab5fc06f          	j	80000024 <rvtest_error>

0000000080003574 <inst_258>:
    80003574:	00500513          	li	a0,5
    80003578:	aaaab5b7          	lui	a1,0xaaaab
    8000357c:	aaa58593          	addi	a1,a1,-1366 # ffffffffaaaaaaaa <absimm+0xfffffffeefd9cfda>
    80003580:	00b59593          	slli	a1,a1,0xb
    80003584:	55558593          	addi	a1,a1,1365
    80003588:	00b59593          	slli	a1,a1,0xb
    8000358c:	2aa58593          	addi	a1,a1,682
    80003590:	00a59593          	slli	a1,a1,0xa
    80003594:	2aa58593          	addi	a1,a1,682
    80003598:	00b5063b          	addw	a2,a0,a1
    8000359c:	76c3bc23          	sd	a2,1912(t2)
    800035a0:	aaaab0b7          	lui	ra,0xaaaab
    800035a4:	aaf0809b          	addiw	ra,ra,-1361 # ffffffffaaaaaaaf <absimm+0xfffffffeefd9cfdf>
    800035a8:	00c08463          	beq	ra,a2,800035b0 <inst_259>
    800035ac:	a79fc06f          	j	80000024 <rvtest_error>

00000000800035b0 <inst_259>:
    800035b0:	00500513          	li	a0,5
    800035b4:	00500593          	li	a1,5
    800035b8:	00b5063b          	addw	a2,a0,a1
    800035bc:	78c3b023          	sd	a2,1920(t2)
    800035c0:	00a00093          	li	ra,10
    800035c4:	00c08463          	beq	ra,a2,800035cc <inst_260>
    800035c8:	a5dfc06f          	j	80000024 <rvtest_error>

00000000800035cc <inst_260>:
    800035cc:	00500513          	li	a0,5
    800035d0:	333335b7          	lui	a1,0x33333
    800035d4:	33358593          	addi	a1,a1,819 # 33333333 <absimmsh+0x27862586>
    800035d8:	00b59593          	slli	a1,a1,0xb
    800035dc:	19958593          	addi	a1,a1,409
    800035e0:	00b59593          	slli	a1,a1,0xb
    800035e4:	4cc58593          	addi	a1,a1,1228
    800035e8:	00a59593          	slli	a1,a1,0xa
    800035ec:	33358593          	addi	a1,a1,819
    800035f0:	00b5063b          	addw	a2,a0,a1
    800035f4:	78c3b423          	sd	a2,1928(t2)
    800035f8:	333330b7          	lui	ra,0x33333
    800035fc:	3380809b          	addiw	ra,ra,824 # 33333338 <absimmsh+0x2786258b>
    80003600:	00c08463          	beq	ra,a2,80003608 <inst_261>
    80003604:	a21fc06f          	j	80000024 <rvtest_error>

0000000080003608 <inst_261>:
    80003608:	00500513          	li	a0,5
    8000360c:	666665b7          	lui	a1,0x66666
    80003610:	66658593          	addi	a1,a1,1638 # 66666666 <absimmsh+0x5ab958b9>
    80003614:	00b59593          	slli	a1,a1,0xb
    80003618:	33358593          	addi	a1,a1,819
    8000361c:	00b59593          	slli	a1,a1,0xb
    80003620:	19958593          	addi	a1,a1,409
    80003624:	00a59593          	slli	a1,a1,0xa
    80003628:	26658593          	addi	a1,a1,614
    8000362c:	00b5063b          	addw	a2,a0,a1
    80003630:	78c3b823          	sd	a2,1936(t2)
    80003634:	666660b7          	lui	ra,0x66666
    80003638:	66b0809b          	addiw	ra,ra,1643 # 6666666b <absimmsh+0x5ab958be>
    8000363c:	00c08463          	beq	ra,a2,80003644 <inst_262>
    80003640:	9e5fc06f          	j	80000024 <rvtest_error>

0000000080003644 <inst_262>:
    80003644:	00500513          	li	a0,5
    80003648:	000005b7          	lui	a1,0x0
    8000364c:	fff58593          	addi	a1,a1,-1
    80003650:	00b59593          	slli	a1,a1,0xb
    80003654:	25758593          	addi	a1,a1,599
    80003658:	00b59593          	slli	a1,a1,0xb
    8000365c:	6c358593          	addi	a1,a1,1731
    80003660:	00a59593          	slli	a1,a1,0xa
    80003664:	0cd58593          	addi	a1,a1,205
    80003668:	00b5063b          	addw	a2,a0,a1
    8000366c:	78c3bc23          	sd	a2,1944(t2)
    80003670:	4afb10b7          	lui	ra,0x4afb1
    80003674:	cd20809b          	addiw	ra,ra,-814 # 4afb0cd2 <absimmsh+0x3f4dff25>
    80003678:	00c08463          	beq	ra,a2,80003680 <inst_263>
    8000367c:	9a9fc06f          	j	80000024 <rvtest_error>

0000000080003680 <inst_263>:
    80003680:	00500513          	li	a0,5
    80003684:	000005b7          	lui	a1,0x0
    80003688:	00058593          	mv	a1,a1
    8000368c:	00b59593          	slli	a1,a1,0xb
    80003690:	5a858593          	addi	a1,a1,1448 # 5a8 <offset+0x110>
    80003694:	00b59593          	slli	a1,a1,0xb
    80003698:	13c58593          	addi	a1,a1,316
    8000369c:	00a59593          	slli	a1,a1,0xa
    800036a0:	33358593          	addi	a1,a1,819
    800036a4:	00b5063b          	addw	a2,a0,a1
    800036a8:	7ac3b023          	sd	a2,1952(t2)
    800036ac:	b504f0b7          	lui	ra,0xb504f
    800036b0:	3380809b          	addiw	ra,ra,824 # ffffffffb504f338 <absimm+0xfffffffefa341868>
    800036b4:	00c08463          	beq	ra,a2,800036bc <inst_264>
    800036b8:	96dfc06f          	j	80000024 <rvtest_error>

00000000800036bc <inst_264>:
    800036bc:	00500513          	li	a0,5
    800036c0:	00200593          	li	a1,2
    800036c4:	00b5063b          	addw	a2,a0,a1
    800036c8:	7ac3b423          	sd	a2,1960(t2)
    800036cc:	00700093          	li	ra,7
    800036d0:	00c08463          	beq	ra,a2,800036d8 <inst_265>
    800036d4:	951fc06f          	j	80000024 <rvtest_error>

00000000800036d8 <inst_265>:
    800036d8:	00500513          	li	a0,5
    800036dc:	555555b7          	lui	a1,0x55555
    800036e0:	55558593          	addi	a1,a1,1365 # 55555555 <absimmsh+0x49a847a8>
    800036e4:	00b59593          	slli	a1,a1,0xb
    800036e8:	2aa58593          	addi	a1,a1,682
    800036ec:	00b59593          	slli	a1,a1,0xb
    800036f0:	55558593          	addi	a1,a1,1365
    800036f4:	00a59593          	slli	a1,a1,0xa
    800036f8:	15458593          	addi	a1,a1,340
    800036fc:	00b5063b          	addw	a2,a0,a1
    80003700:	7ac3b823          	sd	a2,1968(t2)
    80003704:	555550b7          	lui	ra,0x55555
    80003708:	5590809b          	addiw	ra,ra,1369 # 55555559 <absimmsh+0x49a847ac>
    8000370c:	00c08463          	beq	ra,a2,80003714 <inst_266>
    80003710:	915fc06f          	j	80000024 <rvtest_error>

0000000080003714 <inst_266>:
    80003714:	00500513          	li	a0,5
    80003718:	00000593          	li	a1,0
    8000371c:	00b5063b          	addw	a2,a0,a1
    80003720:	7ac3bc23          	sd	a2,1976(t2)
    80003724:	00500093          	li	ra,5
    80003728:	00c08463          	beq	ra,a2,80003730 <inst_267>
    8000372c:	8f9fc06f          	j	80000024 <rvtest_error>

0000000080003730 <inst_267>:
    80003730:	00500513          	li	a0,5
    80003734:	00400593          	li	a1,4
    80003738:	00b5063b          	addw	a2,a0,a1
    8000373c:	7cc3b023          	sd	a2,1984(t2)
    80003740:	00900093          	li	ra,9
    80003744:	00c08463          	beq	ra,a2,8000374c <inst_268>
    80003748:	8ddfc06f          	j	80000024 <rvtest_error>

000000008000374c <inst_268>:
    8000374c:	00500513          	li	a0,5
    80003750:	333335b7          	lui	a1,0x33333
    80003754:	33358593          	addi	a1,a1,819 # 33333333 <absimmsh+0x27862586>
    80003758:	00b59593          	slli	a1,a1,0xb
    8000375c:	19958593          	addi	a1,a1,409
    80003760:	00b59593          	slli	a1,a1,0xb
    80003764:	4cc58593          	addi	a1,a1,1228
    80003768:	00a59593          	slli	a1,a1,0xa
    8000376c:	33258593          	addi	a1,a1,818
    80003770:	00b5063b          	addw	a2,a0,a1
    80003774:	7cc3b423          	sd	a2,1992(t2)
    80003778:	333330b7          	lui	ra,0x33333
    8000377c:	3370809b          	addiw	ra,ra,823 # 33333337 <absimmsh+0x2786258a>
    80003780:	00c08463          	beq	ra,a2,80003788 <inst_269>
    80003784:	8a1fc06f          	j	80000024 <rvtest_error>

0000000080003788 <inst_269>:
    80003788:	00500513          	li	a0,5
    8000378c:	666665b7          	lui	a1,0x66666
    80003790:	66658593          	addi	a1,a1,1638 # 66666666 <absimmsh+0x5ab958b9>
    80003794:	00b59593          	slli	a1,a1,0xb
    80003798:	33358593          	addi	a1,a1,819
    8000379c:	00b59593          	slli	a1,a1,0xb
    800037a0:	19958593          	addi	a1,a1,409
    800037a4:	00a59593          	slli	a1,a1,0xa
    800037a8:	26558593          	addi	a1,a1,613
    800037ac:	00b5063b          	addw	a2,a0,a1
    800037b0:	7cc3b823          	sd	a2,2000(t2)
    800037b4:	666660b7          	lui	ra,0x66666
    800037b8:	66a0809b          	addiw	ra,ra,1642 # 6666666a <absimmsh+0x5ab958bd>
    800037bc:	00c08463          	beq	ra,a2,800037c4 <inst_270>
    800037c0:	865fc06f          	j	80000024 <rvtest_error>

00000000800037c4 <inst_270>:
    800037c4:	00500513          	li	a0,5
    800037c8:	000005b7          	lui	a1,0x0
    800037cc:	00058593          	mv	a1,a1
    800037d0:	00b59593          	slli	a1,a1,0xb
    800037d4:	5a858593          	addi	a1,a1,1448 # 5a8 <offset+0x110>
    800037d8:	00b59593          	slli	a1,a1,0xb
    800037dc:	13c58593          	addi	a1,a1,316
    800037e0:	00a59593          	slli	a1,a1,0xa
    800037e4:	33258593          	addi	a1,a1,818
    800037e8:	00b5063b          	addw	a2,a0,a1
    800037ec:	7cc3bc23          	sd	a2,2008(t2)
    800037f0:	b504f0b7          	lui	ra,0xb504f
    800037f4:	3370809b          	addiw	ra,ra,823 # ffffffffb504f337 <absimm+0xfffffffefa341867>
    800037f8:	00c08463          	beq	ra,a2,80003800 <inst_271>
    800037fc:	829fc06f          	j	80000024 <rvtest_error>

0000000080003800 <inst_271>:
    80003800:	00500513          	li	a0,5
    80003804:	555555b7          	lui	a1,0x55555
    80003808:	55558593          	addi	a1,a1,1365 # 55555555 <absimmsh+0x49a847a8>
    8000380c:	00b59593          	slli	a1,a1,0xb
    80003810:	2aa58593          	addi	a1,a1,682
    80003814:	00b59593          	slli	a1,a1,0xb
    80003818:	55558593          	addi	a1,a1,1365
    8000381c:	00a59593          	slli	a1,a1,0xa
    80003820:	15658593          	addi	a1,a1,342
    80003824:	00b5063b          	addw	a2,a0,a1
    80003828:	7ec3b023          	sd	a2,2016(t2)
    8000382c:	555550b7          	lui	ra,0x55555
    80003830:	55b0809b          	addiw	ra,ra,1371 # 5555555b <absimmsh+0x49a847ae>
    80003834:	00c08463          	beq	ra,a2,8000383c <inst_272>
    80003838:	fecfc06f          	j	80000024 <rvtest_error>

000000008000383c <inst_272>:
    8000383c:	00500513          	li	a0,5
    80003840:	aaaab5b7          	lui	a1,0xaaaab
    80003844:	aaa58593          	addi	a1,a1,-1366 # ffffffffaaaaaaaa <absimm+0xfffffffeefd9cfda>
    80003848:	00b59593          	slli	a1,a1,0xb
    8000384c:	55558593          	addi	a1,a1,1365
    80003850:	00b59593          	slli	a1,a1,0xb
    80003854:	2aa58593          	addi	a1,a1,682
    80003858:	00a59593          	slli	a1,a1,0xa
    8000385c:	2ab58593          	addi	a1,a1,683
    80003860:	00b5063b          	addw	a2,a0,a1
    80003864:	7ec3b423          	sd	a2,2024(t2)
    80003868:	aaaab0b7          	lui	ra,0xaaaab
    8000386c:	ab00809b          	addiw	ra,ra,-1360 # ffffffffaaaaaab0 <absimm+0xfffffffeefd9cfe0>
    80003870:	00c08463          	beq	ra,a2,80003878 <inst_273>
    80003874:	fb0fc06f          	j	80000024 <rvtest_error>

0000000080003878 <inst_273>:
    80003878:	00500513          	li	a0,5
    8000387c:	00600593          	li	a1,6
    80003880:	00b5063b          	addw	a2,a0,a1
    80003884:	7ec3b823          	sd	a2,2032(t2)
    80003888:	00b00093          	li	ra,11
    8000388c:	00c08463          	beq	ra,a2,80003894 <inst_274>
    80003890:	f94fc06f          	j	80000024 <rvtest_error>

0000000080003894 <inst_274>:
    80003894:	00500513          	li	a0,5
    80003898:	333335b7          	lui	a1,0x33333
    8000389c:	33358593          	addi	a1,a1,819 # 33333333 <absimmsh+0x27862586>
    800038a0:	00b59593          	slli	a1,a1,0xb
    800038a4:	19958593          	addi	a1,a1,409
    800038a8:	00b59593          	slli	a1,a1,0xb
    800038ac:	4cc58593          	addi	a1,a1,1228
    800038b0:	00a59593          	slli	a1,a1,0xa
    800038b4:	33458593          	addi	a1,a1,820
    800038b8:	00b5063b          	addw	a2,a0,a1
    800038bc:	7ec3bc23          	sd	a2,2040(t2)
    800038c0:	333330b7          	lui	ra,0x33333
    800038c4:	3390809b          	addiw	ra,ra,825 # 33333339 <absimmsh+0x2786258c>
    800038c8:	00c08463          	beq	ra,a2,800038d0 <inst_274+0x3c>
    800038cc:	f58fc06f          	j	80000024 <rvtest_error>
    800038d0:	00000013          	nop
    800038d4:	00000013          	nop
    800038d8:	00000013          	nop
    800038dc:	00000013          	nop
    800038e0:	00009397          	auipc	t2,0x9
    800038e4:	fc038393          	addi	t2,t2,-64 # 8000c8a0 <signature_x7_1>
    800038e8:	00000013          	nop
    800038ec:	00000013          	nop
    800038f0:	00000013          	nop
    800038f4:	00000013          	nop
    800038f8:	00000013          	nop
    800038fc:	00000013          	nop

0000000080003900 <inst_275>:
    80003900:	00500513          	li	a0,5
    80003904:	666665b7          	lui	a1,0x66666
    80003908:	66658593          	addi	a1,a1,1638 # 66666666 <absimmsh+0x5ab958b9>
    8000390c:	00b59593          	slli	a1,a1,0xb
    80003910:	33358593          	addi	a1,a1,819
    80003914:	00b59593          	slli	a1,a1,0xb
    80003918:	19958593          	addi	a1,a1,409
    8000391c:	00a59593          	slli	a1,a1,0xa
    80003920:	26758593          	addi	a1,a1,615
    80003924:	00b5063b          	addw	a2,a0,a1
    80003928:	00c3b023          	sd	a2,0(t2)
    8000392c:	666660b7          	lui	ra,0x66666
    80003930:	66c0809b          	addiw	ra,ra,1644 # 6666666c <absimmsh+0x5ab958bf>
    80003934:	00c08463          	beq	ra,a2,8000393c <inst_276>
    80003938:	eecfc06f          	j	80000024 <rvtest_error>

000000008000393c <inst_276>:
    8000393c:	00500513          	li	a0,5
    80003940:	000005b7          	lui	a1,0x0
    80003944:	fff58593          	addi	a1,a1,-1
    80003948:	00b59593          	slli	a1,a1,0xb
    8000394c:	25758593          	addi	a1,a1,599
    80003950:	00b59593          	slli	a1,a1,0xb
    80003954:	6c358593          	addi	a1,a1,1731
    80003958:	00a59593          	slli	a1,a1,0xa
    8000395c:	0ce58593          	addi	a1,a1,206
    80003960:	00b5063b          	addw	a2,a0,a1
    80003964:	00c3b423          	sd	a2,8(t2)
    80003968:	4afb10b7          	lui	ra,0x4afb1
    8000396c:	cd30809b          	addiw	ra,ra,-813 # 4afb0cd3 <absimmsh+0x3f4dff26>
    80003970:	00c08463          	beq	ra,a2,80003978 <inst_277>
    80003974:	eb0fc06f          	j	80000024 <rvtest_error>

0000000080003978 <inst_277>:
    80003978:	00500513          	li	a0,5
    8000397c:	000005b7          	lui	a1,0x0
    80003980:	00058593          	mv	a1,a1
    80003984:	00b59593          	slli	a1,a1,0xb
    80003988:	5a858593          	addi	a1,a1,1448 # 5a8 <offset+0x110>
    8000398c:	00b59593          	slli	a1,a1,0xb
    80003990:	13c58593          	addi	a1,a1,316
    80003994:	00a59593          	slli	a1,a1,0xa
    80003998:	33458593          	addi	a1,a1,820
    8000399c:	00b5063b          	addw	a2,a0,a1
    800039a0:	00c3b823          	sd	a2,16(t2)
    800039a4:	b504f0b7          	lui	ra,0xb504f
    800039a8:	3390809b          	addiw	ra,ra,825 # ffffffffb504f339 <absimm+0xfffffffefa341869>
    800039ac:	00c08463          	beq	ra,a2,800039b4 <inst_278>
    800039b0:	e74fc06f          	j	80000024 <rvtest_error>

00000000800039b4 <inst_278>:
    800039b4:	33333537          	lui	a0,0x33333
    800039b8:	33350513          	addi	a0,a0,819 # 33333333 <absimmsh+0x27862586>
    800039bc:	00b51513          	slli	a0,a0,0xb
    800039c0:	19950513          	addi	a0,a0,409
    800039c4:	00b51513          	slli	a0,a0,0xb
    800039c8:	4cc50513          	addi	a0,a0,1228
    800039cc:	00a51513          	slli	a0,a0,0xa
    800039d0:	33350513          	addi	a0,a0,819
    800039d4:	00300593          	li	a1,3
    800039d8:	00b5063b          	addw	a2,a0,a1
    800039dc:	00c3bc23          	sd	a2,24(t2)
    800039e0:	333330b7          	lui	ra,0x33333
    800039e4:	3360809b          	addiw	ra,ra,822 # 33333336 <absimmsh+0x27862589>
    800039e8:	00c08463          	beq	ra,a2,800039f0 <inst_279>
    800039ec:	e38fc06f          	j	80000024 <rvtest_error>

00000000800039f0 <inst_279>:
    800039f0:	33333537          	lui	a0,0x33333
    800039f4:	33350513          	addi	a0,a0,819 # 33333333 <absimmsh+0x27862586>
    800039f8:	00b51513          	slli	a0,a0,0xb
    800039fc:	19950513          	addi	a0,a0,409
    80003a00:	00b51513          	slli	a0,a0,0xb
    80003a04:	4cc50513          	addi	a0,a0,1228
    80003a08:	00a51513          	slli	a0,a0,0xa
    80003a0c:	33350513          	addi	a0,a0,819
    80003a10:	555555b7          	lui	a1,0x55555
    80003a14:	55558593          	addi	a1,a1,1365 # 55555555 <absimmsh+0x49a847a8>
    80003a18:	00b59593          	slli	a1,a1,0xb
    80003a1c:	2aa58593          	addi	a1,a1,682
    80003a20:	00b59593          	slli	a1,a1,0xb
    80003a24:	55558593          	addi	a1,a1,1365
    80003a28:	00a59593          	slli	a1,a1,0xa
    80003a2c:	15558593          	addi	a1,a1,341
    80003a30:	00b5063b          	addw	a2,a0,a1
    80003a34:	02c3b023          	sd	a2,32(t2)
    80003a38:	888890b7          	lui	ra,0x88889
    80003a3c:	8880809b          	addiw	ra,ra,-1912 # ffffffff88888888 <absimm+0xfffffffecdb7adb8>
    80003a40:	00c08463          	beq	ra,a2,80003a48 <inst_280>
    80003a44:	de0fc06f          	j	80000024 <rvtest_error>

0000000080003a48 <inst_280>:
    80003a48:	33333537          	lui	a0,0x33333
    80003a4c:	33350513          	addi	a0,a0,819 # 33333333 <absimmsh+0x27862586>
    80003a50:	00b51513          	slli	a0,a0,0xb
    80003a54:	19950513          	addi	a0,a0,409
    80003a58:	00b51513          	slli	a0,a0,0xb
    80003a5c:	4cc50513          	addi	a0,a0,1228
    80003a60:	00a51513          	slli	a0,a0,0xa
    80003a64:	33350513          	addi	a0,a0,819
    80003a68:	aaaab5b7          	lui	a1,0xaaaab
    80003a6c:	aaa58593          	addi	a1,a1,-1366 # ffffffffaaaaaaaa <absimm+0xfffffffeefd9cfda>
    80003a70:	00b59593          	slli	a1,a1,0xb
    80003a74:	55558593          	addi	a1,a1,1365
    80003a78:	00b59593          	slli	a1,a1,0xb
    80003a7c:	2aa58593          	addi	a1,a1,682
    80003a80:	00a59593          	slli	a1,a1,0xa
    80003a84:	2aa58593          	addi	a1,a1,682
    80003a88:	00b5063b          	addw	a2,a0,a1
    80003a8c:	02c3b423          	sd	a2,40(t2)
    80003a90:	dddde0b7          	lui	ra,0xdddde
    80003a94:	ddd0809b          	addiw	ra,ra,-547 # ffffffffdddddddd <absimm+0xffffffff230d030d>
    80003a98:	00c08463          	beq	ra,a2,80003aa0 <inst_281>
    80003a9c:	d88fc06f          	j	80000024 <rvtest_error>

0000000080003aa0 <inst_281>:
    80003aa0:	33333537          	lui	a0,0x33333
    80003aa4:	33350513          	addi	a0,a0,819 # 33333333 <absimmsh+0x27862586>
    80003aa8:	00b51513          	slli	a0,a0,0xb
    80003aac:	19950513          	addi	a0,a0,409
    80003ab0:	00b51513          	slli	a0,a0,0xb
    80003ab4:	4cc50513          	addi	a0,a0,1228
    80003ab8:	00a51513          	slli	a0,a0,0xa
    80003abc:	33350513          	addi	a0,a0,819
    80003ac0:	00500593          	li	a1,5
    80003ac4:	00b5063b          	addw	a2,a0,a1
    80003ac8:	02c3b823          	sd	a2,48(t2)
    80003acc:	333330b7          	lui	ra,0x33333
    80003ad0:	3380809b          	addiw	ra,ra,824 # 33333338 <absimmsh+0x2786258b>
    80003ad4:	00c08463          	beq	ra,a2,80003adc <inst_282>
    80003ad8:	d4cfc06f          	j	80000024 <rvtest_error>

0000000080003adc <inst_282>:
    80003adc:	33333537          	lui	a0,0x33333
    80003ae0:	33350513          	addi	a0,a0,819 # 33333333 <absimmsh+0x27862586>
    80003ae4:	00b51513          	slli	a0,a0,0xb
    80003ae8:	19950513          	addi	a0,a0,409
    80003aec:	00b51513          	slli	a0,a0,0xb
    80003af0:	4cc50513          	addi	a0,a0,1228
    80003af4:	00a51513          	slli	a0,a0,0xa
    80003af8:	33350513          	addi	a0,a0,819
    80003afc:	333335b7          	lui	a1,0x33333
    80003b00:	33358593          	addi	a1,a1,819 # 33333333 <absimmsh+0x27862586>
    80003b04:	00b59593          	slli	a1,a1,0xb
    80003b08:	19958593          	addi	a1,a1,409
    80003b0c:	00b59593          	slli	a1,a1,0xb
    80003b10:	4cc58593          	addi	a1,a1,1228
    80003b14:	00a59593          	slli	a1,a1,0xa
    80003b18:	33358593          	addi	a1,a1,819
    80003b1c:	00b5063b          	addw	a2,a0,a1
    80003b20:	02c3bc23          	sd	a2,56(t2)
    80003b24:	666660b7          	lui	ra,0x66666
    80003b28:	6660809b          	addiw	ra,ra,1638 # 66666666 <absimmsh+0x5ab958b9>
    80003b2c:	00c08463          	beq	ra,a2,80003b34 <inst_283>
    80003b30:	cf4fc06f          	j	80000024 <rvtest_error>

0000000080003b34 <inst_283>:
    80003b34:	33333537          	lui	a0,0x33333
    80003b38:	33350513          	addi	a0,a0,819 # 33333333 <absimmsh+0x27862586>
    80003b3c:	00b51513          	slli	a0,a0,0xb
    80003b40:	19950513          	addi	a0,a0,409
    80003b44:	00b51513          	slli	a0,a0,0xb
    80003b48:	4cc50513          	addi	a0,a0,1228
    80003b4c:	00a51513          	slli	a0,a0,0xa
    80003b50:	33350513          	addi	a0,a0,819
    80003b54:	666665b7          	lui	a1,0x66666
    80003b58:	66658593          	addi	a1,a1,1638 # 66666666 <absimmsh+0x5ab958b9>
    80003b5c:	00b59593          	slli	a1,a1,0xb
    80003b60:	33358593          	addi	a1,a1,819
    80003b64:	00b59593          	slli	a1,a1,0xb
    80003b68:	19958593          	addi	a1,a1,409
    80003b6c:	00a59593          	slli	a1,a1,0xa
    80003b70:	26658593          	addi	a1,a1,614
    80003b74:	00b5063b          	addw	a2,a0,a1
    80003b78:	04c3b023          	sd	a2,64(t2)
    80003b7c:	9999a0b7          	lui	ra,0x9999a
    80003b80:	9990809b          	addiw	ra,ra,-1639 # ffffffff99999999 <absimm+0xfffffffedec8bec9>
    80003b84:	00c08463          	beq	ra,a2,80003b8c <inst_284>
    80003b88:	c9cfc06f          	j	80000024 <rvtest_error>

0000000080003b8c <inst_284>:
    80003b8c:	33333537          	lui	a0,0x33333
    80003b90:	33350513          	addi	a0,a0,819 # 33333333 <absimmsh+0x27862586>
    80003b94:	00b51513          	slli	a0,a0,0xb
    80003b98:	19950513          	addi	a0,a0,409
    80003b9c:	00b51513          	slli	a0,a0,0xb
    80003ba0:	4cc50513          	addi	a0,a0,1228
    80003ba4:	00a51513          	slli	a0,a0,0xa
    80003ba8:	33350513          	addi	a0,a0,819
    80003bac:	000005b7          	lui	a1,0x0
    80003bb0:	fff58593          	addi	a1,a1,-1
    80003bb4:	00b59593          	slli	a1,a1,0xb
    80003bb8:	25758593          	addi	a1,a1,599
    80003bbc:	00b59593          	slli	a1,a1,0xb
    80003bc0:	6c358593          	addi	a1,a1,1731
    80003bc4:	00a59593          	slli	a1,a1,0xa
    80003bc8:	0cd58593          	addi	a1,a1,205
    80003bcc:	00b5063b          	addw	a2,a0,a1
    80003bd0:	04c3b423          	sd	a2,72(t2)
    80003bd4:	7e2e40b7          	lui	ra,0x7e2e4
    80003bd8:	00c08463          	beq	ra,a2,80003be0 <inst_285>
    80003bdc:	c48fc06f          	j	80000024 <rvtest_error>

0000000080003be0 <inst_285>:
    80003be0:	33333537          	lui	a0,0x33333
    80003be4:	33350513          	addi	a0,a0,819 # 33333333 <absimmsh+0x27862586>
    80003be8:	00b51513          	slli	a0,a0,0xb
    80003bec:	19950513          	addi	a0,a0,409
    80003bf0:	00b51513          	slli	a0,a0,0xb
    80003bf4:	4cc50513          	addi	a0,a0,1228
    80003bf8:	00a51513          	slli	a0,a0,0xa
    80003bfc:	33350513          	addi	a0,a0,819
    80003c00:	000005b7          	lui	a1,0x0
    80003c04:	00058593          	mv	a1,a1
    80003c08:	00b59593          	slli	a1,a1,0xb
    80003c0c:	5a858593          	addi	a1,a1,1448 # 5a8 <offset+0x110>
    80003c10:	00b59593          	slli	a1,a1,0xb
    80003c14:	13c58593          	addi	a1,a1,316
    80003c18:	00a59593          	slli	a1,a1,0xa
    80003c1c:	33358593          	addi	a1,a1,819
    80003c20:	00b5063b          	addw	a2,a0,a1
    80003c24:	04c3b823          	sd	a2,80(t2)
    80003c28:	e83820b7          	lui	ra,0xe8382
    80003c2c:	6660809b          	addiw	ra,ra,1638 # ffffffffe8382666 <absimm+0xffffffff2d674b96>
    80003c30:	00c08463          	beq	ra,a2,80003c38 <inst_286>
    80003c34:	bf0fc06f          	j	80000024 <rvtest_error>

0000000080003c38 <inst_286>:
    80003c38:	33333537          	lui	a0,0x33333
    80003c3c:	33350513          	addi	a0,a0,819 # 33333333 <absimmsh+0x27862586>
    80003c40:	00b51513          	slli	a0,a0,0xb
    80003c44:	19950513          	addi	a0,a0,409
    80003c48:	00b51513          	slli	a0,a0,0xb
    80003c4c:	4cc50513          	addi	a0,a0,1228
    80003c50:	00a51513          	slli	a0,a0,0xa
    80003c54:	33350513          	addi	a0,a0,819
    80003c58:	00200593          	li	a1,2
    80003c5c:	00b5063b          	addw	a2,a0,a1
    80003c60:	04c3bc23          	sd	a2,88(t2)
    80003c64:	333330b7          	lui	ra,0x33333
    80003c68:	3350809b          	addiw	ra,ra,821 # 33333335 <absimmsh+0x27862588>
    80003c6c:	00c08463          	beq	ra,a2,80003c74 <inst_287>
    80003c70:	bb4fc06f          	j	80000024 <rvtest_error>

0000000080003c74 <inst_287>:
    80003c74:	33333537          	lui	a0,0x33333
    80003c78:	33350513          	addi	a0,a0,819 # 33333333 <absimmsh+0x27862586>
    80003c7c:	00b51513          	slli	a0,a0,0xb
    80003c80:	19950513          	addi	a0,a0,409
    80003c84:	00b51513          	slli	a0,a0,0xb
    80003c88:	4cc50513          	addi	a0,a0,1228
    80003c8c:	00a51513          	slli	a0,a0,0xa
    80003c90:	33350513          	addi	a0,a0,819
    80003c94:	555555b7          	lui	a1,0x55555
    80003c98:	55558593          	addi	a1,a1,1365 # 55555555 <absimmsh+0x49a847a8>
    80003c9c:	00b59593          	slli	a1,a1,0xb
    80003ca0:	2aa58593          	addi	a1,a1,682
    80003ca4:	00b59593          	slli	a1,a1,0xb
    80003ca8:	55558593          	addi	a1,a1,1365
    80003cac:	00a59593          	slli	a1,a1,0xa
    80003cb0:	15458593          	addi	a1,a1,340
    80003cb4:	00b5063b          	addw	a2,a0,a1
    80003cb8:	06c3b023          	sd	a2,96(t2)
    80003cbc:	888890b7          	lui	ra,0x88889
    80003cc0:	8870809b          	addiw	ra,ra,-1913 # ffffffff88888887 <absimm+0xfffffffecdb7adb7>
    80003cc4:	00c08463          	beq	ra,a2,80003ccc <inst_288>
    80003cc8:	b5cfc06f          	j	80000024 <rvtest_error>

0000000080003ccc <inst_288>:
    80003ccc:	33333537          	lui	a0,0x33333
    80003cd0:	33350513          	addi	a0,a0,819 # 33333333 <absimmsh+0x27862586>
    80003cd4:	00b51513          	slli	a0,a0,0xb
    80003cd8:	19950513          	addi	a0,a0,409
    80003cdc:	00b51513          	slli	a0,a0,0xb
    80003ce0:	4cc50513          	addi	a0,a0,1228
    80003ce4:	00a51513          	slli	a0,a0,0xa
    80003ce8:	33350513          	addi	a0,a0,819
    80003cec:	00000593          	li	a1,0
    80003cf0:	00b5063b          	addw	a2,a0,a1
    80003cf4:	06c3b423          	sd	a2,104(t2)
    80003cf8:	333330b7          	lui	ra,0x33333
    80003cfc:	3330809b          	addiw	ra,ra,819 # 33333333 <absimmsh+0x27862586>
    80003d00:	00c08463          	beq	ra,a2,80003d08 <inst_289>
    80003d04:	b20fc06f          	j	80000024 <rvtest_error>

0000000080003d08 <inst_289>:
    80003d08:	33333537          	lui	a0,0x33333
    80003d0c:	33350513          	addi	a0,a0,819 # 33333333 <absimmsh+0x27862586>
    80003d10:	00b51513          	slli	a0,a0,0xb
    80003d14:	19950513          	addi	a0,a0,409
    80003d18:	00b51513          	slli	a0,a0,0xb
    80003d1c:	4cc50513          	addi	a0,a0,1228
    80003d20:	00a51513          	slli	a0,a0,0xa
    80003d24:	33350513          	addi	a0,a0,819
    80003d28:	00400593          	li	a1,4
    80003d2c:	00b5063b          	addw	a2,a0,a1
    80003d30:	06c3b823          	sd	a2,112(t2)
    80003d34:	333330b7          	lui	ra,0x33333
    80003d38:	3370809b          	addiw	ra,ra,823 # 33333337 <absimmsh+0x2786258a>
    80003d3c:	00c08463          	beq	ra,a2,80003d44 <inst_290>
    80003d40:	ae4fc06f          	j	80000024 <rvtest_error>

0000000080003d44 <inst_290>:
    80003d44:	33333537          	lui	a0,0x33333
    80003d48:	33350513          	addi	a0,a0,819 # 33333333 <absimmsh+0x27862586>
    80003d4c:	00b51513          	slli	a0,a0,0xb
    80003d50:	19950513          	addi	a0,a0,409
    80003d54:	00b51513          	slli	a0,a0,0xb
    80003d58:	4cc50513          	addi	a0,a0,1228
    80003d5c:	00a51513          	slli	a0,a0,0xa
    80003d60:	33350513          	addi	a0,a0,819
    80003d64:	333335b7          	lui	a1,0x33333
    80003d68:	33358593          	addi	a1,a1,819 # 33333333 <absimmsh+0x27862586>
    80003d6c:	00b59593          	slli	a1,a1,0xb
    80003d70:	19958593          	addi	a1,a1,409
    80003d74:	00b59593          	slli	a1,a1,0xb
    80003d78:	4cc58593          	addi	a1,a1,1228
    80003d7c:	00a59593          	slli	a1,a1,0xa
    80003d80:	33258593          	addi	a1,a1,818
    80003d84:	00b5063b          	addw	a2,a0,a1
    80003d88:	06c3bc23          	sd	a2,120(t2)
    80003d8c:	666660b7          	lui	ra,0x66666
    80003d90:	6650809b          	addiw	ra,ra,1637 # 66666665 <absimmsh+0x5ab958b8>
    80003d94:	00c08463          	beq	ra,a2,80003d9c <inst_291>
    80003d98:	a8cfc06f          	j	80000024 <rvtest_error>

0000000080003d9c <inst_291>:
    80003d9c:	33333537          	lui	a0,0x33333
    80003da0:	33350513          	addi	a0,a0,819 # 33333333 <absimmsh+0x27862586>
    80003da4:	00b51513          	slli	a0,a0,0xb
    80003da8:	19950513          	addi	a0,a0,409
    80003dac:	00b51513          	slli	a0,a0,0xb
    80003db0:	4cc50513          	addi	a0,a0,1228
    80003db4:	00a51513          	slli	a0,a0,0xa
    80003db8:	33350513          	addi	a0,a0,819
    80003dbc:	666665b7          	lui	a1,0x66666
    80003dc0:	66658593          	addi	a1,a1,1638 # 66666666 <absimmsh+0x5ab958b9>
    80003dc4:	00b59593          	slli	a1,a1,0xb
    80003dc8:	33358593          	addi	a1,a1,819
    80003dcc:	00b59593          	slli	a1,a1,0xb
    80003dd0:	19958593          	addi	a1,a1,409
    80003dd4:	00a59593          	slli	a1,a1,0xa
    80003dd8:	26558593          	addi	a1,a1,613
    80003ddc:	00b5063b          	addw	a2,a0,a1
    80003de0:	08c3b023          	sd	a2,128(t2)
    80003de4:	9999a0b7          	lui	ra,0x9999a
    80003de8:	9980809b          	addiw	ra,ra,-1640 # ffffffff99999998 <absimm+0xfffffffedec8bec8>
    80003dec:	00c08463          	beq	ra,a2,80003df4 <inst_292>
    80003df0:	a34fc06f          	j	80000024 <rvtest_error>

0000000080003df4 <inst_292>:
    80003df4:	33333537          	lui	a0,0x33333
    80003df8:	33350513          	addi	a0,a0,819 # 33333333 <absimmsh+0x27862586>
    80003dfc:	00b51513          	slli	a0,a0,0xb
    80003e00:	19950513          	addi	a0,a0,409
    80003e04:	00b51513          	slli	a0,a0,0xb
    80003e08:	4cc50513          	addi	a0,a0,1228
    80003e0c:	00a51513          	slli	a0,a0,0xa
    80003e10:	33350513          	addi	a0,a0,819
    80003e14:	000005b7          	lui	a1,0x0
    80003e18:	00058593          	mv	a1,a1
    80003e1c:	00b59593          	slli	a1,a1,0xb
    80003e20:	5a858593          	addi	a1,a1,1448 # 5a8 <offset+0x110>
    80003e24:	00b59593          	slli	a1,a1,0xb
    80003e28:	13c58593          	addi	a1,a1,316
    80003e2c:	00a59593          	slli	a1,a1,0xa
    80003e30:	33258593          	addi	a1,a1,818
    80003e34:	00b5063b          	addw	a2,a0,a1
    80003e38:	08c3b423          	sd	a2,136(t2)
    80003e3c:	e83820b7          	lui	ra,0xe8382
    80003e40:	6650809b          	addiw	ra,ra,1637 # ffffffffe8382665 <absimm+0xffffffff2d674b95>
    80003e44:	00c08463          	beq	ra,a2,80003e4c <inst_293>
    80003e48:	9dcfc06f          	j	80000024 <rvtest_error>

0000000080003e4c <inst_293>:
    80003e4c:	33333537          	lui	a0,0x33333
    80003e50:	33350513          	addi	a0,a0,819 # 33333333 <absimmsh+0x27862586>
    80003e54:	00b51513          	slli	a0,a0,0xb
    80003e58:	19950513          	addi	a0,a0,409
    80003e5c:	00b51513          	slli	a0,a0,0xb
    80003e60:	4cc50513          	addi	a0,a0,1228
    80003e64:	00a51513          	slli	a0,a0,0xa
    80003e68:	33350513          	addi	a0,a0,819
    80003e6c:	555555b7          	lui	a1,0x55555
    80003e70:	55558593          	addi	a1,a1,1365 # 55555555 <absimmsh+0x49a847a8>
    80003e74:	00b59593          	slli	a1,a1,0xb
    80003e78:	2aa58593          	addi	a1,a1,682
    80003e7c:	00b59593          	slli	a1,a1,0xb
    80003e80:	55558593          	addi	a1,a1,1365
    80003e84:	00a59593          	slli	a1,a1,0xa
    80003e88:	15658593          	addi	a1,a1,342
    80003e8c:	00b5063b          	addw	a2,a0,a1
    80003e90:	08c3b823          	sd	a2,144(t2)
    80003e94:	888890b7          	lui	ra,0x88889
    80003e98:	8890809b          	addiw	ra,ra,-1911 # ffffffff88888889 <absimm+0xfffffffecdb7adb9>
    80003e9c:	00c08463          	beq	ra,a2,80003ea4 <inst_294>
    80003ea0:	984fc06f          	j	80000024 <rvtest_error>

0000000080003ea4 <inst_294>:
    80003ea4:	33333537          	lui	a0,0x33333
    80003ea8:	33350513          	addi	a0,a0,819 # 33333333 <absimmsh+0x27862586>
    80003eac:	00b51513          	slli	a0,a0,0xb
    80003eb0:	19950513          	addi	a0,a0,409
    80003eb4:	00b51513          	slli	a0,a0,0xb
    80003eb8:	4cc50513          	addi	a0,a0,1228
    80003ebc:	00a51513          	slli	a0,a0,0xa
    80003ec0:	33350513          	addi	a0,a0,819
    80003ec4:	aaaab5b7          	lui	a1,0xaaaab
    80003ec8:	aaa58593          	addi	a1,a1,-1366 # ffffffffaaaaaaaa <absimm+0xfffffffeefd9cfda>
    80003ecc:	00b59593          	slli	a1,a1,0xb
    80003ed0:	55558593          	addi	a1,a1,1365
    80003ed4:	00b59593          	slli	a1,a1,0xb
    80003ed8:	2aa58593          	addi	a1,a1,682
    80003edc:	00a59593          	slli	a1,a1,0xa
    80003ee0:	2ab58593          	addi	a1,a1,683
    80003ee4:	00b5063b          	addw	a2,a0,a1
    80003ee8:	08c3bc23          	sd	a2,152(t2)
    80003eec:	dddde0b7          	lui	ra,0xdddde
    80003ef0:	dde0809b          	addiw	ra,ra,-546 # ffffffffddddddde <absimm+0xffffffff230d030e>
    80003ef4:	00c08463          	beq	ra,a2,80003efc <inst_295>
    80003ef8:	92cfc06f          	j	80000024 <rvtest_error>

0000000080003efc <inst_295>:
    80003efc:	33333537          	lui	a0,0x33333
    80003f00:	33350513          	addi	a0,a0,819 # 33333333 <absimmsh+0x27862586>
    80003f04:	00b51513          	slli	a0,a0,0xb
    80003f08:	19950513          	addi	a0,a0,409
    80003f0c:	00b51513          	slli	a0,a0,0xb
    80003f10:	4cc50513          	addi	a0,a0,1228
    80003f14:	00a51513          	slli	a0,a0,0xa
    80003f18:	33350513          	addi	a0,a0,819
    80003f1c:	00600593          	li	a1,6
    80003f20:	00b5063b          	addw	a2,a0,a1
    80003f24:	0ac3b023          	sd	a2,160(t2)
    80003f28:	333330b7          	lui	ra,0x33333
    80003f2c:	3390809b          	addiw	ra,ra,825 # 33333339 <absimmsh+0x2786258c>
    80003f30:	00c08463          	beq	ra,a2,80003f38 <inst_296>
    80003f34:	8f0fc06f          	j	80000024 <rvtest_error>

0000000080003f38 <inst_296>:
    80003f38:	33333537          	lui	a0,0x33333
    80003f3c:	33350513          	addi	a0,a0,819 # 33333333 <absimmsh+0x27862586>
    80003f40:	00b51513          	slli	a0,a0,0xb
    80003f44:	19950513          	addi	a0,a0,409
    80003f48:	00b51513          	slli	a0,a0,0xb
    80003f4c:	4cc50513          	addi	a0,a0,1228
    80003f50:	00a51513          	slli	a0,a0,0xa
    80003f54:	33350513          	addi	a0,a0,819
    80003f58:	333335b7          	lui	a1,0x33333
    80003f5c:	33358593          	addi	a1,a1,819 # 33333333 <absimmsh+0x27862586>
    80003f60:	00b59593          	slli	a1,a1,0xb
    80003f64:	19958593          	addi	a1,a1,409
    80003f68:	00b59593          	slli	a1,a1,0xb
    80003f6c:	4cc58593          	addi	a1,a1,1228
    80003f70:	00a59593          	slli	a1,a1,0xa
    80003f74:	33458593          	addi	a1,a1,820
    80003f78:	00b5063b          	addw	a2,a0,a1
    80003f7c:	0ac3b423          	sd	a2,168(t2)
    80003f80:	666660b7          	lui	ra,0x66666
    80003f84:	6670809b          	addiw	ra,ra,1639 # 66666667 <absimmsh+0x5ab958ba>
    80003f88:	00c08463          	beq	ra,a2,80003f90 <inst_297>
    80003f8c:	898fc06f          	j	80000024 <rvtest_error>

0000000080003f90 <inst_297>:
    80003f90:	33333537          	lui	a0,0x33333
    80003f94:	33350513          	addi	a0,a0,819 # 33333333 <absimmsh+0x27862586>
    80003f98:	00b51513          	slli	a0,a0,0xb
    80003f9c:	19950513          	addi	a0,a0,409
    80003fa0:	00b51513          	slli	a0,a0,0xb
    80003fa4:	4cc50513          	addi	a0,a0,1228
    80003fa8:	00a51513          	slli	a0,a0,0xa
    80003fac:	33350513          	addi	a0,a0,819
    80003fb0:	666665b7          	lui	a1,0x66666
    80003fb4:	66658593          	addi	a1,a1,1638 # 66666666 <absimmsh+0x5ab958b9>
    80003fb8:	00b59593          	slli	a1,a1,0xb
    80003fbc:	33358593          	addi	a1,a1,819
    80003fc0:	00b59593          	slli	a1,a1,0xb
    80003fc4:	19958593          	addi	a1,a1,409
    80003fc8:	00a59593          	slli	a1,a1,0xa
    80003fcc:	26758593          	addi	a1,a1,615
    80003fd0:	00b5063b          	addw	a2,a0,a1
    80003fd4:	0ac3b823          	sd	a2,176(t2)
    80003fd8:	9999a0b7          	lui	ra,0x9999a
    80003fdc:	99a0809b          	addiw	ra,ra,-1638 # ffffffff9999999a <absimm+0xfffffffedec8beca>
    80003fe0:	00c08463          	beq	ra,a2,80003fe8 <inst_298>
    80003fe4:	840fc06f          	j	80000024 <rvtest_error>

0000000080003fe8 <inst_298>:
    80003fe8:	33333537          	lui	a0,0x33333
    80003fec:	33350513          	addi	a0,a0,819 # 33333333 <absimmsh+0x27862586>
    80003ff0:	00b51513          	slli	a0,a0,0xb
    80003ff4:	19950513          	addi	a0,a0,409
    80003ff8:	00b51513          	slli	a0,a0,0xb
    80003ffc:	4cc50513          	addi	a0,a0,1228
    80004000:	00a51513          	slli	a0,a0,0xa
    80004004:	33350513          	addi	a0,a0,819
    80004008:	000005b7          	lui	a1,0x0
    8000400c:	fff58593          	addi	a1,a1,-1
    80004010:	00b59593          	slli	a1,a1,0xb
    80004014:	25758593          	addi	a1,a1,599
    80004018:	00b59593          	slli	a1,a1,0xb
    8000401c:	6c358593          	addi	a1,a1,1731
    80004020:	00a59593          	slli	a1,a1,0xa
    80004024:	0ce58593          	addi	a1,a1,206
    80004028:	00b5063b          	addw	a2,a0,a1
    8000402c:	0ac3bc23          	sd	a2,184(t2)
    80004030:	7e2e40b7          	lui	ra,0x7e2e4
    80004034:	0010809b          	addiw	ra,ra,1 # 7e2e4001 <absimmsh+0x72813254>
    80004038:	00c08463          	beq	ra,a2,80004040 <inst_299>
    8000403c:	fe9fb06f          	j	80000024 <rvtest_error>

0000000080004040 <inst_299>:
    80004040:	33333537          	lui	a0,0x33333
    80004044:	33350513          	addi	a0,a0,819 # 33333333 <absimmsh+0x27862586>
    80004048:	00b51513          	slli	a0,a0,0xb
    8000404c:	19950513          	addi	a0,a0,409
    80004050:	00b51513          	slli	a0,a0,0xb
    80004054:	4cc50513          	addi	a0,a0,1228
    80004058:	00a51513          	slli	a0,a0,0xa
    8000405c:	33350513          	addi	a0,a0,819
    80004060:	000005b7          	lui	a1,0x0
    80004064:	00058593          	mv	a1,a1
    80004068:	00b59593          	slli	a1,a1,0xb
    8000406c:	5a858593          	addi	a1,a1,1448 # 5a8 <offset+0x110>
    80004070:	00b59593          	slli	a1,a1,0xb
    80004074:	13c58593          	addi	a1,a1,316
    80004078:	00a59593          	slli	a1,a1,0xa
    8000407c:	33458593          	addi	a1,a1,820
    80004080:	00b5063b          	addw	a2,a0,a1
    80004084:	0cc3b023          	sd	a2,192(t2)
    80004088:	e83820b7          	lui	ra,0xe8382
    8000408c:	6670809b          	addiw	ra,ra,1639 # ffffffffe8382667 <absimm+0xffffffff2d674b97>
    80004090:	00c08463          	beq	ra,a2,80004098 <inst_300>
    80004094:	f91fb06f          	j	80000024 <rvtest_error>

0000000080004098 <inst_300>:
    80004098:	66666537          	lui	a0,0x66666
    8000409c:	66650513          	addi	a0,a0,1638 # 66666666 <absimmsh+0x5ab958b9>
    800040a0:	00b51513          	slli	a0,a0,0xb
    800040a4:	33350513          	addi	a0,a0,819
    800040a8:	00b51513          	slli	a0,a0,0xb
    800040ac:	19950513          	addi	a0,a0,409
    800040b0:	00a51513          	slli	a0,a0,0xa
    800040b4:	26650513          	addi	a0,a0,614
    800040b8:	00300593          	li	a1,3
    800040bc:	00b5063b          	addw	a2,a0,a1
    800040c0:	0cc3b423          	sd	a2,200(t2)
    800040c4:	666660b7          	lui	ra,0x66666
    800040c8:	6690809b          	addiw	ra,ra,1641 # 66666669 <absimmsh+0x5ab958bc>
    800040cc:	00c08463          	beq	ra,a2,800040d4 <inst_301>
    800040d0:	f55fb06f          	j	80000024 <rvtest_error>

00000000800040d4 <inst_301>:
    800040d4:	66666537          	lui	a0,0x66666
    800040d8:	66650513          	addi	a0,a0,1638 # 66666666 <absimmsh+0x5ab958b9>
    800040dc:	00b51513          	slli	a0,a0,0xb
    800040e0:	33350513          	addi	a0,a0,819
    800040e4:	00b51513          	slli	a0,a0,0xb
    800040e8:	19950513          	addi	a0,a0,409
    800040ec:	00a51513          	slli	a0,a0,0xa
    800040f0:	26650513          	addi	a0,a0,614
    800040f4:	555555b7          	lui	a1,0x55555
    800040f8:	55558593          	addi	a1,a1,1365 # 55555555 <absimmsh+0x49a847a8>
    800040fc:	00b59593          	slli	a1,a1,0xb
    80004100:	2aa58593          	addi	a1,a1,682
    80004104:	00b59593          	slli	a1,a1,0xb
    80004108:	55558593          	addi	a1,a1,1365
    8000410c:	00a59593          	slli	a1,a1,0xa
    80004110:	15558593          	addi	a1,a1,341
    80004114:	00b5063b          	addw	a2,a0,a1
    80004118:	0cc3b823          	sd	a2,208(t2)
    8000411c:	bbbbc0b7          	lui	ra,0xbbbbc
    80004120:	bbb0809b          	addiw	ra,ra,-1093 # ffffffffbbbbbbbb <absimm+0xffffffff00eae0eb>
    80004124:	00c08463          	beq	ra,a2,8000412c <inst_302>
    80004128:	efdfb06f          	j	80000024 <rvtest_error>

000000008000412c <inst_302>:
    8000412c:	66666537          	lui	a0,0x66666
    80004130:	66650513          	addi	a0,a0,1638 # 66666666 <absimmsh+0x5ab958b9>
    80004134:	00b51513          	slli	a0,a0,0xb
    80004138:	33350513          	addi	a0,a0,819
    8000413c:	00b51513          	slli	a0,a0,0xb
    80004140:	19950513          	addi	a0,a0,409
    80004144:	00a51513          	slli	a0,a0,0xa
    80004148:	26650513          	addi	a0,a0,614
    8000414c:	aaaab5b7          	lui	a1,0xaaaab
    80004150:	aaa58593          	addi	a1,a1,-1366 # ffffffffaaaaaaaa <absimm+0xfffffffeefd9cfda>
    80004154:	00b59593          	slli	a1,a1,0xb
    80004158:	55558593          	addi	a1,a1,1365
    8000415c:	00b59593          	slli	a1,a1,0xb
    80004160:	2aa58593          	addi	a1,a1,682
    80004164:	00a59593          	slli	a1,a1,0xa
    80004168:	2aa58593          	addi	a1,a1,682
    8000416c:	00b5063b          	addw	a2,a0,a1
    80004170:	0cc3bc23          	sd	a2,216(t2)
    80004174:	111110b7          	lui	ra,0x11111
    80004178:	1100809b          	addiw	ra,ra,272 # 11111110 <absimmsh+0x5640363>
    8000417c:	00c08463          	beq	ra,a2,80004184 <inst_303>
    80004180:	ea5fb06f          	j	80000024 <rvtest_error>

0000000080004184 <inst_303>:
    80004184:	66666537          	lui	a0,0x66666
    80004188:	66650513          	addi	a0,a0,1638 # 66666666 <absimmsh+0x5ab958b9>
    8000418c:	00b51513          	slli	a0,a0,0xb
    80004190:	33350513          	addi	a0,a0,819
    80004194:	00b51513          	slli	a0,a0,0xb
    80004198:	19950513          	addi	a0,a0,409
    8000419c:	00a51513          	slli	a0,a0,0xa
    800041a0:	26650513          	addi	a0,a0,614
    800041a4:	00500593          	li	a1,5
    800041a8:	00b5063b          	addw	a2,a0,a1
    800041ac:	0ec3b023          	sd	a2,224(t2)
    800041b0:	666660b7          	lui	ra,0x66666
    800041b4:	66b0809b          	addiw	ra,ra,1643 # 6666666b <absimmsh+0x5ab958be>
    800041b8:	00c08463          	beq	ra,a2,800041c0 <inst_304>
    800041bc:	e69fb06f          	j	80000024 <rvtest_error>

00000000800041c0 <inst_304>:
    800041c0:	66666537          	lui	a0,0x66666
    800041c4:	66650513          	addi	a0,a0,1638 # 66666666 <absimmsh+0x5ab958b9>
    800041c8:	00b51513          	slli	a0,a0,0xb
    800041cc:	33350513          	addi	a0,a0,819
    800041d0:	00b51513          	slli	a0,a0,0xb
    800041d4:	19950513          	addi	a0,a0,409
    800041d8:	00a51513          	slli	a0,a0,0xa
    800041dc:	26650513          	addi	a0,a0,614
    800041e0:	333335b7          	lui	a1,0x33333
    800041e4:	33358593          	addi	a1,a1,819 # 33333333 <absimmsh+0x27862586>
    800041e8:	00b59593          	slli	a1,a1,0xb
    800041ec:	19958593          	addi	a1,a1,409
    800041f0:	00b59593          	slli	a1,a1,0xb
    800041f4:	4cc58593          	addi	a1,a1,1228
    800041f8:	00a59593          	slli	a1,a1,0xa
    800041fc:	33358593          	addi	a1,a1,819
    80004200:	00b5063b          	addw	a2,a0,a1
    80004204:	0ec3b423          	sd	a2,232(t2)
    80004208:	9999a0b7          	lui	ra,0x9999a
    8000420c:	9990809b          	addiw	ra,ra,-1639 # ffffffff99999999 <absimm+0xfffffffedec8bec9>
    80004210:	00c08463          	beq	ra,a2,80004218 <inst_305>
    80004214:	e11fb06f          	j	80000024 <rvtest_error>

0000000080004218 <inst_305>:
    80004218:	66666537          	lui	a0,0x66666
    8000421c:	66650513          	addi	a0,a0,1638 # 66666666 <absimmsh+0x5ab958b9>
    80004220:	00b51513          	slli	a0,a0,0xb
    80004224:	33350513          	addi	a0,a0,819
    80004228:	00b51513          	slli	a0,a0,0xb
    8000422c:	19950513          	addi	a0,a0,409
    80004230:	00a51513          	slli	a0,a0,0xa
    80004234:	26650513          	addi	a0,a0,614
    80004238:	666665b7          	lui	a1,0x66666
    8000423c:	66658593          	addi	a1,a1,1638 # 66666666 <absimmsh+0x5ab958b9>
    80004240:	00b59593          	slli	a1,a1,0xb
    80004244:	33358593          	addi	a1,a1,819
    80004248:	00b59593          	slli	a1,a1,0xb
    8000424c:	19958593          	addi	a1,a1,409
    80004250:	00a59593          	slli	a1,a1,0xa
    80004254:	26658593          	addi	a1,a1,614
    80004258:	00b5063b          	addw	a2,a0,a1
    8000425c:	0ec3b823          	sd	a2,240(t2)
    80004260:	ccccd0b7          	lui	ra,0xccccd
    80004264:	ccc0809b          	addiw	ra,ra,-820 # ffffffffcccccccc <absimm+0xffffffff11fbf1fc>
    80004268:	00c08463          	beq	ra,a2,80004270 <inst_306>
    8000426c:	db9fb06f          	j	80000024 <rvtest_error>

0000000080004270 <inst_306>:
    80004270:	66666537          	lui	a0,0x66666
    80004274:	66650513          	addi	a0,a0,1638 # 66666666 <absimmsh+0x5ab958b9>
    80004278:	00b51513          	slli	a0,a0,0xb
    8000427c:	33350513          	addi	a0,a0,819
    80004280:	00b51513          	slli	a0,a0,0xb
    80004284:	19950513          	addi	a0,a0,409
    80004288:	00a51513          	slli	a0,a0,0xa
    8000428c:	26650513          	addi	a0,a0,614
    80004290:	000005b7          	lui	a1,0x0
    80004294:	fff58593          	addi	a1,a1,-1
    80004298:	00b59593          	slli	a1,a1,0xb
    8000429c:	25758593          	addi	a1,a1,599
    800042a0:	00b59593          	slli	a1,a1,0xb
    800042a4:	6c358593          	addi	a1,a1,1731
    800042a8:	00a59593          	slli	a1,a1,0xa
    800042ac:	0cd58593          	addi	a1,a1,205
    800042b0:	00b5063b          	addw	a2,a0,a1
    800042b4:	0ec3bc23          	sd	a2,248(t2)
    800042b8:	b16170b7          	lui	ra,0xb1617
    800042bc:	3330809b          	addiw	ra,ra,819 # ffffffffb1617333 <absimm+0xfffffffef6909863>
    800042c0:	00c08463          	beq	ra,a2,800042c8 <inst_307>
    800042c4:	d61fb06f          	j	80000024 <rvtest_error>

00000000800042c8 <inst_307>:
    800042c8:	66666537          	lui	a0,0x66666
    800042cc:	66650513          	addi	a0,a0,1638 # 66666666 <absimmsh+0x5ab958b9>
    800042d0:	00b51513          	slli	a0,a0,0xb
    800042d4:	33350513          	addi	a0,a0,819
    800042d8:	00b51513          	slli	a0,a0,0xb
    800042dc:	19950513          	addi	a0,a0,409
    800042e0:	00a51513          	slli	a0,a0,0xa
    800042e4:	26650513          	addi	a0,a0,614
    800042e8:	000005b7          	lui	a1,0x0
    800042ec:	00058593          	mv	a1,a1
    800042f0:	00b59593          	slli	a1,a1,0xb
    800042f4:	5a858593          	addi	a1,a1,1448 # 5a8 <offset+0x110>
    800042f8:	00b59593          	slli	a1,a1,0xb
    800042fc:	13c58593          	addi	a1,a1,316
    80004300:	00a59593          	slli	a1,a1,0xa
    80004304:	33358593          	addi	a1,a1,819
    80004308:	00b5063b          	addw	a2,a0,a1
    8000430c:	10c3b023          	sd	a2,256(t2)
    80004310:	1b6b60b7          	lui	ra,0x1b6b6
    80004314:	9990809b          	addiw	ra,ra,-1639 # 1b6b5999 <absimmsh+0xfbe4bec>
    80004318:	00c08463          	beq	ra,a2,80004320 <inst_308>
    8000431c:	d09fb06f          	j	80000024 <rvtest_error>

0000000080004320 <inst_308>:
    80004320:	66666537          	lui	a0,0x66666
    80004324:	66650513          	addi	a0,a0,1638 # 66666666 <absimmsh+0x5ab958b9>
    80004328:	00b51513          	slli	a0,a0,0xb
    8000432c:	33350513          	addi	a0,a0,819
    80004330:	00b51513          	slli	a0,a0,0xb
    80004334:	19950513          	addi	a0,a0,409
    80004338:	00a51513          	slli	a0,a0,0xa
    8000433c:	26650513          	addi	a0,a0,614
    80004340:	00200593          	li	a1,2
    80004344:	00b5063b          	addw	a2,a0,a1
    80004348:	10c3b423          	sd	a2,264(t2)
    8000434c:	666660b7          	lui	ra,0x66666
    80004350:	6680809b          	addiw	ra,ra,1640 # 66666668 <absimmsh+0x5ab958bb>
    80004354:	00c08463          	beq	ra,a2,8000435c <inst_309>
    80004358:	ccdfb06f          	j	80000024 <rvtest_error>

000000008000435c <inst_309>:
    8000435c:	66666537          	lui	a0,0x66666
    80004360:	66650513          	addi	a0,a0,1638 # 66666666 <absimmsh+0x5ab958b9>
    80004364:	00b51513          	slli	a0,a0,0xb
    80004368:	33350513          	addi	a0,a0,819
    8000436c:	00b51513          	slli	a0,a0,0xb
    80004370:	19950513          	addi	a0,a0,409
    80004374:	00a51513          	slli	a0,a0,0xa
    80004378:	26650513          	addi	a0,a0,614
    8000437c:	555555b7          	lui	a1,0x55555
    80004380:	55558593          	addi	a1,a1,1365 # 55555555 <absimmsh+0x49a847a8>
    80004384:	00b59593          	slli	a1,a1,0xb
    80004388:	2aa58593          	addi	a1,a1,682
    8000438c:	00b59593          	slli	a1,a1,0xb
    80004390:	55558593          	addi	a1,a1,1365
    80004394:	00a59593          	slli	a1,a1,0xa
    80004398:	15458593          	addi	a1,a1,340
    8000439c:	00b5063b          	addw	a2,a0,a1
    800043a0:	10c3b823          	sd	a2,272(t2)
    800043a4:	bbbbc0b7          	lui	ra,0xbbbbc
    800043a8:	bba0809b          	addiw	ra,ra,-1094 # ffffffffbbbbbbba <absimm+0xffffffff00eae0ea>
    800043ac:	00c08463          	beq	ra,a2,800043b4 <inst_310>
    800043b0:	c75fb06f          	j	80000024 <rvtest_error>

00000000800043b4 <inst_310>:
    800043b4:	66666537          	lui	a0,0x66666
    800043b8:	66650513          	addi	a0,a0,1638 # 66666666 <absimmsh+0x5ab958b9>
    800043bc:	00b51513          	slli	a0,a0,0xb
    800043c0:	33350513          	addi	a0,a0,819
    800043c4:	00b51513          	slli	a0,a0,0xb
    800043c8:	19950513          	addi	a0,a0,409
    800043cc:	00a51513          	slli	a0,a0,0xa
    800043d0:	26650513          	addi	a0,a0,614
    800043d4:	00000593          	li	a1,0
    800043d8:	00b5063b          	addw	a2,a0,a1
    800043dc:	10c3bc23          	sd	a2,280(t2)
    800043e0:	666660b7          	lui	ra,0x66666
    800043e4:	6660809b          	addiw	ra,ra,1638 # 66666666 <absimmsh+0x5ab958b9>
    800043e8:	00c08463          	beq	ra,a2,800043f0 <inst_311>
    800043ec:	c39fb06f          	j	80000024 <rvtest_error>

00000000800043f0 <inst_311>:
    800043f0:	66666537          	lui	a0,0x66666
    800043f4:	66650513          	addi	a0,a0,1638 # 66666666 <absimmsh+0x5ab958b9>
    800043f8:	00b51513          	slli	a0,a0,0xb
    800043fc:	33350513          	addi	a0,a0,819
    80004400:	00b51513          	slli	a0,a0,0xb
    80004404:	19950513          	addi	a0,a0,409
    80004408:	00a51513          	slli	a0,a0,0xa
    8000440c:	26650513          	addi	a0,a0,614
    80004410:	00400593          	li	a1,4
    80004414:	00b5063b          	addw	a2,a0,a1
    80004418:	12c3b023          	sd	a2,288(t2)
    8000441c:	666660b7          	lui	ra,0x66666
    80004420:	66a0809b          	addiw	ra,ra,1642 # 6666666a <absimmsh+0x5ab958bd>
    80004424:	00c08463          	beq	ra,a2,8000442c <inst_312>
    80004428:	bfdfb06f          	j	80000024 <rvtest_error>

000000008000442c <inst_312>:
    8000442c:	66666537          	lui	a0,0x66666
    80004430:	66650513          	addi	a0,a0,1638 # 66666666 <absimmsh+0x5ab958b9>
    80004434:	00b51513          	slli	a0,a0,0xb
    80004438:	33350513          	addi	a0,a0,819
    8000443c:	00b51513          	slli	a0,a0,0xb
    80004440:	19950513          	addi	a0,a0,409
    80004444:	00a51513          	slli	a0,a0,0xa
    80004448:	26650513          	addi	a0,a0,614
    8000444c:	333335b7          	lui	a1,0x33333
    80004450:	33358593          	addi	a1,a1,819 # 33333333 <absimmsh+0x27862586>
    80004454:	00b59593          	slli	a1,a1,0xb
    80004458:	19958593          	addi	a1,a1,409
    8000445c:	00b59593          	slli	a1,a1,0xb
    80004460:	4cc58593          	addi	a1,a1,1228
    80004464:	00a59593          	slli	a1,a1,0xa
    80004468:	33258593          	addi	a1,a1,818
    8000446c:	00b5063b          	addw	a2,a0,a1
    80004470:	12c3b423          	sd	a2,296(t2)
    80004474:	9999a0b7          	lui	ra,0x9999a
    80004478:	9980809b          	addiw	ra,ra,-1640 # ffffffff99999998 <absimm+0xfffffffedec8bec8>
    8000447c:	00c08463          	beq	ra,a2,80004484 <inst_313>
    80004480:	ba5fb06f          	j	80000024 <rvtest_error>

0000000080004484 <inst_313>:
    80004484:	66666537          	lui	a0,0x66666
    80004488:	66650513          	addi	a0,a0,1638 # 66666666 <absimmsh+0x5ab958b9>
    8000448c:	00b51513          	slli	a0,a0,0xb
    80004490:	33350513          	addi	a0,a0,819
    80004494:	00b51513          	slli	a0,a0,0xb
    80004498:	19950513          	addi	a0,a0,409
    8000449c:	00a51513          	slli	a0,a0,0xa
    800044a0:	26650513          	addi	a0,a0,614
    800044a4:	666665b7          	lui	a1,0x66666
    800044a8:	66658593          	addi	a1,a1,1638 # 66666666 <absimmsh+0x5ab958b9>
    800044ac:	00b59593          	slli	a1,a1,0xb
    800044b0:	33358593          	addi	a1,a1,819
    800044b4:	00b59593          	slli	a1,a1,0xb
    800044b8:	19958593          	addi	a1,a1,409
    800044bc:	00a59593          	slli	a1,a1,0xa
    800044c0:	26558593          	addi	a1,a1,613
    800044c4:	00b5063b          	addw	a2,a0,a1
    800044c8:	12c3b823          	sd	a2,304(t2)
    800044cc:	ccccd0b7          	lui	ra,0xccccd
    800044d0:	ccb0809b          	addiw	ra,ra,-821 # ffffffffcccccccb <absimm+0xffffffff11fbf1fb>
    800044d4:	00c08463          	beq	ra,a2,800044dc <inst_314>
    800044d8:	b4dfb06f          	j	80000024 <rvtest_error>

00000000800044dc <inst_314>:
    800044dc:	66666537          	lui	a0,0x66666
    800044e0:	66650513          	addi	a0,a0,1638 # 66666666 <absimmsh+0x5ab958b9>
    800044e4:	00b51513          	slli	a0,a0,0xb
    800044e8:	33350513          	addi	a0,a0,819
    800044ec:	00b51513          	slli	a0,a0,0xb
    800044f0:	19950513          	addi	a0,a0,409
    800044f4:	00a51513          	slli	a0,a0,0xa
    800044f8:	26650513          	addi	a0,a0,614
    800044fc:	000005b7          	lui	a1,0x0
    80004500:	00058593          	mv	a1,a1
    80004504:	00b59593          	slli	a1,a1,0xb
    80004508:	5a858593          	addi	a1,a1,1448 # 5a8 <offset+0x110>
    8000450c:	00b59593          	slli	a1,a1,0xb
    80004510:	13c58593          	addi	a1,a1,316
    80004514:	00a59593          	slli	a1,a1,0xa
    80004518:	33258593          	addi	a1,a1,818
    8000451c:	00b5063b          	addw	a2,a0,a1
    80004520:	12c3bc23          	sd	a2,312(t2)
    80004524:	1b6b60b7          	lui	ra,0x1b6b6
    80004528:	9980809b          	addiw	ra,ra,-1640 # 1b6b5998 <absimmsh+0xfbe4beb>
    8000452c:	00c08463          	beq	ra,a2,80004534 <inst_315>
    80004530:	af5fb06f          	j	80000024 <rvtest_error>

0000000080004534 <inst_315>:
    80004534:	66666537          	lui	a0,0x66666
    80004538:	66650513          	addi	a0,a0,1638 # 66666666 <absimmsh+0x5ab958b9>
    8000453c:	00b51513          	slli	a0,a0,0xb
    80004540:	33350513          	addi	a0,a0,819
    80004544:	00b51513          	slli	a0,a0,0xb
    80004548:	19950513          	addi	a0,a0,409
    8000454c:	00a51513          	slli	a0,a0,0xa
    80004550:	26650513          	addi	a0,a0,614
    80004554:	555555b7          	lui	a1,0x55555
    80004558:	55558593          	addi	a1,a1,1365 # 55555555 <absimmsh+0x49a847a8>
    8000455c:	00b59593          	slli	a1,a1,0xb
    80004560:	2aa58593          	addi	a1,a1,682
    80004564:	00b59593          	slli	a1,a1,0xb
    80004568:	55558593          	addi	a1,a1,1365
    8000456c:	00a59593          	slli	a1,a1,0xa
    80004570:	15658593          	addi	a1,a1,342
    80004574:	00b5063b          	addw	a2,a0,a1
    80004578:	14c3b023          	sd	a2,320(t2)
    8000457c:	bbbbc0b7          	lui	ra,0xbbbbc
    80004580:	bbc0809b          	addiw	ra,ra,-1092 # ffffffffbbbbbbbc <absimm+0xffffffff00eae0ec>
    80004584:	00c08463          	beq	ra,a2,8000458c <inst_316>
    80004588:	a9dfb06f          	j	80000024 <rvtest_error>

000000008000458c <inst_316>:
    8000458c:	66666537          	lui	a0,0x66666
    80004590:	66650513          	addi	a0,a0,1638 # 66666666 <absimmsh+0x5ab958b9>
    80004594:	00b51513          	slli	a0,a0,0xb
    80004598:	33350513          	addi	a0,a0,819
    8000459c:	00b51513          	slli	a0,a0,0xb
    800045a0:	19950513          	addi	a0,a0,409
    800045a4:	00a51513          	slli	a0,a0,0xa
    800045a8:	26650513          	addi	a0,a0,614
    800045ac:	aaaab5b7          	lui	a1,0xaaaab
    800045b0:	aaa58593          	addi	a1,a1,-1366 # ffffffffaaaaaaaa <absimm+0xfffffffeefd9cfda>
    800045b4:	00b59593          	slli	a1,a1,0xb
    800045b8:	55558593          	addi	a1,a1,1365
    800045bc:	00b59593          	slli	a1,a1,0xb
    800045c0:	2aa58593          	addi	a1,a1,682
    800045c4:	00a59593          	slli	a1,a1,0xa
    800045c8:	2ab58593          	addi	a1,a1,683
    800045cc:	00b5063b          	addw	a2,a0,a1
    800045d0:	14c3b423          	sd	a2,328(t2)
    800045d4:	111110b7          	lui	ra,0x11111
    800045d8:	1110809b          	addiw	ra,ra,273 # 11111111 <absimmsh+0x5640364>
    800045dc:	00c08463          	beq	ra,a2,800045e4 <inst_317>
    800045e0:	a45fb06f          	j	80000024 <rvtest_error>

00000000800045e4 <inst_317>:
    800045e4:	66666537          	lui	a0,0x66666
    800045e8:	66650513          	addi	a0,a0,1638 # 66666666 <absimmsh+0x5ab958b9>
    800045ec:	00b51513          	slli	a0,a0,0xb
    800045f0:	33350513          	addi	a0,a0,819
    800045f4:	00b51513          	slli	a0,a0,0xb
    800045f8:	19950513          	addi	a0,a0,409
    800045fc:	00a51513          	slli	a0,a0,0xa
    80004600:	26650513          	addi	a0,a0,614
    80004604:	00600593          	li	a1,6
    80004608:	00b5063b          	addw	a2,a0,a1
    8000460c:	14c3b823          	sd	a2,336(t2)
    80004610:	666660b7          	lui	ra,0x66666
    80004614:	66c0809b          	addiw	ra,ra,1644 # 6666666c <absimmsh+0x5ab958bf>
    80004618:	00c08463          	beq	ra,a2,80004620 <inst_318>
    8000461c:	a09fb06f          	j	80000024 <rvtest_error>

0000000080004620 <inst_318>:
    80004620:	66666537          	lui	a0,0x66666
    80004624:	66650513          	addi	a0,a0,1638 # 66666666 <absimmsh+0x5ab958b9>
    80004628:	00b51513          	slli	a0,a0,0xb
    8000462c:	33350513          	addi	a0,a0,819
    80004630:	00b51513          	slli	a0,a0,0xb
    80004634:	19950513          	addi	a0,a0,409
    80004638:	00a51513          	slli	a0,a0,0xa
    8000463c:	26650513          	addi	a0,a0,614
    80004640:	333335b7          	lui	a1,0x33333
    80004644:	33358593          	addi	a1,a1,819 # 33333333 <absimmsh+0x27862586>
    80004648:	00b59593          	slli	a1,a1,0xb
    8000464c:	19958593          	addi	a1,a1,409
    80004650:	00b59593          	slli	a1,a1,0xb
    80004654:	4cc58593          	addi	a1,a1,1228
    80004658:	00a59593          	slli	a1,a1,0xa
    8000465c:	33458593          	addi	a1,a1,820
    80004660:	00b5063b          	addw	a2,a0,a1
    80004664:	14c3bc23          	sd	a2,344(t2)
    80004668:	9999a0b7          	lui	ra,0x9999a
    8000466c:	99a0809b          	addiw	ra,ra,-1638 # ffffffff9999999a <absimm+0xfffffffedec8beca>
    80004670:	00c08463          	beq	ra,a2,80004678 <inst_319>
    80004674:	9b1fb06f          	j	80000024 <rvtest_error>

0000000080004678 <inst_319>:
    80004678:	66666537          	lui	a0,0x66666
    8000467c:	66650513          	addi	a0,a0,1638 # 66666666 <absimmsh+0x5ab958b9>
    80004680:	00b51513          	slli	a0,a0,0xb
    80004684:	33350513          	addi	a0,a0,819
    80004688:	00b51513          	slli	a0,a0,0xb
    8000468c:	19950513          	addi	a0,a0,409
    80004690:	00a51513          	slli	a0,a0,0xa
    80004694:	26650513          	addi	a0,a0,614
    80004698:	666665b7          	lui	a1,0x66666
    8000469c:	66658593          	addi	a1,a1,1638 # 66666666 <absimmsh+0x5ab958b9>
    800046a0:	00b59593          	slli	a1,a1,0xb
    800046a4:	33358593          	addi	a1,a1,819
    800046a8:	00b59593          	slli	a1,a1,0xb
    800046ac:	19958593          	addi	a1,a1,409
    800046b0:	00a59593          	slli	a1,a1,0xa
    800046b4:	26758593          	addi	a1,a1,615
    800046b8:	00b5063b          	addw	a2,a0,a1
    800046bc:	16c3b023          	sd	a2,352(t2)
    800046c0:	ccccd0b7          	lui	ra,0xccccd
    800046c4:	ccd0809b          	addiw	ra,ra,-819 # ffffffffcccccccd <absimm+0xffffffff11fbf1fd>
    800046c8:	00c08463          	beq	ra,a2,800046d0 <inst_320>
    800046cc:	959fb06f          	j	80000024 <rvtest_error>

00000000800046d0 <inst_320>:
    800046d0:	66666537          	lui	a0,0x66666
    800046d4:	66650513          	addi	a0,a0,1638 # 66666666 <absimmsh+0x5ab958b9>
    800046d8:	00b51513          	slli	a0,a0,0xb
    800046dc:	33350513          	addi	a0,a0,819
    800046e0:	00b51513          	slli	a0,a0,0xb
    800046e4:	19950513          	addi	a0,a0,409
    800046e8:	00a51513          	slli	a0,a0,0xa
    800046ec:	26650513          	addi	a0,a0,614
    800046f0:	000005b7          	lui	a1,0x0
    800046f4:	fff58593          	addi	a1,a1,-1
    800046f8:	00b59593          	slli	a1,a1,0xb
    800046fc:	25758593          	addi	a1,a1,599
    80004700:	00b59593          	slli	a1,a1,0xb
    80004704:	6c358593          	addi	a1,a1,1731
    80004708:	00a59593          	slli	a1,a1,0xa
    8000470c:	0ce58593          	addi	a1,a1,206
    80004710:	00b5063b          	addw	a2,a0,a1
    80004714:	16c3b423          	sd	a2,360(t2)
    80004718:	b16170b7          	lui	ra,0xb1617
    8000471c:	3340809b          	addiw	ra,ra,820 # ffffffffb1617334 <absimm+0xfffffffef6909864>
    80004720:	00c08463          	beq	ra,a2,80004728 <inst_321>
    80004724:	901fb06f          	j	80000024 <rvtest_error>

0000000080004728 <inst_321>:
    80004728:	66666537          	lui	a0,0x66666
    8000472c:	66650513          	addi	a0,a0,1638 # 66666666 <absimmsh+0x5ab958b9>
    80004730:	00b51513          	slli	a0,a0,0xb
    80004734:	33350513          	addi	a0,a0,819
    80004738:	00b51513          	slli	a0,a0,0xb
    8000473c:	19950513          	addi	a0,a0,409
    80004740:	00a51513          	slli	a0,a0,0xa
    80004744:	26650513          	addi	a0,a0,614
    80004748:	000005b7          	lui	a1,0x0
    8000474c:	00058593          	mv	a1,a1
    80004750:	00b59593          	slli	a1,a1,0xb
    80004754:	5a858593          	addi	a1,a1,1448 # 5a8 <offset+0x110>
    80004758:	00b59593          	slli	a1,a1,0xb
    8000475c:	13c58593          	addi	a1,a1,316
    80004760:	00a59593          	slli	a1,a1,0xa
    80004764:	33458593          	addi	a1,a1,820
    80004768:	00b5063b          	addw	a2,a0,a1
    8000476c:	16c3b823          	sd	a2,368(t2)
    80004770:	1b6b60b7          	lui	ra,0x1b6b6
    80004774:	99a0809b          	addiw	ra,ra,-1638 # 1b6b599a <absimmsh+0xfbe4bed>
    80004778:	00c08463          	beq	ra,a2,80004780 <inst_322>
    8000477c:	8a9fb06f          	j	80000024 <rvtest_error>

0000000080004780 <inst_322>:
    80004780:	00000537          	lui	a0,0x0
    80004784:	fff50513          	addi	a0,a0,-1
    80004788:	00b51513          	slli	a0,a0,0xb
    8000478c:	25750513          	addi	a0,a0,599
    80004790:	00b51513          	slli	a0,a0,0xb
    80004794:	6c350513          	addi	a0,a0,1731
    80004798:	00a51513          	slli	a0,a0,0xa
    8000479c:	0cd50513          	addi	a0,a0,205
    800047a0:	00300593          	li	a1,3
    800047a4:	00b5063b          	addw	a2,a0,a1
    800047a8:	16c3bc23          	sd	a2,376(t2)
    800047ac:	4afb10b7          	lui	ra,0x4afb1
    800047b0:	cd00809b          	addiw	ra,ra,-816 # 4afb0cd0 <absimmsh+0x3f4dff23>
    800047b4:	00c08463          	beq	ra,a2,800047bc <inst_323>
    800047b8:	86dfb06f          	j	80000024 <rvtest_error>

00000000800047bc <inst_323>:
    800047bc:	00000537          	lui	a0,0x0
    800047c0:	fff50513          	addi	a0,a0,-1
    800047c4:	00b51513          	slli	a0,a0,0xb
    800047c8:	25750513          	addi	a0,a0,599
    800047cc:	00b51513          	slli	a0,a0,0xb
    800047d0:	6c350513          	addi	a0,a0,1731
    800047d4:	00a51513          	slli	a0,a0,0xa
    800047d8:	0cd50513          	addi	a0,a0,205
    800047dc:	555555b7          	lui	a1,0x55555
    800047e0:	55558593          	addi	a1,a1,1365 # 55555555 <absimmsh+0x49a847a8>
    800047e4:	00b59593          	slli	a1,a1,0xb
    800047e8:	2aa58593          	addi	a1,a1,682
    800047ec:	00b59593          	slli	a1,a1,0xb
    800047f0:	55558593          	addi	a1,a1,1365
    800047f4:	00a59593          	slli	a1,a1,0xa
    800047f8:	15558593          	addi	a1,a1,341
    800047fc:	00b5063b          	addw	a2,a0,a1
    80004800:	18c3b023          	sd	a2,384(t2)
    80004804:	a05060b7          	lui	ra,0xa0506
    80004808:	2220809b          	addiw	ra,ra,546 # ffffffffa0506222 <absimm+0xfffffffee57f8752>
    8000480c:	00c08463          	beq	ra,a2,80004814 <inst_324>
    80004810:	815fb06f          	j	80000024 <rvtest_error>

0000000080004814 <inst_324>:
    80004814:	00000537          	lui	a0,0x0
    80004818:	fff50513          	addi	a0,a0,-1
    8000481c:	00b51513          	slli	a0,a0,0xb
    80004820:	25750513          	addi	a0,a0,599
    80004824:	00b51513          	slli	a0,a0,0xb
    80004828:	6c350513          	addi	a0,a0,1731
    8000482c:	00a51513          	slli	a0,a0,0xa
    80004830:	0cd50513          	addi	a0,a0,205
    80004834:	aaaab5b7          	lui	a1,0xaaaab
    80004838:	aaa58593          	addi	a1,a1,-1366 # ffffffffaaaaaaaa <absimm+0xfffffffeefd9cfda>
    8000483c:	00b59593          	slli	a1,a1,0xb
    80004840:	55558593          	addi	a1,a1,1365
    80004844:	00b59593          	slli	a1,a1,0xb
    80004848:	2aa58593          	addi	a1,a1,682
    8000484c:	00a59593          	slli	a1,a1,0xa
    80004850:	2aa58593          	addi	a1,a1,682
    80004854:	00b5063b          	addw	a2,a0,a1
    80004858:	18c3b423          	sd	a2,392(t2)
    8000485c:	f5a5b0b7          	lui	ra,0xf5a5b
    80004860:	7770809b          	addiw	ra,ra,1911 # fffffffff5a5b777 <absimm+0xffffffff3ad4dca7>
    80004864:	00c08463          	beq	ra,a2,8000486c <inst_325>
    80004868:	fbcfb06f          	j	80000024 <rvtest_error>

000000008000486c <inst_325>:
    8000486c:	00000537          	lui	a0,0x0
    80004870:	fff50513          	addi	a0,a0,-1
    80004874:	00b51513          	slli	a0,a0,0xb
    80004878:	25750513          	addi	a0,a0,599
    8000487c:	00b51513          	slli	a0,a0,0xb
    80004880:	6c350513          	addi	a0,a0,1731
    80004884:	00a51513          	slli	a0,a0,0xa
    80004888:	0cd50513          	addi	a0,a0,205
    8000488c:	00500593          	li	a1,5
    80004890:	00b5063b          	addw	a2,a0,a1
    80004894:	18c3b823          	sd	a2,400(t2)
    80004898:	4afb10b7          	lui	ra,0x4afb1
    8000489c:	cd20809b          	addiw	ra,ra,-814 # 4afb0cd2 <absimmsh+0x3f4dff25>
    800048a0:	00c08463          	beq	ra,a2,800048a8 <inst_326>
    800048a4:	f80fb06f          	j	80000024 <rvtest_error>

00000000800048a8 <inst_326>:
    800048a8:	00000537          	lui	a0,0x0
    800048ac:	fff50513          	addi	a0,a0,-1
    800048b0:	00b51513          	slli	a0,a0,0xb
    800048b4:	25750513          	addi	a0,a0,599
    800048b8:	00b51513          	slli	a0,a0,0xb
    800048bc:	6c350513          	addi	a0,a0,1731
    800048c0:	00a51513          	slli	a0,a0,0xa
    800048c4:	0cd50513          	addi	a0,a0,205
    800048c8:	333335b7          	lui	a1,0x33333
    800048cc:	33358593          	addi	a1,a1,819 # 33333333 <absimmsh+0x27862586>
    800048d0:	00b59593          	slli	a1,a1,0xb
    800048d4:	19958593          	addi	a1,a1,409
    800048d8:	00b59593          	slli	a1,a1,0xb
    800048dc:	4cc58593          	addi	a1,a1,1228
    800048e0:	00a59593          	slli	a1,a1,0xa
    800048e4:	33358593          	addi	a1,a1,819
    800048e8:	00b5063b          	addw	a2,a0,a1
    800048ec:	18c3bc23          	sd	a2,408(t2)
    800048f0:	7e2e40b7          	lui	ra,0x7e2e4
    800048f4:	00c08463          	beq	ra,a2,800048fc <inst_327>
    800048f8:	f2cfb06f          	j	80000024 <rvtest_error>

00000000800048fc <inst_327>:
    800048fc:	00000537          	lui	a0,0x0
    80004900:	fff50513          	addi	a0,a0,-1
    80004904:	00b51513          	slli	a0,a0,0xb
    80004908:	25750513          	addi	a0,a0,599
    8000490c:	00b51513          	slli	a0,a0,0xb
    80004910:	6c350513          	addi	a0,a0,1731
    80004914:	00a51513          	slli	a0,a0,0xa
    80004918:	0cd50513          	addi	a0,a0,205
    8000491c:	666665b7          	lui	a1,0x66666
    80004920:	66658593          	addi	a1,a1,1638 # 66666666 <absimmsh+0x5ab958b9>
    80004924:	00b59593          	slli	a1,a1,0xb
    80004928:	33358593          	addi	a1,a1,819
    8000492c:	00b59593          	slli	a1,a1,0xb
    80004930:	19958593          	addi	a1,a1,409
    80004934:	00a59593          	slli	a1,a1,0xa
    80004938:	26658593          	addi	a1,a1,614
    8000493c:	00b5063b          	addw	a2,a0,a1
    80004940:	1ac3b023          	sd	a2,416(t2)
    80004944:	b16170b7          	lui	ra,0xb1617
    80004948:	3330809b          	addiw	ra,ra,819 # ffffffffb1617333 <absimm+0xfffffffef6909863>
    8000494c:	00c08463          	beq	ra,a2,80004954 <inst_328>
    80004950:	ed4fb06f          	j	80000024 <rvtest_error>

0000000080004954 <inst_328>:
    80004954:	00000537          	lui	a0,0x0
    80004958:	fff50513          	addi	a0,a0,-1
    8000495c:	00b51513          	slli	a0,a0,0xb
    80004960:	25750513          	addi	a0,a0,599
    80004964:	00b51513          	slli	a0,a0,0xb
    80004968:	6c350513          	addi	a0,a0,1731
    8000496c:	00a51513          	slli	a0,a0,0xa
    80004970:	0cd50513          	addi	a0,a0,205
    80004974:	000005b7          	lui	a1,0x0
    80004978:	fff58593          	addi	a1,a1,-1
    8000497c:	00b59593          	slli	a1,a1,0xb
    80004980:	25758593          	addi	a1,a1,599
    80004984:	00b59593          	slli	a1,a1,0xb
    80004988:	6c358593          	addi	a1,a1,1731
    8000498c:	00a59593          	slli	a1,a1,0xa
    80004990:	0cd58593          	addi	a1,a1,205
    80004994:	00b5063b          	addw	a2,a0,a1
    80004998:	1ac3b423          	sd	a2,424(t2)
    8000499c:	95f620b7          	lui	ra,0x95f62
    800049a0:	99a0809b          	addiw	ra,ra,-1638 # ffffffff95f6199a <absimm+0xfffffffedb253eca>
    800049a4:	00c08463          	beq	ra,a2,800049ac <inst_329>
    800049a8:	e7cfb06f          	j	80000024 <rvtest_error>

00000000800049ac <inst_329>:
    800049ac:	00000537          	lui	a0,0x0
    800049b0:	fff50513          	addi	a0,a0,-1
    800049b4:	00b51513          	slli	a0,a0,0xb
    800049b8:	25750513          	addi	a0,a0,599
    800049bc:	00b51513          	slli	a0,a0,0xb
    800049c0:	6c350513          	addi	a0,a0,1731
    800049c4:	00a51513          	slli	a0,a0,0xa
    800049c8:	0cd50513          	addi	a0,a0,205
    800049cc:	000005b7          	lui	a1,0x0
    800049d0:	00058593          	mv	a1,a1
    800049d4:	00b59593          	slli	a1,a1,0xb
    800049d8:	5a858593          	addi	a1,a1,1448 # 5a8 <offset+0x110>
    800049dc:	00b59593          	slli	a1,a1,0xb
    800049e0:	13c58593          	addi	a1,a1,316
    800049e4:	00a59593          	slli	a1,a1,0xa
    800049e8:	33358593          	addi	a1,a1,819
    800049ec:	00b5063b          	addw	a2,a0,a1
    800049f0:	1ac3b823          	sd	a2,432(t2)
    800049f4:	00000093          	li	ra,0
    800049f8:	00c08463          	beq	ra,a2,80004a00 <inst_330>
    800049fc:	e28fb06f          	j	80000024 <rvtest_error>

0000000080004a00 <inst_330>:
    80004a00:	00000537          	lui	a0,0x0
    80004a04:	fff50513          	addi	a0,a0,-1
    80004a08:	00b51513          	slli	a0,a0,0xb
    80004a0c:	25750513          	addi	a0,a0,599
    80004a10:	00b51513          	slli	a0,a0,0xb
    80004a14:	6c350513          	addi	a0,a0,1731
    80004a18:	00a51513          	slli	a0,a0,0xa
    80004a1c:	0cd50513          	addi	a0,a0,205
    80004a20:	00200593          	li	a1,2
    80004a24:	00b5063b          	addw	a2,a0,a1
    80004a28:	1ac3bc23          	sd	a2,440(t2)
    80004a2c:	4afb10b7          	lui	ra,0x4afb1
    80004a30:	ccf0809b          	addiw	ra,ra,-817 # 4afb0ccf <absimmsh+0x3f4dff22>
    80004a34:	00c08463          	beq	ra,a2,80004a3c <inst_331>
    80004a38:	decfb06f          	j	80000024 <rvtest_error>

0000000080004a3c <inst_331>:
    80004a3c:	00000537          	lui	a0,0x0
    80004a40:	fff50513          	addi	a0,a0,-1
    80004a44:	00b51513          	slli	a0,a0,0xb
    80004a48:	25750513          	addi	a0,a0,599
    80004a4c:	00b51513          	slli	a0,a0,0xb
    80004a50:	6c350513          	addi	a0,a0,1731
    80004a54:	00a51513          	slli	a0,a0,0xa
    80004a58:	0cd50513          	addi	a0,a0,205
    80004a5c:	555555b7          	lui	a1,0x55555
    80004a60:	55558593          	addi	a1,a1,1365 # 55555555 <absimmsh+0x49a847a8>
    80004a64:	00b59593          	slli	a1,a1,0xb
    80004a68:	2aa58593          	addi	a1,a1,682
    80004a6c:	00b59593          	slli	a1,a1,0xb
    80004a70:	55558593          	addi	a1,a1,1365
    80004a74:	00a59593          	slli	a1,a1,0xa
    80004a78:	15458593          	addi	a1,a1,340
    80004a7c:	00b5063b          	addw	a2,a0,a1
    80004a80:	1cc3b023          	sd	a2,448(t2)
    80004a84:	a05060b7          	lui	ra,0xa0506
    80004a88:	2210809b          	addiw	ra,ra,545 # ffffffffa0506221 <absimm+0xfffffffee57f8751>
    80004a8c:	00c08463          	beq	ra,a2,80004a94 <inst_332>
    80004a90:	d94fb06f          	j	80000024 <rvtest_error>

0000000080004a94 <inst_332>:
    80004a94:	00000537          	lui	a0,0x0
    80004a98:	fff50513          	addi	a0,a0,-1
    80004a9c:	00b51513          	slli	a0,a0,0xb
    80004aa0:	25750513          	addi	a0,a0,599
    80004aa4:	00b51513          	slli	a0,a0,0xb
    80004aa8:	6c350513          	addi	a0,a0,1731
    80004aac:	00a51513          	slli	a0,a0,0xa
    80004ab0:	0cd50513          	addi	a0,a0,205
    80004ab4:	00000593          	li	a1,0
    80004ab8:	00b5063b          	addw	a2,a0,a1
    80004abc:	1cc3b423          	sd	a2,456(t2)
    80004ac0:	4afb10b7          	lui	ra,0x4afb1
    80004ac4:	ccd0809b          	addiw	ra,ra,-819 # 4afb0ccd <absimmsh+0x3f4dff20>
    80004ac8:	00c08463          	beq	ra,a2,80004ad0 <inst_333>
    80004acc:	d58fb06f          	j	80000024 <rvtest_error>

0000000080004ad0 <inst_333>:
    80004ad0:	00000537          	lui	a0,0x0
    80004ad4:	fff50513          	addi	a0,a0,-1
    80004ad8:	00b51513          	slli	a0,a0,0xb
    80004adc:	25750513          	addi	a0,a0,599
    80004ae0:	00b51513          	slli	a0,a0,0xb
    80004ae4:	6c350513          	addi	a0,a0,1731
    80004ae8:	00a51513          	slli	a0,a0,0xa
    80004aec:	0cd50513          	addi	a0,a0,205
    80004af0:	00400593          	li	a1,4
    80004af4:	00b5063b          	addw	a2,a0,a1
    80004af8:	1cc3b823          	sd	a2,464(t2)
    80004afc:	4afb10b7          	lui	ra,0x4afb1
    80004b00:	cd10809b          	addiw	ra,ra,-815 # 4afb0cd1 <absimmsh+0x3f4dff24>
    80004b04:	00c08463          	beq	ra,a2,80004b0c <inst_334>
    80004b08:	d1cfb06f          	j	80000024 <rvtest_error>

0000000080004b0c <inst_334>:
    80004b0c:	00000537          	lui	a0,0x0
    80004b10:	fff50513          	addi	a0,a0,-1
    80004b14:	00b51513          	slli	a0,a0,0xb
    80004b18:	25750513          	addi	a0,a0,599
    80004b1c:	00b51513          	slli	a0,a0,0xb
    80004b20:	6c350513          	addi	a0,a0,1731
    80004b24:	00a51513          	slli	a0,a0,0xa
    80004b28:	0cd50513          	addi	a0,a0,205
    80004b2c:	333335b7          	lui	a1,0x33333
    80004b30:	33358593          	addi	a1,a1,819 # 33333333 <absimmsh+0x27862586>
    80004b34:	00b59593          	slli	a1,a1,0xb
    80004b38:	19958593          	addi	a1,a1,409
    80004b3c:	00b59593          	slli	a1,a1,0xb
    80004b40:	4cc58593          	addi	a1,a1,1228
    80004b44:	00a59593          	slli	a1,a1,0xa
    80004b48:	33258593          	addi	a1,a1,818
    80004b4c:	00b5063b          	addw	a2,a0,a1
    80004b50:	1cc3bc23          	sd	a2,472(t2)
    80004b54:	7e2e40b7          	lui	ra,0x7e2e4
    80004b58:	fff0809b          	addiw	ra,ra,-1 # 7e2e3fff <absimmsh+0x72813252>
    80004b5c:	00c08463          	beq	ra,a2,80004b64 <inst_335>
    80004b60:	cc4fb06f          	j	80000024 <rvtest_error>

0000000080004b64 <inst_335>:
    80004b64:	00000537          	lui	a0,0x0
    80004b68:	fff50513          	addi	a0,a0,-1
    80004b6c:	00b51513          	slli	a0,a0,0xb
    80004b70:	25750513          	addi	a0,a0,599
    80004b74:	00b51513          	slli	a0,a0,0xb
    80004b78:	6c350513          	addi	a0,a0,1731
    80004b7c:	00a51513          	slli	a0,a0,0xa
    80004b80:	0cd50513          	addi	a0,a0,205
    80004b84:	666665b7          	lui	a1,0x66666
    80004b88:	66658593          	addi	a1,a1,1638 # 66666666 <absimmsh+0x5ab958b9>
    80004b8c:	00b59593          	slli	a1,a1,0xb
    80004b90:	33358593          	addi	a1,a1,819
    80004b94:	00b59593          	slli	a1,a1,0xb
    80004b98:	19958593          	addi	a1,a1,409
    80004b9c:	00a59593          	slli	a1,a1,0xa
    80004ba0:	26558593          	addi	a1,a1,613
    80004ba4:	00b5063b          	addw	a2,a0,a1
    80004ba8:	1ec3b023          	sd	a2,480(t2)
    80004bac:	b16170b7          	lui	ra,0xb1617
    80004bb0:	3320809b          	addiw	ra,ra,818 # ffffffffb1617332 <absimm+0xfffffffef6909862>
    80004bb4:	00c08463          	beq	ra,a2,80004bbc <inst_336>
    80004bb8:	c6cfb06f          	j	80000024 <rvtest_error>

0000000080004bbc <inst_336>:
    80004bbc:	00000537          	lui	a0,0x0
    80004bc0:	fff50513          	addi	a0,a0,-1
    80004bc4:	00b51513          	slli	a0,a0,0xb
    80004bc8:	25750513          	addi	a0,a0,599
    80004bcc:	00b51513          	slli	a0,a0,0xb
    80004bd0:	6c350513          	addi	a0,a0,1731
    80004bd4:	00a51513          	slli	a0,a0,0xa
    80004bd8:	0cd50513          	addi	a0,a0,205
    80004bdc:	000005b7          	lui	a1,0x0
    80004be0:	00058593          	mv	a1,a1
    80004be4:	00b59593          	slli	a1,a1,0xb
    80004be8:	5a858593          	addi	a1,a1,1448 # 5a8 <offset+0x110>
    80004bec:	00b59593          	slli	a1,a1,0xb
    80004bf0:	13c58593          	addi	a1,a1,316
    80004bf4:	00a59593          	slli	a1,a1,0xa
    80004bf8:	33258593          	addi	a1,a1,818
    80004bfc:	00b5063b          	addw	a2,a0,a1
    80004c00:	1ec3b423          	sd	a2,488(t2)
    80004c04:	fff00093          	li	ra,-1
    80004c08:	00c08463          	beq	ra,a2,80004c10 <inst_337>
    80004c0c:	c18fb06f          	j	80000024 <rvtest_error>

0000000080004c10 <inst_337>:
    80004c10:	00000537          	lui	a0,0x0
    80004c14:	fff50513          	addi	a0,a0,-1
    80004c18:	00b51513          	slli	a0,a0,0xb
    80004c1c:	25750513          	addi	a0,a0,599
    80004c20:	00b51513          	slli	a0,a0,0xb
    80004c24:	6c350513          	addi	a0,a0,1731
    80004c28:	00a51513          	slli	a0,a0,0xa
    80004c2c:	0cd50513          	addi	a0,a0,205
    80004c30:	555555b7          	lui	a1,0x55555
    80004c34:	55558593          	addi	a1,a1,1365 # 55555555 <absimmsh+0x49a847a8>
    80004c38:	00b59593          	slli	a1,a1,0xb
    80004c3c:	2aa58593          	addi	a1,a1,682
    80004c40:	00b59593          	slli	a1,a1,0xb
    80004c44:	55558593          	addi	a1,a1,1365
    80004c48:	00a59593          	slli	a1,a1,0xa
    80004c4c:	15658593          	addi	a1,a1,342
    80004c50:	00b5063b          	addw	a2,a0,a1
    80004c54:	1ec3b823          	sd	a2,496(t2)
    80004c58:	a05060b7          	lui	ra,0xa0506
    80004c5c:	2230809b          	addiw	ra,ra,547 # ffffffffa0506223 <absimm+0xfffffffee57f8753>
    80004c60:	00c08463          	beq	ra,a2,80004c68 <inst_338>
    80004c64:	bc0fb06f          	j	80000024 <rvtest_error>

0000000080004c68 <inst_338>:
    80004c68:	00000537          	lui	a0,0x0
    80004c6c:	fff50513          	addi	a0,a0,-1
    80004c70:	00b51513          	slli	a0,a0,0xb
    80004c74:	25750513          	addi	a0,a0,599
    80004c78:	00b51513          	slli	a0,a0,0xb
    80004c7c:	6c350513          	addi	a0,a0,1731
    80004c80:	00a51513          	slli	a0,a0,0xa
    80004c84:	0cd50513          	addi	a0,a0,205
    80004c88:	aaaab5b7          	lui	a1,0xaaaab
    80004c8c:	aaa58593          	addi	a1,a1,-1366 # ffffffffaaaaaaaa <absimm+0xfffffffeefd9cfda>
    80004c90:	00b59593          	slli	a1,a1,0xb
    80004c94:	55558593          	addi	a1,a1,1365
    80004c98:	00b59593          	slli	a1,a1,0xb
    80004c9c:	2aa58593          	addi	a1,a1,682
    80004ca0:	00a59593          	slli	a1,a1,0xa
    80004ca4:	2ab58593          	addi	a1,a1,683
    80004ca8:	00b5063b          	addw	a2,a0,a1
    80004cac:	1ec3bc23          	sd	a2,504(t2)
    80004cb0:	f5a5b0b7          	lui	ra,0xf5a5b
    80004cb4:	7780809b          	addiw	ra,ra,1912 # fffffffff5a5b778 <absimm+0xffffffff3ad4dca8>
    80004cb8:	00c08463          	beq	ra,a2,80004cc0 <inst_339>
    80004cbc:	b68fb06f          	j	80000024 <rvtest_error>

0000000080004cc0 <inst_339>:
    80004cc0:	00000537          	lui	a0,0x0
    80004cc4:	fff50513          	addi	a0,a0,-1
    80004cc8:	00b51513          	slli	a0,a0,0xb
    80004ccc:	25750513          	addi	a0,a0,599
    80004cd0:	00b51513          	slli	a0,a0,0xb
    80004cd4:	6c350513          	addi	a0,a0,1731
    80004cd8:	00a51513          	slli	a0,a0,0xa
    80004cdc:	0cd50513          	addi	a0,a0,205
    80004ce0:	00600593          	li	a1,6
    80004ce4:	00b5063b          	addw	a2,a0,a1
    80004ce8:	20c3b023          	sd	a2,512(t2)
    80004cec:	4afb10b7          	lui	ra,0x4afb1
    80004cf0:	cd30809b          	addiw	ra,ra,-813 # 4afb0cd3 <absimmsh+0x3f4dff26>
    80004cf4:	00c08463          	beq	ra,a2,80004cfc <inst_340>
    80004cf8:	b2cfb06f          	j	80000024 <rvtest_error>

0000000080004cfc <inst_340>:
    80004cfc:	00000537          	lui	a0,0x0
    80004d00:	fff50513          	addi	a0,a0,-1
    80004d04:	00b51513          	slli	a0,a0,0xb
    80004d08:	25750513          	addi	a0,a0,599
    80004d0c:	00b51513          	slli	a0,a0,0xb
    80004d10:	6c350513          	addi	a0,a0,1731
    80004d14:	00a51513          	slli	a0,a0,0xa
    80004d18:	0cd50513          	addi	a0,a0,205
    80004d1c:	333335b7          	lui	a1,0x33333
    80004d20:	33358593          	addi	a1,a1,819 # 33333333 <absimmsh+0x27862586>
    80004d24:	00b59593          	slli	a1,a1,0xb
    80004d28:	19958593          	addi	a1,a1,409
    80004d2c:	00b59593          	slli	a1,a1,0xb
    80004d30:	4cc58593          	addi	a1,a1,1228
    80004d34:	00a59593          	slli	a1,a1,0xa
    80004d38:	33458593          	addi	a1,a1,820
    80004d3c:	00b5063b          	addw	a2,a0,a1
    80004d40:	20c3b423          	sd	a2,520(t2)
    80004d44:	7e2e40b7          	lui	ra,0x7e2e4
    80004d48:	0010809b          	addiw	ra,ra,1 # 7e2e4001 <absimmsh+0x72813254>
    80004d4c:	00c08463          	beq	ra,a2,80004d54 <inst_341>
    80004d50:	ad4fb06f          	j	80000024 <rvtest_error>

0000000080004d54 <inst_341>:
    80004d54:	00000537          	lui	a0,0x0
    80004d58:	fff50513          	addi	a0,a0,-1
    80004d5c:	00b51513          	slli	a0,a0,0xb
    80004d60:	25750513          	addi	a0,a0,599
    80004d64:	00b51513          	slli	a0,a0,0xb
    80004d68:	6c350513          	addi	a0,a0,1731
    80004d6c:	00a51513          	slli	a0,a0,0xa
    80004d70:	0cd50513          	addi	a0,a0,205
    80004d74:	666665b7          	lui	a1,0x66666
    80004d78:	66658593          	addi	a1,a1,1638 # 66666666 <absimmsh+0x5ab958b9>
    80004d7c:	00b59593          	slli	a1,a1,0xb
    80004d80:	33358593          	addi	a1,a1,819
    80004d84:	00b59593          	slli	a1,a1,0xb
    80004d88:	19958593          	addi	a1,a1,409
    80004d8c:	00a59593          	slli	a1,a1,0xa
    80004d90:	26758593          	addi	a1,a1,615
    80004d94:	00b5063b          	addw	a2,a0,a1
    80004d98:	20c3b823          	sd	a2,528(t2)
    80004d9c:	b16170b7          	lui	ra,0xb1617
    80004da0:	3340809b          	addiw	ra,ra,820 # ffffffffb1617334 <absimm+0xfffffffef6909864>
    80004da4:	00c08463          	beq	ra,a2,80004dac <inst_342>
    80004da8:	a7cfb06f          	j	80000024 <rvtest_error>

0000000080004dac <inst_342>:
    80004dac:	00000537          	lui	a0,0x0
    80004db0:	fff50513          	addi	a0,a0,-1
    80004db4:	00b51513          	slli	a0,a0,0xb
    80004db8:	25750513          	addi	a0,a0,599
    80004dbc:	00b51513          	slli	a0,a0,0xb
    80004dc0:	6c350513          	addi	a0,a0,1731
    80004dc4:	00a51513          	slli	a0,a0,0xa
    80004dc8:	0cd50513          	addi	a0,a0,205
    80004dcc:	000005b7          	lui	a1,0x0
    80004dd0:	fff58593          	addi	a1,a1,-1
    80004dd4:	00b59593          	slli	a1,a1,0xb
    80004dd8:	25758593          	addi	a1,a1,599
    80004ddc:	00b59593          	slli	a1,a1,0xb
    80004de0:	6c358593          	addi	a1,a1,1731
    80004de4:	00a59593          	slli	a1,a1,0xa
    80004de8:	0ce58593          	addi	a1,a1,206
    80004dec:	00b5063b          	addw	a2,a0,a1
    80004df0:	20c3bc23          	sd	a2,536(t2)
    80004df4:	95f620b7          	lui	ra,0x95f62
    80004df8:	99b0809b          	addiw	ra,ra,-1637 # ffffffff95f6199b <absimm+0xfffffffedb253ecb>
    80004dfc:	00c08463          	beq	ra,a2,80004e04 <inst_343>
    80004e00:	a24fb06f          	j	80000024 <rvtest_error>

0000000080004e04 <inst_343>:
    80004e04:	00000537          	lui	a0,0x0
    80004e08:	fff50513          	addi	a0,a0,-1
    80004e0c:	00b51513          	slli	a0,a0,0xb
    80004e10:	25750513          	addi	a0,a0,599
    80004e14:	00b51513          	slli	a0,a0,0xb
    80004e18:	6c350513          	addi	a0,a0,1731
    80004e1c:	00a51513          	slli	a0,a0,0xa
    80004e20:	0cd50513          	addi	a0,a0,205
    80004e24:	000005b7          	lui	a1,0x0
    80004e28:	00058593          	mv	a1,a1
    80004e2c:	00b59593          	slli	a1,a1,0xb
    80004e30:	5a858593          	addi	a1,a1,1448 # 5a8 <offset+0x110>
    80004e34:	00b59593          	slli	a1,a1,0xb
    80004e38:	13c58593          	addi	a1,a1,316
    80004e3c:	00a59593          	slli	a1,a1,0xa
    80004e40:	33458593          	addi	a1,a1,820
    80004e44:	00b5063b          	addw	a2,a0,a1
    80004e48:	22c3b023          	sd	a2,544(t2)
    80004e4c:	00100093          	li	ra,1
    80004e50:	00c08463          	beq	ra,a2,80004e58 <inst_344>
    80004e54:	9d0fb06f          	j	80000024 <rvtest_error>

0000000080004e58 <inst_344>:
    80004e58:	00000537          	lui	a0,0x0
    80004e5c:	00050513          	mv	a0,a0
    80004e60:	00b51513          	slli	a0,a0,0xb
    80004e64:	5a850513          	addi	a0,a0,1448 # 5a8 <offset+0x110>
    80004e68:	00b51513          	slli	a0,a0,0xb
    80004e6c:	13c50513          	addi	a0,a0,316
    80004e70:	00a51513          	slli	a0,a0,0xa
    80004e74:	33350513          	addi	a0,a0,819
    80004e78:	00300593          	li	a1,3
    80004e7c:	00b5063b          	addw	a2,a0,a1
    80004e80:	22c3b423          	sd	a2,552(t2)
    80004e84:	b504f0b7          	lui	ra,0xb504f
    80004e88:	3360809b          	addiw	ra,ra,822 # ffffffffb504f336 <absimm+0xfffffffefa341866>
    80004e8c:	00c08463          	beq	ra,a2,80004e94 <inst_345>
    80004e90:	994fb06f          	j	80000024 <rvtest_error>

0000000080004e94 <inst_345>:
    80004e94:	00000537          	lui	a0,0x0
    80004e98:	00050513          	mv	a0,a0
    80004e9c:	00b51513          	slli	a0,a0,0xb
    80004ea0:	5a850513          	addi	a0,a0,1448 # 5a8 <offset+0x110>
    80004ea4:	00b51513          	slli	a0,a0,0xb
    80004ea8:	13c50513          	addi	a0,a0,316
    80004eac:	00a51513          	slli	a0,a0,0xa
    80004eb0:	33350513          	addi	a0,a0,819
    80004eb4:	555555b7          	lui	a1,0x55555
    80004eb8:	55558593          	addi	a1,a1,1365 # 55555555 <absimmsh+0x49a847a8>
    80004ebc:	00b59593          	slli	a1,a1,0xb
    80004ec0:	2aa58593          	addi	a1,a1,682
    80004ec4:	00b59593          	slli	a1,a1,0xb
    80004ec8:	55558593          	addi	a1,a1,1365
    80004ecc:	00a59593          	slli	a1,a1,0xa
    80004ed0:	15558593          	addi	a1,a1,341
    80004ed4:	00b5063b          	addw	a2,a0,a1
    80004ed8:	22c3b823          	sd	a2,560(t2)
    80004edc:	0a5a50b7          	lui	ra,0xa5a5
    80004ee0:	8880809b          	addiw	ra,ra,-1912 # a5a4888 <offset+0xa5a43f0>
    80004ee4:	00c08463          	beq	ra,a2,80004eec <inst_346>
    80004ee8:	93cfb06f          	j	80000024 <rvtest_error>

0000000080004eec <inst_346>:
    80004eec:	00000537          	lui	a0,0x0
    80004ef0:	00050513          	mv	a0,a0
    80004ef4:	00b51513          	slli	a0,a0,0xb
    80004ef8:	5a850513          	addi	a0,a0,1448 # 5a8 <offset+0x110>
    80004efc:	00b51513          	slli	a0,a0,0xb
    80004f00:	13c50513          	addi	a0,a0,316
    80004f04:	00a51513          	slli	a0,a0,0xa
    80004f08:	33350513          	addi	a0,a0,819
    80004f0c:	aaaab5b7          	lui	a1,0xaaaab
    80004f10:	aaa58593          	addi	a1,a1,-1366 # ffffffffaaaaaaaa <absimm+0xfffffffeefd9cfda>
    80004f14:	00b59593          	slli	a1,a1,0xb
    80004f18:	55558593          	addi	a1,a1,1365
    80004f1c:	00b59593          	slli	a1,a1,0xb
    80004f20:	2aa58593          	addi	a1,a1,682
    80004f24:	00a59593          	slli	a1,a1,0xa
    80004f28:	2aa58593          	addi	a1,a1,682
    80004f2c:	00b5063b          	addw	a2,a0,a1
    80004f30:	22c3bc23          	sd	a2,568(t2)
    80004f34:	5fafa0b7          	lui	ra,0x5fafa
    80004f38:	ddd0809b          	addiw	ra,ra,-547 # 5faf9ddd <absimmsh+0x54029030>
    80004f3c:	00c08463          	beq	ra,a2,80004f44 <inst_347>
    80004f40:	8e4fb06f          	j	80000024 <rvtest_error>

0000000080004f44 <inst_347>:
    80004f44:	00000537          	lui	a0,0x0
    80004f48:	00050513          	mv	a0,a0
    80004f4c:	00b51513          	slli	a0,a0,0xb
    80004f50:	5a850513          	addi	a0,a0,1448 # 5a8 <offset+0x110>
    80004f54:	00b51513          	slli	a0,a0,0xb
    80004f58:	13c50513          	addi	a0,a0,316
    80004f5c:	00a51513          	slli	a0,a0,0xa
    80004f60:	33350513          	addi	a0,a0,819
    80004f64:	00500593          	li	a1,5
    80004f68:	00b5063b          	addw	a2,a0,a1
    80004f6c:	24c3b023          	sd	a2,576(t2)
    80004f70:	b504f0b7          	lui	ra,0xb504f
    80004f74:	3380809b          	addiw	ra,ra,824 # ffffffffb504f338 <absimm+0xfffffffefa341868>
    80004f78:	00c08463          	beq	ra,a2,80004f80 <inst_348>
    80004f7c:	8a8fb06f          	j	80000024 <rvtest_error>

0000000080004f80 <inst_348>:
    80004f80:	00000537          	lui	a0,0x0
    80004f84:	00050513          	mv	a0,a0
    80004f88:	00b51513          	slli	a0,a0,0xb
    80004f8c:	5a850513          	addi	a0,a0,1448 # 5a8 <offset+0x110>
    80004f90:	00b51513          	slli	a0,a0,0xb
    80004f94:	13c50513          	addi	a0,a0,316
    80004f98:	00a51513          	slli	a0,a0,0xa
    80004f9c:	33350513          	addi	a0,a0,819
    80004fa0:	333335b7          	lui	a1,0x33333
    80004fa4:	33358593          	addi	a1,a1,819 # 33333333 <absimmsh+0x27862586>
    80004fa8:	00b59593          	slli	a1,a1,0xb
    80004fac:	19958593          	addi	a1,a1,409
    80004fb0:	00b59593          	slli	a1,a1,0xb
    80004fb4:	4cc58593          	addi	a1,a1,1228
    80004fb8:	00a59593          	slli	a1,a1,0xa
    80004fbc:	33358593          	addi	a1,a1,819
    80004fc0:	00b5063b          	addw	a2,a0,a1
    80004fc4:	24c3b423          	sd	a2,584(t2)
    80004fc8:	e83820b7          	lui	ra,0xe8382
    80004fcc:	6660809b          	addiw	ra,ra,1638 # ffffffffe8382666 <absimm+0xffffffff2d674b96>
    80004fd0:	00c08463          	beq	ra,a2,80004fd8 <inst_349>
    80004fd4:	850fb06f          	j	80000024 <rvtest_error>

0000000080004fd8 <inst_349>:
    80004fd8:	00000537          	lui	a0,0x0
    80004fdc:	00050513          	mv	a0,a0
    80004fe0:	00b51513          	slli	a0,a0,0xb
    80004fe4:	5a850513          	addi	a0,a0,1448 # 5a8 <offset+0x110>
    80004fe8:	00b51513          	slli	a0,a0,0xb
    80004fec:	13c50513          	addi	a0,a0,316
    80004ff0:	00a51513          	slli	a0,a0,0xa
    80004ff4:	33350513          	addi	a0,a0,819
    80004ff8:	666665b7          	lui	a1,0x66666
    80004ffc:	66658593          	addi	a1,a1,1638 # 66666666 <absimmsh+0x5ab958b9>
    80005000:	00b59593          	slli	a1,a1,0xb
    80005004:	33358593          	addi	a1,a1,819
    80005008:	00b59593          	slli	a1,a1,0xb
    8000500c:	19958593          	addi	a1,a1,409
    80005010:	00a59593          	slli	a1,a1,0xa
    80005014:	26658593          	addi	a1,a1,614
    80005018:	00b5063b          	addw	a2,a0,a1
    8000501c:	24c3b823          	sd	a2,592(t2)
    80005020:	1b6b60b7          	lui	ra,0x1b6b6
    80005024:	9990809b          	addiw	ra,ra,-1639 # 1b6b5999 <absimmsh+0xfbe4bec>
    80005028:	00c08463          	beq	ra,a2,80005030 <inst_350>
    8000502c:	ff9fa06f          	j	80000024 <rvtest_error>

0000000080005030 <inst_350>:
    80005030:	00000537          	lui	a0,0x0
    80005034:	00050513          	mv	a0,a0
    80005038:	00b51513          	slli	a0,a0,0xb
    8000503c:	5a850513          	addi	a0,a0,1448 # 5a8 <offset+0x110>
    80005040:	00b51513          	slli	a0,a0,0xb
    80005044:	13c50513          	addi	a0,a0,316
    80005048:	00a51513          	slli	a0,a0,0xa
    8000504c:	33350513          	addi	a0,a0,819
    80005050:	000005b7          	lui	a1,0x0
    80005054:	fff58593          	addi	a1,a1,-1
    80005058:	00b59593          	slli	a1,a1,0xb
    8000505c:	25758593          	addi	a1,a1,599
    80005060:	00b59593          	slli	a1,a1,0xb
    80005064:	6c358593          	addi	a1,a1,1731
    80005068:	00a59593          	slli	a1,a1,0xa
    8000506c:	0cd58593          	addi	a1,a1,205
    80005070:	00b5063b          	addw	a2,a0,a1
    80005074:	24c3bc23          	sd	a2,600(t2)
    80005078:	00000093          	li	ra,0
    8000507c:	00c08463          	beq	ra,a2,80005084 <inst_351>
    80005080:	fa5fa06f          	j	80000024 <rvtest_error>

0000000080005084 <inst_351>:
    80005084:	00000537          	lui	a0,0x0
    80005088:	00050513          	mv	a0,a0
    8000508c:	00b51513          	slli	a0,a0,0xb
    80005090:	5a850513          	addi	a0,a0,1448 # 5a8 <offset+0x110>
    80005094:	00b51513          	slli	a0,a0,0xb
    80005098:	13c50513          	addi	a0,a0,316
    8000509c:	00a51513          	slli	a0,a0,0xa
    800050a0:	33350513          	addi	a0,a0,819
    800050a4:	000005b7          	lui	a1,0x0
    800050a8:	00058593          	mv	a1,a1
    800050ac:	00b59593          	slli	a1,a1,0xb
    800050b0:	5a858593          	addi	a1,a1,1448 # 5a8 <offset+0x110>
    800050b4:	00b59593          	slli	a1,a1,0xb
    800050b8:	13c58593          	addi	a1,a1,316
    800050bc:	00a59593          	slli	a1,a1,0xa
    800050c0:	33358593          	addi	a1,a1,819
    800050c4:	00b5063b          	addw	a2,a0,a1
    800050c8:	26c3b023          	sd	a2,608(t2)
    800050cc:	6a09e0b7          	lui	ra,0x6a09e
    800050d0:	6660809b          	addiw	ra,ra,1638 # 6a09e666 <absimmsh+0x5e5cd8b9>
    800050d4:	00c08463          	beq	ra,a2,800050dc <inst_352>
    800050d8:	f4dfa06f          	j	80000024 <rvtest_error>

00000000800050dc <inst_352>:
    800050dc:	00000537          	lui	a0,0x0
    800050e0:	00050513          	mv	a0,a0
    800050e4:	00b51513          	slli	a0,a0,0xb
    800050e8:	5a850513          	addi	a0,a0,1448 # 5a8 <offset+0x110>
    800050ec:	00b51513          	slli	a0,a0,0xb
    800050f0:	13c50513          	addi	a0,a0,316
    800050f4:	00a51513          	slli	a0,a0,0xa
    800050f8:	33350513          	addi	a0,a0,819
    800050fc:	00200593          	li	a1,2
    80005100:	00b5063b          	addw	a2,a0,a1
    80005104:	26c3b423          	sd	a2,616(t2)
    80005108:	b504f0b7          	lui	ra,0xb504f
    8000510c:	3350809b          	addiw	ra,ra,821 # ffffffffb504f335 <absimm+0xfffffffefa341865>
    80005110:	00c08463          	beq	ra,a2,80005118 <inst_353>
    80005114:	f11fa06f          	j	80000024 <rvtest_error>

0000000080005118 <inst_353>:
    80005118:	00000537          	lui	a0,0x0
    8000511c:	00050513          	mv	a0,a0
    80005120:	00b51513          	slli	a0,a0,0xb
    80005124:	5a850513          	addi	a0,a0,1448 # 5a8 <offset+0x110>
    80005128:	00b51513          	slli	a0,a0,0xb
    8000512c:	13c50513          	addi	a0,a0,316
    80005130:	00a51513          	slli	a0,a0,0xa
    80005134:	33350513          	addi	a0,a0,819
    80005138:	555555b7          	lui	a1,0x55555
    8000513c:	55558593          	addi	a1,a1,1365 # 55555555 <absimmsh+0x49a847a8>
    80005140:	00b59593          	slli	a1,a1,0xb
    80005144:	2aa58593          	addi	a1,a1,682
    80005148:	00b59593          	slli	a1,a1,0xb
    8000514c:	55558593          	addi	a1,a1,1365
    80005150:	00a59593          	slli	a1,a1,0xa
    80005154:	15458593          	addi	a1,a1,340
    80005158:	00b5063b          	addw	a2,a0,a1
    8000515c:	26c3b823          	sd	a2,624(t2)
    80005160:	0a5a50b7          	lui	ra,0xa5a5
    80005164:	8870809b          	addiw	ra,ra,-1913 # a5a4887 <offset+0xa5a43ef>
    80005168:	00c08463          	beq	ra,a2,80005170 <inst_354>
    8000516c:	eb9fa06f          	j	80000024 <rvtest_error>

0000000080005170 <inst_354>:
    80005170:	00000537          	lui	a0,0x0
    80005174:	00050513          	mv	a0,a0
    80005178:	00b51513          	slli	a0,a0,0xb
    8000517c:	5a850513          	addi	a0,a0,1448 # 5a8 <offset+0x110>
    80005180:	00b51513          	slli	a0,a0,0xb
    80005184:	13c50513          	addi	a0,a0,316
    80005188:	00a51513          	slli	a0,a0,0xa
    8000518c:	33350513          	addi	a0,a0,819
    80005190:	00000593          	li	a1,0
    80005194:	00b5063b          	addw	a2,a0,a1
    80005198:	26c3bc23          	sd	a2,632(t2)
    8000519c:	b504f0b7          	lui	ra,0xb504f
    800051a0:	3330809b          	addiw	ra,ra,819 # ffffffffb504f333 <absimm+0xfffffffefa341863>
    800051a4:	00c08463          	beq	ra,a2,800051ac <inst_355>
    800051a8:	e7dfa06f          	j	80000024 <rvtest_error>

00000000800051ac <inst_355>:
    800051ac:	00000537          	lui	a0,0x0
    800051b0:	00050513          	mv	a0,a0
    800051b4:	00b51513          	slli	a0,a0,0xb
    800051b8:	5a850513          	addi	a0,a0,1448 # 5a8 <offset+0x110>
    800051bc:	00b51513          	slli	a0,a0,0xb
    800051c0:	13c50513          	addi	a0,a0,316
    800051c4:	00a51513          	slli	a0,a0,0xa
    800051c8:	33350513          	addi	a0,a0,819
    800051cc:	00400593          	li	a1,4
    800051d0:	00b5063b          	addw	a2,a0,a1
    800051d4:	28c3b023          	sd	a2,640(t2)
    800051d8:	b504f0b7          	lui	ra,0xb504f
    800051dc:	3370809b          	addiw	ra,ra,823 # ffffffffb504f337 <absimm+0xfffffffefa341867>
    800051e0:	00c08463          	beq	ra,a2,800051e8 <inst_356>
    800051e4:	e41fa06f          	j	80000024 <rvtest_error>

00000000800051e8 <inst_356>:
    800051e8:	00000537          	lui	a0,0x0
    800051ec:	00050513          	mv	a0,a0
    800051f0:	00b51513          	slli	a0,a0,0xb
    800051f4:	5a850513          	addi	a0,a0,1448 # 5a8 <offset+0x110>
    800051f8:	00b51513          	slli	a0,a0,0xb
    800051fc:	13c50513          	addi	a0,a0,316
    80005200:	00a51513          	slli	a0,a0,0xa
    80005204:	33350513          	addi	a0,a0,819
    80005208:	333335b7          	lui	a1,0x33333
    8000520c:	33358593          	addi	a1,a1,819 # 33333333 <absimmsh+0x27862586>
    80005210:	00b59593          	slli	a1,a1,0xb
    80005214:	19958593          	addi	a1,a1,409
    80005218:	00b59593          	slli	a1,a1,0xb
    8000521c:	4cc58593          	addi	a1,a1,1228
    80005220:	00a59593          	slli	a1,a1,0xa
    80005224:	33258593          	addi	a1,a1,818
    80005228:	00b5063b          	addw	a2,a0,a1
    8000522c:	28c3b423          	sd	a2,648(t2)
    80005230:	e83820b7          	lui	ra,0xe8382
    80005234:	6650809b          	addiw	ra,ra,1637 # ffffffffe8382665 <absimm+0xffffffff2d674b95>
    80005238:	00c08463          	beq	ra,a2,80005240 <inst_357>
    8000523c:	de9fa06f          	j	80000024 <rvtest_error>

0000000080005240 <inst_357>:
    80005240:	00000537          	lui	a0,0x0
    80005244:	00050513          	mv	a0,a0
    80005248:	00b51513          	slli	a0,a0,0xb
    8000524c:	5a850513          	addi	a0,a0,1448 # 5a8 <offset+0x110>
    80005250:	00b51513          	slli	a0,a0,0xb
    80005254:	13c50513          	addi	a0,a0,316
    80005258:	00a51513          	slli	a0,a0,0xa
    8000525c:	33350513          	addi	a0,a0,819
    80005260:	666665b7          	lui	a1,0x66666
    80005264:	66658593          	addi	a1,a1,1638 # 66666666 <absimmsh+0x5ab958b9>
    80005268:	00b59593          	slli	a1,a1,0xb
    8000526c:	33358593          	addi	a1,a1,819
    80005270:	00b59593          	slli	a1,a1,0xb
    80005274:	19958593          	addi	a1,a1,409
    80005278:	00a59593          	slli	a1,a1,0xa
    8000527c:	26558593          	addi	a1,a1,613
    80005280:	00b5063b          	addw	a2,a0,a1
    80005284:	28c3b823          	sd	a2,656(t2)
    80005288:	1b6b60b7          	lui	ra,0x1b6b6
    8000528c:	9980809b          	addiw	ra,ra,-1640 # 1b6b5998 <absimmsh+0xfbe4beb>
    80005290:	00c08463          	beq	ra,a2,80005298 <inst_358>
    80005294:	d91fa06f          	j	80000024 <rvtest_error>

0000000080005298 <inst_358>:
    80005298:	00000537          	lui	a0,0x0
    8000529c:	00050513          	mv	a0,a0
    800052a0:	00b51513          	slli	a0,a0,0xb
    800052a4:	5a850513          	addi	a0,a0,1448 # 5a8 <offset+0x110>
    800052a8:	00b51513          	slli	a0,a0,0xb
    800052ac:	13c50513          	addi	a0,a0,316
    800052b0:	00a51513          	slli	a0,a0,0xa
    800052b4:	33350513          	addi	a0,a0,819
    800052b8:	000005b7          	lui	a1,0x0
    800052bc:	00058593          	mv	a1,a1
    800052c0:	00b59593          	slli	a1,a1,0xb
    800052c4:	5a858593          	addi	a1,a1,1448 # 5a8 <offset+0x110>
    800052c8:	00b59593          	slli	a1,a1,0xb
    800052cc:	13c58593          	addi	a1,a1,316
    800052d0:	00a59593          	slli	a1,a1,0xa
    800052d4:	33258593          	addi	a1,a1,818
    800052d8:	00b5063b          	addw	a2,a0,a1
    800052dc:	28c3bc23          	sd	a2,664(t2)
    800052e0:	6a09e0b7          	lui	ra,0x6a09e
    800052e4:	6650809b          	addiw	ra,ra,1637 # 6a09e665 <absimmsh+0x5e5cd8b8>
    800052e8:	00c08463          	beq	ra,a2,800052f0 <inst_359>
    800052ec:	d39fa06f          	j	80000024 <rvtest_error>

00000000800052f0 <inst_359>:
    800052f0:	00000537          	lui	a0,0x0
    800052f4:	00050513          	mv	a0,a0
    800052f8:	00b51513          	slli	a0,a0,0xb
    800052fc:	5a850513          	addi	a0,a0,1448 # 5a8 <offset+0x110>
    80005300:	00b51513          	slli	a0,a0,0xb
    80005304:	13c50513          	addi	a0,a0,316
    80005308:	00a51513          	slli	a0,a0,0xa
    8000530c:	33350513          	addi	a0,a0,819
    80005310:	555555b7          	lui	a1,0x55555
    80005314:	55558593          	addi	a1,a1,1365 # 55555555 <absimmsh+0x49a847a8>
    80005318:	00b59593          	slli	a1,a1,0xb
    8000531c:	2aa58593          	addi	a1,a1,682
    80005320:	00b59593          	slli	a1,a1,0xb
    80005324:	55558593          	addi	a1,a1,1365
    80005328:	00a59593          	slli	a1,a1,0xa
    8000532c:	15658593          	addi	a1,a1,342
    80005330:	00b5063b          	addw	a2,a0,a1
    80005334:	2ac3b023          	sd	a2,672(t2)
    80005338:	0a5a50b7          	lui	ra,0xa5a5
    8000533c:	8890809b          	addiw	ra,ra,-1911 # a5a4889 <offset+0xa5a43f1>
    80005340:	00c08463          	beq	ra,a2,80005348 <inst_360>
    80005344:	ce1fa06f          	j	80000024 <rvtest_error>

0000000080005348 <inst_360>:
    80005348:	00000537          	lui	a0,0x0
    8000534c:	00050513          	mv	a0,a0
    80005350:	00b51513          	slli	a0,a0,0xb
    80005354:	5a850513          	addi	a0,a0,1448 # 5a8 <offset+0x110>
    80005358:	00b51513          	slli	a0,a0,0xb
    8000535c:	13c50513          	addi	a0,a0,316
    80005360:	00a51513          	slli	a0,a0,0xa
    80005364:	33350513          	addi	a0,a0,819
    80005368:	aaaab5b7          	lui	a1,0xaaaab
    8000536c:	aaa58593          	addi	a1,a1,-1366 # ffffffffaaaaaaaa <absimm+0xfffffffeefd9cfda>
    80005370:	00b59593          	slli	a1,a1,0xb
    80005374:	55558593          	addi	a1,a1,1365
    80005378:	00b59593          	slli	a1,a1,0xb
    8000537c:	2aa58593          	addi	a1,a1,682
    80005380:	00a59593          	slli	a1,a1,0xa
    80005384:	2ab58593          	addi	a1,a1,683
    80005388:	00b5063b          	addw	a2,a0,a1
    8000538c:	2ac3b423          	sd	a2,680(t2)
    80005390:	5fafa0b7          	lui	ra,0x5fafa
    80005394:	dde0809b          	addiw	ra,ra,-546 # 5faf9dde <absimmsh+0x54029031>
    80005398:	00c08463          	beq	ra,a2,800053a0 <inst_361>
    8000539c:	c89fa06f          	j	80000024 <rvtest_error>

00000000800053a0 <inst_361>:
    800053a0:	00000537          	lui	a0,0x0
    800053a4:	00050513          	mv	a0,a0
    800053a8:	00b51513          	slli	a0,a0,0xb
    800053ac:	5a850513          	addi	a0,a0,1448 # 5a8 <offset+0x110>
    800053b0:	00b51513          	slli	a0,a0,0xb
    800053b4:	13c50513          	addi	a0,a0,316
    800053b8:	00a51513          	slli	a0,a0,0xa
    800053bc:	33350513          	addi	a0,a0,819
    800053c0:	00600593          	li	a1,6
    800053c4:	00b5063b          	addw	a2,a0,a1
    800053c8:	2ac3b823          	sd	a2,688(t2)
    800053cc:	b504f0b7          	lui	ra,0xb504f
    800053d0:	3390809b          	addiw	ra,ra,825 # ffffffffb504f339 <absimm+0xfffffffefa341869>
    800053d4:	00c08463          	beq	ra,a2,800053dc <inst_362>
    800053d8:	c4dfa06f          	j	80000024 <rvtest_error>

00000000800053dc <inst_362>:
    800053dc:	00000537          	lui	a0,0x0
    800053e0:	00050513          	mv	a0,a0
    800053e4:	00b51513          	slli	a0,a0,0xb
    800053e8:	5a850513          	addi	a0,a0,1448 # 5a8 <offset+0x110>
    800053ec:	00b51513          	slli	a0,a0,0xb
    800053f0:	13c50513          	addi	a0,a0,316
    800053f4:	00a51513          	slli	a0,a0,0xa
    800053f8:	33350513          	addi	a0,a0,819
    800053fc:	333335b7          	lui	a1,0x33333
    80005400:	33358593          	addi	a1,a1,819 # 33333333 <absimmsh+0x27862586>
    80005404:	00b59593          	slli	a1,a1,0xb
    80005408:	19958593          	addi	a1,a1,409
    8000540c:	00b59593          	slli	a1,a1,0xb
    80005410:	4cc58593          	addi	a1,a1,1228
    80005414:	00a59593          	slli	a1,a1,0xa
    80005418:	33458593          	addi	a1,a1,820
    8000541c:	00b5063b          	addw	a2,a0,a1
    80005420:	2ac3bc23          	sd	a2,696(t2)
    80005424:	e83820b7          	lui	ra,0xe8382
    80005428:	6670809b          	addiw	ra,ra,1639 # ffffffffe8382667 <absimm+0xffffffff2d674b97>
    8000542c:	00c08463          	beq	ra,a2,80005434 <inst_363>
    80005430:	bf5fa06f          	j	80000024 <rvtest_error>

0000000080005434 <inst_363>:
    80005434:	00000537          	lui	a0,0x0
    80005438:	00050513          	mv	a0,a0
    8000543c:	00b51513          	slli	a0,a0,0xb
    80005440:	5a850513          	addi	a0,a0,1448 # 5a8 <offset+0x110>
    80005444:	00b51513          	slli	a0,a0,0xb
    80005448:	13c50513          	addi	a0,a0,316
    8000544c:	00a51513          	slli	a0,a0,0xa
    80005450:	33350513          	addi	a0,a0,819
    80005454:	666665b7          	lui	a1,0x66666
    80005458:	66658593          	addi	a1,a1,1638 # 66666666 <absimmsh+0x5ab958b9>
    8000545c:	00b59593          	slli	a1,a1,0xb
    80005460:	33358593          	addi	a1,a1,819
    80005464:	00b59593          	slli	a1,a1,0xb
    80005468:	19958593          	addi	a1,a1,409
    8000546c:	00a59593          	slli	a1,a1,0xa
    80005470:	26758593          	addi	a1,a1,615
    80005474:	00b5063b          	addw	a2,a0,a1
    80005478:	2cc3b023          	sd	a2,704(t2)
    8000547c:	1b6b60b7          	lui	ra,0x1b6b6
    80005480:	99a0809b          	addiw	ra,ra,-1638 # 1b6b599a <absimmsh+0xfbe4bed>
    80005484:	00c08463          	beq	ra,a2,8000548c <inst_364>
    80005488:	b9dfa06f          	j	80000024 <rvtest_error>

000000008000548c <inst_364>:
    8000548c:	00000537          	lui	a0,0x0
    80005490:	00050513          	mv	a0,a0
    80005494:	00b51513          	slli	a0,a0,0xb
    80005498:	5a850513          	addi	a0,a0,1448 # 5a8 <offset+0x110>
    8000549c:	00b51513          	slli	a0,a0,0xb
    800054a0:	13c50513          	addi	a0,a0,316
    800054a4:	00a51513          	slli	a0,a0,0xa
    800054a8:	33350513          	addi	a0,a0,819
    800054ac:	000005b7          	lui	a1,0x0
    800054b0:	fff58593          	addi	a1,a1,-1
    800054b4:	00b59593          	slli	a1,a1,0xb
    800054b8:	25758593          	addi	a1,a1,599
    800054bc:	00b59593          	slli	a1,a1,0xb
    800054c0:	6c358593          	addi	a1,a1,1731
    800054c4:	00a59593          	slli	a1,a1,0xa
    800054c8:	0ce58593          	addi	a1,a1,206
    800054cc:	00b5063b          	addw	a2,a0,a1
    800054d0:	2cc3b423          	sd	a2,712(t2)
    800054d4:	00100093          	li	ra,1
    800054d8:	00c08463          	beq	ra,a2,800054e0 <inst_365>
    800054dc:	b49fa06f          	j	80000024 <rvtest_error>

00000000800054e0 <inst_365>:
    800054e0:	00000537          	lui	a0,0x0
    800054e4:	00050513          	mv	a0,a0
    800054e8:	00b51513          	slli	a0,a0,0xb
    800054ec:	5a850513          	addi	a0,a0,1448 # 5a8 <offset+0x110>
    800054f0:	00b51513          	slli	a0,a0,0xb
    800054f4:	13c50513          	addi	a0,a0,316
    800054f8:	00a51513          	slli	a0,a0,0xa
    800054fc:	33350513          	addi	a0,a0,819
    80005500:	000005b7          	lui	a1,0x0
    80005504:	00058593          	mv	a1,a1
    80005508:	00b59593          	slli	a1,a1,0xb
    8000550c:	5a858593          	addi	a1,a1,1448 # 5a8 <offset+0x110>
    80005510:	00b59593          	slli	a1,a1,0xb
    80005514:	13c58593          	addi	a1,a1,316
    80005518:	00a59593          	slli	a1,a1,0xa
    8000551c:	33458593          	addi	a1,a1,820
    80005520:	00b5063b          	addw	a2,a0,a1
    80005524:	2cc3b823          	sd	a2,720(t2)
    80005528:	6a09e0b7          	lui	ra,0x6a09e
    8000552c:	6670809b          	addiw	ra,ra,1639 # 6a09e667 <absimmsh+0x5e5cd8ba>
    80005530:	00c08463          	beq	ra,a2,80005538 <inst_366>
    80005534:	af1fa06f          	j	80000024 <rvtest_error>

0000000080005538 <inst_366>:
    80005538:	00200513          	li	a0,2
    8000553c:	00300593          	li	a1,3
    80005540:	00b5063b          	addw	a2,a0,a1
    80005544:	2cc3bc23          	sd	a2,728(t2)
    80005548:	00500093          	li	ra,5
    8000554c:	00c08463          	beq	ra,a2,80005554 <inst_367>
    80005550:	ad5fa06f          	j	80000024 <rvtest_error>

0000000080005554 <inst_367>:
    80005554:	00200513          	li	a0,2
    80005558:	555555b7          	lui	a1,0x55555
    8000555c:	55558593          	addi	a1,a1,1365 # 55555555 <absimmsh+0x49a847a8>
    80005560:	00b59593          	slli	a1,a1,0xb
    80005564:	2aa58593          	addi	a1,a1,682
    80005568:	00b59593          	slli	a1,a1,0xb
    8000556c:	55558593          	addi	a1,a1,1365
    80005570:	00a59593          	slli	a1,a1,0xa
    80005574:	15558593          	addi	a1,a1,341
    80005578:	00b5063b          	addw	a2,a0,a1
    8000557c:	2ec3b023          	sd	a2,736(t2)
    80005580:	555550b7          	lui	ra,0x55555
    80005584:	5570809b          	addiw	ra,ra,1367 # 55555557 <absimmsh+0x49a847aa>
    80005588:	00c08463          	beq	ra,a2,80005590 <inst_368>
    8000558c:	a99fa06f          	j	80000024 <rvtest_error>

0000000080005590 <inst_368>:
    80005590:	00200513          	li	a0,2
    80005594:	aaaab5b7          	lui	a1,0xaaaab
    80005598:	aaa58593          	addi	a1,a1,-1366 # ffffffffaaaaaaaa <absimm+0xfffffffeefd9cfda>
    8000559c:	00b59593          	slli	a1,a1,0xb
    800055a0:	55558593          	addi	a1,a1,1365
    800055a4:	00b59593          	slli	a1,a1,0xb
    800055a8:	2aa58593          	addi	a1,a1,682
    800055ac:	00a59593          	slli	a1,a1,0xa
    800055b0:	2aa58593          	addi	a1,a1,682
    800055b4:	00b5063b          	addw	a2,a0,a1
    800055b8:	2ec3b423          	sd	a2,744(t2)
    800055bc:	aaaab0b7          	lui	ra,0xaaaab
    800055c0:	aac0809b          	addiw	ra,ra,-1364 # ffffffffaaaaaaac <absimm+0xfffffffeefd9cfdc>
    800055c4:	00c08463          	beq	ra,a2,800055cc <inst_369>
    800055c8:	a5dfa06f          	j	80000024 <rvtest_error>

00000000800055cc <inst_369>:
    800055cc:	00200513          	li	a0,2
    800055d0:	00500593          	li	a1,5
    800055d4:	00b5063b          	addw	a2,a0,a1
    800055d8:	2ec3b823          	sd	a2,752(t2)
    800055dc:	00700093          	li	ra,7
    800055e0:	00c08463          	beq	ra,a2,800055e8 <inst_370>
    800055e4:	a41fa06f          	j	80000024 <rvtest_error>

00000000800055e8 <inst_370>:
    800055e8:	00200513          	li	a0,2
    800055ec:	333335b7          	lui	a1,0x33333
    800055f0:	33358593          	addi	a1,a1,819 # 33333333 <absimmsh+0x27862586>
    800055f4:	00b59593          	slli	a1,a1,0xb
    800055f8:	19958593          	addi	a1,a1,409
    800055fc:	00b59593          	slli	a1,a1,0xb
    80005600:	4cc58593          	addi	a1,a1,1228
    80005604:	00a59593          	slli	a1,a1,0xa
    80005608:	33358593          	addi	a1,a1,819
    8000560c:	00b5063b          	addw	a2,a0,a1
    80005610:	2ec3bc23          	sd	a2,760(t2)
    80005614:	333330b7          	lui	ra,0x33333
    80005618:	3350809b          	addiw	ra,ra,821 # 33333335 <absimmsh+0x27862588>
    8000561c:	00c08463          	beq	ra,a2,80005624 <inst_371>
    80005620:	a05fa06f          	j	80000024 <rvtest_error>

0000000080005624 <inst_371>:
    80005624:	00200513          	li	a0,2
    80005628:	666665b7          	lui	a1,0x66666
    8000562c:	66658593          	addi	a1,a1,1638 # 66666666 <absimmsh+0x5ab958b9>
    80005630:	00b59593          	slli	a1,a1,0xb
    80005634:	33358593          	addi	a1,a1,819
    80005638:	00b59593          	slli	a1,a1,0xb
    8000563c:	19958593          	addi	a1,a1,409
    80005640:	00a59593          	slli	a1,a1,0xa
    80005644:	26658593          	addi	a1,a1,614
    80005648:	00b5063b          	addw	a2,a0,a1
    8000564c:	30c3b023          	sd	a2,768(t2)
    80005650:	666660b7          	lui	ra,0x66666
    80005654:	6680809b          	addiw	ra,ra,1640 # 66666668 <absimmsh+0x5ab958bb>
    80005658:	00c08463          	beq	ra,a2,80005660 <inst_372>
    8000565c:	9c9fa06f          	j	80000024 <rvtest_error>

0000000080005660 <inst_372>:
    80005660:	00200513          	li	a0,2
    80005664:	000005b7          	lui	a1,0x0
    80005668:	fff58593          	addi	a1,a1,-1
    8000566c:	00b59593          	slli	a1,a1,0xb
    80005670:	25758593          	addi	a1,a1,599
    80005674:	00b59593          	slli	a1,a1,0xb
    80005678:	6c358593          	addi	a1,a1,1731
    8000567c:	00a59593          	slli	a1,a1,0xa
    80005680:	0cd58593          	addi	a1,a1,205
    80005684:	00b5063b          	addw	a2,a0,a1
    80005688:	30c3b423          	sd	a2,776(t2)
    8000568c:	4afb10b7          	lui	ra,0x4afb1
    80005690:	ccf0809b          	addiw	ra,ra,-817 # 4afb0ccf <absimmsh+0x3f4dff22>
    80005694:	00c08463          	beq	ra,a2,8000569c <inst_373>
    80005698:	98dfa06f          	j	80000024 <rvtest_error>

000000008000569c <inst_373>:
    8000569c:	00200513          	li	a0,2
    800056a0:	000005b7          	lui	a1,0x0
    800056a4:	00058593          	mv	a1,a1
    800056a8:	00b59593          	slli	a1,a1,0xb
    800056ac:	5a858593          	addi	a1,a1,1448 # 5a8 <offset+0x110>
    800056b0:	00b59593          	slli	a1,a1,0xb
    800056b4:	13c58593          	addi	a1,a1,316
    800056b8:	00a59593          	slli	a1,a1,0xa
    800056bc:	33358593          	addi	a1,a1,819
    800056c0:	00b5063b          	addw	a2,a0,a1
    800056c4:	30c3b823          	sd	a2,784(t2)
    800056c8:	b504f0b7          	lui	ra,0xb504f
    800056cc:	3350809b          	addiw	ra,ra,821 # ffffffffb504f335 <absimm+0xfffffffefa341865>
    800056d0:	00c08463          	beq	ra,a2,800056d8 <inst_374>
    800056d4:	951fa06f          	j	80000024 <rvtest_error>

00000000800056d8 <inst_374>:
    800056d8:	00200513          	li	a0,2
    800056dc:	00200593          	li	a1,2
    800056e0:	00b5063b          	addw	a2,a0,a1
    800056e4:	30c3bc23          	sd	a2,792(t2)
    800056e8:	00400093          	li	ra,4
    800056ec:	00c08463          	beq	ra,a2,800056f4 <inst_375>
    800056f0:	935fa06f          	j	80000024 <rvtest_error>

00000000800056f4 <inst_375>:
    800056f4:	00200513          	li	a0,2
    800056f8:	555555b7          	lui	a1,0x55555
    800056fc:	55558593          	addi	a1,a1,1365 # 55555555 <absimmsh+0x49a847a8>
    80005700:	00b59593          	slli	a1,a1,0xb
    80005704:	2aa58593          	addi	a1,a1,682
    80005708:	00b59593          	slli	a1,a1,0xb
    8000570c:	55558593          	addi	a1,a1,1365
    80005710:	00a59593          	slli	a1,a1,0xa
    80005714:	15458593          	addi	a1,a1,340
    80005718:	00b5063b          	addw	a2,a0,a1
    8000571c:	32c3b023          	sd	a2,800(t2)
    80005720:	555550b7          	lui	ra,0x55555
    80005724:	5560809b          	addiw	ra,ra,1366 # 55555556 <absimmsh+0x49a847a9>
    80005728:	00c08463          	beq	ra,a2,80005730 <inst_376>
    8000572c:	8f9fa06f          	j	80000024 <rvtest_error>

0000000080005730 <inst_376>:
    80005730:	00200513          	li	a0,2
    80005734:	00000593          	li	a1,0
    80005738:	00b5063b          	addw	a2,a0,a1
    8000573c:	32c3b423          	sd	a2,808(t2)
    80005740:	00200093          	li	ra,2
    80005744:	00c08463          	beq	ra,a2,8000574c <inst_377>
    80005748:	8ddfa06f          	j	80000024 <rvtest_error>

000000008000574c <inst_377>:
    8000574c:	00200513          	li	a0,2
    80005750:	00400593          	li	a1,4
    80005754:	00b5063b          	addw	a2,a0,a1
    80005758:	32c3b823          	sd	a2,816(t2)
    8000575c:	00600093          	li	ra,6
    80005760:	00c08463          	beq	ra,a2,80005768 <inst_378>
    80005764:	8c1fa06f          	j	80000024 <rvtest_error>

0000000080005768 <inst_378>:
    80005768:	00200513          	li	a0,2
    8000576c:	333335b7          	lui	a1,0x33333
    80005770:	33358593          	addi	a1,a1,819 # 33333333 <absimmsh+0x27862586>
    80005774:	00b59593          	slli	a1,a1,0xb
    80005778:	19958593          	addi	a1,a1,409
    8000577c:	00b59593          	slli	a1,a1,0xb
    80005780:	4cc58593          	addi	a1,a1,1228
    80005784:	00a59593          	slli	a1,a1,0xa
    80005788:	33258593          	addi	a1,a1,818
    8000578c:	00b5063b          	addw	a2,a0,a1
    80005790:	32c3bc23          	sd	a2,824(t2)
    80005794:	333330b7          	lui	ra,0x33333
    80005798:	3340809b          	addiw	ra,ra,820 # 33333334 <absimmsh+0x27862587>
    8000579c:	00c08463          	beq	ra,a2,800057a4 <inst_379>
    800057a0:	885fa06f          	j	80000024 <rvtest_error>

00000000800057a4 <inst_379>:
    800057a4:	00200513          	li	a0,2
    800057a8:	666665b7          	lui	a1,0x66666
    800057ac:	66658593          	addi	a1,a1,1638 # 66666666 <absimmsh+0x5ab958b9>
    800057b0:	00b59593          	slli	a1,a1,0xb
    800057b4:	33358593          	addi	a1,a1,819
    800057b8:	00b59593          	slli	a1,a1,0xb
    800057bc:	19958593          	addi	a1,a1,409
    800057c0:	00a59593          	slli	a1,a1,0xa
    800057c4:	26558593          	addi	a1,a1,613
    800057c8:	00b5063b          	addw	a2,a0,a1
    800057cc:	34c3b023          	sd	a2,832(t2)
    800057d0:	666660b7          	lui	ra,0x66666
    800057d4:	6670809b          	addiw	ra,ra,1639 # 66666667 <absimmsh+0x5ab958ba>
    800057d8:	00c08463          	beq	ra,a2,800057e0 <inst_380>
    800057dc:	849fa06f          	j	80000024 <rvtest_error>

00000000800057e0 <inst_380>:
    800057e0:	00200513          	li	a0,2
    800057e4:	000005b7          	lui	a1,0x0
    800057e8:	00058593          	mv	a1,a1
    800057ec:	00b59593          	slli	a1,a1,0xb
    800057f0:	5a858593          	addi	a1,a1,1448 # 5a8 <offset+0x110>
    800057f4:	00b59593          	slli	a1,a1,0xb
    800057f8:	13c58593          	addi	a1,a1,316
    800057fc:	00a59593          	slli	a1,a1,0xa
    80005800:	33258593          	addi	a1,a1,818
    80005804:	00b5063b          	addw	a2,a0,a1
    80005808:	34c3b423          	sd	a2,840(t2)
    8000580c:	b504f0b7          	lui	ra,0xb504f
    80005810:	3340809b          	addiw	ra,ra,820 # ffffffffb504f334 <absimm+0xfffffffefa341864>
    80005814:	00c08463          	beq	ra,a2,8000581c <inst_381>
    80005818:	80dfa06f          	j	80000024 <rvtest_error>

000000008000581c <inst_381>:
    8000581c:	00200513          	li	a0,2
    80005820:	555555b7          	lui	a1,0x55555
    80005824:	55558593          	addi	a1,a1,1365 # 55555555 <absimmsh+0x49a847a8>
    80005828:	00b59593          	slli	a1,a1,0xb
    8000582c:	2aa58593          	addi	a1,a1,682
    80005830:	00b59593          	slli	a1,a1,0xb
    80005834:	55558593          	addi	a1,a1,1365
    80005838:	00a59593          	slli	a1,a1,0xa
    8000583c:	15658593          	addi	a1,a1,342
    80005840:	00b5063b          	addw	a2,a0,a1
    80005844:	34c3b823          	sd	a2,848(t2)
    80005848:	555550b7          	lui	ra,0x55555
    8000584c:	5580809b          	addiw	ra,ra,1368 # 55555558 <absimmsh+0x49a847ab>
    80005850:	00c08463          	beq	ra,a2,80005858 <inst_382>
    80005854:	fd0fa06f          	j	80000024 <rvtest_error>

0000000080005858 <inst_382>:
    80005858:	00200513          	li	a0,2
    8000585c:	aaaab5b7          	lui	a1,0xaaaab
    80005860:	aaa58593          	addi	a1,a1,-1366 # ffffffffaaaaaaaa <absimm+0xfffffffeefd9cfda>
    80005864:	00b59593          	slli	a1,a1,0xb
    80005868:	55558593          	addi	a1,a1,1365
    8000586c:	00b59593          	slli	a1,a1,0xb
    80005870:	2aa58593          	addi	a1,a1,682
    80005874:	00a59593          	slli	a1,a1,0xa
    80005878:	2ab58593          	addi	a1,a1,683
    8000587c:	00b5063b          	addw	a2,a0,a1
    80005880:	34c3bc23          	sd	a2,856(t2)
    80005884:	aaaab0b7          	lui	ra,0xaaaab
    80005888:	aad0809b          	addiw	ra,ra,-1363 # ffffffffaaaaaaad <absimm+0xfffffffeefd9cfdd>
    8000588c:	00c08463          	beq	ra,a2,80005894 <inst_383>
    80005890:	f94fa06f          	j	80000024 <rvtest_error>

0000000080005894 <inst_383>:
    80005894:	00200513          	li	a0,2
    80005898:	00600593          	li	a1,6
    8000589c:	00b5063b          	addw	a2,a0,a1
    800058a0:	36c3b023          	sd	a2,864(t2)
    800058a4:	00800093          	li	ra,8
    800058a8:	00c08463          	beq	ra,a2,800058b0 <inst_384>
    800058ac:	f78fa06f          	j	80000024 <rvtest_error>

00000000800058b0 <inst_384>:
    800058b0:	00200513          	li	a0,2
    800058b4:	333335b7          	lui	a1,0x33333
    800058b8:	33358593          	addi	a1,a1,819 # 33333333 <absimmsh+0x27862586>
    800058bc:	00b59593          	slli	a1,a1,0xb
    800058c0:	19958593          	addi	a1,a1,409
    800058c4:	00b59593          	slli	a1,a1,0xb
    800058c8:	4cc58593          	addi	a1,a1,1228
    800058cc:	00a59593          	slli	a1,a1,0xa
    800058d0:	33458593          	addi	a1,a1,820
    800058d4:	00b5063b          	addw	a2,a0,a1
    800058d8:	36c3b423          	sd	a2,872(t2)
    800058dc:	333330b7          	lui	ra,0x33333
    800058e0:	3360809b          	addiw	ra,ra,822 # 33333336 <absimmsh+0x27862589>
    800058e4:	00c08463          	beq	ra,a2,800058ec <inst_385>
    800058e8:	f3cfa06f          	j	80000024 <rvtest_error>

00000000800058ec <inst_385>:
    800058ec:	00200513          	li	a0,2
    800058f0:	666665b7          	lui	a1,0x66666
    800058f4:	66658593          	addi	a1,a1,1638 # 66666666 <absimmsh+0x5ab958b9>
    800058f8:	00b59593          	slli	a1,a1,0xb
    800058fc:	33358593          	addi	a1,a1,819
    80005900:	00b59593          	slli	a1,a1,0xb
    80005904:	19958593          	addi	a1,a1,409
    80005908:	00a59593          	slli	a1,a1,0xa
    8000590c:	26758593          	addi	a1,a1,615
    80005910:	00b5063b          	addw	a2,a0,a1
    80005914:	36c3b823          	sd	a2,880(t2)
    80005918:	666660b7          	lui	ra,0x66666
    8000591c:	6690809b          	addiw	ra,ra,1641 # 66666669 <absimmsh+0x5ab958bc>
    80005920:	00c08463          	beq	ra,a2,80005928 <inst_386>
    80005924:	f00fa06f          	j	80000024 <rvtest_error>

0000000080005928 <inst_386>:
    80005928:	00200513          	li	a0,2
    8000592c:	000005b7          	lui	a1,0x0
    80005930:	fff58593          	addi	a1,a1,-1
    80005934:	00b59593          	slli	a1,a1,0xb
    80005938:	25758593          	addi	a1,a1,599
    8000593c:	00b59593          	slli	a1,a1,0xb
    80005940:	6c358593          	addi	a1,a1,1731
    80005944:	00a59593          	slli	a1,a1,0xa
    80005948:	0ce58593          	addi	a1,a1,206
    8000594c:	00b5063b          	addw	a2,a0,a1
    80005950:	36c3bc23          	sd	a2,888(t2)
    80005954:	4afb10b7          	lui	ra,0x4afb1
    80005958:	cd00809b          	addiw	ra,ra,-816 # 4afb0cd0 <absimmsh+0x3f4dff23>
    8000595c:	00c08463          	beq	ra,a2,80005964 <inst_387>
    80005960:	ec4fa06f          	j	80000024 <rvtest_error>

0000000080005964 <inst_387>:
    80005964:	00200513          	li	a0,2
    80005968:	000005b7          	lui	a1,0x0
    8000596c:	00058593          	mv	a1,a1
    80005970:	00b59593          	slli	a1,a1,0xb
    80005974:	5a858593          	addi	a1,a1,1448 # 5a8 <offset+0x110>
    80005978:	00b59593          	slli	a1,a1,0xb
    8000597c:	13c58593          	addi	a1,a1,316
    80005980:	00a59593          	slli	a1,a1,0xa
    80005984:	33458593          	addi	a1,a1,820
    80005988:	00b5063b          	addw	a2,a0,a1
    8000598c:	38c3b023          	sd	a2,896(t2)
    80005990:	b504f0b7          	lui	ra,0xb504f
    80005994:	3360809b          	addiw	ra,ra,822 # ffffffffb504f336 <absimm+0xfffffffefa341866>
    80005998:	00c08463          	beq	ra,a2,800059a0 <inst_388>
    8000599c:	e88fa06f          	j	80000024 <rvtest_error>

00000000800059a0 <inst_388>:
    800059a0:	55555537          	lui	a0,0x55555
    800059a4:	55550513          	addi	a0,a0,1365 # 55555555 <absimmsh+0x49a847a8>
    800059a8:	00b51513          	slli	a0,a0,0xb
    800059ac:	2aa50513          	addi	a0,a0,682
    800059b0:	00b51513          	slli	a0,a0,0xb
    800059b4:	55550513          	addi	a0,a0,1365
    800059b8:	00a51513          	slli	a0,a0,0xa
    800059bc:	15450513          	addi	a0,a0,340
    800059c0:	00300593          	li	a1,3
    800059c4:	00b5063b          	addw	a2,a0,a1
    800059c8:	38c3b423          	sd	a2,904(t2)
    800059cc:	555550b7          	lui	ra,0x55555
    800059d0:	5570809b          	addiw	ra,ra,1367 # 55555557 <absimmsh+0x49a847aa>
    800059d4:	00c08463          	beq	ra,a2,800059dc <inst_389>
    800059d8:	e4cfa06f          	j	80000024 <rvtest_error>

00000000800059dc <inst_389>:
    800059dc:	55555537          	lui	a0,0x55555
    800059e0:	55550513          	addi	a0,a0,1365 # 55555555 <absimmsh+0x49a847a8>
    800059e4:	00b51513          	slli	a0,a0,0xb
    800059e8:	2aa50513          	addi	a0,a0,682
    800059ec:	00b51513          	slli	a0,a0,0xb
    800059f0:	55550513          	addi	a0,a0,1365
    800059f4:	00a51513          	slli	a0,a0,0xa
    800059f8:	15450513          	addi	a0,a0,340
    800059fc:	555555b7          	lui	a1,0x55555
    80005a00:	55558593          	addi	a1,a1,1365 # 55555555 <absimmsh+0x49a847a8>
    80005a04:	00b59593          	slli	a1,a1,0xb
    80005a08:	2aa58593          	addi	a1,a1,682
    80005a0c:	00b59593          	slli	a1,a1,0xb
    80005a10:	55558593          	addi	a1,a1,1365
    80005a14:	00a59593          	slli	a1,a1,0xa
    80005a18:	15558593          	addi	a1,a1,341
    80005a1c:	00b5063b          	addw	a2,a0,a1
    80005a20:	38c3b823          	sd	a2,912(t2)
    80005a24:	aaaab0b7          	lui	ra,0xaaaab
    80005a28:	aa90809b          	addiw	ra,ra,-1367 # ffffffffaaaaaaa9 <absimm+0xfffffffeefd9cfd9>
    80005a2c:	00c08463          	beq	ra,a2,80005a34 <inst_390>
    80005a30:	df4fa06f          	j	80000024 <rvtest_error>

0000000080005a34 <inst_390>:
    80005a34:	55555537          	lui	a0,0x55555
    80005a38:	55550513          	addi	a0,a0,1365 # 55555555 <absimmsh+0x49a847a8>
    80005a3c:	00b51513          	slli	a0,a0,0xb
    80005a40:	2aa50513          	addi	a0,a0,682
    80005a44:	00b51513          	slli	a0,a0,0xb
    80005a48:	55550513          	addi	a0,a0,1365
    80005a4c:	00a51513          	slli	a0,a0,0xa
    80005a50:	15450513          	addi	a0,a0,340
    80005a54:	aaaab5b7          	lui	a1,0xaaaab
    80005a58:	aaa58593          	addi	a1,a1,-1366 # ffffffffaaaaaaaa <absimm+0xfffffffeefd9cfda>
    80005a5c:	00b59593          	slli	a1,a1,0xb
    80005a60:	55558593          	addi	a1,a1,1365
    80005a64:	00b59593          	slli	a1,a1,0xb
    80005a68:	2aa58593          	addi	a1,a1,682
    80005a6c:	00a59593          	slli	a1,a1,0xa
    80005a70:	2aa58593          	addi	a1,a1,682
    80005a74:	00b5063b          	addw	a2,a0,a1
    80005a78:	38c3bc23          	sd	a2,920(t2)
    80005a7c:	ffe00093          	li	ra,-2
    80005a80:	00c08463          	beq	ra,a2,80005a88 <inst_391>
    80005a84:	da0fa06f          	j	80000024 <rvtest_error>

0000000080005a88 <inst_391>:
    80005a88:	55555537          	lui	a0,0x55555
    80005a8c:	55550513          	addi	a0,a0,1365 # 55555555 <absimmsh+0x49a847a8>
    80005a90:	00b51513          	slli	a0,a0,0xb
    80005a94:	2aa50513          	addi	a0,a0,682
    80005a98:	00b51513          	slli	a0,a0,0xb
    80005a9c:	55550513          	addi	a0,a0,1365
    80005aa0:	00a51513          	slli	a0,a0,0xa
    80005aa4:	15450513          	addi	a0,a0,340
    80005aa8:	00500593          	li	a1,5
    80005aac:	00b5063b          	addw	a2,a0,a1
    80005ab0:	3ac3b023          	sd	a2,928(t2)
    80005ab4:	555550b7          	lui	ra,0x55555
    80005ab8:	5590809b          	addiw	ra,ra,1369 # 55555559 <absimmsh+0x49a847ac>
    80005abc:	00c08463          	beq	ra,a2,80005ac4 <inst_392>
    80005ac0:	d64fa06f          	j	80000024 <rvtest_error>

0000000080005ac4 <inst_392>:
    80005ac4:	55555537          	lui	a0,0x55555
    80005ac8:	55550513          	addi	a0,a0,1365 # 55555555 <absimmsh+0x49a847a8>
    80005acc:	00b51513          	slli	a0,a0,0xb
    80005ad0:	2aa50513          	addi	a0,a0,682
    80005ad4:	00b51513          	slli	a0,a0,0xb
    80005ad8:	55550513          	addi	a0,a0,1365
    80005adc:	00a51513          	slli	a0,a0,0xa
    80005ae0:	15450513          	addi	a0,a0,340
    80005ae4:	333335b7          	lui	a1,0x33333
    80005ae8:	33358593          	addi	a1,a1,819 # 33333333 <absimmsh+0x27862586>
    80005aec:	00b59593          	slli	a1,a1,0xb
    80005af0:	19958593          	addi	a1,a1,409
    80005af4:	00b59593          	slli	a1,a1,0xb
    80005af8:	4cc58593          	addi	a1,a1,1228
    80005afc:	00a59593          	slli	a1,a1,0xa
    80005b00:	33358593          	addi	a1,a1,819
    80005b04:	00b5063b          	addw	a2,a0,a1
    80005b08:	3ac3b423          	sd	a2,936(t2)
    80005b0c:	888890b7          	lui	ra,0x88889
    80005b10:	8870809b          	addiw	ra,ra,-1913 # ffffffff88888887 <absimm+0xfffffffecdb7adb7>
    80005b14:	00c08463          	beq	ra,a2,80005b1c <inst_393>
    80005b18:	d0cfa06f          	j	80000024 <rvtest_error>

0000000080005b1c <inst_393>:
    80005b1c:	55555537          	lui	a0,0x55555
    80005b20:	55550513          	addi	a0,a0,1365 # 55555555 <absimmsh+0x49a847a8>
    80005b24:	00b51513          	slli	a0,a0,0xb
    80005b28:	2aa50513          	addi	a0,a0,682
    80005b2c:	00b51513          	slli	a0,a0,0xb
    80005b30:	55550513          	addi	a0,a0,1365
    80005b34:	00a51513          	slli	a0,a0,0xa
    80005b38:	15450513          	addi	a0,a0,340
    80005b3c:	666665b7          	lui	a1,0x66666
    80005b40:	66658593          	addi	a1,a1,1638 # 66666666 <absimmsh+0x5ab958b9>
    80005b44:	00b59593          	slli	a1,a1,0xb
    80005b48:	33358593          	addi	a1,a1,819
    80005b4c:	00b59593          	slli	a1,a1,0xb
    80005b50:	19958593          	addi	a1,a1,409
    80005b54:	00a59593          	slli	a1,a1,0xa
    80005b58:	26658593          	addi	a1,a1,614
    80005b5c:	00b5063b          	addw	a2,a0,a1
    80005b60:	3ac3b823          	sd	a2,944(t2)
    80005b64:	bbbbc0b7          	lui	ra,0xbbbbc
    80005b68:	bba0809b          	addiw	ra,ra,-1094 # ffffffffbbbbbbba <absimm+0xffffffff00eae0ea>
    80005b6c:	00c08463          	beq	ra,a2,80005b74 <inst_394>
    80005b70:	cb4fa06f          	j	80000024 <rvtest_error>

0000000080005b74 <inst_394>:
    80005b74:	55555537          	lui	a0,0x55555
    80005b78:	55550513          	addi	a0,a0,1365 # 55555555 <absimmsh+0x49a847a8>
    80005b7c:	00b51513          	slli	a0,a0,0xb
    80005b80:	2aa50513          	addi	a0,a0,682
    80005b84:	00b51513          	slli	a0,a0,0xb
    80005b88:	55550513          	addi	a0,a0,1365
    80005b8c:	00a51513          	slli	a0,a0,0xa
    80005b90:	15450513          	addi	a0,a0,340
    80005b94:	000005b7          	lui	a1,0x0
    80005b98:	fff58593          	addi	a1,a1,-1
    80005b9c:	00b59593          	slli	a1,a1,0xb
    80005ba0:	25758593          	addi	a1,a1,599
    80005ba4:	00b59593          	slli	a1,a1,0xb
    80005ba8:	6c358593          	addi	a1,a1,1731
    80005bac:	00a59593          	slli	a1,a1,0xa
    80005bb0:	0cd58593          	addi	a1,a1,205
    80005bb4:	00b5063b          	addw	a2,a0,a1
    80005bb8:	3ac3bc23          	sd	a2,952(t2)
    80005bbc:	a05060b7          	lui	ra,0xa0506
    80005bc0:	2210809b          	addiw	ra,ra,545 # ffffffffa0506221 <absimm+0xfffffffee57f8751>
    80005bc4:	00c08463          	beq	ra,a2,80005bcc <inst_395>
    80005bc8:	c5cfa06f          	j	80000024 <rvtest_error>

0000000080005bcc <inst_395>:
    80005bcc:	55555537          	lui	a0,0x55555
    80005bd0:	55550513          	addi	a0,a0,1365 # 55555555 <absimmsh+0x49a847a8>
    80005bd4:	00b51513          	slli	a0,a0,0xb
    80005bd8:	2aa50513          	addi	a0,a0,682
    80005bdc:	00b51513          	slli	a0,a0,0xb
    80005be0:	55550513          	addi	a0,a0,1365
    80005be4:	00a51513          	slli	a0,a0,0xa
    80005be8:	15450513          	addi	a0,a0,340
    80005bec:	000005b7          	lui	a1,0x0
    80005bf0:	00058593          	mv	a1,a1
    80005bf4:	00b59593          	slli	a1,a1,0xb
    80005bf8:	5a858593          	addi	a1,a1,1448 # 5a8 <offset+0x110>
    80005bfc:	00b59593          	slli	a1,a1,0xb
    80005c00:	13c58593          	addi	a1,a1,316
    80005c04:	00a59593          	slli	a1,a1,0xa
    80005c08:	33358593          	addi	a1,a1,819
    80005c0c:	00b5063b          	addw	a2,a0,a1
    80005c10:	3cc3b023          	sd	a2,960(t2)
    80005c14:	0a5a50b7          	lui	ra,0xa5a5
    80005c18:	8870809b          	addiw	ra,ra,-1913 # a5a4887 <offset+0xa5a43ef>
    80005c1c:	00c08463          	beq	ra,a2,80005c24 <inst_396>
    80005c20:	c04fa06f          	j	80000024 <rvtest_error>

0000000080005c24 <inst_396>:
    80005c24:	55555537          	lui	a0,0x55555
    80005c28:	55550513          	addi	a0,a0,1365 # 55555555 <absimmsh+0x49a847a8>
    80005c2c:	00b51513          	slli	a0,a0,0xb
    80005c30:	2aa50513          	addi	a0,a0,682
    80005c34:	00b51513          	slli	a0,a0,0xb
    80005c38:	55550513          	addi	a0,a0,1365
    80005c3c:	00a51513          	slli	a0,a0,0xa
    80005c40:	15450513          	addi	a0,a0,340
    80005c44:	00200593          	li	a1,2
    80005c48:	00b5063b          	addw	a2,a0,a1
    80005c4c:	3cc3b423          	sd	a2,968(t2)
    80005c50:	555550b7          	lui	ra,0x55555
    80005c54:	5560809b          	addiw	ra,ra,1366 # 55555556 <absimmsh+0x49a847a9>
    80005c58:	00c08463          	beq	ra,a2,80005c60 <inst_397>
    80005c5c:	bc8fa06f          	j	80000024 <rvtest_error>

0000000080005c60 <inst_397>:
    80005c60:	55555537          	lui	a0,0x55555
    80005c64:	55550513          	addi	a0,a0,1365 # 55555555 <absimmsh+0x49a847a8>
    80005c68:	00b51513          	slli	a0,a0,0xb
    80005c6c:	2aa50513          	addi	a0,a0,682
    80005c70:	00b51513          	slli	a0,a0,0xb
    80005c74:	55550513          	addi	a0,a0,1365
    80005c78:	00a51513          	slli	a0,a0,0xa
    80005c7c:	15450513          	addi	a0,a0,340
    80005c80:	555555b7          	lui	a1,0x55555
    80005c84:	55558593          	addi	a1,a1,1365 # 55555555 <absimmsh+0x49a847a8>
    80005c88:	00b59593          	slli	a1,a1,0xb
    80005c8c:	2aa58593          	addi	a1,a1,682
    80005c90:	00b59593          	slli	a1,a1,0xb
    80005c94:	55558593          	addi	a1,a1,1365
    80005c98:	00a59593          	slli	a1,a1,0xa
    80005c9c:	15458593          	addi	a1,a1,340
    80005ca0:	00b5063b          	addw	a2,a0,a1
    80005ca4:	3cc3b823          	sd	a2,976(t2)
    80005ca8:	aaaab0b7          	lui	ra,0xaaaab
    80005cac:	aa80809b          	addiw	ra,ra,-1368 # ffffffffaaaaaaa8 <absimm+0xfffffffeefd9cfd8>
    80005cb0:	00c08463          	beq	ra,a2,80005cb8 <inst_398>
    80005cb4:	b70fa06f          	j	80000024 <rvtest_error>

0000000080005cb8 <inst_398>:
    80005cb8:	55555537          	lui	a0,0x55555
    80005cbc:	55550513          	addi	a0,a0,1365 # 55555555 <absimmsh+0x49a847a8>
    80005cc0:	00b51513          	slli	a0,a0,0xb
    80005cc4:	2aa50513          	addi	a0,a0,682
    80005cc8:	00b51513          	slli	a0,a0,0xb
    80005ccc:	55550513          	addi	a0,a0,1365
    80005cd0:	00a51513          	slli	a0,a0,0xa
    80005cd4:	15450513          	addi	a0,a0,340
    80005cd8:	00000593          	li	a1,0
    80005cdc:	00b5063b          	addw	a2,a0,a1
    80005ce0:	3cc3bc23          	sd	a2,984(t2)
    80005ce4:	555550b7          	lui	ra,0x55555
    80005ce8:	5540809b          	addiw	ra,ra,1364 # 55555554 <absimmsh+0x49a847a7>
    80005cec:	00c08463          	beq	ra,a2,80005cf4 <inst_399>
    80005cf0:	b34fa06f          	j	80000024 <rvtest_error>

0000000080005cf4 <inst_399>:
    80005cf4:	55555537          	lui	a0,0x55555
    80005cf8:	55550513          	addi	a0,a0,1365 # 55555555 <absimmsh+0x49a847a8>
    80005cfc:	00b51513          	slli	a0,a0,0xb
    80005d00:	2aa50513          	addi	a0,a0,682
    80005d04:	00b51513          	slli	a0,a0,0xb
    80005d08:	55550513          	addi	a0,a0,1365
    80005d0c:	00a51513          	slli	a0,a0,0xa
    80005d10:	15450513          	addi	a0,a0,340
    80005d14:	00400593          	li	a1,4
    80005d18:	00b5063b          	addw	a2,a0,a1
    80005d1c:	3ec3b023          	sd	a2,992(t2)
    80005d20:	555550b7          	lui	ra,0x55555
    80005d24:	5580809b          	addiw	ra,ra,1368 # 55555558 <absimmsh+0x49a847ab>
    80005d28:	00c08463          	beq	ra,a2,80005d30 <inst_400>
    80005d2c:	af8fa06f          	j	80000024 <rvtest_error>

0000000080005d30 <inst_400>:
    80005d30:	55555537          	lui	a0,0x55555
    80005d34:	55550513          	addi	a0,a0,1365 # 55555555 <absimmsh+0x49a847a8>
    80005d38:	00b51513          	slli	a0,a0,0xb
    80005d3c:	2aa50513          	addi	a0,a0,682
    80005d40:	00b51513          	slli	a0,a0,0xb
    80005d44:	55550513          	addi	a0,a0,1365
    80005d48:	00a51513          	slli	a0,a0,0xa
    80005d4c:	15450513          	addi	a0,a0,340
    80005d50:	333335b7          	lui	a1,0x33333
    80005d54:	33358593          	addi	a1,a1,819 # 33333333 <absimmsh+0x27862586>
    80005d58:	00b59593          	slli	a1,a1,0xb
    80005d5c:	19958593          	addi	a1,a1,409
    80005d60:	00b59593          	slli	a1,a1,0xb
    80005d64:	4cc58593          	addi	a1,a1,1228
    80005d68:	00a59593          	slli	a1,a1,0xa
    80005d6c:	33258593          	addi	a1,a1,818
    80005d70:	00b5063b          	addw	a2,a0,a1
    80005d74:	3ec3b423          	sd	a2,1000(t2)
    80005d78:	888890b7          	lui	ra,0x88889
    80005d7c:	8860809b          	addiw	ra,ra,-1914 # ffffffff88888886 <absimm+0xfffffffecdb7adb6>
    80005d80:	00c08463          	beq	ra,a2,80005d88 <inst_401>
    80005d84:	aa0fa06f          	j	80000024 <rvtest_error>

0000000080005d88 <inst_401>:
    80005d88:	55555537          	lui	a0,0x55555
    80005d8c:	55550513          	addi	a0,a0,1365 # 55555555 <absimmsh+0x49a847a8>
    80005d90:	00b51513          	slli	a0,a0,0xb
    80005d94:	2aa50513          	addi	a0,a0,682
    80005d98:	00b51513          	slli	a0,a0,0xb
    80005d9c:	55550513          	addi	a0,a0,1365
    80005da0:	00a51513          	slli	a0,a0,0xa
    80005da4:	15450513          	addi	a0,a0,340
    80005da8:	666665b7          	lui	a1,0x66666
    80005dac:	66658593          	addi	a1,a1,1638 # 66666666 <absimmsh+0x5ab958b9>
    80005db0:	00b59593          	slli	a1,a1,0xb
    80005db4:	33358593          	addi	a1,a1,819
    80005db8:	00b59593          	slli	a1,a1,0xb
    80005dbc:	19958593          	addi	a1,a1,409
    80005dc0:	00a59593          	slli	a1,a1,0xa
    80005dc4:	26558593          	addi	a1,a1,613
    80005dc8:	00b5063b          	addw	a2,a0,a1
    80005dcc:	3ec3b823          	sd	a2,1008(t2)
    80005dd0:	bbbbc0b7          	lui	ra,0xbbbbc
    80005dd4:	bb90809b          	addiw	ra,ra,-1095 # ffffffffbbbbbbb9 <absimm+0xffffffff00eae0e9>
    80005dd8:	00c08463          	beq	ra,a2,80005de0 <inst_402>
    80005ddc:	a48fa06f          	j	80000024 <rvtest_error>

0000000080005de0 <inst_402>:
    80005de0:	55555537          	lui	a0,0x55555
    80005de4:	55550513          	addi	a0,a0,1365 # 55555555 <absimmsh+0x49a847a8>
    80005de8:	00b51513          	slli	a0,a0,0xb
    80005dec:	2aa50513          	addi	a0,a0,682
    80005df0:	00b51513          	slli	a0,a0,0xb
    80005df4:	55550513          	addi	a0,a0,1365
    80005df8:	00a51513          	slli	a0,a0,0xa
    80005dfc:	15450513          	addi	a0,a0,340
    80005e00:	000005b7          	lui	a1,0x0
    80005e04:	00058593          	mv	a1,a1
    80005e08:	00b59593          	slli	a1,a1,0xb
    80005e0c:	5a858593          	addi	a1,a1,1448 # 5a8 <offset+0x110>
    80005e10:	00b59593          	slli	a1,a1,0xb
    80005e14:	13c58593          	addi	a1,a1,316
    80005e18:	00a59593          	slli	a1,a1,0xa
    80005e1c:	33258593          	addi	a1,a1,818
    80005e20:	00b5063b          	addw	a2,a0,a1
    80005e24:	3ec3bc23          	sd	a2,1016(t2)
    80005e28:	0a5a50b7          	lui	ra,0xa5a5
    80005e2c:	8860809b          	addiw	ra,ra,-1914 # a5a4886 <offset+0xa5a43ee>
    80005e30:	00c08463          	beq	ra,a2,80005e38 <inst_403>
    80005e34:	9f0fa06f          	j	80000024 <rvtest_error>

0000000080005e38 <inst_403>:
    80005e38:	55555537          	lui	a0,0x55555
    80005e3c:	55550513          	addi	a0,a0,1365 # 55555555 <absimmsh+0x49a847a8>
    80005e40:	00b51513          	slli	a0,a0,0xb
    80005e44:	2aa50513          	addi	a0,a0,682
    80005e48:	00b51513          	slli	a0,a0,0xb
    80005e4c:	55550513          	addi	a0,a0,1365
    80005e50:	00a51513          	slli	a0,a0,0xa
    80005e54:	15450513          	addi	a0,a0,340
    80005e58:	555555b7          	lui	a1,0x55555
    80005e5c:	55558593          	addi	a1,a1,1365 # 55555555 <absimmsh+0x49a847a8>
    80005e60:	00b59593          	slli	a1,a1,0xb
    80005e64:	2aa58593          	addi	a1,a1,682
    80005e68:	00b59593          	slli	a1,a1,0xb
    80005e6c:	55558593          	addi	a1,a1,1365
    80005e70:	00a59593          	slli	a1,a1,0xa
    80005e74:	15658593          	addi	a1,a1,342
    80005e78:	00b5063b          	addw	a2,a0,a1
    80005e7c:	40c3b023          	sd	a2,1024(t2)
    80005e80:	aaaab0b7          	lui	ra,0xaaaab
    80005e84:	aaa0809b          	addiw	ra,ra,-1366 # ffffffffaaaaaaaa <absimm+0xfffffffeefd9cfda>
    80005e88:	00c08463          	beq	ra,a2,80005e90 <inst_404>
    80005e8c:	998fa06f          	j	80000024 <rvtest_error>

0000000080005e90 <inst_404>:
    80005e90:	55555537          	lui	a0,0x55555
    80005e94:	55550513          	addi	a0,a0,1365 # 55555555 <absimmsh+0x49a847a8>
    80005e98:	00b51513          	slli	a0,a0,0xb
    80005e9c:	2aa50513          	addi	a0,a0,682
    80005ea0:	00b51513          	slli	a0,a0,0xb
    80005ea4:	55550513          	addi	a0,a0,1365
    80005ea8:	00a51513          	slli	a0,a0,0xa
    80005eac:	15450513          	addi	a0,a0,340
    80005eb0:	aaaab5b7          	lui	a1,0xaaaab
    80005eb4:	aaa58593          	addi	a1,a1,-1366 # ffffffffaaaaaaaa <absimm+0xfffffffeefd9cfda>
    80005eb8:	00b59593          	slli	a1,a1,0xb
    80005ebc:	55558593          	addi	a1,a1,1365
    80005ec0:	00b59593          	slli	a1,a1,0xb
    80005ec4:	2aa58593          	addi	a1,a1,682
    80005ec8:	00a59593          	slli	a1,a1,0xa
    80005ecc:	2ab58593          	addi	a1,a1,683
    80005ed0:	00b5063b          	addw	a2,a0,a1
    80005ed4:	40c3b423          	sd	a2,1032(t2)
    80005ed8:	fff00093          	li	ra,-1
    80005edc:	00c08463          	beq	ra,a2,80005ee4 <inst_405>
    80005ee0:	944fa06f          	j	80000024 <rvtest_error>

0000000080005ee4 <inst_405>:
    80005ee4:	55555537          	lui	a0,0x55555
    80005ee8:	55550513          	addi	a0,a0,1365 # 55555555 <absimmsh+0x49a847a8>
    80005eec:	00b51513          	slli	a0,a0,0xb
    80005ef0:	2aa50513          	addi	a0,a0,682
    80005ef4:	00b51513          	slli	a0,a0,0xb
    80005ef8:	55550513          	addi	a0,a0,1365
    80005efc:	00a51513          	slli	a0,a0,0xa
    80005f00:	15450513          	addi	a0,a0,340
    80005f04:	00600593          	li	a1,6
    80005f08:	00b5063b          	addw	a2,a0,a1
    80005f0c:	40c3b823          	sd	a2,1040(t2)
    80005f10:	555550b7          	lui	ra,0x55555
    80005f14:	55a0809b          	addiw	ra,ra,1370 # 5555555a <absimmsh+0x49a847ad>
    80005f18:	00c08463          	beq	ra,a2,80005f20 <inst_406>
    80005f1c:	908fa06f          	j	80000024 <rvtest_error>

0000000080005f20 <inst_406>:
    80005f20:	55555537          	lui	a0,0x55555
    80005f24:	55550513          	addi	a0,a0,1365 # 55555555 <absimmsh+0x49a847a8>
    80005f28:	00b51513          	slli	a0,a0,0xb
    80005f2c:	2aa50513          	addi	a0,a0,682
    80005f30:	00b51513          	slli	a0,a0,0xb
    80005f34:	55550513          	addi	a0,a0,1365
    80005f38:	00a51513          	slli	a0,a0,0xa
    80005f3c:	15450513          	addi	a0,a0,340
    80005f40:	333335b7          	lui	a1,0x33333
    80005f44:	33358593          	addi	a1,a1,819 # 33333333 <absimmsh+0x27862586>
    80005f48:	00b59593          	slli	a1,a1,0xb
    80005f4c:	19958593          	addi	a1,a1,409
    80005f50:	00b59593          	slli	a1,a1,0xb
    80005f54:	4cc58593          	addi	a1,a1,1228
    80005f58:	00a59593          	slli	a1,a1,0xa
    80005f5c:	33458593          	addi	a1,a1,820
    80005f60:	00b5063b          	addw	a2,a0,a1
    80005f64:	40c3bc23          	sd	a2,1048(t2)
    80005f68:	888890b7          	lui	ra,0x88889
    80005f6c:	8880809b          	addiw	ra,ra,-1912 # ffffffff88888888 <absimm+0xfffffffecdb7adb8>
    80005f70:	00c08463          	beq	ra,a2,80005f78 <inst_407>
    80005f74:	8b0fa06f          	j	80000024 <rvtest_error>

0000000080005f78 <inst_407>:
    80005f78:	55555537          	lui	a0,0x55555
    80005f7c:	55550513          	addi	a0,a0,1365 # 55555555 <absimmsh+0x49a847a8>
    80005f80:	00b51513          	slli	a0,a0,0xb
    80005f84:	2aa50513          	addi	a0,a0,682
    80005f88:	00b51513          	slli	a0,a0,0xb
    80005f8c:	55550513          	addi	a0,a0,1365
    80005f90:	00a51513          	slli	a0,a0,0xa
    80005f94:	15450513          	addi	a0,a0,340
    80005f98:	666665b7          	lui	a1,0x66666
    80005f9c:	66658593          	addi	a1,a1,1638 # 66666666 <absimmsh+0x5ab958b9>
    80005fa0:	00b59593          	slli	a1,a1,0xb
    80005fa4:	33358593          	addi	a1,a1,819
    80005fa8:	00b59593          	slli	a1,a1,0xb
    80005fac:	19958593          	addi	a1,a1,409
    80005fb0:	00a59593          	slli	a1,a1,0xa
    80005fb4:	26758593          	addi	a1,a1,615
    80005fb8:	00b5063b          	addw	a2,a0,a1
    80005fbc:	42c3b023          	sd	a2,1056(t2)
    80005fc0:	bbbbc0b7          	lui	ra,0xbbbbc
    80005fc4:	bbb0809b          	addiw	ra,ra,-1093 # ffffffffbbbbbbbb <absimm+0xffffffff00eae0eb>
    80005fc8:	00c08463          	beq	ra,a2,80005fd0 <inst_408>
    80005fcc:	858fa06f          	j	80000024 <rvtest_error>

0000000080005fd0 <inst_408>:
    80005fd0:	55555537          	lui	a0,0x55555
    80005fd4:	55550513          	addi	a0,a0,1365 # 55555555 <absimmsh+0x49a847a8>
    80005fd8:	00b51513          	slli	a0,a0,0xb
    80005fdc:	2aa50513          	addi	a0,a0,682
    80005fe0:	00b51513          	slli	a0,a0,0xb
    80005fe4:	55550513          	addi	a0,a0,1365
    80005fe8:	00a51513          	slli	a0,a0,0xa
    80005fec:	15450513          	addi	a0,a0,340
    80005ff0:	000005b7          	lui	a1,0x0
    80005ff4:	fff58593          	addi	a1,a1,-1
    80005ff8:	00b59593          	slli	a1,a1,0xb
    80005ffc:	25758593          	addi	a1,a1,599
    80006000:	00b59593          	slli	a1,a1,0xb
    80006004:	6c358593          	addi	a1,a1,1731
    80006008:	00a59593          	slli	a1,a1,0xa
    8000600c:	0ce58593          	addi	a1,a1,206
    80006010:	00b5063b          	addw	a2,a0,a1
    80006014:	42c3b423          	sd	a2,1064(t2)
    80006018:	a05060b7          	lui	ra,0xa0506
    8000601c:	2220809b          	addiw	ra,ra,546 # ffffffffa0506222 <absimm+0xfffffffee57f8752>
    80006020:	00c08463          	beq	ra,a2,80006028 <inst_409>
    80006024:	800fa06f          	j	80000024 <rvtest_error>

0000000080006028 <inst_409>:
    80006028:	55555537          	lui	a0,0x55555
    8000602c:	55550513          	addi	a0,a0,1365 # 55555555 <absimmsh+0x49a847a8>
    80006030:	00b51513          	slli	a0,a0,0xb
    80006034:	2aa50513          	addi	a0,a0,682
    80006038:	00b51513          	slli	a0,a0,0xb
    8000603c:	55550513          	addi	a0,a0,1365
    80006040:	00a51513          	slli	a0,a0,0xa
    80006044:	15450513          	addi	a0,a0,340
    80006048:	000005b7          	lui	a1,0x0
    8000604c:	00058593          	mv	a1,a1
    80006050:	00b59593          	slli	a1,a1,0xb
    80006054:	5a858593          	addi	a1,a1,1448 # 5a8 <offset+0x110>
    80006058:	00b59593          	slli	a1,a1,0xb
    8000605c:	13c58593          	addi	a1,a1,316
    80006060:	00a59593          	slli	a1,a1,0xa
    80006064:	33458593          	addi	a1,a1,820
    80006068:	00b5063b          	addw	a2,a0,a1
    8000606c:	42c3b823          	sd	a2,1072(t2)
    80006070:	0a5a50b7          	lui	ra,0xa5a5
    80006074:	8880809b          	addiw	ra,ra,-1912 # a5a4888 <offset+0xa5a43f0>
    80006078:	00c08463          	beq	ra,a2,80006080 <inst_410>
    8000607c:	fa9f906f          	j	80000024 <rvtest_error>

0000000080006080 <inst_410>:
    80006080:	00000513          	li	a0,0
    80006084:	00300593          	li	a1,3
    80006088:	00b5063b          	addw	a2,a0,a1
    8000608c:	42c3bc23          	sd	a2,1080(t2)
    80006090:	00300093          	li	ra,3
    80006094:	00c08463          	beq	ra,a2,8000609c <inst_411>
    80006098:	f8df906f          	j	80000024 <rvtest_error>

000000008000609c <inst_411>:
    8000609c:	00000513          	li	a0,0
    800060a0:	555555b7          	lui	a1,0x55555
    800060a4:	55558593          	addi	a1,a1,1365 # 55555555 <absimmsh+0x49a847a8>
    800060a8:	00b59593          	slli	a1,a1,0xb
    800060ac:	2aa58593          	addi	a1,a1,682
    800060b0:	00b59593          	slli	a1,a1,0xb
    800060b4:	55558593          	addi	a1,a1,1365
    800060b8:	00a59593          	slli	a1,a1,0xa
    800060bc:	15558593          	addi	a1,a1,341
    800060c0:	00b5063b          	addw	a2,a0,a1
    800060c4:	44c3b023          	sd	a2,1088(t2)
    800060c8:	555550b7          	lui	ra,0x55555
    800060cc:	5550809b          	addiw	ra,ra,1365 # 55555555 <absimmsh+0x49a847a8>
    800060d0:	00c08463          	beq	ra,a2,800060d8 <inst_412>
    800060d4:	f51f906f          	j	80000024 <rvtest_error>

00000000800060d8 <inst_412>:
    800060d8:	00000513          	li	a0,0
    800060dc:	aaaab5b7          	lui	a1,0xaaaab
    800060e0:	aaa58593          	addi	a1,a1,-1366 # ffffffffaaaaaaaa <absimm+0xfffffffeefd9cfda>
    800060e4:	00b59593          	slli	a1,a1,0xb
    800060e8:	55558593          	addi	a1,a1,1365
    800060ec:	00b59593          	slli	a1,a1,0xb
    800060f0:	2aa58593          	addi	a1,a1,682
    800060f4:	00a59593          	slli	a1,a1,0xa
    800060f8:	2aa58593          	addi	a1,a1,682
    800060fc:	00b5063b          	addw	a2,a0,a1
    80006100:	44c3b423          	sd	a2,1096(t2)
    80006104:	aaaab0b7          	lui	ra,0xaaaab
    80006108:	aaa0809b          	addiw	ra,ra,-1366 # ffffffffaaaaaaaa <absimm+0xfffffffeefd9cfda>
    8000610c:	00c08463          	beq	ra,a2,80006114 <inst_413>
    80006110:	f15f906f          	j	80000024 <rvtest_error>

0000000080006114 <inst_413>:
    80006114:	00000513          	li	a0,0
    80006118:	00500593          	li	a1,5
    8000611c:	00b5063b          	addw	a2,a0,a1
    80006120:	44c3b823          	sd	a2,1104(t2)
    80006124:	00500093          	li	ra,5
    80006128:	00c08463          	beq	ra,a2,80006130 <inst_414>
    8000612c:	ef9f906f          	j	80000024 <rvtest_error>

0000000080006130 <inst_414>:
    80006130:	00000513          	li	a0,0
    80006134:	333335b7          	lui	a1,0x33333
    80006138:	33358593          	addi	a1,a1,819 # 33333333 <absimmsh+0x27862586>
    8000613c:	00b59593          	slli	a1,a1,0xb
    80006140:	19958593          	addi	a1,a1,409
    80006144:	00b59593          	slli	a1,a1,0xb
    80006148:	4cc58593          	addi	a1,a1,1228
    8000614c:	00a59593          	slli	a1,a1,0xa
    80006150:	33358593          	addi	a1,a1,819
    80006154:	00b5063b          	addw	a2,a0,a1
    80006158:	44c3bc23          	sd	a2,1112(t2)
    8000615c:	333330b7          	lui	ra,0x33333
    80006160:	3330809b          	addiw	ra,ra,819 # 33333333 <absimmsh+0x27862586>
    80006164:	00c08463          	beq	ra,a2,8000616c <inst_415>
    80006168:	ebdf906f          	j	80000024 <rvtest_error>

000000008000616c <inst_415>:
    8000616c:	00000513          	li	a0,0
    80006170:	666665b7          	lui	a1,0x66666
    80006174:	66658593          	addi	a1,a1,1638 # 66666666 <absimmsh+0x5ab958b9>
    80006178:	00b59593          	slli	a1,a1,0xb
    8000617c:	33358593          	addi	a1,a1,819
    80006180:	00b59593          	slli	a1,a1,0xb
    80006184:	19958593          	addi	a1,a1,409
    80006188:	00a59593          	slli	a1,a1,0xa
    8000618c:	26658593          	addi	a1,a1,614
    80006190:	00b5063b          	addw	a2,a0,a1
    80006194:	46c3b023          	sd	a2,1120(t2)
    80006198:	666660b7          	lui	ra,0x66666
    8000619c:	6660809b          	addiw	ra,ra,1638 # 66666666 <absimmsh+0x5ab958b9>
    800061a0:	00c08463          	beq	ra,a2,800061a8 <inst_416>
    800061a4:	e81f906f          	j	80000024 <rvtest_error>

00000000800061a8 <inst_416>:
    800061a8:	00000513          	li	a0,0
    800061ac:	000005b7          	lui	a1,0x0
    800061b0:	fff58593          	addi	a1,a1,-1
    800061b4:	00b59593          	slli	a1,a1,0xb
    800061b8:	25758593          	addi	a1,a1,599
    800061bc:	00b59593          	slli	a1,a1,0xb
    800061c0:	6c358593          	addi	a1,a1,1731
    800061c4:	00a59593          	slli	a1,a1,0xa
    800061c8:	0cd58593          	addi	a1,a1,205
    800061cc:	00b5063b          	addw	a2,a0,a1
    800061d0:	46c3b423          	sd	a2,1128(t2)
    800061d4:	4afb10b7          	lui	ra,0x4afb1
    800061d8:	ccd0809b          	addiw	ra,ra,-819 # 4afb0ccd <absimmsh+0x3f4dff20>
    800061dc:	00c08463          	beq	ra,a2,800061e4 <inst_417>
    800061e0:	e45f906f          	j	80000024 <rvtest_error>

00000000800061e4 <inst_417>:
    800061e4:	00000513          	li	a0,0
    800061e8:	000005b7          	lui	a1,0x0
    800061ec:	00058593          	mv	a1,a1
    800061f0:	00b59593          	slli	a1,a1,0xb
    800061f4:	5a858593          	addi	a1,a1,1448 # 5a8 <offset+0x110>
    800061f8:	00b59593          	slli	a1,a1,0xb
    800061fc:	13c58593          	addi	a1,a1,316
    80006200:	00a59593          	slli	a1,a1,0xa
    80006204:	33358593          	addi	a1,a1,819
    80006208:	00b5063b          	addw	a2,a0,a1
    8000620c:	46c3b823          	sd	a2,1136(t2)
    80006210:	b504f0b7          	lui	ra,0xb504f
    80006214:	3330809b          	addiw	ra,ra,819 # ffffffffb504f333 <absimm+0xfffffffefa341863>
    80006218:	00c08463          	beq	ra,a2,80006220 <inst_418>
    8000621c:	e09f906f          	j	80000024 <rvtest_error>

0000000080006220 <inst_418>:
    80006220:	00000513          	li	a0,0
    80006224:	00200593          	li	a1,2
    80006228:	00b5063b          	addw	a2,a0,a1
    8000622c:	46c3bc23          	sd	a2,1144(t2)
    80006230:	00200093          	li	ra,2
    80006234:	00c08463          	beq	ra,a2,8000623c <inst_419>
    80006238:	dedf906f          	j	80000024 <rvtest_error>

000000008000623c <inst_419>:
    8000623c:	00000513          	li	a0,0
    80006240:	000005b7          	lui	a1,0x0
    80006244:	fff58593          	addi	a1,a1,-1
    80006248:	00b59593          	slli	a1,a1,0xb
    8000624c:	25758593          	addi	a1,a1,599
    80006250:	00b59593          	slli	a1,a1,0xb
    80006254:	6c358593          	addi	a1,a1,1731
    80006258:	00a59593          	slli	a1,a1,0xa
    8000625c:	0ce58593          	addi	a1,a1,206
    80006260:	00b5063b          	addw	a2,a0,a1
    80006264:	48c3b023          	sd	a2,1152(t2)
    80006268:	4afb10b7          	lui	ra,0x4afb1
    8000626c:	cce0809b          	addiw	ra,ra,-818 # 4afb0cce <absimmsh+0x3f4dff21>
    80006270:	00c08463          	beq	ra,a2,80006278 <inst_420>
    80006274:	db1f906f          	j	80000024 <rvtest_error>

0000000080006278 <inst_420>:
    80006278:	00000513          	li	a0,0
    8000627c:	000005b7          	lui	a1,0x0
    80006280:	00058593          	mv	a1,a1
    80006284:	00b59593          	slli	a1,a1,0xb
    80006288:	5a858593          	addi	a1,a1,1448 # 5a8 <offset+0x110>
    8000628c:	00b59593          	slli	a1,a1,0xb
    80006290:	13c58593          	addi	a1,a1,316
    80006294:	00a59593          	slli	a1,a1,0xa
    80006298:	33458593          	addi	a1,a1,820
    8000629c:	00b5063b          	addw	a2,a0,a1
    800062a0:	48c3b423          	sd	a2,1160(t2)
    800062a4:	b504f0b7          	lui	ra,0xb504f
    800062a8:	3340809b          	addiw	ra,ra,820 # ffffffffb504f334 <absimm+0xfffffffefa341864>
    800062ac:	00c08463          	beq	ra,a2,800062b4 <inst_421>
    800062b0:	d75f906f          	j	80000024 <rvtest_error>

00000000800062b4 <inst_421>:
    800062b4:	00400513          	li	a0,4
    800062b8:	00300593          	li	a1,3
    800062bc:	00b5063b          	addw	a2,a0,a1
    800062c0:	48c3b823          	sd	a2,1168(t2)
    800062c4:	00700093          	li	ra,7
    800062c8:	00c08463          	beq	ra,a2,800062d0 <inst_422>
    800062cc:	d59f906f          	j	80000024 <rvtest_error>

00000000800062d0 <inst_422>:
    800062d0:	00400513          	li	a0,4
    800062d4:	555555b7          	lui	a1,0x55555
    800062d8:	55558593          	addi	a1,a1,1365 # 55555555 <absimmsh+0x49a847a8>
    800062dc:	00b59593          	slli	a1,a1,0xb
    800062e0:	2aa58593          	addi	a1,a1,682
    800062e4:	00b59593          	slli	a1,a1,0xb
    800062e8:	55558593          	addi	a1,a1,1365
    800062ec:	00a59593          	slli	a1,a1,0xa
    800062f0:	15558593          	addi	a1,a1,341
    800062f4:	00b5063b          	addw	a2,a0,a1
    800062f8:	48c3bc23          	sd	a2,1176(t2)
    800062fc:	555550b7          	lui	ra,0x55555
    80006300:	5590809b          	addiw	ra,ra,1369 # 55555559 <absimmsh+0x49a847ac>
    80006304:	00c08463          	beq	ra,a2,8000630c <inst_423>
    80006308:	d1df906f          	j	80000024 <rvtest_error>

000000008000630c <inst_423>:
    8000630c:	00400513          	li	a0,4
    80006310:	aaaab5b7          	lui	a1,0xaaaab
    80006314:	aaa58593          	addi	a1,a1,-1366 # ffffffffaaaaaaaa <absimm+0xfffffffeefd9cfda>
    80006318:	00b59593          	slli	a1,a1,0xb
    8000631c:	55558593          	addi	a1,a1,1365
    80006320:	00b59593          	slli	a1,a1,0xb
    80006324:	2aa58593          	addi	a1,a1,682
    80006328:	00a59593          	slli	a1,a1,0xa
    8000632c:	2aa58593          	addi	a1,a1,682
    80006330:	00b5063b          	addw	a2,a0,a1
    80006334:	4ac3b023          	sd	a2,1184(t2)
    80006338:	aaaab0b7          	lui	ra,0xaaaab
    8000633c:	aae0809b          	addiw	ra,ra,-1362 # ffffffffaaaaaaae <absimm+0xfffffffeefd9cfde>
    80006340:	00c08463          	beq	ra,a2,80006348 <inst_424>
    80006344:	ce1f906f          	j	80000024 <rvtest_error>

0000000080006348 <inst_424>:
    80006348:	00400513          	li	a0,4
    8000634c:	00500593          	li	a1,5
    80006350:	00b5063b          	addw	a2,a0,a1
    80006354:	4ac3b423          	sd	a2,1192(t2)
    80006358:	00900093          	li	ra,9
    8000635c:	00c08463          	beq	ra,a2,80006364 <inst_425>
    80006360:	cc5f906f          	j	80000024 <rvtest_error>

0000000080006364 <inst_425>:
    80006364:	00400513          	li	a0,4
    80006368:	333335b7          	lui	a1,0x33333
    8000636c:	33358593          	addi	a1,a1,819 # 33333333 <absimmsh+0x27862586>
    80006370:	00b59593          	slli	a1,a1,0xb
    80006374:	19958593          	addi	a1,a1,409
    80006378:	00b59593          	slli	a1,a1,0xb
    8000637c:	4cc58593          	addi	a1,a1,1228
    80006380:	00a59593          	slli	a1,a1,0xa
    80006384:	33358593          	addi	a1,a1,819
    80006388:	00b5063b          	addw	a2,a0,a1
    8000638c:	4ac3b823          	sd	a2,1200(t2)
    80006390:	333330b7          	lui	ra,0x33333
    80006394:	3370809b          	addiw	ra,ra,823 # 33333337 <absimmsh+0x2786258a>
    80006398:	00c08463          	beq	ra,a2,800063a0 <inst_426>
    8000639c:	c89f906f          	j	80000024 <rvtest_error>

00000000800063a0 <inst_426>:
    800063a0:	00400513          	li	a0,4
    800063a4:	666665b7          	lui	a1,0x66666
    800063a8:	66658593          	addi	a1,a1,1638 # 66666666 <absimmsh+0x5ab958b9>
    800063ac:	00b59593          	slli	a1,a1,0xb
    800063b0:	33358593          	addi	a1,a1,819
    800063b4:	00b59593          	slli	a1,a1,0xb
    800063b8:	19958593          	addi	a1,a1,409
    800063bc:	00a59593          	slli	a1,a1,0xa
    800063c0:	26658593          	addi	a1,a1,614
    800063c4:	00b5063b          	addw	a2,a0,a1
    800063c8:	4ac3bc23          	sd	a2,1208(t2)
    800063cc:	666660b7          	lui	ra,0x66666
    800063d0:	66a0809b          	addiw	ra,ra,1642 # 6666666a <absimmsh+0x5ab958bd>
    800063d4:	00c08463          	beq	ra,a2,800063dc <inst_427>
    800063d8:	c4df906f          	j	80000024 <rvtest_error>

00000000800063dc <inst_427>:
    800063dc:	00400513          	li	a0,4
    800063e0:	000005b7          	lui	a1,0x0
    800063e4:	fff58593          	addi	a1,a1,-1
    800063e8:	00b59593          	slli	a1,a1,0xb
    800063ec:	25758593          	addi	a1,a1,599
    800063f0:	00b59593          	slli	a1,a1,0xb
    800063f4:	6c358593          	addi	a1,a1,1731
    800063f8:	00a59593          	slli	a1,a1,0xa
    800063fc:	0cd58593          	addi	a1,a1,205
    80006400:	00b5063b          	addw	a2,a0,a1
    80006404:	4cc3b023          	sd	a2,1216(t2)
    80006408:	4afb10b7          	lui	ra,0x4afb1
    8000640c:	cd10809b          	addiw	ra,ra,-815 # 4afb0cd1 <absimmsh+0x3f4dff24>
    80006410:	00c08463          	beq	ra,a2,80006418 <inst_428>
    80006414:	c11f906f          	j	80000024 <rvtest_error>

0000000080006418 <inst_428>:
    80006418:	00400513          	li	a0,4
    8000641c:	000005b7          	lui	a1,0x0
    80006420:	00058593          	mv	a1,a1
    80006424:	00b59593          	slli	a1,a1,0xb
    80006428:	5a858593          	addi	a1,a1,1448 # 5a8 <offset+0x110>
    8000642c:	00b59593          	slli	a1,a1,0xb
    80006430:	13c58593          	addi	a1,a1,316
    80006434:	00a59593          	slli	a1,a1,0xa
    80006438:	33358593          	addi	a1,a1,819
    8000643c:	00b5063b          	addw	a2,a0,a1
    80006440:	4cc3b423          	sd	a2,1224(t2)
    80006444:	b504f0b7          	lui	ra,0xb504f
    80006448:	3370809b          	addiw	ra,ra,823 # ffffffffb504f337 <absimm+0xfffffffefa341867>
    8000644c:	00c08463          	beq	ra,a2,80006454 <inst_429>
    80006450:	bd5f906f          	j	80000024 <rvtest_error>

0000000080006454 <inst_429>:
    80006454:	00400513          	li	a0,4
    80006458:	00200593          	li	a1,2
    8000645c:	00b5063b          	addw	a2,a0,a1
    80006460:	4cc3b823          	sd	a2,1232(t2)
    80006464:	00600093          	li	ra,6
    80006468:	00c08463          	beq	ra,a2,80006470 <inst_430>
    8000646c:	bb9f906f          	j	80000024 <rvtest_error>

0000000080006470 <inst_430>:
    80006470:	00400513          	li	a0,4
    80006474:	555555b7          	lui	a1,0x55555
    80006478:	55558593          	addi	a1,a1,1365 # 55555555 <absimmsh+0x49a847a8>
    8000647c:	00b59593          	slli	a1,a1,0xb
    80006480:	2aa58593          	addi	a1,a1,682
    80006484:	00b59593          	slli	a1,a1,0xb
    80006488:	55558593          	addi	a1,a1,1365
    8000648c:	00a59593          	slli	a1,a1,0xa
    80006490:	15458593          	addi	a1,a1,340
    80006494:	00b5063b          	addw	a2,a0,a1
    80006498:	4cc3bc23          	sd	a2,1240(t2)
    8000649c:	555550b7          	lui	ra,0x55555
    800064a0:	5580809b          	addiw	ra,ra,1368 # 55555558 <absimmsh+0x49a847ab>
    800064a4:	00c08463          	beq	ra,a2,800064ac <inst_431>
    800064a8:	b7df906f          	j	80000024 <rvtest_error>

00000000800064ac <inst_431>:
    800064ac:	00400513          	li	a0,4
    800064b0:	00000593          	li	a1,0
    800064b4:	00b5063b          	addw	a2,a0,a1
    800064b8:	4ec3b023          	sd	a2,1248(t2)
    800064bc:	00400093          	li	ra,4
    800064c0:	00c08463          	beq	ra,a2,800064c8 <inst_432>
    800064c4:	b61f906f          	j	80000024 <rvtest_error>

00000000800064c8 <inst_432>:
    800064c8:	00400513          	li	a0,4
    800064cc:	00400593          	li	a1,4
    800064d0:	00b5063b          	addw	a2,a0,a1
    800064d4:	4ec3b423          	sd	a2,1256(t2)
    800064d8:	00800093          	li	ra,8
    800064dc:	00c08463          	beq	ra,a2,800064e4 <inst_433>
    800064e0:	b45f906f          	j	80000024 <rvtest_error>

00000000800064e4 <inst_433>:
    800064e4:	00400513          	li	a0,4
    800064e8:	333335b7          	lui	a1,0x33333
    800064ec:	33358593          	addi	a1,a1,819 # 33333333 <absimmsh+0x27862586>
    800064f0:	00b59593          	slli	a1,a1,0xb
    800064f4:	19958593          	addi	a1,a1,409
    800064f8:	00b59593          	slli	a1,a1,0xb
    800064fc:	4cc58593          	addi	a1,a1,1228
    80006500:	00a59593          	slli	a1,a1,0xa
    80006504:	33258593          	addi	a1,a1,818
    80006508:	00b5063b          	addw	a2,a0,a1
    8000650c:	4ec3b823          	sd	a2,1264(t2)
    80006510:	333330b7          	lui	ra,0x33333
    80006514:	3360809b          	addiw	ra,ra,822 # 33333336 <absimmsh+0x27862589>
    80006518:	00c08463          	beq	ra,a2,80006520 <inst_434>
    8000651c:	b09f906f          	j	80000024 <rvtest_error>

0000000080006520 <inst_434>:
    80006520:	00400513          	li	a0,4
    80006524:	666665b7          	lui	a1,0x66666
    80006528:	66658593          	addi	a1,a1,1638 # 66666666 <absimmsh+0x5ab958b9>
    8000652c:	00b59593          	slli	a1,a1,0xb
    80006530:	33358593          	addi	a1,a1,819
    80006534:	00b59593          	slli	a1,a1,0xb
    80006538:	19958593          	addi	a1,a1,409
    8000653c:	00a59593          	slli	a1,a1,0xa
    80006540:	26558593          	addi	a1,a1,613
    80006544:	00b5063b          	addw	a2,a0,a1
    80006548:	4ec3bc23          	sd	a2,1272(t2)
    8000654c:	666660b7          	lui	ra,0x66666
    80006550:	6690809b          	addiw	ra,ra,1641 # 66666669 <absimmsh+0x5ab958bc>
    80006554:	00c08463          	beq	ra,a2,8000655c <inst_435>
    80006558:	acdf906f          	j	80000024 <rvtest_error>

000000008000655c <inst_435>:
    8000655c:	00400513          	li	a0,4
    80006560:	000005b7          	lui	a1,0x0
    80006564:	00058593          	mv	a1,a1
    80006568:	00b59593          	slli	a1,a1,0xb
    8000656c:	5a858593          	addi	a1,a1,1448 # 5a8 <offset+0x110>
    80006570:	00b59593          	slli	a1,a1,0xb
    80006574:	13c58593          	addi	a1,a1,316
    80006578:	00a59593          	slli	a1,a1,0xa
    8000657c:	33258593          	addi	a1,a1,818
    80006580:	00b5063b          	addw	a2,a0,a1
    80006584:	50c3b023          	sd	a2,1280(t2)
    80006588:	b504f0b7          	lui	ra,0xb504f
    8000658c:	3360809b          	addiw	ra,ra,822 # ffffffffb504f336 <absimm+0xfffffffefa341866>
    80006590:	00c08463          	beq	ra,a2,80006598 <inst_436>
    80006594:	a91f906f          	j	80000024 <rvtest_error>

0000000080006598 <inst_436>:
    80006598:	00400513          	li	a0,4
    8000659c:	555555b7          	lui	a1,0x55555
    800065a0:	55558593          	addi	a1,a1,1365 # 55555555 <absimmsh+0x49a847a8>
    800065a4:	00b59593          	slli	a1,a1,0xb
    800065a8:	2aa58593          	addi	a1,a1,682
    800065ac:	00b59593          	slli	a1,a1,0xb
    800065b0:	55558593          	addi	a1,a1,1365
    800065b4:	00a59593          	slli	a1,a1,0xa
    800065b8:	15658593          	addi	a1,a1,342
    800065bc:	00b5063b          	addw	a2,a0,a1
    800065c0:	50c3b423          	sd	a2,1288(t2)
    800065c4:	555550b7          	lui	ra,0x55555
    800065c8:	55a0809b          	addiw	ra,ra,1370 # 5555555a <absimmsh+0x49a847ad>
    800065cc:	00c08463          	beq	ra,a2,800065d4 <inst_437>
    800065d0:	a55f906f          	j	80000024 <rvtest_error>

00000000800065d4 <inst_437>:
    800065d4:	00400513          	li	a0,4
    800065d8:	aaaab5b7          	lui	a1,0xaaaab
    800065dc:	aaa58593          	addi	a1,a1,-1366 # ffffffffaaaaaaaa <absimm+0xfffffffeefd9cfda>
    800065e0:	00b59593          	slli	a1,a1,0xb
    800065e4:	55558593          	addi	a1,a1,1365
    800065e8:	00b59593          	slli	a1,a1,0xb
    800065ec:	2aa58593          	addi	a1,a1,682
    800065f0:	00a59593          	slli	a1,a1,0xa
    800065f4:	2ab58593          	addi	a1,a1,683
    800065f8:	00b5063b          	addw	a2,a0,a1
    800065fc:	50c3b823          	sd	a2,1296(t2)
    80006600:	aaaab0b7          	lui	ra,0xaaaab
    80006604:	aaf0809b          	addiw	ra,ra,-1361 # ffffffffaaaaaaaf <absimm+0xfffffffeefd9cfdf>
    80006608:	00c08463          	beq	ra,a2,80006610 <inst_438>
    8000660c:	a19f906f          	j	80000024 <rvtest_error>

0000000080006610 <inst_438>:
    80006610:	00400513          	li	a0,4
    80006614:	00600593          	li	a1,6
    80006618:	00b5063b          	addw	a2,a0,a1
    8000661c:	50c3bc23          	sd	a2,1304(t2)
    80006620:	00a00093          	li	ra,10
    80006624:	00c08463          	beq	ra,a2,8000662c <inst_439>
    80006628:	9fdf906f          	j	80000024 <rvtest_error>

000000008000662c <inst_439>:
    8000662c:	00400513          	li	a0,4
    80006630:	333335b7          	lui	a1,0x33333
    80006634:	33358593          	addi	a1,a1,819 # 33333333 <absimmsh+0x27862586>
    80006638:	00b59593          	slli	a1,a1,0xb
    8000663c:	19958593          	addi	a1,a1,409
    80006640:	00b59593          	slli	a1,a1,0xb
    80006644:	4cc58593          	addi	a1,a1,1228
    80006648:	00a59593          	slli	a1,a1,0xa
    8000664c:	33458593          	addi	a1,a1,820
    80006650:	00b5063b          	addw	a2,a0,a1
    80006654:	52c3b023          	sd	a2,1312(t2)
    80006658:	333330b7          	lui	ra,0x33333
    8000665c:	3380809b          	addiw	ra,ra,824 # 33333338 <absimmsh+0x2786258b>
    80006660:	00c08463          	beq	ra,a2,80006668 <inst_440>
    80006664:	9c1f906f          	j	80000024 <rvtest_error>

0000000080006668 <inst_440>:
    80006668:	00400513          	li	a0,4
    8000666c:	666665b7          	lui	a1,0x66666
    80006670:	66658593          	addi	a1,a1,1638 # 66666666 <absimmsh+0x5ab958b9>
    80006674:	00b59593          	slli	a1,a1,0xb
    80006678:	33358593          	addi	a1,a1,819
    8000667c:	00b59593          	slli	a1,a1,0xb
    80006680:	19958593          	addi	a1,a1,409
    80006684:	00a59593          	slli	a1,a1,0xa
    80006688:	26758593          	addi	a1,a1,615
    8000668c:	00b5063b          	addw	a2,a0,a1
    80006690:	52c3b423          	sd	a2,1320(t2)
    80006694:	666660b7          	lui	ra,0x66666
    80006698:	66b0809b          	addiw	ra,ra,1643 # 6666666b <absimmsh+0x5ab958be>
    8000669c:	00c08463          	beq	ra,a2,800066a4 <inst_441>
    800066a0:	985f906f          	j	80000024 <rvtest_error>

00000000800066a4 <inst_441>:
    800066a4:	00400513          	li	a0,4
    800066a8:	000005b7          	lui	a1,0x0
    800066ac:	fff58593          	addi	a1,a1,-1
    800066b0:	00b59593          	slli	a1,a1,0xb
    800066b4:	25758593          	addi	a1,a1,599
    800066b8:	00b59593          	slli	a1,a1,0xb
    800066bc:	6c358593          	addi	a1,a1,1731
    800066c0:	00a59593          	slli	a1,a1,0xa
    800066c4:	0ce58593          	addi	a1,a1,206
    800066c8:	00b5063b          	addw	a2,a0,a1
    800066cc:	52c3b823          	sd	a2,1328(t2)
    800066d0:	4afb10b7          	lui	ra,0x4afb1
    800066d4:	cd20809b          	addiw	ra,ra,-814 # 4afb0cd2 <absimmsh+0x3f4dff25>
    800066d8:	00c08463          	beq	ra,a2,800066e0 <inst_442>
    800066dc:	949f906f          	j	80000024 <rvtest_error>

00000000800066e0 <inst_442>:
    800066e0:	00400513          	li	a0,4
    800066e4:	000005b7          	lui	a1,0x0
    800066e8:	00058593          	mv	a1,a1
    800066ec:	00b59593          	slli	a1,a1,0xb
    800066f0:	5a858593          	addi	a1,a1,1448 # 5a8 <offset+0x110>
    800066f4:	00b59593          	slli	a1,a1,0xb
    800066f8:	13c58593          	addi	a1,a1,316
    800066fc:	00a59593          	slli	a1,a1,0xa
    80006700:	33458593          	addi	a1,a1,820
    80006704:	00b5063b          	addw	a2,a0,a1
    80006708:	52c3bc23          	sd	a2,1336(t2)
    8000670c:	b504f0b7          	lui	ra,0xb504f
    80006710:	3380809b          	addiw	ra,ra,824 # ffffffffb504f338 <absimm+0xfffffffefa341868>
    80006714:	00c08463          	beq	ra,a2,8000671c <inst_443>
    80006718:	90df906f          	j	80000024 <rvtest_error>

000000008000671c <inst_443>:
    8000671c:	33333537          	lui	a0,0x33333
    80006720:	33350513          	addi	a0,a0,819 # 33333333 <absimmsh+0x27862586>
    80006724:	00b51513          	slli	a0,a0,0xb
    80006728:	19950513          	addi	a0,a0,409
    8000672c:	00b51513          	slli	a0,a0,0xb
    80006730:	4cc50513          	addi	a0,a0,1228
    80006734:	00a51513          	slli	a0,a0,0xa
    80006738:	33250513          	addi	a0,a0,818
    8000673c:	00300593          	li	a1,3
    80006740:	00b5063b          	addw	a2,a0,a1
    80006744:	54c3b023          	sd	a2,1344(t2)
    80006748:	333330b7          	lui	ra,0x33333
    8000674c:	3350809b          	addiw	ra,ra,821 # 33333335 <absimmsh+0x27862588>
    80006750:	00c08463          	beq	ra,a2,80006758 <inst_444>
    80006754:	8d1f906f          	j	80000024 <rvtest_error>

0000000080006758 <inst_444>:
    80006758:	33333537          	lui	a0,0x33333
    8000675c:	33350513          	addi	a0,a0,819 # 33333333 <absimmsh+0x27862586>
    80006760:	00b51513          	slli	a0,a0,0xb
    80006764:	19950513          	addi	a0,a0,409
    80006768:	00b51513          	slli	a0,a0,0xb
    8000676c:	4cc50513          	addi	a0,a0,1228
    80006770:	00a51513          	slli	a0,a0,0xa
    80006774:	33250513          	addi	a0,a0,818
    80006778:	555555b7          	lui	a1,0x55555
    8000677c:	55558593          	addi	a1,a1,1365 # 55555555 <absimmsh+0x49a847a8>
    80006780:	00b59593          	slli	a1,a1,0xb
    80006784:	2aa58593          	addi	a1,a1,682
    80006788:	00b59593          	slli	a1,a1,0xb
    8000678c:	55558593          	addi	a1,a1,1365
    80006790:	00a59593          	slli	a1,a1,0xa
    80006794:	15558593          	addi	a1,a1,341
    80006798:	00b5063b          	addw	a2,a0,a1
    8000679c:	54c3b423          	sd	a2,1352(t2)
    800067a0:	888890b7          	lui	ra,0x88889
    800067a4:	8870809b          	addiw	ra,ra,-1913 # ffffffff88888887 <absimm+0xfffffffecdb7adb7>
    800067a8:	00c08463          	beq	ra,a2,800067b0 <inst_445>
    800067ac:	879f906f          	j	80000024 <rvtest_error>

00000000800067b0 <inst_445>:
    800067b0:	33333537          	lui	a0,0x33333
    800067b4:	33350513          	addi	a0,a0,819 # 33333333 <absimmsh+0x27862586>
    800067b8:	00b51513          	slli	a0,a0,0xb
    800067bc:	19950513          	addi	a0,a0,409
    800067c0:	00b51513          	slli	a0,a0,0xb
    800067c4:	4cc50513          	addi	a0,a0,1228
    800067c8:	00a51513          	slli	a0,a0,0xa
    800067cc:	33250513          	addi	a0,a0,818
    800067d0:	aaaab5b7          	lui	a1,0xaaaab
    800067d4:	aaa58593          	addi	a1,a1,-1366 # ffffffffaaaaaaaa <absimm+0xfffffffeefd9cfda>
    800067d8:	00b59593          	slli	a1,a1,0xb
    800067dc:	55558593          	addi	a1,a1,1365
    800067e0:	00b59593          	slli	a1,a1,0xb
    800067e4:	2aa58593          	addi	a1,a1,682
    800067e8:	00a59593          	slli	a1,a1,0xa
    800067ec:	2aa58593          	addi	a1,a1,682
    800067f0:	00b5063b          	addw	a2,a0,a1
    800067f4:	54c3b823          	sd	a2,1360(t2)
    800067f8:	dddde0b7          	lui	ra,0xdddde
    800067fc:	ddc0809b          	addiw	ra,ra,-548 # ffffffffdddddddc <absimm+0xffffffff230d030c>
    80006800:	00c08463          	beq	ra,a2,80006808 <inst_446>
    80006804:	821f906f          	j	80000024 <rvtest_error>

0000000080006808 <inst_446>:
    80006808:	33333537          	lui	a0,0x33333
    8000680c:	33350513          	addi	a0,a0,819 # 33333333 <absimmsh+0x27862586>
    80006810:	00b51513          	slli	a0,a0,0xb
    80006814:	19950513          	addi	a0,a0,409
    80006818:	00b51513          	slli	a0,a0,0xb
    8000681c:	4cc50513          	addi	a0,a0,1228
    80006820:	00a51513          	slli	a0,a0,0xa
    80006824:	33250513          	addi	a0,a0,818
    80006828:	00500593          	li	a1,5
    8000682c:	00b5063b          	addw	a2,a0,a1
    80006830:	54c3bc23          	sd	a2,1368(t2)
    80006834:	333330b7          	lui	ra,0x33333
    80006838:	3370809b          	addiw	ra,ra,823 # 33333337 <absimmsh+0x2786258a>
    8000683c:	00c08463          	beq	ra,a2,80006844 <inst_447>
    80006840:	fe4f906f          	j	80000024 <rvtest_error>

0000000080006844 <inst_447>:
    80006844:	33333537          	lui	a0,0x33333
    80006848:	33350513          	addi	a0,a0,819 # 33333333 <absimmsh+0x27862586>
    8000684c:	00b51513          	slli	a0,a0,0xb
    80006850:	19950513          	addi	a0,a0,409
    80006854:	00b51513          	slli	a0,a0,0xb
    80006858:	4cc50513          	addi	a0,a0,1228
    8000685c:	00a51513          	slli	a0,a0,0xa
    80006860:	33250513          	addi	a0,a0,818
    80006864:	333335b7          	lui	a1,0x33333
    80006868:	33358593          	addi	a1,a1,819 # 33333333 <absimmsh+0x27862586>
    8000686c:	00b59593          	slli	a1,a1,0xb
    80006870:	19958593          	addi	a1,a1,409
    80006874:	00b59593          	slli	a1,a1,0xb
    80006878:	4cc58593          	addi	a1,a1,1228
    8000687c:	00a59593          	slli	a1,a1,0xa
    80006880:	33358593          	addi	a1,a1,819
    80006884:	00b5063b          	addw	a2,a0,a1
    80006888:	56c3b023          	sd	a2,1376(t2)
    8000688c:	666660b7          	lui	ra,0x66666
    80006890:	6650809b          	addiw	ra,ra,1637 # 66666665 <absimmsh+0x5ab958b8>
    80006894:	00c08463          	beq	ra,a2,8000689c <inst_448>
    80006898:	f8cf906f          	j	80000024 <rvtest_error>

000000008000689c <inst_448>:
    8000689c:	33333537          	lui	a0,0x33333
    800068a0:	33350513          	addi	a0,a0,819 # 33333333 <absimmsh+0x27862586>
    800068a4:	00b51513          	slli	a0,a0,0xb
    800068a8:	19950513          	addi	a0,a0,409
    800068ac:	00b51513          	slli	a0,a0,0xb
    800068b0:	4cc50513          	addi	a0,a0,1228
    800068b4:	00a51513          	slli	a0,a0,0xa
    800068b8:	33250513          	addi	a0,a0,818
    800068bc:	666665b7          	lui	a1,0x66666
    800068c0:	66658593          	addi	a1,a1,1638 # 66666666 <absimmsh+0x5ab958b9>
    800068c4:	00b59593          	slli	a1,a1,0xb
    800068c8:	33358593          	addi	a1,a1,819
    800068cc:	00b59593          	slli	a1,a1,0xb
    800068d0:	19958593          	addi	a1,a1,409
    800068d4:	00a59593          	slli	a1,a1,0xa
    800068d8:	26658593          	addi	a1,a1,614
    800068dc:	00b5063b          	addw	a2,a0,a1
    800068e0:	56c3b423          	sd	a2,1384(t2)
    800068e4:	9999a0b7          	lui	ra,0x9999a
    800068e8:	9980809b          	addiw	ra,ra,-1640 # ffffffff99999998 <absimm+0xfffffffedec8bec8>
    800068ec:	00c08463          	beq	ra,a2,800068f4 <inst_449>
    800068f0:	f34f906f          	j	80000024 <rvtest_error>

00000000800068f4 <inst_449>:
    800068f4:	33333537          	lui	a0,0x33333
    800068f8:	33350513          	addi	a0,a0,819 # 33333333 <absimmsh+0x27862586>
    800068fc:	00b51513          	slli	a0,a0,0xb
    80006900:	19950513          	addi	a0,a0,409
    80006904:	00b51513          	slli	a0,a0,0xb
    80006908:	4cc50513          	addi	a0,a0,1228
    8000690c:	00a51513          	slli	a0,a0,0xa
    80006910:	33250513          	addi	a0,a0,818
    80006914:	000005b7          	lui	a1,0x0
    80006918:	fff58593          	addi	a1,a1,-1
    8000691c:	00b59593          	slli	a1,a1,0xb
    80006920:	25758593          	addi	a1,a1,599
    80006924:	00b59593          	slli	a1,a1,0xb
    80006928:	6c358593          	addi	a1,a1,1731
    8000692c:	00a59593          	slli	a1,a1,0xa
    80006930:	0cd58593          	addi	a1,a1,205
    80006934:	00b5063b          	addw	a2,a0,a1
    80006938:	56c3b823          	sd	a2,1392(t2)
    8000693c:	7e2e40b7          	lui	ra,0x7e2e4
    80006940:	fff0809b          	addiw	ra,ra,-1 # 7e2e3fff <absimmsh+0x72813252>
    80006944:	00c08463          	beq	ra,a2,8000694c <inst_450>
    80006948:	edcf906f          	j	80000024 <rvtest_error>

000000008000694c <inst_450>:
    8000694c:	33333537          	lui	a0,0x33333
    80006950:	33350513          	addi	a0,a0,819 # 33333333 <absimmsh+0x27862586>
    80006954:	00b51513          	slli	a0,a0,0xb
    80006958:	19950513          	addi	a0,a0,409
    8000695c:	00b51513          	slli	a0,a0,0xb
    80006960:	4cc50513          	addi	a0,a0,1228
    80006964:	00a51513          	slli	a0,a0,0xa
    80006968:	33250513          	addi	a0,a0,818
    8000696c:	000005b7          	lui	a1,0x0
    80006970:	00058593          	mv	a1,a1
    80006974:	00b59593          	slli	a1,a1,0xb
    80006978:	5a858593          	addi	a1,a1,1448 # 5a8 <offset+0x110>
    8000697c:	00b59593          	slli	a1,a1,0xb
    80006980:	13c58593          	addi	a1,a1,316
    80006984:	00a59593          	slli	a1,a1,0xa
    80006988:	33358593          	addi	a1,a1,819
    8000698c:	00b5063b          	addw	a2,a0,a1
    80006990:	56c3bc23          	sd	a2,1400(t2)
    80006994:	e83820b7          	lui	ra,0xe8382
    80006998:	6650809b          	addiw	ra,ra,1637 # ffffffffe8382665 <absimm+0xffffffff2d674b95>
    8000699c:	00c08463          	beq	ra,a2,800069a4 <inst_451>
    800069a0:	e84f906f          	j	80000024 <rvtest_error>

00000000800069a4 <inst_451>:
    800069a4:	33333537          	lui	a0,0x33333
    800069a8:	33350513          	addi	a0,a0,819 # 33333333 <absimmsh+0x27862586>
    800069ac:	00b51513          	slli	a0,a0,0xb
    800069b0:	19950513          	addi	a0,a0,409
    800069b4:	00b51513          	slli	a0,a0,0xb
    800069b8:	4cc50513          	addi	a0,a0,1228
    800069bc:	00a51513          	slli	a0,a0,0xa
    800069c0:	33250513          	addi	a0,a0,818
    800069c4:	00200593          	li	a1,2
    800069c8:	00b5063b          	addw	a2,a0,a1
    800069cc:	58c3b023          	sd	a2,1408(t2)
    800069d0:	333330b7          	lui	ra,0x33333
    800069d4:	3340809b          	addiw	ra,ra,820 # 33333334 <absimmsh+0x27862587>
    800069d8:	00c08463          	beq	ra,a2,800069e0 <inst_452>
    800069dc:	e48f906f          	j	80000024 <rvtest_error>

00000000800069e0 <inst_452>:
    800069e0:	33333537          	lui	a0,0x33333
    800069e4:	33350513          	addi	a0,a0,819 # 33333333 <absimmsh+0x27862586>
    800069e8:	00b51513          	slli	a0,a0,0xb
    800069ec:	19950513          	addi	a0,a0,409
    800069f0:	00b51513          	slli	a0,a0,0xb
    800069f4:	4cc50513          	addi	a0,a0,1228
    800069f8:	00a51513          	slli	a0,a0,0xa
    800069fc:	33250513          	addi	a0,a0,818
    80006a00:	555555b7          	lui	a1,0x55555
    80006a04:	55558593          	addi	a1,a1,1365 # 55555555 <absimmsh+0x49a847a8>
    80006a08:	00b59593          	slli	a1,a1,0xb
    80006a0c:	2aa58593          	addi	a1,a1,682
    80006a10:	00b59593          	slli	a1,a1,0xb
    80006a14:	55558593          	addi	a1,a1,1365
    80006a18:	00a59593          	slli	a1,a1,0xa
    80006a1c:	15458593          	addi	a1,a1,340
    80006a20:	00b5063b          	addw	a2,a0,a1
    80006a24:	58c3b423          	sd	a2,1416(t2)
    80006a28:	888890b7          	lui	ra,0x88889
    80006a2c:	8860809b          	addiw	ra,ra,-1914 # ffffffff88888886 <absimm+0xfffffffecdb7adb6>
    80006a30:	00c08463          	beq	ra,a2,80006a38 <inst_453>
    80006a34:	df0f906f          	j	80000024 <rvtest_error>

0000000080006a38 <inst_453>:
    80006a38:	33333537          	lui	a0,0x33333
    80006a3c:	33350513          	addi	a0,a0,819 # 33333333 <absimmsh+0x27862586>
    80006a40:	00b51513          	slli	a0,a0,0xb
    80006a44:	19950513          	addi	a0,a0,409
    80006a48:	00b51513          	slli	a0,a0,0xb
    80006a4c:	4cc50513          	addi	a0,a0,1228
    80006a50:	00a51513          	slli	a0,a0,0xa
    80006a54:	33250513          	addi	a0,a0,818
    80006a58:	00000593          	li	a1,0
    80006a5c:	00b5063b          	addw	a2,a0,a1
    80006a60:	58c3b823          	sd	a2,1424(t2)
    80006a64:	333330b7          	lui	ra,0x33333
    80006a68:	3320809b          	addiw	ra,ra,818 # 33333332 <absimmsh+0x27862585>
    80006a6c:	00c08463          	beq	ra,a2,80006a74 <inst_454>
    80006a70:	db4f906f          	j	80000024 <rvtest_error>

0000000080006a74 <inst_454>:
    80006a74:	33333537          	lui	a0,0x33333
    80006a78:	33350513          	addi	a0,a0,819 # 33333333 <absimmsh+0x27862586>
    80006a7c:	00b51513          	slli	a0,a0,0xb
    80006a80:	19950513          	addi	a0,a0,409
    80006a84:	00b51513          	slli	a0,a0,0xb
    80006a88:	4cc50513          	addi	a0,a0,1228
    80006a8c:	00a51513          	slli	a0,a0,0xa
    80006a90:	33250513          	addi	a0,a0,818
    80006a94:	00400593          	li	a1,4
    80006a98:	00b5063b          	addw	a2,a0,a1
    80006a9c:	58c3bc23          	sd	a2,1432(t2)
    80006aa0:	333330b7          	lui	ra,0x33333
    80006aa4:	3360809b          	addiw	ra,ra,822 # 33333336 <absimmsh+0x27862589>
    80006aa8:	00c08463          	beq	ra,a2,80006ab0 <inst_455>
    80006aac:	d78f906f          	j	80000024 <rvtest_error>

0000000080006ab0 <inst_455>:
    80006ab0:	33333537          	lui	a0,0x33333
    80006ab4:	33350513          	addi	a0,a0,819 # 33333333 <absimmsh+0x27862586>
    80006ab8:	00b51513          	slli	a0,a0,0xb
    80006abc:	19950513          	addi	a0,a0,409
    80006ac0:	00b51513          	slli	a0,a0,0xb
    80006ac4:	4cc50513          	addi	a0,a0,1228
    80006ac8:	00a51513          	slli	a0,a0,0xa
    80006acc:	33250513          	addi	a0,a0,818
    80006ad0:	333335b7          	lui	a1,0x33333
    80006ad4:	33358593          	addi	a1,a1,819 # 33333333 <absimmsh+0x27862586>
    80006ad8:	00b59593          	slli	a1,a1,0xb
    80006adc:	19958593          	addi	a1,a1,409
    80006ae0:	00b59593          	slli	a1,a1,0xb
    80006ae4:	4cc58593          	addi	a1,a1,1228
    80006ae8:	00a59593          	slli	a1,a1,0xa
    80006aec:	33258593          	addi	a1,a1,818
    80006af0:	00b5063b          	addw	a2,a0,a1
    80006af4:	5ac3b023          	sd	a2,1440(t2)
    80006af8:	666660b7          	lui	ra,0x66666
    80006afc:	6640809b          	addiw	ra,ra,1636 # 66666664 <absimmsh+0x5ab958b7>
    80006b00:	00c08463          	beq	ra,a2,80006b08 <inst_456>
    80006b04:	d20f906f          	j	80000024 <rvtest_error>

0000000080006b08 <inst_456>:
    80006b08:	33333537          	lui	a0,0x33333
    80006b0c:	33350513          	addi	a0,a0,819 # 33333333 <absimmsh+0x27862586>
    80006b10:	00b51513          	slli	a0,a0,0xb
    80006b14:	19950513          	addi	a0,a0,409
    80006b18:	00b51513          	slli	a0,a0,0xb
    80006b1c:	4cc50513          	addi	a0,a0,1228
    80006b20:	00a51513          	slli	a0,a0,0xa
    80006b24:	33250513          	addi	a0,a0,818
    80006b28:	666665b7          	lui	a1,0x66666
    80006b2c:	66658593          	addi	a1,a1,1638 # 66666666 <absimmsh+0x5ab958b9>
    80006b30:	00b59593          	slli	a1,a1,0xb
    80006b34:	33358593          	addi	a1,a1,819
    80006b38:	00b59593          	slli	a1,a1,0xb
    80006b3c:	19958593          	addi	a1,a1,409
    80006b40:	00a59593          	slli	a1,a1,0xa
    80006b44:	26558593          	addi	a1,a1,613
    80006b48:	00b5063b          	addw	a2,a0,a1
    80006b4c:	5ac3b423          	sd	a2,1448(t2)
    80006b50:	9999a0b7          	lui	ra,0x9999a
    80006b54:	9970809b          	addiw	ra,ra,-1641 # ffffffff99999997 <absimm+0xfffffffedec8bec7>
    80006b58:	00c08463          	beq	ra,a2,80006b60 <inst_457>
    80006b5c:	cc8f906f          	j	80000024 <rvtest_error>

0000000080006b60 <inst_457>:
    80006b60:	33333537          	lui	a0,0x33333
    80006b64:	33350513          	addi	a0,a0,819 # 33333333 <absimmsh+0x27862586>
    80006b68:	00b51513          	slli	a0,a0,0xb
    80006b6c:	19950513          	addi	a0,a0,409
    80006b70:	00b51513          	slli	a0,a0,0xb
    80006b74:	4cc50513          	addi	a0,a0,1228
    80006b78:	00a51513          	slli	a0,a0,0xa
    80006b7c:	33250513          	addi	a0,a0,818
    80006b80:	000005b7          	lui	a1,0x0
    80006b84:	00058593          	mv	a1,a1
    80006b88:	00b59593          	slli	a1,a1,0xb
    80006b8c:	5a858593          	addi	a1,a1,1448 # 5a8 <offset+0x110>
    80006b90:	00b59593          	slli	a1,a1,0xb
    80006b94:	13c58593          	addi	a1,a1,316
    80006b98:	00a59593          	slli	a1,a1,0xa
    80006b9c:	33258593          	addi	a1,a1,818
    80006ba0:	00b5063b          	addw	a2,a0,a1
    80006ba4:	5ac3b823          	sd	a2,1456(t2)
    80006ba8:	e83820b7          	lui	ra,0xe8382
    80006bac:	6640809b          	addiw	ra,ra,1636 # ffffffffe8382664 <absimm+0xffffffff2d674b94>
    80006bb0:	00c08463          	beq	ra,a2,80006bb8 <inst_458>
    80006bb4:	c70f906f          	j	80000024 <rvtest_error>

0000000080006bb8 <inst_458>:
    80006bb8:	33333537          	lui	a0,0x33333
    80006bbc:	33350513          	addi	a0,a0,819 # 33333333 <absimmsh+0x27862586>
    80006bc0:	00b51513          	slli	a0,a0,0xb
    80006bc4:	19950513          	addi	a0,a0,409
    80006bc8:	00b51513          	slli	a0,a0,0xb
    80006bcc:	4cc50513          	addi	a0,a0,1228
    80006bd0:	00a51513          	slli	a0,a0,0xa
    80006bd4:	33250513          	addi	a0,a0,818
    80006bd8:	555555b7          	lui	a1,0x55555
    80006bdc:	55558593          	addi	a1,a1,1365 # 55555555 <absimmsh+0x49a847a8>
    80006be0:	00b59593          	slli	a1,a1,0xb
    80006be4:	2aa58593          	addi	a1,a1,682
    80006be8:	00b59593          	slli	a1,a1,0xb
    80006bec:	55558593          	addi	a1,a1,1365
    80006bf0:	00a59593          	slli	a1,a1,0xa
    80006bf4:	15658593          	addi	a1,a1,342
    80006bf8:	00b5063b          	addw	a2,a0,a1
    80006bfc:	5ac3bc23          	sd	a2,1464(t2)
    80006c00:	888890b7          	lui	ra,0x88889
    80006c04:	8880809b          	addiw	ra,ra,-1912 # ffffffff88888888 <absimm+0xfffffffecdb7adb8>
    80006c08:	00c08463          	beq	ra,a2,80006c10 <inst_459>
    80006c0c:	c18f906f          	j	80000024 <rvtest_error>

0000000080006c10 <inst_459>:
    80006c10:	33333537          	lui	a0,0x33333
    80006c14:	33350513          	addi	a0,a0,819 # 33333333 <absimmsh+0x27862586>
    80006c18:	00b51513          	slli	a0,a0,0xb
    80006c1c:	19950513          	addi	a0,a0,409
    80006c20:	00b51513          	slli	a0,a0,0xb
    80006c24:	4cc50513          	addi	a0,a0,1228
    80006c28:	00a51513          	slli	a0,a0,0xa
    80006c2c:	33250513          	addi	a0,a0,818
    80006c30:	aaaab5b7          	lui	a1,0xaaaab
    80006c34:	aaa58593          	addi	a1,a1,-1366 # ffffffffaaaaaaaa <absimm+0xfffffffeefd9cfda>
    80006c38:	00b59593          	slli	a1,a1,0xb
    80006c3c:	55558593          	addi	a1,a1,1365
    80006c40:	00b59593          	slli	a1,a1,0xb
    80006c44:	2aa58593          	addi	a1,a1,682
    80006c48:	00a59593          	slli	a1,a1,0xa
    80006c4c:	2ab58593          	addi	a1,a1,683
    80006c50:	00b5063b          	addw	a2,a0,a1
    80006c54:	5cc3b023          	sd	a2,1472(t2)
    80006c58:	dddde0b7          	lui	ra,0xdddde
    80006c5c:	ddd0809b          	addiw	ra,ra,-547 # ffffffffdddddddd <absimm+0xffffffff230d030d>
    80006c60:	00c08463          	beq	ra,a2,80006c68 <inst_460>
    80006c64:	bc0f906f          	j	80000024 <rvtest_error>

0000000080006c68 <inst_460>:
    80006c68:	33333537          	lui	a0,0x33333
    80006c6c:	33350513          	addi	a0,a0,819 # 33333333 <absimmsh+0x27862586>
    80006c70:	00b51513          	slli	a0,a0,0xb
    80006c74:	19950513          	addi	a0,a0,409
    80006c78:	00b51513          	slli	a0,a0,0xb
    80006c7c:	4cc50513          	addi	a0,a0,1228
    80006c80:	00a51513          	slli	a0,a0,0xa
    80006c84:	33250513          	addi	a0,a0,818
    80006c88:	00600593          	li	a1,6
    80006c8c:	00b5063b          	addw	a2,a0,a1
    80006c90:	5cc3b423          	sd	a2,1480(t2)
    80006c94:	333330b7          	lui	ra,0x33333
    80006c98:	3380809b          	addiw	ra,ra,824 # 33333338 <absimmsh+0x2786258b>
    80006c9c:	00c08463          	beq	ra,a2,80006ca4 <inst_461>
    80006ca0:	b84f906f          	j	80000024 <rvtest_error>

0000000080006ca4 <inst_461>:
    80006ca4:	33333537          	lui	a0,0x33333
    80006ca8:	33350513          	addi	a0,a0,819 # 33333333 <absimmsh+0x27862586>
    80006cac:	00b51513          	slli	a0,a0,0xb
    80006cb0:	19950513          	addi	a0,a0,409
    80006cb4:	00b51513          	slli	a0,a0,0xb
    80006cb8:	4cc50513          	addi	a0,a0,1228
    80006cbc:	00a51513          	slli	a0,a0,0xa
    80006cc0:	33250513          	addi	a0,a0,818
    80006cc4:	333335b7          	lui	a1,0x33333
    80006cc8:	33358593          	addi	a1,a1,819 # 33333333 <absimmsh+0x27862586>
    80006ccc:	00b59593          	slli	a1,a1,0xb
    80006cd0:	19958593          	addi	a1,a1,409
    80006cd4:	00b59593          	slli	a1,a1,0xb
    80006cd8:	4cc58593          	addi	a1,a1,1228
    80006cdc:	00a59593          	slli	a1,a1,0xa
    80006ce0:	33458593          	addi	a1,a1,820
    80006ce4:	00b5063b          	addw	a2,a0,a1
    80006ce8:	5cc3b823          	sd	a2,1488(t2)
    80006cec:	666660b7          	lui	ra,0x66666
    80006cf0:	6660809b          	addiw	ra,ra,1638 # 66666666 <absimmsh+0x5ab958b9>
    80006cf4:	00c08463          	beq	ra,a2,80006cfc <inst_462>
    80006cf8:	b2cf906f          	j	80000024 <rvtest_error>

0000000080006cfc <inst_462>:
    80006cfc:	33333537          	lui	a0,0x33333
    80006d00:	33350513          	addi	a0,a0,819 # 33333333 <absimmsh+0x27862586>
    80006d04:	00b51513          	slli	a0,a0,0xb
    80006d08:	19950513          	addi	a0,a0,409
    80006d0c:	00b51513          	slli	a0,a0,0xb
    80006d10:	4cc50513          	addi	a0,a0,1228
    80006d14:	00a51513          	slli	a0,a0,0xa
    80006d18:	33250513          	addi	a0,a0,818
    80006d1c:	666665b7          	lui	a1,0x66666
    80006d20:	66658593          	addi	a1,a1,1638 # 66666666 <absimmsh+0x5ab958b9>
    80006d24:	00b59593          	slli	a1,a1,0xb
    80006d28:	33358593          	addi	a1,a1,819
    80006d2c:	00b59593          	slli	a1,a1,0xb
    80006d30:	19958593          	addi	a1,a1,409
    80006d34:	00a59593          	slli	a1,a1,0xa
    80006d38:	26758593          	addi	a1,a1,615
    80006d3c:	00b5063b          	addw	a2,a0,a1
    80006d40:	5cc3bc23          	sd	a2,1496(t2)
    80006d44:	9999a0b7          	lui	ra,0x9999a
    80006d48:	9990809b          	addiw	ra,ra,-1639 # ffffffff99999999 <absimm+0xfffffffedec8bec9>
    80006d4c:	00c08463          	beq	ra,a2,80006d54 <inst_463>
    80006d50:	ad4f906f          	j	80000024 <rvtest_error>

0000000080006d54 <inst_463>:
    80006d54:	33333537          	lui	a0,0x33333
    80006d58:	33350513          	addi	a0,a0,819 # 33333333 <absimmsh+0x27862586>
    80006d5c:	00b51513          	slli	a0,a0,0xb
    80006d60:	19950513          	addi	a0,a0,409
    80006d64:	00b51513          	slli	a0,a0,0xb
    80006d68:	4cc50513          	addi	a0,a0,1228
    80006d6c:	00a51513          	slli	a0,a0,0xa
    80006d70:	33250513          	addi	a0,a0,818
    80006d74:	000005b7          	lui	a1,0x0
    80006d78:	fff58593          	addi	a1,a1,-1
    80006d7c:	00b59593          	slli	a1,a1,0xb
    80006d80:	25758593          	addi	a1,a1,599
    80006d84:	00b59593          	slli	a1,a1,0xb
    80006d88:	6c358593          	addi	a1,a1,1731
    80006d8c:	00a59593          	slli	a1,a1,0xa
    80006d90:	0ce58593          	addi	a1,a1,206
    80006d94:	00b5063b          	addw	a2,a0,a1
    80006d98:	5ec3b023          	sd	a2,1504(t2)
    80006d9c:	7e2e40b7          	lui	ra,0x7e2e4
    80006da0:	00c08463          	beq	ra,a2,80006da8 <inst_464>
    80006da4:	a80f906f          	j	80000024 <rvtest_error>

0000000080006da8 <inst_464>:
    80006da8:	33333537          	lui	a0,0x33333
    80006dac:	33350513          	addi	a0,a0,819 # 33333333 <absimmsh+0x27862586>
    80006db0:	00b51513          	slli	a0,a0,0xb
    80006db4:	19950513          	addi	a0,a0,409
    80006db8:	00b51513          	slli	a0,a0,0xb
    80006dbc:	4cc50513          	addi	a0,a0,1228
    80006dc0:	00a51513          	slli	a0,a0,0xa
    80006dc4:	33250513          	addi	a0,a0,818
    80006dc8:	000005b7          	lui	a1,0x0
    80006dcc:	00058593          	mv	a1,a1
    80006dd0:	00b59593          	slli	a1,a1,0xb
    80006dd4:	5a858593          	addi	a1,a1,1448 # 5a8 <offset+0x110>
    80006dd8:	00b59593          	slli	a1,a1,0xb
    80006ddc:	13c58593          	addi	a1,a1,316
    80006de0:	00a59593          	slli	a1,a1,0xa
    80006de4:	33458593          	addi	a1,a1,820
    80006de8:	00b5063b          	addw	a2,a0,a1
    80006dec:	5ec3b423          	sd	a2,1512(t2)
    80006df0:	e83820b7          	lui	ra,0xe8382
    80006df4:	6660809b          	addiw	ra,ra,1638 # ffffffffe8382666 <absimm+0xffffffff2d674b96>
    80006df8:	00c08463          	beq	ra,a2,80006e00 <inst_465>
    80006dfc:	a28f906f          	j	80000024 <rvtest_error>

0000000080006e00 <inst_465>:
    80006e00:	66666537          	lui	a0,0x66666
    80006e04:	66650513          	addi	a0,a0,1638 # 66666666 <absimmsh+0x5ab958b9>
    80006e08:	00b51513          	slli	a0,a0,0xb
    80006e0c:	33350513          	addi	a0,a0,819
    80006e10:	00b51513          	slli	a0,a0,0xb
    80006e14:	19950513          	addi	a0,a0,409
    80006e18:	00a51513          	slli	a0,a0,0xa
    80006e1c:	26550513          	addi	a0,a0,613
    80006e20:	00300593          	li	a1,3
    80006e24:	00b5063b          	addw	a2,a0,a1
    80006e28:	5ec3b823          	sd	a2,1520(t2)
    80006e2c:	666660b7          	lui	ra,0x66666
    80006e30:	6680809b          	addiw	ra,ra,1640 # 66666668 <absimmsh+0x5ab958bb>
    80006e34:	00c08463          	beq	ra,a2,80006e3c <inst_466>
    80006e38:	9ecf906f          	j	80000024 <rvtest_error>

0000000080006e3c <inst_466>:
    80006e3c:	66666537          	lui	a0,0x66666
    80006e40:	66650513          	addi	a0,a0,1638 # 66666666 <absimmsh+0x5ab958b9>
    80006e44:	00b51513          	slli	a0,a0,0xb
    80006e48:	33350513          	addi	a0,a0,819
    80006e4c:	00b51513          	slli	a0,a0,0xb
    80006e50:	19950513          	addi	a0,a0,409
    80006e54:	00a51513          	slli	a0,a0,0xa
    80006e58:	26550513          	addi	a0,a0,613
    80006e5c:	555555b7          	lui	a1,0x55555
    80006e60:	55558593          	addi	a1,a1,1365 # 55555555 <absimmsh+0x49a847a8>
    80006e64:	00b59593          	slli	a1,a1,0xb
    80006e68:	2aa58593          	addi	a1,a1,682
    80006e6c:	00b59593          	slli	a1,a1,0xb
    80006e70:	55558593          	addi	a1,a1,1365
    80006e74:	00a59593          	slli	a1,a1,0xa
    80006e78:	15558593          	addi	a1,a1,341
    80006e7c:	00b5063b          	addw	a2,a0,a1
    80006e80:	5ec3bc23          	sd	a2,1528(t2)
    80006e84:	bbbbc0b7          	lui	ra,0xbbbbc
    80006e88:	bba0809b          	addiw	ra,ra,-1094 # ffffffffbbbbbbba <absimm+0xffffffff00eae0ea>
    80006e8c:	00c08463          	beq	ra,a2,80006e94 <inst_467>
    80006e90:	994f906f          	j	80000024 <rvtest_error>

0000000080006e94 <inst_467>:
    80006e94:	66666537          	lui	a0,0x66666
    80006e98:	66650513          	addi	a0,a0,1638 # 66666666 <absimmsh+0x5ab958b9>
    80006e9c:	00b51513          	slli	a0,a0,0xb
    80006ea0:	33350513          	addi	a0,a0,819
    80006ea4:	00b51513          	slli	a0,a0,0xb
    80006ea8:	19950513          	addi	a0,a0,409
    80006eac:	00a51513          	slli	a0,a0,0xa
    80006eb0:	26550513          	addi	a0,a0,613
    80006eb4:	aaaab5b7          	lui	a1,0xaaaab
    80006eb8:	aaa58593          	addi	a1,a1,-1366 # ffffffffaaaaaaaa <absimm+0xfffffffeefd9cfda>
    80006ebc:	00b59593          	slli	a1,a1,0xb
    80006ec0:	55558593          	addi	a1,a1,1365
    80006ec4:	00b59593          	slli	a1,a1,0xb
    80006ec8:	2aa58593          	addi	a1,a1,682
    80006ecc:	00a59593          	slli	a1,a1,0xa
    80006ed0:	2aa58593          	addi	a1,a1,682
    80006ed4:	00b5063b          	addw	a2,a0,a1
    80006ed8:	60c3b023          	sd	a2,1536(t2)
    80006edc:	111110b7          	lui	ra,0x11111
    80006ee0:	10f0809b          	addiw	ra,ra,271 # 1111110f <absimmsh+0x5640362>
    80006ee4:	00c08463          	beq	ra,a2,80006eec <inst_468>
    80006ee8:	93cf906f          	j	80000024 <rvtest_error>

0000000080006eec <inst_468>:
    80006eec:	66666537          	lui	a0,0x66666
    80006ef0:	66650513          	addi	a0,a0,1638 # 66666666 <absimmsh+0x5ab958b9>
    80006ef4:	00b51513          	slli	a0,a0,0xb
    80006ef8:	33350513          	addi	a0,a0,819
    80006efc:	00b51513          	slli	a0,a0,0xb
    80006f00:	19950513          	addi	a0,a0,409
    80006f04:	00a51513          	slli	a0,a0,0xa
    80006f08:	26550513          	addi	a0,a0,613
    80006f0c:	00500593          	li	a1,5
    80006f10:	00b5063b          	addw	a2,a0,a1
    80006f14:	60c3b423          	sd	a2,1544(t2)
    80006f18:	666660b7          	lui	ra,0x66666
    80006f1c:	66a0809b          	addiw	ra,ra,1642 # 6666666a <absimmsh+0x5ab958bd>
    80006f20:	00c08463          	beq	ra,a2,80006f28 <inst_469>
    80006f24:	900f906f          	j	80000024 <rvtest_error>

0000000080006f28 <inst_469>:
    80006f28:	66666537          	lui	a0,0x66666
    80006f2c:	66650513          	addi	a0,a0,1638 # 66666666 <absimmsh+0x5ab958b9>
    80006f30:	00b51513          	slli	a0,a0,0xb
    80006f34:	33350513          	addi	a0,a0,819
    80006f38:	00b51513          	slli	a0,a0,0xb
    80006f3c:	19950513          	addi	a0,a0,409
    80006f40:	00a51513          	slli	a0,a0,0xa
    80006f44:	26550513          	addi	a0,a0,613
    80006f48:	333335b7          	lui	a1,0x33333
    80006f4c:	33358593          	addi	a1,a1,819 # 33333333 <absimmsh+0x27862586>
    80006f50:	00b59593          	slli	a1,a1,0xb
    80006f54:	19958593          	addi	a1,a1,409
    80006f58:	00b59593          	slli	a1,a1,0xb
    80006f5c:	4cc58593          	addi	a1,a1,1228
    80006f60:	00a59593          	slli	a1,a1,0xa
    80006f64:	33358593          	addi	a1,a1,819
    80006f68:	00b5063b          	addw	a2,a0,a1
    80006f6c:	60c3b823          	sd	a2,1552(t2)
    80006f70:	9999a0b7          	lui	ra,0x9999a
    80006f74:	9980809b          	addiw	ra,ra,-1640 # ffffffff99999998 <absimm+0xfffffffedec8bec8>
    80006f78:	00c08463          	beq	ra,a2,80006f80 <inst_470>
    80006f7c:	8a8f906f          	j	80000024 <rvtest_error>

0000000080006f80 <inst_470>:
    80006f80:	66666537          	lui	a0,0x66666
    80006f84:	66650513          	addi	a0,a0,1638 # 66666666 <absimmsh+0x5ab958b9>
    80006f88:	00b51513          	slli	a0,a0,0xb
    80006f8c:	33350513          	addi	a0,a0,819
    80006f90:	00b51513          	slli	a0,a0,0xb
    80006f94:	19950513          	addi	a0,a0,409
    80006f98:	00a51513          	slli	a0,a0,0xa
    80006f9c:	26550513          	addi	a0,a0,613
    80006fa0:	666665b7          	lui	a1,0x66666
    80006fa4:	66658593          	addi	a1,a1,1638 # 66666666 <absimmsh+0x5ab958b9>
    80006fa8:	00b59593          	slli	a1,a1,0xb
    80006fac:	33358593          	addi	a1,a1,819
    80006fb0:	00b59593          	slli	a1,a1,0xb
    80006fb4:	19958593          	addi	a1,a1,409
    80006fb8:	00a59593          	slli	a1,a1,0xa
    80006fbc:	26658593          	addi	a1,a1,614
    80006fc0:	00b5063b          	addw	a2,a0,a1
    80006fc4:	60c3bc23          	sd	a2,1560(t2)
    80006fc8:	ccccd0b7          	lui	ra,0xccccd
    80006fcc:	ccb0809b          	addiw	ra,ra,-821 # ffffffffcccccccb <absimm+0xffffffff11fbf1fb>
    80006fd0:	00c08463          	beq	ra,a2,80006fd8 <inst_471>
    80006fd4:	850f906f          	j	80000024 <rvtest_error>

0000000080006fd8 <inst_471>:
    80006fd8:	66666537          	lui	a0,0x66666
    80006fdc:	66650513          	addi	a0,a0,1638 # 66666666 <absimmsh+0x5ab958b9>
    80006fe0:	00b51513          	slli	a0,a0,0xb
    80006fe4:	33350513          	addi	a0,a0,819
    80006fe8:	00b51513          	slli	a0,a0,0xb
    80006fec:	19950513          	addi	a0,a0,409
    80006ff0:	00a51513          	slli	a0,a0,0xa
    80006ff4:	26550513          	addi	a0,a0,613
    80006ff8:	000005b7          	lui	a1,0x0
    80006ffc:	fff58593          	addi	a1,a1,-1
    80007000:	00b59593          	slli	a1,a1,0xb
    80007004:	25758593          	addi	a1,a1,599
    80007008:	00b59593          	slli	a1,a1,0xb
    8000700c:	6c358593          	addi	a1,a1,1731
    80007010:	00a59593          	slli	a1,a1,0xa
    80007014:	0cd58593          	addi	a1,a1,205
    80007018:	00b5063b          	addw	a2,a0,a1
    8000701c:	62c3b023          	sd	a2,1568(t2)
    80007020:	b16170b7          	lui	ra,0xb1617
    80007024:	3320809b          	addiw	ra,ra,818 # ffffffffb1617332 <absimm+0xfffffffef6909862>
    80007028:	00c08463          	beq	ra,a2,80007030 <inst_472>
    8000702c:	ff9f806f          	j	80000024 <rvtest_error>

0000000080007030 <inst_472>:
    80007030:	66666537          	lui	a0,0x66666
    80007034:	66650513          	addi	a0,a0,1638 # 66666666 <absimmsh+0x5ab958b9>
    80007038:	00b51513          	slli	a0,a0,0xb
    8000703c:	33350513          	addi	a0,a0,819
    80007040:	00b51513          	slli	a0,a0,0xb
    80007044:	19950513          	addi	a0,a0,409
    80007048:	00a51513          	slli	a0,a0,0xa
    8000704c:	26550513          	addi	a0,a0,613
    80007050:	000005b7          	lui	a1,0x0
    80007054:	00058593          	mv	a1,a1
    80007058:	00b59593          	slli	a1,a1,0xb
    8000705c:	5a858593          	addi	a1,a1,1448 # 5a8 <offset+0x110>
    80007060:	00b59593          	slli	a1,a1,0xb
    80007064:	13c58593          	addi	a1,a1,316
    80007068:	00a59593          	slli	a1,a1,0xa
    8000706c:	33358593          	addi	a1,a1,819
    80007070:	00b5063b          	addw	a2,a0,a1
    80007074:	62c3b423          	sd	a2,1576(t2)
    80007078:	1b6b60b7          	lui	ra,0x1b6b6
    8000707c:	9980809b          	addiw	ra,ra,-1640 # 1b6b5998 <absimmsh+0xfbe4beb>
    80007080:	00c08463          	beq	ra,a2,80007088 <inst_473>
    80007084:	fa1f806f          	j	80000024 <rvtest_error>

0000000080007088 <inst_473>:
    80007088:	66666537          	lui	a0,0x66666
    8000708c:	66650513          	addi	a0,a0,1638 # 66666666 <absimmsh+0x5ab958b9>
    80007090:	00b51513          	slli	a0,a0,0xb
    80007094:	33350513          	addi	a0,a0,819
    80007098:	00b51513          	slli	a0,a0,0xb
    8000709c:	19950513          	addi	a0,a0,409
    800070a0:	00a51513          	slli	a0,a0,0xa
    800070a4:	26550513          	addi	a0,a0,613
    800070a8:	00200593          	li	a1,2
    800070ac:	00b5063b          	addw	a2,a0,a1
    800070b0:	62c3b823          	sd	a2,1584(t2)
    800070b4:	666660b7          	lui	ra,0x66666
    800070b8:	6670809b          	addiw	ra,ra,1639 # 66666667 <absimmsh+0x5ab958ba>
    800070bc:	00c08463          	beq	ra,a2,800070c4 <inst_474>
    800070c0:	f65f806f          	j	80000024 <rvtest_error>

00000000800070c4 <inst_474>:
    800070c4:	66666537          	lui	a0,0x66666
    800070c8:	66650513          	addi	a0,a0,1638 # 66666666 <absimmsh+0x5ab958b9>
    800070cc:	00b51513          	slli	a0,a0,0xb
    800070d0:	33350513          	addi	a0,a0,819
    800070d4:	00b51513          	slli	a0,a0,0xb
    800070d8:	19950513          	addi	a0,a0,409
    800070dc:	00a51513          	slli	a0,a0,0xa
    800070e0:	26550513          	addi	a0,a0,613
    800070e4:	555555b7          	lui	a1,0x55555
    800070e8:	55558593          	addi	a1,a1,1365 # 55555555 <absimmsh+0x49a847a8>
    800070ec:	00b59593          	slli	a1,a1,0xb
    800070f0:	2aa58593          	addi	a1,a1,682
    800070f4:	00b59593          	slli	a1,a1,0xb
    800070f8:	55558593          	addi	a1,a1,1365
    800070fc:	00a59593          	slli	a1,a1,0xa
    80007100:	15458593          	addi	a1,a1,340
    80007104:	00b5063b          	addw	a2,a0,a1
    80007108:	62c3bc23          	sd	a2,1592(t2)
    8000710c:	bbbbc0b7          	lui	ra,0xbbbbc
    80007110:	bb90809b          	addiw	ra,ra,-1095 # ffffffffbbbbbbb9 <absimm+0xffffffff00eae0e9>
    80007114:	00c08463          	beq	ra,a2,8000711c <inst_475>
    80007118:	f0df806f          	j	80000024 <rvtest_error>

000000008000711c <inst_475>:
    8000711c:	66666537          	lui	a0,0x66666
    80007120:	66650513          	addi	a0,a0,1638 # 66666666 <absimmsh+0x5ab958b9>
    80007124:	00b51513          	slli	a0,a0,0xb
    80007128:	33350513          	addi	a0,a0,819
    8000712c:	00b51513          	slli	a0,a0,0xb
    80007130:	19950513          	addi	a0,a0,409
    80007134:	00a51513          	slli	a0,a0,0xa
    80007138:	26550513          	addi	a0,a0,613
    8000713c:	00000593          	li	a1,0
    80007140:	00b5063b          	addw	a2,a0,a1
    80007144:	64c3b023          	sd	a2,1600(t2)
    80007148:	666660b7          	lui	ra,0x66666
    8000714c:	6650809b          	addiw	ra,ra,1637 # 66666665 <absimmsh+0x5ab958b8>
    80007150:	00c08463          	beq	ra,a2,80007158 <inst_476>
    80007154:	ed1f806f          	j	80000024 <rvtest_error>

0000000080007158 <inst_476>:
    80007158:	66666537          	lui	a0,0x66666
    8000715c:	66650513          	addi	a0,a0,1638 # 66666666 <absimmsh+0x5ab958b9>
    80007160:	00b51513          	slli	a0,a0,0xb
    80007164:	33350513          	addi	a0,a0,819
    80007168:	00b51513          	slli	a0,a0,0xb
    8000716c:	19950513          	addi	a0,a0,409
    80007170:	00a51513          	slli	a0,a0,0xa
    80007174:	26550513          	addi	a0,a0,613
    80007178:	00400593          	li	a1,4
    8000717c:	00b5063b          	addw	a2,a0,a1
    80007180:	64c3b423          	sd	a2,1608(t2)
    80007184:	666660b7          	lui	ra,0x66666
    80007188:	6690809b          	addiw	ra,ra,1641 # 66666669 <absimmsh+0x5ab958bc>
    8000718c:	00c08463          	beq	ra,a2,80007194 <inst_477>
    80007190:	e95f806f          	j	80000024 <rvtest_error>

0000000080007194 <inst_477>:
    80007194:	66666537          	lui	a0,0x66666
    80007198:	66650513          	addi	a0,a0,1638 # 66666666 <absimmsh+0x5ab958b9>
    8000719c:	00b51513          	slli	a0,a0,0xb
    800071a0:	33350513          	addi	a0,a0,819
    800071a4:	00b51513          	slli	a0,a0,0xb
    800071a8:	19950513          	addi	a0,a0,409
    800071ac:	00a51513          	slli	a0,a0,0xa
    800071b0:	26550513          	addi	a0,a0,613
    800071b4:	333335b7          	lui	a1,0x33333
    800071b8:	33358593          	addi	a1,a1,819 # 33333333 <absimmsh+0x27862586>
    800071bc:	00b59593          	slli	a1,a1,0xb
    800071c0:	19958593          	addi	a1,a1,409
    800071c4:	00b59593          	slli	a1,a1,0xb
    800071c8:	4cc58593          	addi	a1,a1,1228
    800071cc:	00a59593          	slli	a1,a1,0xa
    800071d0:	33258593          	addi	a1,a1,818
    800071d4:	00b5063b          	addw	a2,a0,a1
    800071d8:	64c3b823          	sd	a2,1616(t2)
    800071dc:	9999a0b7          	lui	ra,0x9999a
    800071e0:	9970809b          	addiw	ra,ra,-1641 # ffffffff99999997 <absimm+0xfffffffedec8bec7>
    800071e4:	00c08463          	beq	ra,a2,800071ec <inst_478>
    800071e8:	e3df806f          	j	80000024 <rvtest_error>

00000000800071ec <inst_478>:
    800071ec:	66666537          	lui	a0,0x66666
    800071f0:	66650513          	addi	a0,a0,1638 # 66666666 <absimmsh+0x5ab958b9>
    800071f4:	00b51513          	slli	a0,a0,0xb
    800071f8:	33350513          	addi	a0,a0,819
    800071fc:	00b51513          	slli	a0,a0,0xb
    80007200:	19950513          	addi	a0,a0,409
    80007204:	00a51513          	slli	a0,a0,0xa
    80007208:	26550513          	addi	a0,a0,613
    8000720c:	666665b7          	lui	a1,0x66666
    80007210:	66658593          	addi	a1,a1,1638 # 66666666 <absimmsh+0x5ab958b9>
    80007214:	00b59593          	slli	a1,a1,0xb
    80007218:	33358593          	addi	a1,a1,819
    8000721c:	00b59593          	slli	a1,a1,0xb
    80007220:	19958593          	addi	a1,a1,409
    80007224:	00a59593          	slli	a1,a1,0xa
    80007228:	26558593          	addi	a1,a1,613
    8000722c:	00b5063b          	addw	a2,a0,a1
    80007230:	64c3bc23          	sd	a2,1624(t2)
    80007234:	ccccd0b7          	lui	ra,0xccccd
    80007238:	cca0809b          	addiw	ra,ra,-822 # ffffffffccccccca <absimm+0xffffffff11fbf1fa>
    8000723c:	00c08463          	beq	ra,a2,80007244 <inst_479>
    80007240:	de5f806f          	j	80000024 <rvtest_error>

0000000080007244 <inst_479>:
    80007244:	66666537          	lui	a0,0x66666
    80007248:	66650513          	addi	a0,a0,1638 # 66666666 <absimmsh+0x5ab958b9>
    8000724c:	00b51513          	slli	a0,a0,0xb
    80007250:	33350513          	addi	a0,a0,819
    80007254:	00b51513          	slli	a0,a0,0xb
    80007258:	19950513          	addi	a0,a0,409
    8000725c:	00a51513          	slli	a0,a0,0xa
    80007260:	26550513          	addi	a0,a0,613
    80007264:	000005b7          	lui	a1,0x0
    80007268:	00058593          	mv	a1,a1
    8000726c:	00b59593          	slli	a1,a1,0xb
    80007270:	5a858593          	addi	a1,a1,1448 # 5a8 <offset+0x110>
    80007274:	00b59593          	slli	a1,a1,0xb
    80007278:	13c58593          	addi	a1,a1,316
    8000727c:	00a59593          	slli	a1,a1,0xa
    80007280:	33258593          	addi	a1,a1,818
    80007284:	00b5063b          	addw	a2,a0,a1
    80007288:	66c3b023          	sd	a2,1632(t2)
    8000728c:	1b6b60b7          	lui	ra,0x1b6b6
    80007290:	9970809b          	addiw	ra,ra,-1641 # 1b6b5997 <absimmsh+0xfbe4bea>
    80007294:	00c08463          	beq	ra,a2,8000729c <inst_480>
    80007298:	d8df806f          	j	80000024 <rvtest_error>

000000008000729c <inst_480>:
    8000729c:	66666537          	lui	a0,0x66666
    800072a0:	66650513          	addi	a0,a0,1638 # 66666666 <absimmsh+0x5ab958b9>
    800072a4:	00b51513          	slli	a0,a0,0xb
    800072a8:	33350513          	addi	a0,a0,819
    800072ac:	00b51513          	slli	a0,a0,0xb
    800072b0:	19950513          	addi	a0,a0,409
    800072b4:	00a51513          	slli	a0,a0,0xa
    800072b8:	26550513          	addi	a0,a0,613
    800072bc:	555555b7          	lui	a1,0x55555
    800072c0:	55558593          	addi	a1,a1,1365 # 55555555 <absimmsh+0x49a847a8>
    800072c4:	00b59593          	slli	a1,a1,0xb
    800072c8:	2aa58593          	addi	a1,a1,682
    800072cc:	00b59593          	slli	a1,a1,0xb
    800072d0:	55558593          	addi	a1,a1,1365
    800072d4:	00a59593          	slli	a1,a1,0xa
    800072d8:	15658593          	addi	a1,a1,342
    800072dc:	00b5063b          	addw	a2,a0,a1
    800072e0:	66c3b423          	sd	a2,1640(t2)
    800072e4:	bbbbc0b7          	lui	ra,0xbbbbc
    800072e8:	bbb0809b          	addiw	ra,ra,-1093 # ffffffffbbbbbbbb <absimm+0xffffffff00eae0eb>
    800072ec:	00c08463          	beq	ra,a2,800072f4 <inst_481>
    800072f0:	d35f806f          	j	80000024 <rvtest_error>

00000000800072f4 <inst_481>:
    800072f4:	66666537          	lui	a0,0x66666
    800072f8:	66650513          	addi	a0,a0,1638 # 66666666 <absimmsh+0x5ab958b9>
    800072fc:	00b51513          	slli	a0,a0,0xb
    80007300:	33350513          	addi	a0,a0,819
    80007304:	00b51513          	slli	a0,a0,0xb
    80007308:	19950513          	addi	a0,a0,409
    8000730c:	00a51513          	slli	a0,a0,0xa
    80007310:	26550513          	addi	a0,a0,613
    80007314:	aaaab5b7          	lui	a1,0xaaaab
    80007318:	aaa58593          	addi	a1,a1,-1366 # ffffffffaaaaaaaa <absimm+0xfffffffeefd9cfda>
    8000731c:	00b59593          	slli	a1,a1,0xb
    80007320:	55558593          	addi	a1,a1,1365
    80007324:	00b59593          	slli	a1,a1,0xb
    80007328:	2aa58593          	addi	a1,a1,682
    8000732c:	00a59593          	slli	a1,a1,0xa
    80007330:	2ab58593          	addi	a1,a1,683
    80007334:	00b5063b          	addw	a2,a0,a1
    80007338:	66c3b823          	sd	a2,1648(t2)
    8000733c:	111110b7          	lui	ra,0x11111
    80007340:	1100809b          	addiw	ra,ra,272 # 11111110 <absimmsh+0x5640363>
    80007344:	00c08463          	beq	ra,a2,8000734c <inst_482>
    80007348:	cddf806f          	j	80000024 <rvtest_error>

000000008000734c <inst_482>:
    8000734c:	66666537          	lui	a0,0x66666
    80007350:	66650513          	addi	a0,a0,1638 # 66666666 <absimmsh+0x5ab958b9>
    80007354:	00b51513          	slli	a0,a0,0xb
    80007358:	33350513          	addi	a0,a0,819
    8000735c:	00b51513          	slli	a0,a0,0xb
    80007360:	19950513          	addi	a0,a0,409
    80007364:	00a51513          	slli	a0,a0,0xa
    80007368:	26550513          	addi	a0,a0,613
    8000736c:	00600593          	li	a1,6
    80007370:	00b5063b          	addw	a2,a0,a1
    80007374:	66c3bc23          	sd	a2,1656(t2)
    80007378:	666660b7          	lui	ra,0x66666
    8000737c:	66b0809b          	addiw	ra,ra,1643 # 6666666b <absimmsh+0x5ab958be>
    80007380:	00c08463          	beq	ra,a2,80007388 <inst_483>
    80007384:	ca1f806f          	j	80000024 <rvtest_error>

0000000080007388 <inst_483>:
    80007388:	66666537          	lui	a0,0x66666
    8000738c:	66650513          	addi	a0,a0,1638 # 66666666 <absimmsh+0x5ab958b9>
    80007390:	00b51513          	slli	a0,a0,0xb
    80007394:	33350513          	addi	a0,a0,819
    80007398:	00b51513          	slli	a0,a0,0xb
    8000739c:	19950513          	addi	a0,a0,409
    800073a0:	00a51513          	slli	a0,a0,0xa
    800073a4:	26550513          	addi	a0,a0,613
    800073a8:	333335b7          	lui	a1,0x33333
    800073ac:	33358593          	addi	a1,a1,819 # 33333333 <absimmsh+0x27862586>
    800073b0:	00b59593          	slli	a1,a1,0xb
    800073b4:	19958593          	addi	a1,a1,409
    800073b8:	00b59593          	slli	a1,a1,0xb
    800073bc:	4cc58593          	addi	a1,a1,1228
    800073c0:	00a59593          	slli	a1,a1,0xa
    800073c4:	33458593          	addi	a1,a1,820
    800073c8:	00b5063b          	addw	a2,a0,a1
    800073cc:	68c3b023          	sd	a2,1664(t2)
    800073d0:	9999a0b7          	lui	ra,0x9999a
    800073d4:	9990809b          	addiw	ra,ra,-1639 # ffffffff99999999 <absimm+0xfffffffedec8bec9>
    800073d8:	00c08463          	beq	ra,a2,800073e0 <inst_484>
    800073dc:	c49f806f          	j	80000024 <rvtest_error>

00000000800073e0 <inst_484>:
    800073e0:	66666537          	lui	a0,0x66666
    800073e4:	66650513          	addi	a0,a0,1638 # 66666666 <absimmsh+0x5ab958b9>
    800073e8:	00b51513          	slli	a0,a0,0xb
    800073ec:	33350513          	addi	a0,a0,819
    800073f0:	00b51513          	slli	a0,a0,0xb
    800073f4:	19950513          	addi	a0,a0,409
    800073f8:	00a51513          	slli	a0,a0,0xa
    800073fc:	26550513          	addi	a0,a0,613
    80007400:	666665b7          	lui	a1,0x66666
    80007404:	66658593          	addi	a1,a1,1638 # 66666666 <absimmsh+0x5ab958b9>
    80007408:	00b59593          	slli	a1,a1,0xb
    8000740c:	33358593          	addi	a1,a1,819
    80007410:	00b59593          	slli	a1,a1,0xb
    80007414:	19958593          	addi	a1,a1,409
    80007418:	00a59593          	slli	a1,a1,0xa
    8000741c:	26758593          	addi	a1,a1,615
    80007420:	00b5063b          	addw	a2,a0,a1
    80007424:	68c3b423          	sd	a2,1672(t2)
    80007428:	ccccd0b7          	lui	ra,0xccccd
    8000742c:	ccc0809b          	addiw	ra,ra,-820 # ffffffffcccccccc <absimm+0xffffffff11fbf1fc>
    80007430:	00c08463          	beq	ra,a2,80007438 <inst_485>
    80007434:	bf1f806f          	j	80000024 <rvtest_error>

0000000080007438 <inst_485>:
    80007438:	66666537          	lui	a0,0x66666
    8000743c:	66650513          	addi	a0,a0,1638 # 66666666 <absimmsh+0x5ab958b9>
    80007440:	00b51513          	slli	a0,a0,0xb
    80007444:	33350513          	addi	a0,a0,819
    80007448:	00b51513          	slli	a0,a0,0xb
    8000744c:	19950513          	addi	a0,a0,409
    80007450:	00a51513          	slli	a0,a0,0xa
    80007454:	26550513          	addi	a0,a0,613
    80007458:	000005b7          	lui	a1,0x0
    8000745c:	fff58593          	addi	a1,a1,-1
    80007460:	00b59593          	slli	a1,a1,0xb
    80007464:	25758593          	addi	a1,a1,599
    80007468:	00b59593          	slli	a1,a1,0xb
    8000746c:	6c358593          	addi	a1,a1,1731
    80007470:	00a59593          	slli	a1,a1,0xa
    80007474:	0ce58593          	addi	a1,a1,206
    80007478:	00b5063b          	addw	a2,a0,a1
    8000747c:	68c3b823          	sd	a2,1680(t2)
    80007480:	b16170b7          	lui	ra,0xb1617
    80007484:	3330809b          	addiw	ra,ra,819 # ffffffffb1617333 <absimm+0xfffffffef6909863>
    80007488:	00c08463          	beq	ra,a2,80007490 <inst_486>
    8000748c:	b99f806f          	j	80000024 <rvtest_error>

0000000080007490 <inst_486>:
    80007490:	66666537          	lui	a0,0x66666
    80007494:	66650513          	addi	a0,a0,1638 # 66666666 <absimmsh+0x5ab958b9>
    80007498:	00b51513          	slli	a0,a0,0xb
    8000749c:	33350513          	addi	a0,a0,819
    800074a0:	00b51513          	slli	a0,a0,0xb
    800074a4:	19950513          	addi	a0,a0,409
    800074a8:	00a51513          	slli	a0,a0,0xa
    800074ac:	26550513          	addi	a0,a0,613
    800074b0:	000005b7          	lui	a1,0x0
    800074b4:	00058593          	mv	a1,a1
    800074b8:	00b59593          	slli	a1,a1,0xb
    800074bc:	5a858593          	addi	a1,a1,1448 # 5a8 <offset+0x110>
    800074c0:	00b59593          	slli	a1,a1,0xb
    800074c4:	13c58593          	addi	a1,a1,316
    800074c8:	00a59593          	slli	a1,a1,0xa
    800074cc:	33458593          	addi	a1,a1,820
    800074d0:	00b5063b          	addw	a2,a0,a1
    800074d4:	68c3bc23          	sd	a2,1688(t2)
    800074d8:	1b6b60b7          	lui	ra,0x1b6b6
    800074dc:	9990809b          	addiw	ra,ra,-1639 # 1b6b5999 <absimmsh+0xfbe4bec>
    800074e0:	00c08463          	beq	ra,a2,800074e8 <inst_487>
    800074e4:	b41f806f          	j	80000024 <rvtest_error>

00000000800074e8 <inst_487>:
    800074e8:	00000537          	lui	a0,0x0
    800074ec:	00050513          	mv	a0,a0
    800074f0:	00b51513          	slli	a0,a0,0xb
    800074f4:	5a850513          	addi	a0,a0,1448 # 5a8 <offset+0x110>
    800074f8:	00b51513          	slli	a0,a0,0xb
    800074fc:	13c50513          	addi	a0,a0,316
    80007500:	00a51513          	slli	a0,a0,0xa
    80007504:	33250513          	addi	a0,a0,818
    80007508:	00300593          	li	a1,3
    8000750c:	00b5063b          	addw	a2,a0,a1
    80007510:	6ac3b023          	sd	a2,1696(t2)
    80007514:	b504f0b7          	lui	ra,0xb504f
    80007518:	3350809b          	addiw	ra,ra,821 # ffffffffb504f335 <absimm+0xfffffffefa341865>
    8000751c:	00c08463          	beq	ra,a2,80007524 <inst_488>
    80007520:	b05f806f          	j	80000024 <rvtest_error>

0000000080007524 <inst_488>:
    80007524:	00000537          	lui	a0,0x0
    80007528:	00050513          	mv	a0,a0
    8000752c:	00b51513          	slli	a0,a0,0xb
    80007530:	5a850513          	addi	a0,a0,1448 # 5a8 <offset+0x110>
    80007534:	00b51513          	slli	a0,a0,0xb
    80007538:	13c50513          	addi	a0,a0,316
    8000753c:	00a51513          	slli	a0,a0,0xa
    80007540:	33250513          	addi	a0,a0,818
    80007544:	555555b7          	lui	a1,0x55555
    80007548:	55558593          	addi	a1,a1,1365 # 55555555 <absimmsh+0x49a847a8>
    8000754c:	00b59593          	slli	a1,a1,0xb
    80007550:	2aa58593          	addi	a1,a1,682
    80007554:	00b59593          	slli	a1,a1,0xb
    80007558:	55558593          	addi	a1,a1,1365
    8000755c:	00a59593          	slli	a1,a1,0xa
    80007560:	15558593          	addi	a1,a1,341
    80007564:	00b5063b          	addw	a2,a0,a1
    80007568:	6ac3b423          	sd	a2,1704(t2)
    8000756c:	0a5a50b7          	lui	ra,0xa5a5
    80007570:	8870809b          	addiw	ra,ra,-1913 # a5a4887 <offset+0xa5a43ef>
    80007574:	00c08463          	beq	ra,a2,8000757c <inst_489>
    80007578:	aadf806f          	j	80000024 <rvtest_error>

000000008000757c <inst_489>:
    8000757c:	00000537          	lui	a0,0x0
    80007580:	00050513          	mv	a0,a0
    80007584:	00b51513          	slli	a0,a0,0xb
    80007588:	5a850513          	addi	a0,a0,1448 # 5a8 <offset+0x110>
    8000758c:	00b51513          	slli	a0,a0,0xb
    80007590:	13c50513          	addi	a0,a0,316
    80007594:	00a51513          	slli	a0,a0,0xa
    80007598:	33250513          	addi	a0,a0,818
    8000759c:	aaaab5b7          	lui	a1,0xaaaab
    800075a0:	aaa58593          	addi	a1,a1,-1366 # ffffffffaaaaaaaa <absimm+0xfffffffeefd9cfda>
    800075a4:	00b59593          	slli	a1,a1,0xb
    800075a8:	55558593          	addi	a1,a1,1365
    800075ac:	00b59593          	slli	a1,a1,0xb
    800075b0:	2aa58593          	addi	a1,a1,682
    800075b4:	00a59593          	slli	a1,a1,0xa
    800075b8:	2aa58593          	addi	a1,a1,682
    800075bc:	00b5063b          	addw	a2,a0,a1
    800075c0:	6ac3b823          	sd	a2,1712(t2)
    800075c4:	5fafa0b7          	lui	ra,0x5fafa
    800075c8:	ddc0809b          	addiw	ra,ra,-548 # 5faf9ddc <absimmsh+0x5402902f>
    800075cc:	00c08463          	beq	ra,a2,800075d4 <inst_490>
    800075d0:	a55f806f          	j	80000024 <rvtest_error>

00000000800075d4 <inst_490>:
    800075d4:	00000537          	lui	a0,0x0
    800075d8:	00050513          	mv	a0,a0
    800075dc:	00b51513          	slli	a0,a0,0xb
    800075e0:	5a850513          	addi	a0,a0,1448 # 5a8 <offset+0x110>
    800075e4:	00b51513          	slli	a0,a0,0xb
    800075e8:	13c50513          	addi	a0,a0,316
    800075ec:	00a51513          	slli	a0,a0,0xa
    800075f0:	33250513          	addi	a0,a0,818
    800075f4:	00500593          	li	a1,5
    800075f8:	00b5063b          	addw	a2,a0,a1
    800075fc:	6ac3bc23          	sd	a2,1720(t2)
    80007600:	b504f0b7          	lui	ra,0xb504f
    80007604:	3370809b          	addiw	ra,ra,823 # ffffffffb504f337 <absimm+0xfffffffefa341867>
    80007608:	00c08463          	beq	ra,a2,80007610 <inst_491>
    8000760c:	a19f806f          	j	80000024 <rvtest_error>

0000000080007610 <inst_491>:
    80007610:	00000537          	lui	a0,0x0
    80007614:	00050513          	mv	a0,a0
    80007618:	00b51513          	slli	a0,a0,0xb
    8000761c:	5a850513          	addi	a0,a0,1448 # 5a8 <offset+0x110>
    80007620:	00b51513          	slli	a0,a0,0xb
    80007624:	13c50513          	addi	a0,a0,316
    80007628:	00a51513          	slli	a0,a0,0xa
    8000762c:	33250513          	addi	a0,a0,818
    80007630:	333335b7          	lui	a1,0x33333
    80007634:	33358593          	addi	a1,a1,819 # 33333333 <absimmsh+0x27862586>
    80007638:	00b59593          	slli	a1,a1,0xb
    8000763c:	19958593          	addi	a1,a1,409
    80007640:	00b59593          	slli	a1,a1,0xb
    80007644:	4cc58593          	addi	a1,a1,1228
    80007648:	00a59593          	slli	a1,a1,0xa
    8000764c:	33358593          	addi	a1,a1,819
    80007650:	00b5063b          	addw	a2,a0,a1
    80007654:	6cc3b023          	sd	a2,1728(t2)
    80007658:	e83820b7          	lui	ra,0xe8382
    8000765c:	6650809b          	addiw	ra,ra,1637 # ffffffffe8382665 <absimm+0xffffffff2d674b95>
    80007660:	00c08463          	beq	ra,a2,80007668 <inst_492>
    80007664:	9c1f806f          	j	80000024 <rvtest_error>

0000000080007668 <inst_492>:
    80007668:	00000537          	lui	a0,0x0
    8000766c:	00050513          	mv	a0,a0
    80007670:	00b51513          	slli	a0,a0,0xb
    80007674:	5a850513          	addi	a0,a0,1448 # 5a8 <offset+0x110>
    80007678:	00b51513          	slli	a0,a0,0xb
    8000767c:	13c50513          	addi	a0,a0,316
    80007680:	00a51513          	slli	a0,a0,0xa
    80007684:	33250513          	addi	a0,a0,818
    80007688:	666665b7          	lui	a1,0x66666
    8000768c:	66658593          	addi	a1,a1,1638 # 66666666 <absimmsh+0x5ab958b9>
    80007690:	00b59593          	slli	a1,a1,0xb
    80007694:	33358593          	addi	a1,a1,819
    80007698:	00b59593          	slli	a1,a1,0xb
    8000769c:	19958593          	addi	a1,a1,409
    800076a0:	00a59593          	slli	a1,a1,0xa
    800076a4:	26658593          	addi	a1,a1,614
    800076a8:	00b5063b          	addw	a2,a0,a1
    800076ac:	6cc3b423          	sd	a2,1736(t2)
    800076b0:	1b6b60b7          	lui	ra,0x1b6b6
    800076b4:	9980809b          	addiw	ra,ra,-1640 # 1b6b5998 <absimmsh+0xfbe4beb>
    800076b8:	00c08463          	beq	ra,a2,800076c0 <inst_493>
    800076bc:	969f806f          	j	80000024 <rvtest_error>

00000000800076c0 <inst_493>:
    800076c0:	00000537          	lui	a0,0x0
    800076c4:	00050513          	mv	a0,a0
    800076c8:	00b51513          	slli	a0,a0,0xb
    800076cc:	5a850513          	addi	a0,a0,1448 # 5a8 <offset+0x110>
    800076d0:	00b51513          	slli	a0,a0,0xb
    800076d4:	13c50513          	addi	a0,a0,316
    800076d8:	00a51513          	slli	a0,a0,0xa
    800076dc:	33250513          	addi	a0,a0,818
    800076e0:	000005b7          	lui	a1,0x0
    800076e4:	fff58593          	addi	a1,a1,-1
    800076e8:	00b59593          	slli	a1,a1,0xb
    800076ec:	25758593          	addi	a1,a1,599
    800076f0:	00b59593          	slli	a1,a1,0xb
    800076f4:	6c358593          	addi	a1,a1,1731
    800076f8:	00a59593          	slli	a1,a1,0xa
    800076fc:	0cd58593          	addi	a1,a1,205
    80007700:	00b5063b          	addw	a2,a0,a1
    80007704:	6cc3b823          	sd	a2,1744(t2)
    80007708:	fff00093          	li	ra,-1
    8000770c:	00c08463          	beq	ra,a2,80007714 <inst_494>
    80007710:	915f806f          	j	80000024 <rvtest_error>

0000000080007714 <inst_494>:
    80007714:	00000537          	lui	a0,0x0
    80007718:	00050513          	mv	a0,a0
    8000771c:	00b51513          	slli	a0,a0,0xb
    80007720:	5a850513          	addi	a0,a0,1448 # 5a8 <offset+0x110>
    80007724:	00b51513          	slli	a0,a0,0xb
    80007728:	13c50513          	addi	a0,a0,316
    8000772c:	00a51513          	slli	a0,a0,0xa
    80007730:	33250513          	addi	a0,a0,818
    80007734:	000005b7          	lui	a1,0x0
    80007738:	00058593          	mv	a1,a1
    8000773c:	00b59593          	slli	a1,a1,0xb
    80007740:	5a858593          	addi	a1,a1,1448 # 5a8 <offset+0x110>
    80007744:	00b59593          	slli	a1,a1,0xb
    80007748:	13c58593          	addi	a1,a1,316
    8000774c:	00a59593          	slli	a1,a1,0xa
    80007750:	33358593          	addi	a1,a1,819
    80007754:	00b5063b          	addw	a2,a0,a1
    80007758:	6cc3bc23          	sd	a2,1752(t2)
    8000775c:	6a09e0b7          	lui	ra,0x6a09e
    80007760:	6650809b          	addiw	ra,ra,1637 # 6a09e665 <absimmsh+0x5e5cd8b8>
    80007764:	00c08463          	beq	ra,a2,8000776c <inst_495>
    80007768:	8bdf806f          	j	80000024 <rvtest_error>

000000008000776c <inst_495>:
    8000776c:	00000537          	lui	a0,0x0
    80007770:	00050513          	mv	a0,a0
    80007774:	00b51513          	slli	a0,a0,0xb
    80007778:	5a850513          	addi	a0,a0,1448 # 5a8 <offset+0x110>
    8000777c:	00b51513          	slli	a0,a0,0xb
    80007780:	13c50513          	addi	a0,a0,316
    80007784:	00a51513          	slli	a0,a0,0xa
    80007788:	33250513          	addi	a0,a0,818
    8000778c:	00200593          	li	a1,2
    80007790:	00b5063b          	addw	a2,a0,a1
    80007794:	6ec3b023          	sd	a2,1760(t2)
    80007798:	b504f0b7          	lui	ra,0xb504f
    8000779c:	3340809b          	addiw	ra,ra,820 # ffffffffb504f334 <absimm+0xfffffffefa341864>
    800077a0:	00c08463          	beq	ra,a2,800077a8 <inst_496>
    800077a4:	881f806f          	j	80000024 <rvtest_error>

00000000800077a8 <inst_496>:
    800077a8:	00000537          	lui	a0,0x0
    800077ac:	00050513          	mv	a0,a0
    800077b0:	00b51513          	slli	a0,a0,0xb
    800077b4:	5a850513          	addi	a0,a0,1448 # 5a8 <offset+0x110>
    800077b8:	00b51513          	slli	a0,a0,0xb
    800077bc:	13c50513          	addi	a0,a0,316
    800077c0:	00a51513          	slli	a0,a0,0xa
    800077c4:	33250513          	addi	a0,a0,818
    800077c8:	555555b7          	lui	a1,0x55555
    800077cc:	55558593          	addi	a1,a1,1365 # 55555555 <absimmsh+0x49a847a8>
    800077d0:	00b59593          	slli	a1,a1,0xb
    800077d4:	2aa58593          	addi	a1,a1,682
    800077d8:	00b59593          	slli	a1,a1,0xb
    800077dc:	55558593          	addi	a1,a1,1365
    800077e0:	00a59593          	slli	a1,a1,0xa
    800077e4:	15458593          	addi	a1,a1,340
    800077e8:	00b5063b          	addw	a2,a0,a1
    800077ec:	6ec3b423          	sd	a2,1768(t2)
    800077f0:	0a5a50b7          	lui	ra,0xa5a5
    800077f4:	8860809b          	addiw	ra,ra,-1914 # a5a4886 <offset+0xa5a43ee>
    800077f8:	00c08463          	beq	ra,a2,80007800 <inst_497>
    800077fc:	829f806f          	j	80000024 <rvtest_error>

0000000080007800 <inst_497>:
    80007800:	00000537          	lui	a0,0x0
    80007804:	00050513          	mv	a0,a0
    80007808:	00b51513          	slli	a0,a0,0xb
    8000780c:	5a850513          	addi	a0,a0,1448 # 5a8 <offset+0x110>
    80007810:	00b51513          	slli	a0,a0,0xb
    80007814:	13c50513          	addi	a0,a0,316
    80007818:	00a51513          	slli	a0,a0,0xa
    8000781c:	33250513          	addi	a0,a0,818
    80007820:	00000593          	li	a1,0
    80007824:	00b5063b          	addw	a2,a0,a1
    80007828:	6ec3b823          	sd	a2,1776(t2)
    8000782c:	b504f0b7          	lui	ra,0xb504f
    80007830:	3320809b          	addiw	ra,ra,818 # ffffffffb504f332 <absimm+0xfffffffefa341862>
    80007834:	00c08463          	beq	ra,a2,8000783c <inst_498>
    80007838:	fecf806f          	j	80000024 <rvtest_error>

000000008000783c <inst_498>:
    8000783c:	00000537          	lui	a0,0x0
    80007840:	00050513          	mv	a0,a0
    80007844:	00b51513          	slli	a0,a0,0xb
    80007848:	5a850513          	addi	a0,a0,1448 # 5a8 <offset+0x110>
    8000784c:	00b51513          	slli	a0,a0,0xb
    80007850:	13c50513          	addi	a0,a0,316
    80007854:	00a51513          	slli	a0,a0,0xa
    80007858:	33250513          	addi	a0,a0,818
    8000785c:	00400593          	li	a1,4
    80007860:	00b5063b          	addw	a2,a0,a1
    80007864:	6ec3bc23          	sd	a2,1784(t2)
    80007868:	b504f0b7          	lui	ra,0xb504f
    8000786c:	3360809b          	addiw	ra,ra,822 # ffffffffb504f336 <absimm+0xfffffffefa341866>
    80007870:	00c08463          	beq	ra,a2,80007878 <inst_499>
    80007874:	fb0f806f          	j	80000024 <rvtest_error>

0000000080007878 <inst_499>:
    80007878:	00000537          	lui	a0,0x0
    8000787c:	00050513          	mv	a0,a0
    80007880:	00b51513          	slli	a0,a0,0xb
    80007884:	5a850513          	addi	a0,a0,1448 # 5a8 <offset+0x110>
    80007888:	00b51513          	slli	a0,a0,0xb
    8000788c:	13c50513          	addi	a0,a0,316
    80007890:	00a51513          	slli	a0,a0,0xa
    80007894:	33250513          	addi	a0,a0,818
    80007898:	333335b7          	lui	a1,0x33333
    8000789c:	33358593          	addi	a1,a1,819 # 33333333 <absimmsh+0x27862586>
    800078a0:	00b59593          	slli	a1,a1,0xb
    800078a4:	19958593          	addi	a1,a1,409
    800078a8:	00b59593          	slli	a1,a1,0xb
    800078ac:	4cc58593          	addi	a1,a1,1228
    800078b0:	00a59593          	slli	a1,a1,0xa
    800078b4:	33258593          	addi	a1,a1,818
    800078b8:	00b5063b          	addw	a2,a0,a1
    800078bc:	70c3b023          	sd	a2,1792(t2)
    800078c0:	e83820b7          	lui	ra,0xe8382
    800078c4:	6640809b          	addiw	ra,ra,1636 # ffffffffe8382664 <absimm+0xffffffff2d674b94>
    800078c8:	00c08463          	beq	ra,a2,800078d0 <inst_500>
    800078cc:	f58f806f          	j	80000024 <rvtest_error>

00000000800078d0 <inst_500>:
    800078d0:	00000537          	lui	a0,0x0
    800078d4:	00050513          	mv	a0,a0
    800078d8:	00b51513          	slli	a0,a0,0xb
    800078dc:	5a850513          	addi	a0,a0,1448 # 5a8 <offset+0x110>
    800078e0:	00b51513          	slli	a0,a0,0xb
    800078e4:	13c50513          	addi	a0,a0,316
    800078e8:	00a51513          	slli	a0,a0,0xa
    800078ec:	33250513          	addi	a0,a0,818
    800078f0:	666665b7          	lui	a1,0x66666
    800078f4:	66658593          	addi	a1,a1,1638 # 66666666 <absimmsh+0x5ab958b9>
    800078f8:	00b59593          	slli	a1,a1,0xb
    800078fc:	33358593          	addi	a1,a1,819
    80007900:	00b59593          	slli	a1,a1,0xb
    80007904:	19958593          	addi	a1,a1,409
    80007908:	00a59593          	slli	a1,a1,0xa
    8000790c:	26558593          	addi	a1,a1,613
    80007910:	00b5063b          	addw	a2,a0,a1
    80007914:	70c3b423          	sd	a2,1800(t2)
    80007918:	1b6b60b7          	lui	ra,0x1b6b6
    8000791c:	9970809b          	addiw	ra,ra,-1641 # 1b6b5997 <absimmsh+0xfbe4bea>
    80007920:	00c08463          	beq	ra,a2,80007928 <inst_501>
    80007924:	f00f806f          	j	80000024 <rvtest_error>

0000000080007928 <inst_501>:
    80007928:	00000537          	lui	a0,0x0
    8000792c:	00050513          	mv	a0,a0
    80007930:	00b51513          	slli	a0,a0,0xb
    80007934:	5a850513          	addi	a0,a0,1448 # 5a8 <offset+0x110>
    80007938:	00b51513          	slli	a0,a0,0xb
    8000793c:	13c50513          	addi	a0,a0,316
    80007940:	00a51513          	slli	a0,a0,0xa
    80007944:	33250513          	addi	a0,a0,818
    80007948:	000005b7          	lui	a1,0x0
    8000794c:	00058593          	mv	a1,a1
    80007950:	00b59593          	slli	a1,a1,0xb
    80007954:	5a858593          	addi	a1,a1,1448 # 5a8 <offset+0x110>
    80007958:	00b59593          	slli	a1,a1,0xb
    8000795c:	13c58593          	addi	a1,a1,316
    80007960:	00a59593          	slli	a1,a1,0xa
    80007964:	33258593          	addi	a1,a1,818
    80007968:	00b5063b          	addw	a2,a0,a1
    8000796c:	70c3b823          	sd	a2,1808(t2)
    80007970:	6a09e0b7          	lui	ra,0x6a09e
    80007974:	6640809b          	addiw	ra,ra,1636 # 6a09e664 <absimmsh+0x5e5cd8b7>
    80007978:	00c08463          	beq	ra,a2,80007980 <inst_502>
    8000797c:	ea8f806f          	j	80000024 <rvtest_error>

0000000080007980 <inst_502>:
    80007980:	00000537          	lui	a0,0x0
    80007984:	00050513          	mv	a0,a0
    80007988:	00b51513          	slli	a0,a0,0xb
    8000798c:	5a850513          	addi	a0,a0,1448 # 5a8 <offset+0x110>
    80007990:	00b51513          	slli	a0,a0,0xb
    80007994:	13c50513          	addi	a0,a0,316
    80007998:	00a51513          	slli	a0,a0,0xa
    8000799c:	33250513          	addi	a0,a0,818
    800079a0:	555555b7          	lui	a1,0x55555
    800079a4:	55558593          	addi	a1,a1,1365 # 55555555 <absimmsh+0x49a847a8>
    800079a8:	00b59593          	slli	a1,a1,0xb
    800079ac:	2aa58593          	addi	a1,a1,682
    800079b0:	00b59593          	slli	a1,a1,0xb
    800079b4:	55558593          	addi	a1,a1,1365
    800079b8:	00a59593          	slli	a1,a1,0xa
    800079bc:	15658593          	addi	a1,a1,342
    800079c0:	00b5063b          	addw	a2,a0,a1
    800079c4:	70c3bc23          	sd	a2,1816(t2)
    800079c8:	0a5a50b7          	lui	ra,0xa5a5
    800079cc:	8880809b          	addiw	ra,ra,-1912 # a5a4888 <offset+0xa5a43f0>
    800079d0:	00c08463          	beq	ra,a2,800079d8 <inst_503>
    800079d4:	e50f806f          	j	80000024 <rvtest_error>

00000000800079d8 <inst_503>:
    800079d8:	00000537          	lui	a0,0x0
    800079dc:	00050513          	mv	a0,a0
    800079e0:	00b51513          	slli	a0,a0,0xb
    800079e4:	5a850513          	addi	a0,a0,1448 # 5a8 <offset+0x110>
    800079e8:	00b51513          	slli	a0,a0,0xb
    800079ec:	13c50513          	addi	a0,a0,316
    800079f0:	00a51513          	slli	a0,a0,0xa
    800079f4:	33250513          	addi	a0,a0,818
    800079f8:	aaaab5b7          	lui	a1,0xaaaab
    800079fc:	aaa58593          	addi	a1,a1,-1366 # ffffffffaaaaaaaa <absimm+0xfffffffeefd9cfda>
    80007a00:	00b59593          	slli	a1,a1,0xb
    80007a04:	55558593          	addi	a1,a1,1365
    80007a08:	00b59593          	slli	a1,a1,0xb
    80007a0c:	2aa58593          	addi	a1,a1,682
    80007a10:	00a59593          	slli	a1,a1,0xa
    80007a14:	2ab58593          	addi	a1,a1,683
    80007a18:	00b5063b          	addw	a2,a0,a1
    80007a1c:	72c3b023          	sd	a2,1824(t2)
    80007a20:	5fafa0b7          	lui	ra,0x5fafa
    80007a24:	ddd0809b          	addiw	ra,ra,-547 # 5faf9ddd <absimmsh+0x54029030>
    80007a28:	00c08463          	beq	ra,a2,80007a30 <inst_504>
    80007a2c:	df8f806f          	j	80000024 <rvtest_error>

0000000080007a30 <inst_504>:
    80007a30:	00000537          	lui	a0,0x0
    80007a34:	00050513          	mv	a0,a0
    80007a38:	00b51513          	slli	a0,a0,0xb
    80007a3c:	5a850513          	addi	a0,a0,1448 # 5a8 <offset+0x110>
    80007a40:	00b51513          	slli	a0,a0,0xb
    80007a44:	13c50513          	addi	a0,a0,316
    80007a48:	00a51513          	slli	a0,a0,0xa
    80007a4c:	33250513          	addi	a0,a0,818
    80007a50:	00600593          	li	a1,6
    80007a54:	00b5063b          	addw	a2,a0,a1
    80007a58:	72c3b423          	sd	a2,1832(t2)
    80007a5c:	b504f0b7          	lui	ra,0xb504f
    80007a60:	3380809b          	addiw	ra,ra,824 # ffffffffb504f338 <absimm+0xfffffffefa341868>
    80007a64:	00c08463          	beq	ra,a2,80007a6c <inst_505>
    80007a68:	dbcf806f          	j	80000024 <rvtest_error>

0000000080007a6c <inst_505>:
    80007a6c:	00000537          	lui	a0,0x0
    80007a70:	00050513          	mv	a0,a0
    80007a74:	00b51513          	slli	a0,a0,0xb
    80007a78:	5a850513          	addi	a0,a0,1448 # 5a8 <offset+0x110>
    80007a7c:	00b51513          	slli	a0,a0,0xb
    80007a80:	13c50513          	addi	a0,a0,316
    80007a84:	00a51513          	slli	a0,a0,0xa
    80007a88:	33250513          	addi	a0,a0,818
    80007a8c:	333335b7          	lui	a1,0x33333
    80007a90:	33358593          	addi	a1,a1,819 # 33333333 <absimmsh+0x27862586>
    80007a94:	00b59593          	slli	a1,a1,0xb
    80007a98:	19958593          	addi	a1,a1,409
    80007a9c:	00b59593          	slli	a1,a1,0xb
    80007aa0:	4cc58593          	addi	a1,a1,1228
    80007aa4:	00a59593          	slli	a1,a1,0xa
    80007aa8:	33458593          	addi	a1,a1,820
    80007aac:	00b5063b          	addw	a2,a0,a1
    80007ab0:	72c3b823          	sd	a2,1840(t2)
    80007ab4:	e83820b7          	lui	ra,0xe8382
    80007ab8:	6660809b          	addiw	ra,ra,1638 # ffffffffe8382666 <absimm+0xffffffff2d674b96>
    80007abc:	00c08463          	beq	ra,a2,80007ac4 <inst_506>
    80007ac0:	d64f806f          	j	80000024 <rvtest_error>

0000000080007ac4 <inst_506>:
    80007ac4:	00000537          	lui	a0,0x0
    80007ac8:	00050513          	mv	a0,a0
    80007acc:	00b51513          	slli	a0,a0,0xb
    80007ad0:	5a850513          	addi	a0,a0,1448 # 5a8 <offset+0x110>
    80007ad4:	00b51513          	slli	a0,a0,0xb
    80007ad8:	13c50513          	addi	a0,a0,316
    80007adc:	00a51513          	slli	a0,a0,0xa
    80007ae0:	33250513          	addi	a0,a0,818
    80007ae4:	666665b7          	lui	a1,0x66666
    80007ae8:	66658593          	addi	a1,a1,1638 # 66666666 <absimmsh+0x5ab958b9>
    80007aec:	00b59593          	slli	a1,a1,0xb
    80007af0:	33358593          	addi	a1,a1,819
    80007af4:	00b59593          	slli	a1,a1,0xb
    80007af8:	19958593          	addi	a1,a1,409
    80007afc:	00a59593          	slli	a1,a1,0xa
    80007b00:	26758593          	addi	a1,a1,615
    80007b04:	00b5063b          	addw	a2,a0,a1
    80007b08:	72c3bc23          	sd	a2,1848(t2)
    80007b0c:	1b6b60b7          	lui	ra,0x1b6b6
    80007b10:	9990809b          	addiw	ra,ra,-1639 # 1b6b5999 <absimmsh+0xfbe4bec>
    80007b14:	00c08463          	beq	ra,a2,80007b1c <inst_507>
    80007b18:	d0cf806f          	j	80000024 <rvtest_error>

0000000080007b1c <inst_507>:
    80007b1c:	00000537          	lui	a0,0x0
    80007b20:	00050513          	mv	a0,a0
    80007b24:	00b51513          	slli	a0,a0,0xb
    80007b28:	5a850513          	addi	a0,a0,1448 # 5a8 <offset+0x110>
    80007b2c:	00b51513          	slli	a0,a0,0xb
    80007b30:	13c50513          	addi	a0,a0,316
    80007b34:	00a51513          	slli	a0,a0,0xa
    80007b38:	33250513          	addi	a0,a0,818
    80007b3c:	000005b7          	lui	a1,0x0
    80007b40:	fff58593          	addi	a1,a1,-1
    80007b44:	00b59593          	slli	a1,a1,0xb
    80007b48:	25758593          	addi	a1,a1,599
    80007b4c:	00b59593          	slli	a1,a1,0xb
    80007b50:	6c358593          	addi	a1,a1,1731
    80007b54:	00a59593          	slli	a1,a1,0xa
    80007b58:	0ce58593          	addi	a1,a1,206
    80007b5c:	00b5063b          	addw	a2,a0,a1
    80007b60:	74c3b023          	sd	a2,1856(t2)
    80007b64:	00000093          	li	ra,0
    80007b68:	00c08463          	beq	ra,a2,80007b70 <inst_508>
    80007b6c:	cb8f806f          	j	80000024 <rvtest_error>

0000000080007b70 <inst_508>:
    80007b70:	00000537          	lui	a0,0x0
    80007b74:	00050513          	mv	a0,a0
    80007b78:	00b51513          	slli	a0,a0,0xb
    80007b7c:	5a850513          	addi	a0,a0,1448 # 5a8 <offset+0x110>
    80007b80:	00b51513          	slli	a0,a0,0xb
    80007b84:	13c50513          	addi	a0,a0,316
    80007b88:	00a51513          	slli	a0,a0,0xa
    80007b8c:	33250513          	addi	a0,a0,818
    80007b90:	000005b7          	lui	a1,0x0
    80007b94:	00058593          	mv	a1,a1
    80007b98:	00b59593          	slli	a1,a1,0xb
    80007b9c:	5a858593          	addi	a1,a1,1448 # 5a8 <offset+0x110>
    80007ba0:	00b59593          	slli	a1,a1,0xb
    80007ba4:	13c58593          	addi	a1,a1,316
    80007ba8:	00a59593          	slli	a1,a1,0xa
    80007bac:	33458593          	addi	a1,a1,820
    80007bb0:	00b5063b          	addw	a2,a0,a1
    80007bb4:	74c3b423          	sd	a2,1864(t2)
    80007bb8:	6a09e0b7          	lui	ra,0x6a09e
    80007bbc:	6660809b          	addiw	ra,ra,1638 # 6a09e666 <absimmsh+0x5e5cd8b9>
    80007bc0:	00c08463          	beq	ra,a2,80007bc8 <inst_509>
    80007bc4:	c60f806f          	j	80000024 <rvtest_error>

0000000080007bc8 <inst_509>:
    80007bc8:	55555537          	lui	a0,0x55555
    80007bcc:	55550513          	addi	a0,a0,1365 # 55555555 <absimmsh+0x49a847a8>
    80007bd0:	00b51513          	slli	a0,a0,0xb
    80007bd4:	2aa50513          	addi	a0,a0,682
    80007bd8:	00b51513          	slli	a0,a0,0xb
    80007bdc:	55550513          	addi	a0,a0,1365
    80007be0:	00a51513          	slli	a0,a0,0xa
    80007be4:	15650513          	addi	a0,a0,342
    80007be8:	00300593          	li	a1,3
    80007bec:	00b5063b          	addw	a2,a0,a1
    80007bf0:	74c3b823          	sd	a2,1872(t2)
    80007bf4:	555550b7          	lui	ra,0x55555
    80007bf8:	5590809b          	addiw	ra,ra,1369 # 55555559 <absimmsh+0x49a847ac>
    80007bfc:	00c08463          	beq	ra,a2,80007c04 <inst_510>
    80007c00:	c24f806f          	j	80000024 <rvtest_error>

0000000080007c04 <inst_510>:
    80007c04:	55555537          	lui	a0,0x55555
    80007c08:	55550513          	addi	a0,a0,1365 # 55555555 <absimmsh+0x49a847a8>
    80007c0c:	00b51513          	slli	a0,a0,0xb
    80007c10:	2aa50513          	addi	a0,a0,682
    80007c14:	00b51513          	slli	a0,a0,0xb
    80007c18:	55550513          	addi	a0,a0,1365
    80007c1c:	00a51513          	slli	a0,a0,0xa
    80007c20:	15650513          	addi	a0,a0,342
    80007c24:	555555b7          	lui	a1,0x55555
    80007c28:	55558593          	addi	a1,a1,1365 # 55555555 <absimmsh+0x49a847a8>
    80007c2c:	00b59593          	slli	a1,a1,0xb
    80007c30:	2aa58593          	addi	a1,a1,682
    80007c34:	00b59593          	slli	a1,a1,0xb
    80007c38:	55558593          	addi	a1,a1,1365
    80007c3c:	00a59593          	slli	a1,a1,0xa
    80007c40:	15558593          	addi	a1,a1,341
    80007c44:	00b5063b          	addw	a2,a0,a1
    80007c48:	74c3bc23          	sd	a2,1880(t2)
    80007c4c:	aaaab0b7          	lui	ra,0xaaaab
    80007c50:	aab0809b          	addiw	ra,ra,-1365 # ffffffffaaaaaaab <absimm+0xfffffffeefd9cfdb>
    80007c54:	00c08463          	beq	ra,a2,80007c5c <inst_511>
    80007c58:	bccf806f          	j	80000024 <rvtest_error>

0000000080007c5c <inst_511>:
    80007c5c:	55555537          	lui	a0,0x55555
    80007c60:	55550513          	addi	a0,a0,1365 # 55555555 <absimmsh+0x49a847a8>
    80007c64:	00b51513          	slli	a0,a0,0xb
    80007c68:	2aa50513          	addi	a0,a0,682
    80007c6c:	00b51513          	slli	a0,a0,0xb
    80007c70:	55550513          	addi	a0,a0,1365
    80007c74:	00a51513          	slli	a0,a0,0xa
    80007c78:	15650513          	addi	a0,a0,342
    80007c7c:	aaaab5b7          	lui	a1,0xaaaab
    80007c80:	aaa58593          	addi	a1,a1,-1366 # ffffffffaaaaaaaa <absimm+0xfffffffeefd9cfda>
    80007c84:	00b59593          	slli	a1,a1,0xb
    80007c88:	55558593          	addi	a1,a1,1365
    80007c8c:	00b59593          	slli	a1,a1,0xb
    80007c90:	2aa58593          	addi	a1,a1,682
    80007c94:	00a59593          	slli	a1,a1,0xa
    80007c98:	2aa58593          	addi	a1,a1,682
    80007c9c:	00b5063b          	addw	a2,a0,a1
    80007ca0:	76c3b023          	sd	a2,1888(t2)
    80007ca4:	00000093          	li	ra,0
    80007ca8:	00c08463          	beq	ra,a2,80007cb0 <inst_512>
    80007cac:	b78f806f          	j	80000024 <rvtest_error>

0000000080007cb0 <inst_512>:
    80007cb0:	55555537          	lui	a0,0x55555
    80007cb4:	55550513          	addi	a0,a0,1365 # 55555555 <absimmsh+0x49a847a8>
    80007cb8:	00b51513          	slli	a0,a0,0xb
    80007cbc:	2aa50513          	addi	a0,a0,682
    80007cc0:	00b51513          	slli	a0,a0,0xb
    80007cc4:	55550513          	addi	a0,a0,1365
    80007cc8:	00a51513          	slli	a0,a0,0xa
    80007ccc:	15650513          	addi	a0,a0,342
    80007cd0:	00500593          	li	a1,5
    80007cd4:	00b5063b          	addw	a2,a0,a1
    80007cd8:	76c3b423          	sd	a2,1896(t2)
    80007cdc:	555550b7          	lui	ra,0x55555
    80007ce0:	55b0809b          	addiw	ra,ra,1371 # 5555555b <absimmsh+0x49a847ae>
    80007ce4:	00c08463          	beq	ra,a2,80007cec <inst_513>
    80007ce8:	b3cf806f          	j	80000024 <rvtest_error>

0000000080007cec <inst_513>:
    80007cec:	55555537          	lui	a0,0x55555
    80007cf0:	55550513          	addi	a0,a0,1365 # 55555555 <absimmsh+0x49a847a8>
    80007cf4:	00b51513          	slli	a0,a0,0xb
    80007cf8:	2aa50513          	addi	a0,a0,682
    80007cfc:	00b51513          	slli	a0,a0,0xb
    80007d00:	55550513          	addi	a0,a0,1365
    80007d04:	00a51513          	slli	a0,a0,0xa
    80007d08:	15650513          	addi	a0,a0,342
    80007d0c:	333335b7          	lui	a1,0x33333
    80007d10:	33358593          	addi	a1,a1,819 # 33333333 <absimmsh+0x27862586>
    80007d14:	00b59593          	slli	a1,a1,0xb
    80007d18:	19958593          	addi	a1,a1,409
    80007d1c:	00b59593          	slli	a1,a1,0xb
    80007d20:	4cc58593          	addi	a1,a1,1228
    80007d24:	00a59593          	slli	a1,a1,0xa
    80007d28:	33358593          	addi	a1,a1,819
    80007d2c:	00b5063b          	addw	a2,a0,a1
    80007d30:	76c3b823          	sd	a2,1904(t2)
    80007d34:	888890b7          	lui	ra,0x88889
    80007d38:	8890809b          	addiw	ra,ra,-1911 # ffffffff88888889 <absimm+0xfffffffecdb7adb9>
    80007d3c:	00c08463          	beq	ra,a2,80007d44 <inst_514>
    80007d40:	ae4f806f          	j	80000024 <rvtest_error>

0000000080007d44 <inst_514>:
    80007d44:	55555537          	lui	a0,0x55555
    80007d48:	55550513          	addi	a0,a0,1365 # 55555555 <absimmsh+0x49a847a8>
    80007d4c:	00b51513          	slli	a0,a0,0xb
    80007d50:	2aa50513          	addi	a0,a0,682
    80007d54:	00b51513          	slli	a0,a0,0xb
    80007d58:	55550513          	addi	a0,a0,1365
    80007d5c:	00a51513          	slli	a0,a0,0xa
    80007d60:	15650513          	addi	a0,a0,342
    80007d64:	666665b7          	lui	a1,0x66666
    80007d68:	66658593          	addi	a1,a1,1638 # 66666666 <absimmsh+0x5ab958b9>
    80007d6c:	00b59593          	slli	a1,a1,0xb
    80007d70:	33358593          	addi	a1,a1,819
    80007d74:	00b59593          	slli	a1,a1,0xb
    80007d78:	19958593          	addi	a1,a1,409
    80007d7c:	00a59593          	slli	a1,a1,0xa
    80007d80:	26658593          	addi	a1,a1,614
    80007d84:	00b5063b          	addw	a2,a0,a1
    80007d88:	76c3bc23          	sd	a2,1912(t2)
    80007d8c:	bbbbc0b7          	lui	ra,0xbbbbc
    80007d90:	bbc0809b          	addiw	ra,ra,-1092 # ffffffffbbbbbbbc <absimm+0xffffffff00eae0ec>
    80007d94:	00c08463          	beq	ra,a2,80007d9c <inst_515>
    80007d98:	a8cf806f          	j	80000024 <rvtest_error>

0000000080007d9c <inst_515>:
    80007d9c:	55555537          	lui	a0,0x55555
    80007da0:	55550513          	addi	a0,a0,1365 # 55555555 <absimmsh+0x49a847a8>
    80007da4:	00b51513          	slli	a0,a0,0xb
    80007da8:	2aa50513          	addi	a0,a0,682
    80007dac:	00b51513          	slli	a0,a0,0xb
    80007db0:	55550513          	addi	a0,a0,1365
    80007db4:	00a51513          	slli	a0,a0,0xa
    80007db8:	15650513          	addi	a0,a0,342
    80007dbc:	000005b7          	lui	a1,0x0
    80007dc0:	fff58593          	addi	a1,a1,-1
    80007dc4:	00b59593          	slli	a1,a1,0xb
    80007dc8:	25758593          	addi	a1,a1,599
    80007dcc:	00b59593          	slli	a1,a1,0xb
    80007dd0:	6c358593          	addi	a1,a1,1731
    80007dd4:	00a59593          	slli	a1,a1,0xa
    80007dd8:	0cd58593          	addi	a1,a1,205
    80007ddc:	00b5063b          	addw	a2,a0,a1
    80007de0:	78c3b023          	sd	a2,1920(t2)
    80007de4:	a05060b7          	lui	ra,0xa0506
    80007de8:	2230809b          	addiw	ra,ra,547 # ffffffffa0506223 <absimm+0xfffffffee57f8753>
    80007dec:	00c08463          	beq	ra,a2,80007df4 <inst_516>
    80007df0:	a34f806f          	j	80000024 <rvtest_error>

0000000080007df4 <inst_516>:
    80007df4:	55555537          	lui	a0,0x55555
    80007df8:	55550513          	addi	a0,a0,1365 # 55555555 <absimmsh+0x49a847a8>
    80007dfc:	00b51513          	slli	a0,a0,0xb
    80007e00:	2aa50513          	addi	a0,a0,682
    80007e04:	00b51513          	slli	a0,a0,0xb
    80007e08:	55550513          	addi	a0,a0,1365
    80007e0c:	00a51513          	slli	a0,a0,0xa
    80007e10:	15650513          	addi	a0,a0,342
    80007e14:	000005b7          	lui	a1,0x0
    80007e18:	00058593          	mv	a1,a1
    80007e1c:	00b59593          	slli	a1,a1,0xb
    80007e20:	5a858593          	addi	a1,a1,1448 # 5a8 <offset+0x110>
    80007e24:	00b59593          	slli	a1,a1,0xb
    80007e28:	13c58593          	addi	a1,a1,316
    80007e2c:	00a59593          	slli	a1,a1,0xa
    80007e30:	33358593          	addi	a1,a1,819
    80007e34:	00b5063b          	addw	a2,a0,a1
    80007e38:	78c3b423          	sd	a2,1928(t2)
    80007e3c:	0a5a50b7          	lui	ra,0xa5a5
    80007e40:	8890809b          	addiw	ra,ra,-1911 # a5a4889 <offset+0xa5a43f1>
    80007e44:	00c08463          	beq	ra,a2,80007e4c <inst_517>
    80007e48:	9dcf806f          	j	80000024 <rvtest_error>

0000000080007e4c <inst_517>:
    80007e4c:	55555537          	lui	a0,0x55555
    80007e50:	55550513          	addi	a0,a0,1365 # 55555555 <absimmsh+0x49a847a8>
    80007e54:	00b51513          	slli	a0,a0,0xb
    80007e58:	2aa50513          	addi	a0,a0,682
    80007e5c:	00b51513          	slli	a0,a0,0xb
    80007e60:	55550513          	addi	a0,a0,1365
    80007e64:	00a51513          	slli	a0,a0,0xa
    80007e68:	15650513          	addi	a0,a0,342
    80007e6c:	00200593          	li	a1,2
    80007e70:	00b5063b          	addw	a2,a0,a1
    80007e74:	78c3b823          	sd	a2,1936(t2)
    80007e78:	555550b7          	lui	ra,0x55555
    80007e7c:	5580809b          	addiw	ra,ra,1368 # 55555558 <absimmsh+0x49a847ab>
    80007e80:	00c08463          	beq	ra,a2,80007e88 <inst_518>
    80007e84:	9a0f806f          	j	80000024 <rvtest_error>

0000000080007e88 <inst_518>:
    80007e88:	55555537          	lui	a0,0x55555
    80007e8c:	55550513          	addi	a0,a0,1365 # 55555555 <absimmsh+0x49a847a8>
    80007e90:	00b51513          	slli	a0,a0,0xb
    80007e94:	2aa50513          	addi	a0,a0,682
    80007e98:	00b51513          	slli	a0,a0,0xb
    80007e9c:	55550513          	addi	a0,a0,1365
    80007ea0:	00a51513          	slli	a0,a0,0xa
    80007ea4:	15650513          	addi	a0,a0,342
    80007ea8:	555555b7          	lui	a1,0x55555
    80007eac:	55558593          	addi	a1,a1,1365 # 55555555 <absimmsh+0x49a847a8>
    80007eb0:	00b59593          	slli	a1,a1,0xb
    80007eb4:	2aa58593          	addi	a1,a1,682
    80007eb8:	00b59593          	slli	a1,a1,0xb
    80007ebc:	55558593          	addi	a1,a1,1365
    80007ec0:	00a59593          	slli	a1,a1,0xa
    80007ec4:	15458593          	addi	a1,a1,340
    80007ec8:	00b5063b          	addw	a2,a0,a1
    80007ecc:	78c3bc23          	sd	a2,1944(t2)
    80007ed0:	aaaab0b7          	lui	ra,0xaaaab
    80007ed4:	aaa0809b          	addiw	ra,ra,-1366 # ffffffffaaaaaaaa <absimm+0xfffffffeefd9cfda>
    80007ed8:	00c08463          	beq	ra,a2,80007ee0 <inst_519>
    80007edc:	948f806f          	j	80000024 <rvtest_error>

0000000080007ee0 <inst_519>:
    80007ee0:	55555537          	lui	a0,0x55555
    80007ee4:	55550513          	addi	a0,a0,1365 # 55555555 <absimmsh+0x49a847a8>
    80007ee8:	00b51513          	slli	a0,a0,0xb
    80007eec:	2aa50513          	addi	a0,a0,682
    80007ef0:	00b51513          	slli	a0,a0,0xb
    80007ef4:	55550513          	addi	a0,a0,1365
    80007ef8:	00a51513          	slli	a0,a0,0xa
    80007efc:	15650513          	addi	a0,a0,342
    80007f00:	00000593          	li	a1,0
    80007f04:	00b5063b          	addw	a2,a0,a1
    80007f08:	7ac3b023          	sd	a2,1952(t2)
    80007f0c:	555550b7          	lui	ra,0x55555
    80007f10:	5560809b          	addiw	ra,ra,1366 # 55555556 <absimmsh+0x49a847a9>
    80007f14:	00c08463          	beq	ra,a2,80007f1c <inst_520>
    80007f18:	90cf806f          	j	80000024 <rvtest_error>

0000000080007f1c <inst_520>:
    80007f1c:	55555537          	lui	a0,0x55555
    80007f20:	55550513          	addi	a0,a0,1365 # 55555555 <absimmsh+0x49a847a8>
    80007f24:	00b51513          	slli	a0,a0,0xb
    80007f28:	2aa50513          	addi	a0,a0,682
    80007f2c:	00b51513          	slli	a0,a0,0xb
    80007f30:	55550513          	addi	a0,a0,1365
    80007f34:	00a51513          	slli	a0,a0,0xa
    80007f38:	15650513          	addi	a0,a0,342
    80007f3c:	00400593          	li	a1,4
    80007f40:	00b5063b          	addw	a2,a0,a1
    80007f44:	7ac3b423          	sd	a2,1960(t2)
    80007f48:	555550b7          	lui	ra,0x55555
    80007f4c:	55a0809b          	addiw	ra,ra,1370 # 5555555a <absimmsh+0x49a847ad>
    80007f50:	00c08463          	beq	ra,a2,80007f58 <inst_521>
    80007f54:	8d0f806f          	j	80000024 <rvtest_error>

0000000080007f58 <inst_521>:
    80007f58:	55555537          	lui	a0,0x55555
    80007f5c:	55550513          	addi	a0,a0,1365 # 55555555 <absimmsh+0x49a847a8>
    80007f60:	00b51513          	slli	a0,a0,0xb
    80007f64:	2aa50513          	addi	a0,a0,682
    80007f68:	00b51513          	slli	a0,a0,0xb
    80007f6c:	55550513          	addi	a0,a0,1365
    80007f70:	00a51513          	slli	a0,a0,0xa
    80007f74:	15650513          	addi	a0,a0,342
    80007f78:	333335b7          	lui	a1,0x33333
    80007f7c:	33358593          	addi	a1,a1,819 # 33333333 <absimmsh+0x27862586>
    80007f80:	00b59593          	slli	a1,a1,0xb
    80007f84:	19958593          	addi	a1,a1,409
    80007f88:	00b59593          	slli	a1,a1,0xb
    80007f8c:	4cc58593          	addi	a1,a1,1228
    80007f90:	00a59593          	slli	a1,a1,0xa
    80007f94:	33258593          	addi	a1,a1,818
    80007f98:	00b5063b          	addw	a2,a0,a1
    80007f9c:	7ac3b823          	sd	a2,1968(t2)
    80007fa0:	888890b7          	lui	ra,0x88889
    80007fa4:	8880809b          	addiw	ra,ra,-1912 # ffffffff88888888 <absimm+0xfffffffecdb7adb8>
    80007fa8:	00c08463          	beq	ra,a2,80007fb0 <inst_522>
    80007fac:	878f806f          	j	80000024 <rvtest_error>

0000000080007fb0 <inst_522>:
    80007fb0:	55555537          	lui	a0,0x55555
    80007fb4:	55550513          	addi	a0,a0,1365 # 55555555 <absimmsh+0x49a847a8>
    80007fb8:	00b51513          	slli	a0,a0,0xb
    80007fbc:	2aa50513          	addi	a0,a0,682
    80007fc0:	00b51513          	slli	a0,a0,0xb
    80007fc4:	55550513          	addi	a0,a0,1365
    80007fc8:	00a51513          	slli	a0,a0,0xa
    80007fcc:	15650513          	addi	a0,a0,342
    80007fd0:	666665b7          	lui	a1,0x66666
    80007fd4:	66658593          	addi	a1,a1,1638 # 66666666 <absimmsh+0x5ab958b9>
    80007fd8:	00b59593          	slli	a1,a1,0xb
    80007fdc:	33358593          	addi	a1,a1,819
    80007fe0:	00b59593          	slli	a1,a1,0xb
    80007fe4:	19958593          	addi	a1,a1,409
    80007fe8:	00a59593          	slli	a1,a1,0xa
    80007fec:	26558593          	addi	a1,a1,613
    80007ff0:	00b5063b          	addw	a2,a0,a1
    80007ff4:	7ac3bc23          	sd	a2,1976(t2)
    80007ff8:	bbbbc0b7          	lui	ra,0xbbbbc
    80007ffc:	bbb0809b          	addiw	ra,ra,-1093 # ffffffffbbbbbbbb <absimm+0xffffffff00eae0eb>
    80008000:	00c08463          	beq	ra,a2,80008008 <inst_523>
    80008004:	820f806f          	j	80000024 <rvtest_error>

0000000080008008 <inst_523>:
    80008008:	55555537          	lui	a0,0x55555
    8000800c:	55550513          	addi	a0,a0,1365 # 55555555 <absimmsh+0x49a847a8>
    80008010:	00b51513          	slli	a0,a0,0xb
    80008014:	2aa50513          	addi	a0,a0,682
    80008018:	00b51513          	slli	a0,a0,0xb
    8000801c:	55550513          	addi	a0,a0,1365
    80008020:	00a51513          	slli	a0,a0,0xa
    80008024:	15650513          	addi	a0,a0,342
    80008028:	000005b7          	lui	a1,0x0
    8000802c:	00058593          	mv	a1,a1
    80008030:	00b59593          	slli	a1,a1,0xb
    80008034:	5a858593          	addi	a1,a1,1448 # 5a8 <offset+0x110>
    80008038:	00b59593          	slli	a1,a1,0xb
    8000803c:	13c58593          	addi	a1,a1,316
    80008040:	00a59593          	slli	a1,a1,0xa
    80008044:	33258593          	addi	a1,a1,818
    80008048:	00b5063b          	addw	a2,a0,a1
    8000804c:	7cc3b023          	sd	a2,1984(t2)
    80008050:	0a5a50b7          	lui	ra,0xa5a5
    80008054:	8880809b          	addiw	ra,ra,-1912 # a5a4888 <offset+0xa5a43f0>
    80008058:	00c08463          	beq	ra,a2,80008060 <inst_524>
    8000805c:	fc9f706f          	j	80000024 <rvtest_error>

0000000080008060 <inst_524>:
    80008060:	55555537          	lui	a0,0x55555
    80008064:	55550513          	addi	a0,a0,1365 # 55555555 <absimmsh+0x49a847a8>
    80008068:	00b51513          	slli	a0,a0,0xb
    8000806c:	2aa50513          	addi	a0,a0,682
    80008070:	00b51513          	slli	a0,a0,0xb
    80008074:	55550513          	addi	a0,a0,1365
    80008078:	00a51513          	slli	a0,a0,0xa
    8000807c:	15650513          	addi	a0,a0,342
    80008080:	555555b7          	lui	a1,0x55555
    80008084:	55558593          	addi	a1,a1,1365 # 55555555 <absimmsh+0x49a847a8>
    80008088:	00b59593          	slli	a1,a1,0xb
    8000808c:	2aa58593          	addi	a1,a1,682
    80008090:	00b59593          	slli	a1,a1,0xb
    80008094:	55558593          	addi	a1,a1,1365
    80008098:	00a59593          	slli	a1,a1,0xa
    8000809c:	15658593          	addi	a1,a1,342
    800080a0:	00b5063b          	addw	a2,a0,a1
    800080a4:	7cc3b423          	sd	a2,1992(t2)
    800080a8:	aaaab0b7          	lui	ra,0xaaaab
    800080ac:	aac0809b          	addiw	ra,ra,-1364 # ffffffffaaaaaaac <absimm+0xfffffffeefd9cfdc>
    800080b0:	00c08463          	beq	ra,a2,800080b8 <inst_525>
    800080b4:	f71f706f          	j	80000024 <rvtest_error>

00000000800080b8 <inst_525>:
    800080b8:	55555537          	lui	a0,0x55555
    800080bc:	55550513          	addi	a0,a0,1365 # 55555555 <absimmsh+0x49a847a8>
    800080c0:	00b51513          	slli	a0,a0,0xb
    800080c4:	2aa50513          	addi	a0,a0,682
    800080c8:	00b51513          	slli	a0,a0,0xb
    800080cc:	55550513          	addi	a0,a0,1365
    800080d0:	00a51513          	slli	a0,a0,0xa
    800080d4:	15650513          	addi	a0,a0,342
    800080d8:	aaaab5b7          	lui	a1,0xaaaab
    800080dc:	aaa58593          	addi	a1,a1,-1366 # ffffffffaaaaaaaa <absimm+0xfffffffeefd9cfda>
    800080e0:	00b59593          	slli	a1,a1,0xb
    800080e4:	55558593          	addi	a1,a1,1365
    800080e8:	00b59593          	slli	a1,a1,0xb
    800080ec:	2aa58593          	addi	a1,a1,682
    800080f0:	00a59593          	slli	a1,a1,0xa
    800080f4:	2ab58593          	addi	a1,a1,683
    800080f8:	00b5063b          	addw	a2,a0,a1
    800080fc:	7cc3b823          	sd	a2,2000(t2)
    80008100:	00100093          	li	ra,1
    80008104:	00c08463          	beq	ra,a2,8000810c <inst_526>
    80008108:	f1df706f          	j	80000024 <rvtest_error>

000000008000810c <inst_526>:
    8000810c:	55555537          	lui	a0,0x55555
    80008110:	55550513          	addi	a0,a0,1365 # 55555555 <absimmsh+0x49a847a8>
    80008114:	00b51513          	slli	a0,a0,0xb
    80008118:	2aa50513          	addi	a0,a0,682
    8000811c:	00b51513          	slli	a0,a0,0xb
    80008120:	55550513          	addi	a0,a0,1365
    80008124:	00a51513          	slli	a0,a0,0xa
    80008128:	15650513          	addi	a0,a0,342
    8000812c:	00600593          	li	a1,6
    80008130:	00b5063b          	addw	a2,a0,a1
    80008134:	7cc3bc23          	sd	a2,2008(t2)
    80008138:	555550b7          	lui	ra,0x55555
    8000813c:	55c0809b          	addiw	ra,ra,1372 # 5555555c <absimmsh+0x49a847af>
    80008140:	00c08463          	beq	ra,a2,80008148 <inst_527>
    80008144:	ee1f706f          	j	80000024 <rvtest_error>

0000000080008148 <inst_527>:
    80008148:	55555537          	lui	a0,0x55555
    8000814c:	55550513          	addi	a0,a0,1365 # 55555555 <absimmsh+0x49a847a8>
    80008150:	00b51513          	slli	a0,a0,0xb
    80008154:	2aa50513          	addi	a0,a0,682
    80008158:	00b51513          	slli	a0,a0,0xb
    8000815c:	55550513          	addi	a0,a0,1365
    80008160:	00a51513          	slli	a0,a0,0xa
    80008164:	15650513          	addi	a0,a0,342
    80008168:	333335b7          	lui	a1,0x33333
    8000816c:	33358593          	addi	a1,a1,819 # 33333333 <absimmsh+0x27862586>
    80008170:	00b59593          	slli	a1,a1,0xb
    80008174:	19958593          	addi	a1,a1,409
    80008178:	00b59593          	slli	a1,a1,0xb
    8000817c:	4cc58593          	addi	a1,a1,1228
    80008180:	00a59593          	slli	a1,a1,0xa
    80008184:	33458593          	addi	a1,a1,820
    80008188:	00b5063b          	addw	a2,a0,a1
    8000818c:	7ec3b023          	sd	a2,2016(t2)
    80008190:	888890b7          	lui	ra,0x88889
    80008194:	88a0809b          	addiw	ra,ra,-1910 # ffffffff8888888a <absimm+0xfffffffecdb7adba>
    80008198:	00c08463          	beq	ra,a2,800081a0 <inst_528>
    8000819c:	e89f706f          	j	80000024 <rvtest_error>

00000000800081a0 <inst_528>:
    800081a0:	55555537          	lui	a0,0x55555
    800081a4:	55550513          	addi	a0,a0,1365 # 55555555 <absimmsh+0x49a847a8>
    800081a8:	00b51513          	slli	a0,a0,0xb
    800081ac:	2aa50513          	addi	a0,a0,682
    800081b0:	00b51513          	slli	a0,a0,0xb
    800081b4:	55550513          	addi	a0,a0,1365
    800081b8:	00a51513          	slli	a0,a0,0xa
    800081bc:	15650513          	addi	a0,a0,342
    800081c0:	666665b7          	lui	a1,0x66666
    800081c4:	66658593          	addi	a1,a1,1638 # 66666666 <absimmsh+0x5ab958b9>
    800081c8:	00b59593          	slli	a1,a1,0xb
    800081cc:	33358593          	addi	a1,a1,819
    800081d0:	00b59593          	slli	a1,a1,0xb
    800081d4:	19958593          	addi	a1,a1,409
    800081d8:	00a59593          	slli	a1,a1,0xa
    800081dc:	26758593          	addi	a1,a1,615
    800081e0:	00b5063b          	addw	a2,a0,a1
    800081e4:	7ec3b423          	sd	a2,2024(t2)
    800081e8:	bbbbc0b7          	lui	ra,0xbbbbc
    800081ec:	bbd0809b          	addiw	ra,ra,-1091 # ffffffffbbbbbbbd <absimm+0xffffffff00eae0ed>
    800081f0:	00c08463          	beq	ra,a2,800081f8 <inst_529>
    800081f4:	e31f706f          	j	80000024 <rvtest_error>

00000000800081f8 <inst_529>:
    800081f8:	55555537          	lui	a0,0x55555
    800081fc:	55550513          	addi	a0,a0,1365 # 55555555 <absimmsh+0x49a847a8>
    80008200:	00b51513          	slli	a0,a0,0xb
    80008204:	2aa50513          	addi	a0,a0,682
    80008208:	00b51513          	slli	a0,a0,0xb
    8000820c:	55550513          	addi	a0,a0,1365
    80008210:	00a51513          	slli	a0,a0,0xa
    80008214:	15650513          	addi	a0,a0,342
    80008218:	000005b7          	lui	a1,0x0
    8000821c:	fff58593          	addi	a1,a1,-1
    80008220:	00b59593          	slli	a1,a1,0xb
    80008224:	25758593          	addi	a1,a1,599
    80008228:	00b59593          	slli	a1,a1,0xb
    8000822c:	6c358593          	addi	a1,a1,1731
    80008230:	00a59593          	slli	a1,a1,0xa
    80008234:	0ce58593          	addi	a1,a1,206
    80008238:	00b5063b          	addw	a2,a0,a1
    8000823c:	7ec3b823          	sd	a2,2032(t2)
    80008240:	a05060b7          	lui	ra,0xa0506
    80008244:	2240809b          	addiw	ra,ra,548 # ffffffffa0506224 <absimm+0xfffffffee57f8754>
    80008248:	00c08463          	beq	ra,a2,80008250 <inst_530>
    8000824c:	dd9f706f          	j	80000024 <rvtest_error>

0000000080008250 <inst_530>:
    80008250:	55555537          	lui	a0,0x55555
    80008254:	55550513          	addi	a0,a0,1365 # 55555555 <absimmsh+0x49a847a8>
    80008258:	00b51513          	slli	a0,a0,0xb
    8000825c:	2aa50513          	addi	a0,a0,682
    80008260:	00b51513          	slli	a0,a0,0xb
    80008264:	55550513          	addi	a0,a0,1365
    80008268:	00a51513          	slli	a0,a0,0xa
    8000826c:	15650513          	addi	a0,a0,342
    80008270:	000005b7          	lui	a1,0x0
    80008274:	00058593          	mv	a1,a1
    80008278:	00b59593          	slli	a1,a1,0xb
    8000827c:	5a858593          	addi	a1,a1,1448 # 5a8 <offset+0x110>
    80008280:	00b59593          	slli	a1,a1,0xb
    80008284:	13c58593          	addi	a1,a1,316
    80008288:	00a59593          	slli	a1,a1,0xa
    8000828c:	33458593          	addi	a1,a1,820
    80008290:	00b5063b          	addw	a2,a0,a1
    80008294:	7ec3bc23          	sd	a2,2040(t2)
    80008298:	0a5a50b7          	lui	ra,0xa5a5
    8000829c:	88a0809b          	addiw	ra,ra,-1910 # a5a488a <offset+0xa5a43f2>
    800082a0:	00c08463          	beq	ra,a2,800082a8 <inst_530+0x58>
    800082a4:	d81f706f          	j	80000024 <rvtest_error>
    800082a8:	00000013          	nop
    800082ac:	00000013          	nop
    800082b0:	00000013          	nop
    800082b4:	00000013          	nop
    800082b8:	00000013          	nop
    800082bc:	00000013          	nop
    800082c0:	00005397          	auipc	t2,0x5
    800082c4:	de038393          	addi	t2,t2,-544 # 8000d0a0 <signature_x7_2>
    800082c8:	00000013          	nop
    800082cc:	00000013          	nop
    800082d0:	00000013          	nop
    800082d4:	00000013          	nop
    800082d8:	00000013          	nop
    800082dc:	00000013          	nop

00000000800082e0 <inst_531>:
    800082e0:	aaaab537          	lui	a0,0xaaaab
    800082e4:	aaa50513          	addi	a0,a0,-1366 # ffffffffaaaaaaaa <absimm+0xfffffffeefd9cfda>
    800082e8:	00b51513          	slli	a0,a0,0xb
    800082ec:	55550513          	addi	a0,a0,1365
    800082f0:	00b51513          	slli	a0,a0,0xb
    800082f4:	2aa50513          	addi	a0,a0,682
    800082f8:	00a51513          	slli	a0,a0,0xa
    800082fc:	2ab50513          	addi	a0,a0,683
    80008300:	00300593          	li	a1,3
    80008304:	00b5063b          	addw	a2,a0,a1
    80008308:	00c3b023          	sd	a2,0(t2)
    8000830c:	aaaab0b7          	lui	ra,0xaaaab
    80008310:	aae0809b          	addiw	ra,ra,-1362 # ffffffffaaaaaaae <absimm+0xfffffffeefd9cfde>
    80008314:	00c08463          	beq	ra,a2,8000831c <inst_532>
    80008318:	d0df706f          	j	80000024 <rvtest_error>

000000008000831c <inst_532>:
    8000831c:	aaaab537          	lui	a0,0xaaaab
    80008320:	aaa50513          	addi	a0,a0,-1366 # ffffffffaaaaaaaa <absimm+0xfffffffeefd9cfda>
    80008324:	00b51513          	slli	a0,a0,0xb
    80008328:	55550513          	addi	a0,a0,1365
    8000832c:	00b51513          	slli	a0,a0,0xb
    80008330:	2aa50513          	addi	a0,a0,682
    80008334:	00a51513          	slli	a0,a0,0xa
    80008338:	2ab50513          	addi	a0,a0,683
    8000833c:	555555b7          	lui	a1,0x55555
    80008340:	55558593          	addi	a1,a1,1365 # 55555555 <absimmsh+0x49a847a8>
    80008344:	00b59593          	slli	a1,a1,0xb
    80008348:	2aa58593          	addi	a1,a1,682
    8000834c:	00b59593          	slli	a1,a1,0xb
    80008350:	55558593          	addi	a1,a1,1365
    80008354:	00a59593          	slli	a1,a1,0xa
    80008358:	15558593          	addi	a1,a1,341
    8000835c:	00b5063b          	addw	a2,a0,a1
    80008360:	00c3b423          	sd	a2,8(t2)
    80008364:	00000093          	li	ra,0
    80008368:	00c08463          	beq	ra,a2,80008370 <inst_533>
    8000836c:	cb9f706f          	j	80000024 <rvtest_error>

0000000080008370 <inst_533>:
    80008370:	aaaab537          	lui	a0,0xaaaab
    80008374:	aaa50513          	addi	a0,a0,-1366 # ffffffffaaaaaaaa <absimm+0xfffffffeefd9cfda>
    80008378:	00b51513          	slli	a0,a0,0xb
    8000837c:	55550513          	addi	a0,a0,1365
    80008380:	00b51513          	slli	a0,a0,0xb
    80008384:	2aa50513          	addi	a0,a0,682
    80008388:	00a51513          	slli	a0,a0,0xa
    8000838c:	2ab50513          	addi	a0,a0,683
    80008390:	aaaab5b7          	lui	a1,0xaaaab
    80008394:	aaa58593          	addi	a1,a1,-1366 # ffffffffaaaaaaaa <absimm+0xfffffffeefd9cfda>
    80008398:	00b59593          	slli	a1,a1,0xb
    8000839c:	55558593          	addi	a1,a1,1365
    800083a0:	00b59593          	slli	a1,a1,0xb
    800083a4:	2aa58593          	addi	a1,a1,682
    800083a8:	00a59593          	slli	a1,a1,0xa
    800083ac:	2aa58593          	addi	a1,a1,682
    800083b0:	00b5063b          	addw	a2,a0,a1
    800083b4:	00c3b823          	sd	a2,16(t2)
    800083b8:	555550b7          	lui	ra,0x55555
    800083bc:	5550809b          	addiw	ra,ra,1365 # 55555555 <absimmsh+0x49a847a8>
    800083c0:	00c08463          	beq	ra,a2,800083c8 <inst_534>
    800083c4:	c61f706f          	j	80000024 <rvtest_error>

00000000800083c8 <inst_534>:
    800083c8:	aaaab537          	lui	a0,0xaaaab
    800083cc:	aaa50513          	addi	a0,a0,-1366 # ffffffffaaaaaaaa <absimm+0xfffffffeefd9cfda>
    800083d0:	00b51513          	slli	a0,a0,0xb
    800083d4:	55550513          	addi	a0,a0,1365
    800083d8:	00b51513          	slli	a0,a0,0xb
    800083dc:	2aa50513          	addi	a0,a0,682
    800083e0:	00a51513          	slli	a0,a0,0xa
    800083e4:	2ab50513          	addi	a0,a0,683
    800083e8:	00500593          	li	a1,5
    800083ec:	00b5063b          	addw	a2,a0,a1
    800083f0:	00c3bc23          	sd	a2,24(t2)
    800083f4:	aaaab0b7          	lui	ra,0xaaaab
    800083f8:	ab00809b          	addiw	ra,ra,-1360 # ffffffffaaaaaab0 <absimm+0xfffffffeefd9cfe0>
    800083fc:	00c08463          	beq	ra,a2,80008404 <inst_535>
    80008400:	c25f706f          	j	80000024 <rvtest_error>

0000000080008404 <inst_535>:
    80008404:	aaaab537          	lui	a0,0xaaaab
    80008408:	aaa50513          	addi	a0,a0,-1366 # ffffffffaaaaaaaa <absimm+0xfffffffeefd9cfda>
    8000840c:	00b51513          	slli	a0,a0,0xb
    80008410:	55550513          	addi	a0,a0,1365
    80008414:	00b51513          	slli	a0,a0,0xb
    80008418:	2aa50513          	addi	a0,a0,682
    8000841c:	00a51513          	slli	a0,a0,0xa
    80008420:	2ab50513          	addi	a0,a0,683
    80008424:	333335b7          	lui	a1,0x33333
    80008428:	33358593          	addi	a1,a1,819 # 33333333 <absimmsh+0x27862586>
    8000842c:	00b59593          	slli	a1,a1,0xb
    80008430:	19958593          	addi	a1,a1,409
    80008434:	00b59593          	slli	a1,a1,0xb
    80008438:	4cc58593          	addi	a1,a1,1228
    8000843c:	00a59593          	slli	a1,a1,0xa
    80008440:	33358593          	addi	a1,a1,819
    80008444:	00b5063b          	addw	a2,a0,a1
    80008448:	02c3b023          	sd	a2,32(t2)
    8000844c:	dddde0b7          	lui	ra,0xdddde
    80008450:	dde0809b          	addiw	ra,ra,-546 # ffffffffddddddde <absimm+0xffffffff230d030e>
    80008454:	00c08463          	beq	ra,a2,8000845c <inst_536>
    80008458:	bcdf706f          	j	80000024 <rvtest_error>

000000008000845c <inst_536>:
    8000845c:	aaaab537          	lui	a0,0xaaaab
    80008460:	aaa50513          	addi	a0,a0,-1366 # ffffffffaaaaaaaa <absimm+0xfffffffeefd9cfda>
    80008464:	00b51513          	slli	a0,a0,0xb
    80008468:	55550513          	addi	a0,a0,1365
    8000846c:	00b51513          	slli	a0,a0,0xb
    80008470:	2aa50513          	addi	a0,a0,682
    80008474:	00a51513          	slli	a0,a0,0xa
    80008478:	2ab50513          	addi	a0,a0,683
    8000847c:	666665b7          	lui	a1,0x66666
    80008480:	66658593          	addi	a1,a1,1638 # 66666666 <absimmsh+0x5ab958b9>
    80008484:	00b59593          	slli	a1,a1,0xb
    80008488:	33358593          	addi	a1,a1,819
    8000848c:	00b59593          	slli	a1,a1,0xb
    80008490:	19958593          	addi	a1,a1,409
    80008494:	00a59593          	slli	a1,a1,0xa
    80008498:	26658593          	addi	a1,a1,614
    8000849c:	00b5063b          	addw	a2,a0,a1
    800084a0:	02c3b423          	sd	a2,40(t2)
    800084a4:	111110b7          	lui	ra,0x11111
    800084a8:	1110809b          	addiw	ra,ra,273 # 11111111 <absimmsh+0x5640364>
    800084ac:	00c08463          	beq	ra,a2,800084b4 <inst_537>
    800084b0:	b75f706f          	j	80000024 <rvtest_error>

00000000800084b4 <inst_537>:
    800084b4:	aaaab537          	lui	a0,0xaaaab
    800084b8:	aaa50513          	addi	a0,a0,-1366 # ffffffffaaaaaaaa <absimm+0xfffffffeefd9cfda>
    800084bc:	00b51513          	slli	a0,a0,0xb
    800084c0:	55550513          	addi	a0,a0,1365
    800084c4:	00b51513          	slli	a0,a0,0xb
    800084c8:	2aa50513          	addi	a0,a0,682
    800084cc:	00a51513          	slli	a0,a0,0xa
    800084d0:	2ab50513          	addi	a0,a0,683
    800084d4:	000005b7          	lui	a1,0x0
    800084d8:	fff58593          	addi	a1,a1,-1
    800084dc:	00b59593          	slli	a1,a1,0xb
    800084e0:	25758593          	addi	a1,a1,599
    800084e4:	00b59593          	slli	a1,a1,0xb
    800084e8:	6c358593          	addi	a1,a1,1731
    800084ec:	00a59593          	slli	a1,a1,0xa
    800084f0:	0cd58593          	addi	a1,a1,205
    800084f4:	00b5063b          	addw	a2,a0,a1
    800084f8:	02c3b823          	sd	a2,48(t2)
    800084fc:	f5a5b0b7          	lui	ra,0xf5a5b
    80008500:	7780809b          	addiw	ra,ra,1912 # fffffffff5a5b778 <absimm+0xffffffff3ad4dca8>
    80008504:	00c08463          	beq	ra,a2,8000850c <inst_538>
    80008508:	b1df706f          	j	80000024 <rvtest_error>

000000008000850c <inst_538>:
    8000850c:	aaaab537          	lui	a0,0xaaaab
    80008510:	aaa50513          	addi	a0,a0,-1366 # ffffffffaaaaaaaa <absimm+0xfffffffeefd9cfda>
    80008514:	00b51513          	slli	a0,a0,0xb
    80008518:	55550513          	addi	a0,a0,1365
    8000851c:	00b51513          	slli	a0,a0,0xb
    80008520:	2aa50513          	addi	a0,a0,682
    80008524:	00a51513          	slli	a0,a0,0xa
    80008528:	2ab50513          	addi	a0,a0,683
    8000852c:	000005b7          	lui	a1,0x0
    80008530:	00058593          	mv	a1,a1
    80008534:	00b59593          	slli	a1,a1,0xb
    80008538:	5a858593          	addi	a1,a1,1448 # 5a8 <offset+0x110>
    8000853c:	00b59593          	slli	a1,a1,0xb
    80008540:	13c58593          	addi	a1,a1,316
    80008544:	00a59593          	slli	a1,a1,0xa
    80008548:	33358593          	addi	a1,a1,819
    8000854c:	00b5063b          	addw	a2,a0,a1
    80008550:	02c3bc23          	sd	a2,56(t2)
    80008554:	5fafa0b7          	lui	ra,0x5fafa
    80008558:	dde0809b          	addiw	ra,ra,-546 # 5faf9dde <absimmsh+0x54029031>
    8000855c:	00c08463          	beq	ra,a2,80008564 <inst_539>
    80008560:	ac5f706f          	j	80000024 <rvtest_error>

0000000080008564 <inst_539>:
    80008564:	aaaab537          	lui	a0,0xaaaab
    80008568:	aaa50513          	addi	a0,a0,-1366 # ffffffffaaaaaaaa <absimm+0xfffffffeefd9cfda>
    8000856c:	00b51513          	slli	a0,a0,0xb
    80008570:	55550513          	addi	a0,a0,1365
    80008574:	00b51513          	slli	a0,a0,0xb
    80008578:	2aa50513          	addi	a0,a0,682
    8000857c:	00a51513          	slli	a0,a0,0xa
    80008580:	2ab50513          	addi	a0,a0,683
    80008584:	00200593          	li	a1,2
    80008588:	00b5063b          	addw	a2,a0,a1
    8000858c:	04c3b023          	sd	a2,64(t2)
    80008590:	aaaab0b7          	lui	ra,0xaaaab
    80008594:	aad0809b          	addiw	ra,ra,-1363 # ffffffffaaaaaaad <absimm+0xfffffffeefd9cfdd>
    80008598:	00c08463          	beq	ra,a2,800085a0 <inst_540>
    8000859c:	a89f706f          	j	80000024 <rvtest_error>

00000000800085a0 <inst_540>:
    800085a0:	aaaab537          	lui	a0,0xaaaab
    800085a4:	aaa50513          	addi	a0,a0,-1366 # ffffffffaaaaaaaa <absimm+0xfffffffeefd9cfda>
    800085a8:	00b51513          	slli	a0,a0,0xb
    800085ac:	55550513          	addi	a0,a0,1365
    800085b0:	00b51513          	slli	a0,a0,0xb
    800085b4:	2aa50513          	addi	a0,a0,682
    800085b8:	00a51513          	slli	a0,a0,0xa
    800085bc:	2ab50513          	addi	a0,a0,683
    800085c0:	555555b7          	lui	a1,0x55555
    800085c4:	55558593          	addi	a1,a1,1365 # 55555555 <absimmsh+0x49a847a8>
    800085c8:	00b59593          	slli	a1,a1,0xb
    800085cc:	2aa58593          	addi	a1,a1,682
    800085d0:	00b59593          	slli	a1,a1,0xb
    800085d4:	55558593          	addi	a1,a1,1365
    800085d8:	00a59593          	slli	a1,a1,0xa
    800085dc:	15458593          	addi	a1,a1,340
    800085e0:	00b5063b          	addw	a2,a0,a1
    800085e4:	04c3b423          	sd	a2,72(t2)
    800085e8:	fff00093          	li	ra,-1
    800085ec:	00c08463          	beq	ra,a2,800085f4 <inst_541>
    800085f0:	a35f706f          	j	80000024 <rvtest_error>

00000000800085f4 <inst_541>:
    800085f4:	aaaab537          	lui	a0,0xaaaab
    800085f8:	aaa50513          	addi	a0,a0,-1366 # ffffffffaaaaaaaa <absimm+0xfffffffeefd9cfda>
    800085fc:	00b51513          	slli	a0,a0,0xb
    80008600:	55550513          	addi	a0,a0,1365
    80008604:	00b51513          	slli	a0,a0,0xb
    80008608:	2aa50513          	addi	a0,a0,682
    8000860c:	00a51513          	slli	a0,a0,0xa
    80008610:	2ab50513          	addi	a0,a0,683
    80008614:	00000593          	li	a1,0
    80008618:	00b5063b          	addw	a2,a0,a1
    8000861c:	04c3b823          	sd	a2,80(t2)
    80008620:	aaaab0b7          	lui	ra,0xaaaab
    80008624:	aab0809b          	addiw	ra,ra,-1365 # ffffffffaaaaaaab <absimm+0xfffffffeefd9cfdb>
    80008628:	00c08463          	beq	ra,a2,80008630 <inst_542>
    8000862c:	9f9f706f          	j	80000024 <rvtest_error>

0000000080008630 <inst_542>:
    80008630:	aaaab537          	lui	a0,0xaaaab
    80008634:	aaa50513          	addi	a0,a0,-1366 # ffffffffaaaaaaaa <absimm+0xfffffffeefd9cfda>
    80008638:	00b51513          	slli	a0,a0,0xb
    8000863c:	55550513          	addi	a0,a0,1365
    80008640:	00b51513          	slli	a0,a0,0xb
    80008644:	2aa50513          	addi	a0,a0,682
    80008648:	00a51513          	slli	a0,a0,0xa
    8000864c:	2ab50513          	addi	a0,a0,683
    80008650:	00400593          	li	a1,4
    80008654:	00b5063b          	addw	a2,a0,a1
    80008658:	04c3bc23          	sd	a2,88(t2)
    8000865c:	aaaab0b7          	lui	ra,0xaaaab
    80008660:	aaf0809b          	addiw	ra,ra,-1361 # ffffffffaaaaaaaf <absimm+0xfffffffeefd9cfdf>
    80008664:	00c08463          	beq	ra,a2,8000866c <inst_543>
    80008668:	9bdf706f          	j	80000024 <rvtest_error>

000000008000866c <inst_543>:
    8000866c:	aaaab537          	lui	a0,0xaaaab
    80008670:	aaa50513          	addi	a0,a0,-1366 # ffffffffaaaaaaaa <absimm+0xfffffffeefd9cfda>
    80008674:	00b51513          	slli	a0,a0,0xb
    80008678:	55550513          	addi	a0,a0,1365
    8000867c:	00b51513          	slli	a0,a0,0xb
    80008680:	2aa50513          	addi	a0,a0,682
    80008684:	00a51513          	slli	a0,a0,0xa
    80008688:	2ab50513          	addi	a0,a0,683
    8000868c:	333335b7          	lui	a1,0x33333
    80008690:	33358593          	addi	a1,a1,819 # 33333333 <absimmsh+0x27862586>
    80008694:	00b59593          	slli	a1,a1,0xb
    80008698:	19958593          	addi	a1,a1,409
    8000869c:	00b59593          	slli	a1,a1,0xb
    800086a0:	4cc58593          	addi	a1,a1,1228
    800086a4:	00a59593          	slli	a1,a1,0xa
    800086a8:	33258593          	addi	a1,a1,818
    800086ac:	00b5063b          	addw	a2,a0,a1
    800086b0:	06c3b023          	sd	a2,96(t2)
    800086b4:	dddde0b7          	lui	ra,0xdddde
    800086b8:	ddd0809b          	addiw	ra,ra,-547 # ffffffffdddddddd <absimm+0xffffffff230d030d>
    800086bc:	00c08463          	beq	ra,a2,800086c4 <inst_544>
    800086c0:	965f706f          	j	80000024 <rvtest_error>

00000000800086c4 <inst_544>:
    800086c4:	aaaab537          	lui	a0,0xaaaab
    800086c8:	aaa50513          	addi	a0,a0,-1366 # ffffffffaaaaaaaa <absimm+0xfffffffeefd9cfda>
    800086cc:	00b51513          	slli	a0,a0,0xb
    800086d0:	55550513          	addi	a0,a0,1365
    800086d4:	00b51513          	slli	a0,a0,0xb
    800086d8:	2aa50513          	addi	a0,a0,682
    800086dc:	00a51513          	slli	a0,a0,0xa
    800086e0:	2ab50513          	addi	a0,a0,683
    800086e4:	666665b7          	lui	a1,0x66666
    800086e8:	66658593          	addi	a1,a1,1638 # 66666666 <absimmsh+0x5ab958b9>
    800086ec:	00b59593          	slli	a1,a1,0xb
    800086f0:	33358593          	addi	a1,a1,819
    800086f4:	00b59593          	slli	a1,a1,0xb
    800086f8:	19958593          	addi	a1,a1,409
    800086fc:	00a59593          	slli	a1,a1,0xa
    80008700:	26558593          	addi	a1,a1,613
    80008704:	00b5063b          	addw	a2,a0,a1
    80008708:	06c3b423          	sd	a2,104(t2)
    8000870c:	111110b7          	lui	ra,0x11111
    80008710:	1100809b          	addiw	ra,ra,272 # 11111110 <absimmsh+0x5640363>
    80008714:	00c08463          	beq	ra,a2,8000871c <inst_545>
    80008718:	90df706f          	j	80000024 <rvtest_error>

000000008000871c <inst_545>:
    8000871c:	aaaab537          	lui	a0,0xaaaab
    80008720:	aaa50513          	addi	a0,a0,-1366 # ffffffffaaaaaaaa <absimm+0xfffffffeefd9cfda>
    80008724:	00b51513          	slli	a0,a0,0xb
    80008728:	55550513          	addi	a0,a0,1365
    8000872c:	00b51513          	slli	a0,a0,0xb
    80008730:	2aa50513          	addi	a0,a0,682
    80008734:	00a51513          	slli	a0,a0,0xa
    80008738:	2ab50513          	addi	a0,a0,683
    8000873c:	000005b7          	lui	a1,0x0
    80008740:	00058593          	mv	a1,a1
    80008744:	00b59593          	slli	a1,a1,0xb
    80008748:	5a858593          	addi	a1,a1,1448 # 5a8 <offset+0x110>
    8000874c:	00b59593          	slli	a1,a1,0xb
    80008750:	13c58593          	addi	a1,a1,316
    80008754:	00a59593          	slli	a1,a1,0xa
    80008758:	33258593          	addi	a1,a1,818
    8000875c:	00b5063b          	addw	a2,a0,a1
    80008760:	06c3b823          	sd	a2,112(t2)
    80008764:	5fafa0b7          	lui	ra,0x5fafa
    80008768:	ddd0809b          	addiw	ra,ra,-547 # 5faf9ddd <absimmsh+0x54029030>
    8000876c:	00c08463          	beq	ra,a2,80008774 <inst_546>
    80008770:	8b5f706f          	j	80000024 <rvtest_error>

0000000080008774 <inst_546>:
    80008774:	aaaab537          	lui	a0,0xaaaab
    80008778:	aaa50513          	addi	a0,a0,-1366 # ffffffffaaaaaaaa <absimm+0xfffffffeefd9cfda>
    8000877c:	00b51513          	slli	a0,a0,0xb
    80008780:	55550513          	addi	a0,a0,1365
    80008784:	00b51513          	slli	a0,a0,0xb
    80008788:	2aa50513          	addi	a0,a0,682
    8000878c:	00a51513          	slli	a0,a0,0xa
    80008790:	2ab50513          	addi	a0,a0,683
    80008794:	555555b7          	lui	a1,0x55555
    80008798:	55558593          	addi	a1,a1,1365 # 55555555 <absimmsh+0x49a847a8>
    8000879c:	00b59593          	slli	a1,a1,0xb
    800087a0:	2aa58593          	addi	a1,a1,682
    800087a4:	00b59593          	slli	a1,a1,0xb
    800087a8:	55558593          	addi	a1,a1,1365
    800087ac:	00a59593          	slli	a1,a1,0xa
    800087b0:	15658593          	addi	a1,a1,342
    800087b4:	00b5063b          	addw	a2,a0,a1
    800087b8:	06c3bc23          	sd	a2,120(t2)
    800087bc:	00100093          	li	ra,1
    800087c0:	00c08463          	beq	ra,a2,800087c8 <inst_547>
    800087c4:	861f706f          	j	80000024 <rvtest_error>

00000000800087c8 <inst_547>:
    800087c8:	aaaab537          	lui	a0,0xaaaab
    800087cc:	aaa50513          	addi	a0,a0,-1366 # ffffffffaaaaaaaa <absimm+0xfffffffeefd9cfda>
    800087d0:	00b51513          	slli	a0,a0,0xb
    800087d4:	55550513          	addi	a0,a0,1365
    800087d8:	00b51513          	slli	a0,a0,0xb
    800087dc:	2aa50513          	addi	a0,a0,682
    800087e0:	00a51513          	slli	a0,a0,0xa
    800087e4:	2ab50513          	addi	a0,a0,683
    800087e8:	aaaab5b7          	lui	a1,0xaaaab
    800087ec:	aaa58593          	addi	a1,a1,-1366 # ffffffffaaaaaaaa <absimm+0xfffffffeefd9cfda>
    800087f0:	00b59593          	slli	a1,a1,0xb
    800087f4:	55558593          	addi	a1,a1,1365
    800087f8:	00b59593          	slli	a1,a1,0xb
    800087fc:	2aa58593          	addi	a1,a1,682
    80008800:	00a59593          	slli	a1,a1,0xa
    80008804:	2ab58593          	addi	a1,a1,683
    80008808:	00b5063b          	addw	a2,a0,a1
    8000880c:	08c3b023          	sd	a2,128(t2)
    80008810:	555550b7          	lui	ra,0x55555
    80008814:	5560809b          	addiw	ra,ra,1366 # 55555556 <absimmsh+0x49a847a9>
    80008818:	00c08463          	beq	ra,a2,80008820 <inst_548>
    8000881c:	809f706f          	j	80000024 <rvtest_error>

0000000080008820 <inst_548>:
    80008820:	aaaab537          	lui	a0,0xaaaab
    80008824:	aaa50513          	addi	a0,a0,-1366 # ffffffffaaaaaaaa <absimm+0xfffffffeefd9cfda>
    80008828:	00b51513          	slli	a0,a0,0xb
    8000882c:	55550513          	addi	a0,a0,1365
    80008830:	00b51513          	slli	a0,a0,0xb
    80008834:	2aa50513          	addi	a0,a0,682
    80008838:	00a51513          	slli	a0,a0,0xa
    8000883c:	2ab50513          	addi	a0,a0,683
    80008840:	00600593          	li	a1,6
    80008844:	00b5063b          	addw	a2,a0,a1
    80008848:	08c3b423          	sd	a2,136(t2)
    8000884c:	aaaab0b7          	lui	ra,0xaaaab
    80008850:	ab10809b          	addiw	ra,ra,-1359 # ffffffffaaaaaab1 <absimm+0xfffffffeefd9cfe1>
    80008854:	00c08463          	beq	ra,a2,8000885c <inst_549>
    80008858:	fccf706f          	j	80000024 <rvtest_error>

000000008000885c <inst_549>:
    8000885c:	aaaab537          	lui	a0,0xaaaab
    80008860:	aaa50513          	addi	a0,a0,-1366 # ffffffffaaaaaaaa <absimm+0xfffffffeefd9cfda>
    80008864:	00b51513          	slli	a0,a0,0xb
    80008868:	55550513          	addi	a0,a0,1365
    8000886c:	00b51513          	slli	a0,a0,0xb
    80008870:	2aa50513          	addi	a0,a0,682
    80008874:	00a51513          	slli	a0,a0,0xa
    80008878:	2ab50513          	addi	a0,a0,683
    8000887c:	333335b7          	lui	a1,0x33333
    80008880:	33358593          	addi	a1,a1,819 # 33333333 <absimmsh+0x27862586>
    80008884:	00b59593          	slli	a1,a1,0xb
    80008888:	19958593          	addi	a1,a1,409
    8000888c:	00b59593          	slli	a1,a1,0xb
    80008890:	4cc58593          	addi	a1,a1,1228
    80008894:	00a59593          	slli	a1,a1,0xa
    80008898:	33458593          	addi	a1,a1,820
    8000889c:	00b5063b          	addw	a2,a0,a1
    800088a0:	08c3b823          	sd	a2,144(t2)
    800088a4:	dddde0b7          	lui	ra,0xdddde
    800088a8:	ddf0809b          	addiw	ra,ra,-545 # ffffffffdddddddf <absimm+0xffffffff230d030f>
    800088ac:	00c08463          	beq	ra,a2,800088b4 <inst_550>
    800088b0:	f74f706f          	j	80000024 <rvtest_error>

00000000800088b4 <inst_550>:
    800088b4:	aaaab537          	lui	a0,0xaaaab
    800088b8:	aaa50513          	addi	a0,a0,-1366 # ffffffffaaaaaaaa <absimm+0xfffffffeefd9cfda>
    800088bc:	00b51513          	slli	a0,a0,0xb
    800088c0:	55550513          	addi	a0,a0,1365
    800088c4:	00b51513          	slli	a0,a0,0xb
    800088c8:	2aa50513          	addi	a0,a0,682
    800088cc:	00a51513          	slli	a0,a0,0xa
    800088d0:	2ab50513          	addi	a0,a0,683
    800088d4:	666665b7          	lui	a1,0x66666
    800088d8:	66658593          	addi	a1,a1,1638 # 66666666 <absimmsh+0x5ab958b9>
    800088dc:	00b59593          	slli	a1,a1,0xb
    800088e0:	33358593          	addi	a1,a1,819
    800088e4:	00b59593          	slli	a1,a1,0xb
    800088e8:	19958593          	addi	a1,a1,409
    800088ec:	00a59593          	slli	a1,a1,0xa
    800088f0:	26758593          	addi	a1,a1,615
    800088f4:	00b5063b          	addw	a2,a0,a1
    800088f8:	08c3bc23          	sd	a2,152(t2)
    800088fc:	111110b7          	lui	ra,0x11111
    80008900:	1120809b          	addiw	ra,ra,274 # 11111112 <absimmsh+0x5640365>
    80008904:	00c08463          	beq	ra,a2,8000890c <inst_551>
    80008908:	f1cf706f          	j	80000024 <rvtest_error>

000000008000890c <inst_551>:
    8000890c:	aaaab537          	lui	a0,0xaaaab
    80008910:	aaa50513          	addi	a0,a0,-1366 # ffffffffaaaaaaaa <absimm+0xfffffffeefd9cfda>
    80008914:	00b51513          	slli	a0,a0,0xb
    80008918:	55550513          	addi	a0,a0,1365
    8000891c:	00b51513          	slli	a0,a0,0xb
    80008920:	2aa50513          	addi	a0,a0,682
    80008924:	00a51513          	slli	a0,a0,0xa
    80008928:	2ab50513          	addi	a0,a0,683
    8000892c:	000005b7          	lui	a1,0x0
    80008930:	fff58593          	addi	a1,a1,-1
    80008934:	00b59593          	slli	a1,a1,0xb
    80008938:	25758593          	addi	a1,a1,599
    8000893c:	00b59593          	slli	a1,a1,0xb
    80008940:	6c358593          	addi	a1,a1,1731
    80008944:	00a59593          	slli	a1,a1,0xa
    80008948:	0ce58593          	addi	a1,a1,206
    8000894c:	00b5063b          	addw	a2,a0,a1
    80008950:	0ac3b023          	sd	a2,160(t2)
    80008954:	f5a5b0b7          	lui	ra,0xf5a5b
    80008958:	7790809b          	addiw	ra,ra,1913 # fffffffff5a5b779 <absimm+0xffffffff3ad4dca9>
    8000895c:	00c08463          	beq	ra,a2,80008964 <inst_552>
    80008960:	ec4f706f          	j	80000024 <rvtest_error>

0000000080008964 <inst_552>:
    80008964:	aaaab537          	lui	a0,0xaaaab
    80008968:	aaa50513          	addi	a0,a0,-1366 # ffffffffaaaaaaaa <absimm+0xfffffffeefd9cfda>
    8000896c:	00b51513          	slli	a0,a0,0xb
    80008970:	55550513          	addi	a0,a0,1365
    80008974:	00b51513          	slli	a0,a0,0xb
    80008978:	2aa50513          	addi	a0,a0,682
    8000897c:	00a51513          	slli	a0,a0,0xa
    80008980:	2ab50513          	addi	a0,a0,683
    80008984:	000005b7          	lui	a1,0x0
    80008988:	00058593          	mv	a1,a1
    8000898c:	00b59593          	slli	a1,a1,0xb
    80008990:	5a858593          	addi	a1,a1,1448 # 5a8 <offset+0x110>
    80008994:	00b59593          	slli	a1,a1,0xb
    80008998:	13c58593          	addi	a1,a1,316
    8000899c:	00a59593          	slli	a1,a1,0xa
    800089a0:	33458593          	addi	a1,a1,820
    800089a4:	00b5063b          	addw	a2,a0,a1
    800089a8:	0ac3b423          	sd	a2,168(t2)
    800089ac:	5fafa0b7          	lui	ra,0x5fafa
    800089b0:	ddf0809b          	addiw	ra,ra,-545 # 5faf9ddf <absimmsh+0x54029032>
    800089b4:	00c08463          	beq	ra,a2,800089bc <inst_553>
    800089b8:	e6cf706f          	j	80000024 <rvtest_error>

00000000800089bc <inst_553>:
    800089bc:	00600513          	li	a0,6
    800089c0:	00300593          	li	a1,3
    800089c4:	00b5063b          	addw	a2,a0,a1
    800089c8:	0ac3b823          	sd	a2,176(t2)
    800089cc:	00900093          	li	ra,9
    800089d0:	00c08463          	beq	ra,a2,800089d8 <inst_554>
    800089d4:	e50f706f          	j	80000024 <rvtest_error>

00000000800089d8 <inst_554>:
    800089d8:	00600513          	li	a0,6
    800089dc:	555555b7          	lui	a1,0x55555
    800089e0:	55558593          	addi	a1,a1,1365 # 55555555 <absimmsh+0x49a847a8>
    800089e4:	00b59593          	slli	a1,a1,0xb
    800089e8:	2aa58593          	addi	a1,a1,682
    800089ec:	00b59593          	slli	a1,a1,0xb
    800089f0:	55558593          	addi	a1,a1,1365
    800089f4:	00a59593          	slli	a1,a1,0xa
    800089f8:	15558593          	addi	a1,a1,341
    800089fc:	00b5063b          	addw	a2,a0,a1
    80008a00:	0ac3bc23          	sd	a2,184(t2)
    80008a04:	555550b7          	lui	ra,0x55555
    80008a08:	55b0809b          	addiw	ra,ra,1371 # 5555555b <absimmsh+0x49a847ae>
    80008a0c:	00c08463          	beq	ra,a2,80008a14 <inst_555>
    80008a10:	e14f706f          	j	80000024 <rvtest_error>

0000000080008a14 <inst_555>:
    80008a14:	00600513          	li	a0,6
    80008a18:	aaaab5b7          	lui	a1,0xaaaab
    80008a1c:	aaa58593          	addi	a1,a1,-1366 # ffffffffaaaaaaaa <absimm+0xfffffffeefd9cfda>
    80008a20:	00b59593          	slli	a1,a1,0xb
    80008a24:	55558593          	addi	a1,a1,1365
    80008a28:	00b59593          	slli	a1,a1,0xb
    80008a2c:	2aa58593          	addi	a1,a1,682
    80008a30:	00a59593          	slli	a1,a1,0xa
    80008a34:	2aa58593          	addi	a1,a1,682
    80008a38:	00b5063b          	addw	a2,a0,a1
    80008a3c:	0cc3b023          	sd	a2,192(t2)
    80008a40:	aaaab0b7          	lui	ra,0xaaaab
    80008a44:	ab00809b          	addiw	ra,ra,-1360 # ffffffffaaaaaab0 <absimm+0xfffffffeefd9cfe0>
    80008a48:	00c08463          	beq	ra,a2,80008a50 <inst_556>
    80008a4c:	dd8f706f          	j	80000024 <rvtest_error>

0000000080008a50 <inst_556>:
    80008a50:	00600513          	li	a0,6
    80008a54:	00500593          	li	a1,5
    80008a58:	00b5063b          	addw	a2,a0,a1
    80008a5c:	0cc3b423          	sd	a2,200(t2)
    80008a60:	00b00093          	li	ra,11
    80008a64:	00c08463          	beq	ra,a2,80008a6c <inst_557>
    80008a68:	dbcf706f          	j	80000024 <rvtest_error>

0000000080008a6c <inst_557>:
    80008a6c:	00600513          	li	a0,6
    80008a70:	333335b7          	lui	a1,0x33333
    80008a74:	33358593          	addi	a1,a1,819 # 33333333 <absimmsh+0x27862586>
    80008a78:	00b59593          	slli	a1,a1,0xb
    80008a7c:	19958593          	addi	a1,a1,409
    80008a80:	00b59593          	slli	a1,a1,0xb
    80008a84:	4cc58593          	addi	a1,a1,1228
    80008a88:	00a59593          	slli	a1,a1,0xa
    80008a8c:	33358593          	addi	a1,a1,819
    80008a90:	00b5063b          	addw	a2,a0,a1
    80008a94:	0cc3b823          	sd	a2,208(t2)
    80008a98:	333330b7          	lui	ra,0x33333
    80008a9c:	3390809b          	addiw	ra,ra,825 # 33333339 <absimmsh+0x2786258c>
    80008aa0:	00c08463          	beq	ra,a2,80008aa8 <inst_558>
    80008aa4:	d80f706f          	j	80000024 <rvtest_error>

0000000080008aa8 <inst_558>:
    80008aa8:	00600513          	li	a0,6
    80008aac:	666665b7          	lui	a1,0x66666
    80008ab0:	66658593          	addi	a1,a1,1638 # 66666666 <absimmsh+0x5ab958b9>
    80008ab4:	00b59593          	slli	a1,a1,0xb
    80008ab8:	33358593          	addi	a1,a1,819
    80008abc:	00b59593          	slli	a1,a1,0xb
    80008ac0:	19958593          	addi	a1,a1,409
    80008ac4:	00a59593          	slli	a1,a1,0xa
    80008ac8:	26658593          	addi	a1,a1,614
    80008acc:	00b5063b          	addw	a2,a0,a1
    80008ad0:	0cc3bc23          	sd	a2,216(t2)
    80008ad4:	666660b7          	lui	ra,0x66666
    80008ad8:	66c0809b          	addiw	ra,ra,1644 # 6666666c <absimmsh+0x5ab958bf>
    80008adc:	00c08463          	beq	ra,a2,80008ae4 <inst_559>
    80008ae0:	d44f706f          	j	80000024 <rvtest_error>

0000000080008ae4 <inst_559>:
    80008ae4:	00600513          	li	a0,6
    80008ae8:	000005b7          	lui	a1,0x0
    80008aec:	fff58593          	addi	a1,a1,-1
    80008af0:	00b59593          	slli	a1,a1,0xb
    80008af4:	25758593          	addi	a1,a1,599
    80008af8:	00b59593          	slli	a1,a1,0xb
    80008afc:	6c358593          	addi	a1,a1,1731
    80008b00:	00a59593          	slli	a1,a1,0xa
    80008b04:	0cd58593          	addi	a1,a1,205
    80008b08:	00b5063b          	addw	a2,a0,a1
    80008b0c:	0ec3b023          	sd	a2,224(t2)
    80008b10:	4afb10b7          	lui	ra,0x4afb1
    80008b14:	cd30809b          	addiw	ra,ra,-813 # 4afb0cd3 <absimmsh+0x3f4dff26>
    80008b18:	00c08463          	beq	ra,a2,80008b20 <inst_560>
    80008b1c:	d08f706f          	j	80000024 <rvtest_error>

0000000080008b20 <inst_560>:
    80008b20:	00600513          	li	a0,6
    80008b24:	000005b7          	lui	a1,0x0
    80008b28:	00058593          	mv	a1,a1
    80008b2c:	00b59593          	slli	a1,a1,0xb
    80008b30:	5a858593          	addi	a1,a1,1448 # 5a8 <offset+0x110>
    80008b34:	00b59593          	slli	a1,a1,0xb
    80008b38:	13c58593          	addi	a1,a1,316
    80008b3c:	00a59593          	slli	a1,a1,0xa
    80008b40:	33358593          	addi	a1,a1,819
    80008b44:	00b5063b          	addw	a2,a0,a1
    80008b48:	0ec3b423          	sd	a2,232(t2)
    80008b4c:	b504f0b7          	lui	ra,0xb504f
    80008b50:	3390809b          	addiw	ra,ra,825 # ffffffffb504f339 <absimm+0xfffffffefa341869>
    80008b54:	00c08463          	beq	ra,a2,80008b5c <inst_561>
    80008b58:	cccf706f          	j	80000024 <rvtest_error>

0000000080008b5c <inst_561>:
    80008b5c:	00600513          	li	a0,6
    80008b60:	00200593          	li	a1,2
    80008b64:	00b5063b          	addw	a2,a0,a1
    80008b68:	0ec3b823          	sd	a2,240(t2)
    80008b6c:	00800093          	li	ra,8
    80008b70:	00c08463          	beq	ra,a2,80008b78 <inst_562>
    80008b74:	cb0f706f          	j	80000024 <rvtest_error>

0000000080008b78 <inst_562>:
    80008b78:	00600513          	li	a0,6
    80008b7c:	555555b7          	lui	a1,0x55555
    80008b80:	55558593          	addi	a1,a1,1365 # 55555555 <absimmsh+0x49a847a8>
    80008b84:	00b59593          	slli	a1,a1,0xb
    80008b88:	2aa58593          	addi	a1,a1,682
    80008b8c:	00b59593          	slli	a1,a1,0xb
    80008b90:	55558593          	addi	a1,a1,1365
    80008b94:	00a59593          	slli	a1,a1,0xa
    80008b98:	15458593          	addi	a1,a1,340
    80008b9c:	00b5063b          	addw	a2,a0,a1
    80008ba0:	0ec3bc23          	sd	a2,248(t2)
    80008ba4:	555550b7          	lui	ra,0x55555
    80008ba8:	55a0809b          	addiw	ra,ra,1370 # 5555555a <absimmsh+0x49a847ad>
    80008bac:	00c08463          	beq	ra,a2,80008bb4 <inst_563>
    80008bb0:	c74f706f          	j	80000024 <rvtest_error>

0000000080008bb4 <inst_563>:
    80008bb4:	00600513          	li	a0,6
    80008bb8:	00000593          	li	a1,0
    80008bbc:	00b5063b          	addw	a2,a0,a1
    80008bc0:	10c3b023          	sd	a2,256(t2)
    80008bc4:	00600093          	li	ra,6
    80008bc8:	00c08463          	beq	ra,a2,80008bd0 <inst_564>
    80008bcc:	c58f706f          	j	80000024 <rvtest_error>

0000000080008bd0 <inst_564>:
    80008bd0:	00600513          	li	a0,6
    80008bd4:	00400593          	li	a1,4
    80008bd8:	00b5063b          	addw	a2,a0,a1
    80008bdc:	10c3b423          	sd	a2,264(t2)
    80008be0:	00a00093          	li	ra,10
    80008be4:	00c08463          	beq	ra,a2,80008bec <inst_565>
    80008be8:	c3cf706f          	j	80000024 <rvtest_error>

0000000080008bec <inst_565>:
    80008bec:	00600513          	li	a0,6
    80008bf0:	333335b7          	lui	a1,0x33333
    80008bf4:	33358593          	addi	a1,a1,819 # 33333333 <absimmsh+0x27862586>
    80008bf8:	00b59593          	slli	a1,a1,0xb
    80008bfc:	19958593          	addi	a1,a1,409
    80008c00:	00b59593          	slli	a1,a1,0xb
    80008c04:	4cc58593          	addi	a1,a1,1228
    80008c08:	00a59593          	slli	a1,a1,0xa
    80008c0c:	33258593          	addi	a1,a1,818
    80008c10:	00b5063b          	addw	a2,a0,a1
    80008c14:	10c3b823          	sd	a2,272(t2)
    80008c18:	333330b7          	lui	ra,0x33333
    80008c1c:	3380809b          	addiw	ra,ra,824 # 33333338 <absimmsh+0x2786258b>
    80008c20:	00c08463          	beq	ra,a2,80008c28 <inst_566>
    80008c24:	c00f706f          	j	80000024 <rvtest_error>

0000000080008c28 <inst_566>:
    80008c28:	00600513          	li	a0,6
    80008c2c:	666665b7          	lui	a1,0x66666
    80008c30:	66658593          	addi	a1,a1,1638 # 66666666 <absimmsh+0x5ab958b9>
    80008c34:	00b59593          	slli	a1,a1,0xb
    80008c38:	33358593          	addi	a1,a1,819
    80008c3c:	00b59593          	slli	a1,a1,0xb
    80008c40:	19958593          	addi	a1,a1,409
    80008c44:	00a59593          	slli	a1,a1,0xa
    80008c48:	26558593          	addi	a1,a1,613
    80008c4c:	00b5063b          	addw	a2,a0,a1
    80008c50:	10c3bc23          	sd	a2,280(t2)
    80008c54:	666660b7          	lui	ra,0x66666
    80008c58:	66b0809b          	addiw	ra,ra,1643 # 6666666b <absimmsh+0x5ab958be>
    80008c5c:	00c08463          	beq	ra,a2,80008c64 <inst_567>
    80008c60:	bc4f706f          	j	80000024 <rvtest_error>

0000000080008c64 <inst_567>:
    80008c64:	00600513          	li	a0,6
    80008c68:	000005b7          	lui	a1,0x0
    80008c6c:	00058593          	mv	a1,a1
    80008c70:	00b59593          	slli	a1,a1,0xb
    80008c74:	5a858593          	addi	a1,a1,1448 # 5a8 <offset+0x110>
    80008c78:	00b59593          	slli	a1,a1,0xb
    80008c7c:	13c58593          	addi	a1,a1,316
    80008c80:	00a59593          	slli	a1,a1,0xa
    80008c84:	33258593          	addi	a1,a1,818
    80008c88:	00b5063b          	addw	a2,a0,a1
    80008c8c:	12c3b023          	sd	a2,288(t2)
    80008c90:	b504f0b7          	lui	ra,0xb504f
    80008c94:	3380809b          	addiw	ra,ra,824 # ffffffffb504f338 <absimm+0xfffffffefa341868>
    80008c98:	00c08463          	beq	ra,a2,80008ca0 <inst_568>
    80008c9c:	b88f706f          	j	80000024 <rvtest_error>

0000000080008ca0 <inst_568>:
    80008ca0:	00600513          	li	a0,6
    80008ca4:	555555b7          	lui	a1,0x55555
    80008ca8:	55558593          	addi	a1,a1,1365 # 55555555 <absimmsh+0x49a847a8>
    80008cac:	00b59593          	slli	a1,a1,0xb
    80008cb0:	2aa58593          	addi	a1,a1,682
    80008cb4:	00b59593          	slli	a1,a1,0xb
    80008cb8:	55558593          	addi	a1,a1,1365
    80008cbc:	00a59593          	slli	a1,a1,0xa
    80008cc0:	15658593          	addi	a1,a1,342
    80008cc4:	00b5063b          	addw	a2,a0,a1
    80008cc8:	12c3b423          	sd	a2,296(t2)
    80008ccc:	555550b7          	lui	ra,0x55555
    80008cd0:	55c0809b          	addiw	ra,ra,1372 # 5555555c <absimmsh+0x49a847af>
    80008cd4:	00c08463          	beq	ra,a2,80008cdc <inst_569>
    80008cd8:	b4cf706f          	j	80000024 <rvtest_error>

0000000080008cdc <inst_569>:
    80008cdc:	00600513          	li	a0,6
    80008ce0:	aaaab5b7          	lui	a1,0xaaaab
    80008ce4:	aaa58593          	addi	a1,a1,-1366 # ffffffffaaaaaaaa <absimm+0xfffffffeefd9cfda>
    80008ce8:	00b59593          	slli	a1,a1,0xb
    80008cec:	55558593          	addi	a1,a1,1365
    80008cf0:	00b59593          	slli	a1,a1,0xb
    80008cf4:	2aa58593          	addi	a1,a1,682
    80008cf8:	00a59593          	slli	a1,a1,0xa
    80008cfc:	2ab58593          	addi	a1,a1,683
    80008d00:	00b5063b          	addw	a2,a0,a1
    80008d04:	12c3b823          	sd	a2,304(t2)
    80008d08:	aaaab0b7          	lui	ra,0xaaaab
    80008d0c:	ab10809b          	addiw	ra,ra,-1359 # ffffffffaaaaaab1 <absimm+0xfffffffeefd9cfe1>
    80008d10:	00c08463          	beq	ra,a2,80008d18 <inst_570>
    80008d14:	b10f706f          	j	80000024 <rvtest_error>

0000000080008d18 <inst_570>:
    80008d18:	00600513          	li	a0,6
    80008d1c:	00600593          	li	a1,6
    80008d20:	00b5063b          	addw	a2,a0,a1
    80008d24:	12c3bc23          	sd	a2,312(t2)
    80008d28:	00c00093          	li	ra,12
    80008d2c:	00c08463          	beq	ra,a2,80008d34 <inst_571>
    80008d30:	af4f706f          	j	80000024 <rvtest_error>

0000000080008d34 <inst_571>:
    80008d34:	00600513          	li	a0,6
    80008d38:	333335b7          	lui	a1,0x33333
    80008d3c:	33358593          	addi	a1,a1,819 # 33333333 <absimmsh+0x27862586>
    80008d40:	00b59593          	slli	a1,a1,0xb
    80008d44:	19958593          	addi	a1,a1,409
    80008d48:	00b59593          	slli	a1,a1,0xb
    80008d4c:	4cc58593          	addi	a1,a1,1228
    80008d50:	00a59593          	slli	a1,a1,0xa
    80008d54:	33458593          	addi	a1,a1,820
    80008d58:	00b5063b          	addw	a2,a0,a1
    80008d5c:	14c3b023          	sd	a2,320(t2)
    80008d60:	333330b7          	lui	ra,0x33333
    80008d64:	33a0809b          	addiw	ra,ra,826 # 3333333a <absimmsh+0x2786258d>
    80008d68:	00c08463          	beq	ra,a2,80008d70 <inst_572>
    80008d6c:	ab8f706f          	j	80000024 <rvtest_error>

0000000080008d70 <inst_572>:
    80008d70:	00600513          	li	a0,6
    80008d74:	666665b7          	lui	a1,0x66666
    80008d78:	66658593          	addi	a1,a1,1638 # 66666666 <absimmsh+0x5ab958b9>
    80008d7c:	00b59593          	slli	a1,a1,0xb
    80008d80:	33358593          	addi	a1,a1,819
    80008d84:	00b59593          	slli	a1,a1,0xb
    80008d88:	19958593          	addi	a1,a1,409
    80008d8c:	00a59593          	slli	a1,a1,0xa
    80008d90:	26758593          	addi	a1,a1,615
    80008d94:	00b5063b          	addw	a2,a0,a1
    80008d98:	14c3b423          	sd	a2,328(t2)
    80008d9c:	666660b7          	lui	ra,0x66666
    80008da0:	66d0809b          	addiw	ra,ra,1645 # 6666666d <absimmsh+0x5ab958c0>
    80008da4:	00c08463          	beq	ra,a2,80008dac <inst_573>
    80008da8:	a7cf706f          	j	80000024 <rvtest_error>

0000000080008dac <inst_573>:
    80008dac:	00600513          	li	a0,6
    80008db0:	000005b7          	lui	a1,0x0
    80008db4:	fff58593          	addi	a1,a1,-1
    80008db8:	00b59593          	slli	a1,a1,0xb
    80008dbc:	25758593          	addi	a1,a1,599
    80008dc0:	00b59593          	slli	a1,a1,0xb
    80008dc4:	6c358593          	addi	a1,a1,1731
    80008dc8:	00a59593          	slli	a1,a1,0xa
    80008dcc:	0ce58593          	addi	a1,a1,206
    80008dd0:	00b5063b          	addw	a2,a0,a1
    80008dd4:	14c3b823          	sd	a2,336(t2)
    80008dd8:	4afb10b7          	lui	ra,0x4afb1
    80008ddc:	cd40809b          	addiw	ra,ra,-812 # 4afb0cd4 <absimmsh+0x3f4dff27>
    80008de0:	00c08463          	beq	ra,a2,80008de8 <inst_574>
    80008de4:	a40f706f          	j	80000024 <rvtest_error>

0000000080008de8 <inst_574>:
    80008de8:	00600513          	li	a0,6
    80008dec:	000005b7          	lui	a1,0x0
    80008df0:	00058593          	mv	a1,a1
    80008df4:	00b59593          	slli	a1,a1,0xb
    80008df8:	5a858593          	addi	a1,a1,1448 # 5a8 <offset+0x110>
    80008dfc:	00b59593          	slli	a1,a1,0xb
    80008e00:	13c58593          	addi	a1,a1,316
    80008e04:	00a59593          	slli	a1,a1,0xa
    80008e08:	33458593          	addi	a1,a1,820
    80008e0c:	00b5063b          	addw	a2,a0,a1
    80008e10:	14c3bc23          	sd	a2,344(t2)
    80008e14:	b504f0b7          	lui	ra,0xb504f
    80008e18:	33a0809b          	addiw	ra,ra,826 # ffffffffb504f33a <absimm+0xfffffffefa34186a>
    80008e1c:	00c08463          	beq	ra,a2,80008e24 <inst_575>
    80008e20:	a04f706f          	j	80000024 <rvtest_error>

0000000080008e24 <inst_575>:
    80008e24:	33333537          	lui	a0,0x33333
    80008e28:	33350513          	addi	a0,a0,819 # 33333333 <absimmsh+0x27862586>
    80008e2c:	00b51513          	slli	a0,a0,0xb
    80008e30:	19950513          	addi	a0,a0,409
    80008e34:	00b51513          	slli	a0,a0,0xb
    80008e38:	4cc50513          	addi	a0,a0,1228
    80008e3c:	00a51513          	slli	a0,a0,0xa
    80008e40:	33450513          	addi	a0,a0,820
    80008e44:	00300593          	li	a1,3
    80008e48:	00b5063b          	addw	a2,a0,a1
    80008e4c:	16c3b023          	sd	a2,352(t2)
    80008e50:	333330b7          	lui	ra,0x33333
    80008e54:	3370809b          	addiw	ra,ra,823 # 33333337 <absimmsh+0x2786258a>
    80008e58:	00c08463          	beq	ra,a2,80008e60 <inst_576>
    80008e5c:	9c8f706f          	j	80000024 <rvtest_error>

0000000080008e60 <inst_576>:
    80008e60:	33333537          	lui	a0,0x33333
    80008e64:	33350513          	addi	a0,a0,819 # 33333333 <absimmsh+0x27862586>
    80008e68:	00b51513          	slli	a0,a0,0xb
    80008e6c:	19950513          	addi	a0,a0,409
    80008e70:	00b51513          	slli	a0,a0,0xb
    80008e74:	4cc50513          	addi	a0,a0,1228
    80008e78:	00a51513          	slli	a0,a0,0xa
    80008e7c:	33450513          	addi	a0,a0,820
    80008e80:	555555b7          	lui	a1,0x55555
    80008e84:	55558593          	addi	a1,a1,1365 # 55555555 <absimmsh+0x49a847a8>
    80008e88:	00b59593          	slli	a1,a1,0xb
    80008e8c:	2aa58593          	addi	a1,a1,682
    80008e90:	00b59593          	slli	a1,a1,0xb
    80008e94:	55558593          	addi	a1,a1,1365
    80008e98:	00a59593          	slli	a1,a1,0xa
    80008e9c:	15558593          	addi	a1,a1,341
    80008ea0:	00b5063b          	addw	a2,a0,a1
    80008ea4:	16c3b423          	sd	a2,360(t2)
    80008ea8:	888890b7          	lui	ra,0x88889
    80008eac:	8890809b          	addiw	ra,ra,-1911 # ffffffff88888889 <absimm+0xfffffffecdb7adb9>
    80008eb0:	00c08463          	beq	ra,a2,80008eb8 <inst_577>
    80008eb4:	970f706f          	j	80000024 <rvtest_error>

0000000080008eb8 <inst_577>:
    80008eb8:	33333537          	lui	a0,0x33333
    80008ebc:	33350513          	addi	a0,a0,819 # 33333333 <absimmsh+0x27862586>
    80008ec0:	00b51513          	slli	a0,a0,0xb
    80008ec4:	19950513          	addi	a0,a0,409
    80008ec8:	00b51513          	slli	a0,a0,0xb
    80008ecc:	4cc50513          	addi	a0,a0,1228
    80008ed0:	00a51513          	slli	a0,a0,0xa
    80008ed4:	33450513          	addi	a0,a0,820
    80008ed8:	aaaab5b7          	lui	a1,0xaaaab
    80008edc:	aaa58593          	addi	a1,a1,-1366 # ffffffffaaaaaaaa <absimm+0xfffffffeefd9cfda>
    80008ee0:	00b59593          	slli	a1,a1,0xb
    80008ee4:	55558593          	addi	a1,a1,1365
    80008ee8:	00b59593          	slli	a1,a1,0xb
    80008eec:	2aa58593          	addi	a1,a1,682
    80008ef0:	00a59593          	slli	a1,a1,0xa
    80008ef4:	2aa58593          	addi	a1,a1,682
    80008ef8:	00b5063b          	addw	a2,a0,a1
    80008efc:	16c3b823          	sd	a2,368(t2)
    80008f00:	dddde0b7          	lui	ra,0xdddde
    80008f04:	dde0809b          	addiw	ra,ra,-546 # ffffffffddddddde <absimm+0xffffffff230d030e>
    80008f08:	00c08463          	beq	ra,a2,80008f10 <inst_578>
    80008f0c:	918f706f          	j	80000024 <rvtest_error>

0000000080008f10 <inst_578>:
    80008f10:	33333537          	lui	a0,0x33333
    80008f14:	33350513          	addi	a0,a0,819 # 33333333 <absimmsh+0x27862586>
    80008f18:	00b51513          	slli	a0,a0,0xb
    80008f1c:	19950513          	addi	a0,a0,409
    80008f20:	00b51513          	slli	a0,a0,0xb
    80008f24:	4cc50513          	addi	a0,a0,1228
    80008f28:	00a51513          	slli	a0,a0,0xa
    80008f2c:	33450513          	addi	a0,a0,820
    80008f30:	00500593          	li	a1,5
    80008f34:	00b5063b          	addw	a2,a0,a1
    80008f38:	16c3bc23          	sd	a2,376(t2)
    80008f3c:	333330b7          	lui	ra,0x33333
    80008f40:	3390809b          	addiw	ra,ra,825 # 33333339 <absimmsh+0x2786258c>
    80008f44:	00c08463          	beq	ra,a2,80008f4c <inst_579>
    80008f48:	8dcf706f          	j	80000024 <rvtest_error>

0000000080008f4c <inst_579>:
    80008f4c:	33333537          	lui	a0,0x33333
    80008f50:	33350513          	addi	a0,a0,819 # 33333333 <absimmsh+0x27862586>
    80008f54:	00b51513          	slli	a0,a0,0xb
    80008f58:	19950513          	addi	a0,a0,409
    80008f5c:	00b51513          	slli	a0,a0,0xb
    80008f60:	4cc50513          	addi	a0,a0,1228
    80008f64:	00a51513          	slli	a0,a0,0xa
    80008f68:	33450513          	addi	a0,a0,820
    80008f6c:	333335b7          	lui	a1,0x33333
    80008f70:	33358593          	addi	a1,a1,819 # 33333333 <absimmsh+0x27862586>
    80008f74:	00b59593          	slli	a1,a1,0xb
    80008f78:	19958593          	addi	a1,a1,409
    80008f7c:	00b59593          	slli	a1,a1,0xb
    80008f80:	4cc58593          	addi	a1,a1,1228
    80008f84:	00a59593          	slli	a1,a1,0xa
    80008f88:	33358593          	addi	a1,a1,819
    80008f8c:	00b5063b          	addw	a2,a0,a1
    80008f90:	18c3b023          	sd	a2,384(t2)
    80008f94:	666660b7          	lui	ra,0x66666
    80008f98:	6670809b          	addiw	ra,ra,1639 # 66666667 <absimmsh+0x5ab958ba>
    80008f9c:	00c08463          	beq	ra,a2,80008fa4 <inst_580>
    80008fa0:	884f706f          	j	80000024 <rvtest_error>

0000000080008fa4 <inst_580>:
    80008fa4:	33333537          	lui	a0,0x33333
    80008fa8:	33350513          	addi	a0,a0,819 # 33333333 <absimmsh+0x27862586>
    80008fac:	00b51513          	slli	a0,a0,0xb
    80008fb0:	19950513          	addi	a0,a0,409
    80008fb4:	00b51513          	slli	a0,a0,0xb
    80008fb8:	4cc50513          	addi	a0,a0,1228
    80008fbc:	00a51513          	slli	a0,a0,0xa
    80008fc0:	33450513          	addi	a0,a0,820
    80008fc4:	666665b7          	lui	a1,0x66666
    80008fc8:	66658593          	addi	a1,a1,1638 # 66666666 <absimmsh+0x5ab958b9>
    80008fcc:	00b59593          	slli	a1,a1,0xb
    80008fd0:	33358593          	addi	a1,a1,819
    80008fd4:	00b59593          	slli	a1,a1,0xb
    80008fd8:	19958593          	addi	a1,a1,409
    80008fdc:	00a59593          	slli	a1,a1,0xa
    80008fe0:	26658593          	addi	a1,a1,614
    80008fe4:	00b5063b          	addw	a2,a0,a1
    80008fe8:	18c3b423          	sd	a2,392(t2)
    80008fec:	9999a0b7          	lui	ra,0x9999a
    80008ff0:	99a0809b          	addiw	ra,ra,-1638 # ffffffff9999999a <absimm+0xfffffffedec8beca>
    80008ff4:	00c08463          	beq	ra,a2,80008ffc <inst_581>
    80008ff8:	82cf706f          	j	80000024 <rvtest_error>

0000000080008ffc <inst_581>:
    80008ffc:	33333537          	lui	a0,0x33333
    80009000:	33350513          	addi	a0,a0,819 # 33333333 <absimmsh+0x27862586>
    80009004:	00b51513          	slli	a0,a0,0xb
    80009008:	19950513          	addi	a0,a0,409
    8000900c:	00b51513          	slli	a0,a0,0xb
    80009010:	4cc50513          	addi	a0,a0,1228
    80009014:	00a51513          	slli	a0,a0,0xa
    80009018:	33450513          	addi	a0,a0,820
    8000901c:	000005b7          	lui	a1,0x0
    80009020:	fff58593          	addi	a1,a1,-1
    80009024:	00b59593          	slli	a1,a1,0xb
    80009028:	25758593          	addi	a1,a1,599
    8000902c:	00b59593          	slli	a1,a1,0xb
    80009030:	6c358593          	addi	a1,a1,1731
    80009034:	00a59593          	slli	a1,a1,0xa
    80009038:	0cd58593          	addi	a1,a1,205
    8000903c:	00b5063b          	addw	a2,a0,a1
    80009040:	18c3b823          	sd	a2,400(t2)
    80009044:	7e2e40b7          	lui	ra,0x7e2e4
    80009048:	0010809b          	addiw	ra,ra,1 # 7e2e4001 <absimmsh+0x72813254>
    8000904c:	00c08463          	beq	ra,a2,80009054 <inst_582>
    80009050:	fd5f606f          	j	80000024 <rvtest_error>

0000000080009054 <inst_582>:
    80009054:	33333537          	lui	a0,0x33333
    80009058:	33350513          	addi	a0,a0,819 # 33333333 <absimmsh+0x27862586>
    8000905c:	00b51513          	slli	a0,a0,0xb
    80009060:	19950513          	addi	a0,a0,409
    80009064:	00b51513          	slli	a0,a0,0xb
    80009068:	4cc50513          	addi	a0,a0,1228
    8000906c:	00a51513          	slli	a0,a0,0xa
    80009070:	33450513          	addi	a0,a0,820
    80009074:	000005b7          	lui	a1,0x0
    80009078:	00058593          	mv	a1,a1
    8000907c:	00b59593          	slli	a1,a1,0xb
    80009080:	5a858593          	addi	a1,a1,1448 # 5a8 <offset+0x110>
    80009084:	00b59593          	slli	a1,a1,0xb
    80009088:	13c58593          	addi	a1,a1,316
    8000908c:	00a59593          	slli	a1,a1,0xa
    80009090:	33358593          	addi	a1,a1,819
    80009094:	00b5063b          	addw	a2,a0,a1
    80009098:	18c3bc23          	sd	a2,408(t2)
    8000909c:	e83820b7          	lui	ra,0xe8382
    800090a0:	6670809b          	addiw	ra,ra,1639 # ffffffffe8382667 <absimm+0xffffffff2d674b97>
    800090a4:	00c08463          	beq	ra,a2,800090ac <inst_583>
    800090a8:	f7df606f          	j	80000024 <rvtest_error>

00000000800090ac <inst_583>:
    800090ac:	33333537          	lui	a0,0x33333
    800090b0:	33350513          	addi	a0,a0,819 # 33333333 <absimmsh+0x27862586>
    800090b4:	00b51513          	slli	a0,a0,0xb
    800090b8:	19950513          	addi	a0,a0,409
    800090bc:	00b51513          	slli	a0,a0,0xb
    800090c0:	4cc50513          	addi	a0,a0,1228
    800090c4:	00a51513          	slli	a0,a0,0xa
    800090c8:	33450513          	addi	a0,a0,820
    800090cc:	00200593          	li	a1,2
    800090d0:	00b5063b          	addw	a2,a0,a1
    800090d4:	1ac3b023          	sd	a2,416(t2)
    800090d8:	333330b7          	lui	ra,0x33333
    800090dc:	3360809b          	addiw	ra,ra,822 # 33333336 <absimmsh+0x27862589>
    800090e0:	00c08463          	beq	ra,a2,800090e8 <inst_584>
    800090e4:	f41f606f          	j	80000024 <rvtest_error>

00000000800090e8 <inst_584>:
    800090e8:	33333537          	lui	a0,0x33333
    800090ec:	33350513          	addi	a0,a0,819 # 33333333 <absimmsh+0x27862586>
    800090f0:	00b51513          	slli	a0,a0,0xb
    800090f4:	19950513          	addi	a0,a0,409
    800090f8:	00b51513          	slli	a0,a0,0xb
    800090fc:	4cc50513          	addi	a0,a0,1228
    80009100:	00a51513          	slli	a0,a0,0xa
    80009104:	33450513          	addi	a0,a0,820
    80009108:	555555b7          	lui	a1,0x55555
    8000910c:	55558593          	addi	a1,a1,1365 # 55555555 <absimmsh+0x49a847a8>
    80009110:	00b59593          	slli	a1,a1,0xb
    80009114:	2aa58593          	addi	a1,a1,682
    80009118:	00b59593          	slli	a1,a1,0xb
    8000911c:	55558593          	addi	a1,a1,1365
    80009120:	00a59593          	slli	a1,a1,0xa
    80009124:	15458593          	addi	a1,a1,340
    80009128:	00b5063b          	addw	a2,a0,a1
    8000912c:	1ac3b423          	sd	a2,424(t2)
    80009130:	888890b7          	lui	ra,0x88889
    80009134:	8880809b          	addiw	ra,ra,-1912 # ffffffff88888888 <absimm+0xfffffffecdb7adb8>
    80009138:	00c08463          	beq	ra,a2,80009140 <inst_585>
    8000913c:	ee9f606f          	j	80000024 <rvtest_error>

0000000080009140 <inst_585>:
    80009140:	33333537          	lui	a0,0x33333
    80009144:	33350513          	addi	a0,a0,819 # 33333333 <absimmsh+0x27862586>
    80009148:	00b51513          	slli	a0,a0,0xb
    8000914c:	19950513          	addi	a0,a0,409
    80009150:	00b51513          	slli	a0,a0,0xb
    80009154:	4cc50513          	addi	a0,a0,1228
    80009158:	00a51513          	slli	a0,a0,0xa
    8000915c:	33450513          	addi	a0,a0,820
    80009160:	00000593          	li	a1,0
    80009164:	00b5063b          	addw	a2,a0,a1
    80009168:	1ac3b823          	sd	a2,432(t2)
    8000916c:	333330b7          	lui	ra,0x33333
    80009170:	3340809b          	addiw	ra,ra,820 # 33333334 <absimmsh+0x27862587>
    80009174:	00c08463          	beq	ra,a2,8000917c <inst_586>
    80009178:	eadf606f          	j	80000024 <rvtest_error>

000000008000917c <inst_586>:
    8000917c:	33333537          	lui	a0,0x33333
    80009180:	33350513          	addi	a0,a0,819 # 33333333 <absimmsh+0x27862586>
    80009184:	00b51513          	slli	a0,a0,0xb
    80009188:	19950513          	addi	a0,a0,409
    8000918c:	00b51513          	slli	a0,a0,0xb
    80009190:	4cc50513          	addi	a0,a0,1228
    80009194:	00a51513          	slli	a0,a0,0xa
    80009198:	33450513          	addi	a0,a0,820
    8000919c:	00400593          	li	a1,4
    800091a0:	00b5063b          	addw	a2,a0,a1
    800091a4:	1ac3bc23          	sd	a2,440(t2)
    800091a8:	333330b7          	lui	ra,0x33333
    800091ac:	3380809b          	addiw	ra,ra,824 # 33333338 <absimmsh+0x2786258b>
    800091b0:	00c08463          	beq	ra,a2,800091b8 <inst_587>
    800091b4:	e71f606f          	j	80000024 <rvtest_error>

00000000800091b8 <inst_587>:
    800091b8:	33333537          	lui	a0,0x33333
    800091bc:	33350513          	addi	a0,a0,819 # 33333333 <absimmsh+0x27862586>
    800091c0:	00b51513          	slli	a0,a0,0xb
    800091c4:	19950513          	addi	a0,a0,409
    800091c8:	00b51513          	slli	a0,a0,0xb
    800091cc:	4cc50513          	addi	a0,a0,1228
    800091d0:	00a51513          	slli	a0,a0,0xa
    800091d4:	33450513          	addi	a0,a0,820
    800091d8:	333335b7          	lui	a1,0x33333
    800091dc:	33358593          	addi	a1,a1,819 # 33333333 <absimmsh+0x27862586>
    800091e0:	00b59593          	slli	a1,a1,0xb
    800091e4:	19958593          	addi	a1,a1,409
    800091e8:	00b59593          	slli	a1,a1,0xb
    800091ec:	4cc58593          	addi	a1,a1,1228
    800091f0:	00a59593          	slli	a1,a1,0xa
    800091f4:	33258593          	addi	a1,a1,818
    800091f8:	00b5063b          	addw	a2,a0,a1
    800091fc:	1cc3b023          	sd	a2,448(t2)
    80009200:	666660b7          	lui	ra,0x66666
    80009204:	6660809b          	addiw	ra,ra,1638 # 66666666 <absimmsh+0x5ab958b9>
    80009208:	00c08463          	beq	ra,a2,80009210 <inst_588>
    8000920c:	e19f606f          	j	80000024 <rvtest_error>

0000000080009210 <inst_588>:
    80009210:	33333537          	lui	a0,0x33333
    80009214:	33350513          	addi	a0,a0,819 # 33333333 <absimmsh+0x27862586>
    80009218:	00b51513          	slli	a0,a0,0xb
    8000921c:	19950513          	addi	a0,a0,409
    80009220:	00b51513          	slli	a0,a0,0xb
    80009224:	4cc50513          	addi	a0,a0,1228
    80009228:	00a51513          	slli	a0,a0,0xa
    8000922c:	33450513          	addi	a0,a0,820
    80009230:	666665b7          	lui	a1,0x66666
    80009234:	66658593          	addi	a1,a1,1638 # 66666666 <absimmsh+0x5ab958b9>
    80009238:	00b59593          	slli	a1,a1,0xb
    8000923c:	33358593          	addi	a1,a1,819
    80009240:	00b59593          	slli	a1,a1,0xb
    80009244:	19958593          	addi	a1,a1,409
    80009248:	00a59593          	slli	a1,a1,0xa
    8000924c:	26558593          	addi	a1,a1,613
    80009250:	00b5063b          	addw	a2,a0,a1
    80009254:	1cc3b423          	sd	a2,456(t2)
    80009258:	9999a0b7          	lui	ra,0x9999a
    8000925c:	9990809b          	addiw	ra,ra,-1639 # ffffffff99999999 <absimm+0xfffffffedec8bec9>
    80009260:	00c08463          	beq	ra,a2,80009268 <inst_589>
    80009264:	dc1f606f          	j	80000024 <rvtest_error>

0000000080009268 <inst_589>:
    80009268:	33333537          	lui	a0,0x33333
    8000926c:	33350513          	addi	a0,a0,819 # 33333333 <absimmsh+0x27862586>
    80009270:	00b51513          	slli	a0,a0,0xb
    80009274:	19950513          	addi	a0,a0,409
    80009278:	00b51513          	slli	a0,a0,0xb
    8000927c:	4cc50513          	addi	a0,a0,1228
    80009280:	00a51513          	slli	a0,a0,0xa
    80009284:	33450513          	addi	a0,a0,820
    80009288:	000005b7          	lui	a1,0x0
    8000928c:	00058593          	mv	a1,a1
    80009290:	00b59593          	slli	a1,a1,0xb
    80009294:	5a858593          	addi	a1,a1,1448 # 5a8 <offset+0x110>
    80009298:	00b59593          	slli	a1,a1,0xb
    8000929c:	13c58593          	addi	a1,a1,316
    800092a0:	00a59593          	slli	a1,a1,0xa
    800092a4:	33258593          	addi	a1,a1,818
    800092a8:	00b5063b          	addw	a2,a0,a1
    800092ac:	1cc3b823          	sd	a2,464(t2)
    800092b0:	e83820b7          	lui	ra,0xe8382
    800092b4:	6660809b          	addiw	ra,ra,1638 # ffffffffe8382666 <absimm+0xffffffff2d674b96>
    800092b8:	00c08463          	beq	ra,a2,800092c0 <inst_590>
    800092bc:	d69f606f          	j	80000024 <rvtest_error>

00000000800092c0 <inst_590>:
    800092c0:	33333537          	lui	a0,0x33333
    800092c4:	33350513          	addi	a0,a0,819 # 33333333 <absimmsh+0x27862586>
    800092c8:	00b51513          	slli	a0,a0,0xb
    800092cc:	19950513          	addi	a0,a0,409
    800092d0:	00b51513          	slli	a0,a0,0xb
    800092d4:	4cc50513          	addi	a0,a0,1228
    800092d8:	00a51513          	slli	a0,a0,0xa
    800092dc:	33450513          	addi	a0,a0,820
    800092e0:	555555b7          	lui	a1,0x55555
    800092e4:	55558593          	addi	a1,a1,1365 # 55555555 <absimmsh+0x49a847a8>
    800092e8:	00b59593          	slli	a1,a1,0xb
    800092ec:	2aa58593          	addi	a1,a1,682
    800092f0:	00b59593          	slli	a1,a1,0xb
    800092f4:	55558593          	addi	a1,a1,1365
    800092f8:	00a59593          	slli	a1,a1,0xa
    800092fc:	15658593          	addi	a1,a1,342
    80009300:	00b5063b          	addw	a2,a0,a1
    80009304:	1cc3bc23          	sd	a2,472(t2)
    80009308:	888890b7          	lui	ra,0x88889
    8000930c:	88a0809b          	addiw	ra,ra,-1910 # ffffffff8888888a <absimm+0xfffffffecdb7adba>
    80009310:	00c08463          	beq	ra,a2,80009318 <inst_591>
    80009314:	d11f606f          	j	80000024 <rvtest_error>

0000000080009318 <inst_591>:
    80009318:	33333537          	lui	a0,0x33333
    8000931c:	33350513          	addi	a0,a0,819 # 33333333 <absimmsh+0x27862586>
    80009320:	00b51513          	slli	a0,a0,0xb
    80009324:	19950513          	addi	a0,a0,409
    80009328:	00b51513          	slli	a0,a0,0xb
    8000932c:	4cc50513          	addi	a0,a0,1228
    80009330:	00a51513          	slli	a0,a0,0xa
    80009334:	33450513          	addi	a0,a0,820
    80009338:	aaaab5b7          	lui	a1,0xaaaab
    8000933c:	aaa58593          	addi	a1,a1,-1366 # ffffffffaaaaaaaa <absimm+0xfffffffeefd9cfda>
    80009340:	00b59593          	slli	a1,a1,0xb
    80009344:	55558593          	addi	a1,a1,1365
    80009348:	00b59593          	slli	a1,a1,0xb
    8000934c:	2aa58593          	addi	a1,a1,682
    80009350:	00a59593          	slli	a1,a1,0xa
    80009354:	2ab58593          	addi	a1,a1,683
    80009358:	00b5063b          	addw	a2,a0,a1
    8000935c:	1ec3b023          	sd	a2,480(t2)
    80009360:	dddde0b7          	lui	ra,0xdddde
    80009364:	ddf0809b          	addiw	ra,ra,-545 # ffffffffdddddddf <absimm+0xffffffff230d030f>
    80009368:	00c08463          	beq	ra,a2,80009370 <inst_592>
    8000936c:	cb9f606f          	j	80000024 <rvtest_error>

0000000080009370 <inst_592>:
    80009370:	33333537          	lui	a0,0x33333
    80009374:	33350513          	addi	a0,a0,819 # 33333333 <absimmsh+0x27862586>
    80009378:	00b51513          	slli	a0,a0,0xb
    8000937c:	19950513          	addi	a0,a0,409
    80009380:	00b51513          	slli	a0,a0,0xb
    80009384:	4cc50513          	addi	a0,a0,1228
    80009388:	00a51513          	slli	a0,a0,0xa
    8000938c:	33450513          	addi	a0,a0,820
    80009390:	00600593          	li	a1,6
    80009394:	00b5063b          	addw	a2,a0,a1
    80009398:	1ec3b423          	sd	a2,488(t2)
    8000939c:	333330b7          	lui	ra,0x33333
    800093a0:	33a0809b          	addiw	ra,ra,826 # 3333333a <absimmsh+0x2786258d>
    800093a4:	00c08463          	beq	ra,a2,800093ac <inst_593>
    800093a8:	c7df606f          	j	80000024 <rvtest_error>

00000000800093ac <inst_593>:
    800093ac:	33333537          	lui	a0,0x33333
    800093b0:	33350513          	addi	a0,a0,819 # 33333333 <absimmsh+0x27862586>
    800093b4:	00b51513          	slli	a0,a0,0xb
    800093b8:	19950513          	addi	a0,a0,409
    800093bc:	00b51513          	slli	a0,a0,0xb
    800093c0:	4cc50513          	addi	a0,a0,1228
    800093c4:	00a51513          	slli	a0,a0,0xa
    800093c8:	33450513          	addi	a0,a0,820
    800093cc:	333335b7          	lui	a1,0x33333
    800093d0:	33358593          	addi	a1,a1,819 # 33333333 <absimmsh+0x27862586>
    800093d4:	00b59593          	slli	a1,a1,0xb
    800093d8:	19958593          	addi	a1,a1,409
    800093dc:	00b59593          	slli	a1,a1,0xb
    800093e0:	4cc58593          	addi	a1,a1,1228
    800093e4:	00a59593          	slli	a1,a1,0xa
    800093e8:	33458593          	addi	a1,a1,820
    800093ec:	00b5063b          	addw	a2,a0,a1
    800093f0:	1ec3b823          	sd	a2,496(t2)
    800093f4:	666660b7          	lui	ra,0x66666
    800093f8:	6680809b          	addiw	ra,ra,1640 # 66666668 <absimmsh+0x5ab958bb>
    800093fc:	00c08463          	beq	ra,a2,80009404 <inst_594>
    80009400:	c25f606f          	j	80000024 <rvtest_error>

0000000080009404 <inst_594>:
    80009404:	33333537          	lui	a0,0x33333
    80009408:	33350513          	addi	a0,a0,819 # 33333333 <absimmsh+0x27862586>
    8000940c:	00b51513          	slli	a0,a0,0xb
    80009410:	19950513          	addi	a0,a0,409
    80009414:	00b51513          	slli	a0,a0,0xb
    80009418:	4cc50513          	addi	a0,a0,1228
    8000941c:	00a51513          	slli	a0,a0,0xa
    80009420:	33450513          	addi	a0,a0,820
    80009424:	666665b7          	lui	a1,0x66666
    80009428:	66658593          	addi	a1,a1,1638 # 66666666 <absimmsh+0x5ab958b9>
    8000942c:	00b59593          	slli	a1,a1,0xb
    80009430:	33358593          	addi	a1,a1,819
    80009434:	00b59593          	slli	a1,a1,0xb
    80009438:	19958593          	addi	a1,a1,409
    8000943c:	00a59593          	slli	a1,a1,0xa
    80009440:	26758593          	addi	a1,a1,615
    80009444:	00b5063b          	addw	a2,a0,a1
    80009448:	1ec3bc23          	sd	a2,504(t2)
    8000944c:	9999a0b7          	lui	ra,0x9999a
    80009450:	99b0809b          	addiw	ra,ra,-1637 # ffffffff9999999b <absimm+0xfffffffedec8becb>
    80009454:	00c08463          	beq	ra,a2,8000945c <inst_595>
    80009458:	bcdf606f          	j	80000024 <rvtest_error>

000000008000945c <inst_595>:
    8000945c:	33333537          	lui	a0,0x33333
    80009460:	33350513          	addi	a0,a0,819 # 33333333 <absimmsh+0x27862586>
    80009464:	00b51513          	slli	a0,a0,0xb
    80009468:	19950513          	addi	a0,a0,409
    8000946c:	00b51513          	slli	a0,a0,0xb
    80009470:	4cc50513          	addi	a0,a0,1228
    80009474:	00a51513          	slli	a0,a0,0xa
    80009478:	33450513          	addi	a0,a0,820
    8000947c:	000005b7          	lui	a1,0x0
    80009480:	fff58593          	addi	a1,a1,-1
    80009484:	00b59593          	slli	a1,a1,0xb
    80009488:	25758593          	addi	a1,a1,599
    8000948c:	00b59593          	slli	a1,a1,0xb
    80009490:	6c358593          	addi	a1,a1,1731
    80009494:	00a59593          	slli	a1,a1,0xa
    80009498:	0ce58593          	addi	a1,a1,206
    8000949c:	00b5063b          	addw	a2,a0,a1
    800094a0:	20c3b023          	sd	a2,512(t2)
    800094a4:	7e2e40b7          	lui	ra,0x7e2e4
    800094a8:	0020809b          	addiw	ra,ra,2 # 7e2e4002 <absimmsh+0x72813255>
    800094ac:	00c08463          	beq	ra,a2,800094b4 <inst_596>
    800094b0:	b75f606f          	j	80000024 <rvtest_error>

00000000800094b4 <inst_596>:
    800094b4:	33333537          	lui	a0,0x33333
    800094b8:	33350513          	addi	a0,a0,819 # 33333333 <absimmsh+0x27862586>
    800094bc:	00b51513          	slli	a0,a0,0xb
    800094c0:	19950513          	addi	a0,a0,409
    800094c4:	00b51513          	slli	a0,a0,0xb
    800094c8:	4cc50513          	addi	a0,a0,1228
    800094cc:	00a51513          	slli	a0,a0,0xa
    800094d0:	33450513          	addi	a0,a0,820
    800094d4:	000005b7          	lui	a1,0x0
    800094d8:	00058593          	mv	a1,a1
    800094dc:	00b59593          	slli	a1,a1,0xb
    800094e0:	5a858593          	addi	a1,a1,1448 # 5a8 <offset+0x110>
    800094e4:	00b59593          	slli	a1,a1,0xb
    800094e8:	13c58593          	addi	a1,a1,316
    800094ec:	00a59593          	slli	a1,a1,0xa
    800094f0:	33458593          	addi	a1,a1,820
    800094f4:	00b5063b          	addw	a2,a0,a1
    800094f8:	20c3b423          	sd	a2,520(t2)
    800094fc:	e83820b7          	lui	ra,0xe8382
    80009500:	6680809b          	addiw	ra,ra,1640 # ffffffffe8382668 <absimm+0xffffffff2d674b98>
    80009504:	00c08463          	beq	ra,a2,8000950c <inst_597>
    80009508:	b1df606f          	j	80000024 <rvtest_error>

000000008000950c <inst_597>:
    8000950c:	66666537          	lui	a0,0x66666
    80009510:	66650513          	addi	a0,a0,1638 # 66666666 <absimmsh+0x5ab958b9>
    80009514:	00b51513          	slli	a0,a0,0xb
    80009518:	33350513          	addi	a0,a0,819
    8000951c:	00b51513          	slli	a0,a0,0xb
    80009520:	19950513          	addi	a0,a0,409
    80009524:	00a51513          	slli	a0,a0,0xa
    80009528:	26750513          	addi	a0,a0,615
    8000952c:	00300593          	li	a1,3
    80009530:	00b5063b          	addw	a2,a0,a1
    80009534:	20c3b823          	sd	a2,528(t2)
    80009538:	666660b7          	lui	ra,0x66666
    8000953c:	66a0809b          	addiw	ra,ra,1642 # 6666666a <absimmsh+0x5ab958bd>
    80009540:	00c08463          	beq	ra,a2,80009548 <inst_598>
    80009544:	ae1f606f          	j	80000024 <rvtest_error>

0000000080009548 <inst_598>:
    80009548:	66666537          	lui	a0,0x66666
    8000954c:	66650513          	addi	a0,a0,1638 # 66666666 <absimmsh+0x5ab958b9>
    80009550:	00b51513          	slli	a0,a0,0xb
    80009554:	33350513          	addi	a0,a0,819
    80009558:	00b51513          	slli	a0,a0,0xb
    8000955c:	19950513          	addi	a0,a0,409
    80009560:	00a51513          	slli	a0,a0,0xa
    80009564:	26750513          	addi	a0,a0,615
    80009568:	555555b7          	lui	a1,0x55555
    8000956c:	55558593          	addi	a1,a1,1365 # 55555555 <absimmsh+0x49a847a8>
    80009570:	00b59593          	slli	a1,a1,0xb
    80009574:	2aa58593          	addi	a1,a1,682
    80009578:	00b59593          	slli	a1,a1,0xb
    8000957c:	55558593          	addi	a1,a1,1365
    80009580:	00a59593          	slli	a1,a1,0xa
    80009584:	15558593          	addi	a1,a1,341
    80009588:	00b5063b          	addw	a2,a0,a1
    8000958c:	20c3bc23          	sd	a2,536(t2)
    80009590:	bbbbc0b7          	lui	ra,0xbbbbc
    80009594:	bbc0809b          	addiw	ra,ra,-1092 # ffffffffbbbbbbbc <absimm+0xffffffff00eae0ec>
    80009598:	00c08463          	beq	ra,a2,800095a0 <inst_599>
    8000959c:	a89f606f          	j	80000024 <rvtest_error>

00000000800095a0 <inst_599>:
    800095a0:	66666537          	lui	a0,0x66666
    800095a4:	66650513          	addi	a0,a0,1638 # 66666666 <absimmsh+0x5ab958b9>
    800095a8:	00b51513          	slli	a0,a0,0xb
    800095ac:	33350513          	addi	a0,a0,819
    800095b0:	00b51513          	slli	a0,a0,0xb
    800095b4:	19950513          	addi	a0,a0,409
    800095b8:	00a51513          	slli	a0,a0,0xa
    800095bc:	26750513          	addi	a0,a0,615
    800095c0:	aaaab5b7          	lui	a1,0xaaaab
    800095c4:	aaa58593          	addi	a1,a1,-1366 # ffffffffaaaaaaaa <absimm+0xfffffffeefd9cfda>
    800095c8:	00b59593          	slli	a1,a1,0xb
    800095cc:	55558593          	addi	a1,a1,1365
    800095d0:	00b59593          	slli	a1,a1,0xb
    800095d4:	2aa58593          	addi	a1,a1,682
    800095d8:	00a59593          	slli	a1,a1,0xa
    800095dc:	2aa58593          	addi	a1,a1,682
    800095e0:	00b5063b          	addw	a2,a0,a1
    800095e4:	22c3b023          	sd	a2,544(t2)
    800095e8:	111110b7          	lui	ra,0x11111
    800095ec:	1110809b          	addiw	ra,ra,273 # 11111111 <absimmsh+0x5640364>
    800095f0:	00c08463          	beq	ra,a2,800095f8 <inst_600>
    800095f4:	a31f606f          	j	80000024 <rvtest_error>

00000000800095f8 <inst_600>:
    800095f8:	66666537          	lui	a0,0x66666
    800095fc:	66650513          	addi	a0,a0,1638 # 66666666 <absimmsh+0x5ab958b9>
    80009600:	00b51513          	slli	a0,a0,0xb
    80009604:	33350513          	addi	a0,a0,819
    80009608:	00b51513          	slli	a0,a0,0xb
    8000960c:	19950513          	addi	a0,a0,409
    80009610:	00a51513          	slli	a0,a0,0xa
    80009614:	26750513          	addi	a0,a0,615
    80009618:	00500593          	li	a1,5
    8000961c:	00b5063b          	addw	a2,a0,a1
    80009620:	22c3b423          	sd	a2,552(t2)
    80009624:	666660b7          	lui	ra,0x66666
    80009628:	66c0809b          	addiw	ra,ra,1644 # 6666666c <absimmsh+0x5ab958bf>
    8000962c:	00c08463          	beq	ra,a2,80009634 <inst_601>
    80009630:	9f5f606f          	j	80000024 <rvtest_error>

0000000080009634 <inst_601>:
    80009634:	66666537          	lui	a0,0x66666
    80009638:	66650513          	addi	a0,a0,1638 # 66666666 <absimmsh+0x5ab958b9>
    8000963c:	00b51513          	slli	a0,a0,0xb
    80009640:	33350513          	addi	a0,a0,819
    80009644:	00b51513          	slli	a0,a0,0xb
    80009648:	19950513          	addi	a0,a0,409
    8000964c:	00a51513          	slli	a0,a0,0xa
    80009650:	26750513          	addi	a0,a0,615
    80009654:	333335b7          	lui	a1,0x33333
    80009658:	33358593          	addi	a1,a1,819 # 33333333 <absimmsh+0x27862586>
    8000965c:	00b59593          	slli	a1,a1,0xb
    80009660:	19958593          	addi	a1,a1,409
    80009664:	00b59593          	slli	a1,a1,0xb
    80009668:	4cc58593          	addi	a1,a1,1228
    8000966c:	00a59593          	slli	a1,a1,0xa
    80009670:	33358593          	addi	a1,a1,819
    80009674:	00b5063b          	addw	a2,a0,a1
    80009678:	22c3b823          	sd	a2,560(t2)
    8000967c:	9999a0b7          	lui	ra,0x9999a
    80009680:	99a0809b          	addiw	ra,ra,-1638 # ffffffff9999999a <absimm+0xfffffffedec8beca>
    80009684:	00c08463          	beq	ra,a2,8000968c <inst_602>
    80009688:	99df606f          	j	80000024 <rvtest_error>

000000008000968c <inst_602>:
    8000968c:	66666537          	lui	a0,0x66666
    80009690:	66650513          	addi	a0,a0,1638 # 66666666 <absimmsh+0x5ab958b9>
    80009694:	00b51513          	slli	a0,a0,0xb
    80009698:	33350513          	addi	a0,a0,819
    8000969c:	00b51513          	slli	a0,a0,0xb
    800096a0:	19950513          	addi	a0,a0,409
    800096a4:	00a51513          	slli	a0,a0,0xa
    800096a8:	26750513          	addi	a0,a0,615
    800096ac:	666665b7          	lui	a1,0x66666
    800096b0:	66658593          	addi	a1,a1,1638 # 66666666 <absimmsh+0x5ab958b9>
    800096b4:	00b59593          	slli	a1,a1,0xb
    800096b8:	33358593          	addi	a1,a1,819
    800096bc:	00b59593          	slli	a1,a1,0xb
    800096c0:	19958593          	addi	a1,a1,409
    800096c4:	00a59593          	slli	a1,a1,0xa
    800096c8:	26658593          	addi	a1,a1,614
    800096cc:	00b5063b          	addw	a2,a0,a1
    800096d0:	22c3bc23          	sd	a2,568(t2)
    800096d4:	ccccd0b7          	lui	ra,0xccccd
    800096d8:	ccd0809b          	addiw	ra,ra,-819 # ffffffffcccccccd <absimm+0xffffffff11fbf1fd>
    800096dc:	00c08463          	beq	ra,a2,800096e4 <inst_603>
    800096e0:	945f606f          	j	80000024 <rvtest_error>

00000000800096e4 <inst_603>:
    800096e4:	66666537          	lui	a0,0x66666
    800096e8:	66650513          	addi	a0,a0,1638 # 66666666 <absimmsh+0x5ab958b9>
    800096ec:	00b51513          	slli	a0,a0,0xb
    800096f0:	33350513          	addi	a0,a0,819
    800096f4:	00b51513          	slli	a0,a0,0xb
    800096f8:	19950513          	addi	a0,a0,409
    800096fc:	00a51513          	slli	a0,a0,0xa
    80009700:	26750513          	addi	a0,a0,615
    80009704:	000005b7          	lui	a1,0x0
    80009708:	fff58593          	addi	a1,a1,-1
    8000970c:	00b59593          	slli	a1,a1,0xb
    80009710:	25758593          	addi	a1,a1,599
    80009714:	00b59593          	slli	a1,a1,0xb
    80009718:	6c358593          	addi	a1,a1,1731
    8000971c:	00a59593          	slli	a1,a1,0xa
    80009720:	0cd58593          	addi	a1,a1,205
    80009724:	00b5063b          	addw	a2,a0,a1
    80009728:	24c3b023          	sd	a2,576(t2)
    8000972c:	b16170b7          	lui	ra,0xb1617
    80009730:	3340809b          	addiw	ra,ra,820 # ffffffffb1617334 <absimm+0xfffffffef6909864>
    80009734:	00c08463          	beq	ra,a2,8000973c <inst_604>
    80009738:	8edf606f          	j	80000024 <rvtest_error>

000000008000973c <inst_604>:
    8000973c:	66666537          	lui	a0,0x66666
    80009740:	66650513          	addi	a0,a0,1638 # 66666666 <absimmsh+0x5ab958b9>
    80009744:	00b51513          	slli	a0,a0,0xb
    80009748:	33350513          	addi	a0,a0,819
    8000974c:	00b51513          	slli	a0,a0,0xb
    80009750:	19950513          	addi	a0,a0,409
    80009754:	00a51513          	slli	a0,a0,0xa
    80009758:	26750513          	addi	a0,a0,615
    8000975c:	000005b7          	lui	a1,0x0
    80009760:	00058593          	mv	a1,a1
    80009764:	00b59593          	slli	a1,a1,0xb
    80009768:	5a858593          	addi	a1,a1,1448 # 5a8 <offset+0x110>
    8000976c:	00b59593          	slli	a1,a1,0xb
    80009770:	13c58593          	addi	a1,a1,316
    80009774:	00a59593          	slli	a1,a1,0xa
    80009778:	33358593          	addi	a1,a1,819
    8000977c:	00b5063b          	addw	a2,a0,a1
    80009780:	24c3b423          	sd	a2,584(t2)
    80009784:	1b6b60b7          	lui	ra,0x1b6b6
    80009788:	99a0809b          	addiw	ra,ra,-1638 # 1b6b599a <absimmsh+0xfbe4bed>
    8000978c:	00c08463          	beq	ra,a2,80009794 <inst_605>
    80009790:	895f606f          	j	80000024 <rvtest_error>

0000000080009794 <inst_605>:
    80009794:	66666537          	lui	a0,0x66666
    80009798:	66650513          	addi	a0,a0,1638 # 66666666 <absimmsh+0x5ab958b9>
    8000979c:	00b51513          	slli	a0,a0,0xb
    800097a0:	33350513          	addi	a0,a0,819
    800097a4:	00b51513          	slli	a0,a0,0xb
    800097a8:	19950513          	addi	a0,a0,409
    800097ac:	00a51513          	slli	a0,a0,0xa
    800097b0:	26750513          	addi	a0,a0,615
    800097b4:	00200593          	li	a1,2
    800097b8:	00b5063b          	addw	a2,a0,a1
    800097bc:	24c3b823          	sd	a2,592(t2)
    800097c0:	666660b7          	lui	ra,0x66666
    800097c4:	6690809b          	addiw	ra,ra,1641 # 66666669 <absimmsh+0x5ab958bc>
    800097c8:	00c08463          	beq	ra,a2,800097d0 <inst_606>
    800097cc:	859f606f          	j	80000024 <rvtest_error>

00000000800097d0 <inst_606>:
    800097d0:	66666537          	lui	a0,0x66666
    800097d4:	66650513          	addi	a0,a0,1638 # 66666666 <absimmsh+0x5ab958b9>
    800097d8:	00b51513          	slli	a0,a0,0xb
    800097dc:	33350513          	addi	a0,a0,819
    800097e0:	00b51513          	slli	a0,a0,0xb
    800097e4:	19950513          	addi	a0,a0,409
    800097e8:	00a51513          	slli	a0,a0,0xa
    800097ec:	26750513          	addi	a0,a0,615
    800097f0:	555555b7          	lui	a1,0x55555
    800097f4:	55558593          	addi	a1,a1,1365 # 55555555 <absimmsh+0x49a847a8>
    800097f8:	00b59593          	slli	a1,a1,0xb
    800097fc:	2aa58593          	addi	a1,a1,682
    80009800:	00b59593          	slli	a1,a1,0xb
    80009804:	55558593          	addi	a1,a1,1365
    80009808:	00a59593          	slli	a1,a1,0xa
    8000980c:	15458593          	addi	a1,a1,340
    80009810:	00b5063b          	addw	a2,a0,a1
    80009814:	24c3bc23          	sd	a2,600(t2)
    80009818:	bbbbc0b7          	lui	ra,0xbbbbc
    8000981c:	bbb0809b          	addiw	ra,ra,-1093 # ffffffffbbbbbbbb <absimm+0xffffffff00eae0eb>
    80009820:	00c08463          	beq	ra,a2,80009828 <inst_607>
    80009824:	801f606f          	j	80000024 <rvtest_error>

0000000080009828 <inst_607>:
    80009828:	66666537          	lui	a0,0x66666
    8000982c:	66650513          	addi	a0,a0,1638 # 66666666 <absimmsh+0x5ab958b9>
    80009830:	00b51513          	slli	a0,a0,0xb
    80009834:	33350513          	addi	a0,a0,819
    80009838:	00b51513          	slli	a0,a0,0xb
    8000983c:	19950513          	addi	a0,a0,409
    80009840:	00a51513          	slli	a0,a0,0xa
    80009844:	26750513          	addi	a0,a0,615
    80009848:	00000593          	li	a1,0
    8000984c:	00b5063b          	addw	a2,a0,a1
    80009850:	26c3b023          	sd	a2,608(t2)
    80009854:	666660b7          	lui	ra,0x66666
    80009858:	6670809b          	addiw	ra,ra,1639 # 66666667 <absimmsh+0x5ab958ba>
    8000985c:	00c08463          	beq	ra,a2,80009864 <inst_608>
    80009860:	fc4f606f          	j	80000024 <rvtest_error>

0000000080009864 <inst_608>:
    80009864:	66666537          	lui	a0,0x66666
    80009868:	66650513          	addi	a0,a0,1638 # 66666666 <absimmsh+0x5ab958b9>
    8000986c:	00b51513          	slli	a0,a0,0xb
    80009870:	33350513          	addi	a0,a0,819
    80009874:	00b51513          	slli	a0,a0,0xb
    80009878:	19950513          	addi	a0,a0,409
    8000987c:	00a51513          	slli	a0,a0,0xa
    80009880:	26750513          	addi	a0,a0,615
    80009884:	00400593          	li	a1,4
    80009888:	00b5063b          	addw	a2,a0,a1
    8000988c:	26c3b423          	sd	a2,616(t2)
    80009890:	666660b7          	lui	ra,0x66666
    80009894:	66b0809b          	addiw	ra,ra,1643 # 6666666b <absimmsh+0x5ab958be>
    80009898:	00c08463          	beq	ra,a2,800098a0 <inst_609>
    8000989c:	f88f606f          	j	80000024 <rvtest_error>

00000000800098a0 <inst_609>:
    800098a0:	66666537          	lui	a0,0x66666
    800098a4:	66650513          	addi	a0,a0,1638 # 66666666 <absimmsh+0x5ab958b9>
    800098a8:	00b51513          	slli	a0,a0,0xb
    800098ac:	33350513          	addi	a0,a0,819
    800098b0:	00b51513          	slli	a0,a0,0xb
    800098b4:	19950513          	addi	a0,a0,409
    800098b8:	00a51513          	slli	a0,a0,0xa
    800098bc:	26750513          	addi	a0,a0,615
    800098c0:	333335b7          	lui	a1,0x33333
    800098c4:	33358593          	addi	a1,a1,819 # 33333333 <absimmsh+0x27862586>
    800098c8:	00b59593          	slli	a1,a1,0xb
    800098cc:	19958593          	addi	a1,a1,409
    800098d0:	00b59593          	slli	a1,a1,0xb
    800098d4:	4cc58593          	addi	a1,a1,1228
    800098d8:	00a59593          	slli	a1,a1,0xa
    800098dc:	33258593          	addi	a1,a1,818
    800098e0:	00b5063b          	addw	a2,a0,a1
    800098e4:	26c3b823          	sd	a2,624(t2)
    800098e8:	9999a0b7          	lui	ra,0x9999a
    800098ec:	9990809b          	addiw	ra,ra,-1639 # ffffffff99999999 <absimm+0xfffffffedec8bec9>
    800098f0:	00c08463          	beq	ra,a2,800098f8 <inst_610>
    800098f4:	f30f606f          	j	80000024 <rvtest_error>

00000000800098f8 <inst_610>:
    800098f8:	66666537          	lui	a0,0x66666
    800098fc:	66650513          	addi	a0,a0,1638 # 66666666 <absimmsh+0x5ab958b9>
    80009900:	00b51513          	slli	a0,a0,0xb
    80009904:	33350513          	addi	a0,a0,819
    80009908:	00b51513          	slli	a0,a0,0xb
    8000990c:	19950513          	addi	a0,a0,409
    80009910:	00a51513          	slli	a0,a0,0xa
    80009914:	26750513          	addi	a0,a0,615
    80009918:	666665b7          	lui	a1,0x66666
    8000991c:	66658593          	addi	a1,a1,1638 # 66666666 <absimmsh+0x5ab958b9>
    80009920:	00b59593          	slli	a1,a1,0xb
    80009924:	33358593          	addi	a1,a1,819
    80009928:	00b59593          	slli	a1,a1,0xb
    8000992c:	19958593          	addi	a1,a1,409
    80009930:	00a59593          	slli	a1,a1,0xa
    80009934:	26558593          	addi	a1,a1,613
    80009938:	00b5063b          	addw	a2,a0,a1
    8000993c:	26c3bc23          	sd	a2,632(t2)
    80009940:	ccccd0b7          	lui	ra,0xccccd
    80009944:	ccc0809b          	addiw	ra,ra,-820 # ffffffffcccccccc <absimm+0xffffffff11fbf1fc>
    80009948:	00c08463          	beq	ra,a2,80009950 <inst_611>
    8000994c:	ed8f606f          	j	80000024 <rvtest_error>

0000000080009950 <inst_611>:
    80009950:	66666537          	lui	a0,0x66666
    80009954:	66650513          	addi	a0,a0,1638 # 66666666 <absimmsh+0x5ab958b9>
    80009958:	00b51513          	slli	a0,a0,0xb
    8000995c:	33350513          	addi	a0,a0,819
    80009960:	00b51513          	slli	a0,a0,0xb
    80009964:	19950513          	addi	a0,a0,409
    80009968:	00a51513          	slli	a0,a0,0xa
    8000996c:	26750513          	addi	a0,a0,615
    80009970:	000005b7          	lui	a1,0x0
    80009974:	00058593          	mv	a1,a1
    80009978:	00b59593          	slli	a1,a1,0xb
    8000997c:	5a858593          	addi	a1,a1,1448 # 5a8 <offset+0x110>
    80009980:	00b59593          	slli	a1,a1,0xb
    80009984:	13c58593          	addi	a1,a1,316
    80009988:	00a59593          	slli	a1,a1,0xa
    8000998c:	33258593          	addi	a1,a1,818
    80009990:	00b5063b          	addw	a2,a0,a1
    80009994:	28c3b023          	sd	a2,640(t2)
    80009998:	1b6b60b7          	lui	ra,0x1b6b6
    8000999c:	9990809b          	addiw	ra,ra,-1639 # 1b6b5999 <absimmsh+0xfbe4bec>
    800099a0:	00c08463          	beq	ra,a2,800099a8 <inst_612>
    800099a4:	e80f606f          	j	80000024 <rvtest_error>

00000000800099a8 <inst_612>:
    800099a8:	66666537          	lui	a0,0x66666
    800099ac:	66650513          	addi	a0,a0,1638 # 66666666 <absimmsh+0x5ab958b9>
    800099b0:	00b51513          	slli	a0,a0,0xb
    800099b4:	33350513          	addi	a0,a0,819
    800099b8:	00b51513          	slli	a0,a0,0xb
    800099bc:	19950513          	addi	a0,a0,409
    800099c0:	00a51513          	slli	a0,a0,0xa
    800099c4:	26750513          	addi	a0,a0,615
    800099c8:	555555b7          	lui	a1,0x55555
    800099cc:	55558593          	addi	a1,a1,1365 # 55555555 <absimmsh+0x49a847a8>
    800099d0:	00b59593          	slli	a1,a1,0xb
    800099d4:	2aa58593          	addi	a1,a1,682
    800099d8:	00b59593          	slli	a1,a1,0xb
    800099dc:	55558593          	addi	a1,a1,1365
    800099e0:	00a59593          	slli	a1,a1,0xa
    800099e4:	15658593          	addi	a1,a1,342
    800099e8:	00b5063b          	addw	a2,a0,a1
    800099ec:	28c3b423          	sd	a2,648(t2)
    800099f0:	bbbbc0b7          	lui	ra,0xbbbbc
    800099f4:	bbd0809b          	addiw	ra,ra,-1091 # ffffffffbbbbbbbd <absimm+0xffffffff00eae0ed>
    800099f8:	00c08463          	beq	ra,a2,80009a00 <inst_613>
    800099fc:	e28f606f          	j	80000024 <rvtest_error>

0000000080009a00 <inst_613>:
    80009a00:	66666537          	lui	a0,0x66666
    80009a04:	66650513          	addi	a0,a0,1638 # 66666666 <absimmsh+0x5ab958b9>
    80009a08:	00b51513          	slli	a0,a0,0xb
    80009a0c:	33350513          	addi	a0,a0,819
    80009a10:	00b51513          	slli	a0,a0,0xb
    80009a14:	19950513          	addi	a0,a0,409
    80009a18:	00a51513          	slli	a0,a0,0xa
    80009a1c:	26750513          	addi	a0,a0,615
    80009a20:	aaaab5b7          	lui	a1,0xaaaab
    80009a24:	aaa58593          	addi	a1,a1,-1366 # ffffffffaaaaaaaa <absimm+0xfffffffeefd9cfda>
    80009a28:	00b59593          	slli	a1,a1,0xb
    80009a2c:	55558593          	addi	a1,a1,1365
    80009a30:	00b59593          	slli	a1,a1,0xb
    80009a34:	2aa58593          	addi	a1,a1,682
    80009a38:	00a59593          	slli	a1,a1,0xa
    80009a3c:	2ab58593          	addi	a1,a1,683
    80009a40:	00b5063b          	addw	a2,a0,a1
    80009a44:	28c3b823          	sd	a2,656(t2)
    80009a48:	111110b7          	lui	ra,0x11111
    80009a4c:	1120809b          	addiw	ra,ra,274 # 11111112 <absimmsh+0x5640365>
    80009a50:	00c08463          	beq	ra,a2,80009a58 <inst_614>
    80009a54:	dd0f606f          	j	80000024 <rvtest_error>

0000000080009a58 <inst_614>:
    80009a58:	66666537          	lui	a0,0x66666
    80009a5c:	66650513          	addi	a0,a0,1638 # 66666666 <absimmsh+0x5ab958b9>
    80009a60:	00b51513          	slli	a0,a0,0xb
    80009a64:	33350513          	addi	a0,a0,819
    80009a68:	00b51513          	slli	a0,a0,0xb
    80009a6c:	19950513          	addi	a0,a0,409
    80009a70:	00a51513          	slli	a0,a0,0xa
    80009a74:	26750513          	addi	a0,a0,615
    80009a78:	00600593          	li	a1,6
    80009a7c:	00b5063b          	addw	a2,a0,a1
    80009a80:	28c3bc23          	sd	a2,664(t2)
    80009a84:	666660b7          	lui	ra,0x66666
    80009a88:	66d0809b          	addiw	ra,ra,1645 # 6666666d <absimmsh+0x5ab958c0>
    80009a8c:	00c08463          	beq	ra,a2,80009a94 <inst_615>
    80009a90:	d94f606f          	j	80000024 <rvtest_error>

0000000080009a94 <inst_615>:
    80009a94:	66666537          	lui	a0,0x66666
    80009a98:	66650513          	addi	a0,a0,1638 # 66666666 <absimmsh+0x5ab958b9>
    80009a9c:	00b51513          	slli	a0,a0,0xb
    80009aa0:	33350513          	addi	a0,a0,819
    80009aa4:	00b51513          	slli	a0,a0,0xb
    80009aa8:	19950513          	addi	a0,a0,409
    80009aac:	00a51513          	slli	a0,a0,0xa
    80009ab0:	26750513          	addi	a0,a0,615
    80009ab4:	333335b7          	lui	a1,0x33333
    80009ab8:	33358593          	addi	a1,a1,819 # 33333333 <absimmsh+0x27862586>
    80009abc:	00b59593          	slli	a1,a1,0xb
    80009ac0:	19958593          	addi	a1,a1,409
    80009ac4:	00b59593          	slli	a1,a1,0xb
    80009ac8:	4cc58593          	addi	a1,a1,1228
    80009acc:	00a59593          	slli	a1,a1,0xa
    80009ad0:	33458593          	addi	a1,a1,820
    80009ad4:	00b5063b          	addw	a2,a0,a1
    80009ad8:	2ac3b023          	sd	a2,672(t2)
    80009adc:	9999a0b7          	lui	ra,0x9999a
    80009ae0:	99b0809b          	addiw	ra,ra,-1637 # ffffffff9999999b <absimm+0xfffffffedec8becb>
    80009ae4:	00c08463          	beq	ra,a2,80009aec <inst_616>
    80009ae8:	d3cf606f          	j	80000024 <rvtest_error>

0000000080009aec <inst_616>:
    80009aec:	66666537          	lui	a0,0x66666
    80009af0:	66650513          	addi	a0,a0,1638 # 66666666 <absimmsh+0x5ab958b9>
    80009af4:	00b51513          	slli	a0,a0,0xb
    80009af8:	33350513          	addi	a0,a0,819
    80009afc:	00b51513          	slli	a0,a0,0xb
    80009b00:	19950513          	addi	a0,a0,409
    80009b04:	00a51513          	slli	a0,a0,0xa
    80009b08:	26750513          	addi	a0,a0,615
    80009b0c:	666665b7          	lui	a1,0x66666
    80009b10:	66658593          	addi	a1,a1,1638 # 66666666 <absimmsh+0x5ab958b9>
    80009b14:	00b59593          	slli	a1,a1,0xb
    80009b18:	33358593          	addi	a1,a1,819
    80009b1c:	00b59593          	slli	a1,a1,0xb
    80009b20:	19958593          	addi	a1,a1,409
    80009b24:	00a59593          	slli	a1,a1,0xa
    80009b28:	26758593          	addi	a1,a1,615
    80009b2c:	00b5063b          	addw	a2,a0,a1
    80009b30:	2ac3b423          	sd	a2,680(t2)
    80009b34:	ccccd0b7          	lui	ra,0xccccd
    80009b38:	cce0809b          	addiw	ra,ra,-818 # ffffffffccccccce <absimm+0xffffffff11fbf1fe>
    80009b3c:	00c08463          	beq	ra,a2,80009b44 <inst_617>
    80009b40:	ce4f606f          	j	80000024 <rvtest_error>

0000000080009b44 <inst_617>:
    80009b44:	66666537          	lui	a0,0x66666
    80009b48:	66650513          	addi	a0,a0,1638 # 66666666 <absimmsh+0x5ab958b9>
    80009b4c:	00b51513          	slli	a0,a0,0xb
    80009b50:	33350513          	addi	a0,a0,819
    80009b54:	00b51513          	slli	a0,a0,0xb
    80009b58:	19950513          	addi	a0,a0,409
    80009b5c:	00a51513          	slli	a0,a0,0xa
    80009b60:	26750513          	addi	a0,a0,615
    80009b64:	000005b7          	lui	a1,0x0
    80009b68:	fff58593          	addi	a1,a1,-1
    80009b6c:	00b59593          	slli	a1,a1,0xb
    80009b70:	25758593          	addi	a1,a1,599
    80009b74:	00b59593          	slli	a1,a1,0xb
    80009b78:	6c358593          	addi	a1,a1,1731
    80009b7c:	00a59593          	slli	a1,a1,0xa
    80009b80:	0ce58593          	addi	a1,a1,206
    80009b84:	00b5063b          	addw	a2,a0,a1
    80009b88:	2ac3b823          	sd	a2,688(t2)
    80009b8c:	b16170b7          	lui	ra,0xb1617
    80009b90:	3350809b          	addiw	ra,ra,821 # ffffffffb1617335 <absimm+0xfffffffef6909865>
    80009b94:	00c08463          	beq	ra,a2,80009b9c <inst_618>
    80009b98:	c8cf606f          	j	80000024 <rvtest_error>

0000000080009b9c <inst_618>:
    80009b9c:	66666537          	lui	a0,0x66666
    80009ba0:	66650513          	addi	a0,a0,1638 # 66666666 <absimmsh+0x5ab958b9>
    80009ba4:	00b51513          	slli	a0,a0,0xb
    80009ba8:	33350513          	addi	a0,a0,819
    80009bac:	00b51513          	slli	a0,a0,0xb
    80009bb0:	19950513          	addi	a0,a0,409
    80009bb4:	00a51513          	slli	a0,a0,0xa
    80009bb8:	26750513          	addi	a0,a0,615
    80009bbc:	000005b7          	lui	a1,0x0
    80009bc0:	00058593          	mv	a1,a1
    80009bc4:	00b59593          	slli	a1,a1,0xb
    80009bc8:	5a858593          	addi	a1,a1,1448 # 5a8 <offset+0x110>
    80009bcc:	00b59593          	slli	a1,a1,0xb
    80009bd0:	13c58593          	addi	a1,a1,316
    80009bd4:	00a59593          	slli	a1,a1,0xa
    80009bd8:	33458593          	addi	a1,a1,820
    80009bdc:	00b5063b          	addw	a2,a0,a1
    80009be0:	2ac3bc23          	sd	a2,696(t2)
    80009be4:	1b6b60b7          	lui	ra,0x1b6b6
    80009be8:	99b0809b          	addiw	ra,ra,-1637 # 1b6b599b <absimmsh+0xfbe4bee>
    80009bec:	00c08463          	beq	ra,a2,80009bf4 <inst_619>
    80009bf0:	c34f606f          	j	80000024 <rvtest_error>

0000000080009bf4 <inst_619>:
    80009bf4:	00000537          	lui	a0,0x0
    80009bf8:	fff50513          	addi	a0,a0,-1
    80009bfc:	00b51513          	slli	a0,a0,0xb
    80009c00:	25750513          	addi	a0,a0,599
    80009c04:	00b51513          	slli	a0,a0,0xb
    80009c08:	6c350513          	addi	a0,a0,1731
    80009c0c:	00a51513          	slli	a0,a0,0xa
    80009c10:	0ce50513          	addi	a0,a0,206
    80009c14:	00300593          	li	a1,3
    80009c18:	00b5063b          	addw	a2,a0,a1
    80009c1c:	2cc3b023          	sd	a2,704(t2)
    80009c20:	4afb10b7          	lui	ra,0x4afb1
    80009c24:	cd10809b          	addiw	ra,ra,-815 # 4afb0cd1 <absimmsh+0x3f4dff24>
    80009c28:	00c08463          	beq	ra,a2,80009c30 <inst_620>
    80009c2c:	bf8f606f          	j	80000024 <rvtest_error>

0000000080009c30 <inst_620>:
    80009c30:	00000537          	lui	a0,0x0
    80009c34:	fff50513          	addi	a0,a0,-1
    80009c38:	00b51513          	slli	a0,a0,0xb
    80009c3c:	25750513          	addi	a0,a0,599
    80009c40:	00b51513          	slli	a0,a0,0xb
    80009c44:	6c350513          	addi	a0,a0,1731
    80009c48:	00a51513          	slli	a0,a0,0xa
    80009c4c:	0ce50513          	addi	a0,a0,206
    80009c50:	555555b7          	lui	a1,0x55555
    80009c54:	55558593          	addi	a1,a1,1365 # 55555555 <absimmsh+0x49a847a8>
    80009c58:	00b59593          	slli	a1,a1,0xb
    80009c5c:	2aa58593          	addi	a1,a1,682
    80009c60:	00b59593          	slli	a1,a1,0xb
    80009c64:	55558593          	addi	a1,a1,1365
    80009c68:	00a59593          	slli	a1,a1,0xa
    80009c6c:	15558593          	addi	a1,a1,341
    80009c70:	00b5063b          	addw	a2,a0,a1
    80009c74:	2cc3b423          	sd	a2,712(t2)
    80009c78:	a05060b7          	lui	ra,0xa0506
    80009c7c:	2230809b          	addiw	ra,ra,547 # ffffffffa0506223 <absimm+0xfffffffee57f8753>
    80009c80:	00c08463          	beq	ra,a2,80009c88 <inst_621>
    80009c84:	ba0f606f          	j	80000024 <rvtest_error>

0000000080009c88 <inst_621>:
    80009c88:	00000537          	lui	a0,0x0
    80009c8c:	fff50513          	addi	a0,a0,-1
    80009c90:	00b51513          	slli	a0,a0,0xb
    80009c94:	25750513          	addi	a0,a0,599
    80009c98:	00b51513          	slli	a0,a0,0xb
    80009c9c:	6c350513          	addi	a0,a0,1731
    80009ca0:	00a51513          	slli	a0,a0,0xa
    80009ca4:	0ce50513          	addi	a0,a0,206
    80009ca8:	aaaab5b7          	lui	a1,0xaaaab
    80009cac:	aaa58593          	addi	a1,a1,-1366 # ffffffffaaaaaaaa <absimm+0xfffffffeefd9cfda>
    80009cb0:	00b59593          	slli	a1,a1,0xb
    80009cb4:	55558593          	addi	a1,a1,1365
    80009cb8:	00b59593          	slli	a1,a1,0xb
    80009cbc:	2aa58593          	addi	a1,a1,682
    80009cc0:	00a59593          	slli	a1,a1,0xa
    80009cc4:	2aa58593          	addi	a1,a1,682
    80009cc8:	00b5063b          	addw	a2,a0,a1
    80009ccc:	2cc3b823          	sd	a2,720(t2)
    80009cd0:	f5a5b0b7          	lui	ra,0xf5a5b
    80009cd4:	7780809b          	addiw	ra,ra,1912 # fffffffff5a5b778 <absimm+0xffffffff3ad4dca8>
    80009cd8:	00c08463          	beq	ra,a2,80009ce0 <inst_622>
    80009cdc:	b48f606f          	j	80000024 <rvtest_error>

0000000080009ce0 <inst_622>:
    80009ce0:	00000537          	lui	a0,0x0
    80009ce4:	fff50513          	addi	a0,a0,-1
    80009ce8:	00b51513          	slli	a0,a0,0xb
    80009cec:	25750513          	addi	a0,a0,599
    80009cf0:	00b51513          	slli	a0,a0,0xb
    80009cf4:	6c350513          	addi	a0,a0,1731
    80009cf8:	00a51513          	slli	a0,a0,0xa
    80009cfc:	0ce50513          	addi	a0,a0,206
    80009d00:	00500593          	li	a1,5
    80009d04:	00b5063b          	addw	a2,a0,a1
    80009d08:	2cc3bc23          	sd	a2,728(t2)
    80009d0c:	4afb10b7          	lui	ra,0x4afb1
    80009d10:	cd30809b          	addiw	ra,ra,-813 # 4afb0cd3 <absimmsh+0x3f4dff26>
    80009d14:	00c08463          	beq	ra,a2,80009d1c <inst_623>
    80009d18:	b0cf606f          	j	80000024 <rvtest_error>

0000000080009d1c <inst_623>:
    80009d1c:	00000537          	lui	a0,0x0
    80009d20:	fff50513          	addi	a0,a0,-1
    80009d24:	00b51513          	slli	a0,a0,0xb
    80009d28:	25750513          	addi	a0,a0,599
    80009d2c:	00b51513          	slli	a0,a0,0xb
    80009d30:	6c350513          	addi	a0,a0,1731
    80009d34:	00a51513          	slli	a0,a0,0xa
    80009d38:	0ce50513          	addi	a0,a0,206
    80009d3c:	333335b7          	lui	a1,0x33333
    80009d40:	33358593          	addi	a1,a1,819 # 33333333 <absimmsh+0x27862586>
    80009d44:	00b59593          	slli	a1,a1,0xb
    80009d48:	19958593          	addi	a1,a1,409
    80009d4c:	00b59593          	slli	a1,a1,0xb
    80009d50:	4cc58593          	addi	a1,a1,1228
    80009d54:	00a59593          	slli	a1,a1,0xa
    80009d58:	33358593          	addi	a1,a1,819
    80009d5c:	00b5063b          	addw	a2,a0,a1
    80009d60:	2ec3b023          	sd	a2,736(t2)
    80009d64:	7e2e40b7          	lui	ra,0x7e2e4
    80009d68:	0010809b          	addiw	ra,ra,1 # 7e2e4001 <absimmsh+0x72813254>
    80009d6c:	00c08463          	beq	ra,a2,80009d74 <inst_624>
    80009d70:	ab4f606f          	j	80000024 <rvtest_error>

0000000080009d74 <inst_624>:
    80009d74:	00000537          	lui	a0,0x0
    80009d78:	fff50513          	addi	a0,a0,-1
    80009d7c:	00b51513          	slli	a0,a0,0xb
    80009d80:	25750513          	addi	a0,a0,599
    80009d84:	00b51513          	slli	a0,a0,0xb
    80009d88:	6c350513          	addi	a0,a0,1731
    80009d8c:	00a51513          	slli	a0,a0,0xa
    80009d90:	0ce50513          	addi	a0,a0,206
    80009d94:	666665b7          	lui	a1,0x66666
    80009d98:	66658593          	addi	a1,a1,1638 # 66666666 <absimmsh+0x5ab958b9>
    80009d9c:	00b59593          	slli	a1,a1,0xb
    80009da0:	33358593          	addi	a1,a1,819
    80009da4:	00b59593          	slli	a1,a1,0xb
    80009da8:	19958593          	addi	a1,a1,409
    80009dac:	00a59593          	slli	a1,a1,0xa
    80009db0:	26658593          	addi	a1,a1,614
    80009db4:	00b5063b          	addw	a2,a0,a1
    80009db8:	2ec3b423          	sd	a2,744(t2)
    80009dbc:	b16170b7          	lui	ra,0xb1617
    80009dc0:	3340809b          	addiw	ra,ra,820 # ffffffffb1617334 <absimm+0xfffffffef6909864>
    80009dc4:	00c08463          	beq	ra,a2,80009dcc <inst_625>
    80009dc8:	a5cf606f          	j	80000024 <rvtest_error>

0000000080009dcc <inst_625>:
    80009dcc:	00000537          	lui	a0,0x0
    80009dd0:	fff50513          	addi	a0,a0,-1
    80009dd4:	00b51513          	slli	a0,a0,0xb
    80009dd8:	25750513          	addi	a0,a0,599
    80009ddc:	00b51513          	slli	a0,a0,0xb
    80009de0:	6c350513          	addi	a0,a0,1731
    80009de4:	00a51513          	slli	a0,a0,0xa
    80009de8:	0ce50513          	addi	a0,a0,206
    80009dec:	000005b7          	lui	a1,0x0
    80009df0:	fff58593          	addi	a1,a1,-1
    80009df4:	00b59593          	slli	a1,a1,0xb
    80009df8:	25758593          	addi	a1,a1,599
    80009dfc:	00b59593          	slli	a1,a1,0xb
    80009e00:	6c358593          	addi	a1,a1,1731
    80009e04:	00a59593          	slli	a1,a1,0xa
    80009e08:	0cd58593          	addi	a1,a1,205
    80009e0c:	00b5063b          	addw	a2,a0,a1
    80009e10:	2ec3b823          	sd	a2,752(t2)
    80009e14:	95f620b7          	lui	ra,0x95f62
    80009e18:	99b0809b          	addiw	ra,ra,-1637 # ffffffff95f6199b <absimm+0xfffffffedb253ecb>
    80009e1c:	00c08463          	beq	ra,a2,80009e24 <inst_626>
    80009e20:	a04f606f          	j	80000024 <rvtest_error>

0000000080009e24 <inst_626>:
    80009e24:	00000537          	lui	a0,0x0
    80009e28:	fff50513          	addi	a0,a0,-1
    80009e2c:	00b51513          	slli	a0,a0,0xb
    80009e30:	25750513          	addi	a0,a0,599
    80009e34:	00b51513          	slli	a0,a0,0xb
    80009e38:	6c350513          	addi	a0,a0,1731
    80009e3c:	00a51513          	slli	a0,a0,0xa
    80009e40:	0ce50513          	addi	a0,a0,206
    80009e44:	000005b7          	lui	a1,0x0
    80009e48:	00058593          	mv	a1,a1
    80009e4c:	00b59593          	slli	a1,a1,0xb
    80009e50:	5a858593          	addi	a1,a1,1448 # 5a8 <offset+0x110>
    80009e54:	00b59593          	slli	a1,a1,0xb
    80009e58:	13c58593          	addi	a1,a1,316
    80009e5c:	00a59593          	slli	a1,a1,0xa
    80009e60:	33358593          	addi	a1,a1,819
    80009e64:	00b5063b          	addw	a2,a0,a1
    80009e68:	2ec3bc23          	sd	a2,760(t2)
    80009e6c:	00100093          	li	ra,1
    80009e70:	00c08463          	beq	ra,a2,80009e78 <inst_627>
    80009e74:	9b0f606f          	j	80000024 <rvtest_error>

0000000080009e78 <inst_627>:
    80009e78:	00000537          	lui	a0,0x0
    80009e7c:	fff50513          	addi	a0,a0,-1
    80009e80:	00b51513          	slli	a0,a0,0xb
    80009e84:	25750513          	addi	a0,a0,599
    80009e88:	00b51513          	slli	a0,a0,0xb
    80009e8c:	6c350513          	addi	a0,a0,1731
    80009e90:	00a51513          	slli	a0,a0,0xa
    80009e94:	0ce50513          	addi	a0,a0,206
    80009e98:	00200593          	li	a1,2
    80009e9c:	00b5063b          	addw	a2,a0,a1
    80009ea0:	30c3b023          	sd	a2,768(t2)
    80009ea4:	4afb10b7          	lui	ra,0x4afb1
    80009ea8:	cd00809b          	addiw	ra,ra,-816 # 4afb0cd0 <absimmsh+0x3f4dff23>
    80009eac:	00c08463          	beq	ra,a2,80009eb4 <inst_628>
    80009eb0:	974f606f          	j	80000024 <rvtest_error>

0000000080009eb4 <inst_628>:
    80009eb4:	00000537          	lui	a0,0x0
    80009eb8:	fff50513          	addi	a0,a0,-1
    80009ebc:	00b51513          	slli	a0,a0,0xb
    80009ec0:	25750513          	addi	a0,a0,599
    80009ec4:	00b51513          	slli	a0,a0,0xb
    80009ec8:	6c350513          	addi	a0,a0,1731
    80009ecc:	00a51513          	slli	a0,a0,0xa
    80009ed0:	0ce50513          	addi	a0,a0,206
    80009ed4:	555555b7          	lui	a1,0x55555
    80009ed8:	55558593          	addi	a1,a1,1365 # 55555555 <absimmsh+0x49a847a8>
    80009edc:	00b59593          	slli	a1,a1,0xb
    80009ee0:	2aa58593          	addi	a1,a1,682
    80009ee4:	00b59593          	slli	a1,a1,0xb
    80009ee8:	55558593          	addi	a1,a1,1365
    80009eec:	00a59593          	slli	a1,a1,0xa
    80009ef0:	15458593          	addi	a1,a1,340
    80009ef4:	00b5063b          	addw	a2,a0,a1
    80009ef8:	30c3b423          	sd	a2,776(t2)
    80009efc:	a05060b7          	lui	ra,0xa0506
    80009f00:	2220809b          	addiw	ra,ra,546 # ffffffffa0506222 <absimm+0xfffffffee57f8752>
    80009f04:	00c08463          	beq	ra,a2,80009f0c <inst_629>
    80009f08:	91cf606f          	j	80000024 <rvtest_error>

0000000080009f0c <inst_629>:
    80009f0c:	00000537          	lui	a0,0x0
    80009f10:	fff50513          	addi	a0,a0,-1
    80009f14:	00b51513          	slli	a0,a0,0xb
    80009f18:	25750513          	addi	a0,a0,599
    80009f1c:	00b51513          	slli	a0,a0,0xb
    80009f20:	6c350513          	addi	a0,a0,1731
    80009f24:	00a51513          	slli	a0,a0,0xa
    80009f28:	0ce50513          	addi	a0,a0,206
    80009f2c:	00000593          	li	a1,0
    80009f30:	00b5063b          	addw	a2,a0,a1
    80009f34:	30c3b823          	sd	a2,784(t2)
    80009f38:	4afb10b7          	lui	ra,0x4afb1
    80009f3c:	cce0809b          	addiw	ra,ra,-818 # 4afb0cce <absimmsh+0x3f4dff21>
    80009f40:	00c08463          	beq	ra,a2,80009f48 <inst_630>
    80009f44:	8e0f606f          	j	80000024 <rvtest_error>

0000000080009f48 <inst_630>:
    80009f48:	00000537          	lui	a0,0x0
    80009f4c:	fff50513          	addi	a0,a0,-1
    80009f50:	00b51513          	slli	a0,a0,0xb
    80009f54:	25750513          	addi	a0,a0,599
    80009f58:	00b51513          	slli	a0,a0,0xb
    80009f5c:	6c350513          	addi	a0,a0,1731
    80009f60:	00a51513          	slli	a0,a0,0xa
    80009f64:	0ce50513          	addi	a0,a0,206
    80009f68:	00400593          	li	a1,4
    80009f6c:	00b5063b          	addw	a2,a0,a1
    80009f70:	30c3bc23          	sd	a2,792(t2)
    80009f74:	4afb10b7          	lui	ra,0x4afb1
    80009f78:	cd20809b          	addiw	ra,ra,-814 # 4afb0cd2 <absimmsh+0x3f4dff25>
    80009f7c:	00c08463          	beq	ra,a2,80009f84 <inst_631>
    80009f80:	8a4f606f          	j	80000024 <rvtest_error>

0000000080009f84 <inst_631>:
    80009f84:	00000537          	lui	a0,0x0
    80009f88:	fff50513          	addi	a0,a0,-1
    80009f8c:	00b51513          	slli	a0,a0,0xb
    80009f90:	25750513          	addi	a0,a0,599
    80009f94:	00b51513          	slli	a0,a0,0xb
    80009f98:	6c350513          	addi	a0,a0,1731
    80009f9c:	00a51513          	slli	a0,a0,0xa
    80009fa0:	0ce50513          	addi	a0,a0,206
    80009fa4:	333335b7          	lui	a1,0x33333
    80009fa8:	33358593          	addi	a1,a1,819 # 33333333 <absimmsh+0x27862586>
    80009fac:	00b59593          	slli	a1,a1,0xb
    80009fb0:	19958593          	addi	a1,a1,409
    80009fb4:	00b59593          	slli	a1,a1,0xb
    80009fb8:	4cc58593          	addi	a1,a1,1228
    80009fbc:	00a59593          	slli	a1,a1,0xa
    80009fc0:	33258593          	addi	a1,a1,818
    80009fc4:	00b5063b          	addw	a2,a0,a1
    80009fc8:	32c3b023          	sd	a2,800(t2)
    80009fcc:	7e2e40b7          	lui	ra,0x7e2e4
    80009fd0:	00c08463          	beq	ra,a2,80009fd8 <inst_632>
    80009fd4:	850f606f          	j	80000024 <rvtest_error>

0000000080009fd8 <inst_632>:
    80009fd8:	00000537          	lui	a0,0x0
    80009fdc:	fff50513          	addi	a0,a0,-1
    80009fe0:	00b51513          	slli	a0,a0,0xb
    80009fe4:	25750513          	addi	a0,a0,599
    80009fe8:	00b51513          	slli	a0,a0,0xb
    80009fec:	6c350513          	addi	a0,a0,1731
    80009ff0:	00a51513          	slli	a0,a0,0xa
    80009ff4:	0ce50513          	addi	a0,a0,206
    80009ff8:	666665b7          	lui	a1,0x66666
    80009ffc:	66658593          	addi	a1,a1,1638 # 66666666 <absimmsh+0x5ab958b9>
    8000a000:	00b59593          	slli	a1,a1,0xb
    8000a004:	33358593          	addi	a1,a1,819
    8000a008:	00b59593          	slli	a1,a1,0xb
    8000a00c:	19958593          	addi	a1,a1,409
    8000a010:	00a59593          	slli	a1,a1,0xa
    8000a014:	26558593          	addi	a1,a1,613
    8000a018:	00b5063b          	addw	a2,a0,a1
    8000a01c:	32c3b423          	sd	a2,808(t2)
    8000a020:	b16170b7          	lui	ra,0xb1617
    8000a024:	3330809b          	addiw	ra,ra,819 # ffffffffb1617333 <absimm+0xfffffffef6909863>
    8000a028:	00c08463          	beq	ra,a2,8000a030 <inst_633>
    8000a02c:	ff9f506f          	j	80000024 <rvtest_error>

000000008000a030 <inst_633>:
    8000a030:	00000537          	lui	a0,0x0
    8000a034:	fff50513          	addi	a0,a0,-1
    8000a038:	00b51513          	slli	a0,a0,0xb
    8000a03c:	25750513          	addi	a0,a0,599
    8000a040:	00b51513          	slli	a0,a0,0xb
    8000a044:	6c350513          	addi	a0,a0,1731
    8000a048:	00a51513          	slli	a0,a0,0xa
    8000a04c:	0ce50513          	addi	a0,a0,206
    8000a050:	000005b7          	lui	a1,0x0
    8000a054:	00058593          	mv	a1,a1
    8000a058:	00b59593          	slli	a1,a1,0xb
    8000a05c:	5a858593          	addi	a1,a1,1448 # 5a8 <offset+0x110>
    8000a060:	00b59593          	slli	a1,a1,0xb
    8000a064:	13c58593          	addi	a1,a1,316
    8000a068:	00a59593          	slli	a1,a1,0xa
    8000a06c:	33258593          	addi	a1,a1,818
    8000a070:	00b5063b          	addw	a2,a0,a1
    8000a074:	32c3b823          	sd	a2,816(t2)
    8000a078:	00000093          	li	ra,0
    8000a07c:	00c08463          	beq	ra,a2,8000a084 <inst_634>
    8000a080:	fa5f506f          	j	80000024 <rvtest_error>

000000008000a084 <inst_634>:
    8000a084:	00000537          	lui	a0,0x0
    8000a088:	fff50513          	addi	a0,a0,-1
    8000a08c:	00b51513          	slli	a0,a0,0xb
    8000a090:	25750513          	addi	a0,a0,599
    8000a094:	00b51513          	slli	a0,a0,0xb
    8000a098:	6c350513          	addi	a0,a0,1731
    8000a09c:	00a51513          	slli	a0,a0,0xa
    8000a0a0:	0ce50513          	addi	a0,a0,206
    8000a0a4:	555555b7          	lui	a1,0x55555
    8000a0a8:	55558593          	addi	a1,a1,1365 # 55555555 <absimmsh+0x49a847a8>
    8000a0ac:	00b59593          	slli	a1,a1,0xb
    8000a0b0:	2aa58593          	addi	a1,a1,682
    8000a0b4:	00b59593          	slli	a1,a1,0xb
    8000a0b8:	55558593          	addi	a1,a1,1365
    8000a0bc:	00a59593          	slli	a1,a1,0xa
    8000a0c0:	15658593          	addi	a1,a1,342
    8000a0c4:	00b5063b          	addw	a2,a0,a1
    8000a0c8:	32c3bc23          	sd	a2,824(t2)
    8000a0cc:	a05060b7          	lui	ra,0xa0506
    8000a0d0:	2240809b          	addiw	ra,ra,548 # ffffffffa0506224 <absimm+0xfffffffee57f8754>
    8000a0d4:	00c08463          	beq	ra,a2,8000a0dc <inst_635>
    8000a0d8:	f4df506f          	j	80000024 <rvtest_error>

000000008000a0dc <inst_635>:
    8000a0dc:	00000537          	lui	a0,0x0
    8000a0e0:	fff50513          	addi	a0,a0,-1
    8000a0e4:	00b51513          	slli	a0,a0,0xb
    8000a0e8:	25750513          	addi	a0,a0,599
    8000a0ec:	00b51513          	slli	a0,a0,0xb
    8000a0f0:	6c350513          	addi	a0,a0,1731
    8000a0f4:	00a51513          	slli	a0,a0,0xa
    8000a0f8:	0ce50513          	addi	a0,a0,206
    8000a0fc:	aaaab5b7          	lui	a1,0xaaaab
    8000a100:	aaa58593          	addi	a1,a1,-1366 # ffffffffaaaaaaaa <absimm+0xfffffffeefd9cfda>
    8000a104:	00b59593          	slli	a1,a1,0xb
    8000a108:	55558593          	addi	a1,a1,1365
    8000a10c:	00b59593          	slli	a1,a1,0xb
    8000a110:	2aa58593          	addi	a1,a1,682
    8000a114:	00a59593          	slli	a1,a1,0xa
    8000a118:	2ab58593          	addi	a1,a1,683
    8000a11c:	00b5063b          	addw	a2,a0,a1
    8000a120:	34c3b023          	sd	a2,832(t2)
    8000a124:	f5a5b0b7          	lui	ra,0xf5a5b
    8000a128:	7790809b          	addiw	ra,ra,1913 # fffffffff5a5b779 <absimm+0xffffffff3ad4dca9>
    8000a12c:	00c08463          	beq	ra,a2,8000a134 <inst_636>
    8000a130:	ef5f506f          	j	80000024 <rvtest_error>

000000008000a134 <inst_636>:
    8000a134:	00000537          	lui	a0,0x0
    8000a138:	fff50513          	addi	a0,a0,-1
    8000a13c:	00b51513          	slli	a0,a0,0xb
    8000a140:	25750513          	addi	a0,a0,599
    8000a144:	00b51513          	slli	a0,a0,0xb
    8000a148:	6c350513          	addi	a0,a0,1731
    8000a14c:	00a51513          	slli	a0,a0,0xa
    8000a150:	0ce50513          	addi	a0,a0,206
    8000a154:	00600593          	li	a1,6
    8000a158:	00b5063b          	addw	a2,a0,a1
    8000a15c:	34c3b423          	sd	a2,840(t2)
    8000a160:	4afb10b7          	lui	ra,0x4afb1
    8000a164:	cd40809b          	addiw	ra,ra,-812 # 4afb0cd4 <absimmsh+0x3f4dff27>
    8000a168:	00c08463          	beq	ra,a2,8000a170 <inst_637>
    8000a16c:	eb9f506f          	j	80000024 <rvtest_error>

000000008000a170 <inst_637>:
    8000a170:	00000537          	lui	a0,0x0
    8000a174:	fff50513          	addi	a0,a0,-1
    8000a178:	00b51513          	slli	a0,a0,0xb
    8000a17c:	25750513          	addi	a0,a0,599
    8000a180:	00b51513          	slli	a0,a0,0xb
    8000a184:	6c350513          	addi	a0,a0,1731
    8000a188:	00a51513          	slli	a0,a0,0xa
    8000a18c:	0ce50513          	addi	a0,a0,206
    8000a190:	333335b7          	lui	a1,0x33333
    8000a194:	33358593          	addi	a1,a1,819 # 33333333 <absimmsh+0x27862586>
    8000a198:	00b59593          	slli	a1,a1,0xb
    8000a19c:	19958593          	addi	a1,a1,409
    8000a1a0:	00b59593          	slli	a1,a1,0xb
    8000a1a4:	4cc58593          	addi	a1,a1,1228
    8000a1a8:	00a59593          	slli	a1,a1,0xa
    8000a1ac:	33458593          	addi	a1,a1,820
    8000a1b0:	00b5063b          	addw	a2,a0,a1
    8000a1b4:	34c3b823          	sd	a2,848(t2)
    8000a1b8:	7e2e40b7          	lui	ra,0x7e2e4
    8000a1bc:	0020809b          	addiw	ra,ra,2 # 7e2e4002 <absimmsh+0x72813255>
    8000a1c0:	00c08463          	beq	ra,a2,8000a1c8 <inst_638>
    8000a1c4:	e61f506f          	j	80000024 <rvtest_error>

000000008000a1c8 <inst_638>:
    8000a1c8:	00000537          	lui	a0,0x0
    8000a1cc:	fff50513          	addi	a0,a0,-1
    8000a1d0:	00b51513          	slli	a0,a0,0xb
    8000a1d4:	25750513          	addi	a0,a0,599
    8000a1d8:	00b51513          	slli	a0,a0,0xb
    8000a1dc:	6c350513          	addi	a0,a0,1731
    8000a1e0:	00a51513          	slli	a0,a0,0xa
    8000a1e4:	0ce50513          	addi	a0,a0,206
    8000a1e8:	666665b7          	lui	a1,0x66666
    8000a1ec:	66658593          	addi	a1,a1,1638 # 66666666 <absimmsh+0x5ab958b9>
    8000a1f0:	00b59593          	slli	a1,a1,0xb
    8000a1f4:	33358593          	addi	a1,a1,819
    8000a1f8:	00b59593          	slli	a1,a1,0xb
    8000a1fc:	19958593          	addi	a1,a1,409
    8000a200:	00a59593          	slli	a1,a1,0xa
    8000a204:	26758593          	addi	a1,a1,615
    8000a208:	00b5063b          	addw	a2,a0,a1
    8000a20c:	34c3bc23          	sd	a2,856(t2)
    8000a210:	b16170b7          	lui	ra,0xb1617
    8000a214:	3350809b          	addiw	ra,ra,821 # ffffffffb1617335 <absimm+0xfffffffef6909865>
    8000a218:	00c08463          	beq	ra,a2,8000a220 <inst_639>
    8000a21c:	e09f506f          	j	80000024 <rvtest_error>

000000008000a220 <inst_639>:
    8000a220:	00000537          	lui	a0,0x0
    8000a224:	fff50513          	addi	a0,a0,-1
    8000a228:	00b51513          	slli	a0,a0,0xb
    8000a22c:	25750513          	addi	a0,a0,599
    8000a230:	00b51513          	slli	a0,a0,0xb
    8000a234:	6c350513          	addi	a0,a0,1731
    8000a238:	00a51513          	slli	a0,a0,0xa
    8000a23c:	0ce50513          	addi	a0,a0,206
    8000a240:	000005b7          	lui	a1,0x0
    8000a244:	fff58593          	addi	a1,a1,-1
    8000a248:	00b59593          	slli	a1,a1,0xb
    8000a24c:	25758593          	addi	a1,a1,599
    8000a250:	00b59593          	slli	a1,a1,0xb
    8000a254:	6c358593          	addi	a1,a1,1731
    8000a258:	00a59593          	slli	a1,a1,0xa
    8000a25c:	0ce58593          	addi	a1,a1,206
    8000a260:	00b5063b          	addw	a2,a0,a1
    8000a264:	36c3b023          	sd	a2,864(t2)
    8000a268:	95f620b7          	lui	ra,0x95f62
    8000a26c:	99c0809b          	addiw	ra,ra,-1636 # ffffffff95f6199c <absimm+0xfffffffedb253ecc>
    8000a270:	00c08463          	beq	ra,a2,8000a278 <inst_640>
    8000a274:	db1f506f          	j	80000024 <rvtest_error>

000000008000a278 <inst_640>:
    8000a278:	00000537          	lui	a0,0x0
    8000a27c:	fff50513          	addi	a0,a0,-1
    8000a280:	00b51513          	slli	a0,a0,0xb
    8000a284:	25750513          	addi	a0,a0,599
    8000a288:	00b51513          	slli	a0,a0,0xb
    8000a28c:	6c350513          	addi	a0,a0,1731
    8000a290:	00a51513          	slli	a0,a0,0xa
    8000a294:	0ce50513          	addi	a0,a0,206
    8000a298:	000005b7          	lui	a1,0x0
    8000a29c:	00058593          	mv	a1,a1
    8000a2a0:	00b59593          	slli	a1,a1,0xb
    8000a2a4:	5a858593          	addi	a1,a1,1448 # 5a8 <offset+0x110>
    8000a2a8:	00b59593          	slli	a1,a1,0xb
    8000a2ac:	13c58593          	addi	a1,a1,316
    8000a2b0:	00a59593          	slli	a1,a1,0xa
    8000a2b4:	33458593          	addi	a1,a1,820
    8000a2b8:	00b5063b          	addw	a2,a0,a1
    8000a2bc:	36c3b423          	sd	a2,872(t2)
    8000a2c0:	00200093          	li	ra,2
    8000a2c4:	00c08463          	beq	ra,a2,8000a2cc <inst_641>
    8000a2c8:	d5df506f          	j	80000024 <rvtest_error>

000000008000a2cc <inst_641>:
    8000a2cc:	00000537          	lui	a0,0x0
    8000a2d0:	00050513          	mv	a0,a0
    8000a2d4:	00b51513          	slli	a0,a0,0xb
    8000a2d8:	5a850513          	addi	a0,a0,1448 # 5a8 <offset+0x110>
    8000a2dc:	00b51513          	slli	a0,a0,0xb
    8000a2e0:	13c50513          	addi	a0,a0,316
    8000a2e4:	00a51513          	slli	a0,a0,0xa
    8000a2e8:	33450513          	addi	a0,a0,820
    8000a2ec:	00300593          	li	a1,3
    8000a2f0:	00b5063b          	addw	a2,a0,a1
    8000a2f4:	36c3b823          	sd	a2,880(t2)
    8000a2f8:	b504f0b7          	lui	ra,0xb504f
    8000a2fc:	3370809b          	addiw	ra,ra,823 # ffffffffb504f337 <absimm+0xfffffffefa341867>
    8000a300:	00c08463          	beq	ra,a2,8000a308 <inst_642>
    8000a304:	d21f506f          	j	80000024 <rvtest_error>

000000008000a308 <inst_642>:
    8000a308:	00000537          	lui	a0,0x0
    8000a30c:	00050513          	mv	a0,a0
    8000a310:	00b51513          	slli	a0,a0,0xb
    8000a314:	5a850513          	addi	a0,a0,1448 # 5a8 <offset+0x110>
    8000a318:	00b51513          	slli	a0,a0,0xb
    8000a31c:	13c50513          	addi	a0,a0,316
    8000a320:	00a51513          	slli	a0,a0,0xa
    8000a324:	33450513          	addi	a0,a0,820
    8000a328:	555555b7          	lui	a1,0x55555
    8000a32c:	55558593          	addi	a1,a1,1365 # 55555555 <absimmsh+0x49a847a8>
    8000a330:	00b59593          	slli	a1,a1,0xb
    8000a334:	2aa58593          	addi	a1,a1,682
    8000a338:	00b59593          	slli	a1,a1,0xb
    8000a33c:	55558593          	addi	a1,a1,1365
    8000a340:	00a59593          	slli	a1,a1,0xa
    8000a344:	15558593          	addi	a1,a1,341
    8000a348:	00b5063b          	addw	a2,a0,a1
    8000a34c:	36c3bc23          	sd	a2,888(t2)
    8000a350:	0a5a50b7          	lui	ra,0xa5a5
    8000a354:	8890809b          	addiw	ra,ra,-1911 # a5a4889 <offset+0xa5a43f1>
    8000a358:	00c08463          	beq	ra,a2,8000a360 <inst_643>
    8000a35c:	cc9f506f          	j	80000024 <rvtest_error>

000000008000a360 <inst_643>:
    8000a360:	00000537          	lui	a0,0x0
    8000a364:	00050513          	mv	a0,a0
    8000a368:	00b51513          	slli	a0,a0,0xb
    8000a36c:	5a850513          	addi	a0,a0,1448 # 5a8 <offset+0x110>
    8000a370:	00b51513          	slli	a0,a0,0xb
    8000a374:	13c50513          	addi	a0,a0,316
    8000a378:	00a51513          	slli	a0,a0,0xa
    8000a37c:	33450513          	addi	a0,a0,820
    8000a380:	aaaab5b7          	lui	a1,0xaaaab
    8000a384:	aaa58593          	addi	a1,a1,-1366 # ffffffffaaaaaaaa <absimm+0xfffffffeefd9cfda>
    8000a388:	00b59593          	slli	a1,a1,0xb
    8000a38c:	55558593          	addi	a1,a1,1365
    8000a390:	00b59593          	slli	a1,a1,0xb
    8000a394:	2aa58593          	addi	a1,a1,682
    8000a398:	00a59593          	slli	a1,a1,0xa
    8000a39c:	2aa58593          	addi	a1,a1,682
    8000a3a0:	00b5063b          	addw	a2,a0,a1
    8000a3a4:	38c3b023          	sd	a2,896(t2)
    8000a3a8:	5fafa0b7          	lui	ra,0x5fafa
    8000a3ac:	dde0809b          	addiw	ra,ra,-546 # 5faf9dde <absimmsh+0x54029031>
    8000a3b0:	00c08463          	beq	ra,a2,8000a3b8 <inst_644>
    8000a3b4:	c71f506f          	j	80000024 <rvtest_error>

000000008000a3b8 <inst_644>:
    8000a3b8:	00000537          	lui	a0,0x0
    8000a3bc:	00050513          	mv	a0,a0
    8000a3c0:	00b51513          	slli	a0,a0,0xb
    8000a3c4:	5a850513          	addi	a0,a0,1448 # 5a8 <offset+0x110>
    8000a3c8:	00b51513          	slli	a0,a0,0xb
    8000a3cc:	13c50513          	addi	a0,a0,316
    8000a3d0:	00a51513          	slli	a0,a0,0xa
    8000a3d4:	33450513          	addi	a0,a0,820
    8000a3d8:	00500593          	li	a1,5
    8000a3dc:	00b5063b          	addw	a2,a0,a1
    8000a3e0:	38c3b423          	sd	a2,904(t2)
    8000a3e4:	b504f0b7          	lui	ra,0xb504f
    8000a3e8:	3390809b          	addiw	ra,ra,825 # ffffffffb504f339 <absimm+0xfffffffefa341869>
    8000a3ec:	00c08463          	beq	ra,a2,8000a3f4 <inst_645>
    8000a3f0:	c35f506f          	j	80000024 <rvtest_error>

000000008000a3f4 <inst_645>:
    8000a3f4:	00000537          	lui	a0,0x0
    8000a3f8:	00050513          	mv	a0,a0
    8000a3fc:	00b51513          	slli	a0,a0,0xb
    8000a400:	5a850513          	addi	a0,a0,1448 # 5a8 <offset+0x110>
    8000a404:	00b51513          	slli	a0,a0,0xb
    8000a408:	13c50513          	addi	a0,a0,316
    8000a40c:	00a51513          	slli	a0,a0,0xa
    8000a410:	33450513          	addi	a0,a0,820
    8000a414:	333335b7          	lui	a1,0x33333
    8000a418:	33358593          	addi	a1,a1,819 # 33333333 <absimmsh+0x27862586>
    8000a41c:	00b59593          	slli	a1,a1,0xb
    8000a420:	19958593          	addi	a1,a1,409
    8000a424:	00b59593          	slli	a1,a1,0xb
    8000a428:	4cc58593          	addi	a1,a1,1228
    8000a42c:	00a59593          	slli	a1,a1,0xa
    8000a430:	33358593          	addi	a1,a1,819
    8000a434:	00b5063b          	addw	a2,a0,a1
    8000a438:	38c3b823          	sd	a2,912(t2)
    8000a43c:	e83820b7          	lui	ra,0xe8382
    8000a440:	6670809b          	addiw	ra,ra,1639 # ffffffffe8382667 <absimm+0xffffffff2d674b97>
    8000a444:	00c08463          	beq	ra,a2,8000a44c <inst_646>
    8000a448:	bddf506f          	j	80000024 <rvtest_error>

000000008000a44c <inst_646>:
    8000a44c:	00000537          	lui	a0,0x0
    8000a450:	00050513          	mv	a0,a0
    8000a454:	00b51513          	slli	a0,a0,0xb
    8000a458:	5a850513          	addi	a0,a0,1448 # 5a8 <offset+0x110>
    8000a45c:	00b51513          	slli	a0,a0,0xb
    8000a460:	13c50513          	addi	a0,a0,316
    8000a464:	00a51513          	slli	a0,a0,0xa
    8000a468:	33450513          	addi	a0,a0,820
    8000a46c:	666665b7          	lui	a1,0x66666
    8000a470:	66658593          	addi	a1,a1,1638 # 66666666 <absimmsh+0x5ab958b9>
    8000a474:	00b59593          	slli	a1,a1,0xb
    8000a478:	33358593          	addi	a1,a1,819
    8000a47c:	00b59593          	slli	a1,a1,0xb
    8000a480:	19958593          	addi	a1,a1,409
    8000a484:	00a59593          	slli	a1,a1,0xa
    8000a488:	26658593          	addi	a1,a1,614
    8000a48c:	00b5063b          	addw	a2,a0,a1
    8000a490:	38c3bc23          	sd	a2,920(t2)
    8000a494:	1b6b60b7          	lui	ra,0x1b6b6
    8000a498:	99a0809b          	addiw	ra,ra,-1638 # 1b6b599a <absimmsh+0xfbe4bed>
    8000a49c:	00c08463          	beq	ra,a2,8000a4a4 <inst_647>
    8000a4a0:	b85f506f          	j	80000024 <rvtest_error>

000000008000a4a4 <inst_647>:
    8000a4a4:	00000537          	lui	a0,0x0
    8000a4a8:	00050513          	mv	a0,a0
    8000a4ac:	00b51513          	slli	a0,a0,0xb
    8000a4b0:	5a850513          	addi	a0,a0,1448 # 5a8 <offset+0x110>
    8000a4b4:	00b51513          	slli	a0,a0,0xb
    8000a4b8:	13c50513          	addi	a0,a0,316
    8000a4bc:	00a51513          	slli	a0,a0,0xa
    8000a4c0:	33450513          	addi	a0,a0,820
    8000a4c4:	000005b7          	lui	a1,0x0
    8000a4c8:	fff58593          	addi	a1,a1,-1
    8000a4cc:	00b59593          	slli	a1,a1,0xb
    8000a4d0:	25758593          	addi	a1,a1,599
    8000a4d4:	00b59593          	slli	a1,a1,0xb
    8000a4d8:	6c358593          	addi	a1,a1,1731
    8000a4dc:	00a59593          	slli	a1,a1,0xa
    8000a4e0:	0cd58593          	addi	a1,a1,205
    8000a4e4:	00b5063b          	addw	a2,a0,a1
    8000a4e8:	3ac3b023          	sd	a2,928(t2)
    8000a4ec:	00100093          	li	ra,1
    8000a4f0:	00c08463          	beq	ra,a2,8000a4f8 <inst_648>
    8000a4f4:	b31f506f          	j	80000024 <rvtest_error>

000000008000a4f8 <inst_648>:
    8000a4f8:	00000537          	lui	a0,0x0
    8000a4fc:	00050513          	mv	a0,a0
    8000a500:	00b51513          	slli	a0,a0,0xb
    8000a504:	5a850513          	addi	a0,a0,1448 # 5a8 <offset+0x110>
    8000a508:	00b51513          	slli	a0,a0,0xb
    8000a50c:	13c50513          	addi	a0,a0,316
    8000a510:	00a51513          	slli	a0,a0,0xa
    8000a514:	33450513          	addi	a0,a0,820
    8000a518:	000005b7          	lui	a1,0x0
    8000a51c:	00058593          	mv	a1,a1
    8000a520:	00b59593          	slli	a1,a1,0xb
    8000a524:	5a858593          	addi	a1,a1,1448 # 5a8 <offset+0x110>
    8000a528:	00b59593          	slli	a1,a1,0xb
    8000a52c:	13c58593          	addi	a1,a1,316
    8000a530:	00a59593          	slli	a1,a1,0xa
    8000a534:	33358593          	addi	a1,a1,819
    8000a538:	00b5063b          	addw	a2,a0,a1
    8000a53c:	3ac3b423          	sd	a2,936(t2)
    8000a540:	6a09e0b7          	lui	ra,0x6a09e
    8000a544:	6670809b          	addiw	ra,ra,1639 # 6a09e667 <absimmsh+0x5e5cd8ba>
    8000a548:	00c08463          	beq	ra,a2,8000a550 <inst_649>
    8000a54c:	ad9f506f          	j	80000024 <rvtest_error>

000000008000a550 <inst_649>:
    8000a550:	00000537          	lui	a0,0x0
    8000a554:	00050513          	mv	a0,a0
    8000a558:	00b51513          	slli	a0,a0,0xb
    8000a55c:	5a850513          	addi	a0,a0,1448 # 5a8 <offset+0x110>
    8000a560:	00b51513          	slli	a0,a0,0xb
    8000a564:	13c50513          	addi	a0,a0,316
    8000a568:	00a51513          	slli	a0,a0,0xa
    8000a56c:	33450513          	addi	a0,a0,820
    8000a570:	00200593          	li	a1,2
    8000a574:	00b5063b          	addw	a2,a0,a1
    8000a578:	3ac3b823          	sd	a2,944(t2)
    8000a57c:	b504f0b7          	lui	ra,0xb504f
    8000a580:	3360809b          	addiw	ra,ra,822 # ffffffffb504f336 <absimm+0xfffffffefa341866>
    8000a584:	00c08463          	beq	ra,a2,8000a58c <inst_650>
    8000a588:	a9df506f          	j	80000024 <rvtest_error>

000000008000a58c <inst_650>:
    8000a58c:	00000537          	lui	a0,0x0
    8000a590:	00050513          	mv	a0,a0
    8000a594:	00b51513          	slli	a0,a0,0xb
    8000a598:	5a850513          	addi	a0,a0,1448 # 5a8 <offset+0x110>
    8000a59c:	00b51513          	slli	a0,a0,0xb
    8000a5a0:	13c50513          	addi	a0,a0,316
    8000a5a4:	00a51513          	slli	a0,a0,0xa
    8000a5a8:	33450513          	addi	a0,a0,820
    8000a5ac:	555555b7          	lui	a1,0x55555
    8000a5b0:	55558593          	addi	a1,a1,1365 # 55555555 <absimmsh+0x49a847a8>
    8000a5b4:	00b59593          	slli	a1,a1,0xb
    8000a5b8:	2aa58593          	addi	a1,a1,682
    8000a5bc:	00b59593          	slli	a1,a1,0xb
    8000a5c0:	55558593          	addi	a1,a1,1365
    8000a5c4:	00a59593          	slli	a1,a1,0xa
    8000a5c8:	15458593          	addi	a1,a1,340
    8000a5cc:	00b5063b          	addw	a2,a0,a1
    8000a5d0:	3ac3bc23          	sd	a2,952(t2)
    8000a5d4:	0a5a50b7          	lui	ra,0xa5a5
    8000a5d8:	8880809b          	addiw	ra,ra,-1912 # a5a4888 <offset+0xa5a43f0>
    8000a5dc:	00c08463          	beq	ra,a2,8000a5e4 <inst_651>
    8000a5e0:	a45f506f          	j	80000024 <rvtest_error>

000000008000a5e4 <inst_651>:
    8000a5e4:	00000537          	lui	a0,0x0
    8000a5e8:	00050513          	mv	a0,a0
    8000a5ec:	00b51513          	slli	a0,a0,0xb
    8000a5f0:	5a850513          	addi	a0,a0,1448 # 5a8 <offset+0x110>
    8000a5f4:	00b51513          	slli	a0,a0,0xb
    8000a5f8:	13c50513          	addi	a0,a0,316
    8000a5fc:	00a51513          	slli	a0,a0,0xa
    8000a600:	33450513          	addi	a0,a0,820
    8000a604:	00000593          	li	a1,0
    8000a608:	00b5063b          	addw	a2,a0,a1
    8000a60c:	3cc3b023          	sd	a2,960(t2)
    8000a610:	b504f0b7          	lui	ra,0xb504f
    8000a614:	3340809b          	addiw	ra,ra,820 # ffffffffb504f334 <absimm+0xfffffffefa341864>
    8000a618:	00c08463          	beq	ra,a2,8000a620 <inst_652>
    8000a61c:	a09f506f          	j	80000024 <rvtest_error>

000000008000a620 <inst_652>:
    8000a620:	00000537          	lui	a0,0x0
    8000a624:	00050513          	mv	a0,a0
    8000a628:	00b51513          	slli	a0,a0,0xb
    8000a62c:	5a850513          	addi	a0,a0,1448 # 5a8 <offset+0x110>
    8000a630:	00b51513          	slli	a0,a0,0xb
    8000a634:	13c50513          	addi	a0,a0,316
    8000a638:	00a51513          	slli	a0,a0,0xa
    8000a63c:	33450513          	addi	a0,a0,820
    8000a640:	00400593          	li	a1,4
    8000a644:	00b5063b          	addw	a2,a0,a1
    8000a648:	3cc3b423          	sd	a2,968(t2)
    8000a64c:	b504f0b7          	lui	ra,0xb504f
    8000a650:	3380809b          	addiw	ra,ra,824 # ffffffffb504f338 <absimm+0xfffffffefa341868>
    8000a654:	00c08463          	beq	ra,a2,8000a65c <inst_653>
    8000a658:	9cdf506f          	j	80000024 <rvtest_error>

000000008000a65c <inst_653>:
    8000a65c:	00000537          	lui	a0,0x0
    8000a660:	00050513          	mv	a0,a0
    8000a664:	00b51513          	slli	a0,a0,0xb
    8000a668:	5a850513          	addi	a0,a0,1448 # 5a8 <offset+0x110>
    8000a66c:	00b51513          	slli	a0,a0,0xb
    8000a670:	13c50513          	addi	a0,a0,316
    8000a674:	00a51513          	slli	a0,a0,0xa
    8000a678:	33450513          	addi	a0,a0,820
    8000a67c:	333335b7          	lui	a1,0x33333
    8000a680:	33358593          	addi	a1,a1,819 # 33333333 <absimmsh+0x27862586>
    8000a684:	00b59593          	slli	a1,a1,0xb
    8000a688:	19958593          	addi	a1,a1,409
    8000a68c:	00b59593          	slli	a1,a1,0xb
    8000a690:	4cc58593          	addi	a1,a1,1228
    8000a694:	00a59593          	slli	a1,a1,0xa
    8000a698:	33258593          	addi	a1,a1,818
    8000a69c:	00b5063b          	addw	a2,a0,a1
    8000a6a0:	3cc3b823          	sd	a2,976(t2)
    8000a6a4:	e83820b7          	lui	ra,0xe8382
    8000a6a8:	6660809b          	addiw	ra,ra,1638 # ffffffffe8382666 <absimm+0xffffffff2d674b96>
    8000a6ac:	00c08463          	beq	ra,a2,8000a6b4 <inst_654>
    8000a6b0:	975f506f          	j	80000024 <rvtest_error>

000000008000a6b4 <inst_654>:
    8000a6b4:	00000537          	lui	a0,0x0
    8000a6b8:	00050513          	mv	a0,a0
    8000a6bc:	00b51513          	slli	a0,a0,0xb
    8000a6c0:	5a850513          	addi	a0,a0,1448 # 5a8 <offset+0x110>
    8000a6c4:	00b51513          	slli	a0,a0,0xb
    8000a6c8:	13c50513          	addi	a0,a0,316
    8000a6cc:	00a51513          	slli	a0,a0,0xa
    8000a6d0:	33450513          	addi	a0,a0,820
    8000a6d4:	666665b7          	lui	a1,0x66666
    8000a6d8:	66658593          	addi	a1,a1,1638 # 66666666 <absimmsh+0x5ab958b9>
    8000a6dc:	00b59593          	slli	a1,a1,0xb
    8000a6e0:	33358593          	addi	a1,a1,819
    8000a6e4:	00b59593          	slli	a1,a1,0xb
    8000a6e8:	19958593          	addi	a1,a1,409
    8000a6ec:	00a59593          	slli	a1,a1,0xa
    8000a6f0:	26558593          	addi	a1,a1,613
    8000a6f4:	00b5063b          	addw	a2,a0,a1
    8000a6f8:	3cc3bc23          	sd	a2,984(t2)
    8000a6fc:	1b6b60b7          	lui	ra,0x1b6b6
    8000a700:	9990809b          	addiw	ra,ra,-1639 # 1b6b5999 <absimmsh+0xfbe4bec>
    8000a704:	00c08463          	beq	ra,a2,8000a70c <inst_655>
    8000a708:	91df506f          	j	80000024 <rvtest_error>

000000008000a70c <inst_655>:
    8000a70c:	00000537          	lui	a0,0x0
    8000a710:	00050513          	mv	a0,a0
    8000a714:	00b51513          	slli	a0,a0,0xb
    8000a718:	5a850513          	addi	a0,a0,1448 # 5a8 <offset+0x110>
    8000a71c:	00b51513          	slli	a0,a0,0xb
    8000a720:	13c50513          	addi	a0,a0,316
    8000a724:	00a51513          	slli	a0,a0,0xa
    8000a728:	33450513          	addi	a0,a0,820
    8000a72c:	000005b7          	lui	a1,0x0
    8000a730:	00058593          	mv	a1,a1
    8000a734:	00b59593          	slli	a1,a1,0xb
    8000a738:	5a858593          	addi	a1,a1,1448 # 5a8 <offset+0x110>
    8000a73c:	00b59593          	slli	a1,a1,0xb
    8000a740:	13c58593          	addi	a1,a1,316
    8000a744:	00a59593          	slli	a1,a1,0xa
    8000a748:	33258593          	addi	a1,a1,818
    8000a74c:	00b5063b          	addw	a2,a0,a1
    8000a750:	3ec3b023          	sd	a2,992(t2)
    8000a754:	6a09e0b7          	lui	ra,0x6a09e
    8000a758:	6660809b          	addiw	ra,ra,1638 # 6a09e666 <absimmsh+0x5e5cd8b9>
    8000a75c:	00c08463          	beq	ra,a2,8000a764 <inst_656>
    8000a760:	8c5f506f          	j	80000024 <rvtest_error>

000000008000a764 <inst_656>:
    8000a764:	00000537          	lui	a0,0x0
    8000a768:	00050513          	mv	a0,a0
    8000a76c:	00b51513          	slli	a0,a0,0xb
    8000a770:	5a850513          	addi	a0,a0,1448 # 5a8 <offset+0x110>
    8000a774:	00b51513          	slli	a0,a0,0xb
    8000a778:	13c50513          	addi	a0,a0,316
    8000a77c:	00a51513          	slli	a0,a0,0xa
    8000a780:	33450513          	addi	a0,a0,820
    8000a784:	555555b7          	lui	a1,0x55555
    8000a788:	55558593          	addi	a1,a1,1365 # 55555555 <absimmsh+0x49a847a8>
    8000a78c:	00b59593          	slli	a1,a1,0xb
    8000a790:	2aa58593          	addi	a1,a1,682
    8000a794:	00b59593          	slli	a1,a1,0xb
    8000a798:	55558593          	addi	a1,a1,1365
    8000a79c:	00a59593          	slli	a1,a1,0xa
    8000a7a0:	15658593          	addi	a1,a1,342
    8000a7a4:	00b5063b          	addw	a2,a0,a1
    8000a7a8:	3ec3b423          	sd	a2,1000(t2)
    8000a7ac:	0a5a50b7          	lui	ra,0xa5a5
    8000a7b0:	88a0809b          	addiw	ra,ra,-1910 # a5a488a <offset+0xa5a43f2>
    8000a7b4:	00c08463          	beq	ra,a2,8000a7bc <inst_657>
    8000a7b8:	86df506f          	j	80000024 <rvtest_error>

000000008000a7bc <inst_657>:
    8000a7bc:	00000537          	lui	a0,0x0
    8000a7c0:	00050513          	mv	a0,a0
    8000a7c4:	00b51513          	slli	a0,a0,0xb
    8000a7c8:	5a850513          	addi	a0,a0,1448 # 5a8 <offset+0x110>
    8000a7cc:	00b51513          	slli	a0,a0,0xb
    8000a7d0:	13c50513          	addi	a0,a0,316
    8000a7d4:	00a51513          	slli	a0,a0,0xa
    8000a7d8:	33450513          	addi	a0,a0,820
    8000a7dc:	aaaab5b7          	lui	a1,0xaaaab
    8000a7e0:	aaa58593          	addi	a1,a1,-1366 # ffffffffaaaaaaaa <absimm+0xfffffffeefd9cfda>
    8000a7e4:	00b59593          	slli	a1,a1,0xb
    8000a7e8:	55558593          	addi	a1,a1,1365
    8000a7ec:	00b59593          	slli	a1,a1,0xb
    8000a7f0:	2aa58593          	addi	a1,a1,682
    8000a7f4:	00a59593          	slli	a1,a1,0xa
    8000a7f8:	2ab58593          	addi	a1,a1,683
    8000a7fc:	00b5063b          	addw	a2,a0,a1
    8000a800:	3ec3b823          	sd	a2,1008(t2)
    8000a804:	5fafa0b7          	lui	ra,0x5fafa
    8000a808:	ddf0809b          	addiw	ra,ra,-545 # 5faf9ddf <absimmsh+0x54029032>
    8000a80c:	00c08463          	beq	ra,a2,8000a814 <inst_658>
    8000a810:	815f506f          	j	80000024 <rvtest_error>

000000008000a814 <inst_658>:
    8000a814:	00000537          	lui	a0,0x0
    8000a818:	00050513          	mv	a0,a0
    8000a81c:	00b51513          	slli	a0,a0,0xb
    8000a820:	5a850513          	addi	a0,a0,1448 # 5a8 <offset+0x110>
    8000a824:	00b51513          	slli	a0,a0,0xb
    8000a828:	13c50513          	addi	a0,a0,316
    8000a82c:	00a51513          	slli	a0,a0,0xa
    8000a830:	33450513          	addi	a0,a0,820
    8000a834:	00600593          	li	a1,6
    8000a838:	00b5063b          	addw	a2,a0,a1
    8000a83c:	3ec3bc23          	sd	a2,1016(t2)
    8000a840:	b504f0b7          	lui	ra,0xb504f
    8000a844:	33a0809b          	addiw	ra,ra,826 # ffffffffb504f33a <absimm+0xfffffffefa34186a>
    8000a848:	00c08463          	beq	ra,a2,8000a850 <inst_659>
    8000a84c:	fd8f506f          	j	80000024 <rvtest_error>

000000008000a850 <inst_659>:
    8000a850:	00000537          	lui	a0,0x0
    8000a854:	00050513          	mv	a0,a0
    8000a858:	00b51513          	slli	a0,a0,0xb
    8000a85c:	5a850513          	addi	a0,a0,1448 # 5a8 <offset+0x110>
    8000a860:	00b51513          	slli	a0,a0,0xb
    8000a864:	13c50513          	addi	a0,a0,316
    8000a868:	00a51513          	slli	a0,a0,0xa
    8000a86c:	33450513          	addi	a0,a0,820
    8000a870:	333335b7          	lui	a1,0x33333
    8000a874:	33358593          	addi	a1,a1,819 # 33333333 <absimmsh+0x27862586>
    8000a878:	00b59593          	slli	a1,a1,0xb
    8000a87c:	19958593          	addi	a1,a1,409
    8000a880:	00b59593          	slli	a1,a1,0xb
    8000a884:	4cc58593          	addi	a1,a1,1228
    8000a888:	00a59593          	slli	a1,a1,0xa
    8000a88c:	33458593          	addi	a1,a1,820
    8000a890:	00b5063b          	addw	a2,a0,a1
    8000a894:	40c3b023          	sd	a2,1024(t2)
    8000a898:	e83820b7          	lui	ra,0xe8382
    8000a89c:	6680809b          	addiw	ra,ra,1640 # ffffffffe8382668 <absimm+0xffffffff2d674b98>
    8000a8a0:	00c08463          	beq	ra,a2,8000a8a8 <inst_660>
    8000a8a4:	f80f506f          	j	80000024 <rvtest_error>

000000008000a8a8 <inst_660>:
    8000a8a8:	00000537          	lui	a0,0x0
    8000a8ac:	00050513          	mv	a0,a0
    8000a8b0:	00b51513          	slli	a0,a0,0xb
    8000a8b4:	5a850513          	addi	a0,a0,1448 # 5a8 <offset+0x110>
    8000a8b8:	00b51513          	slli	a0,a0,0xb
    8000a8bc:	13c50513          	addi	a0,a0,316
    8000a8c0:	00a51513          	slli	a0,a0,0xa
    8000a8c4:	33450513          	addi	a0,a0,820
    8000a8c8:	666665b7          	lui	a1,0x66666
    8000a8cc:	66658593          	addi	a1,a1,1638 # 66666666 <absimmsh+0x5ab958b9>
    8000a8d0:	00b59593          	slli	a1,a1,0xb
    8000a8d4:	33358593          	addi	a1,a1,819
    8000a8d8:	00b59593          	slli	a1,a1,0xb
    8000a8dc:	19958593          	addi	a1,a1,409
    8000a8e0:	00a59593          	slli	a1,a1,0xa
    8000a8e4:	26758593          	addi	a1,a1,615
    8000a8e8:	00b5063b          	addw	a2,a0,a1
    8000a8ec:	40c3b423          	sd	a2,1032(t2)
    8000a8f0:	1b6b60b7          	lui	ra,0x1b6b6
    8000a8f4:	99b0809b          	addiw	ra,ra,-1637 # 1b6b599b <absimmsh+0xfbe4bee>
    8000a8f8:	00c08463          	beq	ra,a2,8000a900 <inst_661>
    8000a8fc:	f28f506f          	j	80000024 <rvtest_error>

000000008000a900 <inst_661>:
    8000a900:	00000537          	lui	a0,0x0
    8000a904:	00050513          	mv	a0,a0
    8000a908:	00b51513          	slli	a0,a0,0xb
    8000a90c:	5a850513          	addi	a0,a0,1448 # 5a8 <offset+0x110>
    8000a910:	00b51513          	slli	a0,a0,0xb
    8000a914:	13c50513          	addi	a0,a0,316
    8000a918:	00a51513          	slli	a0,a0,0xa
    8000a91c:	33450513          	addi	a0,a0,820
    8000a920:	000005b7          	lui	a1,0x0
    8000a924:	fff58593          	addi	a1,a1,-1
    8000a928:	00b59593          	slli	a1,a1,0xb
    8000a92c:	25758593          	addi	a1,a1,599
    8000a930:	00b59593          	slli	a1,a1,0xb
    8000a934:	6c358593          	addi	a1,a1,1731
    8000a938:	00a59593          	slli	a1,a1,0xa
    8000a93c:	0ce58593          	addi	a1,a1,206
    8000a940:	00b5063b          	addw	a2,a0,a1
    8000a944:	40c3b823          	sd	a2,1040(t2)
    8000a948:	00200093          	li	ra,2
    8000a94c:	00c08463          	beq	ra,a2,8000a954 <inst_662>
    8000a950:	ed4f506f          	j	80000024 <rvtest_error>

000000008000a954 <inst_662>:
    8000a954:	00000537          	lui	a0,0x0
    8000a958:	00050513          	mv	a0,a0
    8000a95c:	00b51513          	slli	a0,a0,0xb
    8000a960:	5a850513          	addi	a0,a0,1448 # 5a8 <offset+0x110>
    8000a964:	00b51513          	slli	a0,a0,0xb
    8000a968:	13c50513          	addi	a0,a0,316
    8000a96c:	00a51513          	slli	a0,a0,0xa
    8000a970:	33450513          	addi	a0,a0,820
    8000a974:	000005b7          	lui	a1,0x0
    8000a978:	00058593          	mv	a1,a1
    8000a97c:	00b59593          	slli	a1,a1,0xb
    8000a980:	5a858593          	addi	a1,a1,1448 # 5a8 <offset+0x110>
    8000a984:	00b59593          	slli	a1,a1,0xb
    8000a988:	13c58593          	addi	a1,a1,316
    8000a98c:	00a59593          	slli	a1,a1,0xa
    8000a990:	33458593          	addi	a1,a1,820
    8000a994:	00b5063b          	addw	a2,a0,a1
    8000a998:	40c3bc23          	sd	a2,1048(t2)
    8000a99c:	6a09e0b7          	lui	ra,0x6a09e
    8000a9a0:	6680809b          	addiw	ra,ra,1640 # 6a09e668 <absimmsh+0x5e5cd8bb>
    8000a9a4:	00c08463          	beq	ra,a2,8000a9ac <inst_663>
    8000a9a8:	e7cf506f          	j	80000024 <rvtest_error>

000000008000a9ac <inst_663>:
    8000a9ac:	00000513          	li	a0,0
    8000a9b0:	555555b7          	lui	a1,0x55555
    8000a9b4:	55558593          	addi	a1,a1,1365 # 55555555 <absimmsh+0x49a847a8>
    8000a9b8:	00b59593          	slli	a1,a1,0xb
    8000a9bc:	2aa58593          	addi	a1,a1,682
    8000a9c0:	00b59593          	slli	a1,a1,0xb
    8000a9c4:	55558593          	addi	a1,a1,1365
    8000a9c8:	00a59593          	slli	a1,a1,0xa
    8000a9cc:	15458593          	addi	a1,a1,340
    8000a9d0:	00b5063b          	addw	a2,a0,a1
    8000a9d4:	42c3b023          	sd	a2,1056(t2)
    8000a9d8:	555550b7          	lui	ra,0x55555
    8000a9dc:	5540809b          	addiw	ra,ra,1364 # 55555554 <absimmsh+0x49a847a7>
    8000a9e0:	00c08463          	beq	ra,a2,8000a9e8 <inst_664>
    8000a9e4:	e40f506f          	j	80000024 <rvtest_error>

000000008000a9e8 <inst_664>:
    8000a9e8:	00000513          	li	a0,0
    8000a9ec:	00000593          	li	a1,0
    8000a9f0:	00b5063b          	addw	a2,a0,a1
    8000a9f4:	42c3b423          	sd	a2,1064(t2)
    8000a9f8:	00000093          	li	ra,0
    8000a9fc:	00c08463          	beq	ra,a2,8000aa04 <inst_665>
    8000aa00:	e24f506f          	j	80000024 <rvtest_error>

000000008000aa04 <inst_665>:
    8000aa04:	00000513          	li	a0,0
    8000aa08:	00400593          	li	a1,4
    8000aa0c:	00b5063b          	addw	a2,a0,a1
    8000aa10:	42c3b823          	sd	a2,1072(t2)
    8000aa14:	00400093          	li	ra,4
    8000aa18:	00c08463          	beq	ra,a2,8000aa20 <inst_666>
    8000aa1c:	e08f506f          	j	80000024 <rvtest_error>

000000008000aa20 <inst_666>:
    8000aa20:	00000513          	li	a0,0
    8000aa24:	333335b7          	lui	a1,0x33333
    8000aa28:	33358593          	addi	a1,a1,819 # 33333333 <absimmsh+0x27862586>
    8000aa2c:	00b59593          	slli	a1,a1,0xb
    8000aa30:	19958593          	addi	a1,a1,409
    8000aa34:	00b59593          	slli	a1,a1,0xb
    8000aa38:	4cc58593          	addi	a1,a1,1228
    8000aa3c:	00a59593          	slli	a1,a1,0xa
    8000aa40:	33258593          	addi	a1,a1,818
    8000aa44:	00b5063b          	addw	a2,a0,a1
    8000aa48:	42c3bc23          	sd	a2,1080(t2)
    8000aa4c:	333330b7          	lui	ra,0x33333
    8000aa50:	3320809b          	addiw	ra,ra,818 # 33333332 <absimmsh+0x27862585>
    8000aa54:	00c08463          	beq	ra,a2,8000aa5c <inst_667>
    8000aa58:	dccf506f          	j	80000024 <rvtest_error>

000000008000aa5c <inst_667>:
    8000aa5c:	00000513          	li	a0,0
    8000aa60:	666665b7          	lui	a1,0x66666
    8000aa64:	66658593          	addi	a1,a1,1638 # 66666666 <absimmsh+0x5ab958b9>
    8000aa68:	00b59593          	slli	a1,a1,0xb
    8000aa6c:	33358593          	addi	a1,a1,819
    8000aa70:	00b59593          	slli	a1,a1,0xb
    8000aa74:	19958593          	addi	a1,a1,409
    8000aa78:	00a59593          	slli	a1,a1,0xa
    8000aa7c:	26558593          	addi	a1,a1,613
    8000aa80:	00b5063b          	addw	a2,a0,a1
    8000aa84:	44c3b023          	sd	a2,1088(t2)
    8000aa88:	666660b7          	lui	ra,0x66666
    8000aa8c:	6650809b          	addiw	ra,ra,1637 # 66666665 <absimmsh+0x5ab958b8>
    8000aa90:	00c08463          	beq	ra,a2,8000aa98 <inst_668>
    8000aa94:	d90f506f          	j	80000024 <rvtest_error>

000000008000aa98 <inst_668>:
    8000aa98:	00000513          	li	a0,0
    8000aa9c:	000005b7          	lui	a1,0x0
    8000aaa0:	00058593          	mv	a1,a1
    8000aaa4:	00b59593          	slli	a1,a1,0xb
    8000aaa8:	5a858593          	addi	a1,a1,1448 # 5a8 <offset+0x110>
    8000aaac:	00b59593          	slli	a1,a1,0xb
    8000aab0:	13c58593          	addi	a1,a1,316
    8000aab4:	00a59593          	slli	a1,a1,0xa
    8000aab8:	33258593          	addi	a1,a1,818
    8000aabc:	00b5063b          	addw	a2,a0,a1
    8000aac0:	44c3b423          	sd	a2,1096(t2)
    8000aac4:	b504f0b7          	lui	ra,0xb504f
    8000aac8:	3320809b          	addiw	ra,ra,818 # ffffffffb504f332 <absimm+0xfffffffefa341862>
    8000aacc:	00c08463          	beq	ra,a2,8000aad4 <inst_669>
    8000aad0:	d54f506f          	j	80000024 <rvtest_error>

000000008000aad4 <inst_669>:
    8000aad4:	00000513          	li	a0,0
    8000aad8:	555555b7          	lui	a1,0x55555
    8000aadc:	55558593          	addi	a1,a1,1365 # 55555555 <absimmsh+0x49a847a8>
    8000aae0:	00b59593          	slli	a1,a1,0xb
    8000aae4:	2aa58593          	addi	a1,a1,682
    8000aae8:	00b59593          	slli	a1,a1,0xb
    8000aaec:	55558593          	addi	a1,a1,1365
    8000aaf0:	00a59593          	slli	a1,a1,0xa
    8000aaf4:	15658593          	addi	a1,a1,342
    8000aaf8:	00b5063b          	addw	a2,a0,a1
    8000aafc:	44c3b823          	sd	a2,1104(t2)
    8000ab00:	555550b7          	lui	ra,0x55555
    8000ab04:	5560809b          	addiw	ra,ra,1366 # 55555556 <absimmsh+0x49a847a9>
    8000ab08:	00c08463          	beq	ra,a2,8000ab10 <inst_670>
    8000ab0c:	d18f506f          	j	80000024 <rvtest_error>

000000008000ab10 <inst_670>:
    8000ab10:	00000513          	li	a0,0
    8000ab14:	aaaab5b7          	lui	a1,0xaaaab
    8000ab18:	aaa58593          	addi	a1,a1,-1366 # ffffffffaaaaaaaa <absimm+0xfffffffeefd9cfda>
    8000ab1c:	00b59593          	slli	a1,a1,0xb
    8000ab20:	55558593          	addi	a1,a1,1365
    8000ab24:	00b59593          	slli	a1,a1,0xb
    8000ab28:	2aa58593          	addi	a1,a1,682
    8000ab2c:	00a59593          	slli	a1,a1,0xa
    8000ab30:	2ab58593          	addi	a1,a1,683
    8000ab34:	00b5063b          	addw	a2,a0,a1
    8000ab38:	44c3bc23          	sd	a2,1112(t2)
    8000ab3c:	aaaab0b7          	lui	ra,0xaaaab
    8000ab40:	aab0809b          	addiw	ra,ra,-1365 # ffffffffaaaaaaab <absimm+0xfffffffeefd9cfdb>
    8000ab44:	00c08463          	beq	ra,a2,8000ab4c <inst_671>
    8000ab48:	cdcf506f          	j	80000024 <rvtest_error>

000000008000ab4c <inst_671>:
    8000ab4c:	00000513          	li	a0,0
    8000ab50:	00600593          	li	a1,6
    8000ab54:	00b5063b          	addw	a2,a0,a1
    8000ab58:	46c3b023          	sd	a2,1120(t2)
    8000ab5c:	00600093          	li	ra,6
    8000ab60:	00c08463          	beq	ra,a2,8000ab68 <inst_672>
    8000ab64:	cc0f506f          	j	80000024 <rvtest_error>

000000008000ab68 <inst_672>:
    8000ab68:	00000513          	li	a0,0
    8000ab6c:	333335b7          	lui	a1,0x33333
    8000ab70:	33358593          	addi	a1,a1,819 # 33333333 <absimmsh+0x27862586>
    8000ab74:	00b59593          	slli	a1,a1,0xb
    8000ab78:	19958593          	addi	a1,a1,409
    8000ab7c:	00b59593          	slli	a1,a1,0xb
    8000ab80:	4cc58593          	addi	a1,a1,1228
    8000ab84:	00a59593          	slli	a1,a1,0xa
    8000ab88:	33458593          	addi	a1,a1,820
    8000ab8c:	00b5063b          	addw	a2,a0,a1
    8000ab90:	46c3b423          	sd	a2,1128(t2)
    8000ab94:	333330b7          	lui	ra,0x33333
    8000ab98:	3340809b          	addiw	ra,ra,820 # 33333334 <absimmsh+0x27862587>
    8000ab9c:	00c08463          	beq	ra,a2,8000aba4 <inst_673>
    8000aba0:	c84f506f          	j	80000024 <rvtest_error>

000000008000aba4 <inst_673>:
    8000aba4:	00000513          	li	a0,0
    8000aba8:	666665b7          	lui	a1,0x66666
    8000abac:	66658593          	addi	a1,a1,1638 # 66666666 <absimmsh+0x5ab958b9>
    8000abb0:	00b59593          	slli	a1,a1,0xb
    8000abb4:	33358593          	addi	a1,a1,819
    8000abb8:	00b59593          	slli	a1,a1,0xb
    8000abbc:	19958593          	addi	a1,a1,409
    8000abc0:	00a59593          	slli	a1,a1,0xa
    8000abc4:	26758593          	addi	a1,a1,615
    8000abc8:	00b5063b          	addw	a2,a0,a1
    8000abcc:	46c3b823          	sd	a2,1136(t2)
    8000abd0:	666660b7          	lui	ra,0x66666
    8000abd4:	6670809b          	addiw	ra,ra,1639 # 66666667 <absimmsh+0x5ab958ba>
    8000abd8:	00c08463          	beq	ra,a2,8000abe0 <inst_674>
    8000abdc:	c48f506f          	j	80000024 <rvtest_error>

000000008000abe0 <inst_674>:
    8000abe0:	00100513          	li	a0,1
    8000abe4:	02151513          	slli	a0,a0,0x21
    8000abe8:	00100593          	li	a1,1
    8000abec:	02b59593          	slli	a1,a1,0x2b
    8000abf0:	00b5063b          	addw	a2,a0,a1
    8000abf4:	46c3bc23          	sd	a2,1144(t2)
    8000abf8:	00000093          	li	ra,0
    8000abfc:	00c08463          	beq	ra,a2,8000ac04 <inst_675>
    8000ac00:	c24f506f          	j	80000024 <rvtest_error>

000000008000ac04 <inst_675>:
    8000ac04:	00100513          	li	a0,1
    8000ac08:	02751513          	slli	a0,a0,0x27
    8000ac0c:	fff54513          	not	a0,a0
    8000ac10:	000005b7          	lui	a1,0x0
    8000ac14:	fff58593          	addi	a1,a1,-1
    8000ac18:	00b59593          	slli	a1,a1,0xb
    8000ac1c:	25758593          	addi	a1,a1,599
    8000ac20:	00b59593          	slli	a1,a1,0xb
    8000ac24:	6c358593          	addi	a1,a1,1731
    8000ac28:	00a59593          	slli	a1,a1,0xa
    8000ac2c:	0cd58593          	addi	a1,a1,205
    8000ac30:	00b5063b          	addw	a2,a0,a1
    8000ac34:	48c3b023          	sd	a2,1152(t2)
    8000ac38:	4afb10b7          	lui	ra,0x4afb1
    8000ac3c:	ccc0809b          	addiw	ra,ra,-820 # 4afb0ccc <absimmsh+0x3f4dff1f>
    8000ac40:	00c08463          	beq	ra,a2,8000ac48 <inst_676>
    8000ac44:	be0f506f          	j	80000024 <rvtest_error>

000000008000ac48 <inst_676>:
    8000ac48:	fff00513          	li	a0,-1
    8000ac4c:	03f51513          	slli	a0,a0,0x3f
    8000ac50:	00100593          	li	a1,1
    8000ac54:	00d59593          	slli	a1,a1,0xd
    8000ac58:	00b5063b          	addw	a2,a0,a1
    8000ac5c:	48c3b423          	sd	a2,1160(t2)
    8000ac60:	000020b7          	lui	ra,0x2
    8000ac64:	00c08463          	beq	ra,a2,8000ac6c <inst_677>
    8000ac68:	bbcf506f          	j	80000024 <rvtest_error>

000000008000ac6c <inst_677>:
    8000ac6c:	00100513          	li	a0,1
    8000ac70:	00100593          	li	a1,1
    8000ac74:	01659593          	slli	a1,a1,0x16
    8000ac78:	fff5c593          	not	a1,a1
    8000ac7c:	00b5063b          	addw	a2,a0,a1
    8000ac80:	48c3b823          	sd	a2,1168(t2)
    8000ac84:	ffc000b7          	lui	ra,0xffc00
    8000ac88:	00c08463          	beq	ra,a2,8000ac90 <cleanup_epilogs>
    8000ac8c:	b98f506f          	j	80000024 <rvtest_error>

000000008000ac90 <cleanup_epilogs>:
    8000ac90:	0380006f          	j	8000acc8 <exit_cleanup>

000000008000ac94 <abort_tests>:
    8000ac94:	1f813483          	ld	s1,504(sp)
    8000ac98:	20013303          	ld	t1,512(sp)
    8000ac9c:	00930333          	add	t1,t1,s1
    8000aca0:	00000337          	lui	t1,0x0
    8000aca4:	00030313          	mv	t1,t1
    8000aca8:	00b31313          	slli	t1,t1,0xb
    8000acac:	5d630313          	addi	t1,t1,1494 # 5d6 <offset+0x13e>
    8000acb0:	00b31313          	slli	t1,t1,0xb
    8000acb4:	43630313          	addi	t1,t1,1078
    8000acb8:	00a31313          	slli	t1,t1,0xa
    8000acbc:	2d030313          	addi	t1,t1,720
    8000acc0:	fe64be23          	sd	t1,-4(s1)
    8000acc4:	0040006f          	j	8000acc8 <exit_cleanup>

000000008000acc8 <exit_cleanup>:
    8000acc8:	00000513          	li	a0,0
    8000accc:	0180006f          	j	8000ace4 <halt>
	...

000000008000ace4 <halt>:
    8000ace4:	00050513          	mv	a0,a0
    8000ace8:	00100073          	ebreak
    8000acec:	0000006f          	j	8000acec <halt+0x8>

000000008000acf0 <_trm_init>:
    8000acf0:	ff010113          	addi	sp,sp,-16
    8000acf4:	00000517          	auipc	a0,0x0
    8000acf8:	01c50513          	addi	a0,a0,28 # 8000ad10 <_etext>
    8000acfc:	00113423          	sd	ra,8(sp)
    8000ad00:	b10f50ef          	jal	ra,80000010 <main>
    8000ad04:	00050513          	mv	a0,a0
    8000ad08:	00100073          	ebreak
    8000ad0c:	0000006f          	j	8000ad0c <_trm_init+0x1c>
