
/home/maveric/ics2023/riscv-arch-test-am/build/andi-riscv64-nemu.elf:     file format elf64-littleriscv


Disassembly of section .text:

0000000080000000 <_start>:
    80000000:	00000413          	li	s0,0
    80000004:	00012117          	auipc	sp,0x12
    80000008:	ffc10113          	addi	sp,sp,-4 # 80012000 <_end>
    8000000c:	78d060ef          	jal	ra,80006f98 <_trm_init>

0000000080000010 <main>:
    80000010:	030000ef          	jal	ra,80000040 <rvtest_entry_point>
    80000014:	00100513          	li	a0,1
    80000018:	775060ef          	jal	ra,80006f8c <halt>
    8000001c:	00000513          	li	a0,0
    80000020:	00008067          	ret

0000000080000024 <rvtest_error>:
    80000024:	00100513          	li	a0,1
    80000028:	765060ef          	jal	ra,80006f8c <halt>
    8000002c:	00008067          	ret
	...

0000000080000040 <rvtest_entry_point>:
    80000040:	feedc0b7          	lui	ra,0xfeedc
    80000044:	ead08093          	addi	ra,ra,-339 # fffffffffeedbead <absimm+0xffffffff441ce3dd>
    80000048:	00b09093          	slli	ra,ra,0xb
    8000004c:	7f708093          	addi	ra,ra,2039
    80000050:	00b09093          	slli	ra,ra,0xb
    80000054:	36f08093          	addi	ra,ra,879
    80000058:	00a09093          	slli	ra,ra,0xa
    8000005c:	2ad08093          	addi	ra,ra,685
    80000060:	ff76e137          	lui	sp,0xff76e
    80000064:	f5610113          	addi	sp,sp,-170 # ffffffffff76df56 <absimm+0xffffffff44a60486>
    80000068:	00b11113          	slli	sp,sp,0xb
    8000006c:	7fb10113          	addi	sp,sp,2043
    80000070:	00b11113          	slli	sp,sp,0xb
    80000074:	5b710113          	addi	sp,sp,1463
    80000078:	00a11113          	slli	sp,sp,0xa
    8000007c:	35610113          	addi	sp,sp,854
    80000080:	7fbb71b7          	lui	gp,0x7fbb7
    80000084:	fab18193          	addi	gp,gp,-85 # 7fbb6fab <absimmsh+0x740e61fe>
    80000088:	00b19193          	slli	gp,gp,0xb
    8000008c:	3fd18193          	addi	gp,gp,1021
    80000090:	00b19193          	slli	gp,gp,0xb
    80000094:	6db18193          	addi	gp,gp,1755
    80000098:	00a19193          	slli	gp,gp,0xa
    8000009c:	3ab18193          	addi	gp,gp,939
    800000a0:	bfddb237          	lui	tp,0xbfddb
    800000a4:	7d520213          	addi	tp,tp,2005 # ffffffffbfddb7d5 <absimm+0xffffffff050cdd05>
    800000a8:	00b21213          	slli	tp,tp,0xb
    800000ac:	5fe20213          	addi	tp,tp,1534 # 5fe <offset+0x356>
    800000b0:	00b21213          	slli	tp,tp,0xb
    800000b4:	76d20213          	addi	tp,tp,1901 # 76d <offset+0x4c5>
    800000b8:	00a21213          	slli	tp,tp,0xa
    800000bc:	3d520213          	addi	tp,tp,981 # 3d5 <offset+0x12d>
    800000c0:	dfeee2b7          	lui	t0,0xdfeee
    800000c4:	bea28293          	addi	t0,t0,-1046 # ffffffffdfeedbea <absimm+0xffffffff251e011a>
    800000c8:	00b29293          	slli	t0,t0,0xb
    800000cc:	6ff28293          	addi	t0,t0,1791
    800000d0:	00b29293          	slli	t0,t0,0xb
    800000d4:	3b628293          	addi	t0,t0,950
    800000d8:	00a29293          	slli	t0,t0,0xa
    800000dc:	3ea28293          	addi	t0,t0,1002
    800000e0:	6ff77337          	lui	t1,0x6ff77
    800000e4:	df530313          	addi	t1,t1,-523 # 6ff76df5 <absimmsh+0x644a6048>
    800000e8:	00b31313          	slli	t1,t1,0xb
    800000ec:	37f30313          	addi	t1,t1,895
    800000f0:	00b31313          	slli	t1,t1,0xb
    800000f4:	5db30313          	addi	t1,t1,1499
    800000f8:	00a31313          	slli	t1,t1,0xa
    800000fc:	1f530313          	addi	t1,t1,501
    80000100:	b7fbb3b7          	lui	t2,0xb7fbb
    80000104:	6fa38393          	addi	t2,t2,1786 # ffffffffb7fbb6fa <absimm+0xfffffffefd2adc2a>
    80000108:	00b39393          	slli	t2,t2,0xb
    8000010c:	5bf38393          	addi	t2,t2,1471
    80000110:	00b39393          	slli	t2,t2,0xb
    80000114:	6ed38393          	addi	t2,t2,1773
    80000118:	00a39393          	slli	t2,t2,0xa
    8000011c:	2fa38393          	addi	t2,t2,762
    80000120:	5bfde437          	lui	s0,0x5bfde
    80000124:	b7d40413          	addi	s0,s0,-1155 # 5bfddb7d <absimmsh+0x5050cdd0>
    80000128:	00b41413          	slli	s0,s0,0xb
    8000012c:	2df40413          	addi	s0,s0,735
    80000130:	00b41413          	slli	s0,s0,0xb
    80000134:	77640413          	addi	s0,s0,1910
    80000138:	00a41413          	slli	s0,s0,0xa
    8000013c:	37d40413          	addi	s0,s0,893
    80000140:	adfef4b7          	lui	s1,0xadfef
    80000144:	dbe48493          	addi	s1,s1,-578 # ffffffffadfeedbe <absimm+0xfffffffef32e12ee>
    80000148:	00b49493          	slli	s1,s1,0xb
    8000014c:	56f48493          	addi	s1,s1,1391
    80000150:	00b49493          	slli	s1,s1,0xb
    80000154:	7bb48493          	addi	s1,s1,1979
    80000158:	00a49493          	slli	s1,s1,0xa
    8000015c:	1be48493          	addi	s1,s1,446
    80000160:	56ff7537          	lui	a0,0x56ff7
    80000164:	6df50513          	addi	a0,a0,1759 # 56ff76df <absimmsh+0x4b526932>
    80000168:	00b51513          	slli	a0,a0,0xb
    8000016c:	2b750513          	addi	a0,a0,695
    80000170:	00b51513          	slli	a0,a0,0xb
    80000174:	7dd50513          	addi	a0,a0,2013
    80000178:	00a51513          	slli	a0,a0,0xa
    8000017c:	2df50513          	addi	a0,a0,735
    80000180:	ab7fc5b7          	lui	a1,0xab7fc
    80000184:	b6f58593          	addi	a1,a1,-1169 # ffffffffab7fbb6f <absimm+0xfffffffef0aee09f>
    80000188:	00b59593          	slli	a1,a1,0xb
    8000018c:	55b58593          	addi	a1,a1,1371
    80000190:	00b59593          	slli	a1,a1,0xb
    80000194:	7ee58593          	addi	a1,a1,2030
    80000198:	00a59593          	slli	a1,a1,0xa
    8000019c:	36f58593          	addi	a1,a1,879
    800001a0:	d5bfe637          	lui	a2,0xd5bfe
    800001a4:	db760613          	addi	a2,a2,-585 # ffffffffd5bfddb7 <absimm+0xffffffff1aef02e7>
    800001a8:	00b61613          	slli	a2,a2,0xb
    800001ac:	6ad60613          	addi	a2,a2,1709
    800001b0:	00b61613          	slli	a2,a2,0xb
    800001b4:	7f760613          	addi	a2,a2,2039
    800001b8:	00a61613          	slli	a2,a2,0xa
    800001bc:	1b760613          	addi	a2,a2,439
    800001c0:	eadff6b7          	lui	a3,0xeadff
    800001c4:	edb68693          	addi	a3,a3,-293 # ffffffffeadfeedb <absimm+0xffffffff300f140b>
    800001c8:	00b69693          	slli	a3,a3,0xb
    800001cc:	75668693          	addi	a3,a3,1878
    800001d0:	00b69693          	slli	a3,a3,0xb
    800001d4:	7fb68693          	addi	a3,a3,2043
    800001d8:	00a69693          	slli	a3,a3,0xa
    800001dc:	2db68693          	addi	a3,a3,731
    800001e0:	f56ff737          	lui	a4,0xf56ff
    800001e4:	76d70713          	addi	a4,a4,1901 # fffffffff56ff76d <absimm+0xffffffff3a9f1c9d>
    800001e8:	00b71713          	slli	a4,a4,0xb
    800001ec:	7ab70713          	addi	a4,a4,1963
    800001f0:	00b71713          	slli	a4,a4,0xb
    800001f4:	3fd70713          	addi	a4,a4,1021
    800001f8:	00a71713          	slli	a4,a4,0xa
    800001fc:	36d70713          	addi	a4,a4,877
    80000200:	fab807b7          	lui	a5,0xfab80
    80000204:	bb678793          	addi	a5,a5,-1098 # fffffffffab7fbb6 <absimm+0xffffffff3fe720e6>
    80000208:	00b79793          	slli	a5,a5,0xb
    8000020c:	7d578793          	addi	a5,a5,2005
    80000210:	00b79793          	slli	a5,a5,0xb
    80000214:	5fe78793          	addi	a5,a5,1534
    80000218:	00a79793          	slli	a5,a5,0xa
    8000021c:	3b678793          	addi	a5,a5,950
    80000220:	7d5c0837          	lui	a6,0x7d5c0
    80000224:	ddb80813          	addi	a6,a6,-549 # 7d5bfddb <absimmsh+0x71aef02e>
    80000228:	00b81813          	slli	a6,a6,0xb
    8000022c:	3ea80813          	addi	a6,a6,1002
    80000230:	00b81813          	slli	a6,a6,0xb
    80000234:	6ff80813          	addi	a6,a6,1791
    80000238:	00a81813          	slli	a6,a6,0xa
    8000023c:	1db80813          	addi	a6,a6,475
    80000240:	beae08b7          	lui	a7,0xbeae0
    80000244:	eed88893          	addi	a7,a7,-275 # ffffffffbeadfeed <absimm+0xffffffff03dd241d>
    80000248:	00b89893          	slli	a7,a7,0xb
    8000024c:	5f588893          	addi	a7,a7,1525
    80000250:	00b89893          	slli	a7,a7,0xb
    80000254:	37f88893          	addi	a7,a7,895
    80000258:	00a89893          	slli	a7,a7,0xa
    8000025c:	2ed88893          	addi	a7,a7,749
    80000260:	df570937          	lui	s2,0xdf570
    80000264:	f7690913          	addi	s2,s2,-138 # ffffffffdf56ff76 <absimm+0xffffffff248624a6>
    80000268:	00b91913          	slli	s2,s2,0xb
    8000026c:	6fa90913          	addi	s2,s2,1786
    80000270:	00b91913          	slli	s2,s2,0xb
    80000274:	5bf90913          	addi	s2,s2,1471
    80000278:	00a91913          	slli	s2,s2,0xa
    8000027c:	37690913          	addi	s2,s2,886
    80000280:	6fab89b7          	lui	s3,0x6fab8
    80000284:	fbb98993          	addi	s3,s3,-69 # 6fab7fbb <absimmsh+0x63fe720e>
    80000288:	00b99993          	slli	s3,s3,0xb
    8000028c:	37d98993          	addi	s3,s3,893
    80000290:	00b99993          	slli	s3,s3,0xb
    80000294:	2df98993          	addi	s3,s3,735
    80000298:	00a99993          	slli	s3,s3,0xa
    8000029c:	3bb98993          	addi	s3,s3,955
    800002a0:	b7d5ca37          	lui	s4,0xb7d5c
    800002a4:	fdda0a13          	addi	s4,s4,-35 # ffffffffb7d5bfdd <absimm+0xfffffffefd04e50d>
    800002a8:	00ba1a13          	slli	s4,s4,0xb
    800002ac:	5bea0a13          	addi	s4,s4,1470
    800002b0:	00ba1a13          	slli	s4,s4,0xb
    800002b4:	56fa0a13          	addi	s4,s4,1391
    800002b8:	00aa1a13          	slli	s4,s4,0xa
    800002bc:	3dda0a13          	addi	s4,s4,989
    800002c0:	dbeaeab7          	lui	s5,0xdbeae
    800002c4:	feea8a93          	addi	s5,s5,-18 # ffffffffdbeadfee <absimm+0xffffffff211a051e>
    800002c8:	00ba9a93          	slli	s5,s5,0xb
    800002cc:	6dfa8a93          	addi	s5,s5,1759
    800002d0:	00ba9a93          	slli	s5,s5,0xb
    800002d4:	2b7a8a93          	addi	s5,s5,695
    800002d8:	00aa9a93          	slli	s5,s5,0xa
    800002dc:	3eea8a93          	addi	s5,s5,1006
    800002e0:	6df57b37          	lui	s6,0x6df57
    800002e4:	ff7b0b13          	addi	s6,s6,-9 # 6df56ff7 <absimmsh+0x6248624a>
    800002e8:	00bb1b13          	slli	s6,s6,0xb
    800002ec:	36fb0b13          	addi	s6,s6,879
    800002f0:	00bb1b13          	slli	s6,s6,0xb
    800002f4:	55bb0b13          	addi	s6,s6,1371
    800002f8:	00ab1b13          	slli	s6,s6,0xa
    800002fc:	3f7b0b13          	addi	s6,s6,1015
    80000300:	b6fabbb7          	lui	s7,0xb6fab
    80000304:	7fbb8b93          	addi	s7,s7,2043 # ffffffffb6fab7fb <absimm+0xfffffffefc29dd2b>
    80000308:	00bb9b93          	slli	s7,s7,0xb
    8000030c:	5b7b8b93          	addi	s7,s7,1463
    80000310:	00bb9b93          	slli	s7,s7,0xb
    80000314:	6adb8b93          	addi	s7,s7,1709
    80000318:	00ab9b93          	slli	s7,s7,0xa
    8000031c:	3fbb8b93          	addi	s7,s7,1019
    80000320:	db7d6c37          	lui	s8,0xdb7d6
    80000324:	bfdc0c13          	addi	s8,s8,-1027 # ffffffffdb7d5bfd <absimm+0xffffffff20ac812d>
    80000328:	00bc1c13          	slli	s8,s8,0xb
    8000032c:	6dbc0c13          	addi	s8,s8,1755
    80000330:	00bc1c13          	slli	s8,s8,0xb
    80000334:	756c0c13          	addi	s8,s8,1878
    80000338:	00ac1c13          	slli	s8,s8,0xa
    8000033c:	3fdc0c13          	addi	s8,s8,1021
    80000340:	edbebcb7          	lui	s9,0xedbeb
    80000344:	dfec8c93          	addi	s9,s9,-514 # ffffffffedbeadfe <absimm+0xffffffff32edd32e>
    80000348:	00bc9c93          	slli	s9,s9,0xb
    8000034c:	76dc8c93          	addi	s9,s9,1901
    80000350:	00bc9c93          	slli	s9,s9,0xb
    80000354:	7abc8c93          	addi	s9,s9,1963
    80000358:	00ac9c93          	slli	s9,s9,0xa
    8000035c:	1fec8c93          	addi	s9,s9,510
    80000360:	76df5d37          	lui	s10,0x76df5
    80000364:	6ffd0d13          	addi	s10,s10,1791 # 76df56ff <absimmsh+0x6b324952>
    80000368:	00bd1d13          	slli	s10,s10,0xb
    8000036c:	3b6d0d13          	addi	s10,s10,950
    80000370:	00bd1d13          	slli	s10,s10,0xb
    80000374:	7d5d0d13          	addi	s10,s10,2005
    80000378:	00ad1d13          	slli	s10,s10,0xa
    8000037c:	2ffd0d13          	addi	s10,s10,767
    80000380:	bb6fbdb7          	lui	s11,0xbb6fb
    80000384:	b7fd8d93          	addi	s11,s11,-1153 # ffffffffbb6fab7f <absimm+0xffffffff009ed0af>
    80000388:	00bd9d93          	slli	s11,s11,0xb
    8000038c:	5dbd8d93          	addi	s11,s11,1499
    80000390:	00bd9d93          	slli	s11,s11,0xb
    80000394:	3ead8d93          	addi	s11,s11,1002
    80000398:	00ad9d93          	slli	s11,s11,0xa
    8000039c:	37fd8d93          	addi	s11,s11,895
    800003a0:	ddb7de37          	lui	t3,0xddb7d
    800003a4:	5bfe0e13          	addi	t3,t3,1471 # ffffffffddb7d5bf <absimm+0xffffffff22e6faef>
    800003a8:	00be1e13          	slli	t3,t3,0xb
    800003ac:	6ede0e13          	addi	t3,t3,1773
    800003b0:	00be1e13          	slli	t3,t3,0xb
    800003b4:	5f5e0e13          	addi	t3,t3,1525
    800003b8:	00ae1e13          	slli	t3,t3,0xa
    800003bc:	1bfe0e13          	addi	t3,t3,447
    800003c0:	eedbfeb7          	lui	t4,0xeedbf
    800003c4:	adfe8e93          	addi	t4,t4,-1313 # ffffffffeedbeadf <absimm+0xffffffff340b100f>
    800003c8:	00be9e93          	slli	t4,t4,0xb
    800003cc:	776e8e93          	addi	t4,t4,1910
    800003d0:	00be9e93          	slli	t4,t4,0xb
    800003d4:	6fae8e93          	addi	t4,t4,1786
    800003d8:	00ae9e93          	slli	t4,t4,0xa
    800003dc:	2dfe8e93          	addi	t4,t4,735
    800003e0:	f76dff37          	lui	t5,0xf76df
    800003e4:	56ff0f13          	addi	t5,t5,1391 # fffffffff76df56f <absimm+0xffffffff3c9d1a9f>
    800003e8:	00bf1f13          	slli	t5,t5,0xb
    800003ec:	7bbf0f13          	addi	t5,t5,1979
    800003f0:	00bf1f13          	slli	t5,t5,0xb
    800003f4:	37df0f13          	addi	t5,t5,893
    800003f8:	00af1f13          	slli	t5,t5,0xa
    800003fc:	16ff0f13          	addi	t5,t5,367
    80000400:	fbb70fb7          	lui	t6,0xfbb70
    80000404:	ab7f8f93          	addi	t6,t6,-1353 # fffffffffbb6fab7 <absimm+0xffffffff40e61fe7>
    80000408:	00bf9f93          	slli	t6,t6,0xb
    8000040c:	7ddf8f93          	addi	t6,t6,2013
    80000410:	00bf9f93          	slli	t6,t6,0xb
    80000414:	5bef8f93          	addi	t6,t6,1470
    80000418:	00af9f93          	slli	t6,t6,0xa
    8000041c:	2b7f8f93          	addi	t6,t6,695

0000000080000420 <rvtest_code_begin>:
    80000420:	00008297          	auipc	t0,0x8
    80000424:	be828293          	addi	t0,t0,-1048 # 80008008 <signature_x5_0>
    80000428:	00000013          	nop
    8000042c:	00000013          	nop
    80000430:	00000013          	nop
    80000434:	00000013          	nop
    80000438:	00000013          	nop
    8000043c:	00000013          	nop

0000000080000440 <inst_0>:
    80000440:	eff00913          	li	s2,-257
    80000444:	80097913          	andi	s2,s2,-2048
    80000448:	0122b023          	sd	s2,0(t0)
    8000044c:	80000593          	li	a1,-2048
    80000450:	01258463          	beq	a1,s2,80000458 <inst_1>
    80000454:	bd1ff06f          	j	80000024 <rvtest_error>

0000000080000458 <inst_1>:
    80000458:	00100413          	li	s0,1
    8000045c:	01041413          	slli	s0,s0,0x10
    80000460:	fff44413          	not	s0,s0
    80000464:	00047893          	andi	a7,s0,0
    80000468:	0112b423          	sd	a7,8(t0)
    8000046c:	00000593          	li	a1,0
    80000470:	01158463          	beq	a1,a7,80000478 <inst_2>
    80000474:	bb1ff06f          	j	80000024 <rvtest_error>

0000000080000478 <inst_2>:
    80000478:	40000993          	li	s3,1024
    8000047c:	7ff9f513          	andi	a0,s3,2047
    80000480:	00a2b823          	sd	a0,16(t0)
    80000484:	40000593          	li	a1,1024
    80000488:	00a58463          	beq	a1,a0,80000490 <inst_3>
    8000048c:	b99ff06f          	j	80000024 <rvtest_error>

0000000080000490 <inst_3>:
    80000490:	00100a13          	li	s4,1
    80000494:	00ca1a13          	slli	s4,s4,0xc
    80000498:	001a7093          	andi	ra,s4,1
    8000049c:	0012bc23          	sd	ra,24(t0)
    800004a0:	00000593          	li	a1,0
    800004a4:	00158463          	beq	a1,ra,800004ac <inst_4>
    800004a8:	b7dff06f          	j	80000024 <rvtest_error>

00000000800004ac <inst_4>:
    800004ac:	fff00b13          	li	s6,-1
    800004b0:	03fb1b13          	slli	s6,s6,0x3f
    800004b4:	554b7f93          	andi	t6,s6,1364
    800004b8:	03f2b023          	sd	t6,32(t0)
    800004bc:	00000593          	li	a1,0
    800004c0:	01f58463          	beq	a1,t6,800004c8 <inst_5>
    800004c4:	b61ff06f          	j	80000024 <rvtest_error>

00000000800004c8 <inst_5>:
    800004c8:	00000193          	li	gp,0
    800004cc:	02d1fc13          	andi	s8,gp,45
    800004d0:	0382b423          	sd	s8,40(t0)
    800004d4:	00000593          	li	a1,0
    800004d8:	01858463          	beq	a1,s8,800004e0 <inst_6>
    800004dc:	b49ff06f          	j	80000024 <rvtest_error>

00000000800004e0 <inst_6>:
    800004e0:	fff00313          	li	t1,-1
    800004e4:	00135313          	srli	t1,t1,0x1
    800004e8:	20037113          	andi	sp,t1,512
    800004ec:	0222b823          	sd	sp,48(t0)
    800004f0:	20000593          	li	a1,512
    800004f4:	00258463          	beq	a1,sp,800004fc <inst_7>
    800004f8:	b2dff06f          	j	80000024 <rvtest_error>

00000000800004fc <inst_7>:
    800004fc:	00100093          	li	ra,1
    80000500:	fdf0f393          	andi	t2,ra,-33
    80000504:	0272bc23          	sd	t2,56(t0)
    80000508:	00100593          	li	a1,1
    8000050c:	00758463          	beq	a1,t2,80000514 <inst_8>
    80000510:	b15ff06f          	j	80000024 <rvtest_error>

0000000080000514 <inst_8>:
    80000514:	00000f93          	li	t6,0
    80000518:	000ffe93          	andi	t4,t6,0
    8000051c:	05d2b023          	sd	t4,64(t0)
    80000520:	00000593          	li	a1,0
    80000524:	01d58463          	beq	a1,t4,8000052c <inst_9>
    80000528:	afdff06f          	j	80000024 <rvtest_error>

000000008000052c <inst_9>:
    8000052c:	fef00b93          	li	s7,-17
    80000530:	002bfd13          	andi	s10,s7,2
    80000534:	05a2b423          	sd	s10,72(t0)
    80000538:	00200593          	li	a1,2
    8000053c:	01a58463          	beq	a1,s10,80000544 <inst_10>
    80000540:	ae5ff06f          	j	80000024 <rvtest_error>

0000000080000544 <inst_10>:
    80000544:	00100493          	li	s1,1
    80000548:	00c49493          	slli	s1,s1,0xc
    8000054c:	0044fd93          	andi	s11,s1,4
    80000550:	05b2b823          	sd	s11,80(t0)
    80000554:	00000593          	li	a1,0
    80000558:	01b58463          	beq	a1,s11,80000560 <inst_11>
    8000055c:	ac9ff06f          	j	80000024 <rvtest_error>

0000000080000560 <inst_11>:
    80000560:	00100113          	li	sp,1
    80000564:	03a11113          	slli	sp,sp,0x3a
    80000568:	fff14113          	not	sp,sp
    8000056c:	00817a13          	andi	s4,sp,8
    80000570:	0542bc23          	sd	s4,88(t0)
    80000574:	00800593          	li	a1,8
    80000578:	01458463          	beq	a1,s4,80000580 <inst_12>
    8000057c:	aa9ff06f          	j	80000024 <rvtest_error>

0000000080000580 <inst_12>:
    80000580:	00100693          	li	a3,1
    80000584:	02969693          	slli	a3,a3,0x29
    80000588:	0106fa93          	andi	s5,a3,16
    8000058c:	0752b023          	sd	s5,96(t0)
    80000590:	00000593          	li	a1,0
    80000594:	01558463          	beq	a1,s5,8000059c <inst_13>
    80000598:	a8dff06f          	j	80000024 <rvtest_error>

000000008000059c <inst_13>:
    8000059c:	01000793          	li	a5,16
    800005a0:	0207fe13          	andi	t3,a5,32
    800005a4:	07c2b423          	sd	t3,104(t0)
    800005a8:	00000593          	li	a1,0
    800005ac:	01c58463          	beq	a1,t3,800005b4 <inst_14>
    800005b0:	a75ff06f          	j	80000024 <rvtest_error>

00000000800005b4 <inst_14>:
    800005b4:	fff00a93          	li	s5,-1
    800005b8:	001ada93          	srli	s5,s5,0x1
    800005bc:	040aff13          	andi	t5,s5,64
    800005c0:	07e2b823          	sd	t5,112(t0)
    800005c4:	04000593          	li	a1,64
    800005c8:	01e58463          	beq	a1,t5,800005d0 <inst_15>
    800005cc:	a59ff06f          	j	80000024 <rvtest_error>

00000000800005d0 <inst_15>:
    800005d0:	00100f13          	li	t5,1
    800005d4:	016f1f13          	slli	t5,t5,0x16
    800005d8:	ffff4f13          	not	t5,t5
    800005dc:	080f7693          	andi	a3,t5,128
    800005e0:	06d2bc23          	sd	a3,120(t0)
    800005e4:	08000593          	li	a1,128
    800005e8:	00d58463          	beq	a1,a3,800005f0 <inst_16>
    800005ec:	a39ff06f          	j	80000024 <rvtest_error>

00000000800005f0 <inst_16>:
    800005f0:	00100d13          	li	s10,1
    800005f4:	032d1d13          	slli	s10,s10,0x32
    800005f8:	100d7b13          	andi	s6,s10,256
    800005fc:	0962b023          	sd	s6,128(t0)
    80000600:	00000593          	li	a1,0
    80000604:	01658463          	beq	a1,s6,8000060c <inst_17>
    80000608:	a1dff06f          	j	80000024 <rvtest_error>

000000008000060c <inst_17>:
    8000060c:	66666eb7          	lui	t4,0x66666
    80000610:	666e8e93          	addi	t4,t4,1638 # 66666666 <absimmsh+0x5ab958b9>
    80000614:	00be9e93          	slli	t4,t4,0xb
    80000618:	333e8e93          	addi	t4,t4,819
    8000061c:	00be9e93          	slli	t4,t4,0xb
    80000620:	199e8e93          	addi	t4,t4,409
    80000624:	00ae9e93          	slli	t4,t4,0xa
    80000628:	265e8e93          	addi	t4,t4,613
    8000062c:	400ef213          	andi	tp,t4,1024
    80000630:	0842b423          	sd	tp,136(t0)
    80000634:	40000593          	li	a1,1024
    80000638:	00458463          	beq	a1,tp,80000640 <inst_18>
    8000063c:	9e9ff06f          	j	80000024 <rvtest_error>

0000000080000640 <inst_18>:
    80000640:	55555cb7          	lui	s9,0x55555
    80000644:	555c8c93          	addi	s9,s9,1365 # 55555555 <absimmsh+0x49a847a8>
    80000648:	00bc9c93          	slli	s9,s9,0xb
    8000064c:	2aac8c93          	addi	s9,s9,682
    80000650:	00bc9c93          	slli	s9,s9,0xb
    80000654:	555c8c93          	addi	s9,s9,1365
    80000658:	00ac9c93          	slli	s9,s9,0xa
    8000065c:	154c8c93          	addi	s9,s9,340
    80000660:	ffecf013          	andi	zero,s9,-2
    80000664:	0802b823          	sd	zero,144(t0)
    80000668:	00000593          	li	a1,0
    8000066c:	00058463          	beqz	a1,80000674 <inst_19>
    80000670:	9b5ff06f          	j	80000024 <rvtest_error>

0000000080000674 <inst_19>:
    80000674:	00100613          	li	a2,1
    80000678:	02561613          	slli	a2,a2,0x25
    8000067c:	ffd67b93          	andi	s7,a2,-3
    80000680:	0972bc23          	sd	s7,152(t0)
    80000684:	0010059b          	addiw	a1,zero,1
    80000688:	02559593          	slli	a1,a1,0x25
    8000068c:	01758463          	beq	a1,s7,80000694 <inst_20>
    80000690:	995ff06f          	j	80000024 <rvtest_error>

0000000080000694 <inst_20>:
    80000694:	00100c13          	li	s8,1
    80000698:	029c1c13          	slli	s8,s8,0x29
    8000069c:	fffc4c13          	not	s8,s8
    800006a0:	ffbc7313          	andi	t1,s8,-5
    800006a4:	0a62b023          	sd	t1,160(t0)
    800006a8:	fff0011b          	addiw	sp,zero,-1
    800006ac:	02911113          	slli	sp,sp,0x29
    800006b0:	ffb10113          	addi	sp,sp,-5
    800006b4:	00610463          	beq	sp,t1,800006bc <inst_21>
    800006b8:	96dff06f          	j	80000024 <rvtest_error>

00000000800006bc <inst_21>:
    800006bc:	666663b7          	lui	t2,0x66666
    800006c0:	66638393          	addi	t2,t2,1638 # 66666666 <absimmsh+0x5ab958b9>
    800006c4:	00b39393          	slli	t2,t2,0xb
    800006c8:	33338393          	addi	t2,t2,819
    800006cc:	00b39393          	slli	t2,t2,0xb
    800006d0:	19938393          	addi	t2,t2,409
    800006d4:	00a39393          	slli	t2,t2,0xa
    800006d8:	26538393          	addi	t2,t2,613
    800006dc:	ff73f593          	andi	a1,t2,-9
    800006e0:	0ab2b423          	sd	a1,168(t0)
    800006e4:	03333137          	lui	sp,0x3333
    800006e8:	3331011b          	addiw	sp,sp,819 # 3333333 <offset+0x333308b>
    800006ec:	00c11113          	slli	sp,sp,0xc
    800006f0:	33310113          	addi	sp,sp,819
    800006f4:	00c11113          	slli	sp,sp,0xc
    800006f8:	33310113          	addi	sp,sp,819
    800006fc:	00d11113          	slli	sp,sp,0xd
    80000700:	66510113          	addi	sp,sp,1637
    80000704:	00b10463          	beq	sp,a1,8000070c <inst_21+0x50>
    80000708:	91dff06f          	j	80000024 <rvtest_error>
    8000070c:	00000013          	nop
    80000710:	00000013          	nop
    80000714:	00000013          	nop
    80000718:	00000013          	nop
    8000071c:	00000013          	nop
    80000720:	00008097          	auipc	ra,0x8
    80000724:	99808093          	addi	ra,ra,-1640 # 800080b8 <signature_x1_0>
    80000728:	00000013          	nop
    8000072c:	00000013          	nop
    80000730:	00000013          	nop
    80000734:	00000013          	nop
    80000738:	00000013          	nop
    8000073c:	00000013          	nop

0000000080000740 <inst_22>:
    80000740:	55555e37          	lui	t3,0x55555
    80000744:	555e0e13          	addi	t3,t3,1365 # 55555555 <absimmsh+0x49a847a8>
    80000748:	00be1e13          	slli	t3,t3,0xb
    8000074c:	2aae0e13          	addi	t3,t3,682
    80000750:	00be1e13          	slli	t3,t3,0xb
    80000754:	555e0e13          	addi	t3,t3,1365
    80000758:	00ae1e13          	slli	t3,t3,0xa
    8000075c:	155e0e13          	addi	t3,t3,341
    80000760:	fefe7c93          	andi	s9,t3,-17
    80000764:	0190b023          	sd	s9,0(ra)
    80000768:	05555137          	lui	sp,0x5555
    8000076c:	5551011b          	addiw	sp,sp,1365 # 5555555 <offset+0x55552ad>
    80000770:	00c11113          	slli	sp,sp,0xc
    80000774:	55510113          	addi	sp,sp,1365
    80000778:	00c11113          	slli	sp,sp,0xc
    8000077c:	55510113          	addi	sp,sp,1365
    80000780:	00c11113          	slli	sp,sp,0xc
    80000784:	54510113          	addi	sp,sp,1349
    80000788:	01910463          	beq	sp,s9,80000790 <inst_23>
    8000078c:	899ff06f          	j	80000024 <rvtest_error>

0000000080000790 <inst_23>:
    80000790:	00800d93          	li	s11,8
    80000794:	fbfdf293          	andi	t0,s11,-65
    80000798:	0050b423          	sd	t0,8(ra)
    8000079c:	00800113          	li	sp,8
    800007a0:	00510463          	beq	sp,t0,800007a8 <inst_24>
    800007a4:	881ff06f          	j	80000024 <rvtest_error>

00000000800007a8 <inst_24>:
    800007a8:	00100813          	li	a6,1
    800007ac:	02a81813          	slli	a6,a6,0x2a
    800007b0:	fff84813          	not	a6,a6
    800007b4:	f7f87993          	andi	s3,a6,-129
    800007b8:	0130b823          	sd	s3,16(ra)
    800007bc:	fff0011b          	addiw	sp,zero,-1
    800007c0:	02a11113          	slli	sp,sp,0x2a
    800007c4:	f7f10113          	addi	sp,sp,-129
    800007c8:	01310463          	beq	sp,s3,800007d0 <inst_25>
    800007cc:	859ff06f          	j	80000024 <rvtest_error>

00000000800007d0 <inst_25>:
    800007d0:	00100513          	li	a0,1
    800007d4:	03e51513          	slli	a0,a0,0x3e
    800007d8:	eff57193          	andi	gp,a0,-257
    800007dc:	0030bc23          	sd	gp,24(ra)
    800007e0:	0010011b          	addiw	sp,zero,1
    800007e4:	03e11113          	slli	sp,sp,0x3e
    800007e8:	00310463          	beq	sp,gp,800007f0 <inst_26>
    800007ec:	839ff06f          	j	80000024 <rvtest_error>

00000000800007f0 <inst_26>:
    800007f0:	00000013          	nop
    800007f4:	dff07813          	andi	a6,zero,-513
    800007f8:	0300b023          	sd	a6,32(ra)
    800007fc:	00000113          	li	sp,0
    80000800:	01010463          	beq	sp,a6,80000808 <inst_27>
    80000804:	821ff06f          	j	80000024 <rvtest_error>

0000000080000808 <inst_27>:
    80000808:	333338b7          	lui	a7,0x33333
    8000080c:	33388893          	addi	a7,a7,819 # 33333333 <absimmsh+0x27862586>
    80000810:	00b89893          	slli	a7,a7,0xb
    80000814:	19988893          	addi	a7,a7,409
    80000818:	00b89893          	slli	a7,a7,0xb
    8000081c:	4cc88893          	addi	a7,a7,1228
    80000820:	00a89893          	slli	a7,a7,0xa
    80000824:	33288893          	addi	a7,a7,818
    80000828:	bff8f493          	andi	s1,a7,-1025
    8000082c:	0290b423          	sd	s1,40(ra)
    80000830:	03333137          	lui	sp,0x3333
    80000834:	3331011b          	addiw	sp,sp,819 # 3333333 <offset+0x333308b>
    80000838:	00c11113          	slli	sp,sp,0xc
    8000083c:	33310113          	addi	sp,sp,819
    80000840:	00c11113          	slli	sp,sp,0xc
    80000844:	33310113          	addi	sp,sp,819
    80000848:	00c11113          	slli	sp,sp,0xc
    8000084c:	33210113          	addi	sp,sp,818
    80000850:	00910463          	beq	sp,s1,80000858 <inst_28>
    80000854:	fd0ff06f          	j	80000024 <rvtest_error>

0000000080000858 <inst_28>:
    80000858:	00000737          	lui	a4,0x0
    8000085c:	00070713          	mv	a4,a4
    80000860:	00b71713          	slli	a4,a4,0xb
    80000864:	5a870713          	addi	a4,a4,1448 # 5a8 <offset+0x300>
    80000868:	00b71713          	slli	a4,a4,0xb
    8000086c:	13c70713          	addi	a4,a4,316
    80000870:	00a71713          	slli	a4,a4,0xa
    80000874:	33470713          	addi	a4,a4,820
    80000878:	55577613          	andi	a2,a4,1365
    8000087c:	02c0b823          	sd	a2,48(ra)
    80000880:	11400113          	li	sp,276
    80000884:	00c10463          	beq	sp,a2,8000088c <inst_29>
    80000888:	f9cff06f          	j	80000024 <rvtest_error>

000000008000088c <inst_29>:
    8000088c:	00100293          	li	t0,1
    80000890:	03629293          	slli	t0,t0,0x36
    80000894:	fff2c293          	not	t0,t0
    80000898:	aaa2f793          	andi	a5,t0,-1366
    8000089c:	02f0bc23          	sd	a5,56(ra)
    800008a0:	fff0011b          	addiw	sp,zero,-1
    800008a4:	03611113          	slli	sp,sp,0x36
    800008a8:	aaa10113          	addi	sp,sp,-1366
    800008ac:	00f10463          	beq	sp,a5,800008b4 <inst_30>
    800008b0:	f74ff06f          	j	80000024 <rvtest_error>

00000000800008b4 <inst_30>:
    800008b4:	00200593          	li	a1,2
    800008b8:	aab5f413          	andi	s0,a1,-1365
    800008bc:	0480b023          	sd	s0,64(ra)
    800008c0:	00200113          	li	sp,2
    800008c4:	00810463          	beq	sp,s0,800008cc <inst_31>
    800008c8:	f5cff06f          	j	80000024 <rvtest_error>

00000000800008cc <inst_31>:
    800008cc:	00400213          	li	tp,4
    800008d0:	80027713          	andi	a4,tp,-2048
    800008d4:	04e0b423          	sd	a4,72(ra)
    800008d8:	00000113          	li	sp,0
    800008dc:	00e10463          	beq	sp,a4,800008e4 <inst_32>
    800008e0:	f44ff06f          	j	80000024 <rvtest_error>

00000000800008e4 <inst_32>:
    800008e4:	02000513          	li	a0,32
    800008e8:	55557593          	andi	a1,a0,1365
    800008ec:	04b0b823          	sd	a1,80(ra)
    800008f0:	00000113          	li	sp,0
    800008f4:	00b10463          	beq	sp,a1,800008fc <inst_33>
    800008f8:	f2cff06f          	j	80000024 <rvtest_error>

00000000800008fc <inst_33>:
    800008fc:	04000513          	li	a0,64
    80000900:	00057593          	andi	a1,a0,0
    80000904:	04b0bc23          	sd	a1,88(ra)
    80000908:	00000113          	li	sp,0
    8000090c:	00b10463          	beq	sp,a1,80000914 <inst_34>
    80000910:	f14ff06f          	j	80000024 <rvtest_error>

0000000080000914 <inst_34>:
    80000914:	08000513          	li	a0,128
    80000918:	66657593          	andi	a1,a0,1638
    8000091c:	06b0b023          	sd	a1,96(ra)
    80000920:	00000113          	li	sp,0
    80000924:	00b10463          	beq	sp,a1,8000092c <inst_35>
    80000928:	efcff06f          	j	80000024 <rvtest_error>

000000008000092c <inst_35>:
    8000092c:	10000513          	li	a0,256
    80000930:	ff657593          	andi	a1,a0,-10
    80000934:	06b0b423          	sd	a1,104(ra)
    80000938:	10000113          	li	sp,256
    8000093c:	00b10463          	beq	sp,a1,80000944 <inst_36>
    80000940:	ee4ff06f          	j	80000024 <rvtest_error>

0000000080000944 <inst_36>:
    80000944:	20000513          	li	a0,512
    80000948:	00257593          	andi	a1,a0,2
    8000094c:	06b0b823          	sd	a1,112(ra)
    80000950:	00000113          	li	sp,0
    80000954:	00b10463          	beq	sp,a1,8000095c <inst_37>
    80000958:	eccff06f          	j	80000024 <rvtest_error>

000000008000095c <inst_37>:
    8000095c:	00100513          	li	a0,1
    80000960:	00b51513          	slli	a0,a0,0xb
    80000964:	aaa57593          	andi	a1,a0,-1366
    80000968:	06b0bc23          	sd	a1,120(ra)
    8000096c:	00001137          	lui	sp,0x1
    80000970:	8001011b          	addiw	sp,sp,-2048 # 800 <offset+0x558>
    80000974:	00b10463          	beq	sp,a1,8000097c <inst_38>
    80000978:	eacff06f          	j	80000024 <rvtest_error>

000000008000097c <inst_38>:
    8000097c:	00100513          	li	a0,1
    80000980:	00d51513          	slli	a0,a0,0xd
    80000984:	33357593          	andi	a1,a0,819
    80000988:	08b0b023          	sd	a1,128(ra)
    8000098c:	00000113          	li	sp,0
    80000990:	00b10463          	beq	sp,a1,80000998 <inst_39>
    80000994:	e90ff06f          	j	80000024 <rvtest_error>

0000000080000998 <inst_39>:
    80000998:	00100513          	li	a0,1
    8000099c:	00e51513          	slli	a0,a0,0xe
    800009a0:	55457593          	andi	a1,a0,1364
    800009a4:	08b0b423          	sd	a1,136(ra)
    800009a8:	00000113          	li	sp,0
    800009ac:	00b10463          	beq	sp,a1,800009b4 <inst_40>
    800009b0:	e74ff06f          	j	80000024 <rvtest_error>

00000000800009b4 <inst_40>:
    800009b4:	00100513          	li	a0,1
    800009b8:	00f51513          	slli	a0,a0,0xf
    800009bc:	55657593          	andi	a1,a0,1366
    800009c0:	08b0b823          	sd	a1,144(ra)
    800009c4:	00000113          	li	sp,0
    800009c8:	00b10463          	beq	sp,a1,800009d0 <inst_41>
    800009cc:	e58ff06f          	j	80000024 <rvtest_error>

00000000800009d0 <inst_41>:
    800009d0:	00100513          	li	a0,1
    800009d4:	01051513          	slli	a0,a0,0x10
    800009d8:	00257593          	andi	a1,a0,2
    800009dc:	08b0bc23          	sd	a1,152(ra)
    800009e0:	00000113          	li	sp,0
    800009e4:	00b10463          	beq	sp,a1,800009ec <inst_42>
    800009e8:	e3cff06f          	j	80000024 <rvtest_error>

00000000800009ec <inst_42>:
    800009ec:	00100513          	li	a0,1
    800009f0:	01151513          	slli	a0,a0,0x11
    800009f4:	ffd57593          	andi	a1,a0,-3
    800009f8:	0ab0b023          	sd	a1,160(ra)
    800009fc:	00020137          	lui	sp,0x20
    80000a00:	00b10463          	beq	sp,a1,80000a08 <inst_43>
    80000a04:	e20ff06f          	j	80000024 <rvtest_error>

0000000080000a08 <inst_43>:
    80000a08:	00100513          	li	a0,1
    80000a0c:	01251513          	slli	a0,a0,0x12
    80000a10:	00057593          	andi	a1,a0,0
    80000a14:	0ab0b423          	sd	a1,168(ra)
    80000a18:	00000113          	li	sp,0
    80000a1c:	00b10463          	beq	sp,a1,80000a24 <inst_44>
    80000a20:	e04ff06f          	j	80000024 <rvtest_error>

0000000080000a24 <inst_44>:
    80000a24:	00100513          	li	a0,1
    80000a28:	01351513          	slli	a0,a0,0x13
    80000a2c:	00057593          	andi	a1,a0,0
    80000a30:	0ab0b823          	sd	a1,176(ra)
    80000a34:	00000113          	li	sp,0
    80000a38:	00b10463          	beq	sp,a1,80000a40 <inst_45>
    80000a3c:	de8ff06f          	j	80000024 <rvtest_error>

0000000080000a40 <inst_45>:
    80000a40:	00100513          	li	a0,1
    80000a44:	01451513          	slli	a0,a0,0x14
    80000a48:	fd457593          	andi	a1,a0,-44
    80000a4c:	0ab0bc23          	sd	a1,184(ra)
    80000a50:	00100137          	lui	sp,0x100
    80000a54:	00b10463          	beq	sp,a1,80000a5c <inst_46>
    80000a58:	dccff06f          	j	80000024 <rvtest_error>

0000000080000a5c <inst_46>:
    80000a5c:	00100513          	li	a0,1
    80000a60:	01551513          	slli	a0,a0,0x15
    80000a64:	ffb57593          	andi	a1,a0,-5
    80000a68:	0cb0b023          	sd	a1,192(ra)
    80000a6c:	00200137          	lui	sp,0x200
    80000a70:	00b10463          	beq	sp,a1,80000a78 <inst_47>
    80000a74:	db0ff06f          	j	80000024 <rvtest_error>

0000000080000a78 <inst_47>:
    80000a78:	00100513          	li	a0,1
    80000a7c:	01651513          	slli	a0,a0,0x16
    80000a80:	00657593          	andi	a1,a0,6
    80000a84:	0cb0b423          	sd	a1,200(ra)
    80000a88:	00000113          	li	sp,0
    80000a8c:	00b10463          	beq	sp,a1,80000a94 <inst_48>
    80000a90:	d94ff06f          	j	80000024 <rvtest_error>

0000000080000a94 <inst_48>:
    80000a94:	00100513          	li	a0,1
    80000a98:	01751513          	slli	a0,a0,0x17
    80000a9c:	ffe57593          	andi	a1,a0,-2
    80000aa0:	0cb0b823          	sd	a1,208(ra)
    80000aa4:	00800137          	lui	sp,0x800
    80000aa8:	00b10463          	beq	sp,a1,80000ab0 <inst_49>
    80000aac:	d78ff06f          	j	80000024 <rvtest_error>

0000000080000ab0 <inst_49>:
    80000ab0:	00100513          	li	a0,1
    80000ab4:	01851513          	slli	a0,a0,0x18
    80000ab8:	ff757593          	andi	a1,a0,-9
    80000abc:	0cb0bc23          	sd	a1,216(ra)
    80000ac0:	01000137          	lui	sp,0x1000
    80000ac4:	00b10463          	beq	sp,a1,80000acc <inst_50>
    80000ac8:	d5cff06f          	j	80000024 <rvtest_error>

0000000080000acc <inst_50>:
    80000acc:	00100513          	li	a0,1
    80000ad0:	01951513          	slli	a0,a0,0x19
    80000ad4:	00757593          	andi	a1,a0,7
    80000ad8:	0eb0b023          	sd	a1,224(ra)
    80000adc:	00000113          	li	sp,0
    80000ae0:	00b10463          	beq	sp,a1,80000ae8 <inst_51>
    80000ae4:	d40ff06f          	j	80000024 <rvtest_error>

0000000080000ae8 <inst_51>:
    80000ae8:	00100513          	li	a0,1
    80000aec:	01a51513          	slli	a0,a0,0x1a
    80000af0:	00757593          	andi	a1,a0,7
    80000af4:	0eb0b423          	sd	a1,232(ra)
    80000af8:	00000113          	li	sp,0
    80000afc:	00b10463          	beq	sp,a1,80000b04 <inst_52>
    80000b00:	d24ff06f          	j	80000024 <rvtest_error>

0000000080000b04 <inst_52>:
    80000b04:	00100513          	li	a0,1
    80000b08:	01b51513          	slli	a0,a0,0x1b
    80000b0c:	55557593          	andi	a1,a0,1365
    80000b10:	0eb0b823          	sd	a1,240(ra)
    80000b14:	00000113          	li	sp,0
    80000b18:	00b10463          	beq	sp,a1,80000b20 <inst_53>
    80000b1c:	d08ff06f          	j	80000024 <rvtest_error>

0000000080000b20 <inst_53>:
    80000b20:	00100513          	li	a0,1
    80000b24:	01c51513          	slli	a0,a0,0x1c
    80000b28:	55457593          	andi	a1,a0,1364
    80000b2c:	0eb0bc23          	sd	a1,248(ra)
    80000b30:	00000113          	li	sp,0
    80000b34:	00b10463          	beq	sp,a1,80000b3c <inst_54>
    80000b38:	cecff06f          	j	80000024 <rvtest_error>

0000000080000b3c <inst_54>:
    80000b3c:	00100513          	li	a0,1
    80000b40:	01d51513          	slli	a0,a0,0x1d
    80000b44:	33357593          	andi	a1,a0,819
    80000b48:	10b0b023          	sd	a1,256(ra)
    80000b4c:	00000113          	li	sp,0
    80000b50:	00b10463          	beq	sp,a1,80000b58 <inst_55>
    80000b54:	cd0ff06f          	j	80000024 <rvtest_error>

0000000080000b58 <inst_55>:
    80000b58:	00100513          	li	a0,1
    80000b5c:	01e51513          	slli	a0,a0,0x1e
    80000b60:	aab57593          	andi	a1,a0,-1365
    80000b64:	10b0b423          	sd	a1,264(ra)
    80000b68:	40000137          	lui	sp,0x40000
    80000b6c:	00b10463          	beq	sp,a1,80000b74 <inst_56>
    80000b70:	cb4ff06f          	j	80000024 <rvtest_error>

0000000080000b74 <inst_56>:
    80000b74:	00100513          	li	a0,1
    80000b78:	01f51513          	slli	a0,a0,0x1f
    80000b7c:	ff957593          	andi	a1,a0,-7
    80000b80:	10b0b823          	sd	a1,272(ra)
    80000b84:	0010011b          	addiw	sp,zero,1
    80000b88:	01f11113          	slli	sp,sp,0x1f
    80000b8c:	00b10463          	beq	sp,a1,80000b94 <inst_57>
    80000b90:	c94ff06f          	j	80000024 <rvtest_error>

0000000080000b94 <inst_57>:
    80000b94:	00100513          	li	a0,1
    80000b98:	02051513          	slli	a0,a0,0x20
    80000b9c:	08057593          	andi	a1,a0,128
    80000ba0:	10b0bc23          	sd	a1,280(ra)
    80000ba4:	00000113          	li	sp,0
    80000ba8:	00b10463          	beq	sp,a1,80000bb0 <inst_58>
    80000bac:	c78ff06f          	j	80000024 <rvtest_error>

0000000080000bb0 <inst_58>:
    80000bb0:	00100513          	li	a0,1
    80000bb4:	02151513          	slli	a0,a0,0x21
    80000bb8:	00957593          	andi	a1,a0,9
    80000bbc:	12b0b023          	sd	a1,288(ra)
    80000bc0:	00000113          	li	sp,0
    80000bc4:	00b10463          	beq	sp,a1,80000bcc <inst_59>
    80000bc8:	c5cff06f          	j	80000024 <rvtest_error>

0000000080000bcc <inst_59>:
    80000bcc:	00100513          	li	a0,1
    80000bd0:	02251513          	slli	a0,a0,0x22
    80000bd4:	ffd57593          	andi	a1,a0,-3
    80000bd8:	12b0b423          	sd	a1,296(ra)
    80000bdc:	0010011b          	addiw	sp,zero,1
    80000be0:	02211113          	slli	sp,sp,0x22
    80000be4:	00b10463          	beq	sp,a1,80000bec <inst_60>
    80000be8:	c3cff06f          	j	80000024 <rvtest_error>

0000000080000bec <inst_60>:
    80000bec:	00100513          	li	a0,1
    80000bf0:	02351513          	slli	a0,a0,0x23
    80000bf4:	00457593          	andi	a1,a0,4
    80000bf8:	12b0b823          	sd	a1,304(ra)
    80000bfc:	00000113          	li	sp,0
    80000c00:	00b10463          	beq	sp,a1,80000c08 <inst_61>
    80000c04:	c20ff06f          	j	80000024 <rvtest_error>

0000000080000c08 <inst_61>:
    80000c08:	00100513          	li	a0,1
    80000c0c:	02451513          	slli	a0,a0,0x24
    80000c10:	ffd57593          	andi	a1,a0,-3
    80000c14:	12b0bc23          	sd	a1,312(ra)
    80000c18:	0010011b          	addiw	sp,zero,1
    80000c1c:	02411113          	slli	sp,sp,0x24
    80000c20:	00b10463          	beq	sp,a1,80000c28 <inst_62>
    80000c24:	c00ff06f          	j	80000024 <rvtest_error>

0000000080000c28 <inst_62>:
    80000c28:	00100513          	li	a0,1
    80000c2c:	02651513          	slli	a0,a0,0x26
    80000c30:	00057593          	andi	a1,a0,0
    80000c34:	14b0b023          	sd	a1,320(ra)
    80000c38:	00000113          	li	sp,0
    80000c3c:	00b10463          	beq	sp,a1,80000c44 <inst_63>
    80000c40:	be4ff06f          	j	80000024 <rvtest_error>

0000000080000c44 <inst_63>:
    80000c44:	00100513          	li	a0,1
    80000c48:	02751513          	slli	a0,a0,0x27
    80000c4c:	01057593          	andi	a1,a0,16
    80000c50:	14b0b423          	sd	a1,328(ra)
    80000c54:	00000113          	li	sp,0
    80000c58:	00b10463          	beq	sp,a1,80000c60 <inst_64>
    80000c5c:	bc8ff06f          	j	80000024 <rvtest_error>

0000000080000c60 <inst_64>:
    80000c60:	00100513          	li	a0,1
    80000c64:	02851513          	slli	a0,a0,0x28
    80000c68:	3ff57593          	andi	a1,a0,1023
    80000c6c:	14b0b823          	sd	a1,336(ra)
    80000c70:	00000113          	li	sp,0
    80000c74:	00b10463          	beq	sp,a1,80000c7c <inst_65>
    80000c78:	bacff06f          	j	80000024 <rvtest_error>

0000000080000c7c <inst_65>:
    80000c7c:	00100513          	li	a0,1
    80000c80:	02a51513          	slli	a0,a0,0x2a
    80000c84:	aab57593          	andi	a1,a0,-1365
    80000c88:	14b0bc23          	sd	a1,344(ra)
    80000c8c:	0010011b          	addiw	sp,zero,1
    80000c90:	02a11113          	slli	sp,sp,0x2a
    80000c94:	00b10463          	beq	sp,a1,80000c9c <inst_66>
    80000c98:	b8cff06f          	j	80000024 <rvtest_error>

0000000080000c9c <inst_66>:
    80000c9c:	00100513          	li	a0,1
    80000ca0:	02b51513          	slli	a0,a0,0x2b
    80000ca4:	04057593          	andi	a1,a0,64
    80000ca8:	16b0b023          	sd	a1,352(ra)
    80000cac:	00000113          	li	sp,0
    80000cb0:	00b10463          	beq	sp,a1,80000cb8 <inst_67>
    80000cb4:	b70ff06f          	j	80000024 <rvtest_error>

0000000080000cb8 <inst_67>:
    80000cb8:	00100513          	li	a0,1
    80000cbc:	02c51513          	slli	a0,a0,0x2c
    80000cc0:	fd457593          	andi	a1,a0,-44
    80000cc4:	16b0b423          	sd	a1,360(ra)
    80000cc8:	0010011b          	addiw	sp,zero,1
    80000ccc:	02c11113          	slli	sp,sp,0x2c
    80000cd0:	00b10463          	beq	sp,a1,80000cd8 <inst_68>
    80000cd4:	b50ff06f          	j	80000024 <rvtest_error>

0000000080000cd8 <inst_68>:
    80000cd8:	00100513          	li	a0,1
    80000cdc:	02d51513          	slli	a0,a0,0x2d
    80000ce0:	66757593          	andi	a1,a0,1639
    80000ce4:	16b0b823          	sd	a1,368(ra)
    80000ce8:	00000113          	li	sp,0
    80000cec:	00b10463          	beq	sp,a1,80000cf4 <inst_69>
    80000cf0:	b34ff06f          	j	80000024 <rvtest_error>

0000000080000cf4 <inst_69>:
    80000cf4:	00100513          	li	a0,1
    80000cf8:	02e51513          	slli	a0,a0,0x2e
    80000cfc:	00757593          	andi	a1,a0,7
    80000d00:	16b0bc23          	sd	a1,376(ra)
    80000d04:	00000113          	li	sp,0
    80000d08:	00b10463          	beq	sp,a1,80000d10 <inst_70>
    80000d0c:	b18ff06f          	j	80000024 <rvtest_error>

0000000080000d10 <inst_70>:
    80000d10:	00100513          	li	a0,1
    80000d14:	02f51513          	slli	a0,a0,0x2f
    80000d18:	55557593          	andi	a1,a0,1365
    80000d1c:	18b0b023          	sd	a1,384(ra)
    80000d20:	00000113          	li	sp,0
    80000d24:	00b10463          	beq	sp,a1,80000d2c <inst_71>
    80000d28:	afcff06f          	j	80000024 <rvtest_error>

0000000080000d2c <inst_71>:
    80000d2c:	00100513          	li	a0,1
    80000d30:	03051513          	slli	a0,a0,0x30
    80000d34:	00357593          	andi	a1,a0,3
    80000d38:	18b0b423          	sd	a1,392(ra)
    80000d3c:	00000113          	li	sp,0
    80000d40:	00b10463          	beq	sp,a1,80000d48 <inst_72>
    80000d44:	ae0ff06f          	j	80000024 <rvtest_error>

0000000080000d48 <inst_72>:
    80000d48:	00100513          	li	a0,1
    80000d4c:	03151513          	slli	a0,a0,0x31
    80000d50:	ffc57593          	andi	a1,a0,-4
    80000d54:	18b0b823          	sd	a1,400(ra)
    80000d58:	0010011b          	addiw	sp,zero,1
    80000d5c:	03111113          	slli	sp,sp,0x31
    80000d60:	00b10463          	beq	sp,a1,80000d68 <inst_73>
    80000d64:	ac0ff06f          	j	80000024 <rvtest_error>

0000000080000d68 <inst_73>:
    80000d68:	00100513          	li	a0,1
    80000d6c:	03351513          	slli	a0,a0,0x33
    80000d70:	00557593          	andi	a1,a0,5
    80000d74:	18b0bc23          	sd	a1,408(ra)
    80000d78:	00000113          	li	sp,0
    80000d7c:	00b10463          	beq	sp,a1,80000d84 <inst_74>
    80000d80:	aa4ff06f          	j	80000024 <rvtest_error>

0000000080000d84 <inst_74>:
    80000d84:	00100513          	li	a0,1
    80000d88:	03451513          	slli	a0,a0,0x34
    80000d8c:	33357593          	andi	a1,a0,819
    80000d90:	1ab0b023          	sd	a1,416(ra)
    80000d94:	00000113          	li	sp,0
    80000d98:	00b10463          	beq	sp,a1,80000da0 <inst_75>
    80000d9c:	a88ff06f          	j	80000024 <rvtest_error>

0000000080000da0 <inst_75>:
    80000da0:	00100513          	li	a0,1
    80000da4:	03551513          	slli	a0,a0,0x35
    80000da8:	00857593          	andi	a1,a0,8
    80000dac:	1ab0b423          	sd	a1,424(ra)
    80000db0:	00000113          	li	sp,0
    80000db4:	00b10463          	beq	sp,a1,80000dbc <inst_76>
    80000db8:	a6cff06f          	j	80000024 <rvtest_error>

0000000080000dbc <inst_76>:
    80000dbc:	00100513          	li	a0,1
    80000dc0:	03651513          	slli	a0,a0,0x36
    80000dc4:	00057593          	andi	a1,a0,0
    80000dc8:	1ab0b823          	sd	a1,432(ra)
    80000dcc:	00000113          	li	sp,0
    80000dd0:	00b10463          	beq	sp,a1,80000dd8 <inst_77>
    80000dd4:	a50ff06f          	j	80000024 <rvtest_error>

0000000080000dd8 <inst_77>:
    80000dd8:	00100513          	li	a0,1
    80000ddc:	03751513          	slli	a0,a0,0x37
    80000de0:	c0057593          	andi	a1,a0,-1024
    80000de4:	1ab0bc23          	sd	a1,440(ra)
    80000de8:	0010011b          	addiw	sp,zero,1
    80000dec:	03711113          	slli	sp,sp,0x37
    80000df0:	00b10463          	beq	sp,a1,80000df8 <inst_78>
    80000df4:	a30ff06f          	j	80000024 <rvtest_error>

0000000080000df8 <inst_78>:
    80000df8:	00100513          	li	a0,1
    80000dfc:	03851513          	slli	a0,a0,0x38
    80000e00:	00057593          	andi	a1,a0,0
    80000e04:	1cb0b023          	sd	a1,448(ra)
    80000e08:	00000113          	li	sp,0
    80000e0c:	00b10463          	beq	sp,a1,80000e14 <inst_79>
    80000e10:	a14ff06f          	j	80000024 <rvtest_error>

0000000080000e14 <inst_79>:
    80000e14:	00100513          	li	a0,1
    80000e18:	03951513          	slli	a0,a0,0x39
    80000e1c:	ff657593          	andi	a1,a0,-10
    80000e20:	1cb0b423          	sd	a1,456(ra)
    80000e24:	0010011b          	addiw	sp,zero,1
    80000e28:	03911113          	slli	sp,sp,0x39
    80000e2c:	00b10463          	beq	sp,a1,80000e34 <inst_80>
    80000e30:	9f4ff06f          	j	80000024 <rvtest_error>

0000000080000e34 <inst_80>:
    80000e34:	00100513          	li	a0,1
    80000e38:	03a51513          	slli	a0,a0,0x3a
    80000e3c:	40057593          	andi	a1,a0,1024
    80000e40:	1cb0b823          	sd	a1,464(ra)
    80000e44:	00000113          	li	sp,0
    80000e48:	00b10463          	beq	sp,a1,80000e50 <inst_81>
    80000e4c:	9d8ff06f          	j	80000024 <rvtest_error>

0000000080000e50 <inst_81>:
    80000e50:	00100513          	li	a0,1
    80000e54:	03b51513          	slli	a0,a0,0x3b
    80000e58:	00257593          	andi	a1,a0,2
    80000e5c:	1cb0bc23          	sd	a1,472(ra)
    80000e60:	00000113          	li	sp,0
    80000e64:	00b10463          	beq	sp,a1,80000e6c <inst_82>
    80000e68:	9bcff06f          	j	80000024 <rvtest_error>

0000000080000e6c <inst_82>:
    80000e6c:	00100513          	li	a0,1
    80000e70:	03c51513          	slli	a0,a0,0x3c
    80000e74:	aaa57593          	andi	a1,a0,-1366
    80000e78:	1eb0b023          	sd	a1,480(ra)
    80000e7c:	0010011b          	addiw	sp,zero,1
    80000e80:	03c11113          	slli	sp,sp,0x3c
    80000e84:	00b10463          	beq	sp,a1,80000e8c <inst_83>
    80000e88:	99cff06f          	j	80000024 <rvtest_error>

0000000080000e8c <inst_83>:
    80000e8c:	00100513          	li	a0,1
    80000e90:	03d51513          	slli	a0,a0,0x3d
    80000e94:	66757593          	andi	a1,a0,1639
    80000e98:	1eb0b423          	sd	a1,488(ra)
    80000e9c:	00000113          	li	sp,0
    80000ea0:	00b10463          	beq	sp,a1,80000ea8 <inst_84>
    80000ea4:	980ff06f          	j	80000024 <rvtest_error>

0000000080000ea8 <inst_84>:
    80000ea8:	ffe00513          	li	a0,-2
    80000eac:	00757593          	andi	a1,a0,7
    80000eb0:	1eb0b823          	sd	a1,496(ra)
    80000eb4:	00600113          	li	sp,6
    80000eb8:	00b10463          	beq	sp,a1,80000ec0 <inst_85>
    80000ebc:	968ff06f          	j	80000024 <rvtest_error>

0000000080000ec0 <inst_85>:
    80000ec0:	ffd00513          	li	a0,-3
    80000ec4:	33257593          	andi	a1,a0,818
    80000ec8:	1eb0bc23          	sd	a1,504(ra)
    80000ecc:	33000113          	li	sp,816
    80000ed0:	00b10463          	beq	sp,a1,80000ed8 <inst_86>
    80000ed4:	950ff06f          	j	80000024 <rvtest_error>

0000000080000ed8 <inst_86>:
    80000ed8:	ffb00513          	li	a0,-5
    80000edc:	00457593          	andi	a1,a0,4
    80000ee0:	20b0b023          	sd	a1,512(ra)
    80000ee4:	00000113          	li	sp,0
    80000ee8:	00b10463          	beq	sp,a1,80000ef0 <inst_87>
    80000eec:	938ff06f          	j	80000024 <rvtest_error>

0000000080000ef0 <inst_87>:
    80000ef0:	ff700513          	li	a0,-9
    80000ef4:	00757593          	andi	a1,a0,7
    80000ef8:	20b0b423          	sd	a1,520(ra)
    80000efc:	00700113          	li	sp,7
    80000f00:	00b10463          	beq	sp,a1,80000f08 <inst_88>
    80000f04:	920ff06f          	j	80000024 <rvtest_error>

0000000080000f08 <inst_88>:
    80000f08:	fdf00513          	li	a0,-33
    80000f0c:	ffc57593          	andi	a1,a0,-4
    80000f10:	20b0b823          	sd	a1,528(ra)
    80000f14:	fdc00113          	li	sp,-36
    80000f18:	00b10463          	beq	sp,a1,80000f20 <inst_89>
    80000f1c:	908ff06f          	j	80000024 <rvtest_error>

0000000080000f20 <inst_89>:
    80000f20:	fbf00513          	li	a0,-65
    80000f24:	66657593          	andi	a1,a0,1638
    80000f28:	20b0bc23          	sd	a1,536(ra)
    80000f2c:	62600113          	li	sp,1574
    80000f30:	00b10463          	beq	sp,a1,80000f38 <inst_90>
    80000f34:	8f0ff06f          	j	80000024 <rvtest_error>

0000000080000f38 <inst_90>:
    80000f38:	f7f00513          	li	a0,-129
    80000f3c:	00057593          	andi	a1,a0,0
    80000f40:	22b0b023          	sd	a1,544(ra)
    80000f44:	00000113          	li	sp,0
    80000f48:	00b10463          	beq	sp,a1,80000f50 <inst_91>
    80000f4c:	8d8ff06f          	j	80000024 <rvtest_error>

0000000080000f50 <inst_91>:
    80000f50:	dff00513          	li	a0,-513
    80000f54:	66757593          	andi	a1,a0,1639
    80000f58:	22b0b423          	sd	a1,552(ra)
    80000f5c:	46700113          	li	sp,1127
    80000f60:	00b10463          	beq	sp,a1,80000f68 <inst_92>
    80000f64:	8c0ff06f          	j	80000024 <rvtest_error>

0000000080000f68 <inst_92>:
    80000f68:	bff00513          	li	a0,-1025
    80000f6c:	00257593          	andi	a1,a0,2
    80000f70:	22b0b823          	sd	a1,560(ra)
    80000f74:	00200113          	li	sp,2
    80000f78:	00b10463          	beq	sp,a1,80000f80 <inst_93>
    80000f7c:	8a8ff06f          	j	80000024 <rvtest_error>

0000000080000f80 <inst_93>:
    80000f80:	00100513          	li	a0,1
    80000f84:	00b51513          	slli	a0,a0,0xb
    80000f88:	fff54513          	not	a0,a0
    80000f8c:	00757593          	andi	a1,a0,7
    80000f90:	22b0bc23          	sd	a1,568(ra)
    80000f94:	00700113          	li	sp,7
    80000f98:	00b10463          	beq	sp,a1,80000fa0 <inst_94>
    80000f9c:	888ff06f          	j	80000024 <rvtest_error>

0000000080000fa0 <inst_94>:
    80000fa0:	00100513          	li	a0,1
    80000fa4:	00c51513          	slli	a0,a0,0xc
    80000fa8:	fff54513          	not	a0,a0
    80000fac:	00057593          	andi	a1,a0,0
    80000fb0:	24b0b023          	sd	a1,576(ra)
    80000fb4:	00000113          	li	sp,0
    80000fb8:	00b10463          	beq	sp,a1,80000fc0 <inst_95>
    80000fbc:	868ff06f          	j	80000024 <rvtest_error>

0000000080000fc0 <inst_95>:
    80000fc0:	00100513          	li	a0,1
    80000fc4:	00d51513          	slli	a0,a0,0xd
    80000fc8:	fff54513          	not	a0,a0
    80000fcc:	00557593          	andi	a1,a0,5
    80000fd0:	24b0b423          	sd	a1,584(ra)
    80000fd4:	00500113          	li	sp,5
    80000fd8:	00b10463          	beq	sp,a1,80000fe0 <inst_96>
    80000fdc:	848ff06f          	j	80000024 <rvtest_error>

0000000080000fe0 <inst_96>:
    80000fe0:	00100513          	li	a0,1
    80000fe4:	00e51513          	slli	a0,a0,0xe
    80000fe8:	fff54513          	not	a0,a0
    80000fec:	3ff57593          	andi	a1,a0,1023
    80000ff0:	24b0b823          	sd	a1,592(ra)
    80000ff4:	3ff00113          	li	sp,1023
    80000ff8:	00b10463          	beq	sp,a1,80001000 <inst_97>
    80000ffc:	828ff06f          	j	80000024 <rvtest_error>

0000000080001000 <inst_97>:
    80001000:	00100513          	li	a0,1
    80001004:	00f51513          	slli	a0,a0,0xf
    80001008:	fff54513          	not	a0,a0
    8000100c:	00057593          	andi	a1,a0,0
    80001010:	24b0bc23          	sd	a1,600(ra)
    80001014:	00000113          	li	sp,0
    80001018:	00b10463          	beq	sp,a1,80001020 <inst_98>
    8000101c:	808ff06f          	j	80000024 <rvtest_error>

0000000080001020 <inst_98>:
    80001020:	00100513          	li	a0,1
    80001024:	01151513          	slli	a0,a0,0x11
    80001028:	fff54513          	not	a0,a0
    8000102c:	ff957593          	andi	a1,a0,-7
    80001030:	26b0b023          	sd	a1,608(ra)
    80001034:	fffe0137          	lui	sp,0xfffe0
    80001038:	ff91011b          	addiw	sp,sp,-7 # fffffffffffdfff9 <absimm+0xffffffff452d2529>
    8000103c:	00b10463          	beq	sp,a1,80001044 <inst_99>
    80001040:	fe5fe06f          	j	80000024 <rvtest_error>

0000000080001044 <inst_99>:
    80001044:	00100513          	li	a0,1
    80001048:	01351513          	slli	a0,a0,0x13
    8000104c:	fff54513          	not	a0,a0
    80001050:	ffd57593          	andi	a1,a0,-3
    80001054:	26b0b423          	sd	a1,616(ra)
    80001058:	fff80137          	lui	sp,0xfff80
    8000105c:	ffd1011b          	addiw	sp,sp,-3 # fffffffffff7fffd <absimm+0xffffffff4527252d>
    80001060:	00b10463          	beq	sp,a1,80001068 <inst_100>
    80001064:	fc1fe06f          	j	80000024 <rvtest_error>

0000000080001068 <inst_100>:
    80001068:	00100513          	li	a0,1
    8000106c:	01451513          	slli	a0,a0,0x14
    80001070:	fff54513          	not	a0,a0
    80001074:	33457593          	andi	a1,a0,820
    80001078:	26b0b823          	sd	a1,624(ra)
    8000107c:	33400113          	li	sp,820
    80001080:	00b10463          	beq	sp,a1,80001088 <inst_101>
    80001084:	fa1fe06f          	j	80000024 <rvtest_error>

0000000080001088 <inst_101>:
    80001088:	00100513          	li	a0,1
    8000108c:	01551513          	slli	a0,a0,0x15
    80001090:	fff54513          	not	a0,a0
    80001094:	ff657593          	andi	a1,a0,-10
    80001098:	26b0bc23          	sd	a1,632(ra)
    8000109c:	ffe00137          	lui	sp,0xffe00
    800010a0:	ff61011b          	addiw	sp,sp,-10 # ffffffffffdffff6 <absimm+0xffffffff450f2526>
    800010a4:	00b10463          	beq	sp,a1,800010ac <inst_102>
    800010a8:	f7dfe06f          	j	80000024 <rvtest_error>

00000000800010ac <inst_102>:
    800010ac:	00100513          	li	a0,1
    800010b0:	01751513          	slli	a0,a0,0x17
    800010b4:	fff54513          	not	a0,a0
    800010b8:	00257593          	andi	a1,a0,2
    800010bc:	28b0b023          	sd	a1,640(ra)
    800010c0:	00200113          	li	sp,2
    800010c4:	00b10463          	beq	sp,a1,800010cc <inst_103>
    800010c8:	f5dfe06f          	j	80000024 <rvtest_error>

00000000800010cc <inst_103>:
    800010cc:	00100513          	li	a0,1
    800010d0:	01851513          	slli	a0,a0,0x18
    800010d4:	fff54513          	not	a0,a0
    800010d8:	00057593          	andi	a1,a0,0
    800010dc:	28b0b423          	sd	a1,648(ra)
    800010e0:	00000113          	li	sp,0
    800010e4:	00b10463          	beq	sp,a1,800010ec <inst_104>
    800010e8:	f3dfe06f          	j	80000024 <rvtest_error>

00000000800010ec <inst_104>:
    800010ec:	00100513          	li	a0,1
    800010f0:	01951513          	slli	a0,a0,0x19
    800010f4:	fff54513          	not	a0,a0
    800010f8:	00857593          	andi	a1,a0,8
    800010fc:	28b0b823          	sd	a1,656(ra)
    80001100:	00800113          	li	sp,8
    80001104:	00b10463          	beq	sp,a1,8000110c <inst_105>
    80001108:	f1dfe06f          	j	80000024 <rvtest_error>

000000008000110c <inst_105>:
    8000110c:	00100513          	li	a0,1
    80001110:	01a51513          	slli	a0,a0,0x1a
    80001114:	fff54513          	not	a0,a0
    80001118:	33257593          	andi	a1,a0,818
    8000111c:	28b0bc23          	sd	a1,664(ra)
    80001120:	33200113          	li	sp,818
    80001124:	00b10463          	beq	sp,a1,8000112c <inst_106>
    80001128:	efdfe06f          	j	80000024 <rvtest_error>

000000008000112c <inst_106>:
    8000112c:	00100513          	li	a0,1
    80001130:	01b51513          	slli	a0,a0,0x1b
    80001134:	fff54513          	not	a0,a0
    80001138:	fd357593          	andi	a1,a0,-45
    8000113c:	2ab0b023          	sd	a1,672(ra)
    80001140:	f8000137          	lui	sp,0xf8000
    80001144:	fd31011b          	addiw	sp,sp,-45 # fffffffff7ffffd3 <absimm+0xffffffff3d2f2503>
    80001148:	00b10463          	beq	sp,a1,80001150 <inst_107>
    8000114c:	ed9fe06f          	j	80000024 <rvtest_error>

0000000080001150 <inst_107>:
    80001150:	00100513          	li	a0,1
    80001154:	01c51513          	slli	a0,a0,0x1c
    80001158:	fff54513          	not	a0,a0
    8000115c:	00557593          	andi	a1,a0,5
    80001160:	2ab0b423          	sd	a1,680(ra)
    80001164:	00500113          	li	sp,5
    80001168:	00b10463          	beq	sp,a1,80001170 <inst_108>
    8000116c:	eb9fe06f          	j	80000024 <rvtest_error>

0000000080001170 <inst_108>:
    80001170:	00100513          	li	a0,1
    80001174:	01d51513          	slli	a0,a0,0x1d
    80001178:	fff54513          	not	a0,a0
    8000117c:	00057593          	andi	a1,a0,0
    80001180:	2ab0b823          	sd	a1,688(ra)
    80001184:	00000113          	li	sp,0
    80001188:	00b10463          	beq	sp,a1,80001190 <inst_109>
    8000118c:	e99fe06f          	j	80000024 <rvtest_error>

0000000080001190 <inst_109>:
    80001190:	00100513          	li	a0,1
    80001194:	01e51513          	slli	a0,a0,0x1e
    80001198:	fff54513          	not	a0,a0
    8000119c:	fd357593          	andi	a1,a0,-45
    800011a0:	2ab0bc23          	sd	a1,696(ra)
    800011a4:	c0000137          	lui	sp,0xc0000
    800011a8:	fd31011b          	addiw	sp,sp,-45 # ffffffffbfffffd3 <absimm+0xffffffff052f2503>
    800011ac:	00b10463          	beq	sp,a1,800011b4 <inst_110>
    800011b0:	e75fe06f          	j	80000024 <rvtest_error>

00000000800011b4 <inst_110>:
    800011b4:	00100513          	li	a0,1
    800011b8:	01f51513          	slli	a0,a0,0x1f
    800011bc:	fff54513          	not	a0,a0
    800011c0:	3ff57593          	andi	a1,a0,1023
    800011c4:	2cb0b023          	sd	a1,704(ra)
    800011c8:	3ff00113          	li	sp,1023
    800011cc:	00b10463          	beq	sp,a1,800011d4 <inst_111>
    800011d0:	e55fe06f          	j	80000024 <rvtest_error>

00000000800011d4 <inst_111>:
    800011d4:	00100513          	li	a0,1
    800011d8:	02051513          	slli	a0,a0,0x20
    800011dc:	fff54513          	not	a0,a0
    800011e0:	00657593          	andi	a1,a0,6
    800011e4:	2cb0b423          	sd	a1,712(ra)
    800011e8:	00600113          	li	sp,6
    800011ec:	00b10463          	beq	sp,a1,800011f4 <inst_112>
    800011f0:	e35fe06f          	j	80000024 <rvtest_error>

00000000800011f4 <inst_112>:
    800011f4:	00100513          	li	a0,1
    800011f8:	02151513          	slli	a0,a0,0x21
    800011fc:	fff54513          	not	a0,a0
    80001200:	55657593          	andi	a1,a0,1366
    80001204:	2cb0b823          	sd	a1,720(ra)
    80001208:	55600113          	li	sp,1366
    8000120c:	00b10463          	beq	sp,a1,80001214 <inst_113>
    80001210:	e15fe06f          	j	80000024 <rvtest_error>

0000000080001214 <inst_113>:
    80001214:	00100513          	li	a0,1
    80001218:	02251513          	slli	a0,a0,0x22
    8000121c:	fff54513          	not	a0,a0
    80001220:	aaa57593          	andi	a1,a0,-1366
    80001224:	2cb0bc23          	sd	a1,728(ra)
    80001228:	fff0011b          	addiw	sp,zero,-1
    8000122c:	02211113          	slli	sp,sp,0x22
    80001230:	aaa10113          	addi	sp,sp,-1366
    80001234:	00b10463          	beq	sp,a1,8000123c <inst_114>
    80001238:	dedfe06f          	j	80000024 <rvtest_error>

000000008000123c <inst_114>:
    8000123c:	00100513          	li	a0,1
    80001240:	02351513          	slli	a0,a0,0x23
    80001244:	fff54513          	not	a0,a0
    80001248:	02057593          	andi	a1,a0,32
    8000124c:	2eb0b023          	sd	a1,736(ra)
    80001250:	02000113          	li	sp,32
    80001254:	00b10463          	beq	sp,a1,8000125c <inst_115>
    80001258:	dcdfe06f          	j	80000024 <rvtest_error>

000000008000125c <inst_115>:
    8000125c:	00100513          	li	a0,1
    80001260:	02451513          	slli	a0,a0,0x24
    80001264:	fff54513          	not	a0,a0
    80001268:	fd357593          	andi	a1,a0,-45
    8000126c:	2eb0b423          	sd	a1,744(ra)
    80001270:	fff0011b          	addiw	sp,zero,-1
    80001274:	02411113          	slli	sp,sp,0x24
    80001278:	fd310113          	addi	sp,sp,-45
    8000127c:	00b10463          	beq	sp,a1,80001284 <inst_116>
    80001280:	da5fe06f          	j	80000024 <rvtest_error>

0000000080001284 <inst_116>:
    80001284:	00100513          	li	a0,1
    80001288:	02551513          	slli	a0,a0,0x25
    8000128c:	fff54513          	not	a0,a0
    80001290:	00457593          	andi	a1,a0,4
    80001294:	2eb0b823          	sd	a1,752(ra)
    80001298:	00400113          	li	sp,4
    8000129c:	00b10463          	beq	sp,a1,800012a4 <inst_117>
    800012a0:	d85fe06f          	j	80000024 <rvtest_error>

00000000800012a4 <inst_117>:
    800012a4:	00100513          	li	a0,1
    800012a8:	02651513          	slli	a0,a0,0x26
    800012ac:	fff54513          	not	a0,a0
    800012b0:	02d57593          	andi	a1,a0,45
    800012b4:	2eb0bc23          	sd	a1,760(ra)
    800012b8:	02d00113          	li	sp,45
    800012bc:	00b10463          	beq	sp,a1,800012c4 <inst_118>
    800012c0:	d65fe06f          	j	80000024 <rvtest_error>

00000000800012c4 <inst_118>:
    800012c4:	00100513          	li	a0,1
    800012c8:	02751513          	slli	a0,a0,0x27
    800012cc:	fff54513          	not	a0,a0
    800012d0:	02057593          	andi	a1,a0,32
    800012d4:	30b0b023          	sd	a1,768(ra)
    800012d8:	02000113          	li	sp,32
    800012dc:	00b10463          	beq	sp,a1,800012e4 <inst_119>
    800012e0:	d45fe06f          	j	80000024 <rvtest_error>

00000000800012e4 <inst_119>:
    800012e4:	00100513          	li	a0,1
    800012e8:	02851513          	slli	a0,a0,0x28
    800012ec:	fff54513          	not	a0,a0
    800012f0:	fd457593          	andi	a1,a0,-44
    800012f4:	30b0b423          	sd	a1,776(ra)
    800012f8:	fff0011b          	addiw	sp,zero,-1
    800012fc:	02811113          	slli	sp,sp,0x28
    80001300:	fd410113          	addi	sp,sp,-44
    80001304:	00b10463          	beq	sp,a1,8000130c <inst_120>
    80001308:	d1dfe06f          	j	80000024 <rvtest_error>

000000008000130c <inst_120>:
    8000130c:	00100513          	li	a0,1
    80001310:	02b51513          	slli	a0,a0,0x2b
    80001314:	fff54513          	not	a0,a0
    80001318:	ffb57593          	andi	a1,a0,-5
    8000131c:	30b0b823          	sd	a1,784(ra)
    80001320:	fff0011b          	addiw	sp,zero,-1
    80001324:	02b11113          	slli	sp,sp,0x2b
    80001328:	ffb10113          	addi	sp,sp,-5
    8000132c:	00b10463          	beq	sp,a1,80001334 <inst_121>
    80001330:	cf5fe06f          	j	80000024 <rvtest_error>

0000000080001334 <inst_121>:
    80001334:	00100513          	li	a0,1
    80001338:	02c51513          	slli	a0,a0,0x2c
    8000133c:	fff54513          	not	a0,a0
    80001340:	fd457593          	andi	a1,a0,-44
    80001344:	30b0bc23          	sd	a1,792(ra)
    80001348:	fff0011b          	addiw	sp,zero,-1
    8000134c:	02c11113          	slli	sp,sp,0x2c
    80001350:	fd410113          	addi	sp,sp,-44
    80001354:	00b10463          	beq	sp,a1,8000135c <inst_122>
    80001358:	ccdfe06f          	j	80000024 <rvtest_error>

000000008000135c <inst_122>:
    8000135c:	00100513          	li	a0,1
    80001360:	02d51513          	slli	a0,a0,0x2d
    80001364:	fff54513          	not	a0,a0
    80001368:	fd457593          	andi	a1,a0,-44
    8000136c:	32b0b023          	sd	a1,800(ra)
    80001370:	fff0011b          	addiw	sp,zero,-1
    80001374:	02d11113          	slli	sp,sp,0x2d
    80001378:	fd410113          	addi	sp,sp,-44
    8000137c:	00b10463          	beq	sp,a1,80001384 <inst_123>
    80001380:	ca5fe06f          	j	80000024 <rvtest_error>

0000000080001384 <inst_123>:
    80001384:	00100513          	li	a0,1
    80001388:	02e51513          	slli	a0,a0,0x2e
    8000138c:	fff54513          	not	a0,a0
    80001390:	02c57593          	andi	a1,a0,44
    80001394:	32b0b423          	sd	a1,808(ra)
    80001398:	02c00113          	li	sp,44
    8000139c:	00b10463          	beq	sp,a1,800013a4 <inst_124>
    800013a0:	c85fe06f          	j	80000024 <rvtest_error>

00000000800013a4 <inst_124>:
    800013a4:	00100513          	li	a0,1
    800013a8:	02f51513          	slli	a0,a0,0x2f
    800013ac:	fff54513          	not	a0,a0
    800013b0:	55557593          	andi	a1,a0,1365
    800013b4:	32b0b823          	sd	a1,816(ra)
    800013b8:	55500113          	li	sp,1365
    800013bc:	00b10463          	beq	sp,a1,800013c4 <inst_125>
    800013c0:	c65fe06f          	j	80000024 <rvtest_error>

00000000800013c4 <inst_125>:
    800013c4:	00100513          	li	a0,1
    800013c8:	03051513          	slli	a0,a0,0x30
    800013cc:	fff54513          	not	a0,a0
    800013d0:	33457593          	andi	a1,a0,820
    800013d4:	32b0bc23          	sd	a1,824(ra)
    800013d8:	33400113          	li	sp,820
    800013dc:	00b10463          	beq	sp,a1,800013e4 <inst_126>
    800013e0:	c45fe06f          	j	80000024 <rvtest_error>

00000000800013e4 <inst_126>:
    800013e4:	00100513          	li	a0,1
    800013e8:	03151513          	slli	a0,a0,0x31
    800013ec:	fff54513          	not	a0,a0
    800013f0:	fbf57593          	andi	a1,a0,-65
    800013f4:	34b0b023          	sd	a1,832(ra)
    800013f8:	fff0011b          	addiw	sp,zero,-1
    800013fc:	03111113          	slli	sp,sp,0x31
    80001400:	fbf10113          	addi	sp,sp,-65
    80001404:	00b10463          	beq	sp,a1,8000140c <inst_127>
    80001408:	c1dfe06f          	j	80000024 <rvtest_error>

000000008000140c <inst_127>:
    8000140c:	00100513          	li	a0,1
    80001410:	03251513          	slli	a0,a0,0x32
    80001414:	fff54513          	not	a0,a0
    80001418:	fd457593          	andi	a1,a0,-44
    8000141c:	34b0b423          	sd	a1,840(ra)
    80001420:	fff0011b          	addiw	sp,zero,-1
    80001424:	03211113          	slli	sp,sp,0x32
    80001428:	fd410113          	addi	sp,sp,-44
    8000142c:	00b10463          	beq	sp,a1,80001434 <inst_128>
    80001430:	bf5fe06f          	j	80000024 <rvtest_error>

0000000080001434 <inst_128>:
    80001434:	00100513          	li	a0,1
    80001438:	03351513          	slli	a0,a0,0x33
    8000143c:	fff54513          	not	a0,a0
    80001440:	fd457593          	andi	a1,a0,-44
    80001444:	34b0b823          	sd	a1,848(ra)
    80001448:	fff0011b          	addiw	sp,zero,-1
    8000144c:	03311113          	slli	sp,sp,0x33
    80001450:	fd410113          	addi	sp,sp,-44
    80001454:	00b10463          	beq	sp,a1,8000145c <inst_129>
    80001458:	bcdfe06f          	j	80000024 <rvtest_error>

000000008000145c <inst_129>:
    8000145c:	00100513          	li	a0,1
    80001460:	03451513          	slli	a0,a0,0x34
    80001464:	fff54513          	not	a0,a0
    80001468:	bff57593          	andi	a1,a0,-1025
    8000146c:	34b0bc23          	sd	a1,856(ra)
    80001470:	fff0011b          	addiw	sp,zero,-1
    80001474:	03411113          	slli	sp,sp,0x34
    80001478:	bff10113          	addi	sp,sp,-1025
    8000147c:	00b10463          	beq	sp,a1,80001484 <inst_130>
    80001480:	ba5fe06f          	j	80000024 <rvtest_error>

0000000080001484 <inst_130>:
    80001484:	00100513          	li	a0,1
    80001488:	03551513          	slli	a0,a0,0x35
    8000148c:	fff54513          	not	a0,a0
    80001490:	fd357593          	andi	a1,a0,-45
    80001494:	36b0b023          	sd	a1,864(ra)
    80001498:	fff0011b          	addiw	sp,zero,-1
    8000149c:	03511113          	slli	sp,sp,0x35
    800014a0:	fd310113          	addi	sp,sp,-45
    800014a4:	00b10463          	beq	sp,a1,800014ac <inst_131>
    800014a8:	b7dfe06f          	j	80000024 <rvtest_error>

00000000800014ac <inst_131>:
    800014ac:	00100513          	li	a0,1
    800014b0:	03751513          	slli	a0,a0,0x37
    800014b4:	fff54513          	not	a0,a0
    800014b8:	ffb57593          	andi	a1,a0,-5
    800014bc:	36b0b423          	sd	a1,872(ra)
    800014c0:	fff0011b          	addiw	sp,zero,-1
    800014c4:	03711113          	slli	sp,sp,0x37
    800014c8:	ffb10113          	addi	sp,sp,-5
    800014cc:	00b10463          	beq	sp,a1,800014d4 <inst_132>
    800014d0:	b55fe06f          	j	80000024 <rvtest_error>

00000000800014d4 <inst_132>:
    800014d4:	00100513          	li	a0,1
    800014d8:	03851513          	slli	a0,a0,0x38
    800014dc:	fff54513          	not	a0,a0
    800014e0:	33257593          	andi	a1,a0,818
    800014e4:	36b0b823          	sd	a1,880(ra)
    800014e8:	33200113          	li	sp,818
    800014ec:	00b10463          	beq	sp,a1,800014f4 <inst_133>
    800014f0:	b35fe06f          	j	80000024 <rvtest_error>

00000000800014f4 <inst_133>:
    800014f4:	00100513          	li	a0,1
    800014f8:	03951513          	slli	a0,a0,0x39
    800014fc:	fff54513          	not	a0,a0
    80001500:	00357593          	andi	a1,a0,3
    80001504:	36b0bc23          	sd	a1,888(ra)
    80001508:	00300113          	li	sp,3
    8000150c:	00b10463          	beq	sp,a1,80001514 <inst_134>
    80001510:	b15fe06f          	j	80000024 <rvtest_error>

0000000080001514 <inst_134>:
    80001514:	00100513          	li	a0,1
    80001518:	03b51513          	slli	a0,a0,0x3b
    8000151c:	fff54513          	not	a0,a0
    80001520:	00057593          	andi	a1,a0,0
    80001524:	38b0b023          	sd	a1,896(ra)
    80001528:	00000113          	li	sp,0
    8000152c:	00b10463          	beq	sp,a1,80001534 <inst_135>
    80001530:	af5fe06f          	j	80000024 <rvtest_error>

0000000080001534 <inst_135>:
    80001534:	00100513          	li	a0,1
    80001538:	03c51513          	slli	a0,a0,0x3c
    8000153c:	fff54513          	not	a0,a0
    80001540:	08057593          	andi	a1,a0,128
    80001544:	38b0b423          	sd	a1,904(ra)
    80001548:	08000113          	li	sp,128
    8000154c:	00b10463          	beq	sp,a1,80001554 <inst_136>
    80001550:	ad5fe06f          	j	80000024 <rvtest_error>

0000000080001554 <inst_136>:
    80001554:	00100513          	li	a0,1
    80001558:	03d51513          	slli	a0,a0,0x3d
    8000155c:	fff54513          	not	a0,a0
    80001560:	00457593          	andi	a1,a0,4
    80001564:	38b0b823          	sd	a1,912(ra)
    80001568:	00400113          	li	sp,4
    8000156c:	00b10463          	beq	sp,a1,80001574 <inst_137>
    80001570:	ab5fe06f          	j	80000024 <rvtest_error>

0000000080001574 <inst_137>:
    80001574:	00100513          	li	a0,1
    80001578:	03e51513          	slli	a0,a0,0x3e
    8000157c:	fff54513          	not	a0,a0
    80001580:	55657593          	andi	a1,a0,1366
    80001584:	38b0bc23          	sd	a1,920(ra)
    80001588:	55600113          	li	sp,1366
    8000158c:	00b10463          	beq	sp,a1,80001594 <inst_138>
    80001590:	a95fe06f          	j	80000024 <rvtest_error>

0000000080001594 <inst_138>:
    80001594:	aaaab537          	lui	a0,0xaaaab
    80001598:	aaa50513          	addi	a0,a0,-1366 # ffffffffaaaaaaaa <absimm+0xfffffffeefd9cfda>
    8000159c:	00b51513          	slli	a0,a0,0xb
    800015a0:	55550513          	addi	a0,a0,1365
    800015a4:	00b51513          	slli	a0,a0,0xb
    800015a8:	2aa50513          	addi	a0,a0,682
    800015ac:	00a51513          	slli	a0,a0,0xa
    800015b0:	2aa50513          	addi	a0,a0,682
    800015b4:	00057593          	andi	a1,a0,0
    800015b8:	3ab0b023          	sd	a1,928(ra)
    800015bc:	00000113          	li	sp,0
    800015c0:	00b10463          	beq	sp,a1,800015c8 <inst_139>
    800015c4:	a61fe06f          	j	80000024 <rvtest_error>

00000000800015c8 <inst_139>:
    800015c8:	00300513          	li	a0,3
    800015cc:	00357593          	andi	a1,a0,3
    800015d0:	3ab0b423          	sd	a1,936(ra)
    800015d4:	00300113          	li	sp,3
    800015d8:	00b10463          	beq	sp,a1,800015e0 <inst_140>
    800015dc:	a49fe06f          	j	80000024 <rvtest_error>

00000000800015e0 <inst_140>:
    800015e0:	00300513          	li	a0,3
    800015e4:	55557593          	andi	a1,a0,1365
    800015e8:	3ab0b823          	sd	a1,944(ra)
    800015ec:	00100113          	li	sp,1
    800015f0:	00b10463          	beq	sp,a1,800015f8 <inst_141>
    800015f4:	a31fe06f          	j	80000024 <rvtest_error>

00000000800015f8 <inst_141>:
    800015f8:	00300513          	li	a0,3
    800015fc:	aaa57593          	andi	a1,a0,-1366
    80001600:	3ab0bc23          	sd	a1,952(ra)
    80001604:	00200113          	li	sp,2
    80001608:	00b10463          	beq	sp,a1,80001610 <inst_142>
    8000160c:	a19fe06f          	j	80000024 <rvtest_error>

0000000080001610 <inst_142>:
    80001610:	00300513          	li	a0,3
    80001614:	00557593          	andi	a1,a0,5
    80001618:	3cb0b023          	sd	a1,960(ra)
    8000161c:	00100113          	li	sp,1
    80001620:	00b10463          	beq	sp,a1,80001628 <inst_143>
    80001624:	a01fe06f          	j	80000024 <rvtest_error>

0000000080001628 <inst_143>:
    80001628:	00300513          	li	a0,3
    8000162c:	33357593          	andi	a1,a0,819
    80001630:	3cb0b423          	sd	a1,968(ra)
    80001634:	00300113          	li	sp,3
    80001638:	00b10463          	beq	sp,a1,80001640 <inst_144>
    8000163c:	9e9fe06f          	j	80000024 <rvtest_error>

0000000080001640 <inst_144>:
    80001640:	00300513          	li	a0,3
    80001644:	66657593          	andi	a1,a0,1638
    80001648:	3cb0b823          	sd	a1,976(ra)
    8000164c:	00200113          	li	sp,2
    80001650:	00b10463          	beq	sp,a1,80001658 <inst_145>
    80001654:	9d1fe06f          	j	80000024 <rvtest_error>

0000000080001658 <inst_145>:
    80001658:	00300513          	li	a0,3
    8000165c:	fd357593          	andi	a1,a0,-45
    80001660:	3cb0bc23          	sd	a1,984(ra)
    80001664:	00300113          	li	sp,3
    80001668:	00b10463          	beq	sp,a1,80001670 <inst_146>
    8000166c:	9b9fe06f          	j	80000024 <rvtest_error>

0000000080001670 <inst_146>:
    80001670:	00300513          	li	a0,3
    80001674:	02d57593          	andi	a1,a0,45
    80001678:	3eb0b023          	sd	a1,992(ra)
    8000167c:	00100113          	li	sp,1
    80001680:	00b10463          	beq	sp,a1,80001688 <inst_147>
    80001684:	9a1fe06f          	j	80000024 <rvtest_error>

0000000080001688 <inst_147>:
    80001688:	00300513          	li	a0,3
    8000168c:	00257593          	andi	a1,a0,2
    80001690:	3eb0b423          	sd	a1,1000(ra)
    80001694:	00200113          	li	sp,2
    80001698:	00b10463          	beq	sp,a1,800016a0 <inst_148>
    8000169c:	989fe06f          	j	80000024 <rvtest_error>

00000000800016a0 <inst_148>:
    800016a0:	00300513          	li	a0,3
    800016a4:	55457593          	andi	a1,a0,1364
    800016a8:	3eb0b823          	sd	a1,1008(ra)
    800016ac:	00000113          	li	sp,0
    800016b0:	00b10463          	beq	sp,a1,800016b8 <inst_149>
    800016b4:	971fe06f          	j	80000024 <rvtest_error>

00000000800016b8 <inst_149>:
    800016b8:	00300513          	li	a0,3
    800016bc:	00057593          	andi	a1,a0,0
    800016c0:	3eb0bc23          	sd	a1,1016(ra)
    800016c4:	00000113          	li	sp,0
    800016c8:	00b10463          	beq	sp,a1,800016d0 <inst_150>
    800016cc:	959fe06f          	j	80000024 <rvtest_error>

00000000800016d0 <inst_150>:
    800016d0:	00300513          	li	a0,3
    800016d4:	00457593          	andi	a1,a0,4
    800016d8:	40b0b023          	sd	a1,1024(ra)
    800016dc:	00000113          	li	sp,0
    800016e0:	00b10463          	beq	sp,a1,800016e8 <inst_151>
    800016e4:	941fe06f          	j	80000024 <rvtest_error>

00000000800016e8 <inst_151>:
    800016e8:	00300513          	li	a0,3
    800016ec:	33257593          	andi	a1,a0,818
    800016f0:	40b0b423          	sd	a1,1032(ra)
    800016f4:	00200113          	li	sp,2
    800016f8:	00b10463          	beq	sp,a1,80001700 <inst_152>
    800016fc:	929fe06f          	j	80000024 <rvtest_error>

0000000080001700 <inst_152>:
    80001700:	00300513          	li	a0,3
    80001704:	66557593          	andi	a1,a0,1637
    80001708:	40b0b823          	sd	a1,1040(ra)
    8000170c:	00100113          	li	sp,1
    80001710:	00b10463          	beq	sp,a1,80001718 <inst_153>
    80001714:	911fe06f          	j	80000024 <rvtest_error>

0000000080001718 <inst_153>:
    80001718:	00300513          	li	a0,3
    8000171c:	02c57593          	andi	a1,a0,44
    80001720:	40b0bc23          	sd	a1,1048(ra)
    80001724:	00000113          	li	sp,0
    80001728:	00b10463          	beq	sp,a1,80001730 <inst_154>
    8000172c:	8f9fe06f          	j	80000024 <rvtest_error>

0000000080001730 <inst_154>:
    80001730:	00300513          	li	a0,3
    80001734:	55657593          	andi	a1,a0,1366
    80001738:	42b0b023          	sd	a1,1056(ra)
    8000173c:	00200113          	li	sp,2
    80001740:	00b10463          	beq	sp,a1,80001748 <inst_155>
    80001744:	8e1fe06f          	j	80000024 <rvtest_error>

0000000080001748 <inst_155>:
    80001748:	00300513          	li	a0,3
    8000174c:	aab57593          	andi	a1,a0,-1365
    80001750:	42b0b423          	sd	a1,1064(ra)
    80001754:	00300113          	li	sp,3
    80001758:	00b10463          	beq	sp,a1,80001760 <inst_156>
    8000175c:	8c9fe06f          	j	80000024 <rvtest_error>

0000000080001760 <inst_156>:
    80001760:	00300513          	li	a0,3
    80001764:	00657593          	andi	a1,a0,6
    80001768:	42b0b823          	sd	a1,1072(ra)
    8000176c:	00200113          	li	sp,2
    80001770:	00b10463          	beq	sp,a1,80001778 <inst_157>
    80001774:	8b1fe06f          	j	80000024 <rvtest_error>

0000000080001778 <inst_157>:
    80001778:	00300513          	li	a0,3
    8000177c:	33457593          	andi	a1,a0,820
    80001780:	42b0bc23          	sd	a1,1080(ra)
    80001784:	00000113          	li	sp,0
    80001788:	00b10463          	beq	sp,a1,80001790 <inst_158>
    8000178c:	899fe06f          	j	80000024 <rvtest_error>

0000000080001790 <inst_158>:
    80001790:	00300513          	li	a0,3
    80001794:	66757593          	andi	a1,a0,1639
    80001798:	44b0b023          	sd	a1,1088(ra)
    8000179c:	00300113          	li	sp,3
    800017a0:	00b10463          	beq	sp,a1,800017a8 <inst_159>
    800017a4:	881fe06f          	j	80000024 <rvtest_error>

00000000800017a8 <inst_159>:
    800017a8:	00300513          	li	a0,3
    800017ac:	fd457593          	andi	a1,a0,-44
    800017b0:	44b0b423          	sd	a1,1096(ra)
    800017b4:	00000113          	li	sp,0
    800017b8:	00b10463          	beq	sp,a1,800017c0 <inst_160>
    800017bc:	869fe06f          	j	80000024 <rvtest_error>

00000000800017c0 <inst_160>:
    800017c0:	00300513          	li	a0,3
    800017c4:	02e57593          	andi	a1,a0,46
    800017c8:	44b0b823          	sd	a1,1104(ra)
    800017cc:	00200113          	li	sp,2
    800017d0:	00b10463          	beq	sp,a1,800017d8 <inst_161>
    800017d4:	851fe06f          	j	80000024 <rvtest_error>

00000000800017d8 <inst_161>:
    800017d8:	55555537          	lui	a0,0x55555
    800017dc:	55550513          	addi	a0,a0,1365 # 55555555 <absimmsh+0x49a847a8>
    800017e0:	00b51513          	slli	a0,a0,0xb
    800017e4:	2aa50513          	addi	a0,a0,682
    800017e8:	00b51513          	slli	a0,a0,0xb
    800017ec:	55550513          	addi	a0,a0,1365
    800017f0:	00a51513          	slli	a0,a0,0xa
    800017f4:	15550513          	addi	a0,a0,341
    800017f8:	00357593          	andi	a1,a0,3
    800017fc:	44b0bc23          	sd	a1,1112(ra)
    80001800:	00100113          	li	sp,1
    80001804:	00b10463          	beq	sp,a1,8000180c <inst_162>
    80001808:	81dfe06f          	j	80000024 <rvtest_error>

000000008000180c <inst_162>:
    8000180c:	55555537          	lui	a0,0x55555
    80001810:	55550513          	addi	a0,a0,1365 # 55555555 <absimmsh+0x49a847a8>
    80001814:	00b51513          	slli	a0,a0,0xb
    80001818:	2aa50513          	addi	a0,a0,682
    8000181c:	00b51513          	slli	a0,a0,0xb
    80001820:	55550513          	addi	a0,a0,1365
    80001824:	00a51513          	slli	a0,a0,0xa
    80001828:	15550513          	addi	a0,a0,341
    8000182c:	55557593          	andi	a1,a0,1365
    80001830:	46b0b023          	sd	a1,1120(ra)
    80001834:	55500113          	li	sp,1365
    80001838:	00b10463          	beq	sp,a1,80001840 <inst_163>
    8000183c:	fe8fe06f          	j	80000024 <rvtest_error>

0000000080001840 <inst_163>:
    80001840:	55555537          	lui	a0,0x55555
    80001844:	55550513          	addi	a0,a0,1365 # 55555555 <absimmsh+0x49a847a8>
    80001848:	00b51513          	slli	a0,a0,0xb
    8000184c:	2aa50513          	addi	a0,a0,682
    80001850:	00b51513          	slli	a0,a0,0xb
    80001854:	55550513          	addi	a0,a0,1365
    80001858:	00a51513          	slli	a0,a0,0xa
    8000185c:	15550513          	addi	a0,a0,341
    80001860:	aaa57593          	andi	a1,a0,-1366
    80001864:	46b0b423          	sd	a1,1128(ra)
    80001868:	05555137          	lui	sp,0x5555
    8000186c:	5551011b          	addiw	sp,sp,1365 # 5555555 <offset+0x55552ad>
    80001870:	00c11113          	slli	sp,sp,0xc
    80001874:	55510113          	addi	sp,sp,1365
    80001878:	00c11113          	slli	sp,sp,0xc
    8000187c:	55510113          	addi	sp,sp,1365
    80001880:	00c11113          	slli	sp,sp,0xc
    80001884:	00b10463          	beq	sp,a1,8000188c <inst_164>
    80001888:	f9cfe06f          	j	80000024 <rvtest_error>

000000008000188c <inst_164>:
    8000188c:	55555537          	lui	a0,0x55555
    80001890:	55550513          	addi	a0,a0,1365 # 55555555 <absimmsh+0x49a847a8>
    80001894:	00b51513          	slli	a0,a0,0xb
    80001898:	2aa50513          	addi	a0,a0,682
    8000189c:	00b51513          	slli	a0,a0,0xb
    800018a0:	55550513          	addi	a0,a0,1365
    800018a4:	00a51513          	slli	a0,a0,0xa
    800018a8:	15550513          	addi	a0,a0,341
    800018ac:	00557593          	andi	a1,a0,5
    800018b0:	46b0b823          	sd	a1,1136(ra)
    800018b4:	00500113          	li	sp,5
    800018b8:	00b10463          	beq	sp,a1,800018c0 <inst_165>
    800018bc:	f68fe06f          	j	80000024 <rvtest_error>

00000000800018c0 <inst_165>:
    800018c0:	55555537          	lui	a0,0x55555
    800018c4:	55550513          	addi	a0,a0,1365 # 55555555 <absimmsh+0x49a847a8>
    800018c8:	00b51513          	slli	a0,a0,0xb
    800018cc:	2aa50513          	addi	a0,a0,682
    800018d0:	00b51513          	slli	a0,a0,0xb
    800018d4:	55550513          	addi	a0,a0,1365
    800018d8:	00a51513          	slli	a0,a0,0xa
    800018dc:	15550513          	addi	a0,a0,341
    800018e0:	33357593          	andi	a1,a0,819
    800018e4:	46b0bc23          	sd	a1,1144(ra)
    800018e8:	11100113          	li	sp,273
    800018ec:	00b10463          	beq	sp,a1,800018f4 <inst_166>
    800018f0:	f34fe06f          	j	80000024 <rvtest_error>

00000000800018f4 <inst_166>:
    800018f4:	55555537          	lui	a0,0x55555
    800018f8:	55550513          	addi	a0,a0,1365 # 55555555 <absimmsh+0x49a847a8>
    800018fc:	00b51513          	slli	a0,a0,0xb
    80001900:	2aa50513          	addi	a0,a0,682
    80001904:	00b51513          	slli	a0,a0,0xb
    80001908:	55550513          	addi	a0,a0,1365
    8000190c:	00a51513          	slli	a0,a0,0xa
    80001910:	15550513          	addi	a0,a0,341
    80001914:	66657593          	andi	a1,a0,1638
    80001918:	48b0b023          	sd	a1,1152(ra)
    8000191c:	44400113          	li	sp,1092
    80001920:	00b10463          	beq	sp,a1,80001928 <inst_167>
    80001924:	f00fe06f          	j	80000024 <rvtest_error>

0000000080001928 <inst_167>:
    80001928:	55555537          	lui	a0,0x55555
    8000192c:	55550513          	addi	a0,a0,1365 # 55555555 <absimmsh+0x49a847a8>
    80001930:	00b51513          	slli	a0,a0,0xb
    80001934:	2aa50513          	addi	a0,a0,682
    80001938:	00b51513          	slli	a0,a0,0xb
    8000193c:	55550513          	addi	a0,a0,1365
    80001940:	00a51513          	slli	a0,a0,0xa
    80001944:	15550513          	addi	a0,a0,341
    80001948:	fd357593          	andi	a1,a0,-45
    8000194c:	48b0b423          	sd	a1,1160(ra)
    80001950:	05555137          	lui	sp,0x5555
    80001954:	5551011b          	addiw	sp,sp,1365 # 5555555 <offset+0x55552ad>
    80001958:	00c11113          	slli	sp,sp,0xc
    8000195c:	55510113          	addi	sp,sp,1365
    80001960:	00c11113          	slli	sp,sp,0xc
    80001964:	55510113          	addi	sp,sp,1365
    80001968:	00c11113          	slli	sp,sp,0xc
    8000196c:	55110113          	addi	sp,sp,1361
    80001970:	00b10463          	beq	sp,a1,80001978 <inst_168>
    80001974:	eb0fe06f          	j	80000024 <rvtest_error>

0000000080001978 <inst_168>:
    80001978:	55555537          	lui	a0,0x55555
    8000197c:	55550513          	addi	a0,a0,1365 # 55555555 <absimmsh+0x49a847a8>
    80001980:	00b51513          	slli	a0,a0,0xb
    80001984:	2aa50513          	addi	a0,a0,682
    80001988:	00b51513          	slli	a0,a0,0xb
    8000198c:	55550513          	addi	a0,a0,1365
    80001990:	00a51513          	slli	a0,a0,0xa
    80001994:	15550513          	addi	a0,a0,341
    80001998:	02d57593          	andi	a1,a0,45
    8000199c:	48b0b823          	sd	a1,1168(ra)
    800019a0:	00500113          	li	sp,5
    800019a4:	00b10463          	beq	sp,a1,800019ac <inst_169>
    800019a8:	e7cfe06f          	j	80000024 <rvtest_error>

00000000800019ac <inst_169>:
    800019ac:	55555537          	lui	a0,0x55555
    800019b0:	55550513          	addi	a0,a0,1365 # 55555555 <absimmsh+0x49a847a8>
    800019b4:	00b51513          	slli	a0,a0,0xb
    800019b8:	2aa50513          	addi	a0,a0,682
    800019bc:	00b51513          	slli	a0,a0,0xb
    800019c0:	55550513          	addi	a0,a0,1365
    800019c4:	00a51513          	slli	a0,a0,0xa
    800019c8:	15550513          	addi	a0,a0,341
    800019cc:	00257593          	andi	a1,a0,2
    800019d0:	48b0bc23          	sd	a1,1176(ra)
    800019d4:	00000113          	li	sp,0
    800019d8:	00b10463          	beq	sp,a1,800019e0 <inst_170>
    800019dc:	e48fe06f          	j	80000024 <rvtest_error>

00000000800019e0 <inst_170>:
    800019e0:	55555537          	lui	a0,0x55555
    800019e4:	55550513          	addi	a0,a0,1365 # 55555555 <absimmsh+0x49a847a8>
    800019e8:	00b51513          	slli	a0,a0,0xb
    800019ec:	2aa50513          	addi	a0,a0,682
    800019f0:	00b51513          	slli	a0,a0,0xb
    800019f4:	55550513          	addi	a0,a0,1365
    800019f8:	00a51513          	slli	a0,a0,0xa
    800019fc:	15550513          	addi	a0,a0,341
    80001a00:	55457593          	andi	a1,a0,1364
    80001a04:	4ab0b023          	sd	a1,1184(ra)
    80001a08:	55400113          	li	sp,1364
    80001a0c:	00b10463          	beq	sp,a1,80001a14 <inst_171>
    80001a10:	e14fe06f          	j	80000024 <rvtest_error>

0000000080001a14 <inst_171>:
    80001a14:	55555537          	lui	a0,0x55555
    80001a18:	55550513          	addi	a0,a0,1365 # 55555555 <absimmsh+0x49a847a8>
    80001a1c:	00b51513          	slli	a0,a0,0xb
    80001a20:	2aa50513          	addi	a0,a0,682
    80001a24:	00b51513          	slli	a0,a0,0xb
    80001a28:	55550513          	addi	a0,a0,1365
    80001a2c:	00a51513          	slli	a0,a0,0xa
    80001a30:	15550513          	addi	a0,a0,341
    80001a34:	00057593          	andi	a1,a0,0
    80001a38:	4ab0b423          	sd	a1,1192(ra)
    80001a3c:	00000113          	li	sp,0
    80001a40:	00b10463          	beq	sp,a1,80001a48 <inst_172>
    80001a44:	de0fe06f          	j	80000024 <rvtest_error>

0000000080001a48 <inst_172>:
    80001a48:	55555537          	lui	a0,0x55555
    80001a4c:	55550513          	addi	a0,a0,1365 # 55555555 <absimmsh+0x49a847a8>
    80001a50:	00b51513          	slli	a0,a0,0xb
    80001a54:	2aa50513          	addi	a0,a0,682
    80001a58:	00b51513          	slli	a0,a0,0xb
    80001a5c:	55550513          	addi	a0,a0,1365
    80001a60:	00a51513          	slli	a0,a0,0xa
    80001a64:	15550513          	addi	a0,a0,341
    80001a68:	00457593          	andi	a1,a0,4
    80001a6c:	4ab0b823          	sd	a1,1200(ra)
    80001a70:	00400113          	li	sp,4
    80001a74:	00b10463          	beq	sp,a1,80001a7c <inst_173>
    80001a78:	dacfe06f          	j	80000024 <rvtest_error>

0000000080001a7c <inst_173>:
    80001a7c:	55555537          	lui	a0,0x55555
    80001a80:	55550513          	addi	a0,a0,1365 # 55555555 <absimmsh+0x49a847a8>
    80001a84:	00b51513          	slli	a0,a0,0xb
    80001a88:	2aa50513          	addi	a0,a0,682
    80001a8c:	00b51513          	slli	a0,a0,0xb
    80001a90:	55550513          	addi	a0,a0,1365
    80001a94:	00a51513          	slli	a0,a0,0xa
    80001a98:	15550513          	addi	a0,a0,341
    80001a9c:	33257593          	andi	a1,a0,818
    80001aa0:	4ab0bc23          	sd	a1,1208(ra)
    80001aa4:	11000113          	li	sp,272
    80001aa8:	00b10463          	beq	sp,a1,80001ab0 <inst_174>
    80001aac:	d78fe06f          	j	80000024 <rvtest_error>

0000000080001ab0 <inst_174>:
    80001ab0:	55555537          	lui	a0,0x55555
    80001ab4:	55550513          	addi	a0,a0,1365 # 55555555 <absimmsh+0x49a847a8>
    80001ab8:	00b51513          	slli	a0,a0,0xb
    80001abc:	2aa50513          	addi	a0,a0,682
    80001ac0:	00b51513          	slli	a0,a0,0xb
    80001ac4:	55550513          	addi	a0,a0,1365
    80001ac8:	00a51513          	slli	a0,a0,0xa
    80001acc:	15550513          	addi	a0,a0,341
    80001ad0:	66557593          	andi	a1,a0,1637
    80001ad4:	4cb0b023          	sd	a1,1216(ra)
    80001ad8:	44500113          	li	sp,1093
    80001adc:	00b10463          	beq	sp,a1,80001ae4 <inst_175>
    80001ae0:	d44fe06f          	j	80000024 <rvtest_error>

0000000080001ae4 <inst_175>:
    80001ae4:	55555537          	lui	a0,0x55555
    80001ae8:	55550513          	addi	a0,a0,1365 # 55555555 <absimmsh+0x49a847a8>
    80001aec:	00b51513          	slli	a0,a0,0xb
    80001af0:	2aa50513          	addi	a0,a0,682
    80001af4:	00b51513          	slli	a0,a0,0xb
    80001af8:	55550513          	addi	a0,a0,1365
    80001afc:	00a51513          	slli	a0,a0,0xa
    80001b00:	15550513          	addi	a0,a0,341
    80001b04:	02c57593          	andi	a1,a0,44
    80001b08:	4cb0b423          	sd	a1,1224(ra)
    80001b0c:	00400113          	li	sp,4
    80001b10:	00b10463          	beq	sp,a1,80001b18 <inst_176>
    80001b14:	d10fe06f          	j	80000024 <rvtest_error>

0000000080001b18 <inst_176>:
    80001b18:	55555537          	lui	a0,0x55555
    80001b1c:	55550513          	addi	a0,a0,1365 # 55555555 <absimmsh+0x49a847a8>
    80001b20:	00b51513          	slli	a0,a0,0xb
    80001b24:	2aa50513          	addi	a0,a0,682
    80001b28:	00b51513          	slli	a0,a0,0xb
    80001b2c:	55550513          	addi	a0,a0,1365
    80001b30:	00a51513          	slli	a0,a0,0xa
    80001b34:	15550513          	addi	a0,a0,341
    80001b38:	55657593          	andi	a1,a0,1366
    80001b3c:	4cb0b823          	sd	a1,1232(ra)
    80001b40:	55400113          	li	sp,1364
    80001b44:	00b10463          	beq	sp,a1,80001b4c <inst_177>
    80001b48:	cdcfe06f          	j	80000024 <rvtest_error>

0000000080001b4c <inst_177>:
    80001b4c:	55555537          	lui	a0,0x55555
    80001b50:	55550513          	addi	a0,a0,1365 # 55555555 <absimmsh+0x49a847a8>
    80001b54:	00b51513          	slli	a0,a0,0xb
    80001b58:	2aa50513          	addi	a0,a0,682
    80001b5c:	00b51513          	slli	a0,a0,0xb
    80001b60:	55550513          	addi	a0,a0,1365
    80001b64:	00a51513          	slli	a0,a0,0xa
    80001b68:	15550513          	addi	a0,a0,341
    80001b6c:	aab57593          	andi	a1,a0,-1365
    80001b70:	4cb0bc23          	sd	a1,1240(ra)
    80001b74:	05555137          	lui	sp,0x5555
    80001b78:	5551011b          	addiw	sp,sp,1365 # 5555555 <offset+0x55552ad>
    80001b7c:	00c11113          	slli	sp,sp,0xc
    80001b80:	55510113          	addi	sp,sp,1365
    80001b84:	00c11113          	slli	sp,sp,0xc
    80001b88:	55510113          	addi	sp,sp,1365
    80001b8c:	00c11113          	slli	sp,sp,0xc
    80001b90:	00110113          	addi	sp,sp,1
    80001b94:	00b10463          	beq	sp,a1,80001b9c <inst_178>
    80001b98:	c8cfe06f          	j	80000024 <rvtest_error>

0000000080001b9c <inst_178>:
    80001b9c:	55555537          	lui	a0,0x55555
    80001ba0:	55550513          	addi	a0,a0,1365 # 55555555 <absimmsh+0x49a847a8>
    80001ba4:	00b51513          	slli	a0,a0,0xb
    80001ba8:	2aa50513          	addi	a0,a0,682
    80001bac:	00b51513          	slli	a0,a0,0xb
    80001bb0:	55550513          	addi	a0,a0,1365
    80001bb4:	00a51513          	slli	a0,a0,0xa
    80001bb8:	15550513          	addi	a0,a0,341
    80001bbc:	00657593          	andi	a1,a0,6
    80001bc0:	4eb0b023          	sd	a1,1248(ra)
    80001bc4:	00400113          	li	sp,4
    80001bc8:	00b10463          	beq	sp,a1,80001bd0 <inst_179>
    80001bcc:	c58fe06f          	j	80000024 <rvtest_error>

0000000080001bd0 <inst_179>:
    80001bd0:	55555537          	lui	a0,0x55555
    80001bd4:	55550513          	addi	a0,a0,1365 # 55555555 <absimmsh+0x49a847a8>
    80001bd8:	00b51513          	slli	a0,a0,0xb
    80001bdc:	2aa50513          	addi	a0,a0,682
    80001be0:	00b51513          	slli	a0,a0,0xb
    80001be4:	55550513          	addi	a0,a0,1365
    80001be8:	00a51513          	slli	a0,a0,0xa
    80001bec:	15550513          	addi	a0,a0,341
    80001bf0:	33457593          	andi	a1,a0,820
    80001bf4:	4eb0b423          	sd	a1,1256(ra)
    80001bf8:	11400113          	li	sp,276
    80001bfc:	00b10463          	beq	sp,a1,80001c04 <inst_180>
    80001c00:	c24fe06f          	j	80000024 <rvtest_error>

0000000080001c04 <inst_180>:
    80001c04:	55555537          	lui	a0,0x55555
    80001c08:	55550513          	addi	a0,a0,1365 # 55555555 <absimmsh+0x49a847a8>
    80001c0c:	00b51513          	slli	a0,a0,0xb
    80001c10:	2aa50513          	addi	a0,a0,682
    80001c14:	00b51513          	slli	a0,a0,0xb
    80001c18:	55550513          	addi	a0,a0,1365
    80001c1c:	00a51513          	slli	a0,a0,0xa
    80001c20:	15550513          	addi	a0,a0,341
    80001c24:	66757593          	andi	a1,a0,1639
    80001c28:	4eb0b823          	sd	a1,1264(ra)
    80001c2c:	44500113          	li	sp,1093
    80001c30:	00b10463          	beq	sp,a1,80001c38 <inst_181>
    80001c34:	bf0fe06f          	j	80000024 <rvtest_error>

0000000080001c38 <inst_181>:
    80001c38:	55555537          	lui	a0,0x55555
    80001c3c:	55550513          	addi	a0,a0,1365 # 55555555 <absimmsh+0x49a847a8>
    80001c40:	00b51513          	slli	a0,a0,0xb
    80001c44:	2aa50513          	addi	a0,a0,682
    80001c48:	00b51513          	slli	a0,a0,0xb
    80001c4c:	55550513          	addi	a0,a0,1365
    80001c50:	00a51513          	slli	a0,a0,0xa
    80001c54:	15550513          	addi	a0,a0,341
    80001c58:	fd457593          	andi	a1,a0,-44
    80001c5c:	4eb0bc23          	sd	a1,1272(ra)
    80001c60:	05555137          	lui	sp,0x5555
    80001c64:	5551011b          	addiw	sp,sp,1365 # 5555555 <offset+0x55552ad>
    80001c68:	00c11113          	slli	sp,sp,0xc
    80001c6c:	55510113          	addi	sp,sp,1365
    80001c70:	00c11113          	slli	sp,sp,0xc
    80001c74:	55510113          	addi	sp,sp,1365
    80001c78:	00c11113          	slli	sp,sp,0xc
    80001c7c:	55410113          	addi	sp,sp,1364
    80001c80:	00b10463          	beq	sp,a1,80001c88 <inst_182>
    80001c84:	ba0fe06f          	j	80000024 <rvtest_error>

0000000080001c88 <inst_182>:
    80001c88:	55555537          	lui	a0,0x55555
    80001c8c:	55550513          	addi	a0,a0,1365 # 55555555 <absimmsh+0x49a847a8>
    80001c90:	00b51513          	slli	a0,a0,0xb
    80001c94:	2aa50513          	addi	a0,a0,682
    80001c98:	00b51513          	slli	a0,a0,0xb
    80001c9c:	55550513          	addi	a0,a0,1365
    80001ca0:	00a51513          	slli	a0,a0,0xa
    80001ca4:	15550513          	addi	a0,a0,341
    80001ca8:	02e57593          	andi	a1,a0,46
    80001cac:	50b0b023          	sd	a1,1280(ra)
    80001cb0:	00400113          	li	sp,4
    80001cb4:	00b10463          	beq	sp,a1,80001cbc <inst_183>
    80001cb8:	b6cfe06f          	j	80000024 <rvtest_error>

0000000080001cbc <inst_183>:
    80001cbc:	aaaab537          	lui	a0,0xaaaab
    80001cc0:	aaa50513          	addi	a0,a0,-1366 # ffffffffaaaaaaaa <absimm+0xfffffffeefd9cfda>
    80001cc4:	00b51513          	slli	a0,a0,0xb
    80001cc8:	55550513          	addi	a0,a0,1365
    80001ccc:	00b51513          	slli	a0,a0,0xb
    80001cd0:	2aa50513          	addi	a0,a0,682
    80001cd4:	00a51513          	slli	a0,a0,0xa
    80001cd8:	2aa50513          	addi	a0,a0,682
    80001cdc:	00357593          	andi	a1,a0,3
    80001ce0:	50b0b423          	sd	a1,1288(ra)
    80001ce4:	00200113          	li	sp,2
    80001ce8:	00b10463          	beq	sp,a1,80001cf0 <inst_184>
    80001cec:	b38fe06f          	j	80000024 <rvtest_error>

0000000080001cf0 <inst_184>:
    80001cf0:	aaaab537          	lui	a0,0xaaaab
    80001cf4:	aaa50513          	addi	a0,a0,-1366 # ffffffffaaaaaaaa <absimm+0xfffffffeefd9cfda>
    80001cf8:	00b51513          	slli	a0,a0,0xb
    80001cfc:	55550513          	addi	a0,a0,1365
    80001d00:	00b51513          	slli	a0,a0,0xb
    80001d04:	2aa50513          	addi	a0,a0,682
    80001d08:	00a51513          	slli	a0,a0,0xa
    80001d0c:	2aa50513          	addi	a0,a0,682
    80001d10:	55557593          	andi	a1,a0,1365
    80001d14:	50b0b823          	sd	a1,1296(ra)
    80001d18:	00000113          	li	sp,0
    80001d1c:	00b10463          	beq	sp,a1,80001d24 <inst_185>
    80001d20:	b04fe06f          	j	80000024 <rvtest_error>

0000000080001d24 <inst_185>:
    80001d24:	aaaab537          	lui	a0,0xaaaab
    80001d28:	aaa50513          	addi	a0,a0,-1366 # ffffffffaaaaaaaa <absimm+0xfffffffeefd9cfda>
    80001d2c:	00b51513          	slli	a0,a0,0xb
    80001d30:	55550513          	addi	a0,a0,1365
    80001d34:	00b51513          	slli	a0,a0,0xb
    80001d38:	2aa50513          	addi	a0,a0,682
    80001d3c:	00a51513          	slli	a0,a0,0xa
    80001d40:	2aa50513          	addi	a0,a0,682
    80001d44:	aaa57593          	andi	a1,a0,-1366
    80001d48:	50b0bc23          	sd	a1,1304(ra)
    80001d4c:	faaab137          	lui	sp,0xfaaab
    80001d50:	aab1011b          	addiw	sp,sp,-1365 # fffffffffaaaaaab <absimm+0xffffffff3fd9cfdb>
    80001d54:	00c11113          	slli	sp,sp,0xc
    80001d58:	aab10113          	addi	sp,sp,-1365
    80001d5c:	00c11113          	slli	sp,sp,0xc
    80001d60:	aab10113          	addi	sp,sp,-1365
    80001d64:	00c11113          	slli	sp,sp,0xc
    80001d68:	aaa10113          	addi	sp,sp,-1366
    80001d6c:	00b10463          	beq	sp,a1,80001d74 <inst_186>
    80001d70:	ab4fe06f          	j	80000024 <rvtest_error>

0000000080001d74 <inst_186>:
    80001d74:	aaaab537          	lui	a0,0xaaaab
    80001d78:	aaa50513          	addi	a0,a0,-1366 # ffffffffaaaaaaaa <absimm+0xfffffffeefd9cfda>
    80001d7c:	00b51513          	slli	a0,a0,0xb
    80001d80:	55550513          	addi	a0,a0,1365
    80001d84:	00b51513          	slli	a0,a0,0xb
    80001d88:	2aa50513          	addi	a0,a0,682
    80001d8c:	00a51513          	slli	a0,a0,0xa
    80001d90:	2aa50513          	addi	a0,a0,682
    80001d94:	00557593          	andi	a1,a0,5
    80001d98:	52b0b023          	sd	a1,1312(ra)
    80001d9c:	00000113          	li	sp,0
    80001da0:	00b10463          	beq	sp,a1,80001da8 <inst_187>
    80001da4:	a80fe06f          	j	80000024 <rvtest_error>

0000000080001da8 <inst_187>:
    80001da8:	aaaab537          	lui	a0,0xaaaab
    80001dac:	aaa50513          	addi	a0,a0,-1366 # ffffffffaaaaaaaa <absimm+0xfffffffeefd9cfda>
    80001db0:	00b51513          	slli	a0,a0,0xb
    80001db4:	55550513          	addi	a0,a0,1365
    80001db8:	00b51513          	slli	a0,a0,0xb
    80001dbc:	2aa50513          	addi	a0,a0,682
    80001dc0:	00a51513          	slli	a0,a0,0xa
    80001dc4:	2aa50513          	addi	a0,a0,682
    80001dc8:	33357593          	andi	a1,a0,819
    80001dcc:	52b0b423          	sd	a1,1320(ra)
    80001dd0:	22200113          	li	sp,546
    80001dd4:	00b10463          	beq	sp,a1,80001ddc <inst_188>
    80001dd8:	a4cfe06f          	j	80000024 <rvtest_error>

0000000080001ddc <inst_188>:
    80001ddc:	aaaab537          	lui	a0,0xaaaab
    80001de0:	aaa50513          	addi	a0,a0,-1366 # ffffffffaaaaaaaa <absimm+0xfffffffeefd9cfda>
    80001de4:	00b51513          	slli	a0,a0,0xb
    80001de8:	55550513          	addi	a0,a0,1365
    80001dec:	00b51513          	slli	a0,a0,0xb
    80001df0:	2aa50513          	addi	a0,a0,682
    80001df4:	00a51513          	slli	a0,a0,0xa
    80001df8:	2aa50513          	addi	a0,a0,682
    80001dfc:	66657593          	andi	a1,a0,1638
    80001e00:	52b0b823          	sd	a1,1328(ra)
    80001e04:	22200113          	li	sp,546
    80001e08:	00b10463          	beq	sp,a1,80001e10 <inst_189>
    80001e0c:	a18fe06f          	j	80000024 <rvtest_error>

0000000080001e10 <inst_189>:
    80001e10:	aaaab537          	lui	a0,0xaaaab
    80001e14:	aaa50513          	addi	a0,a0,-1366 # ffffffffaaaaaaaa <absimm+0xfffffffeefd9cfda>
    80001e18:	00b51513          	slli	a0,a0,0xb
    80001e1c:	55550513          	addi	a0,a0,1365
    80001e20:	00b51513          	slli	a0,a0,0xb
    80001e24:	2aa50513          	addi	a0,a0,682
    80001e28:	00a51513          	slli	a0,a0,0xa
    80001e2c:	2aa50513          	addi	a0,a0,682
    80001e30:	fd357593          	andi	a1,a0,-45
    80001e34:	52b0bc23          	sd	a1,1336(ra)
    80001e38:	faaab137          	lui	sp,0xfaaab
    80001e3c:	aab1011b          	addiw	sp,sp,-1365 # fffffffffaaaaaab <absimm+0xffffffff3fd9cfdb>
    80001e40:	00c11113          	slli	sp,sp,0xc
    80001e44:	aab10113          	addi	sp,sp,-1365
    80001e48:	00c11113          	slli	sp,sp,0xc
    80001e4c:	aab10113          	addi	sp,sp,-1365
    80001e50:	00c11113          	slli	sp,sp,0xc
    80001e54:	a8210113          	addi	sp,sp,-1406
    80001e58:	00b10463          	beq	sp,a1,80001e60 <inst_190>
    80001e5c:	9c8fe06f          	j	80000024 <rvtest_error>

0000000080001e60 <inst_190>:
    80001e60:	aaaab537          	lui	a0,0xaaaab
    80001e64:	aaa50513          	addi	a0,a0,-1366 # ffffffffaaaaaaaa <absimm+0xfffffffeefd9cfda>
    80001e68:	00b51513          	slli	a0,a0,0xb
    80001e6c:	55550513          	addi	a0,a0,1365
    80001e70:	00b51513          	slli	a0,a0,0xb
    80001e74:	2aa50513          	addi	a0,a0,682
    80001e78:	00a51513          	slli	a0,a0,0xa
    80001e7c:	2aa50513          	addi	a0,a0,682
    80001e80:	02d57593          	andi	a1,a0,45
    80001e84:	54b0b023          	sd	a1,1344(ra)
    80001e88:	02800113          	li	sp,40
    80001e8c:	00b10463          	beq	sp,a1,80001e94 <inst_191>
    80001e90:	994fe06f          	j	80000024 <rvtest_error>

0000000080001e94 <inst_191>:
    80001e94:	aaaab537          	lui	a0,0xaaaab
    80001e98:	aaa50513          	addi	a0,a0,-1366 # ffffffffaaaaaaaa <absimm+0xfffffffeefd9cfda>
    80001e9c:	00b51513          	slli	a0,a0,0xb
    80001ea0:	55550513          	addi	a0,a0,1365
    80001ea4:	00b51513          	slli	a0,a0,0xb
    80001ea8:	2aa50513          	addi	a0,a0,682
    80001eac:	00a51513          	slli	a0,a0,0xa
    80001eb0:	2aa50513          	addi	a0,a0,682
    80001eb4:	00257593          	andi	a1,a0,2
    80001eb8:	54b0b423          	sd	a1,1352(ra)
    80001ebc:	00200113          	li	sp,2
    80001ec0:	00b10463          	beq	sp,a1,80001ec8 <inst_192>
    80001ec4:	960fe06f          	j	80000024 <rvtest_error>

0000000080001ec8 <inst_192>:
    80001ec8:	aaaab537          	lui	a0,0xaaaab
    80001ecc:	aaa50513          	addi	a0,a0,-1366 # ffffffffaaaaaaaa <absimm+0xfffffffeefd9cfda>
    80001ed0:	00b51513          	slli	a0,a0,0xb
    80001ed4:	55550513          	addi	a0,a0,1365
    80001ed8:	00b51513          	slli	a0,a0,0xb
    80001edc:	2aa50513          	addi	a0,a0,682
    80001ee0:	00a51513          	slli	a0,a0,0xa
    80001ee4:	2aa50513          	addi	a0,a0,682
    80001ee8:	55457593          	andi	a1,a0,1364
    80001eec:	54b0b823          	sd	a1,1360(ra)
    80001ef0:	00000113          	li	sp,0
    80001ef4:	00b10463          	beq	sp,a1,80001efc <inst_193>
    80001ef8:	92cfe06f          	j	80000024 <rvtest_error>

0000000080001efc <inst_193>:
    80001efc:	aaaab537          	lui	a0,0xaaaab
    80001f00:	aaa50513          	addi	a0,a0,-1366 # ffffffffaaaaaaaa <absimm+0xfffffffeefd9cfda>
    80001f04:	00b51513          	slli	a0,a0,0xb
    80001f08:	55550513          	addi	a0,a0,1365
    80001f0c:	00b51513          	slli	a0,a0,0xb
    80001f10:	2aa50513          	addi	a0,a0,682
    80001f14:	00a51513          	slli	a0,a0,0xa
    80001f18:	2aa50513          	addi	a0,a0,682
    80001f1c:	00457593          	andi	a1,a0,4
    80001f20:	54b0bc23          	sd	a1,1368(ra)
    80001f24:	00000113          	li	sp,0
    80001f28:	00b10463          	beq	sp,a1,80001f30 <inst_194>
    80001f2c:	8f8fe06f          	j	80000024 <rvtest_error>

0000000080001f30 <inst_194>:
    80001f30:	aaaab537          	lui	a0,0xaaaab
    80001f34:	aaa50513          	addi	a0,a0,-1366 # ffffffffaaaaaaaa <absimm+0xfffffffeefd9cfda>
    80001f38:	00b51513          	slli	a0,a0,0xb
    80001f3c:	55550513          	addi	a0,a0,1365
    80001f40:	00b51513          	slli	a0,a0,0xb
    80001f44:	2aa50513          	addi	a0,a0,682
    80001f48:	00a51513          	slli	a0,a0,0xa
    80001f4c:	2aa50513          	addi	a0,a0,682
    80001f50:	33257593          	andi	a1,a0,818
    80001f54:	56b0b023          	sd	a1,1376(ra)
    80001f58:	22200113          	li	sp,546
    80001f5c:	00b10463          	beq	sp,a1,80001f64 <inst_195>
    80001f60:	8c4fe06f          	j	80000024 <rvtest_error>

0000000080001f64 <inst_195>:
    80001f64:	aaaab537          	lui	a0,0xaaaab
    80001f68:	aaa50513          	addi	a0,a0,-1366 # ffffffffaaaaaaaa <absimm+0xfffffffeefd9cfda>
    80001f6c:	00b51513          	slli	a0,a0,0xb
    80001f70:	55550513          	addi	a0,a0,1365
    80001f74:	00b51513          	slli	a0,a0,0xb
    80001f78:	2aa50513          	addi	a0,a0,682
    80001f7c:	00a51513          	slli	a0,a0,0xa
    80001f80:	2aa50513          	addi	a0,a0,682
    80001f84:	66557593          	andi	a1,a0,1637
    80001f88:	56b0b423          	sd	a1,1384(ra)
    80001f8c:	22000113          	li	sp,544
    80001f90:	00b10463          	beq	sp,a1,80001f98 <inst_196>
    80001f94:	890fe06f          	j	80000024 <rvtest_error>

0000000080001f98 <inst_196>:
    80001f98:	aaaab537          	lui	a0,0xaaaab
    80001f9c:	aaa50513          	addi	a0,a0,-1366 # ffffffffaaaaaaaa <absimm+0xfffffffeefd9cfda>
    80001fa0:	00b51513          	slli	a0,a0,0xb
    80001fa4:	55550513          	addi	a0,a0,1365
    80001fa8:	00b51513          	slli	a0,a0,0xb
    80001fac:	2aa50513          	addi	a0,a0,682
    80001fb0:	00a51513          	slli	a0,a0,0xa
    80001fb4:	2aa50513          	addi	a0,a0,682
    80001fb8:	02c57593          	andi	a1,a0,44
    80001fbc:	56b0b823          	sd	a1,1392(ra)
    80001fc0:	02800113          	li	sp,40
    80001fc4:	00b10463          	beq	sp,a1,80001fcc <inst_197>
    80001fc8:	85cfe06f          	j	80000024 <rvtest_error>

0000000080001fcc <inst_197>:
    80001fcc:	aaaab537          	lui	a0,0xaaaab
    80001fd0:	aaa50513          	addi	a0,a0,-1366 # ffffffffaaaaaaaa <absimm+0xfffffffeefd9cfda>
    80001fd4:	00b51513          	slli	a0,a0,0xb
    80001fd8:	55550513          	addi	a0,a0,1365
    80001fdc:	00b51513          	slli	a0,a0,0xb
    80001fe0:	2aa50513          	addi	a0,a0,682
    80001fe4:	00a51513          	slli	a0,a0,0xa
    80001fe8:	2aa50513          	addi	a0,a0,682
    80001fec:	55657593          	andi	a1,a0,1366
    80001ff0:	56b0bc23          	sd	a1,1400(ra)
    80001ff4:	00200113          	li	sp,2
    80001ff8:	00b10463          	beq	sp,a1,80002000 <inst_198>
    80001ffc:	828fe06f          	j	80000024 <rvtest_error>

0000000080002000 <inst_198>:
    80002000:	aaaab537          	lui	a0,0xaaaab
    80002004:	aaa50513          	addi	a0,a0,-1366 # ffffffffaaaaaaaa <absimm+0xfffffffeefd9cfda>
    80002008:	00b51513          	slli	a0,a0,0xb
    8000200c:	55550513          	addi	a0,a0,1365
    80002010:	00b51513          	slli	a0,a0,0xb
    80002014:	2aa50513          	addi	a0,a0,682
    80002018:	00a51513          	slli	a0,a0,0xa
    8000201c:	2aa50513          	addi	a0,a0,682
    80002020:	aab57593          	andi	a1,a0,-1365
    80002024:	58b0b023          	sd	a1,1408(ra)
    80002028:	faaab137          	lui	sp,0xfaaab
    8000202c:	aab1011b          	addiw	sp,sp,-1365 # fffffffffaaaaaab <absimm+0xffffffff3fd9cfdb>
    80002030:	00c11113          	slli	sp,sp,0xc
    80002034:	aab10113          	addi	sp,sp,-1365
    80002038:	00c11113          	slli	sp,sp,0xc
    8000203c:	aab10113          	addi	sp,sp,-1365
    80002040:	00c11113          	slli	sp,sp,0xc
    80002044:	aaa10113          	addi	sp,sp,-1366
    80002048:	00b10463          	beq	sp,a1,80002050 <inst_199>
    8000204c:	fd9fd06f          	j	80000024 <rvtest_error>

0000000080002050 <inst_199>:
    80002050:	aaaab537          	lui	a0,0xaaaab
    80002054:	aaa50513          	addi	a0,a0,-1366 # ffffffffaaaaaaaa <absimm+0xfffffffeefd9cfda>
    80002058:	00b51513          	slli	a0,a0,0xb
    8000205c:	55550513          	addi	a0,a0,1365
    80002060:	00b51513          	slli	a0,a0,0xb
    80002064:	2aa50513          	addi	a0,a0,682
    80002068:	00a51513          	slli	a0,a0,0xa
    8000206c:	2aa50513          	addi	a0,a0,682
    80002070:	00657593          	andi	a1,a0,6
    80002074:	58b0b423          	sd	a1,1416(ra)
    80002078:	00200113          	li	sp,2
    8000207c:	00b10463          	beq	sp,a1,80002084 <inst_200>
    80002080:	fa5fd06f          	j	80000024 <rvtest_error>

0000000080002084 <inst_200>:
    80002084:	aaaab537          	lui	a0,0xaaaab
    80002088:	aaa50513          	addi	a0,a0,-1366 # ffffffffaaaaaaaa <absimm+0xfffffffeefd9cfda>
    8000208c:	00b51513          	slli	a0,a0,0xb
    80002090:	55550513          	addi	a0,a0,1365
    80002094:	00b51513          	slli	a0,a0,0xb
    80002098:	2aa50513          	addi	a0,a0,682
    8000209c:	00a51513          	slli	a0,a0,0xa
    800020a0:	2aa50513          	addi	a0,a0,682
    800020a4:	33457593          	andi	a1,a0,820
    800020a8:	58b0b823          	sd	a1,1424(ra)
    800020ac:	22000113          	li	sp,544
    800020b0:	00b10463          	beq	sp,a1,800020b8 <inst_201>
    800020b4:	f71fd06f          	j	80000024 <rvtest_error>

00000000800020b8 <inst_201>:
    800020b8:	aaaab537          	lui	a0,0xaaaab
    800020bc:	aaa50513          	addi	a0,a0,-1366 # ffffffffaaaaaaaa <absimm+0xfffffffeefd9cfda>
    800020c0:	00b51513          	slli	a0,a0,0xb
    800020c4:	55550513          	addi	a0,a0,1365
    800020c8:	00b51513          	slli	a0,a0,0xb
    800020cc:	2aa50513          	addi	a0,a0,682
    800020d0:	00a51513          	slli	a0,a0,0xa
    800020d4:	2aa50513          	addi	a0,a0,682
    800020d8:	66757593          	andi	a1,a0,1639
    800020dc:	58b0bc23          	sd	a1,1432(ra)
    800020e0:	22200113          	li	sp,546
    800020e4:	00b10463          	beq	sp,a1,800020ec <inst_202>
    800020e8:	f3dfd06f          	j	80000024 <rvtest_error>

00000000800020ec <inst_202>:
    800020ec:	aaaab537          	lui	a0,0xaaaab
    800020f0:	aaa50513          	addi	a0,a0,-1366 # ffffffffaaaaaaaa <absimm+0xfffffffeefd9cfda>
    800020f4:	00b51513          	slli	a0,a0,0xb
    800020f8:	55550513          	addi	a0,a0,1365
    800020fc:	00b51513          	slli	a0,a0,0xb
    80002100:	2aa50513          	addi	a0,a0,682
    80002104:	00a51513          	slli	a0,a0,0xa
    80002108:	2aa50513          	addi	a0,a0,682
    8000210c:	fd457593          	andi	a1,a0,-44
    80002110:	5ab0b023          	sd	a1,1440(ra)
    80002114:	faaab137          	lui	sp,0xfaaab
    80002118:	aab1011b          	addiw	sp,sp,-1365 # fffffffffaaaaaab <absimm+0xffffffff3fd9cfdb>
    8000211c:	00c11113          	slli	sp,sp,0xc
    80002120:	aab10113          	addi	sp,sp,-1365
    80002124:	00c11113          	slli	sp,sp,0xc
    80002128:	aab10113          	addi	sp,sp,-1365
    8000212c:	00c11113          	slli	sp,sp,0xc
    80002130:	a8010113          	addi	sp,sp,-1408
    80002134:	00b10463          	beq	sp,a1,8000213c <inst_203>
    80002138:	eedfd06f          	j	80000024 <rvtest_error>

000000008000213c <inst_203>:
    8000213c:	aaaab537          	lui	a0,0xaaaab
    80002140:	aaa50513          	addi	a0,a0,-1366 # ffffffffaaaaaaaa <absimm+0xfffffffeefd9cfda>
    80002144:	00b51513          	slli	a0,a0,0xb
    80002148:	55550513          	addi	a0,a0,1365
    8000214c:	00b51513          	slli	a0,a0,0xb
    80002150:	2aa50513          	addi	a0,a0,682
    80002154:	00a51513          	slli	a0,a0,0xa
    80002158:	2aa50513          	addi	a0,a0,682
    8000215c:	02e57593          	andi	a1,a0,46
    80002160:	5ab0b423          	sd	a1,1448(ra)
    80002164:	02a00113          	li	sp,42
    80002168:	00b10463          	beq	sp,a1,80002170 <inst_204>
    8000216c:	eb9fd06f          	j	80000024 <rvtest_error>

0000000080002170 <inst_204>:
    80002170:	00500513          	li	a0,5
    80002174:	00357593          	andi	a1,a0,3
    80002178:	5ab0b823          	sd	a1,1456(ra)
    8000217c:	00100113          	li	sp,1
    80002180:	00b10463          	beq	sp,a1,80002188 <inst_205>
    80002184:	ea1fd06f          	j	80000024 <rvtest_error>

0000000080002188 <inst_205>:
    80002188:	00500513          	li	a0,5
    8000218c:	55557593          	andi	a1,a0,1365
    80002190:	5ab0bc23          	sd	a1,1464(ra)
    80002194:	00500113          	li	sp,5
    80002198:	00b10463          	beq	sp,a1,800021a0 <inst_206>
    8000219c:	e89fd06f          	j	80000024 <rvtest_error>

00000000800021a0 <inst_206>:
    800021a0:	00500513          	li	a0,5
    800021a4:	aaa57593          	andi	a1,a0,-1366
    800021a8:	5cb0b023          	sd	a1,1472(ra)
    800021ac:	00000113          	li	sp,0
    800021b0:	00b10463          	beq	sp,a1,800021b8 <inst_207>
    800021b4:	e71fd06f          	j	80000024 <rvtest_error>

00000000800021b8 <inst_207>:
    800021b8:	00500513          	li	a0,5
    800021bc:	00557593          	andi	a1,a0,5
    800021c0:	5cb0b423          	sd	a1,1480(ra)
    800021c4:	00500113          	li	sp,5
    800021c8:	00b10463          	beq	sp,a1,800021d0 <inst_208>
    800021cc:	e59fd06f          	j	80000024 <rvtest_error>

00000000800021d0 <inst_208>:
    800021d0:	00500513          	li	a0,5
    800021d4:	33357593          	andi	a1,a0,819
    800021d8:	5cb0b823          	sd	a1,1488(ra)
    800021dc:	00100113          	li	sp,1
    800021e0:	00b10463          	beq	sp,a1,800021e8 <inst_209>
    800021e4:	e41fd06f          	j	80000024 <rvtest_error>

00000000800021e8 <inst_209>:
    800021e8:	00500513          	li	a0,5
    800021ec:	66657593          	andi	a1,a0,1638
    800021f0:	5cb0bc23          	sd	a1,1496(ra)
    800021f4:	00400113          	li	sp,4
    800021f8:	00b10463          	beq	sp,a1,80002200 <inst_210>
    800021fc:	e29fd06f          	j	80000024 <rvtest_error>

0000000080002200 <inst_210>:
    80002200:	00500513          	li	a0,5
    80002204:	fd357593          	andi	a1,a0,-45
    80002208:	5eb0b023          	sd	a1,1504(ra)
    8000220c:	00100113          	li	sp,1
    80002210:	00b10463          	beq	sp,a1,80002218 <inst_211>
    80002214:	e11fd06f          	j	80000024 <rvtest_error>

0000000080002218 <inst_211>:
    80002218:	00500513          	li	a0,5
    8000221c:	02d57593          	andi	a1,a0,45
    80002220:	5eb0b423          	sd	a1,1512(ra)
    80002224:	00500113          	li	sp,5
    80002228:	00b10463          	beq	sp,a1,80002230 <inst_212>
    8000222c:	df9fd06f          	j	80000024 <rvtest_error>

0000000080002230 <inst_212>:
    80002230:	00500513          	li	a0,5
    80002234:	00257593          	andi	a1,a0,2
    80002238:	5eb0b823          	sd	a1,1520(ra)
    8000223c:	00000113          	li	sp,0
    80002240:	00b10463          	beq	sp,a1,80002248 <inst_213>
    80002244:	de1fd06f          	j	80000024 <rvtest_error>

0000000080002248 <inst_213>:
    80002248:	00500513          	li	a0,5
    8000224c:	55457593          	andi	a1,a0,1364
    80002250:	5eb0bc23          	sd	a1,1528(ra)
    80002254:	00400113          	li	sp,4
    80002258:	00b10463          	beq	sp,a1,80002260 <inst_214>
    8000225c:	dc9fd06f          	j	80000024 <rvtest_error>

0000000080002260 <inst_214>:
    80002260:	00500513          	li	a0,5
    80002264:	00057593          	andi	a1,a0,0
    80002268:	60b0b023          	sd	a1,1536(ra)
    8000226c:	00000113          	li	sp,0
    80002270:	00b10463          	beq	sp,a1,80002278 <inst_215>
    80002274:	db1fd06f          	j	80000024 <rvtest_error>

0000000080002278 <inst_215>:
    80002278:	00500513          	li	a0,5
    8000227c:	00457593          	andi	a1,a0,4
    80002280:	60b0b423          	sd	a1,1544(ra)
    80002284:	00400113          	li	sp,4
    80002288:	00b10463          	beq	sp,a1,80002290 <inst_216>
    8000228c:	d99fd06f          	j	80000024 <rvtest_error>

0000000080002290 <inst_216>:
    80002290:	00500513          	li	a0,5
    80002294:	33257593          	andi	a1,a0,818
    80002298:	60b0b823          	sd	a1,1552(ra)
    8000229c:	00000113          	li	sp,0
    800022a0:	00b10463          	beq	sp,a1,800022a8 <inst_217>
    800022a4:	d81fd06f          	j	80000024 <rvtest_error>

00000000800022a8 <inst_217>:
    800022a8:	00500513          	li	a0,5
    800022ac:	66557593          	andi	a1,a0,1637
    800022b0:	60b0bc23          	sd	a1,1560(ra)
    800022b4:	00500113          	li	sp,5
    800022b8:	00b10463          	beq	sp,a1,800022c0 <inst_218>
    800022bc:	d69fd06f          	j	80000024 <rvtest_error>

00000000800022c0 <inst_218>:
    800022c0:	00500513          	li	a0,5
    800022c4:	02c57593          	andi	a1,a0,44
    800022c8:	62b0b023          	sd	a1,1568(ra)
    800022cc:	00400113          	li	sp,4
    800022d0:	00b10463          	beq	sp,a1,800022d8 <inst_219>
    800022d4:	d51fd06f          	j	80000024 <rvtest_error>

00000000800022d8 <inst_219>:
    800022d8:	00500513          	li	a0,5
    800022dc:	55657593          	andi	a1,a0,1366
    800022e0:	62b0b423          	sd	a1,1576(ra)
    800022e4:	00400113          	li	sp,4
    800022e8:	00b10463          	beq	sp,a1,800022f0 <inst_220>
    800022ec:	d39fd06f          	j	80000024 <rvtest_error>

00000000800022f0 <inst_220>:
    800022f0:	00500513          	li	a0,5
    800022f4:	aab57593          	andi	a1,a0,-1365
    800022f8:	62b0b823          	sd	a1,1584(ra)
    800022fc:	00100113          	li	sp,1
    80002300:	00b10463          	beq	sp,a1,80002308 <inst_221>
    80002304:	d21fd06f          	j	80000024 <rvtest_error>

0000000080002308 <inst_221>:
    80002308:	00500513          	li	a0,5
    8000230c:	00657593          	andi	a1,a0,6
    80002310:	62b0bc23          	sd	a1,1592(ra)
    80002314:	00400113          	li	sp,4
    80002318:	00b10463          	beq	sp,a1,80002320 <inst_222>
    8000231c:	d09fd06f          	j	80000024 <rvtest_error>

0000000080002320 <inst_222>:
    80002320:	00500513          	li	a0,5
    80002324:	33457593          	andi	a1,a0,820
    80002328:	64b0b023          	sd	a1,1600(ra)
    8000232c:	00400113          	li	sp,4
    80002330:	00b10463          	beq	sp,a1,80002338 <inst_223>
    80002334:	cf1fd06f          	j	80000024 <rvtest_error>

0000000080002338 <inst_223>:
    80002338:	00500513          	li	a0,5
    8000233c:	66757593          	andi	a1,a0,1639
    80002340:	64b0b423          	sd	a1,1608(ra)
    80002344:	00500113          	li	sp,5
    80002348:	00b10463          	beq	sp,a1,80002350 <inst_224>
    8000234c:	cd9fd06f          	j	80000024 <rvtest_error>

0000000080002350 <inst_224>:
    80002350:	00500513          	li	a0,5
    80002354:	fd457593          	andi	a1,a0,-44
    80002358:	64b0b823          	sd	a1,1616(ra)
    8000235c:	00400113          	li	sp,4
    80002360:	00b10463          	beq	sp,a1,80002368 <inst_225>
    80002364:	cc1fd06f          	j	80000024 <rvtest_error>

0000000080002368 <inst_225>:
    80002368:	00500513          	li	a0,5
    8000236c:	02e57593          	andi	a1,a0,46
    80002370:	64b0bc23          	sd	a1,1624(ra)
    80002374:	00400113          	li	sp,4
    80002378:	00b10463          	beq	sp,a1,80002380 <inst_226>
    8000237c:	ca9fd06f          	j	80000024 <rvtest_error>

0000000080002380 <inst_226>:
    80002380:	33333537          	lui	a0,0x33333
    80002384:	33350513          	addi	a0,a0,819 # 33333333 <absimmsh+0x27862586>
    80002388:	00b51513          	slli	a0,a0,0xb
    8000238c:	19950513          	addi	a0,a0,409
    80002390:	00b51513          	slli	a0,a0,0xb
    80002394:	4cc50513          	addi	a0,a0,1228
    80002398:	00a51513          	slli	a0,a0,0xa
    8000239c:	33350513          	addi	a0,a0,819
    800023a0:	00357593          	andi	a1,a0,3
    800023a4:	66b0b023          	sd	a1,1632(ra)
    800023a8:	00300113          	li	sp,3
    800023ac:	00b10463          	beq	sp,a1,800023b4 <inst_227>
    800023b0:	c75fd06f          	j	80000024 <rvtest_error>

00000000800023b4 <inst_227>:
    800023b4:	33333537          	lui	a0,0x33333
    800023b8:	33350513          	addi	a0,a0,819 # 33333333 <absimmsh+0x27862586>
    800023bc:	00b51513          	slli	a0,a0,0xb
    800023c0:	19950513          	addi	a0,a0,409
    800023c4:	00b51513          	slli	a0,a0,0xb
    800023c8:	4cc50513          	addi	a0,a0,1228
    800023cc:	00a51513          	slli	a0,a0,0xa
    800023d0:	33350513          	addi	a0,a0,819
    800023d4:	55557593          	andi	a1,a0,1365
    800023d8:	66b0b423          	sd	a1,1640(ra)
    800023dc:	11100113          	li	sp,273
    800023e0:	00b10463          	beq	sp,a1,800023e8 <inst_228>
    800023e4:	c41fd06f          	j	80000024 <rvtest_error>

00000000800023e8 <inst_228>:
    800023e8:	33333537          	lui	a0,0x33333
    800023ec:	33350513          	addi	a0,a0,819 # 33333333 <absimmsh+0x27862586>
    800023f0:	00b51513          	slli	a0,a0,0xb
    800023f4:	19950513          	addi	a0,a0,409
    800023f8:	00b51513          	slli	a0,a0,0xb
    800023fc:	4cc50513          	addi	a0,a0,1228
    80002400:	00a51513          	slli	a0,a0,0xa
    80002404:	33350513          	addi	a0,a0,819
    80002408:	aaa57593          	andi	a1,a0,-1366
    8000240c:	66b0b823          	sd	a1,1648(ra)
    80002410:	03333137          	lui	sp,0x3333
    80002414:	3331011b          	addiw	sp,sp,819 # 3333333 <offset+0x333308b>
    80002418:	00c11113          	slli	sp,sp,0xc
    8000241c:	33310113          	addi	sp,sp,819
    80002420:	00c11113          	slli	sp,sp,0xc
    80002424:	33310113          	addi	sp,sp,819
    80002428:	00c11113          	slli	sp,sp,0xc
    8000242c:	22210113          	addi	sp,sp,546
    80002430:	00b10463          	beq	sp,a1,80002438 <inst_229>
    80002434:	bf1fd06f          	j	80000024 <rvtest_error>

0000000080002438 <inst_229>:
    80002438:	33333537          	lui	a0,0x33333
    8000243c:	33350513          	addi	a0,a0,819 # 33333333 <absimmsh+0x27862586>
    80002440:	00b51513          	slli	a0,a0,0xb
    80002444:	19950513          	addi	a0,a0,409
    80002448:	00b51513          	slli	a0,a0,0xb
    8000244c:	4cc50513          	addi	a0,a0,1228
    80002450:	00a51513          	slli	a0,a0,0xa
    80002454:	33350513          	addi	a0,a0,819
    80002458:	00557593          	andi	a1,a0,5
    8000245c:	66b0bc23          	sd	a1,1656(ra)
    80002460:	00100113          	li	sp,1
    80002464:	00b10463          	beq	sp,a1,8000246c <inst_230>
    80002468:	bbdfd06f          	j	80000024 <rvtest_error>

000000008000246c <inst_230>:
    8000246c:	33333537          	lui	a0,0x33333
    80002470:	33350513          	addi	a0,a0,819 # 33333333 <absimmsh+0x27862586>
    80002474:	00b51513          	slli	a0,a0,0xb
    80002478:	19950513          	addi	a0,a0,409
    8000247c:	00b51513          	slli	a0,a0,0xb
    80002480:	4cc50513          	addi	a0,a0,1228
    80002484:	00a51513          	slli	a0,a0,0xa
    80002488:	33350513          	addi	a0,a0,819
    8000248c:	33357593          	andi	a1,a0,819
    80002490:	68b0b023          	sd	a1,1664(ra)
    80002494:	33300113          	li	sp,819
    80002498:	00b10463          	beq	sp,a1,800024a0 <inst_231>
    8000249c:	b89fd06f          	j	80000024 <rvtest_error>

00000000800024a0 <inst_231>:
    800024a0:	33333537          	lui	a0,0x33333
    800024a4:	33350513          	addi	a0,a0,819 # 33333333 <absimmsh+0x27862586>
    800024a8:	00b51513          	slli	a0,a0,0xb
    800024ac:	19950513          	addi	a0,a0,409
    800024b0:	00b51513          	slli	a0,a0,0xb
    800024b4:	4cc50513          	addi	a0,a0,1228
    800024b8:	00a51513          	slli	a0,a0,0xa
    800024bc:	33350513          	addi	a0,a0,819
    800024c0:	66657593          	andi	a1,a0,1638
    800024c4:	68b0b423          	sd	a1,1672(ra)
    800024c8:	22200113          	li	sp,546
    800024cc:	00b10463          	beq	sp,a1,800024d4 <inst_232>
    800024d0:	b55fd06f          	j	80000024 <rvtest_error>

00000000800024d4 <inst_232>:
    800024d4:	33333537          	lui	a0,0x33333
    800024d8:	33350513          	addi	a0,a0,819 # 33333333 <absimmsh+0x27862586>
    800024dc:	00b51513          	slli	a0,a0,0xb
    800024e0:	19950513          	addi	a0,a0,409
    800024e4:	00b51513          	slli	a0,a0,0xb
    800024e8:	4cc50513          	addi	a0,a0,1228
    800024ec:	00a51513          	slli	a0,a0,0xa
    800024f0:	33350513          	addi	a0,a0,819
    800024f4:	fd357593          	andi	a1,a0,-45
    800024f8:	68b0b823          	sd	a1,1680(ra)
    800024fc:	03333137          	lui	sp,0x3333
    80002500:	3331011b          	addiw	sp,sp,819 # 3333333 <offset+0x333308b>
    80002504:	00c11113          	slli	sp,sp,0xc
    80002508:	33310113          	addi	sp,sp,819
    8000250c:	00c11113          	slli	sp,sp,0xc
    80002510:	33310113          	addi	sp,sp,819
    80002514:	00c11113          	slli	sp,sp,0xc
    80002518:	31310113          	addi	sp,sp,787
    8000251c:	00b10463          	beq	sp,a1,80002524 <inst_233>
    80002520:	b05fd06f          	j	80000024 <rvtest_error>

0000000080002524 <inst_233>:
    80002524:	33333537          	lui	a0,0x33333
    80002528:	33350513          	addi	a0,a0,819 # 33333333 <absimmsh+0x27862586>
    8000252c:	00b51513          	slli	a0,a0,0xb
    80002530:	19950513          	addi	a0,a0,409
    80002534:	00b51513          	slli	a0,a0,0xb
    80002538:	4cc50513          	addi	a0,a0,1228
    8000253c:	00a51513          	slli	a0,a0,0xa
    80002540:	33350513          	addi	a0,a0,819
    80002544:	02d57593          	andi	a1,a0,45
    80002548:	68b0bc23          	sd	a1,1688(ra)
    8000254c:	02100113          	li	sp,33
    80002550:	00b10463          	beq	sp,a1,80002558 <inst_234>
    80002554:	ad1fd06f          	j	80000024 <rvtest_error>

0000000080002558 <inst_234>:
    80002558:	33333537          	lui	a0,0x33333
    8000255c:	33350513          	addi	a0,a0,819 # 33333333 <absimmsh+0x27862586>
    80002560:	00b51513          	slli	a0,a0,0xb
    80002564:	19950513          	addi	a0,a0,409
    80002568:	00b51513          	slli	a0,a0,0xb
    8000256c:	4cc50513          	addi	a0,a0,1228
    80002570:	00a51513          	slli	a0,a0,0xa
    80002574:	33350513          	addi	a0,a0,819
    80002578:	00257593          	andi	a1,a0,2
    8000257c:	6ab0b023          	sd	a1,1696(ra)
    80002580:	00200113          	li	sp,2
    80002584:	00b10463          	beq	sp,a1,8000258c <inst_235>
    80002588:	a9dfd06f          	j	80000024 <rvtest_error>

000000008000258c <inst_235>:
    8000258c:	33333537          	lui	a0,0x33333
    80002590:	33350513          	addi	a0,a0,819 # 33333333 <absimmsh+0x27862586>
    80002594:	00b51513          	slli	a0,a0,0xb
    80002598:	19950513          	addi	a0,a0,409
    8000259c:	00b51513          	slli	a0,a0,0xb
    800025a0:	4cc50513          	addi	a0,a0,1228
    800025a4:	00a51513          	slli	a0,a0,0xa
    800025a8:	33350513          	addi	a0,a0,819
    800025ac:	55457593          	andi	a1,a0,1364
    800025b0:	6ab0b423          	sd	a1,1704(ra)
    800025b4:	11000113          	li	sp,272
    800025b8:	00b10463          	beq	sp,a1,800025c0 <inst_236>
    800025bc:	a69fd06f          	j	80000024 <rvtest_error>

00000000800025c0 <inst_236>:
    800025c0:	33333537          	lui	a0,0x33333
    800025c4:	33350513          	addi	a0,a0,819 # 33333333 <absimmsh+0x27862586>
    800025c8:	00b51513          	slli	a0,a0,0xb
    800025cc:	19950513          	addi	a0,a0,409
    800025d0:	00b51513          	slli	a0,a0,0xb
    800025d4:	4cc50513          	addi	a0,a0,1228
    800025d8:	00a51513          	slli	a0,a0,0xa
    800025dc:	33350513          	addi	a0,a0,819
    800025e0:	00057593          	andi	a1,a0,0
    800025e4:	6ab0b823          	sd	a1,1712(ra)
    800025e8:	00000113          	li	sp,0
    800025ec:	00b10463          	beq	sp,a1,800025f4 <inst_237>
    800025f0:	a35fd06f          	j	80000024 <rvtest_error>

00000000800025f4 <inst_237>:
    800025f4:	33333537          	lui	a0,0x33333
    800025f8:	33350513          	addi	a0,a0,819 # 33333333 <absimmsh+0x27862586>
    800025fc:	00b51513          	slli	a0,a0,0xb
    80002600:	19950513          	addi	a0,a0,409
    80002604:	00b51513          	slli	a0,a0,0xb
    80002608:	4cc50513          	addi	a0,a0,1228
    8000260c:	00a51513          	slli	a0,a0,0xa
    80002610:	33350513          	addi	a0,a0,819
    80002614:	00457593          	andi	a1,a0,4
    80002618:	6ab0bc23          	sd	a1,1720(ra)
    8000261c:	00000113          	li	sp,0
    80002620:	00b10463          	beq	sp,a1,80002628 <inst_238>
    80002624:	a01fd06f          	j	80000024 <rvtest_error>

0000000080002628 <inst_238>:
    80002628:	33333537          	lui	a0,0x33333
    8000262c:	33350513          	addi	a0,a0,819 # 33333333 <absimmsh+0x27862586>
    80002630:	00b51513          	slli	a0,a0,0xb
    80002634:	19950513          	addi	a0,a0,409
    80002638:	00b51513          	slli	a0,a0,0xb
    8000263c:	4cc50513          	addi	a0,a0,1228
    80002640:	00a51513          	slli	a0,a0,0xa
    80002644:	33350513          	addi	a0,a0,819
    80002648:	33257593          	andi	a1,a0,818
    8000264c:	6cb0b023          	sd	a1,1728(ra)
    80002650:	33200113          	li	sp,818
    80002654:	00b10463          	beq	sp,a1,8000265c <inst_239>
    80002658:	9cdfd06f          	j	80000024 <rvtest_error>

000000008000265c <inst_239>:
    8000265c:	33333537          	lui	a0,0x33333
    80002660:	33350513          	addi	a0,a0,819 # 33333333 <absimmsh+0x27862586>
    80002664:	00b51513          	slli	a0,a0,0xb
    80002668:	19950513          	addi	a0,a0,409
    8000266c:	00b51513          	slli	a0,a0,0xb
    80002670:	4cc50513          	addi	a0,a0,1228
    80002674:	00a51513          	slli	a0,a0,0xa
    80002678:	33350513          	addi	a0,a0,819
    8000267c:	66557593          	andi	a1,a0,1637
    80002680:	6cb0b423          	sd	a1,1736(ra)
    80002684:	22100113          	li	sp,545
    80002688:	00b10463          	beq	sp,a1,80002690 <inst_240>
    8000268c:	999fd06f          	j	80000024 <rvtest_error>

0000000080002690 <inst_240>:
    80002690:	33333537          	lui	a0,0x33333
    80002694:	33350513          	addi	a0,a0,819 # 33333333 <absimmsh+0x27862586>
    80002698:	00b51513          	slli	a0,a0,0xb
    8000269c:	19950513          	addi	a0,a0,409
    800026a0:	00b51513          	slli	a0,a0,0xb
    800026a4:	4cc50513          	addi	a0,a0,1228
    800026a8:	00a51513          	slli	a0,a0,0xa
    800026ac:	33350513          	addi	a0,a0,819
    800026b0:	02c57593          	andi	a1,a0,44
    800026b4:	6cb0b823          	sd	a1,1744(ra)
    800026b8:	02000113          	li	sp,32
    800026bc:	00b10463          	beq	sp,a1,800026c4 <inst_241>
    800026c0:	965fd06f          	j	80000024 <rvtest_error>

00000000800026c4 <inst_241>:
    800026c4:	33333537          	lui	a0,0x33333
    800026c8:	33350513          	addi	a0,a0,819 # 33333333 <absimmsh+0x27862586>
    800026cc:	00b51513          	slli	a0,a0,0xb
    800026d0:	19950513          	addi	a0,a0,409
    800026d4:	00b51513          	slli	a0,a0,0xb
    800026d8:	4cc50513          	addi	a0,a0,1228
    800026dc:	00a51513          	slli	a0,a0,0xa
    800026e0:	33350513          	addi	a0,a0,819
    800026e4:	55657593          	andi	a1,a0,1366
    800026e8:	6cb0bc23          	sd	a1,1752(ra)
    800026ec:	11200113          	li	sp,274
    800026f0:	00b10463          	beq	sp,a1,800026f8 <inst_242>
    800026f4:	931fd06f          	j	80000024 <rvtest_error>

00000000800026f8 <inst_242>:
    800026f8:	33333537          	lui	a0,0x33333
    800026fc:	33350513          	addi	a0,a0,819 # 33333333 <absimmsh+0x27862586>
    80002700:	00b51513          	slli	a0,a0,0xb
    80002704:	19950513          	addi	a0,a0,409
    80002708:	00b51513          	slli	a0,a0,0xb
    8000270c:	4cc50513          	addi	a0,a0,1228
    80002710:	00a51513          	slli	a0,a0,0xa
    80002714:	33350513          	addi	a0,a0,819
    80002718:	aab57593          	andi	a1,a0,-1365
    8000271c:	6eb0b023          	sd	a1,1760(ra)
    80002720:	03333137          	lui	sp,0x3333
    80002724:	3331011b          	addiw	sp,sp,819 # 3333333 <offset+0x333308b>
    80002728:	00c11113          	slli	sp,sp,0xc
    8000272c:	33310113          	addi	sp,sp,819
    80002730:	00c11113          	slli	sp,sp,0xc
    80002734:	33310113          	addi	sp,sp,819
    80002738:	00c11113          	slli	sp,sp,0xc
    8000273c:	22310113          	addi	sp,sp,547
    80002740:	00b10463          	beq	sp,a1,80002748 <inst_243>
    80002744:	8e1fd06f          	j	80000024 <rvtest_error>

0000000080002748 <inst_243>:
    80002748:	33333537          	lui	a0,0x33333
    8000274c:	33350513          	addi	a0,a0,819 # 33333333 <absimmsh+0x27862586>
    80002750:	00b51513          	slli	a0,a0,0xb
    80002754:	19950513          	addi	a0,a0,409
    80002758:	00b51513          	slli	a0,a0,0xb
    8000275c:	4cc50513          	addi	a0,a0,1228
    80002760:	00a51513          	slli	a0,a0,0xa
    80002764:	33350513          	addi	a0,a0,819
    80002768:	00657593          	andi	a1,a0,6
    8000276c:	6eb0b423          	sd	a1,1768(ra)
    80002770:	00200113          	li	sp,2
    80002774:	00b10463          	beq	sp,a1,8000277c <inst_244>
    80002778:	8adfd06f          	j	80000024 <rvtest_error>

000000008000277c <inst_244>:
    8000277c:	33333537          	lui	a0,0x33333
    80002780:	33350513          	addi	a0,a0,819 # 33333333 <absimmsh+0x27862586>
    80002784:	00b51513          	slli	a0,a0,0xb
    80002788:	19950513          	addi	a0,a0,409
    8000278c:	00b51513          	slli	a0,a0,0xb
    80002790:	4cc50513          	addi	a0,a0,1228
    80002794:	00a51513          	slli	a0,a0,0xa
    80002798:	33350513          	addi	a0,a0,819
    8000279c:	33457593          	andi	a1,a0,820
    800027a0:	6eb0b823          	sd	a1,1776(ra)
    800027a4:	33000113          	li	sp,816
    800027a8:	00b10463          	beq	sp,a1,800027b0 <inst_245>
    800027ac:	879fd06f          	j	80000024 <rvtest_error>

00000000800027b0 <inst_245>:
    800027b0:	33333537          	lui	a0,0x33333
    800027b4:	33350513          	addi	a0,a0,819 # 33333333 <absimmsh+0x27862586>
    800027b8:	00b51513          	slli	a0,a0,0xb
    800027bc:	19950513          	addi	a0,a0,409
    800027c0:	00b51513          	slli	a0,a0,0xb
    800027c4:	4cc50513          	addi	a0,a0,1228
    800027c8:	00a51513          	slli	a0,a0,0xa
    800027cc:	33350513          	addi	a0,a0,819
    800027d0:	66757593          	andi	a1,a0,1639
    800027d4:	6eb0bc23          	sd	a1,1784(ra)
    800027d8:	22300113          	li	sp,547
    800027dc:	00b10463          	beq	sp,a1,800027e4 <inst_246>
    800027e0:	845fd06f          	j	80000024 <rvtest_error>

00000000800027e4 <inst_246>:
    800027e4:	33333537          	lui	a0,0x33333
    800027e8:	33350513          	addi	a0,a0,819 # 33333333 <absimmsh+0x27862586>
    800027ec:	00b51513          	slli	a0,a0,0xb
    800027f0:	19950513          	addi	a0,a0,409
    800027f4:	00b51513          	slli	a0,a0,0xb
    800027f8:	4cc50513          	addi	a0,a0,1228
    800027fc:	00a51513          	slli	a0,a0,0xa
    80002800:	33350513          	addi	a0,a0,819
    80002804:	fd457593          	andi	a1,a0,-44
    80002808:	70b0b023          	sd	a1,1792(ra)
    8000280c:	03333137          	lui	sp,0x3333
    80002810:	3331011b          	addiw	sp,sp,819 # 3333333 <offset+0x333308b>
    80002814:	00c11113          	slli	sp,sp,0xc
    80002818:	33310113          	addi	sp,sp,819
    8000281c:	00c11113          	slli	sp,sp,0xc
    80002820:	33310113          	addi	sp,sp,819
    80002824:	00c11113          	slli	sp,sp,0xc
    80002828:	31010113          	addi	sp,sp,784
    8000282c:	00b10463          	beq	sp,a1,80002834 <inst_247>
    80002830:	ff4fd06f          	j	80000024 <rvtest_error>

0000000080002834 <inst_247>:
    80002834:	33333537          	lui	a0,0x33333
    80002838:	33350513          	addi	a0,a0,819 # 33333333 <absimmsh+0x27862586>
    8000283c:	00b51513          	slli	a0,a0,0xb
    80002840:	19950513          	addi	a0,a0,409
    80002844:	00b51513          	slli	a0,a0,0xb
    80002848:	4cc50513          	addi	a0,a0,1228
    8000284c:	00a51513          	slli	a0,a0,0xa
    80002850:	33350513          	addi	a0,a0,819
    80002854:	02e57593          	andi	a1,a0,46
    80002858:	70b0b423          	sd	a1,1800(ra)
    8000285c:	02200113          	li	sp,34
    80002860:	00b10463          	beq	sp,a1,80002868 <inst_248>
    80002864:	fc0fd06f          	j	80000024 <rvtest_error>

0000000080002868 <inst_248>:
    80002868:	66666537          	lui	a0,0x66666
    8000286c:	66650513          	addi	a0,a0,1638 # 66666666 <absimmsh+0x5ab958b9>
    80002870:	00b51513          	slli	a0,a0,0xb
    80002874:	33350513          	addi	a0,a0,819
    80002878:	00b51513          	slli	a0,a0,0xb
    8000287c:	19950513          	addi	a0,a0,409
    80002880:	00a51513          	slli	a0,a0,0xa
    80002884:	26650513          	addi	a0,a0,614
    80002888:	00357593          	andi	a1,a0,3
    8000288c:	70b0b823          	sd	a1,1808(ra)
    80002890:	00200113          	li	sp,2
    80002894:	00b10463          	beq	sp,a1,8000289c <inst_249>
    80002898:	f8cfd06f          	j	80000024 <rvtest_error>

000000008000289c <inst_249>:
    8000289c:	66666537          	lui	a0,0x66666
    800028a0:	66650513          	addi	a0,a0,1638 # 66666666 <absimmsh+0x5ab958b9>
    800028a4:	00b51513          	slli	a0,a0,0xb
    800028a8:	33350513          	addi	a0,a0,819
    800028ac:	00b51513          	slli	a0,a0,0xb
    800028b0:	19950513          	addi	a0,a0,409
    800028b4:	00a51513          	slli	a0,a0,0xa
    800028b8:	26650513          	addi	a0,a0,614
    800028bc:	55557593          	andi	a1,a0,1365
    800028c0:	70b0bc23          	sd	a1,1816(ra)
    800028c4:	44400113          	li	sp,1092
    800028c8:	00b10463          	beq	sp,a1,800028d0 <inst_250>
    800028cc:	f58fd06f          	j	80000024 <rvtest_error>

00000000800028d0 <inst_250>:
    800028d0:	66666537          	lui	a0,0x66666
    800028d4:	66650513          	addi	a0,a0,1638 # 66666666 <absimmsh+0x5ab958b9>
    800028d8:	00b51513          	slli	a0,a0,0xb
    800028dc:	33350513          	addi	a0,a0,819
    800028e0:	00b51513          	slli	a0,a0,0xb
    800028e4:	19950513          	addi	a0,a0,409
    800028e8:	00a51513          	slli	a0,a0,0xa
    800028ec:	26650513          	addi	a0,a0,614
    800028f0:	aaa57593          	andi	a1,a0,-1366
    800028f4:	72b0b023          	sd	a1,1824(ra)
    800028f8:	03333137          	lui	sp,0x3333
    800028fc:	3331011b          	addiw	sp,sp,819 # 3333333 <offset+0x333308b>
    80002900:	00c11113          	slli	sp,sp,0xc
    80002904:	33310113          	addi	sp,sp,819
    80002908:	00c11113          	slli	sp,sp,0xc
    8000290c:	33310113          	addi	sp,sp,819
    80002910:	00d11113          	slli	sp,sp,0xd
    80002914:	22210113          	addi	sp,sp,546
    80002918:	00b10463          	beq	sp,a1,80002920 <inst_251>
    8000291c:	f08fd06f          	j	80000024 <rvtest_error>

0000000080002920 <inst_251>:
    80002920:	66666537          	lui	a0,0x66666
    80002924:	66650513          	addi	a0,a0,1638 # 66666666 <absimmsh+0x5ab958b9>
    80002928:	00b51513          	slli	a0,a0,0xb
    8000292c:	33350513          	addi	a0,a0,819
    80002930:	00b51513          	slli	a0,a0,0xb
    80002934:	19950513          	addi	a0,a0,409
    80002938:	00a51513          	slli	a0,a0,0xa
    8000293c:	26650513          	addi	a0,a0,614
    80002940:	00557593          	andi	a1,a0,5
    80002944:	72b0b423          	sd	a1,1832(ra)
    80002948:	00400113          	li	sp,4
    8000294c:	00b10463          	beq	sp,a1,80002954 <inst_252>
    80002950:	ed4fd06f          	j	80000024 <rvtest_error>

0000000080002954 <inst_252>:
    80002954:	66666537          	lui	a0,0x66666
    80002958:	66650513          	addi	a0,a0,1638 # 66666666 <absimmsh+0x5ab958b9>
    8000295c:	00b51513          	slli	a0,a0,0xb
    80002960:	33350513          	addi	a0,a0,819
    80002964:	00b51513          	slli	a0,a0,0xb
    80002968:	19950513          	addi	a0,a0,409
    8000296c:	00a51513          	slli	a0,a0,0xa
    80002970:	26650513          	addi	a0,a0,614
    80002974:	33357593          	andi	a1,a0,819
    80002978:	72b0b823          	sd	a1,1840(ra)
    8000297c:	22200113          	li	sp,546
    80002980:	00b10463          	beq	sp,a1,80002988 <inst_253>
    80002984:	ea0fd06f          	j	80000024 <rvtest_error>

0000000080002988 <inst_253>:
    80002988:	66666537          	lui	a0,0x66666
    8000298c:	66650513          	addi	a0,a0,1638 # 66666666 <absimmsh+0x5ab958b9>
    80002990:	00b51513          	slli	a0,a0,0xb
    80002994:	33350513          	addi	a0,a0,819
    80002998:	00b51513          	slli	a0,a0,0xb
    8000299c:	19950513          	addi	a0,a0,409
    800029a0:	00a51513          	slli	a0,a0,0xa
    800029a4:	26650513          	addi	a0,a0,614
    800029a8:	66657593          	andi	a1,a0,1638
    800029ac:	72b0bc23          	sd	a1,1848(ra)
    800029b0:	66600113          	li	sp,1638
    800029b4:	00b10463          	beq	sp,a1,800029bc <inst_254>
    800029b8:	e6cfd06f          	j	80000024 <rvtest_error>

00000000800029bc <inst_254>:
    800029bc:	66666537          	lui	a0,0x66666
    800029c0:	66650513          	addi	a0,a0,1638 # 66666666 <absimmsh+0x5ab958b9>
    800029c4:	00b51513          	slli	a0,a0,0xb
    800029c8:	33350513          	addi	a0,a0,819
    800029cc:	00b51513          	slli	a0,a0,0xb
    800029d0:	19950513          	addi	a0,a0,409
    800029d4:	00a51513          	slli	a0,a0,0xa
    800029d8:	26650513          	addi	a0,a0,614
    800029dc:	fd357593          	andi	a1,a0,-45
    800029e0:	74b0b023          	sd	a1,1856(ra)
    800029e4:	03333137          	lui	sp,0x3333
    800029e8:	3331011b          	addiw	sp,sp,819 # 3333333 <offset+0x333308b>
    800029ec:	00c11113          	slli	sp,sp,0xc
    800029f0:	33310113          	addi	sp,sp,819
    800029f4:	00c11113          	slli	sp,sp,0xc
    800029f8:	33310113          	addi	sp,sp,819
    800029fc:	00d11113          	slli	sp,sp,0xd
    80002a00:	64210113          	addi	sp,sp,1602
    80002a04:	00b10463          	beq	sp,a1,80002a0c <inst_255>
    80002a08:	e1cfd06f          	j	80000024 <rvtest_error>

0000000080002a0c <inst_255>:
    80002a0c:	66666537          	lui	a0,0x66666
    80002a10:	66650513          	addi	a0,a0,1638 # 66666666 <absimmsh+0x5ab958b9>
    80002a14:	00b51513          	slli	a0,a0,0xb
    80002a18:	33350513          	addi	a0,a0,819
    80002a1c:	00b51513          	slli	a0,a0,0xb
    80002a20:	19950513          	addi	a0,a0,409
    80002a24:	00a51513          	slli	a0,a0,0xa
    80002a28:	26650513          	addi	a0,a0,614
    80002a2c:	02d57593          	andi	a1,a0,45
    80002a30:	74b0b423          	sd	a1,1864(ra)
    80002a34:	02400113          	li	sp,36
    80002a38:	00b10463          	beq	sp,a1,80002a40 <inst_256>
    80002a3c:	de8fd06f          	j	80000024 <rvtest_error>

0000000080002a40 <inst_256>:
    80002a40:	66666537          	lui	a0,0x66666
    80002a44:	66650513          	addi	a0,a0,1638 # 66666666 <absimmsh+0x5ab958b9>
    80002a48:	00b51513          	slli	a0,a0,0xb
    80002a4c:	33350513          	addi	a0,a0,819
    80002a50:	00b51513          	slli	a0,a0,0xb
    80002a54:	19950513          	addi	a0,a0,409
    80002a58:	00a51513          	slli	a0,a0,0xa
    80002a5c:	26650513          	addi	a0,a0,614
    80002a60:	00257593          	andi	a1,a0,2
    80002a64:	74b0b823          	sd	a1,1872(ra)
    80002a68:	00200113          	li	sp,2
    80002a6c:	00b10463          	beq	sp,a1,80002a74 <inst_257>
    80002a70:	db4fd06f          	j	80000024 <rvtest_error>

0000000080002a74 <inst_257>:
    80002a74:	66666537          	lui	a0,0x66666
    80002a78:	66650513          	addi	a0,a0,1638 # 66666666 <absimmsh+0x5ab958b9>
    80002a7c:	00b51513          	slli	a0,a0,0xb
    80002a80:	33350513          	addi	a0,a0,819
    80002a84:	00b51513          	slli	a0,a0,0xb
    80002a88:	19950513          	addi	a0,a0,409
    80002a8c:	00a51513          	slli	a0,a0,0xa
    80002a90:	26650513          	addi	a0,a0,614
    80002a94:	55457593          	andi	a1,a0,1364
    80002a98:	74b0bc23          	sd	a1,1880(ra)
    80002a9c:	44400113          	li	sp,1092
    80002aa0:	00b10463          	beq	sp,a1,80002aa8 <inst_258>
    80002aa4:	d80fd06f          	j	80000024 <rvtest_error>

0000000080002aa8 <inst_258>:
    80002aa8:	66666537          	lui	a0,0x66666
    80002aac:	66650513          	addi	a0,a0,1638 # 66666666 <absimmsh+0x5ab958b9>
    80002ab0:	00b51513          	slli	a0,a0,0xb
    80002ab4:	33350513          	addi	a0,a0,819
    80002ab8:	00b51513          	slli	a0,a0,0xb
    80002abc:	19950513          	addi	a0,a0,409
    80002ac0:	00a51513          	slli	a0,a0,0xa
    80002ac4:	26650513          	addi	a0,a0,614
    80002ac8:	00057593          	andi	a1,a0,0
    80002acc:	76b0b023          	sd	a1,1888(ra)
    80002ad0:	00000113          	li	sp,0
    80002ad4:	00b10463          	beq	sp,a1,80002adc <inst_259>
    80002ad8:	d4cfd06f          	j	80000024 <rvtest_error>

0000000080002adc <inst_259>:
    80002adc:	66666537          	lui	a0,0x66666
    80002ae0:	66650513          	addi	a0,a0,1638 # 66666666 <absimmsh+0x5ab958b9>
    80002ae4:	00b51513          	slli	a0,a0,0xb
    80002ae8:	33350513          	addi	a0,a0,819
    80002aec:	00b51513          	slli	a0,a0,0xb
    80002af0:	19950513          	addi	a0,a0,409
    80002af4:	00a51513          	slli	a0,a0,0xa
    80002af8:	26650513          	addi	a0,a0,614
    80002afc:	00457593          	andi	a1,a0,4
    80002b00:	76b0b423          	sd	a1,1896(ra)
    80002b04:	00400113          	li	sp,4
    80002b08:	00b10463          	beq	sp,a1,80002b10 <inst_260>
    80002b0c:	d18fd06f          	j	80000024 <rvtest_error>

0000000080002b10 <inst_260>:
    80002b10:	66666537          	lui	a0,0x66666
    80002b14:	66650513          	addi	a0,a0,1638 # 66666666 <absimmsh+0x5ab958b9>
    80002b18:	00b51513          	slli	a0,a0,0xb
    80002b1c:	33350513          	addi	a0,a0,819
    80002b20:	00b51513          	slli	a0,a0,0xb
    80002b24:	19950513          	addi	a0,a0,409
    80002b28:	00a51513          	slli	a0,a0,0xa
    80002b2c:	26650513          	addi	a0,a0,614
    80002b30:	33257593          	andi	a1,a0,818
    80002b34:	76b0b823          	sd	a1,1904(ra)
    80002b38:	22200113          	li	sp,546
    80002b3c:	00b10463          	beq	sp,a1,80002b44 <inst_261>
    80002b40:	ce4fd06f          	j	80000024 <rvtest_error>

0000000080002b44 <inst_261>:
    80002b44:	66666537          	lui	a0,0x66666
    80002b48:	66650513          	addi	a0,a0,1638 # 66666666 <absimmsh+0x5ab958b9>
    80002b4c:	00b51513          	slli	a0,a0,0xb
    80002b50:	33350513          	addi	a0,a0,819
    80002b54:	00b51513          	slli	a0,a0,0xb
    80002b58:	19950513          	addi	a0,a0,409
    80002b5c:	00a51513          	slli	a0,a0,0xa
    80002b60:	26650513          	addi	a0,a0,614
    80002b64:	66557593          	andi	a1,a0,1637
    80002b68:	76b0bc23          	sd	a1,1912(ra)
    80002b6c:	66400113          	li	sp,1636
    80002b70:	00b10463          	beq	sp,a1,80002b78 <inst_262>
    80002b74:	cb0fd06f          	j	80000024 <rvtest_error>

0000000080002b78 <inst_262>:
    80002b78:	66666537          	lui	a0,0x66666
    80002b7c:	66650513          	addi	a0,a0,1638 # 66666666 <absimmsh+0x5ab958b9>
    80002b80:	00b51513          	slli	a0,a0,0xb
    80002b84:	33350513          	addi	a0,a0,819
    80002b88:	00b51513          	slli	a0,a0,0xb
    80002b8c:	19950513          	addi	a0,a0,409
    80002b90:	00a51513          	slli	a0,a0,0xa
    80002b94:	26650513          	addi	a0,a0,614
    80002b98:	02c57593          	andi	a1,a0,44
    80002b9c:	78b0b023          	sd	a1,1920(ra)
    80002ba0:	02400113          	li	sp,36
    80002ba4:	00b10463          	beq	sp,a1,80002bac <inst_263>
    80002ba8:	c7cfd06f          	j	80000024 <rvtest_error>

0000000080002bac <inst_263>:
    80002bac:	66666537          	lui	a0,0x66666
    80002bb0:	66650513          	addi	a0,a0,1638 # 66666666 <absimmsh+0x5ab958b9>
    80002bb4:	00b51513          	slli	a0,a0,0xb
    80002bb8:	33350513          	addi	a0,a0,819
    80002bbc:	00b51513          	slli	a0,a0,0xb
    80002bc0:	19950513          	addi	a0,a0,409
    80002bc4:	00a51513          	slli	a0,a0,0xa
    80002bc8:	26650513          	addi	a0,a0,614
    80002bcc:	55657593          	andi	a1,a0,1366
    80002bd0:	78b0b423          	sd	a1,1928(ra)
    80002bd4:	44600113          	li	sp,1094
    80002bd8:	00b10463          	beq	sp,a1,80002be0 <inst_264>
    80002bdc:	c48fd06f          	j	80000024 <rvtest_error>

0000000080002be0 <inst_264>:
    80002be0:	66666537          	lui	a0,0x66666
    80002be4:	66650513          	addi	a0,a0,1638 # 66666666 <absimmsh+0x5ab958b9>
    80002be8:	00b51513          	slli	a0,a0,0xb
    80002bec:	33350513          	addi	a0,a0,819
    80002bf0:	00b51513          	slli	a0,a0,0xb
    80002bf4:	19950513          	addi	a0,a0,409
    80002bf8:	00a51513          	slli	a0,a0,0xa
    80002bfc:	26650513          	addi	a0,a0,614
    80002c00:	aab57593          	andi	a1,a0,-1365
    80002c04:	78b0b823          	sd	a1,1936(ra)
    80002c08:	03333137          	lui	sp,0x3333
    80002c0c:	3331011b          	addiw	sp,sp,819 # 3333333 <offset+0x333308b>
    80002c10:	00c11113          	slli	sp,sp,0xc
    80002c14:	33310113          	addi	sp,sp,819
    80002c18:	00c11113          	slli	sp,sp,0xc
    80002c1c:	33310113          	addi	sp,sp,819
    80002c20:	00d11113          	slli	sp,sp,0xd
    80002c24:	22210113          	addi	sp,sp,546
    80002c28:	00b10463          	beq	sp,a1,80002c30 <inst_265>
    80002c2c:	bf8fd06f          	j	80000024 <rvtest_error>

0000000080002c30 <inst_265>:
    80002c30:	66666537          	lui	a0,0x66666
    80002c34:	66650513          	addi	a0,a0,1638 # 66666666 <absimmsh+0x5ab958b9>
    80002c38:	00b51513          	slli	a0,a0,0xb
    80002c3c:	33350513          	addi	a0,a0,819
    80002c40:	00b51513          	slli	a0,a0,0xb
    80002c44:	19950513          	addi	a0,a0,409
    80002c48:	00a51513          	slli	a0,a0,0xa
    80002c4c:	26650513          	addi	a0,a0,614
    80002c50:	00657593          	andi	a1,a0,6
    80002c54:	78b0bc23          	sd	a1,1944(ra)
    80002c58:	00600113          	li	sp,6
    80002c5c:	00b10463          	beq	sp,a1,80002c64 <inst_266>
    80002c60:	bc4fd06f          	j	80000024 <rvtest_error>

0000000080002c64 <inst_266>:
    80002c64:	66666537          	lui	a0,0x66666
    80002c68:	66650513          	addi	a0,a0,1638 # 66666666 <absimmsh+0x5ab958b9>
    80002c6c:	00b51513          	slli	a0,a0,0xb
    80002c70:	33350513          	addi	a0,a0,819
    80002c74:	00b51513          	slli	a0,a0,0xb
    80002c78:	19950513          	addi	a0,a0,409
    80002c7c:	00a51513          	slli	a0,a0,0xa
    80002c80:	26650513          	addi	a0,a0,614
    80002c84:	33457593          	andi	a1,a0,820
    80002c88:	7ab0b023          	sd	a1,1952(ra)
    80002c8c:	22400113          	li	sp,548
    80002c90:	00b10463          	beq	sp,a1,80002c98 <inst_267>
    80002c94:	b90fd06f          	j	80000024 <rvtest_error>

0000000080002c98 <inst_267>:
    80002c98:	66666537          	lui	a0,0x66666
    80002c9c:	66650513          	addi	a0,a0,1638 # 66666666 <absimmsh+0x5ab958b9>
    80002ca0:	00b51513          	slli	a0,a0,0xb
    80002ca4:	33350513          	addi	a0,a0,819
    80002ca8:	00b51513          	slli	a0,a0,0xb
    80002cac:	19950513          	addi	a0,a0,409
    80002cb0:	00a51513          	slli	a0,a0,0xa
    80002cb4:	26650513          	addi	a0,a0,614
    80002cb8:	66757593          	andi	a1,a0,1639
    80002cbc:	7ab0b423          	sd	a1,1960(ra)
    80002cc0:	66600113          	li	sp,1638
    80002cc4:	00b10463          	beq	sp,a1,80002ccc <inst_268>
    80002cc8:	b5cfd06f          	j	80000024 <rvtest_error>

0000000080002ccc <inst_268>:
    80002ccc:	66666537          	lui	a0,0x66666
    80002cd0:	66650513          	addi	a0,a0,1638 # 66666666 <absimmsh+0x5ab958b9>
    80002cd4:	00b51513          	slli	a0,a0,0xb
    80002cd8:	33350513          	addi	a0,a0,819
    80002cdc:	00b51513          	slli	a0,a0,0xb
    80002ce0:	19950513          	addi	a0,a0,409
    80002ce4:	00a51513          	slli	a0,a0,0xa
    80002ce8:	26650513          	addi	a0,a0,614
    80002cec:	fd457593          	andi	a1,a0,-44
    80002cf0:	7ab0b823          	sd	a1,1968(ra)
    80002cf4:	03333137          	lui	sp,0x3333
    80002cf8:	3331011b          	addiw	sp,sp,819 # 3333333 <offset+0x333308b>
    80002cfc:	00c11113          	slli	sp,sp,0xc
    80002d00:	33310113          	addi	sp,sp,819
    80002d04:	00c11113          	slli	sp,sp,0xc
    80002d08:	33310113          	addi	sp,sp,819
    80002d0c:	00d11113          	slli	sp,sp,0xd
    80002d10:	64410113          	addi	sp,sp,1604
    80002d14:	00b10463          	beq	sp,a1,80002d1c <inst_269>
    80002d18:	b0cfd06f          	j	80000024 <rvtest_error>

0000000080002d1c <inst_269>:
    80002d1c:	66666537          	lui	a0,0x66666
    80002d20:	66650513          	addi	a0,a0,1638 # 66666666 <absimmsh+0x5ab958b9>
    80002d24:	00b51513          	slli	a0,a0,0xb
    80002d28:	33350513          	addi	a0,a0,819
    80002d2c:	00b51513          	slli	a0,a0,0xb
    80002d30:	19950513          	addi	a0,a0,409
    80002d34:	00a51513          	slli	a0,a0,0xa
    80002d38:	26650513          	addi	a0,a0,614
    80002d3c:	02e57593          	andi	a1,a0,46
    80002d40:	7ab0bc23          	sd	a1,1976(ra)
    80002d44:	02600113          	li	sp,38
    80002d48:	00b10463          	beq	sp,a1,80002d50 <inst_270>
    80002d4c:	ad8fd06f          	j	80000024 <rvtest_error>

0000000080002d50 <inst_270>:
    80002d50:	00000537          	lui	a0,0x0
    80002d54:	fff50513          	addi	a0,a0,-1
    80002d58:	00b51513          	slli	a0,a0,0xb
    80002d5c:	25750513          	addi	a0,a0,599
    80002d60:	00b51513          	slli	a0,a0,0xb
    80002d64:	6c350513          	addi	a0,a0,1731
    80002d68:	00a51513          	slli	a0,a0,0xa
    80002d6c:	0cd50513          	addi	a0,a0,205
    80002d70:	00357593          	andi	a1,a0,3
    80002d74:	7cb0b023          	sd	a1,1984(ra)
    80002d78:	00100113          	li	sp,1
    80002d7c:	00b10463          	beq	sp,a1,80002d84 <inst_271>
    80002d80:	aa4fd06f          	j	80000024 <rvtest_error>

0000000080002d84 <inst_271>:
    80002d84:	00000537          	lui	a0,0x0
    80002d88:	fff50513          	addi	a0,a0,-1
    80002d8c:	00b51513          	slli	a0,a0,0xb
    80002d90:	25750513          	addi	a0,a0,599
    80002d94:	00b51513          	slli	a0,a0,0xb
    80002d98:	6c350513          	addi	a0,a0,1731
    80002d9c:	00a51513          	slli	a0,a0,0xa
    80002da0:	0cd50513          	addi	a0,a0,205
    80002da4:	55557593          	andi	a1,a0,1365
    80002da8:	7cb0b423          	sd	a1,1992(ra)
    80002dac:	44500113          	li	sp,1093
    80002db0:	00b10463          	beq	sp,a1,80002db8 <inst_272>
    80002db4:	a70fd06f          	j	80000024 <rvtest_error>

0000000080002db8 <inst_272>:
    80002db8:	00000537          	lui	a0,0x0
    80002dbc:	fff50513          	addi	a0,a0,-1
    80002dc0:	00b51513          	slli	a0,a0,0xb
    80002dc4:	25750513          	addi	a0,a0,599
    80002dc8:	00b51513          	slli	a0,a0,0xb
    80002dcc:	6c350513          	addi	a0,a0,1731
    80002dd0:	00a51513          	slli	a0,a0,0xa
    80002dd4:	0cd50513          	addi	a0,a0,205
    80002dd8:	aaa57593          	andi	a1,a0,-1366
    80002ddc:	7cb0b823          	sd	a1,2000(ra)
    80002de0:	fff4b137          	lui	sp,0xfff4b
    80002de4:	fb11011b          	addiw	sp,sp,-79 # fffffffffff4afb1 <absimm+0xffffffff4523d4e1>
    80002de8:	00c11113          	slli	sp,sp,0xc
    80002dec:	88810113          	addi	sp,sp,-1912
    80002df0:	00b10463          	beq	sp,a1,80002df8 <inst_273>
    80002df4:	a30fd06f          	j	80000024 <rvtest_error>

0000000080002df8 <inst_273>:
    80002df8:	00000537          	lui	a0,0x0
    80002dfc:	fff50513          	addi	a0,a0,-1
    80002e00:	00b51513          	slli	a0,a0,0xb
    80002e04:	25750513          	addi	a0,a0,599
    80002e08:	00b51513          	slli	a0,a0,0xb
    80002e0c:	6c350513          	addi	a0,a0,1731
    80002e10:	00a51513          	slli	a0,a0,0xa
    80002e14:	0cd50513          	addi	a0,a0,205
    80002e18:	00557593          	andi	a1,a0,5
    80002e1c:	7cb0bc23          	sd	a1,2008(ra)
    80002e20:	00500113          	li	sp,5
    80002e24:	00b10463          	beq	sp,a1,80002e2c <inst_274>
    80002e28:	9fcfd06f          	j	80000024 <rvtest_error>

0000000080002e2c <inst_274>:
    80002e2c:	00000537          	lui	a0,0x0
    80002e30:	fff50513          	addi	a0,a0,-1
    80002e34:	00b51513          	slli	a0,a0,0xb
    80002e38:	25750513          	addi	a0,a0,599
    80002e3c:	00b51513          	slli	a0,a0,0xb
    80002e40:	6c350513          	addi	a0,a0,1731
    80002e44:	00a51513          	slli	a0,a0,0xa
    80002e48:	0cd50513          	addi	a0,a0,205
    80002e4c:	33357593          	andi	a1,a0,819
    80002e50:	7eb0b023          	sd	a1,2016(ra)
    80002e54:	00100113          	li	sp,1
    80002e58:	00b10463          	beq	sp,a1,80002e60 <inst_275>
    80002e5c:	9c8fd06f          	j	80000024 <rvtest_error>

0000000080002e60 <inst_275>:
    80002e60:	00000537          	lui	a0,0x0
    80002e64:	fff50513          	addi	a0,a0,-1
    80002e68:	00b51513          	slli	a0,a0,0xb
    80002e6c:	25750513          	addi	a0,a0,599
    80002e70:	00b51513          	slli	a0,a0,0xb
    80002e74:	6c350513          	addi	a0,a0,1731
    80002e78:	00a51513          	slli	a0,a0,0xa
    80002e7c:	0cd50513          	addi	a0,a0,205
    80002e80:	66657593          	andi	a1,a0,1638
    80002e84:	7eb0b423          	sd	a1,2024(ra)
    80002e88:	44400113          	li	sp,1092
    80002e8c:	00b10463          	beq	sp,a1,80002e94 <inst_276>
    80002e90:	994fd06f          	j	80000024 <rvtest_error>

0000000080002e94 <inst_276>:
    80002e94:	00000537          	lui	a0,0x0
    80002e98:	fff50513          	addi	a0,a0,-1
    80002e9c:	00b51513          	slli	a0,a0,0xb
    80002ea0:	25750513          	addi	a0,a0,599
    80002ea4:	00b51513          	slli	a0,a0,0xb
    80002ea8:	6c350513          	addi	a0,a0,1731
    80002eac:	00a51513          	slli	a0,a0,0xa
    80002eb0:	0cd50513          	addi	a0,a0,205
    80002eb4:	fd357593          	andi	a1,a0,-45
    80002eb8:	7eb0b823          	sd	a1,2032(ra)
    80002ebc:	fff4b137          	lui	sp,0xfff4b
    80002ec0:	fb11011b          	addiw	sp,sp,-79 # fffffffffff4afb1 <absimm+0xffffffff4523d4e1>
    80002ec4:	00c11113          	slli	sp,sp,0xc
    80002ec8:	cc110113          	addi	sp,sp,-831
    80002ecc:	00b10463          	beq	sp,a1,80002ed4 <inst_277>
    80002ed0:	954fd06f          	j	80000024 <rvtest_error>

0000000080002ed4 <inst_277>:
    80002ed4:	00000537          	lui	a0,0x0
    80002ed8:	fff50513          	addi	a0,a0,-1
    80002edc:	00b51513          	slli	a0,a0,0xb
    80002ee0:	25750513          	addi	a0,a0,599
    80002ee4:	00b51513          	slli	a0,a0,0xb
    80002ee8:	6c350513          	addi	a0,a0,1731
    80002eec:	00a51513          	slli	a0,a0,0xa
    80002ef0:	0cd50513          	addi	a0,a0,205
    80002ef4:	02d57593          	andi	a1,a0,45
    80002ef8:	7eb0bc23          	sd	a1,2040(ra)
    80002efc:	00d00113          	li	sp,13
    80002f00:	00b10463          	beq	sp,a1,80002f08 <inst_277+0x34>
    80002f04:	920fd06f          	j	80000024 <rvtest_error>
    80002f08:	00000013          	nop
    80002f0c:	00000013          	nop
    80002f10:	00000013          	nop
    80002f14:	00000013          	nop
    80002f18:	00000013          	nop
    80002f1c:	00000013          	nop
    80002f20:	00006097          	auipc	ra,0x6
    80002f24:	99808093          	addi	ra,ra,-1640 # 800088b8 <signature_x1_1>
    80002f28:	00000013          	nop
    80002f2c:	00000013          	nop
    80002f30:	00000013          	nop
    80002f34:	00000013          	nop
    80002f38:	00000013          	nop
    80002f3c:	00000013          	nop

0000000080002f40 <inst_278>:
    80002f40:	00000537          	lui	a0,0x0
    80002f44:	fff50513          	addi	a0,a0,-1
    80002f48:	00b51513          	slli	a0,a0,0xb
    80002f4c:	25750513          	addi	a0,a0,599
    80002f50:	00b51513          	slli	a0,a0,0xb
    80002f54:	6c350513          	addi	a0,a0,1731
    80002f58:	00a51513          	slli	a0,a0,0xa
    80002f5c:	0cd50513          	addi	a0,a0,205
    80002f60:	00257593          	andi	a1,a0,2
    80002f64:	00b0b023          	sd	a1,0(ra)
    80002f68:	00000113          	li	sp,0
    80002f6c:	00b10463          	beq	sp,a1,80002f74 <inst_279>
    80002f70:	8b4fd06f          	j	80000024 <rvtest_error>

0000000080002f74 <inst_279>:
    80002f74:	00000537          	lui	a0,0x0
    80002f78:	fff50513          	addi	a0,a0,-1
    80002f7c:	00b51513          	slli	a0,a0,0xb
    80002f80:	25750513          	addi	a0,a0,599
    80002f84:	00b51513          	slli	a0,a0,0xb
    80002f88:	6c350513          	addi	a0,a0,1731
    80002f8c:	00a51513          	slli	a0,a0,0xa
    80002f90:	0cd50513          	addi	a0,a0,205
    80002f94:	55457593          	andi	a1,a0,1364
    80002f98:	00b0b423          	sd	a1,8(ra)
    80002f9c:	44400113          	li	sp,1092
    80002fa0:	00b10463          	beq	sp,a1,80002fa8 <inst_280>
    80002fa4:	880fd06f          	j	80000024 <rvtest_error>

0000000080002fa8 <inst_280>:
    80002fa8:	00000537          	lui	a0,0x0
    80002fac:	fff50513          	addi	a0,a0,-1
    80002fb0:	00b51513          	slli	a0,a0,0xb
    80002fb4:	25750513          	addi	a0,a0,599
    80002fb8:	00b51513          	slli	a0,a0,0xb
    80002fbc:	6c350513          	addi	a0,a0,1731
    80002fc0:	00a51513          	slli	a0,a0,0xa
    80002fc4:	0cd50513          	addi	a0,a0,205
    80002fc8:	00057593          	andi	a1,a0,0
    80002fcc:	00b0b823          	sd	a1,16(ra)
    80002fd0:	00000113          	li	sp,0
    80002fd4:	00b10463          	beq	sp,a1,80002fdc <inst_281>
    80002fd8:	84cfd06f          	j	80000024 <rvtest_error>

0000000080002fdc <inst_281>:
    80002fdc:	00000537          	lui	a0,0x0
    80002fe0:	fff50513          	addi	a0,a0,-1
    80002fe4:	00b51513          	slli	a0,a0,0xb
    80002fe8:	25750513          	addi	a0,a0,599
    80002fec:	00b51513          	slli	a0,a0,0xb
    80002ff0:	6c350513          	addi	a0,a0,1731
    80002ff4:	00a51513          	slli	a0,a0,0xa
    80002ff8:	0cd50513          	addi	a0,a0,205
    80002ffc:	00457593          	andi	a1,a0,4
    80003000:	00b0bc23          	sd	a1,24(ra)
    80003004:	00400113          	li	sp,4
    80003008:	00b10463          	beq	sp,a1,80003010 <inst_282>
    8000300c:	818fd06f          	j	80000024 <rvtest_error>

0000000080003010 <inst_282>:
    80003010:	00000537          	lui	a0,0x0
    80003014:	fff50513          	addi	a0,a0,-1
    80003018:	00b51513          	slli	a0,a0,0xb
    8000301c:	25750513          	addi	a0,a0,599
    80003020:	00b51513          	slli	a0,a0,0xb
    80003024:	6c350513          	addi	a0,a0,1731
    80003028:	00a51513          	slli	a0,a0,0xa
    8000302c:	0cd50513          	addi	a0,a0,205
    80003030:	33257593          	andi	a1,a0,818
    80003034:	02b0b023          	sd	a1,32(ra)
    80003038:	00000113          	li	sp,0
    8000303c:	00b10463          	beq	sp,a1,80003044 <inst_283>
    80003040:	fe5fc06f          	j	80000024 <rvtest_error>

0000000080003044 <inst_283>:
    80003044:	00000537          	lui	a0,0x0
    80003048:	fff50513          	addi	a0,a0,-1
    8000304c:	00b51513          	slli	a0,a0,0xb
    80003050:	25750513          	addi	a0,a0,599
    80003054:	00b51513          	slli	a0,a0,0xb
    80003058:	6c350513          	addi	a0,a0,1731
    8000305c:	00a51513          	slli	a0,a0,0xa
    80003060:	0cd50513          	addi	a0,a0,205
    80003064:	66557593          	andi	a1,a0,1637
    80003068:	02b0b423          	sd	a1,40(ra)
    8000306c:	44500113          	li	sp,1093
    80003070:	00b10463          	beq	sp,a1,80003078 <inst_284>
    80003074:	fb1fc06f          	j	80000024 <rvtest_error>

0000000080003078 <inst_284>:
    80003078:	00000537          	lui	a0,0x0
    8000307c:	fff50513          	addi	a0,a0,-1
    80003080:	00b51513          	slli	a0,a0,0xb
    80003084:	25750513          	addi	a0,a0,599
    80003088:	00b51513          	slli	a0,a0,0xb
    8000308c:	6c350513          	addi	a0,a0,1731
    80003090:	00a51513          	slli	a0,a0,0xa
    80003094:	0cd50513          	addi	a0,a0,205
    80003098:	02c57593          	andi	a1,a0,44
    8000309c:	02b0b823          	sd	a1,48(ra)
    800030a0:	00c00113          	li	sp,12
    800030a4:	00b10463          	beq	sp,a1,800030ac <inst_285>
    800030a8:	f7dfc06f          	j	80000024 <rvtest_error>

00000000800030ac <inst_285>:
    800030ac:	00000537          	lui	a0,0x0
    800030b0:	fff50513          	addi	a0,a0,-1
    800030b4:	00b51513          	slli	a0,a0,0xb
    800030b8:	25750513          	addi	a0,a0,599
    800030bc:	00b51513          	slli	a0,a0,0xb
    800030c0:	6c350513          	addi	a0,a0,1731
    800030c4:	00a51513          	slli	a0,a0,0xa
    800030c8:	0cd50513          	addi	a0,a0,205
    800030cc:	55657593          	andi	a1,a0,1366
    800030d0:	02b0bc23          	sd	a1,56(ra)
    800030d4:	44400113          	li	sp,1092
    800030d8:	00b10463          	beq	sp,a1,800030e0 <inst_286>
    800030dc:	f49fc06f          	j	80000024 <rvtest_error>

00000000800030e0 <inst_286>:
    800030e0:	00000537          	lui	a0,0x0
    800030e4:	fff50513          	addi	a0,a0,-1
    800030e8:	00b51513          	slli	a0,a0,0xb
    800030ec:	25750513          	addi	a0,a0,599
    800030f0:	00b51513          	slli	a0,a0,0xb
    800030f4:	6c350513          	addi	a0,a0,1731
    800030f8:	00a51513          	slli	a0,a0,0xa
    800030fc:	0cd50513          	addi	a0,a0,205
    80003100:	aab57593          	andi	a1,a0,-1365
    80003104:	04b0b023          	sd	a1,64(ra)
    80003108:	fff4b137          	lui	sp,0xfff4b
    8000310c:	fb11011b          	addiw	sp,sp,-79 # fffffffffff4afb1 <absimm+0xffffffff4523d4e1>
    80003110:	00c11113          	slli	sp,sp,0xc
    80003114:	88910113          	addi	sp,sp,-1911
    80003118:	00b10463          	beq	sp,a1,80003120 <inst_287>
    8000311c:	f09fc06f          	j	80000024 <rvtest_error>

0000000080003120 <inst_287>:
    80003120:	00000537          	lui	a0,0x0
    80003124:	fff50513          	addi	a0,a0,-1
    80003128:	00b51513          	slli	a0,a0,0xb
    8000312c:	25750513          	addi	a0,a0,599
    80003130:	00b51513          	slli	a0,a0,0xb
    80003134:	6c350513          	addi	a0,a0,1731
    80003138:	00a51513          	slli	a0,a0,0xa
    8000313c:	0cd50513          	addi	a0,a0,205
    80003140:	00657593          	andi	a1,a0,6
    80003144:	04b0b423          	sd	a1,72(ra)
    80003148:	00400113          	li	sp,4
    8000314c:	00b10463          	beq	sp,a1,80003154 <inst_288>
    80003150:	ed5fc06f          	j	80000024 <rvtest_error>

0000000080003154 <inst_288>:
    80003154:	00000537          	lui	a0,0x0
    80003158:	fff50513          	addi	a0,a0,-1
    8000315c:	00b51513          	slli	a0,a0,0xb
    80003160:	25750513          	addi	a0,a0,599
    80003164:	00b51513          	slli	a0,a0,0xb
    80003168:	6c350513          	addi	a0,a0,1731
    8000316c:	00a51513          	slli	a0,a0,0xa
    80003170:	0cd50513          	addi	a0,a0,205
    80003174:	33457593          	andi	a1,a0,820
    80003178:	04b0b823          	sd	a1,80(ra)
    8000317c:	00400113          	li	sp,4
    80003180:	00b10463          	beq	sp,a1,80003188 <inst_289>
    80003184:	ea1fc06f          	j	80000024 <rvtest_error>

0000000080003188 <inst_289>:
    80003188:	00000537          	lui	a0,0x0
    8000318c:	fff50513          	addi	a0,a0,-1
    80003190:	00b51513          	slli	a0,a0,0xb
    80003194:	25750513          	addi	a0,a0,599
    80003198:	00b51513          	slli	a0,a0,0xb
    8000319c:	6c350513          	addi	a0,a0,1731
    800031a0:	00a51513          	slli	a0,a0,0xa
    800031a4:	0cd50513          	addi	a0,a0,205
    800031a8:	66757593          	andi	a1,a0,1639
    800031ac:	04b0bc23          	sd	a1,88(ra)
    800031b0:	44500113          	li	sp,1093
    800031b4:	00b10463          	beq	sp,a1,800031bc <inst_290>
    800031b8:	e6dfc06f          	j	80000024 <rvtest_error>

00000000800031bc <inst_290>:
    800031bc:	00000537          	lui	a0,0x0
    800031c0:	fff50513          	addi	a0,a0,-1
    800031c4:	00b51513          	slli	a0,a0,0xb
    800031c8:	25750513          	addi	a0,a0,599
    800031cc:	00b51513          	slli	a0,a0,0xb
    800031d0:	6c350513          	addi	a0,a0,1731
    800031d4:	00a51513          	slli	a0,a0,0xa
    800031d8:	0cd50513          	addi	a0,a0,205
    800031dc:	fd457593          	andi	a1,a0,-44
    800031e0:	06b0b023          	sd	a1,96(ra)
    800031e4:	fff4b137          	lui	sp,0xfff4b
    800031e8:	fb11011b          	addiw	sp,sp,-79 # fffffffffff4afb1 <absimm+0xffffffff4523d4e1>
    800031ec:	00c11113          	slli	sp,sp,0xc
    800031f0:	cc410113          	addi	sp,sp,-828
    800031f4:	00b10463          	beq	sp,a1,800031fc <inst_291>
    800031f8:	e2dfc06f          	j	80000024 <rvtest_error>

00000000800031fc <inst_291>:
    800031fc:	00000537          	lui	a0,0x0
    80003200:	fff50513          	addi	a0,a0,-1
    80003204:	00b51513          	slli	a0,a0,0xb
    80003208:	25750513          	addi	a0,a0,599
    8000320c:	00b51513          	slli	a0,a0,0xb
    80003210:	6c350513          	addi	a0,a0,1731
    80003214:	00a51513          	slli	a0,a0,0xa
    80003218:	0cd50513          	addi	a0,a0,205
    8000321c:	02e57593          	andi	a1,a0,46
    80003220:	06b0b423          	sd	a1,104(ra)
    80003224:	00c00113          	li	sp,12
    80003228:	00b10463          	beq	sp,a1,80003230 <inst_292>
    8000322c:	df9fc06f          	j	80000024 <rvtest_error>

0000000080003230 <inst_292>:
    80003230:	00000537          	lui	a0,0x0
    80003234:	00050513          	mv	a0,a0
    80003238:	00b51513          	slli	a0,a0,0xb
    8000323c:	5a850513          	addi	a0,a0,1448 # 5a8 <offset+0x300>
    80003240:	00b51513          	slli	a0,a0,0xb
    80003244:	13c50513          	addi	a0,a0,316
    80003248:	00a51513          	slli	a0,a0,0xa
    8000324c:	33350513          	addi	a0,a0,819
    80003250:	00357593          	andi	a1,a0,3
    80003254:	06b0b823          	sd	a1,112(ra)
    80003258:	00300113          	li	sp,3
    8000325c:	00b10463          	beq	sp,a1,80003264 <inst_293>
    80003260:	dc5fc06f          	j	80000024 <rvtest_error>

0000000080003264 <inst_293>:
    80003264:	00000537          	lui	a0,0x0
    80003268:	00050513          	mv	a0,a0
    8000326c:	00b51513          	slli	a0,a0,0xb
    80003270:	5a850513          	addi	a0,a0,1448 # 5a8 <offset+0x300>
    80003274:	00b51513          	slli	a0,a0,0xb
    80003278:	13c50513          	addi	a0,a0,316
    8000327c:	00a51513          	slli	a0,a0,0xa
    80003280:	33350513          	addi	a0,a0,819
    80003284:	55557593          	andi	a1,a0,1365
    80003288:	06b0bc23          	sd	a1,120(ra)
    8000328c:	11100113          	li	sp,273
    80003290:	00b10463          	beq	sp,a1,80003298 <inst_294>
    80003294:	d91fc06f          	j	80000024 <rvtest_error>

0000000080003298 <inst_294>:
    80003298:	00000537          	lui	a0,0x0
    8000329c:	00050513          	mv	a0,a0
    800032a0:	00b51513          	slli	a0,a0,0xb
    800032a4:	5a850513          	addi	a0,a0,1448 # 5a8 <offset+0x300>
    800032a8:	00b51513          	slli	a0,a0,0xb
    800032ac:	13c50513          	addi	a0,a0,316
    800032b0:	00a51513          	slli	a0,a0,0xa
    800032b4:	33350513          	addi	a0,a0,819
    800032b8:	aaa57593          	andi	a1,a0,-1366
    800032bc:	08b0b023          	sd	a1,128(ra)
    800032c0:	000b5137          	lui	sp,0xb5
    800032c4:	04f1011b          	addiw	sp,sp,79 # b504f <offset+0xb4da7>
    800032c8:	00c11113          	slli	sp,sp,0xc
    800032cc:	22210113          	addi	sp,sp,546
    800032d0:	00b10463          	beq	sp,a1,800032d8 <inst_295>
    800032d4:	d51fc06f          	j	80000024 <rvtest_error>

00000000800032d8 <inst_295>:
    800032d8:	00000537          	lui	a0,0x0
    800032dc:	00050513          	mv	a0,a0
    800032e0:	00b51513          	slli	a0,a0,0xb
    800032e4:	5a850513          	addi	a0,a0,1448 # 5a8 <offset+0x300>
    800032e8:	00b51513          	slli	a0,a0,0xb
    800032ec:	13c50513          	addi	a0,a0,316
    800032f0:	00a51513          	slli	a0,a0,0xa
    800032f4:	33350513          	addi	a0,a0,819
    800032f8:	00557593          	andi	a1,a0,5
    800032fc:	08b0b423          	sd	a1,136(ra)
    80003300:	00100113          	li	sp,1
    80003304:	00b10463          	beq	sp,a1,8000330c <inst_296>
    80003308:	d1dfc06f          	j	80000024 <rvtest_error>

000000008000330c <inst_296>:
    8000330c:	00000537          	lui	a0,0x0
    80003310:	00050513          	mv	a0,a0
    80003314:	00b51513          	slli	a0,a0,0xb
    80003318:	5a850513          	addi	a0,a0,1448 # 5a8 <offset+0x300>
    8000331c:	00b51513          	slli	a0,a0,0xb
    80003320:	13c50513          	addi	a0,a0,316
    80003324:	00a51513          	slli	a0,a0,0xa
    80003328:	33350513          	addi	a0,a0,819
    8000332c:	33357593          	andi	a1,a0,819
    80003330:	08b0b823          	sd	a1,144(ra)
    80003334:	33300113          	li	sp,819
    80003338:	00b10463          	beq	sp,a1,80003340 <inst_297>
    8000333c:	ce9fc06f          	j	80000024 <rvtest_error>

0000000080003340 <inst_297>:
    80003340:	00000537          	lui	a0,0x0
    80003344:	00050513          	mv	a0,a0
    80003348:	00b51513          	slli	a0,a0,0xb
    8000334c:	5a850513          	addi	a0,a0,1448 # 5a8 <offset+0x300>
    80003350:	00b51513          	slli	a0,a0,0xb
    80003354:	13c50513          	addi	a0,a0,316
    80003358:	00a51513          	slli	a0,a0,0xa
    8000335c:	33350513          	addi	a0,a0,819
    80003360:	66657593          	andi	a1,a0,1638
    80003364:	08b0bc23          	sd	a1,152(ra)
    80003368:	22200113          	li	sp,546
    8000336c:	00b10463          	beq	sp,a1,80003374 <inst_298>
    80003370:	cb5fc06f          	j	80000024 <rvtest_error>

0000000080003374 <inst_298>:
    80003374:	00000537          	lui	a0,0x0
    80003378:	00050513          	mv	a0,a0
    8000337c:	00b51513          	slli	a0,a0,0xb
    80003380:	5a850513          	addi	a0,a0,1448 # 5a8 <offset+0x300>
    80003384:	00b51513          	slli	a0,a0,0xb
    80003388:	13c50513          	addi	a0,a0,316
    8000338c:	00a51513          	slli	a0,a0,0xa
    80003390:	33350513          	addi	a0,a0,819
    80003394:	fd357593          	andi	a1,a0,-45
    80003398:	0ab0b023          	sd	a1,160(ra)
    8000339c:	000b5137          	lui	sp,0xb5
    800033a0:	04f1011b          	addiw	sp,sp,79 # b504f <offset+0xb4da7>
    800033a4:	00c11113          	slli	sp,sp,0xc
    800033a8:	31310113          	addi	sp,sp,787
    800033ac:	00b10463          	beq	sp,a1,800033b4 <inst_299>
    800033b0:	c75fc06f          	j	80000024 <rvtest_error>

00000000800033b4 <inst_299>:
    800033b4:	00000537          	lui	a0,0x0
    800033b8:	00050513          	mv	a0,a0
    800033bc:	00b51513          	slli	a0,a0,0xb
    800033c0:	5a850513          	addi	a0,a0,1448 # 5a8 <offset+0x300>
    800033c4:	00b51513          	slli	a0,a0,0xb
    800033c8:	13c50513          	addi	a0,a0,316
    800033cc:	00a51513          	slli	a0,a0,0xa
    800033d0:	33350513          	addi	a0,a0,819
    800033d4:	02d57593          	andi	a1,a0,45
    800033d8:	0ab0b423          	sd	a1,168(ra)
    800033dc:	02100113          	li	sp,33
    800033e0:	00b10463          	beq	sp,a1,800033e8 <inst_300>
    800033e4:	c41fc06f          	j	80000024 <rvtest_error>

00000000800033e8 <inst_300>:
    800033e8:	00000537          	lui	a0,0x0
    800033ec:	00050513          	mv	a0,a0
    800033f0:	00b51513          	slli	a0,a0,0xb
    800033f4:	5a850513          	addi	a0,a0,1448 # 5a8 <offset+0x300>
    800033f8:	00b51513          	slli	a0,a0,0xb
    800033fc:	13c50513          	addi	a0,a0,316
    80003400:	00a51513          	slli	a0,a0,0xa
    80003404:	33350513          	addi	a0,a0,819
    80003408:	00257593          	andi	a1,a0,2
    8000340c:	0ab0b823          	sd	a1,176(ra)
    80003410:	00200113          	li	sp,2
    80003414:	00b10463          	beq	sp,a1,8000341c <inst_301>
    80003418:	c0dfc06f          	j	80000024 <rvtest_error>

000000008000341c <inst_301>:
    8000341c:	00000537          	lui	a0,0x0
    80003420:	00050513          	mv	a0,a0
    80003424:	00b51513          	slli	a0,a0,0xb
    80003428:	5a850513          	addi	a0,a0,1448 # 5a8 <offset+0x300>
    8000342c:	00b51513          	slli	a0,a0,0xb
    80003430:	13c50513          	addi	a0,a0,316
    80003434:	00a51513          	slli	a0,a0,0xa
    80003438:	33350513          	addi	a0,a0,819
    8000343c:	55457593          	andi	a1,a0,1364
    80003440:	0ab0bc23          	sd	a1,184(ra)
    80003444:	11000113          	li	sp,272
    80003448:	00b10463          	beq	sp,a1,80003450 <inst_302>
    8000344c:	bd9fc06f          	j	80000024 <rvtest_error>

0000000080003450 <inst_302>:
    80003450:	00000537          	lui	a0,0x0
    80003454:	00050513          	mv	a0,a0
    80003458:	00b51513          	slli	a0,a0,0xb
    8000345c:	5a850513          	addi	a0,a0,1448 # 5a8 <offset+0x300>
    80003460:	00b51513          	slli	a0,a0,0xb
    80003464:	13c50513          	addi	a0,a0,316
    80003468:	00a51513          	slli	a0,a0,0xa
    8000346c:	33350513          	addi	a0,a0,819
    80003470:	00057593          	andi	a1,a0,0
    80003474:	0cb0b023          	sd	a1,192(ra)
    80003478:	00000113          	li	sp,0
    8000347c:	00b10463          	beq	sp,a1,80003484 <inst_303>
    80003480:	ba5fc06f          	j	80000024 <rvtest_error>

0000000080003484 <inst_303>:
    80003484:	00000537          	lui	a0,0x0
    80003488:	00050513          	mv	a0,a0
    8000348c:	00b51513          	slli	a0,a0,0xb
    80003490:	5a850513          	addi	a0,a0,1448 # 5a8 <offset+0x300>
    80003494:	00b51513          	slli	a0,a0,0xb
    80003498:	13c50513          	addi	a0,a0,316
    8000349c:	00a51513          	slli	a0,a0,0xa
    800034a0:	33350513          	addi	a0,a0,819
    800034a4:	00457593          	andi	a1,a0,4
    800034a8:	0cb0b423          	sd	a1,200(ra)
    800034ac:	00000113          	li	sp,0
    800034b0:	00b10463          	beq	sp,a1,800034b8 <inst_304>
    800034b4:	b71fc06f          	j	80000024 <rvtest_error>

00000000800034b8 <inst_304>:
    800034b8:	00000537          	lui	a0,0x0
    800034bc:	00050513          	mv	a0,a0
    800034c0:	00b51513          	slli	a0,a0,0xb
    800034c4:	5a850513          	addi	a0,a0,1448 # 5a8 <offset+0x300>
    800034c8:	00b51513          	slli	a0,a0,0xb
    800034cc:	13c50513          	addi	a0,a0,316
    800034d0:	00a51513          	slli	a0,a0,0xa
    800034d4:	33350513          	addi	a0,a0,819
    800034d8:	33257593          	andi	a1,a0,818
    800034dc:	0cb0b823          	sd	a1,208(ra)
    800034e0:	33200113          	li	sp,818
    800034e4:	00b10463          	beq	sp,a1,800034ec <inst_305>
    800034e8:	b3dfc06f          	j	80000024 <rvtest_error>

00000000800034ec <inst_305>:
    800034ec:	00000537          	lui	a0,0x0
    800034f0:	00050513          	mv	a0,a0
    800034f4:	00b51513          	slli	a0,a0,0xb
    800034f8:	5a850513          	addi	a0,a0,1448 # 5a8 <offset+0x300>
    800034fc:	00b51513          	slli	a0,a0,0xb
    80003500:	13c50513          	addi	a0,a0,316
    80003504:	00a51513          	slli	a0,a0,0xa
    80003508:	33350513          	addi	a0,a0,819
    8000350c:	66557593          	andi	a1,a0,1637
    80003510:	0cb0bc23          	sd	a1,216(ra)
    80003514:	22100113          	li	sp,545
    80003518:	00b10463          	beq	sp,a1,80003520 <inst_306>
    8000351c:	b09fc06f          	j	80000024 <rvtest_error>

0000000080003520 <inst_306>:
    80003520:	00000537          	lui	a0,0x0
    80003524:	00050513          	mv	a0,a0
    80003528:	00b51513          	slli	a0,a0,0xb
    8000352c:	5a850513          	addi	a0,a0,1448 # 5a8 <offset+0x300>
    80003530:	00b51513          	slli	a0,a0,0xb
    80003534:	13c50513          	addi	a0,a0,316
    80003538:	00a51513          	slli	a0,a0,0xa
    8000353c:	33350513          	addi	a0,a0,819
    80003540:	02c57593          	andi	a1,a0,44
    80003544:	0eb0b023          	sd	a1,224(ra)
    80003548:	02000113          	li	sp,32
    8000354c:	00b10463          	beq	sp,a1,80003554 <inst_307>
    80003550:	ad5fc06f          	j	80000024 <rvtest_error>

0000000080003554 <inst_307>:
    80003554:	00000537          	lui	a0,0x0
    80003558:	00050513          	mv	a0,a0
    8000355c:	00b51513          	slli	a0,a0,0xb
    80003560:	5a850513          	addi	a0,a0,1448 # 5a8 <offset+0x300>
    80003564:	00b51513          	slli	a0,a0,0xb
    80003568:	13c50513          	addi	a0,a0,316
    8000356c:	00a51513          	slli	a0,a0,0xa
    80003570:	33350513          	addi	a0,a0,819
    80003574:	55657593          	andi	a1,a0,1366
    80003578:	0eb0b423          	sd	a1,232(ra)
    8000357c:	11200113          	li	sp,274
    80003580:	00b10463          	beq	sp,a1,80003588 <inst_308>
    80003584:	aa1fc06f          	j	80000024 <rvtest_error>

0000000080003588 <inst_308>:
    80003588:	00000537          	lui	a0,0x0
    8000358c:	00050513          	mv	a0,a0
    80003590:	00b51513          	slli	a0,a0,0xb
    80003594:	5a850513          	addi	a0,a0,1448 # 5a8 <offset+0x300>
    80003598:	00b51513          	slli	a0,a0,0xb
    8000359c:	13c50513          	addi	a0,a0,316
    800035a0:	00a51513          	slli	a0,a0,0xa
    800035a4:	33350513          	addi	a0,a0,819
    800035a8:	aab57593          	andi	a1,a0,-1365
    800035ac:	0eb0b823          	sd	a1,240(ra)
    800035b0:	000b5137          	lui	sp,0xb5
    800035b4:	04f1011b          	addiw	sp,sp,79 # b504f <offset+0xb4da7>
    800035b8:	00c11113          	slli	sp,sp,0xc
    800035bc:	22310113          	addi	sp,sp,547
    800035c0:	00b10463          	beq	sp,a1,800035c8 <inst_309>
    800035c4:	a61fc06f          	j	80000024 <rvtest_error>

00000000800035c8 <inst_309>:
    800035c8:	00000537          	lui	a0,0x0
    800035cc:	00050513          	mv	a0,a0
    800035d0:	00b51513          	slli	a0,a0,0xb
    800035d4:	5a850513          	addi	a0,a0,1448 # 5a8 <offset+0x300>
    800035d8:	00b51513          	slli	a0,a0,0xb
    800035dc:	13c50513          	addi	a0,a0,316
    800035e0:	00a51513          	slli	a0,a0,0xa
    800035e4:	33350513          	addi	a0,a0,819
    800035e8:	00657593          	andi	a1,a0,6
    800035ec:	0eb0bc23          	sd	a1,248(ra)
    800035f0:	00200113          	li	sp,2
    800035f4:	00b10463          	beq	sp,a1,800035fc <inst_310>
    800035f8:	a2dfc06f          	j	80000024 <rvtest_error>

00000000800035fc <inst_310>:
    800035fc:	00000537          	lui	a0,0x0
    80003600:	00050513          	mv	a0,a0
    80003604:	00b51513          	slli	a0,a0,0xb
    80003608:	5a850513          	addi	a0,a0,1448 # 5a8 <offset+0x300>
    8000360c:	00b51513          	slli	a0,a0,0xb
    80003610:	13c50513          	addi	a0,a0,316
    80003614:	00a51513          	slli	a0,a0,0xa
    80003618:	33350513          	addi	a0,a0,819
    8000361c:	33457593          	andi	a1,a0,820
    80003620:	10b0b023          	sd	a1,256(ra)
    80003624:	33000113          	li	sp,816
    80003628:	00b10463          	beq	sp,a1,80003630 <inst_311>
    8000362c:	9f9fc06f          	j	80000024 <rvtest_error>

0000000080003630 <inst_311>:
    80003630:	00000537          	lui	a0,0x0
    80003634:	00050513          	mv	a0,a0
    80003638:	00b51513          	slli	a0,a0,0xb
    8000363c:	5a850513          	addi	a0,a0,1448 # 5a8 <offset+0x300>
    80003640:	00b51513          	slli	a0,a0,0xb
    80003644:	13c50513          	addi	a0,a0,316
    80003648:	00a51513          	slli	a0,a0,0xa
    8000364c:	33350513          	addi	a0,a0,819
    80003650:	66757593          	andi	a1,a0,1639
    80003654:	10b0b423          	sd	a1,264(ra)
    80003658:	22300113          	li	sp,547
    8000365c:	00b10463          	beq	sp,a1,80003664 <inst_312>
    80003660:	9c5fc06f          	j	80000024 <rvtest_error>

0000000080003664 <inst_312>:
    80003664:	00000537          	lui	a0,0x0
    80003668:	00050513          	mv	a0,a0
    8000366c:	00b51513          	slli	a0,a0,0xb
    80003670:	5a850513          	addi	a0,a0,1448 # 5a8 <offset+0x300>
    80003674:	00b51513          	slli	a0,a0,0xb
    80003678:	13c50513          	addi	a0,a0,316
    8000367c:	00a51513          	slli	a0,a0,0xa
    80003680:	33350513          	addi	a0,a0,819
    80003684:	fd457593          	andi	a1,a0,-44
    80003688:	10b0b823          	sd	a1,272(ra)
    8000368c:	000b5137          	lui	sp,0xb5
    80003690:	04f1011b          	addiw	sp,sp,79 # b504f <offset+0xb4da7>
    80003694:	00c11113          	slli	sp,sp,0xc
    80003698:	31010113          	addi	sp,sp,784
    8000369c:	00b10463          	beq	sp,a1,800036a4 <inst_313>
    800036a0:	985fc06f          	j	80000024 <rvtest_error>

00000000800036a4 <inst_313>:
    800036a4:	00000537          	lui	a0,0x0
    800036a8:	00050513          	mv	a0,a0
    800036ac:	00b51513          	slli	a0,a0,0xb
    800036b0:	5a850513          	addi	a0,a0,1448 # 5a8 <offset+0x300>
    800036b4:	00b51513          	slli	a0,a0,0xb
    800036b8:	13c50513          	addi	a0,a0,316
    800036bc:	00a51513          	slli	a0,a0,0xa
    800036c0:	33350513          	addi	a0,a0,819
    800036c4:	02e57593          	andi	a1,a0,46
    800036c8:	10b0bc23          	sd	a1,280(ra)
    800036cc:	02200113          	li	sp,34
    800036d0:	00b10463          	beq	sp,a1,800036d8 <inst_314>
    800036d4:	951fc06f          	j	80000024 <rvtest_error>

00000000800036d8 <inst_314>:
    800036d8:	00200513          	li	a0,2
    800036dc:	00357593          	andi	a1,a0,3
    800036e0:	12b0b023          	sd	a1,288(ra)
    800036e4:	00200113          	li	sp,2
    800036e8:	00b10463          	beq	sp,a1,800036f0 <inst_315>
    800036ec:	939fc06f          	j	80000024 <rvtest_error>

00000000800036f0 <inst_315>:
    800036f0:	00200513          	li	a0,2
    800036f4:	55557593          	andi	a1,a0,1365
    800036f8:	12b0b423          	sd	a1,296(ra)
    800036fc:	00000113          	li	sp,0
    80003700:	00b10463          	beq	sp,a1,80003708 <inst_316>
    80003704:	921fc06f          	j	80000024 <rvtest_error>

0000000080003708 <inst_316>:
    80003708:	00200513          	li	a0,2
    8000370c:	aaa57593          	andi	a1,a0,-1366
    80003710:	12b0b823          	sd	a1,304(ra)
    80003714:	00200113          	li	sp,2
    80003718:	00b10463          	beq	sp,a1,80003720 <inst_317>
    8000371c:	909fc06f          	j	80000024 <rvtest_error>

0000000080003720 <inst_317>:
    80003720:	00200513          	li	a0,2
    80003724:	00557593          	andi	a1,a0,5
    80003728:	12b0bc23          	sd	a1,312(ra)
    8000372c:	00000113          	li	sp,0
    80003730:	00b10463          	beq	sp,a1,80003738 <inst_318>
    80003734:	8f1fc06f          	j	80000024 <rvtest_error>

0000000080003738 <inst_318>:
    80003738:	00200513          	li	a0,2
    8000373c:	33357593          	andi	a1,a0,819
    80003740:	14b0b023          	sd	a1,320(ra)
    80003744:	00200113          	li	sp,2
    80003748:	00b10463          	beq	sp,a1,80003750 <inst_319>
    8000374c:	8d9fc06f          	j	80000024 <rvtest_error>

0000000080003750 <inst_319>:
    80003750:	00200513          	li	a0,2
    80003754:	66657593          	andi	a1,a0,1638
    80003758:	14b0b423          	sd	a1,328(ra)
    8000375c:	00200113          	li	sp,2
    80003760:	00b10463          	beq	sp,a1,80003768 <inst_320>
    80003764:	8c1fc06f          	j	80000024 <rvtest_error>

0000000080003768 <inst_320>:
    80003768:	00200513          	li	a0,2
    8000376c:	fd357593          	andi	a1,a0,-45
    80003770:	14b0b823          	sd	a1,336(ra)
    80003774:	00200113          	li	sp,2
    80003778:	00b10463          	beq	sp,a1,80003780 <inst_321>
    8000377c:	8a9fc06f          	j	80000024 <rvtest_error>

0000000080003780 <inst_321>:
    80003780:	00200513          	li	a0,2
    80003784:	02d57593          	andi	a1,a0,45
    80003788:	14b0bc23          	sd	a1,344(ra)
    8000378c:	00000113          	li	sp,0
    80003790:	00b10463          	beq	sp,a1,80003798 <inst_322>
    80003794:	891fc06f          	j	80000024 <rvtest_error>

0000000080003798 <inst_322>:
    80003798:	00200513          	li	a0,2
    8000379c:	00257593          	andi	a1,a0,2
    800037a0:	16b0b023          	sd	a1,352(ra)
    800037a4:	00200113          	li	sp,2
    800037a8:	00b10463          	beq	sp,a1,800037b0 <inst_323>
    800037ac:	879fc06f          	j	80000024 <rvtest_error>

00000000800037b0 <inst_323>:
    800037b0:	00200513          	li	a0,2
    800037b4:	55457593          	andi	a1,a0,1364
    800037b8:	16b0b423          	sd	a1,360(ra)
    800037bc:	00000113          	li	sp,0
    800037c0:	00b10463          	beq	sp,a1,800037c8 <inst_324>
    800037c4:	861fc06f          	j	80000024 <rvtest_error>

00000000800037c8 <inst_324>:
    800037c8:	00200513          	li	a0,2
    800037cc:	00057593          	andi	a1,a0,0
    800037d0:	16b0b823          	sd	a1,368(ra)
    800037d4:	00000113          	li	sp,0
    800037d8:	00b10463          	beq	sp,a1,800037e0 <inst_325>
    800037dc:	849fc06f          	j	80000024 <rvtest_error>

00000000800037e0 <inst_325>:
    800037e0:	00200513          	li	a0,2
    800037e4:	00457593          	andi	a1,a0,4
    800037e8:	16b0bc23          	sd	a1,376(ra)
    800037ec:	00000113          	li	sp,0
    800037f0:	00b10463          	beq	sp,a1,800037f8 <inst_326>
    800037f4:	831fc06f          	j	80000024 <rvtest_error>

00000000800037f8 <inst_326>:
    800037f8:	00200513          	li	a0,2
    800037fc:	33257593          	andi	a1,a0,818
    80003800:	18b0b023          	sd	a1,384(ra)
    80003804:	00200113          	li	sp,2
    80003808:	00b10463          	beq	sp,a1,80003810 <inst_327>
    8000380c:	819fc06f          	j	80000024 <rvtest_error>

0000000080003810 <inst_327>:
    80003810:	00200513          	li	a0,2
    80003814:	66557593          	andi	a1,a0,1637
    80003818:	18b0b423          	sd	a1,392(ra)
    8000381c:	00000113          	li	sp,0
    80003820:	00b10463          	beq	sp,a1,80003828 <inst_328>
    80003824:	801fc06f          	j	80000024 <rvtest_error>

0000000080003828 <inst_328>:
    80003828:	00200513          	li	a0,2
    8000382c:	02c57593          	andi	a1,a0,44
    80003830:	18b0b823          	sd	a1,400(ra)
    80003834:	00000113          	li	sp,0
    80003838:	00b10463          	beq	sp,a1,80003840 <inst_329>
    8000383c:	fe8fc06f          	j	80000024 <rvtest_error>

0000000080003840 <inst_329>:
    80003840:	00200513          	li	a0,2
    80003844:	55657593          	andi	a1,a0,1366
    80003848:	18b0bc23          	sd	a1,408(ra)
    8000384c:	00200113          	li	sp,2
    80003850:	00b10463          	beq	sp,a1,80003858 <inst_330>
    80003854:	fd0fc06f          	j	80000024 <rvtest_error>

0000000080003858 <inst_330>:
    80003858:	00200513          	li	a0,2
    8000385c:	00657593          	andi	a1,a0,6
    80003860:	1ab0b023          	sd	a1,416(ra)
    80003864:	00200113          	li	sp,2
    80003868:	00b10463          	beq	sp,a1,80003870 <inst_331>
    8000386c:	fb8fc06f          	j	80000024 <rvtest_error>

0000000080003870 <inst_331>:
    80003870:	00200513          	li	a0,2
    80003874:	33457593          	andi	a1,a0,820
    80003878:	1ab0b423          	sd	a1,424(ra)
    8000387c:	00000113          	li	sp,0
    80003880:	00b10463          	beq	sp,a1,80003888 <inst_332>
    80003884:	fa0fc06f          	j	80000024 <rvtest_error>

0000000080003888 <inst_332>:
    80003888:	00200513          	li	a0,2
    8000388c:	66757593          	andi	a1,a0,1639
    80003890:	1ab0b823          	sd	a1,432(ra)
    80003894:	00200113          	li	sp,2
    80003898:	00b10463          	beq	sp,a1,800038a0 <inst_333>
    8000389c:	f88fc06f          	j	80000024 <rvtest_error>

00000000800038a0 <inst_333>:
    800038a0:	00200513          	li	a0,2
    800038a4:	fd457593          	andi	a1,a0,-44
    800038a8:	1ab0bc23          	sd	a1,440(ra)
    800038ac:	00000113          	li	sp,0
    800038b0:	00b10463          	beq	sp,a1,800038b8 <inst_334>
    800038b4:	f70fc06f          	j	80000024 <rvtest_error>

00000000800038b8 <inst_334>:
    800038b8:	00200513          	li	a0,2
    800038bc:	02e57593          	andi	a1,a0,46
    800038c0:	1cb0b023          	sd	a1,448(ra)
    800038c4:	00200113          	li	sp,2
    800038c8:	00b10463          	beq	sp,a1,800038d0 <inst_335>
    800038cc:	f58fc06f          	j	80000024 <rvtest_error>

00000000800038d0 <inst_335>:
    800038d0:	55555537          	lui	a0,0x55555
    800038d4:	55550513          	addi	a0,a0,1365 # 55555555 <absimmsh+0x49a847a8>
    800038d8:	00b51513          	slli	a0,a0,0xb
    800038dc:	2aa50513          	addi	a0,a0,682
    800038e0:	00b51513          	slli	a0,a0,0xb
    800038e4:	55550513          	addi	a0,a0,1365
    800038e8:	00a51513          	slli	a0,a0,0xa
    800038ec:	15450513          	addi	a0,a0,340
    800038f0:	00357593          	andi	a1,a0,3
    800038f4:	1cb0b423          	sd	a1,456(ra)
    800038f8:	00000113          	li	sp,0
    800038fc:	00b10463          	beq	sp,a1,80003904 <inst_336>
    80003900:	f24fc06f          	j	80000024 <rvtest_error>

0000000080003904 <inst_336>:
    80003904:	55555537          	lui	a0,0x55555
    80003908:	55550513          	addi	a0,a0,1365 # 55555555 <absimmsh+0x49a847a8>
    8000390c:	00b51513          	slli	a0,a0,0xb
    80003910:	2aa50513          	addi	a0,a0,682
    80003914:	00b51513          	slli	a0,a0,0xb
    80003918:	55550513          	addi	a0,a0,1365
    8000391c:	00a51513          	slli	a0,a0,0xa
    80003920:	15450513          	addi	a0,a0,340
    80003924:	55557593          	andi	a1,a0,1365
    80003928:	1cb0b823          	sd	a1,464(ra)
    8000392c:	55400113          	li	sp,1364
    80003930:	00b10463          	beq	sp,a1,80003938 <inst_337>
    80003934:	ef0fc06f          	j	80000024 <rvtest_error>

0000000080003938 <inst_337>:
    80003938:	55555537          	lui	a0,0x55555
    8000393c:	55550513          	addi	a0,a0,1365 # 55555555 <absimmsh+0x49a847a8>
    80003940:	00b51513          	slli	a0,a0,0xb
    80003944:	2aa50513          	addi	a0,a0,682
    80003948:	00b51513          	slli	a0,a0,0xb
    8000394c:	55550513          	addi	a0,a0,1365
    80003950:	00a51513          	slli	a0,a0,0xa
    80003954:	15450513          	addi	a0,a0,340
    80003958:	aaa57593          	andi	a1,a0,-1366
    8000395c:	1cb0bc23          	sd	a1,472(ra)
    80003960:	05555137          	lui	sp,0x5555
    80003964:	5551011b          	addiw	sp,sp,1365 # 5555555 <offset+0x55552ad>
    80003968:	00c11113          	slli	sp,sp,0xc
    8000396c:	55510113          	addi	sp,sp,1365
    80003970:	00c11113          	slli	sp,sp,0xc
    80003974:	55510113          	addi	sp,sp,1365
    80003978:	00c11113          	slli	sp,sp,0xc
    8000397c:	00b10463          	beq	sp,a1,80003984 <inst_338>
    80003980:	ea4fc06f          	j	80000024 <rvtest_error>

0000000080003984 <inst_338>:
    80003984:	55555537          	lui	a0,0x55555
    80003988:	55550513          	addi	a0,a0,1365 # 55555555 <absimmsh+0x49a847a8>
    8000398c:	00b51513          	slli	a0,a0,0xb
    80003990:	2aa50513          	addi	a0,a0,682
    80003994:	00b51513          	slli	a0,a0,0xb
    80003998:	55550513          	addi	a0,a0,1365
    8000399c:	00a51513          	slli	a0,a0,0xa
    800039a0:	15450513          	addi	a0,a0,340
    800039a4:	00557593          	andi	a1,a0,5
    800039a8:	1eb0b023          	sd	a1,480(ra)
    800039ac:	00400113          	li	sp,4
    800039b0:	00b10463          	beq	sp,a1,800039b8 <inst_339>
    800039b4:	e70fc06f          	j	80000024 <rvtest_error>

00000000800039b8 <inst_339>:
    800039b8:	55555537          	lui	a0,0x55555
    800039bc:	55550513          	addi	a0,a0,1365 # 55555555 <absimmsh+0x49a847a8>
    800039c0:	00b51513          	slli	a0,a0,0xb
    800039c4:	2aa50513          	addi	a0,a0,682
    800039c8:	00b51513          	slli	a0,a0,0xb
    800039cc:	55550513          	addi	a0,a0,1365
    800039d0:	00a51513          	slli	a0,a0,0xa
    800039d4:	15450513          	addi	a0,a0,340
    800039d8:	33357593          	andi	a1,a0,819
    800039dc:	1eb0b423          	sd	a1,488(ra)
    800039e0:	11000113          	li	sp,272
    800039e4:	00b10463          	beq	sp,a1,800039ec <inst_340>
    800039e8:	e3cfc06f          	j	80000024 <rvtest_error>

00000000800039ec <inst_340>:
    800039ec:	55555537          	lui	a0,0x55555
    800039f0:	55550513          	addi	a0,a0,1365 # 55555555 <absimmsh+0x49a847a8>
    800039f4:	00b51513          	slli	a0,a0,0xb
    800039f8:	2aa50513          	addi	a0,a0,682
    800039fc:	00b51513          	slli	a0,a0,0xb
    80003a00:	55550513          	addi	a0,a0,1365
    80003a04:	00a51513          	slli	a0,a0,0xa
    80003a08:	15450513          	addi	a0,a0,340
    80003a0c:	66657593          	andi	a1,a0,1638
    80003a10:	1eb0b823          	sd	a1,496(ra)
    80003a14:	44400113          	li	sp,1092
    80003a18:	00b10463          	beq	sp,a1,80003a20 <inst_341>
    80003a1c:	e08fc06f          	j	80000024 <rvtest_error>

0000000080003a20 <inst_341>:
    80003a20:	55555537          	lui	a0,0x55555
    80003a24:	55550513          	addi	a0,a0,1365 # 55555555 <absimmsh+0x49a847a8>
    80003a28:	00b51513          	slli	a0,a0,0xb
    80003a2c:	2aa50513          	addi	a0,a0,682
    80003a30:	00b51513          	slli	a0,a0,0xb
    80003a34:	55550513          	addi	a0,a0,1365
    80003a38:	00a51513          	slli	a0,a0,0xa
    80003a3c:	15450513          	addi	a0,a0,340
    80003a40:	fd357593          	andi	a1,a0,-45
    80003a44:	1eb0bc23          	sd	a1,504(ra)
    80003a48:	05555137          	lui	sp,0x5555
    80003a4c:	5551011b          	addiw	sp,sp,1365 # 5555555 <offset+0x55552ad>
    80003a50:	00c11113          	slli	sp,sp,0xc
    80003a54:	55510113          	addi	sp,sp,1365
    80003a58:	00c11113          	slli	sp,sp,0xc
    80003a5c:	55510113          	addi	sp,sp,1365
    80003a60:	00c11113          	slli	sp,sp,0xc
    80003a64:	55010113          	addi	sp,sp,1360
    80003a68:	00b10463          	beq	sp,a1,80003a70 <inst_342>
    80003a6c:	db8fc06f          	j	80000024 <rvtest_error>

0000000080003a70 <inst_342>:
    80003a70:	55555537          	lui	a0,0x55555
    80003a74:	55550513          	addi	a0,a0,1365 # 55555555 <absimmsh+0x49a847a8>
    80003a78:	00b51513          	slli	a0,a0,0xb
    80003a7c:	2aa50513          	addi	a0,a0,682
    80003a80:	00b51513          	slli	a0,a0,0xb
    80003a84:	55550513          	addi	a0,a0,1365
    80003a88:	00a51513          	slli	a0,a0,0xa
    80003a8c:	15450513          	addi	a0,a0,340
    80003a90:	02d57593          	andi	a1,a0,45
    80003a94:	20b0b023          	sd	a1,512(ra)
    80003a98:	00400113          	li	sp,4
    80003a9c:	00b10463          	beq	sp,a1,80003aa4 <inst_343>
    80003aa0:	d84fc06f          	j	80000024 <rvtest_error>

0000000080003aa4 <inst_343>:
    80003aa4:	55555537          	lui	a0,0x55555
    80003aa8:	55550513          	addi	a0,a0,1365 # 55555555 <absimmsh+0x49a847a8>
    80003aac:	00b51513          	slli	a0,a0,0xb
    80003ab0:	2aa50513          	addi	a0,a0,682
    80003ab4:	00b51513          	slli	a0,a0,0xb
    80003ab8:	55550513          	addi	a0,a0,1365
    80003abc:	00a51513          	slli	a0,a0,0xa
    80003ac0:	15450513          	addi	a0,a0,340
    80003ac4:	00257593          	andi	a1,a0,2
    80003ac8:	20b0b423          	sd	a1,520(ra)
    80003acc:	00000113          	li	sp,0
    80003ad0:	00b10463          	beq	sp,a1,80003ad8 <inst_344>
    80003ad4:	d50fc06f          	j	80000024 <rvtest_error>

0000000080003ad8 <inst_344>:
    80003ad8:	55555537          	lui	a0,0x55555
    80003adc:	55550513          	addi	a0,a0,1365 # 55555555 <absimmsh+0x49a847a8>
    80003ae0:	00b51513          	slli	a0,a0,0xb
    80003ae4:	2aa50513          	addi	a0,a0,682
    80003ae8:	00b51513          	slli	a0,a0,0xb
    80003aec:	55550513          	addi	a0,a0,1365
    80003af0:	00a51513          	slli	a0,a0,0xa
    80003af4:	15450513          	addi	a0,a0,340
    80003af8:	55457593          	andi	a1,a0,1364
    80003afc:	20b0b823          	sd	a1,528(ra)
    80003b00:	55400113          	li	sp,1364
    80003b04:	00b10463          	beq	sp,a1,80003b0c <inst_345>
    80003b08:	d1cfc06f          	j	80000024 <rvtest_error>

0000000080003b0c <inst_345>:
    80003b0c:	55555537          	lui	a0,0x55555
    80003b10:	55550513          	addi	a0,a0,1365 # 55555555 <absimmsh+0x49a847a8>
    80003b14:	00b51513          	slli	a0,a0,0xb
    80003b18:	2aa50513          	addi	a0,a0,682
    80003b1c:	00b51513          	slli	a0,a0,0xb
    80003b20:	55550513          	addi	a0,a0,1365
    80003b24:	00a51513          	slli	a0,a0,0xa
    80003b28:	15450513          	addi	a0,a0,340
    80003b2c:	00057593          	andi	a1,a0,0
    80003b30:	20b0bc23          	sd	a1,536(ra)
    80003b34:	00000113          	li	sp,0
    80003b38:	00b10463          	beq	sp,a1,80003b40 <inst_346>
    80003b3c:	ce8fc06f          	j	80000024 <rvtest_error>

0000000080003b40 <inst_346>:
    80003b40:	55555537          	lui	a0,0x55555
    80003b44:	55550513          	addi	a0,a0,1365 # 55555555 <absimmsh+0x49a847a8>
    80003b48:	00b51513          	slli	a0,a0,0xb
    80003b4c:	2aa50513          	addi	a0,a0,682
    80003b50:	00b51513          	slli	a0,a0,0xb
    80003b54:	55550513          	addi	a0,a0,1365
    80003b58:	00a51513          	slli	a0,a0,0xa
    80003b5c:	15450513          	addi	a0,a0,340
    80003b60:	00457593          	andi	a1,a0,4
    80003b64:	22b0b023          	sd	a1,544(ra)
    80003b68:	00400113          	li	sp,4
    80003b6c:	00b10463          	beq	sp,a1,80003b74 <inst_347>
    80003b70:	cb4fc06f          	j	80000024 <rvtest_error>

0000000080003b74 <inst_347>:
    80003b74:	55555537          	lui	a0,0x55555
    80003b78:	55550513          	addi	a0,a0,1365 # 55555555 <absimmsh+0x49a847a8>
    80003b7c:	00b51513          	slli	a0,a0,0xb
    80003b80:	2aa50513          	addi	a0,a0,682
    80003b84:	00b51513          	slli	a0,a0,0xb
    80003b88:	55550513          	addi	a0,a0,1365
    80003b8c:	00a51513          	slli	a0,a0,0xa
    80003b90:	15450513          	addi	a0,a0,340
    80003b94:	33257593          	andi	a1,a0,818
    80003b98:	22b0b423          	sd	a1,552(ra)
    80003b9c:	11000113          	li	sp,272
    80003ba0:	00b10463          	beq	sp,a1,80003ba8 <inst_348>
    80003ba4:	c80fc06f          	j	80000024 <rvtest_error>

0000000080003ba8 <inst_348>:
    80003ba8:	55555537          	lui	a0,0x55555
    80003bac:	55550513          	addi	a0,a0,1365 # 55555555 <absimmsh+0x49a847a8>
    80003bb0:	00b51513          	slli	a0,a0,0xb
    80003bb4:	2aa50513          	addi	a0,a0,682
    80003bb8:	00b51513          	slli	a0,a0,0xb
    80003bbc:	55550513          	addi	a0,a0,1365
    80003bc0:	00a51513          	slli	a0,a0,0xa
    80003bc4:	15450513          	addi	a0,a0,340
    80003bc8:	66557593          	andi	a1,a0,1637
    80003bcc:	22b0b823          	sd	a1,560(ra)
    80003bd0:	44400113          	li	sp,1092
    80003bd4:	00b10463          	beq	sp,a1,80003bdc <inst_349>
    80003bd8:	c4cfc06f          	j	80000024 <rvtest_error>

0000000080003bdc <inst_349>:
    80003bdc:	55555537          	lui	a0,0x55555
    80003be0:	55550513          	addi	a0,a0,1365 # 55555555 <absimmsh+0x49a847a8>
    80003be4:	00b51513          	slli	a0,a0,0xb
    80003be8:	2aa50513          	addi	a0,a0,682
    80003bec:	00b51513          	slli	a0,a0,0xb
    80003bf0:	55550513          	addi	a0,a0,1365
    80003bf4:	00a51513          	slli	a0,a0,0xa
    80003bf8:	15450513          	addi	a0,a0,340
    80003bfc:	02c57593          	andi	a1,a0,44
    80003c00:	22b0bc23          	sd	a1,568(ra)
    80003c04:	00400113          	li	sp,4
    80003c08:	00b10463          	beq	sp,a1,80003c10 <inst_350>
    80003c0c:	c18fc06f          	j	80000024 <rvtest_error>

0000000080003c10 <inst_350>:
    80003c10:	55555537          	lui	a0,0x55555
    80003c14:	55550513          	addi	a0,a0,1365 # 55555555 <absimmsh+0x49a847a8>
    80003c18:	00b51513          	slli	a0,a0,0xb
    80003c1c:	2aa50513          	addi	a0,a0,682
    80003c20:	00b51513          	slli	a0,a0,0xb
    80003c24:	55550513          	addi	a0,a0,1365
    80003c28:	00a51513          	slli	a0,a0,0xa
    80003c2c:	15450513          	addi	a0,a0,340
    80003c30:	55657593          	andi	a1,a0,1366
    80003c34:	24b0b023          	sd	a1,576(ra)
    80003c38:	55400113          	li	sp,1364
    80003c3c:	00b10463          	beq	sp,a1,80003c44 <inst_351>
    80003c40:	be4fc06f          	j	80000024 <rvtest_error>

0000000080003c44 <inst_351>:
    80003c44:	55555537          	lui	a0,0x55555
    80003c48:	55550513          	addi	a0,a0,1365 # 55555555 <absimmsh+0x49a847a8>
    80003c4c:	00b51513          	slli	a0,a0,0xb
    80003c50:	2aa50513          	addi	a0,a0,682
    80003c54:	00b51513          	slli	a0,a0,0xb
    80003c58:	55550513          	addi	a0,a0,1365
    80003c5c:	00a51513          	slli	a0,a0,0xa
    80003c60:	15450513          	addi	a0,a0,340
    80003c64:	aab57593          	andi	a1,a0,-1365
    80003c68:	24b0b423          	sd	a1,584(ra)
    80003c6c:	05555137          	lui	sp,0x5555
    80003c70:	5551011b          	addiw	sp,sp,1365 # 5555555 <offset+0x55552ad>
    80003c74:	00c11113          	slli	sp,sp,0xc
    80003c78:	55510113          	addi	sp,sp,1365
    80003c7c:	00c11113          	slli	sp,sp,0xc
    80003c80:	55510113          	addi	sp,sp,1365
    80003c84:	00c11113          	slli	sp,sp,0xc
    80003c88:	00b10463          	beq	sp,a1,80003c90 <inst_352>
    80003c8c:	b98fc06f          	j	80000024 <rvtest_error>

0000000080003c90 <inst_352>:
    80003c90:	55555537          	lui	a0,0x55555
    80003c94:	55550513          	addi	a0,a0,1365 # 55555555 <absimmsh+0x49a847a8>
    80003c98:	00b51513          	slli	a0,a0,0xb
    80003c9c:	2aa50513          	addi	a0,a0,682
    80003ca0:	00b51513          	slli	a0,a0,0xb
    80003ca4:	55550513          	addi	a0,a0,1365
    80003ca8:	00a51513          	slli	a0,a0,0xa
    80003cac:	15450513          	addi	a0,a0,340
    80003cb0:	00657593          	andi	a1,a0,6
    80003cb4:	24b0b823          	sd	a1,592(ra)
    80003cb8:	00400113          	li	sp,4
    80003cbc:	00b10463          	beq	sp,a1,80003cc4 <inst_353>
    80003cc0:	b64fc06f          	j	80000024 <rvtest_error>

0000000080003cc4 <inst_353>:
    80003cc4:	55555537          	lui	a0,0x55555
    80003cc8:	55550513          	addi	a0,a0,1365 # 55555555 <absimmsh+0x49a847a8>
    80003ccc:	00b51513          	slli	a0,a0,0xb
    80003cd0:	2aa50513          	addi	a0,a0,682
    80003cd4:	00b51513          	slli	a0,a0,0xb
    80003cd8:	55550513          	addi	a0,a0,1365
    80003cdc:	00a51513          	slli	a0,a0,0xa
    80003ce0:	15450513          	addi	a0,a0,340
    80003ce4:	33457593          	andi	a1,a0,820
    80003ce8:	24b0bc23          	sd	a1,600(ra)
    80003cec:	11400113          	li	sp,276
    80003cf0:	00b10463          	beq	sp,a1,80003cf8 <inst_354>
    80003cf4:	b30fc06f          	j	80000024 <rvtest_error>

0000000080003cf8 <inst_354>:
    80003cf8:	55555537          	lui	a0,0x55555
    80003cfc:	55550513          	addi	a0,a0,1365 # 55555555 <absimmsh+0x49a847a8>
    80003d00:	00b51513          	slli	a0,a0,0xb
    80003d04:	2aa50513          	addi	a0,a0,682
    80003d08:	00b51513          	slli	a0,a0,0xb
    80003d0c:	55550513          	addi	a0,a0,1365
    80003d10:	00a51513          	slli	a0,a0,0xa
    80003d14:	15450513          	addi	a0,a0,340
    80003d18:	66757593          	andi	a1,a0,1639
    80003d1c:	26b0b023          	sd	a1,608(ra)
    80003d20:	44400113          	li	sp,1092
    80003d24:	00b10463          	beq	sp,a1,80003d2c <inst_355>
    80003d28:	afcfc06f          	j	80000024 <rvtest_error>

0000000080003d2c <inst_355>:
    80003d2c:	55555537          	lui	a0,0x55555
    80003d30:	55550513          	addi	a0,a0,1365 # 55555555 <absimmsh+0x49a847a8>
    80003d34:	00b51513          	slli	a0,a0,0xb
    80003d38:	2aa50513          	addi	a0,a0,682
    80003d3c:	00b51513          	slli	a0,a0,0xb
    80003d40:	55550513          	addi	a0,a0,1365
    80003d44:	00a51513          	slli	a0,a0,0xa
    80003d48:	15450513          	addi	a0,a0,340
    80003d4c:	fd457593          	andi	a1,a0,-44
    80003d50:	26b0b423          	sd	a1,616(ra)
    80003d54:	05555137          	lui	sp,0x5555
    80003d58:	5551011b          	addiw	sp,sp,1365 # 5555555 <offset+0x55552ad>
    80003d5c:	00c11113          	slli	sp,sp,0xc
    80003d60:	55510113          	addi	sp,sp,1365
    80003d64:	00c11113          	slli	sp,sp,0xc
    80003d68:	55510113          	addi	sp,sp,1365
    80003d6c:	00c11113          	slli	sp,sp,0xc
    80003d70:	55410113          	addi	sp,sp,1364
    80003d74:	00b10463          	beq	sp,a1,80003d7c <inst_356>
    80003d78:	aacfc06f          	j	80000024 <rvtest_error>

0000000080003d7c <inst_356>:
    80003d7c:	55555537          	lui	a0,0x55555
    80003d80:	55550513          	addi	a0,a0,1365 # 55555555 <absimmsh+0x49a847a8>
    80003d84:	00b51513          	slli	a0,a0,0xb
    80003d88:	2aa50513          	addi	a0,a0,682
    80003d8c:	00b51513          	slli	a0,a0,0xb
    80003d90:	55550513          	addi	a0,a0,1365
    80003d94:	00a51513          	slli	a0,a0,0xa
    80003d98:	15450513          	addi	a0,a0,340
    80003d9c:	02e57593          	andi	a1,a0,46
    80003da0:	26b0b823          	sd	a1,624(ra)
    80003da4:	00400113          	li	sp,4
    80003da8:	00b10463          	beq	sp,a1,80003db0 <inst_357>
    80003dac:	a78fc06f          	j	80000024 <rvtest_error>

0000000080003db0 <inst_357>:
    80003db0:	00000513          	li	a0,0
    80003db4:	00357593          	andi	a1,a0,3
    80003db8:	26b0bc23          	sd	a1,632(ra)
    80003dbc:	00000113          	li	sp,0
    80003dc0:	00b10463          	beq	sp,a1,80003dc8 <inst_358>
    80003dc4:	a60fc06f          	j	80000024 <rvtest_error>

0000000080003dc8 <inst_358>:
    80003dc8:	00000513          	li	a0,0
    80003dcc:	55557593          	andi	a1,a0,1365
    80003dd0:	28b0b023          	sd	a1,640(ra)
    80003dd4:	00000113          	li	sp,0
    80003dd8:	00b10463          	beq	sp,a1,80003de0 <inst_359>
    80003ddc:	a48fc06f          	j	80000024 <rvtest_error>

0000000080003de0 <inst_359>:
    80003de0:	00000513          	li	a0,0
    80003de4:	aaa57593          	andi	a1,a0,-1366
    80003de8:	28b0b423          	sd	a1,648(ra)
    80003dec:	00000113          	li	sp,0
    80003df0:	00b10463          	beq	sp,a1,80003df8 <inst_360>
    80003df4:	a30fc06f          	j	80000024 <rvtest_error>

0000000080003df8 <inst_360>:
    80003df8:	00000513          	li	a0,0
    80003dfc:	00557593          	andi	a1,a0,5
    80003e00:	28b0b823          	sd	a1,656(ra)
    80003e04:	00000113          	li	sp,0
    80003e08:	00b10463          	beq	sp,a1,80003e10 <inst_361>
    80003e0c:	a18fc06f          	j	80000024 <rvtest_error>

0000000080003e10 <inst_361>:
    80003e10:	00000513          	li	a0,0
    80003e14:	33357593          	andi	a1,a0,819
    80003e18:	28b0bc23          	sd	a1,664(ra)
    80003e1c:	00000113          	li	sp,0
    80003e20:	00b10463          	beq	sp,a1,80003e28 <inst_362>
    80003e24:	a00fc06f          	j	80000024 <rvtest_error>

0000000080003e28 <inst_362>:
    80003e28:	00000513          	li	a0,0
    80003e2c:	66657593          	andi	a1,a0,1638
    80003e30:	2ab0b023          	sd	a1,672(ra)
    80003e34:	00000113          	li	sp,0
    80003e38:	00b10463          	beq	sp,a1,80003e40 <inst_363>
    80003e3c:	9e8fc06f          	j	80000024 <rvtest_error>

0000000080003e40 <inst_363>:
    80003e40:	55555537          	lui	a0,0x55555
    80003e44:	55550513          	addi	a0,a0,1365 # 55555555 <absimmsh+0x49a847a8>
    80003e48:	00b51513          	slli	a0,a0,0xb
    80003e4c:	2aa50513          	addi	a0,a0,682
    80003e50:	00b51513          	slli	a0,a0,0xb
    80003e54:	55550513          	addi	a0,a0,1365
    80003e58:	00a51513          	slli	a0,a0,0xa
    80003e5c:	15650513          	addi	a0,a0,342
    80003e60:	02c57593          	andi	a1,a0,44
    80003e64:	2ab0b423          	sd	a1,680(ra)
    80003e68:	00400113          	li	sp,4
    80003e6c:	00b10463          	beq	sp,a1,80003e74 <inst_364>
    80003e70:	9b4fc06f          	j	80000024 <rvtest_error>

0000000080003e74 <inst_364>:
    80003e74:	55555537          	lui	a0,0x55555
    80003e78:	55550513          	addi	a0,a0,1365 # 55555555 <absimmsh+0x49a847a8>
    80003e7c:	00b51513          	slli	a0,a0,0xb
    80003e80:	2aa50513          	addi	a0,a0,682
    80003e84:	00b51513          	slli	a0,a0,0xb
    80003e88:	55550513          	addi	a0,a0,1365
    80003e8c:	00a51513          	slli	a0,a0,0xa
    80003e90:	15650513          	addi	a0,a0,342
    80003e94:	55657593          	andi	a1,a0,1366
    80003e98:	2ab0b823          	sd	a1,688(ra)
    80003e9c:	55600113          	li	sp,1366
    80003ea0:	00b10463          	beq	sp,a1,80003ea8 <inst_365>
    80003ea4:	980fc06f          	j	80000024 <rvtest_error>

0000000080003ea8 <inst_365>:
    80003ea8:	55555537          	lui	a0,0x55555
    80003eac:	55550513          	addi	a0,a0,1365 # 55555555 <absimmsh+0x49a847a8>
    80003eb0:	00b51513          	slli	a0,a0,0xb
    80003eb4:	2aa50513          	addi	a0,a0,682
    80003eb8:	00b51513          	slli	a0,a0,0xb
    80003ebc:	55550513          	addi	a0,a0,1365
    80003ec0:	00a51513          	slli	a0,a0,0xa
    80003ec4:	15650513          	addi	a0,a0,342
    80003ec8:	aab57593          	andi	a1,a0,-1365
    80003ecc:	2ab0bc23          	sd	a1,696(ra)
    80003ed0:	05555137          	lui	sp,0x5555
    80003ed4:	5551011b          	addiw	sp,sp,1365 # 5555555 <offset+0x55552ad>
    80003ed8:	00c11113          	slli	sp,sp,0xc
    80003edc:	55510113          	addi	sp,sp,1365
    80003ee0:	00c11113          	slli	sp,sp,0xc
    80003ee4:	55510113          	addi	sp,sp,1365
    80003ee8:	00c11113          	slli	sp,sp,0xc
    80003eec:	00210113          	addi	sp,sp,2
    80003ef0:	00b10463          	beq	sp,a1,80003ef8 <inst_366>
    80003ef4:	930fc06f          	j	80000024 <rvtest_error>

0000000080003ef8 <inst_366>:
    80003ef8:	55555537          	lui	a0,0x55555
    80003efc:	55550513          	addi	a0,a0,1365 # 55555555 <absimmsh+0x49a847a8>
    80003f00:	00b51513          	slli	a0,a0,0xb
    80003f04:	2aa50513          	addi	a0,a0,682
    80003f08:	00b51513          	slli	a0,a0,0xb
    80003f0c:	55550513          	addi	a0,a0,1365
    80003f10:	00a51513          	slli	a0,a0,0xa
    80003f14:	15650513          	addi	a0,a0,342
    80003f18:	00657593          	andi	a1,a0,6
    80003f1c:	2cb0b023          	sd	a1,704(ra)
    80003f20:	00600113          	li	sp,6
    80003f24:	00b10463          	beq	sp,a1,80003f2c <inst_367>
    80003f28:	8fcfc06f          	j	80000024 <rvtest_error>

0000000080003f2c <inst_367>:
    80003f2c:	55555537          	lui	a0,0x55555
    80003f30:	55550513          	addi	a0,a0,1365 # 55555555 <absimmsh+0x49a847a8>
    80003f34:	00b51513          	slli	a0,a0,0xb
    80003f38:	2aa50513          	addi	a0,a0,682
    80003f3c:	00b51513          	slli	a0,a0,0xb
    80003f40:	55550513          	addi	a0,a0,1365
    80003f44:	00a51513          	slli	a0,a0,0xa
    80003f48:	15650513          	addi	a0,a0,342
    80003f4c:	33457593          	andi	a1,a0,820
    80003f50:	2cb0b423          	sd	a1,712(ra)
    80003f54:	11400113          	li	sp,276
    80003f58:	00b10463          	beq	sp,a1,80003f60 <inst_368>
    80003f5c:	8c8fc06f          	j	80000024 <rvtest_error>

0000000080003f60 <inst_368>:
    80003f60:	55555537          	lui	a0,0x55555
    80003f64:	55550513          	addi	a0,a0,1365 # 55555555 <absimmsh+0x49a847a8>
    80003f68:	00b51513          	slli	a0,a0,0xb
    80003f6c:	2aa50513          	addi	a0,a0,682
    80003f70:	00b51513          	slli	a0,a0,0xb
    80003f74:	55550513          	addi	a0,a0,1365
    80003f78:	00a51513          	slli	a0,a0,0xa
    80003f7c:	15650513          	addi	a0,a0,342
    80003f80:	66757593          	andi	a1,a0,1639
    80003f84:	2cb0b823          	sd	a1,720(ra)
    80003f88:	44600113          	li	sp,1094
    80003f8c:	00b10463          	beq	sp,a1,80003f94 <inst_369>
    80003f90:	894fc06f          	j	80000024 <rvtest_error>

0000000080003f94 <inst_369>:
    80003f94:	55555537          	lui	a0,0x55555
    80003f98:	55550513          	addi	a0,a0,1365 # 55555555 <absimmsh+0x49a847a8>
    80003f9c:	00b51513          	slli	a0,a0,0xb
    80003fa0:	2aa50513          	addi	a0,a0,682
    80003fa4:	00b51513          	slli	a0,a0,0xb
    80003fa8:	55550513          	addi	a0,a0,1365
    80003fac:	00a51513          	slli	a0,a0,0xa
    80003fb0:	15650513          	addi	a0,a0,342
    80003fb4:	fd457593          	andi	a1,a0,-44
    80003fb8:	2cb0bc23          	sd	a1,728(ra)
    80003fbc:	05555137          	lui	sp,0x5555
    80003fc0:	5551011b          	addiw	sp,sp,1365 # 5555555 <offset+0x55552ad>
    80003fc4:	00c11113          	slli	sp,sp,0xc
    80003fc8:	55510113          	addi	sp,sp,1365
    80003fcc:	00c11113          	slli	sp,sp,0xc
    80003fd0:	55510113          	addi	sp,sp,1365
    80003fd4:	00c11113          	slli	sp,sp,0xc
    80003fd8:	55410113          	addi	sp,sp,1364
    80003fdc:	00b10463          	beq	sp,a1,80003fe4 <inst_370>
    80003fe0:	844fc06f          	j	80000024 <rvtest_error>

0000000080003fe4 <inst_370>:
    80003fe4:	55555537          	lui	a0,0x55555
    80003fe8:	55550513          	addi	a0,a0,1365 # 55555555 <absimmsh+0x49a847a8>
    80003fec:	00b51513          	slli	a0,a0,0xb
    80003ff0:	2aa50513          	addi	a0,a0,682
    80003ff4:	00b51513          	slli	a0,a0,0xb
    80003ff8:	55550513          	addi	a0,a0,1365
    80003ffc:	00a51513          	slli	a0,a0,0xa
    80004000:	15650513          	addi	a0,a0,342
    80004004:	02e57593          	andi	a1,a0,46
    80004008:	2eb0b023          	sd	a1,736(ra)
    8000400c:	00600113          	li	sp,6
    80004010:	00b10463          	beq	sp,a1,80004018 <inst_371>
    80004014:	810fc06f          	j	80000024 <rvtest_error>

0000000080004018 <inst_371>:
    80004018:	aaaab537          	lui	a0,0xaaaab
    8000401c:	aaa50513          	addi	a0,a0,-1366 # ffffffffaaaaaaaa <absimm+0xfffffffeefd9cfda>
    80004020:	00b51513          	slli	a0,a0,0xb
    80004024:	55550513          	addi	a0,a0,1365
    80004028:	00b51513          	slli	a0,a0,0xb
    8000402c:	2aa50513          	addi	a0,a0,682
    80004030:	00a51513          	slli	a0,a0,0xa
    80004034:	2ab50513          	addi	a0,a0,683
    80004038:	00357593          	andi	a1,a0,3
    8000403c:	2eb0b423          	sd	a1,744(ra)
    80004040:	00300113          	li	sp,3
    80004044:	00b10463          	beq	sp,a1,8000404c <inst_372>
    80004048:	fddfb06f          	j	80000024 <rvtest_error>

000000008000404c <inst_372>:
    8000404c:	aaaab537          	lui	a0,0xaaaab
    80004050:	aaa50513          	addi	a0,a0,-1366 # ffffffffaaaaaaaa <absimm+0xfffffffeefd9cfda>
    80004054:	00b51513          	slli	a0,a0,0xb
    80004058:	55550513          	addi	a0,a0,1365
    8000405c:	00b51513          	slli	a0,a0,0xb
    80004060:	2aa50513          	addi	a0,a0,682
    80004064:	00a51513          	slli	a0,a0,0xa
    80004068:	2ab50513          	addi	a0,a0,683
    8000406c:	55557593          	andi	a1,a0,1365
    80004070:	2eb0b823          	sd	a1,752(ra)
    80004074:	00100113          	li	sp,1
    80004078:	00b10463          	beq	sp,a1,80004080 <inst_373>
    8000407c:	fa9fb06f          	j	80000024 <rvtest_error>

0000000080004080 <inst_373>:
    80004080:	aaaab537          	lui	a0,0xaaaab
    80004084:	aaa50513          	addi	a0,a0,-1366 # ffffffffaaaaaaaa <absimm+0xfffffffeefd9cfda>
    80004088:	00b51513          	slli	a0,a0,0xb
    8000408c:	55550513          	addi	a0,a0,1365
    80004090:	00b51513          	slli	a0,a0,0xb
    80004094:	2aa50513          	addi	a0,a0,682
    80004098:	00a51513          	slli	a0,a0,0xa
    8000409c:	2ab50513          	addi	a0,a0,683
    800040a0:	aaa57593          	andi	a1,a0,-1366
    800040a4:	2eb0bc23          	sd	a1,760(ra)
    800040a8:	faaab137          	lui	sp,0xfaaab
    800040ac:	aab1011b          	addiw	sp,sp,-1365 # fffffffffaaaaaab <absimm+0xffffffff3fd9cfdb>
    800040b0:	00c11113          	slli	sp,sp,0xc
    800040b4:	aab10113          	addi	sp,sp,-1365
    800040b8:	00c11113          	slli	sp,sp,0xc
    800040bc:	aab10113          	addi	sp,sp,-1365
    800040c0:	00c11113          	slli	sp,sp,0xc
    800040c4:	aaa10113          	addi	sp,sp,-1366
    800040c8:	00b10463          	beq	sp,a1,800040d0 <inst_374>
    800040cc:	f59fb06f          	j	80000024 <rvtest_error>

00000000800040d0 <inst_374>:
    800040d0:	aaaab537          	lui	a0,0xaaaab
    800040d4:	aaa50513          	addi	a0,a0,-1366 # ffffffffaaaaaaaa <absimm+0xfffffffeefd9cfda>
    800040d8:	00b51513          	slli	a0,a0,0xb
    800040dc:	55550513          	addi	a0,a0,1365
    800040e0:	00b51513          	slli	a0,a0,0xb
    800040e4:	2aa50513          	addi	a0,a0,682
    800040e8:	00a51513          	slli	a0,a0,0xa
    800040ec:	2ab50513          	addi	a0,a0,683
    800040f0:	00557593          	andi	a1,a0,5
    800040f4:	30b0b023          	sd	a1,768(ra)
    800040f8:	00100113          	li	sp,1
    800040fc:	00b10463          	beq	sp,a1,80004104 <inst_375>
    80004100:	f25fb06f          	j	80000024 <rvtest_error>

0000000080004104 <inst_375>:
    80004104:	aaaab537          	lui	a0,0xaaaab
    80004108:	aaa50513          	addi	a0,a0,-1366 # ffffffffaaaaaaaa <absimm+0xfffffffeefd9cfda>
    8000410c:	00b51513          	slli	a0,a0,0xb
    80004110:	55550513          	addi	a0,a0,1365
    80004114:	00b51513          	slli	a0,a0,0xb
    80004118:	2aa50513          	addi	a0,a0,682
    8000411c:	00a51513          	slli	a0,a0,0xa
    80004120:	2ab50513          	addi	a0,a0,683
    80004124:	33357593          	andi	a1,a0,819
    80004128:	30b0b423          	sd	a1,776(ra)
    8000412c:	22300113          	li	sp,547
    80004130:	00b10463          	beq	sp,a1,80004138 <inst_376>
    80004134:	ef1fb06f          	j	80000024 <rvtest_error>

0000000080004138 <inst_376>:
    80004138:	aaaab537          	lui	a0,0xaaaab
    8000413c:	aaa50513          	addi	a0,a0,-1366 # ffffffffaaaaaaaa <absimm+0xfffffffeefd9cfda>
    80004140:	00b51513          	slli	a0,a0,0xb
    80004144:	55550513          	addi	a0,a0,1365
    80004148:	00b51513          	slli	a0,a0,0xb
    8000414c:	2aa50513          	addi	a0,a0,682
    80004150:	00a51513          	slli	a0,a0,0xa
    80004154:	2ab50513          	addi	a0,a0,683
    80004158:	66657593          	andi	a1,a0,1638
    8000415c:	30b0b823          	sd	a1,784(ra)
    80004160:	22200113          	li	sp,546
    80004164:	00b10463          	beq	sp,a1,8000416c <inst_377>
    80004168:	ebdfb06f          	j	80000024 <rvtest_error>

000000008000416c <inst_377>:
    8000416c:	aaaab537          	lui	a0,0xaaaab
    80004170:	aaa50513          	addi	a0,a0,-1366 # ffffffffaaaaaaaa <absimm+0xfffffffeefd9cfda>
    80004174:	00b51513          	slli	a0,a0,0xb
    80004178:	55550513          	addi	a0,a0,1365
    8000417c:	00b51513          	slli	a0,a0,0xb
    80004180:	2aa50513          	addi	a0,a0,682
    80004184:	00a51513          	slli	a0,a0,0xa
    80004188:	2ab50513          	addi	a0,a0,683
    8000418c:	fd357593          	andi	a1,a0,-45
    80004190:	30b0bc23          	sd	a1,792(ra)
    80004194:	faaab137          	lui	sp,0xfaaab
    80004198:	aab1011b          	addiw	sp,sp,-1365 # fffffffffaaaaaab <absimm+0xffffffff3fd9cfdb>
    8000419c:	00c11113          	slli	sp,sp,0xc
    800041a0:	aab10113          	addi	sp,sp,-1365
    800041a4:	00c11113          	slli	sp,sp,0xc
    800041a8:	aab10113          	addi	sp,sp,-1365
    800041ac:	00c11113          	slli	sp,sp,0xc
    800041b0:	a8310113          	addi	sp,sp,-1405
    800041b4:	00b10463          	beq	sp,a1,800041bc <inst_378>
    800041b8:	e6dfb06f          	j	80000024 <rvtest_error>

00000000800041bc <inst_378>:
    800041bc:	aaaab537          	lui	a0,0xaaaab
    800041c0:	aaa50513          	addi	a0,a0,-1366 # ffffffffaaaaaaaa <absimm+0xfffffffeefd9cfda>
    800041c4:	00b51513          	slli	a0,a0,0xb
    800041c8:	55550513          	addi	a0,a0,1365
    800041cc:	00b51513          	slli	a0,a0,0xb
    800041d0:	2aa50513          	addi	a0,a0,682
    800041d4:	00a51513          	slli	a0,a0,0xa
    800041d8:	2ab50513          	addi	a0,a0,683
    800041dc:	02d57593          	andi	a1,a0,45
    800041e0:	32b0b023          	sd	a1,800(ra)
    800041e4:	02900113          	li	sp,41
    800041e8:	00b10463          	beq	sp,a1,800041f0 <inst_379>
    800041ec:	e39fb06f          	j	80000024 <rvtest_error>

00000000800041f0 <inst_379>:
    800041f0:	aaaab537          	lui	a0,0xaaaab
    800041f4:	aaa50513          	addi	a0,a0,-1366 # ffffffffaaaaaaaa <absimm+0xfffffffeefd9cfda>
    800041f8:	00b51513          	slli	a0,a0,0xb
    800041fc:	55550513          	addi	a0,a0,1365
    80004200:	00b51513          	slli	a0,a0,0xb
    80004204:	2aa50513          	addi	a0,a0,682
    80004208:	00a51513          	slli	a0,a0,0xa
    8000420c:	2ab50513          	addi	a0,a0,683
    80004210:	00257593          	andi	a1,a0,2
    80004214:	32b0b423          	sd	a1,808(ra)
    80004218:	00200113          	li	sp,2
    8000421c:	00b10463          	beq	sp,a1,80004224 <inst_380>
    80004220:	e05fb06f          	j	80000024 <rvtest_error>

0000000080004224 <inst_380>:
    80004224:	aaaab537          	lui	a0,0xaaaab
    80004228:	aaa50513          	addi	a0,a0,-1366 # ffffffffaaaaaaaa <absimm+0xfffffffeefd9cfda>
    8000422c:	00b51513          	slli	a0,a0,0xb
    80004230:	55550513          	addi	a0,a0,1365
    80004234:	00b51513          	slli	a0,a0,0xb
    80004238:	2aa50513          	addi	a0,a0,682
    8000423c:	00a51513          	slli	a0,a0,0xa
    80004240:	2ab50513          	addi	a0,a0,683
    80004244:	55457593          	andi	a1,a0,1364
    80004248:	32b0b823          	sd	a1,816(ra)
    8000424c:	00000113          	li	sp,0
    80004250:	00b10463          	beq	sp,a1,80004258 <inst_381>
    80004254:	dd1fb06f          	j	80000024 <rvtest_error>

0000000080004258 <inst_381>:
    80004258:	aaaab537          	lui	a0,0xaaaab
    8000425c:	aaa50513          	addi	a0,a0,-1366 # ffffffffaaaaaaaa <absimm+0xfffffffeefd9cfda>
    80004260:	00b51513          	slli	a0,a0,0xb
    80004264:	55550513          	addi	a0,a0,1365
    80004268:	00b51513          	slli	a0,a0,0xb
    8000426c:	2aa50513          	addi	a0,a0,682
    80004270:	00a51513          	slli	a0,a0,0xa
    80004274:	2ab50513          	addi	a0,a0,683
    80004278:	00057593          	andi	a1,a0,0
    8000427c:	32b0bc23          	sd	a1,824(ra)
    80004280:	00000113          	li	sp,0
    80004284:	00b10463          	beq	sp,a1,8000428c <inst_382>
    80004288:	d9dfb06f          	j	80000024 <rvtest_error>

000000008000428c <inst_382>:
    8000428c:	aaaab537          	lui	a0,0xaaaab
    80004290:	aaa50513          	addi	a0,a0,-1366 # ffffffffaaaaaaaa <absimm+0xfffffffeefd9cfda>
    80004294:	00b51513          	slli	a0,a0,0xb
    80004298:	55550513          	addi	a0,a0,1365
    8000429c:	00b51513          	slli	a0,a0,0xb
    800042a0:	2aa50513          	addi	a0,a0,682
    800042a4:	00a51513          	slli	a0,a0,0xa
    800042a8:	2ab50513          	addi	a0,a0,683
    800042ac:	00457593          	andi	a1,a0,4
    800042b0:	34b0b023          	sd	a1,832(ra)
    800042b4:	00000113          	li	sp,0
    800042b8:	00b10463          	beq	sp,a1,800042c0 <inst_383>
    800042bc:	d69fb06f          	j	80000024 <rvtest_error>

00000000800042c0 <inst_383>:
    800042c0:	aaaab537          	lui	a0,0xaaaab
    800042c4:	aaa50513          	addi	a0,a0,-1366 # ffffffffaaaaaaaa <absimm+0xfffffffeefd9cfda>
    800042c8:	00b51513          	slli	a0,a0,0xb
    800042cc:	55550513          	addi	a0,a0,1365
    800042d0:	00b51513          	slli	a0,a0,0xb
    800042d4:	2aa50513          	addi	a0,a0,682
    800042d8:	00a51513          	slli	a0,a0,0xa
    800042dc:	2ab50513          	addi	a0,a0,683
    800042e0:	33257593          	andi	a1,a0,818
    800042e4:	34b0b423          	sd	a1,840(ra)
    800042e8:	22200113          	li	sp,546
    800042ec:	00b10463          	beq	sp,a1,800042f4 <inst_384>
    800042f0:	d35fb06f          	j	80000024 <rvtest_error>

00000000800042f4 <inst_384>:
    800042f4:	aaaab537          	lui	a0,0xaaaab
    800042f8:	aaa50513          	addi	a0,a0,-1366 # ffffffffaaaaaaaa <absimm+0xfffffffeefd9cfda>
    800042fc:	00b51513          	slli	a0,a0,0xb
    80004300:	55550513          	addi	a0,a0,1365
    80004304:	00b51513          	slli	a0,a0,0xb
    80004308:	2aa50513          	addi	a0,a0,682
    8000430c:	00a51513          	slli	a0,a0,0xa
    80004310:	2ab50513          	addi	a0,a0,683
    80004314:	66557593          	andi	a1,a0,1637
    80004318:	34b0b823          	sd	a1,848(ra)
    8000431c:	22100113          	li	sp,545
    80004320:	00b10463          	beq	sp,a1,80004328 <inst_385>
    80004324:	d01fb06f          	j	80000024 <rvtest_error>

0000000080004328 <inst_385>:
    80004328:	aaaab537          	lui	a0,0xaaaab
    8000432c:	aaa50513          	addi	a0,a0,-1366 # ffffffffaaaaaaaa <absimm+0xfffffffeefd9cfda>
    80004330:	00b51513          	slli	a0,a0,0xb
    80004334:	55550513          	addi	a0,a0,1365
    80004338:	00b51513          	slli	a0,a0,0xb
    8000433c:	2aa50513          	addi	a0,a0,682
    80004340:	00a51513          	slli	a0,a0,0xa
    80004344:	2ab50513          	addi	a0,a0,683
    80004348:	02c57593          	andi	a1,a0,44
    8000434c:	34b0bc23          	sd	a1,856(ra)
    80004350:	02800113          	li	sp,40
    80004354:	00b10463          	beq	sp,a1,8000435c <inst_386>
    80004358:	ccdfb06f          	j	80000024 <rvtest_error>

000000008000435c <inst_386>:
    8000435c:	aaaab537          	lui	a0,0xaaaab
    80004360:	aaa50513          	addi	a0,a0,-1366 # ffffffffaaaaaaaa <absimm+0xfffffffeefd9cfda>
    80004364:	00b51513          	slli	a0,a0,0xb
    80004368:	55550513          	addi	a0,a0,1365
    8000436c:	00b51513          	slli	a0,a0,0xb
    80004370:	2aa50513          	addi	a0,a0,682
    80004374:	00a51513          	slli	a0,a0,0xa
    80004378:	2ab50513          	addi	a0,a0,683
    8000437c:	55657593          	andi	a1,a0,1366
    80004380:	36b0b023          	sd	a1,864(ra)
    80004384:	00200113          	li	sp,2
    80004388:	00b10463          	beq	sp,a1,80004390 <inst_387>
    8000438c:	c99fb06f          	j	80000024 <rvtest_error>

0000000080004390 <inst_387>:
    80004390:	aaaab537          	lui	a0,0xaaaab
    80004394:	aaa50513          	addi	a0,a0,-1366 # ffffffffaaaaaaaa <absimm+0xfffffffeefd9cfda>
    80004398:	00b51513          	slli	a0,a0,0xb
    8000439c:	55550513          	addi	a0,a0,1365
    800043a0:	00b51513          	slli	a0,a0,0xb
    800043a4:	2aa50513          	addi	a0,a0,682
    800043a8:	00a51513          	slli	a0,a0,0xa
    800043ac:	2ab50513          	addi	a0,a0,683
    800043b0:	aab57593          	andi	a1,a0,-1365
    800043b4:	36b0b423          	sd	a1,872(ra)
    800043b8:	faaab137          	lui	sp,0xfaaab
    800043bc:	aab1011b          	addiw	sp,sp,-1365 # fffffffffaaaaaab <absimm+0xffffffff3fd9cfdb>
    800043c0:	00c11113          	slli	sp,sp,0xc
    800043c4:	aab10113          	addi	sp,sp,-1365
    800043c8:	00c11113          	slli	sp,sp,0xc
    800043cc:	aab10113          	addi	sp,sp,-1365
    800043d0:	00c11113          	slli	sp,sp,0xc
    800043d4:	aab10113          	addi	sp,sp,-1365
    800043d8:	00b10463          	beq	sp,a1,800043e0 <inst_388>
    800043dc:	c49fb06f          	j	80000024 <rvtest_error>

00000000800043e0 <inst_388>:
    800043e0:	aaaab537          	lui	a0,0xaaaab
    800043e4:	aaa50513          	addi	a0,a0,-1366 # ffffffffaaaaaaaa <absimm+0xfffffffeefd9cfda>
    800043e8:	00b51513          	slli	a0,a0,0xb
    800043ec:	55550513          	addi	a0,a0,1365
    800043f0:	00b51513          	slli	a0,a0,0xb
    800043f4:	2aa50513          	addi	a0,a0,682
    800043f8:	00a51513          	slli	a0,a0,0xa
    800043fc:	2ab50513          	addi	a0,a0,683
    80004400:	00657593          	andi	a1,a0,6
    80004404:	36b0b823          	sd	a1,880(ra)
    80004408:	00200113          	li	sp,2
    8000440c:	00b10463          	beq	sp,a1,80004414 <inst_389>
    80004410:	c15fb06f          	j	80000024 <rvtest_error>

0000000080004414 <inst_389>:
    80004414:	aaaab537          	lui	a0,0xaaaab
    80004418:	aaa50513          	addi	a0,a0,-1366 # ffffffffaaaaaaaa <absimm+0xfffffffeefd9cfda>
    8000441c:	00b51513          	slli	a0,a0,0xb
    80004420:	55550513          	addi	a0,a0,1365
    80004424:	00b51513          	slli	a0,a0,0xb
    80004428:	2aa50513          	addi	a0,a0,682
    8000442c:	00a51513          	slli	a0,a0,0xa
    80004430:	2ab50513          	addi	a0,a0,683
    80004434:	33457593          	andi	a1,a0,820
    80004438:	36b0bc23          	sd	a1,888(ra)
    8000443c:	22000113          	li	sp,544
    80004440:	00b10463          	beq	sp,a1,80004448 <inst_390>
    80004444:	be1fb06f          	j	80000024 <rvtest_error>

0000000080004448 <inst_390>:
    80004448:	aaaab537          	lui	a0,0xaaaab
    8000444c:	aaa50513          	addi	a0,a0,-1366 # ffffffffaaaaaaaa <absimm+0xfffffffeefd9cfda>
    80004450:	00b51513          	slli	a0,a0,0xb
    80004454:	55550513          	addi	a0,a0,1365
    80004458:	00b51513          	slli	a0,a0,0xb
    8000445c:	2aa50513          	addi	a0,a0,682
    80004460:	00a51513          	slli	a0,a0,0xa
    80004464:	2ab50513          	addi	a0,a0,683
    80004468:	66757593          	andi	a1,a0,1639
    8000446c:	38b0b023          	sd	a1,896(ra)
    80004470:	22300113          	li	sp,547
    80004474:	00b10463          	beq	sp,a1,8000447c <inst_391>
    80004478:	badfb06f          	j	80000024 <rvtest_error>

000000008000447c <inst_391>:
    8000447c:	aaaab537          	lui	a0,0xaaaab
    80004480:	aaa50513          	addi	a0,a0,-1366 # ffffffffaaaaaaaa <absimm+0xfffffffeefd9cfda>
    80004484:	00b51513          	slli	a0,a0,0xb
    80004488:	55550513          	addi	a0,a0,1365
    8000448c:	00b51513          	slli	a0,a0,0xb
    80004490:	2aa50513          	addi	a0,a0,682
    80004494:	00a51513          	slli	a0,a0,0xa
    80004498:	2ab50513          	addi	a0,a0,683
    8000449c:	fd457593          	andi	a1,a0,-44
    800044a0:	38b0b423          	sd	a1,904(ra)
    800044a4:	faaab137          	lui	sp,0xfaaab
    800044a8:	aab1011b          	addiw	sp,sp,-1365 # fffffffffaaaaaab <absimm+0xffffffff3fd9cfdb>
    800044ac:	00c11113          	slli	sp,sp,0xc
    800044b0:	aab10113          	addi	sp,sp,-1365
    800044b4:	00c11113          	slli	sp,sp,0xc
    800044b8:	aab10113          	addi	sp,sp,-1365
    800044bc:	00c11113          	slli	sp,sp,0xc
    800044c0:	a8010113          	addi	sp,sp,-1408
    800044c4:	00b10463          	beq	sp,a1,800044cc <inst_392>
    800044c8:	b5dfb06f          	j	80000024 <rvtest_error>

00000000800044cc <inst_392>:
    800044cc:	aaaab537          	lui	a0,0xaaaab
    800044d0:	aaa50513          	addi	a0,a0,-1366 # ffffffffaaaaaaaa <absimm+0xfffffffeefd9cfda>
    800044d4:	00b51513          	slli	a0,a0,0xb
    800044d8:	55550513          	addi	a0,a0,1365
    800044dc:	00b51513          	slli	a0,a0,0xb
    800044e0:	2aa50513          	addi	a0,a0,682
    800044e4:	00a51513          	slli	a0,a0,0xa
    800044e8:	2ab50513          	addi	a0,a0,683
    800044ec:	02e57593          	andi	a1,a0,46
    800044f0:	38b0b823          	sd	a1,912(ra)
    800044f4:	02a00113          	li	sp,42
    800044f8:	00b10463          	beq	sp,a1,80004500 <inst_393>
    800044fc:	b29fb06f          	j	80000024 <rvtest_error>

0000000080004500 <inst_393>:
    80004500:	00600513          	li	a0,6
    80004504:	00357593          	andi	a1,a0,3
    80004508:	38b0bc23          	sd	a1,920(ra)
    8000450c:	00200113          	li	sp,2
    80004510:	00b10463          	beq	sp,a1,80004518 <inst_394>
    80004514:	b11fb06f          	j	80000024 <rvtest_error>

0000000080004518 <inst_394>:
    80004518:	00600513          	li	a0,6
    8000451c:	55557593          	andi	a1,a0,1365
    80004520:	3ab0b023          	sd	a1,928(ra)
    80004524:	00400113          	li	sp,4
    80004528:	00b10463          	beq	sp,a1,80004530 <inst_395>
    8000452c:	af9fb06f          	j	80000024 <rvtest_error>

0000000080004530 <inst_395>:
    80004530:	00600513          	li	a0,6
    80004534:	aaa57593          	andi	a1,a0,-1366
    80004538:	3ab0b423          	sd	a1,936(ra)
    8000453c:	00200113          	li	sp,2
    80004540:	00b10463          	beq	sp,a1,80004548 <inst_396>
    80004544:	ae1fb06f          	j	80000024 <rvtest_error>

0000000080004548 <inst_396>:
    80004548:	00600513          	li	a0,6
    8000454c:	00557593          	andi	a1,a0,5
    80004550:	3ab0b823          	sd	a1,944(ra)
    80004554:	00400113          	li	sp,4
    80004558:	00b10463          	beq	sp,a1,80004560 <inst_397>
    8000455c:	ac9fb06f          	j	80000024 <rvtest_error>

0000000080004560 <inst_397>:
    80004560:	00600513          	li	a0,6
    80004564:	33357593          	andi	a1,a0,819
    80004568:	3ab0bc23          	sd	a1,952(ra)
    8000456c:	00200113          	li	sp,2
    80004570:	00b10463          	beq	sp,a1,80004578 <inst_398>
    80004574:	ab1fb06f          	j	80000024 <rvtest_error>

0000000080004578 <inst_398>:
    80004578:	00600513          	li	a0,6
    8000457c:	66657593          	andi	a1,a0,1638
    80004580:	3cb0b023          	sd	a1,960(ra)
    80004584:	00600113          	li	sp,6
    80004588:	00b10463          	beq	sp,a1,80004590 <inst_399>
    8000458c:	a99fb06f          	j	80000024 <rvtest_error>

0000000080004590 <inst_399>:
    80004590:	00600513          	li	a0,6
    80004594:	fd357593          	andi	a1,a0,-45
    80004598:	3cb0b423          	sd	a1,968(ra)
    8000459c:	00200113          	li	sp,2
    800045a0:	00b10463          	beq	sp,a1,800045a8 <inst_400>
    800045a4:	a81fb06f          	j	80000024 <rvtest_error>

00000000800045a8 <inst_400>:
    800045a8:	00600513          	li	a0,6
    800045ac:	02d57593          	andi	a1,a0,45
    800045b0:	3cb0b823          	sd	a1,976(ra)
    800045b4:	00400113          	li	sp,4
    800045b8:	00b10463          	beq	sp,a1,800045c0 <inst_401>
    800045bc:	a69fb06f          	j	80000024 <rvtest_error>

00000000800045c0 <inst_401>:
    800045c0:	00600513          	li	a0,6
    800045c4:	00257593          	andi	a1,a0,2
    800045c8:	3cb0bc23          	sd	a1,984(ra)
    800045cc:	00200113          	li	sp,2
    800045d0:	00b10463          	beq	sp,a1,800045d8 <inst_402>
    800045d4:	a51fb06f          	j	80000024 <rvtest_error>

00000000800045d8 <inst_402>:
    800045d8:	00600513          	li	a0,6
    800045dc:	55457593          	andi	a1,a0,1364
    800045e0:	3eb0b023          	sd	a1,992(ra)
    800045e4:	00400113          	li	sp,4
    800045e8:	00b10463          	beq	sp,a1,800045f0 <inst_403>
    800045ec:	a39fb06f          	j	80000024 <rvtest_error>

00000000800045f0 <inst_403>:
    800045f0:	00600513          	li	a0,6
    800045f4:	00057593          	andi	a1,a0,0
    800045f8:	3eb0b423          	sd	a1,1000(ra)
    800045fc:	00000113          	li	sp,0
    80004600:	00b10463          	beq	sp,a1,80004608 <inst_404>
    80004604:	a21fb06f          	j	80000024 <rvtest_error>

0000000080004608 <inst_404>:
    80004608:	00600513          	li	a0,6
    8000460c:	00457593          	andi	a1,a0,4
    80004610:	3eb0b823          	sd	a1,1008(ra)
    80004614:	00400113          	li	sp,4
    80004618:	00b10463          	beq	sp,a1,80004620 <inst_405>
    8000461c:	a09fb06f          	j	80000024 <rvtest_error>

0000000080004620 <inst_405>:
    80004620:	00600513          	li	a0,6
    80004624:	33257593          	andi	a1,a0,818
    80004628:	3eb0bc23          	sd	a1,1016(ra)
    8000462c:	00200113          	li	sp,2
    80004630:	00b10463          	beq	sp,a1,80004638 <inst_406>
    80004634:	9f1fb06f          	j	80000024 <rvtest_error>

0000000080004638 <inst_406>:
    80004638:	00600513          	li	a0,6
    8000463c:	66557593          	andi	a1,a0,1637
    80004640:	40b0b023          	sd	a1,1024(ra)
    80004644:	00400113          	li	sp,4
    80004648:	00b10463          	beq	sp,a1,80004650 <inst_407>
    8000464c:	9d9fb06f          	j	80000024 <rvtest_error>

0000000080004650 <inst_407>:
    80004650:	00600513          	li	a0,6
    80004654:	02c57593          	andi	a1,a0,44
    80004658:	40b0b423          	sd	a1,1032(ra)
    8000465c:	00400113          	li	sp,4
    80004660:	00b10463          	beq	sp,a1,80004668 <inst_408>
    80004664:	9c1fb06f          	j	80000024 <rvtest_error>

0000000080004668 <inst_408>:
    80004668:	00600513          	li	a0,6
    8000466c:	55657593          	andi	a1,a0,1366
    80004670:	40b0b823          	sd	a1,1040(ra)
    80004674:	00600113          	li	sp,6
    80004678:	00b10463          	beq	sp,a1,80004680 <inst_409>
    8000467c:	9a9fb06f          	j	80000024 <rvtest_error>

0000000080004680 <inst_409>:
    80004680:	00600513          	li	a0,6
    80004684:	aab57593          	andi	a1,a0,-1365
    80004688:	40b0bc23          	sd	a1,1048(ra)
    8000468c:	00200113          	li	sp,2
    80004690:	00b10463          	beq	sp,a1,80004698 <inst_410>
    80004694:	991fb06f          	j	80000024 <rvtest_error>

0000000080004698 <inst_410>:
    80004698:	00600513          	li	a0,6
    8000469c:	00657593          	andi	a1,a0,6
    800046a0:	42b0b023          	sd	a1,1056(ra)
    800046a4:	00600113          	li	sp,6
    800046a8:	00b10463          	beq	sp,a1,800046b0 <inst_411>
    800046ac:	979fb06f          	j	80000024 <rvtest_error>

00000000800046b0 <inst_411>:
    800046b0:	00600513          	li	a0,6
    800046b4:	33457593          	andi	a1,a0,820
    800046b8:	42b0b423          	sd	a1,1064(ra)
    800046bc:	00400113          	li	sp,4
    800046c0:	00b10463          	beq	sp,a1,800046c8 <inst_412>
    800046c4:	961fb06f          	j	80000024 <rvtest_error>

00000000800046c8 <inst_412>:
    800046c8:	00600513          	li	a0,6
    800046cc:	66757593          	andi	a1,a0,1639
    800046d0:	42b0b823          	sd	a1,1072(ra)
    800046d4:	00600113          	li	sp,6
    800046d8:	00b10463          	beq	sp,a1,800046e0 <inst_413>
    800046dc:	949fb06f          	j	80000024 <rvtest_error>

00000000800046e0 <inst_413>:
    800046e0:	00600513          	li	a0,6
    800046e4:	fd457593          	andi	a1,a0,-44
    800046e8:	42b0bc23          	sd	a1,1080(ra)
    800046ec:	00400113          	li	sp,4
    800046f0:	00b10463          	beq	sp,a1,800046f8 <inst_414>
    800046f4:	931fb06f          	j	80000024 <rvtest_error>

00000000800046f8 <inst_414>:
    800046f8:	00600513          	li	a0,6
    800046fc:	02e57593          	andi	a1,a0,46
    80004700:	44b0b023          	sd	a1,1088(ra)
    80004704:	00600113          	li	sp,6
    80004708:	00b10463          	beq	sp,a1,80004710 <inst_415>
    8000470c:	919fb06f          	j	80000024 <rvtest_error>

0000000080004710 <inst_415>:
    80004710:	33333537          	lui	a0,0x33333
    80004714:	33350513          	addi	a0,a0,819 # 33333333 <absimmsh+0x27862586>
    80004718:	00b51513          	slli	a0,a0,0xb
    8000471c:	19950513          	addi	a0,a0,409
    80004720:	00b51513          	slli	a0,a0,0xb
    80004724:	4cc50513          	addi	a0,a0,1228
    80004728:	00a51513          	slli	a0,a0,0xa
    8000472c:	33450513          	addi	a0,a0,820
    80004730:	00357593          	andi	a1,a0,3
    80004734:	44b0b423          	sd	a1,1096(ra)
    80004738:	00000113          	li	sp,0
    8000473c:	00b10463          	beq	sp,a1,80004744 <inst_416>
    80004740:	8e5fb06f          	j	80000024 <rvtest_error>

0000000080004744 <inst_416>:
    80004744:	33333537          	lui	a0,0x33333
    80004748:	33350513          	addi	a0,a0,819 # 33333333 <absimmsh+0x27862586>
    8000474c:	00b51513          	slli	a0,a0,0xb
    80004750:	19950513          	addi	a0,a0,409
    80004754:	00b51513          	slli	a0,a0,0xb
    80004758:	4cc50513          	addi	a0,a0,1228
    8000475c:	00a51513          	slli	a0,a0,0xa
    80004760:	33450513          	addi	a0,a0,820
    80004764:	55557593          	andi	a1,a0,1365
    80004768:	44b0b823          	sd	a1,1104(ra)
    8000476c:	11400113          	li	sp,276
    80004770:	00b10463          	beq	sp,a1,80004778 <inst_417>
    80004774:	8b1fb06f          	j	80000024 <rvtest_error>

0000000080004778 <inst_417>:
    80004778:	33333537          	lui	a0,0x33333
    8000477c:	33350513          	addi	a0,a0,819 # 33333333 <absimmsh+0x27862586>
    80004780:	00b51513          	slli	a0,a0,0xb
    80004784:	19950513          	addi	a0,a0,409
    80004788:	00b51513          	slli	a0,a0,0xb
    8000478c:	4cc50513          	addi	a0,a0,1228
    80004790:	00a51513          	slli	a0,a0,0xa
    80004794:	33450513          	addi	a0,a0,820
    80004798:	aaa57593          	andi	a1,a0,-1366
    8000479c:	44b0bc23          	sd	a1,1112(ra)
    800047a0:	03333137          	lui	sp,0x3333
    800047a4:	3331011b          	addiw	sp,sp,819 # 3333333 <offset+0x333308b>
    800047a8:	00c11113          	slli	sp,sp,0xc
    800047ac:	33310113          	addi	sp,sp,819
    800047b0:	00c11113          	slli	sp,sp,0xc
    800047b4:	33310113          	addi	sp,sp,819
    800047b8:	00c11113          	slli	sp,sp,0xc
    800047bc:	22010113          	addi	sp,sp,544
    800047c0:	00b10463          	beq	sp,a1,800047c8 <inst_418>
    800047c4:	861fb06f          	j	80000024 <rvtest_error>

00000000800047c8 <inst_418>:
    800047c8:	33333537          	lui	a0,0x33333
    800047cc:	33350513          	addi	a0,a0,819 # 33333333 <absimmsh+0x27862586>
    800047d0:	00b51513          	slli	a0,a0,0xb
    800047d4:	19950513          	addi	a0,a0,409
    800047d8:	00b51513          	slli	a0,a0,0xb
    800047dc:	4cc50513          	addi	a0,a0,1228
    800047e0:	00a51513          	slli	a0,a0,0xa
    800047e4:	33450513          	addi	a0,a0,820
    800047e8:	00557593          	andi	a1,a0,5
    800047ec:	46b0b023          	sd	a1,1120(ra)
    800047f0:	00400113          	li	sp,4
    800047f4:	00b10463          	beq	sp,a1,800047fc <inst_419>
    800047f8:	82dfb06f          	j	80000024 <rvtest_error>

00000000800047fc <inst_419>:
    800047fc:	33333537          	lui	a0,0x33333
    80004800:	33350513          	addi	a0,a0,819 # 33333333 <absimmsh+0x27862586>
    80004804:	00b51513          	slli	a0,a0,0xb
    80004808:	19950513          	addi	a0,a0,409
    8000480c:	00b51513          	slli	a0,a0,0xb
    80004810:	4cc50513          	addi	a0,a0,1228
    80004814:	00a51513          	slli	a0,a0,0xa
    80004818:	33450513          	addi	a0,a0,820
    8000481c:	33357593          	andi	a1,a0,819
    80004820:	46b0b423          	sd	a1,1128(ra)
    80004824:	33000113          	li	sp,816
    80004828:	00b10463          	beq	sp,a1,80004830 <inst_420>
    8000482c:	ff8fb06f          	j	80000024 <rvtest_error>

0000000080004830 <inst_420>:
    80004830:	33333537          	lui	a0,0x33333
    80004834:	33350513          	addi	a0,a0,819 # 33333333 <absimmsh+0x27862586>
    80004838:	00b51513          	slli	a0,a0,0xb
    8000483c:	19950513          	addi	a0,a0,409
    80004840:	00b51513          	slli	a0,a0,0xb
    80004844:	4cc50513          	addi	a0,a0,1228
    80004848:	00a51513          	slli	a0,a0,0xa
    8000484c:	33450513          	addi	a0,a0,820
    80004850:	66657593          	andi	a1,a0,1638
    80004854:	46b0b823          	sd	a1,1136(ra)
    80004858:	22400113          	li	sp,548
    8000485c:	00b10463          	beq	sp,a1,80004864 <inst_421>
    80004860:	fc4fb06f          	j	80000024 <rvtest_error>

0000000080004864 <inst_421>:
    80004864:	33333537          	lui	a0,0x33333
    80004868:	33350513          	addi	a0,a0,819 # 33333333 <absimmsh+0x27862586>
    8000486c:	00b51513          	slli	a0,a0,0xb
    80004870:	19950513          	addi	a0,a0,409
    80004874:	00b51513          	slli	a0,a0,0xb
    80004878:	4cc50513          	addi	a0,a0,1228
    8000487c:	00a51513          	slli	a0,a0,0xa
    80004880:	33450513          	addi	a0,a0,820
    80004884:	fd357593          	andi	a1,a0,-45
    80004888:	46b0bc23          	sd	a1,1144(ra)
    8000488c:	03333137          	lui	sp,0x3333
    80004890:	3331011b          	addiw	sp,sp,819 # 3333333 <offset+0x333308b>
    80004894:	00c11113          	slli	sp,sp,0xc
    80004898:	33310113          	addi	sp,sp,819
    8000489c:	00c11113          	slli	sp,sp,0xc
    800048a0:	33310113          	addi	sp,sp,819
    800048a4:	00c11113          	slli	sp,sp,0xc
    800048a8:	31010113          	addi	sp,sp,784
    800048ac:	00b10463          	beq	sp,a1,800048b4 <inst_422>
    800048b0:	f74fb06f          	j	80000024 <rvtest_error>

00000000800048b4 <inst_422>:
    800048b4:	33333537          	lui	a0,0x33333
    800048b8:	33350513          	addi	a0,a0,819 # 33333333 <absimmsh+0x27862586>
    800048bc:	00b51513          	slli	a0,a0,0xb
    800048c0:	19950513          	addi	a0,a0,409
    800048c4:	00b51513          	slli	a0,a0,0xb
    800048c8:	4cc50513          	addi	a0,a0,1228
    800048cc:	00a51513          	slli	a0,a0,0xa
    800048d0:	33450513          	addi	a0,a0,820
    800048d4:	02d57593          	andi	a1,a0,45
    800048d8:	48b0b023          	sd	a1,1152(ra)
    800048dc:	02400113          	li	sp,36
    800048e0:	00b10463          	beq	sp,a1,800048e8 <inst_423>
    800048e4:	f40fb06f          	j	80000024 <rvtest_error>

00000000800048e8 <inst_423>:
    800048e8:	33333537          	lui	a0,0x33333
    800048ec:	33350513          	addi	a0,a0,819 # 33333333 <absimmsh+0x27862586>
    800048f0:	00b51513          	slli	a0,a0,0xb
    800048f4:	19950513          	addi	a0,a0,409
    800048f8:	00b51513          	slli	a0,a0,0xb
    800048fc:	4cc50513          	addi	a0,a0,1228
    80004900:	00a51513          	slli	a0,a0,0xa
    80004904:	33450513          	addi	a0,a0,820
    80004908:	00257593          	andi	a1,a0,2
    8000490c:	48b0b423          	sd	a1,1160(ra)
    80004910:	00000113          	li	sp,0
    80004914:	00b10463          	beq	sp,a1,8000491c <inst_424>
    80004918:	f0cfb06f          	j	80000024 <rvtest_error>

000000008000491c <inst_424>:
    8000491c:	33333537          	lui	a0,0x33333
    80004920:	33350513          	addi	a0,a0,819 # 33333333 <absimmsh+0x27862586>
    80004924:	00b51513          	slli	a0,a0,0xb
    80004928:	19950513          	addi	a0,a0,409
    8000492c:	00b51513          	slli	a0,a0,0xb
    80004930:	4cc50513          	addi	a0,a0,1228
    80004934:	00a51513          	slli	a0,a0,0xa
    80004938:	33450513          	addi	a0,a0,820
    8000493c:	55457593          	andi	a1,a0,1364
    80004940:	48b0b823          	sd	a1,1168(ra)
    80004944:	11400113          	li	sp,276
    80004948:	00b10463          	beq	sp,a1,80004950 <inst_425>
    8000494c:	ed8fb06f          	j	80000024 <rvtest_error>

0000000080004950 <inst_425>:
    80004950:	33333537          	lui	a0,0x33333
    80004954:	33350513          	addi	a0,a0,819 # 33333333 <absimmsh+0x27862586>
    80004958:	00b51513          	slli	a0,a0,0xb
    8000495c:	19950513          	addi	a0,a0,409
    80004960:	00b51513          	slli	a0,a0,0xb
    80004964:	4cc50513          	addi	a0,a0,1228
    80004968:	00a51513          	slli	a0,a0,0xa
    8000496c:	33450513          	addi	a0,a0,820
    80004970:	00057593          	andi	a1,a0,0
    80004974:	48b0bc23          	sd	a1,1176(ra)
    80004978:	00000113          	li	sp,0
    8000497c:	00b10463          	beq	sp,a1,80004984 <inst_426>
    80004980:	ea4fb06f          	j	80000024 <rvtest_error>

0000000080004984 <inst_426>:
    80004984:	33333537          	lui	a0,0x33333
    80004988:	33350513          	addi	a0,a0,819 # 33333333 <absimmsh+0x27862586>
    8000498c:	00b51513          	slli	a0,a0,0xb
    80004990:	19950513          	addi	a0,a0,409
    80004994:	00b51513          	slli	a0,a0,0xb
    80004998:	4cc50513          	addi	a0,a0,1228
    8000499c:	00a51513          	slli	a0,a0,0xa
    800049a0:	33450513          	addi	a0,a0,820
    800049a4:	00457593          	andi	a1,a0,4
    800049a8:	4ab0b023          	sd	a1,1184(ra)
    800049ac:	00400113          	li	sp,4
    800049b0:	00b10463          	beq	sp,a1,800049b8 <inst_427>
    800049b4:	e70fb06f          	j	80000024 <rvtest_error>

00000000800049b8 <inst_427>:
    800049b8:	33333537          	lui	a0,0x33333
    800049bc:	33350513          	addi	a0,a0,819 # 33333333 <absimmsh+0x27862586>
    800049c0:	00b51513          	slli	a0,a0,0xb
    800049c4:	19950513          	addi	a0,a0,409
    800049c8:	00b51513          	slli	a0,a0,0xb
    800049cc:	4cc50513          	addi	a0,a0,1228
    800049d0:	00a51513          	slli	a0,a0,0xa
    800049d4:	33450513          	addi	a0,a0,820
    800049d8:	33257593          	andi	a1,a0,818
    800049dc:	4ab0b423          	sd	a1,1192(ra)
    800049e0:	33000113          	li	sp,816
    800049e4:	00b10463          	beq	sp,a1,800049ec <inst_428>
    800049e8:	e3cfb06f          	j	80000024 <rvtest_error>

00000000800049ec <inst_428>:
    800049ec:	33333537          	lui	a0,0x33333
    800049f0:	33350513          	addi	a0,a0,819 # 33333333 <absimmsh+0x27862586>
    800049f4:	00b51513          	slli	a0,a0,0xb
    800049f8:	19950513          	addi	a0,a0,409
    800049fc:	00b51513          	slli	a0,a0,0xb
    80004a00:	4cc50513          	addi	a0,a0,1228
    80004a04:	00a51513          	slli	a0,a0,0xa
    80004a08:	33450513          	addi	a0,a0,820
    80004a0c:	66557593          	andi	a1,a0,1637
    80004a10:	4ab0b823          	sd	a1,1200(ra)
    80004a14:	22400113          	li	sp,548
    80004a18:	00b10463          	beq	sp,a1,80004a20 <inst_429>
    80004a1c:	e08fb06f          	j	80000024 <rvtest_error>

0000000080004a20 <inst_429>:
    80004a20:	33333537          	lui	a0,0x33333
    80004a24:	33350513          	addi	a0,a0,819 # 33333333 <absimmsh+0x27862586>
    80004a28:	00b51513          	slli	a0,a0,0xb
    80004a2c:	19950513          	addi	a0,a0,409
    80004a30:	00b51513          	slli	a0,a0,0xb
    80004a34:	4cc50513          	addi	a0,a0,1228
    80004a38:	00a51513          	slli	a0,a0,0xa
    80004a3c:	33450513          	addi	a0,a0,820
    80004a40:	02c57593          	andi	a1,a0,44
    80004a44:	4ab0bc23          	sd	a1,1208(ra)
    80004a48:	02400113          	li	sp,36
    80004a4c:	00b10463          	beq	sp,a1,80004a54 <inst_430>
    80004a50:	dd4fb06f          	j	80000024 <rvtest_error>

0000000080004a54 <inst_430>:
    80004a54:	33333537          	lui	a0,0x33333
    80004a58:	33350513          	addi	a0,a0,819 # 33333333 <absimmsh+0x27862586>
    80004a5c:	00b51513          	slli	a0,a0,0xb
    80004a60:	19950513          	addi	a0,a0,409
    80004a64:	00b51513          	slli	a0,a0,0xb
    80004a68:	4cc50513          	addi	a0,a0,1228
    80004a6c:	00a51513          	slli	a0,a0,0xa
    80004a70:	33450513          	addi	a0,a0,820
    80004a74:	55657593          	andi	a1,a0,1366
    80004a78:	4cb0b023          	sd	a1,1216(ra)
    80004a7c:	11400113          	li	sp,276
    80004a80:	00b10463          	beq	sp,a1,80004a88 <inst_431>
    80004a84:	da0fb06f          	j	80000024 <rvtest_error>

0000000080004a88 <inst_431>:
    80004a88:	33333537          	lui	a0,0x33333
    80004a8c:	33350513          	addi	a0,a0,819 # 33333333 <absimmsh+0x27862586>
    80004a90:	00b51513          	slli	a0,a0,0xb
    80004a94:	19950513          	addi	a0,a0,409
    80004a98:	00b51513          	slli	a0,a0,0xb
    80004a9c:	4cc50513          	addi	a0,a0,1228
    80004aa0:	00a51513          	slli	a0,a0,0xa
    80004aa4:	33450513          	addi	a0,a0,820
    80004aa8:	aab57593          	andi	a1,a0,-1365
    80004aac:	4cb0b423          	sd	a1,1224(ra)
    80004ab0:	03333137          	lui	sp,0x3333
    80004ab4:	3331011b          	addiw	sp,sp,819 # 3333333 <offset+0x333308b>
    80004ab8:	00c11113          	slli	sp,sp,0xc
    80004abc:	33310113          	addi	sp,sp,819
    80004ac0:	00c11113          	slli	sp,sp,0xc
    80004ac4:	33310113          	addi	sp,sp,819
    80004ac8:	00c11113          	slli	sp,sp,0xc
    80004acc:	22010113          	addi	sp,sp,544
    80004ad0:	00b10463          	beq	sp,a1,80004ad8 <inst_432>
    80004ad4:	d50fb06f          	j	80000024 <rvtest_error>

0000000080004ad8 <inst_432>:
    80004ad8:	33333537          	lui	a0,0x33333
    80004adc:	33350513          	addi	a0,a0,819 # 33333333 <absimmsh+0x27862586>
    80004ae0:	00b51513          	slli	a0,a0,0xb
    80004ae4:	19950513          	addi	a0,a0,409
    80004ae8:	00b51513          	slli	a0,a0,0xb
    80004aec:	4cc50513          	addi	a0,a0,1228
    80004af0:	00a51513          	slli	a0,a0,0xa
    80004af4:	33450513          	addi	a0,a0,820
    80004af8:	00657593          	andi	a1,a0,6
    80004afc:	4cb0b823          	sd	a1,1232(ra)
    80004b00:	00400113          	li	sp,4
    80004b04:	00b10463          	beq	sp,a1,80004b0c <inst_433>
    80004b08:	d1cfb06f          	j	80000024 <rvtest_error>

0000000080004b0c <inst_433>:
    80004b0c:	33333537          	lui	a0,0x33333
    80004b10:	33350513          	addi	a0,a0,819 # 33333333 <absimmsh+0x27862586>
    80004b14:	00b51513          	slli	a0,a0,0xb
    80004b18:	19950513          	addi	a0,a0,409
    80004b1c:	00b51513          	slli	a0,a0,0xb
    80004b20:	4cc50513          	addi	a0,a0,1228
    80004b24:	00a51513          	slli	a0,a0,0xa
    80004b28:	33450513          	addi	a0,a0,820
    80004b2c:	33457593          	andi	a1,a0,820
    80004b30:	4cb0bc23          	sd	a1,1240(ra)
    80004b34:	33400113          	li	sp,820
    80004b38:	00b10463          	beq	sp,a1,80004b40 <inst_434>
    80004b3c:	ce8fb06f          	j	80000024 <rvtest_error>

0000000080004b40 <inst_434>:
    80004b40:	33333537          	lui	a0,0x33333
    80004b44:	33350513          	addi	a0,a0,819 # 33333333 <absimmsh+0x27862586>
    80004b48:	00b51513          	slli	a0,a0,0xb
    80004b4c:	19950513          	addi	a0,a0,409
    80004b50:	00b51513          	slli	a0,a0,0xb
    80004b54:	4cc50513          	addi	a0,a0,1228
    80004b58:	00a51513          	slli	a0,a0,0xa
    80004b5c:	33450513          	addi	a0,a0,820
    80004b60:	66757593          	andi	a1,a0,1639
    80004b64:	4eb0b023          	sd	a1,1248(ra)
    80004b68:	22400113          	li	sp,548
    80004b6c:	00b10463          	beq	sp,a1,80004b74 <inst_435>
    80004b70:	cb4fb06f          	j	80000024 <rvtest_error>

0000000080004b74 <inst_435>:
    80004b74:	33333537          	lui	a0,0x33333
    80004b78:	33350513          	addi	a0,a0,819 # 33333333 <absimmsh+0x27862586>
    80004b7c:	00b51513          	slli	a0,a0,0xb
    80004b80:	19950513          	addi	a0,a0,409
    80004b84:	00b51513          	slli	a0,a0,0xb
    80004b88:	4cc50513          	addi	a0,a0,1228
    80004b8c:	00a51513          	slli	a0,a0,0xa
    80004b90:	33450513          	addi	a0,a0,820
    80004b94:	fd457593          	andi	a1,a0,-44
    80004b98:	4eb0b423          	sd	a1,1256(ra)
    80004b9c:	03333137          	lui	sp,0x3333
    80004ba0:	3331011b          	addiw	sp,sp,819 # 3333333 <offset+0x333308b>
    80004ba4:	00c11113          	slli	sp,sp,0xc
    80004ba8:	33310113          	addi	sp,sp,819
    80004bac:	00c11113          	slli	sp,sp,0xc
    80004bb0:	33310113          	addi	sp,sp,819
    80004bb4:	00c11113          	slli	sp,sp,0xc
    80004bb8:	31410113          	addi	sp,sp,788
    80004bbc:	00b10463          	beq	sp,a1,80004bc4 <inst_436>
    80004bc0:	c64fb06f          	j	80000024 <rvtest_error>

0000000080004bc4 <inst_436>:
    80004bc4:	33333537          	lui	a0,0x33333
    80004bc8:	33350513          	addi	a0,a0,819 # 33333333 <absimmsh+0x27862586>
    80004bcc:	00b51513          	slli	a0,a0,0xb
    80004bd0:	19950513          	addi	a0,a0,409
    80004bd4:	00b51513          	slli	a0,a0,0xb
    80004bd8:	4cc50513          	addi	a0,a0,1228
    80004bdc:	00a51513          	slli	a0,a0,0xa
    80004be0:	33450513          	addi	a0,a0,820
    80004be4:	02e57593          	andi	a1,a0,46
    80004be8:	4eb0b823          	sd	a1,1264(ra)
    80004bec:	02400113          	li	sp,36
    80004bf0:	00b10463          	beq	sp,a1,80004bf8 <inst_437>
    80004bf4:	c30fb06f          	j	80000024 <rvtest_error>

0000000080004bf8 <inst_437>:
    80004bf8:	66666537          	lui	a0,0x66666
    80004bfc:	66650513          	addi	a0,a0,1638 # 66666666 <absimmsh+0x5ab958b9>
    80004c00:	00b51513          	slli	a0,a0,0xb
    80004c04:	33350513          	addi	a0,a0,819
    80004c08:	00b51513          	slli	a0,a0,0xb
    80004c0c:	19950513          	addi	a0,a0,409
    80004c10:	00a51513          	slli	a0,a0,0xa
    80004c14:	26750513          	addi	a0,a0,615
    80004c18:	00357593          	andi	a1,a0,3
    80004c1c:	4eb0bc23          	sd	a1,1272(ra)
    80004c20:	00300113          	li	sp,3
    80004c24:	00b10463          	beq	sp,a1,80004c2c <inst_438>
    80004c28:	bfcfb06f          	j	80000024 <rvtest_error>

0000000080004c2c <inst_438>:
    80004c2c:	66666537          	lui	a0,0x66666
    80004c30:	66650513          	addi	a0,a0,1638 # 66666666 <absimmsh+0x5ab958b9>
    80004c34:	00b51513          	slli	a0,a0,0xb
    80004c38:	33350513          	addi	a0,a0,819
    80004c3c:	00b51513          	slli	a0,a0,0xb
    80004c40:	19950513          	addi	a0,a0,409
    80004c44:	00a51513          	slli	a0,a0,0xa
    80004c48:	26750513          	addi	a0,a0,615
    80004c4c:	55557593          	andi	a1,a0,1365
    80004c50:	50b0b023          	sd	a1,1280(ra)
    80004c54:	44500113          	li	sp,1093
    80004c58:	00b10463          	beq	sp,a1,80004c60 <inst_439>
    80004c5c:	bc8fb06f          	j	80000024 <rvtest_error>

0000000080004c60 <inst_439>:
    80004c60:	66666537          	lui	a0,0x66666
    80004c64:	66650513          	addi	a0,a0,1638 # 66666666 <absimmsh+0x5ab958b9>
    80004c68:	00b51513          	slli	a0,a0,0xb
    80004c6c:	33350513          	addi	a0,a0,819
    80004c70:	00b51513          	slli	a0,a0,0xb
    80004c74:	19950513          	addi	a0,a0,409
    80004c78:	00a51513          	slli	a0,a0,0xa
    80004c7c:	26750513          	addi	a0,a0,615
    80004c80:	aaa57593          	andi	a1,a0,-1366
    80004c84:	50b0b423          	sd	a1,1288(ra)
    80004c88:	03333137          	lui	sp,0x3333
    80004c8c:	3331011b          	addiw	sp,sp,819 # 3333333 <offset+0x333308b>
    80004c90:	00c11113          	slli	sp,sp,0xc
    80004c94:	33310113          	addi	sp,sp,819
    80004c98:	00c11113          	slli	sp,sp,0xc
    80004c9c:	33310113          	addi	sp,sp,819
    80004ca0:	00d11113          	slli	sp,sp,0xd
    80004ca4:	22210113          	addi	sp,sp,546
    80004ca8:	00b10463          	beq	sp,a1,80004cb0 <inst_440>
    80004cac:	b78fb06f          	j	80000024 <rvtest_error>

0000000080004cb0 <inst_440>:
    80004cb0:	66666537          	lui	a0,0x66666
    80004cb4:	66650513          	addi	a0,a0,1638 # 66666666 <absimmsh+0x5ab958b9>
    80004cb8:	00b51513          	slli	a0,a0,0xb
    80004cbc:	33350513          	addi	a0,a0,819
    80004cc0:	00b51513          	slli	a0,a0,0xb
    80004cc4:	19950513          	addi	a0,a0,409
    80004cc8:	00a51513          	slli	a0,a0,0xa
    80004ccc:	26750513          	addi	a0,a0,615
    80004cd0:	00557593          	andi	a1,a0,5
    80004cd4:	50b0b823          	sd	a1,1296(ra)
    80004cd8:	00500113          	li	sp,5
    80004cdc:	00b10463          	beq	sp,a1,80004ce4 <inst_441>
    80004ce0:	b44fb06f          	j	80000024 <rvtest_error>

0000000080004ce4 <inst_441>:
    80004ce4:	66666537          	lui	a0,0x66666
    80004ce8:	66650513          	addi	a0,a0,1638 # 66666666 <absimmsh+0x5ab958b9>
    80004cec:	00b51513          	slli	a0,a0,0xb
    80004cf0:	33350513          	addi	a0,a0,819
    80004cf4:	00b51513          	slli	a0,a0,0xb
    80004cf8:	19950513          	addi	a0,a0,409
    80004cfc:	00a51513          	slli	a0,a0,0xa
    80004d00:	26750513          	addi	a0,a0,615
    80004d04:	33357593          	andi	a1,a0,819
    80004d08:	50b0bc23          	sd	a1,1304(ra)
    80004d0c:	22300113          	li	sp,547
    80004d10:	00b10463          	beq	sp,a1,80004d18 <inst_442>
    80004d14:	b10fb06f          	j	80000024 <rvtest_error>

0000000080004d18 <inst_442>:
    80004d18:	66666537          	lui	a0,0x66666
    80004d1c:	66650513          	addi	a0,a0,1638 # 66666666 <absimmsh+0x5ab958b9>
    80004d20:	00b51513          	slli	a0,a0,0xb
    80004d24:	33350513          	addi	a0,a0,819
    80004d28:	00b51513          	slli	a0,a0,0xb
    80004d2c:	19950513          	addi	a0,a0,409
    80004d30:	00a51513          	slli	a0,a0,0xa
    80004d34:	26750513          	addi	a0,a0,615
    80004d38:	66657593          	andi	a1,a0,1638
    80004d3c:	52b0b023          	sd	a1,1312(ra)
    80004d40:	66600113          	li	sp,1638
    80004d44:	00b10463          	beq	sp,a1,80004d4c <inst_443>
    80004d48:	adcfb06f          	j	80000024 <rvtest_error>

0000000080004d4c <inst_443>:
    80004d4c:	66666537          	lui	a0,0x66666
    80004d50:	66650513          	addi	a0,a0,1638 # 66666666 <absimmsh+0x5ab958b9>
    80004d54:	00b51513          	slli	a0,a0,0xb
    80004d58:	33350513          	addi	a0,a0,819
    80004d5c:	00b51513          	slli	a0,a0,0xb
    80004d60:	19950513          	addi	a0,a0,409
    80004d64:	00a51513          	slli	a0,a0,0xa
    80004d68:	26750513          	addi	a0,a0,615
    80004d6c:	fd357593          	andi	a1,a0,-45
    80004d70:	52b0b423          	sd	a1,1320(ra)
    80004d74:	03333137          	lui	sp,0x3333
    80004d78:	3331011b          	addiw	sp,sp,819 # 3333333 <offset+0x333308b>
    80004d7c:	00c11113          	slli	sp,sp,0xc
    80004d80:	33310113          	addi	sp,sp,819
    80004d84:	00c11113          	slli	sp,sp,0xc
    80004d88:	33310113          	addi	sp,sp,819
    80004d8c:	00d11113          	slli	sp,sp,0xd
    80004d90:	64310113          	addi	sp,sp,1603
    80004d94:	00b10463          	beq	sp,a1,80004d9c <inst_444>
    80004d98:	a8cfb06f          	j	80000024 <rvtest_error>

0000000080004d9c <inst_444>:
    80004d9c:	66666537          	lui	a0,0x66666
    80004da0:	66650513          	addi	a0,a0,1638 # 66666666 <absimmsh+0x5ab958b9>
    80004da4:	00b51513          	slli	a0,a0,0xb
    80004da8:	33350513          	addi	a0,a0,819
    80004dac:	00b51513          	slli	a0,a0,0xb
    80004db0:	19950513          	addi	a0,a0,409
    80004db4:	00a51513          	slli	a0,a0,0xa
    80004db8:	26750513          	addi	a0,a0,615
    80004dbc:	02d57593          	andi	a1,a0,45
    80004dc0:	52b0b823          	sd	a1,1328(ra)
    80004dc4:	02500113          	li	sp,37
    80004dc8:	00b10463          	beq	sp,a1,80004dd0 <inst_445>
    80004dcc:	a58fb06f          	j	80000024 <rvtest_error>

0000000080004dd0 <inst_445>:
    80004dd0:	66666537          	lui	a0,0x66666
    80004dd4:	66650513          	addi	a0,a0,1638 # 66666666 <absimmsh+0x5ab958b9>
    80004dd8:	00b51513          	slli	a0,a0,0xb
    80004ddc:	33350513          	addi	a0,a0,819
    80004de0:	00b51513          	slli	a0,a0,0xb
    80004de4:	19950513          	addi	a0,a0,409
    80004de8:	00a51513          	slli	a0,a0,0xa
    80004dec:	26750513          	addi	a0,a0,615
    80004df0:	00257593          	andi	a1,a0,2
    80004df4:	52b0bc23          	sd	a1,1336(ra)
    80004df8:	00200113          	li	sp,2
    80004dfc:	00b10463          	beq	sp,a1,80004e04 <inst_446>
    80004e00:	a24fb06f          	j	80000024 <rvtest_error>

0000000080004e04 <inst_446>:
    80004e04:	66666537          	lui	a0,0x66666
    80004e08:	66650513          	addi	a0,a0,1638 # 66666666 <absimmsh+0x5ab958b9>
    80004e0c:	00b51513          	slli	a0,a0,0xb
    80004e10:	33350513          	addi	a0,a0,819
    80004e14:	00b51513          	slli	a0,a0,0xb
    80004e18:	19950513          	addi	a0,a0,409
    80004e1c:	00a51513          	slli	a0,a0,0xa
    80004e20:	26750513          	addi	a0,a0,615
    80004e24:	55457593          	andi	a1,a0,1364
    80004e28:	54b0b023          	sd	a1,1344(ra)
    80004e2c:	44400113          	li	sp,1092
    80004e30:	00b10463          	beq	sp,a1,80004e38 <inst_447>
    80004e34:	9f0fb06f          	j	80000024 <rvtest_error>

0000000080004e38 <inst_447>:
    80004e38:	66666537          	lui	a0,0x66666
    80004e3c:	66650513          	addi	a0,a0,1638 # 66666666 <absimmsh+0x5ab958b9>
    80004e40:	00b51513          	slli	a0,a0,0xb
    80004e44:	33350513          	addi	a0,a0,819
    80004e48:	00b51513          	slli	a0,a0,0xb
    80004e4c:	19950513          	addi	a0,a0,409
    80004e50:	00a51513          	slli	a0,a0,0xa
    80004e54:	26750513          	addi	a0,a0,615
    80004e58:	00057593          	andi	a1,a0,0
    80004e5c:	54b0b423          	sd	a1,1352(ra)
    80004e60:	00000113          	li	sp,0
    80004e64:	00b10463          	beq	sp,a1,80004e6c <inst_448>
    80004e68:	9bcfb06f          	j	80000024 <rvtest_error>

0000000080004e6c <inst_448>:
    80004e6c:	66666537          	lui	a0,0x66666
    80004e70:	66650513          	addi	a0,a0,1638 # 66666666 <absimmsh+0x5ab958b9>
    80004e74:	00b51513          	slli	a0,a0,0xb
    80004e78:	33350513          	addi	a0,a0,819
    80004e7c:	00b51513          	slli	a0,a0,0xb
    80004e80:	19950513          	addi	a0,a0,409
    80004e84:	00a51513          	slli	a0,a0,0xa
    80004e88:	26750513          	addi	a0,a0,615
    80004e8c:	00457593          	andi	a1,a0,4
    80004e90:	54b0b823          	sd	a1,1360(ra)
    80004e94:	00400113          	li	sp,4
    80004e98:	00b10463          	beq	sp,a1,80004ea0 <inst_449>
    80004e9c:	988fb06f          	j	80000024 <rvtest_error>

0000000080004ea0 <inst_449>:
    80004ea0:	66666537          	lui	a0,0x66666
    80004ea4:	66650513          	addi	a0,a0,1638 # 66666666 <absimmsh+0x5ab958b9>
    80004ea8:	00b51513          	slli	a0,a0,0xb
    80004eac:	33350513          	addi	a0,a0,819
    80004eb0:	00b51513          	slli	a0,a0,0xb
    80004eb4:	19950513          	addi	a0,a0,409
    80004eb8:	00a51513          	slli	a0,a0,0xa
    80004ebc:	26750513          	addi	a0,a0,615
    80004ec0:	33257593          	andi	a1,a0,818
    80004ec4:	54b0bc23          	sd	a1,1368(ra)
    80004ec8:	22200113          	li	sp,546
    80004ecc:	00b10463          	beq	sp,a1,80004ed4 <inst_450>
    80004ed0:	954fb06f          	j	80000024 <rvtest_error>

0000000080004ed4 <inst_450>:
    80004ed4:	66666537          	lui	a0,0x66666
    80004ed8:	66650513          	addi	a0,a0,1638 # 66666666 <absimmsh+0x5ab958b9>
    80004edc:	00b51513          	slli	a0,a0,0xb
    80004ee0:	33350513          	addi	a0,a0,819
    80004ee4:	00b51513          	slli	a0,a0,0xb
    80004ee8:	19950513          	addi	a0,a0,409
    80004eec:	00a51513          	slli	a0,a0,0xa
    80004ef0:	26750513          	addi	a0,a0,615
    80004ef4:	66557593          	andi	a1,a0,1637
    80004ef8:	56b0b023          	sd	a1,1376(ra)
    80004efc:	66500113          	li	sp,1637
    80004f00:	00b10463          	beq	sp,a1,80004f08 <inst_451>
    80004f04:	920fb06f          	j	80000024 <rvtest_error>

0000000080004f08 <inst_451>:
    80004f08:	66666537          	lui	a0,0x66666
    80004f0c:	66650513          	addi	a0,a0,1638 # 66666666 <absimmsh+0x5ab958b9>
    80004f10:	00b51513          	slli	a0,a0,0xb
    80004f14:	33350513          	addi	a0,a0,819
    80004f18:	00b51513          	slli	a0,a0,0xb
    80004f1c:	19950513          	addi	a0,a0,409
    80004f20:	00a51513          	slli	a0,a0,0xa
    80004f24:	26750513          	addi	a0,a0,615
    80004f28:	02c57593          	andi	a1,a0,44
    80004f2c:	56b0b423          	sd	a1,1384(ra)
    80004f30:	02400113          	li	sp,36
    80004f34:	00b10463          	beq	sp,a1,80004f3c <inst_452>
    80004f38:	8ecfb06f          	j	80000024 <rvtest_error>

0000000080004f3c <inst_452>:
    80004f3c:	66666537          	lui	a0,0x66666
    80004f40:	66650513          	addi	a0,a0,1638 # 66666666 <absimmsh+0x5ab958b9>
    80004f44:	00b51513          	slli	a0,a0,0xb
    80004f48:	33350513          	addi	a0,a0,819
    80004f4c:	00b51513          	slli	a0,a0,0xb
    80004f50:	19950513          	addi	a0,a0,409
    80004f54:	00a51513          	slli	a0,a0,0xa
    80004f58:	26750513          	addi	a0,a0,615
    80004f5c:	55657593          	andi	a1,a0,1366
    80004f60:	56b0b823          	sd	a1,1392(ra)
    80004f64:	44600113          	li	sp,1094
    80004f68:	00b10463          	beq	sp,a1,80004f70 <inst_453>
    80004f6c:	8b8fb06f          	j	80000024 <rvtest_error>

0000000080004f70 <inst_453>:
    80004f70:	66666537          	lui	a0,0x66666
    80004f74:	66650513          	addi	a0,a0,1638 # 66666666 <absimmsh+0x5ab958b9>
    80004f78:	00b51513          	slli	a0,a0,0xb
    80004f7c:	33350513          	addi	a0,a0,819
    80004f80:	00b51513          	slli	a0,a0,0xb
    80004f84:	19950513          	addi	a0,a0,409
    80004f88:	00a51513          	slli	a0,a0,0xa
    80004f8c:	26750513          	addi	a0,a0,615
    80004f90:	aab57593          	andi	a1,a0,-1365
    80004f94:	56b0bc23          	sd	a1,1400(ra)
    80004f98:	03333137          	lui	sp,0x3333
    80004f9c:	3331011b          	addiw	sp,sp,819 # 3333333 <offset+0x333308b>
    80004fa0:	00c11113          	slli	sp,sp,0xc
    80004fa4:	33310113          	addi	sp,sp,819
    80004fa8:	00c11113          	slli	sp,sp,0xc
    80004fac:	33310113          	addi	sp,sp,819
    80004fb0:	00d11113          	slli	sp,sp,0xd
    80004fb4:	22310113          	addi	sp,sp,547
    80004fb8:	00b10463          	beq	sp,a1,80004fc0 <inst_454>
    80004fbc:	868fb06f          	j	80000024 <rvtest_error>

0000000080004fc0 <inst_454>:
    80004fc0:	66666537          	lui	a0,0x66666
    80004fc4:	66650513          	addi	a0,a0,1638 # 66666666 <absimmsh+0x5ab958b9>
    80004fc8:	00b51513          	slli	a0,a0,0xb
    80004fcc:	33350513          	addi	a0,a0,819
    80004fd0:	00b51513          	slli	a0,a0,0xb
    80004fd4:	19950513          	addi	a0,a0,409
    80004fd8:	00a51513          	slli	a0,a0,0xa
    80004fdc:	26750513          	addi	a0,a0,615
    80004fe0:	00657593          	andi	a1,a0,6
    80004fe4:	58b0b023          	sd	a1,1408(ra)
    80004fe8:	00600113          	li	sp,6
    80004fec:	00b10463          	beq	sp,a1,80004ff4 <inst_455>
    80004ff0:	834fb06f          	j	80000024 <rvtest_error>

0000000080004ff4 <inst_455>:
    80004ff4:	66666537          	lui	a0,0x66666
    80004ff8:	66650513          	addi	a0,a0,1638 # 66666666 <absimmsh+0x5ab958b9>
    80004ffc:	00b51513          	slli	a0,a0,0xb
    80005000:	33350513          	addi	a0,a0,819
    80005004:	00b51513          	slli	a0,a0,0xb
    80005008:	19950513          	addi	a0,a0,409
    8000500c:	00a51513          	slli	a0,a0,0xa
    80005010:	26750513          	addi	a0,a0,615
    80005014:	33457593          	andi	a1,a0,820
    80005018:	58b0b423          	sd	a1,1416(ra)
    8000501c:	22400113          	li	sp,548
    80005020:	00b10463          	beq	sp,a1,80005028 <inst_456>
    80005024:	800fb06f          	j	80000024 <rvtest_error>

0000000080005028 <inst_456>:
    80005028:	66666537          	lui	a0,0x66666
    8000502c:	66650513          	addi	a0,a0,1638 # 66666666 <absimmsh+0x5ab958b9>
    80005030:	00b51513          	slli	a0,a0,0xb
    80005034:	33350513          	addi	a0,a0,819
    80005038:	00b51513          	slli	a0,a0,0xb
    8000503c:	19950513          	addi	a0,a0,409
    80005040:	00a51513          	slli	a0,a0,0xa
    80005044:	26750513          	addi	a0,a0,615
    80005048:	66757593          	andi	a1,a0,1639
    8000504c:	58b0b823          	sd	a1,1424(ra)
    80005050:	66700113          	li	sp,1639
    80005054:	00b10463          	beq	sp,a1,8000505c <inst_457>
    80005058:	fcdfa06f          	j	80000024 <rvtest_error>

000000008000505c <inst_457>:
    8000505c:	66666537          	lui	a0,0x66666
    80005060:	66650513          	addi	a0,a0,1638 # 66666666 <absimmsh+0x5ab958b9>
    80005064:	00b51513          	slli	a0,a0,0xb
    80005068:	33350513          	addi	a0,a0,819
    8000506c:	00b51513          	slli	a0,a0,0xb
    80005070:	19950513          	addi	a0,a0,409
    80005074:	00a51513          	slli	a0,a0,0xa
    80005078:	26750513          	addi	a0,a0,615
    8000507c:	fd457593          	andi	a1,a0,-44
    80005080:	58b0bc23          	sd	a1,1432(ra)
    80005084:	03333137          	lui	sp,0x3333
    80005088:	3331011b          	addiw	sp,sp,819 # 3333333 <offset+0x333308b>
    8000508c:	00c11113          	slli	sp,sp,0xc
    80005090:	33310113          	addi	sp,sp,819
    80005094:	00c11113          	slli	sp,sp,0xc
    80005098:	33310113          	addi	sp,sp,819
    8000509c:	00d11113          	slli	sp,sp,0xd
    800050a0:	64410113          	addi	sp,sp,1604
    800050a4:	00b10463          	beq	sp,a1,800050ac <inst_458>
    800050a8:	f7dfa06f          	j	80000024 <rvtest_error>

00000000800050ac <inst_458>:
    800050ac:	66666537          	lui	a0,0x66666
    800050b0:	66650513          	addi	a0,a0,1638 # 66666666 <absimmsh+0x5ab958b9>
    800050b4:	00b51513          	slli	a0,a0,0xb
    800050b8:	33350513          	addi	a0,a0,819
    800050bc:	00b51513          	slli	a0,a0,0xb
    800050c0:	19950513          	addi	a0,a0,409
    800050c4:	00a51513          	slli	a0,a0,0xa
    800050c8:	26750513          	addi	a0,a0,615
    800050cc:	02e57593          	andi	a1,a0,46
    800050d0:	5ab0b023          	sd	a1,1440(ra)
    800050d4:	02600113          	li	sp,38
    800050d8:	00b10463          	beq	sp,a1,800050e0 <inst_459>
    800050dc:	f49fa06f          	j	80000024 <rvtest_error>

00000000800050e0 <inst_459>:
    800050e0:	00000537          	lui	a0,0x0
    800050e4:	fff50513          	addi	a0,a0,-1
    800050e8:	00b51513          	slli	a0,a0,0xb
    800050ec:	25750513          	addi	a0,a0,599
    800050f0:	00b51513          	slli	a0,a0,0xb
    800050f4:	6c350513          	addi	a0,a0,1731
    800050f8:	00a51513          	slli	a0,a0,0xa
    800050fc:	0ce50513          	addi	a0,a0,206
    80005100:	00357593          	andi	a1,a0,3
    80005104:	5ab0b423          	sd	a1,1448(ra)
    80005108:	00200113          	li	sp,2
    8000510c:	00b10463          	beq	sp,a1,80005114 <inst_460>
    80005110:	f15fa06f          	j	80000024 <rvtest_error>

0000000080005114 <inst_460>:
    80005114:	00000537          	lui	a0,0x0
    80005118:	fff50513          	addi	a0,a0,-1
    8000511c:	00b51513          	slli	a0,a0,0xb
    80005120:	25750513          	addi	a0,a0,599
    80005124:	00b51513          	slli	a0,a0,0xb
    80005128:	6c350513          	addi	a0,a0,1731
    8000512c:	00a51513          	slli	a0,a0,0xa
    80005130:	0ce50513          	addi	a0,a0,206
    80005134:	55557593          	andi	a1,a0,1365
    80005138:	5ab0b823          	sd	a1,1456(ra)
    8000513c:	44400113          	li	sp,1092
    80005140:	00b10463          	beq	sp,a1,80005148 <inst_461>
    80005144:	ee1fa06f          	j	80000024 <rvtest_error>

0000000080005148 <inst_461>:
    80005148:	00000537          	lui	a0,0x0
    8000514c:	fff50513          	addi	a0,a0,-1
    80005150:	00b51513          	slli	a0,a0,0xb
    80005154:	25750513          	addi	a0,a0,599
    80005158:	00b51513          	slli	a0,a0,0xb
    8000515c:	6c350513          	addi	a0,a0,1731
    80005160:	00a51513          	slli	a0,a0,0xa
    80005164:	0ce50513          	addi	a0,a0,206
    80005168:	aaa57593          	andi	a1,a0,-1366
    8000516c:	5ab0bc23          	sd	a1,1464(ra)
    80005170:	fff4b137          	lui	sp,0xfff4b
    80005174:	fb11011b          	addiw	sp,sp,-79 # fffffffffff4afb1 <absimm+0xffffffff4523d4e1>
    80005178:	00c11113          	slli	sp,sp,0xc
    8000517c:	88a10113          	addi	sp,sp,-1910
    80005180:	00b10463          	beq	sp,a1,80005188 <inst_462>
    80005184:	ea1fa06f          	j	80000024 <rvtest_error>

0000000080005188 <inst_462>:
    80005188:	00000537          	lui	a0,0x0
    8000518c:	fff50513          	addi	a0,a0,-1
    80005190:	00b51513          	slli	a0,a0,0xb
    80005194:	25750513          	addi	a0,a0,599
    80005198:	00b51513          	slli	a0,a0,0xb
    8000519c:	6c350513          	addi	a0,a0,1731
    800051a0:	00a51513          	slli	a0,a0,0xa
    800051a4:	0ce50513          	addi	a0,a0,206
    800051a8:	00557593          	andi	a1,a0,5
    800051ac:	5cb0b023          	sd	a1,1472(ra)
    800051b0:	00400113          	li	sp,4
    800051b4:	00b10463          	beq	sp,a1,800051bc <inst_463>
    800051b8:	e6dfa06f          	j	80000024 <rvtest_error>

00000000800051bc <inst_463>:
    800051bc:	00000537          	lui	a0,0x0
    800051c0:	fff50513          	addi	a0,a0,-1
    800051c4:	00b51513          	slli	a0,a0,0xb
    800051c8:	25750513          	addi	a0,a0,599
    800051cc:	00b51513          	slli	a0,a0,0xb
    800051d0:	6c350513          	addi	a0,a0,1731
    800051d4:	00a51513          	slli	a0,a0,0xa
    800051d8:	0ce50513          	addi	a0,a0,206
    800051dc:	33357593          	andi	a1,a0,819
    800051e0:	5cb0b423          	sd	a1,1480(ra)
    800051e4:	00200113          	li	sp,2
    800051e8:	00b10463          	beq	sp,a1,800051f0 <inst_464>
    800051ec:	e39fa06f          	j	80000024 <rvtest_error>

00000000800051f0 <inst_464>:
    800051f0:	00000537          	lui	a0,0x0
    800051f4:	fff50513          	addi	a0,a0,-1
    800051f8:	00b51513          	slli	a0,a0,0xb
    800051fc:	25750513          	addi	a0,a0,599
    80005200:	00b51513          	slli	a0,a0,0xb
    80005204:	6c350513          	addi	a0,a0,1731
    80005208:	00a51513          	slli	a0,a0,0xa
    8000520c:	0ce50513          	addi	a0,a0,206
    80005210:	66657593          	andi	a1,a0,1638
    80005214:	5cb0b823          	sd	a1,1488(ra)
    80005218:	44600113          	li	sp,1094
    8000521c:	00b10463          	beq	sp,a1,80005224 <inst_465>
    80005220:	e05fa06f          	j	80000024 <rvtest_error>

0000000080005224 <inst_465>:
    80005224:	00000537          	lui	a0,0x0
    80005228:	fff50513          	addi	a0,a0,-1
    8000522c:	00b51513          	slli	a0,a0,0xb
    80005230:	25750513          	addi	a0,a0,599
    80005234:	00b51513          	slli	a0,a0,0xb
    80005238:	6c350513          	addi	a0,a0,1731
    8000523c:	00a51513          	slli	a0,a0,0xa
    80005240:	0ce50513          	addi	a0,a0,206
    80005244:	fd357593          	andi	a1,a0,-45
    80005248:	5cb0bc23          	sd	a1,1496(ra)
    8000524c:	fff4b137          	lui	sp,0xfff4b
    80005250:	fb11011b          	addiw	sp,sp,-79 # fffffffffff4afb1 <absimm+0xffffffff4523d4e1>
    80005254:	00c11113          	slli	sp,sp,0xc
    80005258:	cc210113          	addi	sp,sp,-830
    8000525c:	00b10463          	beq	sp,a1,80005264 <inst_466>
    80005260:	dc5fa06f          	j	80000024 <rvtest_error>

0000000080005264 <inst_466>:
    80005264:	00000537          	lui	a0,0x0
    80005268:	fff50513          	addi	a0,a0,-1
    8000526c:	00b51513          	slli	a0,a0,0xb
    80005270:	25750513          	addi	a0,a0,599
    80005274:	00b51513          	slli	a0,a0,0xb
    80005278:	6c350513          	addi	a0,a0,1731
    8000527c:	00a51513          	slli	a0,a0,0xa
    80005280:	0ce50513          	addi	a0,a0,206
    80005284:	02d57593          	andi	a1,a0,45
    80005288:	5eb0b023          	sd	a1,1504(ra)
    8000528c:	00c00113          	li	sp,12
    80005290:	00b10463          	beq	sp,a1,80005298 <inst_467>
    80005294:	d91fa06f          	j	80000024 <rvtest_error>

0000000080005298 <inst_467>:
    80005298:	00000537          	lui	a0,0x0
    8000529c:	fff50513          	addi	a0,a0,-1
    800052a0:	00b51513          	slli	a0,a0,0xb
    800052a4:	25750513          	addi	a0,a0,599
    800052a8:	00b51513          	slli	a0,a0,0xb
    800052ac:	6c350513          	addi	a0,a0,1731
    800052b0:	00a51513          	slli	a0,a0,0xa
    800052b4:	0ce50513          	addi	a0,a0,206
    800052b8:	00257593          	andi	a1,a0,2
    800052bc:	5eb0b423          	sd	a1,1512(ra)
    800052c0:	00200113          	li	sp,2
    800052c4:	00b10463          	beq	sp,a1,800052cc <inst_468>
    800052c8:	d5dfa06f          	j	80000024 <rvtest_error>

00000000800052cc <inst_468>:
    800052cc:	00000537          	lui	a0,0x0
    800052d0:	fff50513          	addi	a0,a0,-1
    800052d4:	00b51513          	slli	a0,a0,0xb
    800052d8:	25750513          	addi	a0,a0,599
    800052dc:	00b51513          	slli	a0,a0,0xb
    800052e0:	6c350513          	addi	a0,a0,1731
    800052e4:	00a51513          	slli	a0,a0,0xa
    800052e8:	0ce50513          	addi	a0,a0,206
    800052ec:	55457593          	andi	a1,a0,1364
    800052f0:	5eb0b823          	sd	a1,1520(ra)
    800052f4:	44400113          	li	sp,1092
    800052f8:	00b10463          	beq	sp,a1,80005300 <inst_469>
    800052fc:	d29fa06f          	j	80000024 <rvtest_error>

0000000080005300 <inst_469>:
    80005300:	00000537          	lui	a0,0x0
    80005304:	fff50513          	addi	a0,a0,-1
    80005308:	00b51513          	slli	a0,a0,0xb
    8000530c:	25750513          	addi	a0,a0,599
    80005310:	00b51513          	slli	a0,a0,0xb
    80005314:	6c350513          	addi	a0,a0,1731
    80005318:	00a51513          	slli	a0,a0,0xa
    8000531c:	0ce50513          	addi	a0,a0,206
    80005320:	00057593          	andi	a1,a0,0
    80005324:	5eb0bc23          	sd	a1,1528(ra)
    80005328:	00000113          	li	sp,0
    8000532c:	00b10463          	beq	sp,a1,80005334 <inst_470>
    80005330:	cf5fa06f          	j	80000024 <rvtest_error>

0000000080005334 <inst_470>:
    80005334:	00000537          	lui	a0,0x0
    80005338:	fff50513          	addi	a0,a0,-1
    8000533c:	00b51513          	slli	a0,a0,0xb
    80005340:	25750513          	addi	a0,a0,599
    80005344:	00b51513          	slli	a0,a0,0xb
    80005348:	6c350513          	addi	a0,a0,1731
    8000534c:	00a51513          	slli	a0,a0,0xa
    80005350:	0ce50513          	addi	a0,a0,206
    80005354:	00457593          	andi	a1,a0,4
    80005358:	60b0b023          	sd	a1,1536(ra)
    8000535c:	00400113          	li	sp,4
    80005360:	00b10463          	beq	sp,a1,80005368 <inst_471>
    80005364:	cc1fa06f          	j	80000024 <rvtest_error>

0000000080005368 <inst_471>:
    80005368:	00000537          	lui	a0,0x0
    8000536c:	fff50513          	addi	a0,a0,-1
    80005370:	00b51513          	slli	a0,a0,0xb
    80005374:	25750513          	addi	a0,a0,599
    80005378:	00b51513          	slli	a0,a0,0xb
    8000537c:	6c350513          	addi	a0,a0,1731
    80005380:	00a51513          	slli	a0,a0,0xa
    80005384:	0ce50513          	addi	a0,a0,206
    80005388:	33257593          	andi	a1,a0,818
    8000538c:	60b0b423          	sd	a1,1544(ra)
    80005390:	00200113          	li	sp,2
    80005394:	00b10463          	beq	sp,a1,8000539c <inst_472>
    80005398:	c8dfa06f          	j	80000024 <rvtest_error>

000000008000539c <inst_472>:
    8000539c:	00000537          	lui	a0,0x0
    800053a0:	fff50513          	addi	a0,a0,-1
    800053a4:	00b51513          	slli	a0,a0,0xb
    800053a8:	25750513          	addi	a0,a0,599
    800053ac:	00b51513          	slli	a0,a0,0xb
    800053b0:	6c350513          	addi	a0,a0,1731
    800053b4:	00a51513          	slli	a0,a0,0xa
    800053b8:	0ce50513          	addi	a0,a0,206
    800053bc:	66557593          	andi	a1,a0,1637
    800053c0:	60b0b823          	sd	a1,1552(ra)
    800053c4:	44400113          	li	sp,1092
    800053c8:	00b10463          	beq	sp,a1,800053d0 <inst_473>
    800053cc:	c59fa06f          	j	80000024 <rvtest_error>

00000000800053d0 <inst_473>:
    800053d0:	00000537          	lui	a0,0x0
    800053d4:	fff50513          	addi	a0,a0,-1
    800053d8:	00b51513          	slli	a0,a0,0xb
    800053dc:	25750513          	addi	a0,a0,599
    800053e0:	00b51513          	slli	a0,a0,0xb
    800053e4:	6c350513          	addi	a0,a0,1731
    800053e8:	00a51513          	slli	a0,a0,0xa
    800053ec:	0ce50513          	addi	a0,a0,206
    800053f0:	02c57593          	andi	a1,a0,44
    800053f4:	60b0bc23          	sd	a1,1560(ra)
    800053f8:	00c00113          	li	sp,12
    800053fc:	00b10463          	beq	sp,a1,80005404 <inst_474>
    80005400:	c25fa06f          	j	80000024 <rvtest_error>

0000000080005404 <inst_474>:
    80005404:	00000537          	lui	a0,0x0
    80005408:	fff50513          	addi	a0,a0,-1
    8000540c:	00b51513          	slli	a0,a0,0xb
    80005410:	25750513          	addi	a0,a0,599
    80005414:	00b51513          	slli	a0,a0,0xb
    80005418:	6c350513          	addi	a0,a0,1731
    8000541c:	00a51513          	slli	a0,a0,0xa
    80005420:	0ce50513          	addi	a0,a0,206
    80005424:	55657593          	andi	a1,a0,1366
    80005428:	62b0b023          	sd	a1,1568(ra)
    8000542c:	44600113          	li	sp,1094
    80005430:	00b10463          	beq	sp,a1,80005438 <inst_475>
    80005434:	bf1fa06f          	j	80000024 <rvtest_error>

0000000080005438 <inst_475>:
    80005438:	00000537          	lui	a0,0x0
    8000543c:	fff50513          	addi	a0,a0,-1
    80005440:	00b51513          	slli	a0,a0,0xb
    80005444:	25750513          	addi	a0,a0,599
    80005448:	00b51513          	slli	a0,a0,0xb
    8000544c:	6c350513          	addi	a0,a0,1731
    80005450:	00a51513          	slli	a0,a0,0xa
    80005454:	0ce50513          	addi	a0,a0,206
    80005458:	aab57593          	andi	a1,a0,-1365
    8000545c:	62b0b423          	sd	a1,1576(ra)
    80005460:	fff4b137          	lui	sp,0xfff4b
    80005464:	fb11011b          	addiw	sp,sp,-79 # fffffffffff4afb1 <absimm+0xffffffff4523d4e1>
    80005468:	00c11113          	slli	sp,sp,0xc
    8000546c:	88a10113          	addi	sp,sp,-1910
    80005470:	00b10463          	beq	sp,a1,80005478 <inst_476>
    80005474:	bb1fa06f          	j	80000024 <rvtest_error>

0000000080005478 <inst_476>:
    80005478:	00000537          	lui	a0,0x0
    8000547c:	fff50513          	addi	a0,a0,-1
    80005480:	00b51513          	slli	a0,a0,0xb
    80005484:	25750513          	addi	a0,a0,599
    80005488:	00b51513          	slli	a0,a0,0xb
    8000548c:	6c350513          	addi	a0,a0,1731
    80005490:	00a51513          	slli	a0,a0,0xa
    80005494:	0ce50513          	addi	a0,a0,206
    80005498:	00657593          	andi	a1,a0,6
    8000549c:	62b0b823          	sd	a1,1584(ra)
    800054a0:	00600113          	li	sp,6
    800054a4:	00b10463          	beq	sp,a1,800054ac <inst_477>
    800054a8:	b7dfa06f          	j	80000024 <rvtest_error>

00000000800054ac <inst_477>:
    800054ac:	00000537          	lui	a0,0x0
    800054b0:	fff50513          	addi	a0,a0,-1
    800054b4:	00b51513          	slli	a0,a0,0xb
    800054b8:	25750513          	addi	a0,a0,599
    800054bc:	00b51513          	slli	a0,a0,0xb
    800054c0:	6c350513          	addi	a0,a0,1731
    800054c4:	00a51513          	slli	a0,a0,0xa
    800054c8:	0ce50513          	addi	a0,a0,206
    800054cc:	33457593          	andi	a1,a0,820
    800054d0:	62b0bc23          	sd	a1,1592(ra)
    800054d4:	00400113          	li	sp,4
    800054d8:	00b10463          	beq	sp,a1,800054e0 <inst_478>
    800054dc:	b49fa06f          	j	80000024 <rvtest_error>

00000000800054e0 <inst_478>:
    800054e0:	00000537          	lui	a0,0x0
    800054e4:	fff50513          	addi	a0,a0,-1
    800054e8:	00b51513          	slli	a0,a0,0xb
    800054ec:	25750513          	addi	a0,a0,599
    800054f0:	00b51513          	slli	a0,a0,0xb
    800054f4:	6c350513          	addi	a0,a0,1731
    800054f8:	00a51513          	slli	a0,a0,0xa
    800054fc:	0ce50513          	addi	a0,a0,206
    80005500:	66757593          	andi	a1,a0,1639
    80005504:	64b0b023          	sd	a1,1600(ra)
    80005508:	44600113          	li	sp,1094
    8000550c:	00b10463          	beq	sp,a1,80005514 <inst_479>
    80005510:	b15fa06f          	j	80000024 <rvtest_error>

0000000080005514 <inst_479>:
    80005514:	00000537          	lui	a0,0x0
    80005518:	fff50513          	addi	a0,a0,-1
    8000551c:	00b51513          	slli	a0,a0,0xb
    80005520:	25750513          	addi	a0,a0,599
    80005524:	00b51513          	slli	a0,a0,0xb
    80005528:	6c350513          	addi	a0,a0,1731
    8000552c:	00a51513          	slli	a0,a0,0xa
    80005530:	0ce50513          	addi	a0,a0,206
    80005534:	fd457593          	andi	a1,a0,-44
    80005538:	64b0b423          	sd	a1,1608(ra)
    8000553c:	fff4b137          	lui	sp,0xfff4b
    80005540:	fb11011b          	addiw	sp,sp,-79 # fffffffffff4afb1 <absimm+0xffffffff4523d4e1>
    80005544:	00c11113          	slli	sp,sp,0xc
    80005548:	cc410113          	addi	sp,sp,-828
    8000554c:	00b10463          	beq	sp,a1,80005554 <inst_480>
    80005550:	ad5fa06f          	j	80000024 <rvtest_error>

0000000080005554 <inst_480>:
    80005554:	00000537          	lui	a0,0x0
    80005558:	fff50513          	addi	a0,a0,-1
    8000555c:	00b51513          	slli	a0,a0,0xb
    80005560:	25750513          	addi	a0,a0,599
    80005564:	00b51513          	slli	a0,a0,0xb
    80005568:	6c350513          	addi	a0,a0,1731
    8000556c:	00a51513          	slli	a0,a0,0xa
    80005570:	0ce50513          	addi	a0,a0,206
    80005574:	02e57593          	andi	a1,a0,46
    80005578:	64b0b823          	sd	a1,1616(ra)
    8000557c:	00e00113          	li	sp,14
    80005580:	00b10463          	beq	sp,a1,80005588 <inst_481>
    80005584:	aa1fa06f          	j	80000024 <rvtest_error>

0000000080005588 <inst_481>:
    80005588:	00000537          	lui	a0,0x0
    8000558c:	00050513          	mv	a0,a0
    80005590:	00b51513          	slli	a0,a0,0xb
    80005594:	5a850513          	addi	a0,a0,1448 # 5a8 <offset+0x300>
    80005598:	00b51513          	slli	a0,a0,0xb
    8000559c:	13c50513          	addi	a0,a0,316
    800055a0:	00a51513          	slli	a0,a0,0xa
    800055a4:	33450513          	addi	a0,a0,820
    800055a8:	00357593          	andi	a1,a0,3
    800055ac:	64b0bc23          	sd	a1,1624(ra)
    800055b0:	00000113          	li	sp,0
    800055b4:	00b10463          	beq	sp,a1,800055bc <inst_482>
    800055b8:	a6dfa06f          	j	80000024 <rvtest_error>

00000000800055bc <inst_482>:
    800055bc:	00000537          	lui	a0,0x0
    800055c0:	00050513          	mv	a0,a0
    800055c4:	00b51513          	slli	a0,a0,0xb
    800055c8:	5a850513          	addi	a0,a0,1448 # 5a8 <offset+0x300>
    800055cc:	00b51513          	slli	a0,a0,0xb
    800055d0:	13c50513          	addi	a0,a0,316
    800055d4:	00a51513          	slli	a0,a0,0xa
    800055d8:	33450513          	addi	a0,a0,820
    800055dc:	aaa57593          	andi	a1,a0,-1366
    800055e0:	66b0b023          	sd	a1,1632(ra)
    800055e4:	000b5137          	lui	sp,0xb5
    800055e8:	04f1011b          	addiw	sp,sp,79 # b504f <offset+0xb4da7>
    800055ec:	00c11113          	slli	sp,sp,0xc
    800055f0:	22010113          	addi	sp,sp,544
    800055f4:	00b10463          	beq	sp,a1,800055fc <inst_483>
    800055f8:	a2dfa06f          	j	80000024 <rvtest_error>

00000000800055fc <inst_483>:
    800055fc:	00000537          	lui	a0,0x0
    80005600:	00050513          	mv	a0,a0
    80005604:	00b51513          	slli	a0,a0,0xb
    80005608:	5a850513          	addi	a0,a0,1448 # 5a8 <offset+0x300>
    8000560c:	00b51513          	slli	a0,a0,0xb
    80005610:	13c50513          	addi	a0,a0,316
    80005614:	00a51513          	slli	a0,a0,0xa
    80005618:	33450513          	addi	a0,a0,820
    8000561c:	00557593          	andi	a1,a0,5
    80005620:	66b0b423          	sd	a1,1640(ra)
    80005624:	00400113          	li	sp,4
    80005628:	00b10463          	beq	sp,a1,80005630 <inst_484>
    8000562c:	9f9fa06f          	j	80000024 <rvtest_error>

0000000080005630 <inst_484>:
    80005630:	00000537          	lui	a0,0x0
    80005634:	00050513          	mv	a0,a0
    80005638:	00b51513          	slli	a0,a0,0xb
    8000563c:	5a850513          	addi	a0,a0,1448 # 5a8 <offset+0x300>
    80005640:	00b51513          	slli	a0,a0,0xb
    80005644:	13c50513          	addi	a0,a0,316
    80005648:	00a51513          	slli	a0,a0,0xa
    8000564c:	33450513          	addi	a0,a0,820
    80005650:	33357593          	andi	a1,a0,819
    80005654:	66b0b823          	sd	a1,1648(ra)
    80005658:	33000113          	li	sp,816
    8000565c:	00b10463          	beq	sp,a1,80005664 <inst_485>
    80005660:	9c5fa06f          	j	80000024 <rvtest_error>

0000000080005664 <inst_485>:
    80005664:	00000537          	lui	a0,0x0
    80005668:	00050513          	mv	a0,a0
    8000566c:	00b51513          	slli	a0,a0,0xb
    80005670:	5a850513          	addi	a0,a0,1448 # 5a8 <offset+0x300>
    80005674:	00b51513          	slli	a0,a0,0xb
    80005678:	13c50513          	addi	a0,a0,316
    8000567c:	00a51513          	slli	a0,a0,0xa
    80005680:	33450513          	addi	a0,a0,820
    80005684:	66657593          	andi	a1,a0,1638
    80005688:	66b0bc23          	sd	a1,1656(ra)
    8000568c:	22400113          	li	sp,548
    80005690:	00b10463          	beq	sp,a1,80005698 <inst_486>
    80005694:	991fa06f          	j	80000024 <rvtest_error>

0000000080005698 <inst_486>:
    80005698:	00000537          	lui	a0,0x0
    8000569c:	00050513          	mv	a0,a0
    800056a0:	00b51513          	slli	a0,a0,0xb
    800056a4:	5a850513          	addi	a0,a0,1448 # 5a8 <offset+0x300>
    800056a8:	00b51513          	slli	a0,a0,0xb
    800056ac:	13c50513          	addi	a0,a0,316
    800056b0:	00a51513          	slli	a0,a0,0xa
    800056b4:	33450513          	addi	a0,a0,820
    800056b8:	fd357593          	andi	a1,a0,-45
    800056bc:	68b0b023          	sd	a1,1664(ra)
    800056c0:	000b5137          	lui	sp,0xb5
    800056c4:	04f1011b          	addiw	sp,sp,79 # b504f <offset+0xb4da7>
    800056c8:	00c11113          	slli	sp,sp,0xc
    800056cc:	31010113          	addi	sp,sp,784
    800056d0:	00b10463          	beq	sp,a1,800056d8 <inst_487>
    800056d4:	951fa06f          	j	80000024 <rvtest_error>

00000000800056d8 <inst_487>:
    800056d8:	00000537          	lui	a0,0x0
    800056dc:	00050513          	mv	a0,a0
    800056e0:	00b51513          	slli	a0,a0,0xb
    800056e4:	5a850513          	addi	a0,a0,1448 # 5a8 <offset+0x300>
    800056e8:	00b51513          	slli	a0,a0,0xb
    800056ec:	13c50513          	addi	a0,a0,316
    800056f0:	00a51513          	slli	a0,a0,0xa
    800056f4:	33450513          	addi	a0,a0,820
    800056f8:	02d57593          	andi	a1,a0,45
    800056fc:	68b0b423          	sd	a1,1672(ra)
    80005700:	02400113          	li	sp,36
    80005704:	00b10463          	beq	sp,a1,8000570c <inst_488>
    80005708:	91dfa06f          	j	80000024 <rvtest_error>

000000008000570c <inst_488>:
    8000570c:	00000537          	lui	a0,0x0
    80005710:	00050513          	mv	a0,a0
    80005714:	00b51513          	slli	a0,a0,0xb
    80005718:	5a850513          	addi	a0,a0,1448 # 5a8 <offset+0x300>
    8000571c:	00b51513          	slli	a0,a0,0xb
    80005720:	13c50513          	addi	a0,a0,316
    80005724:	00a51513          	slli	a0,a0,0xa
    80005728:	33450513          	addi	a0,a0,820
    8000572c:	00257593          	andi	a1,a0,2
    80005730:	68b0b823          	sd	a1,1680(ra)
    80005734:	00000113          	li	sp,0
    80005738:	00b10463          	beq	sp,a1,80005740 <inst_489>
    8000573c:	8e9fa06f          	j	80000024 <rvtest_error>

0000000080005740 <inst_489>:
    80005740:	00000537          	lui	a0,0x0
    80005744:	00050513          	mv	a0,a0
    80005748:	00b51513          	slli	a0,a0,0xb
    8000574c:	5a850513          	addi	a0,a0,1448 # 5a8 <offset+0x300>
    80005750:	00b51513          	slli	a0,a0,0xb
    80005754:	13c50513          	addi	a0,a0,316
    80005758:	00a51513          	slli	a0,a0,0xa
    8000575c:	33450513          	addi	a0,a0,820
    80005760:	55457593          	andi	a1,a0,1364
    80005764:	68b0bc23          	sd	a1,1688(ra)
    80005768:	11400113          	li	sp,276
    8000576c:	00b10463          	beq	sp,a1,80005774 <inst_490>
    80005770:	8b5fa06f          	j	80000024 <rvtest_error>

0000000080005774 <inst_490>:
    80005774:	00000537          	lui	a0,0x0
    80005778:	00050513          	mv	a0,a0
    8000577c:	00b51513          	slli	a0,a0,0xb
    80005780:	5a850513          	addi	a0,a0,1448 # 5a8 <offset+0x300>
    80005784:	00b51513          	slli	a0,a0,0xb
    80005788:	13c50513          	addi	a0,a0,316
    8000578c:	00a51513          	slli	a0,a0,0xa
    80005790:	33450513          	addi	a0,a0,820
    80005794:	00057593          	andi	a1,a0,0
    80005798:	6ab0b023          	sd	a1,1696(ra)
    8000579c:	00000113          	li	sp,0
    800057a0:	00b10463          	beq	sp,a1,800057a8 <inst_491>
    800057a4:	881fa06f          	j	80000024 <rvtest_error>

00000000800057a8 <inst_491>:
    800057a8:	00000537          	lui	a0,0x0
    800057ac:	00050513          	mv	a0,a0
    800057b0:	00b51513          	slli	a0,a0,0xb
    800057b4:	5a850513          	addi	a0,a0,1448 # 5a8 <offset+0x300>
    800057b8:	00b51513          	slli	a0,a0,0xb
    800057bc:	13c50513          	addi	a0,a0,316
    800057c0:	00a51513          	slli	a0,a0,0xa
    800057c4:	33450513          	addi	a0,a0,820
    800057c8:	00457593          	andi	a1,a0,4
    800057cc:	6ab0b423          	sd	a1,1704(ra)
    800057d0:	00400113          	li	sp,4
    800057d4:	00b10463          	beq	sp,a1,800057dc <inst_492>
    800057d8:	84dfa06f          	j	80000024 <rvtest_error>

00000000800057dc <inst_492>:
    800057dc:	00000537          	lui	a0,0x0
    800057e0:	00050513          	mv	a0,a0
    800057e4:	00b51513          	slli	a0,a0,0xb
    800057e8:	5a850513          	addi	a0,a0,1448 # 5a8 <offset+0x300>
    800057ec:	00b51513          	slli	a0,a0,0xb
    800057f0:	13c50513          	addi	a0,a0,316
    800057f4:	00a51513          	slli	a0,a0,0xa
    800057f8:	33450513          	addi	a0,a0,820
    800057fc:	33257593          	andi	a1,a0,818
    80005800:	6ab0b823          	sd	a1,1712(ra)
    80005804:	33000113          	li	sp,816
    80005808:	00b10463          	beq	sp,a1,80005810 <inst_493>
    8000580c:	819fa06f          	j	80000024 <rvtest_error>

0000000080005810 <inst_493>:
    80005810:	00000537          	lui	a0,0x0
    80005814:	00050513          	mv	a0,a0
    80005818:	00b51513          	slli	a0,a0,0xb
    8000581c:	5a850513          	addi	a0,a0,1448 # 5a8 <offset+0x300>
    80005820:	00b51513          	slli	a0,a0,0xb
    80005824:	13c50513          	addi	a0,a0,316
    80005828:	00a51513          	slli	a0,a0,0xa
    8000582c:	33450513          	addi	a0,a0,820
    80005830:	66557593          	andi	a1,a0,1637
    80005834:	6ab0bc23          	sd	a1,1720(ra)
    80005838:	22400113          	li	sp,548
    8000583c:	00b10463          	beq	sp,a1,80005844 <inst_494>
    80005840:	fe4fa06f          	j	80000024 <rvtest_error>

0000000080005844 <inst_494>:
    80005844:	00000537          	lui	a0,0x0
    80005848:	00050513          	mv	a0,a0
    8000584c:	00b51513          	slli	a0,a0,0xb
    80005850:	5a850513          	addi	a0,a0,1448 # 5a8 <offset+0x300>
    80005854:	00b51513          	slli	a0,a0,0xb
    80005858:	13c50513          	addi	a0,a0,316
    8000585c:	00a51513          	slli	a0,a0,0xa
    80005860:	33450513          	addi	a0,a0,820
    80005864:	02c57593          	andi	a1,a0,44
    80005868:	6cb0b023          	sd	a1,1728(ra)
    8000586c:	02400113          	li	sp,36
    80005870:	00b10463          	beq	sp,a1,80005878 <inst_495>
    80005874:	fb0fa06f          	j	80000024 <rvtest_error>

0000000080005878 <inst_495>:
    80005878:	00000537          	lui	a0,0x0
    8000587c:	00050513          	mv	a0,a0
    80005880:	00b51513          	slli	a0,a0,0xb
    80005884:	5a850513          	addi	a0,a0,1448 # 5a8 <offset+0x300>
    80005888:	00b51513          	slli	a0,a0,0xb
    8000588c:	13c50513          	addi	a0,a0,316
    80005890:	00a51513          	slli	a0,a0,0xa
    80005894:	33450513          	addi	a0,a0,820
    80005898:	55657593          	andi	a1,a0,1366
    8000589c:	6cb0b423          	sd	a1,1736(ra)
    800058a0:	11400113          	li	sp,276
    800058a4:	00b10463          	beq	sp,a1,800058ac <inst_496>
    800058a8:	f7cfa06f          	j	80000024 <rvtest_error>

00000000800058ac <inst_496>:
    800058ac:	00000537          	lui	a0,0x0
    800058b0:	00050513          	mv	a0,a0
    800058b4:	00b51513          	slli	a0,a0,0xb
    800058b8:	5a850513          	addi	a0,a0,1448 # 5a8 <offset+0x300>
    800058bc:	00b51513          	slli	a0,a0,0xb
    800058c0:	13c50513          	addi	a0,a0,316
    800058c4:	00a51513          	slli	a0,a0,0xa
    800058c8:	33450513          	addi	a0,a0,820
    800058cc:	aab57593          	andi	a1,a0,-1365
    800058d0:	6cb0b823          	sd	a1,1744(ra)
    800058d4:	000b5137          	lui	sp,0xb5
    800058d8:	04f1011b          	addiw	sp,sp,79 # b504f <offset+0xb4da7>
    800058dc:	00c11113          	slli	sp,sp,0xc
    800058e0:	22010113          	addi	sp,sp,544
    800058e4:	00b10463          	beq	sp,a1,800058ec <inst_497>
    800058e8:	f3cfa06f          	j	80000024 <rvtest_error>

00000000800058ec <inst_497>:
    800058ec:	00000537          	lui	a0,0x0
    800058f0:	00050513          	mv	a0,a0
    800058f4:	00b51513          	slli	a0,a0,0xb
    800058f8:	5a850513          	addi	a0,a0,1448 # 5a8 <offset+0x300>
    800058fc:	00b51513          	slli	a0,a0,0xb
    80005900:	13c50513          	addi	a0,a0,316
    80005904:	00a51513          	slli	a0,a0,0xa
    80005908:	33450513          	addi	a0,a0,820
    8000590c:	00657593          	andi	a1,a0,6
    80005910:	6cb0bc23          	sd	a1,1752(ra)
    80005914:	00400113          	li	sp,4
    80005918:	00b10463          	beq	sp,a1,80005920 <inst_498>
    8000591c:	f08fa06f          	j	80000024 <rvtest_error>

0000000080005920 <inst_498>:
    80005920:	00000537          	lui	a0,0x0
    80005924:	00050513          	mv	a0,a0
    80005928:	00b51513          	slli	a0,a0,0xb
    8000592c:	5a850513          	addi	a0,a0,1448 # 5a8 <offset+0x300>
    80005930:	00b51513          	slli	a0,a0,0xb
    80005934:	13c50513          	addi	a0,a0,316
    80005938:	00a51513          	slli	a0,a0,0xa
    8000593c:	33450513          	addi	a0,a0,820
    80005940:	33457593          	andi	a1,a0,820
    80005944:	6eb0b023          	sd	a1,1760(ra)
    80005948:	33400113          	li	sp,820
    8000594c:	00b10463          	beq	sp,a1,80005954 <inst_499>
    80005950:	ed4fa06f          	j	80000024 <rvtest_error>

0000000080005954 <inst_499>:
    80005954:	00000537          	lui	a0,0x0
    80005958:	00050513          	mv	a0,a0
    8000595c:	00b51513          	slli	a0,a0,0xb
    80005960:	5a850513          	addi	a0,a0,1448 # 5a8 <offset+0x300>
    80005964:	00b51513          	slli	a0,a0,0xb
    80005968:	13c50513          	addi	a0,a0,316
    8000596c:	00a51513          	slli	a0,a0,0xa
    80005970:	33450513          	addi	a0,a0,820
    80005974:	66757593          	andi	a1,a0,1639
    80005978:	6eb0b423          	sd	a1,1768(ra)
    8000597c:	22400113          	li	sp,548
    80005980:	00b10463          	beq	sp,a1,80005988 <inst_500>
    80005984:	ea0fa06f          	j	80000024 <rvtest_error>

0000000080005988 <inst_500>:
    80005988:	00000537          	lui	a0,0x0
    8000598c:	00050513          	mv	a0,a0
    80005990:	00b51513          	slli	a0,a0,0xb
    80005994:	5a850513          	addi	a0,a0,1448 # 5a8 <offset+0x300>
    80005998:	00b51513          	slli	a0,a0,0xb
    8000599c:	13c50513          	addi	a0,a0,316
    800059a0:	00a51513          	slli	a0,a0,0xa
    800059a4:	33450513          	addi	a0,a0,820
    800059a8:	fd457593          	andi	a1,a0,-44
    800059ac:	6eb0b823          	sd	a1,1776(ra)
    800059b0:	000b5137          	lui	sp,0xb5
    800059b4:	04f1011b          	addiw	sp,sp,79 # b504f <offset+0xb4da7>
    800059b8:	00c11113          	slli	sp,sp,0xc
    800059bc:	31410113          	addi	sp,sp,788
    800059c0:	00b10463          	beq	sp,a1,800059c8 <inst_501>
    800059c4:	e60fa06f          	j	80000024 <rvtest_error>

00000000800059c8 <inst_501>:
    800059c8:	00000513          	li	a0,0
    800059cc:	fd357593          	andi	a1,a0,-45
    800059d0:	6eb0bc23          	sd	a1,1784(ra)
    800059d4:	00000113          	li	sp,0
    800059d8:	00b10463          	beq	sp,a1,800059e0 <inst_502>
    800059dc:	e48fa06f          	j	80000024 <rvtest_error>

00000000800059e0 <inst_502>:
    800059e0:	00000537          	lui	a0,0x0
    800059e4:	00050513          	mv	a0,a0
    800059e8:	00b51513          	slli	a0,a0,0xb
    800059ec:	5a850513          	addi	a0,a0,1448 # 5a8 <offset+0x300>
    800059f0:	00b51513          	slli	a0,a0,0xb
    800059f4:	13c50513          	addi	a0,a0,316
    800059f8:	00a51513          	slli	a0,a0,0xa
    800059fc:	33450513          	addi	a0,a0,820
    80005a00:	02e57593          	andi	a1,a0,46
    80005a04:	70b0b023          	sd	a1,1792(ra)
    80005a08:	02400113          	li	sp,36
    80005a0c:	00b10463          	beq	sp,a1,80005a14 <inst_503>
    80005a10:	e14fa06f          	j	80000024 <rvtest_error>

0000000080005a14 <inst_503>:
    80005a14:	00000513          	li	a0,0
    80005a18:	00257593          	andi	a1,a0,2
    80005a1c:	70b0b423          	sd	a1,1800(ra)
    80005a20:	00000113          	li	sp,0
    80005a24:	00b10463          	beq	sp,a1,80005a2c <inst_504>
    80005a28:	dfcfa06f          	j	80000024 <rvtest_error>

0000000080005a2c <inst_504>:
    80005a2c:	00000513          	li	a0,0
    80005a30:	55457593          	andi	a1,a0,1364
    80005a34:	70b0b823          	sd	a1,1808(ra)
    80005a38:	00000113          	li	sp,0
    80005a3c:	00b10463          	beq	sp,a1,80005a44 <inst_505>
    80005a40:	de4fa06f          	j	80000024 <rvtest_error>

0000000080005a44 <inst_505>:
    80005a44:	00000513          	li	a0,0
    80005a48:	00457593          	andi	a1,a0,4
    80005a4c:	70b0bc23          	sd	a1,1816(ra)
    80005a50:	00000113          	li	sp,0
    80005a54:	00b10463          	beq	sp,a1,80005a5c <inst_506>
    80005a58:	dccfa06f          	j	80000024 <rvtest_error>

0000000080005a5c <inst_506>:
    80005a5c:	00000513          	li	a0,0
    80005a60:	33257593          	andi	a1,a0,818
    80005a64:	72b0b023          	sd	a1,1824(ra)
    80005a68:	00000113          	li	sp,0
    80005a6c:	00b10463          	beq	sp,a1,80005a74 <inst_507>
    80005a70:	db4fa06f          	j	80000024 <rvtest_error>

0000000080005a74 <inst_507>:
    80005a74:	00000513          	li	a0,0
    80005a78:	66557593          	andi	a1,a0,1637
    80005a7c:	72b0b423          	sd	a1,1832(ra)
    80005a80:	00000113          	li	sp,0
    80005a84:	00b10463          	beq	sp,a1,80005a8c <inst_508>
    80005a88:	d9cfa06f          	j	80000024 <rvtest_error>

0000000080005a8c <inst_508>:
    80005a8c:	00000513          	li	a0,0
    80005a90:	02c57593          	andi	a1,a0,44
    80005a94:	72b0b823          	sd	a1,1840(ra)
    80005a98:	00000113          	li	sp,0
    80005a9c:	00b10463          	beq	sp,a1,80005aa4 <inst_509>
    80005aa0:	d84fa06f          	j	80000024 <rvtest_error>

0000000080005aa4 <inst_509>:
    80005aa4:	00000513          	li	a0,0
    80005aa8:	55657593          	andi	a1,a0,1366
    80005aac:	72b0bc23          	sd	a1,1848(ra)
    80005ab0:	00000113          	li	sp,0
    80005ab4:	00b10463          	beq	sp,a1,80005abc <inst_510>
    80005ab8:	d6cfa06f          	j	80000024 <rvtest_error>

0000000080005abc <inst_510>:
    80005abc:	00000513          	li	a0,0
    80005ac0:	aab57593          	andi	a1,a0,-1365
    80005ac4:	74b0b023          	sd	a1,1856(ra)
    80005ac8:	00000113          	li	sp,0
    80005acc:	00b10463          	beq	sp,a1,80005ad4 <inst_511>
    80005ad0:	d54fa06f          	j	80000024 <rvtest_error>

0000000080005ad4 <inst_511>:
    80005ad4:	00000513          	li	a0,0
    80005ad8:	00657593          	andi	a1,a0,6
    80005adc:	74b0b423          	sd	a1,1864(ra)
    80005ae0:	00000113          	li	sp,0
    80005ae4:	00b10463          	beq	sp,a1,80005aec <inst_512>
    80005ae8:	d3cfa06f          	j	80000024 <rvtest_error>

0000000080005aec <inst_512>:
    80005aec:	00000513          	li	a0,0
    80005af0:	33457593          	andi	a1,a0,820
    80005af4:	74b0b823          	sd	a1,1872(ra)
    80005af8:	00000113          	li	sp,0
    80005afc:	00b10463          	beq	sp,a1,80005b04 <inst_513>
    80005b00:	d24fa06f          	j	80000024 <rvtest_error>

0000000080005b04 <inst_513>:
    80005b04:	00000513          	li	a0,0
    80005b08:	66757593          	andi	a1,a0,1639
    80005b0c:	74b0bc23          	sd	a1,1880(ra)
    80005b10:	00000113          	li	sp,0
    80005b14:	00b10463          	beq	sp,a1,80005b1c <inst_514>
    80005b18:	d0cfa06f          	j	80000024 <rvtest_error>

0000000080005b1c <inst_514>:
    80005b1c:	00000513          	li	a0,0
    80005b20:	fd457593          	andi	a1,a0,-44
    80005b24:	76b0b023          	sd	a1,1888(ra)
    80005b28:	00000113          	li	sp,0
    80005b2c:	00b10463          	beq	sp,a1,80005b34 <inst_515>
    80005b30:	cf4fa06f          	j	80000024 <rvtest_error>

0000000080005b34 <inst_515>:
    80005b34:	00000513          	li	a0,0
    80005b38:	02e57593          	andi	a1,a0,46
    80005b3c:	76b0b423          	sd	a1,1896(ra)
    80005b40:	00000113          	li	sp,0
    80005b44:	00b10463          	beq	sp,a1,80005b4c <inst_516>
    80005b48:	cdcfa06f          	j	80000024 <rvtest_error>

0000000080005b4c <inst_516>:
    80005b4c:	00400513          	li	a0,4
    80005b50:	00357593          	andi	a1,a0,3
    80005b54:	76b0b823          	sd	a1,1904(ra)
    80005b58:	00000113          	li	sp,0
    80005b5c:	00b10463          	beq	sp,a1,80005b64 <inst_517>
    80005b60:	cc4fa06f          	j	80000024 <rvtest_error>

0000000080005b64 <inst_517>:
    80005b64:	00400513          	li	a0,4
    80005b68:	55557593          	andi	a1,a0,1365
    80005b6c:	76b0bc23          	sd	a1,1912(ra)
    80005b70:	00400113          	li	sp,4
    80005b74:	00b10463          	beq	sp,a1,80005b7c <inst_518>
    80005b78:	cacfa06f          	j	80000024 <rvtest_error>

0000000080005b7c <inst_518>:
    80005b7c:	00400513          	li	a0,4
    80005b80:	aaa57593          	andi	a1,a0,-1366
    80005b84:	78b0b023          	sd	a1,1920(ra)
    80005b88:	00000113          	li	sp,0
    80005b8c:	00b10463          	beq	sp,a1,80005b94 <inst_519>
    80005b90:	c94fa06f          	j	80000024 <rvtest_error>

0000000080005b94 <inst_519>:
    80005b94:	00400513          	li	a0,4
    80005b98:	00557593          	andi	a1,a0,5
    80005b9c:	78b0b423          	sd	a1,1928(ra)
    80005ba0:	00400113          	li	sp,4
    80005ba4:	00b10463          	beq	sp,a1,80005bac <inst_520>
    80005ba8:	c7cfa06f          	j	80000024 <rvtest_error>

0000000080005bac <inst_520>:
    80005bac:	00400513          	li	a0,4
    80005bb0:	33357593          	andi	a1,a0,819
    80005bb4:	78b0b823          	sd	a1,1936(ra)
    80005bb8:	00000113          	li	sp,0
    80005bbc:	00b10463          	beq	sp,a1,80005bc4 <inst_521>
    80005bc0:	c64fa06f          	j	80000024 <rvtest_error>

0000000080005bc4 <inst_521>:
    80005bc4:	00400513          	li	a0,4
    80005bc8:	66657593          	andi	a1,a0,1638
    80005bcc:	78b0bc23          	sd	a1,1944(ra)
    80005bd0:	00400113          	li	sp,4
    80005bd4:	00b10463          	beq	sp,a1,80005bdc <inst_522>
    80005bd8:	c4cfa06f          	j	80000024 <rvtest_error>

0000000080005bdc <inst_522>:
    80005bdc:	00400513          	li	a0,4
    80005be0:	fd357593          	andi	a1,a0,-45
    80005be4:	7ab0b023          	sd	a1,1952(ra)
    80005be8:	00000113          	li	sp,0
    80005bec:	00b10463          	beq	sp,a1,80005bf4 <inst_523>
    80005bf0:	c34fa06f          	j	80000024 <rvtest_error>

0000000080005bf4 <inst_523>:
    80005bf4:	00400513          	li	a0,4
    80005bf8:	02d57593          	andi	a1,a0,45
    80005bfc:	7ab0b423          	sd	a1,1960(ra)
    80005c00:	00400113          	li	sp,4
    80005c04:	00b10463          	beq	sp,a1,80005c0c <inst_524>
    80005c08:	c1cfa06f          	j	80000024 <rvtest_error>

0000000080005c0c <inst_524>:
    80005c0c:	00400513          	li	a0,4
    80005c10:	00257593          	andi	a1,a0,2
    80005c14:	7ab0b823          	sd	a1,1968(ra)
    80005c18:	00000113          	li	sp,0
    80005c1c:	00b10463          	beq	sp,a1,80005c24 <inst_525>
    80005c20:	c04fa06f          	j	80000024 <rvtest_error>

0000000080005c24 <inst_525>:
    80005c24:	00400513          	li	a0,4
    80005c28:	55457593          	andi	a1,a0,1364
    80005c2c:	7ab0bc23          	sd	a1,1976(ra)
    80005c30:	00400113          	li	sp,4
    80005c34:	00b10463          	beq	sp,a1,80005c3c <inst_526>
    80005c38:	becfa06f          	j	80000024 <rvtest_error>

0000000080005c3c <inst_526>:
    80005c3c:	00400513          	li	a0,4
    80005c40:	00057593          	andi	a1,a0,0
    80005c44:	7cb0b023          	sd	a1,1984(ra)
    80005c48:	00000113          	li	sp,0
    80005c4c:	00b10463          	beq	sp,a1,80005c54 <inst_527>
    80005c50:	bd4fa06f          	j	80000024 <rvtest_error>

0000000080005c54 <inst_527>:
    80005c54:	00400513          	li	a0,4
    80005c58:	00457593          	andi	a1,a0,4
    80005c5c:	7cb0b423          	sd	a1,1992(ra)
    80005c60:	00400113          	li	sp,4
    80005c64:	00b10463          	beq	sp,a1,80005c6c <inst_528>
    80005c68:	bbcfa06f          	j	80000024 <rvtest_error>

0000000080005c6c <inst_528>:
    80005c6c:	00400513          	li	a0,4
    80005c70:	33257593          	andi	a1,a0,818
    80005c74:	7cb0b823          	sd	a1,2000(ra)
    80005c78:	00000113          	li	sp,0
    80005c7c:	00b10463          	beq	sp,a1,80005c84 <inst_529>
    80005c80:	ba4fa06f          	j	80000024 <rvtest_error>

0000000080005c84 <inst_529>:
    80005c84:	00400513          	li	a0,4
    80005c88:	66557593          	andi	a1,a0,1637
    80005c8c:	7cb0bc23          	sd	a1,2008(ra)
    80005c90:	00400113          	li	sp,4
    80005c94:	00b10463          	beq	sp,a1,80005c9c <inst_530>
    80005c98:	b8cfa06f          	j	80000024 <rvtest_error>

0000000080005c9c <inst_530>:
    80005c9c:	00400513          	li	a0,4
    80005ca0:	02c57593          	andi	a1,a0,44
    80005ca4:	7eb0b023          	sd	a1,2016(ra)
    80005ca8:	00400113          	li	sp,4
    80005cac:	00b10463          	beq	sp,a1,80005cb4 <inst_531>
    80005cb0:	b74fa06f          	j	80000024 <rvtest_error>

0000000080005cb4 <inst_531>:
    80005cb4:	00400513          	li	a0,4
    80005cb8:	55657593          	andi	a1,a0,1366
    80005cbc:	7eb0b423          	sd	a1,2024(ra)
    80005cc0:	00400113          	li	sp,4
    80005cc4:	00b10463          	beq	sp,a1,80005ccc <inst_532>
    80005cc8:	b5cfa06f          	j	80000024 <rvtest_error>

0000000080005ccc <inst_532>:
    80005ccc:	00400513          	li	a0,4
    80005cd0:	aab57593          	andi	a1,a0,-1365
    80005cd4:	7eb0b823          	sd	a1,2032(ra)
    80005cd8:	00000113          	li	sp,0
    80005cdc:	00b10463          	beq	sp,a1,80005ce4 <inst_533>
    80005ce0:	b44fa06f          	j	80000024 <rvtest_error>

0000000080005ce4 <inst_533>:
    80005ce4:	00400513          	li	a0,4
    80005ce8:	00657593          	andi	a1,a0,6
    80005cec:	7eb0bc23          	sd	a1,2040(ra)
    80005cf0:	00400113          	li	sp,4
    80005cf4:	00b10463          	beq	sp,a1,80005cfc <inst_533+0x18>
    80005cf8:	b2cfa06f          	j	80000024 <rvtest_error>
    80005cfc:	00000013          	nop
    80005d00:	00003097          	auipc	ra,0x3
    80005d04:	3b808093          	addi	ra,ra,952 # 800090b8 <signature_x1_2>
    80005d08:	00000013          	nop
    80005d0c:	00000013          	nop
    80005d10:	00000013          	nop
    80005d14:	00000013          	nop
    80005d18:	00000013          	nop
    80005d1c:	00000013          	nop

0000000080005d20 <inst_534>:
    80005d20:	00400513          	li	a0,4
    80005d24:	33457593          	andi	a1,a0,820
    80005d28:	00b0b023          	sd	a1,0(ra)
    80005d2c:	00400113          	li	sp,4
    80005d30:	00b10463          	beq	sp,a1,80005d38 <inst_535>
    80005d34:	af0fa06f          	j	80000024 <rvtest_error>

0000000080005d38 <inst_535>:
    80005d38:	00400513          	li	a0,4
    80005d3c:	66757593          	andi	a1,a0,1639
    80005d40:	00b0b423          	sd	a1,8(ra)
    80005d44:	00400113          	li	sp,4
    80005d48:	00b10463          	beq	sp,a1,80005d50 <inst_536>
    80005d4c:	ad8fa06f          	j	80000024 <rvtest_error>

0000000080005d50 <inst_536>:
    80005d50:	00400513          	li	a0,4
    80005d54:	fd457593          	andi	a1,a0,-44
    80005d58:	00b0b823          	sd	a1,16(ra)
    80005d5c:	00400113          	li	sp,4
    80005d60:	00b10463          	beq	sp,a1,80005d68 <inst_537>
    80005d64:	ac0fa06f          	j	80000024 <rvtest_error>

0000000080005d68 <inst_537>:
    80005d68:	00400513          	li	a0,4
    80005d6c:	02e57593          	andi	a1,a0,46
    80005d70:	00b0bc23          	sd	a1,24(ra)
    80005d74:	00400113          	li	sp,4
    80005d78:	00b10463          	beq	sp,a1,80005d80 <inst_538>
    80005d7c:	aa8fa06f          	j	80000024 <rvtest_error>

0000000080005d80 <inst_538>:
    80005d80:	33333537          	lui	a0,0x33333
    80005d84:	33350513          	addi	a0,a0,819 # 33333333 <absimmsh+0x27862586>
    80005d88:	00b51513          	slli	a0,a0,0xb
    80005d8c:	19950513          	addi	a0,a0,409
    80005d90:	00b51513          	slli	a0,a0,0xb
    80005d94:	4cc50513          	addi	a0,a0,1228
    80005d98:	00a51513          	slli	a0,a0,0xa
    80005d9c:	33250513          	addi	a0,a0,818
    80005da0:	00357593          	andi	a1,a0,3
    80005da4:	02b0b023          	sd	a1,32(ra)
    80005da8:	00200113          	li	sp,2
    80005dac:	00b10463          	beq	sp,a1,80005db4 <inst_539>
    80005db0:	a74fa06f          	j	80000024 <rvtest_error>

0000000080005db4 <inst_539>:
    80005db4:	33333537          	lui	a0,0x33333
    80005db8:	33350513          	addi	a0,a0,819 # 33333333 <absimmsh+0x27862586>
    80005dbc:	00b51513          	slli	a0,a0,0xb
    80005dc0:	19950513          	addi	a0,a0,409
    80005dc4:	00b51513          	slli	a0,a0,0xb
    80005dc8:	4cc50513          	addi	a0,a0,1228
    80005dcc:	00a51513          	slli	a0,a0,0xa
    80005dd0:	33250513          	addi	a0,a0,818
    80005dd4:	55557593          	andi	a1,a0,1365
    80005dd8:	02b0b423          	sd	a1,40(ra)
    80005ddc:	11000113          	li	sp,272
    80005de0:	00b10463          	beq	sp,a1,80005de8 <inst_540>
    80005de4:	a40fa06f          	j	80000024 <rvtest_error>

0000000080005de8 <inst_540>:
    80005de8:	33333537          	lui	a0,0x33333
    80005dec:	33350513          	addi	a0,a0,819 # 33333333 <absimmsh+0x27862586>
    80005df0:	00b51513          	slli	a0,a0,0xb
    80005df4:	19950513          	addi	a0,a0,409
    80005df8:	00b51513          	slli	a0,a0,0xb
    80005dfc:	4cc50513          	addi	a0,a0,1228
    80005e00:	00a51513          	slli	a0,a0,0xa
    80005e04:	33250513          	addi	a0,a0,818
    80005e08:	aaa57593          	andi	a1,a0,-1366
    80005e0c:	02b0b823          	sd	a1,48(ra)
    80005e10:	03333137          	lui	sp,0x3333
    80005e14:	3331011b          	addiw	sp,sp,819 # 3333333 <offset+0x333308b>
    80005e18:	00c11113          	slli	sp,sp,0xc
    80005e1c:	33310113          	addi	sp,sp,819
    80005e20:	00c11113          	slli	sp,sp,0xc
    80005e24:	33310113          	addi	sp,sp,819
    80005e28:	00c11113          	slli	sp,sp,0xc
    80005e2c:	22210113          	addi	sp,sp,546
    80005e30:	00b10463          	beq	sp,a1,80005e38 <inst_541>
    80005e34:	9f0fa06f          	j	80000024 <rvtest_error>

0000000080005e38 <inst_541>:
    80005e38:	33333537          	lui	a0,0x33333
    80005e3c:	33350513          	addi	a0,a0,819 # 33333333 <absimmsh+0x27862586>
    80005e40:	00b51513          	slli	a0,a0,0xb
    80005e44:	19950513          	addi	a0,a0,409
    80005e48:	00b51513          	slli	a0,a0,0xb
    80005e4c:	4cc50513          	addi	a0,a0,1228
    80005e50:	00a51513          	slli	a0,a0,0xa
    80005e54:	33250513          	addi	a0,a0,818
    80005e58:	00557593          	andi	a1,a0,5
    80005e5c:	02b0bc23          	sd	a1,56(ra)
    80005e60:	00000113          	li	sp,0
    80005e64:	00b10463          	beq	sp,a1,80005e6c <inst_542>
    80005e68:	9bcfa06f          	j	80000024 <rvtest_error>

0000000080005e6c <inst_542>:
    80005e6c:	33333537          	lui	a0,0x33333
    80005e70:	33350513          	addi	a0,a0,819 # 33333333 <absimmsh+0x27862586>
    80005e74:	00b51513          	slli	a0,a0,0xb
    80005e78:	19950513          	addi	a0,a0,409
    80005e7c:	00b51513          	slli	a0,a0,0xb
    80005e80:	4cc50513          	addi	a0,a0,1228
    80005e84:	00a51513          	slli	a0,a0,0xa
    80005e88:	33250513          	addi	a0,a0,818
    80005e8c:	33357593          	andi	a1,a0,819
    80005e90:	04b0b023          	sd	a1,64(ra)
    80005e94:	33200113          	li	sp,818
    80005e98:	00b10463          	beq	sp,a1,80005ea0 <inst_543>
    80005e9c:	988fa06f          	j	80000024 <rvtest_error>

0000000080005ea0 <inst_543>:
    80005ea0:	33333537          	lui	a0,0x33333
    80005ea4:	33350513          	addi	a0,a0,819 # 33333333 <absimmsh+0x27862586>
    80005ea8:	00b51513          	slli	a0,a0,0xb
    80005eac:	19950513          	addi	a0,a0,409
    80005eb0:	00b51513          	slli	a0,a0,0xb
    80005eb4:	4cc50513          	addi	a0,a0,1228
    80005eb8:	00a51513          	slli	a0,a0,0xa
    80005ebc:	33250513          	addi	a0,a0,818
    80005ec0:	66657593          	andi	a1,a0,1638
    80005ec4:	04b0b423          	sd	a1,72(ra)
    80005ec8:	22200113          	li	sp,546
    80005ecc:	00b10463          	beq	sp,a1,80005ed4 <inst_544>
    80005ed0:	954fa06f          	j	80000024 <rvtest_error>

0000000080005ed4 <inst_544>:
    80005ed4:	33333537          	lui	a0,0x33333
    80005ed8:	33350513          	addi	a0,a0,819 # 33333333 <absimmsh+0x27862586>
    80005edc:	00b51513          	slli	a0,a0,0xb
    80005ee0:	19950513          	addi	a0,a0,409
    80005ee4:	00b51513          	slli	a0,a0,0xb
    80005ee8:	4cc50513          	addi	a0,a0,1228
    80005eec:	00a51513          	slli	a0,a0,0xa
    80005ef0:	33250513          	addi	a0,a0,818
    80005ef4:	fd357593          	andi	a1,a0,-45
    80005ef8:	04b0b823          	sd	a1,80(ra)
    80005efc:	03333137          	lui	sp,0x3333
    80005f00:	3331011b          	addiw	sp,sp,819 # 3333333 <offset+0x333308b>
    80005f04:	00c11113          	slli	sp,sp,0xc
    80005f08:	33310113          	addi	sp,sp,819
    80005f0c:	00c11113          	slli	sp,sp,0xc
    80005f10:	33310113          	addi	sp,sp,819
    80005f14:	00c11113          	slli	sp,sp,0xc
    80005f18:	31210113          	addi	sp,sp,786
    80005f1c:	00b10463          	beq	sp,a1,80005f24 <inst_545>
    80005f20:	904fa06f          	j	80000024 <rvtest_error>

0000000080005f24 <inst_545>:
    80005f24:	33333537          	lui	a0,0x33333
    80005f28:	33350513          	addi	a0,a0,819 # 33333333 <absimmsh+0x27862586>
    80005f2c:	00b51513          	slli	a0,a0,0xb
    80005f30:	19950513          	addi	a0,a0,409
    80005f34:	00b51513          	slli	a0,a0,0xb
    80005f38:	4cc50513          	addi	a0,a0,1228
    80005f3c:	00a51513          	slli	a0,a0,0xa
    80005f40:	33250513          	addi	a0,a0,818
    80005f44:	02d57593          	andi	a1,a0,45
    80005f48:	04b0bc23          	sd	a1,88(ra)
    80005f4c:	02000113          	li	sp,32
    80005f50:	00b10463          	beq	sp,a1,80005f58 <inst_546>
    80005f54:	8d0fa06f          	j	80000024 <rvtest_error>

0000000080005f58 <inst_546>:
    80005f58:	33333537          	lui	a0,0x33333
    80005f5c:	33350513          	addi	a0,a0,819 # 33333333 <absimmsh+0x27862586>
    80005f60:	00b51513          	slli	a0,a0,0xb
    80005f64:	19950513          	addi	a0,a0,409
    80005f68:	00b51513          	slli	a0,a0,0xb
    80005f6c:	4cc50513          	addi	a0,a0,1228
    80005f70:	00a51513          	slli	a0,a0,0xa
    80005f74:	33250513          	addi	a0,a0,818
    80005f78:	00257593          	andi	a1,a0,2
    80005f7c:	06b0b023          	sd	a1,96(ra)
    80005f80:	00200113          	li	sp,2
    80005f84:	00b10463          	beq	sp,a1,80005f8c <inst_547>
    80005f88:	89cfa06f          	j	80000024 <rvtest_error>

0000000080005f8c <inst_547>:
    80005f8c:	33333537          	lui	a0,0x33333
    80005f90:	33350513          	addi	a0,a0,819 # 33333333 <absimmsh+0x27862586>
    80005f94:	00b51513          	slli	a0,a0,0xb
    80005f98:	19950513          	addi	a0,a0,409
    80005f9c:	00b51513          	slli	a0,a0,0xb
    80005fa0:	4cc50513          	addi	a0,a0,1228
    80005fa4:	00a51513          	slli	a0,a0,0xa
    80005fa8:	33250513          	addi	a0,a0,818
    80005fac:	55457593          	andi	a1,a0,1364
    80005fb0:	06b0b423          	sd	a1,104(ra)
    80005fb4:	11000113          	li	sp,272
    80005fb8:	00b10463          	beq	sp,a1,80005fc0 <inst_548>
    80005fbc:	868fa06f          	j	80000024 <rvtest_error>

0000000080005fc0 <inst_548>:
    80005fc0:	33333537          	lui	a0,0x33333
    80005fc4:	33350513          	addi	a0,a0,819 # 33333333 <absimmsh+0x27862586>
    80005fc8:	00b51513          	slli	a0,a0,0xb
    80005fcc:	19950513          	addi	a0,a0,409
    80005fd0:	00b51513          	slli	a0,a0,0xb
    80005fd4:	4cc50513          	addi	a0,a0,1228
    80005fd8:	00a51513          	slli	a0,a0,0xa
    80005fdc:	33250513          	addi	a0,a0,818
    80005fe0:	00057593          	andi	a1,a0,0
    80005fe4:	06b0b823          	sd	a1,112(ra)
    80005fe8:	00000113          	li	sp,0
    80005fec:	00b10463          	beq	sp,a1,80005ff4 <inst_549>
    80005ff0:	834fa06f          	j	80000024 <rvtest_error>

0000000080005ff4 <inst_549>:
    80005ff4:	33333537          	lui	a0,0x33333
    80005ff8:	33350513          	addi	a0,a0,819 # 33333333 <absimmsh+0x27862586>
    80005ffc:	00b51513          	slli	a0,a0,0xb
    80006000:	19950513          	addi	a0,a0,409
    80006004:	00b51513          	slli	a0,a0,0xb
    80006008:	4cc50513          	addi	a0,a0,1228
    8000600c:	00a51513          	slli	a0,a0,0xa
    80006010:	33250513          	addi	a0,a0,818
    80006014:	00457593          	andi	a1,a0,4
    80006018:	06b0bc23          	sd	a1,120(ra)
    8000601c:	00000113          	li	sp,0
    80006020:	00b10463          	beq	sp,a1,80006028 <inst_550>
    80006024:	800fa06f          	j	80000024 <rvtest_error>

0000000080006028 <inst_550>:
    80006028:	33333537          	lui	a0,0x33333
    8000602c:	33350513          	addi	a0,a0,819 # 33333333 <absimmsh+0x27862586>
    80006030:	00b51513          	slli	a0,a0,0xb
    80006034:	19950513          	addi	a0,a0,409
    80006038:	00b51513          	slli	a0,a0,0xb
    8000603c:	4cc50513          	addi	a0,a0,1228
    80006040:	00a51513          	slli	a0,a0,0xa
    80006044:	33250513          	addi	a0,a0,818
    80006048:	33257593          	andi	a1,a0,818
    8000604c:	08b0b023          	sd	a1,128(ra)
    80006050:	33200113          	li	sp,818
    80006054:	00b10463          	beq	sp,a1,8000605c <inst_551>
    80006058:	fcdf906f          	j	80000024 <rvtest_error>

000000008000605c <inst_551>:
    8000605c:	33333537          	lui	a0,0x33333
    80006060:	33350513          	addi	a0,a0,819 # 33333333 <absimmsh+0x27862586>
    80006064:	00b51513          	slli	a0,a0,0xb
    80006068:	19950513          	addi	a0,a0,409
    8000606c:	00b51513          	slli	a0,a0,0xb
    80006070:	4cc50513          	addi	a0,a0,1228
    80006074:	00a51513          	slli	a0,a0,0xa
    80006078:	33250513          	addi	a0,a0,818
    8000607c:	66557593          	andi	a1,a0,1637
    80006080:	08b0b423          	sd	a1,136(ra)
    80006084:	22000113          	li	sp,544
    80006088:	00b10463          	beq	sp,a1,80006090 <inst_552>
    8000608c:	f99f906f          	j	80000024 <rvtest_error>

0000000080006090 <inst_552>:
    80006090:	33333537          	lui	a0,0x33333
    80006094:	33350513          	addi	a0,a0,819 # 33333333 <absimmsh+0x27862586>
    80006098:	00b51513          	slli	a0,a0,0xb
    8000609c:	19950513          	addi	a0,a0,409
    800060a0:	00b51513          	slli	a0,a0,0xb
    800060a4:	4cc50513          	addi	a0,a0,1228
    800060a8:	00a51513          	slli	a0,a0,0xa
    800060ac:	33250513          	addi	a0,a0,818
    800060b0:	02c57593          	andi	a1,a0,44
    800060b4:	08b0b823          	sd	a1,144(ra)
    800060b8:	02000113          	li	sp,32
    800060bc:	00b10463          	beq	sp,a1,800060c4 <inst_553>
    800060c0:	f65f906f          	j	80000024 <rvtest_error>

00000000800060c4 <inst_553>:
    800060c4:	33333537          	lui	a0,0x33333
    800060c8:	33350513          	addi	a0,a0,819 # 33333333 <absimmsh+0x27862586>
    800060cc:	00b51513          	slli	a0,a0,0xb
    800060d0:	19950513          	addi	a0,a0,409
    800060d4:	00b51513          	slli	a0,a0,0xb
    800060d8:	4cc50513          	addi	a0,a0,1228
    800060dc:	00a51513          	slli	a0,a0,0xa
    800060e0:	33250513          	addi	a0,a0,818
    800060e4:	55657593          	andi	a1,a0,1366
    800060e8:	08b0bc23          	sd	a1,152(ra)
    800060ec:	11200113          	li	sp,274
    800060f0:	00b10463          	beq	sp,a1,800060f8 <inst_554>
    800060f4:	f31f906f          	j	80000024 <rvtest_error>

00000000800060f8 <inst_554>:
    800060f8:	33333537          	lui	a0,0x33333
    800060fc:	33350513          	addi	a0,a0,819 # 33333333 <absimmsh+0x27862586>
    80006100:	00b51513          	slli	a0,a0,0xb
    80006104:	19950513          	addi	a0,a0,409
    80006108:	00b51513          	slli	a0,a0,0xb
    8000610c:	4cc50513          	addi	a0,a0,1228
    80006110:	00a51513          	slli	a0,a0,0xa
    80006114:	33250513          	addi	a0,a0,818
    80006118:	aab57593          	andi	a1,a0,-1365
    8000611c:	0ab0b023          	sd	a1,160(ra)
    80006120:	03333137          	lui	sp,0x3333
    80006124:	3331011b          	addiw	sp,sp,819 # 3333333 <offset+0x333308b>
    80006128:	00c11113          	slli	sp,sp,0xc
    8000612c:	33310113          	addi	sp,sp,819
    80006130:	00c11113          	slli	sp,sp,0xc
    80006134:	33310113          	addi	sp,sp,819
    80006138:	00c11113          	slli	sp,sp,0xc
    8000613c:	22210113          	addi	sp,sp,546
    80006140:	00b10463          	beq	sp,a1,80006148 <inst_555>
    80006144:	ee1f906f          	j	80000024 <rvtest_error>

0000000080006148 <inst_555>:
    80006148:	33333537          	lui	a0,0x33333
    8000614c:	33350513          	addi	a0,a0,819 # 33333333 <absimmsh+0x27862586>
    80006150:	00b51513          	slli	a0,a0,0xb
    80006154:	19950513          	addi	a0,a0,409
    80006158:	00b51513          	slli	a0,a0,0xb
    8000615c:	4cc50513          	addi	a0,a0,1228
    80006160:	00a51513          	slli	a0,a0,0xa
    80006164:	33250513          	addi	a0,a0,818
    80006168:	00657593          	andi	a1,a0,6
    8000616c:	0ab0b423          	sd	a1,168(ra)
    80006170:	00200113          	li	sp,2
    80006174:	00b10463          	beq	sp,a1,8000617c <inst_556>
    80006178:	eadf906f          	j	80000024 <rvtest_error>

000000008000617c <inst_556>:
    8000617c:	33333537          	lui	a0,0x33333
    80006180:	33350513          	addi	a0,a0,819 # 33333333 <absimmsh+0x27862586>
    80006184:	00b51513          	slli	a0,a0,0xb
    80006188:	19950513          	addi	a0,a0,409
    8000618c:	00b51513          	slli	a0,a0,0xb
    80006190:	4cc50513          	addi	a0,a0,1228
    80006194:	00a51513          	slli	a0,a0,0xa
    80006198:	33250513          	addi	a0,a0,818
    8000619c:	33457593          	andi	a1,a0,820
    800061a0:	0ab0b823          	sd	a1,176(ra)
    800061a4:	33000113          	li	sp,816
    800061a8:	00b10463          	beq	sp,a1,800061b0 <inst_557>
    800061ac:	e79f906f          	j	80000024 <rvtest_error>

00000000800061b0 <inst_557>:
    800061b0:	33333537          	lui	a0,0x33333
    800061b4:	33350513          	addi	a0,a0,819 # 33333333 <absimmsh+0x27862586>
    800061b8:	00b51513          	slli	a0,a0,0xb
    800061bc:	19950513          	addi	a0,a0,409
    800061c0:	00b51513          	slli	a0,a0,0xb
    800061c4:	4cc50513          	addi	a0,a0,1228
    800061c8:	00a51513          	slli	a0,a0,0xa
    800061cc:	33250513          	addi	a0,a0,818
    800061d0:	66757593          	andi	a1,a0,1639
    800061d4:	0ab0bc23          	sd	a1,184(ra)
    800061d8:	22200113          	li	sp,546
    800061dc:	00b10463          	beq	sp,a1,800061e4 <inst_558>
    800061e0:	e45f906f          	j	80000024 <rvtest_error>

00000000800061e4 <inst_558>:
    800061e4:	33333537          	lui	a0,0x33333
    800061e8:	33350513          	addi	a0,a0,819 # 33333333 <absimmsh+0x27862586>
    800061ec:	00b51513          	slli	a0,a0,0xb
    800061f0:	19950513          	addi	a0,a0,409
    800061f4:	00b51513          	slli	a0,a0,0xb
    800061f8:	4cc50513          	addi	a0,a0,1228
    800061fc:	00a51513          	slli	a0,a0,0xa
    80006200:	33250513          	addi	a0,a0,818
    80006204:	fd457593          	andi	a1,a0,-44
    80006208:	0cb0b023          	sd	a1,192(ra)
    8000620c:	03333137          	lui	sp,0x3333
    80006210:	3331011b          	addiw	sp,sp,819 # 3333333 <offset+0x333308b>
    80006214:	00c11113          	slli	sp,sp,0xc
    80006218:	33310113          	addi	sp,sp,819
    8000621c:	00c11113          	slli	sp,sp,0xc
    80006220:	33310113          	addi	sp,sp,819
    80006224:	00c11113          	slli	sp,sp,0xc
    80006228:	31010113          	addi	sp,sp,784
    8000622c:	00b10463          	beq	sp,a1,80006234 <inst_559>
    80006230:	df5f906f          	j	80000024 <rvtest_error>

0000000080006234 <inst_559>:
    80006234:	33333537          	lui	a0,0x33333
    80006238:	33350513          	addi	a0,a0,819 # 33333333 <absimmsh+0x27862586>
    8000623c:	00b51513          	slli	a0,a0,0xb
    80006240:	19950513          	addi	a0,a0,409
    80006244:	00b51513          	slli	a0,a0,0xb
    80006248:	4cc50513          	addi	a0,a0,1228
    8000624c:	00a51513          	slli	a0,a0,0xa
    80006250:	33250513          	addi	a0,a0,818
    80006254:	02e57593          	andi	a1,a0,46
    80006258:	0cb0b423          	sd	a1,200(ra)
    8000625c:	02200113          	li	sp,34
    80006260:	00b10463          	beq	sp,a1,80006268 <inst_560>
    80006264:	dc1f906f          	j	80000024 <rvtest_error>

0000000080006268 <inst_560>:
    80006268:	66666537          	lui	a0,0x66666
    8000626c:	66650513          	addi	a0,a0,1638 # 66666666 <absimmsh+0x5ab958b9>
    80006270:	00b51513          	slli	a0,a0,0xb
    80006274:	33350513          	addi	a0,a0,819
    80006278:	00b51513          	slli	a0,a0,0xb
    8000627c:	19950513          	addi	a0,a0,409
    80006280:	00a51513          	slli	a0,a0,0xa
    80006284:	26550513          	addi	a0,a0,613
    80006288:	00357593          	andi	a1,a0,3
    8000628c:	0cb0b823          	sd	a1,208(ra)
    80006290:	00100113          	li	sp,1
    80006294:	00b10463          	beq	sp,a1,8000629c <inst_561>
    80006298:	d8df906f          	j	80000024 <rvtest_error>

000000008000629c <inst_561>:
    8000629c:	66666537          	lui	a0,0x66666
    800062a0:	66650513          	addi	a0,a0,1638 # 66666666 <absimmsh+0x5ab958b9>
    800062a4:	00b51513          	slli	a0,a0,0xb
    800062a8:	33350513          	addi	a0,a0,819
    800062ac:	00b51513          	slli	a0,a0,0xb
    800062b0:	19950513          	addi	a0,a0,409
    800062b4:	00a51513          	slli	a0,a0,0xa
    800062b8:	26550513          	addi	a0,a0,613
    800062bc:	55557593          	andi	a1,a0,1365
    800062c0:	0cb0bc23          	sd	a1,216(ra)
    800062c4:	44500113          	li	sp,1093
    800062c8:	00b10463          	beq	sp,a1,800062d0 <inst_562>
    800062cc:	d59f906f          	j	80000024 <rvtest_error>

00000000800062d0 <inst_562>:
    800062d0:	66666537          	lui	a0,0x66666
    800062d4:	66650513          	addi	a0,a0,1638 # 66666666 <absimmsh+0x5ab958b9>
    800062d8:	00b51513          	slli	a0,a0,0xb
    800062dc:	33350513          	addi	a0,a0,819
    800062e0:	00b51513          	slli	a0,a0,0xb
    800062e4:	19950513          	addi	a0,a0,409
    800062e8:	00a51513          	slli	a0,a0,0xa
    800062ec:	26550513          	addi	a0,a0,613
    800062f0:	aaa57593          	andi	a1,a0,-1366
    800062f4:	0eb0b023          	sd	a1,224(ra)
    800062f8:	03333137          	lui	sp,0x3333
    800062fc:	3331011b          	addiw	sp,sp,819 # 3333333 <offset+0x333308b>
    80006300:	00c11113          	slli	sp,sp,0xc
    80006304:	33310113          	addi	sp,sp,819
    80006308:	00c11113          	slli	sp,sp,0xc
    8000630c:	33310113          	addi	sp,sp,819
    80006310:	00d11113          	slli	sp,sp,0xd
    80006314:	22010113          	addi	sp,sp,544
    80006318:	00b10463          	beq	sp,a1,80006320 <inst_563>
    8000631c:	d09f906f          	j	80000024 <rvtest_error>

0000000080006320 <inst_563>:
    80006320:	66666537          	lui	a0,0x66666
    80006324:	66650513          	addi	a0,a0,1638 # 66666666 <absimmsh+0x5ab958b9>
    80006328:	00b51513          	slli	a0,a0,0xb
    8000632c:	33350513          	addi	a0,a0,819
    80006330:	00b51513          	slli	a0,a0,0xb
    80006334:	19950513          	addi	a0,a0,409
    80006338:	00a51513          	slli	a0,a0,0xa
    8000633c:	26550513          	addi	a0,a0,613
    80006340:	00557593          	andi	a1,a0,5
    80006344:	0eb0b423          	sd	a1,232(ra)
    80006348:	00500113          	li	sp,5
    8000634c:	00b10463          	beq	sp,a1,80006354 <inst_564>
    80006350:	cd5f906f          	j	80000024 <rvtest_error>

0000000080006354 <inst_564>:
    80006354:	66666537          	lui	a0,0x66666
    80006358:	66650513          	addi	a0,a0,1638 # 66666666 <absimmsh+0x5ab958b9>
    8000635c:	00b51513          	slli	a0,a0,0xb
    80006360:	33350513          	addi	a0,a0,819
    80006364:	00b51513          	slli	a0,a0,0xb
    80006368:	19950513          	addi	a0,a0,409
    8000636c:	00a51513          	slli	a0,a0,0xa
    80006370:	26550513          	addi	a0,a0,613
    80006374:	33357593          	andi	a1,a0,819
    80006378:	0eb0b823          	sd	a1,240(ra)
    8000637c:	22100113          	li	sp,545
    80006380:	00b10463          	beq	sp,a1,80006388 <inst_565>
    80006384:	ca1f906f          	j	80000024 <rvtest_error>

0000000080006388 <inst_565>:
    80006388:	66666537          	lui	a0,0x66666
    8000638c:	66650513          	addi	a0,a0,1638 # 66666666 <absimmsh+0x5ab958b9>
    80006390:	00b51513          	slli	a0,a0,0xb
    80006394:	33350513          	addi	a0,a0,819
    80006398:	00b51513          	slli	a0,a0,0xb
    8000639c:	19950513          	addi	a0,a0,409
    800063a0:	00a51513          	slli	a0,a0,0xa
    800063a4:	26550513          	addi	a0,a0,613
    800063a8:	66657593          	andi	a1,a0,1638
    800063ac:	0eb0bc23          	sd	a1,248(ra)
    800063b0:	66400113          	li	sp,1636
    800063b4:	00b10463          	beq	sp,a1,800063bc <inst_566>
    800063b8:	c6df906f          	j	80000024 <rvtest_error>

00000000800063bc <inst_566>:
    800063bc:	66666537          	lui	a0,0x66666
    800063c0:	66650513          	addi	a0,a0,1638 # 66666666 <absimmsh+0x5ab958b9>
    800063c4:	00b51513          	slli	a0,a0,0xb
    800063c8:	33350513          	addi	a0,a0,819
    800063cc:	00b51513          	slli	a0,a0,0xb
    800063d0:	19950513          	addi	a0,a0,409
    800063d4:	00a51513          	slli	a0,a0,0xa
    800063d8:	26550513          	addi	a0,a0,613
    800063dc:	fd357593          	andi	a1,a0,-45
    800063e0:	10b0b023          	sd	a1,256(ra)
    800063e4:	03333137          	lui	sp,0x3333
    800063e8:	3331011b          	addiw	sp,sp,819 # 3333333 <offset+0x333308b>
    800063ec:	00c11113          	slli	sp,sp,0xc
    800063f0:	33310113          	addi	sp,sp,819
    800063f4:	00c11113          	slli	sp,sp,0xc
    800063f8:	33310113          	addi	sp,sp,819
    800063fc:	00d11113          	slli	sp,sp,0xd
    80006400:	64110113          	addi	sp,sp,1601
    80006404:	00b10463          	beq	sp,a1,8000640c <inst_567>
    80006408:	c1df906f          	j	80000024 <rvtest_error>

000000008000640c <inst_567>:
    8000640c:	66666537          	lui	a0,0x66666
    80006410:	66650513          	addi	a0,a0,1638 # 66666666 <absimmsh+0x5ab958b9>
    80006414:	00b51513          	slli	a0,a0,0xb
    80006418:	33350513          	addi	a0,a0,819
    8000641c:	00b51513          	slli	a0,a0,0xb
    80006420:	19950513          	addi	a0,a0,409
    80006424:	00a51513          	slli	a0,a0,0xa
    80006428:	26550513          	addi	a0,a0,613
    8000642c:	02d57593          	andi	a1,a0,45
    80006430:	10b0b423          	sd	a1,264(ra)
    80006434:	02500113          	li	sp,37
    80006438:	00b10463          	beq	sp,a1,80006440 <inst_568>
    8000643c:	be9f906f          	j	80000024 <rvtest_error>

0000000080006440 <inst_568>:
    80006440:	66666537          	lui	a0,0x66666
    80006444:	66650513          	addi	a0,a0,1638 # 66666666 <absimmsh+0x5ab958b9>
    80006448:	00b51513          	slli	a0,a0,0xb
    8000644c:	33350513          	addi	a0,a0,819
    80006450:	00b51513          	slli	a0,a0,0xb
    80006454:	19950513          	addi	a0,a0,409
    80006458:	00a51513          	slli	a0,a0,0xa
    8000645c:	26550513          	addi	a0,a0,613
    80006460:	00257593          	andi	a1,a0,2
    80006464:	10b0b823          	sd	a1,272(ra)
    80006468:	00000113          	li	sp,0
    8000646c:	00b10463          	beq	sp,a1,80006474 <inst_569>
    80006470:	bb5f906f          	j	80000024 <rvtest_error>

0000000080006474 <inst_569>:
    80006474:	66666537          	lui	a0,0x66666
    80006478:	66650513          	addi	a0,a0,1638 # 66666666 <absimmsh+0x5ab958b9>
    8000647c:	00b51513          	slli	a0,a0,0xb
    80006480:	33350513          	addi	a0,a0,819
    80006484:	00b51513          	slli	a0,a0,0xb
    80006488:	19950513          	addi	a0,a0,409
    8000648c:	00a51513          	slli	a0,a0,0xa
    80006490:	26550513          	addi	a0,a0,613
    80006494:	55457593          	andi	a1,a0,1364
    80006498:	10b0bc23          	sd	a1,280(ra)
    8000649c:	44400113          	li	sp,1092
    800064a0:	00b10463          	beq	sp,a1,800064a8 <inst_570>
    800064a4:	b81f906f          	j	80000024 <rvtest_error>

00000000800064a8 <inst_570>:
    800064a8:	66666537          	lui	a0,0x66666
    800064ac:	66650513          	addi	a0,a0,1638 # 66666666 <absimmsh+0x5ab958b9>
    800064b0:	00b51513          	slli	a0,a0,0xb
    800064b4:	33350513          	addi	a0,a0,819
    800064b8:	00b51513          	slli	a0,a0,0xb
    800064bc:	19950513          	addi	a0,a0,409
    800064c0:	00a51513          	slli	a0,a0,0xa
    800064c4:	26550513          	addi	a0,a0,613
    800064c8:	00057593          	andi	a1,a0,0
    800064cc:	12b0b023          	sd	a1,288(ra)
    800064d0:	00000113          	li	sp,0
    800064d4:	00b10463          	beq	sp,a1,800064dc <inst_571>
    800064d8:	b4df906f          	j	80000024 <rvtest_error>

00000000800064dc <inst_571>:
    800064dc:	66666537          	lui	a0,0x66666
    800064e0:	66650513          	addi	a0,a0,1638 # 66666666 <absimmsh+0x5ab958b9>
    800064e4:	00b51513          	slli	a0,a0,0xb
    800064e8:	33350513          	addi	a0,a0,819
    800064ec:	00b51513          	slli	a0,a0,0xb
    800064f0:	19950513          	addi	a0,a0,409
    800064f4:	00a51513          	slli	a0,a0,0xa
    800064f8:	26550513          	addi	a0,a0,613
    800064fc:	00457593          	andi	a1,a0,4
    80006500:	12b0b423          	sd	a1,296(ra)
    80006504:	00400113          	li	sp,4
    80006508:	00b10463          	beq	sp,a1,80006510 <inst_572>
    8000650c:	b19f906f          	j	80000024 <rvtest_error>

0000000080006510 <inst_572>:
    80006510:	66666537          	lui	a0,0x66666
    80006514:	66650513          	addi	a0,a0,1638 # 66666666 <absimmsh+0x5ab958b9>
    80006518:	00b51513          	slli	a0,a0,0xb
    8000651c:	33350513          	addi	a0,a0,819
    80006520:	00b51513          	slli	a0,a0,0xb
    80006524:	19950513          	addi	a0,a0,409
    80006528:	00a51513          	slli	a0,a0,0xa
    8000652c:	26550513          	addi	a0,a0,613
    80006530:	33257593          	andi	a1,a0,818
    80006534:	12b0b823          	sd	a1,304(ra)
    80006538:	22000113          	li	sp,544
    8000653c:	00b10463          	beq	sp,a1,80006544 <inst_573>
    80006540:	ae5f906f          	j	80000024 <rvtest_error>

0000000080006544 <inst_573>:
    80006544:	66666537          	lui	a0,0x66666
    80006548:	66650513          	addi	a0,a0,1638 # 66666666 <absimmsh+0x5ab958b9>
    8000654c:	00b51513          	slli	a0,a0,0xb
    80006550:	33350513          	addi	a0,a0,819
    80006554:	00b51513          	slli	a0,a0,0xb
    80006558:	19950513          	addi	a0,a0,409
    8000655c:	00a51513          	slli	a0,a0,0xa
    80006560:	26550513          	addi	a0,a0,613
    80006564:	66557593          	andi	a1,a0,1637
    80006568:	12b0bc23          	sd	a1,312(ra)
    8000656c:	66500113          	li	sp,1637
    80006570:	00b10463          	beq	sp,a1,80006578 <inst_574>
    80006574:	ab1f906f          	j	80000024 <rvtest_error>

0000000080006578 <inst_574>:
    80006578:	66666537          	lui	a0,0x66666
    8000657c:	66650513          	addi	a0,a0,1638 # 66666666 <absimmsh+0x5ab958b9>
    80006580:	00b51513          	slli	a0,a0,0xb
    80006584:	33350513          	addi	a0,a0,819
    80006588:	00b51513          	slli	a0,a0,0xb
    8000658c:	19950513          	addi	a0,a0,409
    80006590:	00a51513          	slli	a0,a0,0xa
    80006594:	26550513          	addi	a0,a0,613
    80006598:	02c57593          	andi	a1,a0,44
    8000659c:	14b0b023          	sd	a1,320(ra)
    800065a0:	02400113          	li	sp,36
    800065a4:	00b10463          	beq	sp,a1,800065ac <inst_575>
    800065a8:	a7df906f          	j	80000024 <rvtest_error>

00000000800065ac <inst_575>:
    800065ac:	66666537          	lui	a0,0x66666
    800065b0:	66650513          	addi	a0,a0,1638 # 66666666 <absimmsh+0x5ab958b9>
    800065b4:	00b51513          	slli	a0,a0,0xb
    800065b8:	33350513          	addi	a0,a0,819
    800065bc:	00b51513          	slli	a0,a0,0xb
    800065c0:	19950513          	addi	a0,a0,409
    800065c4:	00a51513          	slli	a0,a0,0xa
    800065c8:	26550513          	addi	a0,a0,613
    800065cc:	55657593          	andi	a1,a0,1366
    800065d0:	14b0b423          	sd	a1,328(ra)
    800065d4:	44400113          	li	sp,1092
    800065d8:	00b10463          	beq	sp,a1,800065e0 <inst_576>
    800065dc:	a49f906f          	j	80000024 <rvtest_error>

00000000800065e0 <inst_576>:
    800065e0:	66666537          	lui	a0,0x66666
    800065e4:	66650513          	addi	a0,a0,1638 # 66666666 <absimmsh+0x5ab958b9>
    800065e8:	00b51513          	slli	a0,a0,0xb
    800065ec:	33350513          	addi	a0,a0,819
    800065f0:	00b51513          	slli	a0,a0,0xb
    800065f4:	19950513          	addi	a0,a0,409
    800065f8:	00a51513          	slli	a0,a0,0xa
    800065fc:	26550513          	addi	a0,a0,613
    80006600:	aab57593          	andi	a1,a0,-1365
    80006604:	14b0b823          	sd	a1,336(ra)
    80006608:	03333137          	lui	sp,0x3333
    8000660c:	3331011b          	addiw	sp,sp,819 # 3333333 <offset+0x333308b>
    80006610:	00c11113          	slli	sp,sp,0xc
    80006614:	33310113          	addi	sp,sp,819
    80006618:	00c11113          	slli	sp,sp,0xc
    8000661c:	33310113          	addi	sp,sp,819
    80006620:	00d11113          	slli	sp,sp,0xd
    80006624:	22110113          	addi	sp,sp,545
    80006628:	00b10463          	beq	sp,a1,80006630 <inst_577>
    8000662c:	9f9f906f          	j	80000024 <rvtest_error>

0000000080006630 <inst_577>:
    80006630:	66666537          	lui	a0,0x66666
    80006634:	66650513          	addi	a0,a0,1638 # 66666666 <absimmsh+0x5ab958b9>
    80006638:	00b51513          	slli	a0,a0,0xb
    8000663c:	33350513          	addi	a0,a0,819
    80006640:	00b51513          	slli	a0,a0,0xb
    80006644:	19950513          	addi	a0,a0,409
    80006648:	00a51513          	slli	a0,a0,0xa
    8000664c:	26550513          	addi	a0,a0,613
    80006650:	00657593          	andi	a1,a0,6
    80006654:	14b0bc23          	sd	a1,344(ra)
    80006658:	00400113          	li	sp,4
    8000665c:	00b10463          	beq	sp,a1,80006664 <inst_578>
    80006660:	9c5f906f          	j	80000024 <rvtest_error>

0000000080006664 <inst_578>:
    80006664:	66666537          	lui	a0,0x66666
    80006668:	66650513          	addi	a0,a0,1638 # 66666666 <absimmsh+0x5ab958b9>
    8000666c:	00b51513          	slli	a0,a0,0xb
    80006670:	33350513          	addi	a0,a0,819
    80006674:	00b51513          	slli	a0,a0,0xb
    80006678:	19950513          	addi	a0,a0,409
    8000667c:	00a51513          	slli	a0,a0,0xa
    80006680:	26550513          	addi	a0,a0,613
    80006684:	33457593          	andi	a1,a0,820
    80006688:	16b0b023          	sd	a1,352(ra)
    8000668c:	22400113          	li	sp,548
    80006690:	00b10463          	beq	sp,a1,80006698 <inst_579>
    80006694:	991f906f          	j	80000024 <rvtest_error>

0000000080006698 <inst_579>:
    80006698:	66666537          	lui	a0,0x66666
    8000669c:	66650513          	addi	a0,a0,1638 # 66666666 <absimmsh+0x5ab958b9>
    800066a0:	00b51513          	slli	a0,a0,0xb
    800066a4:	33350513          	addi	a0,a0,819
    800066a8:	00b51513          	slli	a0,a0,0xb
    800066ac:	19950513          	addi	a0,a0,409
    800066b0:	00a51513          	slli	a0,a0,0xa
    800066b4:	26550513          	addi	a0,a0,613
    800066b8:	66757593          	andi	a1,a0,1639
    800066bc:	16b0b423          	sd	a1,360(ra)
    800066c0:	66500113          	li	sp,1637
    800066c4:	00b10463          	beq	sp,a1,800066cc <inst_580>
    800066c8:	95df906f          	j	80000024 <rvtest_error>

00000000800066cc <inst_580>:
    800066cc:	66666537          	lui	a0,0x66666
    800066d0:	66650513          	addi	a0,a0,1638 # 66666666 <absimmsh+0x5ab958b9>
    800066d4:	00b51513          	slli	a0,a0,0xb
    800066d8:	33350513          	addi	a0,a0,819
    800066dc:	00b51513          	slli	a0,a0,0xb
    800066e0:	19950513          	addi	a0,a0,409
    800066e4:	00a51513          	slli	a0,a0,0xa
    800066e8:	26550513          	addi	a0,a0,613
    800066ec:	fd457593          	andi	a1,a0,-44
    800066f0:	16b0b823          	sd	a1,368(ra)
    800066f4:	03333137          	lui	sp,0x3333
    800066f8:	3331011b          	addiw	sp,sp,819 # 3333333 <offset+0x333308b>
    800066fc:	00c11113          	slli	sp,sp,0xc
    80006700:	33310113          	addi	sp,sp,819
    80006704:	00c11113          	slli	sp,sp,0xc
    80006708:	33310113          	addi	sp,sp,819
    8000670c:	00d11113          	slli	sp,sp,0xd
    80006710:	64410113          	addi	sp,sp,1604
    80006714:	00b10463          	beq	sp,a1,8000671c <inst_581>
    80006718:	90df906f          	j	80000024 <rvtest_error>

000000008000671c <inst_581>:
    8000671c:	66666537          	lui	a0,0x66666
    80006720:	66650513          	addi	a0,a0,1638 # 66666666 <absimmsh+0x5ab958b9>
    80006724:	00b51513          	slli	a0,a0,0xb
    80006728:	33350513          	addi	a0,a0,819
    8000672c:	00b51513          	slli	a0,a0,0xb
    80006730:	19950513          	addi	a0,a0,409
    80006734:	00a51513          	slli	a0,a0,0xa
    80006738:	26550513          	addi	a0,a0,613
    8000673c:	02e57593          	andi	a1,a0,46
    80006740:	16b0bc23          	sd	a1,376(ra)
    80006744:	02400113          	li	sp,36
    80006748:	00b10463          	beq	sp,a1,80006750 <inst_582>
    8000674c:	8d9f906f          	j	80000024 <rvtest_error>

0000000080006750 <inst_582>:
    80006750:	00000537          	lui	a0,0x0
    80006754:	00050513          	mv	a0,a0
    80006758:	00b51513          	slli	a0,a0,0xb
    8000675c:	5a850513          	addi	a0,a0,1448 # 5a8 <offset+0x300>
    80006760:	00b51513          	slli	a0,a0,0xb
    80006764:	13c50513          	addi	a0,a0,316
    80006768:	00a51513          	slli	a0,a0,0xa
    8000676c:	33250513          	addi	a0,a0,818
    80006770:	00357593          	andi	a1,a0,3
    80006774:	18b0b023          	sd	a1,384(ra)
    80006778:	00200113          	li	sp,2
    8000677c:	00b10463          	beq	sp,a1,80006784 <inst_583>
    80006780:	8a5f906f          	j	80000024 <rvtest_error>

0000000080006784 <inst_583>:
    80006784:	00000537          	lui	a0,0x0
    80006788:	00050513          	mv	a0,a0
    8000678c:	00b51513          	slli	a0,a0,0xb
    80006790:	5a850513          	addi	a0,a0,1448 # 5a8 <offset+0x300>
    80006794:	00b51513          	slli	a0,a0,0xb
    80006798:	13c50513          	addi	a0,a0,316
    8000679c:	00a51513          	slli	a0,a0,0xa
    800067a0:	33250513          	addi	a0,a0,818
    800067a4:	55557593          	andi	a1,a0,1365
    800067a8:	18b0b423          	sd	a1,392(ra)
    800067ac:	11000113          	li	sp,272
    800067b0:	00b10463          	beq	sp,a1,800067b8 <inst_584>
    800067b4:	871f906f          	j	80000024 <rvtest_error>

00000000800067b8 <inst_584>:
    800067b8:	00000537          	lui	a0,0x0
    800067bc:	00050513          	mv	a0,a0
    800067c0:	00b51513          	slli	a0,a0,0xb
    800067c4:	5a850513          	addi	a0,a0,1448 # 5a8 <offset+0x300>
    800067c8:	00b51513          	slli	a0,a0,0xb
    800067cc:	13c50513          	addi	a0,a0,316
    800067d0:	00a51513          	slli	a0,a0,0xa
    800067d4:	33250513          	addi	a0,a0,818
    800067d8:	aaa57593          	andi	a1,a0,-1366
    800067dc:	18b0b823          	sd	a1,400(ra)
    800067e0:	000b5137          	lui	sp,0xb5
    800067e4:	04f1011b          	addiw	sp,sp,79 # b504f <offset+0xb4da7>
    800067e8:	00c11113          	slli	sp,sp,0xc
    800067ec:	22210113          	addi	sp,sp,546
    800067f0:	00b10463          	beq	sp,a1,800067f8 <inst_585>
    800067f4:	831f906f          	j	80000024 <rvtest_error>

00000000800067f8 <inst_585>:
    800067f8:	00000537          	lui	a0,0x0
    800067fc:	00050513          	mv	a0,a0
    80006800:	00b51513          	slli	a0,a0,0xb
    80006804:	5a850513          	addi	a0,a0,1448 # 5a8 <offset+0x300>
    80006808:	00b51513          	slli	a0,a0,0xb
    8000680c:	13c50513          	addi	a0,a0,316
    80006810:	00a51513          	slli	a0,a0,0xa
    80006814:	33250513          	addi	a0,a0,818
    80006818:	00557593          	andi	a1,a0,5
    8000681c:	18b0bc23          	sd	a1,408(ra)
    80006820:	00000113          	li	sp,0
    80006824:	00b10463          	beq	sp,a1,8000682c <inst_586>
    80006828:	ffcf906f          	j	80000024 <rvtest_error>

000000008000682c <inst_586>:
    8000682c:	00000537          	lui	a0,0x0
    80006830:	00050513          	mv	a0,a0
    80006834:	00b51513          	slli	a0,a0,0xb
    80006838:	5a850513          	addi	a0,a0,1448 # 5a8 <offset+0x300>
    8000683c:	00b51513          	slli	a0,a0,0xb
    80006840:	13c50513          	addi	a0,a0,316
    80006844:	00a51513          	slli	a0,a0,0xa
    80006848:	33250513          	addi	a0,a0,818
    8000684c:	33357593          	andi	a1,a0,819
    80006850:	1ab0b023          	sd	a1,416(ra)
    80006854:	33200113          	li	sp,818
    80006858:	00b10463          	beq	sp,a1,80006860 <inst_587>
    8000685c:	fc8f906f          	j	80000024 <rvtest_error>

0000000080006860 <inst_587>:
    80006860:	00000537          	lui	a0,0x0
    80006864:	00050513          	mv	a0,a0
    80006868:	00b51513          	slli	a0,a0,0xb
    8000686c:	5a850513          	addi	a0,a0,1448 # 5a8 <offset+0x300>
    80006870:	00b51513          	slli	a0,a0,0xb
    80006874:	13c50513          	addi	a0,a0,316
    80006878:	00a51513          	slli	a0,a0,0xa
    8000687c:	33250513          	addi	a0,a0,818
    80006880:	66657593          	andi	a1,a0,1638
    80006884:	1ab0b423          	sd	a1,424(ra)
    80006888:	22200113          	li	sp,546
    8000688c:	00b10463          	beq	sp,a1,80006894 <inst_588>
    80006890:	f94f906f          	j	80000024 <rvtest_error>

0000000080006894 <inst_588>:
    80006894:	00000537          	lui	a0,0x0
    80006898:	00050513          	mv	a0,a0
    8000689c:	00b51513          	slli	a0,a0,0xb
    800068a0:	5a850513          	addi	a0,a0,1448 # 5a8 <offset+0x300>
    800068a4:	00b51513          	slli	a0,a0,0xb
    800068a8:	13c50513          	addi	a0,a0,316
    800068ac:	00a51513          	slli	a0,a0,0xa
    800068b0:	33250513          	addi	a0,a0,818
    800068b4:	fd357593          	andi	a1,a0,-45
    800068b8:	1ab0b823          	sd	a1,432(ra)
    800068bc:	000b5137          	lui	sp,0xb5
    800068c0:	04f1011b          	addiw	sp,sp,79 # b504f <offset+0xb4da7>
    800068c4:	00c11113          	slli	sp,sp,0xc
    800068c8:	31210113          	addi	sp,sp,786
    800068cc:	00b10463          	beq	sp,a1,800068d4 <inst_589>
    800068d0:	f54f906f          	j	80000024 <rvtest_error>

00000000800068d4 <inst_589>:
    800068d4:	00000537          	lui	a0,0x0
    800068d8:	00050513          	mv	a0,a0
    800068dc:	00b51513          	slli	a0,a0,0xb
    800068e0:	5a850513          	addi	a0,a0,1448 # 5a8 <offset+0x300>
    800068e4:	00b51513          	slli	a0,a0,0xb
    800068e8:	13c50513          	addi	a0,a0,316
    800068ec:	00a51513          	slli	a0,a0,0xa
    800068f0:	33250513          	addi	a0,a0,818
    800068f4:	02d57593          	andi	a1,a0,45
    800068f8:	1ab0bc23          	sd	a1,440(ra)
    800068fc:	02000113          	li	sp,32
    80006900:	00b10463          	beq	sp,a1,80006908 <inst_590>
    80006904:	f20f906f          	j	80000024 <rvtest_error>

0000000080006908 <inst_590>:
    80006908:	00000537          	lui	a0,0x0
    8000690c:	00050513          	mv	a0,a0
    80006910:	00b51513          	slli	a0,a0,0xb
    80006914:	5a850513          	addi	a0,a0,1448 # 5a8 <offset+0x300>
    80006918:	00b51513          	slli	a0,a0,0xb
    8000691c:	13c50513          	addi	a0,a0,316
    80006920:	00a51513          	slli	a0,a0,0xa
    80006924:	33250513          	addi	a0,a0,818
    80006928:	00257593          	andi	a1,a0,2
    8000692c:	1cb0b023          	sd	a1,448(ra)
    80006930:	00200113          	li	sp,2
    80006934:	00b10463          	beq	sp,a1,8000693c <inst_591>
    80006938:	eecf906f          	j	80000024 <rvtest_error>

000000008000693c <inst_591>:
    8000693c:	00000537          	lui	a0,0x0
    80006940:	00050513          	mv	a0,a0
    80006944:	00b51513          	slli	a0,a0,0xb
    80006948:	5a850513          	addi	a0,a0,1448 # 5a8 <offset+0x300>
    8000694c:	00b51513          	slli	a0,a0,0xb
    80006950:	13c50513          	addi	a0,a0,316
    80006954:	00a51513          	slli	a0,a0,0xa
    80006958:	33250513          	addi	a0,a0,818
    8000695c:	55457593          	andi	a1,a0,1364
    80006960:	1cb0b423          	sd	a1,456(ra)
    80006964:	11000113          	li	sp,272
    80006968:	00b10463          	beq	sp,a1,80006970 <inst_592>
    8000696c:	eb8f906f          	j	80000024 <rvtest_error>

0000000080006970 <inst_592>:
    80006970:	00000537          	lui	a0,0x0
    80006974:	00050513          	mv	a0,a0
    80006978:	00b51513          	slli	a0,a0,0xb
    8000697c:	5a850513          	addi	a0,a0,1448 # 5a8 <offset+0x300>
    80006980:	00b51513          	slli	a0,a0,0xb
    80006984:	13c50513          	addi	a0,a0,316
    80006988:	00a51513          	slli	a0,a0,0xa
    8000698c:	33250513          	addi	a0,a0,818
    80006990:	00057593          	andi	a1,a0,0
    80006994:	1cb0b823          	sd	a1,464(ra)
    80006998:	00000113          	li	sp,0
    8000699c:	00b10463          	beq	sp,a1,800069a4 <inst_593>
    800069a0:	e84f906f          	j	80000024 <rvtest_error>

00000000800069a4 <inst_593>:
    800069a4:	00000537          	lui	a0,0x0
    800069a8:	00050513          	mv	a0,a0
    800069ac:	00b51513          	slli	a0,a0,0xb
    800069b0:	5a850513          	addi	a0,a0,1448 # 5a8 <offset+0x300>
    800069b4:	00b51513          	slli	a0,a0,0xb
    800069b8:	13c50513          	addi	a0,a0,316
    800069bc:	00a51513          	slli	a0,a0,0xa
    800069c0:	33250513          	addi	a0,a0,818
    800069c4:	00457593          	andi	a1,a0,4
    800069c8:	1cb0bc23          	sd	a1,472(ra)
    800069cc:	00000113          	li	sp,0
    800069d0:	00b10463          	beq	sp,a1,800069d8 <inst_594>
    800069d4:	e50f906f          	j	80000024 <rvtest_error>

00000000800069d8 <inst_594>:
    800069d8:	00000537          	lui	a0,0x0
    800069dc:	00050513          	mv	a0,a0
    800069e0:	00b51513          	slli	a0,a0,0xb
    800069e4:	5a850513          	addi	a0,a0,1448 # 5a8 <offset+0x300>
    800069e8:	00b51513          	slli	a0,a0,0xb
    800069ec:	13c50513          	addi	a0,a0,316
    800069f0:	00a51513          	slli	a0,a0,0xa
    800069f4:	33250513          	addi	a0,a0,818
    800069f8:	33257593          	andi	a1,a0,818
    800069fc:	1eb0b023          	sd	a1,480(ra)
    80006a00:	33200113          	li	sp,818
    80006a04:	00b10463          	beq	sp,a1,80006a0c <inst_595>
    80006a08:	e1cf906f          	j	80000024 <rvtest_error>

0000000080006a0c <inst_595>:
    80006a0c:	00000537          	lui	a0,0x0
    80006a10:	00050513          	mv	a0,a0
    80006a14:	00b51513          	slli	a0,a0,0xb
    80006a18:	5a850513          	addi	a0,a0,1448 # 5a8 <offset+0x300>
    80006a1c:	00b51513          	slli	a0,a0,0xb
    80006a20:	13c50513          	addi	a0,a0,316
    80006a24:	00a51513          	slli	a0,a0,0xa
    80006a28:	33250513          	addi	a0,a0,818
    80006a2c:	66557593          	andi	a1,a0,1637
    80006a30:	1eb0b423          	sd	a1,488(ra)
    80006a34:	22000113          	li	sp,544
    80006a38:	00b10463          	beq	sp,a1,80006a40 <inst_596>
    80006a3c:	de8f906f          	j	80000024 <rvtest_error>

0000000080006a40 <inst_596>:
    80006a40:	00000537          	lui	a0,0x0
    80006a44:	00050513          	mv	a0,a0
    80006a48:	00b51513          	slli	a0,a0,0xb
    80006a4c:	5a850513          	addi	a0,a0,1448 # 5a8 <offset+0x300>
    80006a50:	00b51513          	slli	a0,a0,0xb
    80006a54:	13c50513          	addi	a0,a0,316
    80006a58:	00a51513          	slli	a0,a0,0xa
    80006a5c:	33250513          	addi	a0,a0,818
    80006a60:	02c57593          	andi	a1,a0,44
    80006a64:	1eb0b823          	sd	a1,496(ra)
    80006a68:	02000113          	li	sp,32
    80006a6c:	00b10463          	beq	sp,a1,80006a74 <inst_597>
    80006a70:	db4f906f          	j	80000024 <rvtest_error>

0000000080006a74 <inst_597>:
    80006a74:	00000537          	lui	a0,0x0
    80006a78:	00050513          	mv	a0,a0
    80006a7c:	00b51513          	slli	a0,a0,0xb
    80006a80:	5a850513          	addi	a0,a0,1448 # 5a8 <offset+0x300>
    80006a84:	00b51513          	slli	a0,a0,0xb
    80006a88:	13c50513          	addi	a0,a0,316
    80006a8c:	00a51513          	slli	a0,a0,0xa
    80006a90:	33250513          	addi	a0,a0,818
    80006a94:	55657593          	andi	a1,a0,1366
    80006a98:	1eb0bc23          	sd	a1,504(ra)
    80006a9c:	11200113          	li	sp,274
    80006aa0:	00b10463          	beq	sp,a1,80006aa8 <inst_598>
    80006aa4:	d80f906f          	j	80000024 <rvtest_error>

0000000080006aa8 <inst_598>:
    80006aa8:	00000537          	lui	a0,0x0
    80006aac:	00050513          	mv	a0,a0
    80006ab0:	00b51513          	slli	a0,a0,0xb
    80006ab4:	5a850513          	addi	a0,a0,1448 # 5a8 <offset+0x300>
    80006ab8:	00b51513          	slli	a0,a0,0xb
    80006abc:	13c50513          	addi	a0,a0,316
    80006ac0:	00a51513          	slli	a0,a0,0xa
    80006ac4:	33250513          	addi	a0,a0,818
    80006ac8:	aab57593          	andi	a1,a0,-1365
    80006acc:	20b0b023          	sd	a1,512(ra)
    80006ad0:	000b5137          	lui	sp,0xb5
    80006ad4:	04f1011b          	addiw	sp,sp,79 # b504f <offset+0xb4da7>
    80006ad8:	00c11113          	slli	sp,sp,0xc
    80006adc:	22210113          	addi	sp,sp,546
    80006ae0:	00b10463          	beq	sp,a1,80006ae8 <inst_599>
    80006ae4:	d40f906f          	j	80000024 <rvtest_error>

0000000080006ae8 <inst_599>:
    80006ae8:	00000537          	lui	a0,0x0
    80006aec:	00050513          	mv	a0,a0
    80006af0:	00b51513          	slli	a0,a0,0xb
    80006af4:	5a850513          	addi	a0,a0,1448 # 5a8 <offset+0x300>
    80006af8:	00b51513          	slli	a0,a0,0xb
    80006afc:	13c50513          	addi	a0,a0,316
    80006b00:	00a51513          	slli	a0,a0,0xa
    80006b04:	33250513          	addi	a0,a0,818
    80006b08:	00657593          	andi	a1,a0,6
    80006b0c:	20b0b423          	sd	a1,520(ra)
    80006b10:	00200113          	li	sp,2
    80006b14:	00b10463          	beq	sp,a1,80006b1c <inst_600>
    80006b18:	d0cf906f          	j	80000024 <rvtest_error>

0000000080006b1c <inst_600>:
    80006b1c:	00000537          	lui	a0,0x0
    80006b20:	00050513          	mv	a0,a0
    80006b24:	00b51513          	slli	a0,a0,0xb
    80006b28:	5a850513          	addi	a0,a0,1448 # 5a8 <offset+0x300>
    80006b2c:	00b51513          	slli	a0,a0,0xb
    80006b30:	13c50513          	addi	a0,a0,316
    80006b34:	00a51513          	slli	a0,a0,0xa
    80006b38:	33250513          	addi	a0,a0,818
    80006b3c:	33457593          	andi	a1,a0,820
    80006b40:	20b0b823          	sd	a1,528(ra)
    80006b44:	33000113          	li	sp,816
    80006b48:	00b10463          	beq	sp,a1,80006b50 <inst_601>
    80006b4c:	cd8f906f          	j	80000024 <rvtest_error>

0000000080006b50 <inst_601>:
    80006b50:	00000537          	lui	a0,0x0
    80006b54:	00050513          	mv	a0,a0
    80006b58:	00b51513          	slli	a0,a0,0xb
    80006b5c:	5a850513          	addi	a0,a0,1448 # 5a8 <offset+0x300>
    80006b60:	00b51513          	slli	a0,a0,0xb
    80006b64:	13c50513          	addi	a0,a0,316
    80006b68:	00a51513          	slli	a0,a0,0xa
    80006b6c:	33250513          	addi	a0,a0,818
    80006b70:	66757593          	andi	a1,a0,1639
    80006b74:	20b0bc23          	sd	a1,536(ra)
    80006b78:	22200113          	li	sp,546
    80006b7c:	00b10463          	beq	sp,a1,80006b84 <inst_602>
    80006b80:	ca4f906f          	j	80000024 <rvtest_error>

0000000080006b84 <inst_602>:
    80006b84:	00000537          	lui	a0,0x0
    80006b88:	00050513          	mv	a0,a0
    80006b8c:	00b51513          	slli	a0,a0,0xb
    80006b90:	5a850513          	addi	a0,a0,1448 # 5a8 <offset+0x300>
    80006b94:	00b51513          	slli	a0,a0,0xb
    80006b98:	13c50513          	addi	a0,a0,316
    80006b9c:	00a51513          	slli	a0,a0,0xa
    80006ba0:	33250513          	addi	a0,a0,818
    80006ba4:	fd457593          	andi	a1,a0,-44
    80006ba8:	22b0b023          	sd	a1,544(ra)
    80006bac:	000b5137          	lui	sp,0xb5
    80006bb0:	04f1011b          	addiw	sp,sp,79 # b504f <offset+0xb4da7>
    80006bb4:	00c11113          	slli	sp,sp,0xc
    80006bb8:	31010113          	addi	sp,sp,784
    80006bbc:	00b10463          	beq	sp,a1,80006bc4 <inst_603>
    80006bc0:	c64f906f          	j	80000024 <rvtest_error>

0000000080006bc4 <inst_603>:
    80006bc4:	00000537          	lui	a0,0x0
    80006bc8:	00050513          	mv	a0,a0
    80006bcc:	00b51513          	slli	a0,a0,0xb
    80006bd0:	5a850513          	addi	a0,a0,1448 # 5a8 <offset+0x300>
    80006bd4:	00b51513          	slli	a0,a0,0xb
    80006bd8:	13c50513          	addi	a0,a0,316
    80006bdc:	00a51513          	slli	a0,a0,0xa
    80006be0:	33250513          	addi	a0,a0,818
    80006be4:	02e57593          	andi	a1,a0,46
    80006be8:	22b0b423          	sd	a1,552(ra)
    80006bec:	02200113          	li	sp,34
    80006bf0:	00b10463          	beq	sp,a1,80006bf8 <inst_604>
    80006bf4:	c30f906f          	j	80000024 <rvtest_error>

0000000080006bf8 <inst_604>:
    80006bf8:	55555537          	lui	a0,0x55555
    80006bfc:	55550513          	addi	a0,a0,1365 # 55555555 <absimmsh+0x49a847a8>
    80006c00:	00b51513          	slli	a0,a0,0xb
    80006c04:	2aa50513          	addi	a0,a0,682
    80006c08:	00b51513          	slli	a0,a0,0xb
    80006c0c:	55550513          	addi	a0,a0,1365
    80006c10:	00a51513          	slli	a0,a0,0xa
    80006c14:	15650513          	addi	a0,a0,342
    80006c18:	00357593          	andi	a1,a0,3
    80006c1c:	22b0b823          	sd	a1,560(ra)
    80006c20:	00200113          	li	sp,2
    80006c24:	00b10463          	beq	sp,a1,80006c2c <inst_605>
    80006c28:	bfcf906f          	j	80000024 <rvtest_error>

0000000080006c2c <inst_605>:
    80006c2c:	55555537          	lui	a0,0x55555
    80006c30:	55550513          	addi	a0,a0,1365 # 55555555 <absimmsh+0x49a847a8>
    80006c34:	00b51513          	slli	a0,a0,0xb
    80006c38:	2aa50513          	addi	a0,a0,682
    80006c3c:	00b51513          	slli	a0,a0,0xb
    80006c40:	55550513          	addi	a0,a0,1365
    80006c44:	00a51513          	slli	a0,a0,0xa
    80006c48:	15650513          	addi	a0,a0,342
    80006c4c:	55557593          	andi	a1,a0,1365
    80006c50:	22b0bc23          	sd	a1,568(ra)
    80006c54:	55400113          	li	sp,1364
    80006c58:	00b10463          	beq	sp,a1,80006c60 <inst_606>
    80006c5c:	bc8f906f          	j	80000024 <rvtest_error>

0000000080006c60 <inst_606>:
    80006c60:	55555537          	lui	a0,0x55555
    80006c64:	55550513          	addi	a0,a0,1365 # 55555555 <absimmsh+0x49a847a8>
    80006c68:	00b51513          	slli	a0,a0,0xb
    80006c6c:	2aa50513          	addi	a0,a0,682
    80006c70:	00b51513          	slli	a0,a0,0xb
    80006c74:	55550513          	addi	a0,a0,1365
    80006c78:	00a51513          	slli	a0,a0,0xa
    80006c7c:	15650513          	addi	a0,a0,342
    80006c80:	aaa57593          	andi	a1,a0,-1366
    80006c84:	24b0b023          	sd	a1,576(ra)
    80006c88:	05555137          	lui	sp,0x5555
    80006c8c:	5551011b          	addiw	sp,sp,1365 # 5555555 <offset+0x55552ad>
    80006c90:	00c11113          	slli	sp,sp,0xc
    80006c94:	55510113          	addi	sp,sp,1365
    80006c98:	00c11113          	slli	sp,sp,0xc
    80006c9c:	55510113          	addi	sp,sp,1365
    80006ca0:	00c11113          	slli	sp,sp,0xc
    80006ca4:	00210113          	addi	sp,sp,2
    80006ca8:	00b10463          	beq	sp,a1,80006cb0 <inst_607>
    80006cac:	b78f906f          	j	80000024 <rvtest_error>

0000000080006cb0 <inst_607>:
    80006cb0:	55555537          	lui	a0,0x55555
    80006cb4:	55550513          	addi	a0,a0,1365 # 55555555 <absimmsh+0x49a847a8>
    80006cb8:	00b51513          	slli	a0,a0,0xb
    80006cbc:	2aa50513          	addi	a0,a0,682
    80006cc0:	00b51513          	slli	a0,a0,0xb
    80006cc4:	55550513          	addi	a0,a0,1365
    80006cc8:	00a51513          	slli	a0,a0,0xa
    80006ccc:	15650513          	addi	a0,a0,342
    80006cd0:	00557593          	andi	a1,a0,5
    80006cd4:	24b0b423          	sd	a1,584(ra)
    80006cd8:	00400113          	li	sp,4
    80006cdc:	00b10463          	beq	sp,a1,80006ce4 <inst_608>
    80006ce0:	b44f906f          	j	80000024 <rvtest_error>

0000000080006ce4 <inst_608>:
    80006ce4:	55555537          	lui	a0,0x55555
    80006ce8:	55550513          	addi	a0,a0,1365 # 55555555 <absimmsh+0x49a847a8>
    80006cec:	00b51513          	slli	a0,a0,0xb
    80006cf0:	2aa50513          	addi	a0,a0,682
    80006cf4:	00b51513          	slli	a0,a0,0xb
    80006cf8:	55550513          	addi	a0,a0,1365
    80006cfc:	00a51513          	slli	a0,a0,0xa
    80006d00:	15650513          	addi	a0,a0,342
    80006d04:	33357593          	andi	a1,a0,819
    80006d08:	24b0b823          	sd	a1,592(ra)
    80006d0c:	11200113          	li	sp,274
    80006d10:	00b10463          	beq	sp,a1,80006d18 <inst_609>
    80006d14:	b10f906f          	j	80000024 <rvtest_error>

0000000080006d18 <inst_609>:
    80006d18:	55555537          	lui	a0,0x55555
    80006d1c:	55550513          	addi	a0,a0,1365 # 55555555 <absimmsh+0x49a847a8>
    80006d20:	00b51513          	slli	a0,a0,0xb
    80006d24:	2aa50513          	addi	a0,a0,682
    80006d28:	00b51513          	slli	a0,a0,0xb
    80006d2c:	55550513          	addi	a0,a0,1365
    80006d30:	00a51513          	slli	a0,a0,0xa
    80006d34:	15650513          	addi	a0,a0,342
    80006d38:	66657593          	andi	a1,a0,1638
    80006d3c:	24b0bc23          	sd	a1,600(ra)
    80006d40:	44600113          	li	sp,1094
    80006d44:	00b10463          	beq	sp,a1,80006d4c <inst_610>
    80006d48:	adcf906f          	j	80000024 <rvtest_error>

0000000080006d4c <inst_610>:
    80006d4c:	55555537          	lui	a0,0x55555
    80006d50:	55550513          	addi	a0,a0,1365 # 55555555 <absimmsh+0x49a847a8>
    80006d54:	00b51513          	slli	a0,a0,0xb
    80006d58:	2aa50513          	addi	a0,a0,682
    80006d5c:	00b51513          	slli	a0,a0,0xb
    80006d60:	55550513          	addi	a0,a0,1365
    80006d64:	00a51513          	slli	a0,a0,0xa
    80006d68:	15650513          	addi	a0,a0,342
    80006d6c:	fd357593          	andi	a1,a0,-45
    80006d70:	26b0b023          	sd	a1,608(ra)
    80006d74:	05555137          	lui	sp,0x5555
    80006d78:	5551011b          	addiw	sp,sp,1365 # 5555555 <offset+0x55552ad>
    80006d7c:	00c11113          	slli	sp,sp,0xc
    80006d80:	55510113          	addi	sp,sp,1365
    80006d84:	00c11113          	slli	sp,sp,0xc
    80006d88:	55510113          	addi	sp,sp,1365
    80006d8c:	00c11113          	slli	sp,sp,0xc
    80006d90:	55210113          	addi	sp,sp,1362
    80006d94:	00b10463          	beq	sp,a1,80006d9c <inst_611>
    80006d98:	a8cf906f          	j	80000024 <rvtest_error>

0000000080006d9c <inst_611>:
    80006d9c:	55555537          	lui	a0,0x55555
    80006da0:	55550513          	addi	a0,a0,1365 # 55555555 <absimmsh+0x49a847a8>
    80006da4:	00b51513          	slli	a0,a0,0xb
    80006da8:	2aa50513          	addi	a0,a0,682
    80006dac:	00b51513          	slli	a0,a0,0xb
    80006db0:	55550513          	addi	a0,a0,1365
    80006db4:	00a51513          	slli	a0,a0,0xa
    80006db8:	15650513          	addi	a0,a0,342
    80006dbc:	02d57593          	andi	a1,a0,45
    80006dc0:	26b0b423          	sd	a1,616(ra)
    80006dc4:	00400113          	li	sp,4
    80006dc8:	00b10463          	beq	sp,a1,80006dd0 <inst_612>
    80006dcc:	a58f906f          	j	80000024 <rvtest_error>

0000000080006dd0 <inst_612>:
    80006dd0:	55555537          	lui	a0,0x55555
    80006dd4:	55550513          	addi	a0,a0,1365 # 55555555 <absimmsh+0x49a847a8>
    80006dd8:	00b51513          	slli	a0,a0,0xb
    80006ddc:	2aa50513          	addi	a0,a0,682
    80006de0:	00b51513          	slli	a0,a0,0xb
    80006de4:	55550513          	addi	a0,a0,1365
    80006de8:	00a51513          	slli	a0,a0,0xa
    80006dec:	15650513          	addi	a0,a0,342
    80006df0:	00257593          	andi	a1,a0,2
    80006df4:	26b0b823          	sd	a1,624(ra)
    80006df8:	00200113          	li	sp,2
    80006dfc:	00b10463          	beq	sp,a1,80006e04 <inst_613>
    80006e00:	a24f906f          	j	80000024 <rvtest_error>

0000000080006e04 <inst_613>:
    80006e04:	55555537          	lui	a0,0x55555
    80006e08:	55550513          	addi	a0,a0,1365 # 55555555 <absimmsh+0x49a847a8>
    80006e0c:	00b51513          	slli	a0,a0,0xb
    80006e10:	2aa50513          	addi	a0,a0,682
    80006e14:	00b51513          	slli	a0,a0,0xb
    80006e18:	55550513          	addi	a0,a0,1365
    80006e1c:	00a51513          	slli	a0,a0,0xa
    80006e20:	15650513          	addi	a0,a0,342
    80006e24:	55457593          	andi	a1,a0,1364
    80006e28:	26b0bc23          	sd	a1,632(ra)
    80006e2c:	55400113          	li	sp,1364
    80006e30:	00b10463          	beq	sp,a1,80006e38 <inst_614>
    80006e34:	9f0f906f          	j	80000024 <rvtest_error>

0000000080006e38 <inst_614>:
    80006e38:	55555537          	lui	a0,0x55555
    80006e3c:	55550513          	addi	a0,a0,1365 # 55555555 <absimmsh+0x49a847a8>
    80006e40:	00b51513          	slli	a0,a0,0xb
    80006e44:	2aa50513          	addi	a0,a0,682
    80006e48:	00b51513          	slli	a0,a0,0xb
    80006e4c:	55550513          	addi	a0,a0,1365
    80006e50:	00a51513          	slli	a0,a0,0xa
    80006e54:	15650513          	addi	a0,a0,342
    80006e58:	00057593          	andi	a1,a0,0
    80006e5c:	28b0b023          	sd	a1,640(ra)
    80006e60:	00000113          	li	sp,0
    80006e64:	00b10463          	beq	sp,a1,80006e6c <inst_615>
    80006e68:	9bcf906f          	j	80000024 <rvtest_error>

0000000080006e6c <inst_615>:
    80006e6c:	55555537          	lui	a0,0x55555
    80006e70:	55550513          	addi	a0,a0,1365 # 55555555 <absimmsh+0x49a847a8>
    80006e74:	00b51513          	slli	a0,a0,0xb
    80006e78:	2aa50513          	addi	a0,a0,682
    80006e7c:	00b51513          	slli	a0,a0,0xb
    80006e80:	55550513          	addi	a0,a0,1365
    80006e84:	00a51513          	slli	a0,a0,0xa
    80006e88:	15650513          	addi	a0,a0,342
    80006e8c:	00457593          	andi	a1,a0,4
    80006e90:	28b0b423          	sd	a1,648(ra)
    80006e94:	00400113          	li	sp,4
    80006e98:	00b10463          	beq	sp,a1,80006ea0 <inst_616>
    80006e9c:	988f906f          	j	80000024 <rvtest_error>

0000000080006ea0 <inst_616>:
    80006ea0:	55555537          	lui	a0,0x55555
    80006ea4:	55550513          	addi	a0,a0,1365 # 55555555 <absimmsh+0x49a847a8>
    80006ea8:	00b51513          	slli	a0,a0,0xb
    80006eac:	2aa50513          	addi	a0,a0,682
    80006eb0:	00b51513          	slli	a0,a0,0xb
    80006eb4:	55550513          	addi	a0,a0,1365
    80006eb8:	00a51513          	slli	a0,a0,0xa
    80006ebc:	15650513          	addi	a0,a0,342
    80006ec0:	33257593          	andi	a1,a0,818
    80006ec4:	28b0b823          	sd	a1,656(ra)
    80006ec8:	11200113          	li	sp,274
    80006ecc:	00b10463          	beq	sp,a1,80006ed4 <inst_617>
    80006ed0:	954f906f          	j	80000024 <rvtest_error>

0000000080006ed4 <inst_617>:
    80006ed4:	55555537          	lui	a0,0x55555
    80006ed8:	55550513          	addi	a0,a0,1365 # 55555555 <absimmsh+0x49a847a8>
    80006edc:	00b51513          	slli	a0,a0,0xb
    80006ee0:	2aa50513          	addi	a0,a0,682
    80006ee4:	00b51513          	slli	a0,a0,0xb
    80006ee8:	55550513          	addi	a0,a0,1365
    80006eec:	00a51513          	slli	a0,a0,0xa
    80006ef0:	15650513          	addi	a0,a0,342
    80006ef4:	66557593          	andi	a1,a0,1637
    80006ef8:	28b0bc23          	sd	a1,664(ra)
    80006efc:	44400113          	li	sp,1092
    80006f00:	00b10463          	beq	sp,a1,80006f08 <inst_618>
    80006f04:	920f906f          	j	80000024 <rvtest_error>

0000000080006f08 <inst_618>:
    80006f08:	00100513          	li	a0,1
    80006f0c:	01251513          	slli	a0,a0,0x12
    80006f10:	fff54513          	not	a0,a0
    80006f14:	dff57593          	andi	a1,a0,-513
    80006f18:	2ab0b023          	sd	a1,672(ra)
    80006f1c:	fffc0137          	lui	sp,0xfffc0
    80006f20:	dff1011b          	addiw	sp,sp,-513 # fffffffffffbfdff <absimm+0xffffffff452b232f>
    80006f24:	00b10463          	beq	sp,a1,80006f2c <cleanup_epilogs>
    80006f28:	8fcf906f          	j	80000024 <rvtest_error>

0000000080006f2c <cleanup_epilogs>:
    80006f2c:	0380006f          	j	80006f64 <exit_cleanup>

0000000080006f30 <abort_tests>:
    80006f30:	1f813483          	ld	s1,504(sp)
    80006f34:	20013303          	ld	t1,512(sp)
    80006f38:	00930333          	add	t1,t1,s1
    80006f3c:	00000337          	lui	t1,0x0
    80006f40:	00030313          	mv	t1,t1
    80006f44:	00b31313          	slli	t1,t1,0xb
    80006f48:	5d630313          	addi	t1,t1,1494 # 5d6 <offset+0x32e>
    80006f4c:	00b31313          	slli	t1,t1,0xb
    80006f50:	43630313          	addi	t1,t1,1078
    80006f54:	00a31313          	slli	t1,t1,0xa
    80006f58:	2d030313          	addi	t1,t1,720
    80006f5c:	fe64be23          	sd	t1,-4(s1)
    80006f60:	0040006f          	j	80006f64 <exit_cleanup>

0000000080006f64 <exit_cleanup>:
    80006f64:	00000513          	li	a0,0
    80006f68:	0240006f          	j	80006f8c <halt>
	...

0000000080006f8c <halt>:
    80006f8c:	00050513          	mv	a0,a0
    80006f90:	00100073          	ebreak
    80006f94:	0000006f          	j	80006f94 <halt+0x8>

0000000080006f98 <_trm_init>:
    80006f98:	ff010113          	addi	sp,sp,-16
    80006f9c:	00000517          	auipc	a0,0x0
    80006fa0:	01c50513          	addi	a0,a0,28 # 80006fb8 <_etext>
    80006fa4:	00113423          	sd	ra,8(sp)
    80006fa8:	868f90ef          	jal	ra,80000010 <main>
    80006fac:	00050513          	mv	a0,a0
    80006fb0:	00100073          	ebreak
    80006fb4:	0000006f          	j	80006fb4 <_trm_init+0x1c>
