
/home/maveric/ics2023/riscv-arch-test-am/build/slliw-riscv64-nemu.elf:     file format elf64-littleriscv


Disassembly of section .text:

0000000080000000 <_start>:
    80000000:	00000413          	li	s0,0
    80000004:	0000c117          	auipc	sp,0xc
    80000008:	ffc10113          	addi	sp,sp,-4 # 8000c000 <_end>
    8000000c:	758010ef          	jal	ra,80001764 <_trm_init>

0000000080000010 <main>:
    80000010:	030000ef          	jal	ra,80000040 <rvtest_entry_point>
    80000014:	00100513          	li	a0,1
    80000018:	740010ef          	jal	ra,80001758 <halt>
    8000001c:	00000513          	li	a0,0
    80000020:	00008067          	ret

0000000080000024 <rvtest_error>:
    80000024:	00100513          	li	a0,1
    80000028:	730010ef          	jal	ra,80001758 <halt>
    8000002c:	00008067          	ret
	...

0000000080000040 <rvtest_entry_point>:
    80000040:	feedc0b7          	lui	ra,0xfeedc
    80000044:	ead08093          	addi	ra,ra,-339 # fffffffffeedbead <absimm+0xffffffff441ce3dd>
    80000048:	00b09093          	slli	ra,ra,0xb
    8000004c:	7f708093          	addi	ra,ra,2039
    80000050:	00b09093          	slli	ra,ra,0xb
    80000054:	36f08093          	addi	ra,ra,879
    80000058:	00a09093          	slli	ra,ra,0xa
    8000005c:	2ad08093          	addi	ra,ra,685
    80000060:	ff76e137          	lui	sp,0xff76e
    80000064:	f5610113          	addi	sp,sp,-170 # ffffffffff76df56 <absimm+0xffffffff44a60486>
    80000068:	00b11113          	slli	sp,sp,0xb
    8000006c:	7fb10113          	addi	sp,sp,2043
    80000070:	00b11113          	slli	sp,sp,0xb
    80000074:	5b710113          	addi	sp,sp,1463
    80000078:	00a11113          	slli	sp,sp,0xa
    8000007c:	35610113          	addi	sp,sp,854
    80000080:	7fbb71b7          	lui	gp,0x7fbb7
    80000084:	fab18193          	addi	gp,gp,-85 # 7fbb6fab <absimmsh+0x740e61fe>
    80000088:	00b19193          	slli	gp,gp,0xb
    8000008c:	3fd18193          	addi	gp,gp,1021
    80000090:	00b19193          	slli	gp,gp,0xb
    80000094:	6db18193          	addi	gp,gp,1755
    80000098:	00a19193          	slli	gp,gp,0xa
    8000009c:	3ab18193          	addi	gp,gp,939
    800000a0:	bfddb237          	lui	tp,0xbfddb
    800000a4:	7d520213          	addi	tp,tp,2005 # ffffffffbfddb7d5 <absimm+0xffffffff050cdd05>
    800000a8:	00b21213          	slli	tp,tp,0xb
    800000ac:	5fe20213          	addi	tp,tp,1534 # 5fe <offset+0x1f6>
    800000b0:	00b21213          	slli	tp,tp,0xb
    800000b4:	76d20213          	addi	tp,tp,1901 # 76d <offset+0x365>
    800000b8:	00a21213          	slli	tp,tp,0xa
    800000bc:	3d520213          	addi	tp,tp,981 # 3d5 <pos+0x395>
    800000c0:	dfeee2b7          	lui	t0,0xdfeee
    800000c4:	bea28293          	addi	t0,t0,-1046 # ffffffffdfeedbea <absimm+0xffffffff251e011a>
    800000c8:	00b29293          	slli	t0,t0,0xb
    800000cc:	6ff28293          	addi	t0,t0,1791
    800000d0:	00b29293          	slli	t0,t0,0xb
    800000d4:	3b628293          	addi	t0,t0,950
    800000d8:	00a29293          	slli	t0,t0,0xa
    800000dc:	3ea28293          	addi	t0,t0,1002
    800000e0:	6ff77337          	lui	t1,0x6ff77
    800000e4:	df530313          	addi	t1,t1,-523 # 6ff76df5 <absimmsh+0x644a6048>
    800000e8:	00b31313          	slli	t1,t1,0xb
    800000ec:	37f30313          	addi	t1,t1,895
    800000f0:	00b31313          	slli	t1,t1,0xb
    800000f4:	5db30313          	addi	t1,t1,1499
    800000f8:	00a31313          	slli	t1,t1,0xa
    800000fc:	1f530313          	addi	t1,t1,501
    80000100:	b7fbb3b7          	lui	t2,0xb7fbb
    80000104:	6fa38393          	addi	t2,t2,1786 # ffffffffb7fbb6fa <absimm+0xfffffffefd2adc2a>
    80000108:	00b39393          	slli	t2,t2,0xb
    8000010c:	5bf38393          	addi	t2,t2,1471
    80000110:	00b39393          	slli	t2,t2,0xb
    80000114:	6ed38393          	addi	t2,t2,1773
    80000118:	00a39393          	slli	t2,t2,0xa
    8000011c:	2fa38393          	addi	t2,t2,762
    80000120:	5bfde437          	lui	s0,0x5bfde
    80000124:	b7d40413          	addi	s0,s0,-1155 # 5bfddb7d <absimmsh+0x5050cdd0>
    80000128:	00b41413          	slli	s0,s0,0xb
    8000012c:	2df40413          	addi	s0,s0,735
    80000130:	00b41413          	slli	s0,s0,0xb
    80000134:	77640413          	addi	s0,s0,1910
    80000138:	00a41413          	slli	s0,s0,0xa
    8000013c:	37d40413          	addi	s0,s0,893
    80000140:	adfef4b7          	lui	s1,0xadfef
    80000144:	dbe48493          	addi	s1,s1,-578 # ffffffffadfeedbe <absimm+0xfffffffef32e12ee>
    80000148:	00b49493          	slli	s1,s1,0xb
    8000014c:	56f48493          	addi	s1,s1,1391
    80000150:	00b49493          	slli	s1,s1,0xb
    80000154:	7bb48493          	addi	s1,s1,1979
    80000158:	00a49493          	slli	s1,s1,0xa
    8000015c:	1be48493          	addi	s1,s1,446
    80000160:	56ff7537          	lui	a0,0x56ff7
    80000164:	6df50513          	addi	a0,a0,1759 # 56ff76df <absimmsh+0x4b526932>
    80000168:	00b51513          	slli	a0,a0,0xb
    8000016c:	2b750513          	addi	a0,a0,695
    80000170:	00b51513          	slli	a0,a0,0xb
    80000174:	7dd50513          	addi	a0,a0,2013
    80000178:	00a51513          	slli	a0,a0,0xa
    8000017c:	2df50513          	addi	a0,a0,735
    80000180:	ab7fc5b7          	lui	a1,0xab7fc
    80000184:	b6f58593          	addi	a1,a1,-1169 # ffffffffab7fbb6f <absimm+0xfffffffef0aee09f>
    80000188:	00b59593          	slli	a1,a1,0xb
    8000018c:	55b58593          	addi	a1,a1,1371
    80000190:	00b59593          	slli	a1,a1,0xb
    80000194:	7ee58593          	addi	a1,a1,2030
    80000198:	00a59593          	slli	a1,a1,0xa
    8000019c:	36f58593          	addi	a1,a1,879
    800001a0:	d5bfe637          	lui	a2,0xd5bfe
    800001a4:	db760613          	addi	a2,a2,-585 # ffffffffd5bfddb7 <absimm+0xffffffff1aef02e7>
    800001a8:	00b61613          	slli	a2,a2,0xb
    800001ac:	6ad60613          	addi	a2,a2,1709
    800001b0:	00b61613          	slli	a2,a2,0xb
    800001b4:	7f760613          	addi	a2,a2,2039
    800001b8:	00a61613          	slli	a2,a2,0xa
    800001bc:	1b760613          	addi	a2,a2,439
    800001c0:	eadff6b7          	lui	a3,0xeadff
    800001c4:	edb68693          	addi	a3,a3,-293 # ffffffffeadfeedb <absimm+0xffffffff300f140b>
    800001c8:	00b69693          	slli	a3,a3,0xb
    800001cc:	75668693          	addi	a3,a3,1878
    800001d0:	00b69693          	slli	a3,a3,0xb
    800001d4:	7fb68693          	addi	a3,a3,2043
    800001d8:	00a69693          	slli	a3,a3,0xa
    800001dc:	2db68693          	addi	a3,a3,731
    800001e0:	f56ff737          	lui	a4,0xf56ff
    800001e4:	76d70713          	addi	a4,a4,1901 # fffffffff56ff76d <absimm+0xffffffff3a9f1c9d>
    800001e8:	00b71713          	slli	a4,a4,0xb
    800001ec:	7ab70713          	addi	a4,a4,1963
    800001f0:	00b71713          	slli	a4,a4,0xb
    800001f4:	3fd70713          	addi	a4,a4,1021
    800001f8:	00a71713          	slli	a4,a4,0xa
    800001fc:	36d70713          	addi	a4,a4,877
    80000200:	fab807b7          	lui	a5,0xfab80
    80000204:	bb678793          	addi	a5,a5,-1098 # fffffffffab7fbb6 <absimm+0xffffffff3fe720e6>
    80000208:	00b79793          	slli	a5,a5,0xb
    8000020c:	7d578793          	addi	a5,a5,2005
    80000210:	00b79793          	slli	a5,a5,0xb
    80000214:	5fe78793          	addi	a5,a5,1534
    80000218:	00a79793          	slli	a5,a5,0xa
    8000021c:	3b678793          	addi	a5,a5,950
    80000220:	7d5c0837          	lui	a6,0x7d5c0
    80000224:	ddb80813          	addi	a6,a6,-549 # 7d5bfddb <absimmsh+0x71aef02e>
    80000228:	00b81813          	slli	a6,a6,0xb
    8000022c:	3ea80813          	addi	a6,a6,1002
    80000230:	00b81813          	slli	a6,a6,0xb
    80000234:	6ff80813          	addi	a6,a6,1791
    80000238:	00a81813          	slli	a6,a6,0xa
    8000023c:	1db80813          	addi	a6,a6,475
    80000240:	beae08b7          	lui	a7,0xbeae0
    80000244:	eed88893          	addi	a7,a7,-275 # ffffffffbeadfeed <absimm+0xffffffff03dd241d>
    80000248:	00b89893          	slli	a7,a7,0xb
    8000024c:	5f588893          	addi	a7,a7,1525
    80000250:	00b89893          	slli	a7,a7,0xb
    80000254:	37f88893          	addi	a7,a7,895
    80000258:	00a89893          	slli	a7,a7,0xa
    8000025c:	2ed88893          	addi	a7,a7,749
    80000260:	df570937          	lui	s2,0xdf570
    80000264:	f7690913          	addi	s2,s2,-138 # ffffffffdf56ff76 <absimm+0xffffffff248624a6>
    80000268:	00b91913          	slli	s2,s2,0xb
    8000026c:	6fa90913          	addi	s2,s2,1786
    80000270:	00b91913          	slli	s2,s2,0xb
    80000274:	5bf90913          	addi	s2,s2,1471
    80000278:	00a91913          	slli	s2,s2,0xa
    8000027c:	37690913          	addi	s2,s2,886
    80000280:	6fab89b7          	lui	s3,0x6fab8
    80000284:	fbb98993          	addi	s3,s3,-69 # 6fab7fbb <absimmsh+0x63fe720e>
    80000288:	00b99993          	slli	s3,s3,0xb
    8000028c:	37d98993          	addi	s3,s3,893
    80000290:	00b99993          	slli	s3,s3,0xb
    80000294:	2df98993          	addi	s3,s3,735
    80000298:	00a99993          	slli	s3,s3,0xa
    8000029c:	3bb98993          	addi	s3,s3,955
    800002a0:	b7d5ca37          	lui	s4,0xb7d5c
    800002a4:	fdda0a13          	addi	s4,s4,-35 # ffffffffb7d5bfdd <absimm+0xfffffffefd04e50d>
    800002a8:	00ba1a13          	slli	s4,s4,0xb
    800002ac:	5bea0a13          	addi	s4,s4,1470
    800002b0:	00ba1a13          	slli	s4,s4,0xb
    800002b4:	56fa0a13          	addi	s4,s4,1391
    800002b8:	00aa1a13          	slli	s4,s4,0xa
    800002bc:	3dda0a13          	addi	s4,s4,989
    800002c0:	dbeaeab7          	lui	s5,0xdbeae
    800002c4:	feea8a93          	addi	s5,s5,-18 # ffffffffdbeadfee <absimm+0xffffffff211a051e>
    800002c8:	00ba9a93          	slli	s5,s5,0xb
    800002cc:	6dfa8a93          	addi	s5,s5,1759
    800002d0:	00ba9a93          	slli	s5,s5,0xb
    800002d4:	2b7a8a93          	addi	s5,s5,695
    800002d8:	00aa9a93          	slli	s5,s5,0xa
    800002dc:	3eea8a93          	addi	s5,s5,1006
    800002e0:	6df57b37          	lui	s6,0x6df57
    800002e4:	ff7b0b13          	addi	s6,s6,-9 # 6df56ff7 <absimmsh+0x6248624a>
    800002e8:	00bb1b13          	slli	s6,s6,0xb
    800002ec:	36fb0b13          	addi	s6,s6,879
    800002f0:	00bb1b13          	slli	s6,s6,0xb
    800002f4:	55bb0b13          	addi	s6,s6,1371
    800002f8:	00ab1b13          	slli	s6,s6,0xa
    800002fc:	3f7b0b13          	addi	s6,s6,1015
    80000300:	b6fabbb7          	lui	s7,0xb6fab
    80000304:	7fbb8b93          	addi	s7,s7,2043 # ffffffffb6fab7fb <absimm+0xfffffffefc29dd2b>
    80000308:	00bb9b93          	slli	s7,s7,0xb
    8000030c:	5b7b8b93          	addi	s7,s7,1463
    80000310:	00bb9b93          	slli	s7,s7,0xb
    80000314:	6adb8b93          	addi	s7,s7,1709
    80000318:	00ab9b93          	slli	s7,s7,0xa
    8000031c:	3fbb8b93          	addi	s7,s7,1019
    80000320:	db7d6c37          	lui	s8,0xdb7d6
    80000324:	bfdc0c13          	addi	s8,s8,-1027 # ffffffffdb7d5bfd <absimm+0xffffffff20ac812d>
    80000328:	00bc1c13          	slli	s8,s8,0xb
    8000032c:	6dbc0c13          	addi	s8,s8,1755
    80000330:	00bc1c13          	slli	s8,s8,0xb
    80000334:	756c0c13          	addi	s8,s8,1878
    80000338:	00ac1c13          	slli	s8,s8,0xa
    8000033c:	3fdc0c13          	addi	s8,s8,1021
    80000340:	edbebcb7          	lui	s9,0xedbeb
    80000344:	dfec8c93          	addi	s9,s9,-514 # ffffffffedbeadfe <absimm+0xffffffff32edd32e>
    80000348:	00bc9c93          	slli	s9,s9,0xb
    8000034c:	76dc8c93          	addi	s9,s9,1901
    80000350:	00bc9c93          	slli	s9,s9,0xb
    80000354:	7abc8c93          	addi	s9,s9,1963
    80000358:	00ac9c93          	slli	s9,s9,0xa
    8000035c:	1fec8c93          	addi	s9,s9,510
    80000360:	76df5d37          	lui	s10,0x76df5
    80000364:	6ffd0d13          	addi	s10,s10,1791 # 76df56ff <absimmsh+0x6b324952>
    80000368:	00bd1d13          	slli	s10,s10,0xb
    8000036c:	3b6d0d13          	addi	s10,s10,950
    80000370:	00bd1d13          	slli	s10,s10,0xb
    80000374:	7d5d0d13          	addi	s10,s10,2005
    80000378:	00ad1d13          	slli	s10,s10,0xa
    8000037c:	2ffd0d13          	addi	s10,s10,767
    80000380:	bb6fbdb7          	lui	s11,0xbb6fb
    80000384:	b7fd8d93          	addi	s11,s11,-1153 # ffffffffbb6fab7f <absimm+0xffffffff009ed0af>
    80000388:	00bd9d93          	slli	s11,s11,0xb
    8000038c:	5dbd8d93          	addi	s11,s11,1499
    80000390:	00bd9d93          	slli	s11,s11,0xb
    80000394:	3ead8d93          	addi	s11,s11,1002
    80000398:	00ad9d93          	slli	s11,s11,0xa
    8000039c:	37fd8d93          	addi	s11,s11,895
    800003a0:	ddb7de37          	lui	t3,0xddb7d
    800003a4:	5bfe0e13          	addi	t3,t3,1471 # ffffffffddb7d5bf <absimm+0xffffffff22e6faef>
    800003a8:	00be1e13          	slli	t3,t3,0xb
    800003ac:	6ede0e13          	addi	t3,t3,1773
    800003b0:	00be1e13          	slli	t3,t3,0xb
    800003b4:	5f5e0e13          	addi	t3,t3,1525
    800003b8:	00ae1e13          	slli	t3,t3,0xa
    800003bc:	1bfe0e13          	addi	t3,t3,447
    800003c0:	eedbfeb7          	lui	t4,0xeedbf
    800003c4:	adfe8e93          	addi	t4,t4,-1313 # ffffffffeedbeadf <absimm+0xffffffff340b100f>
    800003c8:	00be9e93          	slli	t4,t4,0xb
    800003cc:	776e8e93          	addi	t4,t4,1910
    800003d0:	00be9e93          	slli	t4,t4,0xb
    800003d4:	6fae8e93          	addi	t4,t4,1786
    800003d8:	00ae9e93          	slli	t4,t4,0xa
    800003dc:	2dfe8e93          	addi	t4,t4,735
    800003e0:	f76dff37          	lui	t5,0xf76df
    800003e4:	56ff0f13          	addi	t5,t5,1391 # fffffffff76df56f <absimm+0xffffffff3c9d1a9f>
    800003e8:	00bf1f13          	slli	t5,t5,0xb
    800003ec:	7bbf0f13          	addi	t5,t5,1979
    800003f0:	00bf1f13          	slli	t5,t5,0xb
    800003f4:	37df0f13          	addi	t5,t5,893
    800003f8:	00af1f13          	slli	t5,t5,0xa
    800003fc:	16ff0f13          	addi	t5,t5,367
    80000400:	fbb70fb7          	lui	t6,0xfbb70
    80000404:	ab7f8f93          	addi	t6,t6,-1353 # fffffffffbb6fab7 <absimm+0xffffffff40e61fe7>
    80000408:	00bf9f93          	slli	t6,t6,0xb
    8000040c:	7ddf8f93          	addi	t6,t6,2013
    80000410:	00bf9f93          	slli	t6,t6,0xb
    80000414:	5bef8f93          	addi	t6,t6,1470
    80000418:	00af9f93          	slli	t6,t6,0xa
    8000041c:	2b7f8f93          	addi	t6,t6,695

0000000080000420 <rvtest_code_begin>:
    80000420:	00003097          	auipc	ra,0x3
    80000424:	be808093          	addi	ra,ra,-1048 # 80003008 <signature_x1_0>
    80000428:	00000013          	nop
    8000042c:	00000013          	nop
    80000430:	00000013          	nop
    80000434:	00000013          	nop
    80000438:	00000013          	nop
    8000043c:	00000013          	nop

0000000080000440 <inst_0>:
    80000440:	00100513          	li	a0,1
    80000444:	01251513          	slli	a0,a0,0x12
    80000448:	fff54513          	not	a0,a0
    8000044c:	0065151b          	slliw	a0,a0,0x6
    80000450:	00a0b023          	sd	a0,0(ra)
    80000454:	ff000237          	lui	tp,0xff000
    80000458:	fc02021b          	addiw	tp,tp,-64 # fffffffffeffffc0 <absimm+0xffffffff442f24f0>
    8000045c:	00a20463          	beq	tp,a0,80000464 <inst_1>
    80000460:	bc5ff06f          	j	80000024 <rvtest_error>

0000000080000464 <inst_1>:
    80000464:	00600e13          	li	t3,6
    80000468:	017e1d9b          	slliw	s11,t3,0x17
    8000046c:	01b0b423          	sd	s11,8(ra)
    80000470:	03000237          	lui	tp,0x3000
    80000474:	01b20463          	beq	tp,s11,8000047c <inst_2>
    80000478:	badff06f          	j	80000024 <rvtest_error>

000000008000047c <inst_2>:
    8000047c:	00100713          	li	a4,1
    80000480:	02071713          	slli	a4,a4,0x20
    80000484:	fff74713          	not	a4,a4
    80000488:	0007161b          	slliw	a2,a4,0x0
    8000048c:	00c0b823          	sd	a2,16(ra)
    80000490:	fff00213          	li	tp,-1
    80000494:	00c20463          	beq	tp,a2,8000049c <inst_3>
    80000498:	b8dff06f          	j	80000024 <rvtest_error>

000000008000049c <inst_3>:
    8000049c:	00100593          	li	a1,1
    800004a0:	03759593          	slli	a1,a1,0x37
    800004a4:	00059f1b          	slliw	t5,a1,0x0
    800004a8:	01e0bc23          	sd	t5,24(ra)
    800004ac:	00000213          	li	tp,0
    800004b0:	01e20463          	beq	tp,t5,800004b8 <inst_4>
    800004b4:	b71ff06f          	j	80000024 <rvtest_error>

00000000800004b8 <inst_4>:
    800004b8:	00100813          	li	a6,1
    800004bc:	03481813          	slli	a6,a6,0x34
    800004c0:	fff84813          	not	a6,a6
    800004c4:	01f8111b          	slliw	sp,a6,0x1f
    800004c8:	0220b023          	sd	sp,32(ra)
    800004cc:	80000237          	lui	tp,0x80000
    800004d0:	00220463          	beq	tp,sp,800004d8 <inst_5>
    800004d4:	b51ff06f          	j	80000024 <rvtest_error>

00000000800004d8 <inst_5>:
    800004d8:	00100f93          	li	t6,1
    800004dc:	02ef9f93          	slli	t6,t6,0x2e
    800004e0:	01ff9a1b          	slliw	s4,t6,0x1f
    800004e4:	0340b423          	sd	s4,40(ra)
    800004e8:	00000213          	li	tp,0
    800004ec:	01420463          	beq	tp,s4,800004f4 <inst_6>
    800004f0:	b35ff06f          	j	80000024 <rvtest_error>

00000000800004f4 <inst_6>:
    800004f4:	00500f13          	li	t5,5
    800004f8:	005f179b          	slliw	a5,t5,0x5
    800004fc:	02f0b823          	sd	a5,48(ra)
    80000500:	0a000213          	li	tp,160
    80000504:	00f20463          	beq	tp,a5,8000050c <inst_7>
    80000508:	b1dff06f          	j	80000024 <rvtest_error>

000000008000050c <inst_7>:
    8000050c:	fff00193          	li	gp,-1
    80000510:	03f19193          	slli	gp,gp,0x3f
    80000514:	01d1939b          	slliw	t2,gp,0x1d
    80000518:	0270bc23          	sd	t2,56(ra)
    8000051c:	00000213          	li	tp,0
    80000520:	00720463          	beq	tp,t2,80000528 <inst_8>
    80000524:	b01ff06f          	j	80000024 <rvtest_error>

0000000080000528 <inst_8>:
    80000528:	00000c93          	li	s9,0
    8000052c:	011c981b          	slliw	a6,s9,0x11
    80000530:	0500b023          	sd	a6,64(ra)
    80000534:	00000213          	li	tp,0
    80000538:	01020463          	beq	tp,a6,80000540 <inst_9>
    8000053c:	ae9ff06f          	j	80000024 <rvtest_error>

0000000080000540 <inst_9>:
    80000540:	fff00693          	li	a3,-1
    80000544:	0016d693          	srli	a3,a3,0x1
    80000548:	00469b9b          	slliw	s7,a3,0x4
    8000054c:	0570b423          	sd	s7,72(ra)
    80000550:	ff000213          	li	tp,-16
    80000554:	01720463          	beq	tp,s7,8000055c <inst_10>
    80000558:	acdff06f          	j	80000024 <rvtest_error>

000000008000055c <inst_10>:
    8000055c:	00100613          	li	a2,1
    80000560:	0176199b          	slliw	s3,a2,0x17
    80000564:	0530b823          	sd	s3,80(ra)
    80000568:	00800237          	lui	tp,0x800
    8000056c:	01320463          	beq	tp,s3,80000574 <inst_11>
    80000570:	ab5ff06f          	j	80000024 <rvtest_error>

0000000080000574 <inst_11>:
    80000574:	00200393          	li	t2,2
    80000578:	01b39e9b          	slliw	t4,t2,0x1b
    8000057c:	05d0bc23          	sd	t4,88(ra)
    80000580:	10000237          	lui	tp,0x10000
    80000584:	01d20463          	beq	tp,t4,8000058c <inst_12>
    80000588:	a9dff06f          	j	80000024 <rvtest_error>

000000008000058c <inst_12>:
    8000058c:	00000013          	nop
    80000590:	0000171b          	slliw	a4,zero,0x0
    80000594:	06e0b023          	sd	a4,96(ra)
    80000598:	00000213          	li	tp,0
    8000059c:	00e20463          	beq	tp,a4,800005a4 <inst_13>
    800005a0:	a85ff06f          	j	80000024 <rvtest_error>

00000000800005a4 <inst_13>:
    800005a4:	00800893          	li	a7,8
    800005a8:	00789f9b          	slliw	t6,a7,0x7
    800005ac:	07f0b423          	sd	t6,104(ra)
    800005b0:	40000213          	li	tp,1024
    800005b4:	01f20463          	beq	tp,t6,800005bc <inst_14>
    800005b8:	a6dff06f          	j	80000024 <rvtest_error>

00000000800005bc <inst_14>:
    800005bc:	01000a13          	li	s4,16
    800005c0:	007a149b          	slliw	s1,s4,0x7
    800005c4:	0690b823          	sd	s1,112(ra)
    800005c8:	00001237          	lui	tp,0x1
    800005cc:	8002021b          	addiw	tp,tp,-2048 # 800 <offset+0x3f8>
    800005d0:	00920463          	beq	tp,s1,800005d8 <inst_15>
    800005d4:	a51ff06f          	j	80000024 <rvtest_error>

00000000800005d8 <inst_15>:
    800005d8:	02000e93          	li	t4,32
    800005dc:	015e9d1b          	slliw	s10,t4,0x15
    800005e0:	07a0bc23          	sd	s10,120(ra)
    800005e4:	04000237          	lui	tp,0x4000
    800005e8:	01a20463          	beq	tp,s10,800005f0 <inst_16>
    800005ec:	a39ff06f          	j	80000024 <rvtest_error>

00000000800005f0 <inst_16>:
    800005f0:	04000913          	li	s2,64
    800005f4:	00b9141b          	slliw	s0,s2,0xb
    800005f8:	0880b023          	sd	s0,128(ra)
    800005fc:	00020237          	lui	tp,0x20
    80000600:	00820463          	beq	tp,s0,80000608 <inst_17>
    80000604:	a21ff06f          	j	80000024 <rvtest_error>

0000000080000608 <inst_17>:
    80000608:	08000113          	li	sp,128
    8000060c:	0061129b          	slliw	t0,sp,0x6
    80000610:	0850b423          	sd	t0,136(ra)
    80000614:	00002237          	lui	tp,0x2
    80000618:	00520463          	beq	tp,t0,80000620 <inst_18>
    8000061c:	a09ff06f          	j	80000024 <rvtest_error>

0000000080000620 <inst_18>:
    80000620:	10000b93          	li	s7,256
    80000624:	00eb989b          	slliw	a7,s7,0xe
    80000628:	0910b823          	sd	a7,144(ra)
    8000062c:	00400237          	lui	tp,0x400
    80000630:	01120463          	beq	tp,a7,80000638 <inst_19>
    80000634:	9f1ff06f          	j	80000024 <rvtest_error>

0000000080000638 <inst_19>:
    80000638:	20000a93          	li	s5,512
    8000063c:	00ea9e1b          	slliw	t3,s5,0xe
    80000640:	09c0bc23          	sd	t3,152(ra)
    80000644:	00800237          	lui	tp,0x800
    80000648:	01c20463          	beq	tp,t3,80000650 <inst_20>
    8000064c:	9d9ff06f          	j	80000024 <rvtest_error>

0000000080000650 <inst_20>:
    80000650:	40000c13          	li	s8,1024
    80000654:	004c131b          	slliw	t1,s8,0x4
    80000658:	0a60b023          	sd	t1,160(ra)
    8000065c:	00004237          	lui	tp,0x4
    80000660:	00620463          	beq	tp,t1,80000668 <inst_20+0x18>
    80000664:	9c1ff06f          	j	80000024 <rvtest_error>
    80000668:	00000013          	nop
    8000066c:	00000013          	nop
    80000670:	00000013          	nop
    80000674:	00000013          	nop
    80000678:	00000013          	nop
    8000067c:	00000013          	nop
    80000680:	00003117          	auipc	sp,0x3
    80000684:	a3010113          	addi	sp,sp,-1488 # 800030b0 <signature_x2_0>
    80000688:	00000013          	nop
    8000068c:	00000013          	nop
    80000690:	00000013          	nop
    80000694:	00000013          	nop
    80000698:	00000013          	nop
    8000069c:	00000013          	nop

00000000800006a0 <inst_21>:
    800006a0:	00100413          	li	s0,1
    800006a4:	00b41413          	slli	s0,s0,0xb
    800006a8:	0124121b          	slliw	tp,s0,0x12
    800006ac:	00413023          	sd	tp,0(sp)
    800006b0:	200003b7          	lui	t2,0x20000
    800006b4:	00438463          	beq	t2,tp,800006bc <inst_22>
    800006b8:	96dff06f          	j	80000024 <rvtest_error>

00000000800006bc <inst_22>:
    800006bc:	00100993          	li	s3,1
    800006c0:	00c99993          	slli	s3,s3,0xc
    800006c4:	0159969b          	slliw	a3,s3,0x15
    800006c8:	00d13423          	sd	a3,8(sp)
    800006cc:	00000393          	li	t2,0
    800006d0:	00d38463          	beq	t2,a3,800006d8 <inst_23>
    800006d4:	951ff06f          	j	80000024 <rvtest_error>

00000000800006d8 <inst_23>:
    800006d8:	00100493          	li	s1,1
    800006dc:	00d49493          	slli	s1,s1,0xd
    800006e0:	0014901b          	slliw	zero,s1,0x1
    800006e4:	00013823          	sd	zero,16(sp)
    800006e8:	00000393          	li	t2,0
    800006ec:	00038463          	beqz	t2,800006f4 <inst_24>
    800006f0:	935ff06f          	j	80000024 <rvtest_error>

00000000800006f4 <inst_24>:
    800006f4:	00100093          	li	ra,1
    800006f8:	00e09093          	slli	ra,ra,0xe
    800006fc:	00809c9b          	slliw	s9,ra,0x8
    80000700:	01913c23          	sd	s9,24(sp)
    80000704:	004003b7          	lui	t2,0x400
    80000708:	01938463          	beq	t2,s9,80000710 <inst_25>
    8000070c:	919ff06f          	j	80000024 <rvtest_error>

0000000080000710 <inst_25>:
    80000710:	00100313          	li	t1,1
    80000714:	00f31313          	slli	t1,t1,0xf
    80000718:	01d31b1b          	slliw	s6,t1,0x1d
    8000071c:	03613023          	sd	s6,32(sp)
    80000720:	00000393          	li	t2,0
    80000724:	01638463          	beq	t2,s6,8000072c <inst_26>
    80000728:	8fdff06f          	j	80000024 <rvtest_error>

000000008000072c <inst_26>:
    8000072c:	00100b13          	li	s6,1
    80000730:	010b1b13          	slli	s6,s6,0x10
    80000734:	012b1c1b          	slliw	s8,s6,0x12
    80000738:	03813423          	sd	s8,40(sp)
    8000073c:	00000393          	li	t2,0
    80000740:	01838463          	beq	t2,s8,80000748 <inst_27>
    80000744:	8e1ff06f          	j	80000024 <rvtest_error>

0000000080000748 <inst_27>:
    80000748:	00100d13          	li	s10,1
    8000074c:	011d1d13          	slli	s10,s10,0x11
    80000750:	00fd191b          	slliw	s2,s10,0xf
    80000754:	03213823          	sd	s2,48(sp)
    80000758:	00000393          	li	t2,0
    8000075c:	01238463          	beq	t2,s2,80000764 <inst_28>
    80000760:	8c5ff06f          	j	80000024 <rvtest_error>

0000000080000764 <inst_28>:
    80000764:	00100213          	li	tp,1
    80000768:	01221213          	slli	tp,tp,0x12
    8000076c:	0122109b          	slliw	ra,tp,0x12
    80000770:	02113c23          	sd	ra,56(sp)
    80000774:	00000393          	li	t2,0
    80000778:	00138463          	beq	t2,ra,80000780 <inst_29>
    8000077c:	8a9ff06f          	j	80000024 <rvtest_error>

0000000080000780 <inst_29>:
    80000780:	00100d93          	li	s11,1
    80000784:	013d9d93          	slli	s11,s11,0x13
    80000788:	00cd959b          	slliw	a1,s11,0xc
    8000078c:	04b13023          	sd	a1,64(sp)
    80000790:	800003b7          	lui	t2,0x80000
    80000794:	00b38463          	beq	t2,a1,8000079c <inst_30>
    80000798:	88dff06f          	j	80000024 <rvtest_error>

000000008000079c <inst_30>:
    8000079c:	00100793          	li	a5,1
    800007a0:	01479793          	slli	a5,a5,0x14
    800007a4:	00879a9b          	slliw	s5,a5,0x8
    800007a8:	05513423          	sd	s5,72(sp)
    800007ac:	100003b7          	lui	t2,0x10000
    800007b0:	01538463          	beq	t2,s5,800007b8 <inst_31>
    800007b4:	871ff06f          	j	80000024 <rvtest_error>

00000000800007b8 <inst_31>:
    800007b8:	00100293          	li	t0,1
    800007bc:	01529293          	slli	t0,t0,0x15
    800007c0:	00c2919b          	slliw	gp,t0,0xc
    800007c4:	04313823          	sd	gp,80(sp)
    800007c8:	00000393          	li	t2,0
    800007cc:	00338463          	beq	t2,gp,800007d4 <inst_32>
    800007d0:	855ff06f          	j	80000024 <rvtest_error>

00000000800007d4 <inst_32>:
    800007d4:	00100513          	li	a0,1
    800007d8:	01651513          	slli	a0,a0,0x16
    800007dc:	0095159b          	slliw	a1,a0,0x9
    800007e0:	04b13c23          	sd	a1,88(sp)
    800007e4:	800003b7          	lui	t2,0x80000
    800007e8:	00b38463          	beq	t2,a1,800007f0 <inst_33>
    800007ec:	839ff06f          	j	80000024 <rvtest_error>

00000000800007f0 <inst_33>:
    800007f0:	00100513          	li	a0,1
    800007f4:	01751513          	slli	a0,a0,0x17
    800007f8:	0105159b          	slliw	a1,a0,0x10
    800007fc:	06b13023          	sd	a1,96(sp)
    80000800:	00000393          	li	t2,0
    80000804:	00b38463          	beq	t2,a1,8000080c <inst_34>
    80000808:	81dff06f          	j	80000024 <rvtest_error>

000000008000080c <inst_34>:
    8000080c:	00100513          	li	a0,1
    80000810:	01851513          	slli	a0,a0,0x18
    80000814:	0115159b          	slliw	a1,a0,0x11
    80000818:	06b13423          	sd	a1,104(sp)
    8000081c:	00000393          	li	t2,0
    80000820:	00b38463          	beq	t2,a1,80000828 <inst_35>
    80000824:	801ff06f          	j	80000024 <rvtest_error>

0000000080000828 <inst_35>:
    80000828:	00100513          	li	a0,1
    8000082c:	01951513          	slli	a0,a0,0x19
    80000830:	0115159b          	slliw	a1,a0,0x11
    80000834:	06b13823          	sd	a1,112(sp)
    80000838:	00000393          	li	t2,0
    8000083c:	00b38463          	beq	t2,a1,80000844 <inst_36>
    80000840:	fe4ff06f          	j	80000024 <rvtest_error>

0000000080000844 <inst_36>:
    80000844:	00100513          	li	a0,1
    80000848:	01a51513          	slli	a0,a0,0x1a
    8000084c:	0035159b          	slliw	a1,a0,0x3
    80000850:	06b13c23          	sd	a1,120(sp)
    80000854:	200003b7          	lui	t2,0x20000
    80000858:	00b38463          	beq	t2,a1,80000860 <inst_37>
    8000085c:	fc8ff06f          	j	80000024 <rvtest_error>

0000000080000860 <inst_37>:
    80000860:	00100513          	li	a0,1
    80000864:	01b51513          	slli	a0,a0,0x1b
    80000868:	00d5159b          	slliw	a1,a0,0xd
    8000086c:	08b13023          	sd	a1,128(sp)
    80000870:	00000393          	li	t2,0
    80000874:	00b38463          	beq	t2,a1,8000087c <inst_38>
    80000878:	facff06f          	j	80000024 <rvtest_error>

000000008000087c <inst_38>:
    8000087c:	00100513          	li	a0,1
    80000880:	01c51513          	slli	a0,a0,0x1c
    80000884:	0025159b          	slliw	a1,a0,0x2
    80000888:	08b13423          	sd	a1,136(sp)
    8000088c:	400003b7          	lui	t2,0x40000
    80000890:	00b38463          	beq	t2,a1,80000898 <inst_39>
    80000894:	f90ff06f          	j	80000024 <rvtest_error>

0000000080000898 <inst_39>:
    80000898:	00100513          	li	a0,1
    8000089c:	01d51513          	slli	a0,a0,0x1d
    800008a0:	01d5159b          	slliw	a1,a0,0x1d
    800008a4:	08b13823          	sd	a1,144(sp)
    800008a8:	00000393          	li	t2,0
    800008ac:	00b38463          	beq	t2,a1,800008b4 <inst_40>
    800008b0:	f74ff06f          	j	80000024 <rvtest_error>

00000000800008b4 <inst_40>:
    800008b4:	00100513          	li	a0,1
    800008b8:	01e51513          	slli	a0,a0,0x1e
    800008bc:	01f5159b          	slliw	a1,a0,0x1f
    800008c0:	08b13c23          	sd	a1,152(sp)
    800008c4:	00000393          	li	t2,0
    800008c8:	00b38463          	beq	t2,a1,800008d0 <inst_41>
    800008cc:	f58ff06f          	j	80000024 <rvtest_error>

00000000800008d0 <inst_41>:
    800008d0:	00100513          	li	a0,1
    800008d4:	01f51513          	slli	a0,a0,0x1f
    800008d8:	0035159b          	slliw	a1,a0,0x3
    800008dc:	0ab13023          	sd	a1,160(sp)
    800008e0:	00000393          	li	t2,0
    800008e4:	00b38463          	beq	t2,a1,800008ec <inst_42>
    800008e8:	f3cff06f          	j	80000024 <rvtest_error>

00000000800008ec <inst_42>:
    800008ec:	00100513          	li	a0,1
    800008f0:	02051513          	slli	a0,a0,0x20
    800008f4:	0125159b          	slliw	a1,a0,0x12
    800008f8:	0ab13423          	sd	a1,168(sp)
    800008fc:	00000393          	li	t2,0
    80000900:	00b38463          	beq	t2,a1,80000908 <inst_43>
    80000904:	f20ff06f          	j	80000024 <rvtest_error>

0000000080000908 <inst_43>:
    80000908:	00100513          	li	a0,1
    8000090c:	02151513          	slli	a0,a0,0x21
    80000910:	00b5159b          	slliw	a1,a0,0xb
    80000914:	0ab13823          	sd	a1,176(sp)
    80000918:	00000393          	li	t2,0
    8000091c:	00b38463          	beq	t2,a1,80000924 <inst_44>
    80000920:	f04ff06f          	j	80000024 <rvtest_error>

0000000080000924 <inst_44>:
    80000924:	00100513          	li	a0,1
    80000928:	02251513          	slli	a0,a0,0x22
    8000092c:	0155159b          	slliw	a1,a0,0x15
    80000930:	0ab13c23          	sd	a1,184(sp)
    80000934:	00000393          	li	t2,0
    80000938:	00b38463          	beq	t2,a1,80000940 <inst_45>
    8000093c:	ee8ff06f          	j	80000024 <rvtest_error>

0000000080000940 <inst_45>:
    80000940:	00100513          	li	a0,1
    80000944:	02351513          	slli	a0,a0,0x23
    80000948:	0035159b          	slliw	a1,a0,0x3
    8000094c:	0cb13023          	sd	a1,192(sp)
    80000950:	00000393          	li	t2,0
    80000954:	00b38463          	beq	t2,a1,8000095c <inst_46>
    80000958:	eccff06f          	j	80000024 <rvtest_error>

000000008000095c <inst_46>:
    8000095c:	00100513          	li	a0,1
    80000960:	02451513          	slli	a0,a0,0x24
    80000964:	01b5159b          	slliw	a1,a0,0x1b
    80000968:	0cb13423          	sd	a1,200(sp)
    8000096c:	00000393          	li	t2,0
    80000970:	00b38463          	beq	t2,a1,80000978 <inst_47>
    80000974:	eb0ff06f          	j	80000024 <rvtest_error>

0000000080000978 <inst_47>:
    80000978:	00100513          	li	a0,1
    8000097c:	02551513          	slli	a0,a0,0x25
    80000980:	0015159b          	slliw	a1,a0,0x1
    80000984:	0cb13823          	sd	a1,208(sp)
    80000988:	00000393          	li	t2,0
    8000098c:	00b38463          	beq	t2,a1,80000994 <inst_48>
    80000990:	e94ff06f          	j	80000024 <rvtest_error>

0000000080000994 <inst_48>:
    80000994:	00100513          	li	a0,1
    80000998:	02651513          	slli	a0,a0,0x26
    8000099c:	0025159b          	slliw	a1,a0,0x2
    800009a0:	0cb13c23          	sd	a1,216(sp)
    800009a4:	00000393          	li	t2,0
    800009a8:	00b38463          	beq	t2,a1,800009b0 <inst_49>
    800009ac:	e78ff06f          	j	80000024 <rvtest_error>

00000000800009b0 <inst_49>:
    800009b0:	00100513          	li	a0,1
    800009b4:	02751513          	slli	a0,a0,0x27
    800009b8:	01d5159b          	slliw	a1,a0,0x1d
    800009bc:	0eb13023          	sd	a1,224(sp)
    800009c0:	00000393          	li	t2,0
    800009c4:	00b38463          	beq	t2,a1,800009cc <inst_50>
    800009c8:	e5cff06f          	j	80000024 <rvtest_error>

00000000800009cc <inst_50>:
    800009cc:	00100513          	li	a0,1
    800009d0:	02851513          	slli	a0,a0,0x28
    800009d4:	0005159b          	slliw	a1,a0,0x0
    800009d8:	0eb13423          	sd	a1,232(sp)
    800009dc:	00000393          	li	t2,0
    800009e0:	00b38463          	beq	t2,a1,800009e8 <inst_51>
    800009e4:	e40ff06f          	j	80000024 <rvtest_error>

00000000800009e8 <inst_51>:
    800009e8:	00100513          	li	a0,1
    800009ec:	02951513          	slli	a0,a0,0x29
    800009f0:	00d5159b          	slliw	a1,a0,0xd
    800009f4:	0eb13823          	sd	a1,240(sp)
    800009f8:	00000393          	li	t2,0
    800009fc:	00b38463          	beq	t2,a1,80000a04 <inst_52>
    80000a00:	e24ff06f          	j	80000024 <rvtest_error>

0000000080000a04 <inst_52>:
    80000a04:	00100513          	li	a0,1
    80000a08:	02a51513          	slli	a0,a0,0x2a
    80000a0c:	0065159b          	slliw	a1,a0,0x6
    80000a10:	0eb13c23          	sd	a1,248(sp)
    80000a14:	00000393          	li	t2,0
    80000a18:	00b38463          	beq	t2,a1,80000a20 <inst_53>
    80000a1c:	e08ff06f          	j	80000024 <rvtest_error>

0000000080000a20 <inst_53>:
    80000a20:	00100513          	li	a0,1
    80000a24:	02b51513          	slli	a0,a0,0x2b
    80000a28:	0075159b          	slliw	a1,a0,0x7
    80000a2c:	10b13023          	sd	a1,256(sp)
    80000a30:	00000393          	li	t2,0
    80000a34:	00b38463          	beq	t2,a1,80000a3c <inst_54>
    80000a38:	decff06f          	j	80000024 <rvtest_error>

0000000080000a3c <inst_54>:
    80000a3c:	00100513          	li	a0,1
    80000a40:	02c51513          	slli	a0,a0,0x2c
    80000a44:	0095159b          	slliw	a1,a0,0x9
    80000a48:	10b13423          	sd	a1,264(sp)
    80000a4c:	00000393          	li	t2,0
    80000a50:	00b38463          	beq	t2,a1,80000a58 <inst_55>
    80000a54:	dd0ff06f          	j	80000024 <rvtest_error>

0000000080000a58 <inst_55>:
    80000a58:	00100513          	li	a0,1
    80000a5c:	02d51513          	slli	a0,a0,0x2d
    80000a60:	0155159b          	slliw	a1,a0,0x15
    80000a64:	10b13823          	sd	a1,272(sp)
    80000a68:	00000393          	li	t2,0
    80000a6c:	00b38463          	beq	t2,a1,80000a74 <inst_56>
    80000a70:	db4ff06f          	j	80000024 <rvtest_error>

0000000080000a74 <inst_56>:
    80000a74:	00100513          	li	a0,1
    80000a78:	02f51513          	slli	a0,a0,0x2f
    80000a7c:	0045159b          	slliw	a1,a0,0x4
    80000a80:	10b13c23          	sd	a1,280(sp)
    80000a84:	00000393          	li	t2,0
    80000a88:	00b38463          	beq	t2,a1,80000a90 <inst_57>
    80000a8c:	d98ff06f          	j	80000024 <rvtest_error>

0000000080000a90 <inst_57>:
    80000a90:	00100513          	li	a0,1
    80000a94:	03051513          	slli	a0,a0,0x30
    80000a98:	0175159b          	slliw	a1,a0,0x17
    80000a9c:	12b13023          	sd	a1,288(sp)
    80000aa0:	00000393          	li	t2,0
    80000aa4:	00b38463          	beq	t2,a1,80000aac <inst_58>
    80000aa8:	d7cff06f          	j	80000024 <rvtest_error>

0000000080000aac <inst_58>:
    80000aac:	00100513          	li	a0,1
    80000ab0:	03151513          	slli	a0,a0,0x31
    80000ab4:	0095159b          	slliw	a1,a0,0x9
    80000ab8:	12b13423          	sd	a1,296(sp)
    80000abc:	00000393          	li	t2,0
    80000ac0:	00b38463          	beq	t2,a1,80000ac8 <inst_59>
    80000ac4:	d60ff06f          	j	80000024 <rvtest_error>

0000000080000ac8 <inst_59>:
    80000ac8:	00100513          	li	a0,1
    80000acc:	03251513          	slli	a0,a0,0x32
    80000ad0:	01f5159b          	slliw	a1,a0,0x1f
    80000ad4:	12b13823          	sd	a1,304(sp)
    80000ad8:	00000393          	li	t2,0
    80000adc:	00b38463          	beq	t2,a1,80000ae4 <inst_60>
    80000ae0:	d44ff06f          	j	80000024 <rvtest_error>

0000000080000ae4 <inst_60>:
    80000ae4:	00100513          	li	a0,1
    80000ae8:	03351513          	slli	a0,a0,0x33
    80000aec:	00f5159b          	slliw	a1,a0,0xf
    80000af0:	12b13c23          	sd	a1,312(sp)
    80000af4:	00000393          	li	t2,0
    80000af8:	00b38463          	beq	t2,a1,80000b00 <inst_61>
    80000afc:	d28ff06f          	j	80000024 <rvtest_error>

0000000080000b00 <inst_61>:
    80000b00:	00100513          	li	a0,1
    80000b04:	03451513          	slli	a0,a0,0x34
    80000b08:	01f5159b          	slliw	a1,a0,0x1f
    80000b0c:	14b13023          	sd	a1,320(sp)
    80000b10:	00000393          	li	t2,0
    80000b14:	00b38463          	beq	t2,a1,80000b1c <inst_62>
    80000b18:	d0cff06f          	j	80000024 <rvtest_error>

0000000080000b1c <inst_62>:
    80000b1c:	00100513          	li	a0,1
    80000b20:	03551513          	slli	a0,a0,0x35
    80000b24:	0085159b          	slliw	a1,a0,0x8
    80000b28:	14b13423          	sd	a1,328(sp)
    80000b2c:	00000393          	li	t2,0
    80000b30:	00b38463          	beq	t2,a1,80000b38 <inst_63>
    80000b34:	cf0ff06f          	j	80000024 <rvtest_error>

0000000080000b38 <inst_63>:
    80000b38:	00100513          	li	a0,1
    80000b3c:	03651513          	slli	a0,a0,0x36
    80000b40:	0025159b          	slliw	a1,a0,0x2
    80000b44:	14b13823          	sd	a1,336(sp)
    80000b48:	00000393          	li	t2,0
    80000b4c:	00b38463          	beq	t2,a1,80000b54 <inst_64>
    80000b50:	cd4ff06f          	j	80000024 <rvtest_error>

0000000080000b54 <inst_64>:
    80000b54:	00100513          	li	a0,1
    80000b58:	03851513          	slli	a0,a0,0x38
    80000b5c:	00b5159b          	slliw	a1,a0,0xb
    80000b60:	14b13c23          	sd	a1,344(sp)
    80000b64:	00000393          	li	t2,0
    80000b68:	00b38463          	beq	t2,a1,80000b70 <inst_65>
    80000b6c:	cb8ff06f          	j	80000024 <rvtest_error>

0000000080000b70 <inst_65>:
    80000b70:	00100513          	li	a0,1
    80000b74:	03951513          	slli	a0,a0,0x39
    80000b78:	0055159b          	slliw	a1,a0,0x5
    80000b7c:	16b13023          	sd	a1,352(sp)
    80000b80:	00000393          	li	t2,0
    80000b84:	00b38463          	beq	t2,a1,80000b8c <inst_66>
    80000b88:	c9cff06f          	j	80000024 <rvtest_error>

0000000080000b8c <inst_66>:
    80000b8c:	00100513          	li	a0,1
    80000b90:	03a51513          	slli	a0,a0,0x3a
    80000b94:	0135159b          	slliw	a1,a0,0x13
    80000b98:	16b13423          	sd	a1,360(sp)
    80000b9c:	00000393          	li	t2,0
    80000ba0:	00b38463          	beq	t2,a1,80000ba8 <inst_67>
    80000ba4:	c80ff06f          	j	80000024 <rvtest_error>

0000000080000ba8 <inst_67>:
    80000ba8:	00100513          	li	a0,1
    80000bac:	03b51513          	slli	a0,a0,0x3b
    80000bb0:	01e5159b          	slliw	a1,a0,0x1e
    80000bb4:	16b13823          	sd	a1,368(sp)
    80000bb8:	00000393          	li	t2,0
    80000bbc:	00b38463          	beq	t2,a1,80000bc4 <inst_68>
    80000bc0:	c64ff06f          	j	80000024 <rvtest_error>

0000000080000bc4 <inst_68>:
    80000bc4:	00100513          	li	a0,1
    80000bc8:	03c51513          	slli	a0,a0,0x3c
    80000bcc:	0015159b          	slliw	a1,a0,0x1
    80000bd0:	16b13c23          	sd	a1,376(sp)
    80000bd4:	00000393          	li	t2,0
    80000bd8:	00b38463          	beq	t2,a1,80000be0 <inst_69>
    80000bdc:	c48ff06f          	j	80000024 <rvtest_error>

0000000080000be0 <inst_69>:
    80000be0:	00100513          	li	a0,1
    80000be4:	03d51513          	slli	a0,a0,0x3d
    80000be8:	01f5159b          	slliw	a1,a0,0x1f
    80000bec:	18b13023          	sd	a1,384(sp)
    80000bf0:	00000393          	li	t2,0
    80000bf4:	00b38463          	beq	t2,a1,80000bfc <inst_70>
    80000bf8:	c2cff06f          	j	80000024 <rvtest_error>

0000000080000bfc <inst_70>:
    80000bfc:	00100513          	li	a0,1
    80000c00:	03e51513          	slli	a0,a0,0x3e
    80000c04:	00e5159b          	slliw	a1,a0,0xe
    80000c08:	18b13423          	sd	a1,392(sp)
    80000c0c:	00000393          	li	t2,0
    80000c10:	00b38463          	beq	t2,a1,80000c18 <inst_71>
    80000c14:	c10ff06f          	j	80000024 <rvtest_error>

0000000080000c18 <inst_71>:
    80000c18:	ffe00513          	li	a0,-2
    80000c1c:	01e5159b          	slliw	a1,a0,0x1e
    80000c20:	18b13823          	sd	a1,400(sp)
    80000c24:	800003b7          	lui	t2,0x80000
    80000c28:	00b38463          	beq	t2,a1,80000c30 <inst_72>
    80000c2c:	bf8ff06f          	j	80000024 <rvtest_error>

0000000080000c30 <inst_72>:
    80000c30:	ffd00513          	li	a0,-3
    80000c34:	0175159b          	slliw	a1,a0,0x17
    80000c38:	18b13c23          	sd	a1,408(sp)
    80000c3c:	fe8003b7          	lui	t2,0xfe800
    80000c40:	00b38463          	beq	t2,a1,80000c48 <inst_73>
    80000c44:	be0ff06f          	j	80000024 <rvtest_error>

0000000080000c48 <inst_73>:
    80000c48:	ffb00513          	li	a0,-5
    80000c4c:	0055159b          	slliw	a1,a0,0x5
    80000c50:	1ab13023          	sd	a1,416(sp)
    80000c54:	f6000393          	li	t2,-160
    80000c58:	00b38463          	beq	t2,a1,80000c60 <inst_74>
    80000c5c:	bc8ff06f          	j	80000024 <rvtest_error>

0000000080000c60 <inst_74>:
    80000c60:	ff700513          	li	a0,-9
    80000c64:	0035159b          	slliw	a1,a0,0x3
    80000c68:	1ab13423          	sd	a1,424(sp)
    80000c6c:	fb800393          	li	t2,-72
    80000c70:	00b38463          	beq	t2,a1,80000c78 <inst_75>
    80000c74:	bb0ff06f          	j	80000024 <rvtest_error>

0000000080000c78 <inst_75>:
    80000c78:	fef00513          	li	a0,-17
    80000c7c:	0025159b          	slliw	a1,a0,0x2
    80000c80:	1ab13823          	sd	a1,432(sp)
    80000c84:	fbc00393          	li	t2,-68
    80000c88:	00b38463          	beq	t2,a1,80000c90 <inst_76>
    80000c8c:	b98ff06f          	j	80000024 <rvtest_error>

0000000080000c90 <inst_76>:
    80000c90:	fdf00513          	li	a0,-33
    80000c94:	0155159b          	slliw	a1,a0,0x15
    80000c98:	1ab13c23          	sd	a1,440(sp)
    80000c9c:	fbe003b7          	lui	t2,0xfbe00
    80000ca0:	00b38463          	beq	t2,a1,80000ca8 <inst_77>
    80000ca4:	b80ff06f          	j	80000024 <rvtest_error>

0000000080000ca8 <inst_77>:
    80000ca8:	fbf00513          	li	a0,-65
    80000cac:	0075159b          	slliw	a1,a0,0x7
    80000cb0:	1cb13023          	sd	a1,448(sp)
    80000cb4:	ffffe3b7          	lui	t2,0xffffe
    80000cb8:	f803839b          	addiw	t2,t2,-128 # ffffffffffffdf80 <absimm+0xffffffff452f04b0>
    80000cbc:	00b38463          	beq	t2,a1,80000cc4 <inst_78>
    80000cc0:	b64ff06f          	j	80000024 <rvtest_error>

0000000080000cc4 <inst_78>:
    80000cc4:	f7f00513          	li	a0,-129
    80000cc8:	0045159b          	slliw	a1,a0,0x4
    80000ccc:	1cb13423          	sd	a1,456(sp)
    80000cd0:	fffff3b7          	lui	t2,0xfffff
    80000cd4:	7f03839b          	addiw	t2,t2,2032 # fffffffffffff7f0 <absimm+0xffffffff452f1d20>
    80000cd8:	00b38463          	beq	t2,a1,80000ce0 <inst_79>
    80000cdc:	b48ff06f          	j	80000024 <rvtest_error>

0000000080000ce0 <inst_79>:
    80000ce0:	eff00513          	li	a0,-257
    80000ce4:	0065159b          	slliw	a1,a0,0x6
    80000ce8:	1cb13823          	sd	a1,464(sp)
    80000cec:	ffffc3b7          	lui	t2,0xffffc
    80000cf0:	fc03839b          	addiw	t2,t2,-64 # ffffffffffffbfc0 <absimm+0xffffffff452ee4f0>
    80000cf4:	00b38463          	beq	t2,a1,80000cfc <inst_80>
    80000cf8:	b2cff06f          	j	80000024 <rvtest_error>

0000000080000cfc <inst_80>:
    80000cfc:	dff00513          	li	a0,-513
    80000d00:	0085159b          	slliw	a1,a0,0x8
    80000d04:	1cb13c23          	sd	a1,472(sp)
    80000d08:	fffe03b7          	lui	t2,0xfffe0
    80000d0c:	f003839b          	addiw	t2,t2,-256 # fffffffffffdff00 <absimm+0xffffffff452d2430>
    80000d10:	00b38463          	beq	t2,a1,80000d18 <inst_81>
    80000d14:	b10ff06f          	j	80000024 <rvtest_error>

0000000080000d18 <inst_81>:
    80000d18:	bff00513          	li	a0,-1025
    80000d1c:	00c5159b          	slliw	a1,a0,0xc
    80000d20:	1eb13023          	sd	a1,480(sp)
    80000d24:	ffbff3b7          	lui	t2,0xffbff
    80000d28:	00b38463          	beq	t2,a1,80000d30 <inst_82>
    80000d2c:	af8ff06f          	j	80000024 <rvtest_error>

0000000080000d30 <inst_82>:
    80000d30:	00100513          	li	a0,1
    80000d34:	00b51513          	slli	a0,a0,0xb
    80000d38:	fff54513          	not	a0,a0
    80000d3c:	0025159b          	slliw	a1,a0,0x2
    80000d40:	1eb13423          	sd	a1,488(sp)
    80000d44:	ffffe3b7          	lui	t2,0xffffe
    80000d48:	ffc3839b          	addiw	t2,t2,-4 # ffffffffffffdffc <absimm+0xffffffff452f052c>
    80000d4c:	00b38463          	beq	t2,a1,80000d54 <inst_83>
    80000d50:	ad4ff06f          	j	80000024 <rvtest_error>

0000000080000d54 <inst_83>:
    80000d54:	00100513          	li	a0,1
    80000d58:	00c51513          	slli	a0,a0,0xc
    80000d5c:	fff54513          	not	a0,a0
    80000d60:	00c5159b          	slliw	a1,a0,0xc
    80000d64:	1eb13823          	sd	a1,496(sp)
    80000d68:	fefff3b7          	lui	t2,0xfefff
    80000d6c:	00b38463          	beq	t2,a1,80000d74 <inst_84>
    80000d70:	ab4ff06f          	j	80000024 <rvtest_error>

0000000080000d74 <inst_84>:
    80000d74:	00100513          	li	a0,1
    80000d78:	00d51513          	slli	a0,a0,0xd
    80000d7c:	fff54513          	not	a0,a0
    80000d80:	00f5159b          	slliw	a1,a0,0xf
    80000d84:	1eb13c23          	sd	a1,504(sp)
    80000d88:	efff83b7          	lui	t2,0xefff8
    80000d8c:	00b38463          	beq	t2,a1,80000d94 <inst_85>
    80000d90:	a94ff06f          	j	80000024 <rvtest_error>

0000000080000d94 <inst_85>:
    80000d94:	00100513          	li	a0,1
    80000d98:	00e51513          	slli	a0,a0,0xe
    80000d9c:	fff54513          	not	a0,a0
    80000da0:	00a5159b          	slliw	a1,a0,0xa
    80000da4:	20b13023          	sd	a1,512(sp)
    80000da8:	ff0003b7          	lui	t2,0xff000
    80000dac:	c003839b          	addiw	t2,t2,-1024 # fffffffffefffc00 <absimm+0xffffffff442f2130>
    80000db0:	00b38463          	beq	t2,a1,80000db8 <inst_86>
    80000db4:	a70ff06f          	j	80000024 <rvtest_error>

0000000080000db8 <inst_86>:
    80000db8:	00100513          	li	a0,1
    80000dbc:	00f51513          	slli	a0,a0,0xf
    80000dc0:	fff54513          	not	a0,a0
    80000dc4:	0155159b          	slliw	a1,a0,0x15
    80000dc8:	20b13423          	sd	a1,520(sp)
    80000dcc:	ffe003b7          	lui	t2,0xffe00
    80000dd0:	00b38463          	beq	t2,a1,80000dd8 <inst_87>
    80000dd4:	a50ff06f          	j	80000024 <rvtest_error>

0000000080000dd8 <inst_87>:
    80000dd8:	00100513          	li	a0,1
    80000ddc:	03551513          	slli	a0,a0,0x35
    80000de0:	fff54513          	not	a0,a0
    80000de4:	0115159b          	slliw	a1,a0,0x11
    80000de8:	20b13823          	sd	a1,528(sp)
    80000dec:	fffe03b7          	lui	t2,0xfffe0
    80000df0:	00b38463          	beq	t2,a1,80000df8 <inst_88>
    80000df4:	a30ff06f          	j	80000024 <rvtest_error>

0000000080000df8 <inst_88>:
    80000df8:	00100513          	li	a0,1
    80000dfc:	03651513          	slli	a0,a0,0x36
    80000e00:	fff54513          	not	a0,a0
    80000e04:	0095159b          	slliw	a1,a0,0x9
    80000e08:	20b13c23          	sd	a1,536(sp)
    80000e0c:	e0000393          	li	t2,-512
    80000e10:	00b38463          	beq	t2,a1,80000e18 <inst_89>
    80000e14:	a10ff06f          	j	80000024 <rvtest_error>

0000000080000e18 <inst_89>:
    80000e18:	00100513          	li	a0,1
    80000e1c:	03751513          	slli	a0,a0,0x37
    80000e20:	fff54513          	not	a0,a0
    80000e24:	00e5159b          	slliw	a1,a0,0xe
    80000e28:	22b13023          	sd	a1,544(sp)
    80000e2c:	ffffc3b7          	lui	t2,0xffffc
    80000e30:	00b38463          	beq	t2,a1,80000e38 <inst_90>
    80000e34:	9f0ff06f          	j	80000024 <rvtest_error>

0000000080000e38 <inst_90>:
    80000e38:	00100513          	li	a0,1
    80000e3c:	03851513          	slli	a0,a0,0x38
    80000e40:	fff54513          	not	a0,a0
    80000e44:	01b5159b          	slliw	a1,a0,0x1b
    80000e48:	22b13423          	sd	a1,552(sp)
    80000e4c:	f80003b7          	lui	t2,0xf8000
    80000e50:	00b38463          	beq	t2,a1,80000e58 <inst_91>
    80000e54:	9d0ff06f          	j	80000024 <rvtest_error>

0000000080000e58 <inst_91>:
    80000e58:	00100513          	li	a0,1
    80000e5c:	03951513          	slli	a0,a0,0x39
    80000e60:	fff54513          	not	a0,a0
    80000e64:	01d5159b          	slliw	a1,a0,0x1d
    80000e68:	22b13823          	sd	a1,560(sp)
    80000e6c:	e00003b7          	lui	t2,0xe0000
    80000e70:	00b38463          	beq	t2,a1,80000e78 <inst_92>
    80000e74:	9b0ff06f          	j	80000024 <rvtest_error>

0000000080000e78 <inst_92>:
    80000e78:	00100513          	li	a0,1
    80000e7c:	03a51513          	slli	a0,a0,0x3a
    80000e80:	fff54513          	not	a0,a0
    80000e84:	0015159b          	slliw	a1,a0,0x1
    80000e88:	22b13c23          	sd	a1,568(sp)
    80000e8c:	ffe00393          	li	t2,-2
    80000e90:	00b38463          	beq	t2,a1,80000e98 <inst_93>
    80000e94:	990ff06f          	j	80000024 <rvtest_error>

0000000080000e98 <inst_93>:
    80000e98:	00100513          	li	a0,1
    80000e9c:	03b51513          	slli	a0,a0,0x3b
    80000ea0:	fff54513          	not	a0,a0
    80000ea4:	0015159b          	slliw	a1,a0,0x1
    80000ea8:	24b13023          	sd	a1,576(sp)
    80000eac:	ffe00393          	li	t2,-2
    80000eb0:	00b38463          	beq	t2,a1,80000eb8 <inst_94>
    80000eb4:	970ff06f          	j	80000024 <rvtest_error>

0000000080000eb8 <inst_94>:
    80000eb8:	00100513          	li	a0,1
    80000ebc:	03c51513          	slli	a0,a0,0x3c
    80000ec0:	fff54513          	not	a0,a0
    80000ec4:	0115159b          	slliw	a1,a0,0x11
    80000ec8:	24b13423          	sd	a1,584(sp)
    80000ecc:	fffe03b7          	lui	t2,0xfffe0
    80000ed0:	00b38463          	beq	t2,a1,80000ed8 <inst_95>
    80000ed4:	950ff06f          	j	80000024 <rvtest_error>

0000000080000ed8 <inst_95>:
    80000ed8:	00100513          	li	a0,1
    80000edc:	03d51513          	slli	a0,a0,0x3d
    80000ee0:	fff54513          	not	a0,a0
    80000ee4:	0105159b          	slliw	a1,a0,0x10
    80000ee8:	24b13823          	sd	a1,592(sp)
    80000eec:	ffff03b7          	lui	t2,0xffff0
    80000ef0:	00b38463          	beq	t2,a1,80000ef8 <inst_96>
    80000ef4:	930ff06f          	j	80000024 <rvtest_error>

0000000080000ef8 <inst_96>:
    80000ef8:	00100513          	li	a0,1
    80000efc:	03e51513          	slli	a0,a0,0x3e
    80000f00:	fff54513          	not	a0,a0
    80000f04:	0005159b          	slliw	a1,a0,0x0
    80000f08:	24b13c23          	sd	a1,600(sp)
    80000f0c:	fff00393          	li	t2,-1
    80000f10:	00b38463          	beq	t2,a1,80000f18 <inst_97>
    80000f14:	910ff06f          	j	80000024 <rvtest_error>

0000000080000f18 <inst_97>:
    80000f18:	55555537          	lui	a0,0x55555
    80000f1c:	55550513          	addi	a0,a0,1365 # 55555555 <absimmsh+0x49a847a8>
    80000f20:	00b51513          	slli	a0,a0,0xb
    80000f24:	2aa50513          	addi	a0,a0,682
    80000f28:	00b51513          	slli	a0,a0,0xb
    80000f2c:	55550513          	addi	a0,a0,1365
    80000f30:	00a51513          	slli	a0,a0,0xa
    80000f34:	15550513          	addi	a0,a0,341
    80000f38:	0045159b          	slliw	a1,a0,0x4
    80000f3c:	26b13023          	sd	a1,608(sp)
    80000f40:	555553b7          	lui	t2,0x55555
    80000f44:	5503839b          	addiw	t2,t2,1360 # 55555550 <absimmsh+0x49a847a3>
    80000f48:	00b38463          	beq	t2,a1,80000f50 <inst_98>
    80000f4c:	8d8ff06f          	j	80000024 <rvtest_error>

0000000080000f50 <inst_98>:
    80000f50:	aaaab537          	lui	a0,0xaaaab
    80000f54:	aaa50513          	addi	a0,a0,-1366 # ffffffffaaaaaaaa <absimm+0xfffffffeefd9cfda>
    80000f58:	00b51513          	slli	a0,a0,0xb
    80000f5c:	55550513          	addi	a0,a0,1365
    80000f60:	00b51513          	slli	a0,a0,0xb
    80000f64:	2aa50513          	addi	a0,a0,682
    80000f68:	00a51513          	slli	a0,a0,0xa
    80000f6c:	2aa50513          	addi	a0,a0,682
    80000f70:	0155159b          	slliw	a1,a0,0x15
    80000f74:	26b13423          	sd	a1,616(sp)
    80000f78:	554003b7          	lui	t2,0x55400
    80000f7c:	00b38463          	beq	t2,a1,80000f84 <inst_99>
    80000f80:	8a4ff06f          	j	80000024 <rvtest_error>

0000000080000f84 <inst_99>:
    80000f84:	00300513          	li	a0,3
    80000f88:	00d5159b          	slliw	a1,a0,0xd
    80000f8c:	26b13823          	sd	a1,624(sp)
    80000f90:	000063b7          	lui	t2,0x6
    80000f94:	00b38463          	beq	t2,a1,80000f9c <inst_100>
    80000f98:	88cff06f          	j	80000024 <rvtest_error>

0000000080000f9c <inst_100>:
    80000f9c:	33333537          	lui	a0,0x33333
    80000fa0:	33350513          	addi	a0,a0,819 # 33333333 <absimmsh+0x27862586>
    80000fa4:	00b51513          	slli	a0,a0,0xb
    80000fa8:	19950513          	addi	a0,a0,409
    80000fac:	00b51513          	slli	a0,a0,0xb
    80000fb0:	4cc50513          	addi	a0,a0,1228
    80000fb4:	00a51513          	slli	a0,a0,0xa
    80000fb8:	33350513          	addi	a0,a0,819
    80000fbc:	0005159b          	slliw	a1,a0,0x0
    80000fc0:	26b13c23          	sd	a1,632(sp)
    80000fc4:	333333b7          	lui	t2,0x33333
    80000fc8:	3333839b          	addiw	t2,t2,819 # 33333333 <absimmsh+0x27862586>
    80000fcc:	00b38463          	beq	t2,a1,80000fd4 <inst_101>
    80000fd0:	854ff06f          	j	80000024 <rvtest_error>

0000000080000fd4 <inst_101>:
    80000fd4:	66666537          	lui	a0,0x66666
    80000fd8:	66650513          	addi	a0,a0,1638 # 66666666 <absimmsh+0x5ab958b9>
    80000fdc:	00b51513          	slli	a0,a0,0xb
    80000fe0:	33350513          	addi	a0,a0,819
    80000fe4:	00b51513          	slli	a0,a0,0xb
    80000fe8:	19950513          	addi	a0,a0,409
    80000fec:	00a51513          	slli	a0,a0,0xa
    80000ff0:	26650513          	addi	a0,a0,614
    80000ff4:	0155159b          	slliw	a1,a0,0x15
    80000ff8:	28b13023          	sd	a1,640(sp)
    80000ffc:	ccc003b7          	lui	t2,0xccc00
    80001000:	00b38463          	beq	t2,a1,80001008 <inst_102>
    80001004:	820ff06f          	j	80000024 <rvtest_error>

0000000080001008 <inst_102>:
    80001008:	00000537          	lui	a0,0x0
    8000100c:	fff50513          	addi	a0,a0,-1
    80001010:	00b51513          	slli	a0,a0,0xb
    80001014:	25750513          	addi	a0,a0,599
    80001018:	00b51513          	slli	a0,a0,0xb
    8000101c:	6c350513          	addi	a0,a0,1731
    80001020:	00a51513          	slli	a0,a0,0xa
    80001024:	0cd50513          	addi	a0,a0,205
    80001028:	0035159b          	slliw	a1,a0,0x3
    8000102c:	28b13423          	sd	a1,648(sp)
    80001030:	57d863b7          	lui	t2,0x57d86
    80001034:	6683839b          	addiw	t2,t2,1640 # 57d86668 <absimmsh+0x4c2b58bb>
    80001038:	00b38463          	beq	t2,a1,80001040 <inst_103>
    8000103c:	fe9fe06f          	j	80000024 <rvtest_error>

0000000080001040 <inst_103>:
    80001040:	00000537          	lui	a0,0x0
    80001044:	00050513          	mv	a0,a0
    80001048:	00b51513          	slli	a0,a0,0xb
    8000104c:	5a850513          	addi	a0,a0,1448 # 5a8 <offset+0x1a0>
    80001050:	00b51513          	slli	a0,a0,0xb
    80001054:	13c50513          	addi	a0,a0,316
    80001058:	00a51513          	slli	a0,a0,0xa
    8000105c:	33350513          	addi	a0,a0,819
    80001060:	0015159b          	slliw	a1,a0,0x1
    80001064:	28b13823          	sd	a1,656(sp)
    80001068:	6a09e3b7          	lui	t2,0x6a09e
    8000106c:	6663839b          	addiw	t2,t2,1638 # 6a09e666 <absimmsh+0x5e5cd8b9>
    80001070:	00b38463          	beq	t2,a1,80001078 <inst_104>
    80001074:	fb1fe06f          	j	80000024 <rvtest_error>

0000000080001078 <inst_104>:
    80001078:	55555537          	lui	a0,0x55555
    8000107c:	55550513          	addi	a0,a0,1365 # 55555555 <absimmsh+0x49a847a8>
    80001080:	00b51513          	slli	a0,a0,0xb
    80001084:	2aa50513          	addi	a0,a0,682
    80001088:	00b51513          	slli	a0,a0,0xb
    8000108c:	55550513          	addi	a0,a0,1365
    80001090:	00a51513          	slli	a0,a0,0xa
    80001094:	15450513          	addi	a0,a0,340
    80001098:	0055159b          	slliw	a1,a0,0x5
    8000109c:	28b13c23          	sd	a1,664(sp)
    800010a0:	aaaab3b7          	lui	t2,0xaaaab
    800010a4:	a803839b          	addiw	t2,t2,-1408 # ffffffffaaaaaa80 <absimm+0xfffffffeefd9cfb0>
    800010a8:	00b38463          	beq	t2,a1,800010b0 <inst_105>
    800010ac:	f79fe06f          	j	80000024 <rvtest_error>

00000000800010b0 <inst_105>:
    800010b0:	33333537          	lui	a0,0x33333
    800010b4:	33350513          	addi	a0,a0,819 # 33333333 <absimmsh+0x27862586>
    800010b8:	00b51513          	slli	a0,a0,0xb
    800010bc:	19950513          	addi	a0,a0,409
    800010c0:	00b51513          	slli	a0,a0,0xb
    800010c4:	4cc50513          	addi	a0,a0,1228
    800010c8:	00a51513          	slli	a0,a0,0xa
    800010cc:	33250513          	addi	a0,a0,818
    800010d0:	00d5159b          	slliw	a1,a0,0xd
    800010d4:	2ab13023          	sd	a1,672(sp)
    800010d8:	666643b7          	lui	t2,0x66664
    800010dc:	00b38463          	beq	t2,a1,800010e4 <inst_106>
    800010e0:	f45fe06f          	j	80000024 <rvtest_error>

00000000800010e4 <inst_106>:
    800010e4:	66666537          	lui	a0,0x66666
    800010e8:	66650513          	addi	a0,a0,1638 # 66666666 <absimmsh+0x5ab958b9>
    800010ec:	00b51513          	slli	a0,a0,0xb
    800010f0:	33350513          	addi	a0,a0,819
    800010f4:	00b51513          	slli	a0,a0,0xb
    800010f8:	19950513          	addi	a0,a0,409
    800010fc:	00a51513          	slli	a0,a0,0xa
    80001100:	26550513          	addi	a0,a0,613
    80001104:	00f5159b          	slliw	a1,a0,0xf
    80001108:	2ab13423          	sd	a1,680(sp)
    8000110c:	333283b7          	lui	t2,0x33328
    80001110:	00b38463          	beq	t2,a1,80001118 <inst_107>
    80001114:	f11fe06f          	j	80000024 <rvtest_error>

0000000080001118 <inst_107>:
    80001118:	00000537          	lui	a0,0x0
    8000111c:	00050513          	mv	a0,a0
    80001120:	00b51513          	slli	a0,a0,0xb
    80001124:	5a850513          	addi	a0,a0,1448 # 5a8 <offset+0x1a0>
    80001128:	00b51513          	slli	a0,a0,0xb
    8000112c:	13c50513          	addi	a0,a0,316
    80001130:	00a51513          	slli	a0,a0,0xa
    80001134:	33250513          	addi	a0,a0,818
    80001138:	0035159b          	slliw	a1,a0,0x3
    8000113c:	2ab13823          	sd	a1,688(sp)
    80001140:	a827a3b7          	lui	t2,0xa827a
    80001144:	9903839b          	addiw	t2,t2,-1648 # ffffffffa8279990 <absimm+0xfffffffeed56bec0>
    80001148:	00b38463          	beq	t2,a1,80001150 <inst_108>
    8000114c:	ed9fe06f          	j	80000024 <rvtest_error>

0000000080001150 <inst_108>:
    80001150:	55555537          	lui	a0,0x55555
    80001154:	55550513          	addi	a0,a0,1365 # 55555555 <absimmsh+0x49a847a8>
    80001158:	00b51513          	slli	a0,a0,0xb
    8000115c:	2aa50513          	addi	a0,a0,682
    80001160:	00b51513          	slli	a0,a0,0xb
    80001164:	55550513          	addi	a0,a0,1365
    80001168:	00a51513          	slli	a0,a0,0xa
    8000116c:	15650513          	addi	a0,a0,342
    80001170:	0115159b          	slliw	a1,a0,0x11
    80001174:	2ab13c23          	sd	a1,696(sp)
    80001178:	aaac03b7          	lui	t2,0xaaac0
    8000117c:	00b38463          	beq	t2,a1,80001184 <inst_109>
    80001180:	ea5fe06f          	j	80000024 <rvtest_error>

0000000080001184 <inst_109>:
    80001184:	aaaab537          	lui	a0,0xaaaab
    80001188:	aaa50513          	addi	a0,a0,-1366 # ffffffffaaaaaaaa <absimm+0xfffffffeefd9cfda>
    8000118c:	00b51513          	slli	a0,a0,0xb
    80001190:	55550513          	addi	a0,a0,1365
    80001194:	00b51513          	slli	a0,a0,0xb
    80001198:	2aa50513          	addi	a0,a0,682
    8000119c:	00a51513          	slli	a0,a0,0xa
    800011a0:	2ab50513          	addi	a0,a0,683
    800011a4:	01d5159b          	slliw	a1,a0,0x1d
    800011a8:	2cb13023          	sd	a1,704(sp)
    800011ac:	600003b7          	lui	t2,0x60000
    800011b0:	00b38463          	beq	t2,a1,800011b8 <inst_110>
    800011b4:	e71fe06f          	j	80000024 <rvtest_error>

00000000800011b8 <inst_110>:
    800011b8:	33333537          	lui	a0,0x33333
    800011bc:	33350513          	addi	a0,a0,819 # 33333333 <absimmsh+0x27862586>
    800011c0:	00b51513          	slli	a0,a0,0xb
    800011c4:	19950513          	addi	a0,a0,409
    800011c8:	00b51513          	slli	a0,a0,0xb
    800011cc:	4cc50513          	addi	a0,a0,1228
    800011d0:	00a51513          	slli	a0,a0,0xa
    800011d4:	33450513          	addi	a0,a0,820
    800011d8:	0135159b          	slliw	a1,a0,0x13
    800011dc:	2cb13423          	sd	a1,712(sp)
    800011e0:	99a003b7          	lui	t2,0x99a00
    800011e4:	00b38463          	beq	t2,a1,800011ec <inst_111>
    800011e8:	e3dfe06f          	j	80000024 <rvtest_error>

00000000800011ec <inst_111>:
    800011ec:	66666537          	lui	a0,0x66666
    800011f0:	66650513          	addi	a0,a0,1638 # 66666666 <absimmsh+0x5ab958b9>
    800011f4:	00b51513          	slli	a0,a0,0xb
    800011f8:	33350513          	addi	a0,a0,819
    800011fc:	00b51513          	slli	a0,a0,0xb
    80001200:	19950513          	addi	a0,a0,409
    80001204:	00a51513          	slli	a0,a0,0xa
    80001208:	26750513          	addi	a0,a0,615
    8000120c:	0005159b          	slliw	a1,a0,0x0
    80001210:	2cb13823          	sd	a1,720(sp)
    80001214:	666663b7          	lui	t2,0x66666
    80001218:	6673839b          	addiw	t2,t2,1639 # 66666667 <absimmsh+0x5ab958ba>
    8000121c:	00b38463          	beq	t2,a1,80001224 <inst_112>
    80001220:	e05fe06f          	j	80000024 <rvtest_error>

0000000080001224 <inst_112>:
    80001224:	00000537          	lui	a0,0x0
    80001228:	fff50513          	addi	a0,a0,-1
    8000122c:	00b51513          	slli	a0,a0,0xb
    80001230:	25750513          	addi	a0,a0,599
    80001234:	00b51513          	slli	a0,a0,0xb
    80001238:	6c350513          	addi	a0,a0,1731
    8000123c:	00a51513          	slli	a0,a0,0xa
    80001240:	0ce50513          	addi	a0,a0,206
    80001244:	0015159b          	slliw	a1,a0,0x1
    80001248:	2cb13c23          	sd	a1,728(sp)
    8000124c:	95f623b7          	lui	t2,0x95f62
    80001250:	99c3839b          	addiw	t2,t2,-1636 # ffffffff95f6199c <absimm+0xfffffffedb253ecc>
    80001254:	00b38463          	beq	t2,a1,8000125c <inst_113>
    80001258:	dcdfe06f          	j	80000024 <rvtest_error>

000000008000125c <inst_113>:
    8000125c:	00000537          	lui	a0,0x0
    80001260:	00050513          	mv	a0,a0
    80001264:	00b51513          	slli	a0,a0,0xb
    80001268:	5a850513          	addi	a0,a0,1448 # 5a8 <offset+0x1a0>
    8000126c:	00b51513          	slli	a0,a0,0xb
    80001270:	13c50513          	addi	a0,a0,316
    80001274:	00a51513          	slli	a0,a0,0xa
    80001278:	33450513          	addi	a0,a0,820
    8000127c:	00a5159b          	slliw	a1,a0,0xa
    80001280:	2eb13023          	sd	a1,736(sp)
    80001284:	13ccd3b7          	lui	t2,0x13ccd
    80001288:	00b38463          	beq	t2,a1,80001290 <inst_114>
    8000128c:	d99fe06f          	j	80000024 <rvtest_error>

0000000080001290 <inst_114>:
    80001290:	00100513          	li	a0,1
    80001294:	01051513          	slli	a0,a0,0x10
    80001298:	fff54513          	not	a0,a0
    8000129c:	01d5159b          	slliw	a1,a0,0x1d
    800012a0:	2eb13423          	sd	a1,744(sp)
    800012a4:	e00003b7          	lui	t2,0xe0000
    800012a8:	00b38463          	beq	t2,a1,800012b0 <inst_115>
    800012ac:	d79fe06f          	j	80000024 <rvtest_error>

00000000800012b0 <inst_115>:
    800012b0:	00100513          	li	a0,1
    800012b4:	01151513          	slli	a0,a0,0x11
    800012b8:	fff54513          	not	a0,a0
    800012bc:	01e5159b          	slliw	a1,a0,0x1e
    800012c0:	2eb13823          	sd	a1,752(sp)
    800012c4:	c00003b7          	lui	t2,0xc0000
    800012c8:	00b38463          	beq	t2,a1,800012d0 <inst_116>
    800012cc:	d59fe06f          	j	80000024 <rvtest_error>

00000000800012d0 <inst_116>:
    800012d0:	00100513          	li	a0,1
    800012d4:	01351513          	slli	a0,a0,0x13
    800012d8:	fff54513          	not	a0,a0
    800012dc:	0065159b          	slliw	a1,a0,0x6
    800012e0:	2eb13c23          	sd	a1,760(sp)
    800012e4:	fe0003b7          	lui	t2,0xfe000
    800012e8:	fc03839b          	addiw	t2,t2,-64 # fffffffffdffffc0 <absimm+0xffffffff432f24f0>
    800012ec:	00b38463          	beq	t2,a1,800012f4 <inst_117>
    800012f0:	d35fe06f          	j	80000024 <rvtest_error>

00000000800012f4 <inst_117>:
    800012f4:	00100513          	li	a0,1
    800012f8:	01451513          	slli	a0,a0,0x14
    800012fc:	fff54513          	not	a0,a0
    80001300:	00d5159b          	slliw	a1,a0,0xd
    80001304:	30b13023          	sd	a1,768(sp)
    80001308:	ffffe3b7          	lui	t2,0xffffe
    8000130c:	00b38463          	beq	t2,a1,80001314 <inst_118>
    80001310:	d15fe06f          	j	80000024 <rvtest_error>

0000000080001314 <inst_118>:
    80001314:	00100513          	li	a0,1
    80001318:	01551513          	slli	a0,a0,0x15
    8000131c:	fff54513          	not	a0,a0
    80001320:	01b5159b          	slliw	a1,a0,0x1b
    80001324:	30b13423          	sd	a1,776(sp)
    80001328:	f80003b7          	lui	t2,0xf8000
    8000132c:	00b38463          	beq	t2,a1,80001334 <inst_119>
    80001330:	cf5fe06f          	j	80000024 <rvtest_error>

0000000080001334 <inst_119>:
    80001334:	00100513          	li	a0,1
    80001338:	01651513          	slli	a0,a0,0x16
    8000133c:	fff54513          	not	a0,a0
    80001340:	0175159b          	slliw	a1,a0,0x17
    80001344:	30b13823          	sd	a1,784(sp)
    80001348:	ff8003b7          	lui	t2,0xff800
    8000134c:	00b38463          	beq	t2,a1,80001354 <inst_120>
    80001350:	cd5fe06f          	j	80000024 <rvtest_error>

0000000080001354 <inst_120>:
    80001354:	00100513          	li	a0,1
    80001358:	01751513          	slli	a0,a0,0x17
    8000135c:	fff54513          	not	a0,a0
    80001360:	0045159b          	slliw	a1,a0,0x4
    80001364:	30b13c23          	sd	a1,792(sp)
    80001368:	f80003b7          	lui	t2,0xf8000
    8000136c:	ff03839b          	addiw	t2,t2,-16 # fffffffff7fffff0 <absimm+0xffffffff3d2f2520>
    80001370:	00b38463          	beq	t2,a1,80001378 <inst_121>
    80001374:	cb1fe06f          	j	80000024 <rvtest_error>

0000000080001378 <inst_121>:
    80001378:	00100513          	li	a0,1
    8000137c:	01851513          	slli	a0,a0,0x18
    80001380:	fff54513          	not	a0,a0
    80001384:	00a5159b          	slliw	a1,a0,0xa
    80001388:	32b13023          	sd	a1,800(sp)
    8000138c:	c0000393          	li	t2,-1024
    80001390:	00b38463          	beq	t2,a1,80001398 <inst_122>
    80001394:	c91fe06f          	j	80000024 <rvtest_error>

0000000080001398 <inst_122>:
    80001398:	00100513          	li	a0,1
    8000139c:	01951513          	slli	a0,a0,0x19
    800013a0:	fff54513          	not	a0,a0
    800013a4:	01b5159b          	slliw	a1,a0,0x1b
    800013a8:	32b13423          	sd	a1,808(sp)
    800013ac:	f80003b7          	lui	t2,0xf8000
    800013b0:	00b38463          	beq	t2,a1,800013b8 <inst_123>
    800013b4:	c71fe06f          	j	80000024 <rvtest_error>

00000000800013b8 <inst_123>:
    800013b8:	00100513          	li	a0,1
    800013bc:	01a51513          	slli	a0,a0,0x1a
    800013c0:	fff54513          	not	a0,a0
    800013c4:	00c5159b          	slliw	a1,a0,0xc
    800013c8:	32b13823          	sd	a1,816(sp)
    800013cc:	fffff3b7          	lui	t2,0xfffff
    800013d0:	00b38463          	beq	t2,a1,800013d8 <inst_124>
    800013d4:	c51fe06f          	j	80000024 <rvtest_error>

00000000800013d8 <inst_124>:
    800013d8:	00100513          	li	a0,1
    800013dc:	01b51513          	slli	a0,a0,0x1b
    800013e0:	fff54513          	not	a0,a0
    800013e4:	00c5159b          	slliw	a1,a0,0xc
    800013e8:	32b13c23          	sd	a1,824(sp)
    800013ec:	fffff3b7          	lui	t2,0xfffff
    800013f0:	00b38463          	beq	t2,a1,800013f8 <inst_125>
    800013f4:	c31fe06f          	j	80000024 <rvtest_error>

00000000800013f8 <inst_125>:
    800013f8:	00100513          	li	a0,1
    800013fc:	01c51513          	slli	a0,a0,0x1c
    80001400:	fff54513          	not	a0,a0
    80001404:	00f5159b          	slliw	a1,a0,0xf
    80001408:	34b13023          	sd	a1,832(sp)
    8000140c:	ffff83b7          	lui	t2,0xffff8
    80001410:	00b38463          	beq	t2,a1,80001418 <inst_126>
    80001414:	c11fe06f          	j	80000024 <rvtest_error>

0000000080001418 <inst_126>:
    80001418:	00100513          	li	a0,1
    8000141c:	01d51513          	slli	a0,a0,0x1d
    80001420:	fff54513          	not	a0,a0
    80001424:	0015159b          	slliw	a1,a0,0x1
    80001428:	34b13423          	sd	a1,840(sp)
    8000142c:	c00003b7          	lui	t2,0xc0000
    80001430:	ffe3839b          	addiw	t2,t2,-2 # ffffffffbffffffe <absimm+0xffffffff052f252e>
    80001434:	00b38463          	beq	t2,a1,8000143c <inst_127>
    80001438:	bedfe06f          	j	80000024 <rvtest_error>

000000008000143c <inst_127>:
    8000143c:	00100513          	li	a0,1
    80001440:	01e51513          	slli	a0,a0,0x1e
    80001444:	fff54513          	not	a0,a0
    80001448:	0105159b          	slliw	a1,a0,0x10
    8000144c:	34b13823          	sd	a1,848(sp)
    80001450:	ffff03b7          	lui	t2,0xffff0
    80001454:	00b38463          	beq	t2,a1,8000145c <inst_128>
    80001458:	bcdfe06f          	j	80000024 <rvtest_error>

000000008000145c <inst_128>:
    8000145c:	00100513          	li	a0,1
    80001460:	01f51513          	slli	a0,a0,0x1f
    80001464:	fff54513          	not	a0,a0
    80001468:	01b5159b          	slliw	a1,a0,0x1b
    8000146c:	34b13c23          	sd	a1,856(sp)
    80001470:	f80003b7          	lui	t2,0xf8000
    80001474:	00b38463          	beq	t2,a1,8000147c <inst_129>
    80001478:	badfe06f          	j	80000024 <rvtest_error>

000000008000147c <inst_129>:
    8000147c:	00100513          	li	a0,1
    80001480:	02151513          	slli	a0,a0,0x21
    80001484:	fff54513          	not	a0,a0
    80001488:	0135159b          	slliw	a1,a0,0x13
    8000148c:	36b13023          	sd	a1,864(sp)
    80001490:	fff803b7          	lui	t2,0xfff80
    80001494:	00b38463          	beq	t2,a1,8000149c <inst_130>
    80001498:	b8dfe06f          	j	80000024 <rvtest_error>

000000008000149c <inst_130>:
    8000149c:	00100513          	li	a0,1
    800014a0:	02251513          	slli	a0,a0,0x22
    800014a4:	fff54513          	not	a0,a0
    800014a8:	0125159b          	slliw	a1,a0,0x12
    800014ac:	36b13423          	sd	a1,872(sp)
    800014b0:	fffc03b7          	lui	t2,0xfffc0
    800014b4:	00b38463          	beq	t2,a1,800014bc <inst_131>
    800014b8:	b6dfe06f          	j	80000024 <rvtest_error>

00000000800014bc <inst_131>:
    800014bc:	00100513          	li	a0,1
    800014c0:	02351513          	slli	a0,a0,0x23
    800014c4:	fff54513          	not	a0,a0
    800014c8:	00b5159b          	slliw	a1,a0,0xb
    800014cc:	36b13823          	sd	a1,880(sp)
    800014d0:	80000393          	li	t2,-2048
    800014d4:	00b38463          	beq	t2,a1,800014dc <inst_132>
    800014d8:	b4dfe06f          	j	80000024 <rvtest_error>

00000000800014dc <inst_132>:
    800014dc:	00100513          	li	a0,1
    800014e0:	02451513          	slli	a0,a0,0x24
    800014e4:	fff54513          	not	a0,a0
    800014e8:	0035159b          	slliw	a1,a0,0x3
    800014ec:	36b13c23          	sd	a1,888(sp)
    800014f0:	ff800393          	li	t2,-8
    800014f4:	00b38463          	beq	t2,a1,800014fc <inst_133>
    800014f8:	b2dfe06f          	j	80000024 <rvtest_error>

00000000800014fc <inst_133>:
    800014fc:	00100513          	li	a0,1
    80001500:	02551513          	slli	a0,a0,0x25
    80001504:	fff54513          	not	a0,a0
    80001508:	00c5159b          	slliw	a1,a0,0xc
    8000150c:	38b13023          	sd	a1,896(sp)
    80001510:	fffff3b7          	lui	t2,0xfffff
    80001514:	00b38463          	beq	t2,a1,8000151c <inst_134>
    80001518:	b0dfe06f          	j	80000024 <rvtest_error>

000000008000151c <inst_134>:
    8000151c:	00100513          	li	a0,1
    80001520:	02651513          	slli	a0,a0,0x26
    80001524:	fff54513          	not	a0,a0
    80001528:	0045159b          	slliw	a1,a0,0x4
    8000152c:	38b13423          	sd	a1,904(sp)
    80001530:	ff000393          	li	t2,-16
    80001534:	00b38463          	beq	t2,a1,8000153c <inst_135>
    80001538:	aedfe06f          	j	80000024 <rvtest_error>

000000008000153c <inst_135>:
    8000153c:	00100513          	li	a0,1
    80001540:	02751513          	slli	a0,a0,0x27
    80001544:	fff54513          	not	a0,a0
    80001548:	0105159b          	slliw	a1,a0,0x10
    8000154c:	38b13823          	sd	a1,912(sp)
    80001550:	ffff03b7          	lui	t2,0xffff0
    80001554:	00b38463          	beq	t2,a1,8000155c <inst_136>
    80001558:	acdfe06f          	j	80000024 <rvtest_error>

000000008000155c <inst_136>:
    8000155c:	00100513          	li	a0,1
    80001560:	02851513          	slli	a0,a0,0x28
    80001564:	fff54513          	not	a0,a0
    80001568:	0075159b          	slliw	a1,a0,0x7
    8000156c:	38b13c23          	sd	a1,920(sp)
    80001570:	f8000393          	li	t2,-128
    80001574:	00b38463          	beq	t2,a1,8000157c <inst_137>
    80001578:	aadfe06f          	j	80000024 <rvtest_error>

000000008000157c <inst_137>:
    8000157c:	00100513          	li	a0,1
    80001580:	02951513          	slli	a0,a0,0x29
    80001584:	fff54513          	not	a0,a0
    80001588:	01f5159b          	slliw	a1,a0,0x1f
    8000158c:	3ab13023          	sd	a1,928(sp)
    80001590:	800003b7          	lui	t2,0x80000
    80001594:	00b38463          	beq	t2,a1,8000159c <inst_138>
    80001598:	a8dfe06f          	j	80000024 <rvtest_error>

000000008000159c <inst_138>:
    8000159c:	00100513          	li	a0,1
    800015a0:	02a51513          	slli	a0,a0,0x2a
    800015a4:	fff54513          	not	a0,a0
    800015a8:	0115159b          	slliw	a1,a0,0x11
    800015ac:	3ab13423          	sd	a1,936(sp)
    800015b0:	fffe03b7          	lui	t2,0xfffe0
    800015b4:	00b38463          	beq	t2,a1,800015bc <inst_139>
    800015b8:	a6dfe06f          	j	80000024 <rvtest_error>

00000000800015bc <inst_139>:
    800015bc:	00100513          	li	a0,1
    800015c0:	02b51513          	slli	a0,a0,0x2b
    800015c4:	fff54513          	not	a0,a0
    800015c8:	0175159b          	slliw	a1,a0,0x17
    800015cc:	3ab13823          	sd	a1,944(sp)
    800015d0:	ff8003b7          	lui	t2,0xff800
    800015d4:	00b38463          	beq	t2,a1,800015dc <inst_140>
    800015d8:	a4dfe06f          	j	80000024 <rvtest_error>

00000000800015dc <inst_140>:
    800015dc:	00100513          	li	a0,1
    800015e0:	02c51513          	slli	a0,a0,0x2c
    800015e4:	fff54513          	not	a0,a0
    800015e8:	0095159b          	slliw	a1,a0,0x9
    800015ec:	3ab13c23          	sd	a1,952(sp)
    800015f0:	e0000393          	li	t2,-512
    800015f4:	00b38463          	beq	t2,a1,800015fc <inst_141>
    800015f8:	a2dfe06f          	j	80000024 <rvtest_error>

00000000800015fc <inst_141>:
    800015fc:	00100513          	li	a0,1
    80001600:	02d51513          	slli	a0,a0,0x2d
    80001604:	fff54513          	not	a0,a0
    80001608:	0015159b          	slliw	a1,a0,0x1
    8000160c:	3cb13023          	sd	a1,960(sp)
    80001610:	ffe00393          	li	t2,-2
    80001614:	00b38463          	beq	t2,a1,8000161c <inst_142>
    80001618:	a0dfe06f          	j	80000024 <rvtest_error>

000000008000161c <inst_142>:
    8000161c:	00100513          	li	a0,1
    80001620:	02e51513          	slli	a0,a0,0x2e
    80001624:	fff54513          	not	a0,a0
    80001628:	0005159b          	slliw	a1,a0,0x0
    8000162c:	3cb13423          	sd	a1,968(sp)
    80001630:	fff00393          	li	t2,-1
    80001634:	00b38463          	beq	t2,a1,8000163c <inst_143>
    80001638:	9edfe06f          	j	80000024 <rvtest_error>

000000008000163c <inst_143>:
    8000163c:	00100513          	li	a0,1
    80001640:	02f51513          	slli	a0,a0,0x2f
    80001644:	fff54513          	not	a0,a0
    80001648:	0035159b          	slliw	a1,a0,0x3
    8000164c:	3cb13823          	sd	a1,976(sp)
    80001650:	ff800393          	li	t2,-8
    80001654:	00b38463          	beq	t2,a1,8000165c <inst_144>
    80001658:	9cdfe06f          	j	80000024 <rvtest_error>

000000008000165c <inst_144>:
    8000165c:	00100513          	li	a0,1
    80001660:	03051513          	slli	a0,a0,0x30
    80001664:	fff54513          	not	a0,a0
    80001668:	01e5159b          	slliw	a1,a0,0x1e
    8000166c:	3cb13c23          	sd	a1,984(sp)
    80001670:	c00003b7          	lui	t2,0xc0000
    80001674:	00b38463          	beq	t2,a1,8000167c <inst_145>
    80001678:	9adfe06f          	j	80000024 <rvtest_error>

000000008000167c <inst_145>:
    8000167c:	00100513          	li	a0,1
    80001680:	03151513          	slli	a0,a0,0x31
    80001684:	fff54513          	not	a0,a0
    80001688:	01b5159b          	slliw	a1,a0,0x1b
    8000168c:	3eb13023          	sd	a1,992(sp)
    80001690:	f80003b7          	lui	t2,0xf8000
    80001694:	00b38463          	beq	t2,a1,8000169c <inst_146>
    80001698:	98dfe06f          	j	80000024 <rvtest_error>

000000008000169c <inst_146>:
    8000169c:	00100513          	li	a0,1
    800016a0:	03251513          	slli	a0,a0,0x32
    800016a4:	fff54513          	not	a0,a0
    800016a8:	00b5159b          	slliw	a1,a0,0xb
    800016ac:	3eb13423          	sd	a1,1000(sp)
    800016b0:	80000393          	li	t2,-2048
    800016b4:	00b38463          	beq	t2,a1,800016bc <inst_147>
    800016b8:	96dfe06f          	j	80000024 <rvtest_error>

00000000800016bc <inst_147>:
    800016bc:	00100513          	li	a0,1
    800016c0:	03351513          	slli	a0,a0,0x33
    800016c4:	fff54513          	not	a0,a0
    800016c8:	0115159b          	slliw	a1,a0,0x11
    800016cc:	3eb13823          	sd	a1,1008(sp)
    800016d0:	fffe03b7          	lui	t2,0xfffe0
    800016d4:	00b38463          	beq	t2,a1,800016dc <inst_148>
    800016d8:	94dfe06f          	j	80000024 <rvtest_error>

00000000800016dc <inst_148>:
    800016dc:	00400513          	li	a0,4
    800016e0:	0005159b          	slliw	a1,a0,0x0
    800016e4:	3eb13c23          	sd	a1,1016(sp)
    800016e8:	00400393          	li	t2,4
    800016ec:	00b38463          	beq	t2,a1,800016f4 <inst_149>
    800016f0:	935fe06f          	j	80000024 <rvtest_error>

00000000800016f4 <inst_149>:
    800016f4:	00100513          	li	a0,1
    800016f8:	00d51513          	slli	a0,a0,0xd
    800016fc:	0015159b          	slliw	a1,a0,0x1
    80001700:	40b13023          	sd	a1,1024(sp)
    80001704:	000043b7          	lui	t2,0x4
    80001708:	00b38463          	beq	t2,a1,80001710 <cleanup_epilogs>
    8000170c:	919fe06f          	j	80000024 <rvtest_error>

0000000080001710 <cleanup_epilogs>:
    80001710:	0380006f          	j	80001748 <exit_cleanup>

0000000080001714 <abort_tests>:
    80001714:	1f813483          	ld	s1,504(sp)
    80001718:	20013303          	ld	t1,512(sp)
    8000171c:	00930333          	add	t1,t1,s1
    80001720:	00000337          	lui	t1,0x0
    80001724:	00030313          	mv	t1,t1
    80001728:	00b31313          	slli	t1,t1,0xb
    8000172c:	5d630313          	addi	t1,t1,1494 # 5d6 <offset+0x1ce>
    80001730:	00b31313          	slli	t1,t1,0xb
    80001734:	43630313          	addi	t1,t1,1078
    80001738:	00a31313          	slli	t1,t1,0xa
    8000173c:	2d030313          	addi	t1,t1,720
    80001740:	fe64be23          	sd	t1,-4(s1)
    80001744:	0040006f          	j	80001748 <exit_cleanup>

0000000080001748 <exit_cleanup>:
    80001748:	00000513          	li	a0,0
    8000174c:	00c0006f          	j	80001758 <halt>
	...

0000000080001758 <halt>:
    80001758:	00050513          	mv	a0,a0
    8000175c:	00100073          	ebreak
    80001760:	0000006f          	j	80001760 <halt+0x8>

0000000080001764 <_trm_init>:
    80001764:	ff010113          	addi	sp,sp,-16
    80001768:	00000517          	auipc	a0,0x0
    8000176c:	02050513          	addi	a0,a0,32 # 80001788 <mainargs>
    80001770:	00113423          	sd	ra,8(sp)
    80001774:	89dfe0ef          	jal	ra,80000010 <main>
    80001778:	00050513          	mv	a0,a0
    8000177c:	00100073          	ebreak
    80001780:	0000006f          	j	80001780 <_trm_init+0x1c>
