
/home/maveric/ics2023/riscv-arch-test-am/build/slt-riscv64-nemu.elf:     file format elf64-littleriscv


Disassembly of section .text:

0000000080000000 <_start>:
    80000000:	00000413          	li	s0,0
    80000004:	00016117          	auipc	sp,0x16
    80000008:	ffc10113          	addi	sp,sp,-4 # 80016000 <_end>
    8000000c:	4f40a0ef          	jal	ra,8000a500 <_trm_init>

0000000080000010 <main>:
    80000010:	030000ef          	jal	ra,80000040 <rvtest_entry_point>
    80000014:	00100513          	li	a0,1
    80000018:	4dc0a0ef          	jal	ra,8000a4f4 <halt>
    8000001c:	00000513          	li	a0,0
    80000020:	00008067          	ret

0000000080000024 <rvtest_error>:
    80000024:	00100513          	li	a0,1
    80000028:	4cc0a0ef          	jal	ra,8000a4f4 <halt>
    8000002c:	00008067          	ret
	...

0000000080000040 <rvtest_entry_point>:
    80000040:	feedc0b7          	lui	ra,0xfeedc
    80000044:	ead08093          	addi	ra,ra,-339 # fffffffffeedbead <absimm+0xffffffff441ce3dd>
    80000048:	00b09093          	slli	ra,ra,0xb
    8000004c:	7f708093          	addi	ra,ra,2039
    80000050:	00b09093          	slli	ra,ra,0xb
    80000054:	36f08093          	addi	ra,ra,879
    80000058:	00a09093          	slli	ra,ra,0xa
    8000005c:	2ad08093          	addi	ra,ra,685
    80000060:	ff76e137          	lui	sp,0xff76e
    80000064:	f5610113          	addi	sp,sp,-170 # ffffffffff76df56 <absimm+0xffffffff44a60486>
    80000068:	00b11113          	slli	sp,sp,0xb
    8000006c:	7fb10113          	addi	sp,sp,2043
    80000070:	00b11113          	slli	sp,sp,0xb
    80000074:	5b710113          	addi	sp,sp,1463
    80000078:	00a11113          	slli	sp,sp,0xa
    8000007c:	35610113          	addi	sp,sp,854
    80000080:	7fbb71b7          	lui	gp,0x7fbb7
    80000084:	fab18193          	addi	gp,gp,-85 # 7fbb6fab <absimmsh+0x740e61fe>
    80000088:	00b19193          	slli	gp,gp,0xb
    8000008c:	3fd18193          	addi	gp,gp,1021
    80000090:	00b19193          	slli	gp,gp,0xb
    80000094:	6db18193          	addi	gp,gp,1755
    80000098:	00a19193          	slli	gp,gp,0xa
    8000009c:	3ab18193          	addi	gp,gp,939
    800000a0:	bfddb237          	lui	tp,0xbfddb
    800000a4:	7d520213          	addi	tp,tp,2005 # ffffffffbfddb7d5 <absimm+0xffffffff050cdd05>
    800000a8:	00b21213          	slli	tp,tp,0xb
    800000ac:	5fe20213          	addi	tp,tp,1534 # 5fe <offset+0x16e>
    800000b0:	00b21213          	slli	tp,tp,0xb
    800000b4:	76d20213          	addi	tp,tp,1901 # 76d <offset+0x2dd>
    800000b8:	00a21213          	slli	tp,tp,0xa
    800000bc:	3d520213          	addi	tp,tp,981 # 3d5 <pos+0x395>
    800000c0:	dfeee2b7          	lui	t0,0xdfeee
    800000c4:	bea28293          	addi	t0,t0,-1046 # ffffffffdfeedbea <absimm+0xffffffff251e011a>
    800000c8:	00b29293          	slli	t0,t0,0xb
    800000cc:	6ff28293          	addi	t0,t0,1791
    800000d0:	00b29293          	slli	t0,t0,0xb
    800000d4:	3b628293          	addi	t0,t0,950
    800000d8:	00a29293          	slli	t0,t0,0xa
    800000dc:	3ea28293          	addi	t0,t0,1002
    800000e0:	6ff77337          	lui	t1,0x6ff77
    800000e4:	df530313          	addi	t1,t1,-523 # 6ff76df5 <absimmsh+0x644a6048>
    800000e8:	00b31313          	slli	t1,t1,0xb
    800000ec:	37f30313          	addi	t1,t1,895
    800000f0:	00b31313          	slli	t1,t1,0xb
    800000f4:	5db30313          	addi	t1,t1,1499
    800000f8:	00a31313          	slli	t1,t1,0xa
    800000fc:	1f530313          	addi	t1,t1,501
    80000100:	b7fbb3b7          	lui	t2,0xb7fbb
    80000104:	6fa38393          	addi	t2,t2,1786 # ffffffffb7fbb6fa <absimm+0xfffffffefd2adc2a>
    80000108:	00b39393          	slli	t2,t2,0xb
    8000010c:	5bf38393          	addi	t2,t2,1471
    80000110:	00b39393          	slli	t2,t2,0xb
    80000114:	6ed38393          	addi	t2,t2,1773
    80000118:	00a39393          	slli	t2,t2,0xa
    8000011c:	2fa38393          	addi	t2,t2,762
    80000120:	5bfde437          	lui	s0,0x5bfde
    80000124:	b7d40413          	addi	s0,s0,-1155 # 5bfddb7d <absimmsh+0x5050cdd0>
    80000128:	00b41413          	slli	s0,s0,0xb
    8000012c:	2df40413          	addi	s0,s0,735
    80000130:	00b41413          	slli	s0,s0,0xb
    80000134:	77640413          	addi	s0,s0,1910
    80000138:	00a41413          	slli	s0,s0,0xa
    8000013c:	37d40413          	addi	s0,s0,893
    80000140:	adfef4b7          	lui	s1,0xadfef
    80000144:	dbe48493          	addi	s1,s1,-578 # ffffffffadfeedbe <absimm+0xfffffffef32e12ee>
    80000148:	00b49493          	slli	s1,s1,0xb
    8000014c:	56f48493          	addi	s1,s1,1391
    80000150:	00b49493          	slli	s1,s1,0xb
    80000154:	7bb48493          	addi	s1,s1,1979
    80000158:	00a49493          	slli	s1,s1,0xa
    8000015c:	1be48493          	addi	s1,s1,446
    80000160:	56ff7537          	lui	a0,0x56ff7
    80000164:	6df50513          	addi	a0,a0,1759 # 56ff76df <absimmsh+0x4b526932>
    80000168:	00b51513          	slli	a0,a0,0xb
    8000016c:	2b750513          	addi	a0,a0,695
    80000170:	00b51513          	slli	a0,a0,0xb
    80000174:	7dd50513          	addi	a0,a0,2013
    80000178:	00a51513          	slli	a0,a0,0xa
    8000017c:	2df50513          	addi	a0,a0,735
    80000180:	ab7fc5b7          	lui	a1,0xab7fc
    80000184:	b6f58593          	addi	a1,a1,-1169 # ffffffffab7fbb6f <absimm+0xfffffffef0aee09f>
    80000188:	00b59593          	slli	a1,a1,0xb
    8000018c:	55b58593          	addi	a1,a1,1371
    80000190:	00b59593          	slli	a1,a1,0xb
    80000194:	7ee58593          	addi	a1,a1,2030
    80000198:	00a59593          	slli	a1,a1,0xa
    8000019c:	36f58593          	addi	a1,a1,879
    800001a0:	d5bfe637          	lui	a2,0xd5bfe
    800001a4:	db760613          	addi	a2,a2,-585 # ffffffffd5bfddb7 <absimm+0xffffffff1aef02e7>
    800001a8:	00b61613          	slli	a2,a2,0xb
    800001ac:	6ad60613          	addi	a2,a2,1709
    800001b0:	00b61613          	slli	a2,a2,0xb
    800001b4:	7f760613          	addi	a2,a2,2039
    800001b8:	00a61613          	slli	a2,a2,0xa
    800001bc:	1b760613          	addi	a2,a2,439
    800001c0:	eadff6b7          	lui	a3,0xeadff
    800001c4:	edb68693          	addi	a3,a3,-293 # ffffffffeadfeedb <absimm+0xffffffff300f140b>
    800001c8:	00b69693          	slli	a3,a3,0xb
    800001cc:	75668693          	addi	a3,a3,1878
    800001d0:	00b69693          	slli	a3,a3,0xb
    800001d4:	7fb68693          	addi	a3,a3,2043
    800001d8:	00a69693          	slli	a3,a3,0xa
    800001dc:	2db68693          	addi	a3,a3,731
    800001e0:	f56ff737          	lui	a4,0xf56ff
    800001e4:	76d70713          	addi	a4,a4,1901 # fffffffff56ff76d <absimm+0xffffffff3a9f1c9d>
    800001e8:	00b71713          	slli	a4,a4,0xb
    800001ec:	7ab70713          	addi	a4,a4,1963
    800001f0:	00b71713          	slli	a4,a4,0xb
    800001f4:	3fd70713          	addi	a4,a4,1021
    800001f8:	00a71713          	slli	a4,a4,0xa
    800001fc:	36d70713          	addi	a4,a4,877
    80000200:	fab807b7          	lui	a5,0xfab80
    80000204:	bb678793          	addi	a5,a5,-1098 # fffffffffab7fbb6 <absimm+0xffffffff3fe720e6>
    80000208:	00b79793          	slli	a5,a5,0xb
    8000020c:	7d578793          	addi	a5,a5,2005
    80000210:	00b79793          	slli	a5,a5,0xb
    80000214:	5fe78793          	addi	a5,a5,1534
    80000218:	00a79793          	slli	a5,a5,0xa
    8000021c:	3b678793          	addi	a5,a5,950
    80000220:	7d5c0837          	lui	a6,0x7d5c0
    80000224:	ddb80813          	addi	a6,a6,-549 # 7d5bfddb <absimmsh+0x71aef02e>
    80000228:	00b81813          	slli	a6,a6,0xb
    8000022c:	3ea80813          	addi	a6,a6,1002
    80000230:	00b81813          	slli	a6,a6,0xb
    80000234:	6ff80813          	addi	a6,a6,1791
    80000238:	00a81813          	slli	a6,a6,0xa
    8000023c:	1db80813          	addi	a6,a6,475
    80000240:	beae08b7          	lui	a7,0xbeae0
    80000244:	eed88893          	addi	a7,a7,-275 # ffffffffbeadfeed <absimm+0xffffffff03dd241d>
    80000248:	00b89893          	slli	a7,a7,0xb
    8000024c:	5f588893          	addi	a7,a7,1525
    80000250:	00b89893          	slli	a7,a7,0xb
    80000254:	37f88893          	addi	a7,a7,895
    80000258:	00a89893          	slli	a7,a7,0xa
    8000025c:	2ed88893          	addi	a7,a7,749
    80000260:	df570937          	lui	s2,0xdf570
    80000264:	f7690913          	addi	s2,s2,-138 # ffffffffdf56ff76 <absimm+0xffffffff248624a6>
    80000268:	00b91913          	slli	s2,s2,0xb
    8000026c:	6fa90913          	addi	s2,s2,1786
    80000270:	00b91913          	slli	s2,s2,0xb
    80000274:	5bf90913          	addi	s2,s2,1471
    80000278:	00a91913          	slli	s2,s2,0xa
    8000027c:	37690913          	addi	s2,s2,886
    80000280:	6fab89b7          	lui	s3,0x6fab8
    80000284:	fbb98993          	addi	s3,s3,-69 # 6fab7fbb <absimmsh+0x63fe720e>
    80000288:	00b99993          	slli	s3,s3,0xb
    8000028c:	37d98993          	addi	s3,s3,893
    80000290:	00b99993          	slli	s3,s3,0xb
    80000294:	2df98993          	addi	s3,s3,735
    80000298:	00a99993          	slli	s3,s3,0xa
    8000029c:	3bb98993          	addi	s3,s3,955
    800002a0:	b7d5ca37          	lui	s4,0xb7d5c
    800002a4:	fdda0a13          	addi	s4,s4,-35 # ffffffffb7d5bfdd <absimm+0xfffffffefd04e50d>
    800002a8:	00ba1a13          	slli	s4,s4,0xb
    800002ac:	5bea0a13          	addi	s4,s4,1470
    800002b0:	00ba1a13          	slli	s4,s4,0xb
    800002b4:	56fa0a13          	addi	s4,s4,1391
    800002b8:	00aa1a13          	slli	s4,s4,0xa
    800002bc:	3dda0a13          	addi	s4,s4,989
    800002c0:	dbeaeab7          	lui	s5,0xdbeae
    800002c4:	feea8a93          	addi	s5,s5,-18 # ffffffffdbeadfee <absimm+0xffffffff211a051e>
    800002c8:	00ba9a93          	slli	s5,s5,0xb
    800002cc:	6dfa8a93          	addi	s5,s5,1759
    800002d0:	00ba9a93          	slli	s5,s5,0xb
    800002d4:	2b7a8a93          	addi	s5,s5,695
    800002d8:	00aa9a93          	slli	s5,s5,0xa
    800002dc:	3eea8a93          	addi	s5,s5,1006
    800002e0:	6df57b37          	lui	s6,0x6df57
    800002e4:	ff7b0b13          	addi	s6,s6,-9 # 6df56ff7 <absimmsh+0x6248624a>
    800002e8:	00bb1b13          	slli	s6,s6,0xb
    800002ec:	36fb0b13          	addi	s6,s6,879
    800002f0:	00bb1b13          	slli	s6,s6,0xb
    800002f4:	55bb0b13          	addi	s6,s6,1371
    800002f8:	00ab1b13          	slli	s6,s6,0xa
    800002fc:	3f7b0b13          	addi	s6,s6,1015
    80000300:	b6fabbb7          	lui	s7,0xb6fab
    80000304:	7fbb8b93          	addi	s7,s7,2043 # ffffffffb6fab7fb <absimm+0xfffffffefc29dd2b>
    80000308:	00bb9b93          	slli	s7,s7,0xb
    8000030c:	5b7b8b93          	addi	s7,s7,1463
    80000310:	00bb9b93          	slli	s7,s7,0xb
    80000314:	6adb8b93          	addi	s7,s7,1709
    80000318:	00ab9b93          	slli	s7,s7,0xa
    8000031c:	3fbb8b93          	addi	s7,s7,1019
    80000320:	db7d6c37          	lui	s8,0xdb7d6
    80000324:	bfdc0c13          	addi	s8,s8,-1027 # ffffffffdb7d5bfd <absimm+0xffffffff20ac812d>
    80000328:	00bc1c13          	slli	s8,s8,0xb
    8000032c:	6dbc0c13          	addi	s8,s8,1755
    80000330:	00bc1c13          	slli	s8,s8,0xb
    80000334:	756c0c13          	addi	s8,s8,1878
    80000338:	00ac1c13          	slli	s8,s8,0xa
    8000033c:	3fdc0c13          	addi	s8,s8,1021
    80000340:	edbebcb7          	lui	s9,0xedbeb
    80000344:	dfec8c93          	addi	s9,s9,-514 # ffffffffedbeadfe <absimm+0xffffffff32edd32e>
    80000348:	00bc9c93          	slli	s9,s9,0xb
    8000034c:	76dc8c93          	addi	s9,s9,1901
    80000350:	00bc9c93          	slli	s9,s9,0xb
    80000354:	7abc8c93          	addi	s9,s9,1963
    80000358:	00ac9c93          	slli	s9,s9,0xa
    8000035c:	1fec8c93          	addi	s9,s9,510
    80000360:	76df5d37          	lui	s10,0x76df5
    80000364:	6ffd0d13          	addi	s10,s10,1791 # 76df56ff <absimmsh+0x6b324952>
    80000368:	00bd1d13          	slli	s10,s10,0xb
    8000036c:	3b6d0d13          	addi	s10,s10,950
    80000370:	00bd1d13          	slli	s10,s10,0xb
    80000374:	7d5d0d13          	addi	s10,s10,2005
    80000378:	00ad1d13          	slli	s10,s10,0xa
    8000037c:	2ffd0d13          	addi	s10,s10,767
    80000380:	bb6fbdb7          	lui	s11,0xbb6fb
    80000384:	b7fd8d93          	addi	s11,s11,-1153 # ffffffffbb6fab7f <absimm+0xffffffff009ed0af>
    80000388:	00bd9d93          	slli	s11,s11,0xb
    8000038c:	5dbd8d93          	addi	s11,s11,1499
    80000390:	00bd9d93          	slli	s11,s11,0xb
    80000394:	3ead8d93          	addi	s11,s11,1002
    80000398:	00ad9d93          	slli	s11,s11,0xa
    8000039c:	37fd8d93          	addi	s11,s11,895
    800003a0:	ddb7de37          	lui	t3,0xddb7d
    800003a4:	5bfe0e13          	addi	t3,t3,1471 # ffffffffddb7d5bf <absimm+0xffffffff22e6faef>
    800003a8:	00be1e13          	slli	t3,t3,0xb
    800003ac:	6ede0e13          	addi	t3,t3,1773
    800003b0:	00be1e13          	slli	t3,t3,0xb
    800003b4:	5f5e0e13          	addi	t3,t3,1525
    800003b8:	00ae1e13          	slli	t3,t3,0xa
    800003bc:	1bfe0e13          	addi	t3,t3,447
    800003c0:	eedbfeb7          	lui	t4,0xeedbf
    800003c4:	adfe8e93          	addi	t4,t4,-1313 # ffffffffeedbeadf <absimm+0xffffffff340b100f>
    800003c8:	00be9e93          	slli	t4,t4,0xb
    800003cc:	776e8e93          	addi	t4,t4,1910
    800003d0:	00be9e93          	slli	t4,t4,0xb
    800003d4:	6fae8e93          	addi	t4,t4,1786
    800003d8:	00ae9e93          	slli	t4,t4,0xa
    800003dc:	2dfe8e93          	addi	t4,t4,735
    800003e0:	f76dff37          	lui	t5,0xf76df
    800003e4:	56ff0f13          	addi	t5,t5,1391 # fffffffff76df56f <absimm+0xffffffff3c9d1a9f>
    800003e8:	00bf1f13          	slli	t5,t5,0xb
    800003ec:	7bbf0f13          	addi	t5,t5,1979
    800003f0:	00bf1f13          	slli	t5,t5,0xb
    800003f4:	37df0f13          	addi	t5,t5,893
    800003f8:	00af1f13          	slli	t5,t5,0xa
    800003fc:	16ff0f13          	addi	t5,t5,367
    80000400:	fbb70fb7          	lui	t6,0xfbb70
    80000404:	ab7f8f93          	addi	t6,t6,-1353 # fffffffffbb6fab7 <absimm+0xffffffff40e61fe7>
    80000408:	00bf9f93          	slli	t6,t6,0xb
    8000040c:	7ddf8f93          	addi	t6,t6,2013
    80000410:	00bf9f93          	slli	t6,t6,0xb
    80000414:	5bef8f93          	addi	t6,t6,1470
    80000418:	00af9f93          	slli	t6,t6,0xa
    8000041c:	2b7f8f93          	addi	t6,t6,695

0000000080000420 <rvtest_code_begin>:
    80000420:	0000c097          	auipc	ra,0xc
    80000424:	be808093          	addi	ra,ra,-1048 # 8000c008 <signature_x1_0>
    80000428:	00000013          	nop
    8000042c:	00000013          	nop
    80000430:	00000013          	nop
    80000434:	00000013          	nop
    80000438:	00000013          	nop
    8000043c:	00000013          	nop

0000000080000440 <inst_0>:
    80000440:	00100693          	li	a3,1
    80000444:	01b69693          	slli	a3,a3,0x1b
    80000448:	00100693          	li	a3,1
    8000044c:	01b69693          	slli	a3,a3,0x1b
    80000450:	00d6a2b3          	slt	t0,a3,a3
    80000454:	0050b023          	sd	t0,0(ra)
    80000458:	00000713          	li	a4,0
    8000045c:	00570463          	beq	a4,t0,80000464 <inst_1>
    80000460:	bc5ff06f          	j	80000024 <rvtest_error>

0000000080000464 <inst_1>:
    80000464:	00100593          	li	a1,1
    80000468:	03e59593          	slli	a1,a1,0x3e
    8000046c:	00000d37          	lui	s10,0x0
    80000470:	fffd0d13          	addi	s10,s10,-1
    80000474:	00bd1d13          	slli	s10,s10,0xb
    80000478:	257d0d13          	addi	s10,s10,599
    8000047c:	00bd1d13          	slli	s10,s10,0xb
    80000480:	6c3d0d13          	addi	s10,s10,1731
    80000484:	00ad1d13          	slli	s10,s10,0xa
    80000488:	0cdd0d13          	addi	s10,s10,205
    8000048c:	01a5ad33          	slt	s10,a1,s10
    80000490:	01a0b423          	sd	s10,8(ra)
    80000494:	00000713          	li	a4,0
    80000498:	01a70463          	beq	a4,s10,800004a0 <inst_2>
    8000049c:	b89ff06f          	j	80000024 <rvtest_error>

00000000800004a0 <inst_2>:
    800004a0:	00100613          	li	a2,1
    800004a4:	03461613          	slli	a2,a2,0x34
    800004a8:	fff64613          	not	a2,a2
    800004ac:	00100613          	li	a2,1
    800004b0:	03461613          	slli	a2,a2,0x34
    800004b4:	fff64613          	not	a2,a2
    800004b8:	00c62633          	slt	a2,a2,a2
    800004bc:	00c0b823          	sd	a2,16(ra)
    800004c0:	00000713          	li	a4,0
    800004c4:	00c70463          	beq	a4,a2,800004cc <inst_3>
    800004c8:	b5dff06f          	j	80000024 <rvtest_error>

00000000800004cc <inst_3>:
    800004cc:	00100d93          	li	s11,1
    800004d0:	023d9d93          	slli	s11,s11,0x23
    800004d4:	fffdcd93          	not	s11,s11
    800004d8:	00100793          	li	a5,1
    800004dc:	00fda3b3          	slt	t2,s11,a5
    800004e0:	0070bc23          	sd	t2,24(ra)
    800004e4:	00100713          	li	a4,1
    800004e8:	00770463          	beq	a4,t2,800004f0 <inst_4>
    800004ec:	b39ff06f          	j	80000024 <rvtest_error>

00000000800004f0 <inst_4>:
    800004f0:	00100893          	li	a7,1
    800004f4:	02a89893          	slli	a7,a7,0x2a
    800004f8:	00100293          	li	t0,1
    800004fc:	02a29293          	slli	t0,t0,0x2a
    80000500:	0058a8b3          	slt	a7,a7,t0
    80000504:	0310b023          	sd	a7,32(ra)
    80000508:	00000713          	li	a4,0
    8000050c:	01170463          	beq	a4,a7,80000514 <inst_5>
    80000510:	b15ff06f          	j	80000024 <rvtest_error>

0000000080000514 <inst_5>:
    80000514:	00100793          	li	a5,1
    80000518:	02079793          	slli	a5,a5,0x20
    8000051c:	fff7c793          	not	a5,a5
    80000520:	00000013          	nop
    80000524:	0007a6b3          	sltz	a3,a5
    80000528:	02d0b423          	sd	a3,40(ra)
    8000052c:	00100713          	li	a4,1
    80000530:	00d70463          	beq	a4,a3,80000538 <inst_6>
    80000534:	af1ff06f          	j	80000024 <rvtest_error>

0000000080000538 <inst_6>:
    80000538:	00100193          	li	gp,1
    8000053c:	02c19193          	slli	gp,gp,0x2c
    80000540:	fff1c193          	not	gp,gp
    80000544:	00000c13          	li	s8,0
    80000548:	0181af33          	slt	t5,gp,s8
    8000054c:	03e0b823          	sd	t5,48(ra)
    80000550:	00100713          	li	a4,1
    80000554:	01e70463          	beq	a4,t5,8000055c <inst_7>
    80000558:	acdff06f          	j	80000024 <rvtest_error>

000000008000055c <inst_7>:
    8000055c:	00100d13          	li	s10,1
    80000560:	023d1d13          	slli	s10,s10,0x23
    80000564:	fff00113          	li	sp,-1
    80000568:	00115113          	srli	sp,sp,0x1
    8000056c:	002d2c33          	slt	s8,s10,sp
    80000570:	0380bc23          	sd	s8,56(ra)
    80000574:	00100713          	li	a4,1
    80000578:	01870463          	beq	a4,s8,80000580 <inst_8>
    8000057c:	aa9ff06f          	j	80000024 <rvtest_error>

0000000080000580 <inst_8>:
    80000580:	fff00a93          	li	s5,-1
    80000584:	03fa9a93          	slli	s5,s5,0x3f
    80000588:	00100493          	li	s1,1
    8000058c:	02f49493          	slli	s1,s1,0x2f
    80000590:	fff4c493          	not	s1,s1
    80000594:	009aaa33          	slt	s4,s5,s1
    80000598:	0540b023          	sd	s4,64(ra)
    8000059c:	00100713          	li	a4,1
    800005a0:	01470463          	beq	a4,s4,800005a8 <inst_9>
    800005a4:	a81ff06f          	j	80000024 <rvtest_error>

00000000800005a8 <inst_9>:
    800005a8:	00000393          	li	t2,0
    800005ac:	ffc00a93          	li	s5,-4
    800005b0:	0153afb3          	slt	t6,t2,s5
    800005b4:	05f0b423          	sd	t6,72(ra)
    800005b8:	00000713          	li	a4,0
    800005bc:	01f70463          	beq	a4,t6,800005c4 <inst_10>
    800005c0:	a65ff06f          	j	80000024 <rvtest_error>

00000000800005c4 <inst_10>:
    800005c4:	fff00f13          	li	t5,-1
    800005c8:	001f5f13          	srli	t5,t5,0x1
    800005cc:	00800193          	li	gp,8
    800005d0:	003f2433          	slt	s0,t5,gp
    800005d4:	0480b823          	sd	s0,80(ra)
    800005d8:	00000713          	li	a4,0
    800005dc:	00870463          	beq	a4,s0,800005e4 <inst_11>
    800005e0:	a45ff06f          	j	80000024 <rvtest_error>

00000000800005e4 <inst_11>:
    800005e4:	00100313          	li	t1,1
    800005e8:	00100e93          	li	t4,1
    800005ec:	024e9e93          	slli	t4,t4,0x24
    800005f0:	fffece93          	not	t4,t4
    800005f4:	01d32133          	slt	sp,t1,t4
    800005f8:	0420bc23          	sd	sp,88(ra)
    800005fc:	00000713          	li	a4,0
    80000600:	00270463          	beq	a4,sp,80000608 <inst_12>
    80000604:	a21ff06f          	j	80000024 <rvtest_error>

0000000080000608 <inst_12>:
    80000608:	00800913          	li	s2,8
    8000060c:	00200993          	li	s3,2
    80000610:	01392533          	slt	a0,s2,s3
    80000614:	06a0b023          	sd	a0,96(ra)
    80000618:	00000713          	li	a4,0
    8000061c:	00a70463          	beq	a4,a0,80000624 <inst_13>
    80000620:	a05ff06f          	j	80000024 <rvtest_error>

0000000080000624 <inst_13>:
    80000624:	00100413          	li	s0,1
    80000628:	02041413          	slli	s0,s0,0x20
    8000062c:	00400913          	li	s2,4
    80000630:	01242cb3          	slt	s9,s0,s2
    80000634:	0790b423          	sd	s9,104(ra)
    80000638:	00000713          	li	a4,0
    8000063c:	01970463          	beq	a4,s9,80000644 <inst_14>
    80000640:	9e5ff06f          	j	80000024 <rvtest_error>

0000000080000644 <inst_14>:
    80000644:	00000113          	li	sp,0
    80000648:	01000813          	li	a6,16
    8000064c:	010125b3          	slt	a1,sp,a6
    80000650:	06b0b823          	sd	a1,112(ra)
    80000654:	00100713          	li	a4,1
    80000658:	00b70463          	beq	a4,a1,80000660 <inst_15>
    8000065c:	9c9ff06f          	j	80000024 <rvtest_error>

0000000080000660 <inst_15>:
    80000660:	00100e13          	li	t3,1
    80000664:	031e1e13          	slli	t3,t3,0x31
    80000668:	02000f93          	li	t6,32
    8000066c:	01fe2933          	slt	s2,t3,t6
    80000670:	0720bc23          	sd	s2,120(ra)
    80000674:	00000713          	li	a4,0
    80000678:	01270463          	beq	a4,s2,80000680 <inst_16>
    8000067c:	9a9ff06f          	j	80000024 <rvtest_error>

0000000080000680 <inst_16>:
    80000680:	00100213          	li	tp,1
    80000684:	02221213          	slli	tp,tp,0x22
    80000688:	04000893          	li	a7,64
    8000068c:	011224b3          	slt	s1,tp,a7
    80000690:	0890b023          	sd	s1,128(ra)
    80000694:	00000713          	li	a4,0
    80000698:	00970463          	beq	a4,s1,800006a0 <inst_17>
    8000069c:	989ff06f          	j	80000024 <rvtest_error>

00000000800006a0 <inst_17>:
    800006a0:	00000013          	nop
    800006a4:	08000b93          	li	s7,128
    800006a8:	01702833          	sgtz	a6,s7
    800006ac:	0900b423          	sd	a6,136(ra)
    800006b0:	00100693          	li	a3,1
    800006b4:	01068463          	beq	a3,a6,800006bc <inst_17+0x1c>
    800006b8:	96dff06f          	j	80000024 <rvtest_error>
    800006bc:	00000013          	nop
    800006c0:	0000c117          	auipc	sp,0xc
    800006c4:	9d810113          	addi	sp,sp,-1576 # 8000c098 <signature_x2_0>
    800006c8:	00000013          	nop
    800006cc:	00000013          	nop
    800006d0:	00000013          	nop
    800006d4:	00000013          	nop
    800006d8:	00000013          	nop
    800006dc:	00000013          	nop

00000000800006e0 <inst_18>:
    800006e0:	55555737          	lui	a4,0x55555
    800006e4:	55570713          	addi	a4,a4,1365 # 55555555 <absimmsh+0x49a847a8>
    800006e8:	00b71713          	slli	a4,a4,0xb
    800006ec:	2aa70713          	addi	a4,a4,682
    800006f0:	00b71713          	slli	a4,a4,0xb
    800006f4:	55570713          	addi	a4,a4,1365
    800006f8:	00a71713          	slli	a4,a4,0xa
    800006fc:	15670713          	addi	a4,a4,342
    80000700:	10000213          	li	tp,256
    80000704:	004729b3          	slt	s3,a4,tp
    80000708:	01313023          	sd	s3,0(sp)
    8000070c:	00000693          	li	a3,0
    80000710:	01368463          	beq	a3,s3,80000718 <inst_19>
    80000714:	911ff06f          	j	80000024 <rvtest_error>

0000000080000718 <inst_19>:
    80000718:	00500093          	li	ra,5
    8000071c:	20000b13          	li	s6,512
    80000720:	0160ae33          	slt	t3,ra,s6
    80000724:	01c13423          	sd	t3,8(sp)
    80000728:	00100693          	li	a3,1
    8000072c:	01c68463          	beq	a3,t3,80000734 <inst_20>
    80000730:	8f5ff06f          	j	80000024 <rvtest_error>

0000000080000734 <inst_20>:
    80000734:	00100c93          	li	s9,1
    80000738:	02bc9c93          	slli	s9,s9,0x2b
    8000073c:	fffccc93          	not	s9,s9
    80000740:	40000a13          	li	s4,1024
    80000744:	014cab33          	slt	s6,s9,s4
    80000748:	01613823          	sd	s6,16(sp)
    8000074c:	00100693          	li	a3,1
    80000750:	01668463          	beq	a3,s6,80000758 <inst_21>
    80000754:	8d1ff06f          	j	80000024 <rvtest_error>

0000000080000758 <inst_21>:
    80000758:	00100e93          	li	t4,1
    8000075c:	03de9e93          	slli	t4,t4,0x3d
    80000760:	fffece93          	not	t4,t4
    80000764:	00100513          	li	a0,1
    80000768:	00b51513          	slli	a0,a0,0xb
    8000076c:	00aea333          	slt	t1,t4,a0
    80000770:	00613c23          	sd	t1,24(sp)
    80000774:	00100693          	li	a3,1
    80000778:	00668463          	beq	a3,t1,80000780 <inst_22>
    8000077c:	8a9ff06f          	j	80000024 <rvtest_error>

0000000080000780 <inst_22>:
    80000780:	00100993          	li	s3,1
    80000784:	01599993          	slli	s3,s3,0x15
    80000788:	00100093          	li	ra,1
    8000078c:	00c09093          	slli	ra,ra,0xc
    80000790:	0019aeb3          	slt	t4,s3,ra
    80000794:	03d13023          	sd	t4,32(sp)
    80000798:	00000693          	li	a3,0
    8000079c:	01d68463          	beq	a3,t4,800007a4 <inst_23>
    800007a0:	885ff06f          	j	80000024 <rvtest_error>

00000000800007a4 <inst_23>:
    800007a4:	00100513          	li	a0,1
    800007a8:	02651513          	slli	a0,a0,0x26
    800007ac:	fff54513          	not	a0,a0
    800007b0:	00100e13          	li	t3,1
    800007b4:	00de1e13          	slli	t3,t3,0xd
    800007b8:	01c52233          	slt	tp,a0,t3
    800007bc:	02413423          	sd	tp,40(sp)
    800007c0:	00100693          	li	a3,1
    800007c4:	00468463          	beq	a3,tp,800007cc <inst_24>
    800007c8:	85dff06f          	j	80000024 <rvtest_error>

00000000800007cc <inst_24>:
    800007cc:	00100b13          	li	s6,1
    800007d0:	034b1b13          	slli	s6,s6,0x34
    800007d4:	fffb4b13          	not	s6,s6
    800007d8:	00100f13          	li	t5,1
    800007dc:	00ef1f13          	slli	t5,t5,0xe
    800007e0:	01eb27b3          	slt	a5,s6,t5
    800007e4:	02f13823          	sd	a5,48(sp)
    800007e8:	00100693          	li	a3,1
    800007ec:	00f68463          	beq	a3,a5,800007f4 <inst_25>
    800007f0:	835ff06f          	j	80000024 <rvtest_error>

00000000800007f4 <inst_25>:
    800007f4:	00100293          	li	t0,1
    800007f8:	02929293          	slli	t0,t0,0x29
    800007fc:	00100393          	li	t2,1
    80000800:	00f39393          	slli	t2,t2,0xf
    80000804:	0072aab3          	slt	s5,t0,t2
    80000808:	03513c23          	sd	s5,56(sp)
    8000080c:	00000693          	li	a3,0
    80000810:	01568463          	beq	a3,s5,80000818 <inst_26>
    80000814:	811ff06f          	j	80000024 <rvtest_error>

0000000080000818 <inst_26>:
    80000818:	55555a37          	lui	s4,0x55555
    8000081c:	555a0a13          	addi	s4,s4,1365 # 55555555 <absimmsh+0x49a847a8>
    80000820:	00ba1a13          	slli	s4,s4,0xb
    80000824:	2aaa0a13          	addi	s4,s4,682
    80000828:	00ba1a13          	slli	s4,s4,0xb
    8000082c:	555a0a13          	addi	s4,s4,1365
    80000830:	00aa1a13          	slli	s4,s4,0xa
    80000834:	156a0a13          	addi	s4,s4,342
    80000838:	00100d93          	li	s11,1
    8000083c:	010d9d93          	slli	s11,s11,0x10
    80000840:	01ba2bb3          	slt	s7,s4,s11
    80000844:	05713023          	sd	s7,64(sp)
    80000848:	00000693          	li	a3,0
    8000084c:	01768463          	beq	a3,s7,80000854 <inst_27>
    80000850:	fd4ff06f          	j	80000024 <rvtest_error>

0000000080000854 <inst_27>:
    80000854:	00100b93          	li	s7,1
    80000858:	015b9b93          	slli	s7,s7,0x15
    8000085c:	fffbcb93          	not	s7,s7
    80000860:	00100313          	li	t1,1
    80000864:	01131313          	slli	t1,t1,0x11
    80000868:	006ba0b3          	slt	ra,s7,t1
    8000086c:	04113423          	sd	ra,72(sp)
    80000870:	00100693          	li	a3,1
    80000874:	00168463          	beq	a3,ra,8000087c <inst_28>
    80000878:	facff06f          	j	80000024 <rvtest_error>

000000008000087c <inst_28>:
    8000087c:	bff00f93          	li	t6,-1025
    80000880:	00100c93          	li	s9,1
    80000884:	012c9c93          	slli	s9,s9,0x12
    80000888:	019fa733          	slt	a4,t6,s9
    8000088c:	04e13823          	sd	a4,80(sp)
    80000890:	00100693          	li	a3,1
    80000894:	00e68463          	beq	a3,a4,8000089c <inst_29>
    80000898:	f8cff06f          	j	80000024 <rvtest_error>

000000008000089c <inst_29>:
    8000089c:	00000837          	lui	a6,0x0
    800008a0:	fff80813          	addi	a6,a6,-1
    800008a4:	00b81813          	slli	a6,a6,0xb
    800008a8:	25780813          	addi	a6,a6,599
    800008ac:	00b81813          	slli	a6,a6,0xb
    800008b0:	6c380813          	addi	a6,a6,1731
    800008b4:	00a81813          	slli	a6,a6,0xa
    800008b8:	0cd80813          	addi	a6,a6,205
    800008bc:	00100413          	li	s0,1
    800008c0:	01341413          	slli	s0,s0,0x13
    800008c4:	00882033          	slt	zero,a6,s0
    800008c8:	04013c23          	sd	zero,88(sp)
    800008cc:	00000693          	li	a3,0
    800008d0:	00068463          	beqz	a3,800008d8 <inst_30>
    800008d4:	f50ff06f          	j	80000024 <rvtest_error>

00000000800008d8 <inst_30>:
    800008d8:	00100493          	li	s1,1
    800008dc:	01249493          	slli	s1,s1,0x12
    800008e0:	00100713          	li	a4,1
    800008e4:	01471713          	slli	a4,a4,0x14
    800008e8:	00e4adb3          	slt	s11,s1,a4
    800008ec:	07b13023          	sd	s11,96(sp)
    800008f0:	00100693          	li	a3,1
    800008f4:	01b68463          	beq	a3,s11,800008fc <inst_31>
    800008f8:	f2cff06f          	j	80000024 <rvtest_error>

00000000800008fc <inst_31>:
    800008fc:	00600c13          	li	s8,6
    80000900:	00100593          	li	a1,1
    80000904:	01559593          	slli	a1,a1,0x15
    80000908:	00bc21b3          	slt	gp,s8,a1
    8000090c:	06313423          	sd	gp,104(sp)
    80000910:	00100693          	li	a3,1
    80000914:	00368463          	beq	a3,gp,8000091c <inst_32>
    80000918:	f0cff06f          	j	80000024 <rvtest_error>

000000008000091c <inst_32>:
    8000091c:	00700513          	li	a0,7
    80000920:	00100593          	li	a1,1
    80000924:	01659593          	slli	a1,a1,0x16
    80000928:	00b52633          	slt	a2,a0,a1
    8000092c:	06c13823          	sd	a2,112(sp)
    80000930:	00100693          	li	a3,1
    80000934:	00c68463          	beq	a3,a2,8000093c <inst_33>
    80000938:	eecff06f          	j	80000024 <rvtest_error>

000000008000093c <inst_33>:
    8000093c:	00100513          	li	a0,1
    80000940:	02851513          	slli	a0,a0,0x28
    80000944:	00100593          	li	a1,1
    80000948:	01759593          	slli	a1,a1,0x17
    8000094c:	00b52633          	slt	a2,a0,a1
    80000950:	06c13c23          	sd	a2,120(sp)
    80000954:	00000693          	li	a3,0
    80000958:	00c68463          	beq	a3,a2,80000960 <inst_34>
    8000095c:	ec8ff06f          	j	80000024 <rvtest_error>

0000000080000960 <inst_34>:
    80000960:	00100513          	li	a0,1
    80000964:	01451513          	slli	a0,a0,0x14
    80000968:	fff54513          	not	a0,a0
    8000096c:	00100593          	li	a1,1
    80000970:	01859593          	slli	a1,a1,0x18
    80000974:	00b52633          	slt	a2,a0,a1
    80000978:	08c13023          	sd	a2,128(sp)
    8000097c:	00100693          	li	a3,1
    80000980:	00c68463          	beq	a3,a2,80000988 <inst_35>
    80000984:	ea0ff06f          	j	80000024 <rvtest_error>

0000000080000988 <inst_35>:
    80000988:	00100513          	li	a0,1
    8000098c:	01c51513          	slli	a0,a0,0x1c
    80000990:	00100593          	li	a1,1
    80000994:	01959593          	slli	a1,a1,0x19
    80000998:	00b52633          	slt	a2,a0,a1
    8000099c:	08c13423          	sd	a2,136(sp)
    800009a0:	00000693          	li	a3,0
    800009a4:	00c68463          	beq	a3,a2,800009ac <inst_36>
    800009a8:	e7cff06f          	j	80000024 <rvtest_error>

00000000800009ac <inst_36>:
    800009ac:	00000537          	lui	a0,0x0
    800009b0:	00050513          	mv	a0,a0
    800009b4:	00b51513          	slli	a0,a0,0xb
    800009b8:	5a850513          	addi	a0,a0,1448 # 5a8 <offset+0x118>
    800009bc:	00b51513          	slli	a0,a0,0xb
    800009c0:	13c50513          	addi	a0,a0,316
    800009c4:	00a51513          	slli	a0,a0,0xa
    800009c8:	33450513          	addi	a0,a0,820
    800009cc:	00100593          	li	a1,1
    800009d0:	01a59593          	slli	a1,a1,0x1a
    800009d4:	00b52633          	slt	a2,a0,a1
    800009d8:	08c13823          	sd	a2,144(sp)
    800009dc:	00000693          	li	a3,0
    800009e0:	00c68463          	beq	a3,a2,800009e8 <inst_37>
    800009e4:	e40ff06f          	j	80000024 <rvtest_error>

00000000800009e8 <inst_37>:
    800009e8:	00100513          	li	a0,1
    800009ec:	02951513          	slli	a0,a0,0x29
    800009f0:	00100593          	li	a1,1
    800009f4:	01b59593          	slli	a1,a1,0x1b
    800009f8:	00b52633          	slt	a2,a0,a1
    800009fc:	08c13c23          	sd	a2,152(sp)
    80000a00:	00000693          	li	a3,0
    80000a04:	00c68463          	beq	a3,a2,80000a0c <inst_38>
    80000a08:	e1cff06f          	j	80000024 <rvtest_error>

0000000080000a0c <inst_38>:
    80000a0c:	00100513          	li	a0,1
    80000a10:	03c51513          	slli	a0,a0,0x3c
    80000a14:	fff54513          	not	a0,a0
    80000a18:	00100593          	li	a1,1
    80000a1c:	01c59593          	slli	a1,a1,0x1c
    80000a20:	00b52633          	slt	a2,a0,a1
    80000a24:	0ac13023          	sd	a2,160(sp)
    80000a28:	00100693          	li	a3,1
    80000a2c:	00c68463          	beq	a3,a2,80000a34 <inst_39>
    80000a30:	df4ff06f          	j	80000024 <rvtest_error>

0000000080000a34 <inst_39>:
    80000a34:	00100513          	li	a0,1
    80000a38:	03951513          	slli	a0,a0,0x39
    80000a3c:	fff54513          	not	a0,a0
    80000a40:	00100593          	li	a1,1
    80000a44:	01d59593          	slli	a1,a1,0x1d
    80000a48:	00b52633          	slt	a2,a0,a1
    80000a4c:	0ac13423          	sd	a2,168(sp)
    80000a50:	00100693          	li	a3,1
    80000a54:	00c68463          	beq	a3,a2,80000a5c <inst_40>
    80000a58:	dccff06f          	j	80000024 <rvtest_error>

0000000080000a5c <inst_40>:
    80000a5c:	fff00513          	li	a0,-1
    80000a60:	03e51513          	slli	a0,a0,0x3e
    80000a64:	00100593          	li	a1,1
    80000a68:	01e59593          	slli	a1,a1,0x1e
    80000a6c:	00b52633          	slt	a2,a0,a1
    80000a70:	0ac13823          	sd	a2,176(sp)
    80000a74:	00100693          	li	a3,1
    80000a78:	00c68463          	beq	a3,a2,80000a80 <inst_41>
    80000a7c:	da8ff06f          	j	80000024 <rvtest_error>

0000000080000a80 <inst_41>:
    80000a80:	00100513          	li	a0,1
    80000a84:	03951513          	slli	a0,a0,0x39
    80000a88:	fff54513          	not	a0,a0
    80000a8c:	00100593          	li	a1,1
    80000a90:	01f59593          	slli	a1,a1,0x1f
    80000a94:	00b52633          	slt	a2,a0,a1
    80000a98:	0ac13c23          	sd	a2,184(sp)
    80000a9c:	00100693          	li	a3,1
    80000aa0:	00c68463          	beq	a3,a2,80000aa8 <inst_42>
    80000aa4:	d80ff06f          	j	80000024 <rvtest_error>

0000000080000aa8 <inst_42>:
    80000aa8:	00100513          	li	a0,1
    80000aac:	02751513          	slli	a0,a0,0x27
    80000ab0:	fff54513          	not	a0,a0
    80000ab4:	00100593          	li	a1,1
    80000ab8:	02059593          	slli	a1,a1,0x20
    80000abc:	00b52633          	slt	a2,a0,a1
    80000ac0:	0cc13023          	sd	a2,192(sp)
    80000ac4:	00100693          	li	a3,1
    80000ac8:	00c68463          	beq	a3,a2,80000ad0 <inst_43>
    80000acc:	d58ff06f          	j	80000024 <rvtest_error>

0000000080000ad0 <inst_43>:
    80000ad0:	00000537          	lui	a0,0x0
    80000ad4:	fff50513          	addi	a0,a0,-1
    80000ad8:	00b51513          	slli	a0,a0,0xb
    80000adc:	25750513          	addi	a0,a0,599
    80000ae0:	00b51513          	slli	a0,a0,0xb
    80000ae4:	6c350513          	addi	a0,a0,1731
    80000ae8:	00a51513          	slli	a0,a0,0xa
    80000aec:	0ce50513          	addi	a0,a0,206
    80000af0:	00100593          	li	a1,1
    80000af4:	02159593          	slli	a1,a1,0x21
    80000af8:	00b52633          	slt	a2,a0,a1
    80000afc:	0cc13423          	sd	a2,200(sp)
    80000b00:	00100693          	li	a3,1
    80000b04:	00c68463          	beq	a3,a2,80000b0c <inst_44>
    80000b08:	d1cff06f          	j	80000024 <rvtest_error>

0000000080000b0c <inst_44>:
    80000b0c:	00100513          	li	a0,1
    80000b10:	03751513          	slli	a0,a0,0x37
    80000b14:	fff54513          	not	a0,a0
    80000b18:	00100593          	li	a1,1
    80000b1c:	02259593          	slli	a1,a1,0x22
    80000b20:	00b52633          	slt	a2,a0,a1
    80000b24:	0cc13823          	sd	a2,208(sp)
    80000b28:	00100693          	li	a3,1
    80000b2c:	00c68463          	beq	a3,a2,80000b34 <inst_45>
    80000b30:	cf4ff06f          	j	80000024 <rvtest_error>

0000000080000b34 <inst_45>:
    80000b34:	00100513          	li	a0,1
    80000b38:	02251513          	slli	a0,a0,0x22
    80000b3c:	fff54513          	not	a0,a0
    80000b40:	00100593          	li	a1,1
    80000b44:	02359593          	slli	a1,a1,0x23
    80000b48:	00b52633          	slt	a2,a0,a1
    80000b4c:	0cc13c23          	sd	a2,216(sp)
    80000b50:	00100693          	li	a3,1
    80000b54:	00c68463          	beq	a3,a2,80000b5c <inst_46>
    80000b58:	cccff06f          	j	80000024 <rvtest_error>

0000000080000b5c <inst_46>:
    80000b5c:	00100513          	li	a0,1
    80000b60:	00c51513          	slli	a0,a0,0xc
    80000b64:	00100593          	li	a1,1
    80000b68:	02459593          	slli	a1,a1,0x24
    80000b6c:	00b52633          	slt	a2,a0,a1
    80000b70:	0ec13023          	sd	a2,224(sp)
    80000b74:	00100693          	li	a3,1
    80000b78:	00c68463          	beq	a3,a2,80000b80 <inst_47>
    80000b7c:	ca8ff06f          	j	80000024 <rvtest_error>

0000000080000b80 <inst_47>:
    80000b80:	40000513          	li	a0,1024
    80000b84:	00100593          	li	a1,1
    80000b88:	02559593          	slli	a1,a1,0x25
    80000b8c:	00b52633          	slt	a2,a0,a1
    80000b90:	0ec13423          	sd	a2,232(sp)
    80000b94:	00100693          	li	a3,1
    80000b98:	00c68463          	beq	a3,a2,80000ba0 <inst_48>
    80000b9c:	c88ff06f          	j	80000024 <rvtest_error>

0000000080000ba0 <inst_48>:
    80000ba0:	00400513          	li	a0,4
    80000ba4:	00100593          	li	a1,1
    80000ba8:	02659593          	slli	a1,a1,0x26
    80000bac:	00b52633          	slt	a2,a0,a1
    80000bb0:	0ec13823          	sd	a2,240(sp)
    80000bb4:	00100693          	li	a3,1
    80000bb8:	00c68463          	beq	a3,a2,80000bc0 <inst_49>
    80000bbc:	c68ff06f          	j	80000024 <rvtest_error>

0000000080000bc0 <inst_49>:
    80000bc0:	00100513          	li	a0,1
    80000bc4:	01a51513          	slli	a0,a0,0x1a
    80000bc8:	fff54513          	not	a0,a0
    80000bcc:	00100593          	li	a1,1
    80000bd0:	02759593          	slli	a1,a1,0x27
    80000bd4:	00b52633          	slt	a2,a0,a1
    80000bd8:	0ec13c23          	sd	a2,248(sp)
    80000bdc:	00100693          	li	a3,1
    80000be0:	00c68463          	beq	a3,a2,80000be8 <inst_50>
    80000be4:	c40ff06f          	j	80000024 <rvtest_error>

0000000080000be8 <inst_50>:
    80000be8:	00100513          	li	a0,1
    80000bec:	03651513          	slli	a0,a0,0x36
    80000bf0:	00100593          	li	a1,1
    80000bf4:	02859593          	slli	a1,a1,0x28
    80000bf8:	00b52633          	slt	a2,a0,a1
    80000bfc:	10c13023          	sd	a2,256(sp)
    80000c00:	00000693          	li	a3,0
    80000c04:	00c68463          	beq	a3,a2,80000c0c <inst_51>
    80000c08:	c1cff06f          	j	80000024 <rvtest_error>

0000000080000c0c <inst_51>:
    80000c0c:	ff700513          	li	a0,-9
    80000c10:	00100593          	li	a1,1
    80000c14:	02959593          	slli	a1,a1,0x29
    80000c18:	00b52633          	slt	a2,a0,a1
    80000c1c:	10c13423          	sd	a2,264(sp)
    80000c20:	00100693          	li	a3,1
    80000c24:	00c68463          	beq	a3,a2,80000c2c <inst_52>
    80000c28:	bfcff06f          	j	80000024 <rvtest_error>

0000000080000c2c <inst_52>:
    80000c2c:	00100513          	li	a0,1
    80000c30:	01951513          	slli	a0,a0,0x19
    80000c34:	00100593          	li	a1,1
    80000c38:	02b59593          	slli	a1,a1,0x2b
    80000c3c:	00b52633          	slt	a2,a0,a1
    80000c40:	10c13823          	sd	a2,272(sp)
    80000c44:	00100693          	li	a3,1
    80000c48:	00c68463          	beq	a3,a2,80000c50 <inst_53>
    80000c4c:	bd8ff06f          	j	80000024 <rvtest_error>

0000000080000c50 <inst_53>:
    80000c50:	00100513          	li	a0,1
    80000c54:	03851513          	slli	a0,a0,0x38
    80000c58:	fff54513          	not	a0,a0
    80000c5c:	00100593          	li	a1,1
    80000c60:	02c59593          	slli	a1,a1,0x2c
    80000c64:	00b52633          	slt	a2,a0,a1
    80000c68:	10c13c23          	sd	a2,280(sp)
    80000c6c:	00100693          	li	a3,1
    80000c70:	00c68463          	beq	a3,a2,80000c78 <inst_54>
    80000c74:	bb0ff06f          	j	80000024 <rvtest_error>

0000000080000c78 <inst_54>:
    80000c78:	ffb00513          	li	a0,-5
    80000c7c:	00100593          	li	a1,1
    80000c80:	02d59593          	slli	a1,a1,0x2d
    80000c84:	00b52633          	slt	a2,a0,a1
    80000c88:	12c13023          	sd	a2,288(sp)
    80000c8c:	00100693          	li	a3,1
    80000c90:	00c68463          	beq	a3,a2,80000c98 <inst_55>
    80000c94:	b90ff06f          	j	80000024 <rvtest_error>

0000000080000c98 <inst_55>:
    80000c98:	00100513          	li	a0,1
    80000c9c:	02e51513          	slli	a0,a0,0x2e
    80000ca0:	00100593          	li	a1,1
    80000ca4:	02e59593          	slli	a1,a1,0x2e
    80000ca8:	00b52633          	slt	a2,a0,a1
    80000cac:	12c13423          	sd	a2,296(sp)
    80000cb0:	00000693          	li	a3,0
    80000cb4:	00c68463          	beq	a3,a2,80000cbc <inst_56>
    80000cb8:	b6cff06f          	j	80000024 <rvtest_error>

0000000080000cbc <inst_56>:
    80000cbc:	00100513          	li	a0,1
    80000cc0:	02c51513          	slli	a0,a0,0x2c
    80000cc4:	fff54513          	not	a0,a0
    80000cc8:	00100593          	li	a1,1
    80000ccc:	02f59593          	slli	a1,a1,0x2f
    80000cd0:	00b52633          	slt	a2,a0,a1
    80000cd4:	12c13823          	sd	a2,304(sp)
    80000cd8:	00100693          	li	a3,1
    80000cdc:	00c68463          	beq	a3,a2,80000ce4 <inst_57>
    80000ce0:	b44ff06f          	j	80000024 <rvtest_error>

0000000080000ce4 <inst_57>:
    80000ce4:	00100513          	li	a0,1
    80000ce8:	03651513          	slli	a0,a0,0x36
    80000cec:	00100593          	li	a1,1
    80000cf0:	03059593          	slli	a1,a1,0x30
    80000cf4:	00b52633          	slt	a2,a0,a1
    80000cf8:	12c13c23          	sd	a2,312(sp)
    80000cfc:	00000693          	li	a3,0
    80000d00:	00c68463          	beq	a3,a2,80000d08 <inst_58>
    80000d04:	b20ff06f          	j	80000024 <rvtest_error>

0000000080000d08 <inst_58>:
    80000d08:	00100513          	li	a0,1
    80000d0c:	02e51513          	slli	a0,a0,0x2e
    80000d10:	fff54513          	not	a0,a0
    80000d14:	00100593          	li	a1,1
    80000d18:	03159593          	slli	a1,a1,0x31
    80000d1c:	00b52633          	slt	a2,a0,a1
    80000d20:	14c13023          	sd	a2,320(sp)
    80000d24:	00100693          	li	a3,1
    80000d28:	00c68463          	beq	a3,a2,80000d30 <inst_59>
    80000d2c:	af8ff06f          	j	80000024 <rvtest_error>

0000000080000d30 <inst_59>:
    80000d30:	00100513          	li	a0,1
    80000d34:	03751513          	slli	a0,a0,0x37
    80000d38:	fff54513          	not	a0,a0
    80000d3c:	00100593          	li	a1,1
    80000d40:	03259593          	slli	a1,a1,0x32
    80000d44:	00b52633          	slt	a2,a0,a1
    80000d48:	14c13423          	sd	a2,328(sp)
    80000d4c:	00100693          	li	a3,1
    80000d50:	00c68463          	beq	a3,a2,80000d58 <inst_60>
    80000d54:	ad0ff06f          	j	80000024 <rvtest_error>

0000000080000d58 <inst_60>:
    80000d58:	00100513          	li	a0,1
    80000d5c:	02051513          	slli	a0,a0,0x20
    80000d60:	fff54513          	not	a0,a0
    80000d64:	00100593          	li	a1,1
    80000d68:	03359593          	slli	a1,a1,0x33
    80000d6c:	00b52633          	slt	a2,a0,a1
    80000d70:	14c13823          	sd	a2,336(sp)
    80000d74:	00100693          	li	a3,1
    80000d78:	00c68463          	beq	a3,a2,80000d80 <inst_61>
    80000d7c:	aa8ff06f          	j	80000024 <rvtest_error>

0000000080000d80 <inst_61>:
    80000d80:	00100513          	li	a0,1
    80000d84:	02251513          	slli	a0,a0,0x22
    80000d88:	00100593          	li	a1,1
    80000d8c:	03459593          	slli	a1,a1,0x34
    80000d90:	00b52633          	slt	a2,a0,a1
    80000d94:	14c13c23          	sd	a2,344(sp)
    80000d98:	00100693          	li	a3,1
    80000d9c:	00c68463          	beq	a3,a2,80000da4 <inst_62>
    80000da0:	a84ff06f          	j	80000024 <rvtest_error>

0000000080000da4 <inst_62>:
    80000da4:	00100513          	li	a0,1
    80000da8:	02151513          	slli	a0,a0,0x21
    80000dac:	fff54513          	not	a0,a0
    80000db0:	00100593          	li	a1,1
    80000db4:	03559593          	slli	a1,a1,0x35
    80000db8:	00b52633          	slt	a2,a0,a1
    80000dbc:	16c13023          	sd	a2,352(sp)
    80000dc0:	00100693          	li	a3,1
    80000dc4:	00c68463          	beq	a3,a2,80000dcc <inst_63>
    80000dc8:	a5cff06f          	j	80000024 <rvtest_error>

0000000080000dcc <inst_63>:
    80000dcc:	00100513          	li	a0,1
    80000dd0:	00d51513          	slli	a0,a0,0xd
    80000dd4:	fff54513          	not	a0,a0
    80000dd8:	00100593          	li	a1,1
    80000ddc:	03659593          	slli	a1,a1,0x36
    80000de0:	00b52633          	slt	a2,a0,a1
    80000de4:	16c13423          	sd	a2,360(sp)
    80000de8:	00100693          	li	a3,1
    80000dec:	00c68463          	beq	a3,a2,80000df4 <inst_64>
    80000df0:	a34ff06f          	j	80000024 <rvtest_error>

0000000080000df4 <inst_64>:
    80000df4:	00100513          	li	a0,1
    80000df8:	03d51513          	slli	a0,a0,0x3d
    80000dfc:	00100593          	li	a1,1
    80000e00:	03759593          	slli	a1,a1,0x37
    80000e04:	00b52633          	slt	a2,a0,a1
    80000e08:	16c13823          	sd	a2,368(sp)
    80000e0c:	00000693          	li	a3,0
    80000e10:	00c68463          	beq	a3,a2,80000e18 <inst_65>
    80000e14:	a10ff06f          	j	80000024 <rvtest_error>

0000000080000e18 <inst_65>:
    80000e18:	00100513          	li	a0,1
    80000e1c:	03151513          	slli	a0,a0,0x31
    80000e20:	fff54513          	not	a0,a0
    80000e24:	00100593          	li	a1,1
    80000e28:	03859593          	slli	a1,a1,0x38
    80000e2c:	00b52633          	slt	a2,a0,a1
    80000e30:	16c13c23          	sd	a2,376(sp)
    80000e34:	00100693          	li	a3,1
    80000e38:	00c68463          	beq	a3,a2,80000e40 <inst_66>
    80000e3c:	9e8ff06f          	j	80000024 <rvtest_error>

0000000080000e40 <inst_66>:
    80000e40:	ffd00513          	li	a0,-3
    80000e44:	00100593          	li	a1,1
    80000e48:	03a59593          	slli	a1,a1,0x3a
    80000e4c:	00b52633          	slt	a2,a0,a1
    80000e50:	18c13023          	sd	a2,384(sp)
    80000e54:	00100693          	li	a3,1
    80000e58:	00c68463          	beq	a3,a2,80000e60 <inst_67>
    80000e5c:	9c8ff06f          	j	80000024 <rvtest_error>

0000000080000e60 <inst_67>:
    80000e60:	aaaab537          	lui	a0,0xaaaab
    80000e64:	aaa50513          	addi	a0,a0,-1366 # ffffffffaaaaaaaa <absimm+0xfffffffeefd9cfda>
    80000e68:	00b51513          	slli	a0,a0,0xb
    80000e6c:	55550513          	addi	a0,a0,1365
    80000e70:	00b51513          	slli	a0,a0,0xb
    80000e74:	2aa50513          	addi	a0,a0,682
    80000e78:	00a51513          	slli	a0,a0,0xa
    80000e7c:	2aa50513          	addi	a0,a0,682
    80000e80:	00100593          	li	a1,1
    80000e84:	03b59593          	slli	a1,a1,0x3b
    80000e88:	00b52633          	slt	a2,a0,a1
    80000e8c:	18c13423          	sd	a2,392(sp)
    80000e90:	00100693          	li	a3,1
    80000e94:	00c68463          	beq	a3,a2,80000e9c <inst_68>
    80000e98:	98cff06f          	j	80000024 <rvtest_error>

0000000080000e9c <inst_68>:
    80000e9c:	00100513          	li	a0,1
    80000ea0:	01951513          	slli	a0,a0,0x19
    80000ea4:	fff54513          	not	a0,a0
    80000ea8:	00100593          	li	a1,1
    80000eac:	03c59593          	slli	a1,a1,0x3c
    80000eb0:	00b52633          	slt	a2,a0,a1
    80000eb4:	18c13823          	sd	a2,400(sp)
    80000eb8:	00100693          	li	a3,1
    80000ebc:	00c68463          	beq	a3,a2,80000ec4 <inst_69>
    80000ec0:	964ff06f          	j	80000024 <rvtest_error>

0000000080000ec4 <inst_69>:
    80000ec4:	00000513          	li	a0,0
    80000ec8:	00100593          	li	a1,1
    80000ecc:	03d59593          	slli	a1,a1,0x3d
    80000ed0:	00b52633          	slt	a2,a0,a1
    80000ed4:	18c13c23          	sd	a2,408(sp)
    80000ed8:	00100693          	li	a3,1
    80000edc:	00c68463          	beq	a3,a2,80000ee4 <inst_70>
    80000ee0:	944ff06f          	j	80000024 <rvtest_error>

0000000080000ee4 <inst_70>:
    80000ee4:	00100513          	li	a0,1
    80000ee8:	01e51513          	slli	a0,a0,0x1e
    80000eec:	fff54513          	not	a0,a0
    80000ef0:	00100593          	li	a1,1
    80000ef4:	03e59593          	slli	a1,a1,0x3e
    80000ef8:	00b52633          	slt	a2,a0,a1
    80000efc:	1ac13023          	sd	a2,416(sp)
    80000f00:	00100693          	li	a3,1
    80000f04:	00c68463          	beq	a3,a2,80000f0c <inst_71>
    80000f08:	91cff06f          	j	80000024 <rvtest_error>

0000000080000f0c <inst_71>:
    80000f0c:	00100513          	li	a0,1
    80000f10:	03051513          	slli	a0,a0,0x30
    80000f14:	fff54513          	not	a0,a0
    80000f18:	ffe00593          	li	a1,-2
    80000f1c:	00b52633          	slt	a2,a0,a1
    80000f20:	1ac13423          	sd	a2,424(sp)
    80000f24:	00100693          	li	a3,1
    80000f28:	00c68463          	beq	a3,a2,80000f30 <inst_72>
    80000f2c:	8f8ff06f          	j	80000024 <rvtest_error>

0000000080000f30 <inst_72>:
    80000f30:	00100513          	li	a0,1
    80000f34:	03351513          	slli	a0,a0,0x33
    80000f38:	fff54513          	not	a0,a0
    80000f3c:	ffd00593          	li	a1,-3
    80000f40:	00b52633          	slt	a2,a0,a1
    80000f44:	1ac13823          	sd	a2,432(sp)
    80000f48:	00100693          	li	a3,1
    80000f4c:	00c68463          	beq	a3,a2,80000f54 <inst_73>
    80000f50:	8d4ff06f          	j	80000024 <rvtest_error>

0000000080000f54 <inst_73>:
    80000f54:	00000537          	lui	a0,0x0
    80000f58:	fff50513          	addi	a0,a0,-1
    80000f5c:	00b51513          	slli	a0,a0,0xb
    80000f60:	25750513          	addi	a0,a0,599
    80000f64:	00b51513          	slli	a0,a0,0xb
    80000f68:	6c350513          	addi	a0,a0,1731
    80000f6c:	00a51513          	slli	a0,a0,0xa
    80000f70:	0ce50513          	addi	a0,a0,206
    80000f74:	ffb00593          	li	a1,-5
    80000f78:	00b52633          	slt	a2,a0,a1
    80000f7c:	1ac13c23          	sd	a2,440(sp)
    80000f80:	00100693          	li	a3,1
    80000f84:	00c68463          	beq	a3,a2,80000f8c <inst_74>
    80000f88:	89cff06f          	j	80000024 <rvtest_error>

0000000080000f8c <inst_74>:
    80000f8c:	00100513          	li	a0,1
    80000f90:	03e51513          	slli	a0,a0,0x3e
    80000f94:	fff54513          	not	a0,a0
    80000f98:	ff700593          	li	a1,-9
    80000f9c:	00b52633          	slt	a2,a0,a1
    80000fa0:	1cc13023          	sd	a2,448(sp)
    80000fa4:	00100693          	li	a3,1
    80000fa8:	00c68463          	beq	a3,a2,80000fb0 <inst_75>
    80000fac:	878ff06f          	j	80000024 <rvtest_error>

0000000080000fb0 <inst_75>:
    80000fb0:	00100513          	li	a0,1
    80000fb4:	03551513          	slli	a0,a0,0x35
    80000fb8:	fff54513          	not	a0,a0
    80000fbc:	fef00593          	li	a1,-17
    80000fc0:	00b52633          	slt	a2,a0,a1
    80000fc4:	1cc13423          	sd	a2,456(sp)
    80000fc8:	00100693          	li	a3,1
    80000fcc:	00c68463          	beq	a3,a2,80000fd4 <inst_76>
    80000fd0:	854ff06f          	j	80000024 <rvtest_error>

0000000080000fd4 <inst_76>:
    80000fd4:	bff00513          	li	a0,-1025
    80000fd8:	fdf00593          	li	a1,-33
    80000fdc:	00b52633          	slt	a2,a0,a1
    80000fe0:	1cc13823          	sd	a2,464(sp)
    80000fe4:	00100693          	li	a3,1
    80000fe8:	00c68463          	beq	a3,a2,80000ff0 <inst_77>
    80000fec:	838ff06f          	j	80000024 <rvtest_error>

0000000080000ff0 <inst_77>:
    80000ff0:	01000513          	li	a0,16
    80000ff4:	fbf00593          	li	a1,-65
    80000ff8:	00b52633          	slt	a2,a0,a1
    80000ffc:	1cc13c23          	sd	a2,472(sp)
    80001000:	00000693          	li	a3,0
    80001004:	00c68463          	beq	a3,a2,8000100c <inst_78>
    80001008:	81cff06f          	j	80000024 <rvtest_error>

000000008000100c <inst_78>:
    8000100c:	00100513          	li	a0,1
    80001010:	00b51513          	slli	a0,a0,0xb
    80001014:	f7f00593          	li	a1,-129
    80001018:	00b52633          	slt	a2,a0,a1
    8000101c:	1ec13023          	sd	a2,480(sp)
    80001020:	00000693          	li	a3,0
    80001024:	00c68463          	beq	a3,a2,8000102c <inst_79>
    80001028:	ffdfe06f          	j	80000024 <rvtest_error>

000000008000102c <inst_79>:
    8000102c:	55555537          	lui	a0,0x55555
    80001030:	55550513          	addi	a0,a0,1365 # 55555555 <absimmsh+0x49a847a8>
    80001034:	00b51513          	slli	a0,a0,0xb
    80001038:	2aa50513          	addi	a0,a0,682
    8000103c:	00b51513          	slli	a0,a0,0xb
    80001040:	55550513          	addi	a0,a0,1365
    80001044:	00a51513          	slli	a0,a0,0xa
    80001048:	15450513          	addi	a0,a0,340
    8000104c:	eff00593          	li	a1,-257
    80001050:	00b52633          	slt	a2,a0,a1
    80001054:	1ec13423          	sd	a2,488(sp)
    80001058:	00000693          	li	a3,0
    8000105c:	00c68463          	beq	a3,a2,80001064 <inst_80>
    80001060:	fc5fe06f          	j	80000024 <rvtest_error>

0000000080001064 <inst_80>:
    80001064:	00100513          	li	a0,1
    80001068:	01c51513          	slli	a0,a0,0x1c
    8000106c:	dff00593          	li	a1,-513
    80001070:	00b52633          	slt	a2,a0,a1
    80001074:	1ec13823          	sd	a2,496(sp)
    80001078:	00000693          	li	a3,0
    8000107c:	00c68463          	beq	a3,a2,80001084 <inst_81>
    80001080:	fa5fe06f          	j	80000024 <rvtest_error>

0000000080001084 <inst_81>:
    80001084:	00100513          	li	a0,1
    80001088:	01051513          	slli	a0,a0,0x10
    8000108c:	fff54513          	not	a0,a0
    80001090:	00100593          	li	a1,1
    80001094:	00b59593          	slli	a1,a1,0xb
    80001098:	fff5c593          	not	a1,a1
    8000109c:	00b52633          	slt	a2,a0,a1
    800010a0:	1ec13c23          	sd	a2,504(sp)
    800010a4:	00100693          	li	a3,1
    800010a8:	00c68463          	beq	a3,a2,800010b0 <inst_82>
    800010ac:	f79fe06f          	j	80000024 <rvtest_error>

00000000800010b0 <inst_82>:
    800010b0:	00100513          	li	a0,1
    800010b4:	01351513          	slli	a0,a0,0x13
    800010b8:	fff54513          	not	a0,a0
    800010bc:	00100593          	li	a1,1
    800010c0:	00c59593          	slli	a1,a1,0xc
    800010c4:	fff5c593          	not	a1,a1
    800010c8:	00b52633          	slt	a2,a0,a1
    800010cc:	20c13023          	sd	a2,512(sp)
    800010d0:	00100693          	li	a3,1
    800010d4:	00c68463          	beq	a3,a2,800010dc <inst_83>
    800010d8:	f4dfe06f          	j	80000024 <rvtest_error>

00000000800010dc <inst_83>:
    800010dc:	00100513          	li	a0,1
    800010e0:	03d51513          	slli	a0,a0,0x3d
    800010e4:	fff54513          	not	a0,a0
    800010e8:	00100593          	li	a1,1
    800010ec:	00d59593          	slli	a1,a1,0xd
    800010f0:	fff5c593          	not	a1,a1
    800010f4:	00b52633          	slt	a2,a0,a1
    800010f8:	20c13423          	sd	a2,520(sp)
    800010fc:	00100693          	li	a3,1
    80001100:	00c68463          	beq	a3,a2,80001108 <inst_84>
    80001104:	f21fe06f          	j	80000024 <rvtest_error>

0000000080001108 <inst_84>:
    80001108:	00100513          	li	a0,1
    8000110c:	02d51513          	slli	a0,a0,0x2d
    80001110:	00100593          	li	a1,1
    80001114:	00e59593          	slli	a1,a1,0xe
    80001118:	fff5c593          	not	a1,a1
    8000111c:	00b52633          	slt	a2,a0,a1
    80001120:	20c13823          	sd	a2,528(sp)
    80001124:	00000693          	li	a3,0
    80001128:	00c68463          	beq	a3,a2,80001130 <inst_85>
    8000112c:	ef9fe06f          	j	80000024 <rvtest_error>

0000000080001130 <inst_85>:
    80001130:	00800513          	li	a0,8
    80001134:	00100593          	li	a1,1
    80001138:	00f59593          	slli	a1,a1,0xf
    8000113c:	fff5c593          	not	a1,a1
    80001140:	00b52633          	slt	a2,a0,a1
    80001144:	20c13c23          	sd	a2,536(sp)
    80001148:	00000693          	li	a3,0
    8000114c:	00c68463          	beq	a3,a2,80001154 <inst_86>
    80001150:	ed5fe06f          	j	80000024 <rvtest_error>

0000000080001154 <inst_86>:
    80001154:	00900513          	li	a0,9
    80001158:	00100593          	li	a1,1
    8000115c:	01059593          	slli	a1,a1,0x10
    80001160:	fff5c593          	not	a1,a1
    80001164:	00b52633          	slt	a2,a0,a1
    80001168:	22c13023          	sd	a2,544(sp)
    8000116c:	00000693          	li	a3,0
    80001170:	00c68463          	beq	a3,a2,80001178 <inst_87>
    80001174:	eb1fe06f          	j	80000024 <rvtest_error>

0000000080001178 <inst_87>:
    80001178:	00100513          	li	a0,1
    8000117c:	03a51513          	slli	a0,a0,0x3a
    80001180:	00100593          	li	a1,1
    80001184:	01159593          	slli	a1,a1,0x11
    80001188:	fff5c593          	not	a1,a1
    8000118c:	00b52633          	slt	a2,a0,a1
    80001190:	22c13423          	sd	a2,552(sp)
    80001194:	00000693          	li	a3,0
    80001198:	00c68463          	beq	a3,a2,800011a0 <inst_88>
    8000119c:	e89fe06f          	j	80000024 <rvtest_error>

00000000800011a0 <inst_88>:
    800011a0:	00100513          	li	a0,1
    800011a4:	02151513          	slli	a0,a0,0x21
    800011a8:	fff54513          	not	a0,a0
    800011ac:	00100593          	li	a1,1
    800011b0:	01259593          	slli	a1,a1,0x12
    800011b4:	fff5c593          	not	a1,a1
    800011b8:	00b52633          	slt	a2,a0,a1
    800011bc:	22c13823          	sd	a2,560(sp)
    800011c0:	00100693          	li	a3,1
    800011c4:	00c68463          	beq	a3,a2,800011cc <inst_89>
    800011c8:	e5dfe06f          	j	80000024 <rvtest_error>

00000000800011cc <inst_89>:
    800011cc:	55555537          	lui	a0,0x55555
    800011d0:	55550513          	addi	a0,a0,1365 # 55555555 <absimmsh+0x49a847a8>
    800011d4:	00b51513          	slli	a0,a0,0xb
    800011d8:	2aa50513          	addi	a0,a0,682
    800011dc:	00b51513          	slli	a0,a0,0xb
    800011e0:	55550513          	addi	a0,a0,1365
    800011e4:	00a51513          	slli	a0,a0,0xa
    800011e8:	15650513          	addi	a0,a0,342
    800011ec:	00100593          	li	a1,1
    800011f0:	01359593          	slli	a1,a1,0x13
    800011f4:	fff5c593          	not	a1,a1
    800011f8:	00b52633          	slt	a2,a0,a1
    800011fc:	22c13c23          	sd	a2,568(sp)
    80001200:	00000693          	li	a3,0
    80001204:	00c68463          	beq	a3,a2,8000120c <inst_90>
    80001208:	e1dfe06f          	j	80000024 <rvtest_error>

000000008000120c <inst_90>:
    8000120c:	fff00513          	li	a0,-1
    80001210:	03e51513          	slli	a0,a0,0x3e
    80001214:	00100593          	li	a1,1
    80001218:	01459593          	slli	a1,a1,0x14
    8000121c:	fff5c593          	not	a1,a1
    80001220:	00b52633          	slt	a2,a0,a1
    80001224:	24c13023          	sd	a2,576(sp)
    80001228:	00100693          	li	a3,1
    8000122c:	00c68463          	beq	a3,a2,80001234 <inst_91>
    80001230:	df5fe06f          	j	80000024 <rvtest_error>

0000000080001234 <inst_91>:
    80001234:	00100513          	li	a0,1
    80001238:	01e51513          	slli	a0,a0,0x1e
    8000123c:	fff54513          	not	a0,a0
    80001240:	00100593          	li	a1,1
    80001244:	01559593          	slli	a1,a1,0x15
    80001248:	fff5c593          	not	a1,a1
    8000124c:	00b52633          	slt	a2,a0,a1
    80001250:	24c13423          	sd	a2,584(sp)
    80001254:	00100693          	li	a3,1
    80001258:	00c68463          	beq	a3,a2,80001260 <inst_92>
    8000125c:	dc9fe06f          	j	80000024 <rvtest_error>

0000000080001260 <inst_92>:
    80001260:	00100513          	li	a0,1
    80001264:	03251513          	slli	a0,a0,0x32
    80001268:	00100593          	li	a1,1
    8000126c:	01659593          	slli	a1,a1,0x16
    80001270:	fff5c593          	not	a1,a1
    80001274:	00b52633          	slt	a2,a0,a1
    80001278:	24c13823          	sd	a2,592(sp)
    8000127c:	00000693          	li	a3,0
    80001280:	00c68463          	beq	a3,a2,80001288 <inst_93>
    80001284:	da1fe06f          	j	80000024 <rvtest_error>

0000000080001288 <inst_93>:
    80001288:	00700513          	li	a0,7
    8000128c:	00100593          	li	a1,1
    80001290:	01759593          	slli	a1,a1,0x17
    80001294:	fff5c593          	not	a1,a1
    80001298:	00b52633          	slt	a2,a0,a1
    8000129c:	24c13c23          	sd	a2,600(sp)
    800012a0:	00000693          	li	a3,0
    800012a4:	00c68463          	beq	a3,a2,800012ac <inst_94>
    800012a8:	d7dfe06f          	j	80000024 <rvtest_error>

00000000800012ac <inst_94>:
    800012ac:	00100513          	li	a0,1
    800012b0:	02051513          	slli	a0,a0,0x20
    800012b4:	fff54513          	not	a0,a0
    800012b8:	00100593          	li	a1,1
    800012bc:	01859593          	slli	a1,a1,0x18
    800012c0:	fff5c593          	not	a1,a1
    800012c4:	00b52633          	slt	a2,a0,a1
    800012c8:	26c13023          	sd	a2,608(sp)
    800012cc:	00100693          	li	a3,1
    800012d0:	00c68463          	beq	a3,a2,800012d8 <inst_95>
    800012d4:	d51fe06f          	j	80000024 <rvtest_error>

00000000800012d8 <inst_95>:
    800012d8:	ffb00513          	li	a0,-5
    800012dc:	00100593          	li	a1,1
    800012e0:	01959593          	slli	a1,a1,0x19
    800012e4:	fff5c593          	not	a1,a1
    800012e8:	00b52633          	slt	a2,a0,a1
    800012ec:	26c13423          	sd	a2,616(sp)
    800012f0:	00000693          	li	a3,0
    800012f4:	00c68463          	beq	a3,a2,800012fc <inst_96>
    800012f8:	d2dfe06f          	j	80000024 <rvtest_error>

00000000800012fc <inst_96>:
    800012fc:	66666537          	lui	a0,0x66666
    80001300:	66650513          	addi	a0,a0,1638 # 66666666 <absimmsh+0x5ab958b9>
    80001304:	00b51513          	slli	a0,a0,0xb
    80001308:	33350513          	addi	a0,a0,819
    8000130c:	00b51513          	slli	a0,a0,0xb
    80001310:	19950513          	addi	a0,a0,409
    80001314:	00a51513          	slli	a0,a0,0xa
    80001318:	26650513          	addi	a0,a0,614
    8000131c:	00100593          	li	a1,1
    80001320:	01a59593          	slli	a1,a1,0x1a
    80001324:	fff5c593          	not	a1,a1
    80001328:	00b52633          	slt	a2,a0,a1
    8000132c:	26c13823          	sd	a2,624(sp)
    80001330:	00000693          	li	a3,0
    80001334:	00c68463          	beq	a3,a2,8000133c <inst_97>
    80001338:	cedfe06f          	j	80000024 <rvtest_error>

000000008000133c <inst_97>:
    8000133c:	fff00513          	li	a0,-1
    80001340:	03e51513          	slli	a0,a0,0x3e
    80001344:	00100593          	li	a1,1
    80001348:	01b59593          	slli	a1,a1,0x1b
    8000134c:	fff5c593          	not	a1,a1
    80001350:	00b52633          	slt	a2,a0,a1
    80001354:	26c13c23          	sd	a2,632(sp)
    80001358:	00100693          	li	a3,1
    8000135c:	00c68463          	beq	a3,a2,80001364 <inst_98>
    80001360:	cc5fe06f          	j	80000024 <rvtest_error>

0000000080001364 <inst_98>:
    80001364:	00100513          	li	a0,1
    80001368:	03c51513          	slli	a0,a0,0x3c
    8000136c:	00100593          	li	a1,1
    80001370:	01c59593          	slli	a1,a1,0x1c
    80001374:	fff5c593          	not	a1,a1
    80001378:	00b52633          	slt	a2,a0,a1
    8000137c:	28c13023          	sd	a2,640(sp)
    80001380:	00000693          	li	a3,0
    80001384:	00c68463          	beq	a3,a2,8000138c <inst_99>
    80001388:	c9dfe06f          	j	80000024 <rvtest_error>

000000008000138c <inst_99>:
    8000138c:	10000513          	li	a0,256
    80001390:	00100593          	li	a1,1
    80001394:	01d59593          	slli	a1,a1,0x1d
    80001398:	fff5c593          	not	a1,a1
    8000139c:	00b52633          	slt	a2,a0,a1
    800013a0:	28c13423          	sd	a2,648(sp)
    800013a4:	00000693          	li	a3,0
    800013a8:	00c68463          	beq	a3,a2,800013b0 <inst_100>
    800013ac:	c79fe06f          	j	80000024 <rvtest_error>

00000000800013b0 <inst_100>:
    800013b0:	00100513          	li	a0,1
    800013b4:	02951513          	slli	a0,a0,0x29
    800013b8:	00100593          	li	a1,1
    800013bc:	01e59593          	slli	a1,a1,0x1e
    800013c0:	fff5c593          	not	a1,a1
    800013c4:	00b52633          	slt	a2,a0,a1
    800013c8:	28c13823          	sd	a2,656(sp)
    800013cc:	00000693          	li	a3,0
    800013d0:	00c68463          	beq	a3,a2,800013d8 <inst_101>
    800013d4:	c51fe06f          	j	80000024 <rvtest_error>

00000000800013d8 <inst_101>:
    800013d8:	fef00513          	li	a0,-17
    800013dc:	00100593          	li	a1,1
    800013e0:	01f59593          	slli	a1,a1,0x1f
    800013e4:	fff5c593          	not	a1,a1
    800013e8:	00b52633          	slt	a2,a0,a1
    800013ec:	28c13c23          	sd	a2,664(sp)
    800013f0:	00000693          	li	a3,0
    800013f4:	00c68463          	beq	a3,a2,800013fc <inst_102>
    800013f8:	c2dfe06f          	j	80000024 <rvtest_error>

00000000800013fc <inst_102>:
    800013fc:	00100513          	li	a0,1
    80001400:	01251513          	slli	a0,a0,0x12
    80001404:	fff54513          	not	a0,a0
    80001408:	00100593          	li	a1,1
    8000140c:	02059593          	slli	a1,a1,0x20
    80001410:	fff5c593          	not	a1,a1
    80001414:	00b52633          	slt	a2,a0,a1
    80001418:	2ac13023          	sd	a2,672(sp)
    8000141c:	00000693          	li	a3,0
    80001420:	00c68463          	beq	a3,a2,80001428 <inst_103>
    80001424:	c01fe06f          	j	80000024 <rvtest_error>

0000000080001428 <inst_103>:
    80001428:	00100513          	li	a0,1
    8000142c:	01e51513          	slli	a0,a0,0x1e
    80001430:	00100593          	li	a1,1
    80001434:	02159593          	slli	a1,a1,0x21
    80001438:	fff5c593          	not	a1,a1
    8000143c:	00b52633          	slt	a2,a0,a1
    80001440:	2ac13423          	sd	a2,680(sp)
    80001444:	00000693          	li	a3,0
    80001448:	00c68463          	beq	a3,a2,80001450 <inst_104>
    8000144c:	bd9fe06f          	j	80000024 <rvtest_error>

0000000080001450 <inst_104>:
    80001450:	ff700513          	li	a0,-9
    80001454:	00100593          	li	a1,1
    80001458:	02259593          	slli	a1,a1,0x22
    8000145c:	fff5c593          	not	a1,a1
    80001460:	00b52633          	slt	a2,a0,a1
    80001464:	2ac13823          	sd	a2,688(sp)
    80001468:	00000693          	li	a3,0
    8000146c:	00c68463          	beq	a3,a2,80001474 <inst_105>
    80001470:	bb5fe06f          	j	80000024 <rvtest_error>

0000000080001474 <inst_105>:
    80001474:	00100513          	li	a0,1
    80001478:	03451513          	slli	a0,a0,0x34
    8000147c:	00100593          	li	a1,1
    80001480:	02359593          	slli	a1,a1,0x23
    80001484:	fff5c593          	not	a1,a1
    80001488:	00b52633          	slt	a2,a0,a1
    8000148c:	2ac13c23          	sd	a2,696(sp)
    80001490:	00000693          	li	a3,0
    80001494:	00c68463          	beq	a3,a2,8000149c <inst_106>
    80001498:	b8dfe06f          	j	80000024 <rvtest_error>

000000008000149c <inst_106>:
    8000149c:	00000537          	lui	a0,0x0
    800014a0:	00050513          	mv	a0,a0
    800014a4:	00b51513          	slli	a0,a0,0xb
    800014a8:	5a850513          	addi	a0,a0,1448 # 5a8 <offset+0x118>
    800014ac:	00b51513          	slli	a0,a0,0xb
    800014b0:	13c50513          	addi	a0,a0,316
    800014b4:	00a51513          	slli	a0,a0,0xa
    800014b8:	33450513          	addi	a0,a0,820
    800014bc:	00100593          	li	a1,1
    800014c0:	02559593          	slli	a1,a1,0x25
    800014c4:	fff5c593          	not	a1,a1
    800014c8:	00b52633          	slt	a2,a0,a1
    800014cc:	2cc13023          	sd	a2,704(sp)
    800014d0:	00000693          	li	a3,0
    800014d4:	00c68463          	beq	a3,a2,800014dc <inst_107>
    800014d8:	b4dfe06f          	j	80000024 <rvtest_error>

00000000800014dc <inst_107>:
    800014dc:	00100513          	li	a0,1
    800014e0:	03751513          	slli	a0,a0,0x37
    800014e4:	fff54513          	not	a0,a0
    800014e8:	00100593          	li	a1,1
    800014ec:	02659593          	slli	a1,a1,0x26
    800014f0:	fff5c593          	not	a1,a1
    800014f4:	00b52633          	slt	a2,a0,a1
    800014f8:	2cc13423          	sd	a2,712(sp)
    800014fc:	00100693          	li	a3,1
    80001500:	00c68463          	beq	a3,a2,80001508 <inst_108>
    80001504:	b21fe06f          	j	80000024 <rvtest_error>

0000000080001508 <inst_108>:
    80001508:	00100513          	li	a0,1
    8000150c:	02c51513          	slli	a0,a0,0x2c
    80001510:	00100593          	li	a1,1
    80001514:	02759593          	slli	a1,a1,0x27
    80001518:	fff5c593          	not	a1,a1
    8000151c:	00b52633          	slt	a2,a0,a1
    80001520:	2cc13823          	sd	a2,720(sp)
    80001524:	00000693          	li	a3,0
    80001528:	00c68463          	beq	a3,a2,80001530 <inst_109>
    8000152c:	af9fe06f          	j	80000024 <rvtest_error>

0000000080001530 <inst_109>:
    80001530:	00100513          	li	a0,1
    80001534:	02c51513          	slli	a0,a0,0x2c
    80001538:	00100593          	li	a1,1
    8000153c:	02859593          	slli	a1,a1,0x28
    80001540:	fff5c593          	not	a1,a1
    80001544:	00b52633          	slt	a2,a0,a1
    80001548:	2cc13c23          	sd	a2,728(sp)
    8000154c:	00000693          	li	a3,0
    80001550:	00c68463          	beq	a3,a2,80001558 <inst_110>
    80001554:	ad1fe06f          	j	80000024 <rvtest_error>

0000000080001558 <inst_110>:
    80001558:	dff00513          	li	a0,-513
    8000155c:	00100593          	li	a1,1
    80001560:	02959593          	slli	a1,a1,0x29
    80001564:	fff5c593          	not	a1,a1
    80001568:	00b52633          	slt	a2,a0,a1
    8000156c:	2ec13023          	sd	a2,736(sp)
    80001570:	00000693          	li	a3,0
    80001574:	00c68463          	beq	a3,a2,8000157c <inst_111>
    80001578:	aadfe06f          	j	80000024 <rvtest_error>

000000008000157c <inst_111>:
    8000157c:	00000513          	li	a0,0
    80001580:	00100593          	li	a1,1
    80001584:	02a59593          	slli	a1,a1,0x2a
    80001588:	fff5c593          	not	a1,a1
    8000158c:	00b52633          	slt	a2,a0,a1
    80001590:	2ec13423          	sd	a2,744(sp)
    80001594:	00000693          	li	a3,0
    80001598:	00c68463          	beq	a3,a2,800015a0 <inst_112>
    8000159c:	a89fe06f          	j	80000024 <rvtest_error>

00000000800015a0 <inst_112>:
    800015a0:	00100513          	li	a0,1
    800015a4:	01a51513          	slli	a0,a0,0x1a
    800015a8:	fff54513          	not	a0,a0
    800015ac:	00100593          	li	a1,1
    800015b0:	02b59593          	slli	a1,a1,0x2b
    800015b4:	fff5c593          	not	a1,a1
    800015b8:	00b52633          	slt	a2,a0,a1
    800015bc:	2ec13823          	sd	a2,752(sp)
    800015c0:	00000693          	li	a3,0
    800015c4:	00c68463          	beq	a3,a2,800015cc <inst_113>
    800015c8:	a5dfe06f          	j	80000024 <rvtest_error>

00000000800015cc <inst_113>:
    800015cc:	00100513          	li	a0,1
    800015d0:	03d51513          	slli	a0,a0,0x3d
    800015d4:	00100593          	li	a1,1
    800015d8:	02c59593          	slli	a1,a1,0x2c
    800015dc:	fff5c593          	not	a1,a1
    800015e0:	00b52633          	slt	a2,a0,a1
    800015e4:	2ec13c23          	sd	a2,760(sp)
    800015e8:	00000693          	li	a3,0
    800015ec:	00c68463          	beq	a3,a2,800015f4 <inst_114>
    800015f0:	a35fe06f          	j	80000024 <rvtest_error>

00000000800015f4 <inst_114>:
    800015f4:	00100513          	li	a0,1
    800015f8:	03e51513          	slli	a0,a0,0x3e
    800015fc:	fff54513          	not	a0,a0
    80001600:	00100593          	li	a1,1
    80001604:	02d59593          	slli	a1,a1,0x2d
    80001608:	fff5c593          	not	a1,a1
    8000160c:	00b52633          	slt	a2,a0,a1
    80001610:	30c13023          	sd	a2,768(sp)
    80001614:	00100693          	li	a3,1
    80001618:	00c68463          	beq	a3,a2,80001620 <inst_115>
    8000161c:	a09fe06f          	j	80000024 <rvtest_error>

0000000080001620 <inst_115>:
    80001620:	00100513          	li	a0,1
    80001624:	00d51513          	slli	a0,a0,0xd
    80001628:	00100593          	li	a1,1
    8000162c:	02e59593          	slli	a1,a1,0x2e
    80001630:	fff5c593          	not	a1,a1
    80001634:	00b52633          	slt	a2,a0,a1
    80001638:	30c13423          	sd	a2,776(sp)
    8000163c:	00000693          	li	a3,0
    80001640:	00c68463          	beq	a3,a2,80001648 <inst_116>
    80001644:	9e1fe06f          	j	80000024 <rvtest_error>

0000000080001648 <inst_116>:
    80001648:	00600513          	li	a0,6
    8000164c:	00100593          	li	a1,1
    80001650:	03059593          	slli	a1,a1,0x30
    80001654:	fff5c593          	not	a1,a1
    80001658:	00b52633          	slt	a2,a0,a1
    8000165c:	30c13823          	sd	a2,784(sp)
    80001660:	00000693          	li	a3,0
    80001664:	00c68463          	beq	a3,a2,8000166c <inst_117>
    80001668:	9bdfe06f          	j	80000024 <rvtest_error>

000000008000166c <inst_117>:
    8000166c:	00100513          	li	a0,1
    80001670:	03c51513          	slli	a0,a0,0x3c
    80001674:	fff54513          	not	a0,a0
    80001678:	00100593          	li	a1,1
    8000167c:	03159593          	slli	a1,a1,0x31
    80001680:	fff5c593          	not	a1,a1
    80001684:	00b52633          	slt	a2,a0,a1
    80001688:	30c13c23          	sd	a2,792(sp)
    8000168c:	00100693          	li	a3,1
    80001690:	00c68463          	beq	a3,a2,80001698 <inst_118>
    80001694:	991fe06f          	j	80000024 <rvtest_error>

0000000080001698 <inst_118>:
    80001698:	ffc00513          	li	a0,-4
    8000169c:	00100593          	li	a1,1
    800016a0:	03259593          	slli	a1,a1,0x32
    800016a4:	fff5c593          	not	a1,a1
    800016a8:	00b52633          	slt	a2,a0,a1
    800016ac:	32c13023          	sd	a2,800(sp)
    800016b0:	00000693          	li	a3,0
    800016b4:	00c68463          	beq	a3,a2,800016bc <inst_119>
    800016b8:	96dfe06f          	j	80000024 <rvtest_error>

00000000800016bc <inst_119>:
    800016bc:	00100513          	li	a0,1
    800016c0:	01a51513          	slli	a0,a0,0x1a
    800016c4:	fff54513          	not	a0,a0
    800016c8:	00100593          	li	a1,1
    800016cc:	03359593          	slli	a1,a1,0x33
    800016d0:	fff5c593          	not	a1,a1
    800016d4:	00b52633          	slt	a2,a0,a1
    800016d8:	32c13423          	sd	a2,808(sp)
    800016dc:	00000693          	li	a3,0
    800016e0:	00c68463          	beq	a3,a2,800016e8 <inst_120>
    800016e4:	941fe06f          	j	80000024 <rvtest_error>

00000000800016e8 <inst_120>:
    800016e8:	66666537          	lui	a0,0x66666
    800016ec:	66650513          	addi	a0,a0,1638 # 66666666 <absimmsh+0x5ab958b9>
    800016f0:	00b51513          	slli	a0,a0,0xb
    800016f4:	33350513          	addi	a0,a0,819
    800016f8:	00b51513          	slli	a0,a0,0xb
    800016fc:	19950513          	addi	a0,a0,409
    80001700:	00a51513          	slli	a0,a0,0xa
    80001704:	26750513          	addi	a0,a0,615
    80001708:	00100593          	li	a1,1
    8000170c:	03459593          	slli	a1,a1,0x34
    80001710:	fff5c593          	not	a1,a1
    80001714:	00b52633          	slt	a2,a0,a1
    80001718:	32c13823          	sd	a2,816(sp)
    8000171c:	00000693          	li	a3,0
    80001720:	00c68463          	beq	a3,a2,80001728 <inst_121>
    80001724:	901fe06f          	j	80000024 <rvtest_error>

0000000080001728 <inst_121>:
    80001728:	ff700513          	li	a0,-9
    8000172c:	00100593          	li	a1,1
    80001730:	03559593          	slli	a1,a1,0x35
    80001734:	fff5c593          	not	a1,a1
    80001738:	00b52633          	slt	a2,a0,a1
    8000173c:	32c13c23          	sd	a2,824(sp)
    80001740:	00000693          	li	a3,0
    80001744:	00c68463          	beq	a3,a2,8000174c <inst_122>
    80001748:	8ddfe06f          	j	80000024 <rvtest_error>

000000008000174c <inst_122>:
    8000174c:	00100513          	li	a0,1
    80001750:	02851513          	slli	a0,a0,0x28
    80001754:	00100593          	li	a1,1
    80001758:	03659593          	slli	a1,a1,0x36
    8000175c:	fff5c593          	not	a1,a1
    80001760:	00b52633          	slt	a2,a0,a1
    80001764:	34c13023          	sd	a2,832(sp)
    80001768:	00000693          	li	a3,0
    8000176c:	00c68463          	beq	a3,a2,80001774 <inst_123>
    80001770:	8b5fe06f          	j	80000024 <rvtest_error>

0000000080001774 <inst_123>:
    80001774:	00100513          	li	a0,1
    80001778:	03351513          	slli	a0,a0,0x33
    8000177c:	00100593          	li	a1,1
    80001780:	03759593          	slli	a1,a1,0x37
    80001784:	fff5c593          	not	a1,a1
    80001788:	00b52633          	slt	a2,a0,a1
    8000178c:	34c13423          	sd	a2,840(sp)
    80001790:	00000693          	li	a3,0
    80001794:	00c68463          	beq	a3,a2,8000179c <inst_124>
    80001798:	88dfe06f          	j	80000024 <rvtest_error>

000000008000179c <inst_124>:
    8000179c:	00100513          	li	a0,1
    800017a0:	03b51513          	slli	a0,a0,0x3b
    800017a4:	fff54513          	not	a0,a0
    800017a8:	00100593          	li	a1,1
    800017ac:	03859593          	slli	a1,a1,0x38
    800017b0:	fff5c593          	not	a1,a1
    800017b4:	00b52633          	slt	a2,a0,a1
    800017b8:	34c13823          	sd	a2,848(sp)
    800017bc:	00100693          	li	a3,1
    800017c0:	00c68463          	beq	a3,a2,800017c8 <inst_125>
    800017c4:	861fe06f          	j	80000024 <rvtest_error>

00000000800017c8 <inst_125>:
    800017c8:	00700513          	li	a0,7
    800017cc:	00100593          	li	a1,1
    800017d0:	03959593          	slli	a1,a1,0x39
    800017d4:	fff5c593          	not	a1,a1
    800017d8:	00b52633          	slt	a2,a0,a1
    800017dc:	34c13c23          	sd	a2,856(sp)
    800017e0:	00000693          	li	a3,0
    800017e4:	00c68463          	beq	a3,a2,800017ec <inst_126>
    800017e8:	83dfe06f          	j	80000024 <rvtest_error>

00000000800017ec <inst_126>:
    800017ec:	00100513          	li	a0,1
    800017f0:	00100593          	li	a1,1
    800017f4:	03a59593          	slli	a1,a1,0x3a
    800017f8:	fff5c593          	not	a1,a1
    800017fc:	00b52633          	slt	a2,a0,a1
    80001800:	36c13023          	sd	a2,864(sp)
    80001804:	00000693          	li	a3,0
    80001808:	00c68463          	beq	a3,a2,80001810 <inst_127>
    8000180c:	819fe06f          	j	80000024 <rvtest_error>

0000000080001810 <inst_127>:
    80001810:	00100513          	li	a0,1
    80001814:	03251513          	slli	a0,a0,0x32
    80001818:	fff54513          	not	a0,a0
    8000181c:	00100593          	li	a1,1
    80001820:	03b59593          	slli	a1,a1,0x3b
    80001824:	fff5c593          	not	a1,a1
    80001828:	00b52633          	slt	a2,a0,a1
    8000182c:	36c13423          	sd	a2,872(sp)
    80001830:	00000693          	li	a3,0
    80001834:	00c68463          	beq	a3,a2,8000183c <inst_128>
    80001838:	fecfe06f          	j	80000024 <rvtest_error>

000000008000183c <inst_128>:
    8000183c:	00100513          	li	a0,1
    80001840:	01c51513          	slli	a0,a0,0x1c
    80001844:	00100593          	li	a1,1
    80001848:	03c59593          	slli	a1,a1,0x3c
    8000184c:	fff5c593          	not	a1,a1
    80001850:	00b52633          	slt	a2,a0,a1
    80001854:	36c13823          	sd	a2,880(sp)
    80001858:	00000693          	li	a3,0
    8000185c:	00c68463          	beq	a3,a2,80001864 <inst_129>
    80001860:	fc4fe06f          	j	80000024 <rvtest_error>

0000000080001864 <inst_129>:
    80001864:	00100513          	li	a0,1
    80001868:	00100593          	li	a1,1
    8000186c:	03d59593          	slli	a1,a1,0x3d
    80001870:	fff5c593          	not	a1,a1
    80001874:	00b52633          	slt	a2,a0,a1
    80001878:	36c13c23          	sd	a2,888(sp)
    8000187c:	00000693          	li	a3,0
    80001880:	00c68463          	beq	a3,a2,80001888 <inst_130>
    80001884:	fa0fe06f          	j	80000024 <rvtest_error>

0000000080001888 <inst_130>:
    80001888:	00100513          	li	a0,1
    8000188c:	01051513          	slli	a0,a0,0x10
    80001890:	00100593          	li	a1,1
    80001894:	03e59593          	slli	a1,a1,0x3e
    80001898:	fff5c593          	not	a1,a1
    8000189c:	00b52633          	slt	a2,a0,a1
    800018a0:	38c13023          	sd	a2,896(sp)
    800018a4:	00000693          	li	a3,0
    800018a8:	00c68463          	beq	a3,a2,800018b0 <inst_131>
    800018ac:	f78fe06f          	j	80000024 <rvtest_error>

00000000800018b0 <inst_131>:
    800018b0:	00100513          	li	a0,1
    800018b4:	02751513          	slli	a0,a0,0x27
    800018b8:	fff54513          	not	a0,a0
    800018bc:	555555b7          	lui	a1,0x55555
    800018c0:	55558593          	addi	a1,a1,1365 # 55555555 <absimmsh+0x49a847a8>
    800018c4:	00b59593          	slli	a1,a1,0xb
    800018c8:	2aa58593          	addi	a1,a1,682
    800018cc:	00b59593          	slli	a1,a1,0xb
    800018d0:	55558593          	addi	a1,a1,1365
    800018d4:	00a59593          	slli	a1,a1,0xa
    800018d8:	15558593          	addi	a1,a1,341
    800018dc:	00b52633          	slt	a2,a0,a1
    800018e0:	38c13423          	sd	a2,904(sp)
    800018e4:	00100693          	li	a3,1
    800018e8:	00c68463          	beq	a3,a2,800018f0 <inst_132>
    800018ec:	f38fe06f          	j	80000024 <rvtest_error>

00000000800018f0 <inst_132>:
    800018f0:	00100513          	li	a0,1
    800018f4:	03a51513          	slli	a0,a0,0x3a
    800018f8:	fff54513          	not	a0,a0
    800018fc:	aaaab5b7          	lui	a1,0xaaaab
    80001900:	aaa58593          	addi	a1,a1,-1366 # ffffffffaaaaaaaa <absimm+0xfffffffeefd9cfda>
    80001904:	00b59593          	slli	a1,a1,0xb
    80001908:	55558593          	addi	a1,a1,1365
    8000190c:	00b59593          	slli	a1,a1,0xb
    80001910:	2aa58593          	addi	a1,a1,682
    80001914:	00a59593          	slli	a1,a1,0xa
    80001918:	2aa58593          	addi	a1,a1,682
    8000191c:	00b52633          	slt	a2,a0,a1
    80001920:	38c13823          	sd	a2,912(sp)
    80001924:	00000693          	li	a3,0
    80001928:	00c68463          	beq	a3,a2,80001930 <inst_133>
    8000192c:	ef8fe06f          	j	80000024 <rvtest_error>

0000000080001930 <inst_133>:
    80001930:	00200513          	li	a0,2
    80001934:	00100593          	li	a1,1
    80001938:	03859593          	slli	a1,a1,0x38
    8000193c:	00b52633          	slt	a2,a0,a1
    80001940:	38c13c23          	sd	a2,920(sp)
    80001944:	00100693          	li	a3,1
    80001948:	00c68463          	beq	a3,a2,80001950 <inst_134>
    8000194c:	ed8fe06f          	j	80000024 <rvtest_error>

0000000080001950 <inst_134>:
    80001950:	02000513          	li	a0,32
    80001954:	00100593          	li	a1,1
    80001958:	00e59593          	slli	a1,a1,0xe
    8000195c:	fff5c593          	not	a1,a1
    80001960:	00b52633          	slt	a2,a0,a1
    80001964:	3ac13023          	sd	a2,928(sp)
    80001968:	00000693          	li	a3,0
    8000196c:	00c68463          	beq	a3,a2,80001974 <inst_135>
    80001970:	eb4fe06f          	j	80000024 <rvtest_error>

0000000080001974 <inst_135>:
    80001974:	04000513          	li	a0,64
    80001978:	00500593          	li	a1,5
    8000197c:	00b52633          	slt	a2,a0,a1
    80001980:	3ac13423          	sd	a2,936(sp)
    80001984:	00000693          	li	a3,0
    80001988:	00c68463          	beq	a3,a2,80001990 <inst_136>
    8000198c:	e98fe06f          	j	80000024 <rvtest_error>

0000000080001990 <inst_136>:
    80001990:	08000513          	li	a0,128
    80001994:	00100593          	li	a1,1
    80001998:	02d59593          	slli	a1,a1,0x2d
    8000199c:	fff5c593          	not	a1,a1
    800019a0:	00b52633          	slt	a2,a0,a1
    800019a4:	3ac13823          	sd	a2,944(sp)
    800019a8:	00000693          	li	a3,0
    800019ac:	00c68463          	beq	a3,a2,800019b4 <inst_137>
    800019b0:	e74fe06f          	j	80000024 <rvtest_error>

00000000800019b4 <inst_137>:
    800019b4:	20000513          	li	a0,512
    800019b8:	00100593          	li	a1,1
    800019bc:	03259593          	slli	a1,a1,0x32
    800019c0:	fff5c593          	not	a1,a1
    800019c4:	00b52633          	slt	a2,a0,a1
    800019c8:	3ac13c23          	sd	a2,952(sp)
    800019cc:	00000693          	li	a3,0
    800019d0:	00c68463          	beq	a3,a2,800019d8 <inst_138>
    800019d4:	e50fe06f          	j	80000024 <rvtest_error>

00000000800019d8 <inst_138>:
    800019d8:	00100513          	li	a0,1
    800019dc:	00e51513          	slli	a0,a0,0xe
    800019e0:	000005b7          	lui	a1,0x0
    800019e4:	fff58593          	addi	a1,a1,-1
    800019e8:	00b59593          	slli	a1,a1,0xb
    800019ec:	25758593          	addi	a1,a1,599
    800019f0:	00b59593          	slli	a1,a1,0xb
    800019f4:	6c358593          	addi	a1,a1,1731
    800019f8:	00a59593          	slli	a1,a1,0xa
    800019fc:	0cd58593          	addi	a1,a1,205
    80001a00:	00b52633          	slt	a2,a0,a1
    80001a04:	3cc13023          	sd	a2,960(sp)
    80001a08:	00000693          	li	a3,0
    80001a0c:	00c68463          	beq	a3,a2,80001a14 <inst_139>
    80001a10:	e14fe06f          	j	80000024 <rvtest_error>

0000000080001a14 <inst_139>:
    80001a14:	00100513          	li	a0,1
    80001a18:	00f51513          	slli	a0,a0,0xf
    80001a1c:	00100593          	li	a1,1
    80001a20:	02159593          	slli	a1,a1,0x21
    80001a24:	fff5c593          	not	a1,a1
    80001a28:	00b52633          	slt	a2,a0,a1
    80001a2c:	3cc13423          	sd	a2,968(sp)
    80001a30:	00000693          	li	a3,0
    80001a34:	00c68463          	beq	a3,a2,80001a3c <inst_140>
    80001a38:	decfe06f          	j	80000024 <rvtest_error>

0000000080001a3c <inst_140>:
    80001a3c:	00100513          	li	a0,1
    80001a40:	01151513          	slli	a0,a0,0x11
    80001a44:	00100593          	li	a1,1
    80001a48:	02059593          	slli	a1,a1,0x20
    80001a4c:	00b52633          	slt	a2,a0,a1
    80001a50:	3cc13823          	sd	a2,976(sp)
    80001a54:	00100693          	li	a3,1
    80001a58:	00c68463          	beq	a3,a2,80001a60 <inst_141>
    80001a5c:	dc8fe06f          	j	80000024 <rvtest_error>

0000000080001a60 <inst_141>:
    80001a60:	00100513          	li	a0,1
    80001a64:	01351513          	slli	a0,a0,0x13
    80001a68:	00100593          	li	a1,1
    80001a6c:	03059593          	slli	a1,a1,0x30
    80001a70:	fff5c593          	not	a1,a1
    80001a74:	00b52633          	slt	a2,a0,a1
    80001a78:	3cc13c23          	sd	a2,984(sp)
    80001a7c:	00000693          	li	a3,0
    80001a80:	00c68463          	beq	a3,a2,80001a88 <inst_142>
    80001a84:	da0fe06f          	j	80000024 <rvtest_error>

0000000080001a88 <inst_142>:
    80001a88:	00100513          	li	a0,1
    80001a8c:	01451513          	slli	a0,a0,0x14
    80001a90:	00100593          	li	a1,1
    80001a94:	02459593          	slli	a1,a1,0x24
    80001a98:	00b52633          	slt	a2,a0,a1
    80001a9c:	3ec13023          	sd	a2,992(sp)
    80001aa0:	00100693          	li	a3,1
    80001aa4:	00c68463          	beq	a3,a2,80001aac <inst_143>
    80001aa8:	d7cfe06f          	j	80000024 <rvtest_error>

0000000080001aac <inst_143>:
    80001aac:	00100513          	li	a0,1
    80001ab0:	01651513          	slli	a0,a0,0x16
    80001ab4:	00100593          	li	a1,1
    80001ab8:	01659593          	slli	a1,a1,0x16
    80001abc:	fff5c593          	not	a1,a1
    80001ac0:	00b52633          	slt	a2,a0,a1
    80001ac4:	3ec13423          	sd	a2,1000(sp)
    80001ac8:	00000693          	li	a3,0
    80001acc:	00c68463          	beq	a3,a2,80001ad4 <inst_144>
    80001ad0:	d54fe06f          	j	80000024 <rvtest_error>

0000000080001ad4 <inst_144>:
    80001ad4:	00100513          	li	a0,1
    80001ad8:	01751513          	slli	a0,a0,0x17
    80001adc:	00300593          	li	a1,3
    80001ae0:	00b52633          	slt	a2,a0,a1
    80001ae4:	3ec13823          	sd	a2,1008(sp)
    80001ae8:	00000693          	li	a3,0
    80001aec:	00c68463          	beq	a3,a2,80001af4 <inst_145>
    80001af0:	d34fe06f          	j	80000024 <rvtest_error>

0000000080001af4 <inst_145>:
    80001af4:	00100513          	li	a0,1
    80001af8:	01851513          	slli	a0,a0,0x18
    80001afc:	00100593          	li	a1,1
    80001b00:	03559593          	slli	a1,a1,0x35
    80001b04:	00b52633          	slt	a2,a0,a1
    80001b08:	3ec13c23          	sd	a2,1016(sp)
    80001b0c:	00100693          	li	a3,1
    80001b10:	00c68463          	beq	a3,a2,80001b18 <inst_146>
    80001b14:	d10fe06f          	j	80000024 <rvtest_error>

0000000080001b18 <inst_146>:
    80001b18:	00100513          	li	a0,1
    80001b1c:	01a51513          	slli	a0,a0,0x1a
    80001b20:	00100593          	li	a1,1
    80001b24:	02e59593          	slli	a1,a1,0x2e
    80001b28:	00b52633          	slt	a2,a0,a1
    80001b2c:	40c13023          	sd	a2,1024(sp)
    80001b30:	00100693          	li	a3,1
    80001b34:	00c68463          	beq	a3,a2,80001b3c <inst_147>
    80001b38:	cecfe06f          	j	80000024 <rvtest_error>

0000000080001b3c <inst_147>:
    80001b3c:	00100513          	li	a0,1
    80001b40:	01d51513          	slli	a0,a0,0x1d
    80001b44:	00100593          	li	a1,1
    80001b48:	03659593          	slli	a1,a1,0x36
    80001b4c:	fff5c593          	not	a1,a1
    80001b50:	00b52633          	slt	a2,a0,a1
    80001b54:	40c13423          	sd	a2,1032(sp)
    80001b58:	00000693          	li	a3,0
    80001b5c:	00c68463          	beq	a3,a2,80001b64 <inst_148>
    80001b60:	cc4fe06f          	j	80000024 <rvtest_error>

0000000080001b64 <inst_148>:
    80001b64:	00100513          	li	a0,1
    80001b68:	01f51513          	slli	a0,a0,0x1f
    80001b6c:	ffc00593          	li	a1,-4
    80001b70:	00b52633          	slt	a2,a0,a1
    80001b74:	40c13823          	sd	a2,1040(sp)
    80001b78:	00000693          	li	a3,0
    80001b7c:	00c68463          	beq	a3,a2,80001b84 <inst_149>
    80001b80:	ca4fe06f          	j	80000024 <rvtest_error>

0000000080001b84 <inst_149>:
    80001b84:	00100513          	li	a0,1
    80001b88:	02151513          	slli	a0,a0,0x21
    80001b8c:	00800593          	li	a1,8
    80001b90:	00b52633          	slt	a2,a0,a1
    80001b94:	40c13c23          	sd	a2,1048(sp)
    80001b98:	00000693          	li	a3,0
    80001b9c:	00c68463          	beq	a3,a2,80001ba4 <inst_150>
    80001ba0:	c84fe06f          	j	80000024 <rvtest_error>

0000000080001ba4 <inst_150>:
    80001ba4:	00100513          	li	a0,1
    80001ba8:	02451513          	slli	a0,a0,0x24
    80001bac:	00100593          	li	a1,1
    80001bb0:	02659593          	slli	a1,a1,0x26
    80001bb4:	00b52633          	slt	a2,a0,a1
    80001bb8:	42c13023          	sd	a2,1056(sp)
    80001bbc:	00100693          	li	a3,1
    80001bc0:	00c68463          	beq	a3,a2,80001bc8 <inst_151>
    80001bc4:	c60fe06f          	j	80000024 <rvtest_error>

0000000080001bc8 <inst_151>:
    80001bc8:	00100513          	li	a0,1
    80001bcc:	02551513          	slli	a0,a0,0x25
    80001bd0:	00100593          	li	a1,1
    80001bd4:	00e59593          	slli	a1,a1,0xe
    80001bd8:	fff5c593          	not	a1,a1
    80001bdc:	00b52633          	slt	a2,a0,a1
    80001be0:	42c13423          	sd	a2,1064(sp)
    80001be4:	00000693          	li	a3,0
    80001be8:	00c68463          	beq	a3,a2,80001bf0 <inst_152>
    80001bec:	c38fe06f          	j	80000024 <rvtest_error>

0000000080001bf0 <inst_152>:
    80001bf0:	00100513          	li	a0,1
    80001bf4:	02651513          	slli	a0,a0,0x26
    80001bf8:	ffd00593          	li	a1,-3
    80001bfc:	00b52633          	slt	a2,a0,a1
    80001c00:	42c13823          	sd	a2,1072(sp)
    80001c04:	00000693          	li	a3,0
    80001c08:	00c68463          	beq	a3,a2,80001c10 <inst_153>
    80001c0c:	c18fe06f          	j	80000024 <rvtest_error>

0000000080001c10 <inst_153>:
    80001c10:	00100513          	li	a0,1
    80001c14:	02751513          	slli	a0,a0,0x27
    80001c18:	00100593          	li	a1,1
    80001c1c:	02159593          	slli	a1,a1,0x21
    80001c20:	fff5c593          	not	a1,a1
    80001c24:	00b52633          	slt	a2,a0,a1
    80001c28:	42c13c23          	sd	a2,1080(sp)
    80001c2c:	00000693          	li	a3,0
    80001c30:	00c68463          	beq	a3,a2,80001c38 <inst_154>
    80001c34:	bf0fe06f          	j	80000024 <rvtest_error>

0000000080001c38 <inst_154>:
    80001c38:	00100513          	li	a0,1
    80001c3c:	02b51513          	slli	a0,a0,0x2b
    80001c40:	333335b7          	lui	a1,0x33333
    80001c44:	33358593          	addi	a1,a1,819 # 33333333 <absimmsh+0x27862586>
    80001c48:	00b59593          	slli	a1,a1,0xb
    80001c4c:	19958593          	addi	a1,a1,409
    80001c50:	00b59593          	slli	a1,a1,0xb
    80001c54:	4cc58593          	addi	a1,a1,1228
    80001c58:	00a59593          	slli	a1,a1,0xa
    80001c5c:	33458593          	addi	a1,a1,820
    80001c60:	00b52633          	slt	a2,a0,a1
    80001c64:	44c13023          	sd	a2,1088(sp)
    80001c68:	00100693          	li	a3,1
    80001c6c:	00c68463          	beq	a3,a2,80001c74 <inst_155>
    80001c70:	bb4fe06f          	j	80000024 <rvtest_error>

0000000080001c74 <inst_155>:
    80001c74:	00100513          	li	a0,1
    80001c78:	02f51513          	slli	a0,a0,0x2f
    80001c7c:	00100593          	li	a1,1
    80001c80:	02259593          	slli	a1,a1,0x22
    80001c84:	00b52633          	slt	a2,a0,a1
    80001c88:	44c13423          	sd	a2,1096(sp)
    80001c8c:	00000693          	li	a3,0
    80001c90:	00c68463          	beq	a3,a2,80001c98 <inst_156>
    80001c94:	b90fe06f          	j	80000024 <rvtest_error>

0000000080001c98 <inst_156>:
    80001c98:	00100513          	li	a0,1
    80001c9c:	03051513          	slli	a0,a0,0x30
    80001ca0:	00100593          	li	a1,1
    80001ca4:	01159593          	slli	a1,a1,0x11
    80001ca8:	00b52633          	slt	a2,a0,a1
    80001cac:	44c13823          	sd	a2,1104(sp)
    80001cb0:	00000693          	li	a3,0
    80001cb4:	00c68463          	beq	a3,a2,80001cbc <inst_157>
    80001cb8:	b6cfe06f          	j	80000024 <rvtest_error>

0000000080001cbc <inst_157>:
    80001cbc:	00100513          	li	a0,1
    80001cc0:	03551513          	slli	a0,a0,0x35
    80001cc4:	00100593          	li	a1,1
    80001cc8:	00c59593          	slli	a1,a1,0xc
    80001ccc:	00b52633          	slt	a2,a0,a1
    80001cd0:	44c13c23          	sd	a2,1112(sp)
    80001cd4:	00000693          	li	a3,0
    80001cd8:	00c68463          	beq	a3,a2,80001ce0 <inst_158>
    80001cdc:	b48fe06f          	j	80000024 <rvtest_error>

0000000080001ce0 <inst_158>:
    80001ce0:	00100513          	li	a0,1
    80001ce4:	03751513          	slli	a0,a0,0x37
    80001ce8:	555555b7          	lui	a1,0x55555
    80001cec:	55558593          	addi	a1,a1,1365 # 55555555 <absimmsh+0x49a847a8>
    80001cf0:	00b59593          	slli	a1,a1,0xb
    80001cf4:	2aa58593          	addi	a1,a1,682
    80001cf8:	00b59593          	slli	a1,a1,0xb
    80001cfc:	55558593          	addi	a1,a1,1365
    80001d00:	00a59593          	slli	a1,a1,0xa
    80001d04:	15658593          	addi	a1,a1,342
    80001d08:	00b52633          	slt	a2,a0,a1
    80001d0c:	46c13023          	sd	a2,1120(sp)
    80001d10:	00100693          	li	a3,1
    80001d14:	00c68463          	beq	a3,a2,80001d1c <inst_159>
    80001d18:	b0cfe06f          	j	80000024 <rvtest_error>

0000000080001d1c <inst_159>:
    80001d1c:	00100513          	li	a0,1
    80001d20:	03851513          	slli	a0,a0,0x38
    80001d24:	00100593          	li	a1,1
    80001d28:	03659593          	slli	a1,a1,0x36
    80001d2c:	00b52633          	slt	a2,a0,a1
    80001d30:	46c13423          	sd	a2,1128(sp)
    80001d34:	00000693          	li	a3,0
    80001d38:	00c68463          	beq	a3,a2,80001d40 <inst_160>
    80001d3c:	ae8fe06f          	j	80000024 <rvtest_error>

0000000080001d40 <inst_160>:
    80001d40:	00100513          	li	a0,1
    80001d44:	03951513          	slli	a0,a0,0x39
    80001d48:	00100593          	li	a1,1
    80001d4c:	03059593          	slli	a1,a1,0x30
    80001d50:	00b52633          	slt	a2,a0,a1
    80001d54:	46c13823          	sd	a2,1136(sp)
    80001d58:	00000693          	li	a3,0
    80001d5c:	00c68463          	beq	a3,a2,80001d64 <inst_161>
    80001d60:	ac4fe06f          	j	80000024 <rvtest_error>

0000000080001d64 <inst_161>:
    80001d64:	00100513          	li	a0,1
    80001d68:	03b51513          	slli	a0,a0,0x3b
    80001d6c:	00400593          	li	a1,4
    80001d70:	00b52633          	slt	a2,a0,a1
    80001d74:	46c13c23          	sd	a2,1144(sp)
    80001d78:	00000693          	li	a3,0
    80001d7c:	00c68463          	beq	a3,a2,80001d84 <inst_162>
    80001d80:	aa4fe06f          	j	80000024 <rvtest_error>

0000000080001d84 <inst_162>:
    80001d84:	ffe00513          	li	a0,-2
    80001d88:	00100593          	li	a1,1
    80001d8c:	03259593          	slli	a1,a1,0x32
    80001d90:	fff5c593          	not	a1,a1
    80001d94:	00b52633          	slt	a2,a0,a1
    80001d98:	48c13023          	sd	a2,1152(sp)
    80001d9c:	00000693          	li	a3,0
    80001da0:	00c68463          	beq	a3,a2,80001da8 <inst_163>
    80001da4:	a80fe06f          	j	80000024 <rvtest_error>

0000000080001da8 <inst_163>:
    80001da8:	fdf00513          	li	a0,-33
    80001dac:	00200593          	li	a1,2
    80001db0:	00b52633          	slt	a2,a0,a1
    80001db4:	48c13423          	sd	a2,1160(sp)
    80001db8:	00100693          	li	a3,1
    80001dbc:	00c68463          	beq	a3,a2,80001dc4 <inst_164>
    80001dc0:	a64fe06f          	j	80000024 <rvtest_error>

0000000080001dc4 <inst_164>:
    80001dc4:	fbf00513          	li	a0,-65
    80001dc8:	ff900593          	li	a1,-7
    80001dcc:	00b52633          	slt	a2,a0,a1
    80001dd0:	48c13823          	sd	a2,1168(sp)
    80001dd4:	00100693          	li	a3,1
    80001dd8:	00c68463          	beq	a3,a2,80001de0 <inst_165>
    80001ddc:	a48fe06f          	j	80000024 <rvtest_error>

0000000080001de0 <inst_165>:
    80001de0:	f7f00513          	li	a0,-129
    80001de4:	555555b7          	lui	a1,0x55555
    80001de8:	55558593          	addi	a1,a1,1365 # 55555555 <absimmsh+0x49a847a8>
    80001dec:	00b59593          	slli	a1,a1,0xb
    80001df0:	2aa58593          	addi	a1,a1,682
    80001df4:	00b59593          	slli	a1,a1,0xb
    80001df8:	55558593          	addi	a1,a1,1365
    80001dfc:	00a59593          	slli	a1,a1,0xa
    80001e00:	15458593          	addi	a1,a1,340
    80001e04:	00b52633          	slt	a2,a0,a1
    80001e08:	48c13c23          	sd	a2,1176(sp)
    80001e0c:	00100693          	li	a3,1
    80001e10:	00c68463          	beq	a3,a2,80001e18 <inst_166>
    80001e14:	a10fe06f          	j	80000024 <rvtest_error>

0000000080001e18 <inst_166>:
    80001e18:	eff00513          	li	a0,-257
    80001e1c:	00000593          	li	a1,0
    80001e20:	00b52633          	slt	a2,a0,a1
    80001e24:	4ac13023          	sd	a2,1184(sp)
    80001e28:	00100693          	li	a3,1
    80001e2c:	00c68463          	beq	a3,a2,80001e34 <inst_167>
    80001e30:	9f4fe06f          	j	80000024 <rvtest_error>

0000000080001e34 <inst_167>:
    80001e34:	00100513          	li	a0,1
    80001e38:	00b51513          	slli	a0,a0,0xb
    80001e3c:	fff54513          	not	a0,a0
    80001e40:	ff700593          	li	a1,-9
    80001e44:	00b52633          	slt	a2,a0,a1
    80001e48:	4ac13423          	sd	a2,1192(sp)
    80001e4c:	00100693          	li	a3,1
    80001e50:	00c68463          	beq	a3,a2,80001e58 <inst_168>
    80001e54:	9d0fe06f          	j	80000024 <rvtest_error>

0000000080001e58 <inst_168>:
    80001e58:	00100513          	li	a0,1
    80001e5c:	00c51513          	slli	a0,a0,0xc
    80001e60:	fff54513          	not	a0,a0
    80001e64:	00100593          	li	a1,1
    80001e68:	01259593          	slli	a1,a1,0x12
    80001e6c:	fff5c593          	not	a1,a1
    80001e70:	00b52633          	slt	a2,a0,a1
    80001e74:	4ac13823          	sd	a2,1200(sp)
    80001e78:	00000693          	li	a3,0
    80001e7c:	00c68463          	beq	a3,a2,80001e84 <inst_169>
    80001e80:	9a4fe06f          	j	80000024 <rvtest_error>

0000000080001e84 <inst_169>:
    80001e84:	00100513          	li	a0,1
    80001e88:	00e51513          	slli	a0,a0,0xe
    80001e8c:	fff54513          	not	a0,a0
    80001e90:	00100593          	li	a1,1
    80001e94:	03459593          	slli	a1,a1,0x34
    80001e98:	00b52633          	slt	a2,a0,a1
    80001e9c:	4ac13c23          	sd	a2,1208(sp)
    80001ea0:	00100693          	li	a3,1
    80001ea4:	00c68463          	beq	a3,a2,80001eac <inst_170>
    80001ea8:	97cfe06f          	j	80000024 <rvtest_error>

0000000080001eac <inst_170>:
    80001eac:	00100513          	li	a0,1
    80001eb0:	00f51513          	slli	a0,a0,0xf
    80001eb4:	fff54513          	not	a0,a0
    80001eb8:	00100593          	li	a1,1
    80001ebc:	02a59593          	slli	a1,a1,0x2a
    80001ec0:	fff5c593          	not	a1,a1
    80001ec4:	00b52633          	slt	a2,a0,a1
    80001ec8:	4cc13023          	sd	a2,1216(sp)
    80001ecc:	00000693          	li	a3,0
    80001ed0:	00c68463          	beq	a3,a2,80001ed8 <inst_171>
    80001ed4:	950fe06f          	j	80000024 <rvtest_error>

0000000080001ed8 <inst_171>:
    80001ed8:	00100513          	li	a0,1
    80001edc:	01151513          	slli	a0,a0,0x11
    80001ee0:	fff54513          	not	a0,a0
    80001ee4:	00100593          	li	a1,1
    80001ee8:	02959593          	slli	a1,a1,0x29
    80001eec:	fff5c593          	not	a1,a1
    80001ef0:	00b52633          	slt	a2,a0,a1
    80001ef4:	4cc13423          	sd	a2,1224(sp)
    80001ef8:	00000693          	li	a3,0
    80001efc:	00c68463          	beq	a3,a2,80001f04 <inst_172>
    80001f00:	924fe06f          	j	80000024 <rvtest_error>

0000000080001f04 <inst_172>:
    80001f04:	00100513          	li	a0,1
    80001f08:	01651513          	slli	a0,a0,0x16
    80001f0c:	fff54513          	not	a0,a0
    80001f10:	08000593          	li	a1,128
    80001f14:	00b52633          	slt	a2,a0,a1
    80001f18:	4cc13823          	sd	a2,1232(sp)
    80001f1c:	00100693          	li	a3,1
    80001f20:	00c68463          	beq	a3,a2,80001f28 <inst_173>
    80001f24:	900fe06f          	j	80000024 <rvtest_error>

0000000080001f28 <inst_173>:
    80001f28:	00100513          	li	a0,1
    80001f2c:	01751513          	slli	a0,a0,0x17
    80001f30:	fff54513          	not	a0,a0
    80001f34:	04000593          	li	a1,64
    80001f38:	00b52633          	slt	a2,a0,a1
    80001f3c:	4cc13c23          	sd	a2,1240(sp)
    80001f40:	00100693          	li	a3,1
    80001f44:	00c68463          	beq	a3,a2,80001f4c <inst_174>
    80001f48:	8dcfe06f          	j	80000024 <rvtest_error>

0000000080001f4c <inst_174>:
    80001f4c:	00100513          	li	a0,1
    80001f50:	01851513          	slli	a0,a0,0x18
    80001f54:	fff54513          	not	a0,a0
    80001f58:	04000593          	li	a1,64
    80001f5c:	00b52633          	slt	a2,a0,a1
    80001f60:	4ec13023          	sd	a2,1248(sp)
    80001f64:	00100693          	li	a3,1
    80001f68:	00c68463          	beq	a3,a2,80001f70 <inst_175>
    80001f6c:	8b8fe06f          	j	80000024 <rvtest_error>

0000000080001f70 <inst_175>:
    80001f70:	00100513          	li	a0,1
    80001f74:	01b51513          	slli	a0,a0,0x1b
    80001f78:	fff54513          	not	a0,a0
    80001f7c:	00100593          	li	a1,1
    80001f80:	03559593          	slli	a1,a1,0x35
    80001f84:	fff5c593          	not	a1,a1
    80001f88:	00b52633          	slt	a2,a0,a1
    80001f8c:	4ec13423          	sd	a2,1256(sp)
    80001f90:	00000693          	li	a3,0
    80001f94:	00c68463          	beq	a3,a2,80001f9c <inst_176>
    80001f98:	88cfe06f          	j	80000024 <rvtest_error>

0000000080001f9c <inst_176>:
    80001f9c:	00100513          	li	a0,1
    80001fa0:	01c51513          	slli	a0,a0,0x1c
    80001fa4:	fff54513          	not	a0,a0
    80001fa8:	00100593          	li	a1,1
    80001fac:	02b59593          	slli	a1,a1,0x2b
    80001fb0:	00b52633          	slt	a2,a0,a1
    80001fb4:	4ec13823          	sd	a2,1264(sp)
    80001fb8:	00100693          	li	a3,1
    80001fbc:	00c68463          	beq	a3,a2,80001fc4 <inst_177>
    80001fc0:	864fe06f          	j	80000024 <rvtest_error>

0000000080001fc4 <inst_177>:
    80001fc4:	00100513          	li	a0,1
    80001fc8:	01d51513          	slli	a0,a0,0x1d
    80001fcc:	fff54513          	not	a0,a0
    80001fd0:	00100593          	li	a1,1
    80001fd4:	03b59593          	slli	a1,a1,0x3b
    80001fd8:	00b52633          	slt	a2,a0,a1
    80001fdc:	4ec13c23          	sd	a2,1272(sp)
    80001fe0:	00100693          	li	a3,1
    80001fe4:	00c68463          	beq	a3,a2,80001fec <inst_178>
    80001fe8:	83cfe06f          	j	80000024 <rvtest_error>

0000000080001fec <inst_178>:
    80001fec:	00100513          	li	a0,1
    80001ff0:	01f51513          	slli	a0,a0,0x1f
    80001ff4:	fff54513          	not	a0,a0
    80001ff8:	00100593          	li	a1,1
    80001ffc:	01759593          	slli	a1,a1,0x17
    80002000:	00b52633          	slt	a2,a0,a1
    80002004:	50c13023          	sd	a2,1280(sp)
    80002008:	00100693          	li	a3,1
    8000200c:	00c68463          	beq	a3,a2,80002014 <inst_179>
    80002010:	814fe06f          	j	80000024 <rvtest_error>

0000000080002014 <inst_179>:
    80002014:	00100513          	li	a0,1
    80002018:	02451513          	slli	a0,a0,0x24
    8000201c:	fff54513          	not	a0,a0
    80002020:	00100593          	li	a1,1
    80002024:	02859593          	slli	a1,a1,0x28
    80002028:	fff5c593          	not	a1,a1
    8000202c:	00b52633          	slt	a2,a0,a1
    80002030:	50c13423          	sd	a2,1288(sp)
    80002034:	00000693          	li	a3,0
    80002038:	00c68463          	beq	a3,a2,80002040 <inst_180>
    8000203c:	fe9fd06f          	j	80000024 <rvtest_error>

0000000080002040 <inst_180>:
    80002040:	00100513          	li	a0,1
    80002044:	02551513          	slli	a0,a0,0x25
    80002048:	fff54513          	not	a0,a0
    8000204c:	10000593          	li	a1,256
    80002050:	00b52633          	slt	a2,a0,a1
    80002054:	50c13823          	sd	a2,1296(sp)
    80002058:	00100693          	li	a3,1
    8000205c:	00c68463          	beq	a3,a2,80002064 <inst_181>
    80002060:	fc5fd06f          	j	80000024 <rvtest_error>

0000000080002064 <inst_181>:
    80002064:	00100513          	li	a0,1
    80002068:	02851513          	slli	a0,a0,0x28
    8000206c:	fff54513          	not	a0,a0
    80002070:	00100593          	li	a1,1
    80002074:	01059593          	slli	a1,a1,0x10
    80002078:	fff5c593          	not	a1,a1
    8000207c:	00b52633          	slt	a2,a0,a1
    80002080:	50c13c23          	sd	a2,1304(sp)
    80002084:	00100693          	li	a3,1
    80002088:	00c68463          	beq	a3,a2,80002090 <inst_182>
    8000208c:	f99fd06f          	j	80000024 <rvtest_error>

0000000080002090 <inst_182>:
    80002090:	00100513          	li	a0,1
    80002094:	02951513          	slli	a0,a0,0x29
    80002098:	fff54513          	not	a0,a0
    8000209c:	00100593          	li	a1,1
    800020a0:	02359593          	slli	a1,a1,0x23
    800020a4:	fff5c593          	not	a1,a1
    800020a8:	00b52633          	slt	a2,a0,a1
    800020ac:	52c13023          	sd	a2,1312(sp)
    800020b0:	00100693          	li	a3,1
    800020b4:	00c68463          	beq	a3,a2,800020bc <inst_183>
    800020b8:	f6dfd06f          	j	80000024 <rvtest_error>

00000000800020bc <inst_183>:
    800020bc:	00100513          	li	a0,1
    800020c0:	02a51513          	slli	a0,a0,0x2a
    800020c4:	fff54513          	not	a0,a0
    800020c8:	00100593          	li	a1,1
    800020cc:	03059593          	slli	a1,a1,0x30
    800020d0:	00b52633          	slt	a2,a0,a1
    800020d4:	52c13423          	sd	a2,1320(sp)
    800020d8:	00100693          	li	a3,1
    800020dc:	00c68463          	beq	a3,a2,800020e4 <inst_184>
    800020e0:	f45fd06f          	j	80000024 <rvtest_error>

00000000800020e4 <inst_184>:
    800020e4:	00100513          	li	a0,1
    800020e8:	02d51513          	slli	a0,a0,0x2d
    800020ec:	fff54513          	not	a0,a0
    800020f0:	000005b7          	lui	a1,0x0
    800020f4:	00058593          	mv	a1,a1
    800020f8:	00b59593          	slli	a1,a1,0xb
    800020fc:	5a858593          	addi	a1,a1,1448 # 5a8 <offset+0x118>
    80002100:	00b59593          	slli	a1,a1,0xb
    80002104:	13c58593          	addi	a1,a1,316
    80002108:	00a59593          	slli	a1,a1,0xa
    8000210c:	33258593          	addi	a1,a1,818
    80002110:	00b52633          	slt	a2,a0,a1
    80002114:	52c13823          	sd	a2,1328(sp)
    80002118:	00100693          	li	a3,1
    8000211c:	00c68463          	beq	a3,a2,80002124 <inst_185>
    80002120:	f05fd06f          	j	80000024 <rvtest_error>

0000000080002124 <inst_185>:
    80002124:	00100513          	li	a0,1
    80002128:	02f51513          	slli	a0,a0,0x2f
    8000212c:	fff54513          	not	a0,a0
    80002130:	00200593          	li	a1,2
    80002134:	00b52633          	slt	a2,a0,a1
    80002138:	52c13c23          	sd	a2,1336(sp)
    8000213c:	00100693          	li	a3,1
    80002140:	00c68463          	beq	a3,a2,80002148 <inst_186>
    80002144:	ee1fd06f          	j	80000024 <rvtest_error>

0000000080002148 <inst_186>:
    80002148:	00100513          	li	a0,1
    8000214c:	03651513          	slli	a0,a0,0x36
    80002150:	fff54513          	not	a0,a0
    80002154:	fff00593          	li	a1,-1
    80002158:	03e59593          	slli	a1,a1,0x3e
    8000215c:	00b52633          	slt	a2,a0,a1
    80002160:	54c13023          	sd	a2,1344(sp)
    80002164:	00000693          	li	a3,0
    80002168:	00c68463          	beq	a3,a2,80002170 <inst_187>
    8000216c:	eb9fd06f          	j	80000024 <rvtest_error>

0000000080002170 <inst_187>:
    80002170:	55555537          	lui	a0,0x55555
    80002174:	55550513          	addi	a0,a0,1365 # 55555555 <absimmsh+0x49a847a8>
    80002178:	00b51513          	slli	a0,a0,0xb
    8000217c:	2aa50513          	addi	a0,a0,682
    80002180:	00b51513          	slli	a0,a0,0xb
    80002184:	55550513          	addi	a0,a0,1365
    80002188:	00a51513          	slli	a0,a0,0xa
    8000218c:	15550513          	addi	a0,a0,341
    80002190:	00100593          	li	a1,1
    80002194:	02959593          	slli	a1,a1,0x29
    80002198:	fff5c593          	not	a1,a1
    8000219c:	00b52633          	slt	a2,a0,a1
    800021a0:	54c13423          	sd	a2,1352(sp)
    800021a4:	00000693          	li	a3,0
    800021a8:	00c68463          	beq	a3,a2,800021b0 <inst_188>
    800021ac:	e79fd06f          	j	80000024 <rvtest_error>

00000000800021b0 <inst_188>:
    800021b0:	00300513          	li	a0,3
    800021b4:	00300593          	li	a1,3
    800021b8:	00b52633          	slt	a2,a0,a1
    800021bc:	54c13823          	sd	a2,1360(sp)
    800021c0:	00000693          	li	a3,0
    800021c4:	00c68463          	beq	a3,a2,800021cc <inst_189>
    800021c8:	e5dfd06f          	j	80000024 <rvtest_error>

00000000800021cc <inst_189>:
    800021cc:	00300513          	li	a0,3
    800021d0:	555555b7          	lui	a1,0x55555
    800021d4:	55558593          	addi	a1,a1,1365 # 55555555 <absimmsh+0x49a847a8>
    800021d8:	00b59593          	slli	a1,a1,0xb
    800021dc:	2aa58593          	addi	a1,a1,682
    800021e0:	00b59593          	slli	a1,a1,0xb
    800021e4:	55558593          	addi	a1,a1,1365
    800021e8:	00a59593          	slli	a1,a1,0xa
    800021ec:	15558593          	addi	a1,a1,341
    800021f0:	00b52633          	slt	a2,a0,a1
    800021f4:	54c13c23          	sd	a2,1368(sp)
    800021f8:	00100693          	li	a3,1
    800021fc:	00c68463          	beq	a3,a2,80002204 <inst_190>
    80002200:	e25fd06f          	j	80000024 <rvtest_error>

0000000080002204 <inst_190>:
    80002204:	00300513          	li	a0,3
    80002208:	aaaab5b7          	lui	a1,0xaaaab
    8000220c:	aaa58593          	addi	a1,a1,-1366 # ffffffffaaaaaaaa <absimm+0xfffffffeefd9cfda>
    80002210:	00b59593          	slli	a1,a1,0xb
    80002214:	55558593          	addi	a1,a1,1365
    80002218:	00b59593          	slli	a1,a1,0xb
    8000221c:	2aa58593          	addi	a1,a1,682
    80002220:	00a59593          	slli	a1,a1,0xa
    80002224:	2aa58593          	addi	a1,a1,682
    80002228:	00b52633          	slt	a2,a0,a1
    8000222c:	56c13023          	sd	a2,1376(sp)
    80002230:	00000693          	li	a3,0
    80002234:	00c68463          	beq	a3,a2,8000223c <inst_191>
    80002238:	dedfd06f          	j	80000024 <rvtest_error>

000000008000223c <inst_191>:
    8000223c:	00300513          	li	a0,3
    80002240:	00500593          	li	a1,5
    80002244:	00b52633          	slt	a2,a0,a1
    80002248:	56c13423          	sd	a2,1384(sp)
    8000224c:	00100693          	li	a3,1
    80002250:	00c68463          	beq	a3,a2,80002258 <inst_192>
    80002254:	dd1fd06f          	j	80000024 <rvtest_error>

0000000080002258 <inst_192>:
    80002258:	00300513          	li	a0,3
    8000225c:	333335b7          	lui	a1,0x33333
    80002260:	33358593          	addi	a1,a1,819 # 33333333 <absimmsh+0x27862586>
    80002264:	00b59593          	slli	a1,a1,0xb
    80002268:	19958593          	addi	a1,a1,409
    8000226c:	00b59593          	slli	a1,a1,0xb
    80002270:	4cc58593          	addi	a1,a1,1228
    80002274:	00a59593          	slli	a1,a1,0xa
    80002278:	33358593          	addi	a1,a1,819
    8000227c:	00b52633          	slt	a2,a0,a1
    80002280:	56c13823          	sd	a2,1392(sp)
    80002284:	00100693          	li	a3,1
    80002288:	00c68463          	beq	a3,a2,80002290 <inst_193>
    8000228c:	d99fd06f          	j	80000024 <rvtest_error>

0000000080002290 <inst_193>:
    80002290:	00300513          	li	a0,3
    80002294:	666665b7          	lui	a1,0x66666
    80002298:	66658593          	addi	a1,a1,1638 # 66666666 <absimmsh+0x5ab958b9>
    8000229c:	00b59593          	slli	a1,a1,0xb
    800022a0:	33358593          	addi	a1,a1,819
    800022a4:	00b59593          	slli	a1,a1,0xb
    800022a8:	19958593          	addi	a1,a1,409
    800022ac:	00a59593          	slli	a1,a1,0xa
    800022b0:	26658593          	addi	a1,a1,614
    800022b4:	00b52633          	slt	a2,a0,a1
    800022b8:	56c13c23          	sd	a2,1400(sp)
    800022bc:	00100693          	li	a3,1
    800022c0:	00c68463          	beq	a3,a2,800022c8 <inst_194>
    800022c4:	d61fd06f          	j	80000024 <rvtest_error>

00000000800022c8 <inst_194>:
    800022c8:	00300513          	li	a0,3
    800022cc:	000005b7          	lui	a1,0x0
    800022d0:	fff58593          	addi	a1,a1,-1
    800022d4:	00b59593          	slli	a1,a1,0xb
    800022d8:	25758593          	addi	a1,a1,599
    800022dc:	00b59593          	slli	a1,a1,0xb
    800022e0:	6c358593          	addi	a1,a1,1731
    800022e4:	00a59593          	slli	a1,a1,0xa
    800022e8:	0cd58593          	addi	a1,a1,205
    800022ec:	00b52633          	slt	a2,a0,a1
    800022f0:	58c13023          	sd	a2,1408(sp)
    800022f4:	00000693          	li	a3,0
    800022f8:	00c68463          	beq	a3,a2,80002300 <inst_195>
    800022fc:	d29fd06f          	j	80000024 <rvtest_error>

0000000080002300 <inst_195>:
    80002300:	00300513          	li	a0,3
    80002304:	000005b7          	lui	a1,0x0
    80002308:	00058593          	mv	a1,a1
    8000230c:	00b59593          	slli	a1,a1,0xb
    80002310:	5a858593          	addi	a1,a1,1448 # 5a8 <offset+0x118>
    80002314:	00b59593          	slli	a1,a1,0xb
    80002318:	13c58593          	addi	a1,a1,316
    8000231c:	00a59593          	slli	a1,a1,0xa
    80002320:	33358593          	addi	a1,a1,819
    80002324:	00b52633          	slt	a2,a0,a1
    80002328:	58c13423          	sd	a2,1416(sp)
    8000232c:	00100693          	li	a3,1
    80002330:	00c68463          	beq	a3,a2,80002338 <inst_196>
    80002334:	cf1fd06f          	j	80000024 <rvtest_error>

0000000080002338 <inst_196>:
    80002338:	00300513          	li	a0,3
    8000233c:	00200593          	li	a1,2
    80002340:	00b52633          	slt	a2,a0,a1
    80002344:	58c13823          	sd	a2,1424(sp)
    80002348:	00000693          	li	a3,0
    8000234c:	00c68463          	beq	a3,a2,80002354 <inst_197>
    80002350:	cd5fd06f          	j	80000024 <rvtest_error>

0000000080002354 <inst_197>:
    80002354:	00300513          	li	a0,3
    80002358:	555555b7          	lui	a1,0x55555
    8000235c:	55558593          	addi	a1,a1,1365 # 55555555 <absimmsh+0x49a847a8>
    80002360:	00b59593          	slli	a1,a1,0xb
    80002364:	2aa58593          	addi	a1,a1,682
    80002368:	00b59593          	slli	a1,a1,0xb
    8000236c:	55558593          	addi	a1,a1,1365
    80002370:	00a59593          	slli	a1,a1,0xa
    80002374:	15458593          	addi	a1,a1,340
    80002378:	00b52633          	slt	a2,a0,a1
    8000237c:	58c13c23          	sd	a2,1432(sp)
    80002380:	00100693          	li	a3,1
    80002384:	00c68463          	beq	a3,a2,8000238c <inst_198>
    80002388:	c9dfd06f          	j	80000024 <rvtest_error>

000000008000238c <inst_198>:
    8000238c:	00300513          	li	a0,3
    80002390:	00000593          	li	a1,0
    80002394:	00b52633          	slt	a2,a0,a1
    80002398:	5ac13023          	sd	a2,1440(sp)
    8000239c:	00000693          	li	a3,0
    800023a0:	00c68463          	beq	a3,a2,800023a8 <inst_199>
    800023a4:	c81fd06f          	j	80000024 <rvtest_error>

00000000800023a8 <inst_199>:
    800023a8:	00300513          	li	a0,3
    800023ac:	00400593          	li	a1,4
    800023b0:	00b52633          	slt	a2,a0,a1
    800023b4:	5ac13423          	sd	a2,1448(sp)
    800023b8:	00100693          	li	a3,1
    800023bc:	00c68463          	beq	a3,a2,800023c4 <inst_200>
    800023c0:	c65fd06f          	j	80000024 <rvtest_error>

00000000800023c4 <inst_200>:
    800023c4:	00300513          	li	a0,3
    800023c8:	333335b7          	lui	a1,0x33333
    800023cc:	33358593          	addi	a1,a1,819 # 33333333 <absimmsh+0x27862586>
    800023d0:	00b59593          	slli	a1,a1,0xb
    800023d4:	19958593          	addi	a1,a1,409
    800023d8:	00b59593          	slli	a1,a1,0xb
    800023dc:	4cc58593          	addi	a1,a1,1228
    800023e0:	00a59593          	slli	a1,a1,0xa
    800023e4:	33258593          	addi	a1,a1,818
    800023e8:	00b52633          	slt	a2,a0,a1
    800023ec:	5ac13823          	sd	a2,1456(sp)
    800023f0:	00100693          	li	a3,1
    800023f4:	00c68463          	beq	a3,a2,800023fc <inst_201>
    800023f8:	c2dfd06f          	j	80000024 <rvtest_error>

00000000800023fc <inst_201>:
    800023fc:	00300513          	li	a0,3
    80002400:	666665b7          	lui	a1,0x66666
    80002404:	66658593          	addi	a1,a1,1638 # 66666666 <absimmsh+0x5ab958b9>
    80002408:	00b59593          	slli	a1,a1,0xb
    8000240c:	33358593          	addi	a1,a1,819
    80002410:	00b59593          	slli	a1,a1,0xb
    80002414:	19958593          	addi	a1,a1,409
    80002418:	00a59593          	slli	a1,a1,0xa
    8000241c:	26558593          	addi	a1,a1,613
    80002420:	00b52633          	slt	a2,a0,a1
    80002424:	5ac13c23          	sd	a2,1464(sp)
    80002428:	00100693          	li	a3,1
    8000242c:	00c68463          	beq	a3,a2,80002434 <inst_202>
    80002430:	bf5fd06f          	j	80000024 <rvtest_error>

0000000080002434 <inst_202>:
    80002434:	00300513          	li	a0,3
    80002438:	000005b7          	lui	a1,0x0
    8000243c:	00058593          	mv	a1,a1
    80002440:	00b59593          	slli	a1,a1,0xb
    80002444:	5a858593          	addi	a1,a1,1448 # 5a8 <offset+0x118>
    80002448:	00b59593          	slli	a1,a1,0xb
    8000244c:	13c58593          	addi	a1,a1,316
    80002450:	00a59593          	slli	a1,a1,0xa
    80002454:	33258593          	addi	a1,a1,818
    80002458:	00b52633          	slt	a2,a0,a1
    8000245c:	5cc13023          	sd	a2,1472(sp)
    80002460:	00100693          	li	a3,1
    80002464:	00c68463          	beq	a3,a2,8000246c <inst_203>
    80002468:	bbdfd06f          	j	80000024 <rvtest_error>

000000008000246c <inst_203>:
    8000246c:	00300513          	li	a0,3
    80002470:	555555b7          	lui	a1,0x55555
    80002474:	55558593          	addi	a1,a1,1365 # 55555555 <absimmsh+0x49a847a8>
    80002478:	00b59593          	slli	a1,a1,0xb
    8000247c:	2aa58593          	addi	a1,a1,682
    80002480:	00b59593          	slli	a1,a1,0xb
    80002484:	55558593          	addi	a1,a1,1365
    80002488:	00a59593          	slli	a1,a1,0xa
    8000248c:	15658593          	addi	a1,a1,342
    80002490:	00b52633          	slt	a2,a0,a1
    80002494:	5cc13423          	sd	a2,1480(sp)
    80002498:	00100693          	li	a3,1
    8000249c:	00c68463          	beq	a3,a2,800024a4 <inst_204>
    800024a0:	b85fd06f          	j	80000024 <rvtest_error>

00000000800024a4 <inst_204>:
    800024a4:	00300513          	li	a0,3
    800024a8:	aaaab5b7          	lui	a1,0xaaaab
    800024ac:	aaa58593          	addi	a1,a1,-1366 # ffffffffaaaaaaaa <absimm+0xfffffffeefd9cfda>
    800024b0:	00b59593          	slli	a1,a1,0xb
    800024b4:	55558593          	addi	a1,a1,1365
    800024b8:	00b59593          	slli	a1,a1,0xb
    800024bc:	2aa58593          	addi	a1,a1,682
    800024c0:	00a59593          	slli	a1,a1,0xa
    800024c4:	2ab58593          	addi	a1,a1,683
    800024c8:	00b52633          	slt	a2,a0,a1
    800024cc:	5cc13823          	sd	a2,1488(sp)
    800024d0:	00000693          	li	a3,0
    800024d4:	00c68463          	beq	a3,a2,800024dc <inst_205>
    800024d8:	b4dfd06f          	j	80000024 <rvtest_error>

00000000800024dc <inst_205>:
    800024dc:	00300513          	li	a0,3
    800024e0:	00600593          	li	a1,6
    800024e4:	00b52633          	slt	a2,a0,a1
    800024e8:	5cc13c23          	sd	a2,1496(sp)
    800024ec:	00100693          	li	a3,1
    800024f0:	00c68463          	beq	a3,a2,800024f8 <inst_206>
    800024f4:	b31fd06f          	j	80000024 <rvtest_error>

00000000800024f8 <inst_206>:
    800024f8:	00300513          	li	a0,3
    800024fc:	333335b7          	lui	a1,0x33333
    80002500:	33358593          	addi	a1,a1,819 # 33333333 <absimmsh+0x27862586>
    80002504:	00b59593          	slli	a1,a1,0xb
    80002508:	19958593          	addi	a1,a1,409
    8000250c:	00b59593          	slli	a1,a1,0xb
    80002510:	4cc58593          	addi	a1,a1,1228
    80002514:	00a59593          	slli	a1,a1,0xa
    80002518:	33458593          	addi	a1,a1,820
    8000251c:	00b52633          	slt	a2,a0,a1
    80002520:	5ec13023          	sd	a2,1504(sp)
    80002524:	00100693          	li	a3,1
    80002528:	00c68463          	beq	a3,a2,80002530 <inst_207>
    8000252c:	af9fd06f          	j	80000024 <rvtest_error>

0000000080002530 <inst_207>:
    80002530:	00300513          	li	a0,3
    80002534:	666665b7          	lui	a1,0x66666
    80002538:	66658593          	addi	a1,a1,1638 # 66666666 <absimmsh+0x5ab958b9>
    8000253c:	00b59593          	slli	a1,a1,0xb
    80002540:	33358593          	addi	a1,a1,819
    80002544:	00b59593          	slli	a1,a1,0xb
    80002548:	19958593          	addi	a1,a1,409
    8000254c:	00a59593          	slli	a1,a1,0xa
    80002550:	26758593          	addi	a1,a1,615
    80002554:	00b52633          	slt	a2,a0,a1
    80002558:	5ec13423          	sd	a2,1512(sp)
    8000255c:	00100693          	li	a3,1
    80002560:	00c68463          	beq	a3,a2,80002568 <inst_208>
    80002564:	ac1fd06f          	j	80000024 <rvtest_error>

0000000080002568 <inst_208>:
    80002568:	00300513          	li	a0,3
    8000256c:	000005b7          	lui	a1,0x0
    80002570:	fff58593          	addi	a1,a1,-1
    80002574:	00b59593          	slli	a1,a1,0xb
    80002578:	25758593          	addi	a1,a1,599
    8000257c:	00b59593          	slli	a1,a1,0xb
    80002580:	6c358593          	addi	a1,a1,1731
    80002584:	00a59593          	slli	a1,a1,0xa
    80002588:	0ce58593          	addi	a1,a1,206
    8000258c:	00b52633          	slt	a2,a0,a1
    80002590:	5ec13823          	sd	a2,1520(sp)
    80002594:	00000693          	li	a3,0
    80002598:	00c68463          	beq	a3,a2,800025a0 <inst_209>
    8000259c:	a89fd06f          	j	80000024 <rvtest_error>

00000000800025a0 <inst_209>:
    800025a0:	00300513          	li	a0,3
    800025a4:	000005b7          	lui	a1,0x0
    800025a8:	00058593          	mv	a1,a1
    800025ac:	00b59593          	slli	a1,a1,0xb
    800025b0:	5a858593          	addi	a1,a1,1448 # 5a8 <offset+0x118>
    800025b4:	00b59593          	slli	a1,a1,0xb
    800025b8:	13c58593          	addi	a1,a1,316
    800025bc:	00a59593          	slli	a1,a1,0xa
    800025c0:	33458593          	addi	a1,a1,820
    800025c4:	00b52633          	slt	a2,a0,a1
    800025c8:	5ec13c23          	sd	a2,1528(sp)
    800025cc:	00100693          	li	a3,1
    800025d0:	00c68463          	beq	a3,a2,800025d8 <inst_210>
    800025d4:	a51fd06f          	j	80000024 <rvtest_error>

00000000800025d8 <inst_210>:
    800025d8:	55555537          	lui	a0,0x55555
    800025dc:	55550513          	addi	a0,a0,1365 # 55555555 <absimmsh+0x49a847a8>
    800025e0:	00b51513          	slli	a0,a0,0xb
    800025e4:	2aa50513          	addi	a0,a0,682
    800025e8:	00b51513          	slli	a0,a0,0xb
    800025ec:	55550513          	addi	a0,a0,1365
    800025f0:	00a51513          	slli	a0,a0,0xa
    800025f4:	15550513          	addi	a0,a0,341
    800025f8:	00300593          	li	a1,3
    800025fc:	00b52633          	slt	a2,a0,a1
    80002600:	60c13023          	sd	a2,1536(sp)
    80002604:	00000693          	li	a3,0
    80002608:	00c68463          	beq	a3,a2,80002610 <inst_211>
    8000260c:	a19fd06f          	j	80000024 <rvtest_error>

0000000080002610 <inst_211>:
    80002610:	55555537          	lui	a0,0x55555
    80002614:	55550513          	addi	a0,a0,1365 # 55555555 <absimmsh+0x49a847a8>
    80002618:	00b51513          	slli	a0,a0,0xb
    8000261c:	2aa50513          	addi	a0,a0,682
    80002620:	00b51513          	slli	a0,a0,0xb
    80002624:	55550513          	addi	a0,a0,1365
    80002628:	00a51513          	slli	a0,a0,0xa
    8000262c:	15550513          	addi	a0,a0,341
    80002630:	555555b7          	lui	a1,0x55555
    80002634:	55558593          	addi	a1,a1,1365 # 55555555 <absimmsh+0x49a847a8>
    80002638:	00b59593          	slli	a1,a1,0xb
    8000263c:	2aa58593          	addi	a1,a1,682
    80002640:	00b59593          	slli	a1,a1,0xb
    80002644:	55558593          	addi	a1,a1,1365
    80002648:	00a59593          	slli	a1,a1,0xa
    8000264c:	15558593          	addi	a1,a1,341
    80002650:	00b52633          	slt	a2,a0,a1
    80002654:	60c13423          	sd	a2,1544(sp)
    80002658:	00000693          	li	a3,0
    8000265c:	00c68463          	beq	a3,a2,80002664 <inst_212>
    80002660:	9c5fd06f          	j	80000024 <rvtest_error>

0000000080002664 <inst_212>:
    80002664:	55555537          	lui	a0,0x55555
    80002668:	55550513          	addi	a0,a0,1365 # 55555555 <absimmsh+0x49a847a8>
    8000266c:	00b51513          	slli	a0,a0,0xb
    80002670:	2aa50513          	addi	a0,a0,682
    80002674:	00b51513          	slli	a0,a0,0xb
    80002678:	55550513          	addi	a0,a0,1365
    8000267c:	00a51513          	slli	a0,a0,0xa
    80002680:	15550513          	addi	a0,a0,341
    80002684:	aaaab5b7          	lui	a1,0xaaaab
    80002688:	aaa58593          	addi	a1,a1,-1366 # ffffffffaaaaaaaa <absimm+0xfffffffeefd9cfda>
    8000268c:	00b59593          	slli	a1,a1,0xb
    80002690:	55558593          	addi	a1,a1,1365
    80002694:	00b59593          	slli	a1,a1,0xb
    80002698:	2aa58593          	addi	a1,a1,682
    8000269c:	00a59593          	slli	a1,a1,0xa
    800026a0:	2aa58593          	addi	a1,a1,682
    800026a4:	00b52633          	slt	a2,a0,a1
    800026a8:	60c13823          	sd	a2,1552(sp)
    800026ac:	00000693          	li	a3,0
    800026b0:	00c68463          	beq	a3,a2,800026b8 <inst_213>
    800026b4:	971fd06f          	j	80000024 <rvtest_error>

00000000800026b8 <inst_213>:
    800026b8:	55555537          	lui	a0,0x55555
    800026bc:	55550513          	addi	a0,a0,1365 # 55555555 <absimmsh+0x49a847a8>
    800026c0:	00b51513          	slli	a0,a0,0xb
    800026c4:	2aa50513          	addi	a0,a0,682
    800026c8:	00b51513          	slli	a0,a0,0xb
    800026cc:	55550513          	addi	a0,a0,1365
    800026d0:	00a51513          	slli	a0,a0,0xa
    800026d4:	15550513          	addi	a0,a0,341
    800026d8:	00500593          	li	a1,5
    800026dc:	00b52633          	slt	a2,a0,a1
    800026e0:	60c13c23          	sd	a2,1560(sp)
    800026e4:	00000693          	li	a3,0
    800026e8:	00c68463          	beq	a3,a2,800026f0 <inst_214>
    800026ec:	939fd06f          	j	80000024 <rvtest_error>

00000000800026f0 <inst_214>:
    800026f0:	55555537          	lui	a0,0x55555
    800026f4:	55550513          	addi	a0,a0,1365 # 55555555 <absimmsh+0x49a847a8>
    800026f8:	00b51513          	slli	a0,a0,0xb
    800026fc:	2aa50513          	addi	a0,a0,682
    80002700:	00b51513          	slli	a0,a0,0xb
    80002704:	55550513          	addi	a0,a0,1365
    80002708:	00a51513          	slli	a0,a0,0xa
    8000270c:	15550513          	addi	a0,a0,341
    80002710:	333335b7          	lui	a1,0x33333
    80002714:	33358593          	addi	a1,a1,819 # 33333333 <absimmsh+0x27862586>
    80002718:	00b59593          	slli	a1,a1,0xb
    8000271c:	19958593          	addi	a1,a1,409
    80002720:	00b59593          	slli	a1,a1,0xb
    80002724:	4cc58593          	addi	a1,a1,1228
    80002728:	00a59593          	slli	a1,a1,0xa
    8000272c:	33358593          	addi	a1,a1,819
    80002730:	00b52633          	slt	a2,a0,a1
    80002734:	62c13023          	sd	a2,1568(sp)
    80002738:	00000693          	li	a3,0
    8000273c:	00c68463          	beq	a3,a2,80002744 <inst_215>
    80002740:	8e5fd06f          	j	80000024 <rvtest_error>

0000000080002744 <inst_215>:
    80002744:	55555537          	lui	a0,0x55555
    80002748:	55550513          	addi	a0,a0,1365 # 55555555 <absimmsh+0x49a847a8>
    8000274c:	00b51513          	slli	a0,a0,0xb
    80002750:	2aa50513          	addi	a0,a0,682
    80002754:	00b51513          	slli	a0,a0,0xb
    80002758:	55550513          	addi	a0,a0,1365
    8000275c:	00a51513          	slli	a0,a0,0xa
    80002760:	15550513          	addi	a0,a0,341
    80002764:	666665b7          	lui	a1,0x66666
    80002768:	66658593          	addi	a1,a1,1638 # 66666666 <absimmsh+0x5ab958b9>
    8000276c:	00b59593          	slli	a1,a1,0xb
    80002770:	33358593          	addi	a1,a1,819
    80002774:	00b59593          	slli	a1,a1,0xb
    80002778:	19958593          	addi	a1,a1,409
    8000277c:	00a59593          	slli	a1,a1,0xa
    80002780:	26658593          	addi	a1,a1,614
    80002784:	00b52633          	slt	a2,a0,a1
    80002788:	62c13423          	sd	a2,1576(sp)
    8000278c:	00100693          	li	a3,1
    80002790:	00c68463          	beq	a3,a2,80002798 <inst_216>
    80002794:	891fd06f          	j	80000024 <rvtest_error>

0000000080002798 <inst_216>:
    80002798:	55555537          	lui	a0,0x55555
    8000279c:	55550513          	addi	a0,a0,1365 # 55555555 <absimmsh+0x49a847a8>
    800027a0:	00b51513          	slli	a0,a0,0xb
    800027a4:	2aa50513          	addi	a0,a0,682
    800027a8:	00b51513          	slli	a0,a0,0xb
    800027ac:	55550513          	addi	a0,a0,1365
    800027b0:	00a51513          	slli	a0,a0,0xa
    800027b4:	15550513          	addi	a0,a0,341
    800027b8:	000005b7          	lui	a1,0x0
    800027bc:	fff58593          	addi	a1,a1,-1
    800027c0:	00b59593          	slli	a1,a1,0xb
    800027c4:	25758593          	addi	a1,a1,599
    800027c8:	00b59593          	slli	a1,a1,0xb
    800027cc:	6c358593          	addi	a1,a1,1731
    800027d0:	00a59593          	slli	a1,a1,0xa
    800027d4:	0cd58593          	addi	a1,a1,205
    800027d8:	00b52633          	slt	a2,a0,a1
    800027dc:	62c13823          	sd	a2,1584(sp)
    800027e0:	00000693          	li	a3,0
    800027e4:	00c68463          	beq	a3,a2,800027ec <inst_217>
    800027e8:	83dfd06f          	j	80000024 <rvtest_error>

00000000800027ec <inst_217>:
    800027ec:	55555537          	lui	a0,0x55555
    800027f0:	55550513          	addi	a0,a0,1365 # 55555555 <absimmsh+0x49a847a8>
    800027f4:	00b51513          	slli	a0,a0,0xb
    800027f8:	2aa50513          	addi	a0,a0,682
    800027fc:	00b51513          	slli	a0,a0,0xb
    80002800:	55550513          	addi	a0,a0,1365
    80002804:	00a51513          	slli	a0,a0,0xa
    80002808:	15550513          	addi	a0,a0,341
    8000280c:	000005b7          	lui	a1,0x0
    80002810:	00058593          	mv	a1,a1
    80002814:	00b59593          	slli	a1,a1,0xb
    80002818:	5a858593          	addi	a1,a1,1448 # 5a8 <offset+0x118>
    8000281c:	00b59593          	slli	a1,a1,0xb
    80002820:	13c58593          	addi	a1,a1,316
    80002824:	00a59593          	slli	a1,a1,0xa
    80002828:	33358593          	addi	a1,a1,819
    8000282c:	00b52633          	slt	a2,a0,a1
    80002830:	62c13c23          	sd	a2,1592(sp)
    80002834:	00000693          	li	a3,0
    80002838:	00c68463          	beq	a3,a2,80002840 <inst_218>
    8000283c:	fe8fd06f          	j	80000024 <rvtest_error>

0000000080002840 <inst_218>:
    80002840:	55555537          	lui	a0,0x55555
    80002844:	55550513          	addi	a0,a0,1365 # 55555555 <absimmsh+0x49a847a8>
    80002848:	00b51513          	slli	a0,a0,0xb
    8000284c:	2aa50513          	addi	a0,a0,682
    80002850:	00b51513          	slli	a0,a0,0xb
    80002854:	55550513          	addi	a0,a0,1365
    80002858:	00a51513          	slli	a0,a0,0xa
    8000285c:	15550513          	addi	a0,a0,341
    80002860:	00200593          	li	a1,2
    80002864:	00b52633          	slt	a2,a0,a1
    80002868:	64c13023          	sd	a2,1600(sp)
    8000286c:	00000693          	li	a3,0
    80002870:	00c68463          	beq	a3,a2,80002878 <inst_219>
    80002874:	fb0fd06f          	j	80000024 <rvtest_error>

0000000080002878 <inst_219>:
    80002878:	55555537          	lui	a0,0x55555
    8000287c:	55550513          	addi	a0,a0,1365 # 55555555 <absimmsh+0x49a847a8>
    80002880:	00b51513          	slli	a0,a0,0xb
    80002884:	2aa50513          	addi	a0,a0,682
    80002888:	00b51513          	slli	a0,a0,0xb
    8000288c:	55550513          	addi	a0,a0,1365
    80002890:	00a51513          	slli	a0,a0,0xa
    80002894:	15550513          	addi	a0,a0,341
    80002898:	555555b7          	lui	a1,0x55555
    8000289c:	55558593          	addi	a1,a1,1365 # 55555555 <absimmsh+0x49a847a8>
    800028a0:	00b59593          	slli	a1,a1,0xb
    800028a4:	2aa58593          	addi	a1,a1,682
    800028a8:	00b59593          	slli	a1,a1,0xb
    800028ac:	55558593          	addi	a1,a1,1365
    800028b0:	00a59593          	slli	a1,a1,0xa
    800028b4:	15458593          	addi	a1,a1,340
    800028b8:	00b52633          	slt	a2,a0,a1
    800028bc:	64c13423          	sd	a2,1608(sp)
    800028c0:	00000693          	li	a3,0
    800028c4:	00c68463          	beq	a3,a2,800028cc <inst_220>
    800028c8:	f5cfd06f          	j	80000024 <rvtest_error>

00000000800028cc <inst_220>:
    800028cc:	55555537          	lui	a0,0x55555
    800028d0:	55550513          	addi	a0,a0,1365 # 55555555 <absimmsh+0x49a847a8>
    800028d4:	00b51513          	slli	a0,a0,0xb
    800028d8:	2aa50513          	addi	a0,a0,682
    800028dc:	00b51513          	slli	a0,a0,0xb
    800028e0:	55550513          	addi	a0,a0,1365
    800028e4:	00a51513          	slli	a0,a0,0xa
    800028e8:	15550513          	addi	a0,a0,341
    800028ec:	00000593          	li	a1,0
    800028f0:	00b52633          	slt	a2,a0,a1
    800028f4:	64c13823          	sd	a2,1616(sp)
    800028f8:	00000693          	li	a3,0
    800028fc:	00c68463          	beq	a3,a2,80002904 <inst_221>
    80002900:	f24fd06f          	j	80000024 <rvtest_error>

0000000080002904 <inst_221>:
    80002904:	55555537          	lui	a0,0x55555
    80002908:	55550513          	addi	a0,a0,1365 # 55555555 <absimmsh+0x49a847a8>
    8000290c:	00b51513          	slli	a0,a0,0xb
    80002910:	2aa50513          	addi	a0,a0,682
    80002914:	00b51513          	slli	a0,a0,0xb
    80002918:	55550513          	addi	a0,a0,1365
    8000291c:	00a51513          	slli	a0,a0,0xa
    80002920:	15550513          	addi	a0,a0,341
    80002924:	00400593          	li	a1,4
    80002928:	00b52633          	slt	a2,a0,a1
    8000292c:	64c13c23          	sd	a2,1624(sp)
    80002930:	00000693          	li	a3,0
    80002934:	00c68463          	beq	a3,a2,8000293c <inst_222>
    80002938:	eecfd06f          	j	80000024 <rvtest_error>

000000008000293c <inst_222>:
    8000293c:	55555537          	lui	a0,0x55555
    80002940:	55550513          	addi	a0,a0,1365 # 55555555 <absimmsh+0x49a847a8>
    80002944:	00b51513          	slli	a0,a0,0xb
    80002948:	2aa50513          	addi	a0,a0,682
    8000294c:	00b51513          	slli	a0,a0,0xb
    80002950:	55550513          	addi	a0,a0,1365
    80002954:	00a51513          	slli	a0,a0,0xa
    80002958:	15550513          	addi	a0,a0,341
    8000295c:	333335b7          	lui	a1,0x33333
    80002960:	33358593          	addi	a1,a1,819 # 33333333 <absimmsh+0x27862586>
    80002964:	00b59593          	slli	a1,a1,0xb
    80002968:	19958593          	addi	a1,a1,409
    8000296c:	00b59593          	slli	a1,a1,0xb
    80002970:	4cc58593          	addi	a1,a1,1228
    80002974:	00a59593          	slli	a1,a1,0xa
    80002978:	33258593          	addi	a1,a1,818
    8000297c:	00b52633          	slt	a2,a0,a1
    80002980:	66c13023          	sd	a2,1632(sp)
    80002984:	00000693          	li	a3,0
    80002988:	00c68463          	beq	a3,a2,80002990 <inst_223>
    8000298c:	e98fd06f          	j	80000024 <rvtest_error>

0000000080002990 <inst_223>:
    80002990:	55555537          	lui	a0,0x55555
    80002994:	55550513          	addi	a0,a0,1365 # 55555555 <absimmsh+0x49a847a8>
    80002998:	00b51513          	slli	a0,a0,0xb
    8000299c:	2aa50513          	addi	a0,a0,682
    800029a0:	00b51513          	slli	a0,a0,0xb
    800029a4:	55550513          	addi	a0,a0,1365
    800029a8:	00a51513          	slli	a0,a0,0xa
    800029ac:	15550513          	addi	a0,a0,341
    800029b0:	666665b7          	lui	a1,0x66666
    800029b4:	66658593          	addi	a1,a1,1638 # 66666666 <absimmsh+0x5ab958b9>
    800029b8:	00b59593          	slli	a1,a1,0xb
    800029bc:	33358593          	addi	a1,a1,819
    800029c0:	00b59593          	slli	a1,a1,0xb
    800029c4:	19958593          	addi	a1,a1,409
    800029c8:	00a59593          	slli	a1,a1,0xa
    800029cc:	26558593          	addi	a1,a1,613
    800029d0:	00b52633          	slt	a2,a0,a1
    800029d4:	66c13423          	sd	a2,1640(sp)
    800029d8:	00100693          	li	a3,1
    800029dc:	00c68463          	beq	a3,a2,800029e4 <inst_224>
    800029e0:	e44fd06f          	j	80000024 <rvtest_error>

00000000800029e4 <inst_224>:
    800029e4:	55555537          	lui	a0,0x55555
    800029e8:	55550513          	addi	a0,a0,1365 # 55555555 <absimmsh+0x49a847a8>
    800029ec:	00b51513          	slli	a0,a0,0xb
    800029f0:	2aa50513          	addi	a0,a0,682
    800029f4:	00b51513          	slli	a0,a0,0xb
    800029f8:	55550513          	addi	a0,a0,1365
    800029fc:	00a51513          	slli	a0,a0,0xa
    80002a00:	15550513          	addi	a0,a0,341
    80002a04:	000005b7          	lui	a1,0x0
    80002a08:	00058593          	mv	a1,a1
    80002a0c:	00b59593          	slli	a1,a1,0xb
    80002a10:	5a858593          	addi	a1,a1,1448 # 5a8 <offset+0x118>
    80002a14:	00b59593          	slli	a1,a1,0xb
    80002a18:	13c58593          	addi	a1,a1,316
    80002a1c:	00a59593          	slli	a1,a1,0xa
    80002a20:	33258593          	addi	a1,a1,818
    80002a24:	00b52633          	slt	a2,a0,a1
    80002a28:	66c13823          	sd	a2,1648(sp)
    80002a2c:	00000693          	li	a3,0
    80002a30:	00c68463          	beq	a3,a2,80002a38 <inst_225>
    80002a34:	df0fd06f          	j	80000024 <rvtest_error>

0000000080002a38 <inst_225>:
    80002a38:	55555537          	lui	a0,0x55555
    80002a3c:	55550513          	addi	a0,a0,1365 # 55555555 <absimmsh+0x49a847a8>
    80002a40:	00b51513          	slli	a0,a0,0xb
    80002a44:	2aa50513          	addi	a0,a0,682
    80002a48:	00b51513          	slli	a0,a0,0xb
    80002a4c:	55550513          	addi	a0,a0,1365
    80002a50:	00a51513          	slli	a0,a0,0xa
    80002a54:	15550513          	addi	a0,a0,341
    80002a58:	555555b7          	lui	a1,0x55555
    80002a5c:	55558593          	addi	a1,a1,1365 # 55555555 <absimmsh+0x49a847a8>
    80002a60:	00b59593          	slli	a1,a1,0xb
    80002a64:	2aa58593          	addi	a1,a1,682
    80002a68:	00b59593          	slli	a1,a1,0xb
    80002a6c:	55558593          	addi	a1,a1,1365
    80002a70:	00a59593          	slli	a1,a1,0xa
    80002a74:	15658593          	addi	a1,a1,342
    80002a78:	00b52633          	slt	a2,a0,a1
    80002a7c:	66c13c23          	sd	a2,1656(sp)
    80002a80:	00100693          	li	a3,1
    80002a84:	00c68463          	beq	a3,a2,80002a8c <inst_226>
    80002a88:	d9cfd06f          	j	80000024 <rvtest_error>

0000000080002a8c <inst_226>:
    80002a8c:	55555537          	lui	a0,0x55555
    80002a90:	55550513          	addi	a0,a0,1365 # 55555555 <absimmsh+0x49a847a8>
    80002a94:	00b51513          	slli	a0,a0,0xb
    80002a98:	2aa50513          	addi	a0,a0,682
    80002a9c:	00b51513          	slli	a0,a0,0xb
    80002aa0:	55550513          	addi	a0,a0,1365
    80002aa4:	00a51513          	slli	a0,a0,0xa
    80002aa8:	15550513          	addi	a0,a0,341
    80002aac:	aaaab5b7          	lui	a1,0xaaaab
    80002ab0:	aaa58593          	addi	a1,a1,-1366 # ffffffffaaaaaaaa <absimm+0xfffffffeefd9cfda>
    80002ab4:	00b59593          	slli	a1,a1,0xb
    80002ab8:	55558593          	addi	a1,a1,1365
    80002abc:	00b59593          	slli	a1,a1,0xb
    80002ac0:	2aa58593          	addi	a1,a1,682
    80002ac4:	00a59593          	slli	a1,a1,0xa
    80002ac8:	2ab58593          	addi	a1,a1,683
    80002acc:	00b52633          	slt	a2,a0,a1
    80002ad0:	68c13023          	sd	a2,1664(sp)
    80002ad4:	00000693          	li	a3,0
    80002ad8:	00c68463          	beq	a3,a2,80002ae0 <inst_227>
    80002adc:	d48fd06f          	j	80000024 <rvtest_error>

0000000080002ae0 <inst_227>:
    80002ae0:	55555537          	lui	a0,0x55555
    80002ae4:	55550513          	addi	a0,a0,1365 # 55555555 <absimmsh+0x49a847a8>
    80002ae8:	00b51513          	slli	a0,a0,0xb
    80002aec:	2aa50513          	addi	a0,a0,682
    80002af0:	00b51513          	slli	a0,a0,0xb
    80002af4:	55550513          	addi	a0,a0,1365
    80002af8:	00a51513          	slli	a0,a0,0xa
    80002afc:	15550513          	addi	a0,a0,341
    80002b00:	00600593          	li	a1,6
    80002b04:	00b52633          	slt	a2,a0,a1
    80002b08:	68c13423          	sd	a2,1672(sp)
    80002b0c:	00000693          	li	a3,0
    80002b10:	00c68463          	beq	a3,a2,80002b18 <inst_228>
    80002b14:	d10fd06f          	j	80000024 <rvtest_error>

0000000080002b18 <inst_228>:
    80002b18:	55555537          	lui	a0,0x55555
    80002b1c:	55550513          	addi	a0,a0,1365 # 55555555 <absimmsh+0x49a847a8>
    80002b20:	00b51513          	slli	a0,a0,0xb
    80002b24:	2aa50513          	addi	a0,a0,682
    80002b28:	00b51513          	slli	a0,a0,0xb
    80002b2c:	55550513          	addi	a0,a0,1365
    80002b30:	00a51513          	slli	a0,a0,0xa
    80002b34:	15550513          	addi	a0,a0,341
    80002b38:	333335b7          	lui	a1,0x33333
    80002b3c:	33358593          	addi	a1,a1,819 # 33333333 <absimmsh+0x27862586>
    80002b40:	00b59593          	slli	a1,a1,0xb
    80002b44:	19958593          	addi	a1,a1,409
    80002b48:	00b59593          	slli	a1,a1,0xb
    80002b4c:	4cc58593          	addi	a1,a1,1228
    80002b50:	00a59593          	slli	a1,a1,0xa
    80002b54:	33458593          	addi	a1,a1,820
    80002b58:	00b52633          	slt	a2,a0,a1
    80002b5c:	68c13823          	sd	a2,1680(sp)
    80002b60:	00000693          	li	a3,0
    80002b64:	00c68463          	beq	a3,a2,80002b6c <inst_229>
    80002b68:	cbcfd06f          	j	80000024 <rvtest_error>

0000000080002b6c <inst_229>:
    80002b6c:	55555537          	lui	a0,0x55555
    80002b70:	55550513          	addi	a0,a0,1365 # 55555555 <absimmsh+0x49a847a8>
    80002b74:	00b51513          	slli	a0,a0,0xb
    80002b78:	2aa50513          	addi	a0,a0,682
    80002b7c:	00b51513          	slli	a0,a0,0xb
    80002b80:	55550513          	addi	a0,a0,1365
    80002b84:	00a51513          	slli	a0,a0,0xa
    80002b88:	15550513          	addi	a0,a0,341
    80002b8c:	666665b7          	lui	a1,0x66666
    80002b90:	66658593          	addi	a1,a1,1638 # 66666666 <absimmsh+0x5ab958b9>
    80002b94:	00b59593          	slli	a1,a1,0xb
    80002b98:	33358593          	addi	a1,a1,819
    80002b9c:	00b59593          	slli	a1,a1,0xb
    80002ba0:	19958593          	addi	a1,a1,409
    80002ba4:	00a59593          	slli	a1,a1,0xa
    80002ba8:	26758593          	addi	a1,a1,615
    80002bac:	00b52633          	slt	a2,a0,a1
    80002bb0:	68c13c23          	sd	a2,1688(sp)
    80002bb4:	00100693          	li	a3,1
    80002bb8:	00c68463          	beq	a3,a2,80002bc0 <inst_230>
    80002bbc:	c68fd06f          	j	80000024 <rvtest_error>

0000000080002bc0 <inst_230>:
    80002bc0:	55555537          	lui	a0,0x55555
    80002bc4:	55550513          	addi	a0,a0,1365 # 55555555 <absimmsh+0x49a847a8>
    80002bc8:	00b51513          	slli	a0,a0,0xb
    80002bcc:	2aa50513          	addi	a0,a0,682
    80002bd0:	00b51513          	slli	a0,a0,0xb
    80002bd4:	55550513          	addi	a0,a0,1365
    80002bd8:	00a51513          	slli	a0,a0,0xa
    80002bdc:	15550513          	addi	a0,a0,341
    80002be0:	000005b7          	lui	a1,0x0
    80002be4:	fff58593          	addi	a1,a1,-1
    80002be8:	00b59593          	slli	a1,a1,0xb
    80002bec:	25758593          	addi	a1,a1,599
    80002bf0:	00b59593          	slli	a1,a1,0xb
    80002bf4:	6c358593          	addi	a1,a1,1731
    80002bf8:	00a59593          	slli	a1,a1,0xa
    80002bfc:	0ce58593          	addi	a1,a1,206
    80002c00:	00b52633          	slt	a2,a0,a1
    80002c04:	6ac13023          	sd	a2,1696(sp)
    80002c08:	00000693          	li	a3,0
    80002c0c:	00c68463          	beq	a3,a2,80002c14 <inst_231>
    80002c10:	c14fd06f          	j	80000024 <rvtest_error>

0000000080002c14 <inst_231>:
    80002c14:	55555537          	lui	a0,0x55555
    80002c18:	55550513          	addi	a0,a0,1365 # 55555555 <absimmsh+0x49a847a8>
    80002c1c:	00b51513          	slli	a0,a0,0xb
    80002c20:	2aa50513          	addi	a0,a0,682
    80002c24:	00b51513          	slli	a0,a0,0xb
    80002c28:	55550513          	addi	a0,a0,1365
    80002c2c:	00a51513          	slli	a0,a0,0xa
    80002c30:	15550513          	addi	a0,a0,341
    80002c34:	000005b7          	lui	a1,0x0
    80002c38:	00058593          	mv	a1,a1
    80002c3c:	00b59593          	slli	a1,a1,0xb
    80002c40:	5a858593          	addi	a1,a1,1448 # 5a8 <offset+0x118>
    80002c44:	00b59593          	slli	a1,a1,0xb
    80002c48:	13c58593          	addi	a1,a1,316
    80002c4c:	00a59593          	slli	a1,a1,0xa
    80002c50:	33458593          	addi	a1,a1,820
    80002c54:	00b52633          	slt	a2,a0,a1
    80002c58:	6ac13423          	sd	a2,1704(sp)
    80002c5c:	00000693          	li	a3,0
    80002c60:	00c68463          	beq	a3,a2,80002c68 <inst_232>
    80002c64:	bc0fd06f          	j	80000024 <rvtest_error>

0000000080002c68 <inst_232>:
    80002c68:	aaaab537          	lui	a0,0xaaaab
    80002c6c:	aaa50513          	addi	a0,a0,-1366 # ffffffffaaaaaaaa <absimm+0xfffffffeefd9cfda>
    80002c70:	00b51513          	slli	a0,a0,0xb
    80002c74:	55550513          	addi	a0,a0,1365
    80002c78:	00b51513          	slli	a0,a0,0xb
    80002c7c:	2aa50513          	addi	a0,a0,682
    80002c80:	00a51513          	slli	a0,a0,0xa
    80002c84:	2aa50513          	addi	a0,a0,682
    80002c88:	00300593          	li	a1,3
    80002c8c:	00b52633          	slt	a2,a0,a1
    80002c90:	6ac13823          	sd	a2,1712(sp)
    80002c94:	00100693          	li	a3,1
    80002c98:	00c68463          	beq	a3,a2,80002ca0 <inst_233>
    80002c9c:	b88fd06f          	j	80000024 <rvtest_error>

0000000080002ca0 <inst_233>:
    80002ca0:	aaaab537          	lui	a0,0xaaaab
    80002ca4:	aaa50513          	addi	a0,a0,-1366 # ffffffffaaaaaaaa <absimm+0xfffffffeefd9cfda>
    80002ca8:	00b51513          	slli	a0,a0,0xb
    80002cac:	55550513          	addi	a0,a0,1365
    80002cb0:	00b51513          	slli	a0,a0,0xb
    80002cb4:	2aa50513          	addi	a0,a0,682
    80002cb8:	00a51513          	slli	a0,a0,0xa
    80002cbc:	2aa50513          	addi	a0,a0,682
    80002cc0:	555555b7          	lui	a1,0x55555
    80002cc4:	55558593          	addi	a1,a1,1365 # 55555555 <absimmsh+0x49a847a8>
    80002cc8:	00b59593          	slli	a1,a1,0xb
    80002ccc:	2aa58593          	addi	a1,a1,682
    80002cd0:	00b59593          	slli	a1,a1,0xb
    80002cd4:	55558593          	addi	a1,a1,1365
    80002cd8:	00a59593          	slli	a1,a1,0xa
    80002cdc:	15558593          	addi	a1,a1,341
    80002ce0:	00b52633          	slt	a2,a0,a1
    80002ce4:	6ac13c23          	sd	a2,1720(sp)
    80002ce8:	00100693          	li	a3,1
    80002cec:	00c68463          	beq	a3,a2,80002cf4 <inst_234>
    80002cf0:	b34fd06f          	j	80000024 <rvtest_error>

0000000080002cf4 <inst_234>:
    80002cf4:	aaaab537          	lui	a0,0xaaaab
    80002cf8:	aaa50513          	addi	a0,a0,-1366 # ffffffffaaaaaaaa <absimm+0xfffffffeefd9cfda>
    80002cfc:	00b51513          	slli	a0,a0,0xb
    80002d00:	55550513          	addi	a0,a0,1365
    80002d04:	00b51513          	slli	a0,a0,0xb
    80002d08:	2aa50513          	addi	a0,a0,682
    80002d0c:	00a51513          	slli	a0,a0,0xa
    80002d10:	2aa50513          	addi	a0,a0,682
    80002d14:	aaaab5b7          	lui	a1,0xaaaab
    80002d18:	aaa58593          	addi	a1,a1,-1366 # ffffffffaaaaaaaa <absimm+0xfffffffeefd9cfda>
    80002d1c:	00b59593          	slli	a1,a1,0xb
    80002d20:	55558593          	addi	a1,a1,1365
    80002d24:	00b59593          	slli	a1,a1,0xb
    80002d28:	2aa58593          	addi	a1,a1,682
    80002d2c:	00a59593          	slli	a1,a1,0xa
    80002d30:	2aa58593          	addi	a1,a1,682
    80002d34:	00b52633          	slt	a2,a0,a1
    80002d38:	6cc13023          	sd	a2,1728(sp)
    80002d3c:	00000693          	li	a3,0
    80002d40:	00c68463          	beq	a3,a2,80002d48 <inst_235>
    80002d44:	ae0fd06f          	j	80000024 <rvtest_error>

0000000080002d48 <inst_235>:
    80002d48:	aaaab537          	lui	a0,0xaaaab
    80002d4c:	aaa50513          	addi	a0,a0,-1366 # ffffffffaaaaaaaa <absimm+0xfffffffeefd9cfda>
    80002d50:	00b51513          	slli	a0,a0,0xb
    80002d54:	55550513          	addi	a0,a0,1365
    80002d58:	00b51513          	slli	a0,a0,0xb
    80002d5c:	2aa50513          	addi	a0,a0,682
    80002d60:	00a51513          	slli	a0,a0,0xa
    80002d64:	2aa50513          	addi	a0,a0,682
    80002d68:	00500593          	li	a1,5
    80002d6c:	00b52633          	slt	a2,a0,a1
    80002d70:	6cc13423          	sd	a2,1736(sp)
    80002d74:	00100693          	li	a3,1
    80002d78:	00c68463          	beq	a3,a2,80002d80 <inst_236>
    80002d7c:	aa8fd06f          	j	80000024 <rvtest_error>

0000000080002d80 <inst_236>:
    80002d80:	aaaab537          	lui	a0,0xaaaab
    80002d84:	aaa50513          	addi	a0,a0,-1366 # ffffffffaaaaaaaa <absimm+0xfffffffeefd9cfda>
    80002d88:	00b51513          	slli	a0,a0,0xb
    80002d8c:	55550513          	addi	a0,a0,1365
    80002d90:	00b51513          	slli	a0,a0,0xb
    80002d94:	2aa50513          	addi	a0,a0,682
    80002d98:	00a51513          	slli	a0,a0,0xa
    80002d9c:	2aa50513          	addi	a0,a0,682
    80002da0:	333335b7          	lui	a1,0x33333
    80002da4:	33358593          	addi	a1,a1,819 # 33333333 <absimmsh+0x27862586>
    80002da8:	00b59593          	slli	a1,a1,0xb
    80002dac:	19958593          	addi	a1,a1,409
    80002db0:	00b59593          	slli	a1,a1,0xb
    80002db4:	4cc58593          	addi	a1,a1,1228
    80002db8:	00a59593          	slli	a1,a1,0xa
    80002dbc:	33358593          	addi	a1,a1,819
    80002dc0:	00b52633          	slt	a2,a0,a1
    80002dc4:	6cc13823          	sd	a2,1744(sp)
    80002dc8:	00100693          	li	a3,1
    80002dcc:	00c68463          	beq	a3,a2,80002dd4 <inst_237>
    80002dd0:	a54fd06f          	j	80000024 <rvtest_error>

0000000080002dd4 <inst_237>:
    80002dd4:	aaaab537          	lui	a0,0xaaaab
    80002dd8:	aaa50513          	addi	a0,a0,-1366 # ffffffffaaaaaaaa <absimm+0xfffffffeefd9cfda>
    80002ddc:	00b51513          	slli	a0,a0,0xb
    80002de0:	55550513          	addi	a0,a0,1365
    80002de4:	00b51513          	slli	a0,a0,0xb
    80002de8:	2aa50513          	addi	a0,a0,682
    80002dec:	00a51513          	slli	a0,a0,0xa
    80002df0:	2aa50513          	addi	a0,a0,682
    80002df4:	666665b7          	lui	a1,0x66666
    80002df8:	66658593          	addi	a1,a1,1638 # 66666666 <absimmsh+0x5ab958b9>
    80002dfc:	00b59593          	slli	a1,a1,0xb
    80002e00:	33358593          	addi	a1,a1,819
    80002e04:	00b59593          	slli	a1,a1,0xb
    80002e08:	19958593          	addi	a1,a1,409
    80002e0c:	00a59593          	slli	a1,a1,0xa
    80002e10:	26658593          	addi	a1,a1,614
    80002e14:	00b52633          	slt	a2,a0,a1
    80002e18:	6cc13c23          	sd	a2,1752(sp)
    80002e1c:	00100693          	li	a3,1
    80002e20:	00c68463          	beq	a3,a2,80002e28 <inst_238>
    80002e24:	a00fd06f          	j	80000024 <rvtest_error>

0000000080002e28 <inst_238>:
    80002e28:	aaaab537          	lui	a0,0xaaaab
    80002e2c:	aaa50513          	addi	a0,a0,-1366 # ffffffffaaaaaaaa <absimm+0xfffffffeefd9cfda>
    80002e30:	00b51513          	slli	a0,a0,0xb
    80002e34:	55550513          	addi	a0,a0,1365
    80002e38:	00b51513          	slli	a0,a0,0xb
    80002e3c:	2aa50513          	addi	a0,a0,682
    80002e40:	00a51513          	slli	a0,a0,0xa
    80002e44:	2aa50513          	addi	a0,a0,682
    80002e48:	000005b7          	lui	a1,0x0
    80002e4c:	fff58593          	addi	a1,a1,-1
    80002e50:	00b59593          	slli	a1,a1,0xb
    80002e54:	25758593          	addi	a1,a1,599
    80002e58:	00b59593          	slli	a1,a1,0xb
    80002e5c:	6c358593          	addi	a1,a1,1731
    80002e60:	00a59593          	slli	a1,a1,0xa
    80002e64:	0cd58593          	addi	a1,a1,205
    80002e68:	00b52633          	slt	a2,a0,a1
    80002e6c:	6ec13023          	sd	a2,1760(sp)
    80002e70:	00100693          	li	a3,1
    80002e74:	00c68463          	beq	a3,a2,80002e7c <inst_239>
    80002e78:	9acfd06f          	j	80000024 <rvtest_error>

0000000080002e7c <inst_239>:
    80002e7c:	aaaab537          	lui	a0,0xaaaab
    80002e80:	aaa50513          	addi	a0,a0,-1366 # ffffffffaaaaaaaa <absimm+0xfffffffeefd9cfda>
    80002e84:	00b51513          	slli	a0,a0,0xb
    80002e88:	55550513          	addi	a0,a0,1365
    80002e8c:	00b51513          	slli	a0,a0,0xb
    80002e90:	2aa50513          	addi	a0,a0,682
    80002e94:	00a51513          	slli	a0,a0,0xa
    80002e98:	2aa50513          	addi	a0,a0,682
    80002e9c:	000005b7          	lui	a1,0x0
    80002ea0:	00058593          	mv	a1,a1
    80002ea4:	00b59593          	slli	a1,a1,0xb
    80002ea8:	5a858593          	addi	a1,a1,1448 # 5a8 <offset+0x118>
    80002eac:	00b59593          	slli	a1,a1,0xb
    80002eb0:	13c58593          	addi	a1,a1,316
    80002eb4:	00a59593          	slli	a1,a1,0xa
    80002eb8:	33358593          	addi	a1,a1,819
    80002ebc:	00b52633          	slt	a2,a0,a1
    80002ec0:	6ec13423          	sd	a2,1768(sp)
    80002ec4:	00100693          	li	a3,1
    80002ec8:	00c68463          	beq	a3,a2,80002ed0 <inst_240>
    80002ecc:	958fd06f          	j	80000024 <rvtest_error>

0000000080002ed0 <inst_240>:
    80002ed0:	aaaab537          	lui	a0,0xaaaab
    80002ed4:	aaa50513          	addi	a0,a0,-1366 # ffffffffaaaaaaaa <absimm+0xfffffffeefd9cfda>
    80002ed8:	00b51513          	slli	a0,a0,0xb
    80002edc:	55550513          	addi	a0,a0,1365
    80002ee0:	00b51513          	slli	a0,a0,0xb
    80002ee4:	2aa50513          	addi	a0,a0,682
    80002ee8:	00a51513          	slli	a0,a0,0xa
    80002eec:	2aa50513          	addi	a0,a0,682
    80002ef0:	00200593          	li	a1,2
    80002ef4:	00b52633          	slt	a2,a0,a1
    80002ef8:	6ec13823          	sd	a2,1776(sp)
    80002efc:	00100693          	li	a3,1
    80002f00:	00c68463          	beq	a3,a2,80002f08 <inst_241>
    80002f04:	920fd06f          	j	80000024 <rvtest_error>

0000000080002f08 <inst_241>:
    80002f08:	aaaab537          	lui	a0,0xaaaab
    80002f0c:	aaa50513          	addi	a0,a0,-1366 # ffffffffaaaaaaaa <absimm+0xfffffffeefd9cfda>
    80002f10:	00b51513          	slli	a0,a0,0xb
    80002f14:	55550513          	addi	a0,a0,1365
    80002f18:	00b51513          	slli	a0,a0,0xb
    80002f1c:	2aa50513          	addi	a0,a0,682
    80002f20:	00a51513          	slli	a0,a0,0xa
    80002f24:	2aa50513          	addi	a0,a0,682
    80002f28:	555555b7          	lui	a1,0x55555
    80002f2c:	55558593          	addi	a1,a1,1365 # 55555555 <absimmsh+0x49a847a8>
    80002f30:	00b59593          	slli	a1,a1,0xb
    80002f34:	2aa58593          	addi	a1,a1,682
    80002f38:	00b59593          	slli	a1,a1,0xb
    80002f3c:	55558593          	addi	a1,a1,1365
    80002f40:	00a59593          	slli	a1,a1,0xa
    80002f44:	15458593          	addi	a1,a1,340
    80002f48:	00b52633          	slt	a2,a0,a1
    80002f4c:	6ec13c23          	sd	a2,1784(sp)
    80002f50:	00100693          	li	a3,1
    80002f54:	00c68463          	beq	a3,a2,80002f5c <inst_242>
    80002f58:	8ccfd06f          	j	80000024 <rvtest_error>

0000000080002f5c <inst_242>:
    80002f5c:	aaaab537          	lui	a0,0xaaaab
    80002f60:	aaa50513          	addi	a0,a0,-1366 # ffffffffaaaaaaaa <absimm+0xfffffffeefd9cfda>
    80002f64:	00b51513          	slli	a0,a0,0xb
    80002f68:	55550513          	addi	a0,a0,1365
    80002f6c:	00b51513          	slli	a0,a0,0xb
    80002f70:	2aa50513          	addi	a0,a0,682
    80002f74:	00a51513          	slli	a0,a0,0xa
    80002f78:	2aa50513          	addi	a0,a0,682
    80002f7c:	00000593          	li	a1,0
    80002f80:	00b52633          	slt	a2,a0,a1
    80002f84:	70c13023          	sd	a2,1792(sp)
    80002f88:	00100693          	li	a3,1
    80002f8c:	00c68463          	beq	a3,a2,80002f94 <inst_243>
    80002f90:	894fd06f          	j	80000024 <rvtest_error>

0000000080002f94 <inst_243>:
    80002f94:	aaaab537          	lui	a0,0xaaaab
    80002f98:	aaa50513          	addi	a0,a0,-1366 # ffffffffaaaaaaaa <absimm+0xfffffffeefd9cfda>
    80002f9c:	00b51513          	slli	a0,a0,0xb
    80002fa0:	55550513          	addi	a0,a0,1365
    80002fa4:	00b51513          	slli	a0,a0,0xb
    80002fa8:	2aa50513          	addi	a0,a0,682
    80002fac:	00a51513          	slli	a0,a0,0xa
    80002fb0:	2aa50513          	addi	a0,a0,682
    80002fb4:	00400593          	li	a1,4
    80002fb8:	00b52633          	slt	a2,a0,a1
    80002fbc:	70c13423          	sd	a2,1800(sp)
    80002fc0:	00100693          	li	a3,1
    80002fc4:	00c68463          	beq	a3,a2,80002fcc <inst_244>
    80002fc8:	85cfd06f          	j	80000024 <rvtest_error>

0000000080002fcc <inst_244>:
    80002fcc:	aaaab537          	lui	a0,0xaaaab
    80002fd0:	aaa50513          	addi	a0,a0,-1366 # ffffffffaaaaaaaa <absimm+0xfffffffeefd9cfda>
    80002fd4:	00b51513          	slli	a0,a0,0xb
    80002fd8:	55550513          	addi	a0,a0,1365
    80002fdc:	00b51513          	slli	a0,a0,0xb
    80002fe0:	2aa50513          	addi	a0,a0,682
    80002fe4:	00a51513          	slli	a0,a0,0xa
    80002fe8:	2aa50513          	addi	a0,a0,682
    80002fec:	333335b7          	lui	a1,0x33333
    80002ff0:	33358593          	addi	a1,a1,819 # 33333333 <absimmsh+0x27862586>
    80002ff4:	00b59593          	slli	a1,a1,0xb
    80002ff8:	19958593          	addi	a1,a1,409
    80002ffc:	00b59593          	slli	a1,a1,0xb
    80003000:	4cc58593          	addi	a1,a1,1228
    80003004:	00a59593          	slli	a1,a1,0xa
    80003008:	33258593          	addi	a1,a1,818
    8000300c:	00b52633          	slt	a2,a0,a1
    80003010:	70c13823          	sd	a2,1808(sp)
    80003014:	00100693          	li	a3,1
    80003018:	00c68463          	beq	a3,a2,80003020 <inst_245>
    8000301c:	808fd06f          	j	80000024 <rvtest_error>

0000000080003020 <inst_245>:
    80003020:	aaaab537          	lui	a0,0xaaaab
    80003024:	aaa50513          	addi	a0,a0,-1366 # ffffffffaaaaaaaa <absimm+0xfffffffeefd9cfda>
    80003028:	00b51513          	slli	a0,a0,0xb
    8000302c:	55550513          	addi	a0,a0,1365
    80003030:	00b51513          	slli	a0,a0,0xb
    80003034:	2aa50513          	addi	a0,a0,682
    80003038:	00a51513          	slli	a0,a0,0xa
    8000303c:	2aa50513          	addi	a0,a0,682
    80003040:	666665b7          	lui	a1,0x66666
    80003044:	66658593          	addi	a1,a1,1638 # 66666666 <absimmsh+0x5ab958b9>
    80003048:	00b59593          	slli	a1,a1,0xb
    8000304c:	33358593          	addi	a1,a1,819
    80003050:	00b59593          	slli	a1,a1,0xb
    80003054:	19958593          	addi	a1,a1,409
    80003058:	00a59593          	slli	a1,a1,0xa
    8000305c:	26558593          	addi	a1,a1,613
    80003060:	00b52633          	slt	a2,a0,a1
    80003064:	70c13c23          	sd	a2,1816(sp)
    80003068:	00100693          	li	a3,1
    8000306c:	00c68463          	beq	a3,a2,80003074 <inst_246>
    80003070:	fb5fc06f          	j	80000024 <rvtest_error>

0000000080003074 <inst_246>:
    80003074:	aaaab537          	lui	a0,0xaaaab
    80003078:	aaa50513          	addi	a0,a0,-1366 # ffffffffaaaaaaaa <absimm+0xfffffffeefd9cfda>
    8000307c:	00b51513          	slli	a0,a0,0xb
    80003080:	55550513          	addi	a0,a0,1365
    80003084:	00b51513          	slli	a0,a0,0xb
    80003088:	2aa50513          	addi	a0,a0,682
    8000308c:	00a51513          	slli	a0,a0,0xa
    80003090:	2aa50513          	addi	a0,a0,682
    80003094:	000005b7          	lui	a1,0x0
    80003098:	00058593          	mv	a1,a1
    8000309c:	00b59593          	slli	a1,a1,0xb
    800030a0:	5a858593          	addi	a1,a1,1448 # 5a8 <offset+0x118>
    800030a4:	00b59593          	slli	a1,a1,0xb
    800030a8:	13c58593          	addi	a1,a1,316
    800030ac:	00a59593          	slli	a1,a1,0xa
    800030b0:	33258593          	addi	a1,a1,818
    800030b4:	00b52633          	slt	a2,a0,a1
    800030b8:	72c13023          	sd	a2,1824(sp)
    800030bc:	00100693          	li	a3,1
    800030c0:	00c68463          	beq	a3,a2,800030c8 <inst_247>
    800030c4:	f61fc06f          	j	80000024 <rvtest_error>

00000000800030c8 <inst_247>:
    800030c8:	aaaab537          	lui	a0,0xaaaab
    800030cc:	aaa50513          	addi	a0,a0,-1366 # ffffffffaaaaaaaa <absimm+0xfffffffeefd9cfda>
    800030d0:	00b51513          	slli	a0,a0,0xb
    800030d4:	55550513          	addi	a0,a0,1365
    800030d8:	00b51513          	slli	a0,a0,0xb
    800030dc:	2aa50513          	addi	a0,a0,682
    800030e0:	00a51513          	slli	a0,a0,0xa
    800030e4:	2aa50513          	addi	a0,a0,682
    800030e8:	555555b7          	lui	a1,0x55555
    800030ec:	55558593          	addi	a1,a1,1365 # 55555555 <absimmsh+0x49a847a8>
    800030f0:	00b59593          	slli	a1,a1,0xb
    800030f4:	2aa58593          	addi	a1,a1,682
    800030f8:	00b59593          	slli	a1,a1,0xb
    800030fc:	55558593          	addi	a1,a1,1365
    80003100:	00a59593          	slli	a1,a1,0xa
    80003104:	15658593          	addi	a1,a1,342
    80003108:	00b52633          	slt	a2,a0,a1
    8000310c:	72c13423          	sd	a2,1832(sp)
    80003110:	00100693          	li	a3,1
    80003114:	00c68463          	beq	a3,a2,8000311c <inst_248>
    80003118:	f0dfc06f          	j	80000024 <rvtest_error>

000000008000311c <inst_248>:
    8000311c:	aaaab537          	lui	a0,0xaaaab
    80003120:	aaa50513          	addi	a0,a0,-1366 # ffffffffaaaaaaaa <absimm+0xfffffffeefd9cfda>
    80003124:	00b51513          	slli	a0,a0,0xb
    80003128:	55550513          	addi	a0,a0,1365
    8000312c:	00b51513          	slli	a0,a0,0xb
    80003130:	2aa50513          	addi	a0,a0,682
    80003134:	00a51513          	slli	a0,a0,0xa
    80003138:	2aa50513          	addi	a0,a0,682
    8000313c:	aaaab5b7          	lui	a1,0xaaaab
    80003140:	aaa58593          	addi	a1,a1,-1366 # ffffffffaaaaaaaa <absimm+0xfffffffeefd9cfda>
    80003144:	00b59593          	slli	a1,a1,0xb
    80003148:	55558593          	addi	a1,a1,1365
    8000314c:	00b59593          	slli	a1,a1,0xb
    80003150:	2aa58593          	addi	a1,a1,682
    80003154:	00a59593          	slli	a1,a1,0xa
    80003158:	2ab58593          	addi	a1,a1,683
    8000315c:	00b52633          	slt	a2,a0,a1
    80003160:	72c13823          	sd	a2,1840(sp)
    80003164:	00100693          	li	a3,1
    80003168:	00c68463          	beq	a3,a2,80003170 <inst_249>
    8000316c:	eb9fc06f          	j	80000024 <rvtest_error>

0000000080003170 <inst_249>:
    80003170:	aaaab537          	lui	a0,0xaaaab
    80003174:	aaa50513          	addi	a0,a0,-1366 # ffffffffaaaaaaaa <absimm+0xfffffffeefd9cfda>
    80003178:	00b51513          	slli	a0,a0,0xb
    8000317c:	55550513          	addi	a0,a0,1365
    80003180:	00b51513          	slli	a0,a0,0xb
    80003184:	2aa50513          	addi	a0,a0,682
    80003188:	00a51513          	slli	a0,a0,0xa
    8000318c:	2aa50513          	addi	a0,a0,682
    80003190:	00600593          	li	a1,6
    80003194:	00b52633          	slt	a2,a0,a1
    80003198:	72c13c23          	sd	a2,1848(sp)
    8000319c:	00100693          	li	a3,1
    800031a0:	00c68463          	beq	a3,a2,800031a8 <inst_250>
    800031a4:	e81fc06f          	j	80000024 <rvtest_error>

00000000800031a8 <inst_250>:
    800031a8:	aaaab537          	lui	a0,0xaaaab
    800031ac:	aaa50513          	addi	a0,a0,-1366 # ffffffffaaaaaaaa <absimm+0xfffffffeefd9cfda>
    800031b0:	00b51513          	slli	a0,a0,0xb
    800031b4:	55550513          	addi	a0,a0,1365
    800031b8:	00b51513          	slli	a0,a0,0xb
    800031bc:	2aa50513          	addi	a0,a0,682
    800031c0:	00a51513          	slli	a0,a0,0xa
    800031c4:	2aa50513          	addi	a0,a0,682
    800031c8:	333335b7          	lui	a1,0x33333
    800031cc:	33358593          	addi	a1,a1,819 # 33333333 <absimmsh+0x27862586>
    800031d0:	00b59593          	slli	a1,a1,0xb
    800031d4:	19958593          	addi	a1,a1,409
    800031d8:	00b59593          	slli	a1,a1,0xb
    800031dc:	4cc58593          	addi	a1,a1,1228
    800031e0:	00a59593          	slli	a1,a1,0xa
    800031e4:	33458593          	addi	a1,a1,820
    800031e8:	00b52633          	slt	a2,a0,a1
    800031ec:	74c13023          	sd	a2,1856(sp)
    800031f0:	00100693          	li	a3,1
    800031f4:	00c68463          	beq	a3,a2,800031fc <inst_251>
    800031f8:	e2dfc06f          	j	80000024 <rvtest_error>

00000000800031fc <inst_251>:
    800031fc:	aaaab537          	lui	a0,0xaaaab
    80003200:	aaa50513          	addi	a0,a0,-1366 # ffffffffaaaaaaaa <absimm+0xfffffffeefd9cfda>
    80003204:	00b51513          	slli	a0,a0,0xb
    80003208:	55550513          	addi	a0,a0,1365
    8000320c:	00b51513          	slli	a0,a0,0xb
    80003210:	2aa50513          	addi	a0,a0,682
    80003214:	00a51513          	slli	a0,a0,0xa
    80003218:	2aa50513          	addi	a0,a0,682
    8000321c:	666665b7          	lui	a1,0x66666
    80003220:	66658593          	addi	a1,a1,1638 # 66666666 <absimmsh+0x5ab958b9>
    80003224:	00b59593          	slli	a1,a1,0xb
    80003228:	33358593          	addi	a1,a1,819
    8000322c:	00b59593          	slli	a1,a1,0xb
    80003230:	19958593          	addi	a1,a1,409
    80003234:	00a59593          	slli	a1,a1,0xa
    80003238:	26758593          	addi	a1,a1,615
    8000323c:	00b52633          	slt	a2,a0,a1
    80003240:	74c13423          	sd	a2,1864(sp)
    80003244:	00100693          	li	a3,1
    80003248:	00c68463          	beq	a3,a2,80003250 <inst_252>
    8000324c:	dd9fc06f          	j	80000024 <rvtest_error>

0000000080003250 <inst_252>:
    80003250:	aaaab537          	lui	a0,0xaaaab
    80003254:	aaa50513          	addi	a0,a0,-1366 # ffffffffaaaaaaaa <absimm+0xfffffffeefd9cfda>
    80003258:	00b51513          	slli	a0,a0,0xb
    8000325c:	55550513          	addi	a0,a0,1365
    80003260:	00b51513          	slli	a0,a0,0xb
    80003264:	2aa50513          	addi	a0,a0,682
    80003268:	00a51513          	slli	a0,a0,0xa
    8000326c:	2aa50513          	addi	a0,a0,682
    80003270:	000005b7          	lui	a1,0x0
    80003274:	fff58593          	addi	a1,a1,-1
    80003278:	00b59593          	slli	a1,a1,0xb
    8000327c:	25758593          	addi	a1,a1,599
    80003280:	00b59593          	slli	a1,a1,0xb
    80003284:	6c358593          	addi	a1,a1,1731
    80003288:	00a59593          	slli	a1,a1,0xa
    8000328c:	0ce58593          	addi	a1,a1,206
    80003290:	00b52633          	slt	a2,a0,a1
    80003294:	74c13823          	sd	a2,1872(sp)
    80003298:	00100693          	li	a3,1
    8000329c:	00c68463          	beq	a3,a2,800032a4 <inst_253>
    800032a0:	d85fc06f          	j	80000024 <rvtest_error>

00000000800032a4 <inst_253>:
    800032a4:	aaaab537          	lui	a0,0xaaaab
    800032a8:	aaa50513          	addi	a0,a0,-1366 # ffffffffaaaaaaaa <absimm+0xfffffffeefd9cfda>
    800032ac:	00b51513          	slli	a0,a0,0xb
    800032b0:	55550513          	addi	a0,a0,1365
    800032b4:	00b51513          	slli	a0,a0,0xb
    800032b8:	2aa50513          	addi	a0,a0,682
    800032bc:	00a51513          	slli	a0,a0,0xa
    800032c0:	2aa50513          	addi	a0,a0,682
    800032c4:	000005b7          	lui	a1,0x0
    800032c8:	00058593          	mv	a1,a1
    800032cc:	00b59593          	slli	a1,a1,0xb
    800032d0:	5a858593          	addi	a1,a1,1448 # 5a8 <offset+0x118>
    800032d4:	00b59593          	slli	a1,a1,0xb
    800032d8:	13c58593          	addi	a1,a1,316
    800032dc:	00a59593          	slli	a1,a1,0xa
    800032e0:	33458593          	addi	a1,a1,820
    800032e4:	00b52633          	slt	a2,a0,a1
    800032e8:	74c13c23          	sd	a2,1880(sp)
    800032ec:	00100693          	li	a3,1
    800032f0:	00c68463          	beq	a3,a2,800032f8 <inst_254>
    800032f4:	d31fc06f          	j	80000024 <rvtest_error>

00000000800032f8 <inst_254>:
    800032f8:	00500513          	li	a0,5
    800032fc:	00300593          	li	a1,3
    80003300:	00b52633          	slt	a2,a0,a1
    80003304:	76c13023          	sd	a2,1888(sp)
    80003308:	00000693          	li	a3,0
    8000330c:	00c68463          	beq	a3,a2,80003314 <inst_255>
    80003310:	d15fc06f          	j	80000024 <rvtest_error>

0000000080003314 <inst_255>:
    80003314:	00500513          	li	a0,5
    80003318:	555555b7          	lui	a1,0x55555
    8000331c:	55558593          	addi	a1,a1,1365 # 55555555 <absimmsh+0x49a847a8>
    80003320:	00b59593          	slli	a1,a1,0xb
    80003324:	2aa58593          	addi	a1,a1,682
    80003328:	00b59593          	slli	a1,a1,0xb
    8000332c:	55558593          	addi	a1,a1,1365
    80003330:	00a59593          	slli	a1,a1,0xa
    80003334:	15558593          	addi	a1,a1,341
    80003338:	00b52633          	slt	a2,a0,a1
    8000333c:	76c13423          	sd	a2,1896(sp)
    80003340:	00100693          	li	a3,1
    80003344:	00c68463          	beq	a3,a2,8000334c <inst_256>
    80003348:	cddfc06f          	j	80000024 <rvtest_error>

000000008000334c <inst_256>:
    8000334c:	00500513          	li	a0,5
    80003350:	aaaab5b7          	lui	a1,0xaaaab
    80003354:	aaa58593          	addi	a1,a1,-1366 # ffffffffaaaaaaaa <absimm+0xfffffffeefd9cfda>
    80003358:	00b59593          	slli	a1,a1,0xb
    8000335c:	55558593          	addi	a1,a1,1365
    80003360:	00b59593          	slli	a1,a1,0xb
    80003364:	2aa58593          	addi	a1,a1,682
    80003368:	00a59593          	slli	a1,a1,0xa
    8000336c:	2aa58593          	addi	a1,a1,682
    80003370:	00b52633          	slt	a2,a0,a1
    80003374:	76c13823          	sd	a2,1904(sp)
    80003378:	00000693          	li	a3,0
    8000337c:	00c68463          	beq	a3,a2,80003384 <inst_257>
    80003380:	ca5fc06f          	j	80000024 <rvtest_error>

0000000080003384 <inst_257>:
    80003384:	00500513          	li	a0,5
    80003388:	00500593          	li	a1,5
    8000338c:	00b52633          	slt	a2,a0,a1
    80003390:	76c13c23          	sd	a2,1912(sp)
    80003394:	00000693          	li	a3,0
    80003398:	00c68463          	beq	a3,a2,800033a0 <inst_258>
    8000339c:	c89fc06f          	j	80000024 <rvtest_error>

00000000800033a0 <inst_258>:
    800033a0:	00500513          	li	a0,5
    800033a4:	333335b7          	lui	a1,0x33333
    800033a8:	33358593          	addi	a1,a1,819 # 33333333 <absimmsh+0x27862586>
    800033ac:	00b59593          	slli	a1,a1,0xb
    800033b0:	19958593          	addi	a1,a1,409
    800033b4:	00b59593          	slli	a1,a1,0xb
    800033b8:	4cc58593          	addi	a1,a1,1228
    800033bc:	00a59593          	slli	a1,a1,0xa
    800033c0:	33358593          	addi	a1,a1,819
    800033c4:	00b52633          	slt	a2,a0,a1
    800033c8:	78c13023          	sd	a2,1920(sp)
    800033cc:	00100693          	li	a3,1
    800033d0:	00c68463          	beq	a3,a2,800033d8 <inst_259>
    800033d4:	c51fc06f          	j	80000024 <rvtest_error>

00000000800033d8 <inst_259>:
    800033d8:	00500513          	li	a0,5
    800033dc:	666665b7          	lui	a1,0x66666
    800033e0:	66658593          	addi	a1,a1,1638 # 66666666 <absimmsh+0x5ab958b9>
    800033e4:	00b59593          	slli	a1,a1,0xb
    800033e8:	33358593          	addi	a1,a1,819
    800033ec:	00b59593          	slli	a1,a1,0xb
    800033f0:	19958593          	addi	a1,a1,409
    800033f4:	00a59593          	slli	a1,a1,0xa
    800033f8:	26658593          	addi	a1,a1,614
    800033fc:	00b52633          	slt	a2,a0,a1
    80003400:	78c13423          	sd	a2,1928(sp)
    80003404:	00100693          	li	a3,1
    80003408:	00c68463          	beq	a3,a2,80003410 <inst_260>
    8000340c:	c19fc06f          	j	80000024 <rvtest_error>

0000000080003410 <inst_260>:
    80003410:	00500513          	li	a0,5
    80003414:	000005b7          	lui	a1,0x0
    80003418:	fff58593          	addi	a1,a1,-1
    8000341c:	00b59593          	slli	a1,a1,0xb
    80003420:	25758593          	addi	a1,a1,599
    80003424:	00b59593          	slli	a1,a1,0xb
    80003428:	6c358593          	addi	a1,a1,1731
    8000342c:	00a59593          	slli	a1,a1,0xa
    80003430:	0cd58593          	addi	a1,a1,205
    80003434:	00b52633          	slt	a2,a0,a1
    80003438:	78c13823          	sd	a2,1936(sp)
    8000343c:	00000693          	li	a3,0
    80003440:	00c68463          	beq	a3,a2,80003448 <inst_261>
    80003444:	be1fc06f          	j	80000024 <rvtest_error>

0000000080003448 <inst_261>:
    80003448:	00500513          	li	a0,5
    8000344c:	000005b7          	lui	a1,0x0
    80003450:	00058593          	mv	a1,a1
    80003454:	00b59593          	slli	a1,a1,0xb
    80003458:	5a858593          	addi	a1,a1,1448 # 5a8 <offset+0x118>
    8000345c:	00b59593          	slli	a1,a1,0xb
    80003460:	13c58593          	addi	a1,a1,316
    80003464:	00a59593          	slli	a1,a1,0xa
    80003468:	33358593          	addi	a1,a1,819
    8000346c:	00b52633          	slt	a2,a0,a1
    80003470:	78c13c23          	sd	a2,1944(sp)
    80003474:	00100693          	li	a3,1
    80003478:	00c68463          	beq	a3,a2,80003480 <inst_262>
    8000347c:	ba9fc06f          	j	80000024 <rvtest_error>

0000000080003480 <inst_262>:
    80003480:	00500513          	li	a0,5
    80003484:	00200593          	li	a1,2
    80003488:	00b52633          	slt	a2,a0,a1
    8000348c:	7ac13023          	sd	a2,1952(sp)
    80003490:	00000693          	li	a3,0
    80003494:	00c68463          	beq	a3,a2,8000349c <inst_263>
    80003498:	b8dfc06f          	j	80000024 <rvtest_error>

000000008000349c <inst_263>:
    8000349c:	00500513          	li	a0,5
    800034a0:	555555b7          	lui	a1,0x55555
    800034a4:	55558593          	addi	a1,a1,1365 # 55555555 <absimmsh+0x49a847a8>
    800034a8:	00b59593          	slli	a1,a1,0xb
    800034ac:	2aa58593          	addi	a1,a1,682
    800034b0:	00b59593          	slli	a1,a1,0xb
    800034b4:	55558593          	addi	a1,a1,1365
    800034b8:	00a59593          	slli	a1,a1,0xa
    800034bc:	15458593          	addi	a1,a1,340
    800034c0:	00b52633          	slt	a2,a0,a1
    800034c4:	7ac13423          	sd	a2,1960(sp)
    800034c8:	00100693          	li	a3,1
    800034cc:	00c68463          	beq	a3,a2,800034d4 <inst_264>
    800034d0:	b55fc06f          	j	80000024 <rvtest_error>

00000000800034d4 <inst_264>:
    800034d4:	00500513          	li	a0,5
    800034d8:	00000593          	li	a1,0
    800034dc:	00b52633          	slt	a2,a0,a1
    800034e0:	7ac13823          	sd	a2,1968(sp)
    800034e4:	00000693          	li	a3,0
    800034e8:	00c68463          	beq	a3,a2,800034f0 <inst_265>
    800034ec:	b39fc06f          	j	80000024 <rvtest_error>

00000000800034f0 <inst_265>:
    800034f0:	00500513          	li	a0,5
    800034f4:	00400593          	li	a1,4
    800034f8:	00b52633          	slt	a2,a0,a1
    800034fc:	7ac13c23          	sd	a2,1976(sp)
    80003500:	00000693          	li	a3,0
    80003504:	00c68463          	beq	a3,a2,8000350c <inst_266>
    80003508:	b1dfc06f          	j	80000024 <rvtest_error>

000000008000350c <inst_266>:
    8000350c:	00500513          	li	a0,5
    80003510:	333335b7          	lui	a1,0x33333
    80003514:	33358593          	addi	a1,a1,819 # 33333333 <absimmsh+0x27862586>
    80003518:	00b59593          	slli	a1,a1,0xb
    8000351c:	19958593          	addi	a1,a1,409
    80003520:	00b59593          	slli	a1,a1,0xb
    80003524:	4cc58593          	addi	a1,a1,1228
    80003528:	00a59593          	slli	a1,a1,0xa
    8000352c:	33258593          	addi	a1,a1,818
    80003530:	00b52633          	slt	a2,a0,a1
    80003534:	7cc13023          	sd	a2,1984(sp)
    80003538:	00100693          	li	a3,1
    8000353c:	00c68463          	beq	a3,a2,80003544 <inst_267>
    80003540:	ae5fc06f          	j	80000024 <rvtest_error>

0000000080003544 <inst_267>:
    80003544:	00500513          	li	a0,5
    80003548:	666665b7          	lui	a1,0x66666
    8000354c:	66658593          	addi	a1,a1,1638 # 66666666 <absimmsh+0x5ab958b9>
    80003550:	00b59593          	slli	a1,a1,0xb
    80003554:	33358593          	addi	a1,a1,819
    80003558:	00b59593          	slli	a1,a1,0xb
    8000355c:	19958593          	addi	a1,a1,409
    80003560:	00a59593          	slli	a1,a1,0xa
    80003564:	26558593          	addi	a1,a1,613
    80003568:	00b52633          	slt	a2,a0,a1
    8000356c:	7cc13423          	sd	a2,1992(sp)
    80003570:	00100693          	li	a3,1
    80003574:	00c68463          	beq	a3,a2,8000357c <inst_268>
    80003578:	aadfc06f          	j	80000024 <rvtest_error>

000000008000357c <inst_268>:
    8000357c:	00500513          	li	a0,5
    80003580:	000005b7          	lui	a1,0x0
    80003584:	00058593          	mv	a1,a1
    80003588:	00b59593          	slli	a1,a1,0xb
    8000358c:	5a858593          	addi	a1,a1,1448 # 5a8 <offset+0x118>
    80003590:	00b59593          	slli	a1,a1,0xb
    80003594:	13c58593          	addi	a1,a1,316
    80003598:	00a59593          	slli	a1,a1,0xa
    8000359c:	33258593          	addi	a1,a1,818
    800035a0:	00b52633          	slt	a2,a0,a1
    800035a4:	7cc13823          	sd	a2,2000(sp)
    800035a8:	00100693          	li	a3,1
    800035ac:	00c68463          	beq	a3,a2,800035b4 <inst_269>
    800035b0:	a75fc06f          	j	80000024 <rvtest_error>

00000000800035b4 <inst_269>:
    800035b4:	00500513          	li	a0,5
    800035b8:	555555b7          	lui	a1,0x55555
    800035bc:	55558593          	addi	a1,a1,1365 # 55555555 <absimmsh+0x49a847a8>
    800035c0:	00b59593          	slli	a1,a1,0xb
    800035c4:	2aa58593          	addi	a1,a1,682
    800035c8:	00b59593          	slli	a1,a1,0xb
    800035cc:	55558593          	addi	a1,a1,1365
    800035d0:	00a59593          	slli	a1,a1,0xa
    800035d4:	15658593          	addi	a1,a1,342
    800035d8:	00b52633          	slt	a2,a0,a1
    800035dc:	7cc13c23          	sd	a2,2008(sp)
    800035e0:	00100693          	li	a3,1
    800035e4:	00c68463          	beq	a3,a2,800035ec <inst_270>
    800035e8:	a3dfc06f          	j	80000024 <rvtest_error>

00000000800035ec <inst_270>:
    800035ec:	00500513          	li	a0,5
    800035f0:	aaaab5b7          	lui	a1,0xaaaab
    800035f4:	aaa58593          	addi	a1,a1,-1366 # ffffffffaaaaaaaa <absimm+0xfffffffeefd9cfda>
    800035f8:	00b59593          	slli	a1,a1,0xb
    800035fc:	55558593          	addi	a1,a1,1365
    80003600:	00b59593          	slli	a1,a1,0xb
    80003604:	2aa58593          	addi	a1,a1,682
    80003608:	00a59593          	slli	a1,a1,0xa
    8000360c:	2ab58593          	addi	a1,a1,683
    80003610:	00b52633          	slt	a2,a0,a1
    80003614:	7ec13023          	sd	a2,2016(sp)
    80003618:	00000693          	li	a3,0
    8000361c:	00c68463          	beq	a3,a2,80003624 <inst_271>
    80003620:	a05fc06f          	j	80000024 <rvtest_error>

0000000080003624 <inst_271>:
    80003624:	00500513          	li	a0,5
    80003628:	00600593          	li	a1,6
    8000362c:	00b52633          	slt	a2,a0,a1
    80003630:	7ec13423          	sd	a2,2024(sp)
    80003634:	00100693          	li	a3,1
    80003638:	00c68463          	beq	a3,a2,80003640 <inst_272>
    8000363c:	9e9fc06f          	j	80000024 <rvtest_error>

0000000080003640 <inst_272>:
    80003640:	00500513          	li	a0,5
    80003644:	333335b7          	lui	a1,0x33333
    80003648:	33358593          	addi	a1,a1,819 # 33333333 <absimmsh+0x27862586>
    8000364c:	00b59593          	slli	a1,a1,0xb
    80003650:	19958593          	addi	a1,a1,409
    80003654:	00b59593          	slli	a1,a1,0xb
    80003658:	4cc58593          	addi	a1,a1,1228
    8000365c:	00a59593          	slli	a1,a1,0xa
    80003660:	33458593          	addi	a1,a1,820
    80003664:	00b52633          	slt	a2,a0,a1
    80003668:	7ec13823          	sd	a2,2032(sp)
    8000366c:	00100693          	li	a3,1
    80003670:	00c68463          	beq	a3,a2,80003678 <inst_273>
    80003674:	9b1fc06f          	j	80000024 <rvtest_error>

0000000080003678 <inst_273>:
    80003678:	00500513          	li	a0,5
    8000367c:	666665b7          	lui	a1,0x66666
    80003680:	66658593          	addi	a1,a1,1638 # 66666666 <absimmsh+0x5ab958b9>
    80003684:	00b59593          	slli	a1,a1,0xb
    80003688:	33358593          	addi	a1,a1,819
    8000368c:	00b59593          	slli	a1,a1,0xb
    80003690:	19958593          	addi	a1,a1,409
    80003694:	00a59593          	slli	a1,a1,0xa
    80003698:	26758593          	addi	a1,a1,615
    8000369c:	00b52633          	slt	a2,a0,a1
    800036a0:	7ec13c23          	sd	a2,2040(sp)
    800036a4:	00100693          	li	a3,1
    800036a8:	00c68463          	beq	a3,a2,800036b0 <inst_273+0x38>
    800036ac:	979fc06f          	j	80000024 <rvtest_error>
    800036b0:	00000013          	nop
    800036b4:	00000013          	nop
    800036b8:	00000013          	nop
    800036bc:	00000013          	nop
    800036c0:	00009117          	auipc	sp,0x9
    800036c4:	1d810113          	addi	sp,sp,472 # 8000c898 <signature_x2_1>
    800036c8:	00000013          	nop
    800036cc:	00000013          	nop
    800036d0:	00000013          	nop
    800036d4:	00000013          	nop
    800036d8:	00000013          	nop
    800036dc:	00000013          	nop

00000000800036e0 <inst_274>:
    800036e0:	00500513          	li	a0,5
    800036e4:	000005b7          	lui	a1,0x0
    800036e8:	fff58593          	addi	a1,a1,-1
    800036ec:	00b59593          	slli	a1,a1,0xb
    800036f0:	25758593          	addi	a1,a1,599
    800036f4:	00b59593          	slli	a1,a1,0xb
    800036f8:	6c358593          	addi	a1,a1,1731
    800036fc:	00a59593          	slli	a1,a1,0xa
    80003700:	0ce58593          	addi	a1,a1,206
    80003704:	00b52633          	slt	a2,a0,a1
    80003708:	00c13023          	sd	a2,0(sp)
    8000370c:	00000693          	li	a3,0
    80003710:	00c68463          	beq	a3,a2,80003718 <inst_275>
    80003714:	911fc06f          	j	80000024 <rvtest_error>

0000000080003718 <inst_275>:
    80003718:	00500513          	li	a0,5
    8000371c:	000005b7          	lui	a1,0x0
    80003720:	00058593          	mv	a1,a1
    80003724:	00b59593          	slli	a1,a1,0xb
    80003728:	5a858593          	addi	a1,a1,1448 # 5a8 <offset+0x118>
    8000372c:	00b59593          	slli	a1,a1,0xb
    80003730:	13c58593          	addi	a1,a1,316
    80003734:	00a59593          	slli	a1,a1,0xa
    80003738:	33458593          	addi	a1,a1,820
    8000373c:	00b52633          	slt	a2,a0,a1
    80003740:	00c13423          	sd	a2,8(sp)
    80003744:	00100693          	li	a3,1
    80003748:	00c68463          	beq	a3,a2,80003750 <inst_276>
    8000374c:	8d9fc06f          	j	80000024 <rvtest_error>

0000000080003750 <inst_276>:
    80003750:	33333537          	lui	a0,0x33333
    80003754:	33350513          	addi	a0,a0,819 # 33333333 <absimmsh+0x27862586>
    80003758:	00b51513          	slli	a0,a0,0xb
    8000375c:	19950513          	addi	a0,a0,409
    80003760:	00b51513          	slli	a0,a0,0xb
    80003764:	4cc50513          	addi	a0,a0,1228
    80003768:	00a51513          	slli	a0,a0,0xa
    8000376c:	33350513          	addi	a0,a0,819
    80003770:	00300593          	li	a1,3
    80003774:	00b52633          	slt	a2,a0,a1
    80003778:	00c13823          	sd	a2,16(sp)
    8000377c:	00000693          	li	a3,0
    80003780:	00c68463          	beq	a3,a2,80003788 <inst_277>
    80003784:	8a1fc06f          	j	80000024 <rvtest_error>

0000000080003788 <inst_277>:
    80003788:	33333537          	lui	a0,0x33333
    8000378c:	33350513          	addi	a0,a0,819 # 33333333 <absimmsh+0x27862586>
    80003790:	00b51513          	slli	a0,a0,0xb
    80003794:	19950513          	addi	a0,a0,409
    80003798:	00b51513          	slli	a0,a0,0xb
    8000379c:	4cc50513          	addi	a0,a0,1228
    800037a0:	00a51513          	slli	a0,a0,0xa
    800037a4:	33350513          	addi	a0,a0,819
    800037a8:	555555b7          	lui	a1,0x55555
    800037ac:	55558593          	addi	a1,a1,1365 # 55555555 <absimmsh+0x49a847a8>
    800037b0:	00b59593          	slli	a1,a1,0xb
    800037b4:	2aa58593          	addi	a1,a1,682
    800037b8:	00b59593          	slli	a1,a1,0xb
    800037bc:	55558593          	addi	a1,a1,1365
    800037c0:	00a59593          	slli	a1,a1,0xa
    800037c4:	15558593          	addi	a1,a1,341
    800037c8:	00b52633          	slt	a2,a0,a1
    800037cc:	00c13c23          	sd	a2,24(sp)
    800037d0:	00100693          	li	a3,1
    800037d4:	00c68463          	beq	a3,a2,800037dc <inst_278>
    800037d8:	84dfc06f          	j	80000024 <rvtest_error>

00000000800037dc <inst_278>:
    800037dc:	33333537          	lui	a0,0x33333
    800037e0:	33350513          	addi	a0,a0,819 # 33333333 <absimmsh+0x27862586>
    800037e4:	00b51513          	slli	a0,a0,0xb
    800037e8:	19950513          	addi	a0,a0,409
    800037ec:	00b51513          	slli	a0,a0,0xb
    800037f0:	4cc50513          	addi	a0,a0,1228
    800037f4:	00a51513          	slli	a0,a0,0xa
    800037f8:	33350513          	addi	a0,a0,819
    800037fc:	aaaab5b7          	lui	a1,0xaaaab
    80003800:	aaa58593          	addi	a1,a1,-1366 # ffffffffaaaaaaaa <absimm+0xfffffffeefd9cfda>
    80003804:	00b59593          	slli	a1,a1,0xb
    80003808:	55558593          	addi	a1,a1,1365
    8000380c:	00b59593          	slli	a1,a1,0xb
    80003810:	2aa58593          	addi	a1,a1,682
    80003814:	00a59593          	slli	a1,a1,0xa
    80003818:	2aa58593          	addi	a1,a1,682
    8000381c:	00b52633          	slt	a2,a0,a1
    80003820:	02c13023          	sd	a2,32(sp)
    80003824:	00000693          	li	a3,0
    80003828:	00c68463          	beq	a3,a2,80003830 <inst_279>
    8000382c:	ff8fc06f          	j	80000024 <rvtest_error>

0000000080003830 <inst_279>:
    80003830:	33333537          	lui	a0,0x33333
    80003834:	33350513          	addi	a0,a0,819 # 33333333 <absimmsh+0x27862586>
    80003838:	00b51513          	slli	a0,a0,0xb
    8000383c:	19950513          	addi	a0,a0,409
    80003840:	00b51513          	slli	a0,a0,0xb
    80003844:	4cc50513          	addi	a0,a0,1228
    80003848:	00a51513          	slli	a0,a0,0xa
    8000384c:	33350513          	addi	a0,a0,819
    80003850:	00500593          	li	a1,5
    80003854:	00b52633          	slt	a2,a0,a1
    80003858:	02c13423          	sd	a2,40(sp)
    8000385c:	00000693          	li	a3,0
    80003860:	00c68463          	beq	a3,a2,80003868 <inst_280>
    80003864:	fc0fc06f          	j	80000024 <rvtest_error>

0000000080003868 <inst_280>:
    80003868:	33333537          	lui	a0,0x33333
    8000386c:	33350513          	addi	a0,a0,819 # 33333333 <absimmsh+0x27862586>
    80003870:	00b51513          	slli	a0,a0,0xb
    80003874:	19950513          	addi	a0,a0,409
    80003878:	00b51513          	slli	a0,a0,0xb
    8000387c:	4cc50513          	addi	a0,a0,1228
    80003880:	00a51513          	slli	a0,a0,0xa
    80003884:	33350513          	addi	a0,a0,819
    80003888:	333335b7          	lui	a1,0x33333
    8000388c:	33358593          	addi	a1,a1,819 # 33333333 <absimmsh+0x27862586>
    80003890:	00b59593          	slli	a1,a1,0xb
    80003894:	19958593          	addi	a1,a1,409
    80003898:	00b59593          	slli	a1,a1,0xb
    8000389c:	4cc58593          	addi	a1,a1,1228
    800038a0:	00a59593          	slli	a1,a1,0xa
    800038a4:	33358593          	addi	a1,a1,819
    800038a8:	00b52633          	slt	a2,a0,a1
    800038ac:	02c13823          	sd	a2,48(sp)
    800038b0:	00000693          	li	a3,0
    800038b4:	00c68463          	beq	a3,a2,800038bc <inst_281>
    800038b8:	f6cfc06f          	j	80000024 <rvtest_error>

00000000800038bc <inst_281>:
    800038bc:	33333537          	lui	a0,0x33333
    800038c0:	33350513          	addi	a0,a0,819 # 33333333 <absimmsh+0x27862586>
    800038c4:	00b51513          	slli	a0,a0,0xb
    800038c8:	19950513          	addi	a0,a0,409
    800038cc:	00b51513          	slli	a0,a0,0xb
    800038d0:	4cc50513          	addi	a0,a0,1228
    800038d4:	00a51513          	slli	a0,a0,0xa
    800038d8:	33350513          	addi	a0,a0,819
    800038dc:	666665b7          	lui	a1,0x66666
    800038e0:	66658593          	addi	a1,a1,1638 # 66666666 <absimmsh+0x5ab958b9>
    800038e4:	00b59593          	slli	a1,a1,0xb
    800038e8:	33358593          	addi	a1,a1,819
    800038ec:	00b59593          	slli	a1,a1,0xb
    800038f0:	19958593          	addi	a1,a1,409
    800038f4:	00a59593          	slli	a1,a1,0xa
    800038f8:	26658593          	addi	a1,a1,614
    800038fc:	00b52633          	slt	a2,a0,a1
    80003900:	02c13c23          	sd	a2,56(sp)
    80003904:	00100693          	li	a3,1
    80003908:	00c68463          	beq	a3,a2,80003910 <inst_282>
    8000390c:	f18fc06f          	j	80000024 <rvtest_error>

0000000080003910 <inst_282>:
    80003910:	33333537          	lui	a0,0x33333
    80003914:	33350513          	addi	a0,a0,819 # 33333333 <absimmsh+0x27862586>
    80003918:	00b51513          	slli	a0,a0,0xb
    8000391c:	19950513          	addi	a0,a0,409
    80003920:	00b51513          	slli	a0,a0,0xb
    80003924:	4cc50513          	addi	a0,a0,1228
    80003928:	00a51513          	slli	a0,a0,0xa
    8000392c:	33350513          	addi	a0,a0,819
    80003930:	000005b7          	lui	a1,0x0
    80003934:	fff58593          	addi	a1,a1,-1
    80003938:	00b59593          	slli	a1,a1,0xb
    8000393c:	25758593          	addi	a1,a1,599
    80003940:	00b59593          	slli	a1,a1,0xb
    80003944:	6c358593          	addi	a1,a1,1731
    80003948:	00a59593          	slli	a1,a1,0xa
    8000394c:	0cd58593          	addi	a1,a1,205
    80003950:	00b52633          	slt	a2,a0,a1
    80003954:	04c13023          	sd	a2,64(sp)
    80003958:	00000693          	li	a3,0
    8000395c:	00c68463          	beq	a3,a2,80003964 <inst_283>
    80003960:	ec4fc06f          	j	80000024 <rvtest_error>

0000000080003964 <inst_283>:
    80003964:	33333537          	lui	a0,0x33333
    80003968:	33350513          	addi	a0,a0,819 # 33333333 <absimmsh+0x27862586>
    8000396c:	00b51513          	slli	a0,a0,0xb
    80003970:	19950513          	addi	a0,a0,409
    80003974:	00b51513          	slli	a0,a0,0xb
    80003978:	4cc50513          	addi	a0,a0,1228
    8000397c:	00a51513          	slli	a0,a0,0xa
    80003980:	33350513          	addi	a0,a0,819
    80003984:	000005b7          	lui	a1,0x0
    80003988:	00058593          	mv	a1,a1
    8000398c:	00b59593          	slli	a1,a1,0xb
    80003990:	5a858593          	addi	a1,a1,1448 # 5a8 <offset+0x118>
    80003994:	00b59593          	slli	a1,a1,0xb
    80003998:	13c58593          	addi	a1,a1,316
    8000399c:	00a59593          	slli	a1,a1,0xa
    800039a0:	33358593          	addi	a1,a1,819
    800039a4:	00b52633          	slt	a2,a0,a1
    800039a8:	04c13423          	sd	a2,72(sp)
    800039ac:	00000693          	li	a3,0
    800039b0:	00c68463          	beq	a3,a2,800039b8 <inst_284>
    800039b4:	e70fc06f          	j	80000024 <rvtest_error>

00000000800039b8 <inst_284>:
    800039b8:	33333537          	lui	a0,0x33333
    800039bc:	33350513          	addi	a0,a0,819 # 33333333 <absimmsh+0x27862586>
    800039c0:	00b51513          	slli	a0,a0,0xb
    800039c4:	19950513          	addi	a0,a0,409
    800039c8:	00b51513          	slli	a0,a0,0xb
    800039cc:	4cc50513          	addi	a0,a0,1228
    800039d0:	00a51513          	slli	a0,a0,0xa
    800039d4:	33350513          	addi	a0,a0,819
    800039d8:	00200593          	li	a1,2
    800039dc:	00b52633          	slt	a2,a0,a1
    800039e0:	04c13823          	sd	a2,80(sp)
    800039e4:	00000693          	li	a3,0
    800039e8:	00c68463          	beq	a3,a2,800039f0 <inst_285>
    800039ec:	e38fc06f          	j	80000024 <rvtest_error>

00000000800039f0 <inst_285>:
    800039f0:	33333537          	lui	a0,0x33333
    800039f4:	33350513          	addi	a0,a0,819 # 33333333 <absimmsh+0x27862586>
    800039f8:	00b51513          	slli	a0,a0,0xb
    800039fc:	19950513          	addi	a0,a0,409
    80003a00:	00b51513          	slli	a0,a0,0xb
    80003a04:	4cc50513          	addi	a0,a0,1228
    80003a08:	00a51513          	slli	a0,a0,0xa
    80003a0c:	33350513          	addi	a0,a0,819
    80003a10:	555555b7          	lui	a1,0x55555
    80003a14:	55558593          	addi	a1,a1,1365 # 55555555 <absimmsh+0x49a847a8>
    80003a18:	00b59593          	slli	a1,a1,0xb
    80003a1c:	2aa58593          	addi	a1,a1,682
    80003a20:	00b59593          	slli	a1,a1,0xb
    80003a24:	55558593          	addi	a1,a1,1365
    80003a28:	00a59593          	slli	a1,a1,0xa
    80003a2c:	15458593          	addi	a1,a1,340
    80003a30:	00b52633          	slt	a2,a0,a1
    80003a34:	04c13c23          	sd	a2,88(sp)
    80003a38:	00100693          	li	a3,1
    80003a3c:	00c68463          	beq	a3,a2,80003a44 <inst_286>
    80003a40:	de4fc06f          	j	80000024 <rvtest_error>

0000000080003a44 <inst_286>:
    80003a44:	33333537          	lui	a0,0x33333
    80003a48:	33350513          	addi	a0,a0,819 # 33333333 <absimmsh+0x27862586>
    80003a4c:	00b51513          	slli	a0,a0,0xb
    80003a50:	19950513          	addi	a0,a0,409
    80003a54:	00b51513          	slli	a0,a0,0xb
    80003a58:	4cc50513          	addi	a0,a0,1228
    80003a5c:	00a51513          	slli	a0,a0,0xa
    80003a60:	33350513          	addi	a0,a0,819
    80003a64:	00000593          	li	a1,0
    80003a68:	00b52633          	slt	a2,a0,a1
    80003a6c:	06c13023          	sd	a2,96(sp)
    80003a70:	00000693          	li	a3,0
    80003a74:	00c68463          	beq	a3,a2,80003a7c <inst_287>
    80003a78:	dacfc06f          	j	80000024 <rvtest_error>

0000000080003a7c <inst_287>:
    80003a7c:	33333537          	lui	a0,0x33333
    80003a80:	33350513          	addi	a0,a0,819 # 33333333 <absimmsh+0x27862586>
    80003a84:	00b51513          	slli	a0,a0,0xb
    80003a88:	19950513          	addi	a0,a0,409
    80003a8c:	00b51513          	slli	a0,a0,0xb
    80003a90:	4cc50513          	addi	a0,a0,1228
    80003a94:	00a51513          	slli	a0,a0,0xa
    80003a98:	33350513          	addi	a0,a0,819
    80003a9c:	00400593          	li	a1,4
    80003aa0:	00b52633          	slt	a2,a0,a1
    80003aa4:	06c13423          	sd	a2,104(sp)
    80003aa8:	00000693          	li	a3,0
    80003aac:	00c68463          	beq	a3,a2,80003ab4 <inst_288>
    80003ab0:	d74fc06f          	j	80000024 <rvtest_error>

0000000080003ab4 <inst_288>:
    80003ab4:	33333537          	lui	a0,0x33333
    80003ab8:	33350513          	addi	a0,a0,819 # 33333333 <absimmsh+0x27862586>
    80003abc:	00b51513          	slli	a0,a0,0xb
    80003ac0:	19950513          	addi	a0,a0,409
    80003ac4:	00b51513          	slli	a0,a0,0xb
    80003ac8:	4cc50513          	addi	a0,a0,1228
    80003acc:	00a51513          	slli	a0,a0,0xa
    80003ad0:	33350513          	addi	a0,a0,819
    80003ad4:	333335b7          	lui	a1,0x33333
    80003ad8:	33358593          	addi	a1,a1,819 # 33333333 <absimmsh+0x27862586>
    80003adc:	00b59593          	slli	a1,a1,0xb
    80003ae0:	19958593          	addi	a1,a1,409
    80003ae4:	00b59593          	slli	a1,a1,0xb
    80003ae8:	4cc58593          	addi	a1,a1,1228
    80003aec:	00a59593          	slli	a1,a1,0xa
    80003af0:	33258593          	addi	a1,a1,818
    80003af4:	00b52633          	slt	a2,a0,a1
    80003af8:	06c13823          	sd	a2,112(sp)
    80003afc:	00000693          	li	a3,0
    80003b00:	00c68463          	beq	a3,a2,80003b08 <inst_289>
    80003b04:	d20fc06f          	j	80000024 <rvtest_error>

0000000080003b08 <inst_289>:
    80003b08:	33333537          	lui	a0,0x33333
    80003b0c:	33350513          	addi	a0,a0,819 # 33333333 <absimmsh+0x27862586>
    80003b10:	00b51513          	slli	a0,a0,0xb
    80003b14:	19950513          	addi	a0,a0,409
    80003b18:	00b51513          	slli	a0,a0,0xb
    80003b1c:	4cc50513          	addi	a0,a0,1228
    80003b20:	00a51513          	slli	a0,a0,0xa
    80003b24:	33350513          	addi	a0,a0,819
    80003b28:	666665b7          	lui	a1,0x66666
    80003b2c:	66658593          	addi	a1,a1,1638 # 66666666 <absimmsh+0x5ab958b9>
    80003b30:	00b59593          	slli	a1,a1,0xb
    80003b34:	33358593          	addi	a1,a1,819
    80003b38:	00b59593          	slli	a1,a1,0xb
    80003b3c:	19958593          	addi	a1,a1,409
    80003b40:	00a59593          	slli	a1,a1,0xa
    80003b44:	26558593          	addi	a1,a1,613
    80003b48:	00b52633          	slt	a2,a0,a1
    80003b4c:	06c13c23          	sd	a2,120(sp)
    80003b50:	00100693          	li	a3,1
    80003b54:	00c68463          	beq	a3,a2,80003b5c <inst_290>
    80003b58:	cccfc06f          	j	80000024 <rvtest_error>

0000000080003b5c <inst_290>:
    80003b5c:	33333537          	lui	a0,0x33333
    80003b60:	33350513          	addi	a0,a0,819 # 33333333 <absimmsh+0x27862586>
    80003b64:	00b51513          	slli	a0,a0,0xb
    80003b68:	19950513          	addi	a0,a0,409
    80003b6c:	00b51513          	slli	a0,a0,0xb
    80003b70:	4cc50513          	addi	a0,a0,1228
    80003b74:	00a51513          	slli	a0,a0,0xa
    80003b78:	33350513          	addi	a0,a0,819
    80003b7c:	000005b7          	lui	a1,0x0
    80003b80:	00058593          	mv	a1,a1
    80003b84:	00b59593          	slli	a1,a1,0xb
    80003b88:	5a858593          	addi	a1,a1,1448 # 5a8 <offset+0x118>
    80003b8c:	00b59593          	slli	a1,a1,0xb
    80003b90:	13c58593          	addi	a1,a1,316
    80003b94:	00a59593          	slli	a1,a1,0xa
    80003b98:	33258593          	addi	a1,a1,818
    80003b9c:	00b52633          	slt	a2,a0,a1
    80003ba0:	08c13023          	sd	a2,128(sp)
    80003ba4:	00000693          	li	a3,0
    80003ba8:	00c68463          	beq	a3,a2,80003bb0 <inst_291>
    80003bac:	c78fc06f          	j	80000024 <rvtest_error>

0000000080003bb0 <inst_291>:
    80003bb0:	33333537          	lui	a0,0x33333
    80003bb4:	33350513          	addi	a0,a0,819 # 33333333 <absimmsh+0x27862586>
    80003bb8:	00b51513          	slli	a0,a0,0xb
    80003bbc:	19950513          	addi	a0,a0,409
    80003bc0:	00b51513          	slli	a0,a0,0xb
    80003bc4:	4cc50513          	addi	a0,a0,1228
    80003bc8:	00a51513          	slli	a0,a0,0xa
    80003bcc:	33350513          	addi	a0,a0,819
    80003bd0:	555555b7          	lui	a1,0x55555
    80003bd4:	55558593          	addi	a1,a1,1365 # 55555555 <absimmsh+0x49a847a8>
    80003bd8:	00b59593          	slli	a1,a1,0xb
    80003bdc:	2aa58593          	addi	a1,a1,682
    80003be0:	00b59593          	slli	a1,a1,0xb
    80003be4:	55558593          	addi	a1,a1,1365
    80003be8:	00a59593          	slli	a1,a1,0xa
    80003bec:	15658593          	addi	a1,a1,342
    80003bf0:	00b52633          	slt	a2,a0,a1
    80003bf4:	08c13423          	sd	a2,136(sp)
    80003bf8:	00100693          	li	a3,1
    80003bfc:	00c68463          	beq	a3,a2,80003c04 <inst_292>
    80003c00:	c24fc06f          	j	80000024 <rvtest_error>

0000000080003c04 <inst_292>:
    80003c04:	33333537          	lui	a0,0x33333
    80003c08:	33350513          	addi	a0,a0,819 # 33333333 <absimmsh+0x27862586>
    80003c0c:	00b51513          	slli	a0,a0,0xb
    80003c10:	19950513          	addi	a0,a0,409
    80003c14:	00b51513          	slli	a0,a0,0xb
    80003c18:	4cc50513          	addi	a0,a0,1228
    80003c1c:	00a51513          	slli	a0,a0,0xa
    80003c20:	33350513          	addi	a0,a0,819
    80003c24:	aaaab5b7          	lui	a1,0xaaaab
    80003c28:	aaa58593          	addi	a1,a1,-1366 # ffffffffaaaaaaaa <absimm+0xfffffffeefd9cfda>
    80003c2c:	00b59593          	slli	a1,a1,0xb
    80003c30:	55558593          	addi	a1,a1,1365
    80003c34:	00b59593          	slli	a1,a1,0xb
    80003c38:	2aa58593          	addi	a1,a1,682
    80003c3c:	00a59593          	slli	a1,a1,0xa
    80003c40:	2ab58593          	addi	a1,a1,683
    80003c44:	00b52633          	slt	a2,a0,a1
    80003c48:	08c13823          	sd	a2,144(sp)
    80003c4c:	00000693          	li	a3,0
    80003c50:	00c68463          	beq	a3,a2,80003c58 <inst_293>
    80003c54:	bd0fc06f          	j	80000024 <rvtest_error>

0000000080003c58 <inst_293>:
    80003c58:	33333537          	lui	a0,0x33333
    80003c5c:	33350513          	addi	a0,a0,819 # 33333333 <absimmsh+0x27862586>
    80003c60:	00b51513          	slli	a0,a0,0xb
    80003c64:	19950513          	addi	a0,a0,409
    80003c68:	00b51513          	slli	a0,a0,0xb
    80003c6c:	4cc50513          	addi	a0,a0,1228
    80003c70:	00a51513          	slli	a0,a0,0xa
    80003c74:	33350513          	addi	a0,a0,819
    80003c78:	00600593          	li	a1,6
    80003c7c:	00b52633          	slt	a2,a0,a1
    80003c80:	08c13c23          	sd	a2,152(sp)
    80003c84:	00000693          	li	a3,0
    80003c88:	00c68463          	beq	a3,a2,80003c90 <inst_294>
    80003c8c:	b98fc06f          	j	80000024 <rvtest_error>

0000000080003c90 <inst_294>:
    80003c90:	33333537          	lui	a0,0x33333
    80003c94:	33350513          	addi	a0,a0,819 # 33333333 <absimmsh+0x27862586>
    80003c98:	00b51513          	slli	a0,a0,0xb
    80003c9c:	19950513          	addi	a0,a0,409
    80003ca0:	00b51513          	slli	a0,a0,0xb
    80003ca4:	4cc50513          	addi	a0,a0,1228
    80003ca8:	00a51513          	slli	a0,a0,0xa
    80003cac:	33350513          	addi	a0,a0,819
    80003cb0:	333335b7          	lui	a1,0x33333
    80003cb4:	33358593          	addi	a1,a1,819 # 33333333 <absimmsh+0x27862586>
    80003cb8:	00b59593          	slli	a1,a1,0xb
    80003cbc:	19958593          	addi	a1,a1,409
    80003cc0:	00b59593          	slli	a1,a1,0xb
    80003cc4:	4cc58593          	addi	a1,a1,1228
    80003cc8:	00a59593          	slli	a1,a1,0xa
    80003ccc:	33458593          	addi	a1,a1,820
    80003cd0:	00b52633          	slt	a2,a0,a1
    80003cd4:	0ac13023          	sd	a2,160(sp)
    80003cd8:	00100693          	li	a3,1
    80003cdc:	00c68463          	beq	a3,a2,80003ce4 <inst_295>
    80003ce0:	b44fc06f          	j	80000024 <rvtest_error>

0000000080003ce4 <inst_295>:
    80003ce4:	33333537          	lui	a0,0x33333
    80003ce8:	33350513          	addi	a0,a0,819 # 33333333 <absimmsh+0x27862586>
    80003cec:	00b51513          	slli	a0,a0,0xb
    80003cf0:	19950513          	addi	a0,a0,409
    80003cf4:	00b51513          	slli	a0,a0,0xb
    80003cf8:	4cc50513          	addi	a0,a0,1228
    80003cfc:	00a51513          	slli	a0,a0,0xa
    80003d00:	33350513          	addi	a0,a0,819
    80003d04:	666665b7          	lui	a1,0x66666
    80003d08:	66658593          	addi	a1,a1,1638 # 66666666 <absimmsh+0x5ab958b9>
    80003d0c:	00b59593          	slli	a1,a1,0xb
    80003d10:	33358593          	addi	a1,a1,819
    80003d14:	00b59593          	slli	a1,a1,0xb
    80003d18:	19958593          	addi	a1,a1,409
    80003d1c:	00a59593          	slli	a1,a1,0xa
    80003d20:	26758593          	addi	a1,a1,615
    80003d24:	00b52633          	slt	a2,a0,a1
    80003d28:	0ac13423          	sd	a2,168(sp)
    80003d2c:	00100693          	li	a3,1
    80003d30:	00c68463          	beq	a3,a2,80003d38 <inst_296>
    80003d34:	af0fc06f          	j	80000024 <rvtest_error>

0000000080003d38 <inst_296>:
    80003d38:	33333537          	lui	a0,0x33333
    80003d3c:	33350513          	addi	a0,a0,819 # 33333333 <absimmsh+0x27862586>
    80003d40:	00b51513          	slli	a0,a0,0xb
    80003d44:	19950513          	addi	a0,a0,409
    80003d48:	00b51513          	slli	a0,a0,0xb
    80003d4c:	4cc50513          	addi	a0,a0,1228
    80003d50:	00a51513          	slli	a0,a0,0xa
    80003d54:	33350513          	addi	a0,a0,819
    80003d58:	000005b7          	lui	a1,0x0
    80003d5c:	fff58593          	addi	a1,a1,-1
    80003d60:	00b59593          	slli	a1,a1,0xb
    80003d64:	25758593          	addi	a1,a1,599
    80003d68:	00b59593          	slli	a1,a1,0xb
    80003d6c:	6c358593          	addi	a1,a1,1731
    80003d70:	00a59593          	slli	a1,a1,0xa
    80003d74:	0ce58593          	addi	a1,a1,206
    80003d78:	00b52633          	slt	a2,a0,a1
    80003d7c:	0ac13823          	sd	a2,176(sp)
    80003d80:	00000693          	li	a3,0
    80003d84:	00c68463          	beq	a3,a2,80003d8c <inst_297>
    80003d88:	a9cfc06f          	j	80000024 <rvtest_error>

0000000080003d8c <inst_297>:
    80003d8c:	33333537          	lui	a0,0x33333
    80003d90:	33350513          	addi	a0,a0,819 # 33333333 <absimmsh+0x27862586>
    80003d94:	00b51513          	slli	a0,a0,0xb
    80003d98:	19950513          	addi	a0,a0,409
    80003d9c:	00b51513          	slli	a0,a0,0xb
    80003da0:	4cc50513          	addi	a0,a0,1228
    80003da4:	00a51513          	slli	a0,a0,0xa
    80003da8:	33350513          	addi	a0,a0,819
    80003dac:	000005b7          	lui	a1,0x0
    80003db0:	00058593          	mv	a1,a1
    80003db4:	00b59593          	slli	a1,a1,0xb
    80003db8:	5a858593          	addi	a1,a1,1448 # 5a8 <offset+0x118>
    80003dbc:	00b59593          	slli	a1,a1,0xb
    80003dc0:	13c58593          	addi	a1,a1,316
    80003dc4:	00a59593          	slli	a1,a1,0xa
    80003dc8:	33458593          	addi	a1,a1,820
    80003dcc:	00b52633          	slt	a2,a0,a1
    80003dd0:	0ac13c23          	sd	a2,184(sp)
    80003dd4:	00000693          	li	a3,0
    80003dd8:	00c68463          	beq	a3,a2,80003de0 <inst_298>
    80003ddc:	a48fc06f          	j	80000024 <rvtest_error>

0000000080003de0 <inst_298>:
    80003de0:	66666537          	lui	a0,0x66666
    80003de4:	66650513          	addi	a0,a0,1638 # 66666666 <absimmsh+0x5ab958b9>
    80003de8:	00b51513          	slli	a0,a0,0xb
    80003dec:	33350513          	addi	a0,a0,819
    80003df0:	00b51513          	slli	a0,a0,0xb
    80003df4:	19950513          	addi	a0,a0,409
    80003df8:	00a51513          	slli	a0,a0,0xa
    80003dfc:	26650513          	addi	a0,a0,614
    80003e00:	00300593          	li	a1,3
    80003e04:	00b52633          	slt	a2,a0,a1
    80003e08:	0cc13023          	sd	a2,192(sp)
    80003e0c:	00000693          	li	a3,0
    80003e10:	00c68463          	beq	a3,a2,80003e18 <inst_299>
    80003e14:	a10fc06f          	j	80000024 <rvtest_error>

0000000080003e18 <inst_299>:
    80003e18:	66666537          	lui	a0,0x66666
    80003e1c:	66650513          	addi	a0,a0,1638 # 66666666 <absimmsh+0x5ab958b9>
    80003e20:	00b51513          	slli	a0,a0,0xb
    80003e24:	33350513          	addi	a0,a0,819
    80003e28:	00b51513          	slli	a0,a0,0xb
    80003e2c:	19950513          	addi	a0,a0,409
    80003e30:	00a51513          	slli	a0,a0,0xa
    80003e34:	26650513          	addi	a0,a0,614
    80003e38:	555555b7          	lui	a1,0x55555
    80003e3c:	55558593          	addi	a1,a1,1365 # 55555555 <absimmsh+0x49a847a8>
    80003e40:	00b59593          	slli	a1,a1,0xb
    80003e44:	2aa58593          	addi	a1,a1,682
    80003e48:	00b59593          	slli	a1,a1,0xb
    80003e4c:	55558593          	addi	a1,a1,1365
    80003e50:	00a59593          	slli	a1,a1,0xa
    80003e54:	15558593          	addi	a1,a1,341
    80003e58:	00b52633          	slt	a2,a0,a1
    80003e5c:	0cc13423          	sd	a2,200(sp)
    80003e60:	00000693          	li	a3,0
    80003e64:	00c68463          	beq	a3,a2,80003e6c <inst_300>
    80003e68:	9bcfc06f          	j	80000024 <rvtest_error>

0000000080003e6c <inst_300>:
    80003e6c:	66666537          	lui	a0,0x66666
    80003e70:	66650513          	addi	a0,a0,1638 # 66666666 <absimmsh+0x5ab958b9>
    80003e74:	00b51513          	slli	a0,a0,0xb
    80003e78:	33350513          	addi	a0,a0,819
    80003e7c:	00b51513          	slli	a0,a0,0xb
    80003e80:	19950513          	addi	a0,a0,409
    80003e84:	00a51513          	slli	a0,a0,0xa
    80003e88:	26650513          	addi	a0,a0,614
    80003e8c:	aaaab5b7          	lui	a1,0xaaaab
    80003e90:	aaa58593          	addi	a1,a1,-1366 # ffffffffaaaaaaaa <absimm+0xfffffffeefd9cfda>
    80003e94:	00b59593          	slli	a1,a1,0xb
    80003e98:	55558593          	addi	a1,a1,1365
    80003e9c:	00b59593          	slli	a1,a1,0xb
    80003ea0:	2aa58593          	addi	a1,a1,682
    80003ea4:	00a59593          	slli	a1,a1,0xa
    80003ea8:	2aa58593          	addi	a1,a1,682
    80003eac:	00b52633          	slt	a2,a0,a1
    80003eb0:	0cc13823          	sd	a2,208(sp)
    80003eb4:	00000693          	li	a3,0
    80003eb8:	00c68463          	beq	a3,a2,80003ec0 <inst_301>
    80003ebc:	968fc06f          	j	80000024 <rvtest_error>

0000000080003ec0 <inst_301>:
    80003ec0:	66666537          	lui	a0,0x66666
    80003ec4:	66650513          	addi	a0,a0,1638 # 66666666 <absimmsh+0x5ab958b9>
    80003ec8:	00b51513          	slli	a0,a0,0xb
    80003ecc:	33350513          	addi	a0,a0,819
    80003ed0:	00b51513          	slli	a0,a0,0xb
    80003ed4:	19950513          	addi	a0,a0,409
    80003ed8:	00a51513          	slli	a0,a0,0xa
    80003edc:	26650513          	addi	a0,a0,614
    80003ee0:	00500593          	li	a1,5
    80003ee4:	00b52633          	slt	a2,a0,a1
    80003ee8:	0cc13c23          	sd	a2,216(sp)
    80003eec:	00000693          	li	a3,0
    80003ef0:	00c68463          	beq	a3,a2,80003ef8 <inst_302>
    80003ef4:	930fc06f          	j	80000024 <rvtest_error>

0000000080003ef8 <inst_302>:
    80003ef8:	66666537          	lui	a0,0x66666
    80003efc:	66650513          	addi	a0,a0,1638 # 66666666 <absimmsh+0x5ab958b9>
    80003f00:	00b51513          	slli	a0,a0,0xb
    80003f04:	33350513          	addi	a0,a0,819
    80003f08:	00b51513          	slli	a0,a0,0xb
    80003f0c:	19950513          	addi	a0,a0,409
    80003f10:	00a51513          	slli	a0,a0,0xa
    80003f14:	26650513          	addi	a0,a0,614
    80003f18:	333335b7          	lui	a1,0x33333
    80003f1c:	33358593          	addi	a1,a1,819 # 33333333 <absimmsh+0x27862586>
    80003f20:	00b59593          	slli	a1,a1,0xb
    80003f24:	19958593          	addi	a1,a1,409
    80003f28:	00b59593          	slli	a1,a1,0xb
    80003f2c:	4cc58593          	addi	a1,a1,1228
    80003f30:	00a59593          	slli	a1,a1,0xa
    80003f34:	33358593          	addi	a1,a1,819
    80003f38:	00b52633          	slt	a2,a0,a1
    80003f3c:	0ec13023          	sd	a2,224(sp)
    80003f40:	00000693          	li	a3,0
    80003f44:	00c68463          	beq	a3,a2,80003f4c <inst_303>
    80003f48:	8dcfc06f          	j	80000024 <rvtest_error>

0000000080003f4c <inst_303>:
    80003f4c:	66666537          	lui	a0,0x66666
    80003f50:	66650513          	addi	a0,a0,1638 # 66666666 <absimmsh+0x5ab958b9>
    80003f54:	00b51513          	slli	a0,a0,0xb
    80003f58:	33350513          	addi	a0,a0,819
    80003f5c:	00b51513          	slli	a0,a0,0xb
    80003f60:	19950513          	addi	a0,a0,409
    80003f64:	00a51513          	slli	a0,a0,0xa
    80003f68:	26650513          	addi	a0,a0,614
    80003f6c:	666665b7          	lui	a1,0x66666
    80003f70:	66658593          	addi	a1,a1,1638 # 66666666 <absimmsh+0x5ab958b9>
    80003f74:	00b59593          	slli	a1,a1,0xb
    80003f78:	33358593          	addi	a1,a1,819
    80003f7c:	00b59593          	slli	a1,a1,0xb
    80003f80:	19958593          	addi	a1,a1,409
    80003f84:	00a59593          	slli	a1,a1,0xa
    80003f88:	26658593          	addi	a1,a1,614
    80003f8c:	00b52633          	slt	a2,a0,a1
    80003f90:	0ec13423          	sd	a2,232(sp)
    80003f94:	00000693          	li	a3,0
    80003f98:	00c68463          	beq	a3,a2,80003fa0 <inst_304>
    80003f9c:	888fc06f          	j	80000024 <rvtest_error>

0000000080003fa0 <inst_304>:
    80003fa0:	66666537          	lui	a0,0x66666
    80003fa4:	66650513          	addi	a0,a0,1638 # 66666666 <absimmsh+0x5ab958b9>
    80003fa8:	00b51513          	slli	a0,a0,0xb
    80003fac:	33350513          	addi	a0,a0,819
    80003fb0:	00b51513          	slli	a0,a0,0xb
    80003fb4:	19950513          	addi	a0,a0,409
    80003fb8:	00a51513          	slli	a0,a0,0xa
    80003fbc:	26650513          	addi	a0,a0,614
    80003fc0:	000005b7          	lui	a1,0x0
    80003fc4:	fff58593          	addi	a1,a1,-1
    80003fc8:	00b59593          	slli	a1,a1,0xb
    80003fcc:	25758593          	addi	a1,a1,599
    80003fd0:	00b59593          	slli	a1,a1,0xb
    80003fd4:	6c358593          	addi	a1,a1,1731
    80003fd8:	00a59593          	slli	a1,a1,0xa
    80003fdc:	0cd58593          	addi	a1,a1,205
    80003fe0:	00b52633          	slt	a2,a0,a1
    80003fe4:	0ec13823          	sd	a2,240(sp)
    80003fe8:	00000693          	li	a3,0
    80003fec:	00c68463          	beq	a3,a2,80003ff4 <inst_305>
    80003ff0:	834fc06f          	j	80000024 <rvtest_error>

0000000080003ff4 <inst_305>:
    80003ff4:	66666537          	lui	a0,0x66666
    80003ff8:	66650513          	addi	a0,a0,1638 # 66666666 <absimmsh+0x5ab958b9>
    80003ffc:	00b51513          	slli	a0,a0,0xb
    80004000:	33350513          	addi	a0,a0,819
    80004004:	00b51513          	slli	a0,a0,0xb
    80004008:	19950513          	addi	a0,a0,409
    8000400c:	00a51513          	slli	a0,a0,0xa
    80004010:	26650513          	addi	a0,a0,614
    80004014:	000005b7          	lui	a1,0x0
    80004018:	00058593          	mv	a1,a1
    8000401c:	00b59593          	slli	a1,a1,0xb
    80004020:	5a858593          	addi	a1,a1,1448 # 5a8 <offset+0x118>
    80004024:	00b59593          	slli	a1,a1,0xb
    80004028:	13c58593          	addi	a1,a1,316
    8000402c:	00a59593          	slli	a1,a1,0xa
    80004030:	33358593          	addi	a1,a1,819
    80004034:	00b52633          	slt	a2,a0,a1
    80004038:	0ec13c23          	sd	a2,248(sp)
    8000403c:	00000693          	li	a3,0
    80004040:	00c68463          	beq	a3,a2,80004048 <inst_306>
    80004044:	fe1fb06f          	j	80000024 <rvtest_error>

0000000080004048 <inst_306>:
    80004048:	66666537          	lui	a0,0x66666
    8000404c:	66650513          	addi	a0,a0,1638 # 66666666 <absimmsh+0x5ab958b9>
    80004050:	00b51513          	slli	a0,a0,0xb
    80004054:	33350513          	addi	a0,a0,819
    80004058:	00b51513          	slli	a0,a0,0xb
    8000405c:	19950513          	addi	a0,a0,409
    80004060:	00a51513          	slli	a0,a0,0xa
    80004064:	26650513          	addi	a0,a0,614
    80004068:	00200593          	li	a1,2
    8000406c:	00b52633          	slt	a2,a0,a1
    80004070:	10c13023          	sd	a2,256(sp)
    80004074:	00000693          	li	a3,0
    80004078:	00c68463          	beq	a3,a2,80004080 <inst_307>
    8000407c:	fa9fb06f          	j	80000024 <rvtest_error>

0000000080004080 <inst_307>:
    80004080:	66666537          	lui	a0,0x66666
    80004084:	66650513          	addi	a0,a0,1638 # 66666666 <absimmsh+0x5ab958b9>
    80004088:	00b51513          	slli	a0,a0,0xb
    8000408c:	33350513          	addi	a0,a0,819
    80004090:	00b51513          	slli	a0,a0,0xb
    80004094:	19950513          	addi	a0,a0,409
    80004098:	00a51513          	slli	a0,a0,0xa
    8000409c:	26650513          	addi	a0,a0,614
    800040a0:	555555b7          	lui	a1,0x55555
    800040a4:	55558593          	addi	a1,a1,1365 # 55555555 <absimmsh+0x49a847a8>
    800040a8:	00b59593          	slli	a1,a1,0xb
    800040ac:	2aa58593          	addi	a1,a1,682
    800040b0:	00b59593          	slli	a1,a1,0xb
    800040b4:	55558593          	addi	a1,a1,1365
    800040b8:	00a59593          	slli	a1,a1,0xa
    800040bc:	15458593          	addi	a1,a1,340
    800040c0:	00b52633          	slt	a2,a0,a1
    800040c4:	10c13423          	sd	a2,264(sp)
    800040c8:	00000693          	li	a3,0
    800040cc:	00c68463          	beq	a3,a2,800040d4 <inst_308>
    800040d0:	f55fb06f          	j	80000024 <rvtest_error>

00000000800040d4 <inst_308>:
    800040d4:	66666537          	lui	a0,0x66666
    800040d8:	66650513          	addi	a0,a0,1638 # 66666666 <absimmsh+0x5ab958b9>
    800040dc:	00b51513          	slli	a0,a0,0xb
    800040e0:	33350513          	addi	a0,a0,819
    800040e4:	00b51513          	slli	a0,a0,0xb
    800040e8:	19950513          	addi	a0,a0,409
    800040ec:	00a51513          	slli	a0,a0,0xa
    800040f0:	26650513          	addi	a0,a0,614
    800040f4:	00000593          	li	a1,0
    800040f8:	00b52633          	slt	a2,a0,a1
    800040fc:	10c13823          	sd	a2,272(sp)
    80004100:	00000693          	li	a3,0
    80004104:	00c68463          	beq	a3,a2,8000410c <inst_309>
    80004108:	f1dfb06f          	j	80000024 <rvtest_error>

000000008000410c <inst_309>:
    8000410c:	66666537          	lui	a0,0x66666
    80004110:	66650513          	addi	a0,a0,1638 # 66666666 <absimmsh+0x5ab958b9>
    80004114:	00b51513          	slli	a0,a0,0xb
    80004118:	33350513          	addi	a0,a0,819
    8000411c:	00b51513          	slli	a0,a0,0xb
    80004120:	19950513          	addi	a0,a0,409
    80004124:	00a51513          	slli	a0,a0,0xa
    80004128:	26650513          	addi	a0,a0,614
    8000412c:	00400593          	li	a1,4
    80004130:	00b52633          	slt	a2,a0,a1
    80004134:	10c13c23          	sd	a2,280(sp)
    80004138:	00000693          	li	a3,0
    8000413c:	00c68463          	beq	a3,a2,80004144 <inst_310>
    80004140:	ee5fb06f          	j	80000024 <rvtest_error>

0000000080004144 <inst_310>:
    80004144:	66666537          	lui	a0,0x66666
    80004148:	66650513          	addi	a0,a0,1638 # 66666666 <absimmsh+0x5ab958b9>
    8000414c:	00b51513          	slli	a0,a0,0xb
    80004150:	33350513          	addi	a0,a0,819
    80004154:	00b51513          	slli	a0,a0,0xb
    80004158:	19950513          	addi	a0,a0,409
    8000415c:	00a51513          	slli	a0,a0,0xa
    80004160:	26650513          	addi	a0,a0,614
    80004164:	333335b7          	lui	a1,0x33333
    80004168:	33358593          	addi	a1,a1,819 # 33333333 <absimmsh+0x27862586>
    8000416c:	00b59593          	slli	a1,a1,0xb
    80004170:	19958593          	addi	a1,a1,409
    80004174:	00b59593          	slli	a1,a1,0xb
    80004178:	4cc58593          	addi	a1,a1,1228
    8000417c:	00a59593          	slli	a1,a1,0xa
    80004180:	33258593          	addi	a1,a1,818
    80004184:	00b52633          	slt	a2,a0,a1
    80004188:	12c13023          	sd	a2,288(sp)
    8000418c:	00000693          	li	a3,0
    80004190:	00c68463          	beq	a3,a2,80004198 <inst_311>
    80004194:	e91fb06f          	j	80000024 <rvtest_error>

0000000080004198 <inst_311>:
    80004198:	66666537          	lui	a0,0x66666
    8000419c:	66650513          	addi	a0,a0,1638 # 66666666 <absimmsh+0x5ab958b9>
    800041a0:	00b51513          	slli	a0,a0,0xb
    800041a4:	33350513          	addi	a0,a0,819
    800041a8:	00b51513          	slli	a0,a0,0xb
    800041ac:	19950513          	addi	a0,a0,409
    800041b0:	00a51513          	slli	a0,a0,0xa
    800041b4:	26650513          	addi	a0,a0,614
    800041b8:	666665b7          	lui	a1,0x66666
    800041bc:	66658593          	addi	a1,a1,1638 # 66666666 <absimmsh+0x5ab958b9>
    800041c0:	00b59593          	slli	a1,a1,0xb
    800041c4:	33358593          	addi	a1,a1,819
    800041c8:	00b59593          	slli	a1,a1,0xb
    800041cc:	19958593          	addi	a1,a1,409
    800041d0:	00a59593          	slli	a1,a1,0xa
    800041d4:	26558593          	addi	a1,a1,613
    800041d8:	00b52633          	slt	a2,a0,a1
    800041dc:	12c13423          	sd	a2,296(sp)
    800041e0:	00000693          	li	a3,0
    800041e4:	00c68463          	beq	a3,a2,800041ec <inst_312>
    800041e8:	e3dfb06f          	j	80000024 <rvtest_error>

00000000800041ec <inst_312>:
    800041ec:	66666537          	lui	a0,0x66666
    800041f0:	66650513          	addi	a0,a0,1638 # 66666666 <absimmsh+0x5ab958b9>
    800041f4:	00b51513          	slli	a0,a0,0xb
    800041f8:	33350513          	addi	a0,a0,819
    800041fc:	00b51513          	slli	a0,a0,0xb
    80004200:	19950513          	addi	a0,a0,409
    80004204:	00a51513          	slli	a0,a0,0xa
    80004208:	26650513          	addi	a0,a0,614
    8000420c:	000005b7          	lui	a1,0x0
    80004210:	00058593          	mv	a1,a1
    80004214:	00b59593          	slli	a1,a1,0xb
    80004218:	5a858593          	addi	a1,a1,1448 # 5a8 <offset+0x118>
    8000421c:	00b59593          	slli	a1,a1,0xb
    80004220:	13c58593          	addi	a1,a1,316
    80004224:	00a59593          	slli	a1,a1,0xa
    80004228:	33258593          	addi	a1,a1,818
    8000422c:	00b52633          	slt	a2,a0,a1
    80004230:	12c13823          	sd	a2,304(sp)
    80004234:	00000693          	li	a3,0
    80004238:	00c68463          	beq	a3,a2,80004240 <inst_313>
    8000423c:	de9fb06f          	j	80000024 <rvtest_error>

0000000080004240 <inst_313>:
    80004240:	66666537          	lui	a0,0x66666
    80004244:	66650513          	addi	a0,a0,1638 # 66666666 <absimmsh+0x5ab958b9>
    80004248:	00b51513          	slli	a0,a0,0xb
    8000424c:	33350513          	addi	a0,a0,819
    80004250:	00b51513          	slli	a0,a0,0xb
    80004254:	19950513          	addi	a0,a0,409
    80004258:	00a51513          	slli	a0,a0,0xa
    8000425c:	26650513          	addi	a0,a0,614
    80004260:	555555b7          	lui	a1,0x55555
    80004264:	55558593          	addi	a1,a1,1365 # 55555555 <absimmsh+0x49a847a8>
    80004268:	00b59593          	slli	a1,a1,0xb
    8000426c:	2aa58593          	addi	a1,a1,682
    80004270:	00b59593          	slli	a1,a1,0xb
    80004274:	55558593          	addi	a1,a1,1365
    80004278:	00a59593          	slli	a1,a1,0xa
    8000427c:	15658593          	addi	a1,a1,342
    80004280:	00b52633          	slt	a2,a0,a1
    80004284:	12c13c23          	sd	a2,312(sp)
    80004288:	00000693          	li	a3,0
    8000428c:	00c68463          	beq	a3,a2,80004294 <inst_314>
    80004290:	d95fb06f          	j	80000024 <rvtest_error>

0000000080004294 <inst_314>:
    80004294:	66666537          	lui	a0,0x66666
    80004298:	66650513          	addi	a0,a0,1638 # 66666666 <absimmsh+0x5ab958b9>
    8000429c:	00b51513          	slli	a0,a0,0xb
    800042a0:	33350513          	addi	a0,a0,819
    800042a4:	00b51513          	slli	a0,a0,0xb
    800042a8:	19950513          	addi	a0,a0,409
    800042ac:	00a51513          	slli	a0,a0,0xa
    800042b0:	26650513          	addi	a0,a0,614
    800042b4:	aaaab5b7          	lui	a1,0xaaaab
    800042b8:	aaa58593          	addi	a1,a1,-1366 # ffffffffaaaaaaaa <absimm+0xfffffffeefd9cfda>
    800042bc:	00b59593          	slli	a1,a1,0xb
    800042c0:	55558593          	addi	a1,a1,1365
    800042c4:	00b59593          	slli	a1,a1,0xb
    800042c8:	2aa58593          	addi	a1,a1,682
    800042cc:	00a59593          	slli	a1,a1,0xa
    800042d0:	2ab58593          	addi	a1,a1,683
    800042d4:	00b52633          	slt	a2,a0,a1
    800042d8:	14c13023          	sd	a2,320(sp)
    800042dc:	00000693          	li	a3,0
    800042e0:	00c68463          	beq	a3,a2,800042e8 <inst_315>
    800042e4:	d41fb06f          	j	80000024 <rvtest_error>

00000000800042e8 <inst_315>:
    800042e8:	66666537          	lui	a0,0x66666
    800042ec:	66650513          	addi	a0,a0,1638 # 66666666 <absimmsh+0x5ab958b9>
    800042f0:	00b51513          	slli	a0,a0,0xb
    800042f4:	33350513          	addi	a0,a0,819
    800042f8:	00b51513          	slli	a0,a0,0xb
    800042fc:	19950513          	addi	a0,a0,409
    80004300:	00a51513          	slli	a0,a0,0xa
    80004304:	26650513          	addi	a0,a0,614
    80004308:	00600593          	li	a1,6
    8000430c:	00b52633          	slt	a2,a0,a1
    80004310:	14c13423          	sd	a2,328(sp)
    80004314:	00000693          	li	a3,0
    80004318:	00c68463          	beq	a3,a2,80004320 <inst_316>
    8000431c:	d09fb06f          	j	80000024 <rvtest_error>

0000000080004320 <inst_316>:
    80004320:	66666537          	lui	a0,0x66666
    80004324:	66650513          	addi	a0,a0,1638 # 66666666 <absimmsh+0x5ab958b9>
    80004328:	00b51513          	slli	a0,a0,0xb
    8000432c:	33350513          	addi	a0,a0,819
    80004330:	00b51513          	slli	a0,a0,0xb
    80004334:	19950513          	addi	a0,a0,409
    80004338:	00a51513          	slli	a0,a0,0xa
    8000433c:	26650513          	addi	a0,a0,614
    80004340:	333335b7          	lui	a1,0x33333
    80004344:	33358593          	addi	a1,a1,819 # 33333333 <absimmsh+0x27862586>
    80004348:	00b59593          	slli	a1,a1,0xb
    8000434c:	19958593          	addi	a1,a1,409
    80004350:	00b59593          	slli	a1,a1,0xb
    80004354:	4cc58593          	addi	a1,a1,1228
    80004358:	00a59593          	slli	a1,a1,0xa
    8000435c:	33458593          	addi	a1,a1,820
    80004360:	00b52633          	slt	a2,a0,a1
    80004364:	14c13823          	sd	a2,336(sp)
    80004368:	00000693          	li	a3,0
    8000436c:	00c68463          	beq	a3,a2,80004374 <inst_317>
    80004370:	cb5fb06f          	j	80000024 <rvtest_error>

0000000080004374 <inst_317>:
    80004374:	66666537          	lui	a0,0x66666
    80004378:	66650513          	addi	a0,a0,1638 # 66666666 <absimmsh+0x5ab958b9>
    8000437c:	00b51513          	slli	a0,a0,0xb
    80004380:	33350513          	addi	a0,a0,819
    80004384:	00b51513          	slli	a0,a0,0xb
    80004388:	19950513          	addi	a0,a0,409
    8000438c:	00a51513          	slli	a0,a0,0xa
    80004390:	26650513          	addi	a0,a0,614
    80004394:	666665b7          	lui	a1,0x66666
    80004398:	66658593          	addi	a1,a1,1638 # 66666666 <absimmsh+0x5ab958b9>
    8000439c:	00b59593          	slli	a1,a1,0xb
    800043a0:	33358593          	addi	a1,a1,819
    800043a4:	00b59593          	slli	a1,a1,0xb
    800043a8:	19958593          	addi	a1,a1,409
    800043ac:	00a59593          	slli	a1,a1,0xa
    800043b0:	26758593          	addi	a1,a1,615
    800043b4:	00b52633          	slt	a2,a0,a1
    800043b8:	14c13c23          	sd	a2,344(sp)
    800043bc:	00100693          	li	a3,1
    800043c0:	00c68463          	beq	a3,a2,800043c8 <inst_318>
    800043c4:	c61fb06f          	j	80000024 <rvtest_error>

00000000800043c8 <inst_318>:
    800043c8:	66666537          	lui	a0,0x66666
    800043cc:	66650513          	addi	a0,a0,1638 # 66666666 <absimmsh+0x5ab958b9>
    800043d0:	00b51513          	slli	a0,a0,0xb
    800043d4:	33350513          	addi	a0,a0,819
    800043d8:	00b51513          	slli	a0,a0,0xb
    800043dc:	19950513          	addi	a0,a0,409
    800043e0:	00a51513          	slli	a0,a0,0xa
    800043e4:	26650513          	addi	a0,a0,614
    800043e8:	000005b7          	lui	a1,0x0
    800043ec:	fff58593          	addi	a1,a1,-1
    800043f0:	00b59593          	slli	a1,a1,0xb
    800043f4:	25758593          	addi	a1,a1,599
    800043f8:	00b59593          	slli	a1,a1,0xb
    800043fc:	6c358593          	addi	a1,a1,1731
    80004400:	00a59593          	slli	a1,a1,0xa
    80004404:	0ce58593          	addi	a1,a1,206
    80004408:	00b52633          	slt	a2,a0,a1
    8000440c:	16c13023          	sd	a2,352(sp)
    80004410:	00000693          	li	a3,0
    80004414:	00c68463          	beq	a3,a2,8000441c <inst_319>
    80004418:	c0dfb06f          	j	80000024 <rvtest_error>

000000008000441c <inst_319>:
    8000441c:	66666537          	lui	a0,0x66666
    80004420:	66650513          	addi	a0,a0,1638 # 66666666 <absimmsh+0x5ab958b9>
    80004424:	00b51513          	slli	a0,a0,0xb
    80004428:	33350513          	addi	a0,a0,819
    8000442c:	00b51513          	slli	a0,a0,0xb
    80004430:	19950513          	addi	a0,a0,409
    80004434:	00a51513          	slli	a0,a0,0xa
    80004438:	26650513          	addi	a0,a0,614
    8000443c:	000005b7          	lui	a1,0x0
    80004440:	00058593          	mv	a1,a1
    80004444:	00b59593          	slli	a1,a1,0xb
    80004448:	5a858593          	addi	a1,a1,1448 # 5a8 <offset+0x118>
    8000444c:	00b59593          	slli	a1,a1,0xb
    80004450:	13c58593          	addi	a1,a1,316
    80004454:	00a59593          	slli	a1,a1,0xa
    80004458:	33458593          	addi	a1,a1,820
    8000445c:	00b52633          	slt	a2,a0,a1
    80004460:	16c13423          	sd	a2,360(sp)
    80004464:	00000693          	li	a3,0
    80004468:	00c68463          	beq	a3,a2,80004470 <inst_320>
    8000446c:	bb9fb06f          	j	80000024 <rvtest_error>

0000000080004470 <inst_320>:
    80004470:	00000537          	lui	a0,0x0
    80004474:	fff50513          	addi	a0,a0,-1
    80004478:	00b51513          	slli	a0,a0,0xb
    8000447c:	25750513          	addi	a0,a0,599
    80004480:	00b51513          	slli	a0,a0,0xb
    80004484:	6c350513          	addi	a0,a0,1731
    80004488:	00a51513          	slli	a0,a0,0xa
    8000448c:	0cd50513          	addi	a0,a0,205
    80004490:	00300593          	li	a1,3
    80004494:	00b52633          	slt	a2,a0,a1
    80004498:	16c13823          	sd	a2,368(sp)
    8000449c:	00100693          	li	a3,1
    800044a0:	00c68463          	beq	a3,a2,800044a8 <inst_321>
    800044a4:	b81fb06f          	j	80000024 <rvtest_error>

00000000800044a8 <inst_321>:
    800044a8:	00000537          	lui	a0,0x0
    800044ac:	fff50513          	addi	a0,a0,-1
    800044b0:	00b51513          	slli	a0,a0,0xb
    800044b4:	25750513          	addi	a0,a0,599
    800044b8:	00b51513          	slli	a0,a0,0xb
    800044bc:	6c350513          	addi	a0,a0,1731
    800044c0:	00a51513          	slli	a0,a0,0xa
    800044c4:	0cd50513          	addi	a0,a0,205
    800044c8:	555555b7          	lui	a1,0x55555
    800044cc:	55558593          	addi	a1,a1,1365 # 55555555 <absimmsh+0x49a847a8>
    800044d0:	00b59593          	slli	a1,a1,0xb
    800044d4:	2aa58593          	addi	a1,a1,682
    800044d8:	00b59593          	slli	a1,a1,0xb
    800044dc:	55558593          	addi	a1,a1,1365
    800044e0:	00a59593          	slli	a1,a1,0xa
    800044e4:	15558593          	addi	a1,a1,341
    800044e8:	00b52633          	slt	a2,a0,a1
    800044ec:	16c13c23          	sd	a2,376(sp)
    800044f0:	00100693          	li	a3,1
    800044f4:	00c68463          	beq	a3,a2,800044fc <inst_322>
    800044f8:	b2dfb06f          	j	80000024 <rvtest_error>

00000000800044fc <inst_322>:
    800044fc:	00000537          	lui	a0,0x0
    80004500:	fff50513          	addi	a0,a0,-1
    80004504:	00b51513          	slli	a0,a0,0xb
    80004508:	25750513          	addi	a0,a0,599
    8000450c:	00b51513          	slli	a0,a0,0xb
    80004510:	6c350513          	addi	a0,a0,1731
    80004514:	00a51513          	slli	a0,a0,0xa
    80004518:	0cd50513          	addi	a0,a0,205
    8000451c:	aaaab5b7          	lui	a1,0xaaaab
    80004520:	aaa58593          	addi	a1,a1,-1366 # ffffffffaaaaaaaa <absimm+0xfffffffeefd9cfda>
    80004524:	00b59593          	slli	a1,a1,0xb
    80004528:	55558593          	addi	a1,a1,1365
    8000452c:	00b59593          	slli	a1,a1,0xb
    80004530:	2aa58593          	addi	a1,a1,682
    80004534:	00a59593          	slli	a1,a1,0xa
    80004538:	2aa58593          	addi	a1,a1,682
    8000453c:	00b52633          	slt	a2,a0,a1
    80004540:	18c13023          	sd	a2,384(sp)
    80004544:	00000693          	li	a3,0
    80004548:	00c68463          	beq	a3,a2,80004550 <inst_323>
    8000454c:	ad9fb06f          	j	80000024 <rvtest_error>

0000000080004550 <inst_323>:
    80004550:	00000537          	lui	a0,0x0
    80004554:	fff50513          	addi	a0,a0,-1
    80004558:	00b51513          	slli	a0,a0,0xb
    8000455c:	25750513          	addi	a0,a0,599
    80004560:	00b51513          	slli	a0,a0,0xb
    80004564:	6c350513          	addi	a0,a0,1731
    80004568:	00a51513          	slli	a0,a0,0xa
    8000456c:	0cd50513          	addi	a0,a0,205
    80004570:	00500593          	li	a1,5
    80004574:	00b52633          	slt	a2,a0,a1
    80004578:	18c13423          	sd	a2,392(sp)
    8000457c:	00100693          	li	a3,1
    80004580:	00c68463          	beq	a3,a2,80004588 <inst_324>
    80004584:	aa1fb06f          	j	80000024 <rvtest_error>

0000000080004588 <inst_324>:
    80004588:	00000537          	lui	a0,0x0
    8000458c:	fff50513          	addi	a0,a0,-1
    80004590:	00b51513          	slli	a0,a0,0xb
    80004594:	25750513          	addi	a0,a0,599
    80004598:	00b51513          	slli	a0,a0,0xb
    8000459c:	6c350513          	addi	a0,a0,1731
    800045a0:	00a51513          	slli	a0,a0,0xa
    800045a4:	0cd50513          	addi	a0,a0,205
    800045a8:	333335b7          	lui	a1,0x33333
    800045ac:	33358593          	addi	a1,a1,819 # 33333333 <absimmsh+0x27862586>
    800045b0:	00b59593          	slli	a1,a1,0xb
    800045b4:	19958593          	addi	a1,a1,409
    800045b8:	00b59593          	slli	a1,a1,0xb
    800045bc:	4cc58593          	addi	a1,a1,1228
    800045c0:	00a59593          	slli	a1,a1,0xa
    800045c4:	33358593          	addi	a1,a1,819
    800045c8:	00b52633          	slt	a2,a0,a1
    800045cc:	18c13823          	sd	a2,400(sp)
    800045d0:	00100693          	li	a3,1
    800045d4:	00c68463          	beq	a3,a2,800045dc <inst_325>
    800045d8:	a4dfb06f          	j	80000024 <rvtest_error>

00000000800045dc <inst_325>:
    800045dc:	00000537          	lui	a0,0x0
    800045e0:	fff50513          	addi	a0,a0,-1
    800045e4:	00b51513          	slli	a0,a0,0xb
    800045e8:	25750513          	addi	a0,a0,599
    800045ec:	00b51513          	slli	a0,a0,0xb
    800045f0:	6c350513          	addi	a0,a0,1731
    800045f4:	00a51513          	slli	a0,a0,0xa
    800045f8:	0cd50513          	addi	a0,a0,205
    800045fc:	666665b7          	lui	a1,0x66666
    80004600:	66658593          	addi	a1,a1,1638 # 66666666 <absimmsh+0x5ab958b9>
    80004604:	00b59593          	slli	a1,a1,0xb
    80004608:	33358593          	addi	a1,a1,819
    8000460c:	00b59593          	slli	a1,a1,0xb
    80004610:	19958593          	addi	a1,a1,409
    80004614:	00a59593          	slli	a1,a1,0xa
    80004618:	26658593          	addi	a1,a1,614
    8000461c:	00b52633          	slt	a2,a0,a1
    80004620:	18c13c23          	sd	a2,408(sp)
    80004624:	00100693          	li	a3,1
    80004628:	00c68463          	beq	a3,a2,80004630 <inst_326>
    8000462c:	9f9fb06f          	j	80000024 <rvtest_error>

0000000080004630 <inst_326>:
    80004630:	00000537          	lui	a0,0x0
    80004634:	fff50513          	addi	a0,a0,-1
    80004638:	00b51513          	slli	a0,a0,0xb
    8000463c:	25750513          	addi	a0,a0,599
    80004640:	00b51513          	slli	a0,a0,0xb
    80004644:	6c350513          	addi	a0,a0,1731
    80004648:	00a51513          	slli	a0,a0,0xa
    8000464c:	0cd50513          	addi	a0,a0,205
    80004650:	000005b7          	lui	a1,0x0
    80004654:	fff58593          	addi	a1,a1,-1
    80004658:	00b59593          	slli	a1,a1,0xb
    8000465c:	25758593          	addi	a1,a1,599
    80004660:	00b59593          	slli	a1,a1,0xb
    80004664:	6c358593          	addi	a1,a1,1731
    80004668:	00a59593          	slli	a1,a1,0xa
    8000466c:	0cd58593          	addi	a1,a1,205
    80004670:	00b52633          	slt	a2,a0,a1
    80004674:	1ac13023          	sd	a2,416(sp)
    80004678:	00000693          	li	a3,0
    8000467c:	00c68463          	beq	a3,a2,80004684 <inst_327>
    80004680:	9a5fb06f          	j	80000024 <rvtest_error>

0000000080004684 <inst_327>:
    80004684:	00000537          	lui	a0,0x0
    80004688:	fff50513          	addi	a0,a0,-1
    8000468c:	00b51513          	slli	a0,a0,0xb
    80004690:	25750513          	addi	a0,a0,599
    80004694:	00b51513          	slli	a0,a0,0xb
    80004698:	6c350513          	addi	a0,a0,1731
    8000469c:	00a51513          	slli	a0,a0,0xa
    800046a0:	0cd50513          	addi	a0,a0,205
    800046a4:	000005b7          	lui	a1,0x0
    800046a8:	00058593          	mv	a1,a1
    800046ac:	00b59593          	slli	a1,a1,0xb
    800046b0:	5a858593          	addi	a1,a1,1448 # 5a8 <offset+0x118>
    800046b4:	00b59593          	slli	a1,a1,0xb
    800046b8:	13c58593          	addi	a1,a1,316
    800046bc:	00a59593          	slli	a1,a1,0xa
    800046c0:	33358593          	addi	a1,a1,819
    800046c4:	00b52633          	slt	a2,a0,a1
    800046c8:	1ac13423          	sd	a2,424(sp)
    800046cc:	00100693          	li	a3,1
    800046d0:	00c68463          	beq	a3,a2,800046d8 <inst_328>
    800046d4:	951fb06f          	j	80000024 <rvtest_error>

00000000800046d8 <inst_328>:
    800046d8:	00000537          	lui	a0,0x0
    800046dc:	fff50513          	addi	a0,a0,-1
    800046e0:	00b51513          	slli	a0,a0,0xb
    800046e4:	25750513          	addi	a0,a0,599
    800046e8:	00b51513          	slli	a0,a0,0xb
    800046ec:	6c350513          	addi	a0,a0,1731
    800046f0:	00a51513          	slli	a0,a0,0xa
    800046f4:	0cd50513          	addi	a0,a0,205
    800046f8:	00200593          	li	a1,2
    800046fc:	00b52633          	slt	a2,a0,a1
    80004700:	1ac13823          	sd	a2,432(sp)
    80004704:	00100693          	li	a3,1
    80004708:	00c68463          	beq	a3,a2,80004710 <inst_329>
    8000470c:	919fb06f          	j	80000024 <rvtest_error>

0000000080004710 <inst_329>:
    80004710:	00000537          	lui	a0,0x0
    80004714:	fff50513          	addi	a0,a0,-1
    80004718:	00b51513          	slli	a0,a0,0xb
    8000471c:	25750513          	addi	a0,a0,599
    80004720:	00b51513          	slli	a0,a0,0xb
    80004724:	6c350513          	addi	a0,a0,1731
    80004728:	00a51513          	slli	a0,a0,0xa
    8000472c:	0cd50513          	addi	a0,a0,205
    80004730:	555555b7          	lui	a1,0x55555
    80004734:	55558593          	addi	a1,a1,1365 # 55555555 <absimmsh+0x49a847a8>
    80004738:	00b59593          	slli	a1,a1,0xb
    8000473c:	2aa58593          	addi	a1,a1,682
    80004740:	00b59593          	slli	a1,a1,0xb
    80004744:	55558593          	addi	a1,a1,1365
    80004748:	00a59593          	slli	a1,a1,0xa
    8000474c:	15458593          	addi	a1,a1,340
    80004750:	00b52633          	slt	a2,a0,a1
    80004754:	1ac13c23          	sd	a2,440(sp)
    80004758:	00100693          	li	a3,1
    8000475c:	00c68463          	beq	a3,a2,80004764 <inst_330>
    80004760:	8c5fb06f          	j	80000024 <rvtest_error>

0000000080004764 <inst_330>:
    80004764:	00000537          	lui	a0,0x0
    80004768:	fff50513          	addi	a0,a0,-1
    8000476c:	00b51513          	slli	a0,a0,0xb
    80004770:	25750513          	addi	a0,a0,599
    80004774:	00b51513          	slli	a0,a0,0xb
    80004778:	6c350513          	addi	a0,a0,1731
    8000477c:	00a51513          	slli	a0,a0,0xa
    80004780:	0cd50513          	addi	a0,a0,205
    80004784:	00000593          	li	a1,0
    80004788:	00b52633          	slt	a2,a0,a1
    8000478c:	1cc13023          	sd	a2,448(sp)
    80004790:	00100693          	li	a3,1
    80004794:	00c68463          	beq	a3,a2,8000479c <inst_331>
    80004798:	88dfb06f          	j	80000024 <rvtest_error>

000000008000479c <inst_331>:
    8000479c:	00000537          	lui	a0,0x0
    800047a0:	fff50513          	addi	a0,a0,-1
    800047a4:	00b51513          	slli	a0,a0,0xb
    800047a8:	25750513          	addi	a0,a0,599
    800047ac:	00b51513          	slli	a0,a0,0xb
    800047b0:	6c350513          	addi	a0,a0,1731
    800047b4:	00a51513          	slli	a0,a0,0xa
    800047b8:	0cd50513          	addi	a0,a0,205
    800047bc:	00400593          	li	a1,4
    800047c0:	00b52633          	slt	a2,a0,a1
    800047c4:	1cc13423          	sd	a2,456(sp)
    800047c8:	00100693          	li	a3,1
    800047cc:	00c68463          	beq	a3,a2,800047d4 <inst_332>
    800047d0:	855fb06f          	j	80000024 <rvtest_error>

00000000800047d4 <inst_332>:
    800047d4:	00000537          	lui	a0,0x0
    800047d8:	fff50513          	addi	a0,a0,-1
    800047dc:	00b51513          	slli	a0,a0,0xb
    800047e0:	25750513          	addi	a0,a0,599
    800047e4:	00b51513          	slli	a0,a0,0xb
    800047e8:	6c350513          	addi	a0,a0,1731
    800047ec:	00a51513          	slli	a0,a0,0xa
    800047f0:	0cd50513          	addi	a0,a0,205
    800047f4:	333335b7          	lui	a1,0x33333
    800047f8:	33358593          	addi	a1,a1,819 # 33333333 <absimmsh+0x27862586>
    800047fc:	00b59593          	slli	a1,a1,0xb
    80004800:	19958593          	addi	a1,a1,409
    80004804:	00b59593          	slli	a1,a1,0xb
    80004808:	4cc58593          	addi	a1,a1,1228
    8000480c:	00a59593          	slli	a1,a1,0xa
    80004810:	33258593          	addi	a1,a1,818
    80004814:	00b52633          	slt	a2,a0,a1
    80004818:	1cc13823          	sd	a2,464(sp)
    8000481c:	00100693          	li	a3,1
    80004820:	00c68463          	beq	a3,a2,80004828 <inst_333>
    80004824:	801fb06f          	j	80000024 <rvtest_error>

0000000080004828 <inst_333>:
    80004828:	00000537          	lui	a0,0x0
    8000482c:	fff50513          	addi	a0,a0,-1
    80004830:	00b51513          	slli	a0,a0,0xb
    80004834:	25750513          	addi	a0,a0,599
    80004838:	00b51513          	slli	a0,a0,0xb
    8000483c:	6c350513          	addi	a0,a0,1731
    80004840:	00a51513          	slli	a0,a0,0xa
    80004844:	0cd50513          	addi	a0,a0,205
    80004848:	666665b7          	lui	a1,0x66666
    8000484c:	66658593          	addi	a1,a1,1638 # 66666666 <absimmsh+0x5ab958b9>
    80004850:	00b59593          	slli	a1,a1,0xb
    80004854:	33358593          	addi	a1,a1,819
    80004858:	00b59593          	slli	a1,a1,0xb
    8000485c:	19958593          	addi	a1,a1,409
    80004860:	00a59593          	slli	a1,a1,0xa
    80004864:	26558593          	addi	a1,a1,613
    80004868:	00b52633          	slt	a2,a0,a1
    8000486c:	1cc13c23          	sd	a2,472(sp)
    80004870:	00100693          	li	a3,1
    80004874:	00c68463          	beq	a3,a2,8000487c <inst_334>
    80004878:	facfb06f          	j	80000024 <rvtest_error>

000000008000487c <inst_334>:
    8000487c:	00000537          	lui	a0,0x0
    80004880:	fff50513          	addi	a0,a0,-1
    80004884:	00b51513          	slli	a0,a0,0xb
    80004888:	25750513          	addi	a0,a0,599
    8000488c:	00b51513          	slli	a0,a0,0xb
    80004890:	6c350513          	addi	a0,a0,1731
    80004894:	00a51513          	slli	a0,a0,0xa
    80004898:	0cd50513          	addi	a0,a0,205
    8000489c:	000005b7          	lui	a1,0x0
    800048a0:	00058593          	mv	a1,a1
    800048a4:	00b59593          	slli	a1,a1,0xb
    800048a8:	5a858593          	addi	a1,a1,1448 # 5a8 <offset+0x118>
    800048ac:	00b59593          	slli	a1,a1,0xb
    800048b0:	13c58593          	addi	a1,a1,316
    800048b4:	00a59593          	slli	a1,a1,0xa
    800048b8:	33258593          	addi	a1,a1,818
    800048bc:	00b52633          	slt	a2,a0,a1
    800048c0:	1ec13023          	sd	a2,480(sp)
    800048c4:	00100693          	li	a3,1
    800048c8:	00c68463          	beq	a3,a2,800048d0 <inst_335>
    800048cc:	f58fb06f          	j	80000024 <rvtest_error>

00000000800048d0 <inst_335>:
    800048d0:	00000537          	lui	a0,0x0
    800048d4:	fff50513          	addi	a0,a0,-1
    800048d8:	00b51513          	slli	a0,a0,0xb
    800048dc:	25750513          	addi	a0,a0,599
    800048e0:	00b51513          	slli	a0,a0,0xb
    800048e4:	6c350513          	addi	a0,a0,1731
    800048e8:	00a51513          	slli	a0,a0,0xa
    800048ec:	0cd50513          	addi	a0,a0,205
    800048f0:	555555b7          	lui	a1,0x55555
    800048f4:	55558593          	addi	a1,a1,1365 # 55555555 <absimmsh+0x49a847a8>
    800048f8:	00b59593          	slli	a1,a1,0xb
    800048fc:	2aa58593          	addi	a1,a1,682
    80004900:	00b59593          	slli	a1,a1,0xb
    80004904:	55558593          	addi	a1,a1,1365
    80004908:	00a59593          	slli	a1,a1,0xa
    8000490c:	15658593          	addi	a1,a1,342
    80004910:	00b52633          	slt	a2,a0,a1
    80004914:	1ec13423          	sd	a2,488(sp)
    80004918:	00100693          	li	a3,1
    8000491c:	00c68463          	beq	a3,a2,80004924 <inst_336>
    80004920:	f04fb06f          	j	80000024 <rvtest_error>

0000000080004924 <inst_336>:
    80004924:	00000537          	lui	a0,0x0
    80004928:	fff50513          	addi	a0,a0,-1
    8000492c:	00b51513          	slli	a0,a0,0xb
    80004930:	25750513          	addi	a0,a0,599
    80004934:	00b51513          	slli	a0,a0,0xb
    80004938:	6c350513          	addi	a0,a0,1731
    8000493c:	00a51513          	slli	a0,a0,0xa
    80004940:	0cd50513          	addi	a0,a0,205
    80004944:	aaaab5b7          	lui	a1,0xaaaab
    80004948:	aaa58593          	addi	a1,a1,-1366 # ffffffffaaaaaaaa <absimm+0xfffffffeefd9cfda>
    8000494c:	00b59593          	slli	a1,a1,0xb
    80004950:	55558593          	addi	a1,a1,1365
    80004954:	00b59593          	slli	a1,a1,0xb
    80004958:	2aa58593          	addi	a1,a1,682
    8000495c:	00a59593          	slli	a1,a1,0xa
    80004960:	2ab58593          	addi	a1,a1,683
    80004964:	00b52633          	slt	a2,a0,a1
    80004968:	1ec13823          	sd	a2,496(sp)
    8000496c:	00000693          	li	a3,0
    80004970:	00c68463          	beq	a3,a2,80004978 <inst_337>
    80004974:	eb0fb06f          	j	80000024 <rvtest_error>

0000000080004978 <inst_337>:
    80004978:	00000537          	lui	a0,0x0
    8000497c:	fff50513          	addi	a0,a0,-1
    80004980:	00b51513          	slli	a0,a0,0xb
    80004984:	25750513          	addi	a0,a0,599
    80004988:	00b51513          	slli	a0,a0,0xb
    8000498c:	6c350513          	addi	a0,a0,1731
    80004990:	00a51513          	slli	a0,a0,0xa
    80004994:	0cd50513          	addi	a0,a0,205
    80004998:	00600593          	li	a1,6
    8000499c:	00b52633          	slt	a2,a0,a1
    800049a0:	1ec13c23          	sd	a2,504(sp)
    800049a4:	00100693          	li	a3,1
    800049a8:	00c68463          	beq	a3,a2,800049b0 <inst_338>
    800049ac:	e78fb06f          	j	80000024 <rvtest_error>

00000000800049b0 <inst_338>:
    800049b0:	00000537          	lui	a0,0x0
    800049b4:	fff50513          	addi	a0,a0,-1
    800049b8:	00b51513          	slli	a0,a0,0xb
    800049bc:	25750513          	addi	a0,a0,599
    800049c0:	00b51513          	slli	a0,a0,0xb
    800049c4:	6c350513          	addi	a0,a0,1731
    800049c8:	00a51513          	slli	a0,a0,0xa
    800049cc:	0cd50513          	addi	a0,a0,205
    800049d0:	333335b7          	lui	a1,0x33333
    800049d4:	33358593          	addi	a1,a1,819 # 33333333 <absimmsh+0x27862586>
    800049d8:	00b59593          	slli	a1,a1,0xb
    800049dc:	19958593          	addi	a1,a1,409
    800049e0:	00b59593          	slli	a1,a1,0xb
    800049e4:	4cc58593          	addi	a1,a1,1228
    800049e8:	00a59593          	slli	a1,a1,0xa
    800049ec:	33458593          	addi	a1,a1,820
    800049f0:	00b52633          	slt	a2,a0,a1
    800049f4:	20c13023          	sd	a2,512(sp)
    800049f8:	00100693          	li	a3,1
    800049fc:	00c68463          	beq	a3,a2,80004a04 <inst_339>
    80004a00:	e24fb06f          	j	80000024 <rvtest_error>

0000000080004a04 <inst_339>:
    80004a04:	00000537          	lui	a0,0x0
    80004a08:	fff50513          	addi	a0,a0,-1
    80004a0c:	00b51513          	slli	a0,a0,0xb
    80004a10:	25750513          	addi	a0,a0,599
    80004a14:	00b51513          	slli	a0,a0,0xb
    80004a18:	6c350513          	addi	a0,a0,1731
    80004a1c:	00a51513          	slli	a0,a0,0xa
    80004a20:	0cd50513          	addi	a0,a0,205
    80004a24:	666665b7          	lui	a1,0x66666
    80004a28:	66658593          	addi	a1,a1,1638 # 66666666 <absimmsh+0x5ab958b9>
    80004a2c:	00b59593          	slli	a1,a1,0xb
    80004a30:	33358593          	addi	a1,a1,819
    80004a34:	00b59593          	slli	a1,a1,0xb
    80004a38:	19958593          	addi	a1,a1,409
    80004a3c:	00a59593          	slli	a1,a1,0xa
    80004a40:	26758593          	addi	a1,a1,615
    80004a44:	00b52633          	slt	a2,a0,a1
    80004a48:	20c13423          	sd	a2,520(sp)
    80004a4c:	00100693          	li	a3,1
    80004a50:	00c68463          	beq	a3,a2,80004a58 <inst_340>
    80004a54:	dd0fb06f          	j	80000024 <rvtest_error>

0000000080004a58 <inst_340>:
    80004a58:	00000537          	lui	a0,0x0
    80004a5c:	fff50513          	addi	a0,a0,-1
    80004a60:	00b51513          	slli	a0,a0,0xb
    80004a64:	25750513          	addi	a0,a0,599
    80004a68:	00b51513          	slli	a0,a0,0xb
    80004a6c:	6c350513          	addi	a0,a0,1731
    80004a70:	00a51513          	slli	a0,a0,0xa
    80004a74:	0cd50513          	addi	a0,a0,205
    80004a78:	000005b7          	lui	a1,0x0
    80004a7c:	fff58593          	addi	a1,a1,-1
    80004a80:	00b59593          	slli	a1,a1,0xb
    80004a84:	25758593          	addi	a1,a1,599
    80004a88:	00b59593          	slli	a1,a1,0xb
    80004a8c:	6c358593          	addi	a1,a1,1731
    80004a90:	00a59593          	slli	a1,a1,0xa
    80004a94:	0ce58593          	addi	a1,a1,206
    80004a98:	00b52633          	slt	a2,a0,a1
    80004a9c:	20c13823          	sd	a2,528(sp)
    80004aa0:	00100693          	li	a3,1
    80004aa4:	00c68463          	beq	a3,a2,80004aac <inst_341>
    80004aa8:	d7cfb06f          	j	80000024 <rvtest_error>

0000000080004aac <inst_341>:
    80004aac:	00000537          	lui	a0,0x0
    80004ab0:	fff50513          	addi	a0,a0,-1
    80004ab4:	00b51513          	slli	a0,a0,0xb
    80004ab8:	25750513          	addi	a0,a0,599
    80004abc:	00b51513          	slli	a0,a0,0xb
    80004ac0:	6c350513          	addi	a0,a0,1731
    80004ac4:	00a51513          	slli	a0,a0,0xa
    80004ac8:	0cd50513          	addi	a0,a0,205
    80004acc:	000005b7          	lui	a1,0x0
    80004ad0:	00058593          	mv	a1,a1
    80004ad4:	00b59593          	slli	a1,a1,0xb
    80004ad8:	5a858593          	addi	a1,a1,1448 # 5a8 <offset+0x118>
    80004adc:	00b59593          	slli	a1,a1,0xb
    80004ae0:	13c58593          	addi	a1,a1,316
    80004ae4:	00a59593          	slli	a1,a1,0xa
    80004ae8:	33458593          	addi	a1,a1,820
    80004aec:	00b52633          	slt	a2,a0,a1
    80004af0:	20c13c23          	sd	a2,536(sp)
    80004af4:	00100693          	li	a3,1
    80004af8:	00c68463          	beq	a3,a2,80004b00 <inst_342>
    80004afc:	d28fb06f          	j	80000024 <rvtest_error>

0000000080004b00 <inst_342>:
    80004b00:	00000537          	lui	a0,0x0
    80004b04:	00050513          	mv	a0,a0
    80004b08:	00b51513          	slli	a0,a0,0xb
    80004b0c:	5a850513          	addi	a0,a0,1448 # 5a8 <offset+0x118>
    80004b10:	00b51513          	slli	a0,a0,0xb
    80004b14:	13c50513          	addi	a0,a0,316
    80004b18:	00a51513          	slli	a0,a0,0xa
    80004b1c:	33350513          	addi	a0,a0,819
    80004b20:	00300593          	li	a1,3
    80004b24:	00b52633          	slt	a2,a0,a1
    80004b28:	22c13023          	sd	a2,544(sp)
    80004b2c:	00000693          	li	a3,0
    80004b30:	00c68463          	beq	a3,a2,80004b38 <inst_343>
    80004b34:	cf0fb06f          	j	80000024 <rvtest_error>

0000000080004b38 <inst_343>:
    80004b38:	00000537          	lui	a0,0x0
    80004b3c:	00050513          	mv	a0,a0
    80004b40:	00b51513          	slli	a0,a0,0xb
    80004b44:	5a850513          	addi	a0,a0,1448 # 5a8 <offset+0x118>
    80004b48:	00b51513          	slli	a0,a0,0xb
    80004b4c:	13c50513          	addi	a0,a0,316
    80004b50:	00a51513          	slli	a0,a0,0xa
    80004b54:	33350513          	addi	a0,a0,819
    80004b58:	555555b7          	lui	a1,0x55555
    80004b5c:	55558593          	addi	a1,a1,1365 # 55555555 <absimmsh+0x49a847a8>
    80004b60:	00b59593          	slli	a1,a1,0xb
    80004b64:	2aa58593          	addi	a1,a1,682
    80004b68:	00b59593          	slli	a1,a1,0xb
    80004b6c:	55558593          	addi	a1,a1,1365
    80004b70:	00a59593          	slli	a1,a1,0xa
    80004b74:	15558593          	addi	a1,a1,341
    80004b78:	00b52633          	slt	a2,a0,a1
    80004b7c:	22c13423          	sd	a2,552(sp)
    80004b80:	00100693          	li	a3,1
    80004b84:	00c68463          	beq	a3,a2,80004b8c <inst_344>
    80004b88:	c9cfb06f          	j	80000024 <rvtest_error>

0000000080004b8c <inst_344>:
    80004b8c:	00000537          	lui	a0,0x0
    80004b90:	00050513          	mv	a0,a0
    80004b94:	00b51513          	slli	a0,a0,0xb
    80004b98:	5a850513          	addi	a0,a0,1448 # 5a8 <offset+0x118>
    80004b9c:	00b51513          	slli	a0,a0,0xb
    80004ba0:	13c50513          	addi	a0,a0,316
    80004ba4:	00a51513          	slli	a0,a0,0xa
    80004ba8:	33350513          	addi	a0,a0,819
    80004bac:	aaaab5b7          	lui	a1,0xaaaab
    80004bb0:	aaa58593          	addi	a1,a1,-1366 # ffffffffaaaaaaaa <absimm+0xfffffffeefd9cfda>
    80004bb4:	00b59593          	slli	a1,a1,0xb
    80004bb8:	55558593          	addi	a1,a1,1365
    80004bbc:	00b59593          	slli	a1,a1,0xb
    80004bc0:	2aa58593          	addi	a1,a1,682
    80004bc4:	00a59593          	slli	a1,a1,0xa
    80004bc8:	2aa58593          	addi	a1,a1,682
    80004bcc:	00b52633          	slt	a2,a0,a1
    80004bd0:	22c13823          	sd	a2,560(sp)
    80004bd4:	00000693          	li	a3,0
    80004bd8:	00c68463          	beq	a3,a2,80004be0 <inst_345>
    80004bdc:	c48fb06f          	j	80000024 <rvtest_error>

0000000080004be0 <inst_345>:
    80004be0:	00000537          	lui	a0,0x0
    80004be4:	00050513          	mv	a0,a0
    80004be8:	00b51513          	slli	a0,a0,0xb
    80004bec:	5a850513          	addi	a0,a0,1448 # 5a8 <offset+0x118>
    80004bf0:	00b51513          	slli	a0,a0,0xb
    80004bf4:	13c50513          	addi	a0,a0,316
    80004bf8:	00a51513          	slli	a0,a0,0xa
    80004bfc:	33350513          	addi	a0,a0,819
    80004c00:	00500593          	li	a1,5
    80004c04:	00b52633          	slt	a2,a0,a1
    80004c08:	22c13c23          	sd	a2,568(sp)
    80004c0c:	00000693          	li	a3,0
    80004c10:	00c68463          	beq	a3,a2,80004c18 <inst_346>
    80004c14:	c10fb06f          	j	80000024 <rvtest_error>

0000000080004c18 <inst_346>:
    80004c18:	00000537          	lui	a0,0x0
    80004c1c:	00050513          	mv	a0,a0
    80004c20:	00b51513          	slli	a0,a0,0xb
    80004c24:	5a850513          	addi	a0,a0,1448 # 5a8 <offset+0x118>
    80004c28:	00b51513          	slli	a0,a0,0xb
    80004c2c:	13c50513          	addi	a0,a0,316
    80004c30:	00a51513          	slli	a0,a0,0xa
    80004c34:	33350513          	addi	a0,a0,819
    80004c38:	333335b7          	lui	a1,0x33333
    80004c3c:	33358593          	addi	a1,a1,819 # 33333333 <absimmsh+0x27862586>
    80004c40:	00b59593          	slli	a1,a1,0xb
    80004c44:	19958593          	addi	a1,a1,409
    80004c48:	00b59593          	slli	a1,a1,0xb
    80004c4c:	4cc58593          	addi	a1,a1,1228
    80004c50:	00a59593          	slli	a1,a1,0xa
    80004c54:	33358593          	addi	a1,a1,819
    80004c58:	00b52633          	slt	a2,a0,a1
    80004c5c:	24c13023          	sd	a2,576(sp)
    80004c60:	00100693          	li	a3,1
    80004c64:	00c68463          	beq	a3,a2,80004c6c <inst_347>
    80004c68:	bbcfb06f          	j	80000024 <rvtest_error>

0000000080004c6c <inst_347>:
    80004c6c:	00000537          	lui	a0,0x0
    80004c70:	00050513          	mv	a0,a0
    80004c74:	00b51513          	slli	a0,a0,0xb
    80004c78:	5a850513          	addi	a0,a0,1448 # 5a8 <offset+0x118>
    80004c7c:	00b51513          	slli	a0,a0,0xb
    80004c80:	13c50513          	addi	a0,a0,316
    80004c84:	00a51513          	slli	a0,a0,0xa
    80004c88:	33350513          	addi	a0,a0,819
    80004c8c:	666665b7          	lui	a1,0x66666
    80004c90:	66658593          	addi	a1,a1,1638 # 66666666 <absimmsh+0x5ab958b9>
    80004c94:	00b59593          	slli	a1,a1,0xb
    80004c98:	33358593          	addi	a1,a1,819
    80004c9c:	00b59593          	slli	a1,a1,0xb
    80004ca0:	19958593          	addi	a1,a1,409
    80004ca4:	00a59593          	slli	a1,a1,0xa
    80004ca8:	26658593          	addi	a1,a1,614
    80004cac:	00b52633          	slt	a2,a0,a1
    80004cb0:	24c13423          	sd	a2,584(sp)
    80004cb4:	00100693          	li	a3,1
    80004cb8:	00c68463          	beq	a3,a2,80004cc0 <inst_348>
    80004cbc:	b68fb06f          	j	80000024 <rvtest_error>

0000000080004cc0 <inst_348>:
    80004cc0:	00000537          	lui	a0,0x0
    80004cc4:	00050513          	mv	a0,a0
    80004cc8:	00b51513          	slli	a0,a0,0xb
    80004ccc:	5a850513          	addi	a0,a0,1448 # 5a8 <offset+0x118>
    80004cd0:	00b51513          	slli	a0,a0,0xb
    80004cd4:	13c50513          	addi	a0,a0,316
    80004cd8:	00a51513          	slli	a0,a0,0xa
    80004cdc:	33350513          	addi	a0,a0,819
    80004ce0:	000005b7          	lui	a1,0x0
    80004ce4:	fff58593          	addi	a1,a1,-1
    80004ce8:	00b59593          	slli	a1,a1,0xb
    80004cec:	25758593          	addi	a1,a1,599
    80004cf0:	00b59593          	slli	a1,a1,0xb
    80004cf4:	6c358593          	addi	a1,a1,1731
    80004cf8:	00a59593          	slli	a1,a1,0xa
    80004cfc:	0cd58593          	addi	a1,a1,205
    80004d00:	00b52633          	slt	a2,a0,a1
    80004d04:	24c13823          	sd	a2,592(sp)
    80004d08:	00000693          	li	a3,0
    80004d0c:	00c68463          	beq	a3,a2,80004d14 <inst_349>
    80004d10:	b14fb06f          	j	80000024 <rvtest_error>

0000000080004d14 <inst_349>:
    80004d14:	00000537          	lui	a0,0x0
    80004d18:	00050513          	mv	a0,a0
    80004d1c:	00b51513          	slli	a0,a0,0xb
    80004d20:	5a850513          	addi	a0,a0,1448 # 5a8 <offset+0x118>
    80004d24:	00b51513          	slli	a0,a0,0xb
    80004d28:	13c50513          	addi	a0,a0,316
    80004d2c:	00a51513          	slli	a0,a0,0xa
    80004d30:	33350513          	addi	a0,a0,819
    80004d34:	000005b7          	lui	a1,0x0
    80004d38:	00058593          	mv	a1,a1
    80004d3c:	00b59593          	slli	a1,a1,0xb
    80004d40:	5a858593          	addi	a1,a1,1448 # 5a8 <offset+0x118>
    80004d44:	00b59593          	slli	a1,a1,0xb
    80004d48:	13c58593          	addi	a1,a1,316
    80004d4c:	00a59593          	slli	a1,a1,0xa
    80004d50:	33358593          	addi	a1,a1,819
    80004d54:	00b52633          	slt	a2,a0,a1
    80004d58:	24c13c23          	sd	a2,600(sp)
    80004d5c:	00000693          	li	a3,0
    80004d60:	00c68463          	beq	a3,a2,80004d68 <inst_350>
    80004d64:	ac0fb06f          	j	80000024 <rvtest_error>

0000000080004d68 <inst_350>:
    80004d68:	00000537          	lui	a0,0x0
    80004d6c:	00050513          	mv	a0,a0
    80004d70:	00b51513          	slli	a0,a0,0xb
    80004d74:	5a850513          	addi	a0,a0,1448 # 5a8 <offset+0x118>
    80004d78:	00b51513          	slli	a0,a0,0xb
    80004d7c:	13c50513          	addi	a0,a0,316
    80004d80:	00a51513          	slli	a0,a0,0xa
    80004d84:	33350513          	addi	a0,a0,819
    80004d88:	00200593          	li	a1,2
    80004d8c:	00b52633          	slt	a2,a0,a1
    80004d90:	26c13023          	sd	a2,608(sp)
    80004d94:	00000693          	li	a3,0
    80004d98:	00c68463          	beq	a3,a2,80004da0 <inst_351>
    80004d9c:	a88fb06f          	j	80000024 <rvtest_error>

0000000080004da0 <inst_351>:
    80004da0:	00000537          	lui	a0,0x0
    80004da4:	00050513          	mv	a0,a0
    80004da8:	00b51513          	slli	a0,a0,0xb
    80004dac:	5a850513          	addi	a0,a0,1448 # 5a8 <offset+0x118>
    80004db0:	00b51513          	slli	a0,a0,0xb
    80004db4:	13c50513          	addi	a0,a0,316
    80004db8:	00a51513          	slli	a0,a0,0xa
    80004dbc:	33350513          	addi	a0,a0,819
    80004dc0:	555555b7          	lui	a1,0x55555
    80004dc4:	55558593          	addi	a1,a1,1365 # 55555555 <absimmsh+0x49a847a8>
    80004dc8:	00b59593          	slli	a1,a1,0xb
    80004dcc:	2aa58593          	addi	a1,a1,682
    80004dd0:	00b59593          	slli	a1,a1,0xb
    80004dd4:	55558593          	addi	a1,a1,1365
    80004dd8:	00a59593          	slli	a1,a1,0xa
    80004ddc:	15458593          	addi	a1,a1,340
    80004de0:	00b52633          	slt	a2,a0,a1
    80004de4:	26c13423          	sd	a2,616(sp)
    80004de8:	00100693          	li	a3,1
    80004dec:	00c68463          	beq	a3,a2,80004df4 <inst_352>
    80004df0:	a34fb06f          	j	80000024 <rvtest_error>

0000000080004df4 <inst_352>:
    80004df4:	00000537          	lui	a0,0x0
    80004df8:	00050513          	mv	a0,a0
    80004dfc:	00b51513          	slli	a0,a0,0xb
    80004e00:	5a850513          	addi	a0,a0,1448 # 5a8 <offset+0x118>
    80004e04:	00b51513          	slli	a0,a0,0xb
    80004e08:	13c50513          	addi	a0,a0,316
    80004e0c:	00a51513          	slli	a0,a0,0xa
    80004e10:	33350513          	addi	a0,a0,819
    80004e14:	00000593          	li	a1,0
    80004e18:	00b52633          	slt	a2,a0,a1
    80004e1c:	26c13823          	sd	a2,624(sp)
    80004e20:	00000693          	li	a3,0
    80004e24:	00c68463          	beq	a3,a2,80004e2c <inst_353>
    80004e28:	9fcfb06f          	j	80000024 <rvtest_error>

0000000080004e2c <inst_353>:
    80004e2c:	00000537          	lui	a0,0x0
    80004e30:	00050513          	mv	a0,a0
    80004e34:	00b51513          	slli	a0,a0,0xb
    80004e38:	5a850513          	addi	a0,a0,1448 # 5a8 <offset+0x118>
    80004e3c:	00b51513          	slli	a0,a0,0xb
    80004e40:	13c50513          	addi	a0,a0,316
    80004e44:	00a51513          	slli	a0,a0,0xa
    80004e48:	33350513          	addi	a0,a0,819
    80004e4c:	00400593          	li	a1,4
    80004e50:	00b52633          	slt	a2,a0,a1
    80004e54:	26c13c23          	sd	a2,632(sp)
    80004e58:	00000693          	li	a3,0
    80004e5c:	00c68463          	beq	a3,a2,80004e64 <inst_354>
    80004e60:	9c4fb06f          	j	80000024 <rvtest_error>

0000000080004e64 <inst_354>:
    80004e64:	00000537          	lui	a0,0x0
    80004e68:	00050513          	mv	a0,a0
    80004e6c:	00b51513          	slli	a0,a0,0xb
    80004e70:	5a850513          	addi	a0,a0,1448 # 5a8 <offset+0x118>
    80004e74:	00b51513          	slli	a0,a0,0xb
    80004e78:	13c50513          	addi	a0,a0,316
    80004e7c:	00a51513          	slli	a0,a0,0xa
    80004e80:	33350513          	addi	a0,a0,819
    80004e84:	333335b7          	lui	a1,0x33333
    80004e88:	33358593          	addi	a1,a1,819 # 33333333 <absimmsh+0x27862586>
    80004e8c:	00b59593          	slli	a1,a1,0xb
    80004e90:	19958593          	addi	a1,a1,409
    80004e94:	00b59593          	slli	a1,a1,0xb
    80004e98:	4cc58593          	addi	a1,a1,1228
    80004e9c:	00a59593          	slli	a1,a1,0xa
    80004ea0:	33258593          	addi	a1,a1,818
    80004ea4:	00b52633          	slt	a2,a0,a1
    80004ea8:	28c13023          	sd	a2,640(sp)
    80004eac:	00100693          	li	a3,1
    80004eb0:	00c68463          	beq	a3,a2,80004eb8 <inst_355>
    80004eb4:	970fb06f          	j	80000024 <rvtest_error>

0000000080004eb8 <inst_355>:
    80004eb8:	00000537          	lui	a0,0x0
    80004ebc:	00050513          	mv	a0,a0
    80004ec0:	00b51513          	slli	a0,a0,0xb
    80004ec4:	5a850513          	addi	a0,a0,1448 # 5a8 <offset+0x118>
    80004ec8:	00b51513          	slli	a0,a0,0xb
    80004ecc:	13c50513          	addi	a0,a0,316
    80004ed0:	00a51513          	slli	a0,a0,0xa
    80004ed4:	33350513          	addi	a0,a0,819
    80004ed8:	666665b7          	lui	a1,0x66666
    80004edc:	66658593          	addi	a1,a1,1638 # 66666666 <absimmsh+0x5ab958b9>
    80004ee0:	00b59593          	slli	a1,a1,0xb
    80004ee4:	33358593          	addi	a1,a1,819
    80004ee8:	00b59593          	slli	a1,a1,0xb
    80004eec:	19958593          	addi	a1,a1,409
    80004ef0:	00a59593          	slli	a1,a1,0xa
    80004ef4:	26558593          	addi	a1,a1,613
    80004ef8:	00b52633          	slt	a2,a0,a1
    80004efc:	28c13423          	sd	a2,648(sp)
    80004f00:	00100693          	li	a3,1
    80004f04:	00c68463          	beq	a3,a2,80004f0c <inst_356>
    80004f08:	91cfb06f          	j	80000024 <rvtest_error>

0000000080004f0c <inst_356>:
    80004f0c:	00000537          	lui	a0,0x0
    80004f10:	00050513          	mv	a0,a0
    80004f14:	00b51513          	slli	a0,a0,0xb
    80004f18:	5a850513          	addi	a0,a0,1448 # 5a8 <offset+0x118>
    80004f1c:	00b51513          	slli	a0,a0,0xb
    80004f20:	13c50513          	addi	a0,a0,316
    80004f24:	00a51513          	slli	a0,a0,0xa
    80004f28:	33350513          	addi	a0,a0,819
    80004f2c:	000005b7          	lui	a1,0x0
    80004f30:	00058593          	mv	a1,a1
    80004f34:	00b59593          	slli	a1,a1,0xb
    80004f38:	5a858593          	addi	a1,a1,1448 # 5a8 <offset+0x118>
    80004f3c:	00b59593          	slli	a1,a1,0xb
    80004f40:	13c58593          	addi	a1,a1,316
    80004f44:	00a59593          	slli	a1,a1,0xa
    80004f48:	33258593          	addi	a1,a1,818
    80004f4c:	00b52633          	slt	a2,a0,a1
    80004f50:	28c13823          	sd	a2,656(sp)
    80004f54:	00000693          	li	a3,0
    80004f58:	00c68463          	beq	a3,a2,80004f60 <inst_357>
    80004f5c:	8c8fb06f          	j	80000024 <rvtest_error>

0000000080004f60 <inst_357>:
    80004f60:	00000537          	lui	a0,0x0
    80004f64:	00050513          	mv	a0,a0
    80004f68:	00b51513          	slli	a0,a0,0xb
    80004f6c:	5a850513          	addi	a0,a0,1448 # 5a8 <offset+0x118>
    80004f70:	00b51513          	slli	a0,a0,0xb
    80004f74:	13c50513          	addi	a0,a0,316
    80004f78:	00a51513          	slli	a0,a0,0xa
    80004f7c:	33350513          	addi	a0,a0,819
    80004f80:	555555b7          	lui	a1,0x55555
    80004f84:	55558593          	addi	a1,a1,1365 # 55555555 <absimmsh+0x49a847a8>
    80004f88:	00b59593          	slli	a1,a1,0xb
    80004f8c:	2aa58593          	addi	a1,a1,682
    80004f90:	00b59593          	slli	a1,a1,0xb
    80004f94:	55558593          	addi	a1,a1,1365
    80004f98:	00a59593          	slli	a1,a1,0xa
    80004f9c:	15658593          	addi	a1,a1,342
    80004fa0:	00b52633          	slt	a2,a0,a1
    80004fa4:	28c13c23          	sd	a2,664(sp)
    80004fa8:	00100693          	li	a3,1
    80004fac:	00c68463          	beq	a3,a2,80004fb4 <inst_358>
    80004fb0:	874fb06f          	j	80000024 <rvtest_error>

0000000080004fb4 <inst_358>:
    80004fb4:	00000537          	lui	a0,0x0
    80004fb8:	00050513          	mv	a0,a0
    80004fbc:	00b51513          	slli	a0,a0,0xb
    80004fc0:	5a850513          	addi	a0,a0,1448 # 5a8 <offset+0x118>
    80004fc4:	00b51513          	slli	a0,a0,0xb
    80004fc8:	13c50513          	addi	a0,a0,316
    80004fcc:	00a51513          	slli	a0,a0,0xa
    80004fd0:	33350513          	addi	a0,a0,819
    80004fd4:	aaaab5b7          	lui	a1,0xaaaab
    80004fd8:	aaa58593          	addi	a1,a1,-1366 # ffffffffaaaaaaaa <absimm+0xfffffffeefd9cfda>
    80004fdc:	00b59593          	slli	a1,a1,0xb
    80004fe0:	55558593          	addi	a1,a1,1365
    80004fe4:	00b59593          	slli	a1,a1,0xb
    80004fe8:	2aa58593          	addi	a1,a1,682
    80004fec:	00a59593          	slli	a1,a1,0xa
    80004ff0:	2ab58593          	addi	a1,a1,683
    80004ff4:	00b52633          	slt	a2,a0,a1
    80004ff8:	2ac13023          	sd	a2,672(sp)
    80004ffc:	00000693          	li	a3,0
    80005000:	00c68463          	beq	a3,a2,80005008 <inst_359>
    80005004:	820fb06f          	j	80000024 <rvtest_error>

0000000080005008 <inst_359>:
    80005008:	00000537          	lui	a0,0x0
    8000500c:	00050513          	mv	a0,a0
    80005010:	00b51513          	slli	a0,a0,0xb
    80005014:	5a850513          	addi	a0,a0,1448 # 5a8 <offset+0x118>
    80005018:	00b51513          	slli	a0,a0,0xb
    8000501c:	13c50513          	addi	a0,a0,316
    80005020:	00a51513          	slli	a0,a0,0xa
    80005024:	33350513          	addi	a0,a0,819
    80005028:	00600593          	li	a1,6
    8000502c:	00b52633          	slt	a2,a0,a1
    80005030:	2ac13423          	sd	a2,680(sp)
    80005034:	00000693          	li	a3,0
    80005038:	00c68463          	beq	a3,a2,80005040 <inst_360>
    8000503c:	fe9fa06f          	j	80000024 <rvtest_error>

0000000080005040 <inst_360>:
    80005040:	00000537          	lui	a0,0x0
    80005044:	00050513          	mv	a0,a0
    80005048:	00b51513          	slli	a0,a0,0xb
    8000504c:	5a850513          	addi	a0,a0,1448 # 5a8 <offset+0x118>
    80005050:	00b51513          	slli	a0,a0,0xb
    80005054:	13c50513          	addi	a0,a0,316
    80005058:	00a51513          	slli	a0,a0,0xa
    8000505c:	33350513          	addi	a0,a0,819
    80005060:	333335b7          	lui	a1,0x33333
    80005064:	33358593          	addi	a1,a1,819 # 33333333 <absimmsh+0x27862586>
    80005068:	00b59593          	slli	a1,a1,0xb
    8000506c:	19958593          	addi	a1,a1,409
    80005070:	00b59593          	slli	a1,a1,0xb
    80005074:	4cc58593          	addi	a1,a1,1228
    80005078:	00a59593          	slli	a1,a1,0xa
    8000507c:	33458593          	addi	a1,a1,820
    80005080:	00b52633          	slt	a2,a0,a1
    80005084:	2ac13823          	sd	a2,688(sp)
    80005088:	00100693          	li	a3,1
    8000508c:	00c68463          	beq	a3,a2,80005094 <inst_361>
    80005090:	f95fa06f          	j	80000024 <rvtest_error>

0000000080005094 <inst_361>:
    80005094:	00000537          	lui	a0,0x0
    80005098:	00050513          	mv	a0,a0
    8000509c:	00b51513          	slli	a0,a0,0xb
    800050a0:	5a850513          	addi	a0,a0,1448 # 5a8 <offset+0x118>
    800050a4:	00b51513          	slli	a0,a0,0xb
    800050a8:	13c50513          	addi	a0,a0,316
    800050ac:	00a51513          	slli	a0,a0,0xa
    800050b0:	33350513          	addi	a0,a0,819
    800050b4:	666665b7          	lui	a1,0x66666
    800050b8:	66658593          	addi	a1,a1,1638 # 66666666 <absimmsh+0x5ab958b9>
    800050bc:	00b59593          	slli	a1,a1,0xb
    800050c0:	33358593          	addi	a1,a1,819
    800050c4:	00b59593          	slli	a1,a1,0xb
    800050c8:	19958593          	addi	a1,a1,409
    800050cc:	00a59593          	slli	a1,a1,0xa
    800050d0:	26758593          	addi	a1,a1,615
    800050d4:	00b52633          	slt	a2,a0,a1
    800050d8:	2ac13c23          	sd	a2,696(sp)
    800050dc:	00100693          	li	a3,1
    800050e0:	00c68463          	beq	a3,a2,800050e8 <inst_362>
    800050e4:	f41fa06f          	j	80000024 <rvtest_error>

00000000800050e8 <inst_362>:
    800050e8:	00000537          	lui	a0,0x0
    800050ec:	00050513          	mv	a0,a0
    800050f0:	00b51513          	slli	a0,a0,0xb
    800050f4:	5a850513          	addi	a0,a0,1448 # 5a8 <offset+0x118>
    800050f8:	00b51513          	slli	a0,a0,0xb
    800050fc:	13c50513          	addi	a0,a0,316
    80005100:	00a51513          	slli	a0,a0,0xa
    80005104:	33350513          	addi	a0,a0,819
    80005108:	000005b7          	lui	a1,0x0
    8000510c:	fff58593          	addi	a1,a1,-1
    80005110:	00b59593          	slli	a1,a1,0xb
    80005114:	25758593          	addi	a1,a1,599
    80005118:	00b59593          	slli	a1,a1,0xb
    8000511c:	6c358593          	addi	a1,a1,1731
    80005120:	00a59593          	slli	a1,a1,0xa
    80005124:	0ce58593          	addi	a1,a1,206
    80005128:	00b52633          	slt	a2,a0,a1
    8000512c:	2cc13023          	sd	a2,704(sp)
    80005130:	00000693          	li	a3,0
    80005134:	00c68463          	beq	a3,a2,8000513c <inst_363>
    80005138:	eedfa06f          	j	80000024 <rvtest_error>

000000008000513c <inst_363>:
    8000513c:	00000537          	lui	a0,0x0
    80005140:	00050513          	mv	a0,a0
    80005144:	00b51513          	slli	a0,a0,0xb
    80005148:	5a850513          	addi	a0,a0,1448 # 5a8 <offset+0x118>
    8000514c:	00b51513          	slli	a0,a0,0xb
    80005150:	13c50513          	addi	a0,a0,316
    80005154:	00a51513          	slli	a0,a0,0xa
    80005158:	33350513          	addi	a0,a0,819
    8000515c:	000005b7          	lui	a1,0x0
    80005160:	00058593          	mv	a1,a1
    80005164:	00b59593          	slli	a1,a1,0xb
    80005168:	5a858593          	addi	a1,a1,1448 # 5a8 <offset+0x118>
    8000516c:	00b59593          	slli	a1,a1,0xb
    80005170:	13c58593          	addi	a1,a1,316
    80005174:	00a59593          	slli	a1,a1,0xa
    80005178:	33458593          	addi	a1,a1,820
    8000517c:	00b52633          	slt	a2,a0,a1
    80005180:	2cc13423          	sd	a2,712(sp)
    80005184:	00100693          	li	a3,1
    80005188:	00c68463          	beq	a3,a2,80005190 <inst_364>
    8000518c:	e99fa06f          	j	80000024 <rvtest_error>

0000000080005190 <inst_364>:
    80005190:	00200513          	li	a0,2
    80005194:	00300593          	li	a1,3
    80005198:	00b52633          	slt	a2,a0,a1
    8000519c:	2cc13823          	sd	a2,720(sp)
    800051a0:	00100693          	li	a3,1
    800051a4:	00c68463          	beq	a3,a2,800051ac <inst_365>
    800051a8:	e7dfa06f          	j	80000024 <rvtest_error>

00000000800051ac <inst_365>:
    800051ac:	00200513          	li	a0,2
    800051b0:	555555b7          	lui	a1,0x55555
    800051b4:	55558593          	addi	a1,a1,1365 # 55555555 <absimmsh+0x49a847a8>
    800051b8:	00b59593          	slli	a1,a1,0xb
    800051bc:	2aa58593          	addi	a1,a1,682
    800051c0:	00b59593          	slli	a1,a1,0xb
    800051c4:	55558593          	addi	a1,a1,1365
    800051c8:	00a59593          	slli	a1,a1,0xa
    800051cc:	15558593          	addi	a1,a1,341
    800051d0:	00b52633          	slt	a2,a0,a1
    800051d4:	2cc13c23          	sd	a2,728(sp)
    800051d8:	00100693          	li	a3,1
    800051dc:	00c68463          	beq	a3,a2,800051e4 <inst_366>
    800051e0:	e45fa06f          	j	80000024 <rvtest_error>

00000000800051e4 <inst_366>:
    800051e4:	00200513          	li	a0,2
    800051e8:	aaaab5b7          	lui	a1,0xaaaab
    800051ec:	aaa58593          	addi	a1,a1,-1366 # ffffffffaaaaaaaa <absimm+0xfffffffeefd9cfda>
    800051f0:	00b59593          	slli	a1,a1,0xb
    800051f4:	55558593          	addi	a1,a1,1365
    800051f8:	00b59593          	slli	a1,a1,0xb
    800051fc:	2aa58593          	addi	a1,a1,682
    80005200:	00a59593          	slli	a1,a1,0xa
    80005204:	2aa58593          	addi	a1,a1,682
    80005208:	00b52633          	slt	a2,a0,a1
    8000520c:	2ec13023          	sd	a2,736(sp)
    80005210:	00000693          	li	a3,0
    80005214:	00c68463          	beq	a3,a2,8000521c <inst_367>
    80005218:	e0dfa06f          	j	80000024 <rvtest_error>

000000008000521c <inst_367>:
    8000521c:	00200513          	li	a0,2
    80005220:	00500593          	li	a1,5
    80005224:	00b52633          	slt	a2,a0,a1
    80005228:	2ec13423          	sd	a2,744(sp)
    8000522c:	00100693          	li	a3,1
    80005230:	00c68463          	beq	a3,a2,80005238 <inst_368>
    80005234:	df1fa06f          	j	80000024 <rvtest_error>

0000000080005238 <inst_368>:
    80005238:	00200513          	li	a0,2
    8000523c:	333335b7          	lui	a1,0x33333
    80005240:	33358593          	addi	a1,a1,819 # 33333333 <absimmsh+0x27862586>
    80005244:	00b59593          	slli	a1,a1,0xb
    80005248:	19958593          	addi	a1,a1,409
    8000524c:	00b59593          	slli	a1,a1,0xb
    80005250:	4cc58593          	addi	a1,a1,1228
    80005254:	00a59593          	slli	a1,a1,0xa
    80005258:	33358593          	addi	a1,a1,819
    8000525c:	00b52633          	slt	a2,a0,a1
    80005260:	2ec13823          	sd	a2,752(sp)
    80005264:	00100693          	li	a3,1
    80005268:	00c68463          	beq	a3,a2,80005270 <inst_369>
    8000526c:	db9fa06f          	j	80000024 <rvtest_error>

0000000080005270 <inst_369>:
    80005270:	00200513          	li	a0,2
    80005274:	666665b7          	lui	a1,0x66666
    80005278:	66658593          	addi	a1,a1,1638 # 66666666 <absimmsh+0x5ab958b9>
    8000527c:	00b59593          	slli	a1,a1,0xb
    80005280:	33358593          	addi	a1,a1,819
    80005284:	00b59593          	slli	a1,a1,0xb
    80005288:	19958593          	addi	a1,a1,409
    8000528c:	00a59593          	slli	a1,a1,0xa
    80005290:	26658593          	addi	a1,a1,614
    80005294:	00b52633          	slt	a2,a0,a1
    80005298:	2ec13c23          	sd	a2,760(sp)
    8000529c:	00100693          	li	a3,1
    800052a0:	00c68463          	beq	a3,a2,800052a8 <inst_370>
    800052a4:	d81fa06f          	j	80000024 <rvtest_error>

00000000800052a8 <inst_370>:
    800052a8:	00200513          	li	a0,2
    800052ac:	000005b7          	lui	a1,0x0
    800052b0:	fff58593          	addi	a1,a1,-1
    800052b4:	00b59593          	slli	a1,a1,0xb
    800052b8:	25758593          	addi	a1,a1,599
    800052bc:	00b59593          	slli	a1,a1,0xb
    800052c0:	6c358593          	addi	a1,a1,1731
    800052c4:	00a59593          	slli	a1,a1,0xa
    800052c8:	0cd58593          	addi	a1,a1,205
    800052cc:	00b52633          	slt	a2,a0,a1
    800052d0:	30c13023          	sd	a2,768(sp)
    800052d4:	00000693          	li	a3,0
    800052d8:	00c68463          	beq	a3,a2,800052e0 <inst_371>
    800052dc:	d49fa06f          	j	80000024 <rvtest_error>

00000000800052e0 <inst_371>:
    800052e0:	00200513          	li	a0,2
    800052e4:	000005b7          	lui	a1,0x0
    800052e8:	00058593          	mv	a1,a1
    800052ec:	00b59593          	slli	a1,a1,0xb
    800052f0:	5a858593          	addi	a1,a1,1448 # 5a8 <offset+0x118>
    800052f4:	00b59593          	slli	a1,a1,0xb
    800052f8:	13c58593          	addi	a1,a1,316
    800052fc:	00a59593          	slli	a1,a1,0xa
    80005300:	33358593          	addi	a1,a1,819
    80005304:	00b52633          	slt	a2,a0,a1
    80005308:	30c13423          	sd	a2,776(sp)
    8000530c:	00100693          	li	a3,1
    80005310:	00c68463          	beq	a3,a2,80005318 <inst_372>
    80005314:	d11fa06f          	j	80000024 <rvtest_error>

0000000080005318 <inst_372>:
    80005318:	00200513          	li	a0,2
    8000531c:	00200593          	li	a1,2
    80005320:	00b52633          	slt	a2,a0,a1
    80005324:	30c13823          	sd	a2,784(sp)
    80005328:	00000693          	li	a3,0
    8000532c:	00c68463          	beq	a3,a2,80005334 <inst_373>
    80005330:	cf5fa06f          	j	80000024 <rvtest_error>

0000000080005334 <inst_373>:
    80005334:	00200513          	li	a0,2
    80005338:	555555b7          	lui	a1,0x55555
    8000533c:	55558593          	addi	a1,a1,1365 # 55555555 <absimmsh+0x49a847a8>
    80005340:	00b59593          	slli	a1,a1,0xb
    80005344:	2aa58593          	addi	a1,a1,682
    80005348:	00b59593          	slli	a1,a1,0xb
    8000534c:	55558593          	addi	a1,a1,1365
    80005350:	00a59593          	slli	a1,a1,0xa
    80005354:	15458593          	addi	a1,a1,340
    80005358:	00b52633          	slt	a2,a0,a1
    8000535c:	30c13c23          	sd	a2,792(sp)
    80005360:	00100693          	li	a3,1
    80005364:	00c68463          	beq	a3,a2,8000536c <inst_374>
    80005368:	cbdfa06f          	j	80000024 <rvtest_error>

000000008000536c <inst_374>:
    8000536c:	00200513          	li	a0,2
    80005370:	00000593          	li	a1,0
    80005374:	00b52633          	slt	a2,a0,a1
    80005378:	32c13023          	sd	a2,800(sp)
    8000537c:	00000693          	li	a3,0
    80005380:	00c68463          	beq	a3,a2,80005388 <inst_375>
    80005384:	ca1fa06f          	j	80000024 <rvtest_error>

0000000080005388 <inst_375>:
    80005388:	00200513          	li	a0,2
    8000538c:	00400593          	li	a1,4
    80005390:	00b52633          	slt	a2,a0,a1
    80005394:	32c13423          	sd	a2,808(sp)
    80005398:	00100693          	li	a3,1
    8000539c:	00c68463          	beq	a3,a2,800053a4 <inst_376>
    800053a0:	c85fa06f          	j	80000024 <rvtest_error>

00000000800053a4 <inst_376>:
    800053a4:	00200513          	li	a0,2
    800053a8:	333335b7          	lui	a1,0x33333
    800053ac:	33358593          	addi	a1,a1,819 # 33333333 <absimmsh+0x27862586>
    800053b0:	00b59593          	slli	a1,a1,0xb
    800053b4:	19958593          	addi	a1,a1,409
    800053b8:	00b59593          	slli	a1,a1,0xb
    800053bc:	4cc58593          	addi	a1,a1,1228
    800053c0:	00a59593          	slli	a1,a1,0xa
    800053c4:	33258593          	addi	a1,a1,818
    800053c8:	00b52633          	slt	a2,a0,a1
    800053cc:	32c13823          	sd	a2,816(sp)
    800053d0:	00100693          	li	a3,1
    800053d4:	00c68463          	beq	a3,a2,800053dc <inst_377>
    800053d8:	c4dfa06f          	j	80000024 <rvtest_error>

00000000800053dc <inst_377>:
    800053dc:	00200513          	li	a0,2
    800053e0:	666665b7          	lui	a1,0x66666
    800053e4:	66658593          	addi	a1,a1,1638 # 66666666 <absimmsh+0x5ab958b9>
    800053e8:	00b59593          	slli	a1,a1,0xb
    800053ec:	33358593          	addi	a1,a1,819
    800053f0:	00b59593          	slli	a1,a1,0xb
    800053f4:	19958593          	addi	a1,a1,409
    800053f8:	00a59593          	slli	a1,a1,0xa
    800053fc:	26558593          	addi	a1,a1,613
    80005400:	00b52633          	slt	a2,a0,a1
    80005404:	32c13c23          	sd	a2,824(sp)
    80005408:	00100693          	li	a3,1
    8000540c:	00c68463          	beq	a3,a2,80005414 <inst_378>
    80005410:	c15fa06f          	j	80000024 <rvtest_error>

0000000080005414 <inst_378>:
    80005414:	00200513          	li	a0,2
    80005418:	000005b7          	lui	a1,0x0
    8000541c:	00058593          	mv	a1,a1
    80005420:	00b59593          	slli	a1,a1,0xb
    80005424:	5a858593          	addi	a1,a1,1448 # 5a8 <offset+0x118>
    80005428:	00b59593          	slli	a1,a1,0xb
    8000542c:	13c58593          	addi	a1,a1,316
    80005430:	00a59593          	slli	a1,a1,0xa
    80005434:	33258593          	addi	a1,a1,818
    80005438:	00b52633          	slt	a2,a0,a1
    8000543c:	34c13023          	sd	a2,832(sp)
    80005440:	00100693          	li	a3,1
    80005444:	00c68463          	beq	a3,a2,8000544c <inst_379>
    80005448:	bddfa06f          	j	80000024 <rvtest_error>

000000008000544c <inst_379>:
    8000544c:	00200513          	li	a0,2
    80005450:	555555b7          	lui	a1,0x55555
    80005454:	55558593          	addi	a1,a1,1365 # 55555555 <absimmsh+0x49a847a8>
    80005458:	00b59593          	slli	a1,a1,0xb
    8000545c:	2aa58593          	addi	a1,a1,682
    80005460:	00b59593          	slli	a1,a1,0xb
    80005464:	55558593          	addi	a1,a1,1365
    80005468:	00a59593          	slli	a1,a1,0xa
    8000546c:	15658593          	addi	a1,a1,342
    80005470:	00b52633          	slt	a2,a0,a1
    80005474:	34c13423          	sd	a2,840(sp)
    80005478:	00100693          	li	a3,1
    8000547c:	00c68463          	beq	a3,a2,80005484 <inst_380>
    80005480:	ba5fa06f          	j	80000024 <rvtest_error>

0000000080005484 <inst_380>:
    80005484:	00200513          	li	a0,2
    80005488:	aaaab5b7          	lui	a1,0xaaaab
    8000548c:	aaa58593          	addi	a1,a1,-1366 # ffffffffaaaaaaaa <absimm+0xfffffffeefd9cfda>
    80005490:	00b59593          	slli	a1,a1,0xb
    80005494:	55558593          	addi	a1,a1,1365
    80005498:	00b59593          	slli	a1,a1,0xb
    8000549c:	2aa58593          	addi	a1,a1,682
    800054a0:	00a59593          	slli	a1,a1,0xa
    800054a4:	2ab58593          	addi	a1,a1,683
    800054a8:	00b52633          	slt	a2,a0,a1
    800054ac:	34c13823          	sd	a2,848(sp)
    800054b0:	00000693          	li	a3,0
    800054b4:	00c68463          	beq	a3,a2,800054bc <inst_381>
    800054b8:	b6dfa06f          	j	80000024 <rvtest_error>

00000000800054bc <inst_381>:
    800054bc:	00200513          	li	a0,2
    800054c0:	00600593          	li	a1,6
    800054c4:	00b52633          	slt	a2,a0,a1
    800054c8:	34c13c23          	sd	a2,856(sp)
    800054cc:	00100693          	li	a3,1
    800054d0:	00c68463          	beq	a3,a2,800054d8 <inst_382>
    800054d4:	b51fa06f          	j	80000024 <rvtest_error>

00000000800054d8 <inst_382>:
    800054d8:	00200513          	li	a0,2
    800054dc:	333335b7          	lui	a1,0x33333
    800054e0:	33358593          	addi	a1,a1,819 # 33333333 <absimmsh+0x27862586>
    800054e4:	00b59593          	slli	a1,a1,0xb
    800054e8:	19958593          	addi	a1,a1,409
    800054ec:	00b59593          	slli	a1,a1,0xb
    800054f0:	4cc58593          	addi	a1,a1,1228
    800054f4:	00a59593          	slli	a1,a1,0xa
    800054f8:	33458593          	addi	a1,a1,820
    800054fc:	00b52633          	slt	a2,a0,a1
    80005500:	36c13023          	sd	a2,864(sp)
    80005504:	00100693          	li	a3,1
    80005508:	00c68463          	beq	a3,a2,80005510 <inst_383>
    8000550c:	b19fa06f          	j	80000024 <rvtest_error>

0000000080005510 <inst_383>:
    80005510:	00200513          	li	a0,2
    80005514:	666665b7          	lui	a1,0x66666
    80005518:	66658593          	addi	a1,a1,1638 # 66666666 <absimmsh+0x5ab958b9>
    8000551c:	00b59593          	slli	a1,a1,0xb
    80005520:	33358593          	addi	a1,a1,819
    80005524:	00b59593          	slli	a1,a1,0xb
    80005528:	19958593          	addi	a1,a1,409
    8000552c:	00a59593          	slli	a1,a1,0xa
    80005530:	26758593          	addi	a1,a1,615
    80005534:	00b52633          	slt	a2,a0,a1
    80005538:	36c13423          	sd	a2,872(sp)
    8000553c:	00100693          	li	a3,1
    80005540:	00c68463          	beq	a3,a2,80005548 <inst_384>
    80005544:	ae1fa06f          	j	80000024 <rvtest_error>

0000000080005548 <inst_384>:
    80005548:	00200513          	li	a0,2
    8000554c:	000005b7          	lui	a1,0x0
    80005550:	fff58593          	addi	a1,a1,-1
    80005554:	00b59593          	slli	a1,a1,0xb
    80005558:	25758593          	addi	a1,a1,599
    8000555c:	00b59593          	slli	a1,a1,0xb
    80005560:	6c358593          	addi	a1,a1,1731
    80005564:	00a59593          	slli	a1,a1,0xa
    80005568:	0ce58593          	addi	a1,a1,206
    8000556c:	00b52633          	slt	a2,a0,a1
    80005570:	36c13823          	sd	a2,880(sp)
    80005574:	00000693          	li	a3,0
    80005578:	00c68463          	beq	a3,a2,80005580 <inst_385>
    8000557c:	aa9fa06f          	j	80000024 <rvtest_error>

0000000080005580 <inst_385>:
    80005580:	00200513          	li	a0,2
    80005584:	000005b7          	lui	a1,0x0
    80005588:	00058593          	mv	a1,a1
    8000558c:	00b59593          	slli	a1,a1,0xb
    80005590:	5a858593          	addi	a1,a1,1448 # 5a8 <offset+0x118>
    80005594:	00b59593          	slli	a1,a1,0xb
    80005598:	13c58593          	addi	a1,a1,316
    8000559c:	00a59593          	slli	a1,a1,0xa
    800055a0:	33458593          	addi	a1,a1,820
    800055a4:	00b52633          	slt	a2,a0,a1
    800055a8:	36c13c23          	sd	a2,888(sp)
    800055ac:	00100693          	li	a3,1
    800055b0:	00c68463          	beq	a3,a2,800055b8 <inst_386>
    800055b4:	a71fa06f          	j	80000024 <rvtest_error>

00000000800055b8 <inst_386>:
    800055b8:	55555537          	lui	a0,0x55555
    800055bc:	55550513          	addi	a0,a0,1365 # 55555555 <absimmsh+0x49a847a8>
    800055c0:	00b51513          	slli	a0,a0,0xb
    800055c4:	2aa50513          	addi	a0,a0,682
    800055c8:	00b51513          	slli	a0,a0,0xb
    800055cc:	55550513          	addi	a0,a0,1365
    800055d0:	00a51513          	slli	a0,a0,0xa
    800055d4:	15450513          	addi	a0,a0,340
    800055d8:	00300593          	li	a1,3
    800055dc:	00b52633          	slt	a2,a0,a1
    800055e0:	38c13023          	sd	a2,896(sp)
    800055e4:	00000693          	li	a3,0
    800055e8:	00c68463          	beq	a3,a2,800055f0 <inst_387>
    800055ec:	a39fa06f          	j	80000024 <rvtest_error>

00000000800055f0 <inst_387>:
    800055f0:	55555537          	lui	a0,0x55555
    800055f4:	55550513          	addi	a0,a0,1365 # 55555555 <absimmsh+0x49a847a8>
    800055f8:	00b51513          	slli	a0,a0,0xb
    800055fc:	2aa50513          	addi	a0,a0,682
    80005600:	00b51513          	slli	a0,a0,0xb
    80005604:	55550513          	addi	a0,a0,1365
    80005608:	00a51513          	slli	a0,a0,0xa
    8000560c:	15450513          	addi	a0,a0,340
    80005610:	555555b7          	lui	a1,0x55555
    80005614:	55558593          	addi	a1,a1,1365 # 55555555 <absimmsh+0x49a847a8>
    80005618:	00b59593          	slli	a1,a1,0xb
    8000561c:	2aa58593          	addi	a1,a1,682
    80005620:	00b59593          	slli	a1,a1,0xb
    80005624:	55558593          	addi	a1,a1,1365
    80005628:	00a59593          	slli	a1,a1,0xa
    8000562c:	15558593          	addi	a1,a1,341
    80005630:	00b52633          	slt	a2,a0,a1
    80005634:	38c13423          	sd	a2,904(sp)
    80005638:	00100693          	li	a3,1
    8000563c:	00c68463          	beq	a3,a2,80005644 <inst_388>
    80005640:	9e5fa06f          	j	80000024 <rvtest_error>

0000000080005644 <inst_388>:
    80005644:	55555537          	lui	a0,0x55555
    80005648:	55550513          	addi	a0,a0,1365 # 55555555 <absimmsh+0x49a847a8>
    8000564c:	00b51513          	slli	a0,a0,0xb
    80005650:	2aa50513          	addi	a0,a0,682
    80005654:	00b51513          	slli	a0,a0,0xb
    80005658:	55550513          	addi	a0,a0,1365
    8000565c:	00a51513          	slli	a0,a0,0xa
    80005660:	15450513          	addi	a0,a0,340
    80005664:	aaaab5b7          	lui	a1,0xaaaab
    80005668:	aaa58593          	addi	a1,a1,-1366 # ffffffffaaaaaaaa <absimm+0xfffffffeefd9cfda>
    8000566c:	00b59593          	slli	a1,a1,0xb
    80005670:	55558593          	addi	a1,a1,1365
    80005674:	00b59593          	slli	a1,a1,0xb
    80005678:	2aa58593          	addi	a1,a1,682
    8000567c:	00a59593          	slli	a1,a1,0xa
    80005680:	2aa58593          	addi	a1,a1,682
    80005684:	00b52633          	slt	a2,a0,a1
    80005688:	38c13823          	sd	a2,912(sp)
    8000568c:	00000693          	li	a3,0
    80005690:	00c68463          	beq	a3,a2,80005698 <inst_389>
    80005694:	991fa06f          	j	80000024 <rvtest_error>

0000000080005698 <inst_389>:
    80005698:	55555537          	lui	a0,0x55555
    8000569c:	55550513          	addi	a0,a0,1365 # 55555555 <absimmsh+0x49a847a8>
    800056a0:	00b51513          	slli	a0,a0,0xb
    800056a4:	2aa50513          	addi	a0,a0,682
    800056a8:	00b51513          	slli	a0,a0,0xb
    800056ac:	55550513          	addi	a0,a0,1365
    800056b0:	00a51513          	slli	a0,a0,0xa
    800056b4:	15450513          	addi	a0,a0,340
    800056b8:	00500593          	li	a1,5
    800056bc:	00b52633          	slt	a2,a0,a1
    800056c0:	38c13c23          	sd	a2,920(sp)
    800056c4:	00000693          	li	a3,0
    800056c8:	00c68463          	beq	a3,a2,800056d0 <inst_390>
    800056cc:	959fa06f          	j	80000024 <rvtest_error>

00000000800056d0 <inst_390>:
    800056d0:	55555537          	lui	a0,0x55555
    800056d4:	55550513          	addi	a0,a0,1365 # 55555555 <absimmsh+0x49a847a8>
    800056d8:	00b51513          	slli	a0,a0,0xb
    800056dc:	2aa50513          	addi	a0,a0,682
    800056e0:	00b51513          	slli	a0,a0,0xb
    800056e4:	55550513          	addi	a0,a0,1365
    800056e8:	00a51513          	slli	a0,a0,0xa
    800056ec:	15450513          	addi	a0,a0,340
    800056f0:	333335b7          	lui	a1,0x33333
    800056f4:	33358593          	addi	a1,a1,819 # 33333333 <absimmsh+0x27862586>
    800056f8:	00b59593          	slli	a1,a1,0xb
    800056fc:	19958593          	addi	a1,a1,409
    80005700:	00b59593          	slli	a1,a1,0xb
    80005704:	4cc58593          	addi	a1,a1,1228
    80005708:	00a59593          	slli	a1,a1,0xa
    8000570c:	33358593          	addi	a1,a1,819
    80005710:	00b52633          	slt	a2,a0,a1
    80005714:	3ac13023          	sd	a2,928(sp)
    80005718:	00000693          	li	a3,0
    8000571c:	00c68463          	beq	a3,a2,80005724 <inst_391>
    80005720:	905fa06f          	j	80000024 <rvtest_error>

0000000080005724 <inst_391>:
    80005724:	55555537          	lui	a0,0x55555
    80005728:	55550513          	addi	a0,a0,1365 # 55555555 <absimmsh+0x49a847a8>
    8000572c:	00b51513          	slli	a0,a0,0xb
    80005730:	2aa50513          	addi	a0,a0,682
    80005734:	00b51513          	slli	a0,a0,0xb
    80005738:	55550513          	addi	a0,a0,1365
    8000573c:	00a51513          	slli	a0,a0,0xa
    80005740:	15450513          	addi	a0,a0,340
    80005744:	666665b7          	lui	a1,0x66666
    80005748:	66658593          	addi	a1,a1,1638 # 66666666 <absimmsh+0x5ab958b9>
    8000574c:	00b59593          	slli	a1,a1,0xb
    80005750:	33358593          	addi	a1,a1,819
    80005754:	00b59593          	slli	a1,a1,0xb
    80005758:	19958593          	addi	a1,a1,409
    8000575c:	00a59593          	slli	a1,a1,0xa
    80005760:	26658593          	addi	a1,a1,614
    80005764:	00b52633          	slt	a2,a0,a1
    80005768:	3ac13423          	sd	a2,936(sp)
    8000576c:	00100693          	li	a3,1
    80005770:	00c68463          	beq	a3,a2,80005778 <inst_392>
    80005774:	8b1fa06f          	j	80000024 <rvtest_error>

0000000080005778 <inst_392>:
    80005778:	55555537          	lui	a0,0x55555
    8000577c:	55550513          	addi	a0,a0,1365 # 55555555 <absimmsh+0x49a847a8>
    80005780:	00b51513          	slli	a0,a0,0xb
    80005784:	2aa50513          	addi	a0,a0,682
    80005788:	00b51513          	slli	a0,a0,0xb
    8000578c:	55550513          	addi	a0,a0,1365
    80005790:	00a51513          	slli	a0,a0,0xa
    80005794:	15450513          	addi	a0,a0,340
    80005798:	000005b7          	lui	a1,0x0
    8000579c:	fff58593          	addi	a1,a1,-1
    800057a0:	00b59593          	slli	a1,a1,0xb
    800057a4:	25758593          	addi	a1,a1,599
    800057a8:	00b59593          	slli	a1,a1,0xb
    800057ac:	6c358593          	addi	a1,a1,1731
    800057b0:	00a59593          	slli	a1,a1,0xa
    800057b4:	0cd58593          	addi	a1,a1,205
    800057b8:	00b52633          	slt	a2,a0,a1
    800057bc:	3ac13823          	sd	a2,944(sp)
    800057c0:	00000693          	li	a3,0
    800057c4:	00c68463          	beq	a3,a2,800057cc <inst_393>
    800057c8:	85dfa06f          	j	80000024 <rvtest_error>

00000000800057cc <inst_393>:
    800057cc:	55555537          	lui	a0,0x55555
    800057d0:	55550513          	addi	a0,a0,1365 # 55555555 <absimmsh+0x49a847a8>
    800057d4:	00b51513          	slli	a0,a0,0xb
    800057d8:	2aa50513          	addi	a0,a0,682
    800057dc:	00b51513          	slli	a0,a0,0xb
    800057e0:	55550513          	addi	a0,a0,1365
    800057e4:	00a51513          	slli	a0,a0,0xa
    800057e8:	15450513          	addi	a0,a0,340
    800057ec:	000005b7          	lui	a1,0x0
    800057f0:	00058593          	mv	a1,a1
    800057f4:	00b59593          	slli	a1,a1,0xb
    800057f8:	5a858593          	addi	a1,a1,1448 # 5a8 <offset+0x118>
    800057fc:	00b59593          	slli	a1,a1,0xb
    80005800:	13c58593          	addi	a1,a1,316
    80005804:	00a59593          	slli	a1,a1,0xa
    80005808:	33358593          	addi	a1,a1,819
    8000580c:	00b52633          	slt	a2,a0,a1
    80005810:	3ac13c23          	sd	a2,952(sp)
    80005814:	00000693          	li	a3,0
    80005818:	00c68463          	beq	a3,a2,80005820 <inst_394>
    8000581c:	809fa06f          	j	80000024 <rvtest_error>

0000000080005820 <inst_394>:
    80005820:	55555537          	lui	a0,0x55555
    80005824:	55550513          	addi	a0,a0,1365 # 55555555 <absimmsh+0x49a847a8>
    80005828:	00b51513          	slli	a0,a0,0xb
    8000582c:	2aa50513          	addi	a0,a0,682
    80005830:	00b51513          	slli	a0,a0,0xb
    80005834:	55550513          	addi	a0,a0,1365
    80005838:	00a51513          	slli	a0,a0,0xa
    8000583c:	15450513          	addi	a0,a0,340
    80005840:	00200593          	li	a1,2
    80005844:	00b52633          	slt	a2,a0,a1
    80005848:	3cc13023          	sd	a2,960(sp)
    8000584c:	00000693          	li	a3,0
    80005850:	00c68463          	beq	a3,a2,80005858 <inst_395>
    80005854:	fd0fa06f          	j	80000024 <rvtest_error>

0000000080005858 <inst_395>:
    80005858:	55555537          	lui	a0,0x55555
    8000585c:	55550513          	addi	a0,a0,1365 # 55555555 <absimmsh+0x49a847a8>
    80005860:	00b51513          	slli	a0,a0,0xb
    80005864:	2aa50513          	addi	a0,a0,682
    80005868:	00b51513          	slli	a0,a0,0xb
    8000586c:	55550513          	addi	a0,a0,1365
    80005870:	00a51513          	slli	a0,a0,0xa
    80005874:	15450513          	addi	a0,a0,340
    80005878:	555555b7          	lui	a1,0x55555
    8000587c:	55558593          	addi	a1,a1,1365 # 55555555 <absimmsh+0x49a847a8>
    80005880:	00b59593          	slli	a1,a1,0xb
    80005884:	2aa58593          	addi	a1,a1,682
    80005888:	00b59593          	slli	a1,a1,0xb
    8000588c:	55558593          	addi	a1,a1,1365
    80005890:	00a59593          	slli	a1,a1,0xa
    80005894:	15458593          	addi	a1,a1,340
    80005898:	00b52633          	slt	a2,a0,a1
    8000589c:	3cc13423          	sd	a2,968(sp)
    800058a0:	00000693          	li	a3,0
    800058a4:	00c68463          	beq	a3,a2,800058ac <inst_396>
    800058a8:	f7cfa06f          	j	80000024 <rvtest_error>

00000000800058ac <inst_396>:
    800058ac:	55555537          	lui	a0,0x55555
    800058b0:	55550513          	addi	a0,a0,1365 # 55555555 <absimmsh+0x49a847a8>
    800058b4:	00b51513          	slli	a0,a0,0xb
    800058b8:	2aa50513          	addi	a0,a0,682
    800058bc:	00b51513          	slli	a0,a0,0xb
    800058c0:	55550513          	addi	a0,a0,1365
    800058c4:	00a51513          	slli	a0,a0,0xa
    800058c8:	15450513          	addi	a0,a0,340
    800058cc:	00000593          	li	a1,0
    800058d0:	00b52633          	slt	a2,a0,a1
    800058d4:	3cc13823          	sd	a2,976(sp)
    800058d8:	00000693          	li	a3,0
    800058dc:	00c68463          	beq	a3,a2,800058e4 <inst_397>
    800058e0:	f44fa06f          	j	80000024 <rvtest_error>

00000000800058e4 <inst_397>:
    800058e4:	55555537          	lui	a0,0x55555
    800058e8:	55550513          	addi	a0,a0,1365 # 55555555 <absimmsh+0x49a847a8>
    800058ec:	00b51513          	slli	a0,a0,0xb
    800058f0:	2aa50513          	addi	a0,a0,682
    800058f4:	00b51513          	slli	a0,a0,0xb
    800058f8:	55550513          	addi	a0,a0,1365
    800058fc:	00a51513          	slli	a0,a0,0xa
    80005900:	15450513          	addi	a0,a0,340
    80005904:	00400593          	li	a1,4
    80005908:	00b52633          	slt	a2,a0,a1
    8000590c:	3cc13c23          	sd	a2,984(sp)
    80005910:	00000693          	li	a3,0
    80005914:	00c68463          	beq	a3,a2,8000591c <inst_398>
    80005918:	f0cfa06f          	j	80000024 <rvtest_error>

000000008000591c <inst_398>:
    8000591c:	55555537          	lui	a0,0x55555
    80005920:	55550513          	addi	a0,a0,1365 # 55555555 <absimmsh+0x49a847a8>
    80005924:	00b51513          	slli	a0,a0,0xb
    80005928:	2aa50513          	addi	a0,a0,682
    8000592c:	00b51513          	slli	a0,a0,0xb
    80005930:	55550513          	addi	a0,a0,1365
    80005934:	00a51513          	slli	a0,a0,0xa
    80005938:	15450513          	addi	a0,a0,340
    8000593c:	333335b7          	lui	a1,0x33333
    80005940:	33358593          	addi	a1,a1,819 # 33333333 <absimmsh+0x27862586>
    80005944:	00b59593          	slli	a1,a1,0xb
    80005948:	19958593          	addi	a1,a1,409
    8000594c:	00b59593          	slli	a1,a1,0xb
    80005950:	4cc58593          	addi	a1,a1,1228
    80005954:	00a59593          	slli	a1,a1,0xa
    80005958:	33258593          	addi	a1,a1,818
    8000595c:	00b52633          	slt	a2,a0,a1
    80005960:	3ec13023          	sd	a2,992(sp)
    80005964:	00000693          	li	a3,0
    80005968:	00c68463          	beq	a3,a2,80005970 <inst_399>
    8000596c:	eb8fa06f          	j	80000024 <rvtest_error>

0000000080005970 <inst_399>:
    80005970:	55555537          	lui	a0,0x55555
    80005974:	55550513          	addi	a0,a0,1365 # 55555555 <absimmsh+0x49a847a8>
    80005978:	00b51513          	slli	a0,a0,0xb
    8000597c:	2aa50513          	addi	a0,a0,682
    80005980:	00b51513          	slli	a0,a0,0xb
    80005984:	55550513          	addi	a0,a0,1365
    80005988:	00a51513          	slli	a0,a0,0xa
    8000598c:	15450513          	addi	a0,a0,340
    80005990:	666665b7          	lui	a1,0x66666
    80005994:	66658593          	addi	a1,a1,1638 # 66666666 <absimmsh+0x5ab958b9>
    80005998:	00b59593          	slli	a1,a1,0xb
    8000599c:	33358593          	addi	a1,a1,819
    800059a0:	00b59593          	slli	a1,a1,0xb
    800059a4:	19958593          	addi	a1,a1,409
    800059a8:	00a59593          	slli	a1,a1,0xa
    800059ac:	26558593          	addi	a1,a1,613
    800059b0:	00b52633          	slt	a2,a0,a1
    800059b4:	3ec13423          	sd	a2,1000(sp)
    800059b8:	00100693          	li	a3,1
    800059bc:	00c68463          	beq	a3,a2,800059c4 <inst_400>
    800059c0:	e64fa06f          	j	80000024 <rvtest_error>

00000000800059c4 <inst_400>:
    800059c4:	55555537          	lui	a0,0x55555
    800059c8:	55550513          	addi	a0,a0,1365 # 55555555 <absimmsh+0x49a847a8>
    800059cc:	00b51513          	slli	a0,a0,0xb
    800059d0:	2aa50513          	addi	a0,a0,682
    800059d4:	00b51513          	slli	a0,a0,0xb
    800059d8:	55550513          	addi	a0,a0,1365
    800059dc:	00a51513          	slli	a0,a0,0xa
    800059e0:	15450513          	addi	a0,a0,340
    800059e4:	000005b7          	lui	a1,0x0
    800059e8:	00058593          	mv	a1,a1
    800059ec:	00b59593          	slli	a1,a1,0xb
    800059f0:	5a858593          	addi	a1,a1,1448 # 5a8 <offset+0x118>
    800059f4:	00b59593          	slli	a1,a1,0xb
    800059f8:	13c58593          	addi	a1,a1,316
    800059fc:	00a59593          	slli	a1,a1,0xa
    80005a00:	33258593          	addi	a1,a1,818
    80005a04:	00b52633          	slt	a2,a0,a1
    80005a08:	3ec13823          	sd	a2,1008(sp)
    80005a0c:	00000693          	li	a3,0
    80005a10:	00c68463          	beq	a3,a2,80005a18 <inst_401>
    80005a14:	e10fa06f          	j	80000024 <rvtest_error>

0000000080005a18 <inst_401>:
    80005a18:	55555537          	lui	a0,0x55555
    80005a1c:	55550513          	addi	a0,a0,1365 # 55555555 <absimmsh+0x49a847a8>
    80005a20:	00b51513          	slli	a0,a0,0xb
    80005a24:	2aa50513          	addi	a0,a0,682
    80005a28:	00b51513          	slli	a0,a0,0xb
    80005a2c:	55550513          	addi	a0,a0,1365
    80005a30:	00a51513          	slli	a0,a0,0xa
    80005a34:	15450513          	addi	a0,a0,340
    80005a38:	555555b7          	lui	a1,0x55555
    80005a3c:	55558593          	addi	a1,a1,1365 # 55555555 <absimmsh+0x49a847a8>
    80005a40:	00b59593          	slli	a1,a1,0xb
    80005a44:	2aa58593          	addi	a1,a1,682
    80005a48:	00b59593          	slli	a1,a1,0xb
    80005a4c:	55558593          	addi	a1,a1,1365
    80005a50:	00a59593          	slli	a1,a1,0xa
    80005a54:	15658593          	addi	a1,a1,342
    80005a58:	00b52633          	slt	a2,a0,a1
    80005a5c:	3ec13c23          	sd	a2,1016(sp)
    80005a60:	00100693          	li	a3,1
    80005a64:	00c68463          	beq	a3,a2,80005a6c <inst_402>
    80005a68:	dbcfa06f          	j	80000024 <rvtest_error>

0000000080005a6c <inst_402>:
    80005a6c:	55555537          	lui	a0,0x55555
    80005a70:	55550513          	addi	a0,a0,1365 # 55555555 <absimmsh+0x49a847a8>
    80005a74:	00b51513          	slli	a0,a0,0xb
    80005a78:	2aa50513          	addi	a0,a0,682
    80005a7c:	00b51513          	slli	a0,a0,0xb
    80005a80:	55550513          	addi	a0,a0,1365
    80005a84:	00a51513          	slli	a0,a0,0xa
    80005a88:	15450513          	addi	a0,a0,340
    80005a8c:	aaaab5b7          	lui	a1,0xaaaab
    80005a90:	aaa58593          	addi	a1,a1,-1366 # ffffffffaaaaaaaa <absimm+0xfffffffeefd9cfda>
    80005a94:	00b59593          	slli	a1,a1,0xb
    80005a98:	55558593          	addi	a1,a1,1365
    80005a9c:	00b59593          	slli	a1,a1,0xb
    80005aa0:	2aa58593          	addi	a1,a1,682
    80005aa4:	00a59593          	slli	a1,a1,0xa
    80005aa8:	2ab58593          	addi	a1,a1,683
    80005aac:	00b52633          	slt	a2,a0,a1
    80005ab0:	40c13023          	sd	a2,1024(sp)
    80005ab4:	00000693          	li	a3,0
    80005ab8:	00c68463          	beq	a3,a2,80005ac0 <inst_403>
    80005abc:	d68fa06f          	j	80000024 <rvtest_error>

0000000080005ac0 <inst_403>:
    80005ac0:	55555537          	lui	a0,0x55555
    80005ac4:	55550513          	addi	a0,a0,1365 # 55555555 <absimmsh+0x49a847a8>
    80005ac8:	00b51513          	slli	a0,a0,0xb
    80005acc:	2aa50513          	addi	a0,a0,682
    80005ad0:	00b51513          	slli	a0,a0,0xb
    80005ad4:	55550513          	addi	a0,a0,1365
    80005ad8:	00a51513          	slli	a0,a0,0xa
    80005adc:	15450513          	addi	a0,a0,340
    80005ae0:	00600593          	li	a1,6
    80005ae4:	00b52633          	slt	a2,a0,a1
    80005ae8:	40c13423          	sd	a2,1032(sp)
    80005aec:	00000693          	li	a3,0
    80005af0:	00c68463          	beq	a3,a2,80005af8 <inst_404>
    80005af4:	d30fa06f          	j	80000024 <rvtest_error>

0000000080005af8 <inst_404>:
    80005af8:	55555537          	lui	a0,0x55555
    80005afc:	55550513          	addi	a0,a0,1365 # 55555555 <absimmsh+0x49a847a8>
    80005b00:	00b51513          	slli	a0,a0,0xb
    80005b04:	2aa50513          	addi	a0,a0,682
    80005b08:	00b51513          	slli	a0,a0,0xb
    80005b0c:	55550513          	addi	a0,a0,1365
    80005b10:	00a51513          	slli	a0,a0,0xa
    80005b14:	15450513          	addi	a0,a0,340
    80005b18:	333335b7          	lui	a1,0x33333
    80005b1c:	33358593          	addi	a1,a1,819 # 33333333 <absimmsh+0x27862586>
    80005b20:	00b59593          	slli	a1,a1,0xb
    80005b24:	19958593          	addi	a1,a1,409
    80005b28:	00b59593          	slli	a1,a1,0xb
    80005b2c:	4cc58593          	addi	a1,a1,1228
    80005b30:	00a59593          	slli	a1,a1,0xa
    80005b34:	33458593          	addi	a1,a1,820
    80005b38:	00b52633          	slt	a2,a0,a1
    80005b3c:	40c13823          	sd	a2,1040(sp)
    80005b40:	00000693          	li	a3,0
    80005b44:	00c68463          	beq	a3,a2,80005b4c <inst_405>
    80005b48:	cdcfa06f          	j	80000024 <rvtest_error>

0000000080005b4c <inst_405>:
    80005b4c:	55555537          	lui	a0,0x55555
    80005b50:	55550513          	addi	a0,a0,1365 # 55555555 <absimmsh+0x49a847a8>
    80005b54:	00b51513          	slli	a0,a0,0xb
    80005b58:	2aa50513          	addi	a0,a0,682
    80005b5c:	00b51513          	slli	a0,a0,0xb
    80005b60:	55550513          	addi	a0,a0,1365
    80005b64:	00a51513          	slli	a0,a0,0xa
    80005b68:	15450513          	addi	a0,a0,340
    80005b6c:	666665b7          	lui	a1,0x66666
    80005b70:	66658593          	addi	a1,a1,1638 # 66666666 <absimmsh+0x5ab958b9>
    80005b74:	00b59593          	slli	a1,a1,0xb
    80005b78:	33358593          	addi	a1,a1,819
    80005b7c:	00b59593          	slli	a1,a1,0xb
    80005b80:	19958593          	addi	a1,a1,409
    80005b84:	00a59593          	slli	a1,a1,0xa
    80005b88:	26758593          	addi	a1,a1,615
    80005b8c:	00b52633          	slt	a2,a0,a1
    80005b90:	40c13c23          	sd	a2,1048(sp)
    80005b94:	00100693          	li	a3,1
    80005b98:	00c68463          	beq	a3,a2,80005ba0 <inst_406>
    80005b9c:	c88fa06f          	j	80000024 <rvtest_error>

0000000080005ba0 <inst_406>:
    80005ba0:	55555537          	lui	a0,0x55555
    80005ba4:	55550513          	addi	a0,a0,1365 # 55555555 <absimmsh+0x49a847a8>
    80005ba8:	00b51513          	slli	a0,a0,0xb
    80005bac:	2aa50513          	addi	a0,a0,682
    80005bb0:	00b51513          	slli	a0,a0,0xb
    80005bb4:	55550513          	addi	a0,a0,1365
    80005bb8:	00a51513          	slli	a0,a0,0xa
    80005bbc:	15450513          	addi	a0,a0,340
    80005bc0:	000005b7          	lui	a1,0x0
    80005bc4:	fff58593          	addi	a1,a1,-1
    80005bc8:	00b59593          	slli	a1,a1,0xb
    80005bcc:	25758593          	addi	a1,a1,599
    80005bd0:	00b59593          	slli	a1,a1,0xb
    80005bd4:	6c358593          	addi	a1,a1,1731
    80005bd8:	00a59593          	slli	a1,a1,0xa
    80005bdc:	0ce58593          	addi	a1,a1,206
    80005be0:	00b52633          	slt	a2,a0,a1
    80005be4:	42c13023          	sd	a2,1056(sp)
    80005be8:	00000693          	li	a3,0
    80005bec:	00c68463          	beq	a3,a2,80005bf4 <inst_407>
    80005bf0:	c34fa06f          	j	80000024 <rvtest_error>

0000000080005bf4 <inst_407>:
    80005bf4:	55555537          	lui	a0,0x55555
    80005bf8:	55550513          	addi	a0,a0,1365 # 55555555 <absimmsh+0x49a847a8>
    80005bfc:	00b51513          	slli	a0,a0,0xb
    80005c00:	2aa50513          	addi	a0,a0,682
    80005c04:	00b51513          	slli	a0,a0,0xb
    80005c08:	55550513          	addi	a0,a0,1365
    80005c0c:	00a51513          	slli	a0,a0,0xa
    80005c10:	15450513          	addi	a0,a0,340
    80005c14:	000005b7          	lui	a1,0x0
    80005c18:	00058593          	mv	a1,a1
    80005c1c:	00b59593          	slli	a1,a1,0xb
    80005c20:	5a858593          	addi	a1,a1,1448 # 5a8 <offset+0x118>
    80005c24:	00b59593          	slli	a1,a1,0xb
    80005c28:	13c58593          	addi	a1,a1,316
    80005c2c:	00a59593          	slli	a1,a1,0xa
    80005c30:	33458593          	addi	a1,a1,820
    80005c34:	00b52633          	slt	a2,a0,a1
    80005c38:	42c13423          	sd	a2,1064(sp)
    80005c3c:	00000693          	li	a3,0
    80005c40:	00c68463          	beq	a3,a2,80005c48 <inst_408>
    80005c44:	be0fa06f          	j	80000024 <rvtest_error>

0000000080005c48 <inst_408>:
    80005c48:	00000513          	li	a0,0
    80005c4c:	00300593          	li	a1,3
    80005c50:	00b52633          	slt	a2,a0,a1
    80005c54:	42c13823          	sd	a2,1072(sp)
    80005c58:	00100693          	li	a3,1
    80005c5c:	00c68463          	beq	a3,a2,80005c64 <inst_409>
    80005c60:	bc4fa06f          	j	80000024 <rvtest_error>

0000000080005c64 <inst_409>:
    80005c64:	00000513          	li	a0,0
    80005c68:	555555b7          	lui	a1,0x55555
    80005c6c:	55558593          	addi	a1,a1,1365 # 55555555 <absimmsh+0x49a847a8>
    80005c70:	00b59593          	slli	a1,a1,0xb
    80005c74:	2aa58593          	addi	a1,a1,682
    80005c78:	00b59593          	slli	a1,a1,0xb
    80005c7c:	55558593          	addi	a1,a1,1365
    80005c80:	00a59593          	slli	a1,a1,0xa
    80005c84:	15558593          	addi	a1,a1,341
    80005c88:	00b52633          	slt	a2,a0,a1
    80005c8c:	42c13c23          	sd	a2,1080(sp)
    80005c90:	00100693          	li	a3,1
    80005c94:	00c68463          	beq	a3,a2,80005c9c <inst_410>
    80005c98:	b8cfa06f          	j	80000024 <rvtest_error>

0000000080005c9c <inst_410>:
    80005c9c:	00000513          	li	a0,0
    80005ca0:	aaaab5b7          	lui	a1,0xaaaab
    80005ca4:	aaa58593          	addi	a1,a1,-1366 # ffffffffaaaaaaaa <absimm+0xfffffffeefd9cfda>
    80005ca8:	00b59593          	slli	a1,a1,0xb
    80005cac:	55558593          	addi	a1,a1,1365
    80005cb0:	00b59593          	slli	a1,a1,0xb
    80005cb4:	2aa58593          	addi	a1,a1,682
    80005cb8:	00a59593          	slli	a1,a1,0xa
    80005cbc:	2aa58593          	addi	a1,a1,682
    80005cc0:	00b52633          	slt	a2,a0,a1
    80005cc4:	44c13023          	sd	a2,1088(sp)
    80005cc8:	00000693          	li	a3,0
    80005ccc:	00c68463          	beq	a3,a2,80005cd4 <inst_411>
    80005cd0:	b54fa06f          	j	80000024 <rvtest_error>

0000000080005cd4 <inst_411>:
    80005cd4:	00000513          	li	a0,0
    80005cd8:	00500593          	li	a1,5
    80005cdc:	00b52633          	slt	a2,a0,a1
    80005ce0:	44c13423          	sd	a2,1096(sp)
    80005ce4:	00100693          	li	a3,1
    80005ce8:	00c68463          	beq	a3,a2,80005cf0 <inst_412>
    80005cec:	b38fa06f          	j	80000024 <rvtest_error>

0000000080005cf0 <inst_412>:
    80005cf0:	00000513          	li	a0,0
    80005cf4:	333335b7          	lui	a1,0x33333
    80005cf8:	33358593          	addi	a1,a1,819 # 33333333 <absimmsh+0x27862586>
    80005cfc:	00b59593          	slli	a1,a1,0xb
    80005d00:	19958593          	addi	a1,a1,409
    80005d04:	00b59593          	slli	a1,a1,0xb
    80005d08:	4cc58593          	addi	a1,a1,1228
    80005d0c:	00a59593          	slli	a1,a1,0xa
    80005d10:	33358593          	addi	a1,a1,819
    80005d14:	00b52633          	slt	a2,a0,a1
    80005d18:	44c13823          	sd	a2,1104(sp)
    80005d1c:	00100693          	li	a3,1
    80005d20:	00c68463          	beq	a3,a2,80005d28 <inst_413>
    80005d24:	b00fa06f          	j	80000024 <rvtest_error>

0000000080005d28 <inst_413>:
    80005d28:	00000513          	li	a0,0
    80005d2c:	666665b7          	lui	a1,0x66666
    80005d30:	66658593          	addi	a1,a1,1638 # 66666666 <absimmsh+0x5ab958b9>
    80005d34:	00b59593          	slli	a1,a1,0xb
    80005d38:	33358593          	addi	a1,a1,819
    80005d3c:	00b59593          	slli	a1,a1,0xb
    80005d40:	19958593          	addi	a1,a1,409
    80005d44:	00a59593          	slli	a1,a1,0xa
    80005d48:	26658593          	addi	a1,a1,614
    80005d4c:	00b52633          	slt	a2,a0,a1
    80005d50:	44c13c23          	sd	a2,1112(sp)
    80005d54:	00100693          	li	a3,1
    80005d58:	00c68463          	beq	a3,a2,80005d60 <inst_414>
    80005d5c:	ac8fa06f          	j	80000024 <rvtest_error>

0000000080005d60 <inst_414>:
    80005d60:	00000513          	li	a0,0
    80005d64:	000005b7          	lui	a1,0x0
    80005d68:	fff58593          	addi	a1,a1,-1
    80005d6c:	00b59593          	slli	a1,a1,0xb
    80005d70:	25758593          	addi	a1,a1,599
    80005d74:	00b59593          	slli	a1,a1,0xb
    80005d78:	6c358593          	addi	a1,a1,1731
    80005d7c:	00a59593          	slli	a1,a1,0xa
    80005d80:	0cd58593          	addi	a1,a1,205
    80005d84:	00b52633          	slt	a2,a0,a1
    80005d88:	46c13023          	sd	a2,1120(sp)
    80005d8c:	00000693          	li	a3,0
    80005d90:	00c68463          	beq	a3,a2,80005d98 <inst_415>
    80005d94:	a90fa06f          	j	80000024 <rvtest_error>

0000000080005d98 <inst_415>:
    80005d98:	00000513          	li	a0,0
    80005d9c:	000005b7          	lui	a1,0x0
    80005da0:	00058593          	mv	a1,a1
    80005da4:	00b59593          	slli	a1,a1,0xb
    80005da8:	5a858593          	addi	a1,a1,1448 # 5a8 <offset+0x118>
    80005dac:	00b59593          	slli	a1,a1,0xb
    80005db0:	13c58593          	addi	a1,a1,316
    80005db4:	00a59593          	slli	a1,a1,0xa
    80005db8:	33358593          	addi	a1,a1,819
    80005dbc:	00b52633          	slt	a2,a0,a1
    80005dc0:	46c13423          	sd	a2,1128(sp)
    80005dc4:	00100693          	li	a3,1
    80005dc8:	00c68463          	beq	a3,a2,80005dd0 <inst_416>
    80005dcc:	a58fa06f          	j	80000024 <rvtest_error>

0000000080005dd0 <inst_416>:
    80005dd0:	00000513          	li	a0,0
    80005dd4:	00200593          	li	a1,2
    80005dd8:	00b52633          	slt	a2,a0,a1
    80005ddc:	46c13823          	sd	a2,1136(sp)
    80005de0:	00100693          	li	a3,1
    80005de4:	00c68463          	beq	a3,a2,80005dec <inst_417>
    80005de8:	a3cfa06f          	j	80000024 <rvtest_error>

0000000080005dec <inst_417>:
    80005dec:	00000513          	li	a0,0
    80005df0:	000005b7          	lui	a1,0x0
    80005df4:	fff58593          	addi	a1,a1,-1
    80005df8:	00b59593          	slli	a1,a1,0xb
    80005dfc:	25758593          	addi	a1,a1,599
    80005e00:	00b59593          	slli	a1,a1,0xb
    80005e04:	6c358593          	addi	a1,a1,1731
    80005e08:	00a59593          	slli	a1,a1,0xa
    80005e0c:	0ce58593          	addi	a1,a1,206
    80005e10:	00b52633          	slt	a2,a0,a1
    80005e14:	46c13c23          	sd	a2,1144(sp)
    80005e18:	00000693          	li	a3,0
    80005e1c:	00c68463          	beq	a3,a2,80005e24 <inst_418>
    80005e20:	a04fa06f          	j	80000024 <rvtest_error>

0000000080005e24 <inst_418>:
    80005e24:	00000513          	li	a0,0
    80005e28:	000005b7          	lui	a1,0x0
    80005e2c:	00058593          	mv	a1,a1
    80005e30:	00b59593          	slli	a1,a1,0xb
    80005e34:	5a858593          	addi	a1,a1,1448 # 5a8 <offset+0x118>
    80005e38:	00b59593          	slli	a1,a1,0xb
    80005e3c:	13c58593          	addi	a1,a1,316
    80005e40:	00a59593          	slli	a1,a1,0xa
    80005e44:	33458593          	addi	a1,a1,820
    80005e48:	00b52633          	slt	a2,a0,a1
    80005e4c:	48c13023          	sd	a2,1152(sp)
    80005e50:	00100693          	li	a3,1
    80005e54:	00c68463          	beq	a3,a2,80005e5c <inst_419>
    80005e58:	9ccfa06f          	j	80000024 <rvtest_error>

0000000080005e5c <inst_419>:
    80005e5c:	00400513          	li	a0,4
    80005e60:	00300593          	li	a1,3
    80005e64:	00b52633          	slt	a2,a0,a1
    80005e68:	48c13423          	sd	a2,1160(sp)
    80005e6c:	00000693          	li	a3,0
    80005e70:	00c68463          	beq	a3,a2,80005e78 <inst_420>
    80005e74:	9b0fa06f          	j	80000024 <rvtest_error>

0000000080005e78 <inst_420>:
    80005e78:	00400513          	li	a0,4
    80005e7c:	555555b7          	lui	a1,0x55555
    80005e80:	55558593          	addi	a1,a1,1365 # 55555555 <absimmsh+0x49a847a8>
    80005e84:	00b59593          	slli	a1,a1,0xb
    80005e88:	2aa58593          	addi	a1,a1,682
    80005e8c:	00b59593          	slli	a1,a1,0xb
    80005e90:	55558593          	addi	a1,a1,1365
    80005e94:	00a59593          	slli	a1,a1,0xa
    80005e98:	15558593          	addi	a1,a1,341
    80005e9c:	00b52633          	slt	a2,a0,a1
    80005ea0:	48c13823          	sd	a2,1168(sp)
    80005ea4:	00100693          	li	a3,1
    80005ea8:	00c68463          	beq	a3,a2,80005eb0 <inst_421>
    80005eac:	978fa06f          	j	80000024 <rvtest_error>

0000000080005eb0 <inst_421>:
    80005eb0:	00400513          	li	a0,4
    80005eb4:	aaaab5b7          	lui	a1,0xaaaab
    80005eb8:	aaa58593          	addi	a1,a1,-1366 # ffffffffaaaaaaaa <absimm+0xfffffffeefd9cfda>
    80005ebc:	00b59593          	slli	a1,a1,0xb
    80005ec0:	55558593          	addi	a1,a1,1365
    80005ec4:	00b59593          	slli	a1,a1,0xb
    80005ec8:	2aa58593          	addi	a1,a1,682
    80005ecc:	00a59593          	slli	a1,a1,0xa
    80005ed0:	2aa58593          	addi	a1,a1,682
    80005ed4:	00b52633          	slt	a2,a0,a1
    80005ed8:	48c13c23          	sd	a2,1176(sp)
    80005edc:	00000693          	li	a3,0
    80005ee0:	00c68463          	beq	a3,a2,80005ee8 <inst_422>
    80005ee4:	940fa06f          	j	80000024 <rvtest_error>

0000000080005ee8 <inst_422>:
    80005ee8:	00400513          	li	a0,4
    80005eec:	00500593          	li	a1,5
    80005ef0:	00b52633          	slt	a2,a0,a1
    80005ef4:	4ac13023          	sd	a2,1184(sp)
    80005ef8:	00100693          	li	a3,1
    80005efc:	00c68463          	beq	a3,a2,80005f04 <inst_423>
    80005f00:	924fa06f          	j	80000024 <rvtest_error>

0000000080005f04 <inst_423>:
    80005f04:	00400513          	li	a0,4
    80005f08:	333335b7          	lui	a1,0x33333
    80005f0c:	33358593          	addi	a1,a1,819 # 33333333 <absimmsh+0x27862586>
    80005f10:	00b59593          	slli	a1,a1,0xb
    80005f14:	19958593          	addi	a1,a1,409
    80005f18:	00b59593          	slli	a1,a1,0xb
    80005f1c:	4cc58593          	addi	a1,a1,1228
    80005f20:	00a59593          	slli	a1,a1,0xa
    80005f24:	33358593          	addi	a1,a1,819
    80005f28:	00b52633          	slt	a2,a0,a1
    80005f2c:	4ac13423          	sd	a2,1192(sp)
    80005f30:	00100693          	li	a3,1
    80005f34:	00c68463          	beq	a3,a2,80005f3c <inst_424>
    80005f38:	8ecfa06f          	j	80000024 <rvtest_error>

0000000080005f3c <inst_424>:
    80005f3c:	00400513          	li	a0,4
    80005f40:	666665b7          	lui	a1,0x66666
    80005f44:	66658593          	addi	a1,a1,1638 # 66666666 <absimmsh+0x5ab958b9>
    80005f48:	00b59593          	slli	a1,a1,0xb
    80005f4c:	33358593          	addi	a1,a1,819
    80005f50:	00b59593          	slli	a1,a1,0xb
    80005f54:	19958593          	addi	a1,a1,409
    80005f58:	00a59593          	slli	a1,a1,0xa
    80005f5c:	26658593          	addi	a1,a1,614
    80005f60:	00b52633          	slt	a2,a0,a1
    80005f64:	4ac13823          	sd	a2,1200(sp)
    80005f68:	00100693          	li	a3,1
    80005f6c:	00c68463          	beq	a3,a2,80005f74 <inst_425>
    80005f70:	8b4fa06f          	j	80000024 <rvtest_error>

0000000080005f74 <inst_425>:
    80005f74:	00400513          	li	a0,4
    80005f78:	000005b7          	lui	a1,0x0
    80005f7c:	fff58593          	addi	a1,a1,-1
    80005f80:	00b59593          	slli	a1,a1,0xb
    80005f84:	25758593          	addi	a1,a1,599
    80005f88:	00b59593          	slli	a1,a1,0xb
    80005f8c:	6c358593          	addi	a1,a1,1731
    80005f90:	00a59593          	slli	a1,a1,0xa
    80005f94:	0cd58593          	addi	a1,a1,205
    80005f98:	00b52633          	slt	a2,a0,a1
    80005f9c:	4ac13c23          	sd	a2,1208(sp)
    80005fa0:	00000693          	li	a3,0
    80005fa4:	00c68463          	beq	a3,a2,80005fac <inst_426>
    80005fa8:	87cfa06f          	j	80000024 <rvtest_error>

0000000080005fac <inst_426>:
    80005fac:	00400513          	li	a0,4
    80005fb0:	000005b7          	lui	a1,0x0
    80005fb4:	00058593          	mv	a1,a1
    80005fb8:	00b59593          	slli	a1,a1,0xb
    80005fbc:	5a858593          	addi	a1,a1,1448 # 5a8 <offset+0x118>
    80005fc0:	00b59593          	slli	a1,a1,0xb
    80005fc4:	13c58593          	addi	a1,a1,316
    80005fc8:	00a59593          	slli	a1,a1,0xa
    80005fcc:	33358593          	addi	a1,a1,819
    80005fd0:	00b52633          	slt	a2,a0,a1
    80005fd4:	4cc13023          	sd	a2,1216(sp)
    80005fd8:	00100693          	li	a3,1
    80005fdc:	00c68463          	beq	a3,a2,80005fe4 <inst_427>
    80005fe0:	844fa06f          	j	80000024 <rvtest_error>

0000000080005fe4 <inst_427>:
    80005fe4:	00400513          	li	a0,4
    80005fe8:	00200593          	li	a1,2
    80005fec:	00b52633          	slt	a2,a0,a1
    80005ff0:	4cc13423          	sd	a2,1224(sp)
    80005ff4:	00000693          	li	a3,0
    80005ff8:	00c68463          	beq	a3,a2,80006000 <inst_428>
    80005ffc:	828fa06f          	j	80000024 <rvtest_error>

0000000080006000 <inst_428>:
    80006000:	00400513          	li	a0,4
    80006004:	555555b7          	lui	a1,0x55555
    80006008:	55558593          	addi	a1,a1,1365 # 55555555 <absimmsh+0x49a847a8>
    8000600c:	00b59593          	slli	a1,a1,0xb
    80006010:	2aa58593          	addi	a1,a1,682
    80006014:	00b59593          	slli	a1,a1,0xb
    80006018:	55558593          	addi	a1,a1,1365
    8000601c:	00a59593          	slli	a1,a1,0xa
    80006020:	15458593          	addi	a1,a1,340
    80006024:	00b52633          	slt	a2,a0,a1
    80006028:	4cc13823          	sd	a2,1232(sp)
    8000602c:	00100693          	li	a3,1
    80006030:	00c68463          	beq	a3,a2,80006038 <inst_429>
    80006034:	ff1f906f          	j	80000024 <rvtest_error>

0000000080006038 <inst_429>:
    80006038:	00400513          	li	a0,4
    8000603c:	00000593          	li	a1,0
    80006040:	00b52633          	slt	a2,a0,a1
    80006044:	4cc13c23          	sd	a2,1240(sp)
    80006048:	00000693          	li	a3,0
    8000604c:	00c68463          	beq	a3,a2,80006054 <inst_430>
    80006050:	fd5f906f          	j	80000024 <rvtest_error>

0000000080006054 <inst_430>:
    80006054:	00400513          	li	a0,4
    80006058:	00400593          	li	a1,4
    8000605c:	00b52633          	slt	a2,a0,a1
    80006060:	4ec13023          	sd	a2,1248(sp)
    80006064:	00000693          	li	a3,0
    80006068:	00c68463          	beq	a3,a2,80006070 <inst_431>
    8000606c:	fb9f906f          	j	80000024 <rvtest_error>

0000000080006070 <inst_431>:
    80006070:	00400513          	li	a0,4
    80006074:	333335b7          	lui	a1,0x33333
    80006078:	33358593          	addi	a1,a1,819 # 33333333 <absimmsh+0x27862586>
    8000607c:	00b59593          	slli	a1,a1,0xb
    80006080:	19958593          	addi	a1,a1,409
    80006084:	00b59593          	slli	a1,a1,0xb
    80006088:	4cc58593          	addi	a1,a1,1228
    8000608c:	00a59593          	slli	a1,a1,0xa
    80006090:	33258593          	addi	a1,a1,818
    80006094:	00b52633          	slt	a2,a0,a1
    80006098:	4ec13423          	sd	a2,1256(sp)
    8000609c:	00100693          	li	a3,1
    800060a0:	00c68463          	beq	a3,a2,800060a8 <inst_432>
    800060a4:	f81f906f          	j	80000024 <rvtest_error>

00000000800060a8 <inst_432>:
    800060a8:	00400513          	li	a0,4
    800060ac:	666665b7          	lui	a1,0x66666
    800060b0:	66658593          	addi	a1,a1,1638 # 66666666 <absimmsh+0x5ab958b9>
    800060b4:	00b59593          	slli	a1,a1,0xb
    800060b8:	33358593          	addi	a1,a1,819
    800060bc:	00b59593          	slli	a1,a1,0xb
    800060c0:	19958593          	addi	a1,a1,409
    800060c4:	00a59593          	slli	a1,a1,0xa
    800060c8:	26558593          	addi	a1,a1,613
    800060cc:	00b52633          	slt	a2,a0,a1
    800060d0:	4ec13823          	sd	a2,1264(sp)
    800060d4:	00100693          	li	a3,1
    800060d8:	00c68463          	beq	a3,a2,800060e0 <inst_433>
    800060dc:	f49f906f          	j	80000024 <rvtest_error>

00000000800060e0 <inst_433>:
    800060e0:	00400513          	li	a0,4
    800060e4:	000005b7          	lui	a1,0x0
    800060e8:	00058593          	mv	a1,a1
    800060ec:	00b59593          	slli	a1,a1,0xb
    800060f0:	5a858593          	addi	a1,a1,1448 # 5a8 <offset+0x118>
    800060f4:	00b59593          	slli	a1,a1,0xb
    800060f8:	13c58593          	addi	a1,a1,316
    800060fc:	00a59593          	slli	a1,a1,0xa
    80006100:	33258593          	addi	a1,a1,818
    80006104:	00b52633          	slt	a2,a0,a1
    80006108:	4ec13c23          	sd	a2,1272(sp)
    8000610c:	00100693          	li	a3,1
    80006110:	00c68463          	beq	a3,a2,80006118 <inst_434>
    80006114:	f11f906f          	j	80000024 <rvtest_error>

0000000080006118 <inst_434>:
    80006118:	00400513          	li	a0,4
    8000611c:	555555b7          	lui	a1,0x55555
    80006120:	55558593          	addi	a1,a1,1365 # 55555555 <absimmsh+0x49a847a8>
    80006124:	00b59593          	slli	a1,a1,0xb
    80006128:	2aa58593          	addi	a1,a1,682
    8000612c:	00b59593          	slli	a1,a1,0xb
    80006130:	55558593          	addi	a1,a1,1365
    80006134:	00a59593          	slli	a1,a1,0xa
    80006138:	15658593          	addi	a1,a1,342
    8000613c:	00b52633          	slt	a2,a0,a1
    80006140:	50c13023          	sd	a2,1280(sp)
    80006144:	00100693          	li	a3,1
    80006148:	00c68463          	beq	a3,a2,80006150 <inst_435>
    8000614c:	ed9f906f          	j	80000024 <rvtest_error>

0000000080006150 <inst_435>:
    80006150:	00400513          	li	a0,4
    80006154:	aaaab5b7          	lui	a1,0xaaaab
    80006158:	aaa58593          	addi	a1,a1,-1366 # ffffffffaaaaaaaa <absimm+0xfffffffeefd9cfda>
    8000615c:	00b59593          	slli	a1,a1,0xb
    80006160:	55558593          	addi	a1,a1,1365
    80006164:	00b59593          	slli	a1,a1,0xb
    80006168:	2aa58593          	addi	a1,a1,682
    8000616c:	00a59593          	slli	a1,a1,0xa
    80006170:	2ab58593          	addi	a1,a1,683
    80006174:	00b52633          	slt	a2,a0,a1
    80006178:	50c13423          	sd	a2,1288(sp)
    8000617c:	00000693          	li	a3,0
    80006180:	00c68463          	beq	a3,a2,80006188 <inst_436>
    80006184:	ea1f906f          	j	80000024 <rvtest_error>

0000000080006188 <inst_436>:
    80006188:	00400513          	li	a0,4
    8000618c:	00600593          	li	a1,6
    80006190:	00b52633          	slt	a2,a0,a1
    80006194:	50c13823          	sd	a2,1296(sp)
    80006198:	00100693          	li	a3,1
    8000619c:	00c68463          	beq	a3,a2,800061a4 <inst_437>
    800061a0:	e85f906f          	j	80000024 <rvtest_error>

00000000800061a4 <inst_437>:
    800061a4:	00400513          	li	a0,4
    800061a8:	333335b7          	lui	a1,0x33333
    800061ac:	33358593          	addi	a1,a1,819 # 33333333 <absimmsh+0x27862586>
    800061b0:	00b59593          	slli	a1,a1,0xb
    800061b4:	19958593          	addi	a1,a1,409
    800061b8:	00b59593          	slli	a1,a1,0xb
    800061bc:	4cc58593          	addi	a1,a1,1228
    800061c0:	00a59593          	slli	a1,a1,0xa
    800061c4:	33458593          	addi	a1,a1,820
    800061c8:	00b52633          	slt	a2,a0,a1
    800061cc:	50c13c23          	sd	a2,1304(sp)
    800061d0:	00100693          	li	a3,1
    800061d4:	00c68463          	beq	a3,a2,800061dc <inst_438>
    800061d8:	e4df906f          	j	80000024 <rvtest_error>

00000000800061dc <inst_438>:
    800061dc:	00400513          	li	a0,4
    800061e0:	666665b7          	lui	a1,0x66666
    800061e4:	66658593          	addi	a1,a1,1638 # 66666666 <absimmsh+0x5ab958b9>
    800061e8:	00b59593          	slli	a1,a1,0xb
    800061ec:	33358593          	addi	a1,a1,819
    800061f0:	00b59593          	slli	a1,a1,0xb
    800061f4:	19958593          	addi	a1,a1,409
    800061f8:	00a59593          	slli	a1,a1,0xa
    800061fc:	26758593          	addi	a1,a1,615
    80006200:	00b52633          	slt	a2,a0,a1
    80006204:	52c13023          	sd	a2,1312(sp)
    80006208:	00100693          	li	a3,1
    8000620c:	00c68463          	beq	a3,a2,80006214 <inst_439>
    80006210:	e15f906f          	j	80000024 <rvtest_error>

0000000080006214 <inst_439>:
    80006214:	00400513          	li	a0,4
    80006218:	000005b7          	lui	a1,0x0
    8000621c:	fff58593          	addi	a1,a1,-1
    80006220:	00b59593          	slli	a1,a1,0xb
    80006224:	25758593          	addi	a1,a1,599
    80006228:	00b59593          	slli	a1,a1,0xb
    8000622c:	6c358593          	addi	a1,a1,1731
    80006230:	00a59593          	slli	a1,a1,0xa
    80006234:	0ce58593          	addi	a1,a1,206
    80006238:	00b52633          	slt	a2,a0,a1
    8000623c:	52c13423          	sd	a2,1320(sp)
    80006240:	00000693          	li	a3,0
    80006244:	00c68463          	beq	a3,a2,8000624c <inst_440>
    80006248:	dddf906f          	j	80000024 <rvtest_error>

000000008000624c <inst_440>:
    8000624c:	00400513          	li	a0,4
    80006250:	000005b7          	lui	a1,0x0
    80006254:	00058593          	mv	a1,a1
    80006258:	00b59593          	slli	a1,a1,0xb
    8000625c:	5a858593          	addi	a1,a1,1448 # 5a8 <offset+0x118>
    80006260:	00b59593          	slli	a1,a1,0xb
    80006264:	13c58593          	addi	a1,a1,316
    80006268:	00a59593          	slli	a1,a1,0xa
    8000626c:	33458593          	addi	a1,a1,820
    80006270:	00b52633          	slt	a2,a0,a1
    80006274:	52c13823          	sd	a2,1328(sp)
    80006278:	00100693          	li	a3,1
    8000627c:	00c68463          	beq	a3,a2,80006284 <inst_441>
    80006280:	da5f906f          	j	80000024 <rvtest_error>

0000000080006284 <inst_441>:
    80006284:	33333537          	lui	a0,0x33333
    80006288:	33350513          	addi	a0,a0,819 # 33333333 <absimmsh+0x27862586>
    8000628c:	00b51513          	slli	a0,a0,0xb
    80006290:	19950513          	addi	a0,a0,409
    80006294:	00b51513          	slli	a0,a0,0xb
    80006298:	4cc50513          	addi	a0,a0,1228
    8000629c:	00a51513          	slli	a0,a0,0xa
    800062a0:	33250513          	addi	a0,a0,818
    800062a4:	00300593          	li	a1,3
    800062a8:	00b52633          	slt	a2,a0,a1
    800062ac:	52c13c23          	sd	a2,1336(sp)
    800062b0:	00000693          	li	a3,0
    800062b4:	00c68463          	beq	a3,a2,800062bc <inst_442>
    800062b8:	d6df906f          	j	80000024 <rvtest_error>

00000000800062bc <inst_442>:
    800062bc:	33333537          	lui	a0,0x33333
    800062c0:	33350513          	addi	a0,a0,819 # 33333333 <absimmsh+0x27862586>
    800062c4:	00b51513          	slli	a0,a0,0xb
    800062c8:	19950513          	addi	a0,a0,409
    800062cc:	00b51513          	slli	a0,a0,0xb
    800062d0:	4cc50513          	addi	a0,a0,1228
    800062d4:	00a51513          	slli	a0,a0,0xa
    800062d8:	33250513          	addi	a0,a0,818
    800062dc:	555555b7          	lui	a1,0x55555
    800062e0:	55558593          	addi	a1,a1,1365 # 55555555 <absimmsh+0x49a847a8>
    800062e4:	00b59593          	slli	a1,a1,0xb
    800062e8:	2aa58593          	addi	a1,a1,682
    800062ec:	00b59593          	slli	a1,a1,0xb
    800062f0:	55558593          	addi	a1,a1,1365
    800062f4:	00a59593          	slli	a1,a1,0xa
    800062f8:	15558593          	addi	a1,a1,341
    800062fc:	00b52633          	slt	a2,a0,a1
    80006300:	54c13023          	sd	a2,1344(sp)
    80006304:	00100693          	li	a3,1
    80006308:	00c68463          	beq	a3,a2,80006310 <inst_443>
    8000630c:	d19f906f          	j	80000024 <rvtest_error>

0000000080006310 <inst_443>:
    80006310:	33333537          	lui	a0,0x33333
    80006314:	33350513          	addi	a0,a0,819 # 33333333 <absimmsh+0x27862586>
    80006318:	00b51513          	slli	a0,a0,0xb
    8000631c:	19950513          	addi	a0,a0,409
    80006320:	00b51513          	slli	a0,a0,0xb
    80006324:	4cc50513          	addi	a0,a0,1228
    80006328:	00a51513          	slli	a0,a0,0xa
    8000632c:	33250513          	addi	a0,a0,818
    80006330:	aaaab5b7          	lui	a1,0xaaaab
    80006334:	aaa58593          	addi	a1,a1,-1366 # ffffffffaaaaaaaa <absimm+0xfffffffeefd9cfda>
    80006338:	00b59593          	slli	a1,a1,0xb
    8000633c:	55558593          	addi	a1,a1,1365
    80006340:	00b59593          	slli	a1,a1,0xb
    80006344:	2aa58593          	addi	a1,a1,682
    80006348:	00a59593          	slli	a1,a1,0xa
    8000634c:	2aa58593          	addi	a1,a1,682
    80006350:	00b52633          	slt	a2,a0,a1
    80006354:	54c13423          	sd	a2,1352(sp)
    80006358:	00000693          	li	a3,0
    8000635c:	00c68463          	beq	a3,a2,80006364 <inst_444>
    80006360:	cc5f906f          	j	80000024 <rvtest_error>

0000000080006364 <inst_444>:
    80006364:	33333537          	lui	a0,0x33333
    80006368:	33350513          	addi	a0,a0,819 # 33333333 <absimmsh+0x27862586>
    8000636c:	00b51513          	slli	a0,a0,0xb
    80006370:	19950513          	addi	a0,a0,409
    80006374:	00b51513          	slli	a0,a0,0xb
    80006378:	4cc50513          	addi	a0,a0,1228
    8000637c:	00a51513          	slli	a0,a0,0xa
    80006380:	33250513          	addi	a0,a0,818
    80006384:	00500593          	li	a1,5
    80006388:	00b52633          	slt	a2,a0,a1
    8000638c:	54c13823          	sd	a2,1360(sp)
    80006390:	00000693          	li	a3,0
    80006394:	00c68463          	beq	a3,a2,8000639c <inst_445>
    80006398:	c8df906f          	j	80000024 <rvtest_error>

000000008000639c <inst_445>:
    8000639c:	33333537          	lui	a0,0x33333
    800063a0:	33350513          	addi	a0,a0,819 # 33333333 <absimmsh+0x27862586>
    800063a4:	00b51513          	slli	a0,a0,0xb
    800063a8:	19950513          	addi	a0,a0,409
    800063ac:	00b51513          	slli	a0,a0,0xb
    800063b0:	4cc50513          	addi	a0,a0,1228
    800063b4:	00a51513          	slli	a0,a0,0xa
    800063b8:	33250513          	addi	a0,a0,818
    800063bc:	333335b7          	lui	a1,0x33333
    800063c0:	33358593          	addi	a1,a1,819 # 33333333 <absimmsh+0x27862586>
    800063c4:	00b59593          	slli	a1,a1,0xb
    800063c8:	19958593          	addi	a1,a1,409
    800063cc:	00b59593          	slli	a1,a1,0xb
    800063d0:	4cc58593          	addi	a1,a1,1228
    800063d4:	00a59593          	slli	a1,a1,0xa
    800063d8:	33358593          	addi	a1,a1,819
    800063dc:	00b52633          	slt	a2,a0,a1
    800063e0:	54c13c23          	sd	a2,1368(sp)
    800063e4:	00100693          	li	a3,1
    800063e8:	00c68463          	beq	a3,a2,800063f0 <inst_446>
    800063ec:	c39f906f          	j	80000024 <rvtest_error>

00000000800063f0 <inst_446>:
    800063f0:	33333537          	lui	a0,0x33333
    800063f4:	33350513          	addi	a0,a0,819 # 33333333 <absimmsh+0x27862586>
    800063f8:	00b51513          	slli	a0,a0,0xb
    800063fc:	19950513          	addi	a0,a0,409
    80006400:	00b51513          	slli	a0,a0,0xb
    80006404:	4cc50513          	addi	a0,a0,1228
    80006408:	00a51513          	slli	a0,a0,0xa
    8000640c:	33250513          	addi	a0,a0,818
    80006410:	666665b7          	lui	a1,0x66666
    80006414:	66658593          	addi	a1,a1,1638 # 66666666 <absimmsh+0x5ab958b9>
    80006418:	00b59593          	slli	a1,a1,0xb
    8000641c:	33358593          	addi	a1,a1,819
    80006420:	00b59593          	slli	a1,a1,0xb
    80006424:	19958593          	addi	a1,a1,409
    80006428:	00a59593          	slli	a1,a1,0xa
    8000642c:	26658593          	addi	a1,a1,614
    80006430:	00b52633          	slt	a2,a0,a1
    80006434:	56c13023          	sd	a2,1376(sp)
    80006438:	00100693          	li	a3,1
    8000643c:	00c68463          	beq	a3,a2,80006444 <inst_447>
    80006440:	be5f906f          	j	80000024 <rvtest_error>

0000000080006444 <inst_447>:
    80006444:	33333537          	lui	a0,0x33333
    80006448:	33350513          	addi	a0,a0,819 # 33333333 <absimmsh+0x27862586>
    8000644c:	00b51513          	slli	a0,a0,0xb
    80006450:	19950513          	addi	a0,a0,409
    80006454:	00b51513          	slli	a0,a0,0xb
    80006458:	4cc50513          	addi	a0,a0,1228
    8000645c:	00a51513          	slli	a0,a0,0xa
    80006460:	33250513          	addi	a0,a0,818
    80006464:	000005b7          	lui	a1,0x0
    80006468:	fff58593          	addi	a1,a1,-1
    8000646c:	00b59593          	slli	a1,a1,0xb
    80006470:	25758593          	addi	a1,a1,599
    80006474:	00b59593          	slli	a1,a1,0xb
    80006478:	6c358593          	addi	a1,a1,1731
    8000647c:	00a59593          	slli	a1,a1,0xa
    80006480:	0cd58593          	addi	a1,a1,205
    80006484:	00b52633          	slt	a2,a0,a1
    80006488:	56c13423          	sd	a2,1384(sp)
    8000648c:	00000693          	li	a3,0
    80006490:	00c68463          	beq	a3,a2,80006498 <inst_448>
    80006494:	b91f906f          	j	80000024 <rvtest_error>

0000000080006498 <inst_448>:
    80006498:	33333537          	lui	a0,0x33333
    8000649c:	33350513          	addi	a0,a0,819 # 33333333 <absimmsh+0x27862586>
    800064a0:	00b51513          	slli	a0,a0,0xb
    800064a4:	19950513          	addi	a0,a0,409
    800064a8:	00b51513          	slli	a0,a0,0xb
    800064ac:	4cc50513          	addi	a0,a0,1228
    800064b0:	00a51513          	slli	a0,a0,0xa
    800064b4:	33250513          	addi	a0,a0,818
    800064b8:	000005b7          	lui	a1,0x0
    800064bc:	00058593          	mv	a1,a1
    800064c0:	00b59593          	slli	a1,a1,0xb
    800064c4:	5a858593          	addi	a1,a1,1448 # 5a8 <offset+0x118>
    800064c8:	00b59593          	slli	a1,a1,0xb
    800064cc:	13c58593          	addi	a1,a1,316
    800064d0:	00a59593          	slli	a1,a1,0xa
    800064d4:	33358593          	addi	a1,a1,819
    800064d8:	00b52633          	slt	a2,a0,a1
    800064dc:	56c13823          	sd	a2,1392(sp)
    800064e0:	00000693          	li	a3,0
    800064e4:	00c68463          	beq	a3,a2,800064ec <inst_449>
    800064e8:	b3df906f          	j	80000024 <rvtest_error>

00000000800064ec <inst_449>:
    800064ec:	33333537          	lui	a0,0x33333
    800064f0:	33350513          	addi	a0,a0,819 # 33333333 <absimmsh+0x27862586>
    800064f4:	00b51513          	slli	a0,a0,0xb
    800064f8:	19950513          	addi	a0,a0,409
    800064fc:	00b51513          	slli	a0,a0,0xb
    80006500:	4cc50513          	addi	a0,a0,1228
    80006504:	00a51513          	slli	a0,a0,0xa
    80006508:	33250513          	addi	a0,a0,818
    8000650c:	00200593          	li	a1,2
    80006510:	00b52633          	slt	a2,a0,a1
    80006514:	56c13c23          	sd	a2,1400(sp)
    80006518:	00000693          	li	a3,0
    8000651c:	00c68463          	beq	a3,a2,80006524 <inst_450>
    80006520:	b05f906f          	j	80000024 <rvtest_error>

0000000080006524 <inst_450>:
    80006524:	33333537          	lui	a0,0x33333
    80006528:	33350513          	addi	a0,a0,819 # 33333333 <absimmsh+0x27862586>
    8000652c:	00b51513          	slli	a0,a0,0xb
    80006530:	19950513          	addi	a0,a0,409
    80006534:	00b51513          	slli	a0,a0,0xb
    80006538:	4cc50513          	addi	a0,a0,1228
    8000653c:	00a51513          	slli	a0,a0,0xa
    80006540:	33250513          	addi	a0,a0,818
    80006544:	555555b7          	lui	a1,0x55555
    80006548:	55558593          	addi	a1,a1,1365 # 55555555 <absimmsh+0x49a847a8>
    8000654c:	00b59593          	slli	a1,a1,0xb
    80006550:	2aa58593          	addi	a1,a1,682
    80006554:	00b59593          	slli	a1,a1,0xb
    80006558:	55558593          	addi	a1,a1,1365
    8000655c:	00a59593          	slli	a1,a1,0xa
    80006560:	15458593          	addi	a1,a1,340
    80006564:	00b52633          	slt	a2,a0,a1
    80006568:	58c13023          	sd	a2,1408(sp)
    8000656c:	00100693          	li	a3,1
    80006570:	00c68463          	beq	a3,a2,80006578 <inst_451>
    80006574:	ab1f906f          	j	80000024 <rvtest_error>

0000000080006578 <inst_451>:
    80006578:	33333537          	lui	a0,0x33333
    8000657c:	33350513          	addi	a0,a0,819 # 33333333 <absimmsh+0x27862586>
    80006580:	00b51513          	slli	a0,a0,0xb
    80006584:	19950513          	addi	a0,a0,409
    80006588:	00b51513          	slli	a0,a0,0xb
    8000658c:	4cc50513          	addi	a0,a0,1228
    80006590:	00a51513          	slli	a0,a0,0xa
    80006594:	33250513          	addi	a0,a0,818
    80006598:	00000593          	li	a1,0
    8000659c:	00b52633          	slt	a2,a0,a1
    800065a0:	58c13423          	sd	a2,1416(sp)
    800065a4:	00000693          	li	a3,0
    800065a8:	00c68463          	beq	a3,a2,800065b0 <inst_452>
    800065ac:	a79f906f          	j	80000024 <rvtest_error>

00000000800065b0 <inst_452>:
    800065b0:	33333537          	lui	a0,0x33333
    800065b4:	33350513          	addi	a0,a0,819 # 33333333 <absimmsh+0x27862586>
    800065b8:	00b51513          	slli	a0,a0,0xb
    800065bc:	19950513          	addi	a0,a0,409
    800065c0:	00b51513          	slli	a0,a0,0xb
    800065c4:	4cc50513          	addi	a0,a0,1228
    800065c8:	00a51513          	slli	a0,a0,0xa
    800065cc:	33250513          	addi	a0,a0,818
    800065d0:	00400593          	li	a1,4
    800065d4:	00b52633          	slt	a2,a0,a1
    800065d8:	58c13823          	sd	a2,1424(sp)
    800065dc:	00000693          	li	a3,0
    800065e0:	00c68463          	beq	a3,a2,800065e8 <inst_453>
    800065e4:	a41f906f          	j	80000024 <rvtest_error>

00000000800065e8 <inst_453>:
    800065e8:	33333537          	lui	a0,0x33333
    800065ec:	33350513          	addi	a0,a0,819 # 33333333 <absimmsh+0x27862586>
    800065f0:	00b51513          	slli	a0,a0,0xb
    800065f4:	19950513          	addi	a0,a0,409
    800065f8:	00b51513          	slli	a0,a0,0xb
    800065fc:	4cc50513          	addi	a0,a0,1228
    80006600:	00a51513          	slli	a0,a0,0xa
    80006604:	33250513          	addi	a0,a0,818
    80006608:	333335b7          	lui	a1,0x33333
    8000660c:	33358593          	addi	a1,a1,819 # 33333333 <absimmsh+0x27862586>
    80006610:	00b59593          	slli	a1,a1,0xb
    80006614:	19958593          	addi	a1,a1,409
    80006618:	00b59593          	slli	a1,a1,0xb
    8000661c:	4cc58593          	addi	a1,a1,1228
    80006620:	00a59593          	slli	a1,a1,0xa
    80006624:	33258593          	addi	a1,a1,818
    80006628:	00b52633          	slt	a2,a0,a1
    8000662c:	58c13c23          	sd	a2,1432(sp)
    80006630:	00000693          	li	a3,0
    80006634:	00c68463          	beq	a3,a2,8000663c <inst_454>
    80006638:	9edf906f          	j	80000024 <rvtest_error>

000000008000663c <inst_454>:
    8000663c:	33333537          	lui	a0,0x33333
    80006640:	33350513          	addi	a0,a0,819 # 33333333 <absimmsh+0x27862586>
    80006644:	00b51513          	slli	a0,a0,0xb
    80006648:	19950513          	addi	a0,a0,409
    8000664c:	00b51513          	slli	a0,a0,0xb
    80006650:	4cc50513          	addi	a0,a0,1228
    80006654:	00a51513          	slli	a0,a0,0xa
    80006658:	33250513          	addi	a0,a0,818
    8000665c:	666665b7          	lui	a1,0x66666
    80006660:	66658593          	addi	a1,a1,1638 # 66666666 <absimmsh+0x5ab958b9>
    80006664:	00b59593          	slli	a1,a1,0xb
    80006668:	33358593          	addi	a1,a1,819
    8000666c:	00b59593          	slli	a1,a1,0xb
    80006670:	19958593          	addi	a1,a1,409
    80006674:	00a59593          	slli	a1,a1,0xa
    80006678:	26558593          	addi	a1,a1,613
    8000667c:	00b52633          	slt	a2,a0,a1
    80006680:	5ac13023          	sd	a2,1440(sp)
    80006684:	00100693          	li	a3,1
    80006688:	00c68463          	beq	a3,a2,80006690 <inst_455>
    8000668c:	999f906f          	j	80000024 <rvtest_error>

0000000080006690 <inst_455>:
    80006690:	33333537          	lui	a0,0x33333
    80006694:	33350513          	addi	a0,a0,819 # 33333333 <absimmsh+0x27862586>
    80006698:	00b51513          	slli	a0,a0,0xb
    8000669c:	19950513          	addi	a0,a0,409
    800066a0:	00b51513          	slli	a0,a0,0xb
    800066a4:	4cc50513          	addi	a0,a0,1228
    800066a8:	00a51513          	slli	a0,a0,0xa
    800066ac:	33250513          	addi	a0,a0,818
    800066b0:	000005b7          	lui	a1,0x0
    800066b4:	00058593          	mv	a1,a1
    800066b8:	00b59593          	slli	a1,a1,0xb
    800066bc:	5a858593          	addi	a1,a1,1448 # 5a8 <offset+0x118>
    800066c0:	00b59593          	slli	a1,a1,0xb
    800066c4:	13c58593          	addi	a1,a1,316
    800066c8:	00a59593          	slli	a1,a1,0xa
    800066cc:	33258593          	addi	a1,a1,818
    800066d0:	00b52633          	slt	a2,a0,a1
    800066d4:	5ac13423          	sd	a2,1448(sp)
    800066d8:	00000693          	li	a3,0
    800066dc:	00c68463          	beq	a3,a2,800066e4 <inst_456>
    800066e0:	945f906f          	j	80000024 <rvtest_error>

00000000800066e4 <inst_456>:
    800066e4:	33333537          	lui	a0,0x33333
    800066e8:	33350513          	addi	a0,a0,819 # 33333333 <absimmsh+0x27862586>
    800066ec:	00b51513          	slli	a0,a0,0xb
    800066f0:	19950513          	addi	a0,a0,409
    800066f4:	00b51513          	slli	a0,a0,0xb
    800066f8:	4cc50513          	addi	a0,a0,1228
    800066fc:	00a51513          	slli	a0,a0,0xa
    80006700:	33250513          	addi	a0,a0,818
    80006704:	555555b7          	lui	a1,0x55555
    80006708:	55558593          	addi	a1,a1,1365 # 55555555 <absimmsh+0x49a847a8>
    8000670c:	00b59593          	slli	a1,a1,0xb
    80006710:	2aa58593          	addi	a1,a1,682
    80006714:	00b59593          	slli	a1,a1,0xb
    80006718:	55558593          	addi	a1,a1,1365
    8000671c:	00a59593          	slli	a1,a1,0xa
    80006720:	15658593          	addi	a1,a1,342
    80006724:	00b52633          	slt	a2,a0,a1
    80006728:	5ac13823          	sd	a2,1456(sp)
    8000672c:	00100693          	li	a3,1
    80006730:	00c68463          	beq	a3,a2,80006738 <inst_457>
    80006734:	8f1f906f          	j	80000024 <rvtest_error>

0000000080006738 <inst_457>:
    80006738:	33333537          	lui	a0,0x33333
    8000673c:	33350513          	addi	a0,a0,819 # 33333333 <absimmsh+0x27862586>
    80006740:	00b51513          	slli	a0,a0,0xb
    80006744:	19950513          	addi	a0,a0,409
    80006748:	00b51513          	slli	a0,a0,0xb
    8000674c:	4cc50513          	addi	a0,a0,1228
    80006750:	00a51513          	slli	a0,a0,0xa
    80006754:	33250513          	addi	a0,a0,818
    80006758:	aaaab5b7          	lui	a1,0xaaaab
    8000675c:	aaa58593          	addi	a1,a1,-1366 # ffffffffaaaaaaaa <absimm+0xfffffffeefd9cfda>
    80006760:	00b59593          	slli	a1,a1,0xb
    80006764:	55558593          	addi	a1,a1,1365
    80006768:	00b59593          	slli	a1,a1,0xb
    8000676c:	2aa58593          	addi	a1,a1,682
    80006770:	00a59593          	slli	a1,a1,0xa
    80006774:	2ab58593          	addi	a1,a1,683
    80006778:	00b52633          	slt	a2,a0,a1
    8000677c:	5ac13c23          	sd	a2,1464(sp)
    80006780:	00000693          	li	a3,0
    80006784:	00c68463          	beq	a3,a2,8000678c <inst_458>
    80006788:	89df906f          	j	80000024 <rvtest_error>

000000008000678c <inst_458>:
    8000678c:	33333537          	lui	a0,0x33333
    80006790:	33350513          	addi	a0,a0,819 # 33333333 <absimmsh+0x27862586>
    80006794:	00b51513          	slli	a0,a0,0xb
    80006798:	19950513          	addi	a0,a0,409
    8000679c:	00b51513          	slli	a0,a0,0xb
    800067a0:	4cc50513          	addi	a0,a0,1228
    800067a4:	00a51513          	slli	a0,a0,0xa
    800067a8:	33250513          	addi	a0,a0,818
    800067ac:	00600593          	li	a1,6
    800067b0:	00b52633          	slt	a2,a0,a1
    800067b4:	5cc13023          	sd	a2,1472(sp)
    800067b8:	00000693          	li	a3,0
    800067bc:	00c68463          	beq	a3,a2,800067c4 <inst_459>
    800067c0:	865f906f          	j	80000024 <rvtest_error>

00000000800067c4 <inst_459>:
    800067c4:	33333537          	lui	a0,0x33333
    800067c8:	33350513          	addi	a0,a0,819 # 33333333 <absimmsh+0x27862586>
    800067cc:	00b51513          	slli	a0,a0,0xb
    800067d0:	19950513          	addi	a0,a0,409
    800067d4:	00b51513          	slli	a0,a0,0xb
    800067d8:	4cc50513          	addi	a0,a0,1228
    800067dc:	00a51513          	slli	a0,a0,0xa
    800067e0:	33250513          	addi	a0,a0,818
    800067e4:	333335b7          	lui	a1,0x33333
    800067e8:	33358593          	addi	a1,a1,819 # 33333333 <absimmsh+0x27862586>
    800067ec:	00b59593          	slli	a1,a1,0xb
    800067f0:	19958593          	addi	a1,a1,409
    800067f4:	00b59593          	slli	a1,a1,0xb
    800067f8:	4cc58593          	addi	a1,a1,1228
    800067fc:	00a59593          	slli	a1,a1,0xa
    80006800:	33458593          	addi	a1,a1,820
    80006804:	00b52633          	slt	a2,a0,a1
    80006808:	5cc13423          	sd	a2,1480(sp)
    8000680c:	00100693          	li	a3,1
    80006810:	00c68463          	beq	a3,a2,80006818 <inst_460>
    80006814:	811f906f          	j	80000024 <rvtest_error>

0000000080006818 <inst_460>:
    80006818:	33333537          	lui	a0,0x33333
    8000681c:	33350513          	addi	a0,a0,819 # 33333333 <absimmsh+0x27862586>
    80006820:	00b51513          	slli	a0,a0,0xb
    80006824:	19950513          	addi	a0,a0,409
    80006828:	00b51513          	slli	a0,a0,0xb
    8000682c:	4cc50513          	addi	a0,a0,1228
    80006830:	00a51513          	slli	a0,a0,0xa
    80006834:	33250513          	addi	a0,a0,818
    80006838:	666665b7          	lui	a1,0x66666
    8000683c:	66658593          	addi	a1,a1,1638 # 66666666 <absimmsh+0x5ab958b9>
    80006840:	00b59593          	slli	a1,a1,0xb
    80006844:	33358593          	addi	a1,a1,819
    80006848:	00b59593          	slli	a1,a1,0xb
    8000684c:	19958593          	addi	a1,a1,409
    80006850:	00a59593          	slli	a1,a1,0xa
    80006854:	26758593          	addi	a1,a1,615
    80006858:	00b52633          	slt	a2,a0,a1
    8000685c:	5cc13823          	sd	a2,1488(sp)
    80006860:	00100693          	li	a3,1
    80006864:	00c68463          	beq	a3,a2,8000686c <inst_461>
    80006868:	fbcf906f          	j	80000024 <rvtest_error>

000000008000686c <inst_461>:
    8000686c:	33333537          	lui	a0,0x33333
    80006870:	33350513          	addi	a0,a0,819 # 33333333 <absimmsh+0x27862586>
    80006874:	00b51513          	slli	a0,a0,0xb
    80006878:	19950513          	addi	a0,a0,409
    8000687c:	00b51513          	slli	a0,a0,0xb
    80006880:	4cc50513          	addi	a0,a0,1228
    80006884:	00a51513          	slli	a0,a0,0xa
    80006888:	33250513          	addi	a0,a0,818
    8000688c:	000005b7          	lui	a1,0x0
    80006890:	fff58593          	addi	a1,a1,-1
    80006894:	00b59593          	slli	a1,a1,0xb
    80006898:	25758593          	addi	a1,a1,599
    8000689c:	00b59593          	slli	a1,a1,0xb
    800068a0:	6c358593          	addi	a1,a1,1731
    800068a4:	00a59593          	slli	a1,a1,0xa
    800068a8:	0ce58593          	addi	a1,a1,206
    800068ac:	00b52633          	slt	a2,a0,a1
    800068b0:	5cc13c23          	sd	a2,1496(sp)
    800068b4:	00000693          	li	a3,0
    800068b8:	00c68463          	beq	a3,a2,800068c0 <inst_462>
    800068bc:	f68f906f          	j	80000024 <rvtest_error>

00000000800068c0 <inst_462>:
    800068c0:	33333537          	lui	a0,0x33333
    800068c4:	33350513          	addi	a0,a0,819 # 33333333 <absimmsh+0x27862586>
    800068c8:	00b51513          	slli	a0,a0,0xb
    800068cc:	19950513          	addi	a0,a0,409
    800068d0:	00b51513          	slli	a0,a0,0xb
    800068d4:	4cc50513          	addi	a0,a0,1228
    800068d8:	00a51513          	slli	a0,a0,0xa
    800068dc:	33250513          	addi	a0,a0,818
    800068e0:	000005b7          	lui	a1,0x0
    800068e4:	00058593          	mv	a1,a1
    800068e8:	00b59593          	slli	a1,a1,0xb
    800068ec:	5a858593          	addi	a1,a1,1448 # 5a8 <offset+0x118>
    800068f0:	00b59593          	slli	a1,a1,0xb
    800068f4:	13c58593          	addi	a1,a1,316
    800068f8:	00a59593          	slli	a1,a1,0xa
    800068fc:	33458593          	addi	a1,a1,820
    80006900:	00b52633          	slt	a2,a0,a1
    80006904:	5ec13023          	sd	a2,1504(sp)
    80006908:	00000693          	li	a3,0
    8000690c:	00c68463          	beq	a3,a2,80006914 <inst_463>
    80006910:	f14f906f          	j	80000024 <rvtest_error>

0000000080006914 <inst_463>:
    80006914:	66666537          	lui	a0,0x66666
    80006918:	66650513          	addi	a0,a0,1638 # 66666666 <absimmsh+0x5ab958b9>
    8000691c:	00b51513          	slli	a0,a0,0xb
    80006920:	33350513          	addi	a0,a0,819
    80006924:	00b51513          	slli	a0,a0,0xb
    80006928:	19950513          	addi	a0,a0,409
    8000692c:	00a51513          	slli	a0,a0,0xa
    80006930:	26550513          	addi	a0,a0,613
    80006934:	00300593          	li	a1,3
    80006938:	00b52633          	slt	a2,a0,a1
    8000693c:	5ec13423          	sd	a2,1512(sp)
    80006940:	00000693          	li	a3,0
    80006944:	00c68463          	beq	a3,a2,8000694c <inst_464>
    80006948:	edcf906f          	j	80000024 <rvtest_error>

000000008000694c <inst_464>:
    8000694c:	66666537          	lui	a0,0x66666
    80006950:	66650513          	addi	a0,a0,1638 # 66666666 <absimmsh+0x5ab958b9>
    80006954:	00b51513          	slli	a0,a0,0xb
    80006958:	33350513          	addi	a0,a0,819
    8000695c:	00b51513          	slli	a0,a0,0xb
    80006960:	19950513          	addi	a0,a0,409
    80006964:	00a51513          	slli	a0,a0,0xa
    80006968:	26550513          	addi	a0,a0,613
    8000696c:	555555b7          	lui	a1,0x55555
    80006970:	55558593          	addi	a1,a1,1365 # 55555555 <absimmsh+0x49a847a8>
    80006974:	00b59593          	slli	a1,a1,0xb
    80006978:	2aa58593          	addi	a1,a1,682
    8000697c:	00b59593          	slli	a1,a1,0xb
    80006980:	55558593          	addi	a1,a1,1365
    80006984:	00a59593          	slli	a1,a1,0xa
    80006988:	15558593          	addi	a1,a1,341
    8000698c:	00b52633          	slt	a2,a0,a1
    80006990:	5ec13823          	sd	a2,1520(sp)
    80006994:	00000693          	li	a3,0
    80006998:	00c68463          	beq	a3,a2,800069a0 <inst_465>
    8000699c:	e88f906f          	j	80000024 <rvtest_error>

00000000800069a0 <inst_465>:
    800069a0:	66666537          	lui	a0,0x66666
    800069a4:	66650513          	addi	a0,a0,1638 # 66666666 <absimmsh+0x5ab958b9>
    800069a8:	00b51513          	slli	a0,a0,0xb
    800069ac:	33350513          	addi	a0,a0,819
    800069b0:	00b51513          	slli	a0,a0,0xb
    800069b4:	19950513          	addi	a0,a0,409
    800069b8:	00a51513          	slli	a0,a0,0xa
    800069bc:	26550513          	addi	a0,a0,613
    800069c0:	aaaab5b7          	lui	a1,0xaaaab
    800069c4:	aaa58593          	addi	a1,a1,-1366 # ffffffffaaaaaaaa <absimm+0xfffffffeefd9cfda>
    800069c8:	00b59593          	slli	a1,a1,0xb
    800069cc:	55558593          	addi	a1,a1,1365
    800069d0:	00b59593          	slli	a1,a1,0xb
    800069d4:	2aa58593          	addi	a1,a1,682
    800069d8:	00a59593          	slli	a1,a1,0xa
    800069dc:	2aa58593          	addi	a1,a1,682
    800069e0:	00b52633          	slt	a2,a0,a1
    800069e4:	5ec13c23          	sd	a2,1528(sp)
    800069e8:	00000693          	li	a3,0
    800069ec:	00c68463          	beq	a3,a2,800069f4 <inst_466>
    800069f0:	e34f906f          	j	80000024 <rvtest_error>

00000000800069f4 <inst_466>:
    800069f4:	66666537          	lui	a0,0x66666
    800069f8:	66650513          	addi	a0,a0,1638 # 66666666 <absimmsh+0x5ab958b9>
    800069fc:	00b51513          	slli	a0,a0,0xb
    80006a00:	33350513          	addi	a0,a0,819
    80006a04:	00b51513          	slli	a0,a0,0xb
    80006a08:	19950513          	addi	a0,a0,409
    80006a0c:	00a51513          	slli	a0,a0,0xa
    80006a10:	26550513          	addi	a0,a0,613
    80006a14:	00500593          	li	a1,5
    80006a18:	00b52633          	slt	a2,a0,a1
    80006a1c:	60c13023          	sd	a2,1536(sp)
    80006a20:	00000693          	li	a3,0
    80006a24:	00c68463          	beq	a3,a2,80006a2c <inst_467>
    80006a28:	dfcf906f          	j	80000024 <rvtest_error>

0000000080006a2c <inst_467>:
    80006a2c:	66666537          	lui	a0,0x66666
    80006a30:	66650513          	addi	a0,a0,1638 # 66666666 <absimmsh+0x5ab958b9>
    80006a34:	00b51513          	slli	a0,a0,0xb
    80006a38:	33350513          	addi	a0,a0,819
    80006a3c:	00b51513          	slli	a0,a0,0xb
    80006a40:	19950513          	addi	a0,a0,409
    80006a44:	00a51513          	slli	a0,a0,0xa
    80006a48:	26550513          	addi	a0,a0,613
    80006a4c:	333335b7          	lui	a1,0x33333
    80006a50:	33358593          	addi	a1,a1,819 # 33333333 <absimmsh+0x27862586>
    80006a54:	00b59593          	slli	a1,a1,0xb
    80006a58:	19958593          	addi	a1,a1,409
    80006a5c:	00b59593          	slli	a1,a1,0xb
    80006a60:	4cc58593          	addi	a1,a1,1228
    80006a64:	00a59593          	slli	a1,a1,0xa
    80006a68:	33358593          	addi	a1,a1,819
    80006a6c:	00b52633          	slt	a2,a0,a1
    80006a70:	60c13423          	sd	a2,1544(sp)
    80006a74:	00000693          	li	a3,0
    80006a78:	00c68463          	beq	a3,a2,80006a80 <inst_468>
    80006a7c:	da8f906f          	j	80000024 <rvtest_error>

0000000080006a80 <inst_468>:
    80006a80:	66666537          	lui	a0,0x66666
    80006a84:	66650513          	addi	a0,a0,1638 # 66666666 <absimmsh+0x5ab958b9>
    80006a88:	00b51513          	slli	a0,a0,0xb
    80006a8c:	33350513          	addi	a0,a0,819
    80006a90:	00b51513          	slli	a0,a0,0xb
    80006a94:	19950513          	addi	a0,a0,409
    80006a98:	00a51513          	slli	a0,a0,0xa
    80006a9c:	26550513          	addi	a0,a0,613
    80006aa0:	666665b7          	lui	a1,0x66666
    80006aa4:	66658593          	addi	a1,a1,1638 # 66666666 <absimmsh+0x5ab958b9>
    80006aa8:	00b59593          	slli	a1,a1,0xb
    80006aac:	33358593          	addi	a1,a1,819
    80006ab0:	00b59593          	slli	a1,a1,0xb
    80006ab4:	19958593          	addi	a1,a1,409
    80006ab8:	00a59593          	slli	a1,a1,0xa
    80006abc:	26658593          	addi	a1,a1,614
    80006ac0:	00b52633          	slt	a2,a0,a1
    80006ac4:	60c13823          	sd	a2,1552(sp)
    80006ac8:	00100693          	li	a3,1
    80006acc:	00c68463          	beq	a3,a2,80006ad4 <inst_469>
    80006ad0:	d54f906f          	j	80000024 <rvtest_error>

0000000080006ad4 <inst_469>:
    80006ad4:	66666537          	lui	a0,0x66666
    80006ad8:	66650513          	addi	a0,a0,1638 # 66666666 <absimmsh+0x5ab958b9>
    80006adc:	00b51513          	slli	a0,a0,0xb
    80006ae0:	33350513          	addi	a0,a0,819
    80006ae4:	00b51513          	slli	a0,a0,0xb
    80006ae8:	19950513          	addi	a0,a0,409
    80006aec:	00a51513          	slli	a0,a0,0xa
    80006af0:	26550513          	addi	a0,a0,613
    80006af4:	000005b7          	lui	a1,0x0
    80006af8:	fff58593          	addi	a1,a1,-1
    80006afc:	00b59593          	slli	a1,a1,0xb
    80006b00:	25758593          	addi	a1,a1,599
    80006b04:	00b59593          	slli	a1,a1,0xb
    80006b08:	6c358593          	addi	a1,a1,1731
    80006b0c:	00a59593          	slli	a1,a1,0xa
    80006b10:	0cd58593          	addi	a1,a1,205
    80006b14:	00b52633          	slt	a2,a0,a1
    80006b18:	60c13c23          	sd	a2,1560(sp)
    80006b1c:	00000693          	li	a3,0
    80006b20:	00c68463          	beq	a3,a2,80006b28 <inst_470>
    80006b24:	d00f906f          	j	80000024 <rvtest_error>

0000000080006b28 <inst_470>:
    80006b28:	66666537          	lui	a0,0x66666
    80006b2c:	66650513          	addi	a0,a0,1638 # 66666666 <absimmsh+0x5ab958b9>
    80006b30:	00b51513          	slli	a0,a0,0xb
    80006b34:	33350513          	addi	a0,a0,819
    80006b38:	00b51513          	slli	a0,a0,0xb
    80006b3c:	19950513          	addi	a0,a0,409
    80006b40:	00a51513          	slli	a0,a0,0xa
    80006b44:	26550513          	addi	a0,a0,613
    80006b48:	000005b7          	lui	a1,0x0
    80006b4c:	00058593          	mv	a1,a1
    80006b50:	00b59593          	slli	a1,a1,0xb
    80006b54:	5a858593          	addi	a1,a1,1448 # 5a8 <offset+0x118>
    80006b58:	00b59593          	slli	a1,a1,0xb
    80006b5c:	13c58593          	addi	a1,a1,316
    80006b60:	00a59593          	slli	a1,a1,0xa
    80006b64:	33358593          	addi	a1,a1,819
    80006b68:	00b52633          	slt	a2,a0,a1
    80006b6c:	62c13023          	sd	a2,1568(sp)
    80006b70:	00000693          	li	a3,0
    80006b74:	00c68463          	beq	a3,a2,80006b7c <inst_471>
    80006b78:	cacf906f          	j	80000024 <rvtest_error>

0000000080006b7c <inst_471>:
    80006b7c:	66666537          	lui	a0,0x66666
    80006b80:	66650513          	addi	a0,a0,1638 # 66666666 <absimmsh+0x5ab958b9>
    80006b84:	00b51513          	slli	a0,a0,0xb
    80006b88:	33350513          	addi	a0,a0,819
    80006b8c:	00b51513          	slli	a0,a0,0xb
    80006b90:	19950513          	addi	a0,a0,409
    80006b94:	00a51513          	slli	a0,a0,0xa
    80006b98:	26550513          	addi	a0,a0,613
    80006b9c:	00200593          	li	a1,2
    80006ba0:	00b52633          	slt	a2,a0,a1
    80006ba4:	62c13423          	sd	a2,1576(sp)
    80006ba8:	00000693          	li	a3,0
    80006bac:	00c68463          	beq	a3,a2,80006bb4 <inst_472>
    80006bb0:	c74f906f          	j	80000024 <rvtest_error>

0000000080006bb4 <inst_472>:
    80006bb4:	66666537          	lui	a0,0x66666
    80006bb8:	66650513          	addi	a0,a0,1638 # 66666666 <absimmsh+0x5ab958b9>
    80006bbc:	00b51513          	slli	a0,a0,0xb
    80006bc0:	33350513          	addi	a0,a0,819
    80006bc4:	00b51513          	slli	a0,a0,0xb
    80006bc8:	19950513          	addi	a0,a0,409
    80006bcc:	00a51513          	slli	a0,a0,0xa
    80006bd0:	26550513          	addi	a0,a0,613
    80006bd4:	555555b7          	lui	a1,0x55555
    80006bd8:	55558593          	addi	a1,a1,1365 # 55555555 <absimmsh+0x49a847a8>
    80006bdc:	00b59593          	slli	a1,a1,0xb
    80006be0:	2aa58593          	addi	a1,a1,682
    80006be4:	00b59593          	slli	a1,a1,0xb
    80006be8:	55558593          	addi	a1,a1,1365
    80006bec:	00a59593          	slli	a1,a1,0xa
    80006bf0:	15458593          	addi	a1,a1,340
    80006bf4:	00b52633          	slt	a2,a0,a1
    80006bf8:	62c13823          	sd	a2,1584(sp)
    80006bfc:	00000693          	li	a3,0
    80006c00:	00c68463          	beq	a3,a2,80006c08 <inst_473>
    80006c04:	c20f906f          	j	80000024 <rvtest_error>

0000000080006c08 <inst_473>:
    80006c08:	66666537          	lui	a0,0x66666
    80006c0c:	66650513          	addi	a0,a0,1638 # 66666666 <absimmsh+0x5ab958b9>
    80006c10:	00b51513          	slli	a0,a0,0xb
    80006c14:	33350513          	addi	a0,a0,819
    80006c18:	00b51513          	slli	a0,a0,0xb
    80006c1c:	19950513          	addi	a0,a0,409
    80006c20:	00a51513          	slli	a0,a0,0xa
    80006c24:	26550513          	addi	a0,a0,613
    80006c28:	00000593          	li	a1,0
    80006c2c:	00b52633          	slt	a2,a0,a1
    80006c30:	62c13c23          	sd	a2,1592(sp)
    80006c34:	00000693          	li	a3,0
    80006c38:	00c68463          	beq	a3,a2,80006c40 <inst_474>
    80006c3c:	be8f906f          	j	80000024 <rvtest_error>

0000000080006c40 <inst_474>:
    80006c40:	66666537          	lui	a0,0x66666
    80006c44:	66650513          	addi	a0,a0,1638 # 66666666 <absimmsh+0x5ab958b9>
    80006c48:	00b51513          	slli	a0,a0,0xb
    80006c4c:	33350513          	addi	a0,a0,819
    80006c50:	00b51513          	slli	a0,a0,0xb
    80006c54:	19950513          	addi	a0,a0,409
    80006c58:	00a51513          	slli	a0,a0,0xa
    80006c5c:	26550513          	addi	a0,a0,613
    80006c60:	00400593          	li	a1,4
    80006c64:	00b52633          	slt	a2,a0,a1
    80006c68:	64c13023          	sd	a2,1600(sp)
    80006c6c:	00000693          	li	a3,0
    80006c70:	00c68463          	beq	a3,a2,80006c78 <inst_475>
    80006c74:	bb0f906f          	j	80000024 <rvtest_error>

0000000080006c78 <inst_475>:
    80006c78:	66666537          	lui	a0,0x66666
    80006c7c:	66650513          	addi	a0,a0,1638 # 66666666 <absimmsh+0x5ab958b9>
    80006c80:	00b51513          	slli	a0,a0,0xb
    80006c84:	33350513          	addi	a0,a0,819
    80006c88:	00b51513          	slli	a0,a0,0xb
    80006c8c:	19950513          	addi	a0,a0,409
    80006c90:	00a51513          	slli	a0,a0,0xa
    80006c94:	26550513          	addi	a0,a0,613
    80006c98:	333335b7          	lui	a1,0x33333
    80006c9c:	33358593          	addi	a1,a1,819 # 33333333 <absimmsh+0x27862586>
    80006ca0:	00b59593          	slli	a1,a1,0xb
    80006ca4:	19958593          	addi	a1,a1,409
    80006ca8:	00b59593          	slli	a1,a1,0xb
    80006cac:	4cc58593          	addi	a1,a1,1228
    80006cb0:	00a59593          	slli	a1,a1,0xa
    80006cb4:	33258593          	addi	a1,a1,818
    80006cb8:	00b52633          	slt	a2,a0,a1
    80006cbc:	64c13423          	sd	a2,1608(sp)
    80006cc0:	00000693          	li	a3,0
    80006cc4:	00c68463          	beq	a3,a2,80006ccc <inst_476>
    80006cc8:	b5cf906f          	j	80000024 <rvtest_error>

0000000080006ccc <inst_476>:
    80006ccc:	66666537          	lui	a0,0x66666
    80006cd0:	66650513          	addi	a0,a0,1638 # 66666666 <absimmsh+0x5ab958b9>
    80006cd4:	00b51513          	slli	a0,a0,0xb
    80006cd8:	33350513          	addi	a0,a0,819
    80006cdc:	00b51513          	slli	a0,a0,0xb
    80006ce0:	19950513          	addi	a0,a0,409
    80006ce4:	00a51513          	slli	a0,a0,0xa
    80006ce8:	26550513          	addi	a0,a0,613
    80006cec:	666665b7          	lui	a1,0x66666
    80006cf0:	66658593          	addi	a1,a1,1638 # 66666666 <absimmsh+0x5ab958b9>
    80006cf4:	00b59593          	slli	a1,a1,0xb
    80006cf8:	33358593          	addi	a1,a1,819
    80006cfc:	00b59593          	slli	a1,a1,0xb
    80006d00:	19958593          	addi	a1,a1,409
    80006d04:	00a59593          	slli	a1,a1,0xa
    80006d08:	26558593          	addi	a1,a1,613
    80006d0c:	00b52633          	slt	a2,a0,a1
    80006d10:	64c13823          	sd	a2,1616(sp)
    80006d14:	00000693          	li	a3,0
    80006d18:	00c68463          	beq	a3,a2,80006d20 <inst_477>
    80006d1c:	b08f906f          	j	80000024 <rvtest_error>

0000000080006d20 <inst_477>:
    80006d20:	66666537          	lui	a0,0x66666
    80006d24:	66650513          	addi	a0,a0,1638 # 66666666 <absimmsh+0x5ab958b9>
    80006d28:	00b51513          	slli	a0,a0,0xb
    80006d2c:	33350513          	addi	a0,a0,819
    80006d30:	00b51513          	slli	a0,a0,0xb
    80006d34:	19950513          	addi	a0,a0,409
    80006d38:	00a51513          	slli	a0,a0,0xa
    80006d3c:	26550513          	addi	a0,a0,613
    80006d40:	000005b7          	lui	a1,0x0
    80006d44:	00058593          	mv	a1,a1
    80006d48:	00b59593          	slli	a1,a1,0xb
    80006d4c:	5a858593          	addi	a1,a1,1448 # 5a8 <offset+0x118>
    80006d50:	00b59593          	slli	a1,a1,0xb
    80006d54:	13c58593          	addi	a1,a1,316
    80006d58:	00a59593          	slli	a1,a1,0xa
    80006d5c:	33258593          	addi	a1,a1,818
    80006d60:	00b52633          	slt	a2,a0,a1
    80006d64:	64c13c23          	sd	a2,1624(sp)
    80006d68:	00000693          	li	a3,0
    80006d6c:	00c68463          	beq	a3,a2,80006d74 <inst_478>
    80006d70:	ab4f906f          	j	80000024 <rvtest_error>

0000000080006d74 <inst_478>:
    80006d74:	66666537          	lui	a0,0x66666
    80006d78:	66650513          	addi	a0,a0,1638 # 66666666 <absimmsh+0x5ab958b9>
    80006d7c:	00b51513          	slli	a0,a0,0xb
    80006d80:	33350513          	addi	a0,a0,819
    80006d84:	00b51513          	slli	a0,a0,0xb
    80006d88:	19950513          	addi	a0,a0,409
    80006d8c:	00a51513          	slli	a0,a0,0xa
    80006d90:	26550513          	addi	a0,a0,613
    80006d94:	555555b7          	lui	a1,0x55555
    80006d98:	55558593          	addi	a1,a1,1365 # 55555555 <absimmsh+0x49a847a8>
    80006d9c:	00b59593          	slli	a1,a1,0xb
    80006da0:	2aa58593          	addi	a1,a1,682
    80006da4:	00b59593          	slli	a1,a1,0xb
    80006da8:	55558593          	addi	a1,a1,1365
    80006dac:	00a59593          	slli	a1,a1,0xa
    80006db0:	15658593          	addi	a1,a1,342
    80006db4:	00b52633          	slt	a2,a0,a1
    80006db8:	66c13023          	sd	a2,1632(sp)
    80006dbc:	00000693          	li	a3,0
    80006dc0:	00c68463          	beq	a3,a2,80006dc8 <inst_479>
    80006dc4:	a60f906f          	j	80000024 <rvtest_error>

0000000080006dc8 <inst_479>:
    80006dc8:	66666537          	lui	a0,0x66666
    80006dcc:	66650513          	addi	a0,a0,1638 # 66666666 <absimmsh+0x5ab958b9>
    80006dd0:	00b51513          	slli	a0,a0,0xb
    80006dd4:	33350513          	addi	a0,a0,819
    80006dd8:	00b51513          	slli	a0,a0,0xb
    80006ddc:	19950513          	addi	a0,a0,409
    80006de0:	00a51513          	slli	a0,a0,0xa
    80006de4:	26550513          	addi	a0,a0,613
    80006de8:	aaaab5b7          	lui	a1,0xaaaab
    80006dec:	aaa58593          	addi	a1,a1,-1366 # ffffffffaaaaaaaa <absimm+0xfffffffeefd9cfda>
    80006df0:	00b59593          	slli	a1,a1,0xb
    80006df4:	55558593          	addi	a1,a1,1365
    80006df8:	00b59593          	slli	a1,a1,0xb
    80006dfc:	2aa58593          	addi	a1,a1,682
    80006e00:	00a59593          	slli	a1,a1,0xa
    80006e04:	2ab58593          	addi	a1,a1,683
    80006e08:	00b52633          	slt	a2,a0,a1
    80006e0c:	66c13423          	sd	a2,1640(sp)
    80006e10:	00000693          	li	a3,0
    80006e14:	00c68463          	beq	a3,a2,80006e1c <inst_480>
    80006e18:	a0cf906f          	j	80000024 <rvtest_error>

0000000080006e1c <inst_480>:
    80006e1c:	66666537          	lui	a0,0x66666
    80006e20:	66650513          	addi	a0,a0,1638 # 66666666 <absimmsh+0x5ab958b9>
    80006e24:	00b51513          	slli	a0,a0,0xb
    80006e28:	33350513          	addi	a0,a0,819
    80006e2c:	00b51513          	slli	a0,a0,0xb
    80006e30:	19950513          	addi	a0,a0,409
    80006e34:	00a51513          	slli	a0,a0,0xa
    80006e38:	26550513          	addi	a0,a0,613
    80006e3c:	00600593          	li	a1,6
    80006e40:	00b52633          	slt	a2,a0,a1
    80006e44:	66c13823          	sd	a2,1648(sp)
    80006e48:	00000693          	li	a3,0
    80006e4c:	00c68463          	beq	a3,a2,80006e54 <inst_481>
    80006e50:	9d4f906f          	j	80000024 <rvtest_error>

0000000080006e54 <inst_481>:
    80006e54:	66666537          	lui	a0,0x66666
    80006e58:	66650513          	addi	a0,a0,1638 # 66666666 <absimmsh+0x5ab958b9>
    80006e5c:	00b51513          	slli	a0,a0,0xb
    80006e60:	33350513          	addi	a0,a0,819
    80006e64:	00b51513          	slli	a0,a0,0xb
    80006e68:	19950513          	addi	a0,a0,409
    80006e6c:	00a51513          	slli	a0,a0,0xa
    80006e70:	26550513          	addi	a0,a0,613
    80006e74:	333335b7          	lui	a1,0x33333
    80006e78:	33358593          	addi	a1,a1,819 # 33333333 <absimmsh+0x27862586>
    80006e7c:	00b59593          	slli	a1,a1,0xb
    80006e80:	19958593          	addi	a1,a1,409
    80006e84:	00b59593          	slli	a1,a1,0xb
    80006e88:	4cc58593          	addi	a1,a1,1228
    80006e8c:	00a59593          	slli	a1,a1,0xa
    80006e90:	33458593          	addi	a1,a1,820
    80006e94:	00b52633          	slt	a2,a0,a1
    80006e98:	66c13c23          	sd	a2,1656(sp)
    80006e9c:	00000693          	li	a3,0
    80006ea0:	00c68463          	beq	a3,a2,80006ea8 <inst_482>
    80006ea4:	980f906f          	j	80000024 <rvtest_error>

0000000080006ea8 <inst_482>:
    80006ea8:	66666537          	lui	a0,0x66666
    80006eac:	66650513          	addi	a0,a0,1638 # 66666666 <absimmsh+0x5ab958b9>
    80006eb0:	00b51513          	slli	a0,a0,0xb
    80006eb4:	33350513          	addi	a0,a0,819
    80006eb8:	00b51513          	slli	a0,a0,0xb
    80006ebc:	19950513          	addi	a0,a0,409
    80006ec0:	00a51513          	slli	a0,a0,0xa
    80006ec4:	26550513          	addi	a0,a0,613
    80006ec8:	666665b7          	lui	a1,0x66666
    80006ecc:	66658593          	addi	a1,a1,1638 # 66666666 <absimmsh+0x5ab958b9>
    80006ed0:	00b59593          	slli	a1,a1,0xb
    80006ed4:	33358593          	addi	a1,a1,819
    80006ed8:	00b59593          	slli	a1,a1,0xb
    80006edc:	19958593          	addi	a1,a1,409
    80006ee0:	00a59593          	slli	a1,a1,0xa
    80006ee4:	26758593          	addi	a1,a1,615
    80006ee8:	00b52633          	slt	a2,a0,a1
    80006eec:	68c13023          	sd	a2,1664(sp)
    80006ef0:	00100693          	li	a3,1
    80006ef4:	00c68463          	beq	a3,a2,80006efc <inst_483>
    80006ef8:	92cf906f          	j	80000024 <rvtest_error>

0000000080006efc <inst_483>:
    80006efc:	66666537          	lui	a0,0x66666
    80006f00:	66650513          	addi	a0,a0,1638 # 66666666 <absimmsh+0x5ab958b9>
    80006f04:	00b51513          	slli	a0,a0,0xb
    80006f08:	33350513          	addi	a0,a0,819
    80006f0c:	00b51513          	slli	a0,a0,0xb
    80006f10:	19950513          	addi	a0,a0,409
    80006f14:	00a51513          	slli	a0,a0,0xa
    80006f18:	26550513          	addi	a0,a0,613
    80006f1c:	000005b7          	lui	a1,0x0
    80006f20:	fff58593          	addi	a1,a1,-1
    80006f24:	00b59593          	slli	a1,a1,0xb
    80006f28:	25758593          	addi	a1,a1,599
    80006f2c:	00b59593          	slli	a1,a1,0xb
    80006f30:	6c358593          	addi	a1,a1,1731
    80006f34:	00a59593          	slli	a1,a1,0xa
    80006f38:	0ce58593          	addi	a1,a1,206
    80006f3c:	00b52633          	slt	a2,a0,a1
    80006f40:	68c13423          	sd	a2,1672(sp)
    80006f44:	00000693          	li	a3,0
    80006f48:	00c68463          	beq	a3,a2,80006f50 <inst_484>
    80006f4c:	8d8f906f          	j	80000024 <rvtest_error>

0000000080006f50 <inst_484>:
    80006f50:	66666537          	lui	a0,0x66666
    80006f54:	66650513          	addi	a0,a0,1638 # 66666666 <absimmsh+0x5ab958b9>
    80006f58:	00b51513          	slli	a0,a0,0xb
    80006f5c:	33350513          	addi	a0,a0,819
    80006f60:	00b51513          	slli	a0,a0,0xb
    80006f64:	19950513          	addi	a0,a0,409
    80006f68:	00a51513          	slli	a0,a0,0xa
    80006f6c:	26550513          	addi	a0,a0,613
    80006f70:	000005b7          	lui	a1,0x0
    80006f74:	00058593          	mv	a1,a1
    80006f78:	00b59593          	slli	a1,a1,0xb
    80006f7c:	5a858593          	addi	a1,a1,1448 # 5a8 <offset+0x118>
    80006f80:	00b59593          	slli	a1,a1,0xb
    80006f84:	13c58593          	addi	a1,a1,316
    80006f88:	00a59593          	slli	a1,a1,0xa
    80006f8c:	33458593          	addi	a1,a1,820
    80006f90:	00b52633          	slt	a2,a0,a1
    80006f94:	68c13823          	sd	a2,1680(sp)
    80006f98:	00000693          	li	a3,0
    80006f9c:	00c68463          	beq	a3,a2,80006fa4 <inst_485>
    80006fa0:	884f906f          	j	80000024 <rvtest_error>

0000000080006fa4 <inst_485>:
    80006fa4:	00000537          	lui	a0,0x0
    80006fa8:	00050513          	mv	a0,a0
    80006fac:	00b51513          	slli	a0,a0,0xb
    80006fb0:	5a850513          	addi	a0,a0,1448 # 5a8 <offset+0x118>
    80006fb4:	00b51513          	slli	a0,a0,0xb
    80006fb8:	13c50513          	addi	a0,a0,316
    80006fbc:	00a51513          	slli	a0,a0,0xa
    80006fc0:	33250513          	addi	a0,a0,818
    80006fc4:	00300593          	li	a1,3
    80006fc8:	00b52633          	slt	a2,a0,a1
    80006fcc:	68c13c23          	sd	a2,1688(sp)
    80006fd0:	00000693          	li	a3,0
    80006fd4:	00c68463          	beq	a3,a2,80006fdc <inst_486>
    80006fd8:	84cf906f          	j	80000024 <rvtest_error>

0000000080006fdc <inst_486>:
    80006fdc:	00000537          	lui	a0,0x0
    80006fe0:	00050513          	mv	a0,a0
    80006fe4:	00b51513          	slli	a0,a0,0xb
    80006fe8:	5a850513          	addi	a0,a0,1448 # 5a8 <offset+0x118>
    80006fec:	00b51513          	slli	a0,a0,0xb
    80006ff0:	13c50513          	addi	a0,a0,316
    80006ff4:	00a51513          	slli	a0,a0,0xa
    80006ff8:	33250513          	addi	a0,a0,818
    80006ffc:	555555b7          	lui	a1,0x55555
    80007000:	55558593          	addi	a1,a1,1365 # 55555555 <absimmsh+0x49a847a8>
    80007004:	00b59593          	slli	a1,a1,0xb
    80007008:	2aa58593          	addi	a1,a1,682
    8000700c:	00b59593          	slli	a1,a1,0xb
    80007010:	55558593          	addi	a1,a1,1365
    80007014:	00a59593          	slli	a1,a1,0xa
    80007018:	15558593          	addi	a1,a1,341
    8000701c:	00b52633          	slt	a2,a0,a1
    80007020:	6ac13023          	sd	a2,1696(sp)
    80007024:	00100693          	li	a3,1
    80007028:	00c68463          	beq	a3,a2,80007030 <inst_487>
    8000702c:	ff9f806f          	j	80000024 <rvtest_error>

0000000080007030 <inst_487>:
    80007030:	00000537          	lui	a0,0x0
    80007034:	00050513          	mv	a0,a0
    80007038:	00b51513          	slli	a0,a0,0xb
    8000703c:	5a850513          	addi	a0,a0,1448 # 5a8 <offset+0x118>
    80007040:	00b51513          	slli	a0,a0,0xb
    80007044:	13c50513          	addi	a0,a0,316
    80007048:	00a51513          	slli	a0,a0,0xa
    8000704c:	33250513          	addi	a0,a0,818
    80007050:	aaaab5b7          	lui	a1,0xaaaab
    80007054:	aaa58593          	addi	a1,a1,-1366 # ffffffffaaaaaaaa <absimm+0xfffffffeefd9cfda>
    80007058:	00b59593          	slli	a1,a1,0xb
    8000705c:	55558593          	addi	a1,a1,1365
    80007060:	00b59593          	slli	a1,a1,0xb
    80007064:	2aa58593          	addi	a1,a1,682
    80007068:	00a59593          	slli	a1,a1,0xa
    8000706c:	2aa58593          	addi	a1,a1,682
    80007070:	00b52633          	slt	a2,a0,a1
    80007074:	6ac13423          	sd	a2,1704(sp)
    80007078:	00000693          	li	a3,0
    8000707c:	00c68463          	beq	a3,a2,80007084 <inst_488>
    80007080:	fa5f806f          	j	80000024 <rvtest_error>

0000000080007084 <inst_488>:
    80007084:	00000537          	lui	a0,0x0
    80007088:	00050513          	mv	a0,a0
    8000708c:	00b51513          	slli	a0,a0,0xb
    80007090:	5a850513          	addi	a0,a0,1448 # 5a8 <offset+0x118>
    80007094:	00b51513          	slli	a0,a0,0xb
    80007098:	13c50513          	addi	a0,a0,316
    8000709c:	00a51513          	slli	a0,a0,0xa
    800070a0:	33250513          	addi	a0,a0,818
    800070a4:	00500593          	li	a1,5
    800070a8:	00b52633          	slt	a2,a0,a1
    800070ac:	6ac13823          	sd	a2,1712(sp)
    800070b0:	00000693          	li	a3,0
    800070b4:	00c68463          	beq	a3,a2,800070bc <inst_489>
    800070b8:	f6df806f          	j	80000024 <rvtest_error>

00000000800070bc <inst_489>:
    800070bc:	00000537          	lui	a0,0x0
    800070c0:	00050513          	mv	a0,a0
    800070c4:	00b51513          	slli	a0,a0,0xb
    800070c8:	5a850513          	addi	a0,a0,1448 # 5a8 <offset+0x118>
    800070cc:	00b51513          	slli	a0,a0,0xb
    800070d0:	13c50513          	addi	a0,a0,316
    800070d4:	00a51513          	slli	a0,a0,0xa
    800070d8:	33250513          	addi	a0,a0,818
    800070dc:	333335b7          	lui	a1,0x33333
    800070e0:	33358593          	addi	a1,a1,819 # 33333333 <absimmsh+0x27862586>
    800070e4:	00b59593          	slli	a1,a1,0xb
    800070e8:	19958593          	addi	a1,a1,409
    800070ec:	00b59593          	slli	a1,a1,0xb
    800070f0:	4cc58593          	addi	a1,a1,1228
    800070f4:	00a59593          	slli	a1,a1,0xa
    800070f8:	33358593          	addi	a1,a1,819
    800070fc:	00b52633          	slt	a2,a0,a1
    80007100:	6ac13c23          	sd	a2,1720(sp)
    80007104:	00100693          	li	a3,1
    80007108:	00c68463          	beq	a3,a2,80007110 <inst_490>
    8000710c:	f19f806f          	j	80000024 <rvtest_error>

0000000080007110 <inst_490>:
    80007110:	00000537          	lui	a0,0x0
    80007114:	00050513          	mv	a0,a0
    80007118:	00b51513          	slli	a0,a0,0xb
    8000711c:	5a850513          	addi	a0,a0,1448 # 5a8 <offset+0x118>
    80007120:	00b51513          	slli	a0,a0,0xb
    80007124:	13c50513          	addi	a0,a0,316
    80007128:	00a51513          	slli	a0,a0,0xa
    8000712c:	33250513          	addi	a0,a0,818
    80007130:	666665b7          	lui	a1,0x66666
    80007134:	66658593          	addi	a1,a1,1638 # 66666666 <absimmsh+0x5ab958b9>
    80007138:	00b59593          	slli	a1,a1,0xb
    8000713c:	33358593          	addi	a1,a1,819
    80007140:	00b59593          	slli	a1,a1,0xb
    80007144:	19958593          	addi	a1,a1,409
    80007148:	00a59593          	slli	a1,a1,0xa
    8000714c:	26658593          	addi	a1,a1,614
    80007150:	00b52633          	slt	a2,a0,a1
    80007154:	6cc13023          	sd	a2,1728(sp)
    80007158:	00100693          	li	a3,1
    8000715c:	00c68463          	beq	a3,a2,80007164 <inst_491>
    80007160:	ec5f806f          	j	80000024 <rvtest_error>

0000000080007164 <inst_491>:
    80007164:	00000537          	lui	a0,0x0
    80007168:	00050513          	mv	a0,a0
    8000716c:	00b51513          	slli	a0,a0,0xb
    80007170:	5a850513          	addi	a0,a0,1448 # 5a8 <offset+0x118>
    80007174:	00b51513          	slli	a0,a0,0xb
    80007178:	13c50513          	addi	a0,a0,316
    8000717c:	00a51513          	slli	a0,a0,0xa
    80007180:	33250513          	addi	a0,a0,818
    80007184:	000005b7          	lui	a1,0x0
    80007188:	fff58593          	addi	a1,a1,-1
    8000718c:	00b59593          	slli	a1,a1,0xb
    80007190:	25758593          	addi	a1,a1,599
    80007194:	00b59593          	slli	a1,a1,0xb
    80007198:	6c358593          	addi	a1,a1,1731
    8000719c:	00a59593          	slli	a1,a1,0xa
    800071a0:	0cd58593          	addi	a1,a1,205
    800071a4:	00b52633          	slt	a2,a0,a1
    800071a8:	6cc13423          	sd	a2,1736(sp)
    800071ac:	00000693          	li	a3,0
    800071b0:	00c68463          	beq	a3,a2,800071b8 <inst_492>
    800071b4:	e71f806f          	j	80000024 <rvtest_error>

00000000800071b8 <inst_492>:
    800071b8:	00000537          	lui	a0,0x0
    800071bc:	00050513          	mv	a0,a0
    800071c0:	00b51513          	slli	a0,a0,0xb
    800071c4:	5a850513          	addi	a0,a0,1448 # 5a8 <offset+0x118>
    800071c8:	00b51513          	slli	a0,a0,0xb
    800071cc:	13c50513          	addi	a0,a0,316
    800071d0:	00a51513          	slli	a0,a0,0xa
    800071d4:	33250513          	addi	a0,a0,818
    800071d8:	000005b7          	lui	a1,0x0
    800071dc:	00058593          	mv	a1,a1
    800071e0:	00b59593          	slli	a1,a1,0xb
    800071e4:	5a858593          	addi	a1,a1,1448 # 5a8 <offset+0x118>
    800071e8:	00b59593          	slli	a1,a1,0xb
    800071ec:	13c58593          	addi	a1,a1,316
    800071f0:	00a59593          	slli	a1,a1,0xa
    800071f4:	33358593          	addi	a1,a1,819
    800071f8:	00b52633          	slt	a2,a0,a1
    800071fc:	6cc13823          	sd	a2,1744(sp)
    80007200:	00100693          	li	a3,1
    80007204:	00c68463          	beq	a3,a2,8000720c <inst_493>
    80007208:	e1df806f          	j	80000024 <rvtest_error>

000000008000720c <inst_493>:
    8000720c:	00000537          	lui	a0,0x0
    80007210:	00050513          	mv	a0,a0
    80007214:	00b51513          	slli	a0,a0,0xb
    80007218:	5a850513          	addi	a0,a0,1448 # 5a8 <offset+0x118>
    8000721c:	00b51513          	slli	a0,a0,0xb
    80007220:	13c50513          	addi	a0,a0,316
    80007224:	00a51513          	slli	a0,a0,0xa
    80007228:	33250513          	addi	a0,a0,818
    8000722c:	00200593          	li	a1,2
    80007230:	00b52633          	slt	a2,a0,a1
    80007234:	6cc13c23          	sd	a2,1752(sp)
    80007238:	00000693          	li	a3,0
    8000723c:	00c68463          	beq	a3,a2,80007244 <inst_494>
    80007240:	de5f806f          	j	80000024 <rvtest_error>

0000000080007244 <inst_494>:
    80007244:	00000537          	lui	a0,0x0
    80007248:	00050513          	mv	a0,a0
    8000724c:	00b51513          	slli	a0,a0,0xb
    80007250:	5a850513          	addi	a0,a0,1448 # 5a8 <offset+0x118>
    80007254:	00b51513          	slli	a0,a0,0xb
    80007258:	13c50513          	addi	a0,a0,316
    8000725c:	00a51513          	slli	a0,a0,0xa
    80007260:	33250513          	addi	a0,a0,818
    80007264:	555555b7          	lui	a1,0x55555
    80007268:	55558593          	addi	a1,a1,1365 # 55555555 <absimmsh+0x49a847a8>
    8000726c:	00b59593          	slli	a1,a1,0xb
    80007270:	2aa58593          	addi	a1,a1,682
    80007274:	00b59593          	slli	a1,a1,0xb
    80007278:	55558593          	addi	a1,a1,1365
    8000727c:	00a59593          	slli	a1,a1,0xa
    80007280:	15458593          	addi	a1,a1,340
    80007284:	00b52633          	slt	a2,a0,a1
    80007288:	6ec13023          	sd	a2,1760(sp)
    8000728c:	00100693          	li	a3,1
    80007290:	00c68463          	beq	a3,a2,80007298 <inst_495>
    80007294:	d91f806f          	j	80000024 <rvtest_error>

0000000080007298 <inst_495>:
    80007298:	00000537          	lui	a0,0x0
    8000729c:	00050513          	mv	a0,a0
    800072a0:	00b51513          	slli	a0,a0,0xb
    800072a4:	5a850513          	addi	a0,a0,1448 # 5a8 <offset+0x118>
    800072a8:	00b51513          	slli	a0,a0,0xb
    800072ac:	13c50513          	addi	a0,a0,316
    800072b0:	00a51513          	slli	a0,a0,0xa
    800072b4:	33250513          	addi	a0,a0,818
    800072b8:	00000593          	li	a1,0
    800072bc:	00b52633          	slt	a2,a0,a1
    800072c0:	6ec13423          	sd	a2,1768(sp)
    800072c4:	00000693          	li	a3,0
    800072c8:	00c68463          	beq	a3,a2,800072d0 <inst_496>
    800072cc:	d59f806f          	j	80000024 <rvtest_error>

00000000800072d0 <inst_496>:
    800072d0:	00000537          	lui	a0,0x0
    800072d4:	00050513          	mv	a0,a0
    800072d8:	00b51513          	slli	a0,a0,0xb
    800072dc:	5a850513          	addi	a0,a0,1448 # 5a8 <offset+0x118>
    800072e0:	00b51513          	slli	a0,a0,0xb
    800072e4:	13c50513          	addi	a0,a0,316
    800072e8:	00a51513          	slli	a0,a0,0xa
    800072ec:	33250513          	addi	a0,a0,818
    800072f0:	00400593          	li	a1,4
    800072f4:	00b52633          	slt	a2,a0,a1
    800072f8:	6ec13823          	sd	a2,1776(sp)
    800072fc:	00000693          	li	a3,0
    80007300:	00c68463          	beq	a3,a2,80007308 <inst_497>
    80007304:	d21f806f          	j	80000024 <rvtest_error>

0000000080007308 <inst_497>:
    80007308:	00000537          	lui	a0,0x0
    8000730c:	00050513          	mv	a0,a0
    80007310:	00b51513          	slli	a0,a0,0xb
    80007314:	5a850513          	addi	a0,a0,1448 # 5a8 <offset+0x118>
    80007318:	00b51513          	slli	a0,a0,0xb
    8000731c:	13c50513          	addi	a0,a0,316
    80007320:	00a51513          	slli	a0,a0,0xa
    80007324:	33250513          	addi	a0,a0,818
    80007328:	333335b7          	lui	a1,0x33333
    8000732c:	33358593          	addi	a1,a1,819 # 33333333 <absimmsh+0x27862586>
    80007330:	00b59593          	slli	a1,a1,0xb
    80007334:	19958593          	addi	a1,a1,409
    80007338:	00b59593          	slli	a1,a1,0xb
    8000733c:	4cc58593          	addi	a1,a1,1228
    80007340:	00a59593          	slli	a1,a1,0xa
    80007344:	33258593          	addi	a1,a1,818
    80007348:	00b52633          	slt	a2,a0,a1
    8000734c:	6ec13c23          	sd	a2,1784(sp)
    80007350:	00100693          	li	a3,1
    80007354:	00c68463          	beq	a3,a2,8000735c <inst_498>
    80007358:	ccdf806f          	j	80000024 <rvtest_error>

000000008000735c <inst_498>:
    8000735c:	00000537          	lui	a0,0x0
    80007360:	00050513          	mv	a0,a0
    80007364:	00b51513          	slli	a0,a0,0xb
    80007368:	5a850513          	addi	a0,a0,1448 # 5a8 <offset+0x118>
    8000736c:	00b51513          	slli	a0,a0,0xb
    80007370:	13c50513          	addi	a0,a0,316
    80007374:	00a51513          	slli	a0,a0,0xa
    80007378:	33250513          	addi	a0,a0,818
    8000737c:	666665b7          	lui	a1,0x66666
    80007380:	66658593          	addi	a1,a1,1638 # 66666666 <absimmsh+0x5ab958b9>
    80007384:	00b59593          	slli	a1,a1,0xb
    80007388:	33358593          	addi	a1,a1,819
    8000738c:	00b59593          	slli	a1,a1,0xb
    80007390:	19958593          	addi	a1,a1,409
    80007394:	00a59593          	slli	a1,a1,0xa
    80007398:	26558593          	addi	a1,a1,613
    8000739c:	00b52633          	slt	a2,a0,a1
    800073a0:	70c13023          	sd	a2,1792(sp)
    800073a4:	00100693          	li	a3,1
    800073a8:	00c68463          	beq	a3,a2,800073b0 <inst_499>
    800073ac:	c79f806f          	j	80000024 <rvtest_error>

00000000800073b0 <inst_499>:
    800073b0:	00000537          	lui	a0,0x0
    800073b4:	00050513          	mv	a0,a0
    800073b8:	00b51513          	slli	a0,a0,0xb
    800073bc:	5a850513          	addi	a0,a0,1448 # 5a8 <offset+0x118>
    800073c0:	00b51513          	slli	a0,a0,0xb
    800073c4:	13c50513          	addi	a0,a0,316
    800073c8:	00a51513          	slli	a0,a0,0xa
    800073cc:	33250513          	addi	a0,a0,818
    800073d0:	000005b7          	lui	a1,0x0
    800073d4:	00058593          	mv	a1,a1
    800073d8:	00b59593          	slli	a1,a1,0xb
    800073dc:	5a858593          	addi	a1,a1,1448 # 5a8 <offset+0x118>
    800073e0:	00b59593          	slli	a1,a1,0xb
    800073e4:	13c58593          	addi	a1,a1,316
    800073e8:	00a59593          	slli	a1,a1,0xa
    800073ec:	33258593          	addi	a1,a1,818
    800073f0:	00b52633          	slt	a2,a0,a1
    800073f4:	70c13423          	sd	a2,1800(sp)
    800073f8:	00000693          	li	a3,0
    800073fc:	00c68463          	beq	a3,a2,80007404 <inst_500>
    80007400:	c25f806f          	j	80000024 <rvtest_error>

0000000080007404 <inst_500>:
    80007404:	00000537          	lui	a0,0x0
    80007408:	00050513          	mv	a0,a0
    8000740c:	00b51513          	slli	a0,a0,0xb
    80007410:	5a850513          	addi	a0,a0,1448 # 5a8 <offset+0x118>
    80007414:	00b51513          	slli	a0,a0,0xb
    80007418:	13c50513          	addi	a0,a0,316
    8000741c:	00a51513          	slli	a0,a0,0xa
    80007420:	33250513          	addi	a0,a0,818
    80007424:	555555b7          	lui	a1,0x55555
    80007428:	55558593          	addi	a1,a1,1365 # 55555555 <absimmsh+0x49a847a8>
    8000742c:	00b59593          	slli	a1,a1,0xb
    80007430:	2aa58593          	addi	a1,a1,682
    80007434:	00b59593          	slli	a1,a1,0xb
    80007438:	55558593          	addi	a1,a1,1365
    8000743c:	00a59593          	slli	a1,a1,0xa
    80007440:	15658593          	addi	a1,a1,342
    80007444:	00b52633          	slt	a2,a0,a1
    80007448:	70c13823          	sd	a2,1808(sp)
    8000744c:	00100693          	li	a3,1
    80007450:	00c68463          	beq	a3,a2,80007458 <inst_501>
    80007454:	bd1f806f          	j	80000024 <rvtest_error>

0000000080007458 <inst_501>:
    80007458:	00000537          	lui	a0,0x0
    8000745c:	00050513          	mv	a0,a0
    80007460:	00b51513          	slli	a0,a0,0xb
    80007464:	5a850513          	addi	a0,a0,1448 # 5a8 <offset+0x118>
    80007468:	00b51513          	slli	a0,a0,0xb
    8000746c:	13c50513          	addi	a0,a0,316
    80007470:	00a51513          	slli	a0,a0,0xa
    80007474:	33250513          	addi	a0,a0,818
    80007478:	aaaab5b7          	lui	a1,0xaaaab
    8000747c:	aaa58593          	addi	a1,a1,-1366 # ffffffffaaaaaaaa <absimm+0xfffffffeefd9cfda>
    80007480:	00b59593          	slli	a1,a1,0xb
    80007484:	55558593          	addi	a1,a1,1365
    80007488:	00b59593          	slli	a1,a1,0xb
    8000748c:	2aa58593          	addi	a1,a1,682
    80007490:	00a59593          	slli	a1,a1,0xa
    80007494:	2ab58593          	addi	a1,a1,683
    80007498:	00b52633          	slt	a2,a0,a1
    8000749c:	70c13c23          	sd	a2,1816(sp)
    800074a0:	00000693          	li	a3,0
    800074a4:	00c68463          	beq	a3,a2,800074ac <inst_502>
    800074a8:	b7df806f          	j	80000024 <rvtest_error>

00000000800074ac <inst_502>:
    800074ac:	00000537          	lui	a0,0x0
    800074b0:	00050513          	mv	a0,a0
    800074b4:	00b51513          	slli	a0,a0,0xb
    800074b8:	5a850513          	addi	a0,a0,1448 # 5a8 <offset+0x118>
    800074bc:	00b51513          	slli	a0,a0,0xb
    800074c0:	13c50513          	addi	a0,a0,316
    800074c4:	00a51513          	slli	a0,a0,0xa
    800074c8:	33250513          	addi	a0,a0,818
    800074cc:	00600593          	li	a1,6
    800074d0:	00b52633          	slt	a2,a0,a1
    800074d4:	72c13023          	sd	a2,1824(sp)
    800074d8:	00000693          	li	a3,0
    800074dc:	00c68463          	beq	a3,a2,800074e4 <inst_503>
    800074e0:	b45f806f          	j	80000024 <rvtest_error>

00000000800074e4 <inst_503>:
    800074e4:	00000537          	lui	a0,0x0
    800074e8:	00050513          	mv	a0,a0
    800074ec:	00b51513          	slli	a0,a0,0xb
    800074f0:	5a850513          	addi	a0,a0,1448 # 5a8 <offset+0x118>
    800074f4:	00b51513          	slli	a0,a0,0xb
    800074f8:	13c50513          	addi	a0,a0,316
    800074fc:	00a51513          	slli	a0,a0,0xa
    80007500:	33250513          	addi	a0,a0,818
    80007504:	333335b7          	lui	a1,0x33333
    80007508:	33358593          	addi	a1,a1,819 # 33333333 <absimmsh+0x27862586>
    8000750c:	00b59593          	slli	a1,a1,0xb
    80007510:	19958593          	addi	a1,a1,409
    80007514:	00b59593          	slli	a1,a1,0xb
    80007518:	4cc58593          	addi	a1,a1,1228
    8000751c:	00a59593          	slli	a1,a1,0xa
    80007520:	33458593          	addi	a1,a1,820
    80007524:	00b52633          	slt	a2,a0,a1
    80007528:	72c13423          	sd	a2,1832(sp)
    8000752c:	00100693          	li	a3,1
    80007530:	00c68463          	beq	a3,a2,80007538 <inst_504>
    80007534:	af1f806f          	j	80000024 <rvtest_error>

0000000080007538 <inst_504>:
    80007538:	00000537          	lui	a0,0x0
    8000753c:	00050513          	mv	a0,a0
    80007540:	00b51513          	slli	a0,a0,0xb
    80007544:	5a850513          	addi	a0,a0,1448 # 5a8 <offset+0x118>
    80007548:	00b51513          	slli	a0,a0,0xb
    8000754c:	13c50513          	addi	a0,a0,316
    80007550:	00a51513          	slli	a0,a0,0xa
    80007554:	33250513          	addi	a0,a0,818
    80007558:	666665b7          	lui	a1,0x66666
    8000755c:	66658593          	addi	a1,a1,1638 # 66666666 <absimmsh+0x5ab958b9>
    80007560:	00b59593          	slli	a1,a1,0xb
    80007564:	33358593          	addi	a1,a1,819
    80007568:	00b59593          	slli	a1,a1,0xb
    8000756c:	19958593          	addi	a1,a1,409
    80007570:	00a59593          	slli	a1,a1,0xa
    80007574:	26758593          	addi	a1,a1,615
    80007578:	00b52633          	slt	a2,a0,a1
    8000757c:	72c13823          	sd	a2,1840(sp)
    80007580:	00100693          	li	a3,1
    80007584:	00c68463          	beq	a3,a2,8000758c <inst_505>
    80007588:	a9df806f          	j	80000024 <rvtest_error>

000000008000758c <inst_505>:
    8000758c:	00000537          	lui	a0,0x0
    80007590:	00050513          	mv	a0,a0
    80007594:	00b51513          	slli	a0,a0,0xb
    80007598:	5a850513          	addi	a0,a0,1448 # 5a8 <offset+0x118>
    8000759c:	00b51513          	slli	a0,a0,0xb
    800075a0:	13c50513          	addi	a0,a0,316
    800075a4:	00a51513          	slli	a0,a0,0xa
    800075a8:	33250513          	addi	a0,a0,818
    800075ac:	000005b7          	lui	a1,0x0
    800075b0:	fff58593          	addi	a1,a1,-1
    800075b4:	00b59593          	slli	a1,a1,0xb
    800075b8:	25758593          	addi	a1,a1,599
    800075bc:	00b59593          	slli	a1,a1,0xb
    800075c0:	6c358593          	addi	a1,a1,1731
    800075c4:	00a59593          	slli	a1,a1,0xa
    800075c8:	0ce58593          	addi	a1,a1,206
    800075cc:	00b52633          	slt	a2,a0,a1
    800075d0:	72c13c23          	sd	a2,1848(sp)
    800075d4:	00000693          	li	a3,0
    800075d8:	00c68463          	beq	a3,a2,800075e0 <inst_506>
    800075dc:	a49f806f          	j	80000024 <rvtest_error>

00000000800075e0 <inst_506>:
    800075e0:	00000537          	lui	a0,0x0
    800075e4:	00050513          	mv	a0,a0
    800075e8:	00b51513          	slli	a0,a0,0xb
    800075ec:	5a850513          	addi	a0,a0,1448 # 5a8 <offset+0x118>
    800075f0:	00b51513          	slli	a0,a0,0xb
    800075f4:	13c50513          	addi	a0,a0,316
    800075f8:	00a51513          	slli	a0,a0,0xa
    800075fc:	33250513          	addi	a0,a0,818
    80007600:	000005b7          	lui	a1,0x0
    80007604:	00058593          	mv	a1,a1
    80007608:	00b59593          	slli	a1,a1,0xb
    8000760c:	5a858593          	addi	a1,a1,1448 # 5a8 <offset+0x118>
    80007610:	00b59593          	slli	a1,a1,0xb
    80007614:	13c58593          	addi	a1,a1,316
    80007618:	00a59593          	slli	a1,a1,0xa
    8000761c:	33458593          	addi	a1,a1,820
    80007620:	00b52633          	slt	a2,a0,a1
    80007624:	74c13023          	sd	a2,1856(sp)
    80007628:	00100693          	li	a3,1
    8000762c:	00c68463          	beq	a3,a2,80007634 <inst_507>
    80007630:	9f5f806f          	j	80000024 <rvtest_error>

0000000080007634 <inst_507>:
    80007634:	55555537          	lui	a0,0x55555
    80007638:	55550513          	addi	a0,a0,1365 # 55555555 <absimmsh+0x49a847a8>
    8000763c:	00b51513          	slli	a0,a0,0xb
    80007640:	2aa50513          	addi	a0,a0,682
    80007644:	00b51513          	slli	a0,a0,0xb
    80007648:	55550513          	addi	a0,a0,1365
    8000764c:	00a51513          	slli	a0,a0,0xa
    80007650:	15650513          	addi	a0,a0,342
    80007654:	00300593          	li	a1,3
    80007658:	00b52633          	slt	a2,a0,a1
    8000765c:	74c13423          	sd	a2,1864(sp)
    80007660:	00000693          	li	a3,0
    80007664:	00c68463          	beq	a3,a2,8000766c <inst_508>
    80007668:	9bdf806f          	j	80000024 <rvtest_error>

000000008000766c <inst_508>:
    8000766c:	55555537          	lui	a0,0x55555
    80007670:	55550513          	addi	a0,a0,1365 # 55555555 <absimmsh+0x49a847a8>
    80007674:	00b51513          	slli	a0,a0,0xb
    80007678:	2aa50513          	addi	a0,a0,682
    8000767c:	00b51513          	slli	a0,a0,0xb
    80007680:	55550513          	addi	a0,a0,1365
    80007684:	00a51513          	slli	a0,a0,0xa
    80007688:	15650513          	addi	a0,a0,342
    8000768c:	555555b7          	lui	a1,0x55555
    80007690:	55558593          	addi	a1,a1,1365 # 55555555 <absimmsh+0x49a847a8>
    80007694:	00b59593          	slli	a1,a1,0xb
    80007698:	2aa58593          	addi	a1,a1,682
    8000769c:	00b59593          	slli	a1,a1,0xb
    800076a0:	55558593          	addi	a1,a1,1365
    800076a4:	00a59593          	slli	a1,a1,0xa
    800076a8:	15558593          	addi	a1,a1,341
    800076ac:	00b52633          	slt	a2,a0,a1
    800076b0:	74c13823          	sd	a2,1872(sp)
    800076b4:	00000693          	li	a3,0
    800076b8:	00c68463          	beq	a3,a2,800076c0 <inst_509>
    800076bc:	969f806f          	j	80000024 <rvtest_error>

00000000800076c0 <inst_509>:
    800076c0:	55555537          	lui	a0,0x55555
    800076c4:	55550513          	addi	a0,a0,1365 # 55555555 <absimmsh+0x49a847a8>
    800076c8:	00b51513          	slli	a0,a0,0xb
    800076cc:	2aa50513          	addi	a0,a0,682
    800076d0:	00b51513          	slli	a0,a0,0xb
    800076d4:	55550513          	addi	a0,a0,1365
    800076d8:	00a51513          	slli	a0,a0,0xa
    800076dc:	15650513          	addi	a0,a0,342
    800076e0:	aaaab5b7          	lui	a1,0xaaaab
    800076e4:	aaa58593          	addi	a1,a1,-1366 # ffffffffaaaaaaaa <absimm+0xfffffffeefd9cfda>
    800076e8:	00b59593          	slli	a1,a1,0xb
    800076ec:	55558593          	addi	a1,a1,1365
    800076f0:	00b59593          	slli	a1,a1,0xb
    800076f4:	2aa58593          	addi	a1,a1,682
    800076f8:	00a59593          	slli	a1,a1,0xa
    800076fc:	2aa58593          	addi	a1,a1,682
    80007700:	00b52633          	slt	a2,a0,a1
    80007704:	74c13c23          	sd	a2,1880(sp)
    80007708:	00000693          	li	a3,0
    8000770c:	00c68463          	beq	a3,a2,80007714 <inst_510>
    80007710:	915f806f          	j	80000024 <rvtest_error>

0000000080007714 <inst_510>:
    80007714:	55555537          	lui	a0,0x55555
    80007718:	55550513          	addi	a0,a0,1365 # 55555555 <absimmsh+0x49a847a8>
    8000771c:	00b51513          	slli	a0,a0,0xb
    80007720:	2aa50513          	addi	a0,a0,682
    80007724:	00b51513          	slli	a0,a0,0xb
    80007728:	55550513          	addi	a0,a0,1365
    8000772c:	00a51513          	slli	a0,a0,0xa
    80007730:	15650513          	addi	a0,a0,342
    80007734:	00500593          	li	a1,5
    80007738:	00b52633          	slt	a2,a0,a1
    8000773c:	76c13023          	sd	a2,1888(sp)
    80007740:	00000693          	li	a3,0
    80007744:	00c68463          	beq	a3,a2,8000774c <inst_511>
    80007748:	8ddf806f          	j	80000024 <rvtest_error>

000000008000774c <inst_511>:
    8000774c:	55555537          	lui	a0,0x55555
    80007750:	55550513          	addi	a0,a0,1365 # 55555555 <absimmsh+0x49a847a8>
    80007754:	00b51513          	slli	a0,a0,0xb
    80007758:	2aa50513          	addi	a0,a0,682
    8000775c:	00b51513          	slli	a0,a0,0xb
    80007760:	55550513          	addi	a0,a0,1365
    80007764:	00a51513          	slli	a0,a0,0xa
    80007768:	15650513          	addi	a0,a0,342
    8000776c:	333335b7          	lui	a1,0x33333
    80007770:	33358593          	addi	a1,a1,819 # 33333333 <absimmsh+0x27862586>
    80007774:	00b59593          	slli	a1,a1,0xb
    80007778:	19958593          	addi	a1,a1,409
    8000777c:	00b59593          	slli	a1,a1,0xb
    80007780:	4cc58593          	addi	a1,a1,1228
    80007784:	00a59593          	slli	a1,a1,0xa
    80007788:	33358593          	addi	a1,a1,819
    8000778c:	00b52633          	slt	a2,a0,a1
    80007790:	76c13423          	sd	a2,1896(sp)
    80007794:	00000693          	li	a3,0
    80007798:	00c68463          	beq	a3,a2,800077a0 <inst_512>
    8000779c:	889f806f          	j	80000024 <rvtest_error>

00000000800077a0 <inst_512>:
    800077a0:	55555537          	lui	a0,0x55555
    800077a4:	55550513          	addi	a0,a0,1365 # 55555555 <absimmsh+0x49a847a8>
    800077a8:	00b51513          	slli	a0,a0,0xb
    800077ac:	2aa50513          	addi	a0,a0,682
    800077b0:	00b51513          	slli	a0,a0,0xb
    800077b4:	55550513          	addi	a0,a0,1365
    800077b8:	00a51513          	slli	a0,a0,0xa
    800077bc:	15650513          	addi	a0,a0,342
    800077c0:	666665b7          	lui	a1,0x66666
    800077c4:	66658593          	addi	a1,a1,1638 # 66666666 <absimmsh+0x5ab958b9>
    800077c8:	00b59593          	slli	a1,a1,0xb
    800077cc:	33358593          	addi	a1,a1,819
    800077d0:	00b59593          	slli	a1,a1,0xb
    800077d4:	19958593          	addi	a1,a1,409
    800077d8:	00a59593          	slli	a1,a1,0xa
    800077dc:	26658593          	addi	a1,a1,614
    800077e0:	00b52633          	slt	a2,a0,a1
    800077e4:	76c13823          	sd	a2,1904(sp)
    800077e8:	00100693          	li	a3,1
    800077ec:	00c68463          	beq	a3,a2,800077f4 <inst_513>
    800077f0:	835f806f          	j	80000024 <rvtest_error>

00000000800077f4 <inst_513>:
    800077f4:	55555537          	lui	a0,0x55555
    800077f8:	55550513          	addi	a0,a0,1365 # 55555555 <absimmsh+0x49a847a8>
    800077fc:	00b51513          	slli	a0,a0,0xb
    80007800:	2aa50513          	addi	a0,a0,682
    80007804:	00b51513          	slli	a0,a0,0xb
    80007808:	55550513          	addi	a0,a0,1365
    8000780c:	00a51513          	slli	a0,a0,0xa
    80007810:	15650513          	addi	a0,a0,342
    80007814:	000005b7          	lui	a1,0x0
    80007818:	fff58593          	addi	a1,a1,-1
    8000781c:	00b59593          	slli	a1,a1,0xb
    80007820:	25758593          	addi	a1,a1,599
    80007824:	00b59593          	slli	a1,a1,0xb
    80007828:	6c358593          	addi	a1,a1,1731
    8000782c:	00a59593          	slli	a1,a1,0xa
    80007830:	0cd58593          	addi	a1,a1,205
    80007834:	00b52633          	slt	a2,a0,a1
    80007838:	76c13c23          	sd	a2,1912(sp)
    8000783c:	00000693          	li	a3,0
    80007840:	00c68463          	beq	a3,a2,80007848 <inst_514>
    80007844:	fe0f806f          	j	80000024 <rvtest_error>

0000000080007848 <inst_514>:
    80007848:	55555537          	lui	a0,0x55555
    8000784c:	55550513          	addi	a0,a0,1365 # 55555555 <absimmsh+0x49a847a8>
    80007850:	00b51513          	slli	a0,a0,0xb
    80007854:	2aa50513          	addi	a0,a0,682
    80007858:	00b51513          	slli	a0,a0,0xb
    8000785c:	55550513          	addi	a0,a0,1365
    80007860:	00a51513          	slli	a0,a0,0xa
    80007864:	15650513          	addi	a0,a0,342
    80007868:	000005b7          	lui	a1,0x0
    8000786c:	00058593          	mv	a1,a1
    80007870:	00b59593          	slli	a1,a1,0xb
    80007874:	5a858593          	addi	a1,a1,1448 # 5a8 <offset+0x118>
    80007878:	00b59593          	slli	a1,a1,0xb
    8000787c:	13c58593          	addi	a1,a1,316
    80007880:	00a59593          	slli	a1,a1,0xa
    80007884:	33358593          	addi	a1,a1,819
    80007888:	00b52633          	slt	a2,a0,a1
    8000788c:	78c13023          	sd	a2,1920(sp)
    80007890:	00000693          	li	a3,0
    80007894:	00c68463          	beq	a3,a2,8000789c <inst_515>
    80007898:	f8cf806f          	j	80000024 <rvtest_error>

000000008000789c <inst_515>:
    8000789c:	55555537          	lui	a0,0x55555
    800078a0:	55550513          	addi	a0,a0,1365 # 55555555 <absimmsh+0x49a847a8>
    800078a4:	00b51513          	slli	a0,a0,0xb
    800078a8:	2aa50513          	addi	a0,a0,682
    800078ac:	00b51513          	slli	a0,a0,0xb
    800078b0:	55550513          	addi	a0,a0,1365
    800078b4:	00a51513          	slli	a0,a0,0xa
    800078b8:	15650513          	addi	a0,a0,342
    800078bc:	00200593          	li	a1,2
    800078c0:	00b52633          	slt	a2,a0,a1
    800078c4:	78c13423          	sd	a2,1928(sp)
    800078c8:	00000693          	li	a3,0
    800078cc:	00c68463          	beq	a3,a2,800078d4 <inst_516>
    800078d0:	f54f806f          	j	80000024 <rvtest_error>

00000000800078d4 <inst_516>:
    800078d4:	55555537          	lui	a0,0x55555
    800078d8:	55550513          	addi	a0,a0,1365 # 55555555 <absimmsh+0x49a847a8>
    800078dc:	00b51513          	slli	a0,a0,0xb
    800078e0:	2aa50513          	addi	a0,a0,682
    800078e4:	00b51513          	slli	a0,a0,0xb
    800078e8:	55550513          	addi	a0,a0,1365
    800078ec:	00a51513          	slli	a0,a0,0xa
    800078f0:	15650513          	addi	a0,a0,342
    800078f4:	555555b7          	lui	a1,0x55555
    800078f8:	55558593          	addi	a1,a1,1365 # 55555555 <absimmsh+0x49a847a8>
    800078fc:	00b59593          	slli	a1,a1,0xb
    80007900:	2aa58593          	addi	a1,a1,682
    80007904:	00b59593          	slli	a1,a1,0xb
    80007908:	55558593          	addi	a1,a1,1365
    8000790c:	00a59593          	slli	a1,a1,0xa
    80007910:	15458593          	addi	a1,a1,340
    80007914:	00b52633          	slt	a2,a0,a1
    80007918:	78c13823          	sd	a2,1936(sp)
    8000791c:	00000693          	li	a3,0
    80007920:	00c68463          	beq	a3,a2,80007928 <inst_517>
    80007924:	f00f806f          	j	80000024 <rvtest_error>

0000000080007928 <inst_517>:
    80007928:	55555537          	lui	a0,0x55555
    8000792c:	55550513          	addi	a0,a0,1365 # 55555555 <absimmsh+0x49a847a8>
    80007930:	00b51513          	slli	a0,a0,0xb
    80007934:	2aa50513          	addi	a0,a0,682
    80007938:	00b51513          	slli	a0,a0,0xb
    8000793c:	55550513          	addi	a0,a0,1365
    80007940:	00a51513          	slli	a0,a0,0xa
    80007944:	15650513          	addi	a0,a0,342
    80007948:	00000593          	li	a1,0
    8000794c:	00b52633          	slt	a2,a0,a1
    80007950:	78c13c23          	sd	a2,1944(sp)
    80007954:	00000693          	li	a3,0
    80007958:	00c68463          	beq	a3,a2,80007960 <inst_518>
    8000795c:	ec8f806f          	j	80000024 <rvtest_error>

0000000080007960 <inst_518>:
    80007960:	55555537          	lui	a0,0x55555
    80007964:	55550513          	addi	a0,a0,1365 # 55555555 <absimmsh+0x49a847a8>
    80007968:	00b51513          	slli	a0,a0,0xb
    8000796c:	2aa50513          	addi	a0,a0,682
    80007970:	00b51513          	slli	a0,a0,0xb
    80007974:	55550513          	addi	a0,a0,1365
    80007978:	00a51513          	slli	a0,a0,0xa
    8000797c:	15650513          	addi	a0,a0,342
    80007980:	00400593          	li	a1,4
    80007984:	00b52633          	slt	a2,a0,a1
    80007988:	7ac13023          	sd	a2,1952(sp)
    8000798c:	00000693          	li	a3,0
    80007990:	00c68463          	beq	a3,a2,80007998 <inst_519>
    80007994:	e90f806f          	j	80000024 <rvtest_error>

0000000080007998 <inst_519>:
    80007998:	55555537          	lui	a0,0x55555
    8000799c:	55550513          	addi	a0,a0,1365 # 55555555 <absimmsh+0x49a847a8>
    800079a0:	00b51513          	slli	a0,a0,0xb
    800079a4:	2aa50513          	addi	a0,a0,682
    800079a8:	00b51513          	slli	a0,a0,0xb
    800079ac:	55550513          	addi	a0,a0,1365
    800079b0:	00a51513          	slli	a0,a0,0xa
    800079b4:	15650513          	addi	a0,a0,342
    800079b8:	333335b7          	lui	a1,0x33333
    800079bc:	33358593          	addi	a1,a1,819 # 33333333 <absimmsh+0x27862586>
    800079c0:	00b59593          	slli	a1,a1,0xb
    800079c4:	19958593          	addi	a1,a1,409
    800079c8:	00b59593          	slli	a1,a1,0xb
    800079cc:	4cc58593          	addi	a1,a1,1228
    800079d0:	00a59593          	slli	a1,a1,0xa
    800079d4:	33258593          	addi	a1,a1,818
    800079d8:	00b52633          	slt	a2,a0,a1
    800079dc:	7ac13423          	sd	a2,1960(sp)
    800079e0:	00000693          	li	a3,0
    800079e4:	00c68463          	beq	a3,a2,800079ec <inst_520>
    800079e8:	e3cf806f          	j	80000024 <rvtest_error>

00000000800079ec <inst_520>:
    800079ec:	55555537          	lui	a0,0x55555
    800079f0:	55550513          	addi	a0,a0,1365 # 55555555 <absimmsh+0x49a847a8>
    800079f4:	00b51513          	slli	a0,a0,0xb
    800079f8:	2aa50513          	addi	a0,a0,682
    800079fc:	00b51513          	slli	a0,a0,0xb
    80007a00:	55550513          	addi	a0,a0,1365
    80007a04:	00a51513          	slli	a0,a0,0xa
    80007a08:	15650513          	addi	a0,a0,342
    80007a0c:	666665b7          	lui	a1,0x66666
    80007a10:	66658593          	addi	a1,a1,1638 # 66666666 <absimmsh+0x5ab958b9>
    80007a14:	00b59593          	slli	a1,a1,0xb
    80007a18:	33358593          	addi	a1,a1,819
    80007a1c:	00b59593          	slli	a1,a1,0xb
    80007a20:	19958593          	addi	a1,a1,409
    80007a24:	00a59593          	slli	a1,a1,0xa
    80007a28:	26558593          	addi	a1,a1,613
    80007a2c:	00b52633          	slt	a2,a0,a1
    80007a30:	7ac13823          	sd	a2,1968(sp)
    80007a34:	00100693          	li	a3,1
    80007a38:	00c68463          	beq	a3,a2,80007a40 <inst_521>
    80007a3c:	de8f806f          	j	80000024 <rvtest_error>

0000000080007a40 <inst_521>:
    80007a40:	55555537          	lui	a0,0x55555
    80007a44:	55550513          	addi	a0,a0,1365 # 55555555 <absimmsh+0x49a847a8>
    80007a48:	00b51513          	slli	a0,a0,0xb
    80007a4c:	2aa50513          	addi	a0,a0,682
    80007a50:	00b51513          	slli	a0,a0,0xb
    80007a54:	55550513          	addi	a0,a0,1365
    80007a58:	00a51513          	slli	a0,a0,0xa
    80007a5c:	15650513          	addi	a0,a0,342
    80007a60:	000005b7          	lui	a1,0x0
    80007a64:	00058593          	mv	a1,a1
    80007a68:	00b59593          	slli	a1,a1,0xb
    80007a6c:	5a858593          	addi	a1,a1,1448 # 5a8 <offset+0x118>
    80007a70:	00b59593          	slli	a1,a1,0xb
    80007a74:	13c58593          	addi	a1,a1,316
    80007a78:	00a59593          	slli	a1,a1,0xa
    80007a7c:	33258593          	addi	a1,a1,818
    80007a80:	00b52633          	slt	a2,a0,a1
    80007a84:	7ac13c23          	sd	a2,1976(sp)
    80007a88:	00000693          	li	a3,0
    80007a8c:	00c68463          	beq	a3,a2,80007a94 <inst_522>
    80007a90:	d94f806f          	j	80000024 <rvtest_error>

0000000080007a94 <inst_522>:
    80007a94:	55555537          	lui	a0,0x55555
    80007a98:	55550513          	addi	a0,a0,1365 # 55555555 <absimmsh+0x49a847a8>
    80007a9c:	00b51513          	slli	a0,a0,0xb
    80007aa0:	2aa50513          	addi	a0,a0,682
    80007aa4:	00b51513          	slli	a0,a0,0xb
    80007aa8:	55550513          	addi	a0,a0,1365
    80007aac:	00a51513          	slli	a0,a0,0xa
    80007ab0:	15650513          	addi	a0,a0,342
    80007ab4:	555555b7          	lui	a1,0x55555
    80007ab8:	55558593          	addi	a1,a1,1365 # 55555555 <absimmsh+0x49a847a8>
    80007abc:	00b59593          	slli	a1,a1,0xb
    80007ac0:	2aa58593          	addi	a1,a1,682
    80007ac4:	00b59593          	slli	a1,a1,0xb
    80007ac8:	55558593          	addi	a1,a1,1365
    80007acc:	00a59593          	slli	a1,a1,0xa
    80007ad0:	15658593          	addi	a1,a1,342
    80007ad4:	00b52633          	slt	a2,a0,a1
    80007ad8:	7cc13023          	sd	a2,1984(sp)
    80007adc:	00000693          	li	a3,0
    80007ae0:	00c68463          	beq	a3,a2,80007ae8 <inst_523>
    80007ae4:	d40f806f          	j	80000024 <rvtest_error>

0000000080007ae8 <inst_523>:
    80007ae8:	55555537          	lui	a0,0x55555
    80007aec:	55550513          	addi	a0,a0,1365 # 55555555 <absimmsh+0x49a847a8>
    80007af0:	00b51513          	slli	a0,a0,0xb
    80007af4:	2aa50513          	addi	a0,a0,682
    80007af8:	00b51513          	slli	a0,a0,0xb
    80007afc:	55550513          	addi	a0,a0,1365
    80007b00:	00a51513          	slli	a0,a0,0xa
    80007b04:	15650513          	addi	a0,a0,342
    80007b08:	aaaab5b7          	lui	a1,0xaaaab
    80007b0c:	aaa58593          	addi	a1,a1,-1366 # ffffffffaaaaaaaa <absimm+0xfffffffeefd9cfda>
    80007b10:	00b59593          	slli	a1,a1,0xb
    80007b14:	55558593          	addi	a1,a1,1365
    80007b18:	00b59593          	slli	a1,a1,0xb
    80007b1c:	2aa58593          	addi	a1,a1,682
    80007b20:	00a59593          	slli	a1,a1,0xa
    80007b24:	2ab58593          	addi	a1,a1,683
    80007b28:	00b52633          	slt	a2,a0,a1
    80007b2c:	7cc13423          	sd	a2,1992(sp)
    80007b30:	00000693          	li	a3,0
    80007b34:	00c68463          	beq	a3,a2,80007b3c <inst_524>
    80007b38:	cecf806f          	j	80000024 <rvtest_error>

0000000080007b3c <inst_524>:
    80007b3c:	55555537          	lui	a0,0x55555
    80007b40:	55550513          	addi	a0,a0,1365 # 55555555 <absimmsh+0x49a847a8>
    80007b44:	00b51513          	slli	a0,a0,0xb
    80007b48:	2aa50513          	addi	a0,a0,682
    80007b4c:	00b51513          	slli	a0,a0,0xb
    80007b50:	55550513          	addi	a0,a0,1365
    80007b54:	00a51513          	slli	a0,a0,0xa
    80007b58:	15650513          	addi	a0,a0,342
    80007b5c:	00600593          	li	a1,6
    80007b60:	00b52633          	slt	a2,a0,a1
    80007b64:	7cc13823          	sd	a2,2000(sp)
    80007b68:	00000693          	li	a3,0
    80007b6c:	00c68463          	beq	a3,a2,80007b74 <inst_525>
    80007b70:	cb4f806f          	j	80000024 <rvtest_error>

0000000080007b74 <inst_525>:
    80007b74:	55555537          	lui	a0,0x55555
    80007b78:	55550513          	addi	a0,a0,1365 # 55555555 <absimmsh+0x49a847a8>
    80007b7c:	00b51513          	slli	a0,a0,0xb
    80007b80:	2aa50513          	addi	a0,a0,682
    80007b84:	00b51513          	slli	a0,a0,0xb
    80007b88:	55550513          	addi	a0,a0,1365
    80007b8c:	00a51513          	slli	a0,a0,0xa
    80007b90:	15650513          	addi	a0,a0,342
    80007b94:	333335b7          	lui	a1,0x33333
    80007b98:	33358593          	addi	a1,a1,819 # 33333333 <absimmsh+0x27862586>
    80007b9c:	00b59593          	slli	a1,a1,0xb
    80007ba0:	19958593          	addi	a1,a1,409
    80007ba4:	00b59593          	slli	a1,a1,0xb
    80007ba8:	4cc58593          	addi	a1,a1,1228
    80007bac:	00a59593          	slli	a1,a1,0xa
    80007bb0:	33458593          	addi	a1,a1,820
    80007bb4:	00b52633          	slt	a2,a0,a1
    80007bb8:	7cc13c23          	sd	a2,2008(sp)
    80007bbc:	00000693          	li	a3,0
    80007bc0:	00c68463          	beq	a3,a2,80007bc8 <inst_526>
    80007bc4:	c60f806f          	j	80000024 <rvtest_error>

0000000080007bc8 <inst_526>:
    80007bc8:	55555537          	lui	a0,0x55555
    80007bcc:	55550513          	addi	a0,a0,1365 # 55555555 <absimmsh+0x49a847a8>
    80007bd0:	00b51513          	slli	a0,a0,0xb
    80007bd4:	2aa50513          	addi	a0,a0,682
    80007bd8:	00b51513          	slli	a0,a0,0xb
    80007bdc:	55550513          	addi	a0,a0,1365
    80007be0:	00a51513          	slli	a0,a0,0xa
    80007be4:	15650513          	addi	a0,a0,342
    80007be8:	666665b7          	lui	a1,0x66666
    80007bec:	66658593          	addi	a1,a1,1638 # 66666666 <absimmsh+0x5ab958b9>
    80007bf0:	00b59593          	slli	a1,a1,0xb
    80007bf4:	33358593          	addi	a1,a1,819
    80007bf8:	00b59593          	slli	a1,a1,0xb
    80007bfc:	19958593          	addi	a1,a1,409
    80007c00:	00a59593          	slli	a1,a1,0xa
    80007c04:	26758593          	addi	a1,a1,615
    80007c08:	00b52633          	slt	a2,a0,a1
    80007c0c:	7ec13023          	sd	a2,2016(sp)
    80007c10:	00100693          	li	a3,1
    80007c14:	00c68463          	beq	a3,a2,80007c1c <inst_527>
    80007c18:	c0cf806f          	j	80000024 <rvtest_error>

0000000080007c1c <inst_527>:
    80007c1c:	55555537          	lui	a0,0x55555
    80007c20:	55550513          	addi	a0,a0,1365 # 55555555 <absimmsh+0x49a847a8>
    80007c24:	00b51513          	slli	a0,a0,0xb
    80007c28:	2aa50513          	addi	a0,a0,682
    80007c2c:	00b51513          	slli	a0,a0,0xb
    80007c30:	55550513          	addi	a0,a0,1365
    80007c34:	00a51513          	slli	a0,a0,0xa
    80007c38:	15650513          	addi	a0,a0,342
    80007c3c:	000005b7          	lui	a1,0x0
    80007c40:	fff58593          	addi	a1,a1,-1
    80007c44:	00b59593          	slli	a1,a1,0xb
    80007c48:	25758593          	addi	a1,a1,599
    80007c4c:	00b59593          	slli	a1,a1,0xb
    80007c50:	6c358593          	addi	a1,a1,1731
    80007c54:	00a59593          	slli	a1,a1,0xa
    80007c58:	0ce58593          	addi	a1,a1,206
    80007c5c:	00b52633          	slt	a2,a0,a1
    80007c60:	7ec13423          	sd	a2,2024(sp)
    80007c64:	00000693          	li	a3,0
    80007c68:	00c68463          	beq	a3,a2,80007c70 <inst_528>
    80007c6c:	bb8f806f          	j	80000024 <rvtest_error>

0000000080007c70 <inst_528>:
    80007c70:	55555537          	lui	a0,0x55555
    80007c74:	55550513          	addi	a0,a0,1365 # 55555555 <absimmsh+0x49a847a8>
    80007c78:	00b51513          	slli	a0,a0,0xb
    80007c7c:	2aa50513          	addi	a0,a0,682
    80007c80:	00b51513          	slli	a0,a0,0xb
    80007c84:	55550513          	addi	a0,a0,1365
    80007c88:	00a51513          	slli	a0,a0,0xa
    80007c8c:	15650513          	addi	a0,a0,342
    80007c90:	000005b7          	lui	a1,0x0
    80007c94:	00058593          	mv	a1,a1
    80007c98:	00b59593          	slli	a1,a1,0xb
    80007c9c:	5a858593          	addi	a1,a1,1448 # 5a8 <offset+0x118>
    80007ca0:	00b59593          	slli	a1,a1,0xb
    80007ca4:	13c58593          	addi	a1,a1,316
    80007ca8:	00a59593          	slli	a1,a1,0xa
    80007cac:	33458593          	addi	a1,a1,820
    80007cb0:	00b52633          	slt	a2,a0,a1
    80007cb4:	7ec13823          	sd	a2,2032(sp)
    80007cb8:	00000693          	li	a3,0
    80007cbc:	00c68463          	beq	a3,a2,80007cc4 <inst_529>
    80007cc0:	b64f806f          	j	80000024 <rvtest_error>

0000000080007cc4 <inst_529>:
    80007cc4:	aaaab537          	lui	a0,0xaaaab
    80007cc8:	aaa50513          	addi	a0,a0,-1366 # ffffffffaaaaaaaa <absimm+0xfffffffeefd9cfda>
    80007ccc:	00b51513          	slli	a0,a0,0xb
    80007cd0:	55550513          	addi	a0,a0,1365
    80007cd4:	00b51513          	slli	a0,a0,0xb
    80007cd8:	2aa50513          	addi	a0,a0,682
    80007cdc:	00a51513          	slli	a0,a0,0xa
    80007ce0:	2ab50513          	addi	a0,a0,683
    80007ce4:	00300593          	li	a1,3
    80007ce8:	00b52633          	slt	a2,a0,a1
    80007cec:	7ec13c23          	sd	a2,2040(sp)
    80007cf0:	00100693          	li	a3,1
    80007cf4:	00c68463          	beq	a3,a2,80007cfc <inst_529+0x38>
    80007cf8:	b2cf806f          	j	80000024 <rvtest_error>
    80007cfc:	00000013          	nop
    80007d00:	00005117          	auipc	sp,0x5
    80007d04:	39810113          	addi	sp,sp,920 # 8000d098 <signature_x2_2>
    80007d08:	00000013          	nop
    80007d0c:	00000013          	nop
    80007d10:	00000013          	nop
    80007d14:	00000013          	nop
    80007d18:	00000013          	nop
    80007d1c:	00000013          	nop

0000000080007d20 <inst_530>:
    80007d20:	aaaab537          	lui	a0,0xaaaab
    80007d24:	aaa50513          	addi	a0,a0,-1366 # ffffffffaaaaaaaa <absimm+0xfffffffeefd9cfda>
    80007d28:	00b51513          	slli	a0,a0,0xb
    80007d2c:	55550513          	addi	a0,a0,1365
    80007d30:	00b51513          	slli	a0,a0,0xb
    80007d34:	2aa50513          	addi	a0,a0,682
    80007d38:	00a51513          	slli	a0,a0,0xa
    80007d3c:	2ab50513          	addi	a0,a0,683
    80007d40:	555555b7          	lui	a1,0x55555
    80007d44:	55558593          	addi	a1,a1,1365 # 55555555 <absimmsh+0x49a847a8>
    80007d48:	00b59593          	slli	a1,a1,0xb
    80007d4c:	2aa58593          	addi	a1,a1,682
    80007d50:	00b59593          	slli	a1,a1,0xb
    80007d54:	55558593          	addi	a1,a1,1365
    80007d58:	00a59593          	slli	a1,a1,0xa
    80007d5c:	15558593          	addi	a1,a1,341
    80007d60:	00b52633          	slt	a2,a0,a1
    80007d64:	00c13023          	sd	a2,0(sp)
    80007d68:	00100693          	li	a3,1
    80007d6c:	00c68463          	beq	a3,a2,80007d74 <inst_531>
    80007d70:	ab4f806f          	j	80000024 <rvtest_error>

0000000080007d74 <inst_531>:
    80007d74:	aaaab537          	lui	a0,0xaaaab
    80007d78:	aaa50513          	addi	a0,a0,-1366 # ffffffffaaaaaaaa <absimm+0xfffffffeefd9cfda>
    80007d7c:	00b51513          	slli	a0,a0,0xb
    80007d80:	55550513          	addi	a0,a0,1365
    80007d84:	00b51513          	slli	a0,a0,0xb
    80007d88:	2aa50513          	addi	a0,a0,682
    80007d8c:	00a51513          	slli	a0,a0,0xa
    80007d90:	2ab50513          	addi	a0,a0,683
    80007d94:	aaaab5b7          	lui	a1,0xaaaab
    80007d98:	aaa58593          	addi	a1,a1,-1366 # ffffffffaaaaaaaa <absimm+0xfffffffeefd9cfda>
    80007d9c:	00b59593          	slli	a1,a1,0xb
    80007da0:	55558593          	addi	a1,a1,1365
    80007da4:	00b59593          	slli	a1,a1,0xb
    80007da8:	2aa58593          	addi	a1,a1,682
    80007dac:	00a59593          	slli	a1,a1,0xa
    80007db0:	2aa58593          	addi	a1,a1,682
    80007db4:	00b52633          	slt	a2,a0,a1
    80007db8:	00c13423          	sd	a2,8(sp)
    80007dbc:	00000693          	li	a3,0
    80007dc0:	00c68463          	beq	a3,a2,80007dc8 <inst_532>
    80007dc4:	a60f806f          	j	80000024 <rvtest_error>

0000000080007dc8 <inst_532>:
    80007dc8:	aaaab537          	lui	a0,0xaaaab
    80007dcc:	aaa50513          	addi	a0,a0,-1366 # ffffffffaaaaaaaa <absimm+0xfffffffeefd9cfda>
    80007dd0:	00b51513          	slli	a0,a0,0xb
    80007dd4:	55550513          	addi	a0,a0,1365
    80007dd8:	00b51513          	slli	a0,a0,0xb
    80007ddc:	2aa50513          	addi	a0,a0,682
    80007de0:	00a51513          	slli	a0,a0,0xa
    80007de4:	2ab50513          	addi	a0,a0,683
    80007de8:	00500593          	li	a1,5
    80007dec:	00b52633          	slt	a2,a0,a1
    80007df0:	00c13823          	sd	a2,16(sp)
    80007df4:	00100693          	li	a3,1
    80007df8:	00c68463          	beq	a3,a2,80007e00 <inst_533>
    80007dfc:	a28f806f          	j	80000024 <rvtest_error>

0000000080007e00 <inst_533>:
    80007e00:	aaaab537          	lui	a0,0xaaaab
    80007e04:	aaa50513          	addi	a0,a0,-1366 # ffffffffaaaaaaaa <absimm+0xfffffffeefd9cfda>
    80007e08:	00b51513          	slli	a0,a0,0xb
    80007e0c:	55550513          	addi	a0,a0,1365
    80007e10:	00b51513          	slli	a0,a0,0xb
    80007e14:	2aa50513          	addi	a0,a0,682
    80007e18:	00a51513          	slli	a0,a0,0xa
    80007e1c:	2ab50513          	addi	a0,a0,683
    80007e20:	333335b7          	lui	a1,0x33333
    80007e24:	33358593          	addi	a1,a1,819 # 33333333 <absimmsh+0x27862586>
    80007e28:	00b59593          	slli	a1,a1,0xb
    80007e2c:	19958593          	addi	a1,a1,409
    80007e30:	00b59593          	slli	a1,a1,0xb
    80007e34:	4cc58593          	addi	a1,a1,1228
    80007e38:	00a59593          	slli	a1,a1,0xa
    80007e3c:	33358593          	addi	a1,a1,819
    80007e40:	00b52633          	slt	a2,a0,a1
    80007e44:	00c13c23          	sd	a2,24(sp)
    80007e48:	00100693          	li	a3,1
    80007e4c:	00c68463          	beq	a3,a2,80007e54 <inst_534>
    80007e50:	9d4f806f          	j	80000024 <rvtest_error>

0000000080007e54 <inst_534>:
    80007e54:	aaaab537          	lui	a0,0xaaaab
    80007e58:	aaa50513          	addi	a0,a0,-1366 # ffffffffaaaaaaaa <absimm+0xfffffffeefd9cfda>
    80007e5c:	00b51513          	slli	a0,a0,0xb
    80007e60:	55550513          	addi	a0,a0,1365
    80007e64:	00b51513          	slli	a0,a0,0xb
    80007e68:	2aa50513          	addi	a0,a0,682
    80007e6c:	00a51513          	slli	a0,a0,0xa
    80007e70:	2ab50513          	addi	a0,a0,683
    80007e74:	666665b7          	lui	a1,0x66666
    80007e78:	66658593          	addi	a1,a1,1638 # 66666666 <absimmsh+0x5ab958b9>
    80007e7c:	00b59593          	slli	a1,a1,0xb
    80007e80:	33358593          	addi	a1,a1,819
    80007e84:	00b59593          	slli	a1,a1,0xb
    80007e88:	19958593          	addi	a1,a1,409
    80007e8c:	00a59593          	slli	a1,a1,0xa
    80007e90:	26658593          	addi	a1,a1,614
    80007e94:	00b52633          	slt	a2,a0,a1
    80007e98:	02c13023          	sd	a2,32(sp)
    80007e9c:	00100693          	li	a3,1
    80007ea0:	00c68463          	beq	a3,a2,80007ea8 <inst_535>
    80007ea4:	980f806f          	j	80000024 <rvtest_error>

0000000080007ea8 <inst_535>:
    80007ea8:	aaaab537          	lui	a0,0xaaaab
    80007eac:	aaa50513          	addi	a0,a0,-1366 # ffffffffaaaaaaaa <absimm+0xfffffffeefd9cfda>
    80007eb0:	00b51513          	slli	a0,a0,0xb
    80007eb4:	55550513          	addi	a0,a0,1365
    80007eb8:	00b51513          	slli	a0,a0,0xb
    80007ebc:	2aa50513          	addi	a0,a0,682
    80007ec0:	00a51513          	slli	a0,a0,0xa
    80007ec4:	2ab50513          	addi	a0,a0,683
    80007ec8:	000005b7          	lui	a1,0x0
    80007ecc:	fff58593          	addi	a1,a1,-1
    80007ed0:	00b59593          	slli	a1,a1,0xb
    80007ed4:	25758593          	addi	a1,a1,599
    80007ed8:	00b59593          	slli	a1,a1,0xb
    80007edc:	6c358593          	addi	a1,a1,1731
    80007ee0:	00a59593          	slli	a1,a1,0xa
    80007ee4:	0cd58593          	addi	a1,a1,205
    80007ee8:	00b52633          	slt	a2,a0,a1
    80007eec:	02c13423          	sd	a2,40(sp)
    80007ef0:	00100693          	li	a3,1
    80007ef4:	00c68463          	beq	a3,a2,80007efc <inst_536>
    80007ef8:	92cf806f          	j	80000024 <rvtest_error>

0000000080007efc <inst_536>:
    80007efc:	aaaab537          	lui	a0,0xaaaab
    80007f00:	aaa50513          	addi	a0,a0,-1366 # ffffffffaaaaaaaa <absimm+0xfffffffeefd9cfda>
    80007f04:	00b51513          	slli	a0,a0,0xb
    80007f08:	55550513          	addi	a0,a0,1365
    80007f0c:	00b51513          	slli	a0,a0,0xb
    80007f10:	2aa50513          	addi	a0,a0,682
    80007f14:	00a51513          	slli	a0,a0,0xa
    80007f18:	2ab50513          	addi	a0,a0,683
    80007f1c:	000005b7          	lui	a1,0x0
    80007f20:	00058593          	mv	a1,a1
    80007f24:	00b59593          	slli	a1,a1,0xb
    80007f28:	5a858593          	addi	a1,a1,1448 # 5a8 <offset+0x118>
    80007f2c:	00b59593          	slli	a1,a1,0xb
    80007f30:	13c58593          	addi	a1,a1,316
    80007f34:	00a59593          	slli	a1,a1,0xa
    80007f38:	33358593          	addi	a1,a1,819
    80007f3c:	00b52633          	slt	a2,a0,a1
    80007f40:	02c13823          	sd	a2,48(sp)
    80007f44:	00100693          	li	a3,1
    80007f48:	00c68463          	beq	a3,a2,80007f50 <inst_537>
    80007f4c:	8d8f806f          	j	80000024 <rvtest_error>

0000000080007f50 <inst_537>:
    80007f50:	aaaab537          	lui	a0,0xaaaab
    80007f54:	aaa50513          	addi	a0,a0,-1366 # ffffffffaaaaaaaa <absimm+0xfffffffeefd9cfda>
    80007f58:	00b51513          	slli	a0,a0,0xb
    80007f5c:	55550513          	addi	a0,a0,1365
    80007f60:	00b51513          	slli	a0,a0,0xb
    80007f64:	2aa50513          	addi	a0,a0,682
    80007f68:	00a51513          	slli	a0,a0,0xa
    80007f6c:	2ab50513          	addi	a0,a0,683
    80007f70:	00200593          	li	a1,2
    80007f74:	00b52633          	slt	a2,a0,a1
    80007f78:	02c13c23          	sd	a2,56(sp)
    80007f7c:	00100693          	li	a3,1
    80007f80:	00c68463          	beq	a3,a2,80007f88 <inst_538>
    80007f84:	8a0f806f          	j	80000024 <rvtest_error>

0000000080007f88 <inst_538>:
    80007f88:	aaaab537          	lui	a0,0xaaaab
    80007f8c:	aaa50513          	addi	a0,a0,-1366 # ffffffffaaaaaaaa <absimm+0xfffffffeefd9cfda>
    80007f90:	00b51513          	slli	a0,a0,0xb
    80007f94:	55550513          	addi	a0,a0,1365
    80007f98:	00b51513          	slli	a0,a0,0xb
    80007f9c:	2aa50513          	addi	a0,a0,682
    80007fa0:	00a51513          	slli	a0,a0,0xa
    80007fa4:	2ab50513          	addi	a0,a0,683
    80007fa8:	555555b7          	lui	a1,0x55555
    80007fac:	55558593          	addi	a1,a1,1365 # 55555555 <absimmsh+0x49a847a8>
    80007fb0:	00b59593          	slli	a1,a1,0xb
    80007fb4:	2aa58593          	addi	a1,a1,682
    80007fb8:	00b59593          	slli	a1,a1,0xb
    80007fbc:	55558593          	addi	a1,a1,1365
    80007fc0:	00a59593          	slli	a1,a1,0xa
    80007fc4:	15458593          	addi	a1,a1,340
    80007fc8:	00b52633          	slt	a2,a0,a1
    80007fcc:	04c13023          	sd	a2,64(sp)
    80007fd0:	00100693          	li	a3,1
    80007fd4:	00c68463          	beq	a3,a2,80007fdc <inst_539>
    80007fd8:	84cf806f          	j	80000024 <rvtest_error>

0000000080007fdc <inst_539>:
    80007fdc:	aaaab537          	lui	a0,0xaaaab
    80007fe0:	aaa50513          	addi	a0,a0,-1366 # ffffffffaaaaaaaa <absimm+0xfffffffeefd9cfda>
    80007fe4:	00b51513          	slli	a0,a0,0xb
    80007fe8:	55550513          	addi	a0,a0,1365
    80007fec:	00b51513          	slli	a0,a0,0xb
    80007ff0:	2aa50513          	addi	a0,a0,682
    80007ff4:	00a51513          	slli	a0,a0,0xa
    80007ff8:	2ab50513          	addi	a0,a0,683
    80007ffc:	00000593          	li	a1,0
    80008000:	00b52633          	slt	a2,a0,a1
    80008004:	04c13423          	sd	a2,72(sp)
    80008008:	00100693          	li	a3,1
    8000800c:	00c68463          	beq	a3,a2,80008014 <inst_540>
    80008010:	814f806f          	j	80000024 <rvtest_error>

0000000080008014 <inst_540>:
    80008014:	aaaab537          	lui	a0,0xaaaab
    80008018:	aaa50513          	addi	a0,a0,-1366 # ffffffffaaaaaaaa <absimm+0xfffffffeefd9cfda>
    8000801c:	00b51513          	slli	a0,a0,0xb
    80008020:	55550513          	addi	a0,a0,1365
    80008024:	00b51513          	slli	a0,a0,0xb
    80008028:	2aa50513          	addi	a0,a0,682
    8000802c:	00a51513          	slli	a0,a0,0xa
    80008030:	2ab50513          	addi	a0,a0,683
    80008034:	00400593          	li	a1,4
    80008038:	00b52633          	slt	a2,a0,a1
    8000803c:	04c13823          	sd	a2,80(sp)
    80008040:	00100693          	li	a3,1
    80008044:	00c68463          	beq	a3,a2,8000804c <inst_541>
    80008048:	fddf706f          	j	80000024 <rvtest_error>

000000008000804c <inst_541>:
    8000804c:	aaaab537          	lui	a0,0xaaaab
    80008050:	aaa50513          	addi	a0,a0,-1366 # ffffffffaaaaaaaa <absimm+0xfffffffeefd9cfda>
    80008054:	00b51513          	slli	a0,a0,0xb
    80008058:	55550513          	addi	a0,a0,1365
    8000805c:	00b51513          	slli	a0,a0,0xb
    80008060:	2aa50513          	addi	a0,a0,682
    80008064:	00a51513          	slli	a0,a0,0xa
    80008068:	2ab50513          	addi	a0,a0,683
    8000806c:	333335b7          	lui	a1,0x33333
    80008070:	33358593          	addi	a1,a1,819 # 33333333 <absimmsh+0x27862586>
    80008074:	00b59593          	slli	a1,a1,0xb
    80008078:	19958593          	addi	a1,a1,409
    8000807c:	00b59593          	slli	a1,a1,0xb
    80008080:	4cc58593          	addi	a1,a1,1228
    80008084:	00a59593          	slli	a1,a1,0xa
    80008088:	33258593          	addi	a1,a1,818
    8000808c:	00b52633          	slt	a2,a0,a1
    80008090:	04c13c23          	sd	a2,88(sp)
    80008094:	00100693          	li	a3,1
    80008098:	00c68463          	beq	a3,a2,800080a0 <inst_542>
    8000809c:	f89f706f          	j	80000024 <rvtest_error>

00000000800080a0 <inst_542>:
    800080a0:	aaaab537          	lui	a0,0xaaaab
    800080a4:	aaa50513          	addi	a0,a0,-1366 # ffffffffaaaaaaaa <absimm+0xfffffffeefd9cfda>
    800080a8:	00b51513          	slli	a0,a0,0xb
    800080ac:	55550513          	addi	a0,a0,1365
    800080b0:	00b51513          	slli	a0,a0,0xb
    800080b4:	2aa50513          	addi	a0,a0,682
    800080b8:	00a51513          	slli	a0,a0,0xa
    800080bc:	2ab50513          	addi	a0,a0,683
    800080c0:	666665b7          	lui	a1,0x66666
    800080c4:	66658593          	addi	a1,a1,1638 # 66666666 <absimmsh+0x5ab958b9>
    800080c8:	00b59593          	slli	a1,a1,0xb
    800080cc:	33358593          	addi	a1,a1,819
    800080d0:	00b59593          	slli	a1,a1,0xb
    800080d4:	19958593          	addi	a1,a1,409
    800080d8:	00a59593          	slli	a1,a1,0xa
    800080dc:	26558593          	addi	a1,a1,613
    800080e0:	00b52633          	slt	a2,a0,a1
    800080e4:	06c13023          	sd	a2,96(sp)
    800080e8:	00100693          	li	a3,1
    800080ec:	00c68463          	beq	a3,a2,800080f4 <inst_543>
    800080f0:	f35f706f          	j	80000024 <rvtest_error>

00000000800080f4 <inst_543>:
    800080f4:	aaaab537          	lui	a0,0xaaaab
    800080f8:	aaa50513          	addi	a0,a0,-1366 # ffffffffaaaaaaaa <absimm+0xfffffffeefd9cfda>
    800080fc:	00b51513          	slli	a0,a0,0xb
    80008100:	55550513          	addi	a0,a0,1365
    80008104:	00b51513          	slli	a0,a0,0xb
    80008108:	2aa50513          	addi	a0,a0,682
    8000810c:	00a51513          	slli	a0,a0,0xa
    80008110:	2ab50513          	addi	a0,a0,683
    80008114:	000005b7          	lui	a1,0x0
    80008118:	00058593          	mv	a1,a1
    8000811c:	00b59593          	slli	a1,a1,0xb
    80008120:	5a858593          	addi	a1,a1,1448 # 5a8 <offset+0x118>
    80008124:	00b59593          	slli	a1,a1,0xb
    80008128:	13c58593          	addi	a1,a1,316
    8000812c:	00a59593          	slli	a1,a1,0xa
    80008130:	33258593          	addi	a1,a1,818
    80008134:	00b52633          	slt	a2,a0,a1
    80008138:	06c13423          	sd	a2,104(sp)
    8000813c:	00100693          	li	a3,1
    80008140:	00c68463          	beq	a3,a2,80008148 <inst_544>
    80008144:	ee1f706f          	j	80000024 <rvtest_error>

0000000080008148 <inst_544>:
    80008148:	aaaab537          	lui	a0,0xaaaab
    8000814c:	aaa50513          	addi	a0,a0,-1366 # ffffffffaaaaaaaa <absimm+0xfffffffeefd9cfda>
    80008150:	00b51513          	slli	a0,a0,0xb
    80008154:	55550513          	addi	a0,a0,1365
    80008158:	00b51513          	slli	a0,a0,0xb
    8000815c:	2aa50513          	addi	a0,a0,682
    80008160:	00a51513          	slli	a0,a0,0xa
    80008164:	2ab50513          	addi	a0,a0,683
    80008168:	555555b7          	lui	a1,0x55555
    8000816c:	55558593          	addi	a1,a1,1365 # 55555555 <absimmsh+0x49a847a8>
    80008170:	00b59593          	slli	a1,a1,0xb
    80008174:	2aa58593          	addi	a1,a1,682
    80008178:	00b59593          	slli	a1,a1,0xb
    8000817c:	55558593          	addi	a1,a1,1365
    80008180:	00a59593          	slli	a1,a1,0xa
    80008184:	15658593          	addi	a1,a1,342
    80008188:	00b52633          	slt	a2,a0,a1
    8000818c:	06c13823          	sd	a2,112(sp)
    80008190:	00100693          	li	a3,1
    80008194:	00c68463          	beq	a3,a2,8000819c <inst_545>
    80008198:	e8df706f          	j	80000024 <rvtest_error>

000000008000819c <inst_545>:
    8000819c:	aaaab537          	lui	a0,0xaaaab
    800081a0:	aaa50513          	addi	a0,a0,-1366 # ffffffffaaaaaaaa <absimm+0xfffffffeefd9cfda>
    800081a4:	00b51513          	slli	a0,a0,0xb
    800081a8:	55550513          	addi	a0,a0,1365
    800081ac:	00b51513          	slli	a0,a0,0xb
    800081b0:	2aa50513          	addi	a0,a0,682
    800081b4:	00a51513          	slli	a0,a0,0xa
    800081b8:	2ab50513          	addi	a0,a0,683
    800081bc:	aaaab5b7          	lui	a1,0xaaaab
    800081c0:	aaa58593          	addi	a1,a1,-1366 # ffffffffaaaaaaaa <absimm+0xfffffffeefd9cfda>
    800081c4:	00b59593          	slli	a1,a1,0xb
    800081c8:	55558593          	addi	a1,a1,1365
    800081cc:	00b59593          	slli	a1,a1,0xb
    800081d0:	2aa58593          	addi	a1,a1,682
    800081d4:	00a59593          	slli	a1,a1,0xa
    800081d8:	2ab58593          	addi	a1,a1,683
    800081dc:	00b52633          	slt	a2,a0,a1
    800081e0:	06c13c23          	sd	a2,120(sp)
    800081e4:	00000693          	li	a3,0
    800081e8:	00c68463          	beq	a3,a2,800081f0 <inst_546>
    800081ec:	e39f706f          	j	80000024 <rvtest_error>

00000000800081f0 <inst_546>:
    800081f0:	aaaab537          	lui	a0,0xaaaab
    800081f4:	aaa50513          	addi	a0,a0,-1366 # ffffffffaaaaaaaa <absimm+0xfffffffeefd9cfda>
    800081f8:	00b51513          	slli	a0,a0,0xb
    800081fc:	55550513          	addi	a0,a0,1365
    80008200:	00b51513          	slli	a0,a0,0xb
    80008204:	2aa50513          	addi	a0,a0,682
    80008208:	00a51513          	slli	a0,a0,0xa
    8000820c:	2ab50513          	addi	a0,a0,683
    80008210:	00600593          	li	a1,6
    80008214:	00b52633          	slt	a2,a0,a1
    80008218:	08c13023          	sd	a2,128(sp)
    8000821c:	00100693          	li	a3,1
    80008220:	00c68463          	beq	a3,a2,80008228 <inst_547>
    80008224:	e01f706f          	j	80000024 <rvtest_error>

0000000080008228 <inst_547>:
    80008228:	aaaab537          	lui	a0,0xaaaab
    8000822c:	aaa50513          	addi	a0,a0,-1366 # ffffffffaaaaaaaa <absimm+0xfffffffeefd9cfda>
    80008230:	00b51513          	slli	a0,a0,0xb
    80008234:	55550513          	addi	a0,a0,1365
    80008238:	00b51513          	slli	a0,a0,0xb
    8000823c:	2aa50513          	addi	a0,a0,682
    80008240:	00a51513          	slli	a0,a0,0xa
    80008244:	2ab50513          	addi	a0,a0,683
    80008248:	333335b7          	lui	a1,0x33333
    8000824c:	33358593          	addi	a1,a1,819 # 33333333 <absimmsh+0x27862586>
    80008250:	00b59593          	slli	a1,a1,0xb
    80008254:	19958593          	addi	a1,a1,409
    80008258:	00b59593          	slli	a1,a1,0xb
    8000825c:	4cc58593          	addi	a1,a1,1228
    80008260:	00a59593          	slli	a1,a1,0xa
    80008264:	33458593          	addi	a1,a1,820
    80008268:	00b52633          	slt	a2,a0,a1
    8000826c:	08c13423          	sd	a2,136(sp)
    80008270:	00100693          	li	a3,1
    80008274:	00c68463          	beq	a3,a2,8000827c <inst_548>
    80008278:	dadf706f          	j	80000024 <rvtest_error>

000000008000827c <inst_548>:
    8000827c:	aaaab537          	lui	a0,0xaaaab
    80008280:	aaa50513          	addi	a0,a0,-1366 # ffffffffaaaaaaaa <absimm+0xfffffffeefd9cfda>
    80008284:	00b51513          	slli	a0,a0,0xb
    80008288:	55550513          	addi	a0,a0,1365
    8000828c:	00b51513          	slli	a0,a0,0xb
    80008290:	2aa50513          	addi	a0,a0,682
    80008294:	00a51513          	slli	a0,a0,0xa
    80008298:	2ab50513          	addi	a0,a0,683
    8000829c:	666665b7          	lui	a1,0x66666
    800082a0:	66658593          	addi	a1,a1,1638 # 66666666 <absimmsh+0x5ab958b9>
    800082a4:	00b59593          	slli	a1,a1,0xb
    800082a8:	33358593          	addi	a1,a1,819
    800082ac:	00b59593          	slli	a1,a1,0xb
    800082b0:	19958593          	addi	a1,a1,409
    800082b4:	00a59593          	slli	a1,a1,0xa
    800082b8:	26758593          	addi	a1,a1,615
    800082bc:	00b52633          	slt	a2,a0,a1
    800082c0:	08c13823          	sd	a2,144(sp)
    800082c4:	00100693          	li	a3,1
    800082c8:	00c68463          	beq	a3,a2,800082d0 <inst_549>
    800082cc:	d59f706f          	j	80000024 <rvtest_error>

00000000800082d0 <inst_549>:
    800082d0:	aaaab537          	lui	a0,0xaaaab
    800082d4:	aaa50513          	addi	a0,a0,-1366 # ffffffffaaaaaaaa <absimm+0xfffffffeefd9cfda>
    800082d8:	00b51513          	slli	a0,a0,0xb
    800082dc:	55550513          	addi	a0,a0,1365
    800082e0:	00b51513          	slli	a0,a0,0xb
    800082e4:	2aa50513          	addi	a0,a0,682
    800082e8:	00a51513          	slli	a0,a0,0xa
    800082ec:	2ab50513          	addi	a0,a0,683
    800082f0:	000005b7          	lui	a1,0x0
    800082f4:	fff58593          	addi	a1,a1,-1
    800082f8:	00b59593          	slli	a1,a1,0xb
    800082fc:	25758593          	addi	a1,a1,599
    80008300:	00b59593          	slli	a1,a1,0xb
    80008304:	6c358593          	addi	a1,a1,1731
    80008308:	00a59593          	slli	a1,a1,0xa
    8000830c:	0ce58593          	addi	a1,a1,206
    80008310:	00b52633          	slt	a2,a0,a1
    80008314:	08c13c23          	sd	a2,152(sp)
    80008318:	00100693          	li	a3,1
    8000831c:	00c68463          	beq	a3,a2,80008324 <inst_550>
    80008320:	d05f706f          	j	80000024 <rvtest_error>

0000000080008324 <inst_550>:
    80008324:	aaaab537          	lui	a0,0xaaaab
    80008328:	aaa50513          	addi	a0,a0,-1366 # ffffffffaaaaaaaa <absimm+0xfffffffeefd9cfda>
    8000832c:	00b51513          	slli	a0,a0,0xb
    80008330:	55550513          	addi	a0,a0,1365
    80008334:	00b51513          	slli	a0,a0,0xb
    80008338:	2aa50513          	addi	a0,a0,682
    8000833c:	00a51513          	slli	a0,a0,0xa
    80008340:	2ab50513          	addi	a0,a0,683
    80008344:	000005b7          	lui	a1,0x0
    80008348:	00058593          	mv	a1,a1
    8000834c:	00b59593          	slli	a1,a1,0xb
    80008350:	5a858593          	addi	a1,a1,1448 # 5a8 <offset+0x118>
    80008354:	00b59593          	slli	a1,a1,0xb
    80008358:	13c58593          	addi	a1,a1,316
    8000835c:	00a59593          	slli	a1,a1,0xa
    80008360:	33458593          	addi	a1,a1,820
    80008364:	00b52633          	slt	a2,a0,a1
    80008368:	0ac13023          	sd	a2,160(sp)
    8000836c:	00100693          	li	a3,1
    80008370:	00c68463          	beq	a3,a2,80008378 <inst_551>
    80008374:	cb1f706f          	j	80000024 <rvtest_error>

0000000080008378 <inst_551>:
    80008378:	00600513          	li	a0,6
    8000837c:	00300593          	li	a1,3
    80008380:	00b52633          	slt	a2,a0,a1
    80008384:	0ac13423          	sd	a2,168(sp)
    80008388:	00000693          	li	a3,0
    8000838c:	00c68463          	beq	a3,a2,80008394 <inst_552>
    80008390:	c95f706f          	j	80000024 <rvtest_error>

0000000080008394 <inst_552>:
    80008394:	00600513          	li	a0,6
    80008398:	555555b7          	lui	a1,0x55555
    8000839c:	55558593          	addi	a1,a1,1365 # 55555555 <absimmsh+0x49a847a8>
    800083a0:	00b59593          	slli	a1,a1,0xb
    800083a4:	2aa58593          	addi	a1,a1,682
    800083a8:	00b59593          	slli	a1,a1,0xb
    800083ac:	55558593          	addi	a1,a1,1365
    800083b0:	00a59593          	slli	a1,a1,0xa
    800083b4:	15558593          	addi	a1,a1,341
    800083b8:	00b52633          	slt	a2,a0,a1
    800083bc:	0ac13823          	sd	a2,176(sp)
    800083c0:	00100693          	li	a3,1
    800083c4:	00c68463          	beq	a3,a2,800083cc <inst_553>
    800083c8:	c5df706f          	j	80000024 <rvtest_error>

00000000800083cc <inst_553>:
    800083cc:	00600513          	li	a0,6
    800083d0:	aaaab5b7          	lui	a1,0xaaaab
    800083d4:	aaa58593          	addi	a1,a1,-1366 # ffffffffaaaaaaaa <absimm+0xfffffffeefd9cfda>
    800083d8:	00b59593          	slli	a1,a1,0xb
    800083dc:	55558593          	addi	a1,a1,1365
    800083e0:	00b59593          	slli	a1,a1,0xb
    800083e4:	2aa58593          	addi	a1,a1,682
    800083e8:	00a59593          	slli	a1,a1,0xa
    800083ec:	2aa58593          	addi	a1,a1,682
    800083f0:	00b52633          	slt	a2,a0,a1
    800083f4:	0ac13c23          	sd	a2,184(sp)
    800083f8:	00000693          	li	a3,0
    800083fc:	00c68463          	beq	a3,a2,80008404 <inst_554>
    80008400:	c25f706f          	j	80000024 <rvtest_error>

0000000080008404 <inst_554>:
    80008404:	00600513          	li	a0,6
    80008408:	00500593          	li	a1,5
    8000840c:	00b52633          	slt	a2,a0,a1
    80008410:	0cc13023          	sd	a2,192(sp)
    80008414:	00000693          	li	a3,0
    80008418:	00c68463          	beq	a3,a2,80008420 <inst_555>
    8000841c:	c09f706f          	j	80000024 <rvtest_error>

0000000080008420 <inst_555>:
    80008420:	00600513          	li	a0,6
    80008424:	333335b7          	lui	a1,0x33333
    80008428:	33358593          	addi	a1,a1,819 # 33333333 <absimmsh+0x27862586>
    8000842c:	00b59593          	slli	a1,a1,0xb
    80008430:	19958593          	addi	a1,a1,409
    80008434:	00b59593          	slli	a1,a1,0xb
    80008438:	4cc58593          	addi	a1,a1,1228
    8000843c:	00a59593          	slli	a1,a1,0xa
    80008440:	33358593          	addi	a1,a1,819
    80008444:	00b52633          	slt	a2,a0,a1
    80008448:	0cc13423          	sd	a2,200(sp)
    8000844c:	00100693          	li	a3,1
    80008450:	00c68463          	beq	a3,a2,80008458 <inst_556>
    80008454:	bd1f706f          	j	80000024 <rvtest_error>

0000000080008458 <inst_556>:
    80008458:	00600513          	li	a0,6
    8000845c:	666665b7          	lui	a1,0x66666
    80008460:	66658593          	addi	a1,a1,1638 # 66666666 <absimmsh+0x5ab958b9>
    80008464:	00b59593          	slli	a1,a1,0xb
    80008468:	33358593          	addi	a1,a1,819
    8000846c:	00b59593          	slli	a1,a1,0xb
    80008470:	19958593          	addi	a1,a1,409
    80008474:	00a59593          	slli	a1,a1,0xa
    80008478:	26658593          	addi	a1,a1,614
    8000847c:	00b52633          	slt	a2,a0,a1
    80008480:	0cc13823          	sd	a2,208(sp)
    80008484:	00100693          	li	a3,1
    80008488:	00c68463          	beq	a3,a2,80008490 <inst_557>
    8000848c:	b99f706f          	j	80000024 <rvtest_error>

0000000080008490 <inst_557>:
    80008490:	00600513          	li	a0,6
    80008494:	000005b7          	lui	a1,0x0
    80008498:	fff58593          	addi	a1,a1,-1
    8000849c:	00b59593          	slli	a1,a1,0xb
    800084a0:	25758593          	addi	a1,a1,599
    800084a4:	00b59593          	slli	a1,a1,0xb
    800084a8:	6c358593          	addi	a1,a1,1731
    800084ac:	00a59593          	slli	a1,a1,0xa
    800084b0:	0cd58593          	addi	a1,a1,205
    800084b4:	00b52633          	slt	a2,a0,a1
    800084b8:	0cc13c23          	sd	a2,216(sp)
    800084bc:	00000693          	li	a3,0
    800084c0:	00c68463          	beq	a3,a2,800084c8 <inst_558>
    800084c4:	b61f706f          	j	80000024 <rvtest_error>

00000000800084c8 <inst_558>:
    800084c8:	00600513          	li	a0,6
    800084cc:	000005b7          	lui	a1,0x0
    800084d0:	00058593          	mv	a1,a1
    800084d4:	00b59593          	slli	a1,a1,0xb
    800084d8:	5a858593          	addi	a1,a1,1448 # 5a8 <offset+0x118>
    800084dc:	00b59593          	slli	a1,a1,0xb
    800084e0:	13c58593          	addi	a1,a1,316
    800084e4:	00a59593          	slli	a1,a1,0xa
    800084e8:	33358593          	addi	a1,a1,819
    800084ec:	00b52633          	slt	a2,a0,a1
    800084f0:	0ec13023          	sd	a2,224(sp)
    800084f4:	00100693          	li	a3,1
    800084f8:	00c68463          	beq	a3,a2,80008500 <inst_559>
    800084fc:	b29f706f          	j	80000024 <rvtest_error>

0000000080008500 <inst_559>:
    80008500:	00600513          	li	a0,6
    80008504:	00200593          	li	a1,2
    80008508:	00b52633          	slt	a2,a0,a1
    8000850c:	0ec13423          	sd	a2,232(sp)
    80008510:	00000693          	li	a3,0
    80008514:	00c68463          	beq	a3,a2,8000851c <inst_560>
    80008518:	b0df706f          	j	80000024 <rvtest_error>

000000008000851c <inst_560>:
    8000851c:	00600513          	li	a0,6
    80008520:	555555b7          	lui	a1,0x55555
    80008524:	55558593          	addi	a1,a1,1365 # 55555555 <absimmsh+0x49a847a8>
    80008528:	00b59593          	slli	a1,a1,0xb
    8000852c:	2aa58593          	addi	a1,a1,682
    80008530:	00b59593          	slli	a1,a1,0xb
    80008534:	55558593          	addi	a1,a1,1365
    80008538:	00a59593          	slli	a1,a1,0xa
    8000853c:	15458593          	addi	a1,a1,340
    80008540:	00b52633          	slt	a2,a0,a1
    80008544:	0ec13823          	sd	a2,240(sp)
    80008548:	00100693          	li	a3,1
    8000854c:	00c68463          	beq	a3,a2,80008554 <inst_561>
    80008550:	ad5f706f          	j	80000024 <rvtest_error>

0000000080008554 <inst_561>:
    80008554:	00600513          	li	a0,6
    80008558:	00000593          	li	a1,0
    8000855c:	00b52633          	slt	a2,a0,a1
    80008560:	0ec13c23          	sd	a2,248(sp)
    80008564:	00000693          	li	a3,0
    80008568:	00c68463          	beq	a3,a2,80008570 <inst_562>
    8000856c:	ab9f706f          	j	80000024 <rvtest_error>

0000000080008570 <inst_562>:
    80008570:	00600513          	li	a0,6
    80008574:	00400593          	li	a1,4
    80008578:	00b52633          	slt	a2,a0,a1
    8000857c:	10c13023          	sd	a2,256(sp)
    80008580:	00000693          	li	a3,0
    80008584:	00c68463          	beq	a3,a2,8000858c <inst_563>
    80008588:	a9df706f          	j	80000024 <rvtest_error>

000000008000858c <inst_563>:
    8000858c:	00600513          	li	a0,6
    80008590:	333335b7          	lui	a1,0x33333
    80008594:	33358593          	addi	a1,a1,819 # 33333333 <absimmsh+0x27862586>
    80008598:	00b59593          	slli	a1,a1,0xb
    8000859c:	19958593          	addi	a1,a1,409
    800085a0:	00b59593          	slli	a1,a1,0xb
    800085a4:	4cc58593          	addi	a1,a1,1228
    800085a8:	00a59593          	slli	a1,a1,0xa
    800085ac:	33258593          	addi	a1,a1,818
    800085b0:	00b52633          	slt	a2,a0,a1
    800085b4:	10c13423          	sd	a2,264(sp)
    800085b8:	00100693          	li	a3,1
    800085bc:	00c68463          	beq	a3,a2,800085c4 <inst_564>
    800085c0:	a65f706f          	j	80000024 <rvtest_error>

00000000800085c4 <inst_564>:
    800085c4:	00600513          	li	a0,6
    800085c8:	666665b7          	lui	a1,0x66666
    800085cc:	66658593          	addi	a1,a1,1638 # 66666666 <absimmsh+0x5ab958b9>
    800085d0:	00b59593          	slli	a1,a1,0xb
    800085d4:	33358593          	addi	a1,a1,819
    800085d8:	00b59593          	slli	a1,a1,0xb
    800085dc:	19958593          	addi	a1,a1,409
    800085e0:	00a59593          	slli	a1,a1,0xa
    800085e4:	26558593          	addi	a1,a1,613
    800085e8:	00b52633          	slt	a2,a0,a1
    800085ec:	10c13823          	sd	a2,272(sp)
    800085f0:	00100693          	li	a3,1
    800085f4:	00c68463          	beq	a3,a2,800085fc <inst_565>
    800085f8:	a2df706f          	j	80000024 <rvtest_error>

00000000800085fc <inst_565>:
    800085fc:	00600513          	li	a0,6
    80008600:	000005b7          	lui	a1,0x0
    80008604:	00058593          	mv	a1,a1
    80008608:	00b59593          	slli	a1,a1,0xb
    8000860c:	5a858593          	addi	a1,a1,1448 # 5a8 <offset+0x118>
    80008610:	00b59593          	slli	a1,a1,0xb
    80008614:	13c58593          	addi	a1,a1,316
    80008618:	00a59593          	slli	a1,a1,0xa
    8000861c:	33258593          	addi	a1,a1,818
    80008620:	00b52633          	slt	a2,a0,a1
    80008624:	10c13c23          	sd	a2,280(sp)
    80008628:	00100693          	li	a3,1
    8000862c:	00c68463          	beq	a3,a2,80008634 <inst_566>
    80008630:	9f5f706f          	j	80000024 <rvtest_error>

0000000080008634 <inst_566>:
    80008634:	00600513          	li	a0,6
    80008638:	555555b7          	lui	a1,0x55555
    8000863c:	55558593          	addi	a1,a1,1365 # 55555555 <absimmsh+0x49a847a8>
    80008640:	00b59593          	slli	a1,a1,0xb
    80008644:	2aa58593          	addi	a1,a1,682
    80008648:	00b59593          	slli	a1,a1,0xb
    8000864c:	55558593          	addi	a1,a1,1365
    80008650:	00a59593          	slli	a1,a1,0xa
    80008654:	15658593          	addi	a1,a1,342
    80008658:	00b52633          	slt	a2,a0,a1
    8000865c:	12c13023          	sd	a2,288(sp)
    80008660:	00100693          	li	a3,1
    80008664:	00c68463          	beq	a3,a2,8000866c <inst_567>
    80008668:	9bdf706f          	j	80000024 <rvtest_error>

000000008000866c <inst_567>:
    8000866c:	00600513          	li	a0,6
    80008670:	aaaab5b7          	lui	a1,0xaaaab
    80008674:	aaa58593          	addi	a1,a1,-1366 # ffffffffaaaaaaaa <absimm+0xfffffffeefd9cfda>
    80008678:	00b59593          	slli	a1,a1,0xb
    8000867c:	55558593          	addi	a1,a1,1365
    80008680:	00b59593          	slli	a1,a1,0xb
    80008684:	2aa58593          	addi	a1,a1,682
    80008688:	00a59593          	slli	a1,a1,0xa
    8000868c:	2ab58593          	addi	a1,a1,683
    80008690:	00b52633          	slt	a2,a0,a1
    80008694:	12c13423          	sd	a2,296(sp)
    80008698:	00000693          	li	a3,0
    8000869c:	00c68463          	beq	a3,a2,800086a4 <inst_568>
    800086a0:	985f706f          	j	80000024 <rvtest_error>

00000000800086a4 <inst_568>:
    800086a4:	00600513          	li	a0,6
    800086a8:	00600593          	li	a1,6
    800086ac:	00b52633          	slt	a2,a0,a1
    800086b0:	12c13823          	sd	a2,304(sp)
    800086b4:	00000693          	li	a3,0
    800086b8:	00c68463          	beq	a3,a2,800086c0 <inst_569>
    800086bc:	969f706f          	j	80000024 <rvtest_error>

00000000800086c0 <inst_569>:
    800086c0:	00600513          	li	a0,6
    800086c4:	333335b7          	lui	a1,0x33333
    800086c8:	33358593          	addi	a1,a1,819 # 33333333 <absimmsh+0x27862586>
    800086cc:	00b59593          	slli	a1,a1,0xb
    800086d0:	19958593          	addi	a1,a1,409
    800086d4:	00b59593          	slli	a1,a1,0xb
    800086d8:	4cc58593          	addi	a1,a1,1228
    800086dc:	00a59593          	slli	a1,a1,0xa
    800086e0:	33458593          	addi	a1,a1,820
    800086e4:	00b52633          	slt	a2,a0,a1
    800086e8:	12c13c23          	sd	a2,312(sp)
    800086ec:	00100693          	li	a3,1
    800086f0:	00c68463          	beq	a3,a2,800086f8 <inst_570>
    800086f4:	931f706f          	j	80000024 <rvtest_error>

00000000800086f8 <inst_570>:
    800086f8:	00600513          	li	a0,6
    800086fc:	666665b7          	lui	a1,0x66666
    80008700:	66658593          	addi	a1,a1,1638 # 66666666 <absimmsh+0x5ab958b9>
    80008704:	00b59593          	slli	a1,a1,0xb
    80008708:	33358593          	addi	a1,a1,819
    8000870c:	00b59593          	slli	a1,a1,0xb
    80008710:	19958593          	addi	a1,a1,409
    80008714:	00a59593          	slli	a1,a1,0xa
    80008718:	26758593          	addi	a1,a1,615
    8000871c:	00b52633          	slt	a2,a0,a1
    80008720:	14c13023          	sd	a2,320(sp)
    80008724:	00100693          	li	a3,1
    80008728:	00c68463          	beq	a3,a2,80008730 <inst_571>
    8000872c:	8f9f706f          	j	80000024 <rvtest_error>

0000000080008730 <inst_571>:
    80008730:	00600513          	li	a0,6
    80008734:	000005b7          	lui	a1,0x0
    80008738:	fff58593          	addi	a1,a1,-1
    8000873c:	00b59593          	slli	a1,a1,0xb
    80008740:	25758593          	addi	a1,a1,599
    80008744:	00b59593          	slli	a1,a1,0xb
    80008748:	6c358593          	addi	a1,a1,1731
    8000874c:	00a59593          	slli	a1,a1,0xa
    80008750:	0ce58593          	addi	a1,a1,206
    80008754:	00b52633          	slt	a2,a0,a1
    80008758:	14c13423          	sd	a2,328(sp)
    8000875c:	00000693          	li	a3,0
    80008760:	00c68463          	beq	a3,a2,80008768 <inst_572>
    80008764:	8c1f706f          	j	80000024 <rvtest_error>

0000000080008768 <inst_572>:
    80008768:	00600513          	li	a0,6
    8000876c:	000005b7          	lui	a1,0x0
    80008770:	00058593          	mv	a1,a1
    80008774:	00b59593          	slli	a1,a1,0xb
    80008778:	5a858593          	addi	a1,a1,1448 # 5a8 <offset+0x118>
    8000877c:	00b59593          	slli	a1,a1,0xb
    80008780:	13c58593          	addi	a1,a1,316
    80008784:	00a59593          	slli	a1,a1,0xa
    80008788:	33458593          	addi	a1,a1,820
    8000878c:	00b52633          	slt	a2,a0,a1
    80008790:	14c13823          	sd	a2,336(sp)
    80008794:	00100693          	li	a3,1
    80008798:	00c68463          	beq	a3,a2,800087a0 <inst_573>
    8000879c:	889f706f          	j	80000024 <rvtest_error>

00000000800087a0 <inst_573>:
    800087a0:	33333537          	lui	a0,0x33333
    800087a4:	33350513          	addi	a0,a0,819 # 33333333 <absimmsh+0x27862586>
    800087a8:	00b51513          	slli	a0,a0,0xb
    800087ac:	19950513          	addi	a0,a0,409
    800087b0:	00b51513          	slli	a0,a0,0xb
    800087b4:	4cc50513          	addi	a0,a0,1228
    800087b8:	00a51513          	slli	a0,a0,0xa
    800087bc:	33450513          	addi	a0,a0,820
    800087c0:	00300593          	li	a1,3
    800087c4:	00b52633          	slt	a2,a0,a1
    800087c8:	14c13c23          	sd	a2,344(sp)
    800087cc:	00000693          	li	a3,0
    800087d0:	00c68463          	beq	a3,a2,800087d8 <inst_574>
    800087d4:	851f706f          	j	80000024 <rvtest_error>

00000000800087d8 <inst_574>:
    800087d8:	33333537          	lui	a0,0x33333
    800087dc:	33350513          	addi	a0,a0,819 # 33333333 <absimmsh+0x27862586>
    800087e0:	00b51513          	slli	a0,a0,0xb
    800087e4:	19950513          	addi	a0,a0,409
    800087e8:	00b51513          	slli	a0,a0,0xb
    800087ec:	4cc50513          	addi	a0,a0,1228
    800087f0:	00a51513          	slli	a0,a0,0xa
    800087f4:	33450513          	addi	a0,a0,820
    800087f8:	555555b7          	lui	a1,0x55555
    800087fc:	55558593          	addi	a1,a1,1365 # 55555555 <absimmsh+0x49a847a8>
    80008800:	00b59593          	slli	a1,a1,0xb
    80008804:	2aa58593          	addi	a1,a1,682
    80008808:	00b59593          	slli	a1,a1,0xb
    8000880c:	55558593          	addi	a1,a1,1365
    80008810:	00a59593          	slli	a1,a1,0xa
    80008814:	15558593          	addi	a1,a1,341
    80008818:	00b52633          	slt	a2,a0,a1
    8000881c:	16c13023          	sd	a2,352(sp)
    80008820:	00100693          	li	a3,1
    80008824:	00c68463          	beq	a3,a2,8000882c <inst_575>
    80008828:	ffcf706f          	j	80000024 <rvtest_error>

000000008000882c <inst_575>:
    8000882c:	33333537          	lui	a0,0x33333
    80008830:	33350513          	addi	a0,a0,819 # 33333333 <absimmsh+0x27862586>
    80008834:	00b51513          	slli	a0,a0,0xb
    80008838:	19950513          	addi	a0,a0,409
    8000883c:	00b51513          	slli	a0,a0,0xb
    80008840:	4cc50513          	addi	a0,a0,1228
    80008844:	00a51513          	slli	a0,a0,0xa
    80008848:	33450513          	addi	a0,a0,820
    8000884c:	aaaab5b7          	lui	a1,0xaaaab
    80008850:	aaa58593          	addi	a1,a1,-1366 # ffffffffaaaaaaaa <absimm+0xfffffffeefd9cfda>
    80008854:	00b59593          	slli	a1,a1,0xb
    80008858:	55558593          	addi	a1,a1,1365
    8000885c:	00b59593          	slli	a1,a1,0xb
    80008860:	2aa58593          	addi	a1,a1,682
    80008864:	00a59593          	slli	a1,a1,0xa
    80008868:	2aa58593          	addi	a1,a1,682
    8000886c:	00b52633          	slt	a2,a0,a1
    80008870:	16c13423          	sd	a2,360(sp)
    80008874:	00000693          	li	a3,0
    80008878:	00c68463          	beq	a3,a2,80008880 <inst_576>
    8000887c:	fa8f706f          	j	80000024 <rvtest_error>

0000000080008880 <inst_576>:
    80008880:	33333537          	lui	a0,0x33333
    80008884:	33350513          	addi	a0,a0,819 # 33333333 <absimmsh+0x27862586>
    80008888:	00b51513          	slli	a0,a0,0xb
    8000888c:	19950513          	addi	a0,a0,409
    80008890:	00b51513          	slli	a0,a0,0xb
    80008894:	4cc50513          	addi	a0,a0,1228
    80008898:	00a51513          	slli	a0,a0,0xa
    8000889c:	33450513          	addi	a0,a0,820
    800088a0:	00500593          	li	a1,5
    800088a4:	00b52633          	slt	a2,a0,a1
    800088a8:	16c13823          	sd	a2,368(sp)
    800088ac:	00000693          	li	a3,0
    800088b0:	00c68463          	beq	a3,a2,800088b8 <inst_577>
    800088b4:	f70f706f          	j	80000024 <rvtest_error>

00000000800088b8 <inst_577>:
    800088b8:	33333537          	lui	a0,0x33333
    800088bc:	33350513          	addi	a0,a0,819 # 33333333 <absimmsh+0x27862586>
    800088c0:	00b51513          	slli	a0,a0,0xb
    800088c4:	19950513          	addi	a0,a0,409
    800088c8:	00b51513          	slli	a0,a0,0xb
    800088cc:	4cc50513          	addi	a0,a0,1228
    800088d0:	00a51513          	slli	a0,a0,0xa
    800088d4:	33450513          	addi	a0,a0,820
    800088d8:	333335b7          	lui	a1,0x33333
    800088dc:	33358593          	addi	a1,a1,819 # 33333333 <absimmsh+0x27862586>
    800088e0:	00b59593          	slli	a1,a1,0xb
    800088e4:	19958593          	addi	a1,a1,409
    800088e8:	00b59593          	slli	a1,a1,0xb
    800088ec:	4cc58593          	addi	a1,a1,1228
    800088f0:	00a59593          	slli	a1,a1,0xa
    800088f4:	33358593          	addi	a1,a1,819
    800088f8:	00b52633          	slt	a2,a0,a1
    800088fc:	16c13c23          	sd	a2,376(sp)
    80008900:	00000693          	li	a3,0
    80008904:	00c68463          	beq	a3,a2,8000890c <inst_578>
    80008908:	f1cf706f          	j	80000024 <rvtest_error>

000000008000890c <inst_578>:
    8000890c:	33333537          	lui	a0,0x33333
    80008910:	33350513          	addi	a0,a0,819 # 33333333 <absimmsh+0x27862586>
    80008914:	00b51513          	slli	a0,a0,0xb
    80008918:	19950513          	addi	a0,a0,409
    8000891c:	00b51513          	slli	a0,a0,0xb
    80008920:	4cc50513          	addi	a0,a0,1228
    80008924:	00a51513          	slli	a0,a0,0xa
    80008928:	33450513          	addi	a0,a0,820
    8000892c:	666665b7          	lui	a1,0x66666
    80008930:	66658593          	addi	a1,a1,1638 # 66666666 <absimmsh+0x5ab958b9>
    80008934:	00b59593          	slli	a1,a1,0xb
    80008938:	33358593          	addi	a1,a1,819
    8000893c:	00b59593          	slli	a1,a1,0xb
    80008940:	19958593          	addi	a1,a1,409
    80008944:	00a59593          	slli	a1,a1,0xa
    80008948:	26658593          	addi	a1,a1,614
    8000894c:	00b52633          	slt	a2,a0,a1
    80008950:	18c13023          	sd	a2,384(sp)
    80008954:	00100693          	li	a3,1
    80008958:	00c68463          	beq	a3,a2,80008960 <inst_579>
    8000895c:	ec8f706f          	j	80000024 <rvtest_error>

0000000080008960 <inst_579>:
    80008960:	33333537          	lui	a0,0x33333
    80008964:	33350513          	addi	a0,a0,819 # 33333333 <absimmsh+0x27862586>
    80008968:	00b51513          	slli	a0,a0,0xb
    8000896c:	19950513          	addi	a0,a0,409
    80008970:	00b51513          	slli	a0,a0,0xb
    80008974:	4cc50513          	addi	a0,a0,1228
    80008978:	00a51513          	slli	a0,a0,0xa
    8000897c:	33450513          	addi	a0,a0,820
    80008980:	000005b7          	lui	a1,0x0
    80008984:	fff58593          	addi	a1,a1,-1
    80008988:	00b59593          	slli	a1,a1,0xb
    8000898c:	25758593          	addi	a1,a1,599
    80008990:	00b59593          	slli	a1,a1,0xb
    80008994:	6c358593          	addi	a1,a1,1731
    80008998:	00a59593          	slli	a1,a1,0xa
    8000899c:	0cd58593          	addi	a1,a1,205
    800089a0:	00b52633          	slt	a2,a0,a1
    800089a4:	18c13423          	sd	a2,392(sp)
    800089a8:	00000693          	li	a3,0
    800089ac:	00c68463          	beq	a3,a2,800089b4 <inst_580>
    800089b0:	e74f706f          	j	80000024 <rvtest_error>

00000000800089b4 <inst_580>:
    800089b4:	33333537          	lui	a0,0x33333
    800089b8:	33350513          	addi	a0,a0,819 # 33333333 <absimmsh+0x27862586>
    800089bc:	00b51513          	slli	a0,a0,0xb
    800089c0:	19950513          	addi	a0,a0,409
    800089c4:	00b51513          	slli	a0,a0,0xb
    800089c8:	4cc50513          	addi	a0,a0,1228
    800089cc:	00a51513          	slli	a0,a0,0xa
    800089d0:	33450513          	addi	a0,a0,820
    800089d4:	000005b7          	lui	a1,0x0
    800089d8:	00058593          	mv	a1,a1
    800089dc:	00b59593          	slli	a1,a1,0xb
    800089e0:	5a858593          	addi	a1,a1,1448 # 5a8 <offset+0x118>
    800089e4:	00b59593          	slli	a1,a1,0xb
    800089e8:	13c58593          	addi	a1,a1,316
    800089ec:	00a59593          	slli	a1,a1,0xa
    800089f0:	33358593          	addi	a1,a1,819
    800089f4:	00b52633          	slt	a2,a0,a1
    800089f8:	18c13823          	sd	a2,400(sp)
    800089fc:	00000693          	li	a3,0
    80008a00:	00c68463          	beq	a3,a2,80008a08 <inst_581>
    80008a04:	e20f706f          	j	80000024 <rvtest_error>

0000000080008a08 <inst_581>:
    80008a08:	33333537          	lui	a0,0x33333
    80008a0c:	33350513          	addi	a0,a0,819 # 33333333 <absimmsh+0x27862586>
    80008a10:	00b51513          	slli	a0,a0,0xb
    80008a14:	19950513          	addi	a0,a0,409
    80008a18:	00b51513          	slli	a0,a0,0xb
    80008a1c:	4cc50513          	addi	a0,a0,1228
    80008a20:	00a51513          	slli	a0,a0,0xa
    80008a24:	33450513          	addi	a0,a0,820
    80008a28:	00200593          	li	a1,2
    80008a2c:	00b52633          	slt	a2,a0,a1
    80008a30:	18c13c23          	sd	a2,408(sp)
    80008a34:	00000693          	li	a3,0
    80008a38:	00c68463          	beq	a3,a2,80008a40 <inst_582>
    80008a3c:	de8f706f          	j	80000024 <rvtest_error>

0000000080008a40 <inst_582>:
    80008a40:	33333537          	lui	a0,0x33333
    80008a44:	33350513          	addi	a0,a0,819 # 33333333 <absimmsh+0x27862586>
    80008a48:	00b51513          	slli	a0,a0,0xb
    80008a4c:	19950513          	addi	a0,a0,409
    80008a50:	00b51513          	slli	a0,a0,0xb
    80008a54:	4cc50513          	addi	a0,a0,1228
    80008a58:	00a51513          	slli	a0,a0,0xa
    80008a5c:	33450513          	addi	a0,a0,820
    80008a60:	555555b7          	lui	a1,0x55555
    80008a64:	55558593          	addi	a1,a1,1365 # 55555555 <absimmsh+0x49a847a8>
    80008a68:	00b59593          	slli	a1,a1,0xb
    80008a6c:	2aa58593          	addi	a1,a1,682
    80008a70:	00b59593          	slli	a1,a1,0xb
    80008a74:	55558593          	addi	a1,a1,1365
    80008a78:	00a59593          	slli	a1,a1,0xa
    80008a7c:	15458593          	addi	a1,a1,340
    80008a80:	00b52633          	slt	a2,a0,a1
    80008a84:	1ac13023          	sd	a2,416(sp)
    80008a88:	00100693          	li	a3,1
    80008a8c:	00c68463          	beq	a3,a2,80008a94 <inst_583>
    80008a90:	d94f706f          	j	80000024 <rvtest_error>

0000000080008a94 <inst_583>:
    80008a94:	33333537          	lui	a0,0x33333
    80008a98:	33350513          	addi	a0,a0,819 # 33333333 <absimmsh+0x27862586>
    80008a9c:	00b51513          	slli	a0,a0,0xb
    80008aa0:	19950513          	addi	a0,a0,409
    80008aa4:	00b51513          	slli	a0,a0,0xb
    80008aa8:	4cc50513          	addi	a0,a0,1228
    80008aac:	00a51513          	slli	a0,a0,0xa
    80008ab0:	33450513          	addi	a0,a0,820
    80008ab4:	00000593          	li	a1,0
    80008ab8:	00b52633          	slt	a2,a0,a1
    80008abc:	1ac13423          	sd	a2,424(sp)
    80008ac0:	00000693          	li	a3,0
    80008ac4:	00c68463          	beq	a3,a2,80008acc <inst_584>
    80008ac8:	d5cf706f          	j	80000024 <rvtest_error>

0000000080008acc <inst_584>:
    80008acc:	33333537          	lui	a0,0x33333
    80008ad0:	33350513          	addi	a0,a0,819 # 33333333 <absimmsh+0x27862586>
    80008ad4:	00b51513          	slli	a0,a0,0xb
    80008ad8:	19950513          	addi	a0,a0,409
    80008adc:	00b51513          	slli	a0,a0,0xb
    80008ae0:	4cc50513          	addi	a0,a0,1228
    80008ae4:	00a51513          	slli	a0,a0,0xa
    80008ae8:	33450513          	addi	a0,a0,820
    80008aec:	00400593          	li	a1,4
    80008af0:	00b52633          	slt	a2,a0,a1
    80008af4:	1ac13823          	sd	a2,432(sp)
    80008af8:	00000693          	li	a3,0
    80008afc:	00c68463          	beq	a3,a2,80008b04 <inst_585>
    80008b00:	d24f706f          	j	80000024 <rvtest_error>

0000000080008b04 <inst_585>:
    80008b04:	33333537          	lui	a0,0x33333
    80008b08:	33350513          	addi	a0,a0,819 # 33333333 <absimmsh+0x27862586>
    80008b0c:	00b51513          	slli	a0,a0,0xb
    80008b10:	19950513          	addi	a0,a0,409
    80008b14:	00b51513          	slli	a0,a0,0xb
    80008b18:	4cc50513          	addi	a0,a0,1228
    80008b1c:	00a51513          	slli	a0,a0,0xa
    80008b20:	33450513          	addi	a0,a0,820
    80008b24:	333335b7          	lui	a1,0x33333
    80008b28:	33358593          	addi	a1,a1,819 # 33333333 <absimmsh+0x27862586>
    80008b2c:	00b59593          	slli	a1,a1,0xb
    80008b30:	19958593          	addi	a1,a1,409
    80008b34:	00b59593          	slli	a1,a1,0xb
    80008b38:	4cc58593          	addi	a1,a1,1228
    80008b3c:	00a59593          	slli	a1,a1,0xa
    80008b40:	33258593          	addi	a1,a1,818
    80008b44:	00b52633          	slt	a2,a0,a1
    80008b48:	1ac13c23          	sd	a2,440(sp)
    80008b4c:	00000693          	li	a3,0
    80008b50:	00c68463          	beq	a3,a2,80008b58 <inst_586>
    80008b54:	cd0f706f          	j	80000024 <rvtest_error>

0000000080008b58 <inst_586>:
    80008b58:	33333537          	lui	a0,0x33333
    80008b5c:	33350513          	addi	a0,a0,819 # 33333333 <absimmsh+0x27862586>
    80008b60:	00b51513          	slli	a0,a0,0xb
    80008b64:	19950513          	addi	a0,a0,409
    80008b68:	00b51513          	slli	a0,a0,0xb
    80008b6c:	4cc50513          	addi	a0,a0,1228
    80008b70:	00a51513          	slli	a0,a0,0xa
    80008b74:	33450513          	addi	a0,a0,820
    80008b78:	666665b7          	lui	a1,0x66666
    80008b7c:	66658593          	addi	a1,a1,1638 # 66666666 <absimmsh+0x5ab958b9>
    80008b80:	00b59593          	slli	a1,a1,0xb
    80008b84:	33358593          	addi	a1,a1,819
    80008b88:	00b59593          	slli	a1,a1,0xb
    80008b8c:	19958593          	addi	a1,a1,409
    80008b90:	00a59593          	slli	a1,a1,0xa
    80008b94:	26558593          	addi	a1,a1,613
    80008b98:	00b52633          	slt	a2,a0,a1
    80008b9c:	1cc13023          	sd	a2,448(sp)
    80008ba0:	00100693          	li	a3,1
    80008ba4:	00c68463          	beq	a3,a2,80008bac <inst_587>
    80008ba8:	c7cf706f          	j	80000024 <rvtest_error>

0000000080008bac <inst_587>:
    80008bac:	33333537          	lui	a0,0x33333
    80008bb0:	33350513          	addi	a0,a0,819 # 33333333 <absimmsh+0x27862586>
    80008bb4:	00b51513          	slli	a0,a0,0xb
    80008bb8:	19950513          	addi	a0,a0,409
    80008bbc:	00b51513          	slli	a0,a0,0xb
    80008bc0:	4cc50513          	addi	a0,a0,1228
    80008bc4:	00a51513          	slli	a0,a0,0xa
    80008bc8:	33450513          	addi	a0,a0,820
    80008bcc:	000005b7          	lui	a1,0x0
    80008bd0:	00058593          	mv	a1,a1
    80008bd4:	00b59593          	slli	a1,a1,0xb
    80008bd8:	5a858593          	addi	a1,a1,1448 # 5a8 <offset+0x118>
    80008bdc:	00b59593          	slli	a1,a1,0xb
    80008be0:	13c58593          	addi	a1,a1,316
    80008be4:	00a59593          	slli	a1,a1,0xa
    80008be8:	33258593          	addi	a1,a1,818
    80008bec:	00b52633          	slt	a2,a0,a1
    80008bf0:	1cc13423          	sd	a2,456(sp)
    80008bf4:	00000693          	li	a3,0
    80008bf8:	00c68463          	beq	a3,a2,80008c00 <inst_588>
    80008bfc:	c28f706f          	j	80000024 <rvtest_error>

0000000080008c00 <inst_588>:
    80008c00:	33333537          	lui	a0,0x33333
    80008c04:	33350513          	addi	a0,a0,819 # 33333333 <absimmsh+0x27862586>
    80008c08:	00b51513          	slli	a0,a0,0xb
    80008c0c:	19950513          	addi	a0,a0,409
    80008c10:	00b51513          	slli	a0,a0,0xb
    80008c14:	4cc50513          	addi	a0,a0,1228
    80008c18:	00a51513          	slli	a0,a0,0xa
    80008c1c:	33450513          	addi	a0,a0,820
    80008c20:	555555b7          	lui	a1,0x55555
    80008c24:	55558593          	addi	a1,a1,1365 # 55555555 <absimmsh+0x49a847a8>
    80008c28:	00b59593          	slli	a1,a1,0xb
    80008c2c:	2aa58593          	addi	a1,a1,682
    80008c30:	00b59593          	slli	a1,a1,0xb
    80008c34:	55558593          	addi	a1,a1,1365
    80008c38:	00a59593          	slli	a1,a1,0xa
    80008c3c:	15658593          	addi	a1,a1,342
    80008c40:	00b52633          	slt	a2,a0,a1
    80008c44:	1cc13823          	sd	a2,464(sp)
    80008c48:	00100693          	li	a3,1
    80008c4c:	00c68463          	beq	a3,a2,80008c54 <inst_589>
    80008c50:	bd4f706f          	j	80000024 <rvtest_error>

0000000080008c54 <inst_589>:
    80008c54:	33333537          	lui	a0,0x33333
    80008c58:	33350513          	addi	a0,a0,819 # 33333333 <absimmsh+0x27862586>
    80008c5c:	00b51513          	slli	a0,a0,0xb
    80008c60:	19950513          	addi	a0,a0,409
    80008c64:	00b51513          	slli	a0,a0,0xb
    80008c68:	4cc50513          	addi	a0,a0,1228
    80008c6c:	00a51513          	slli	a0,a0,0xa
    80008c70:	33450513          	addi	a0,a0,820
    80008c74:	aaaab5b7          	lui	a1,0xaaaab
    80008c78:	aaa58593          	addi	a1,a1,-1366 # ffffffffaaaaaaaa <absimm+0xfffffffeefd9cfda>
    80008c7c:	00b59593          	slli	a1,a1,0xb
    80008c80:	55558593          	addi	a1,a1,1365
    80008c84:	00b59593          	slli	a1,a1,0xb
    80008c88:	2aa58593          	addi	a1,a1,682
    80008c8c:	00a59593          	slli	a1,a1,0xa
    80008c90:	2ab58593          	addi	a1,a1,683
    80008c94:	00b52633          	slt	a2,a0,a1
    80008c98:	1cc13c23          	sd	a2,472(sp)
    80008c9c:	00000693          	li	a3,0
    80008ca0:	00c68463          	beq	a3,a2,80008ca8 <inst_590>
    80008ca4:	b80f706f          	j	80000024 <rvtest_error>

0000000080008ca8 <inst_590>:
    80008ca8:	33333537          	lui	a0,0x33333
    80008cac:	33350513          	addi	a0,a0,819 # 33333333 <absimmsh+0x27862586>
    80008cb0:	00b51513          	slli	a0,a0,0xb
    80008cb4:	19950513          	addi	a0,a0,409
    80008cb8:	00b51513          	slli	a0,a0,0xb
    80008cbc:	4cc50513          	addi	a0,a0,1228
    80008cc0:	00a51513          	slli	a0,a0,0xa
    80008cc4:	33450513          	addi	a0,a0,820
    80008cc8:	00600593          	li	a1,6
    80008ccc:	00b52633          	slt	a2,a0,a1
    80008cd0:	1ec13023          	sd	a2,480(sp)
    80008cd4:	00000693          	li	a3,0
    80008cd8:	00c68463          	beq	a3,a2,80008ce0 <inst_591>
    80008cdc:	b48f706f          	j	80000024 <rvtest_error>

0000000080008ce0 <inst_591>:
    80008ce0:	33333537          	lui	a0,0x33333
    80008ce4:	33350513          	addi	a0,a0,819 # 33333333 <absimmsh+0x27862586>
    80008ce8:	00b51513          	slli	a0,a0,0xb
    80008cec:	19950513          	addi	a0,a0,409
    80008cf0:	00b51513          	slli	a0,a0,0xb
    80008cf4:	4cc50513          	addi	a0,a0,1228
    80008cf8:	00a51513          	slli	a0,a0,0xa
    80008cfc:	33450513          	addi	a0,a0,820
    80008d00:	333335b7          	lui	a1,0x33333
    80008d04:	33358593          	addi	a1,a1,819 # 33333333 <absimmsh+0x27862586>
    80008d08:	00b59593          	slli	a1,a1,0xb
    80008d0c:	19958593          	addi	a1,a1,409
    80008d10:	00b59593          	slli	a1,a1,0xb
    80008d14:	4cc58593          	addi	a1,a1,1228
    80008d18:	00a59593          	slli	a1,a1,0xa
    80008d1c:	33458593          	addi	a1,a1,820
    80008d20:	00b52633          	slt	a2,a0,a1
    80008d24:	1ec13423          	sd	a2,488(sp)
    80008d28:	00000693          	li	a3,0
    80008d2c:	00c68463          	beq	a3,a2,80008d34 <inst_592>
    80008d30:	af4f706f          	j	80000024 <rvtest_error>

0000000080008d34 <inst_592>:
    80008d34:	33333537          	lui	a0,0x33333
    80008d38:	33350513          	addi	a0,a0,819 # 33333333 <absimmsh+0x27862586>
    80008d3c:	00b51513          	slli	a0,a0,0xb
    80008d40:	19950513          	addi	a0,a0,409
    80008d44:	00b51513          	slli	a0,a0,0xb
    80008d48:	4cc50513          	addi	a0,a0,1228
    80008d4c:	00a51513          	slli	a0,a0,0xa
    80008d50:	33450513          	addi	a0,a0,820
    80008d54:	666665b7          	lui	a1,0x66666
    80008d58:	66658593          	addi	a1,a1,1638 # 66666666 <absimmsh+0x5ab958b9>
    80008d5c:	00b59593          	slli	a1,a1,0xb
    80008d60:	33358593          	addi	a1,a1,819
    80008d64:	00b59593          	slli	a1,a1,0xb
    80008d68:	19958593          	addi	a1,a1,409
    80008d6c:	00a59593          	slli	a1,a1,0xa
    80008d70:	26758593          	addi	a1,a1,615
    80008d74:	00b52633          	slt	a2,a0,a1
    80008d78:	1ec13823          	sd	a2,496(sp)
    80008d7c:	00100693          	li	a3,1
    80008d80:	00c68463          	beq	a3,a2,80008d88 <inst_593>
    80008d84:	aa0f706f          	j	80000024 <rvtest_error>

0000000080008d88 <inst_593>:
    80008d88:	33333537          	lui	a0,0x33333
    80008d8c:	33350513          	addi	a0,a0,819 # 33333333 <absimmsh+0x27862586>
    80008d90:	00b51513          	slli	a0,a0,0xb
    80008d94:	19950513          	addi	a0,a0,409
    80008d98:	00b51513          	slli	a0,a0,0xb
    80008d9c:	4cc50513          	addi	a0,a0,1228
    80008da0:	00a51513          	slli	a0,a0,0xa
    80008da4:	33450513          	addi	a0,a0,820
    80008da8:	000005b7          	lui	a1,0x0
    80008dac:	fff58593          	addi	a1,a1,-1
    80008db0:	00b59593          	slli	a1,a1,0xb
    80008db4:	25758593          	addi	a1,a1,599
    80008db8:	00b59593          	slli	a1,a1,0xb
    80008dbc:	6c358593          	addi	a1,a1,1731
    80008dc0:	00a59593          	slli	a1,a1,0xa
    80008dc4:	0ce58593          	addi	a1,a1,206
    80008dc8:	00b52633          	slt	a2,a0,a1
    80008dcc:	1ec13c23          	sd	a2,504(sp)
    80008dd0:	00000693          	li	a3,0
    80008dd4:	00c68463          	beq	a3,a2,80008ddc <inst_594>
    80008dd8:	a4cf706f          	j	80000024 <rvtest_error>

0000000080008ddc <inst_594>:
    80008ddc:	33333537          	lui	a0,0x33333
    80008de0:	33350513          	addi	a0,a0,819 # 33333333 <absimmsh+0x27862586>
    80008de4:	00b51513          	slli	a0,a0,0xb
    80008de8:	19950513          	addi	a0,a0,409
    80008dec:	00b51513          	slli	a0,a0,0xb
    80008df0:	4cc50513          	addi	a0,a0,1228
    80008df4:	00a51513          	slli	a0,a0,0xa
    80008df8:	33450513          	addi	a0,a0,820
    80008dfc:	000005b7          	lui	a1,0x0
    80008e00:	00058593          	mv	a1,a1
    80008e04:	00b59593          	slli	a1,a1,0xb
    80008e08:	5a858593          	addi	a1,a1,1448 # 5a8 <offset+0x118>
    80008e0c:	00b59593          	slli	a1,a1,0xb
    80008e10:	13c58593          	addi	a1,a1,316
    80008e14:	00a59593          	slli	a1,a1,0xa
    80008e18:	33458593          	addi	a1,a1,820
    80008e1c:	00b52633          	slt	a2,a0,a1
    80008e20:	20c13023          	sd	a2,512(sp)
    80008e24:	00000693          	li	a3,0
    80008e28:	00c68463          	beq	a3,a2,80008e30 <inst_595>
    80008e2c:	9f8f706f          	j	80000024 <rvtest_error>

0000000080008e30 <inst_595>:
    80008e30:	66666537          	lui	a0,0x66666
    80008e34:	66650513          	addi	a0,a0,1638 # 66666666 <absimmsh+0x5ab958b9>
    80008e38:	00b51513          	slli	a0,a0,0xb
    80008e3c:	33350513          	addi	a0,a0,819
    80008e40:	00b51513          	slli	a0,a0,0xb
    80008e44:	19950513          	addi	a0,a0,409
    80008e48:	00a51513          	slli	a0,a0,0xa
    80008e4c:	26750513          	addi	a0,a0,615
    80008e50:	00300593          	li	a1,3
    80008e54:	00b52633          	slt	a2,a0,a1
    80008e58:	20c13423          	sd	a2,520(sp)
    80008e5c:	00000693          	li	a3,0
    80008e60:	00c68463          	beq	a3,a2,80008e68 <inst_596>
    80008e64:	9c0f706f          	j	80000024 <rvtest_error>

0000000080008e68 <inst_596>:
    80008e68:	66666537          	lui	a0,0x66666
    80008e6c:	66650513          	addi	a0,a0,1638 # 66666666 <absimmsh+0x5ab958b9>
    80008e70:	00b51513          	slli	a0,a0,0xb
    80008e74:	33350513          	addi	a0,a0,819
    80008e78:	00b51513          	slli	a0,a0,0xb
    80008e7c:	19950513          	addi	a0,a0,409
    80008e80:	00a51513          	slli	a0,a0,0xa
    80008e84:	26750513          	addi	a0,a0,615
    80008e88:	555555b7          	lui	a1,0x55555
    80008e8c:	55558593          	addi	a1,a1,1365 # 55555555 <absimmsh+0x49a847a8>
    80008e90:	00b59593          	slli	a1,a1,0xb
    80008e94:	2aa58593          	addi	a1,a1,682
    80008e98:	00b59593          	slli	a1,a1,0xb
    80008e9c:	55558593          	addi	a1,a1,1365
    80008ea0:	00a59593          	slli	a1,a1,0xa
    80008ea4:	15558593          	addi	a1,a1,341
    80008ea8:	00b52633          	slt	a2,a0,a1
    80008eac:	20c13823          	sd	a2,528(sp)
    80008eb0:	00000693          	li	a3,0
    80008eb4:	00c68463          	beq	a3,a2,80008ebc <inst_597>
    80008eb8:	96cf706f          	j	80000024 <rvtest_error>

0000000080008ebc <inst_597>:
    80008ebc:	66666537          	lui	a0,0x66666
    80008ec0:	66650513          	addi	a0,a0,1638 # 66666666 <absimmsh+0x5ab958b9>
    80008ec4:	00b51513          	slli	a0,a0,0xb
    80008ec8:	33350513          	addi	a0,a0,819
    80008ecc:	00b51513          	slli	a0,a0,0xb
    80008ed0:	19950513          	addi	a0,a0,409
    80008ed4:	00a51513          	slli	a0,a0,0xa
    80008ed8:	26750513          	addi	a0,a0,615
    80008edc:	aaaab5b7          	lui	a1,0xaaaab
    80008ee0:	aaa58593          	addi	a1,a1,-1366 # ffffffffaaaaaaaa <absimm+0xfffffffeefd9cfda>
    80008ee4:	00b59593          	slli	a1,a1,0xb
    80008ee8:	55558593          	addi	a1,a1,1365
    80008eec:	00b59593          	slli	a1,a1,0xb
    80008ef0:	2aa58593          	addi	a1,a1,682
    80008ef4:	00a59593          	slli	a1,a1,0xa
    80008ef8:	2aa58593          	addi	a1,a1,682
    80008efc:	00b52633          	slt	a2,a0,a1
    80008f00:	20c13c23          	sd	a2,536(sp)
    80008f04:	00000693          	li	a3,0
    80008f08:	00c68463          	beq	a3,a2,80008f10 <inst_598>
    80008f0c:	918f706f          	j	80000024 <rvtest_error>

0000000080008f10 <inst_598>:
    80008f10:	66666537          	lui	a0,0x66666
    80008f14:	66650513          	addi	a0,a0,1638 # 66666666 <absimmsh+0x5ab958b9>
    80008f18:	00b51513          	slli	a0,a0,0xb
    80008f1c:	33350513          	addi	a0,a0,819
    80008f20:	00b51513          	slli	a0,a0,0xb
    80008f24:	19950513          	addi	a0,a0,409
    80008f28:	00a51513          	slli	a0,a0,0xa
    80008f2c:	26750513          	addi	a0,a0,615
    80008f30:	00500593          	li	a1,5
    80008f34:	00b52633          	slt	a2,a0,a1
    80008f38:	22c13023          	sd	a2,544(sp)
    80008f3c:	00000693          	li	a3,0
    80008f40:	00c68463          	beq	a3,a2,80008f48 <inst_599>
    80008f44:	8e0f706f          	j	80000024 <rvtest_error>

0000000080008f48 <inst_599>:
    80008f48:	66666537          	lui	a0,0x66666
    80008f4c:	66650513          	addi	a0,a0,1638 # 66666666 <absimmsh+0x5ab958b9>
    80008f50:	00b51513          	slli	a0,a0,0xb
    80008f54:	33350513          	addi	a0,a0,819
    80008f58:	00b51513          	slli	a0,a0,0xb
    80008f5c:	19950513          	addi	a0,a0,409
    80008f60:	00a51513          	slli	a0,a0,0xa
    80008f64:	26750513          	addi	a0,a0,615
    80008f68:	333335b7          	lui	a1,0x33333
    80008f6c:	33358593          	addi	a1,a1,819 # 33333333 <absimmsh+0x27862586>
    80008f70:	00b59593          	slli	a1,a1,0xb
    80008f74:	19958593          	addi	a1,a1,409
    80008f78:	00b59593          	slli	a1,a1,0xb
    80008f7c:	4cc58593          	addi	a1,a1,1228
    80008f80:	00a59593          	slli	a1,a1,0xa
    80008f84:	33358593          	addi	a1,a1,819
    80008f88:	00b52633          	slt	a2,a0,a1
    80008f8c:	22c13423          	sd	a2,552(sp)
    80008f90:	00000693          	li	a3,0
    80008f94:	00c68463          	beq	a3,a2,80008f9c <inst_600>
    80008f98:	88cf706f          	j	80000024 <rvtest_error>

0000000080008f9c <inst_600>:
    80008f9c:	66666537          	lui	a0,0x66666
    80008fa0:	66650513          	addi	a0,a0,1638 # 66666666 <absimmsh+0x5ab958b9>
    80008fa4:	00b51513          	slli	a0,a0,0xb
    80008fa8:	33350513          	addi	a0,a0,819
    80008fac:	00b51513          	slli	a0,a0,0xb
    80008fb0:	19950513          	addi	a0,a0,409
    80008fb4:	00a51513          	slli	a0,a0,0xa
    80008fb8:	26750513          	addi	a0,a0,615
    80008fbc:	666665b7          	lui	a1,0x66666
    80008fc0:	66658593          	addi	a1,a1,1638 # 66666666 <absimmsh+0x5ab958b9>
    80008fc4:	00b59593          	slli	a1,a1,0xb
    80008fc8:	33358593          	addi	a1,a1,819
    80008fcc:	00b59593          	slli	a1,a1,0xb
    80008fd0:	19958593          	addi	a1,a1,409
    80008fd4:	00a59593          	slli	a1,a1,0xa
    80008fd8:	26658593          	addi	a1,a1,614
    80008fdc:	00b52633          	slt	a2,a0,a1
    80008fe0:	22c13823          	sd	a2,560(sp)
    80008fe4:	00000693          	li	a3,0
    80008fe8:	00c68463          	beq	a3,a2,80008ff0 <inst_601>
    80008fec:	838f706f          	j	80000024 <rvtest_error>

0000000080008ff0 <inst_601>:
    80008ff0:	66666537          	lui	a0,0x66666
    80008ff4:	66650513          	addi	a0,a0,1638 # 66666666 <absimmsh+0x5ab958b9>
    80008ff8:	00b51513          	slli	a0,a0,0xb
    80008ffc:	33350513          	addi	a0,a0,819
    80009000:	00b51513          	slli	a0,a0,0xb
    80009004:	19950513          	addi	a0,a0,409
    80009008:	00a51513          	slli	a0,a0,0xa
    8000900c:	26750513          	addi	a0,a0,615
    80009010:	000005b7          	lui	a1,0x0
    80009014:	fff58593          	addi	a1,a1,-1
    80009018:	00b59593          	slli	a1,a1,0xb
    8000901c:	25758593          	addi	a1,a1,599
    80009020:	00b59593          	slli	a1,a1,0xb
    80009024:	6c358593          	addi	a1,a1,1731
    80009028:	00a59593          	slli	a1,a1,0xa
    8000902c:	0cd58593          	addi	a1,a1,205
    80009030:	00b52633          	slt	a2,a0,a1
    80009034:	22c13c23          	sd	a2,568(sp)
    80009038:	00000693          	li	a3,0
    8000903c:	00c68463          	beq	a3,a2,80009044 <inst_602>
    80009040:	fe5f606f          	j	80000024 <rvtest_error>

0000000080009044 <inst_602>:
    80009044:	66666537          	lui	a0,0x66666
    80009048:	66650513          	addi	a0,a0,1638 # 66666666 <absimmsh+0x5ab958b9>
    8000904c:	00b51513          	slli	a0,a0,0xb
    80009050:	33350513          	addi	a0,a0,819
    80009054:	00b51513          	slli	a0,a0,0xb
    80009058:	19950513          	addi	a0,a0,409
    8000905c:	00a51513          	slli	a0,a0,0xa
    80009060:	26750513          	addi	a0,a0,615
    80009064:	000005b7          	lui	a1,0x0
    80009068:	00058593          	mv	a1,a1
    8000906c:	00b59593          	slli	a1,a1,0xb
    80009070:	5a858593          	addi	a1,a1,1448 # 5a8 <offset+0x118>
    80009074:	00b59593          	slli	a1,a1,0xb
    80009078:	13c58593          	addi	a1,a1,316
    8000907c:	00a59593          	slli	a1,a1,0xa
    80009080:	33358593          	addi	a1,a1,819
    80009084:	00b52633          	slt	a2,a0,a1
    80009088:	24c13023          	sd	a2,576(sp)
    8000908c:	00000693          	li	a3,0
    80009090:	00c68463          	beq	a3,a2,80009098 <inst_603>
    80009094:	f91f606f          	j	80000024 <rvtest_error>

0000000080009098 <inst_603>:
    80009098:	66666537          	lui	a0,0x66666
    8000909c:	66650513          	addi	a0,a0,1638 # 66666666 <absimmsh+0x5ab958b9>
    800090a0:	00b51513          	slli	a0,a0,0xb
    800090a4:	33350513          	addi	a0,a0,819
    800090a8:	00b51513          	slli	a0,a0,0xb
    800090ac:	19950513          	addi	a0,a0,409
    800090b0:	00a51513          	slli	a0,a0,0xa
    800090b4:	26750513          	addi	a0,a0,615
    800090b8:	00200593          	li	a1,2
    800090bc:	00b52633          	slt	a2,a0,a1
    800090c0:	24c13423          	sd	a2,584(sp)
    800090c4:	00000693          	li	a3,0
    800090c8:	00c68463          	beq	a3,a2,800090d0 <inst_604>
    800090cc:	f59f606f          	j	80000024 <rvtest_error>

00000000800090d0 <inst_604>:
    800090d0:	66666537          	lui	a0,0x66666
    800090d4:	66650513          	addi	a0,a0,1638 # 66666666 <absimmsh+0x5ab958b9>
    800090d8:	00b51513          	slli	a0,a0,0xb
    800090dc:	33350513          	addi	a0,a0,819
    800090e0:	00b51513          	slli	a0,a0,0xb
    800090e4:	19950513          	addi	a0,a0,409
    800090e8:	00a51513          	slli	a0,a0,0xa
    800090ec:	26750513          	addi	a0,a0,615
    800090f0:	555555b7          	lui	a1,0x55555
    800090f4:	55558593          	addi	a1,a1,1365 # 55555555 <absimmsh+0x49a847a8>
    800090f8:	00b59593          	slli	a1,a1,0xb
    800090fc:	2aa58593          	addi	a1,a1,682
    80009100:	00b59593          	slli	a1,a1,0xb
    80009104:	55558593          	addi	a1,a1,1365
    80009108:	00a59593          	slli	a1,a1,0xa
    8000910c:	15458593          	addi	a1,a1,340
    80009110:	00b52633          	slt	a2,a0,a1
    80009114:	24c13823          	sd	a2,592(sp)
    80009118:	00000693          	li	a3,0
    8000911c:	00c68463          	beq	a3,a2,80009124 <inst_605>
    80009120:	f05f606f          	j	80000024 <rvtest_error>

0000000080009124 <inst_605>:
    80009124:	66666537          	lui	a0,0x66666
    80009128:	66650513          	addi	a0,a0,1638 # 66666666 <absimmsh+0x5ab958b9>
    8000912c:	00b51513          	slli	a0,a0,0xb
    80009130:	33350513          	addi	a0,a0,819
    80009134:	00b51513          	slli	a0,a0,0xb
    80009138:	19950513          	addi	a0,a0,409
    8000913c:	00a51513          	slli	a0,a0,0xa
    80009140:	26750513          	addi	a0,a0,615
    80009144:	00000593          	li	a1,0
    80009148:	00b52633          	slt	a2,a0,a1
    8000914c:	24c13c23          	sd	a2,600(sp)
    80009150:	00000693          	li	a3,0
    80009154:	00c68463          	beq	a3,a2,8000915c <inst_606>
    80009158:	ecdf606f          	j	80000024 <rvtest_error>

000000008000915c <inst_606>:
    8000915c:	66666537          	lui	a0,0x66666
    80009160:	66650513          	addi	a0,a0,1638 # 66666666 <absimmsh+0x5ab958b9>
    80009164:	00b51513          	slli	a0,a0,0xb
    80009168:	33350513          	addi	a0,a0,819
    8000916c:	00b51513          	slli	a0,a0,0xb
    80009170:	19950513          	addi	a0,a0,409
    80009174:	00a51513          	slli	a0,a0,0xa
    80009178:	26750513          	addi	a0,a0,615
    8000917c:	00400593          	li	a1,4
    80009180:	00b52633          	slt	a2,a0,a1
    80009184:	26c13023          	sd	a2,608(sp)
    80009188:	00000693          	li	a3,0
    8000918c:	00c68463          	beq	a3,a2,80009194 <inst_607>
    80009190:	e95f606f          	j	80000024 <rvtest_error>

0000000080009194 <inst_607>:
    80009194:	66666537          	lui	a0,0x66666
    80009198:	66650513          	addi	a0,a0,1638 # 66666666 <absimmsh+0x5ab958b9>
    8000919c:	00b51513          	slli	a0,a0,0xb
    800091a0:	33350513          	addi	a0,a0,819
    800091a4:	00b51513          	slli	a0,a0,0xb
    800091a8:	19950513          	addi	a0,a0,409
    800091ac:	00a51513          	slli	a0,a0,0xa
    800091b0:	26750513          	addi	a0,a0,615
    800091b4:	333335b7          	lui	a1,0x33333
    800091b8:	33358593          	addi	a1,a1,819 # 33333333 <absimmsh+0x27862586>
    800091bc:	00b59593          	slli	a1,a1,0xb
    800091c0:	19958593          	addi	a1,a1,409
    800091c4:	00b59593          	slli	a1,a1,0xb
    800091c8:	4cc58593          	addi	a1,a1,1228
    800091cc:	00a59593          	slli	a1,a1,0xa
    800091d0:	33258593          	addi	a1,a1,818
    800091d4:	00b52633          	slt	a2,a0,a1
    800091d8:	26c13423          	sd	a2,616(sp)
    800091dc:	00000693          	li	a3,0
    800091e0:	00c68463          	beq	a3,a2,800091e8 <inst_608>
    800091e4:	e41f606f          	j	80000024 <rvtest_error>

00000000800091e8 <inst_608>:
    800091e8:	66666537          	lui	a0,0x66666
    800091ec:	66650513          	addi	a0,a0,1638 # 66666666 <absimmsh+0x5ab958b9>
    800091f0:	00b51513          	slli	a0,a0,0xb
    800091f4:	33350513          	addi	a0,a0,819
    800091f8:	00b51513          	slli	a0,a0,0xb
    800091fc:	19950513          	addi	a0,a0,409
    80009200:	00a51513          	slli	a0,a0,0xa
    80009204:	26750513          	addi	a0,a0,615
    80009208:	666665b7          	lui	a1,0x66666
    8000920c:	66658593          	addi	a1,a1,1638 # 66666666 <absimmsh+0x5ab958b9>
    80009210:	00b59593          	slli	a1,a1,0xb
    80009214:	33358593          	addi	a1,a1,819
    80009218:	00b59593          	slli	a1,a1,0xb
    8000921c:	19958593          	addi	a1,a1,409
    80009220:	00a59593          	slli	a1,a1,0xa
    80009224:	26558593          	addi	a1,a1,613
    80009228:	00b52633          	slt	a2,a0,a1
    8000922c:	26c13823          	sd	a2,624(sp)
    80009230:	00000693          	li	a3,0
    80009234:	00c68463          	beq	a3,a2,8000923c <inst_609>
    80009238:	dedf606f          	j	80000024 <rvtest_error>

000000008000923c <inst_609>:
    8000923c:	66666537          	lui	a0,0x66666
    80009240:	66650513          	addi	a0,a0,1638 # 66666666 <absimmsh+0x5ab958b9>
    80009244:	00b51513          	slli	a0,a0,0xb
    80009248:	33350513          	addi	a0,a0,819
    8000924c:	00b51513          	slli	a0,a0,0xb
    80009250:	19950513          	addi	a0,a0,409
    80009254:	00a51513          	slli	a0,a0,0xa
    80009258:	26750513          	addi	a0,a0,615
    8000925c:	000005b7          	lui	a1,0x0
    80009260:	00058593          	mv	a1,a1
    80009264:	00b59593          	slli	a1,a1,0xb
    80009268:	5a858593          	addi	a1,a1,1448 # 5a8 <offset+0x118>
    8000926c:	00b59593          	slli	a1,a1,0xb
    80009270:	13c58593          	addi	a1,a1,316
    80009274:	00a59593          	slli	a1,a1,0xa
    80009278:	33258593          	addi	a1,a1,818
    8000927c:	00b52633          	slt	a2,a0,a1
    80009280:	26c13c23          	sd	a2,632(sp)
    80009284:	00000693          	li	a3,0
    80009288:	00c68463          	beq	a3,a2,80009290 <inst_610>
    8000928c:	d99f606f          	j	80000024 <rvtest_error>

0000000080009290 <inst_610>:
    80009290:	66666537          	lui	a0,0x66666
    80009294:	66650513          	addi	a0,a0,1638 # 66666666 <absimmsh+0x5ab958b9>
    80009298:	00b51513          	slli	a0,a0,0xb
    8000929c:	33350513          	addi	a0,a0,819
    800092a0:	00b51513          	slli	a0,a0,0xb
    800092a4:	19950513          	addi	a0,a0,409
    800092a8:	00a51513          	slli	a0,a0,0xa
    800092ac:	26750513          	addi	a0,a0,615
    800092b0:	555555b7          	lui	a1,0x55555
    800092b4:	55558593          	addi	a1,a1,1365 # 55555555 <absimmsh+0x49a847a8>
    800092b8:	00b59593          	slli	a1,a1,0xb
    800092bc:	2aa58593          	addi	a1,a1,682
    800092c0:	00b59593          	slli	a1,a1,0xb
    800092c4:	55558593          	addi	a1,a1,1365
    800092c8:	00a59593          	slli	a1,a1,0xa
    800092cc:	15658593          	addi	a1,a1,342
    800092d0:	00b52633          	slt	a2,a0,a1
    800092d4:	28c13023          	sd	a2,640(sp)
    800092d8:	00000693          	li	a3,0
    800092dc:	00c68463          	beq	a3,a2,800092e4 <inst_611>
    800092e0:	d45f606f          	j	80000024 <rvtest_error>

00000000800092e4 <inst_611>:
    800092e4:	66666537          	lui	a0,0x66666
    800092e8:	66650513          	addi	a0,a0,1638 # 66666666 <absimmsh+0x5ab958b9>
    800092ec:	00b51513          	slli	a0,a0,0xb
    800092f0:	33350513          	addi	a0,a0,819
    800092f4:	00b51513          	slli	a0,a0,0xb
    800092f8:	19950513          	addi	a0,a0,409
    800092fc:	00a51513          	slli	a0,a0,0xa
    80009300:	26750513          	addi	a0,a0,615
    80009304:	aaaab5b7          	lui	a1,0xaaaab
    80009308:	aaa58593          	addi	a1,a1,-1366 # ffffffffaaaaaaaa <absimm+0xfffffffeefd9cfda>
    8000930c:	00b59593          	slli	a1,a1,0xb
    80009310:	55558593          	addi	a1,a1,1365
    80009314:	00b59593          	slli	a1,a1,0xb
    80009318:	2aa58593          	addi	a1,a1,682
    8000931c:	00a59593          	slli	a1,a1,0xa
    80009320:	2ab58593          	addi	a1,a1,683
    80009324:	00b52633          	slt	a2,a0,a1
    80009328:	28c13423          	sd	a2,648(sp)
    8000932c:	00000693          	li	a3,0
    80009330:	00c68463          	beq	a3,a2,80009338 <inst_612>
    80009334:	cf1f606f          	j	80000024 <rvtest_error>

0000000080009338 <inst_612>:
    80009338:	66666537          	lui	a0,0x66666
    8000933c:	66650513          	addi	a0,a0,1638 # 66666666 <absimmsh+0x5ab958b9>
    80009340:	00b51513          	slli	a0,a0,0xb
    80009344:	33350513          	addi	a0,a0,819
    80009348:	00b51513          	slli	a0,a0,0xb
    8000934c:	19950513          	addi	a0,a0,409
    80009350:	00a51513          	slli	a0,a0,0xa
    80009354:	26750513          	addi	a0,a0,615
    80009358:	00600593          	li	a1,6
    8000935c:	00b52633          	slt	a2,a0,a1
    80009360:	28c13823          	sd	a2,656(sp)
    80009364:	00000693          	li	a3,0
    80009368:	00c68463          	beq	a3,a2,80009370 <inst_613>
    8000936c:	cb9f606f          	j	80000024 <rvtest_error>

0000000080009370 <inst_613>:
    80009370:	66666537          	lui	a0,0x66666
    80009374:	66650513          	addi	a0,a0,1638 # 66666666 <absimmsh+0x5ab958b9>
    80009378:	00b51513          	slli	a0,a0,0xb
    8000937c:	33350513          	addi	a0,a0,819
    80009380:	00b51513          	slli	a0,a0,0xb
    80009384:	19950513          	addi	a0,a0,409
    80009388:	00a51513          	slli	a0,a0,0xa
    8000938c:	26750513          	addi	a0,a0,615
    80009390:	333335b7          	lui	a1,0x33333
    80009394:	33358593          	addi	a1,a1,819 # 33333333 <absimmsh+0x27862586>
    80009398:	00b59593          	slli	a1,a1,0xb
    8000939c:	19958593          	addi	a1,a1,409
    800093a0:	00b59593          	slli	a1,a1,0xb
    800093a4:	4cc58593          	addi	a1,a1,1228
    800093a8:	00a59593          	slli	a1,a1,0xa
    800093ac:	33458593          	addi	a1,a1,820
    800093b0:	00b52633          	slt	a2,a0,a1
    800093b4:	28c13c23          	sd	a2,664(sp)
    800093b8:	00000693          	li	a3,0
    800093bc:	00c68463          	beq	a3,a2,800093c4 <inst_614>
    800093c0:	c65f606f          	j	80000024 <rvtest_error>

00000000800093c4 <inst_614>:
    800093c4:	66666537          	lui	a0,0x66666
    800093c8:	66650513          	addi	a0,a0,1638 # 66666666 <absimmsh+0x5ab958b9>
    800093cc:	00b51513          	slli	a0,a0,0xb
    800093d0:	33350513          	addi	a0,a0,819
    800093d4:	00b51513          	slli	a0,a0,0xb
    800093d8:	19950513          	addi	a0,a0,409
    800093dc:	00a51513          	slli	a0,a0,0xa
    800093e0:	26750513          	addi	a0,a0,615
    800093e4:	666665b7          	lui	a1,0x66666
    800093e8:	66658593          	addi	a1,a1,1638 # 66666666 <absimmsh+0x5ab958b9>
    800093ec:	00b59593          	slli	a1,a1,0xb
    800093f0:	33358593          	addi	a1,a1,819
    800093f4:	00b59593          	slli	a1,a1,0xb
    800093f8:	19958593          	addi	a1,a1,409
    800093fc:	00a59593          	slli	a1,a1,0xa
    80009400:	26758593          	addi	a1,a1,615
    80009404:	00b52633          	slt	a2,a0,a1
    80009408:	2ac13023          	sd	a2,672(sp)
    8000940c:	00000693          	li	a3,0
    80009410:	00c68463          	beq	a3,a2,80009418 <inst_615>
    80009414:	c11f606f          	j	80000024 <rvtest_error>

0000000080009418 <inst_615>:
    80009418:	66666537          	lui	a0,0x66666
    8000941c:	66650513          	addi	a0,a0,1638 # 66666666 <absimmsh+0x5ab958b9>
    80009420:	00b51513          	slli	a0,a0,0xb
    80009424:	33350513          	addi	a0,a0,819
    80009428:	00b51513          	slli	a0,a0,0xb
    8000942c:	19950513          	addi	a0,a0,409
    80009430:	00a51513          	slli	a0,a0,0xa
    80009434:	26750513          	addi	a0,a0,615
    80009438:	000005b7          	lui	a1,0x0
    8000943c:	fff58593          	addi	a1,a1,-1
    80009440:	00b59593          	slli	a1,a1,0xb
    80009444:	25758593          	addi	a1,a1,599
    80009448:	00b59593          	slli	a1,a1,0xb
    8000944c:	6c358593          	addi	a1,a1,1731
    80009450:	00a59593          	slli	a1,a1,0xa
    80009454:	0ce58593          	addi	a1,a1,206
    80009458:	00b52633          	slt	a2,a0,a1
    8000945c:	2ac13423          	sd	a2,680(sp)
    80009460:	00000693          	li	a3,0
    80009464:	00c68463          	beq	a3,a2,8000946c <inst_616>
    80009468:	bbdf606f          	j	80000024 <rvtest_error>

000000008000946c <inst_616>:
    8000946c:	66666537          	lui	a0,0x66666
    80009470:	66650513          	addi	a0,a0,1638 # 66666666 <absimmsh+0x5ab958b9>
    80009474:	00b51513          	slli	a0,a0,0xb
    80009478:	33350513          	addi	a0,a0,819
    8000947c:	00b51513          	slli	a0,a0,0xb
    80009480:	19950513          	addi	a0,a0,409
    80009484:	00a51513          	slli	a0,a0,0xa
    80009488:	26750513          	addi	a0,a0,615
    8000948c:	000005b7          	lui	a1,0x0
    80009490:	00058593          	mv	a1,a1
    80009494:	00b59593          	slli	a1,a1,0xb
    80009498:	5a858593          	addi	a1,a1,1448 # 5a8 <offset+0x118>
    8000949c:	00b59593          	slli	a1,a1,0xb
    800094a0:	13c58593          	addi	a1,a1,316
    800094a4:	00a59593          	slli	a1,a1,0xa
    800094a8:	33458593          	addi	a1,a1,820
    800094ac:	00b52633          	slt	a2,a0,a1
    800094b0:	2ac13823          	sd	a2,688(sp)
    800094b4:	00000693          	li	a3,0
    800094b8:	00c68463          	beq	a3,a2,800094c0 <inst_617>
    800094bc:	b69f606f          	j	80000024 <rvtest_error>

00000000800094c0 <inst_617>:
    800094c0:	00000537          	lui	a0,0x0
    800094c4:	fff50513          	addi	a0,a0,-1
    800094c8:	00b51513          	slli	a0,a0,0xb
    800094cc:	25750513          	addi	a0,a0,599
    800094d0:	00b51513          	slli	a0,a0,0xb
    800094d4:	6c350513          	addi	a0,a0,1731
    800094d8:	00a51513          	slli	a0,a0,0xa
    800094dc:	0ce50513          	addi	a0,a0,206
    800094e0:	00300593          	li	a1,3
    800094e4:	00b52633          	slt	a2,a0,a1
    800094e8:	2ac13c23          	sd	a2,696(sp)
    800094ec:	00100693          	li	a3,1
    800094f0:	00c68463          	beq	a3,a2,800094f8 <inst_618>
    800094f4:	b31f606f          	j	80000024 <rvtest_error>

00000000800094f8 <inst_618>:
    800094f8:	00000537          	lui	a0,0x0
    800094fc:	fff50513          	addi	a0,a0,-1
    80009500:	00b51513          	slli	a0,a0,0xb
    80009504:	25750513          	addi	a0,a0,599
    80009508:	00b51513          	slli	a0,a0,0xb
    8000950c:	6c350513          	addi	a0,a0,1731
    80009510:	00a51513          	slli	a0,a0,0xa
    80009514:	0ce50513          	addi	a0,a0,206
    80009518:	555555b7          	lui	a1,0x55555
    8000951c:	55558593          	addi	a1,a1,1365 # 55555555 <absimmsh+0x49a847a8>
    80009520:	00b59593          	slli	a1,a1,0xb
    80009524:	2aa58593          	addi	a1,a1,682
    80009528:	00b59593          	slli	a1,a1,0xb
    8000952c:	55558593          	addi	a1,a1,1365
    80009530:	00a59593          	slli	a1,a1,0xa
    80009534:	15558593          	addi	a1,a1,341
    80009538:	00b52633          	slt	a2,a0,a1
    8000953c:	2cc13023          	sd	a2,704(sp)
    80009540:	00100693          	li	a3,1
    80009544:	00c68463          	beq	a3,a2,8000954c <inst_619>
    80009548:	addf606f          	j	80000024 <rvtest_error>

000000008000954c <inst_619>:
    8000954c:	00000537          	lui	a0,0x0
    80009550:	fff50513          	addi	a0,a0,-1
    80009554:	00b51513          	slli	a0,a0,0xb
    80009558:	25750513          	addi	a0,a0,599
    8000955c:	00b51513          	slli	a0,a0,0xb
    80009560:	6c350513          	addi	a0,a0,1731
    80009564:	00a51513          	slli	a0,a0,0xa
    80009568:	0ce50513          	addi	a0,a0,206
    8000956c:	aaaab5b7          	lui	a1,0xaaaab
    80009570:	aaa58593          	addi	a1,a1,-1366 # ffffffffaaaaaaaa <absimm+0xfffffffeefd9cfda>
    80009574:	00b59593          	slli	a1,a1,0xb
    80009578:	55558593          	addi	a1,a1,1365
    8000957c:	00b59593          	slli	a1,a1,0xb
    80009580:	2aa58593          	addi	a1,a1,682
    80009584:	00a59593          	slli	a1,a1,0xa
    80009588:	2aa58593          	addi	a1,a1,682
    8000958c:	00b52633          	slt	a2,a0,a1
    80009590:	2cc13423          	sd	a2,712(sp)
    80009594:	00000693          	li	a3,0
    80009598:	00c68463          	beq	a3,a2,800095a0 <inst_620>
    8000959c:	a89f606f          	j	80000024 <rvtest_error>

00000000800095a0 <inst_620>:
    800095a0:	00000537          	lui	a0,0x0
    800095a4:	fff50513          	addi	a0,a0,-1
    800095a8:	00b51513          	slli	a0,a0,0xb
    800095ac:	25750513          	addi	a0,a0,599
    800095b0:	00b51513          	slli	a0,a0,0xb
    800095b4:	6c350513          	addi	a0,a0,1731
    800095b8:	00a51513          	slli	a0,a0,0xa
    800095bc:	0ce50513          	addi	a0,a0,206
    800095c0:	00500593          	li	a1,5
    800095c4:	00b52633          	slt	a2,a0,a1
    800095c8:	2cc13823          	sd	a2,720(sp)
    800095cc:	00100693          	li	a3,1
    800095d0:	00c68463          	beq	a3,a2,800095d8 <inst_621>
    800095d4:	a51f606f          	j	80000024 <rvtest_error>

00000000800095d8 <inst_621>:
    800095d8:	00000537          	lui	a0,0x0
    800095dc:	fff50513          	addi	a0,a0,-1
    800095e0:	00b51513          	slli	a0,a0,0xb
    800095e4:	25750513          	addi	a0,a0,599
    800095e8:	00b51513          	slli	a0,a0,0xb
    800095ec:	6c350513          	addi	a0,a0,1731
    800095f0:	00a51513          	slli	a0,a0,0xa
    800095f4:	0ce50513          	addi	a0,a0,206
    800095f8:	333335b7          	lui	a1,0x33333
    800095fc:	33358593          	addi	a1,a1,819 # 33333333 <absimmsh+0x27862586>
    80009600:	00b59593          	slli	a1,a1,0xb
    80009604:	19958593          	addi	a1,a1,409
    80009608:	00b59593          	slli	a1,a1,0xb
    8000960c:	4cc58593          	addi	a1,a1,1228
    80009610:	00a59593          	slli	a1,a1,0xa
    80009614:	33358593          	addi	a1,a1,819
    80009618:	00b52633          	slt	a2,a0,a1
    8000961c:	2cc13c23          	sd	a2,728(sp)
    80009620:	00100693          	li	a3,1
    80009624:	00c68463          	beq	a3,a2,8000962c <inst_622>
    80009628:	9fdf606f          	j	80000024 <rvtest_error>

000000008000962c <inst_622>:
    8000962c:	00000537          	lui	a0,0x0
    80009630:	fff50513          	addi	a0,a0,-1
    80009634:	00b51513          	slli	a0,a0,0xb
    80009638:	25750513          	addi	a0,a0,599
    8000963c:	00b51513          	slli	a0,a0,0xb
    80009640:	6c350513          	addi	a0,a0,1731
    80009644:	00a51513          	slli	a0,a0,0xa
    80009648:	0ce50513          	addi	a0,a0,206
    8000964c:	666665b7          	lui	a1,0x66666
    80009650:	66658593          	addi	a1,a1,1638 # 66666666 <absimmsh+0x5ab958b9>
    80009654:	00b59593          	slli	a1,a1,0xb
    80009658:	33358593          	addi	a1,a1,819
    8000965c:	00b59593          	slli	a1,a1,0xb
    80009660:	19958593          	addi	a1,a1,409
    80009664:	00a59593          	slli	a1,a1,0xa
    80009668:	26658593          	addi	a1,a1,614
    8000966c:	00b52633          	slt	a2,a0,a1
    80009670:	2ec13023          	sd	a2,736(sp)
    80009674:	00100693          	li	a3,1
    80009678:	00c68463          	beq	a3,a2,80009680 <inst_623>
    8000967c:	9a9f606f          	j	80000024 <rvtest_error>

0000000080009680 <inst_623>:
    80009680:	00000537          	lui	a0,0x0
    80009684:	fff50513          	addi	a0,a0,-1
    80009688:	00b51513          	slli	a0,a0,0xb
    8000968c:	25750513          	addi	a0,a0,599
    80009690:	00b51513          	slli	a0,a0,0xb
    80009694:	6c350513          	addi	a0,a0,1731
    80009698:	00a51513          	slli	a0,a0,0xa
    8000969c:	0ce50513          	addi	a0,a0,206
    800096a0:	000005b7          	lui	a1,0x0
    800096a4:	fff58593          	addi	a1,a1,-1
    800096a8:	00b59593          	slli	a1,a1,0xb
    800096ac:	25758593          	addi	a1,a1,599
    800096b0:	00b59593          	slli	a1,a1,0xb
    800096b4:	6c358593          	addi	a1,a1,1731
    800096b8:	00a59593          	slli	a1,a1,0xa
    800096bc:	0cd58593          	addi	a1,a1,205
    800096c0:	00b52633          	slt	a2,a0,a1
    800096c4:	2ec13423          	sd	a2,744(sp)
    800096c8:	00000693          	li	a3,0
    800096cc:	00c68463          	beq	a3,a2,800096d4 <inst_624>
    800096d0:	955f606f          	j	80000024 <rvtest_error>

00000000800096d4 <inst_624>:
    800096d4:	00000537          	lui	a0,0x0
    800096d8:	fff50513          	addi	a0,a0,-1
    800096dc:	00b51513          	slli	a0,a0,0xb
    800096e0:	25750513          	addi	a0,a0,599
    800096e4:	00b51513          	slli	a0,a0,0xb
    800096e8:	6c350513          	addi	a0,a0,1731
    800096ec:	00a51513          	slli	a0,a0,0xa
    800096f0:	0ce50513          	addi	a0,a0,206
    800096f4:	000005b7          	lui	a1,0x0
    800096f8:	00058593          	mv	a1,a1
    800096fc:	00b59593          	slli	a1,a1,0xb
    80009700:	5a858593          	addi	a1,a1,1448 # 5a8 <offset+0x118>
    80009704:	00b59593          	slli	a1,a1,0xb
    80009708:	13c58593          	addi	a1,a1,316
    8000970c:	00a59593          	slli	a1,a1,0xa
    80009710:	33358593          	addi	a1,a1,819
    80009714:	00b52633          	slt	a2,a0,a1
    80009718:	2ec13823          	sd	a2,752(sp)
    8000971c:	00100693          	li	a3,1
    80009720:	00c68463          	beq	a3,a2,80009728 <inst_625>
    80009724:	901f606f          	j	80000024 <rvtest_error>

0000000080009728 <inst_625>:
    80009728:	00000537          	lui	a0,0x0
    8000972c:	fff50513          	addi	a0,a0,-1
    80009730:	00b51513          	slli	a0,a0,0xb
    80009734:	25750513          	addi	a0,a0,599
    80009738:	00b51513          	slli	a0,a0,0xb
    8000973c:	6c350513          	addi	a0,a0,1731
    80009740:	00a51513          	slli	a0,a0,0xa
    80009744:	0ce50513          	addi	a0,a0,206
    80009748:	00200593          	li	a1,2
    8000974c:	00b52633          	slt	a2,a0,a1
    80009750:	2ec13c23          	sd	a2,760(sp)
    80009754:	00100693          	li	a3,1
    80009758:	00c68463          	beq	a3,a2,80009760 <inst_626>
    8000975c:	8c9f606f          	j	80000024 <rvtest_error>

0000000080009760 <inst_626>:
    80009760:	00000537          	lui	a0,0x0
    80009764:	fff50513          	addi	a0,a0,-1
    80009768:	00b51513          	slli	a0,a0,0xb
    8000976c:	25750513          	addi	a0,a0,599
    80009770:	00b51513          	slli	a0,a0,0xb
    80009774:	6c350513          	addi	a0,a0,1731
    80009778:	00a51513          	slli	a0,a0,0xa
    8000977c:	0ce50513          	addi	a0,a0,206
    80009780:	555555b7          	lui	a1,0x55555
    80009784:	55558593          	addi	a1,a1,1365 # 55555555 <absimmsh+0x49a847a8>
    80009788:	00b59593          	slli	a1,a1,0xb
    8000978c:	2aa58593          	addi	a1,a1,682
    80009790:	00b59593          	slli	a1,a1,0xb
    80009794:	55558593          	addi	a1,a1,1365
    80009798:	00a59593          	slli	a1,a1,0xa
    8000979c:	15458593          	addi	a1,a1,340
    800097a0:	00b52633          	slt	a2,a0,a1
    800097a4:	30c13023          	sd	a2,768(sp)
    800097a8:	00100693          	li	a3,1
    800097ac:	00c68463          	beq	a3,a2,800097b4 <inst_627>
    800097b0:	875f606f          	j	80000024 <rvtest_error>

00000000800097b4 <inst_627>:
    800097b4:	00000537          	lui	a0,0x0
    800097b8:	fff50513          	addi	a0,a0,-1
    800097bc:	00b51513          	slli	a0,a0,0xb
    800097c0:	25750513          	addi	a0,a0,599
    800097c4:	00b51513          	slli	a0,a0,0xb
    800097c8:	6c350513          	addi	a0,a0,1731
    800097cc:	00a51513          	slli	a0,a0,0xa
    800097d0:	0ce50513          	addi	a0,a0,206
    800097d4:	00000593          	li	a1,0
    800097d8:	00b52633          	slt	a2,a0,a1
    800097dc:	30c13423          	sd	a2,776(sp)
    800097e0:	00100693          	li	a3,1
    800097e4:	00c68463          	beq	a3,a2,800097ec <inst_628>
    800097e8:	83df606f          	j	80000024 <rvtest_error>

00000000800097ec <inst_628>:
    800097ec:	00000537          	lui	a0,0x0
    800097f0:	fff50513          	addi	a0,a0,-1
    800097f4:	00b51513          	slli	a0,a0,0xb
    800097f8:	25750513          	addi	a0,a0,599
    800097fc:	00b51513          	slli	a0,a0,0xb
    80009800:	6c350513          	addi	a0,a0,1731
    80009804:	00a51513          	slli	a0,a0,0xa
    80009808:	0ce50513          	addi	a0,a0,206
    8000980c:	00400593          	li	a1,4
    80009810:	00b52633          	slt	a2,a0,a1
    80009814:	30c13823          	sd	a2,784(sp)
    80009818:	00100693          	li	a3,1
    8000981c:	00c68463          	beq	a3,a2,80009824 <inst_629>
    80009820:	805f606f          	j	80000024 <rvtest_error>

0000000080009824 <inst_629>:
    80009824:	00000537          	lui	a0,0x0
    80009828:	fff50513          	addi	a0,a0,-1
    8000982c:	00b51513          	slli	a0,a0,0xb
    80009830:	25750513          	addi	a0,a0,599
    80009834:	00b51513          	slli	a0,a0,0xb
    80009838:	6c350513          	addi	a0,a0,1731
    8000983c:	00a51513          	slli	a0,a0,0xa
    80009840:	0ce50513          	addi	a0,a0,206
    80009844:	333335b7          	lui	a1,0x33333
    80009848:	33358593          	addi	a1,a1,819 # 33333333 <absimmsh+0x27862586>
    8000984c:	00b59593          	slli	a1,a1,0xb
    80009850:	19958593          	addi	a1,a1,409
    80009854:	00b59593          	slli	a1,a1,0xb
    80009858:	4cc58593          	addi	a1,a1,1228
    8000985c:	00a59593          	slli	a1,a1,0xa
    80009860:	33258593          	addi	a1,a1,818
    80009864:	00b52633          	slt	a2,a0,a1
    80009868:	30c13c23          	sd	a2,792(sp)
    8000986c:	00100693          	li	a3,1
    80009870:	00c68463          	beq	a3,a2,80009878 <inst_630>
    80009874:	fb0f606f          	j	80000024 <rvtest_error>

0000000080009878 <inst_630>:
    80009878:	00000537          	lui	a0,0x0
    8000987c:	fff50513          	addi	a0,a0,-1
    80009880:	00b51513          	slli	a0,a0,0xb
    80009884:	25750513          	addi	a0,a0,599
    80009888:	00b51513          	slli	a0,a0,0xb
    8000988c:	6c350513          	addi	a0,a0,1731
    80009890:	00a51513          	slli	a0,a0,0xa
    80009894:	0ce50513          	addi	a0,a0,206
    80009898:	666665b7          	lui	a1,0x66666
    8000989c:	66658593          	addi	a1,a1,1638 # 66666666 <absimmsh+0x5ab958b9>
    800098a0:	00b59593          	slli	a1,a1,0xb
    800098a4:	33358593          	addi	a1,a1,819
    800098a8:	00b59593          	slli	a1,a1,0xb
    800098ac:	19958593          	addi	a1,a1,409
    800098b0:	00a59593          	slli	a1,a1,0xa
    800098b4:	26558593          	addi	a1,a1,613
    800098b8:	00b52633          	slt	a2,a0,a1
    800098bc:	32c13023          	sd	a2,800(sp)
    800098c0:	00100693          	li	a3,1
    800098c4:	00c68463          	beq	a3,a2,800098cc <inst_631>
    800098c8:	f5cf606f          	j	80000024 <rvtest_error>

00000000800098cc <inst_631>:
    800098cc:	00000537          	lui	a0,0x0
    800098d0:	fff50513          	addi	a0,a0,-1
    800098d4:	00b51513          	slli	a0,a0,0xb
    800098d8:	25750513          	addi	a0,a0,599
    800098dc:	00b51513          	slli	a0,a0,0xb
    800098e0:	6c350513          	addi	a0,a0,1731
    800098e4:	00a51513          	slli	a0,a0,0xa
    800098e8:	0ce50513          	addi	a0,a0,206
    800098ec:	000005b7          	lui	a1,0x0
    800098f0:	00058593          	mv	a1,a1
    800098f4:	00b59593          	slli	a1,a1,0xb
    800098f8:	5a858593          	addi	a1,a1,1448 # 5a8 <offset+0x118>
    800098fc:	00b59593          	slli	a1,a1,0xb
    80009900:	13c58593          	addi	a1,a1,316
    80009904:	00a59593          	slli	a1,a1,0xa
    80009908:	33258593          	addi	a1,a1,818
    8000990c:	00b52633          	slt	a2,a0,a1
    80009910:	32c13423          	sd	a2,808(sp)
    80009914:	00100693          	li	a3,1
    80009918:	00c68463          	beq	a3,a2,80009920 <inst_632>
    8000991c:	f08f606f          	j	80000024 <rvtest_error>

0000000080009920 <inst_632>:
    80009920:	00000537          	lui	a0,0x0
    80009924:	fff50513          	addi	a0,a0,-1
    80009928:	00b51513          	slli	a0,a0,0xb
    8000992c:	25750513          	addi	a0,a0,599
    80009930:	00b51513          	slli	a0,a0,0xb
    80009934:	6c350513          	addi	a0,a0,1731
    80009938:	00a51513          	slli	a0,a0,0xa
    8000993c:	0ce50513          	addi	a0,a0,206
    80009940:	555555b7          	lui	a1,0x55555
    80009944:	55558593          	addi	a1,a1,1365 # 55555555 <absimmsh+0x49a847a8>
    80009948:	00b59593          	slli	a1,a1,0xb
    8000994c:	2aa58593          	addi	a1,a1,682
    80009950:	00b59593          	slli	a1,a1,0xb
    80009954:	55558593          	addi	a1,a1,1365
    80009958:	00a59593          	slli	a1,a1,0xa
    8000995c:	15658593          	addi	a1,a1,342
    80009960:	00b52633          	slt	a2,a0,a1
    80009964:	32c13823          	sd	a2,816(sp)
    80009968:	00100693          	li	a3,1
    8000996c:	00c68463          	beq	a3,a2,80009974 <inst_633>
    80009970:	eb4f606f          	j	80000024 <rvtest_error>

0000000080009974 <inst_633>:
    80009974:	00000537          	lui	a0,0x0
    80009978:	fff50513          	addi	a0,a0,-1
    8000997c:	00b51513          	slli	a0,a0,0xb
    80009980:	25750513          	addi	a0,a0,599
    80009984:	00b51513          	slli	a0,a0,0xb
    80009988:	6c350513          	addi	a0,a0,1731
    8000998c:	00a51513          	slli	a0,a0,0xa
    80009990:	0ce50513          	addi	a0,a0,206
    80009994:	aaaab5b7          	lui	a1,0xaaaab
    80009998:	aaa58593          	addi	a1,a1,-1366 # ffffffffaaaaaaaa <absimm+0xfffffffeefd9cfda>
    8000999c:	00b59593          	slli	a1,a1,0xb
    800099a0:	55558593          	addi	a1,a1,1365
    800099a4:	00b59593          	slli	a1,a1,0xb
    800099a8:	2aa58593          	addi	a1,a1,682
    800099ac:	00a59593          	slli	a1,a1,0xa
    800099b0:	2ab58593          	addi	a1,a1,683
    800099b4:	00b52633          	slt	a2,a0,a1
    800099b8:	32c13c23          	sd	a2,824(sp)
    800099bc:	00000693          	li	a3,0
    800099c0:	00c68463          	beq	a3,a2,800099c8 <inst_634>
    800099c4:	e60f606f          	j	80000024 <rvtest_error>

00000000800099c8 <inst_634>:
    800099c8:	00000537          	lui	a0,0x0
    800099cc:	fff50513          	addi	a0,a0,-1
    800099d0:	00b51513          	slli	a0,a0,0xb
    800099d4:	25750513          	addi	a0,a0,599
    800099d8:	00b51513          	slli	a0,a0,0xb
    800099dc:	6c350513          	addi	a0,a0,1731
    800099e0:	00a51513          	slli	a0,a0,0xa
    800099e4:	0ce50513          	addi	a0,a0,206
    800099e8:	00600593          	li	a1,6
    800099ec:	00b52633          	slt	a2,a0,a1
    800099f0:	34c13023          	sd	a2,832(sp)
    800099f4:	00100693          	li	a3,1
    800099f8:	00c68463          	beq	a3,a2,80009a00 <inst_635>
    800099fc:	e28f606f          	j	80000024 <rvtest_error>

0000000080009a00 <inst_635>:
    80009a00:	00000537          	lui	a0,0x0
    80009a04:	fff50513          	addi	a0,a0,-1
    80009a08:	00b51513          	slli	a0,a0,0xb
    80009a0c:	25750513          	addi	a0,a0,599
    80009a10:	00b51513          	slli	a0,a0,0xb
    80009a14:	6c350513          	addi	a0,a0,1731
    80009a18:	00a51513          	slli	a0,a0,0xa
    80009a1c:	0ce50513          	addi	a0,a0,206
    80009a20:	333335b7          	lui	a1,0x33333
    80009a24:	33358593          	addi	a1,a1,819 # 33333333 <absimmsh+0x27862586>
    80009a28:	00b59593          	slli	a1,a1,0xb
    80009a2c:	19958593          	addi	a1,a1,409
    80009a30:	00b59593          	slli	a1,a1,0xb
    80009a34:	4cc58593          	addi	a1,a1,1228
    80009a38:	00a59593          	slli	a1,a1,0xa
    80009a3c:	33458593          	addi	a1,a1,820
    80009a40:	00b52633          	slt	a2,a0,a1
    80009a44:	34c13423          	sd	a2,840(sp)
    80009a48:	00100693          	li	a3,1
    80009a4c:	00c68463          	beq	a3,a2,80009a54 <inst_636>
    80009a50:	dd4f606f          	j	80000024 <rvtest_error>

0000000080009a54 <inst_636>:
    80009a54:	00000537          	lui	a0,0x0
    80009a58:	fff50513          	addi	a0,a0,-1
    80009a5c:	00b51513          	slli	a0,a0,0xb
    80009a60:	25750513          	addi	a0,a0,599
    80009a64:	00b51513          	slli	a0,a0,0xb
    80009a68:	6c350513          	addi	a0,a0,1731
    80009a6c:	00a51513          	slli	a0,a0,0xa
    80009a70:	0ce50513          	addi	a0,a0,206
    80009a74:	666665b7          	lui	a1,0x66666
    80009a78:	66658593          	addi	a1,a1,1638 # 66666666 <absimmsh+0x5ab958b9>
    80009a7c:	00b59593          	slli	a1,a1,0xb
    80009a80:	33358593          	addi	a1,a1,819
    80009a84:	00b59593          	slli	a1,a1,0xb
    80009a88:	19958593          	addi	a1,a1,409
    80009a8c:	00a59593          	slli	a1,a1,0xa
    80009a90:	26758593          	addi	a1,a1,615
    80009a94:	00b52633          	slt	a2,a0,a1
    80009a98:	34c13823          	sd	a2,848(sp)
    80009a9c:	00100693          	li	a3,1
    80009aa0:	00c68463          	beq	a3,a2,80009aa8 <inst_637>
    80009aa4:	d80f606f          	j	80000024 <rvtest_error>

0000000080009aa8 <inst_637>:
    80009aa8:	00000537          	lui	a0,0x0
    80009aac:	fff50513          	addi	a0,a0,-1
    80009ab0:	00b51513          	slli	a0,a0,0xb
    80009ab4:	25750513          	addi	a0,a0,599
    80009ab8:	00b51513          	slli	a0,a0,0xb
    80009abc:	6c350513          	addi	a0,a0,1731
    80009ac0:	00a51513          	slli	a0,a0,0xa
    80009ac4:	0ce50513          	addi	a0,a0,206
    80009ac8:	000005b7          	lui	a1,0x0
    80009acc:	fff58593          	addi	a1,a1,-1
    80009ad0:	00b59593          	slli	a1,a1,0xb
    80009ad4:	25758593          	addi	a1,a1,599
    80009ad8:	00b59593          	slli	a1,a1,0xb
    80009adc:	6c358593          	addi	a1,a1,1731
    80009ae0:	00a59593          	slli	a1,a1,0xa
    80009ae4:	0ce58593          	addi	a1,a1,206
    80009ae8:	00b52633          	slt	a2,a0,a1
    80009aec:	34c13c23          	sd	a2,856(sp)
    80009af0:	00000693          	li	a3,0
    80009af4:	00c68463          	beq	a3,a2,80009afc <inst_638>
    80009af8:	d2cf606f          	j	80000024 <rvtest_error>

0000000080009afc <inst_638>:
    80009afc:	00000537          	lui	a0,0x0
    80009b00:	fff50513          	addi	a0,a0,-1
    80009b04:	00b51513          	slli	a0,a0,0xb
    80009b08:	25750513          	addi	a0,a0,599
    80009b0c:	00b51513          	slli	a0,a0,0xb
    80009b10:	6c350513          	addi	a0,a0,1731
    80009b14:	00a51513          	slli	a0,a0,0xa
    80009b18:	0ce50513          	addi	a0,a0,206
    80009b1c:	000005b7          	lui	a1,0x0
    80009b20:	00058593          	mv	a1,a1
    80009b24:	00b59593          	slli	a1,a1,0xb
    80009b28:	5a858593          	addi	a1,a1,1448 # 5a8 <offset+0x118>
    80009b2c:	00b59593          	slli	a1,a1,0xb
    80009b30:	13c58593          	addi	a1,a1,316
    80009b34:	00a59593          	slli	a1,a1,0xa
    80009b38:	33458593          	addi	a1,a1,820
    80009b3c:	00b52633          	slt	a2,a0,a1
    80009b40:	36c13023          	sd	a2,864(sp)
    80009b44:	00100693          	li	a3,1
    80009b48:	00c68463          	beq	a3,a2,80009b50 <inst_639>
    80009b4c:	cd8f606f          	j	80000024 <rvtest_error>

0000000080009b50 <inst_639>:
    80009b50:	00000537          	lui	a0,0x0
    80009b54:	00050513          	mv	a0,a0
    80009b58:	00b51513          	slli	a0,a0,0xb
    80009b5c:	5a850513          	addi	a0,a0,1448 # 5a8 <offset+0x118>
    80009b60:	00b51513          	slli	a0,a0,0xb
    80009b64:	13c50513          	addi	a0,a0,316
    80009b68:	00a51513          	slli	a0,a0,0xa
    80009b6c:	33450513          	addi	a0,a0,820
    80009b70:	00300593          	li	a1,3
    80009b74:	00b52633          	slt	a2,a0,a1
    80009b78:	36c13423          	sd	a2,872(sp)
    80009b7c:	00000693          	li	a3,0
    80009b80:	00c68463          	beq	a3,a2,80009b88 <inst_640>
    80009b84:	ca0f606f          	j	80000024 <rvtest_error>

0000000080009b88 <inst_640>:
    80009b88:	00000537          	lui	a0,0x0
    80009b8c:	00050513          	mv	a0,a0
    80009b90:	00b51513          	slli	a0,a0,0xb
    80009b94:	5a850513          	addi	a0,a0,1448 # 5a8 <offset+0x118>
    80009b98:	00b51513          	slli	a0,a0,0xb
    80009b9c:	13c50513          	addi	a0,a0,316
    80009ba0:	00a51513          	slli	a0,a0,0xa
    80009ba4:	33450513          	addi	a0,a0,820
    80009ba8:	555555b7          	lui	a1,0x55555
    80009bac:	55558593          	addi	a1,a1,1365 # 55555555 <absimmsh+0x49a847a8>
    80009bb0:	00b59593          	slli	a1,a1,0xb
    80009bb4:	2aa58593          	addi	a1,a1,682
    80009bb8:	00b59593          	slli	a1,a1,0xb
    80009bbc:	55558593          	addi	a1,a1,1365
    80009bc0:	00a59593          	slli	a1,a1,0xa
    80009bc4:	15558593          	addi	a1,a1,341
    80009bc8:	00b52633          	slt	a2,a0,a1
    80009bcc:	36c13823          	sd	a2,880(sp)
    80009bd0:	00100693          	li	a3,1
    80009bd4:	00c68463          	beq	a3,a2,80009bdc <inst_641>
    80009bd8:	c4cf606f          	j	80000024 <rvtest_error>

0000000080009bdc <inst_641>:
    80009bdc:	00000537          	lui	a0,0x0
    80009be0:	00050513          	mv	a0,a0
    80009be4:	00b51513          	slli	a0,a0,0xb
    80009be8:	5a850513          	addi	a0,a0,1448 # 5a8 <offset+0x118>
    80009bec:	00b51513          	slli	a0,a0,0xb
    80009bf0:	13c50513          	addi	a0,a0,316
    80009bf4:	00a51513          	slli	a0,a0,0xa
    80009bf8:	33450513          	addi	a0,a0,820
    80009bfc:	aaaab5b7          	lui	a1,0xaaaab
    80009c00:	aaa58593          	addi	a1,a1,-1366 # ffffffffaaaaaaaa <absimm+0xfffffffeefd9cfda>
    80009c04:	00b59593          	slli	a1,a1,0xb
    80009c08:	55558593          	addi	a1,a1,1365
    80009c0c:	00b59593          	slli	a1,a1,0xb
    80009c10:	2aa58593          	addi	a1,a1,682
    80009c14:	00a59593          	slli	a1,a1,0xa
    80009c18:	2aa58593          	addi	a1,a1,682
    80009c1c:	00b52633          	slt	a2,a0,a1
    80009c20:	36c13c23          	sd	a2,888(sp)
    80009c24:	00000693          	li	a3,0
    80009c28:	00c68463          	beq	a3,a2,80009c30 <inst_642>
    80009c2c:	bf8f606f          	j	80000024 <rvtest_error>

0000000080009c30 <inst_642>:
    80009c30:	00000537          	lui	a0,0x0
    80009c34:	00050513          	mv	a0,a0
    80009c38:	00b51513          	slli	a0,a0,0xb
    80009c3c:	5a850513          	addi	a0,a0,1448 # 5a8 <offset+0x118>
    80009c40:	00b51513          	slli	a0,a0,0xb
    80009c44:	13c50513          	addi	a0,a0,316
    80009c48:	00a51513          	slli	a0,a0,0xa
    80009c4c:	33450513          	addi	a0,a0,820
    80009c50:	00500593          	li	a1,5
    80009c54:	00b52633          	slt	a2,a0,a1
    80009c58:	38c13023          	sd	a2,896(sp)
    80009c5c:	00000693          	li	a3,0
    80009c60:	00c68463          	beq	a3,a2,80009c68 <inst_643>
    80009c64:	bc0f606f          	j	80000024 <rvtest_error>

0000000080009c68 <inst_643>:
    80009c68:	00000537          	lui	a0,0x0
    80009c6c:	00050513          	mv	a0,a0
    80009c70:	00b51513          	slli	a0,a0,0xb
    80009c74:	5a850513          	addi	a0,a0,1448 # 5a8 <offset+0x118>
    80009c78:	00b51513          	slli	a0,a0,0xb
    80009c7c:	13c50513          	addi	a0,a0,316
    80009c80:	00a51513          	slli	a0,a0,0xa
    80009c84:	33450513          	addi	a0,a0,820
    80009c88:	333335b7          	lui	a1,0x33333
    80009c8c:	33358593          	addi	a1,a1,819 # 33333333 <absimmsh+0x27862586>
    80009c90:	00b59593          	slli	a1,a1,0xb
    80009c94:	19958593          	addi	a1,a1,409
    80009c98:	00b59593          	slli	a1,a1,0xb
    80009c9c:	4cc58593          	addi	a1,a1,1228
    80009ca0:	00a59593          	slli	a1,a1,0xa
    80009ca4:	33358593          	addi	a1,a1,819
    80009ca8:	00b52633          	slt	a2,a0,a1
    80009cac:	38c13423          	sd	a2,904(sp)
    80009cb0:	00100693          	li	a3,1
    80009cb4:	00c68463          	beq	a3,a2,80009cbc <inst_644>
    80009cb8:	b6cf606f          	j	80000024 <rvtest_error>

0000000080009cbc <inst_644>:
    80009cbc:	00000537          	lui	a0,0x0
    80009cc0:	00050513          	mv	a0,a0
    80009cc4:	00b51513          	slli	a0,a0,0xb
    80009cc8:	5a850513          	addi	a0,a0,1448 # 5a8 <offset+0x118>
    80009ccc:	00b51513          	slli	a0,a0,0xb
    80009cd0:	13c50513          	addi	a0,a0,316
    80009cd4:	00a51513          	slli	a0,a0,0xa
    80009cd8:	33450513          	addi	a0,a0,820
    80009cdc:	666665b7          	lui	a1,0x66666
    80009ce0:	66658593          	addi	a1,a1,1638 # 66666666 <absimmsh+0x5ab958b9>
    80009ce4:	00b59593          	slli	a1,a1,0xb
    80009ce8:	33358593          	addi	a1,a1,819
    80009cec:	00b59593          	slli	a1,a1,0xb
    80009cf0:	19958593          	addi	a1,a1,409
    80009cf4:	00a59593          	slli	a1,a1,0xa
    80009cf8:	26658593          	addi	a1,a1,614
    80009cfc:	00b52633          	slt	a2,a0,a1
    80009d00:	38c13823          	sd	a2,912(sp)
    80009d04:	00100693          	li	a3,1
    80009d08:	00c68463          	beq	a3,a2,80009d10 <inst_645>
    80009d0c:	b18f606f          	j	80000024 <rvtest_error>

0000000080009d10 <inst_645>:
    80009d10:	00000537          	lui	a0,0x0
    80009d14:	00050513          	mv	a0,a0
    80009d18:	00b51513          	slli	a0,a0,0xb
    80009d1c:	5a850513          	addi	a0,a0,1448 # 5a8 <offset+0x118>
    80009d20:	00b51513          	slli	a0,a0,0xb
    80009d24:	13c50513          	addi	a0,a0,316
    80009d28:	00a51513          	slli	a0,a0,0xa
    80009d2c:	33450513          	addi	a0,a0,820
    80009d30:	000005b7          	lui	a1,0x0
    80009d34:	fff58593          	addi	a1,a1,-1
    80009d38:	00b59593          	slli	a1,a1,0xb
    80009d3c:	25758593          	addi	a1,a1,599
    80009d40:	00b59593          	slli	a1,a1,0xb
    80009d44:	6c358593          	addi	a1,a1,1731
    80009d48:	00a59593          	slli	a1,a1,0xa
    80009d4c:	0cd58593          	addi	a1,a1,205
    80009d50:	00b52633          	slt	a2,a0,a1
    80009d54:	38c13c23          	sd	a2,920(sp)
    80009d58:	00000693          	li	a3,0
    80009d5c:	00c68463          	beq	a3,a2,80009d64 <inst_646>
    80009d60:	ac4f606f          	j	80000024 <rvtest_error>

0000000080009d64 <inst_646>:
    80009d64:	00000537          	lui	a0,0x0
    80009d68:	00050513          	mv	a0,a0
    80009d6c:	00b51513          	slli	a0,a0,0xb
    80009d70:	5a850513          	addi	a0,a0,1448 # 5a8 <offset+0x118>
    80009d74:	00b51513          	slli	a0,a0,0xb
    80009d78:	13c50513          	addi	a0,a0,316
    80009d7c:	00a51513          	slli	a0,a0,0xa
    80009d80:	33450513          	addi	a0,a0,820
    80009d84:	000005b7          	lui	a1,0x0
    80009d88:	00058593          	mv	a1,a1
    80009d8c:	00b59593          	slli	a1,a1,0xb
    80009d90:	5a858593          	addi	a1,a1,1448 # 5a8 <offset+0x118>
    80009d94:	00b59593          	slli	a1,a1,0xb
    80009d98:	13c58593          	addi	a1,a1,316
    80009d9c:	00a59593          	slli	a1,a1,0xa
    80009da0:	33358593          	addi	a1,a1,819
    80009da4:	00b52633          	slt	a2,a0,a1
    80009da8:	3ac13023          	sd	a2,928(sp)
    80009dac:	00000693          	li	a3,0
    80009db0:	00c68463          	beq	a3,a2,80009db8 <inst_647>
    80009db4:	a70f606f          	j	80000024 <rvtest_error>

0000000080009db8 <inst_647>:
    80009db8:	00000537          	lui	a0,0x0
    80009dbc:	00050513          	mv	a0,a0
    80009dc0:	00b51513          	slli	a0,a0,0xb
    80009dc4:	5a850513          	addi	a0,a0,1448 # 5a8 <offset+0x118>
    80009dc8:	00b51513          	slli	a0,a0,0xb
    80009dcc:	13c50513          	addi	a0,a0,316
    80009dd0:	00a51513          	slli	a0,a0,0xa
    80009dd4:	33450513          	addi	a0,a0,820
    80009dd8:	00200593          	li	a1,2
    80009ddc:	00b52633          	slt	a2,a0,a1
    80009de0:	3ac13423          	sd	a2,936(sp)
    80009de4:	00000693          	li	a3,0
    80009de8:	00c68463          	beq	a3,a2,80009df0 <inst_648>
    80009dec:	a38f606f          	j	80000024 <rvtest_error>

0000000080009df0 <inst_648>:
    80009df0:	00000537          	lui	a0,0x0
    80009df4:	00050513          	mv	a0,a0
    80009df8:	00b51513          	slli	a0,a0,0xb
    80009dfc:	5a850513          	addi	a0,a0,1448 # 5a8 <offset+0x118>
    80009e00:	00b51513          	slli	a0,a0,0xb
    80009e04:	13c50513          	addi	a0,a0,316
    80009e08:	00a51513          	slli	a0,a0,0xa
    80009e0c:	33450513          	addi	a0,a0,820
    80009e10:	555555b7          	lui	a1,0x55555
    80009e14:	55558593          	addi	a1,a1,1365 # 55555555 <absimmsh+0x49a847a8>
    80009e18:	00b59593          	slli	a1,a1,0xb
    80009e1c:	2aa58593          	addi	a1,a1,682
    80009e20:	00b59593          	slli	a1,a1,0xb
    80009e24:	55558593          	addi	a1,a1,1365
    80009e28:	00a59593          	slli	a1,a1,0xa
    80009e2c:	15458593          	addi	a1,a1,340
    80009e30:	00b52633          	slt	a2,a0,a1
    80009e34:	3ac13823          	sd	a2,944(sp)
    80009e38:	00100693          	li	a3,1
    80009e3c:	00c68463          	beq	a3,a2,80009e44 <inst_649>
    80009e40:	9e4f606f          	j	80000024 <rvtest_error>

0000000080009e44 <inst_649>:
    80009e44:	00000537          	lui	a0,0x0
    80009e48:	00050513          	mv	a0,a0
    80009e4c:	00b51513          	slli	a0,a0,0xb
    80009e50:	5a850513          	addi	a0,a0,1448 # 5a8 <offset+0x118>
    80009e54:	00b51513          	slli	a0,a0,0xb
    80009e58:	13c50513          	addi	a0,a0,316
    80009e5c:	00a51513          	slli	a0,a0,0xa
    80009e60:	33450513          	addi	a0,a0,820
    80009e64:	00000593          	li	a1,0
    80009e68:	00b52633          	slt	a2,a0,a1
    80009e6c:	3ac13c23          	sd	a2,952(sp)
    80009e70:	00000693          	li	a3,0
    80009e74:	00c68463          	beq	a3,a2,80009e7c <inst_650>
    80009e78:	9acf606f          	j	80000024 <rvtest_error>

0000000080009e7c <inst_650>:
    80009e7c:	00000537          	lui	a0,0x0
    80009e80:	00050513          	mv	a0,a0
    80009e84:	00b51513          	slli	a0,a0,0xb
    80009e88:	5a850513          	addi	a0,a0,1448 # 5a8 <offset+0x118>
    80009e8c:	00b51513          	slli	a0,a0,0xb
    80009e90:	13c50513          	addi	a0,a0,316
    80009e94:	00a51513          	slli	a0,a0,0xa
    80009e98:	33450513          	addi	a0,a0,820
    80009e9c:	00400593          	li	a1,4
    80009ea0:	00b52633          	slt	a2,a0,a1
    80009ea4:	3cc13023          	sd	a2,960(sp)
    80009ea8:	00000693          	li	a3,0
    80009eac:	00c68463          	beq	a3,a2,80009eb4 <inst_651>
    80009eb0:	974f606f          	j	80000024 <rvtest_error>

0000000080009eb4 <inst_651>:
    80009eb4:	00000537          	lui	a0,0x0
    80009eb8:	00050513          	mv	a0,a0
    80009ebc:	00b51513          	slli	a0,a0,0xb
    80009ec0:	5a850513          	addi	a0,a0,1448 # 5a8 <offset+0x118>
    80009ec4:	00b51513          	slli	a0,a0,0xb
    80009ec8:	13c50513          	addi	a0,a0,316
    80009ecc:	00a51513          	slli	a0,a0,0xa
    80009ed0:	33450513          	addi	a0,a0,820
    80009ed4:	333335b7          	lui	a1,0x33333
    80009ed8:	33358593          	addi	a1,a1,819 # 33333333 <absimmsh+0x27862586>
    80009edc:	00b59593          	slli	a1,a1,0xb
    80009ee0:	19958593          	addi	a1,a1,409
    80009ee4:	00b59593          	slli	a1,a1,0xb
    80009ee8:	4cc58593          	addi	a1,a1,1228
    80009eec:	00a59593          	slli	a1,a1,0xa
    80009ef0:	33258593          	addi	a1,a1,818
    80009ef4:	00b52633          	slt	a2,a0,a1
    80009ef8:	3cc13423          	sd	a2,968(sp)
    80009efc:	00100693          	li	a3,1
    80009f00:	00c68463          	beq	a3,a2,80009f08 <inst_652>
    80009f04:	920f606f          	j	80000024 <rvtest_error>

0000000080009f08 <inst_652>:
    80009f08:	00000537          	lui	a0,0x0
    80009f0c:	00050513          	mv	a0,a0
    80009f10:	00b51513          	slli	a0,a0,0xb
    80009f14:	5a850513          	addi	a0,a0,1448 # 5a8 <offset+0x118>
    80009f18:	00b51513          	slli	a0,a0,0xb
    80009f1c:	13c50513          	addi	a0,a0,316
    80009f20:	00a51513          	slli	a0,a0,0xa
    80009f24:	33450513          	addi	a0,a0,820
    80009f28:	666665b7          	lui	a1,0x66666
    80009f2c:	66658593          	addi	a1,a1,1638 # 66666666 <absimmsh+0x5ab958b9>
    80009f30:	00b59593          	slli	a1,a1,0xb
    80009f34:	33358593          	addi	a1,a1,819
    80009f38:	00b59593          	slli	a1,a1,0xb
    80009f3c:	19958593          	addi	a1,a1,409
    80009f40:	00a59593          	slli	a1,a1,0xa
    80009f44:	26558593          	addi	a1,a1,613
    80009f48:	00b52633          	slt	a2,a0,a1
    80009f4c:	3cc13823          	sd	a2,976(sp)
    80009f50:	00100693          	li	a3,1
    80009f54:	00c68463          	beq	a3,a2,80009f5c <inst_653>
    80009f58:	8ccf606f          	j	80000024 <rvtest_error>

0000000080009f5c <inst_653>:
    80009f5c:	00000537          	lui	a0,0x0
    80009f60:	00050513          	mv	a0,a0
    80009f64:	00b51513          	slli	a0,a0,0xb
    80009f68:	5a850513          	addi	a0,a0,1448 # 5a8 <offset+0x118>
    80009f6c:	00b51513          	slli	a0,a0,0xb
    80009f70:	13c50513          	addi	a0,a0,316
    80009f74:	00a51513          	slli	a0,a0,0xa
    80009f78:	33450513          	addi	a0,a0,820
    80009f7c:	000005b7          	lui	a1,0x0
    80009f80:	00058593          	mv	a1,a1
    80009f84:	00b59593          	slli	a1,a1,0xb
    80009f88:	5a858593          	addi	a1,a1,1448 # 5a8 <offset+0x118>
    80009f8c:	00b59593          	slli	a1,a1,0xb
    80009f90:	13c58593          	addi	a1,a1,316
    80009f94:	00a59593          	slli	a1,a1,0xa
    80009f98:	33258593          	addi	a1,a1,818
    80009f9c:	00b52633          	slt	a2,a0,a1
    80009fa0:	3cc13c23          	sd	a2,984(sp)
    80009fa4:	00000693          	li	a3,0
    80009fa8:	00c68463          	beq	a3,a2,80009fb0 <inst_654>
    80009fac:	878f606f          	j	80000024 <rvtest_error>

0000000080009fb0 <inst_654>:
    80009fb0:	00000537          	lui	a0,0x0
    80009fb4:	00050513          	mv	a0,a0
    80009fb8:	00b51513          	slli	a0,a0,0xb
    80009fbc:	5a850513          	addi	a0,a0,1448 # 5a8 <offset+0x118>
    80009fc0:	00b51513          	slli	a0,a0,0xb
    80009fc4:	13c50513          	addi	a0,a0,316
    80009fc8:	00a51513          	slli	a0,a0,0xa
    80009fcc:	33450513          	addi	a0,a0,820
    80009fd0:	555555b7          	lui	a1,0x55555
    80009fd4:	55558593          	addi	a1,a1,1365 # 55555555 <absimmsh+0x49a847a8>
    80009fd8:	00b59593          	slli	a1,a1,0xb
    80009fdc:	2aa58593          	addi	a1,a1,682
    80009fe0:	00b59593          	slli	a1,a1,0xb
    80009fe4:	55558593          	addi	a1,a1,1365
    80009fe8:	00a59593          	slli	a1,a1,0xa
    80009fec:	15658593          	addi	a1,a1,342
    80009ff0:	00b52633          	slt	a2,a0,a1
    80009ff4:	3ec13023          	sd	a2,992(sp)
    80009ff8:	00100693          	li	a3,1
    80009ffc:	00c68463          	beq	a3,a2,8000a004 <inst_655>
    8000a000:	824f606f          	j	80000024 <rvtest_error>

000000008000a004 <inst_655>:
    8000a004:	00000537          	lui	a0,0x0
    8000a008:	00050513          	mv	a0,a0
    8000a00c:	00b51513          	slli	a0,a0,0xb
    8000a010:	5a850513          	addi	a0,a0,1448 # 5a8 <offset+0x118>
    8000a014:	00b51513          	slli	a0,a0,0xb
    8000a018:	13c50513          	addi	a0,a0,316
    8000a01c:	00a51513          	slli	a0,a0,0xa
    8000a020:	33450513          	addi	a0,a0,820
    8000a024:	aaaab5b7          	lui	a1,0xaaaab
    8000a028:	aaa58593          	addi	a1,a1,-1366 # ffffffffaaaaaaaa <absimm+0xfffffffeefd9cfda>
    8000a02c:	00b59593          	slli	a1,a1,0xb
    8000a030:	55558593          	addi	a1,a1,1365
    8000a034:	00b59593          	slli	a1,a1,0xb
    8000a038:	2aa58593          	addi	a1,a1,682
    8000a03c:	00a59593          	slli	a1,a1,0xa
    8000a040:	2ab58593          	addi	a1,a1,683
    8000a044:	00b52633          	slt	a2,a0,a1
    8000a048:	3ec13423          	sd	a2,1000(sp)
    8000a04c:	00000693          	li	a3,0
    8000a050:	00c68463          	beq	a3,a2,8000a058 <inst_656>
    8000a054:	fd1f506f          	j	80000024 <rvtest_error>

000000008000a058 <inst_656>:
    8000a058:	00000537          	lui	a0,0x0
    8000a05c:	00050513          	mv	a0,a0
    8000a060:	00b51513          	slli	a0,a0,0xb
    8000a064:	5a850513          	addi	a0,a0,1448 # 5a8 <offset+0x118>
    8000a068:	00b51513          	slli	a0,a0,0xb
    8000a06c:	13c50513          	addi	a0,a0,316
    8000a070:	00a51513          	slli	a0,a0,0xa
    8000a074:	33450513          	addi	a0,a0,820
    8000a078:	00600593          	li	a1,6
    8000a07c:	00b52633          	slt	a2,a0,a1
    8000a080:	3ec13823          	sd	a2,1008(sp)
    8000a084:	00000693          	li	a3,0
    8000a088:	00c68463          	beq	a3,a2,8000a090 <inst_657>
    8000a08c:	f99f506f          	j	80000024 <rvtest_error>

000000008000a090 <inst_657>:
    8000a090:	00000537          	lui	a0,0x0
    8000a094:	00050513          	mv	a0,a0
    8000a098:	00b51513          	slli	a0,a0,0xb
    8000a09c:	5a850513          	addi	a0,a0,1448 # 5a8 <offset+0x118>
    8000a0a0:	00b51513          	slli	a0,a0,0xb
    8000a0a4:	13c50513          	addi	a0,a0,316
    8000a0a8:	00a51513          	slli	a0,a0,0xa
    8000a0ac:	33450513          	addi	a0,a0,820
    8000a0b0:	333335b7          	lui	a1,0x33333
    8000a0b4:	33358593          	addi	a1,a1,819 # 33333333 <absimmsh+0x27862586>
    8000a0b8:	00b59593          	slli	a1,a1,0xb
    8000a0bc:	19958593          	addi	a1,a1,409
    8000a0c0:	00b59593          	slli	a1,a1,0xb
    8000a0c4:	4cc58593          	addi	a1,a1,1228
    8000a0c8:	00a59593          	slli	a1,a1,0xa
    8000a0cc:	33458593          	addi	a1,a1,820
    8000a0d0:	00b52633          	slt	a2,a0,a1
    8000a0d4:	3ec13c23          	sd	a2,1016(sp)
    8000a0d8:	00100693          	li	a3,1
    8000a0dc:	00c68463          	beq	a3,a2,8000a0e4 <inst_658>
    8000a0e0:	f45f506f          	j	80000024 <rvtest_error>

000000008000a0e4 <inst_658>:
    8000a0e4:	00000537          	lui	a0,0x0
    8000a0e8:	00050513          	mv	a0,a0
    8000a0ec:	00b51513          	slli	a0,a0,0xb
    8000a0f0:	5a850513          	addi	a0,a0,1448 # 5a8 <offset+0x118>
    8000a0f4:	00b51513          	slli	a0,a0,0xb
    8000a0f8:	13c50513          	addi	a0,a0,316
    8000a0fc:	00a51513          	slli	a0,a0,0xa
    8000a100:	33450513          	addi	a0,a0,820
    8000a104:	666665b7          	lui	a1,0x66666
    8000a108:	66658593          	addi	a1,a1,1638 # 66666666 <absimmsh+0x5ab958b9>
    8000a10c:	00b59593          	slli	a1,a1,0xb
    8000a110:	33358593          	addi	a1,a1,819
    8000a114:	00b59593          	slli	a1,a1,0xb
    8000a118:	19958593          	addi	a1,a1,409
    8000a11c:	00a59593          	slli	a1,a1,0xa
    8000a120:	26758593          	addi	a1,a1,615
    8000a124:	00b52633          	slt	a2,a0,a1
    8000a128:	40c13023          	sd	a2,1024(sp)
    8000a12c:	00100693          	li	a3,1
    8000a130:	00c68463          	beq	a3,a2,8000a138 <inst_659>
    8000a134:	ef1f506f          	j	80000024 <rvtest_error>

000000008000a138 <inst_659>:
    8000a138:	00000537          	lui	a0,0x0
    8000a13c:	00050513          	mv	a0,a0
    8000a140:	00b51513          	slli	a0,a0,0xb
    8000a144:	5a850513          	addi	a0,a0,1448 # 5a8 <offset+0x118>
    8000a148:	00b51513          	slli	a0,a0,0xb
    8000a14c:	13c50513          	addi	a0,a0,316
    8000a150:	00a51513          	slli	a0,a0,0xa
    8000a154:	33450513          	addi	a0,a0,820
    8000a158:	000005b7          	lui	a1,0x0
    8000a15c:	fff58593          	addi	a1,a1,-1
    8000a160:	00b59593          	slli	a1,a1,0xb
    8000a164:	25758593          	addi	a1,a1,599
    8000a168:	00b59593          	slli	a1,a1,0xb
    8000a16c:	6c358593          	addi	a1,a1,1731
    8000a170:	00a59593          	slli	a1,a1,0xa
    8000a174:	0ce58593          	addi	a1,a1,206
    8000a178:	00b52633          	slt	a2,a0,a1
    8000a17c:	40c13423          	sd	a2,1032(sp)
    8000a180:	00000693          	li	a3,0
    8000a184:	00c68463          	beq	a3,a2,8000a18c <inst_660>
    8000a188:	e9df506f          	j	80000024 <rvtest_error>

000000008000a18c <inst_660>:
    8000a18c:	00000537          	lui	a0,0x0
    8000a190:	00050513          	mv	a0,a0
    8000a194:	00b51513          	slli	a0,a0,0xb
    8000a198:	5a850513          	addi	a0,a0,1448 # 5a8 <offset+0x118>
    8000a19c:	00b51513          	slli	a0,a0,0xb
    8000a1a0:	13c50513          	addi	a0,a0,316
    8000a1a4:	00a51513          	slli	a0,a0,0xa
    8000a1a8:	33450513          	addi	a0,a0,820
    8000a1ac:	000005b7          	lui	a1,0x0
    8000a1b0:	00058593          	mv	a1,a1
    8000a1b4:	00b59593          	slli	a1,a1,0xb
    8000a1b8:	5a858593          	addi	a1,a1,1448 # 5a8 <offset+0x118>
    8000a1bc:	00b59593          	slli	a1,a1,0xb
    8000a1c0:	13c58593          	addi	a1,a1,316
    8000a1c4:	00a59593          	slli	a1,a1,0xa
    8000a1c8:	33458593          	addi	a1,a1,820
    8000a1cc:	00b52633          	slt	a2,a0,a1
    8000a1d0:	40c13823          	sd	a2,1040(sp)
    8000a1d4:	00000693          	li	a3,0
    8000a1d8:	00c68463          	beq	a3,a2,8000a1e0 <inst_661>
    8000a1dc:	e49f506f          	j	80000024 <rvtest_error>

000000008000a1e0 <inst_661>:
    8000a1e0:	00000513          	li	a0,0
    8000a1e4:	555555b7          	lui	a1,0x55555
    8000a1e8:	55558593          	addi	a1,a1,1365 # 55555555 <absimmsh+0x49a847a8>
    8000a1ec:	00b59593          	slli	a1,a1,0xb
    8000a1f0:	2aa58593          	addi	a1,a1,682
    8000a1f4:	00b59593          	slli	a1,a1,0xb
    8000a1f8:	55558593          	addi	a1,a1,1365
    8000a1fc:	00a59593          	slli	a1,a1,0xa
    8000a200:	15458593          	addi	a1,a1,340
    8000a204:	00b52633          	slt	a2,a0,a1
    8000a208:	40c13c23          	sd	a2,1048(sp)
    8000a20c:	00100693          	li	a3,1
    8000a210:	00c68463          	beq	a3,a2,8000a218 <inst_662>
    8000a214:	e11f506f          	j	80000024 <rvtest_error>

000000008000a218 <inst_662>:
    8000a218:	00000513          	li	a0,0
    8000a21c:	00000593          	li	a1,0
    8000a220:	00b52633          	slt	a2,a0,a1
    8000a224:	42c13023          	sd	a2,1056(sp)
    8000a228:	00000693          	li	a3,0
    8000a22c:	00c68463          	beq	a3,a2,8000a234 <inst_663>
    8000a230:	df5f506f          	j	80000024 <rvtest_error>

000000008000a234 <inst_663>:
    8000a234:	00000513          	li	a0,0
    8000a238:	00400593          	li	a1,4
    8000a23c:	00b52633          	slt	a2,a0,a1
    8000a240:	42c13423          	sd	a2,1064(sp)
    8000a244:	00100693          	li	a3,1
    8000a248:	00c68463          	beq	a3,a2,8000a250 <inst_664>
    8000a24c:	dd9f506f          	j	80000024 <rvtest_error>

000000008000a250 <inst_664>:
    8000a250:	00000513          	li	a0,0
    8000a254:	333335b7          	lui	a1,0x33333
    8000a258:	33358593          	addi	a1,a1,819 # 33333333 <absimmsh+0x27862586>
    8000a25c:	00b59593          	slli	a1,a1,0xb
    8000a260:	19958593          	addi	a1,a1,409
    8000a264:	00b59593          	slli	a1,a1,0xb
    8000a268:	4cc58593          	addi	a1,a1,1228
    8000a26c:	00a59593          	slli	a1,a1,0xa
    8000a270:	33258593          	addi	a1,a1,818
    8000a274:	00b52633          	slt	a2,a0,a1
    8000a278:	42c13823          	sd	a2,1072(sp)
    8000a27c:	00100693          	li	a3,1
    8000a280:	00c68463          	beq	a3,a2,8000a288 <inst_665>
    8000a284:	da1f506f          	j	80000024 <rvtest_error>

000000008000a288 <inst_665>:
    8000a288:	00000513          	li	a0,0
    8000a28c:	666665b7          	lui	a1,0x66666
    8000a290:	66658593          	addi	a1,a1,1638 # 66666666 <absimmsh+0x5ab958b9>
    8000a294:	00b59593          	slli	a1,a1,0xb
    8000a298:	33358593          	addi	a1,a1,819
    8000a29c:	00b59593          	slli	a1,a1,0xb
    8000a2a0:	19958593          	addi	a1,a1,409
    8000a2a4:	00a59593          	slli	a1,a1,0xa
    8000a2a8:	26558593          	addi	a1,a1,613
    8000a2ac:	00b52633          	slt	a2,a0,a1
    8000a2b0:	42c13c23          	sd	a2,1080(sp)
    8000a2b4:	00100693          	li	a3,1
    8000a2b8:	00c68463          	beq	a3,a2,8000a2c0 <inst_666>
    8000a2bc:	d69f506f          	j	80000024 <rvtest_error>

000000008000a2c0 <inst_666>:
    8000a2c0:	00000513          	li	a0,0
    8000a2c4:	000005b7          	lui	a1,0x0
    8000a2c8:	00058593          	mv	a1,a1
    8000a2cc:	00b59593          	slli	a1,a1,0xb
    8000a2d0:	5a858593          	addi	a1,a1,1448 # 5a8 <offset+0x118>
    8000a2d4:	00b59593          	slli	a1,a1,0xb
    8000a2d8:	13c58593          	addi	a1,a1,316
    8000a2dc:	00a59593          	slli	a1,a1,0xa
    8000a2e0:	33258593          	addi	a1,a1,818
    8000a2e4:	00b52633          	slt	a2,a0,a1
    8000a2e8:	44c13023          	sd	a2,1088(sp)
    8000a2ec:	00100693          	li	a3,1
    8000a2f0:	00c68463          	beq	a3,a2,8000a2f8 <inst_667>
    8000a2f4:	d31f506f          	j	80000024 <rvtest_error>

000000008000a2f8 <inst_667>:
    8000a2f8:	00000513          	li	a0,0
    8000a2fc:	555555b7          	lui	a1,0x55555
    8000a300:	55558593          	addi	a1,a1,1365 # 55555555 <absimmsh+0x49a847a8>
    8000a304:	00b59593          	slli	a1,a1,0xb
    8000a308:	2aa58593          	addi	a1,a1,682
    8000a30c:	00b59593          	slli	a1,a1,0xb
    8000a310:	55558593          	addi	a1,a1,1365
    8000a314:	00a59593          	slli	a1,a1,0xa
    8000a318:	15658593          	addi	a1,a1,342
    8000a31c:	00b52633          	slt	a2,a0,a1
    8000a320:	44c13423          	sd	a2,1096(sp)
    8000a324:	00100693          	li	a3,1
    8000a328:	00c68463          	beq	a3,a2,8000a330 <inst_668>
    8000a32c:	cf9f506f          	j	80000024 <rvtest_error>

000000008000a330 <inst_668>:
    8000a330:	00000513          	li	a0,0
    8000a334:	aaaab5b7          	lui	a1,0xaaaab
    8000a338:	aaa58593          	addi	a1,a1,-1366 # ffffffffaaaaaaaa <absimm+0xfffffffeefd9cfda>
    8000a33c:	00b59593          	slli	a1,a1,0xb
    8000a340:	55558593          	addi	a1,a1,1365
    8000a344:	00b59593          	slli	a1,a1,0xb
    8000a348:	2aa58593          	addi	a1,a1,682
    8000a34c:	00a59593          	slli	a1,a1,0xa
    8000a350:	2ab58593          	addi	a1,a1,683
    8000a354:	00b52633          	slt	a2,a0,a1
    8000a358:	44c13823          	sd	a2,1104(sp)
    8000a35c:	00000693          	li	a3,0
    8000a360:	00c68463          	beq	a3,a2,8000a368 <inst_669>
    8000a364:	cc1f506f          	j	80000024 <rvtest_error>

000000008000a368 <inst_669>:
    8000a368:	00000513          	li	a0,0
    8000a36c:	00600593          	li	a1,6
    8000a370:	00b52633          	slt	a2,a0,a1
    8000a374:	44c13c23          	sd	a2,1112(sp)
    8000a378:	00100693          	li	a3,1
    8000a37c:	00c68463          	beq	a3,a2,8000a384 <inst_670>
    8000a380:	ca5f506f          	j	80000024 <rvtest_error>

000000008000a384 <inst_670>:
    8000a384:	00000513          	li	a0,0
    8000a388:	333335b7          	lui	a1,0x33333
    8000a38c:	33358593          	addi	a1,a1,819 # 33333333 <absimmsh+0x27862586>
    8000a390:	00b59593          	slli	a1,a1,0xb
    8000a394:	19958593          	addi	a1,a1,409
    8000a398:	00b59593          	slli	a1,a1,0xb
    8000a39c:	4cc58593          	addi	a1,a1,1228
    8000a3a0:	00a59593          	slli	a1,a1,0xa
    8000a3a4:	33458593          	addi	a1,a1,820
    8000a3a8:	00b52633          	slt	a2,a0,a1
    8000a3ac:	46c13023          	sd	a2,1120(sp)
    8000a3b0:	00100693          	li	a3,1
    8000a3b4:	00c68463          	beq	a3,a2,8000a3bc <inst_671>
    8000a3b8:	c6df506f          	j	80000024 <rvtest_error>

000000008000a3bc <inst_671>:
    8000a3bc:	00000513          	li	a0,0
    8000a3c0:	666665b7          	lui	a1,0x66666
    8000a3c4:	66658593          	addi	a1,a1,1638 # 66666666 <absimmsh+0x5ab958b9>
    8000a3c8:	00b59593          	slli	a1,a1,0xb
    8000a3cc:	33358593          	addi	a1,a1,819
    8000a3d0:	00b59593          	slli	a1,a1,0xb
    8000a3d4:	19958593          	addi	a1,a1,409
    8000a3d8:	00a59593          	slli	a1,a1,0xa
    8000a3dc:	26758593          	addi	a1,a1,615
    8000a3e0:	00b52633          	slt	a2,a0,a1
    8000a3e4:	46c13423          	sd	a2,1128(sp)
    8000a3e8:	00100693          	li	a3,1
    8000a3ec:	00c68463          	beq	a3,a2,8000a3f4 <inst_672>
    8000a3f0:	c35f506f          	j	80000024 <rvtest_error>

000000008000a3f4 <inst_672>:
    8000a3f4:	00100513          	li	a0,1
    8000a3f8:	01b51513          	slli	a0,a0,0x1b
    8000a3fc:	00100593          	li	a1,1
    8000a400:	03959593          	slli	a1,a1,0x39
    8000a404:	00b52633          	slt	a2,a0,a1
    8000a408:	46c13823          	sd	a2,1136(sp)
    8000a40c:	00100693          	li	a3,1
    8000a410:	00c68463          	beq	a3,a2,8000a418 <inst_673>
    8000a414:	c11f506f          	j	80000024 <rvtest_error>

000000008000a418 <inst_673>:
    8000a418:	00100513          	li	a0,1
    8000a41c:	03451513          	slli	a0,a0,0x34
    8000a420:	fff54513          	not	a0,a0
    8000a424:	bff00593          	li	a1,-1025
    8000a428:	00b52633          	slt	a2,a0,a1
    8000a42c:	46c13c23          	sd	a2,1144(sp)
    8000a430:	00100693          	li	a3,1
    8000a434:	00c68463          	beq	a3,a2,8000a43c <inst_674>
    8000a438:	bedf506f          	j	80000024 <rvtest_error>

000000008000a43c <inst_674>:
    8000a43c:	00100513          	li	a0,1
    8000a440:	02051513          	slli	a0,a0,0x20
    8000a444:	fff54513          	not	a0,a0
    8000a448:	fff00593          	li	a1,-1
    8000a44c:	03f59593          	slli	a1,a1,0x3f
    8000a450:	00b52633          	slt	a2,a0,a1
    8000a454:	48c13023          	sd	a2,1152(sp)
    8000a458:	00000693          	li	a3,0
    8000a45c:	00c68463          	beq	a3,a2,8000a464 <inst_675>
    8000a460:	bc5f506f          	j	80000024 <rvtest_error>

000000008000a464 <inst_675>:
    8000a464:	00000537          	lui	a0,0x0
    8000a468:	fff50513          	addi	a0,a0,-1
    8000a46c:	00b51513          	slli	a0,a0,0xb
    8000a470:	25750513          	addi	a0,a0,599
    8000a474:	00b51513          	slli	a0,a0,0xb
    8000a478:	6c350513          	addi	a0,a0,1731
    8000a47c:	00a51513          	slli	a0,a0,0xa
    8000a480:	0cd50513          	addi	a0,a0,205
    8000a484:	00100593          	li	a1,1
    8000a488:	01359593          	slli	a1,a1,0x13
    8000a48c:	00b52633          	slt	a2,a0,a1
    8000a490:	48c13423          	sd	a2,1160(sp)
    8000a494:	00100693          	li	a3,1
    8000a498:	00c68463          	beq	a3,a2,8000a4a0 <cleanup_epilogs>
    8000a49c:	b89f506f          	j	80000024 <rvtest_error>

000000008000a4a0 <cleanup_epilogs>:
    8000a4a0:	0380006f          	j	8000a4d8 <exit_cleanup>

000000008000a4a4 <abort_tests>:
    8000a4a4:	1f813483          	ld	s1,504(sp)
    8000a4a8:	20013303          	ld	t1,512(sp)
    8000a4ac:	00930333          	add	t1,t1,s1
    8000a4b0:	00000337          	lui	t1,0x0
    8000a4b4:	00030313          	mv	t1,t1
    8000a4b8:	00b31313          	slli	t1,t1,0xb
    8000a4bc:	5d630313          	addi	t1,t1,1494 # 5d6 <offset+0x146>
    8000a4c0:	00b31313          	slli	t1,t1,0xb
    8000a4c4:	43630313          	addi	t1,t1,1078
    8000a4c8:	00a31313          	slli	t1,t1,0xa
    8000a4cc:	2d030313          	addi	t1,t1,720
    8000a4d0:	fe64be23          	sd	t1,-4(s1)
    8000a4d4:	0040006f          	j	8000a4d8 <exit_cleanup>

000000008000a4d8 <exit_cleanup>:
    8000a4d8:	00000513          	li	a0,0
    8000a4dc:	0180006f          	j	8000a4f4 <halt>
	...

000000008000a4f4 <halt>:
    8000a4f4:	00050513          	mv	a0,a0
    8000a4f8:	00100073          	ebreak
    8000a4fc:	0000006f          	j	8000a4fc <halt+0x8>

000000008000a500 <_trm_init>:
    8000a500:	ff010113          	addi	sp,sp,-16
    8000a504:	00000517          	auipc	a0,0x0
    8000a508:	01c50513          	addi	a0,a0,28 # 8000a520 <_etext>
    8000a50c:	00113423          	sd	ra,8(sp)
    8000a510:	b01f50ef          	jal	ra,80000010 <main>
    8000a514:	00050513          	mv	a0,a0
    8000a518:	00100073          	ebreak
    8000a51c:	0000006f          	j	8000a51c <_trm_init+0x1c>
