
/home/maveric/ics2023/riscv-arch-test-am/build/slti-riscv64-nemu.elf:     file format elf64-littleriscv


Disassembly of section .text:

0000000080000000 <_start>:
    80000000:	00000413          	li	s0,0
    80000004:	00012117          	auipc	sp,0x12
    80000008:	ffc10113          	addi	sp,sp,-4 # 80012000 <_end>
    8000000c:	7fc060ef          	jal	ra,80006808 <_trm_init>

0000000080000010 <main>:
    80000010:	030000ef          	jal	ra,80000040 <rvtest_entry_point>
    80000014:	00100513          	li	a0,1
    80000018:	7e4060ef          	jal	ra,800067fc <halt>
    8000001c:	00000513          	li	a0,0
    80000020:	00008067          	ret

0000000080000024 <rvtest_error>:
    80000024:	00100513          	li	a0,1
    80000028:	7d4060ef          	jal	ra,800067fc <halt>
    8000002c:	00008067          	ret
	...

0000000080000040 <rvtest_entry_point>:
    80000040:	feedc0b7          	lui	ra,0xfeedc
    80000044:	ead08093          	addi	ra,ra,-339 # fffffffffeedbead <absimm+0xffffffff441ce3dd>
    80000048:	00b09093          	slli	ra,ra,0xb
    8000004c:	7f708093          	addi	ra,ra,2039
    80000050:	00b09093          	slli	ra,ra,0xb
    80000054:	36f08093          	addi	ra,ra,879
    80000058:	00a09093          	slli	ra,ra,0xa
    8000005c:	2ad08093          	addi	ra,ra,685
    80000060:	ff76e137          	lui	sp,0xff76e
    80000064:	f5610113          	addi	sp,sp,-170 # ffffffffff76df56 <absimm+0xffffffff44a60486>
    80000068:	00b11113          	slli	sp,sp,0xb
    8000006c:	7fb10113          	addi	sp,sp,2043
    80000070:	00b11113          	slli	sp,sp,0xb
    80000074:	5b710113          	addi	sp,sp,1463
    80000078:	00a11113          	slli	sp,sp,0xa
    8000007c:	35610113          	addi	sp,sp,854
    80000080:	7fbb71b7          	lui	gp,0x7fbb7
    80000084:	fab18193          	addi	gp,gp,-85 # 7fbb6fab <absimmsh+0x740e61fe>
    80000088:	00b19193          	slli	gp,gp,0xb
    8000008c:	3fd18193          	addi	gp,gp,1021
    80000090:	00b19193          	slli	gp,gp,0xb
    80000094:	6db18193          	addi	gp,gp,1755
    80000098:	00a19193          	slli	gp,gp,0xa
    8000009c:	3ab18193          	addi	gp,gp,939
    800000a0:	bfddb237          	lui	tp,0xbfddb
    800000a4:	7d520213          	addi	tp,tp,2005 # ffffffffbfddb7d5 <absimm+0xffffffff050cdd05>
    800000a8:	00b21213          	slli	tp,tp,0xb
    800000ac:	5fe20213          	addi	tp,tp,1534 # 5fe <offset+0x366>
    800000b0:	00b21213          	slli	tp,tp,0xb
    800000b4:	76d20213          	addi	tp,tp,1901 # 76d <offset+0x4d5>
    800000b8:	00a21213          	slli	tp,tp,0xa
    800000bc:	3d520213          	addi	tp,tp,981 # 3d5 <offset+0x13d>
    800000c0:	dfeee2b7          	lui	t0,0xdfeee
    800000c4:	bea28293          	addi	t0,t0,-1046 # ffffffffdfeedbea <absimm+0xffffffff251e011a>
    800000c8:	00b29293          	slli	t0,t0,0xb
    800000cc:	6ff28293          	addi	t0,t0,1791
    800000d0:	00b29293          	slli	t0,t0,0xb
    800000d4:	3b628293          	addi	t0,t0,950
    800000d8:	00a29293          	slli	t0,t0,0xa
    800000dc:	3ea28293          	addi	t0,t0,1002
    800000e0:	6ff77337          	lui	t1,0x6ff77
    800000e4:	df530313          	addi	t1,t1,-523 # 6ff76df5 <absimmsh+0x644a6048>
    800000e8:	00b31313          	slli	t1,t1,0xb
    800000ec:	37f30313          	addi	t1,t1,895
    800000f0:	00b31313          	slli	t1,t1,0xb
    800000f4:	5db30313          	addi	t1,t1,1499
    800000f8:	00a31313          	slli	t1,t1,0xa
    800000fc:	1f530313          	addi	t1,t1,501
    80000100:	b7fbb3b7          	lui	t2,0xb7fbb
    80000104:	6fa38393          	addi	t2,t2,1786 # ffffffffb7fbb6fa <absimm+0xfffffffefd2adc2a>
    80000108:	00b39393          	slli	t2,t2,0xb
    8000010c:	5bf38393          	addi	t2,t2,1471
    80000110:	00b39393          	slli	t2,t2,0xb
    80000114:	6ed38393          	addi	t2,t2,1773
    80000118:	00a39393          	slli	t2,t2,0xa
    8000011c:	2fa38393          	addi	t2,t2,762
    80000120:	5bfde437          	lui	s0,0x5bfde
    80000124:	b7d40413          	addi	s0,s0,-1155 # 5bfddb7d <absimmsh+0x5050cdd0>
    80000128:	00b41413          	slli	s0,s0,0xb
    8000012c:	2df40413          	addi	s0,s0,735
    80000130:	00b41413          	slli	s0,s0,0xb
    80000134:	77640413          	addi	s0,s0,1910
    80000138:	00a41413          	slli	s0,s0,0xa
    8000013c:	37d40413          	addi	s0,s0,893
    80000140:	adfef4b7          	lui	s1,0xadfef
    80000144:	dbe48493          	addi	s1,s1,-578 # ffffffffadfeedbe <absimm+0xfffffffef32e12ee>
    80000148:	00b49493          	slli	s1,s1,0xb
    8000014c:	56f48493          	addi	s1,s1,1391
    80000150:	00b49493          	slli	s1,s1,0xb
    80000154:	7bb48493          	addi	s1,s1,1979
    80000158:	00a49493          	slli	s1,s1,0xa
    8000015c:	1be48493          	addi	s1,s1,446
    80000160:	56ff7537          	lui	a0,0x56ff7
    80000164:	6df50513          	addi	a0,a0,1759 # 56ff76df <absimmsh+0x4b526932>
    80000168:	00b51513          	slli	a0,a0,0xb
    8000016c:	2b750513          	addi	a0,a0,695
    80000170:	00b51513          	slli	a0,a0,0xb
    80000174:	7dd50513          	addi	a0,a0,2013
    80000178:	00a51513          	slli	a0,a0,0xa
    8000017c:	2df50513          	addi	a0,a0,735
    80000180:	ab7fc5b7          	lui	a1,0xab7fc
    80000184:	b6f58593          	addi	a1,a1,-1169 # ffffffffab7fbb6f <absimm+0xfffffffef0aee09f>
    80000188:	00b59593          	slli	a1,a1,0xb
    8000018c:	55b58593          	addi	a1,a1,1371
    80000190:	00b59593          	slli	a1,a1,0xb
    80000194:	7ee58593          	addi	a1,a1,2030
    80000198:	00a59593          	slli	a1,a1,0xa
    8000019c:	36f58593          	addi	a1,a1,879
    800001a0:	d5bfe637          	lui	a2,0xd5bfe
    800001a4:	db760613          	addi	a2,a2,-585 # ffffffffd5bfddb7 <absimm+0xffffffff1aef02e7>
    800001a8:	00b61613          	slli	a2,a2,0xb
    800001ac:	6ad60613          	addi	a2,a2,1709
    800001b0:	00b61613          	slli	a2,a2,0xb
    800001b4:	7f760613          	addi	a2,a2,2039
    800001b8:	00a61613          	slli	a2,a2,0xa
    800001bc:	1b760613          	addi	a2,a2,439
    800001c0:	eadff6b7          	lui	a3,0xeadff
    800001c4:	edb68693          	addi	a3,a3,-293 # ffffffffeadfeedb <absimm+0xffffffff300f140b>
    800001c8:	00b69693          	slli	a3,a3,0xb
    800001cc:	75668693          	addi	a3,a3,1878
    800001d0:	00b69693          	slli	a3,a3,0xb
    800001d4:	7fb68693          	addi	a3,a3,2043
    800001d8:	00a69693          	slli	a3,a3,0xa
    800001dc:	2db68693          	addi	a3,a3,731
    800001e0:	f56ff737          	lui	a4,0xf56ff
    800001e4:	76d70713          	addi	a4,a4,1901 # fffffffff56ff76d <absimm+0xffffffff3a9f1c9d>
    800001e8:	00b71713          	slli	a4,a4,0xb
    800001ec:	7ab70713          	addi	a4,a4,1963
    800001f0:	00b71713          	slli	a4,a4,0xb
    800001f4:	3fd70713          	addi	a4,a4,1021
    800001f8:	00a71713          	slli	a4,a4,0xa
    800001fc:	36d70713          	addi	a4,a4,877
    80000200:	fab807b7          	lui	a5,0xfab80
    80000204:	bb678793          	addi	a5,a5,-1098 # fffffffffab7fbb6 <absimm+0xffffffff3fe720e6>
    80000208:	00b79793          	slli	a5,a5,0xb
    8000020c:	7d578793          	addi	a5,a5,2005
    80000210:	00b79793          	slli	a5,a5,0xb
    80000214:	5fe78793          	addi	a5,a5,1534
    80000218:	00a79793          	slli	a5,a5,0xa
    8000021c:	3b678793          	addi	a5,a5,950
    80000220:	7d5c0837          	lui	a6,0x7d5c0
    80000224:	ddb80813          	addi	a6,a6,-549 # 7d5bfddb <absimmsh+0x71aef02e>
    80000228:	00b81813          	slli	a6,a6,0xb
    8000022c:	3ea80813          	addi	a6,a6,1002
    80000230:	00b81813          	slli	a6,a6,0xb
    80000234:	6ff80813          	addi	a6,a6,1791
    80000238:	00a81813          	slli	a6,a6,0xa
    8000023c:	1db80813          	addi	a6,a6,475
    80000240:	beae08b7          	lui	a7,0xbeae0
    80000244:	eed88893          	addi	a7,a7,-275 # ffffffffbeadfeed <absimm+0xffffffff03dd241d>
    80000248:	00b89893          	slli	a7,a7,0xb
    8000024c:	5f588893          	addi	a7,a7,1525
    80000250:	00b89893          	slli	a7,a7,0xb
    80000254:	37f88893          	addi	a7,a7,895
    80000258:	00a89893          	slli	a7,a7,0xa
    8000025c:	2ed88893          	addi	a7,a7,749
    80000260:	df570937          	lui	s2,0xdf570
    80000264:	f7690913          	addi	s2,s2,-138 # ffffffffdf56ff76 <absimm+0xffffffff248624a6>
    80000268:	00b91913          	slli	s2,s2,0xb
    8000026c:	6fa90913          	addi	s2,s2,1786
    80000270:	00b91913          	slli	s2,s2,0xb
    80000274:	5bf90913          	addi	s2,s2,1471
    80000278:	00a91913          	slli	s2,s2,0xa
    8000027c:	37690913          	addi	s2,s2,886
    80000280:	6fab89b7          	lui	s3,0x6fab8
    80000284:	fbb98993          	addi	s3,s3,-69 # 6fab7fbb <absimmsh+0x63fe720e>
    80000288:	00b99993          	slli	s3,s3,0xb
    8000028c:	37d98993          	addi	s3,s3,893
    80000290:	00b99993          	slli	s3,s3,0xb
    80000294:	2df98993          	addi	s3,s3,735
    80000298:	00a99993          	slli	s3,s3,0xa
    8000029c:	3bb98993          	addi	s3,s3,955
    800002a0:	b7d5ca37          	lui	s4,0xb7d5c
    800002a4:	fdda0a13          	addi	s4,s4,-35 # ffffffffb7d5bfdd <absimm+0xfffffffefd04e50d>
    800002a8:	00ba1a13          	slli	s4,s4,0xb
    800002ac:	5bea0a13          	addi	s4,s4,1470
    800002b0:	00ba1a13          	slli	s4,s4,0xb
    800002b4:	56fa0a13          	addi	s4,s4,1391
    800002b8:	00aa1a13          	slli	s4,s4,0xa
    800002bc:	3dda0a13          	addi	s4,s4,989
    800002c0:	dbeaeab7          	lui	s5,0xdbeae
    800002c4:	feea8a93          	addi	s5,s5,-18 # ffffffffdbeadfee <absimm+0xffffffff211a051e>
    800002c8:	00ba9a93          	slli	s5,s5,0xb
    800002cc:	6dfa8a93          	addi	s5,s5,1759
    800002d0:	00ba9a93          	slli	s5,s5,0xb
    800002d4:	2b7a8a93          	addi	s5,s5,695
    800002d8:	00aa9a93          	slli	s5,s5,0xa
    800002dc:	3eea8a93          	addi	s5,s5,1006
    800002e0:	6df57b37          	lui	s6,0x6df57
    800002e4:	ff7b0b13          	addi	s6,s6,-9 # 6df56ff7 <absimmsh+0x6248624a>
    800002e8:	00bb1b13          	slli	s6,s6,0xb
    800002ec:	36fb0b13          	addi	s6,s6,879
    800002f0:	00bb1b13          	slli	s6,s6,0xb
    800002f4:	55bb0b13          	addi	s6,s6,1371
    800002f8:	00ab1b13          	slli	s6,s6,0xa
    800002fc:	3f7b0b13          	addi	s6,s6,1015
    80000300:	b6fabbb7          	lui	s7,0xb6fab
    80000304:	7fbb8b93          	addi	s7,s7,2043 # ffffffffb6fab7fb <absimm+0xfffffffefc29dd2b>
    80000308:	00bb9b93          	slli	s7,s7,0xb
    8000030c:	5b7b8b93          	addi	s7,s7,1463
    80000310:	00bb9b93          	slli	s7,s7,0xb
    80000314:	6adb8b93          	addi	s7,s7,1709
    80000318:	00ab9b93          	slli	s7,s7,0xa
    8000031c:	3fbb8b93          	addi	s7,s7,1019
    80000320:	db7d6c37          	lui	s8,0xdb7d6
    80000324:	bfdc0c13          	addi	s8,s8,-1027 # ffffffffdb7d5bfd <absimm+0xffffffff20ac812d>
    80000328:	00bc1c13          	slli	s8,s8,0xb
    8000032c:	6dbc0c13          	addi	s8,s8,1755
    80000330:	00bc1c13          	slli	s8,s8,0xb
    80000334:	756c0c13          	addi	s8,s8,1878
    80000338:	00ac1c13          	slli	s8,s8,0xa
    8000033c:	3fdc0c13          	addi	s8,s8,1021
    80000340:	edbebcb7          	lui	s9,0xedbeb
    80000344:	dfec8c93          	addi	s9,s9,-514 # ffffffffedbeadfe <absimm+0xffffffff32edd32e>
    80000348:	00bc9c93          	slli	s9,s9,0xb
    8000034c:	76dc8c93          	addi	s9,s9,1901
    80000350:	00bc9c93          	slli	s9,s9,0xb
    80000354:	7abc8c93          	addi	s9,s9,1963
    80000358:	00ac9c93          	slli	s9,s9,0xa
    8000035c:	1fec8c93          	addi	s9,s9,510
    80000360:	76df5d37          	lui	s10,0x76df5
    80000364:	6ffd0d13          	addi	s10,s10,1791 # 76df56ff <absimmsh+0x6b324952>
    80000368:	00bd1d13          	slli	s10,s10,0xb
    8000036c:	3b6d0d13          	addi	s10,s10,950
    80000370:	00bd1d13          	slli	s10,s10,0xb
    80000374:	7d5d0d13          	addi	s10,s10,2005
    80000378:	00ad1d13          	slli	s10,s10,0xa
    8000037c:	2ffd0d13          	addi	s10,s10,767
    80000380:	bb6fbdb7          	lui	s11,0xbb6fb
    80000384:	b7fd8d93          	addi	s11,s11,-1153 # ffffffffbb6fab7f <absimm+0xffffffff009ed0af>
    80000388:	00bd9d93          	slli	s11,s11,0xb
    8000038c:	5dbd8d93          	addi	s11,s11,1499
    80000390:	00bd9d93          	slli	s11,s11,0xb
    80000394:	3ead8d93          	addi	s11,s11,1002
    80000398:	00ad9d93          	slli	s11,s11,0xa
    8000039c:	37fd8d93          	addi	s11,s11,895
    800003a0:	ddb7de37          	lui	t3,0xddb7d
    800003a4:	5bfe0e13          	addi	t3,t3,1471 # ffffffffddb7d5bf <absimm+0xffffffff22e6faef>
    800003a8:	00be1e13          	slli	t3,t3,0xb
    800003ac:	6ede0e13          	addi	t3,t3,1773
    800003b0:	00be1e13          	slli	t3,t3,0xb
    800003b4:	5f5e0e13          	addi	t3,t3,1525
    800003b8:	00ae1e13          	slli	t3,t3,0xa
    800003bc:	1bfe0e13          	addi	t3,t3,447
    800003c0:	eedbfeb7          	lui	t4,0xeedbf
    800003c4:	adfe8e93          	addi	t4,t4,-1313 # ffffffffeedbeadf <absimm+0xffffffff340b100f>
    800003c8:	00be9e93          	slli	t4,t4,0xb
    800003cc:	776e8e93          	addi	t4,t4,1910
    800003d0:	00be9e93          	slli	t4,t4,0xb
    800003d4:	6fae8e93          	addi	t4,t4,1786
    800003d8:	00ae9e93          	slli	t4,t4,0xa
    800003dc:	2dfe8e93          	addi	t4,t4,735
    800003e0:	f76dff37          	lui	t5,0xf76df
    800003e4:	56ff0f13          	addi	t5,t5,1391 # fffffffff76df56f <absimm+0xffffffff3c9d1a9f>
    800003e8:	00bf1f13          	slli	t5,t5,0xb
    800003ec:	7bbf0f13          	addi	t5,t5,1979
    800003f0:	00bf1f13          	slli	t5,t5,0xb
    800003f4:	37df0f13          	addi	t5,t5,893
    800003f8:	00af1f13          	slli	t5,t5,0xa
    800003fc:	16ff0f13          	addi	t5,t5,367
    80000400:	fbb70fb7          	lui	t6,0xfbb70
    80000404:	ab7f8f93          	addi	t6,t6,-1353 # fffffffffbb6fab7 <absimm+0xffffffff40e61fe7>
    80000408:	00bf9f93          	slli	t6,t6,0xb
    8000040c:	7ddf8f93          	addi	t6,t6,2013
    80000410:	00bf9f93          	slli	t6,t6,0xb
    80000414:	5bef8f93          	addi	t6,t6,1470
    80000418:	00af9f93          	slli	t6,t6,0xa
    8000041c:	2b7f8f93          	addi	t6,t6,695

0000000080000420 <rvtest_code_begin>:
    80000420:	00008a17          	auipc	s4,0x8
    80000424:	be8a0a13          	addi	s4,s4,-1048 # 80008008 <signature_x20_0>
    80000428:	00000013          	nop
    8000042c:	00000013          	nop
    80000430:	00000013          	nop
    80000434:	00000013          	nop
    80000438:	00000013          	nop
    8000043c:	00000013          	nop

0000000080000440 <inst_0>:
    80000440:	00100913          	li	s2,1
    80000444:	02991913          	slli	s2,s2,0x29
    80000448:	fff94913          	not	s2,s2
    8000044c:	80092913          	slti	s2,s2,-2048
    80000450:	012a3023          	sd	s2,0(s4)
    80000454:	00100993          	li	s3,1
    80000458:	01298463          	beq	s3,s2,80000460 <inst_1>
    8000045c:	bc9ff06f          	j	80000024 <rvtest_error>

0000000080000460 <inst_1>:
    80000460:	ffe00113          	li	sp,-2
    80000464:	00012b93          	slti	s7,sp,0
    80000468:	017a3423          	sd	s7,8(s4)
    8000046c:	00100993          	li	s3,1
    80000470:	01798463          	beq	s3,s7,80000478 <inst_2>
    80000474:	bb1ff06f          	j	80000024 <rvtest_error>

0000000080000478 <inst_2>:
    80000478:	00100393          	li	t2,1
    8000047c:	03b39393          	slli	t2,t2,0x3b
    80000480:	fff3c393          	not	t2,t2
    80000484:	7ff3a313          	slti	t1,t2,2047
    80000488:	006a3823          	sd	t1,16(s4)
    8000048c:	00100993          	li	s3,1
    80000490:	00698463          	beq	s3,t1,80000498 <inst_3>
    80000494:	b91ff06f          	j	80000024 <rvtest_error>

0000000080000498 <inst_3>:
    80000498:	00100293          	li	t0,1
    8000049c:	02a29293          	slli	t0,t0,0x2a
    800004a0:	0012a593          	slti	a1,t0,1
    800004a4:	00ba3c23          	sd	a1,24(s4)
    800004a8:	00000993          	li	s3,0
    800004ac:	00b98463          	beq	s3,a1,800004b4 <inst_4>
    800004b0:	b75ff06f          	j	80000024 <rvtest_error>

00000000800004b4 <inst_4>:
    800004b4:	fff00513          	li	a0,-1
    800004b8:	03f51513          	slli	a0,a0,0x3f
    800004bc:	ff952d13          	slti	s10,a0,-7
    800004c0:	03aa3023          	sd	s10,32(s4)
    800004c4:	00100993          	li	s3,1
    800004c8:	01a98463          	beq	s3,s10,800004d0 <inst_5>
    800004cc:	b59ff06f          	j	80000024 <rvtest_error>

00000000800004d0 <inst_5>:
    800004d0:	00000793          	li	a5,0
    800004d4:	fbf7a893          	slti	a7,a5,-65
    800004d8:	031a3423          	sd	a7,40(s4)
    800004dc:	00000993          	li	s3,0
    800004e0:	01198463          	beq	s3,a7,800004e8 <inst_6>
    800004e4:	b41ff06f          	j	80000024 <rvtest_error>

00000000800004e8 <inst_6>:
    800004e8:	00000013          	nop
    800004ec:	00002293          	slti	t0,zero,0
    800004f0:	025a3823          	sd	t0,48(s4)
    800004f4:	00000993          	li	s3,0
    800004f8:	00598463          	beq	s3,t0,80000500 <inst_7>
    800004fc:	b29ff06f          	j	80000024 <rvtest_error>

0000000080000500 <inst_7>:
    80000500:	00100493          	li	s1,1
    80000504:	0024ae93          	slti	t4,s1,2
    80000508:	03da3c23          	sd	t4,56(s4)
    8000050c:	00100993          	li	s3,1
    80000510:	01d98463          	beq	s3,t4,80000518 <inst_8>
    80000514:	b11ff06f          	j	80000024 <rvtest_error>

0000000080000518 <inst_8>:
    80000518:	00000c13          	li	s8,0
    8000051c:	000c2813          	slti	a6,s8,0
    80000520:	050a3023          	sd	a6,64(s4)
    80000524:	00000993          	li	s3,0
    80000528:	01098463          	beq	s3,a6,80000530 <inst_9>
    8000052c:	af9ff06f          	j	80000024 <rvtest_error>

0000000080000530 <inst_9>:
    80000530:	00100093          	li	ra,1
    80000534:	01e09093          	slli	ra,ra,0x1e
    80000538:	eff0a793          	slti	a5,ra,-257
    8000053c:	04fa3423          	sd	a5,72(s4)
    80000540:	00000993          	li	s3,0
    80000544:	00f98463          	beq	s3,a5,8000054c <inst_10>
    80000548:	addff06f          	j	80000024 <rvtest_error>

000000008000054c <inst_10>:
    8000054c:	aaaabe37          	lui	t3,0xaaaab
    80000550:	aaae0e13          	addi	t3,t3,-1366 # ffffffffaaaaaaaa <absimm+0xfffffffeefd9cfda>
    80000554:	00be1e13          	slli	t3,t3,0xb
    80000558:	555e0e13          	addi	t3,t3,1365
    8000055c:	00be1e13          	slli	t3,t3,0xb
    80000560:	2aae0e13          	addi	t3,t3,682
    80000564:	00ae1e13          	slli	t3,t3,0xa
    80000568:	2aae0e13          	addi	t3,t3,682
    8000056c:	004e2613          	slti	a2,t3,4
    80000570:	04ca3823          	sd	a2,80(s4)
    80000574:	00100993          	li	s3,1
    80000578:	00c98463          	beq	s3,a2,80000580 <inst_11>
    8000057c:	aa9ff06f          	j	80000024 <rvtest_error>

0000000080000580 <inst_11>:
    80000580:	00100d13          	li	s10,1
    80000584:	025d1d13          	slli	s10,s10,0x25
    80000588:	008d2f93          	slti	t6,s10,8
    8000058c:	05fa3c23          	sd	t6,88(s4)
    80000590:	00000993          	li	s3,0
    80000594:	01f98463          	beq	s3,t6,8000059c <inst_12>
    80000598:	a8dff06f          	j	80000024 <rvtest_error>

000000008000059c <inst_12>:
    8000059c:	00100193          	li	gp,1
    800005a0:	02719193          	slli	gp,gp,0x27
    800005a4:	0101ac93          	slti	s9,gp,16
    800005a8:	079a3023          	sd	s9,96(s4)
    800005ac:	00000993          	li	s3,0
    800005b0:	01998463          	beq	s3,s9,800005b8 <inst_13>
    800005b4:	a71ff06f          	j	80000024 <rvtest_error>

00000000800005b8 <inst_13>:
    800005b8:	00100c93          	li	s9,1
    800005bc:	03cc9c93          	slli	s9,s9,0x3c
    800005c0:	fffccc93          	not	s9,s9
    800005c4:	020cae13          	slti	t3,s9,32
    800005c8:	07ca3423          	sd	t3,104(s4)
    800005cc:	00100993          	li	s3,1
    800005d0:	01c98463          	beq	s3,t3,800005d8 <inst_14>
    800005d4:	a51ff06f          	j	80000024 <rvtest_error>

00000000800005d8 <inst_14>:
    800005d8:	00100813          	li	a6,1
    800005dc:	03281813          	slli	a6,a6,0x32
    800005e0:	04082113          	slti	sp,a6,64
    800005e4:	062a3823          	sd	sp,112(s4)
    800005e8:	00000993          	li	s3,0
    800005ec:	00298463          	beq	s3,sp,800005f4 <inst_15>
    800005f0:	a35ff06f          	j	80000024 <rvtest_error>

00000000800005f4 <inst_15>:
    800005f4:	55555337          	lui	t1,0x55555
    800005f8:	55530313          	addi	t1,t1,1365 # 55555555 <absimmsh+0x49a847a8>
    800005fc:	00b31313          	slli	t1,t1,0xb
    80000600:	2aa30313          	addi	t1,t1,682
    80000604:	00b31313          	slli	t1,t1,0xb
    80000608:	55530313          	addi	t1,t1,1365
    8000060c:	00a31313          	slli	t1,t1,0xa
    80000610:	15630313          	addi	t1,t1,342
    80000614:	08032213          	slti	tp,t1,128
    80000618:	064a3c23          	sd	tp,120(s4)
    8000061c:	00000993          	li	s3,0
    80000620:	00498463          	beq	s3,tp,80000628 <inst_16>
    80000624:	a01ff06f          	j	80000024 <rvtest_error>

0000000080000628 <inst_16>:
    80000628:	00100693          	li	a3,1
    8000062c:	03169693          	slli	a3,a3,0x31
    80000630:	1006a493          	slti	s1,a3,256
    80000634:	089a3023          	sd	s1,128(s4)
    80000638:	00000993          	li	s3,0
    8000063c:	00998463          	beq	s3,s1,80000644 <inst_17>
    80000640:	9e5ff06f          	j	80000024 <rvtest_error>

0000000080000644 <inst_17>:
    80000644:	00100d93          	li	s11,1
    80000648:	00ed9d93          	slli	s11,s11,0xe
    8000064c:	fffdcd93          	not	s11,s11
    80000650:	200da513          	slti	a0,s11,512
    80000654:	08aa3423          	sd	a0,136(s4)
    80000658:	00100993          	li	s3,1
    8000065c:	00a98463          	beq	s3,a0,80000664 <inst_18>
    80000660:	9c5ff06f          	j	80000024 <rvtest_error>

0000000080000664 <inst_18>:
    80000664:	00100a93          	li	s5,1
    80000668:	017a9a93          	slli	s5,s5,0x17
    8000066c:	400aa713          	slti	a4,s5,1024
    80000670:	08ea3823          	sd	a4,144(s4)
    80000674:	00000993          	li	s3,0
    80000678:	00e98463          	beq	s3,a4,80000680 <inst_19>
    8000067c:	9a9ff06f          	j	80000024 <rvtest_error>

0000000080000680 <inst_19>:
    80000680:	00700413          	li	s0,7
    80000684:	ffe42c13          	slti	s8,s0,-2
    80000688:	098a3c23          	sd	s8,152(s4)
    8000068c:	00000993          	li	s3,0
    80000690:	01898463          	beq	s3,s8,80000698 <inst_20>
    80000694:	991ff06f          	j	80000024 <rvtest_error>

0000000080000698 <inst_20>:
    80000698:	00100e93          	li	t4,1
    8000069c:	01ee9e93          	slli	t4,t4,0x1e
    800006a0:	fffece93          	not	t4,t4
    800006a4:	ffdead93          	slti	s11,t4,-3
    800006a8:	0bba3023          	sd	s11,160(s4)
    800006ac:	00100293          	li	t0,1
    800006b0:	01b28463          	beq	t0,s11,800006b8 <inst_21>
    800006b4:	971ff06f          	j	80000024 <rvtest_error>

00000000800006b8 <inst_21>:
    800006b8:	00100213          	li	tp,1
    800006bc:	03721213          	slli	tp,tp,0x37
    800006c0:	ffb22993          	slti	s3,tp,-5
    800006c4:	0b3a3423          	sd	s3,168(s4)
    800006c8:	00000293          	li	t0,0
    800006cc:	01328463          	beq	t0,s3,800006d4 <inst_21+0x1c>
    800006d0:	955ff06f          	j	80000024 <rvtest_error>
    800006d4:	00000013          	nop
    800006d8:	00000013          	nop
    800006dc:	00000013          	nop
    800006e0:	00008117          	auipc	sp,0x8
    800006e4:	9d810113          	addi	sp,sp,-1576 # 800080b8 <signature_x2_0>
    800006e8:	00000013          	nop
    800006ec:	00000013          	nop
    800006f0:	00000013          	nop
    800006f4:	00000013          	nop
    800006f8:	00000013          	nop
    800006fc:	00000013          	nop

0000000080000700 <inst_22>:
    80000700:	ff600613          	li	a2,-10
    80000704:	ff762013          	slti	zero,a2,-9
    80000708:	00013023          	sd	zero,0(sp)
    8000070c:	00000293          	li	t0,0
    80000710:	00028463          	beqz	t0,80000718 <inst_23>
    80000714:	911ff06f          	j	80000024 <rvtest_error>

0000000080000718 <inst_23>:
    80000718:	00100b13          	li	s6,1
    8000071c:	00fb1b13          	slli	s6,s6,0xf
    80000720:	fffb4b13          	not	s6,s6
    80000724:	fefb2093          	slti	ra,s6,-17
    80000728:	00113423          	sd	ra,8(sp)
    8000072c:	00100293          	li	t0,1
    80000730:	00128463          	beq	t0,ra,80000738 <inst_24>
    80000734:	8f1ff06f          	j	80000024 <rvtest_error>

0000000080000738 <inst_24>:
    80000738:	00100713          	li	a4,1
    8000073c:	01671713          	slli	a4,a4,0x16
    80000740:	fdf72f13          	slti	t5,a4,-33
    80000744:	01e13823          	sd	t5,16(sp)
    80000748:	00000293          	li	t0,0
    8000074c:	01e28463          	beq	t0,t5,80000754 <inst_25>
    80000750:	8d5ff06f          	j	80000024 <rvtest_error>

0000000080000754 <inst_25>:
    80000754:	00100593          	li	a1,1
    80000758:	02859593          	slli	a1,a1,0x28
    8000075c:	f7f5ab13          	slti	s6,a1,-129
    80000760:	01613c23          	sd	s6,24(sp)
    80000764:	00000293          	li	t0,0
    80000768:	01628463          	beq	t0,s6,80000770 <inst_26>
    8000076c:	8b9ff06f          	j	80000024 <rvtest_error>

0000000080000770 <inst_26>:
    80000770:	00100f13          	li	t5,1
    80000774:	031f1f13          	slli	t5,t5,0x31
    80000778:	ffff4f13          	not	t5,t5
    8000077c:	dfff2393          	slti	t2,t5,-513
    80000780:	02713023          	sd	t2,32(sp)
    80000784:	00100293          	li	t0,1
    80000788:	00728463          	beq	t0,t2,80000790 <inst_27>
    8000078c:	899ff06f          	j	80000024 <rvtest_error>

0000000080000790 <inst_27>:
    80000790:	00100993          	li	s3,1
    80000794:	03099993          	slli	s3,s3,0x30
    80000798:	fff9c993          	not	s3,s3
    8000079c:	bff9aa93          	slti	s5,s3,-1025
    800007a0:	03513423          	sd	s5,40(sp)
    800007a4:	00100293          	li	t0,1
    800007a8:	01528463          	beq	t0,s5,800007b0 <inst_28>
    800007ac:	879ff06f          	j	80000024 <rvtest_error>

00000000800007b0 <inst_28>:
    800007b0:	00500a13          	li	s4,5
    800007b4:	555a2413          	slti	s0,s4,1365
    800007b8:	02813823          	sd	s0,48(sp)
    800007bc:	00100293          	li	t0,1
    800007c0:	00828463          	beq	t0,s0,800007c8 <inst_29>
    800007c4:	861ff06f          	j	80000024 <rvtest_error>

00000000800007c8 <inst_29>:
    800007c8:	00100893          	li	a7,1
    800007cc:	00c89893          	slli	a7,a7,0xc
    800007d0:	fff8c893          	not	a7,a7
    800007d4:	aaa8aa13          	slti	s4,a7,-1366
    800007d8:	03413c23          	sd	s4,56(sp)
    800007dc:	00100293          	li	t0,1
    800007e0:	01428463          	beq	t0,s4,800007e8 <inst_30>
    800007e4:	841ff06f          	j	80000024 <rvtest_error>

00000000800007e8 <inst_30>:
    800007e8:	00200b93          	li	s7,2
    800007ec:	800ba693          	slti	a3,s7,-2048
    800007f0:	04d13023          	sd	a3,64(sp)
    800007f4:	00000293          	li	t0,0
    800007f8:	00d28463          	beq	t0,a3,80000800 <inst_31>
    800007fc:	829ff06f          	j	80000024 <rvtest_error>

0000000080000800 <inst_31>:
    80000800:	00400f93          	li	t6,4
    80000804:	f7ffa193          	slti	gp,t6,-129
    80000808:	04313423          	sd	gp,72(sp)
    8000080c:	00000293          	li	t0,0
    80000810:	00328463          	beq	t0,gp,80000818 <inst_32>
    80000814:	811ff06f          	j	80000024 <rvtest_error>

0000000080000818 <inst_32>:
    80000818:	00800513          	li	a0,8
    8000081c:	02c52593          	slti	a1,a0,44
    80000820:	04b13823          	sd	a1,80(sp)
    80000824:	00100293          	li	t0,1
    80000828:	00b28463          	beq	t0,a1,80000830 <inst_33>
    8000082c:	ff8ff06f          	j	80000024 <rvtest_error>

0000000080000830 <inst_33>:
    80000830:	01000513          	li	a0,16
    80000834:	80052593          	slti	a1,a0,-2048
    80000838:	04b13c23          	sd	a1,88(sp)
    8000083c:	00000293          	li	t0,0
    80000840:	00b28463          	beq	t0,a1,80000848 <inst_34>
    80000844:	fe0ff06f          	j	80000024 <rvtest_error>

0000000080000848 <inst_34>:
    80000848:	02000513          	li	a0,32
    8000084c:	02d52593          	slti	a1,a0,45
    80000850:	06b13023          	sd	a1,96(sp)
    80000854:	00100293          	li	t0,1
    80000858:	00b28463          	beq	t0,a1,80000860 <inst_35>
    8000085c:	fc8ff06f          	j	80000024 <rvtest_error>

0000000080000860 <inst_35>:
    80000860:	04000513          	li	a0,64
    80000864:	55552593          	slti	a1,a0,1365
    80000868:	06b13423          	sd	a1,104(sp)
    8000086c:	00100293          	li	t0,1
    80000870:	00b28463          	beq	t0,a1,80000878 <inst_36>
    80000874:	fb0ff06f          	j	80000024 <rvtest_error>

0000000080000878 <inst_36>:
    80000878:	08000513          	li	a0,128
    8000087c:	aaa52593          	slti	a1,a0,-1366
    80000880:	06b13823          	sd	a1,112(sp)
    80000884:	00000293          	li	t0,0
    80000888:	00b28463          	beq	t0,a1,80000890 <inst_37>
    8000088c:	f98ff06f          	j	80000024 <rvtest_error>

0000000080000890 <inst_37>:
    80000890:	10000513          	li	a0,256
    80000894:	00552593          	slti	a1,a0,5
    80000898:	06b13c23          	sd	a1,120(sp)
    8000089c:	00000293          	li	t0,0
    800008a0:	00b28463          	beq	t0,a1,800008a8 <inst_38>
    800008a4:	f80ff06f          	j	80000024 <rvtest_error>

00000000800008a8 <inst_38>:
    800008a8:	20000513          	li	a0,512
    800008ac:	00652593          	slti	a1,a0,6
    800008b0:	08b13023          	sd	a1,128(sp)
    800008b4:	00000293          	li	t0,0
    800008b8:	00b28463          	beq	t0,a1,800008c0 <inst_39>
    800008bc:	f68ff06f          	j	80000024 <rvtest_error>

00000000800008c0 <inst_39>:
    800008c0:	40000513          	li	a0,1024
    800008c4:	55552593          	slti	a1,a0,1365
    800008c8:	08b13423          	sd	a1,136(sp)
    800008cc:	00100293          	li	t0,1
    800008d0:	00b28463          	beq	t0,a1,800008d8 <inst_40>
    800008d4:	f50ff06f          	j	80000024 <rvtest_error>

00000000800008d8 <inst_40>:
    800008d8:	00100513          	li	a0,1
    800008dc:	00b51513          	slli	a0,a0,0xb
    800008e0:	04052593          	slti	a1,a0,64
    800008e4:	08b13823          	sd	a1,144(sp)
    800008e8:	00000293          	li	t0,0
    800008ec:	00b28463          	beq	t0,a1,800008f4 <inst_41>
    800008f0:	f34ff06f          	j	80000024 <rvtest_error>

00000000800008f4 <inst_41>:
    800008f4:	00100513          	li	a0,1
    800008f8:	00c51513          	slli	a0,a0,0xc
    800008fc:	ff952593          	slti	a1,a0,-7
    80000900:	08b13c23          	sd	a1,152(sp)
    80000904:	00000293          	li	t0,0
    80000908:	00b28463          	beq	t0,a1,80000910 <inst_42>
    8000090c:	f18ff06f          	j	80000024 <rvtest_error>

0000000080000910 <inst_42>:
    80000910:	00100513          	li	a0,1
    80000914:	00d51513          	slli	a0,a0,0xd
    80000918:	ff952593          	slti	a1,a0,-7
    8000091c:	0ab13023          	sd	a1,160(sp)
    80000920:	00000293          	li	t0,0
    80000924:	00b28463          	beq	t0,a1,8000092c <inst_43>
    80000928:	efcff06f          	j	80000024 <rvtest_error>

000000008000092c <inst_43>:
    8000092c:	00100513          	li	a0,1
    80000930:	00e51513          	slli	a0,a0,0xe
    80000934:	66552593          	slti	a1,a0,1637
    80000938:	0ab13423          	sd	a1,168(sp)
    8000093c:	00000293          	li	t0,0
    80000940:	00b28463          	beq	t0,a1,80000948 <inst_44>
    80000944:	ee0ff06f          	j	80000024 <rvtest_error>

0000000080000948 <inst_44>:
    80000948:	00100513          	li	a0,1
    8000094c:	00f51513          	slli	a0,a0,0xf
    80000950:	c0052593          	slti	a1,a0,-1024
    80000954:	0ab13823          	sd	a1,176(sp)
    80000958:	00000293          	li	t0,0
    8000095c:	00b28463          	beq	t0,a1,80000964 <inst_45>
    80000960:	ec4ff06f          	j	80000024 <rvtest_error>

0000000080000964 <inst_45>:
    80000964:	00100513          	li	a0,1
    80000968:	01051513          	slli	a0,a0,0x10
    8000096c:	ffa52593          	slti	a1,a0,-6
    80000970:	0ab13c23          	sd	a1,184(sp)
    80000974:	00000293          	li	t0,0
    80000978:	00b28463          	beq	t0,a1,80000980 <inst_46>
    8000097c:	ea8ff06f          	j	80000024 <rvtest_error>

0000000080000980 <inst_46>:
    80000980:	00100513          	li	a0,1
    80000984:	01151513          	slli	a0,a0,0x11
    80000988:	ffe52593          	slti	a1,a0,-2
    8000098c:	0cb13023          	sd	a1,192(sp)
    80000990:	00000293          	li	t0,0
    80000994:	00b28463          	beq	t0,a1,8000099c <inst_47>
    80000998:	e8cff06f          	j	80000024 <rvtest_error>

000000008000099c <inst_47>:
    8000099c:	00100513          	li	a0,1
    800009a0:	01251513          	slli	a0,a0,0x12
    800009a4:	00752593          	slti	a1,a0,7
    800009a8:	0cb13423          	sd	a1,200(sp)
    800009ac:	00000293          	li	t0,0
    800009b0:	00b28463          	beq	t0,a1,800009b8 <inst_48>
    800009b4:	e70ff06f          	j	80000024 <rvtest_error>

00000000800009b8 <inst_48>:
    800009b8:	00100513          	li	a0,1
    800009bc:	01351513          	slli	a0,a0,0x13
    800009c0:	fdf52593          	slti	a1,a0,-33
    800009c4:	0cb13823          	sd	a1,208(sp)
    800009c8:	00000293          	li	t0,0
    800009cc:	00b28463          	beq	t0,a1,800009d4 <inst_49>
    800009d0:	e54ff06f          	j	80000024 <rvtest_error>

00000000800009d4 <inst_49>:
    800009d4:	00100513          	li	a0,1
    800009d8:	01451513          	slli	a0,a0,0x14
    800009dc:	08052593          	slti	a1,a0,128
    800009e0:	0cb13c23          	sd	a1,216(sp)
    800009e4:	00000293          	li	t0,0
    800009e8:	00b28463          	beq	t0,a1,800009f0 <inst_50>
    800009ec:	e38ff06f          	j	80000024 <rvtest_error>

00000000800009f0 <inst_50>:
    800009f0:	00100513          	li	a0,1
    800009f4:	01551513          	slli	a0,a0,0x15
    800009f8:	ffb52593          	slti	a1,a0,-5
    800009fc:	0eb13023          	sd	a1,224(sp)
    80000a00:	00000293          	li	t0,0
    80000a04:	00b28463          	beq	t0,a1,80000a0c <inst_51>
    80000a08:	e1cff06f          	j	80000024 <rvtest_error>

0000000080000a0c <inst_51>:
    80000a0c:	00100513          	li	a0,1
    80000a10:	01851513          	slli	a0,a0,0x18
    80000a14:	fff52593          	slti	a1,a0,-1
    80000a18:	0eb13423          	sd	a1,232(sp)
    80000a1c:	00000293          	li	t0,0
    80000a20:	00b28463          	beq	t0,a1,80000a28 <inst_52>
    80000a24:	e00ff06f          	j	80000024 <rvtest_error>

0000000080000a28 <inst_52>:
    80000a28:	00100513          	li	a0,1
    80000a2c:	01951513          	slli	a0,a0,0x19
    80000a30:	ff752593          	slti	a1,a0,-9
    80000a34:	0eb13823          	sd	a1,240(sp)
    80000a38:	00000293          	li	t0,0
    80000a3c:	00b28463          	beq	t0,a1,80000a44 <inst_53>
    80000a40:	de4ff06f          	j	80000024 <rvtest_error>

0000000080000a44 <inst_53>:
    80000a44:	00100513          	li	a0,1
    80000a48:	01a51513          	slli	a0,a0,0x1a
    80000a4c:	00052593          	slti	a1,a0,0
    80000a50:	0eb13c23          	sd	a1,248(sp)
    80000a54:	00000293          	li	t0,0
    80000a58:	00b28463          	beq	t0,a1,80000a60 <inst_54>
    80000a5c:	dc8ff06f          	j	80000024 <rvtest_error>

0000000080000a60 <inst_54>:
    80000a60:	00100513          	li	a0,1
    80000a64:	01b51513          	slli	a0,a0,0x1b
    80000a68:	00852593          	slti	a1,a0,8
    80000a6c:	10b13023          	sd	a1,256(sp)
    80000a70:	00000293          	li	t0,0
    80000a74:	00b28463          	beq	t0,a1,80000a7c <inst_55>
    80000a78:	dacff06f          	j	80000024 <rvtest_error>

0000000080000a7c <inst_55>:
    80000a7c:	00100513          	li	a0,1
    80000a80:	01c51513          	slli	a0,a0,0x1c
    80000a84:	f7f52593          	slti	a1,a0,-129
    80000a88:	10b13423          	sd	a1,264(sp)
    80000a8c:	00000293          	li	t0,0
    80000a90:	00b28463          	beq	t0,a1,80000a98 <inst_56>
    80000a94:	d90ff06f          	j	80000024 <rvtest_error>

0000000080000a98 <inst_56>:
    80000a98:	00100513          	li	a0,1
    80000a9c:	01d51513          	slli	a0,a0,0x1d
    80000aa0:	04052593          	slti	a1,a0,64
    80000aa4:	10b13823          	sd	a1,272(sp)
    80000aa8:	00000293          	li	t0,0
    80000aac:	00b28463          	beq	t0,a1,80000ab4 <inst_57>
    80000ab0:	d74ff06f          	j	80000024 <rvtest_error>

0000000080000ab4 <inst_57>:
    80000ab4:	00100513          	li	a0,1
    80000ab8:	01f51513          	slli	a0,a0,0x1f
    80000abc:	7ff52593          	slti	a1,a0,2047
    80000ac0:	10b13c23          	sd	a1,280(sp)
    80000ac4:	00000293          	li	t0,0
    80000ac8:	00b28463          	beq	t0,a1,80000ad0 <inst_58>
    80000acc:	d58ff06f          	j	80000024 <rvtest_error>

0000000080000ad0 <inst_58>:
    80000ad0:	00100513          	li	a0,1
    80000ad4:	02051513          	slli	a0,a0,0x20
    80000ad8:	aab52593          	slti	a1,a0,-1365
    80000adc:	12b13023          	sd	a1,288(sp)
    80000ae0:	00000293          	li	t0,0
    80000ae4:	00b28463          	beq	t0,a1,80000aec <inst_59>
    80000ae8:	d3cff06f          	j	80000024 <rvtest_error>

0000000080000aec <inst_59>:
    80000aec:	00100513          	li	a0,1
    80000af0:	02151513          	slli	a0,a0,0x21
    80000af4:	00652593          	slti	a1,a0,6
    80000af8:	12b13423          	sd	a1,296(sp)
    80000afc:	00000293          	li	t0,0
    80000b00:	00b28463          	beq	t0,a1,80000b08 <inst_60>
    80000b04:	d20ff06f          	j	80000024 <rvtest_error>

0000000080000b08 <inst_60>:
    80000b08:	00100513          	li	a0,1
    80000b0c:	02251513          	slli	a0,a0,0x22
    80000b10:	fff52593          	slti	a1,a0,-1
    80000b14:	12b13823          	sd	a1,304(sp)
    80000b18:	00000293          	li	t0,0
    80000b1c:	00b28463          	beq	t0,a1,80000b24 <inst_61>
    80000b20:	d04ff06f          	j	80000024 <rvtest_error>

0000000080000b24 <inst_61>:
    80000b24:	00100513          	li	a0,1
    80000b28:	02351513          	slli	a0,a0,0x23
    80000b2c:	ffe52593          	slti	a1,a0,-2
    80000b30:	12b13c23          	sd	a1,312(sp)
    80000b34:	00000293          	li	t0,0
    80000b38:	00b28463          	beq	t0,a1,80000b40 <inst_62>
    80000b3c:	ce8ff06f          	j	80000024 <rvtest_error>

0000000080000b40 <inst_62>:
    80000b40:	00100513          	li	a0,1
    80000b44:	02451513          	slli	a0,a0,0x24
    80000b48:	55452593          	slti	a1,a0,1364
    80000b4c:	14b13023          	sd	a1,320(sp)
    80000b50:	00000293          	li	t0,0
    80000b54:	00b28463          	beq	t0,a1,80000b5c <inst_63>
    80000b58:	cccff06f          	j	80000024 <rvtest_error>

0000000080000b5c <inst_63>:
    80000b5c:	00100513          	li	a0,1
    80000b60:	02651513          	slli	a0,a0,0x26
    80000b64:	c0052593          	slti	a1,a0,-1024
    80000b68:	14b13423          	sd	a1,328(sp)
    80000b6c:	00000293          	li	t0,0
    80000b70:	00b28463          	beq	t0,a1,80000b78 <inst_64>
    80000b74:	cb0ff06f          	j	80000024 <rvtest_error>

0000000080000b78 <inst_64>:
    80000b78:	00100513          	li	a0,1
    80000b7c:	02951513          	slli	a0,a0,0x29
    80000b80:	ffa52593          	slti	a1,a0,-6
    80000b84:	14b13823          	sd	a1,336(sp)
    80000b88:	00000293          	li	t0,0
    80000b8c:	00b28463          	beq	t0,a1,80000b94 <inst_65>
    80000b90:	c94ff06f          	j	80000024 <rvtest_error>

0000000080000b94 <inst_65>:
    80000b94:	00100513          	li	a0,1
    80000b98:	02b51513          	slli	a0,a0,0x2b
    80000b9c:	80052593          	slti	a1,a0,-2048
    80000ba0:	14b13c23          	sd	a1,344(sp)
    80000ba4:	00000293          	li	t0,0
    80000ba8:	00b28463          	beq	t0,a1,80000bb0 <inst_66>
    80000bac:	c78ff06f          	j	80000024 <rvtest_error>

0000000080000bb0 <inst_66>:
    80000bb0:	00100513          	li	a0,1
    80000bb4:	02c51513          	slli	a0,a0,0x2c
    80000bb8:	00052593          	slti	a1,a0,0
    80000bbc:	16b13023          	sd	a1,352(sp)
    80000bc0:	00000293          	li	t0,0
    80000bc4:	00b28463          	beq	t0,a1,80000bcc <inst_67>
    80000bc8:	c5cff06f          	j	80000024 <rvtest_error>

0000000080000bcc <inst_67>:
    80000bcc:	00100513          	li	a0,1
    80000bd0:	02d51513          	slli	a0,a0,0x2d
    80000bd4:	fd352593          	slti	a1,a0,-45
    80000bd8:	16b13423          	sd	a1,360(sp)
    80000bdc:	00000293          	li	t0,0
    80000be0:	00b28463          	beq	t0,a1,80000be8 <inst_68>
    80000be4:	c40ff06f          	j	80000024 <rvtest_error>

0000000080000be8 <inst_68>:
    80000be8:	00100513          	li	a0,1
    80000bec:	02e51513          	slli	a0,a0,0x2e
    80000bf0:	ff652593          	slti	a1,a0,-10
    80000bf4:	16b13823          	sd	a1,368(sp)
    80000bf8:	00000293          	li	t0,0
    80000bfc:	00b28463          	beq	t0,a1,80000c04 <inst_69>
    80000c00:	c24ff06f          	j	80000024 <rvtest_error>

0000000080000c04 <inst_69>:
    80000c04:	00100513          	li	a0,1
    80000c08:	02f51513          	slli	a0,a0,0x2f
    80000c0c:	02052593          	slti	a1,a0,32
    80000c10:	16b13c23          	sd	a1,376(sp)
    80000c14:	00000293          	li	t0,0
    80000c18:	00b28463          	beq	t0,a1,80000c20 <inst_70>
    80000c1c:	c08ff06f          	j	80000024 <rvtest_error>

0000000080000c20 <inst_70>:
    80000c20:	00100513          	li	a0,1
    80000c24:	03051513          	slli	a0,a0,0x30
    80000c28:	ffa52593          	slti	a1,a0,-6
    80000c2c:	18b13023          	sd	a1,384(sp)
    80000c30:	00000293          	li	t0,0
    80000c34:	00b28463          	beq	t0,a1,80000c3c <inst_71>
    80000c38:	becff06f          	j	80000024 <rvtest_error>

0000000080000c3c <inst_71>:
    80000c3c:	00100513          	li	a0,1
    80000c40:	03351513          	slli	a0,a0,0x33
    80000c44:	fd452593          	slti	a1,a0,-44
    80000c48:	18b13423          	sd	a1,392(sp)
    80000c4c:	00000293          	li	t0,0
    80000c50:	00b28463          	beq	t0,a1,80000c58 <inst_72>
    80000c54:	bd0ff06f          	j	80000024 <rvtest_error>

0000000080000c58 <inst_72>:
    80000c58:	00100513          	li	a0,1
    80000c5c:	03451513          	slli	a0,a0,0x34
    80000c60:	00252593          	slti	a1,a0,2
    80000c64:	18b13823          	sd	a1,400(sp)
    80000c68:	00000293          	li	t0,0
    80000c6c:	00b28463          	beq	t0,a1,80000c74 <inst_73>
    80000c70:	bb4ff06f          	j	80000024 <rvtest_error>

0000000080000c74 <inst_73>:
    80000c74:	00100513          	li	a0,1
    80000c78:	03551513          	slli	a0,a0,0x35
    80000c7c:	ffc52593          	slti	a1,a0,-4
    80000c80:	18b13c23          	sd	a1,408(sp)
    80000c84:	00000293          	li	t0,0
    80000c88:	00b28463          	beq	t0,a1,80000c90 <inst_74>
    80000c8c:	b98ff06f          	j	80000024 <rvtest_error>

0000000080000c90 <inst_74>:
    80000c90:	00100513          	li	a0,1
    80000c94:	03651513          	slli	a0,a0,0x36
    80000c98:	00652593          	slti	a1,a0,6
    80000c9c:	1ab13023          	sd	a1,416(sp)
    80000ca0:	00000293          	li	t0,0
    80000ca4:	00b28463          	beq	t0,a1,80000cac <inst_75>
    80000ca8:	b7cff06f          	j	80000024 <rvtest_error>

0000000080000cac <inst_75>:
    80000cac:	00100513          	li	a0,1
    80000cb0:	03851513          	slli	a0,a0,0x38
    80000cb4:	aaa52593          	slti	a1,a0,-1366
    80000cb8:	1ab13423          	sd	a1,424(sp)
    80000cbc:	00000293          	li	t0,0
    80000cc0:	00b28463          	beq	t0,a1,80000cc8 <inst_76>
    80000cc4:	b60ff06f          	j	80000024 <rvtest_error>

0000000080000cc8 <inst_76>:
    80000cc8:	00100513          	li	a0,1
    80000ccc:	03951513          	slli	a0,a0,0x39
    80000cd0:	55652593          	slti	a1,a0,1366
    80000cd4:	1ab13823          	sd	a1,432(sp)
    80000cd8:	00000293          	li	t0,0
    80000cdc:	00b28463          	beq	t0,a1,80000ce4 <inst_77>
    80000ce0:	b44ff06f          	j	80000024 <rvtest_error>

0000000080000ce4 <inst_77>:
    80000ce4:	00100513          	li	a0,1
    80000ce8:	03a51513          	slli	a0,a0,0x3a
    80000cec:	aaa52593          	slti	a1,a0,-1366
    80000cf0:	1ab13c23          	sd	a1,440(sp)
    80000cf4:	00000293          	li	t0,0
    80000cf8:	00b28463          	beq	t0,a1,80000d00 <inst_78>
    80000cfc:	b28ff06f          	j	80000024 <rvtest_error>

0000000080000d00 <inst_78>:
    80000d00:	00100513          	li	a0,1
    80000d04:	03b51513          	slli	a0,a0,0x3b
    80000d08:	eff52593          	slti	a1,a0,-257
    80000d0c:	1cb13023          	sd	a1,448(sp)
    80000d10:	00000293          	li	t0,0
    80000d14:	00b28463          	beq	t0,a1,80000d1c <inst_79>
    80000d18:	b0cff06f          	j	80000024 <rvtest_error>

0000000080000d1c <inst_79>:
    80000d1c:	00100513          	li	a0,1
    80000d20:	03c51513          	slli	a0,a0,0x3c
    80000d24:	33352593          	slti	a1,a0,819
    80000d28:	1cb13423          	sd	a1,456(sp)
    80000d2c:	00000293          	li	t0,0
    80000d30:	00b28463          	beq	t0,a1,80000d38 <inst_80>
    80000d34:	af0ff06f          	j	80000024 <rvtest_error>

0000000080000d38 <inst_80>:
    80000d38:	00100513          	li	a0,1
    80000d3c:	03d51513          	slli	a0,a0,0x3d
    80000d40:	08052593          	slti	a1,a0,128
    80000d44:	1cb13823          	sd	a1,464(sp)
    80000d48:	00000293          	li	t0,0
    80000d4c:	00b28463          	beq	t0,a1,80000d54 <inst_81>
    80000d50:	ad4ff06f          	j	80000024 <rvtest_error>

0000000080000d54 <inst_81>:
    80000d54:	00100513          	li	a0,1
    80000d58:	03e51513          	slli	a0,a0,0x3e
    80000d5c:	f7f52593          	slti	a1,a0,-129
    80000d60:	1cb13c23          	sd	a1,472(sp)
    80000d64:	00000293          	li	t0,0
    80000d68:	00b28463          	beq	t0,a1,80000d70 <inst_82>
    80000d6c:	ab8ff06f          	j	80000024 <rvtest_error>

0000000080000d70 <inst_82>:
    80000d70:	ffd00513          	li	a0,-3
    80000d74:	ffa52593          	slti	a1,a0,-6
    80000d78:	1eb13023          	sd	a1,480(sp)
    80000d7c:	00000293          	li	t0,0
    80000d80:	00b28463          	beq	t0,a1,80000d88 <inst_83>
    80000d84:	aa0ff06f          	j	80000024 <rvtest_error>

0000000080000d88 <inst_83>:
    80000d88:	ffb00513          	li	a0,-5
    80000d8c:	80052593          	slti	a1,a0,-2048
    80000d90:	1eb13423          	sd	a1,488(sp)
    80000d94:	00000293          	li	t0,0
    80000d98:	00b28463          	beq	t0,a1,80000da0 <inst_84>
    80000d9c:	a88ff06f          	j	80000024 <rvtest_error>

0000000080000da0 <inst_84>:
    80000da0:	ff700513          	li	a0,-9
    80000da4:	ff852593          	slti	a1,a0,-8
    80000da8:	1eb13823          	sd	a1,496(sp)
    80000dac:	00100293          	li	t0,1
    80000db0:	00b28463          	beq	t0,a1,80000db8 <inst_85>
    80000db4:	a70ff06f          	j	80000024 <rvtest_error>

0000000080000db8 <inst_85>:
    80000db8:	fef00513          	li	a0,-17
    80000dbc:	55452593          	slti	a1,a0,1364
    80000dc0:	1eb13c23          	sd	a1,504(sp)
    80000dc4:	00100293          	li	t0,1
    80000dc8:	00b28463          	beq	t0,a1,80000dd0 <inst_86>
    80000dcc:	a58ff06f          	j	80000024 <rvtest_error>

0000000080000dd0 <inst_86>:
    80000dd0:	fdf00513          	li	a0,-33
    80000dd4:	33352593          	slti	a1,a0,819
    80000dd8:	20b13023          	sd	a1,512(sp)
    80000ddc:	00100293          	li	t0,1
    80000de0:	00b28463          	beq	t0,a1,80000de8 <inst_87>
    80000de4:	a40ff06f          	j	80000024 <rvtest_error>

0000000080000de8 <inst_87>:
    80000de8:	fbf00513          	li	a0,-65
    80000dec:	eff52593          	slti	a1,a0,-257
    80000df0:	20b13423          	sd	a1,520(sp)
    80000df4:	00000293          	li	t0,0
    80000df8:	00b28463          	beq	t0,a1,80000e00 <inst_88>
    80000dfc:	a28ff06f          	j	80000024 <rvtest_error>

0000000080000e00 <inst_88>:
    80000e00:	f7f00513          	li	a0,-129
    80000e04:	aaa52593          	slti	a1,a0,-1366
    80000e08:	20b13823          	sd	a1,528(sp)
    80000e0c:	00000293          	li	t0,0
    80000e10:	00b28463          	beq	t0,a1,80000e18 <inst_89>
    80000e14:	a10ff06f          	j	80000024 <rvtest_error>

0000000080000e18 <inst_89>:
    80000e18:	eff00513          	li	a0,-257
    80000e1c:	ff952593          	slti	a1,a0,-7
    80000e20:	20b13c23          	sd	a1,536(sp)
    80000e24:	00100293          	li	t0,1
    80000e28:	00b28463          	beq	t0,a1,80000e30 <inst_90>
    80000e2c:	9f8ff06f          	j	80000024 <rvtest_error>

0000000080000e30 <inst_90>:
    80000e30:	dff00513          	li	a0,-513
    80000e34:	00352593          	slti	a1,a0,3
    80000e38:	22b13023          	sd	a1,544(sp)
    80000e3c:	00100293          	li	t0,1
    80000e40:	00b28463          	beq	t0,a1,80000e48 <inst_91>
    80000e44:	9e0ff06f          	j	80000024 <rvtest_error>

0000000080000e48 <inst_91>:
    80000e48:	bff00513          	li	a0,-1025
    80000e4c:	00752593          	slti	a1,a0,7
    80000e50:	22b13423          	sd	a1,552(sp)
    80000e54:	00100293          	li	t0,1
    80000e58:	00b28463          	beq	t0,a1,80000e60 <inst_92>
    80000e5c:	9c8ff06f          	j	80000024 <rvtest_error>

0000000080000e60 <inst_92>:
    80000e60:	00100513          	li	a0,1
    80000e64:	00b51513          	slli	a0,a0,0xb
    80000e68:	fff54513          	not	a0,a0
    80000e6c:	00552593          	slti	a1,a0,5
    80000e70:	22b13823          	sd	a1,560(sp)
    80000e74:	00100293          	li	t0,1
    80000e78:	00b28463          	beq	t0,a1,80000e80 <inst_93>
    80000e7c:	9a8ff06f          	j	80000024 <rvtest_error>

0000000080000e80 <inst_93>:
    80000e80:	00100513          	li	a0,1
    80000e84:	00d51513          	slli	a0,a0,0xd
    80000e88:	fff54513          	not	a0,a0
    80000e8c:	00352593          	slti	a1,a0,3
    80000e90:	22b13c23          	sd	a1,568(sp)
    80000e94:	00100293          	li	t0,1
    80000e98:	00b28463          	beq	t0,a1,80000ea0 <inst_94>
    80000e9c:	988ff06f          	j	80000024 <rvtest_error>

0000000080000ea0 <inst_94>:
    80000ea0:	00100513          	li	a0,1
    80000ea4:	01051513          	slli	a0,a0,0x10
    80000ea8:	fff54513          	not	a0,a0
    80000eac:	66752593          	slti	a1,a0,1639
    80000eb0:	24b13023          	sd	a1,576(sp)
    80000eb4:	00100293          	li	t0,1
    80000eb8:	00b28463          	beq	t0,a1,80000ec0 <inst_95>
    80000ebc:	968ff06f          	j	80000024 <rvtest_error>

0000000080000ec0 <inst_95>:
    80000ec0:	00100513          	li	a0,1
    80000ec4:	01151513          	slli	a0,a0,0x11
    80000ec8:	fff54513          	not	a0,a0
    80000ecc:	00552593          	slti	a1,a0,5
    80000ed0:	24b13423          	sd	a1,584(sp)
    80000ed4:	00100293          	li	t0,1
    80000ed8:	00b28463          	beq	t0,a1,80000ee0 <inst_96>
    80000edc:	948ff06f          	j	80000024 <rvtest_error>

0000000080000ee0 <inst_96>:
    80000ee0:	00100513          	li	a0,1
    80000ee4:	01251513          	slli	a0,a0,0x12
    80000ee8:	fff54513          	not	a0,a0
    80000eec:	00452593          	slti	a1,a0,4
    80000ef0:	24b13823          	sd	a1,592(sp)
    80000ef4:	00100293          	li	t0,1
    80000ef8:	00b28463          	beq	t0,a1,80000f00 <inst_97>
    80000efc:	928ff06f          	j	80000024 <rvtest_error>

0000000080000f00 <inst_97>:
    80000f00:	00100513          	li	a0,1
    80000f04:	01351513          	slli	a0,a0,0x13
    80000f08:	fff54513          	not	a0,a0
    80000f0c:	ff952593          	slti	a1,a0,-7
    80000f10:	24b13c23          	sd	a1,600(sp)
    80000f14:	00100293          	li	t0,1
    80000f18:	00b28463          	beq	t0,a1,80000f20 <inst_98>
    80000f1c:	908ff06f          	j	80000024 <rvtest_error>

0000000080000f20 <inst_98>:
    80000f20:	00100513          	li	a0,1
    80000f24:	01451513          	slli	a0,a0,0x14
    80000f28:	fff54513          	not	a0,a0
    80000f2c:	00952593          	slti	a1,a0,9
    80000f30:	26b13023          	sd	a1,608(sp)
    80000f34:	00100293          	li	t0,1
    80000f38:	00b28463          	beq	t0,a1,80000f40 <inst_99>
    80000f3c:	8e8ff06f          	j	80000024 <rvtest_error>

0000000080000f40 <inst_99>:
    80000f40:	00100513          	li	a0,1
    80000f44:	01551513          	slli	a0,a0,0x15
    80000f48:	fff54513          	not	a0,a0
    80000f4c:	33352593          	slti	a1,a0,819
    80000f50:	26b13423          	sd	a1,616(sp)
    80000f54:	00100293          	li	t0,1
    80000f58:	00b28463          	beq	t0,a1,80000f60 <inst_100>
    80000f5c:	8c8ff06f          	j	80000024 <rvtest_error>

0000000080000f60 <inst_100>:
    80000f60:	00100513          	li	a0,1
    80000f64:	01651513          	slli	a0,a0,0x16
    80000f68:	fff54513          	not	a0,a0
    80000f6c:	00352593          	slti	a1,a0,3
    80000f70:	26b13823          	sd	a1,624(sp)
    80000f74:	00100293          	li	t0,1
    80000f78:	00b28463          	beq	t0,a1,80000f80 <inst_101>
    80000f7c:	8a8ff06f          	j	80000024 <rvtest_error>

0000000080000f80 <inst_101>:
    80000f80:	00100513          	li	a0,1
    80000f84:	01751513          	slli	a0,a0,0x17
    80000f88:	fff54513          	not	a0,a0
    80000f8c:	00552593          	slti	a1,a0,5
    80000f90:	26b13c23          	sd	a1,632(sp)
    80000f94:	00100293          	li	t0,1
    80000f98:	00b28463          	beq	t0,a1,80000fa0 <inst_102>
    80000f9c:	888ff06f          	j	80000024 <rvtest_error>

0000000080000fa0 <inst_102>:
    80000fa0:	00100513          	li	a0,1
    80000fa4:	01851513          	slli	a0,a0,0x18
    80000fa8:	fff54513          	not	a0,a0
    80000fac:	fd352593          	slti	a1,a0,-45
    80000fb0:	28b13023          	sd	a1,640(sp)
    80000fb4:	00100293          	li	t0,1
    80000fb8:	00b28463          	beq	t0,a1,80000fc0 <inst_103>
    80000fbc:	868ff06f          	j	80000024 <rvtest_error>

0000000080000fc0 <inst_103>:
    80000fc0:	00100513          	li	a0,1
    80000fc4:	01951513          	slli	a0,a0,0x19
    80000fc8:	fff54513          	not	a0,a0
    80000fcc:	33252593          	slti	a1,a0,818
    80000fd0:	28b13423          	sd	a1,648(sp)
    80000fd4:	00100293          	li	t0,1
    80000fd8:	00b28463          	beq	t0,a1,80000fe0 <inst_104>
    80000fdc:	848ff06f          	j	80000024 <rvtest_error>

0000000080000fe0 <inst_104>:
    80000fe0:	00100513          	li	a0,1
    80000fe4:	01a51513          	slli	a0,a0,0x1a
    80000fe8:	fff54513          	not	a0,a0
    80000fec:	00452593          	slti	a1,a0,4
    80000ff0:	28b13823          	sd	a1,656(sp)
    80000ff4:	00100293          	li	t0,1
    80000ff8:	00b28463          	beq	t0,a1,80001000 <inst_105>
    80000ffc:	828ff06f          	j	80000024 <rvtest_error>

0000000080001000 <inst_105>:
    80001000:	00100513          	li	a0,1
    80001004:	01b51513          	slli	a0,a0,0x1b
    80001008:	fff54513          	not	a0,a0
    8000100c:	08052593          	slti	a1,a0,128
    80001010:	28b13c23          	sd	a1,664(sp)
    80001014:	00100293          	li	t0,1
    80001018:	00b28463          	beq	t0,a1,80001020 <inst_106>
    8000101c:	808ff06f          	j	80000024 <rvtest_error>

0000000080001020 <inst_106>:
    80001020:	00100513          	li	a0,1
    80001024:	01c51513          	slli	a0,a0,0x1c
    80001028:	fff54513          	not	a0,a0
    8000102c:	00352593          	slti	a1,a0,3
    80001030:	2ab13023          	sd	a1,672(sp)
    80001034:	00100293          	li	t0,1
    80001038:	00b28463          	beq	t0,a1,80001040 <inst_107>
    8000103c:	fe9fe06f          	j	80000024 <rvtest_error>

0000000080001040 <inst_107>:
    80001040:	00100513          	li	a0,1
    80001044:	01d51513          	slli	a0,a0,0x1d
    80001048:	fff54513          	not	a0,a0
    8000104c:	55652593          	slti	a1,a0,1366
    80001050:	2ab13423          	sd	a1,680(sp)
    80001054:	00100293          	li	t0,1
    80001058:	00b28463          	beq	t0,a1,80001060 <inst_108>
    8000105c:	fc9fe06f          	j	80000024 <rvtest_error>

0000000080001060 <inst_108>:
    80001060:	00100513          	li	a0,1
    80001064:	01f51513          	slli	a0,a0,0x1f
    80001068:	fff54513          	not	a0,a0
    8000106c:	40052593          	slti	a1,a0,1024
    80001070:	2ab13823          	sd	a1,688(sp)
    80001074:	00100293          	li	t0,1
    80001078:	00b28463          	beq	t0,a1,80001080 <inst_109>
    8000107c:	fa9fe06f          	j	80000024 <rvtest_error>

0000000080001080 <inst_109>:
    80001080:	00100513          	li	a0,1
    80001084:	02051513          	slli	a0,a0,0x20
    80001088:	fff54513          	not	a0,a0
    8000108c:	00552593          	slti	a1,a0,5
    80001090:	2ab13c23          	sd	a1,696(sp)
    80001094:	00100293          	li	t0,1
    80001098:	00b28463          	beq	t0,a1,800010a0 <inst_110>
    8000109c:	f89fe06f          	j	80000024 <rvtest_error>

00000000800010a0 <inst_110>:
    800010a0:	00100513          	li	a0,1
    800010a4:	02151513          	slli	a0,a0,0x21
    800010a8:	fff54513          	not	a0,a0
    800010ac:	ff752593          	slti	a1,a0,-9
    800010b0:	2cb13023          	sd	a1,704(sp)
    800010b4:	00100293          	li	t0,1
    800010b8:	00b28463          	beq	t0,a1,800010c0 <inst_111>
    800010bc:	f69fe06f          	j	80000024 <rvtest_error>

00000000800010c0 <inst_111>:
    800010c0:	00100513          	li	a0,1
    800010c4:	02251513          	slli	a0,a0,0x22
    800010c8:	fff54513          	not	a0,a0
    800010cc:	00452593          	slti	a1,a0,4
    800010d0:	2cb13423          	sd	a1,712(sp)
    800010d4:	00100293          	li	t0,1
    800010d8:	00b28463          	beq	t0,a1,800010e0 <inst_112>
    800010dc:	f49fe06f          	j	80000024 <rvtest_error>

00000000800010e0 <inst_112>:
    800010e0:	00100513          	li	a0,1
    800010e4:	02351513          	slli	a0,a0,0x23
    800010e8:	fff54513          	not	a0,a0
    800010ec:	02052593          	slti	a1,a0,32
    800010f0:	2cb13823          	sd	a1,720(sp)
    800010f4:	00100293          	li	t0,1
    800010f8:	00b28463          	beq	t0,a1,80001100 <inst_113>
    800010fc:	f29fe06f          	j	80000024 <rvtest_error>

0000000080001100 <inst_113>:
    80001100:	00100513          	li	a0,1
    80001104:	02451513          	slli	a0,a0,0x24
    80001108:	fff54513          	not	a0,a0
    8000110c:	33252593          	slti	a1,a0,818
    80001110:	2cb13c23          	sd	a1,728(sp)
    80001114:	00100293          	li	t0,1
    80001118:	00b28463          	beq	t0,a1,80001120 <inst_114>
    8000111c:	f09fe06f          	j	80000024 <rvtest_error>

0000000080001120 <inst_114>:
    80001120:	00100513          	li	a0,1
    80001124:	02551513          	slli	a0,a0,0x25
    80001128:	fff54513          	not	a0,a0
    8000112c:	7ff52593          	slti	a1,a0,2047
    80001130:	2eb13023          	sd	a1,736(sp)
    80001134:	00100293          	li	t0,1
    80001138:	00b28463          	beq	t0,a1,80001140 <inst_115>
    8000113c:	ee9fe06f          	j	80000024 <rvtest_error>

0000000080001140 <inst_115>:
    80001140:	00100513          	li	a0,1
    80001144:	02651513          	slli	a0,a0,0x26
    80001148:	fff54513          	not	a0,a0
    8000114c:	66752593          	slti	a1,a0,1639
    80001150:	2eb13423          	sd	a1,744(sp)
    80001154:	00100293          	li	t0,1
    80001158:	00b28463          	beq	t0,a1,80001160 <inst_116>
    8000115c:	ec9fe06f          	j	80000024 <rvtest_error>

0000000080001160 <inst_116>:
    80001160:	00100513          	li	a0,1
    80001164:	02751513          	slli	a0,a0,0x27
    80001168:	fff54513          	not	a0,a0
    8000116c:	ff652593          	slti	a1,a0,-10
    80001170:	2eb13823          	sd	a1,752(sp)
    80001174:	00100293          	li	t0,1
    80001178:	00b28463          	beq	t0,a1,80001180 <inst_117>
    8000117c:	ea9fe06f          	j	80000024 <rvtest_error>

0000000080001180 <inst_117>:
    80001180:	00100513          	li	a0,1
    80001184:	02851513          	slli	a0,a0,0x28
    80001188:	fff54513          	not	a0,a0
    8000118c:	00652593          	slti	a1,a0,6
    80001190:	2eb13c23          	sd	a1,760(sp)
    80001194:	00100293          	li	t0,1
    80001198:	00b28463          	beq	t0,a1,800011a0 <inst_118>
    8000119c:	e89fe06f          	j	80000024 <rvtest_error>

00000000800011a0 <inst_118>:
    800011a0:	00100513          	li	a0,1
    800011a4:	02a51513          	slli	a0,a0,0x2a
    800011a8:	fff54513          	not	a0,a0
    800011ac:	80052593          	slti	a1,a0,-2048
    800011b0:	30b13023          	sd	a1,768(sp)
    800011b4:	00100293          	li	t0,1
    800011b8:	00b28463          	beq	t0,a1,800011c0 <inst_119>
    800011bc:	e69fe06f          	j	80000024 <rvtest_error>

00000000800011c0 <inst_119>:
    800011c0:	00100513          	li	a0,1
    800011c4:	02b51513          	slli	a0,a0,0x2b
    800011c8:	fff54513          	not	a0,a0
    800011cc:	33352593          	slti	a1,a0,819
    800011d0:	30b13423          	sd	a1,776(sp)
    800011d4:	00100293          	li	t0,1
    800011d8:	00b28463          	beq	t0,a1,800011e0 <inst_120>
    800011dc:	e49fe06f          	j	80000024 <rvtest_error>

00000000800011e0 <inst_120>:
    800011e0:	00100513          	li	a0,1
    800011e4:	02c51513          	slli	a0,a0,0x2c
    800011e8:	fff54513          	not	a0,a0
    800011ec:	00252593          	slti	a1,a0,2
    800011f0:	30b13823          	sd	a1,784(sp)
    800011f4:	00100293          	li	t0,1
    800011f8:	00b28463          	beq	t0,a1,80001200 <inst_121>
    800011fc:	e29fe06f          	j	80000024 <rvtest_error>

0000000080001200 <inst_121>:
    80001200:	00100513          	li	a0,1
    80001204:	02d51513          	slli	a0,a0,0x2d
    80001208:	fff54513          	not	a0,a0
    8000120c:	00752593          	slti	a1,a0,7
    80001210:	30b13c23          	sd	a1,792(sp)
    80001214:	00100293          	li	t0,1
    80001218:	00b28463          	beq	t0,a1,80001220 <inst_122>
    8000121c:	e09fe06f          	j	80000024 <rvtest_error>

0000000080001220 <inst_122>:
    80001220:	00100513          	li	a0,1
    80001224:	02e51513          	slli	a0,a0,0x2e
    80001228:	fff54513          	not	a0,a0
    8000122c:	55652593          	slti	a1,a0,1366
    80001230:	32b13023          	sd	a1,800(sp)
    80001234:	00100293          	li	t0,1
    80001238:	00b28463          	beq	t0,a1,80001240 <inst_123>
    8000123c:	de9fe06f          	j	80000024 <rvtest_error>

0000000080001240 <inst_123>:
    80001240:	00100513          	li	a0,1
    80001244:	02f51513          	slli	a0,a0,0x2f
    80001248:	fff54513          	not	a0,a0
    8000124c:	55652593          	slti	a1,a0,1366
    80001250:	32b13423          	sd	a1,808(sp)
    80001254:	00100293          	li	t0,1
    80001258:	00b28463          	beq	t0,a1,80001260 <inst_124>
    8000125c:	dc9fe06f          	j	80000024 <rvtest_error>

0000000080001260 <inst_124>:
    80001260:	00100513          	li	a0,1
    80001264:	03251513          	slli	a0,a0,0x32
    80001268:	fff54513          	not	a0,a0
    8000126c:	00252593          	slti	a1,a0,2
    80001270:	32b13823          	sd	a1,816(sp)
    80001274:	00100293          	li	t0,1
    80001278:	00b28463          	beq	t0,a1,80001280 <inst_125>
    8000127c:	da9fe06f          	j	80000024 <rvtest_error>

0000000080001280 <inst_125>:
    80001280:	00100513          	li	a0,1
    80001284:	03351513          	slli	a0,a0,0x33
    80001288:	fff54513          	not	a0,a0
    8000128c:	ffb52593          	slti	a1,a0,-5
    80001290:	32b13c23          	sd	a1,824(sp)
    80001294:	00100293          	li	t0,1
    80001298:	00b28463          	beq	t0,a1,800012a0 <inst_126>
    8000129c:	d89fe06f          	j	80000024 <rvtest_error>

00000000800012a0 <inst_126>:
    800012a0:	00100513          	li	a0,1
    800012a4:	03451513          	slli	a0,a0,0x34
    800012a8:	fff54513          	not	a0,a0
    800012ac:	aaa52593          	slti	a1,a0,-1366
    800012b0:	34b13023          	sd	a1,832(sp)
    800012b4:	00100293          	li	t0,1
    800012b8:	00b28463          	beq	t0,a1,800012c0 <inst_127>
    800012bc:	d69fe06f          	j	80000024 <rvtest_error>

00000000800012c0 <inst_127>:
    800012c0:	00100513          	li	a0,1
    800012c4:	03551513          	slli	a0,a0,0x35
    800012c8:	fff54513          	not	a0,a0
    800012cc:	fd452593          	slti	a1,a0,-44
    800012d0:	34b13423          	sd	a1,840(sp)
    800012d4:	00100293          	li	t0,1
    800012d8:	00b28463          	beq	t0,a1,800012e0 <inst_128>
    800012dc:	d49fe06f          	j	80000024 <rvtest_error>

00000000800012e0 <inst_128>:
    800012e0:	00100513          	li	a0,1
    800012e4:	03651513          	slli	a0,a0,0x36
    800012e8:	fff54513          	not	a0,a0
    800012ec:	f7f52593          	slti	a1,a0,-129
    800012f0:	34b13823          	sd	a1,848(sp)
    800012f4:	00100293          	li	t0,1
    800012f8:	00b28463          	beq	t0,a1,80001300 <inst_129>
    800012fc:	d29fe06f          	j	80000024 <rvtest_error>

0000000080001300 <inst_129>:
    80001300:	00100513          	li	a0,1
    80001304:	03751513          	slli	a0,a0,0x37
    80001308:	fff54513          	not	a0,a0
    8000130c:	c0052593          	slti	a1,a0,-1024
    80001310:	34b13c23          	sd	a1,856(sp)
    80001314:	00100293          	li	t0,1
    80001318:	00b28463          	beq	t0,a1,80001320 <inst_130>
    8000131c:	d09fe06f          	j	80000024 <rvtest_error>

0000000080001320 <inst_130>:
    80001320:	00100513          	li	a0,1
    80001324:	03851513          	slli	a0,a0,0x38
    80001328:	fff54513          	not	a0,a0
    8000132c:	00752593          	slti	a1,a0,7
    80001330:	36b13023          	sd	a1,864(sp)
    80001334:	00100293          	li	t0,1
    80001338:	00b28463          	beq	t0,a1,80001340 <inst_131>
    8000133c:	ce9fe06f          	j	80000024 <rvtest_error>

0000000080001340 <inst_131>:
    80001340:	00100513          	li	a0,1
    80001344:	03951513          	slli	a0,a0,0x39
    80001348:	fff54513          	not	a0,a0
    8000134c:	80052593          	slti	a1,a0,-2048
    80001350:	36b13423          	sd	a1,872(sp)
    80001354:	00100293          	li	t0,1
    80001358:	00b28463          	beq	t0,a1,80001360 <inst_132>
    8000135c:	cc9fe06f          	j	80000024 <rvtest_error>

0000000080001360 <inst_132>:
    80001360:	00100513          	li	a0,1
    80001364:	03a51513          	slli	a0,a0,0x3a
    80001368:	fff54513          	not	a0,a0
    8000136c:	02e52593          	slti	a1,a0,46
    80001370:	36b13823          	sd	a1,880(sp)
    80001374:	00100293          	li	t0,1
    80001378:	00b28463          	beq	t0,a1,80001380 <inst_133>
    8000137c:	ca9fe06f          	j	80000024 <rvtest_error>

0000000080001380 <inst_133>:
    80001380:	00100513          	li	a0,1
    80001384:	03d51513          	slli	a0,a0,0x3d
    80001388:	fff54513          	not	a0,a0
    8000138c:	ffa52593          	slti	a1,a0,-6
    80001390:	36b13c23          	sd	a1,888(sp)
    80001394:	00100293          	li	t0,1
    80001398:	00b28463          	beq	t0,a1,800013a0 <inst_134>
    8000139c:	c89fe06f          	j	80000024 <rvtest_error>

00000000800013a0 <inst_134>:
    800013a0:	00100513          	li	a0,1
    800013a4:	03e51513          	slli	a0,a0,0x3e
    800013a8:	fff54513          	not	a0,a0
    800013ac:	aab52593          	slti	a1,a0,-1365
    800013b0:	38b13023          	sd	a1,896(sp)
    800013b4:	00100293          	li	t0,1
    800013b8:	00b28463          	beq	t0,a1,800013c0 <inst_135>
    800013bc:	c69fe06f          	j	80000024 <rvtest_error>

00000000800013c0 <inst_135>:
    800013c0:	55555537          	lui	a0,0x55555
    800013c4:	55550513          	addi	a0,a0,1365 # 55555555 <absimmsh+0x49a847a8>
    800013c8:	00b51513          	slli	a0,a0,0xb
    800013cc:	2aa50513          	addi	a0,a0,682
    800013d0:	00b51513          	slli	a0,a0,0xb
    800013d4:	55550513          	addi	a0,a0,1365
    800013d8:	00a51513          	slli	a0,a0,0xa
    800013dc:	15550513          	addi	a0,a0,341
    800013e0:	33352593          	slti	a1,a0,819
    800013e4:	38b13423          	sd	a1,904(sp)
    800013e8:	00000293          	li	t0,0
    800013ec:	00b28463          	beq	t0,a1,800013f4 <inst_136>
    800013f0:	c35fe06f          	j	80000024 <rvtest_error>

00000000800013f4 <inst_136>:
    800013f4:	00300513          	li	a0,3
    800013f8:	00352593          	slti	a1,a0,3
    800013fc:	38b13823          	sd	a1,912(sp)
    80001400:	00000293          	li	t0,0
    80001404:	00b28463          	beq	t0,a1,8000140c <inst_137>
    80001408:	c1dfe06f          	j	80000024 <rvtest_error>

000000008000140c <inst_137>:
    8000140c:	00300513          	li	a0,3
    80001410:	55552593          	slti	a1,a0,1365
    80001414:	38b13c23          	sd	a1,920(sp)
    80001418:	00100293          	li	t0,1
    8000141c:	00b28463          	beq	t0,a1,80001424 <inst_138>
    80001420:	c05fe06f          	j	80000024 <rvtest_error>

0000000080001424 <inst_138>:
    80001424:	00300513          	li	a0,3
    80001428:	aaa52593          	slti	a1,a0,-1366
    8000142c:	3ab13023          	sd	a1,928(sp)
    80001430:	00000293          	li	t0,0
    80001434:	00b28463          	beq	t0,a1,8000143c <inst_139>
    80001438:	bedfe06f          	j	80000024 <rvtest_error>

000000008000143c <inst_139>:
    8000143c:	00300513          	li	a0,3
    80001440:	00552593          	slti	a1,a0,5
    80001444:	3ab13423          	sd	a1,936(sp)
    80001448:	00100293          	li	t0,1
    8000144c:	00b28463          	beq	t0,a1,80001454 <inst_140>
    80001450:	bd5fe06f          	j	80000024 <rvtest_error>

0000000080001454 <inst_140>:
    80001454:	00300513          	li	a0,3
    80001458:	33352593          	slti	a1,a0,819
    8000145c:	3ab13823          	sd	a1,944(sp)
    80001460:	00100293          	li	t0,1
    80001464:	00b28463          	beq	t0,a1,8000146c <inst_141>
    80001468:	bbdfe06f          	j	80000024 <rvtest_error>

000000008000146c <inst_141>:
    8000146c:	00300513          	li	a0,3
    80001470:	66652593          	slti	a1,a0,1638
    80001474:	3ab13c23          	sd	a1,952(sp)
    80001478:	00100293          	li	t0,1
    8000147c:	00b28463          	beq	t0,a1,80001484 <inst_142>
    80001480:	ba5fe06f          	j	80000024 <rvtest_error>

0000000080001484 <inst_142>:
    80001484:	00300513          	li	a0,3
    80001488:	fd352593          	slti	a1,a0,-45
    8000148c:	3cb13023          	sd	a1,960(sp)
    80001490:	00000293          	li	t0,0
    80001494:	00b28463          	beq	t0,a1,8000149c <inst_143>
    80001498:	b8dfe06f          	j	80000024 <rvtest_error>

000000008000149c <inst_143>:
    8000149c:	00300513          	li	a0,3
    800014a0:	02d52593          	slti	a1,a0,45
    800014a4:	3cb13423          	sd	a1,968(sp)
    800014a8:	00100293          	li	t0,1
    800014ac:	00b28463          	beq	t0,a1,800014b4 <inst_144>
    800014b0:	b75fe06f          	j	80000024 <rvtest_error>

00000000800014b4 <inst_144>:
    800014b4:	00300513          	li	a0,3
    800014b8:	00252593          	slti	a1,a0,2
    800014bc:	3cb13823          	sd	a1,976(sp)
    800014c0:	00000293          	li	t0,0
    800014c4:	00b28463          	beq	t0,a1,800014cc <inst_145>
    800014c8:	b5dfe06f          	j	80000024 <rvtest_error>

00000000800014cc <inst_145>:
    800014cc:	00300513          	li	a0,3
    800014d0:	55452593          	slti	a1,a0,1364
    800014d4:	3cb13c23          	sd	a1,984(sp)
    800014d8:	00100293          	li	t0,1
    800014dc:	00b28463          	beq	t0,a1,800014e4 <inst_146>
    800014e0:	b45fe06f          	j	80000024 <rvtest_error>

00000000800014e4 <inst_146>:
    800014e4:	00300513          	li	a0,3
    800014e8:	00052593          	slti	a1,a0,0
    800014ec:	3eb13023          	sd	a1,992(sp)
    800014f0:	00000293          	li	t0,0
    800014f4:	00b28463          	beq	t0,a1,800014fc <inst_147>
    800014f8:	b2dfe06f          	j	80000024 <rvtest_error>

00000000800014fc <inst_147>:
    800014fc:	00300513          	li	a0,3
    80001500:	00452593          	slti	a1,a0,4
    80001504:	3eb13423          	sd	a1,1000(sp)
    80001508:	00100293          	li	t0,1
    8000150c:	00b28463          	beq	t0,a1,80001514 <inst_148>
    80001510:	b15fe06f          	j	80000024 <rvtest_error>

0000000080001514 <inst_148>:
    80001514:	00300513          	li	a0,3
    80001518:	33252593          	slti	a1,a0,818
    8000151c:	3eb13823          	sd	a1,1008(sp)
    80001520:	00100293          	li	t0,1
    80001524:	00b28463          	beq	t0,a1,8000152c <inst_149>
    80001528:	afdfe06f          	j	80000024 <rvtest_error>

000000008000152c <inst_149>:
    8000152c:	00300513          	li	a0,3
    80001530:	66552593          	slti	a1,a0,1637
    80001534:	3eb13c23          	sd	a1,1016(sp)
    80001538:	00100293          	li	t0,1
    8000153c:	00b28463          	beq	t0,a1,80001544 <inst_150>
    80001540:	ae5fe06f          	j	80000024 <rvtest_error>

0000000080001544 <inst_150>:
    80001544:	00300513          	li	a0,3
    80001548:	02c52593          	slti	a1,a0,44
    8000154c:	40b13023          	sd	a1,1024(sp)
    80001550:	00100293          	li	t0,1
    80001554:	00b28463          	beq	t0,a1,8000155c <inst_151>
    80001558:	acdfe06f          	j	80000024 <rvtest_error>

000000008000155c <inst_151>:
    8000155c:	00300513          	li	a0,3
    80001560:	55652593          	slti	a1,a0,1366
    80001564:	40b13423          	sd	a1,1032(sp)
    80001568:	00100293          	li	t0,1
    8000156c:	00b28463          	beq	t0,a1,80001574 <inst_152>
    80001570:	ab5fe06f          	j	80000024 <rvtest_error>

0000000080001574 <inst_152>:
    80001574:	00300513          	li	a0,3
    80001578:	aab52593          	slti	a1,a0,-1365
    8000157c:	40b13823          	sd	a1,1040(sp)
    80001580:	00000293          	li	t0,0
    80001584:	00b28463          	beq	t0,a1,8000158c <inst_153>
    80001588:	a9dfe06f          	j	80000024 <rvtest_error>

000000008000158c <inst_153>:
    8000158c:	00300513          	li	a0,3
    80001590:	00652593          	slti	a1,a0,6
    80001594:	40b13c23          	sd	a1,1048(sp)
    80001598:	00100293          	li	t0,1
    8000159c:	00b28463          	beq	t0,a1,800015a4 <inst_154>
    800015a0:	a85fe06f          	j	80000024 <rvtest_error>

00000000800015a4 <inst_154>:
    800015a4:	00300513          	li	a0,3
    800015a8:	33452593          	slti	a1,a0,820
    800015ac:	42b13023          	sd	a1,1056(sp)
    800015b0:	00100293          	li	t0,1
    800015b4:	00b28463          	beq	t0,a1,800015bc <inst_155>
    800015b8:	a6dfe06f          	j	80000024 <rvtest_error>

00000000800015bc <inst_155>:
    800015bc:	00300513          	li	a0,3
    800015c0:	66752593          	slti	a1,a0,1639
    800015c4:	42b13423          	sd	a1,1064(sp)
    800015c8:	00100293          	li	t0,1
    800015cc:	00b28463          	beq	t0,a1,800015d4 <inst_156>
    800015d0:	a55fe06f          	j	80000024 <rvtest_error>

00000000800015d4 <inst_156>:
    800015d4:	00300513          	li	a0,3
    800015d8:	fd452593          	slti	a1,a0,-44
    800015dc:	42b13823          	sd	a1,1072(sp)
    800015e0:	00000293          	li	t0,0
    800015e4:	00b28463          	beq	t0,a1,800015ec <inst_157>
    800015e8:	a3dfe06f          	j	80000024 <rvtest_error>

00000000800015ec <inst_157>:
    800015ec:	00300513          	li	a0,3
    800015f0:	02e52593          	slti	a1,a0,46
    800015f4:	42b13c23          	sd	a1,1080(sp)
    800015f8:	00100293          	li	t0,1
    800015fc:	00b28463          	beq	t0,a1,80001604 <inst_158>
    80001600:	a25fe06f          	j	80000024 <rvtest_error>

0000000080001604 <inst_158>:
    80001604:	55555537          	lui	a0,0x55555
    80001608:	55550513          	addi	a0,a0,1365 # 55555555 <absimmsh+0x49a847a8>
    8000160c:	00b51513          	slli	a0,a0,0xb
    80001610:	2aa50513          	addi	a0,a0,682
    80001614:	00b51513          	slli	a0,a0,0xb
    80001618:	55550513          	addi	a0,a0,1365
    8000161c:	00a51513          	slli	a0,a0,0xa
    80001620:	15550513          	addi	a0,a0,341
    80001624:	00352593          	slti	a1,a0,3
    80001628:	44b13023          	sd	a1,1088(sp)
    8000162c:	00000293          	li	t0,0
    80001630:	00b28463          	beq	t0,a1,80001638 <inst_159>
    80001634:	9f1fe06f          	j	80000024 <rvtest_error>

0000000080001638 <inst_159>:
    80001638:	55555537          	lui	a0,0x55555
    8000163c:	55550513          	addi	a0,a0,1365 # 55555555 <absimmsh+0x49a847a8>
    80001640:	00b51513          	slli	a0,a0,0xb
    80001644:	2aa50513          	addi	a0,a0,682
    80001648:	00b51513          	slli	a0,a0,0xb
    8000164c:	55550513          	addi	a0,a0,1365
    80001650:	00a51513          	slli	a0,a0,0xa
    80001654:	15550513          	addi	a0,a0,341
    80001658:	55552593          	slti	a1,a0,1365
    8000165c:	44b13423          	sd	a1,1096(sp)
    80001660:	00000293          	li	t0,0
    80001664:	00b28463          	beq	t0,a1,8000166c <inst_160>
    80001668:	9bdfe06f          	j	80000024 <rvtest_error>

000000008000166c <inst_160>:
    8000166c:	55555537          	lui	a0,0x55555
    80001670:	55550513          	addi	a0,a0,1365 # 55555555 <absimmsh+0x49a847a8>
    80001674:	00b51513          	slli	a0,a0,0xb
    80001678:	2aa50513          	addi	a0,a0,682
    8000167c:	00b51513          	slli	a0,a0,0xb
    80001680:	55550513          	addi	a0,a0,1365
    80001684:	00a51513          	slli	a0,a0,0xa
    80001688:	15550513          	addi	a0,a0,341
    8000168c:	aaa52593          	slti	a1,a0,-1366
    80001690:	44b13823          	sd	a1,1104(sp)
    80001694:	00000293          	li	t0,0
    80001698:	00b28463          	beq	t0,a1,800016a0 <inst_161>
    8000169c:	989fe06f          	j	80000024 <rvtest_error>

00000000800016a0 <inst_161>:
    800016a0:	55555537          	lui	a0,0x55555
    800016a4:	55550513          	addi	a0,a0,1365 # 55555555 <absimmsh+0x49a847a8>
    800016a8:	00b51513          	slli	a0,a0,0xb
    800016ac:	2aa50513          	addi	a0,a0,682
    800016b0:	00b51513          	slli	a0,a0,0xb
    800016b4:	55550513          	addi	a0,a0,1365
    800016b8:	00a51513          	slli	a0,a0,0xa
    800016bc:	15550513          	addi	a0,a0,341
    800016c0:	00552593          	slti	a1,a0,5
    800016c4:	44b13c23          	sd	a1,1112(sp)
    800016c8:	00000293          	li	t0,0
    800016cc:	00b28463          	beq	t0,a1,800016d4 <inst_162>
    800016d0:	955fe06f          	j	80000024 <rvtest_error>

00000000800016d4 <inst_162>:
    800016d4:	55555537          	lui	a0,0x55555
    800016d8:	55550513          	addi	a0,a0,1365 # 55555555 <absimmsh+0x49a847a8>
    800016dc:	00b51513          	slli	a0,a0,0xb
    800016e0:	2aa50513          	addi	a0,a0,682
    800016e4:	00b51513          	slli	a0,a0,0xb
    800016e8:	55550513          	addi	a0,a0,1365
    800016ec:	00a51513          	slli	a0,a0,0xa
    800016f0:	15550513          	addi	a0,a0,341
    800016f4:	66652593          	slti	a1,a0,1638
    800016f8:	46b13023          	sd	a1,1120(sp)
    800016fc:	00000293          	li	t0,0
    80001700:	00b28463          	beq	t0,a1,80001708 <inst_163>
    80001704:	921fe06f          	j	80000024 <rvtest_error>

0000000080001708 <inst_163>:
    80001708:	55555537          	lui	a0,0x55555
    8000170c:	55550513          	addi	a0,a0,1365 # 55555555 <absimmsh+0x49a847a8>
    80001710:	00b51513          	slli	a0,a0,0xb
    80001714:	2aa50513          	addi	a0,a0,682
    80001718:	00b51513          	slli	a0,a0,0xb
    8000171c:	55550513          	addi	a0,a0,1365
    80001720:	00a51513          	slli	a0,a0,0xa
    80001724:	15550513          	addi	a0,a0,341
    80001728:	fd352593          	slti	a1,a0,-45
    8000172c:	46b13423          	sd	a1,1128(sp)
    80001730:	00000293          	li	t0,0
    80001734:	00b28463          	beq	t0,a1,8000173c <inst_164>
    80001738:	8edfe06f          	j	80000024 <rvtest_error>

000000008000173c <inst_164>:
    8000173c:	55555537          	lui	a0,0x55555
    80001740:	55550513          	addi	a0,a0,1365 # 55555555 <absimmsh+0x49a847a8>
    80001744:	00b51513          	slli	a0,a0,0xb
    80001748:	2aa50513          	addi	a0,a0,682
    8000174c:	00b51513          	slli	a0,a0,0xb
    80001750:	55550513          	addi	a0,a0,1365
    80001754:	00a51513          	slli	a0,a0,0xa
    80001758:	15550513          	addi	a0,a0,341
    8000175c:	02d52593          	slti	a1,a0,45
    80001760:	46b13823          	sd	a1,1136(sp)
    80001764:	00000293          	li	t0,0
    80001768:	00b28463          	beq	t0,a1,80001770 <inst_165>
    8000176c:	8b9fe06f          	j	80000024 <rvtest_error>

0000000080001770 <inst_165>:
    80001770:	55555537          	lui	a0,0x55555
    80001774:	55550513          	addi	a0,a0,1365 # 55555555 <absimmsh+0x49a847a8>
    80001778:	00b51513          	slli	a0,a0,0xb
    8000177c:	2aa50513          	addi	a0,a0,682
    80001780:	00b51513          	slli	a0,a0,0xb
    80001784:	55550513          	addi	a0,a0,1365
    80001788:	00a51513          	slli	a0,a0,0xa
    8000178c:	15550513          	addi	a0,a0,341
    80001790:	00252593          	slti	a1,a0,2
    80001794:	46b13c23          	sd	a1,1144(sp)
    80001798:	00000293          	li	t0,0
    8000179c:	00b28463          	beq	t0,a1,800017a4 <inst_166>
    800017a0:	885fe06f          	j	80000024 <rvtest_error>

00000000800017a4 <inst_166>:
    800017a4:	55555537          	lui	a0,0x55555
    800017a8:	55550513          	addi	a0,a0,1365 # 55555555 <absimmsh+0x49a847a8>
    800017ac:	00b51513          	slli	a0,a0,0xb
    800017b0:	2aa50513          	addi	a0,a0,682
    800017b4:	00b51513          	slli	a0,a0,0xb
    800017b8:	55550513          	addi	a0,a0,1365
    800017bc:	00a51513          	slli	a0,a0,0xa
    800017c0:	15550513          	addi	a0,a0,341
    800017c4:	55452593          	slti	a1,a0,1364
    800017c8:	48b13023          	sd	a1,1152(sp)
    800017cc:	00000293          	li	t0,0
    800017d0:	00b28463          	beq	t0,a1,800017d8 <inst_167>
    800017d4:	851fe06f          	j	80000024 <rvtest_error>

00000000800017d8 <inst_167>:
    800017d8:	55555537          	lui	a0,0x55555
    800017dc:	55550513          	addi	a0,a0,1365 # 55555555 <absimmsh+0x49a847a8>
    800017e0:	00b51513          	slli	a0,a0,0xb
    800017e4:	2aa50513          	addi	a0,a0,682
    800017e8:	00b51513          	slli	a0,a0,0xb
    800017ec:	55550513          	addi	a0,a0,1365
    800017f0:	00a51513          	slli	a0,a0,0xa
    800017f4:	15550513          	addi	a0,a0,341
    800017f8:	00052593          	slti	a1,a0,0
    800017fc:	48b13423          	sd	a1,1160(sp)
    80001800:	00000293          	li	t0,0
    80001804:	00b28463          	beq	t0,a1,8000180c <inst_168>
    80001808:	81dfe06f          	j	80000024 <rvtest_error>

000000008000180c <inst_168>:
    8000180c:	55555537          	lui	a0,0x55555
    80001810:	55550513          	addi	a0,a0,1365 # 55555555 <absimmsh+0x49a847a8>
    80001814:	00b51513          	slli	a0,a0,0xb
    80001818:	2aa50513          	addi	a0,a0,682
    8000181c:	00b51513          	slli	a0,a0,0xb
    80001820:	55550513          	addi	a0,a0,1365
    80001824:	00a51513          	slli	a0,a0,0xa
    80001828:	15550513          	addi	a0,a0,341
    8000182c:	00452593          	slti	a1,a0,4
    80001830:	48b13823          	sd	a1,1168(sp)
    80001834:	00000293          	li	t0,0
    80001838:	00b28463          	beq	t0,a1,80001840 <inst_169>
    8000183c:	fe8fe06f          	j	80000024 <rvtest_error>

0000000080001840 <inst_169>:
    80001840:	55555537          	lui	a0,0x55555
    80001844:	55550513          	addi	a0,a0,1365 # 55555555 <absimmsh+0x49a847a8>
    80001848:	00b51513          	slli	a0,a0,0xb
    8000184c:	2aa50513          	addi	a0,a0,682
    80001850:	00b51513          	slli	a0,a0,0xb
    80001854:	55550513          	addi	a0,a0,1365
    80001858:	00a51513          	slli	a0,a0,0xa
    8000185c:	15550513          	addi	a0,a0,341
    80001860:	33252593          	slti	a1,a0,818
    80001864:	48b13c23          	sd	a1,1176(sp)
    80001868:	00000293          	li	t0,0
    8000186c:	00b28463          	beq	t0,a1,80001874 <inst_170>
    80001870:	fb4fe06f          	j	80000024 <rvtest_error>

0000000080001874 <inst_170>:
    80001874:	55555537          	lui	a0,0x55555
    80001878:	55550513          	addi	a0,a0,1365 # 55555555 <absimmsh+0x49a847a8>
    8000187c:	00b51513          	slli	a0,a0,0xb
    80001880:	2aa50513          	addi	a0,a0,682
    80001884:	00b51513          	slli	a0,a0,0xb
    80001888:	55550513          	addi	a0,a0,1365
    8000188c:	00a51513          	slli	a0,a0,0xa
    80001890:	15550513          	addi	a0,a0,341
    80001894:	66552593          	slti	a1,a0,1637
    80001898:	4ab13023          	sd	a1,1184(sp)
    8000189c:	00000293          	li	t0,0
    800018a0:	00b28463          	beq	t0,a1,800018a8 <inst_171>
    800018a4:	f80fe06f          	j	80000024 <rvtest_error>

00000000800018a8 <inst_171>:
    800018a8:	55555537          	lui	a0,0x55555
    800018ac:	55550513          	addi	a0,a0,1365 # 55555555 <absimmsh+0x49a847a8>
    800018b0:	00b51513          	slli	a0,a0,0xb
    800018b4:	2aa50513          	addi	a0,a0,682
    800018b8:	00b51513          	slli	a0,a0,0xb
    800018bc:	55550513          	addi	a0,a0,1365
    800018c0:	00a51513          	slli	a0,a0,0xa
    800018c4:	15550513          	addi	a0,a0,341
    800018c8:	02c52593          	slti	a1,a0,44
    800018cc:	4ab13423          	sd	a1,1192(sp)
    800018d0:	00000293          	li	t0,0
    800018d4:	00b28463          	beq	t0,a1,800018dc <inst_172>
    800018d8:	f4cfe06f          	j	80000024 <rvtest_error>

00000000800018dc <inst_172>:
    800018dc:	55555537          	lui	a0,0x55555
    800018e0:	55550513          	addi	a0,a0,1365 # 55555555 <absimmsh+0x49a847a8>
    800018e4:	00b51513          	slli	a0,a0,0xb
    800018e8:	2aa50513          	addi	a0,a0,682
    800018ec:	00b51513          	slli	a0,a0,0xb
    800018f0:	55550513          	addi	a0,a0,1365
    800018f4:	00a51513          	slli	a0,a0,0xa
    800018f8:	15550513          	addi	a0,a0,341
    800018fc:	55652593          	slti	a1,a0,1366
    80001900:	4ab13823          	sd	a1,1200(sp)
    80001904:	00000293          	li	t0,0
    80001908:	00b28463          	beq	t0,a1,80001910 <inst_173>
    8000190c:	f18fe06f          	j	80000024 <rvtest_error>

0000000080001910 <inst_173>:
    80001910:	55555537          	lui	a0,0x55555
    80001914:	55550513          	addi	a0,a0,1365 # 55555555 <absimmsh+0x49a847a8>
    80001918:	00b51513          	slli	a0,a0,0xb
    8000191c:	2aa50513          	addi	a0,a0,682
    80001920:	00b51513          	slli	a0,a0,0xb
    80001924:	55550513          	addi	a0,a0,1365
    80001928:	00a51513          	slli	a0,a0,0xa
    8000192c:	15550513          	addi	a0,a0,341
    80001930:	aab52593          	slti	a1,a0,-1365
    80001934:	4ab13c23          	sd	a1,1208(sp)
    80001938:	00000293          	li	t0,0
    8000193c:	00b28463          	beq	t0,a1,80001944 <inst_174>
    80001940:	ee4fe06f          	j	80000024 <rvtest_error>

0000000080001944 <inst_174>:
    80001944:	55555537          	lui	a0,0x55555
    80001948:	55550513          	addi	a0,a0,1365 # 55555555 <absimmsh+0x49a847a8>
    8000194c:	00b51513          	slli	a0,a0,0xb
    80001950:	2aa50513          	addi	a0,a0,682
    80001954:	00b51513          	slli	a0,a0,0xb
    80001958:	55550513          	addi	a0,a0,1365
    8000195c:	00a51513          	slli	a0,a0,0xa
    80001960:	15550513          	addi	a0,a0,341
    80001964:	00652593          	slti	a1,a0,6
    80001968:	4cb13023          	sd	a1,1216(sp)
    8000196c:	00000293          	li	t0,0
    80001970:	00b28463          	beq	t0,a1,80001978 <inst_175>
    80001974:	eb0fe06f          	j	80000024 <rvtest_error>

0000000080001978 <inst_175>:
    80001978:	55555537          	lui	a0,0x55555
    8000197c:	55550513          	addi	a0,a0,1365 # 55555555 <absimmsh+0x49a847a8>
    80001980:	00b51513          	slli	a0,a0,0xb
    80001984:	2aa50513          	addi	a0,a0,682
    80001988:	00b51513          	slli	a0,a0,0xb
    8000198c:	55550513          	addi	a0,a0,1365
    80001990:	00a51513          	slli	a0,a0,0xa
    80001994:	15550513          	addi	a0,a0,341
    80001998:	33452593          	slti	a1,a0,820
    8000199c:	4cb13423          	sd	a1,1224(sp)
    800019a0:	00000293          	li	t0,0
    800019a4:	00b28463          	beq	t0,a1,800019ac <inst_176>
    800019a8:	e7cfe06f          	j	80000024 <rvtest_error>

00000000800019ac <inst_176>:
    800019ac:	55555537          	lui	a0,0x55555
    800019b0:	55550513          	addi	a0,a0,1365 # 55555555 <absimmsh+0x49a847a8>
    800019b4:	00b51513          	slli	a0,a0,0xb
    800019b8:	2aa50513          	addi	a0,a0,682
    800019bc:	00b51513          	slli	a0,a0,0xb
    800019c0:	55550513          	addi	a0,a0,1365
    800019c4:	00a51513          	slli	a0,a0,0xa
    800019c8:	15550513          	addi	a0,a0,341
    800019cc:	66752593          	slti	a1,a0,1639
    800019d0:	4cb13823          	sd	a1,1232(sp)
    800019d4:	00000293          	li	t0,0
    800019d8:	00b28463          	beq	t0,a1,800019e0 <inst_177>
    800019dc:	e48fe06f          	j	80000024 <rvtest_error>

00000000800019e0 <inst_177>:
    800019e0:	55555537          	lui	a0,0x55555
    800019e4:	55550513          	addi	a0,a0,1365 # 55555555 <absimmsh+0x49a847a8>
    800019e8:	00b51513          	slli	a0,a0,0xb
    800019ec:	2aa50513          	addi	a0,a0,682
    800019f0:	00b51513          	slli	a0,a0,0xb
    800019f4:	55550513          	addi	a0,a0,1365
    800019f8:	00a51513          	slli	a0,a0,0xa
    800019fc:	15550513          	addi	a0,a0,341
    80001a00:	fd452593          	slti	a1,a0,-44
    80001a04:	4cb13c23          	sd	a1,1240(sp)
    80001a08:	00000293          	li	t0,0
    80001a0c:	00b28463          	beq	t0,a1,80001a14 <inst_178>
    80001a10:	e14fe06f          	j	80000024 <rvtest_error>

0000000080001a14 <inst_178>:
    80001a14:	55555537          	lui	a0,0x55555
    80001a18:	55550513          	addi	a0,a0,1365 # 55555555 <absimmsh+0x49a847a8>
    80001a1c:	00b51513          	slli	a0,a0,0xb
    80001a20:	2aa50513          	addi	a0,a0,682
    80001a24:	00b51513          	slli	a0,a0,0xb
    80001a28:	55550513          	addi	a0,a0,1365
    80001a2c:	00a51513          	slli	a0,a0,0xa
    80001a30:	15550513          	addi	a0,a0,341
    80001a34:	02e52593          	slti	a1,a0,46
    80001a38:	4eb13023          	sd	a1,1248(sp)
    80001a3c:	00000293          	li	t0,0
    80001a40:	00b28463          	beq	t0,a1,80001a48 <inst_179>
    80001a44:	de0fe06f          	j	80000024 <rvtest_error>

0000000080001a48 <inst_179>:
    80001a48:	aaaab537          	lui	a0,0xaaaab
    80001a4c:	aaa50513          	addi	a0,a0,-1366 # ffffffffaaaaaaaa <absimm+0xfffffffeefd9cfda>
    80001a50:	00b51513          	slli	a0,a0,0xb
    80001a54:	55550513          	addi	a0,a0,1365
    80001a58:	00b51513          	slli	a0,a0,0xb
    80001a5c:	2aa50513          	addi	a0,a0,682
    80001a60:	00a51513          	slli	a0,a0,0xa
    80001a64:	2aa50513          	addi	a0,a0,682
    80001a68:	00352593          	slti	a1,a0,3
    80001a6c:	4eb13423          	sd	a1,1256(sp)
    80001a70:	00100293          	li	t0,1
    80001a74:	00b28463          	beq	t0,a1,80001a7c <inst_180>
    80001a78:	dacfe06f          	j	80000024 <rvtest_error>

0000000080001a7c <inst_180>:
    80001a7c:	aaaab537          	lui	a0,0xaaaab
    80001a80:	aaa50513          	addi	a0,a0,-1366 # ffffffffaaaaaaaa <absimm+0xfffffffeefd9cfda>
    80001a84:	00b51513          	slli	a0,a0,0xb
    80001a88:	55550513          	addi	a0,a0,1365
    80001a8c:	00b51513          	slli	a0,a0,0xb
    80001a90:	2aa50513          	addi	a0,a0,682
    80001a94:	00a51513          	slli	a0,a0,0xa
    80001a98:	2aa50513          	addi	a0,a0,682
    80001a9c:	55552593          	slti	a1,a0,1365
    80001aa0:	4eb13823          	sd	a1,1264(sp)
    80001aa4:	00100293          	li	t0,1
    80001aa8:	00b28463          	beq	t0,a1,80001ab0 <inst_181>
    80001aac:	d78fe06f          	j	80000024 <rvtest_error>

0000000080001ab0 <inst_181>:
    80001ab0:	aaaab537          	lui	a0,0xaaaab
    80001ab4:	aaa50513          	addi	a0,a0,-1366 # ffffffffaaaaaaaa <absimm+0xfffffffeefd9cfda>
    80001ab8:	00b51513          	slli	a0,a0,0xb
    80001abc:	55550513          	addi	a0,a0,1365
    80001ac0:	00b51513          	slli	a0,a0,0xb
    80001ac4:	2aa50513          	addi	a0,a0,682
    80001ac8:	00a51513          	slli	a0,a0,0xa
    80001acc:	2aa50513          	addi	a0,a0,682
    80001ad0:	aaa52593          	slti	a1,a0,-1366
    80001ad4:	4eb13c23          	sd	a1,1272(sp)
    80001ad8:	00100293          	li	t0,1
    80001adc:	00b28463          	beq	t0,a1,80001ae4 <inst_182>
    80001ae0:	d44fe06f          	j	80000024 <rvtest_error>

0000000080001ae4 <inst_182>:
    80001ae4:	aaaab537          	lui	a0,0xaaaab
    80001ae8:	aaa50513          	addi	a0,a0,-1366 # ffffffffaaaaaaaa <absimm+0xfffffffeefd9cfda>
    80001aec:	00b51513          	slli	a0,a0,0xb
    80001af0:	55550513          	addi	a0,a0,1365
    80001af4:	00b51513          	slli	a0,a0,0xb
    80001af8:	2aa50513          	addi	a0,a0,682
    80001afc:	00a51513          	slli	a0,a0,0xa
    80001b00:	2aa50513          	addi	a0,a0,682
    80001b04:	00552593          	slti	a1,a0,5
    80001b08:	50b13023          	sd	a1,1280(sp)
    80001b0c:	00100293          	li	t0,1
    80001b10:	00b28463          	beq	t0,a1,80001b18 <inst_183>
    80001b14:	d10fe06f          	j	80000024 <rvtest_error>

0000000080001b18 <inst_183>:
    80001b18:	aaaab537          	lui	a0,0xaaaab
    80001b1c:	aaa50513          	addi	a0,a0,-1366 # ffffffffaaaaaaaa <absimm+0xfffffffeefd9cfda>
    80001b20:	00b51513          	slli	a0,a0,0xb
    80001b24:	55550513          	addi	a0,a0,1365
    80001b28:	00b51513          	slli	a0,a0,0xb
    80001b2c:	2aa50513          	addi	a0,a0,682
    80001b30:	00a51513          	slli	a0,a0,0xa
    80001b34:	2aa50513          	addi	a0,a0,682
    80001b38:	33352593          	slti	a1,a0,819
    80001b3c:	50b13423          	sd	a1,1288(sp)
    80001b40:	00100293          	li	t0,1
    80001b44:	00b28463          	beq	t0,a1,80001b4c <inst_184>
    80001b48:	cdcfe06f          	j	80000024 <rvtest_error>

0000000080001b4c <inst_184>:
    80001b4c:	aaaab537          	lui	a0,0xaaaab
    80001b50:	aaa50513          	addi	a0,a0,-1366 # ffffffffaaaaaaaa <absimm+0xfffffffeefd9cfda>
    80001b54:	00b51513          	slli	a0,a0,0xb
    80001b58:	55550513          	addi	a0,a0,1365
    80001b5c:	00b51513          	slli	a0,a0,0xb
    80001b60:	2aa50513          	addi	a0,a0,682
    80001b64:	00a51513          	slli	a0,a0,0xa
    80001b68:	2aa50513          	addi	a0,a0,682
    80001b6c:	66652593          	slti	a1,a0,1638
    80001b70:	50b13823          	sd	a1,1296(sp)
    80001b74:	00100293          	li	t0,1
    80001b78:	00b28463          	beq	t0,a1,80001b80 <inst_185>
    80001b7c:	ca8fe06f          	j	80000024 <rvtest_error>

0000000080001b80 <inst_185>:
    80001b80:	aaaab537          	lui	a0,0xaaaab
    80001b84:	aaa50513          	addi	a0,a0,-1366 # ffffffffaaaaaaaa <absimm+0xfffffffeefd9cfda>
    80001b88:	00b51513          	slli	a0,a0,0xb
    80001b8c:	55550513          	addi	a0,a0,1365
    80001b90:	00b51513          	slli	a0,a0,0xb
    80001b94:	2aa50513          	addi	a0,a0,682
    80001b98:	00a51513          	slli	a0,a0,0xa
    80001b9c:	2aa50513          	addi	a0,a0,682
    80001ba0:	fd352593          	slti	a1,a0,-45
    80001ba4:	50b13c23          	sd	a1,1304(sp)
    80001ba8:	00100293          	li	t0,1
    80001bac:	00b28463          	beq	t0,a1,80001bb4 <inst_186>
    80001bb0:	c74fe06f          	j	80000024 <rvtest_error>

0000000080001bb4 <inst_186>:
    80001bb4:	aaaab537          	lui	a0,0xaaaab
    80001bb8:	aaa50513          	addi	a0,a0,-1366 # ffffffffaaaaaaaa <absimm+0xfffffffeefd9cfda>
    80001bbc:	00b51513          	slli	a0,a0,0xb
    80001bc0:	55550513          	addi	a0,a0,1365
    80001bc4:	00b51513          	slli	a0,a0,0xb
    80001bc8:	2aa50513          	addi	a0,a0,682
    80001bcc:	00a51513          	slli	a0,a0,0xa
    80001bd0:	2aa50513          	addi	a0,a0,682
    80001bd4:	02d52593          	slti	a1,a0,45
    80001bd8:	52b13023          	sd	a1,1312(sp)
    80001bdc:	00100293          	li	t0,1
    80001be0:	00b28463          	beq	t0,a1,80001be8 <inst_187>
    80001be4:	c40fe06f          	j	80000024 <rvtest_error>

0000000080001be8 <inst_187>:
    80001be8:	aaaab537          	lui	a0,0xaaaab
    80001bec:	aaa50513          	addi	a0,a0,-1366 # ffffffffaaaaaaaa <absimm+0xfffffffeefd9cfda>
    80001bf0:	00b51513          	slli	a0,a0,0xb
    80001bf4:	55550513          	addi	a0,a0,1365
    80001bf8:	00b51513          	slli	a0,a0,0xb
    80001bfc:	2aa50513          	addi	a0,a0,682
    80001c00:	00a51513          	slli	a0,a0,0xa
    80001c04:	2aa50513          	addi	a0,a0,682
    80001c08:	00252593          	slti	a1,a0,2
    80001c0c:	52b13423          	sd	a1,1320(sp)
    80001c10:	00100293          	li	t0,1
    80001c14:	00b28463          	beq	t0,a1,80001c1c <inst_188>
    80001c18:	c0cfe06f          	j	80000024 <rvtest_error>

0000000080001c1c <inst_188>:
    80001c1c:	aaaab537          	lui	a0,0xaaaab
    80001c20:	aaa50513          	addi	a0,a0,-1366 # ffffffffaaaaaaaa <absimm+0xfffffffeefd9cfda>
    80001c24:	00b51513          	slli	a0,a0,0xb
    80001c28:	55550513          	addi	a0,a0,1365
    80001c2c:	00b51513          	slli	a0,a0,0xb
    80001c30:	2aa50513          	addi	a0,a0,682
    80001c34:	00a51513          	slli	a0,a0,0xa
    80001c38:	2aa50513          	addi	a0,a0,682
    80001c3c:	55452593          	slti	a1,a0,1364
    80001c40:	52b13823          	sd	a1,1328(sp)
    80001c44:	00100293          	li	t0,1
    80001c48:	00b28463          	beq	t0,a1,80001c50 <inst_189>
    80001c4c:	bd8fe06f          	j	80000024 <rvtest_error>

0000000080001c50 <inst_189>:
    80001c50:	aaaab537          	lui	a0,0xaaaab
    80001c54:	aaa50513          	addi	a0,a0,-1366 # ffffffffaaaaaaaa <absimm+0xfffffffeefd9cfda>
    80001c58:	00b51513          	slli	a0,a0,0xb
    80001c5c:	55550513          	addi	a0,a0,1365
    80001c60:	00b51513          	slli	a0,a0,0xb
    80001c64:	2aa50513          	addi	a0,a0,682
    80001c68:	00a51513          	slli	a0,a0,0xa
    80001c6c:	2aa50513          	addi	a0,a0,682
    80001c70:	00052593          	slti	a1,a0,0
    80001c74:	52b13c23          	sd	a1,1336(sp)
    80001c78:	00100293          	li	t0,1
    80001c7c:	00b28463          	beq	t0,a1,80001c84 <inst_190>
    80001c80:	ba4fe06f          	j	80000024 <rvtest_error>

0000000080001c84 <inst_190>:
    80001c84:	aaaab537          	lui	a0,0xaaaab
    80001c88:	aaa50513          	addi	a0,a0,-1366 # ffffffffaaaaaaaa <absimm+0xfffffffeefd9cfda>
    80001c8c:	00b51513          	slli	a0,a0,0xb
    80001c90:	55550513          	addi	a0,a0,1365
    80001c94:	00b51513          	slli	a0,a0,0xb
    80001c98:	2aa50513          	addi	a0,a0,682
    80001c9c:	00a51513          	slli	a0,a0,0xa
    80001ca0:	2aa50513          	addi	a0,a0,682
    80001ca4:	33252593          	slti	a1,a0,818
    80001ca8:	54b13023          	sd	a1,1344(sp)
    80001cac:	00100293          	li	t0,1
    80001cb0:	00b28463          	beq	t0,a1,80001cb8 <inst_191>
    80001cb4:	b70fe06f          	j	80000024 <rvtest_error>

0000000080001cb8 <inst_191>:
    80001cb8:	aaaab537          	lui	a0,0xaaaab
    80001cbc:	aaa50513          	addi	a0,a0,-1366 # ffffffffaaaaaaaa <absimm+0xfffffffeefd9cfda>
    80001cc0:	00b51513          	slli	a0,a0,0xb
    80001cc4:	55550513          	addi	a0,a0,1365
    80001cc8:	00b51513          	slli	a0,a0,0xb
    80001ccc:	2aa50513          	addi	a0,a0,682
    80001cd0:	00a51513          	slli	a0,a0,0xa
    80001cd4:	2aa50513          	addi	a0,a0,682
    80001cd8:	66552593          	slti	a1,a0,1637
    80001cdc:	54b13423          	sd	a1,1352(sp)
    80001ce0:	00100293          	li	t0,1
    80001ce4:	00b28463          	beq	t0,a1,80001cec <inst_192>
    80001ce8:	b3cfe06f          	j	80000024 <rvtest_error>

0000000080001cec <inst_192>:
    80001cec:	aaaab537          	lui	a0,0xaaaab
    80001cf0:	aaa50513          	addi	a0,a0,-1366 # ffffffffaaaaaaaa <absimm+0xfffffffeefd9cfda>
    80001cf4:	00b51513          	slli	a0,a0,0xb
    80001cf8:	55550513          	addi	a0,a0,1365
    80001cfc:	00b51513          	slli	a0,a0,0xb
    80001d00:	2aa50513          	addi	a0,a0,682
    80001d04:	00a51513          	slli	a0,a0,0xa
    80001d08:	2aa50513          	addi	a0,a0,682
    80001d0c:	02c52593          	slti	a1,a0,44
    80001d10:	54b13823          	sd	a1,1360(sp)
    80001d14:	00100293          	li	t0,1
    80001d18:	00b28463          	beq	t0,a1,80001d20 <inst_193>
    80001d1c:	b08fe06f          	j	80000024 <rvtest_error>

0000000080001d20 <inst_193>:
    80001d20:	aaaab537          	lui	a0,0xaaaab
    80001d24:	aaa50513          	addi	a0,a0,-1366 # ffffffffaaaaaaaa <absimm+0xfffffffeefd9cfda>
    80001d28:	00b51513          	slli	a0,a0,0xb
    80001d2c:	55550513          	addi	a0,a0,1365
    80001d30:	00b51513          	slli	a0,a0,0xb
    80001d34:	2aa50513          	addi	a0,a0,682
    80001d38:	00a51513          	slli	a0,a0,0xa
    80001d3c:	2aa50513          	addi	a0,a0,682
    80001d40:	55652593          	slti	a1,a0,1366
    80001d44:	54b13c23          	sd	a1,1368(sp)
    80001d48:	00100293          	li	t0,1
    80001d4c:	00b28463          	beq	t0,a1,80001d54 <inst_194>
    80001d50:	ad4fe06f          	j	80000024 <rvtest_error>

0000000080001d54 <inst_194>:
    80001d54:	aaaab537          	lui	a0,0xaaaab
    80001d58:	aaa50513          	addi	a0,a0,-1366 # ffffffffaaaaaaaa <absimm+0xfffffffeefd9cfda>
    80001d5c:	00b51513          	slli	a0,a0,0xb
    80001d60:	55550513          	addi	a0,a0,1365
    80001d64:	00b51513          	slli	a0,a0,0xb
    80001d68:	2aa50513          	addi	a0,a0,682
    80001d6c:	00a51513          	slli	a0,a0,0xa
    80001d70:	2aa50513          	addi	a0,a0,682
    80001d74:	aab52593          	slti	a1,a0,-1365
    80001d78:	56b13023          	sd	a1,1376(sp)
    80001d7c:	00100293          	li	t0,1
    80001d80:	00b28463          	beq	t0,a1,80001d88 <inst_195>
    80001d84:	aa0fe06f          	j	80000024 <rvtest_error>

0000000080001d88 <inst_195>:
    80001d88:	aaaab537          	lui	a0,0xaaaab
    80001d8c:	aaa50513          	addi	a0,a0,-1366 # ffffffffaaaaaaaa <absimm+0xfffffffeefd9cfda>
    80001d90:	00b51513          	slli	a0,a0,0xb
    80001d94:	55550513          	addi	a0,a0,1365
    80001d98:	00b51513          	slli	a0,a0,0xb
    80001d9c:	2aa50513          	addi	a0,a0,682
    80001da0:	00a51513          	slli	a0,a0,0xa
    80001da4:	2aa50513          	addi	a0,a0,682
    80001da8:	00652593          	slti	a1,a0,6
    80001dac:	56b13423          	sd	a1,1384(sp)
    80001db0:	00100293          	li	t0,1
    80001db4:	00b28463          	beq	t0,a1,80001dbc <inst_196>
    80001db8:	a6cfe06f          	j	80000024 <rvtest_error>

0000000080001dbc <inst_196>:
    80001dbc:	aaaab537          	lui	a0,0xaaaab
    80001dc0:	aaa50513          	addi	a0,a0,-1366 # ffffffffaaaaaaaa <absimm+0xfffffffeefd9cfda>
    80001dc4:	00b51513          	slli	a0,a0,0xb
    80001dc8:	55550513          	addi	a0,a0,1365
    80001dcc:	00b51513          	slli	a0,a0,0xb
    80001dd0:	2aa50513          	addi	a0,a0,682
    80001dd4:	00a51513          	slli	a0,a0,0xa
    80001dd8:	2aa50513          	addi	a0,a0,682
    80001ddc:	33452593          	slti	a1,a0,820
    80001de0:	56b13823          	sd	a1,1392(sp)
    80001de4:	00100293          	li	t0,1
    80001de8:	00b28463          	beq	t0,a1,80001df0 <inst_197>
    80001dec:	a38fe06f          	j	80000024 <rvtest_error>

0000000080001df0 <inst_197>:
    80001df0:	aaaab537          	lui	a0,0xaaaab
    80001df4:	aaa50513          	addi	a0,a0,-1366 # ffffffffaaaaaaaa <absimm+0xfffffffeefd9cfda>
    80001df8:	00b51513          	slli	a0,a0,0xb
    80001dfc:	55550513          	addi	a0,a0,1365
    80001e00:	00b51513          	slli	a0,a0,0xb
    80001e04:	2aa50513          	addi	a0,a0,682
    80001e08:	00a51513          	slli	a0,a0,0xa
    80001e0c:	2aa50513          	addi	a0,a0,682
    80001e10:	66752593          	slti	a1,a0,1639
    80001e14:	56b13c23          	sd	a1,1400(sp)
    80001e18:	00100293          	li	t0,1
    80001e1c:	00b28463          	beq	t0,a1,80001e24 <inst_198>
    80001e20:	a04fe06f          	j	80000024 <rvtest_error>

0000000080001e24 <inst_198>:
    80001e24:	aaaab537          	lui	a0,0xaaaab
    80001e28:	aaa50513          	addi	a0,a0,-1366 # ffffffffaaaaaaaa <absimm+0xfffffffeefd9cfda>
    80001e2c:	00b51513          	slli	a0,a0,0xb
    80001e30:	55550513          	addi	a0,a0,1365
    80001e34:	00b51513          	slli	a0,a0,0xb
    80001e38:	2aa50513          	addi	a0,a0,682
    80001e3c:	00a51513          	slli	a0,a0,0xa
    80001e40:	2aa50513          	addi	a0,a0,682
    80001e44:	fd452593          	slti	a1,a0,-44
    80001e48:	58b13023          	sd	a1,1408(sp)
    80001e4c:	00100293          	li	t0,1
    80001e50:	00b28463          	beq	t0,a1,80001e58 <inst_199>
    80001e54:	9d0fe06f          	j	80000024 <rvtest_error>

0000000080001e58 <inst_199>:
    80001e58:	aaaab537          	lui	a0,0xaaaab
    80001e5c:	aaa50513          	addi	a0,a0,-1366 # ffffffffaaaaaaaa <absimm+0xfffffffeefd9cfda>
    80001e60:	00b51513          	slli	a0,a0,0xb
    80001e64:	55550513          	addi	a0,a0,1365
    80001e68:	00b51513          	slli	a0,a0,0xb
    80001e6c:	2aa50513          	addi	a0,a0,682
    80001e70:	00a51513          	slli	a0,a0,0xa
    80001e74:	2aa50513          	addi	a0,a0,682
    80001e78:	02e52593          	slti	a1,a0,46
    80001e7c:	58b13423          	sd	a1,1416(sp)
    80001e80:	00100293          	li	t0,1
    80001e84:	00b28463          	beq	t0,a1,80001e8c <inst_200>
    80001e88:	99cfe06f          	j	80000024 <rvtest_error>

0000000080001e8c <inst_200>:
    80001e8c:	00500513          	li	a0,5
    80001e90:	00352593          	slti	a1,a0,3
    80001e94:	58b13823          	sd	a1,1424(sp)
    80001e98:	00000293          	li	t0,0
    80001e9c:	00b28463          	beq	t0,a1,80001ea4 <inst_201>
    80001ea0:	984fe06f          	j	80000024 <rvtest_error>

0000000080001ea4 <inst_201>:
    80001ea4:	00500513          	li	a0,5
    80001ea8:	aaa52593          	slti	a1,a0,-1366
    80001eac:	58b13c23          	sd	a1,1432(sp)
    80001eb0:	00000293          	li	t0,0
    80001eb4:	00b28463          	beq	t0,a1,80001ebc <inst_202>
    80001eb8:	96cfe06f          	j	80000024 <rvtest_error>

0000000080001ebc <inst_202>:
    80001ebc:	00500513          	li	a0,5
    80001ec0:	00552593          	slti	a1,a0,5
    80001ec4:	5ab13023          	sd	a1,1440(sp)
    80001ec8:	00000293          	li	t0,0
    80001ecc:	00b28463          	beq	t0,a1,80001ed4 <inst_203>
    80001ed0:	954fe06f          	j	80000024 <rvtest_error>

0000000080001ed4 <inst_203>:
    80001ed4:	00500513          	li	a0,5
    80001ed8:	33352593          	slti	a1,a0,819
    80001edc:	5ab13423          	sd	a1,1448(sp)
    80001ee0:	00100293          	li	t0,1
    80001ee4:	00b28463          	beq	t0,a1,80001eec <inst_204>
    80001ee8:	93cfe06f          	j	80000024 <rvtest_error>

0000000080001eec <inst_204>:
    80001eec:	00500513          	li	a0,5
    80001ef0:	66652593          	slti	a1,a0,1638
    80001ef4:	5ab13823          	sd	a1,1456(sp)
    80001ef8:	00100293          	li	t0,1
    80001efc:	00b28463          	beq	t0,a1,80001f04 <inst_205>
    80001f00:	924fe06f          	j	80000024 <rvtest_error>

0000000080001f04 <inst_205>:
    80001f04:	00500513          	li	a0,5
    80001f08:	fd352593          	slti	a1,a0,-45
    80001f0c:	5ab13c23          	sd	a1,1464(sp)
    80001f10:	00000293          	li	t0,0
    80001f14:	00b28463          	beq	t0,a1,80001f1c <inst_206>
    80001f18:	90cfe06f          	j	80000024 <rvtest_error>

0000000080001f1c <inst_206>:
    80001f1c:	00500513          	li	a0,5
    80001f20:	02d52593          	slti	a1,a0,45
    80001f24:	5cb13023          	sd	a1,1472(sp)
    80001f28:	00100293          	li	t0,1
    80001f2c:	00b28463          	beq	t0,a1,80001f34 <inst_207>
    80001f30:	8f4fe06f          	j	80000024 <rvtest_error>

0000000080001f34 <inst_207>:
    80001f34:	00500513          	li	a0,5
    80001f38:	00252593          	slti	a1,a0,2
    80001f3c:	5cb13423          	sd	a1,1480(sp)
    80001f40:	00000293          	li	t0,0
    80001f44:	00b28463          	beq	t0,a1,80001f4c <inst_208>
    80001f48:	8dcfe06f          	j	80000024 <rvtest_error>

0000000080001f4c <inst_208>:
    80001f4c:	00500513          	li	a0,5
    80001f50:	55452593          	slti	a1,a0,1364
    80001f54:	5cb13823          	sd	a1,1488(sp)
    80001f58:	00100293          	li	t0,1
    80001f5c:	00b28463          	beq	t0,a1,80001f64 <inst_209>
    80001f60:	8c4fe06f          	j	80000024 <rvtest_error>

0000000080001f64 <inst_209>:
    80001f64:	00500513          	li	a0,5
    80001f68:	00052593          	slti	a1,a0,0
    80001f6c:	5cb13c23          	sd	a1,1496(sp)
    80001f70:	00000293          	li	t0,0
    80001f74:	00b28463          	beq	t0,a1,80001f7c <inst_210>
    80001f78:	8acfe06f          	j	80000024 <rvtest_error>

0000000080001f7c <inst_210>:
    80001f7c:	00500513          	li	a0,5
    80001f80:	00452593          	slti	a1,a0,4
    80001f84:	5eb13023          	sd	a1,1504(sp)
    80001f88:	00000293          	li	t0,0
    80001f8c:	00b28463          	beq	t0,a1,80001f94 <inst_211>
    80001f90:	894fe06f          	j	80000024 <rvtest_error>

0000000080001f94 <inst_211>:
    80001f94:	00500513          	li	a0,5
    80001f98:	33252593          	slti	a1,a0,818
    80001f9c:	5eb13423          	sd	a1,1512(sp)
    80001fa0:	00100293          	li	t0,1
    80001fa4:	00b28463          	beq	t0,a1,80001fac <inst_212>
    80001fa8:	87cfe06f          	j	80000024 <rvtest_error>

0000000080001fac <inst_212>:
    80001fac:	00500513          	li	a0,5
    80001fb0:	66552593          	slti	a1,a0,1637
    80001fb4:	5eb13823          	sd	a1,1520(sp)
    80001fb8:	00100293          	li	t0,1
    80001fbc:	00b28463          	beq	t0,a1,80001fc4 <inst_213>
    80001fc0:	864fe06f          	j	80000024 <rvtest_error>

0000000080001fc4 <inst_213>:
    80001fc4:	00500513          	li	a0,5
    80001fc8:	02c52593          	slti	a1,a0,44
    80001fcc:	5eb13c23          	sd	a1,1528(sp)
    80001fd0:	00100293          	li	t0,1
    80001fd4:	00b28463          	beq	t0,a1,80001fdc <inst_214>
    80001fd8:	84cfe06f          	j	80000024 <rvtest_error>

0000000080001fdc <inst_214>:
    80001fdc:	00500513          	li	a0,5
    80001fe0:	55652593          	slti	a1,a0,1366
    80001fe4:	60b13023          	sd	a1,1536(sp)
    80001fe8:	00100293          	li	t0,1
    80001fec:	00b28463          	beq	t0,a1,80001ff4 <inst_215>
    80001ff0:	834fe06f          	j	80000024 <rvtest_error>

0000000080001ff4 <inst_215>:
    80001ff4:	00500513          	li	a0,5
    80001ff8:	aab52593          	slti	a1,a0,-1365
    80001ffc:	60b13423          	sd	a1,1544(sp)
    80002000:	00000293          	li	t0,0
    80002004:	00b28463          	beq	t0,a1,8000200c <inst_216>
    80002008:	81cfe06f          	j	80000024 <rvtest_error>

000000008000200c <inst_216>:
    8000200c:	00500513          	li	a0,5
    80002010:	00652593          	slti	a1,a0,6
    80002014:	60b13823          	sd	a1,1552(sp)
    80002018:	00100293          	li	t0,1
    8000201c:	00b28463          	beq	t0,a1,80002024 <inst_217>
    80002020:	804fe06f          	j	80000024 <rvtest_error>

0000000080002024 <inst_217>:
    80002024:	00500513          	li	a0,5
    80002028:	33452593          	slti	a1,a0,820
    8000202c:	60b13c23          	sd	a1,1560(sp)
    80002030:	00100293          	li	t0,1
    80002034:	00b28463          	beq	t0,a1,8000203c <inst_218>
    80002038:	fedfd06f          	j	80000024 <rvtest_error>

000000008000203c <inst_218>:
    8000203c:	00500513          	li	a0,5
    80002040:	66752593          	slti	a1,a0,1639
    80002044:	62b13023          	sd	a1,1568(sp)
    80002048:	00100293          	li	t0,1
    8000204c:	00b28463          	beq	t0,a1,80002054 <inst_219>
    80002050:	fd5fd06f          	j	80000024 <rvtest_error>

0000000080002054 <inst_219>:
    80002054:	00500513          	li	a0,5
    80002058:	fd452593          	slti	a1,a0,-44
    8000205c:	62b13423          	sd	a1,1576(sp)
    80002060:	00000293          	li	t0,0
    80002064:	00b28463          	beq	t0,a1,8000206c <inst_220>
    80002068:	fbdfd06f          	j	80000024 <rvtest_error>

000000008000206c <inst_220>:
    8000206c:	00500513          	li	a0,5
    80002070:	02e52593          	slti	a1,a0,46
    80002074:	62b13823          	sd	a1,1584(sp)
    80002078:	00100293          	li	t0,1
    8000207c:	00b28463          	beq	t0,a1,80002084 <inst_221>
    80002080:	fa5fd06f          	j	80000024 <rvtest_error>

0000000080002084 <inst_221>:
    80002084:	33333537          	lui	a0,0x33333
    80002088:	33350513          	addi	a0,a0,819 # 33333333 <absimmsh+0x27862586>
    8000208c:	00b51513          	slli	a0,a0,0xb
    80002090:	19950513          	addi	a0,a0,409
    80002094:	00b51513          	slli	a0,a0,0xb
    80002098:	4cc50513          	addi	a0,a0,1228
    8000209c:	00a51513          	slli	a0,a0,0xa
    800020a0:	33350513          	addi	a0,a0,819
    800020a4:	00352593          	slti	a1,a0,3
    800020a8:	62b13c23          	sd	a1,1592(sp)
    800020ac:	00000293          	li	t0,0
    800020b0:	00b28463          	beq	t0,a1,800020b8 <inst_222>
    800020b4:	f71fd06f          	j	80000024 <rvtest_error>

00000000800020b8 <inst_222>:
    800020b8:	33333537          	lui	a0,0x33333
    800020bc:	33350513          	addi	a0,a0,819 # 33333333 <absimmsh+0x27862586>
    800020c0:	00b51513          	slli	a0,a0,0xb
    800020c4:	19950513          	addi	a0,a0,409
    800020c8:	00b51513          	slli	a0,a0,0xb
    800020cc:	4cc50513          	addi	a0,a0,1228
    800020d0:	00a51513          	slli	a0,a0,0xa
    800020d4:	33350513          	addi	a0,a0,819
    800020d8:	55552593          	slti	a1,a0,1365
    800020dc:	64b13023          	sd	a1,1600(sp)
    800020e0:	00000293          	li	t0,0
    800020e4:	00b28463          	beq	t0,a1,800020ec <inst_223>
    800020e8:	f3dfd06f          	j	80000024 <rvtest_error>

00000000800020ec <inst_223>:
    800020ec:	33333537          	lui	a0,0x33333
    800020f0:	33350513          	addi	a0,a0,819 # 33333333 <absimmsh+0x27862586>
    800020f4:	00b51513          	slli	a0,a0,0xb
    800020f8:	19950513          	addi	a0,a0,409
    800020fc:	00b51513          	slli	a0,a0,0xb
    80002100:	4cc50513          	addi	a0,a0,1228
    80002104:	00a51513          	slli	a0,a0,0xa
    80002108:	33350513          	addi	a0,a0,819
    8000210c:	aaa52593          	slti	a1,a0,-1366
    80002110:	64b13423          	sd	a1,1608(sp)
    80002114:	00000293          	li	t0,0
    80002118:	00b28463          	beq	t0,a1,80002120 <inst_224>
    8000211c:	f09fd06f          	j	80000024 <rvtest_error>

0000000080002120 <inst_224>:
    80002120:	33333537          	lui	a0,0x33333
    80002124:	33350513          	addi	a0,a0,819 # 33333333 <absimmsh+0x27862586>
    80002128:	00b51513          	slli	a0,a0,0xb
    8000212c:	19950513          	addi	a0,a0,409
    80002130:	00b51513          	slli	a0,a0,0xb
    80002134:	4cc50513          	addi	a0,a0,1228
    80002138:	00a51513          	slli	a0,a0,0xa
    8000213c:	33350513          	addi	a0,a0,819
    80002140:	00552593          	slti	a1,a0,5
    80002144:	64b13823          	sd	a1,1616(sp)
    80002148:	00000293          	li	t0,0
    8000214c:	00b28463          	beq	t0,a1,80002154 <inst_225>
    80002150:	ed5fd06f          	j	80000024 <rvtest_error>

0000000080002154 <inst_225>:
    80002154:	33333537          	lui	a0,0x33333
    80002158:	33350513          	addi	a0,a0,819 # 33333333 <absimmsh+0x27862586>
    8000215c:	00b51513          	slli	a0,a0,0xb
    80002160:	19950513          	addi	a0,a0,409
    80002164:	00b51513          	slli	a0,a0,0xb
    80002168:	4cc50513          	addi	a0,a0,1228
    8000216c:	00a51513          	slli	a0,a0,0xa
    80002170:	33350513          	addi	a0,a0,819
    80002174:	33352593          	slti	a1,a0,819
    80002178:	64b13c23          	sd	a1,1624(sp)
    8000217c:	00000293          	li	t0,0
    80002180:	00b28463          	beq	t0,a1,80002188 <inst_226>
    80002184:	ea1fd06f          	j	80000024 <rvtest_error>

0000000080002188 <inst_226>:
    80002188:	33333537          	lui	a0,0x33333
    8000218c:	33350513          	addi	a0,a0,819 # 33333333 <absimmsh+0x27862586>
    80002190:	00b51513          	slli	a0,a0,0xb
    80002194:	19950513          	addi	a0,a0,409
    80002198:	00b51513          	slli	a0,a0,0xb
    8000219c:	4cc50513          	addi	a0,a0,1228
    800021a0:	00a51513          	slli	a0,a0,0xa
    800021a4:	33350513          	addi	a0,a0,819
    800021a8:	66652593          	slti	a1,a0,1638
    800021ac:	66b13023          	sd	a1,1632(sp)
    800021b0:	00000293          	li	t0,0
    800021b4:	00b28463          	beq	t0,a1,800021bc <inst_227>
    800021b8:	e6dfd06f          	j	80000024 <rvtest_error>

00000000800021bc <inst_227>:
    800021bc:	33333537          	lui	a0,0x33333
    800021c0:	33350513          	addi	a0,a0,819 # 33333333 <absimmsh+0x27862586>
    800021c4:	00b51513          	slli	a0,a0,0xb
    800021c8:	19950513          	addi	a0,a0,409
    800021cc:	00b51513          	slli	a0,a0,0xb
    800021d0:	4cc50513          	addi	a0,a0,1228
    800021d4:	00a51513          	slli	a0,a0,0xa
    800021d8:	33350513          	addi	a0,a0,819
    800021dc:	fd352593          	slti	a1,a0,-45
    800021e0:	66b13423          	sd	a1,1640(sp)
    800021e4:	00000293          	li	t0,0
    800021e8:	00b28463          	beq	t0,a1,800021f0 <inst_228>
    800021ec:	e39fd06f          	j	80000024 <rvtest_error>

00000000800021f0 <inst_228>:
    800021f0:	33333537          	lui	a0,0x33333
    800021f4:	33350513          	addi	a0,a0,819 # 33333333 <absimmsh+0x27862586>
    800021f8:	00b51513          	slli	a0,a0,0xb
    800021fc:	19950513          	addi	a0,a0,409
    80002200:	00b51513          	slli	a0,a0,0xb
    80002204:	4cc50513          	addi	a0,a0,1228
    80002208:	00a51513          	slli	a0,a0,0xa
    8000220c:	33350513          	addi	a0,a0,819
    80002210:	02d52593          	slti	a1,a0,45
    80002214:	66b13823          	sd	a1,1648(sp)
    80002218:	00000293          	li	t0,0
    8000221c:	00b28463          	beq	t0,a1,80002224 <inst_229>
    80002220:	e05fd06f          	j	80000024 <rvtest_error>

0000000080002224 <inst_229>:
    80002224:	33333537          	lui	a0,0x33333
    80002228:	33350513          	addi	a0,a0,819 # 33333333 <absimmsh+0x27862586>
    8000222c:	00b51513          	slli	a0,a0,0xb
    80002230:	19950513          	addi	a0,a0,409
    80002234:	00b51513          	slli	a0,a0,0xb
    80002238:	4cc50513          	addi	a0,a0,1228
    8000223c:	00a51513          	slli	a0,a0,0xa
    80002240:	33350513          	addi	a0,a0,819
    80002244:	00252593          	slti	a1,a0,2
    80002248:	66b13c23          	sd	a1,1656(sp)
    8000224c:	00000293          	li	t0,0
    80002250:	00b28463          	beq	t0,a1,80002258 <inst_230>
    80002254:	dd1fd06f          	j	80000024 <rvtest_error>

0000000080002258 <inst_230>:
    80002258:	33333537          	lui	a0,0x33333
    8000225c:	33350513          	addi	a0,a0,819 # 33333333 <absimmsh+0x27862586>
    80002260:	00b51513          	slli	a0,a0,0xb
    80002264:	19950513          	addi	a0,a0,409
    80002268:	00b51513          	slli	a0,a0,0xb
    8000226c:	4cc50513          	addi	a0,a0,1228
    80002270:	00a51513          	slli	a0,a0,0xa
    80002274:	33350513          	addi	a0,a0,819
    80002278:	55452593          	slti	a1,a0,1364
    8000227c:	68b13023          	sd	a1,1664(sp)
    80002280:	00000293          	li	t0,0
    80002284:	00b28463          	beq	t0,a1,8000228c <inst_231>
    80002288:	d9dfd06f          	j	80000024 <rvtest_error>

000000008000228c <inst_231>:
    8000228c:	33333537          	lui	a0,0x33333
    80002290:	33350513          	addi	a0,a0,819 # 33333333 <absimmsh+0x27862586>
    80002294:	00b51513          	slli	a0,a0,0xb
    80002298:	19950513          	addi	a0,a0,409
    8000229c:	00b51513          	slli	a0,a0,0xb
    800022a0:	4cc50513          	addi	a0,a0,1228
    800022a4:	00a51513          	slli	a0,a0,0xa
    800022a8:	33350513          	addi	a0,a0,819
    800022ac:	00052593          	slti	a1,a0,0
    800022b0:	68b13423          	sd	a1,1672(sp)
    800022b4:	00000293          	li	t0,0
    800022b8:	00b28463          	beq	t0,a1,800022c0 <inst_232>
    800022bc:	d69fd06f          	j	80000024 <rvtest_error>

00000000800022c0 <inst_232>:
    800022c0:	33333537          	lui	a0,0x33333
    800022c4:	33350513          	addi	a0,a0,819 # 33333333 <absimmsh+0x27862586>
    800022c8:	00b51513          	slli	a0,a0,0xb
    800022cc:	19950513          	addi	a0,a0,409
    800022d0:	00b51513          	slli	a0,a0,0xb
    800022d4:	4cc50513          	addi	a0,a0,1228
    800022d8:	00a51513          	slli	a0,a0,0xa
    800022dc:	33350513          	addi	a0,a0,819
    800022e0:	00452593          	slti	a1,a0,4
    800022e4:	68b13823          	sd	a1,1680(sp)
    800022e8:	00000293          	li	t0,0
    800022ec:	00b28463          	beq	t0,a1,800022f4 <inst_233>
    800022f0:	d35fd06f          	j	80000024 <rvtest_error>

00000000800022f4 <inst_233>:
    800022f4:	33333537          	lui	a0,0x33333
    800022f8:	33350513          	addi	a0,a0,819 # 33333333 <absimmsh+0x27862586>
    800022fc:	00b51513          	slli	a0,a0,0xb
    80002300:	19950513          	addi	a0,a0,409
    80002304:	00b51513          	slli	a0,a0,0xb
    80002308:	4cc50513          	addi	a0,a0,1228
    8000230c:	00a51513          	slli	a0,a0,0xa
    80002310:	33350513          	addi	a0,a0,819
    80002314:	33252593          	slti	a1,a0,818
    80002318:	68b13c23          	sd	a1,1688(sp)
    8000231c:	00000293          	li	t0,0
    80002320:	00b28463          	beq	t0,a1,80002328 <inst_234>
    80002324:	d01fd06f          	j	80000024 <rvtest_error>

0000000080002328 <inst_234>:
    80002328:	33333537          	lui	a0,0x33333
    8000232c:	33350513          	addi	a0,a0,819 # 33333333 <absimmsh+0x27862586>
    80002330:	00b51513          	slli	a0,a0,0xb
    80002334:	19950513          	addi	a0,a0,409
    80002338:	00b51513          	slli	a0,a0,0xb
    8000233c:	4cc50513          	addi	a0,a0,1228
    80002340:	00a51513          	slli	a0,a0,0xa
    80002344:	33350513          	addi	a0,a0,819
    80002348:	66552593          	slti	a1,a0,1637
    8000234c:	6ab13023          	sd	a1,1696(sp)
    80002350:	00000293          	li	t0,0
    80002354:	00b28463          	beq	t0,a1,8000235c <inst_235>
    80002358:	ccdfd06f          	j	80000024 <rvtest_error>

000000008000235c <inst_235>:
    8000235c:	33333537          	lui	a0,0x33333
    80002360:	33350513          	addi	a0,a0,819 # 33333333 <absimmsh+0x27862586>
    80002364:	00b51513          	slli	a0,a0,0xb
    80002368:	19950513          	addi	a0,a0,409
    8000236c:	00b51513          	slli	a0,a0,0xb
    80002370:	4cc50513          	addi	a0,a0,1228
    80002374:	00a51513          	slli	a0,a0,0xa
    80002378:	33350513          	addi	a0,a0,819
    8000237c:	02c52593          	slti	a1,a0,44
    80002380:	6ab13423          	sd	a1,1704(sp)
    80002384:	00000293          	li	t0,0
    80002388:	00b28463          	beq	t0,a1,80002390 <inst_236>
    8000238c:	c99fd06f          	j	80000024 <rvtest_error>

0000000080002390 <inst_236>:
    80002390:	33333537          	lui	a0,0x33333
    80002394:	33350513          	addi	a0,a0,819 # 33333333 <absimmsh+0x27862586>
    80002398:	00b51513          	slli	a0,a0,0xb
    8000239c:	19950513          	addi	a0,a0,409
    800023a0:	00b51513          	slli	a0,a0,0xb
    800023a4:	4cc50513          	addi	a0,a0,1228
    800023a8:	00a51513          	slli	a0,a0,0xa
    800023ac:	33350513          	addi	a0,a0,819
    800023b0:	55652593          	slti	a1,a0,1366
    800023b4:	6ab13823          	sd	a1,1712(sp)
    800023b8:	00000293          	li	t0,0
    800023bc:	00b28463          	beq	t0,a1,800023c4 <inst_237>
    800023c0:	c65fd06f          	j	80000024 <rvtest_error>

00000000800023c4 <inst_237>:
    800023c4:	33333537          	lui	a0,0x33333
    800023c8:	33350513          	addi	a0,a0,819 # 33333333 <absimmsh+0x27862586>
    800023cc:	00b51513          	slli	a0,a0,0xb
    800023d0:	19950513          	addi	a0,a0,409
    800023d4:	00b51513          	slli	a0,a0,0xb
    800023d8:	4cc50513          	addi	a0,a0,1228
    800023dc:	00a51513          	slli	a0,a0,0xa
    800023e0:	33350513          	addi	a0,a0,819
    800023e4:	aab52593          	slti	a1,a0,-1365
    800023e8:	6ab13c23          	sd	a1,1720(sp)
    800023ec:	00000293          	li	t0,0
    800023f0:	00b28463          	beq	t0,a1,800023f8 <inst_238>
    800023f4:	c31fd06f          	j	80000024 <rvtest_error>

00000000800023f8 <inst_238>:
    800023f8:	33333537          	lui	a0,0x33333
    800023fc:	33350513          	addi	a0,a0,819 # 33333333 <absimmsh+0x27862586>
    80002400:	00b51513          	slli	a0,a0,0xb
    80002404:	19950513          	addi	a0,a0,409
    80002408:	00b51513          	slli	a0,a0,0xb
    8000240c:	4cc50513          	addi	a0,a0,1228
    80002410:	00a51513          	slli	a0,a0,0xa
    80002414:	33350513          	addi	a0,a0,819
    80002418:	00652593          	slti	a1,a0,6
    8000241c:	6cb13023          	sd	a1,1728(sp)
    80002420:	00000293          	li	t0,0
    80002424:	00b28463          	beq	t0,a1,8000242c <inst_239>
    80002428:	bfdfd06f          	j	80000024 <rvtest_error>

000000008000242c <inst_239>:
    8000242c:	33333537          	lui	a0,0x33333
    80002430:	33350513          	addi	a0,a0,819 # 33333333 <absimmsh+0x27862586>
    80002434:	00b51513          	slli	a0,a0,0xb
    80002438:	19950513          	addi	a0,a0,409
    8000243c:	00b51513          	slli	a0,a0,0xb
    80002440:	4cc50513          	addi	a0,a0,1228
    80002444:	00a51513          	slli	a0,a0,0xa
    80002448:	33350513          	addi	a0,a0,819
    8000244c:	33452593          	slti	a1,a0,820
    80002450:	6cb13423          	sd	a1,1736(sp)
    80002454:	00000293          	li	t0,0
    80002458:	00b28463          	beq	t0,a1,80002460 <inst_240>
    8000245c:	bc9fd06f          	j	80000024 <rvtest_error>

0000000080002460 <inst_240>:
    80002460:	33333537          	lui	a0,0x33333
    80002464:	33350513          	addi	a0,a0,819 # 33333333 <absimmsh+0x27862586>
    80002468:	00b51513          	slli	a0,a0,0xb
    8000246c:	19950513          	addi	a0,a0,409
    80002470:	00b51513          	slli	a0,a0,0xb
    80002474:	4cc50513          	addi	a0,a0,1228
    80002478:	00a51513          	slli	a0,a0,0xa
    8000247c:	33350513          	addi	a0,a0,819
    80002480:	66752593          	slti	a1,a0,1639
    80002484:	6cb13823          	sd	a1,1744(sp)
    80002488:	00000293          	li	t0,0
    8000248c:	00b28463          	beq	t0,a1,80002494 <inst_241>
    80002490:	b95fd06f          	j	80000024 <rvtest_error>

0000000080002494 <inst_241>:
    80002494:	33333537          	lui	a0,0x33333
    80002498:	33350513          	addi	a0,a0,819 # 33333333 <absimmsh+0x27862586>
    8000249c:	00b51513          	slli	a0,a0,0xb
    800024a0:	19950513          	addi	a0,a0,409
    800024a4:	00b51513          	slli	a0,a0,0xb
    800024a8:	4cc50513          	addi	a0,a0,1228
    800024ac:	00a51513          	slli	a0,a0,0xa
    800024b0:	33350513          	addi	a0,a0,819
    800024b4:	fd452593          	slti	a1,a0,-44
    800024b8:	6cb13c23          	sd	a1,1752(sp)
    800024bc:	00000293          	li	t0,0
    800024c0:	00b28463          	beq	t0,a1,800024c8 <inst_242>
    800024c4:	b61fd06f          	j	80000024 <rvtest_error>

00000000800024c8 <inst_242>:
    800024c8:	33333537          	lui	a0,0x33333
    800024cc:	33350513          	addi	a0,a0,819 # 33333333 <absimmsh+0x27862586>
    800024d0:	00b51513          	slli	a0,a0,0xb
    800024d4:	19950513          	addi	a0,a0,409
    800024d8:	00b51513          	slli	a0,a0,0xb
    800024dc:	4cc50513          	addi	a0,a0,1228
    800024e0:	00a51513          	slli	a0,a0,0xa
    800024e4:	33350513          	addi	a0,a0,819
    800024e8:	02e52593          	slti	a1,a0,46
    800024ec:	6eb13023          	sd	a1,1760(sp)
    800024f0:	00000293          	li	t0,0
    800024f4:	00b28463          	beq	t0,a1,800024fc <inst_243>
    800024f8:	b2dfd06f          	j	80000024 <rvtest_error>

00000000800024fc <inst_243>:
    800024fc:	66666537          	lui	a0,0x66666
    80002500:	66650513          	addi	a0,a0,1638 # 66666666 <absimmsh+0x5ab958b9>
    80002504:	00b51513          	slli	a0,a0,0xb
    80002508:	33350513          	addi	a0,a0,819
    8000250c:	00b51513          	slli	a0,a0,0xb
    80002510:	19950513          	addi	a0,a0,409
    80002514:	00a51513          	slli	a0,a0,0xa
    80002518:	26650513          	addi	a0,a0,614
    8000251c:	00352593          	slti	a1,a0,3
    80002520:	6eb13423          	sd	a1,1768(sp)
    80002524:	00000293          	li	t0,0
    80002528:	00b28463          	beq	t0,a1,80002530 <inst_244>
    8000252c:	af9fd06f          	j	80000024 <rvtest_error>

0000000080002530 <inst_244>:
    80002530:	66666537          	lui	a0,0x66666
    80002534:	66650513          	addi	a0,a0,1638 # 66666666 <absimmsh+0x5ab958b9>
    80002538:	00b51513          	slli	a0,a0,0xb
    8000253c:	33350513          	addi	a0,a0,819
    80002540:	00b51513          	slli	a0,a0,0xb
    80002544:	19950513          	addi	a0,a0,409
    80002548:	00a51513          	slli	a0,a0,0xa
    8000254c:	26650513          	addi	a0,a0,614
    80002550:	55552593          	slti	a1,a0,1365
    80002554:	6eb13823          	sd	a1,1776(sp)
    80002558:	00000293          	li	t0,0
    8000255c:	00b28463          	beq	t0,a1,80002564 <inst_245>
    80002560:	ac5fd06f          	j	80000024 <rvtest_error>

0000000080002564 <inst_245>:
    80002564:	66666537          	lui	a0,0x66666
    80002568:	66650513          	addi	a0,a0,1638 # 66666666 <absimmsh+0x5ab958b9>
    8000256c:	00b51513          	slli	a0,a0,0xb
    80002570:	33350513          	addi	a0,a0,819
    80002574:	00b51513          	slli	a0,a0,0xb
    80002578:	19950513          	addi	a0,a0,409
    8000257c:	00a51513          	slli	a0,a0,0xa
    80002580:	26650513          	addi	a0,a0,614
    80002584:	aaa52593          	slti	a1,a0,-1366
    80002588:	6eb13c23          	sd	a1,1784(sp)
    8000258c:	00000293          	li	t0,0
    80002590:	00b28463          	beq	t0,a1,80002598 <inst_246>
    80002594:	a91fd06f          	j	80000024 <rvtest_error>

0000000080002598 <inst_246>:
    80002598:	66666537          	lui	a0,0x66666
    8000259c:	66650513          	addi	a0,a0,1638 # 66666666 <absimmsh+0x5ab958b9>
    800025a0:	00b51513          	slli	a0,a0,0xb
    800025a4:	33350513          	addi	a0,a0,819
    800025a8:	00b51513          	slli	a0,a0,0xb
    800025ac:	19950513          	addi	a0,a0,409
    800025b0:	00a51513          	slli	a0,a0,0xa
    800025b4:	26650513          	addi	a0,a0,614
    800025b8:	00552593          	slti	a1,a0,5
    800025bc:	70b13023          	sd	a1,1792(sp)
    800025c0:	00000293          	li	t0,0
    800025c4:	00b28463          	beq	t0,a1,800025cc <inst_247>
    800025c8:	a5dfd06f          	j	80000024 <rvtest_error>

00000000800025cc <inst_247>:
    800025cc:	66666537          	lui	a0,0x66666
    800025d0:	66650513          	addi	a0,a0,1638 # 66666666 <absimmsh+0x5ab958b9>
    800025d4:	00b51513          	slli	a0,a0,0xb
    800025d8:	33350513          	addi	a0,a0,819
    800025dc:	00b51513          	slli	a0,a0,0xb
    800025e0:	19950513          	addi	a0,a0,409
    800025e4:	00a51513          	slli	a0,a0,0xa
    800025e8:	26650513          	addi	a0,a0,614
    800025ec:	33352593          	slti	a1,a0,819
    800025f0:	70b13423          	sd	a1,1800(sp)
    800025f4:	00000293          	li	t0,0
    800025f8:	00b28463          	beq	t0,a1,80002600 <inst_248>
    800025fc:	a29fd06f          	j	80000024 <rvtest_error>

0000000080002600 <inst_248>:
    80002600:	66666537          	lui	a0,0x66666
    80002604:	66650513          	addi	a0,a0,1638 # 66666666 <absimmsh+0x5ab958b9>
    80002608:	00b51513          	slli	a0,a0,0xb
    8000260c:	33350513          	addi	a0,a0,819
    80002610:	00b51513          	slli	a0,a0,0xb
    80002614:	19950513          	addi	a0,a0,409
    80002618:	00a51513          	slli	a0,a0,0xa
    8000261c:	26650513          	addi	a0,a0,614
    80002620:	66652593          	slti	a1,a0,1638
    80002624:	70b13823          	sd	a1,1808(sp)
    80002628:	00000293          	li	t0,0
    8000262c:	00b28463          	beq	t0,a1,80002634 <inst_249>
    80002630:	9f5fd06f          	j	80000024 <rvtest_error>

0000000080002634 <inst_249>:
    80002634:	66666537          	lui	a0,0x66666
    80002638:	66650513          	addi	a0,a0,1638 # 66666666 <absimmsh+0x5ab958b9>
    8000263c:	00b51513          	slli	a0,a0,0xb
    80002640:	33350513          	addi	a0,a0,819
    80002644:	00b51513          	slli	a0,a0,0xb
    80002648:	19950513          	addi	a0,a0,409
    8000264c:	00a51513          	slli	a0,a0,0xa
    80002650:	26650513          	addi	a0,a0,614
    80002654:	fd352593          	slti	a1,a0,-45
    80002658:	70b13c23          	sd	a1,1816(sp)
    8000265c:	00000293          	li	t0,0
    80002660:	00b28463          	beq	t0,a1,80002668 <inst_250>
    80002664:	9c1fd06f          	j	80000024 <rvtest_error>

0000000080002668 <inst_250>:
    80002668:	66666537          	lui	a0,0x66666
    8000266c:	66650513          	addi	a0,a0,1638 # 66666666 <absimmsh+0x5ab958b9>
    80002670:	00b51513          	slli	a0,a0,0xb
    80002674:	33350513          	addi	a0,a0,819
    80002678:	00b51513          	slli	a0,a0,0xb
    8000267c:	19950513          	addi	a0,a0,409
    80002680:	00a51513          	slli	a0,a0,0xa
    80002684:	26650513          	addi	a0,a0,614
    80002688:	02d52593          	slti	a1,a0,45
    8000268c:	72b13023          	sd	a1,1824(sp)
    80002690:	00000293          	li	t0,0
    80002694:	00b28463          	beq	t0,a1,8000269c <inst_251>
    80002698:	98dfd06f          	j	80000024 <rvtest_error>

000000008000269c <inst_251>:
    8000269c:	66666537          	lui	a0,0x66666
    800026a0:	66650513          	addi	a0,a0,1638 # 66666666 <absimmsh+0x5ab958b9>
    800026a4:	00b51513          	slli	a0,a0,0xb
    800026a8:	33350513          	addi	a0,a0,819
    800026ac:	00b51513          	slli	a0,a0,0xb
    800026b0:	19950513          	addi	a0,a0,409
    800026b4:	00a51513          	slli	a0,a0,0xa
    800026b8:	26650513          	addi	a0,a0,614
    800026bc:	00252593          	slti	a1,a0,2
    800026c0:	72b13423          	sd	a1,1832(sp)
    800026c4:	00000293          	li	t0,0
    800026c8:	00b28463          	beq	t0,a1,800026d0 <inst_252>
    800026cc:	959fd06f          	j	80000024 <rvtest_error>

00000000800026d0 <inst_252>:
    800026d0:	66666537          	lui	a0,0x66666
    800026d4:	66650513          	addi	a0,a0,1638 # 66666666 <absimmsh+0x5ab958b9>
    800026d8:	00b51513          	slli	a0,a0,0xb
    800026dc:	33350513          	addi	a0,a0,819
    800026e0:	00b51513          	slli	a0,a0,0xb
    800026e4:	19950513          	addi	a0,a0,409
    800026e8:	00a51513          	slli	a0,a0,0xa
    800026ec:	26650513          	addi	a0,a0,614
    800026f0:	55452593          	slti	a1,a0,1364
    800026f4:	72b13823          	sd	a1,1840(sp)
    800026f8:	00000293          	li	t0,0
    800026fc:	00b28463          	beq	t0,a1,80002704 <inst_253>
    80002700:	925fd06f          	j	80000024 <rvtest_error>

0000000080002704 <inst_253>:
    80002704:	66666537          	lui	a0,0x66666
    80002708:	66650513          	addi	a0,a0,1638 # 66666666 <absimmsh+0x5ab958b9>
    8000270c:	00b51513          	slli	a0,a0,0xb
    80002710:	33350513          	addi	a0,a0,819
    80002714:	00b51513          	slli	a0,a0,0xb
    80002718:	19950513          	addi	a0,a0,409
    8000271c:	00a51513          	slli	a0,a0,0xa
    80002720:	26650513          	addi	a0,a0,614
    80002724:	00052593          	slti	a1,a0,0
    80002728:	72b13c23          	sd	a1,1848(sp)
    8000272c:	00000293          	li	t0,0
    80002730:	00b28463          	beq	t0,a1,80002738 <inst_254>
    80002734:	8f1fd06f          	j	80000024 <rvtest_error>

0000000080002738 <inst_254>:
    80002738:	66666537          	lui	a0,0x66666
    8000273c:	66650513          	addi	a0,a0,1638 # 66666666 <absimmsh+0x5ab958b9>
    80002740:	00b51513          	slli	a0,a0,0xb
    80002744:	33350513          	addi	a0,a0,819
    80002748:	00b51513          	slli	a0,a0,0xb
    8000274c:	19950513          	addi	a0,a0,409
    80002750:	00a51513          	slli	a0,a0,0xa
    80002754:	26650513          	addi	a0,a0,614
    80002758:	00452593          	slti	a1,a0,4
    8000275c:	74b13023          	sd	a1,1856(sp)
    80002760:	00000293          	li	t0,0
    80002764:	00b28463          	beq	t0,a1,8000276c <inst_255>
    80002768:	8bdfd06f          	j	80000024 <rvtest_error>

000000008000276c <inst_255>:
    8000276c:	66666537          	lui	a0,0x66666
    80002770:	66650513          	addi	a0,a0,1638 # 66666666 <absimmsh+0x5ab958b9>
    80002774:	00b51513          	slli	a0,a0,0xb
    80002778:	33350513          	addi	a0,a0,819
    8000277c:	00b51513          	slli	a0,a0,0xb
    80002780:	19950513          	addi	a0,a0,409
    80002784:	00a51513          	slli	a0,a0,0xa
    80002788:	26650513          	addi	a0,a0,614
    8000278c:	33252593          	slti	a1,a0,818
    80002790:	74b13423          	sd	a1,1864(sp)
    80002794:	00000293          	li	t0,0
    80002798:	00b28463          	beq	t0,a1,800027a0 <inst_256>
    8000279c:	889fd06f          	j	80000024 <rvtest_error>

00000000800027a0 <inst_256>:
    800027a0:	66666537          	lui	a0,0x66666
    800027a4:	66650513          	addi	a0,a0,1638 # 66666666 <absimmsh+0x5ab958b9>
    800027a8:	00b51513          	slli	a0,a0,0xb
    800027ac:	33350513          	addi	a0,a0,819
    800027b0:	00b51513          	slli	a0,a0,0xb
    800027b4:	19950513          	addi	a0,a0,409
    800027b8:	00a51513          	slli	a0,a0,0xa
    800027bc:	26650513          	addi	a0,a0,614
    800027c0:	66552593          	slti	a1,a0,1637
    800027c4:	74b13823          	sd	a1,1872(sp)
    800027c8:	00000293          	li	t0,0
    800027cc:	00b28463          	beq	t0,a1,800027d4 <inst_257>
    800027d0:	855fd06f          	j	80000024 <rvtest_error>

00000000800027d4 <inst_257>:
    800027d4:	66666537          	lui	a0,0x66666
    800027d8:	66650513          	addi	a0,a0,1638 # 66666666 <absimmsh+0x5ab958b9>
    800027dc:	00b51513          	slli	a0,a0,0xb
    800027e0:	33350513          	addi	a0,a0,819
    800027e4:	00b51513          	slli	a0,a0,0xb
    800027e8:	19950513          	addi	a0,a0,409
    800027ec:	00a51513          	slli	a0,a0,0xa
    800027f0:	26650513          	addi	a0,a0,614
    800027f4:	02c52593          	slti	a1,a0,44
    800027f8:	74b13c23          	sd	a1,1880(sp)
    800027fc:	00000293          	li	t0,0
    80002800:	00b28463          	beq	t0,a1,80002808 <inst_258>
    80002804:	821fd06f          	j	80000024 <rvtest_error>

0000000080002808 <inst_258>:
    80002808:	66666537          	lui	a0,0x66666
    8000280c:	66650513          	addi	a0,a0,1638 # 66666666 <absimmsh+0x5ab958b9>
    80002810:	00b51513          	slli	a0,a0,0xb
    80002814:	33350513          	addi	a0,a0,819
    80002818:	00b51513          	slli	a0,a0,0xb
    8000281c:	19950513          	addi	a0,a0,409
    80002820:	00a51513          	slli	a0,a0,0xa
    80002824:	26650513          	addi	a0,a0,614
    80002828:	55652593          	slti	a1,a0,1366
    8000282c:	76b13023          	sd	a1,1888(sp)
    80002830:	00000293          	li	t0,0
    80002834:	00b28463          	beq	t0,a1,8000283c <inst_259>
    80002838:	fecfd06f          	j	80000024 <rvtest_error>

000000008000283c <inst_259>:
    8000283c:	66666537          	lui	a0,0x66666
    80002840:	66650513          	addi	a0,a0,1638 # 66666666 <absimmsh+0x5ab958b9>
    80002844:	00b51513          	slli	a0,a0,0xb
    80002848:	33350513          	addi	a0,a0,819
    8000284c:	00b51513          	slli	a0,a0,0xb
    80002850:	19950513          	addi	a0,a0,409
    80002854:	00a51513          	slli	a0,a0,0xa
    80002858:	26650513          	addi	a0,a0,614
    8000285c:	aab52593          	slti	a1,a0,-1365
    80002860:	76b13423          	sd	a1,1896(sp)
    80002864:	00000293          	li	t0,0
    80002868:	00b28463          	beq	t0,a1,80002870 <inst_260>
    8000286c:	fb8fd06f          	j	80000024 <rvtest_error>

0000000080002870 <inst_260>:
    80002870:	66666537          	lui	a0,0x66666
    80002874:	66650513          	addi	a0,a0,1638 # 66666666 <absimmsh+0x5ab958b9>
    80002878:	00b51513          	slli	a0,a0,0xb
    8000287c:	33350513          	addi	a0,a0,819
    80002880:	00b51513          	slli	a0,a0,0xb
    80002884:	19950513          	addi	a0,a0,409
    80002888:	00a51513          	slli	a0,a0,0xa
    8000288c:	26650513          	addi	a0,a0,614
    80002890:	00652593          	slti	a1,a0,6
    80002894:	76b13823          	sd	a1,1904(sp)
    80002898:	00000293          	li	t0,0
    8000289c:	00b28463          	beq	t0,a1,800028a4 <inst_261>
    800028a0:	f84fd06f          	j	80000024 <rvtest_error>

00000000800028a4 <inst_261>:
    800028a4:	66666537          	lui	a0,0x66666
    800028a8:	66650513          	addi	a0,a0,1638 # 66666666 <absimmsh+0x5ab958b9>
    800028ac:	00b51513          	slli	a0,a0,0xb
    800028b0:	33350513          	addi	a0,a0,819
    800028b4:	00b51513          	slli	a0,a0,0xb
    800028b8:	19950513          	addi	a0,a0,409
    800028bc:	00a51513          	slli	a0,a0,0xa
    800028c0:	26650513          	addi	a0,a0,614
    800028c4:	33452593          	slti	a1,a0,820
    800028c8:	76b13c23          	sd	a1,1912(sp)
    800028cc:	00000293          	li	t0,0
    800028d0:	00b28463          	beq	t0,a1,800028d8 <inst_262>
    800028d4:	f50fd06f          	j	80000024 <rvtest_error>

00000000800028d8 <inst_262>:
    800028d8:	66666537          	lui	a0,0x66666
    800028dc:	66650513          	addi	a0,a0,1638 # 66666666 <absimmsh+0x5ab958b9>
    800028e0:	00b51513          	slli	a0,a0,0xb
    800028e4:	33350513          	addi	a0,a0,819
    800028e8:	00b51513          	slli	a0,a0,0xb
    800028ec:	19950513          	addi	a0,a0,409
    800028f0:	00a51513          	slli	a0,a0,0xa
    800028f4:	26650513          	addi	a0,a0,614
    800028f8:	66752593          	slti	a1,a0,1639
    800028fc:	78b13023          	sd	a1,1920(sp)
    80002900:	00000293          	li	t0,0
    80002904:	00b28463          	beq	t0,a1,8000290c <inst_263>
    80002908:	f1cfd06f          	j	80000024 <rvtest_error>

000000008000290c <inst_263>:
    8000290c:	66666537          	lui	a0,0x66666
    80002910:	66650513          	addi	a0,a0,1638 # 66666666 <absimmsh+0x5ab958b9>
    80002914:	00b51513          	slli	a0,a0,0xb
    80002918:	33350513          	addi	a0,a0,819
    8000291c:	00b51513          	slli	a0,a0,0xb
    80002920:	19950513          	addi	a0,a0,409
    80002924:	00a51513          	slli	a0,a0,0xa
    80002928:	26650513          	addi	a0,a0,614
    8000292c:	fd452593          	slti	a1,a0,-44
    80002930:	78b13423          	sd	a1,1928(sp)
    80002934:	00000293          	li	t0,0
    80002938:	00b28463          	beq	t0,a1,80002940 <inst_264>
    8000293c:	ee8fd06f          	j	80000024 <rvtest_error>

0000000080002940 <inst_264>:
    80002940:	66666537          	lui	a0,0x66666
    80002944:	66650513          	addi	a0,a0,1638 # 66666666 <absimmsh+0x5ab958b9>
    80002948:	00b51513          	slli	a0,a0,0xb
    8000294c:	33350513          	addi	a0,a0,819
    80002950:	00b51513          	slli	a0,a0,0xb
    80002954:	19950513          	addi	a0,a0,409
    80002958:	00a51513          	slli	a0,a0,0xa
    8000295c:	26650513          	addi	a0,a0,614
    80002960:	02e52593          	slti	a1,a0,46
    80002964:	78b13823          	sd	a1,1936(sp)
    80002968:	00000293          	li	t0,0
    8000296c:	00b28463          	beq	t0,a1,80002974 <inst_265>
    80002970:	eb4fd06f          	j	80000024 <rvtest_error>

0000000080002974 <inst_265>:
    80002974:	00000537          	lui	a0,0x0
    80002978:	fff50513          	addi	a0,a0,-1
    8000297c:	00b51513          	slli	a0,a0,0xb
    80002980:	25750513          	addi	a0,a0,599
    80002984:	00b51513          	slli	a0,a0,0xb
    80002988:	6c350513          	addi	a0,a0,1731
    8000298c:	00a51513          	slli	a0,a0,0xa
    80002990:	0cd50513          	addi	a0,a0,205
    80002994:	00352593          	slti	a1,a0,3
    80002998:	78b13c23          	sd	a1,1944(sp)
    8000299c:	00100293          	li	t0,1
    800029a0:	00b28463          	beq	t0,a1,800029a8 <inst_266>
    800029a4:	e80fd06f          	j	80000024 <rvtest_error>

00000000800029a8 <inst_266>:
    800029a8:	00000537          	lui	a0,0x0
    800029ac:	fff50513          	addi	a0,a0,-1
    800029b0:	00b51513          	slli	a0,a0,0xb
    800029b4:	25750513          	addi	a0,a0,599
    800029b8:	00b51513          	slli	a0,a0,0xb
    800029bc:	6c350513          	addi	a0,a0,1731
    800029c0:	00a51513          	slli	a0,a0,0xa
    800029c4:	0cd50513          	addi	a0,a0,205
    800029c8:	55552593          	slti	a1,a0,1365
    800029cc:	7ab13023          	sd	a1,1952(sp)
    800029d0:	00100293          	li	t0,1
    800029d4:	00b28463          	beq	t0,a1,800029dc <inst_267>
    800029d8:	e4cfd06f          	j	80000024 <rvtest_error>

00000000800029dc <inst_267>:
    800029dc:	00000537          	lui	a0,0x0
    800029e0:	fff50513          	addi	a0,a0,-1
    800029e4:	00b51513          	slli	a0,a0,0xb
    800029e8:	25750513          	addi	a0,a0,599
    800029ec:	00b51513          	slli	a0,a0,0xb
    800029f0:	6c350513          	addi	a0,a0,1731
    800029f4:	00a51513          	slli	a0,a0,0xa
    800029f8:	0cd50513          	addi	a0,a0,205
    800029fc:	aaa52593          	slti	a1,a0,-1366
    80002a00:	7ab13423          	sd	a1,1960(sp)
    80002a04:	00100293          	li	t0,1
    80002a08:	00b28463          	beq	t0,a1,80002a10 <inst_268>
    80002a0c:	e18fd06f          	j	80000024 <rvtest_error>

0000000080002a10 <inst_268>:
    80002a10:	00000537          	lui	a0,0x0
    80002a14:	fff50513          	addi	a0,a0,-1
    80002a18:	00b51513          	slli	a0,a0,0xb
    80002a1c:	25750513          	addi	a0,a0,599
    80002a20:	00b51513          	slli	a0,a0,0xb
    80002a24:	6c350513          	addi	a0,a0,1731
    80002a28:	00a51513          	slli	a0,a0,0xa
    80002a2c:	0cd50513          	addi	a0,a0,205
    80002a30:	00552593          	slti	a1,a0,5
    80002a34:	7ab13823          	sd	a1,1968(sp)
    80002a38:	00100293          	li	t0,1
    80002a3c:	00b28463          	beq	t0,a1,80002a44 <inst_269>
    80002a40:	de4fd06f          	j	80000024 <rvtest_error>

0000000080002a44 <inst_269>:
    80002a44:	00000537          	lui	a0,0x0
    80002a48:	fff50513          	addi	a0,a0,-1
    80002a4c:	00b51513          	slli	a0,a0,0xb
    80002a50:	25750513          	addi	a0,a0,599
    80002a54:	00b51513          	slli	a0,a0,0xb
    80002a58:	6c350513          	addi	a0,a0,1731
    80002a5c:	00a51513          	slli	a0,a0,0xa
    80002a60:	0cd50513          	addi	a0,a0,205
    80002a64:	33352593          	slti	a1,a0,819
    80002a68:	7ab13c23          	sd	a1,1976(sp)
    80002a6c:	00100293          	li	t0,1
    80002a70:	00b28463          	beq	t0,a1,80002a78 <inst_270>
    80002a74:	db0fd06f          	j	80000024 <rvtest_error>

0000000080002a78 <inst_270>:
    80002a78:	00000537          	lui	a0,0x0
    80002a7c:	fff50513          	addi	a0,a0,-1
    80002a80:	00b51513          	slli	a0,a0,0xb
    80002a84:	25750513          	addi	a0,a0,599
    80002a88:	00b51513          	slli	a0,a0,0xb
    80002a8c:	6c350513          	addi	a0,a0,1731
    80002a90:	00a51513          	slli	a0,a0,0xa
    80002a94:	0cd50513          	addi	a0,a0,205
    80002a98:	66652593          	slti	a1,a0,1638
    80002a9c:	7cb13023          	sd	a1,1984(sp)
    80002aa0:	00100293          	li	t0,1
    80002aa4:	00b28463          	beq	t0,a1,80002aac <inst_271>
    80002aa8:	d7cfd06f          	j	80000024 <rvtest_error>

0000000080002aac <inst_271>:
    80002aac:	00000537          	lui	a0,0x0
    80002ab0:	fff50513          	addi	a0,a0,-1
    80002ab4:	00b51513          	slli	a0,a0,0xb
    80002ab8:	25750513          	addi	a0,a0,599
    80002abc:	00b51513          	slli	a0,a0,0xb
    80002ac0:	6c350513          	addi	a0,a0,1731
    80002ac4:	00a51513          	slli	a0,a0,0xa
    80002ac8:	0cd50513          	addi	a0,a0,205
    80002acc:	fd352593          	slti	a1,a0,-45
    80002ad0:	7cb13423          	sd	a1,1992(sp)
    80002ad4:	00100293          	li	t0,1
    80002ad8:	00b28463          	beq	t0,a1,80002ae0 <inst_272>
    80002adc:	d48fd06f          	j	80000024 <rvtest_error>

0000000080002ae0 <inst_272>:
    80002ae0:	00000537          	lui	a0,0x0
    80002ae4:	fff50513          	addi	a0,a0,-1
    80002ae8:	00b51513          	slli	a0,a0,0xb
    80002aec:	25750513          	addi	a0,a0,599
    80002af0:	00b51513          	slli	a0,a0,0xb
    80002af4:	6c350513          	addi	a0,a0,1731
    80002af8:	00a51513          	slli	a0,a0,0xa
    80002afc:	0cd50513          	addi	a0,a0,205
    80002b00:	02d52593          	slti	a1,a0,45
    80002b04:	7cb13823          	sd	a1,2000(sp)
    80002b08:	00100293          	li	t0,1
    80002b0c:	00b28463          	beq	t0,a1,80002b14 <inst_273>
    80002b10:	d14fd06f          	j	80000024 <rvtest_error>

0000000080002b14 <inst_273>:
    80002b14:	00000537          	lui	a0,0x0
    80002b18:	fff50513          	addi	a0,a0,-1
    80002b1c:	00b51513          	slli	a0,a0,0xb
    80002b20:	25750513          	addi	a0,a0,599
    80002b24:	00b51513          	slli	a0,a0,0xb
    80002b28:	6c350513          	addi	a0,a0,1731
    80002b2c:	00a51513          	slli	a0,a0,0xa
    80002b30:	0cd50513          	addi	a0,a0,205
    80002b34:	00252593          	slti	a1,a0,2
    80002b38:	7cb13c23          	sd	a1,2008(sp)
    80002b3c:	00100293          	li	t0,1
    80002b40:	00b28463          	beq	t0,a1,80002b48 <inst_274>
    80002b44:	ce0fd06f          	j	80000024 <rvtest_error>

0000000080002b48 <inst_274>:
    80002b48:	00000537          	lui	a0,0x0
    80002b4c:	fff50513          	addi	a0,a0,-1
    80002b50:	00b51513          	slli	a0,a0,0xb
    80002b54:	25750513          	addi	a0,a0,599
    80002b58:	00b51513          	slli	a0,a0,0xb
    80002b5c:	6c350513          	addi	a0,a0,1731
    80002b60:	00a51513          	slli	a0,a0,0xa
    80002b64:	0cd50513          	addi	a0,a0,205
    80002b68:	55452593          	slti	a1,a0,1364
    80002b6c:	7eb13023          	sd	a1,2016(sp)
    80002b70:	00100293          	li	t0,1
    80002b74:	00b28463          	beq	t0,a1,80002b7c <inst_275>
    80002b78:	cacfd06f          	j	80000024 <rvtest_error>

0000000080002b7c <inst_275>:
    80002b7c:	00000537          	lui	a0,0x0
    80002b80:	fff50513          	addi	a0,a0,-1
    80002b84:	00b51513          	slli	a0,a0,0xb
    80002b88:	25750513          	addi	a0,a0,599
    80002b8c:	00b51513          	slli	a0,a0,0xb
    80002b90:	6c350513          	addi	a0,a0,1731
    80002b94:	00a51513          	slli	a0,a0,0xa
    80002b98:	0cd50513          	addi	a0,a0,205
    80002b9c:	00052593          	slti	a1,a0,0
    80002ba0:	7eb13423          	sd	a1,2024(sp)
    80002ba4:	00100293          	li	t0,1
    80002ba8:	00b28463          	beq	t0,a1,80002bb0 <inst_276>
    80002bac:	c78fd06f          	j	80000024 <rvtest_error>

0000000080002bb0 <inst_276>:
    80002bb0:	00000537          	lui	a0,0x0
    80002bb4:	fff50513          	addi	a0,a0,-1
    80002bb8:	00b51513          	slli	a0,a0,0xb
    80002bbc:	25750513          	addi	a0,a0,599
    80002bc0:	00b51513          	slli	a0,a0,0xb
    80002bc4:	6c350513          	addi	a0,a0,1731
    80002bc8:	00a51513          	slli	a0,a0,0xa
    80002bcc:	0cd50513          	addi	a0,a0,205
    80002bd0:	00452593          	slti	a1,a0,4
    80002bd4:	7eb13823          	sd	a1,2032(sp)
    80002bd8:	00100293          	li	t0,1
    80002bdc:	00b28463          	beq	t0,a1,80002be4 <inst_277>
    80002be0:	c44fd06f          	j	80000024 <rvtest_error>

0000000080002be4 <inst_277>:
    80002be4:	00000537          	lui	a0,0x0
    80002be8:	fff50513          	addi	a0,a0,-1
    80002bec:	00b51513          	slli	a0,a0,0xb
    80002bf0:	25750513          	addi	a0,a0,599
    80002bf4:	00b51513          	slli	a0,a0,0xb
    80002bf8:	6c350513          	addi	a0,a0,1731
    80002bfc:	00a51513          	slli	a0,a0,0xa
    80002c00:	0cd50513          	addi	a0,a0,205
    80002c04:	33252593          	slti	a1,a0,818
    80002c08:	7eb13c23          	sd	a1,2040(sp)
    80002c0c:	00100293          	li	t0,1
    80002c10:	00b28463          	beq	t0,a1,80002c18 <inst_277+0x34>
    80002c14:	c10fd06f          	j	80000024 <rvtest_error>
    80002c18:	00000013          	nop
    80002c1c:	00000013          	nop
    80002c20:	00006117          	auipc	sp,0x6
    80002c24:	c9810113          	addi	sp,sp,-872 # 800088b8 <signature_x2_1>
    80002c28:	00000013          	nop
    80002c2c:	00000013          	nop
    80002c30:	00000013          	nop
    80002c34:	00000013          	nop
    80002c38:	00000013          	nop
    80002c3c:	00000013          	nop

0000000080002c40 <inst_278>:
    80002c40:	00000537          	lui	a0,0x0
    80002c44:	fff50513          	addi	a0,a0,-1
    80002c48:	00b51513          	slli	a0,a0,0xb
    80002c4c:	25750513          	addi	a0,a0,599
    80002c50:	00b51513          	slli	a0,a0,0xb
    80002c54:	6c350513          	addi	a0,a0,1731
    80002c58:	00a51513          	slli	a0,a0,0xa
    80002c5c:	0cd50513          	addi	a0,a0,205
    80002c60:	66552593          	slti	a1,a0,1637
    80002c64:	00b13023          	sd	a1,0(sp)
    80002c68:	00100293          	li	t0,1
    80002c6c:	00b28463          	beq	t0,a1,80002c74 <inst_279>
    80002c70:	bb4fd06f          	j	80000024 <rvtest_error>

0000000080002c74 <inst_279>:
    80002c74:	00000537          	lui	a0,0x0
    80002c78:	fff50513          	addi	a0,a0,-1
    80002c7c:	00b51513          	slli	a0,a0,0xb
    80002c80:	25750513          	addi	a0,a0,599
    80002c84:	00b51513          	slli	a0,a0,0xb
    80002c88:	6c350513          	addi	a0,a0,1731
    80002c8c:	00a51513          	slli	a0,a0,0xa
    80002c90:	0cd50513          	addi	a0,a0,205
    80002c94:	02c52593          	slti	a1,a0,44
    80002c98:	00b13423          	sd	a1,8(sp)
    80002c9c:	00100293          	li	t0,1
    80002ca0:	00b28463          	beq	t0,a1,80002ca8 <inst_280>
    80002ca4:	b80fd06f          	j	80000024 <rvtest_error>

0000000080002ca8 <inst_280>:
    80002ca8:	00000537          	lui	a0,0x0
    80002cac:	fff50513          	addi	a0,a0,-1
    80002cb0:	00b51513          	slli	a0,a0,0xb
    80002cb4:	25750513          	addi	a0,a0,599
    80002cb8:	00b51513          	slli	a0,a0,0xb
    80002cbc:	6c350513          	addi	a0,a0,1731
    80002cc0:	00a51513          	slli	a0,a0,0xa
    80002cc4:	0cd50513          	addi	a0,a0,205
    80002cc8:	55652593          	slti	a1,a0,1366
    80002ccc:	00b13823          	sd	a1,16(sp)
    80002cd0:	00100293          	li	t0,1
    80002cd4:	00b28463          	beq	t0,a1,80002cdc <inst_281>
    80002cd8:	b4cfd06f          	j	80000024 <rvtest_error>

0000000080002cdc <inst_281>:
    80002cdc:	00000537          	lui	a0,0x0
    80002ce0:	fff50513          	addi	a0,a0,-1
    80002ce4:	00b51513          	slli	a0,a0,0xb
    80002ce8:	25750513          	addi	a0,a0,599
    80002cec:	00b51513          	slli	a0,a0,0xb
    80002cf0:	6c350513          	addi	a0,a0,1731
    80002cf4:	00a51513          	slli	a0,a0,0xa
    80002cf8:	0cd50513          	addi	a0,a0,205
    80002cfc:	aab52593          	slti	a1,a0,-1365
    80002d00:	00b13c23          	sd	a1,24(sp)
    80002d04:	00100293          	li	t0,1
    80002d08:	00b28463          	beq	t0,a1,80002d10 <inst_282>
    80002d0c:	b18fd06f          	j	80000024 <rvtest_error>

0000000080002d10 <inst_282>:
    80002d10:	00000537          	lui	a0,0x0
    80002d14:	fff50513          	addi	a0,a0,-1
    80002d18:	00b51513          	slli	a0,a0,0xb
    80002d1c:	25750513          	addi	a0,a0,599
    80002d20:	00b51513          	slli	a0,a0,0xb
    80002d24:	6c350513          	addi	a0,a0,1731
    80002d28:	00a51513          	slli	a0,a0,0xa
    80002d2c:	0cd50513          	addi	a0,a0,205
    80002d30:	00652593          	slti	a1,a0,6
    80002d34:	02b13023          	sd	a1,32(sp)
    80002d38:	00100293          	li	t0,1
    80002d3c:	00b28463          	beq	t0,a1,80002d44 <inst_283>
    80002d40:	ae4fd06f          	j	80000024 <rvtest_error>

0000000080002d44 <inst_283>:
    80002d44:	00000537          	lui	a0,0x0
    80002d48:	fff50513          	addi	a0,a0,-1
    80002d4c:	00b51513          	slli	a0,a0,0xb
    80002d50:	25750513          	addi	a0,a0,599
    80002d54:	00b51513          	slli	a0,a0,0xb
    80002d58:	6c350513          	addi	a0,a0,1731
    80002d5c:	00a51513          	slli	a0,a0,0xa
    80002d60:	0cd50513          	addi	a0,a0,205
    80002d64:	33452593          	slti	a1,a0,820
    80002d68:	02b13423          	sd	a1,40(sp)
    80002d6c:	00100293          	li	t0,1
    80002d70:	00b28463          	beq	t0,a1,80002d78 <inst_284>
    80002d74:	ab0fd06f          	j	80000024 <rvtest_error>

0000000080002d78 <inst_284>:
    80002d78:	00000537          	lui	a0,0x0
    80002d7c:	fff50513          	addi	a0,a0,-1
    80002d80:	00b51513          	slli	a0,a0,0xb
    80002d84:	25750513          	addi	a0,a0,599
    80002d88:	00b51513          	slli	a0,a0,0xb
    80002d8c:	6c350513          	addi	a0,a0,1731
    80002d90:	00a51513          	slli	a0,a0,0xa
    80002d94:	0cd50513          	addi	a0,a0,205
    80002d98:	66752593          	slti	a1,a0,1639
    80002d9c:	02b13823          	sd	a1,48(sp)
    80002da0:	00100293          	li	t0,1
    80002da4:	00b28463          	beq	t0,a1,80002dac <inst_285>
    80002da8:	a7cfd06f          	j	80000024 <rvtest_error>

0000000080002dac <inst_285>:
    80002dac:	00000537          	lui	a0,0x0
    80002db0:	fff50513          	addi	a0,a0,-1
    80002db4:	00b51513          	slli	a0,a0,0xb
    80002db8:	25750513          	addi	a0,a0,599
    80002dbc:	00b51513          	slli	a0,a0,0xb
    80002dc0:	6c350513          	addi	a0,a0,1731
    80002dc4:	00a51513          	slli	a0,a0,0xa
    80002dc8:	0cd50513          	addi	a0,a0,205
    80002dcc:	fd452593          	slti	a1,a0,-44
    80002dd0:	02b13c23          	sd	a1,56(sp)
    80002dd4:	00100293          	li	t0,1
    80002dd8:	00b28463          	beq	t0,a1,80002de0 <inst_286>
    80002ddc:	a48fd06f          	j	80000024 <rvtest_error>

0000000080002de0 <inst_286>:
    80002de0:	00000537          	lui	a0,0x0
    80002de4:	fff50513          	addi	a0,a0,-1
    80002de8:	00b51513          	slli	a0,a0,0xb
    80002dec:	25750513          	addi	a0,a0,599
    80002df0:	00b51513          	slli	a0,a0,0xb
    80002df4:	6c350513          	addi	a0,a0,1731
    80002df8:	00a51513          	slli	a0,a0,0xa
    80002dfc:	0cd50513          	addi	a0,a0,205
    80002e00:	02e52593          	slti	a1,a0,46
    80002e04:	04b13023          	sd	a1,64(sp)
    80002e08:	00100293          	li	t0,1
    80002e0c:	00b28463          	beq	t0,a1,80002e14 <inst_287>
    80002e10:	a14fd06f          	j	80000024 <rvtest_error>

0000000080002e14 <inst_287>:
    80002e14:	00000537          	lui	a0,0x0
    80002e18:	00050513          	mv	a0,a0
    80002e1c:	00b51513          	slli	a0,a0,0xb
    80002e20:	5a850513          	addi	a0,a0,1448 # 5a8 <offset+0x310>
    80002e24:	00b51513          	slli	a0,a0,0xb
    80002e28:	13c50513          	addi	a0,a0,316
    80002e2c:	00a51513          	slli	a0,a0,0xa
    80002e30:	33350513          	addi	a0,a0,819
    80002e34:	00352593          	slti	a1,a0,3
    80002e38:	04b13423          	sd	a1,72(sp)
    80002e3c:	00000293          	li	t0,0
    80002e40:	00b28463          	beq	t0,a1,80002e48 <inst_288>
    80002e44:	9e0fd06f          	j	80000024 <rvtest_error>

0000000080002e48 <inst_288>:
    80002e48:	00000537          	lui	a0,0x0
    80002e4c:	00050513          	mv	a0,a0
    80002e50:	00b51513          	slli	a0,a0,0xb
    80002e54:	5a850513          	addi	a0,a0,1448 # 5a8 <offset+0x310>
    80002e58:	00b51513          	slli	a0,a0,0xb
    80002e5c:	13c50513          	addi	a0,a0,316
    80002e60:	00a51513          	slli	a0,a0,0xa
    80002e64:	33350513          	addi	a0,a0,819
    80002e68:	55552593          	slti	a1,a0,1365
    80002e6c:	04b13823          	sd	a1,80(sp)
    80002e70:	00000293          	li	t0,0
    80002e74:	00b28463          	beq	t0,a1,80002e7c <inst_289>
    80002e78:	9acfd06f          	j	80000024 <rvtest_error>

0000000080002e7c <inst_289>:
    80002e7c:	00000537          	lui	a0,0x0
    80002e80:	00050513          	mv	a0,a0
    80002e84:	00b51513          	slli	a0,a0,0xb
    80002e88:	5a850513          	addi	a0,a0,1448 # 5a8 <offset+0x310>
    80002e8c:	00b51513          	slli	a0,a0,0xb
    80002e90:	13c50513          	addi	a0,a0,316
    80002e94:	00a51513          	slli	a0,a0,0xa
    80002e98:	33350513          	addi	a0,a0,819
    80002e9c:	aaa52593          	slti	a1,a0,-1366
    80002ea0:	04b13c23          	sd	a1,88(sp)
    80002ea4:	00000293          	li	t0,0
    80002ea8:	00b28463          	beq	t0,a1,80002eb0 <inst_290>
    80002eac:	978fd06f          	j	80000024 <rvtest_error>

0000000080002eb0 <inst_290>:
    80002eb0:	00000537          	lui	a0,0x0
    80002eb4:	00050513          	mv	a0,a0
    80002eb8:	00b51513          	slli	a0,a0,0xb
    80002ebc:	5a850513          	addi	a0,a0,1448 # 5a8 <offset+0x310>
    80002ec0:	00b51513          	slli	a0,a0,0xb
    80002ec4:	13c50513          	addi	a0,a0,316
    80002ec8:	00a51513          	slli	a0,a0,0xa
    80002ecc:	33350513          	addi	a0,a0,819
    80002ed0:	00552593          	slti	a1,a0,5
    80002ed4:	06b13023          	sd	a1,96(sp)
    80002ed8:	00000293          	li	t0,0
    80002edc:	00b28463          	beq	t0,a1,80002ee4 <inst_291>
    80002ee0:	944fd06f          	j	80000024 <rvtest_error>

0000000080002ee4 <inst_291>:
    80002ee4:	00000537          	lui	a0,0x0
    80002ee8:	00050513          	mv	a0,a0
    80002eec:	00b51513          	slli	a0,a0,0xb
    80002ef0:	5a850513          	addi	a0,a0,1448 # 5a8 <offset+0x310>
    80002ef4:	00b51513          	slli	a0,a0,0xb
    80002ef8:	13c50513          	addi	a0,a0,316
    80002efc:	00a51513          	slli	a0,a0,0xa
    80002f00:	33350513          	addi	a0,a0,819
    80002f04:	33352593          	slti	a1,a0,819
    80002f08:	06b13423          	sd	a1,104(sp)
    80002f0c:	00000293          	li	t0,0
    80002f10:	00b28463          	beq	t0,a1,80002f18 <inst_292>
    80002f14:	910fd06f          	j	80000024 <rvtest_error>

0000000080002f18 <inst_292>:
    80002f18:	00000537          	lui	a0,0x0
    80002f1c:	00050513          	mv	a0,a0
    80002f20:	00b51513          	slli	a0,a0,0xb
    80002f24:	5a850513          	addi	a0,a0,1448 # 5a8 <offset+0x310>
    80002f28:	00b51513          	slli	a0,a0,0xb
    80002f2c:	13c50513          	addi	a0,a0,316
    80002f30:	00a51513          	slli	a0,a0,0xa
    80002f34:	33350513          	addi	a0,a0,819
    80002f38:	66652593          	slti	a1,a0,1638
    80002f3c:	06b13823          	sd	a1,112(sp)
    80002f40:	00000293          	li	t0,0
    80002f44:	00b28463          	beq	t0,a1,80002f4c <inst_293>
    80002f48:	8dcfd06f          	j	80000024 <rvtest_error>

0000000080002f4c <inst_293>:
    80002f4c:	00000537          	lui	a0,0x0
    80002f50:	00050513          	mv	a0,a0
    80002f54:	00b51513          	slli	a0,a0,0xb
    80002f58:	5a850513          	addi	a0,a0,1448 # 5a8 <offset+0x310>
    80002f5c:	00b51513          	slli	a0,a0,0xb
    80002f60:	13c50513          	addi	a0,a0,316
    80002f64:	00a51513          	slli	a0,a0,0xa
    80002f68:	33350513          	addi	a0,a0,819
    80002f6c:	fd352593          	slti	a1,a0,-45
    80002f70:	06b13c23          	sd	a1,120(sp)
    80002f74:	00000293          	li	t0,0
    80002f78:	00b28463          	beq	t0,a1,80002f80 <inst_294>
    80002f7c:	8a8fd06f          	j	80000024 <rvtest_error>

0000000080002f80 <inst_294>:
    80002f80:	00000537          	lui	a0,0x0
    80002f84:	00050513          	mv	a0,a0
    80002f88:	00b51513          	slli	a0,a0,0xb
    80002f8c:	5a850513          	addi	a0,a0,1448 # 5a8 <offset+0x310>
    80002f90:	00b51513          	slli	a0,a0,0xb
    80002f94:	13c50513          	addi	a0,a0,316
    80002f98:	00a51513          	slli	a0,a0,0xa
    80002f9c:	33350513          	addi	a0,a0,819
    80002fa0:	02d52593          	slti	a1,a0,45
    80002fa4:	08b13023          	sd	a1,128(sp)
    80002fa8:	00000293          	li	t0,0
    80002fac:	00b28463          	beq	t0,a1,80002fb4 <inst_295>
    80002fb0:	874fd06f          	j	80000024 <rvtest_error>

0000000080002fb4 <inst_295>:
    80002fb4:	00000537          	lui	a0,0x0
    80002fb8:	00050513          	mv	a0,a0
    80002fbc:	00b51513          	slli	a0,a0,0xb
    80002fc0:	5a850513          	addi	a0,a0,1448 # 5a8 <offset+0x310>
    80002fc4:	00b51513          	slli	a0,a0,0xb
    80002fc8:	13c50513          	addi	a0,a0,316
    80002fcc:	00a51513          	slli	a0,a0,0xa
    80002fd0:	33350513          	addi	a0,a0,819
    80002fd4:	00252593          	slti	a1,a0,2
    80002fd8:	08b13423          	sd	a1,136(sp)
    80002fdc:	00000293          	li	t0,0
    80002fe0:	00b28463          	beq	t0,a1,80002fe8 <inst_296>
    80002fe4:	840fd06f          	j	80000024 <rvtest_error>

0000000080002fe8 <inst_296>:
    80002fe8:	00000537          	lui	a0,0x0
    80002fec:	00050513          	mv	a0,a0
    80002ff0:	00b51513          	slli	a0,a0,0xb
    80002ff4:	5a850513          	addi	a0,a0,1448 # 5a8 <offset+0x310>
    80002ff8:	00b51513          	slli	a0,a0,0xb
    80002ffc:	13c50513          	addi	a0,a0,316
    80003000:	00a51513          	slli	a0,a0,0xa
    80003004:	33350513          	addi	a0,a0,819
    80003008:	55452593          	slti	a1,a0,1364
    8000300c:	08b13823          	sd	a1,144(sp)
    80003010:	00000293          	li	t0,0
    80003014:	00b28463          	beq	t0,a1,8000301c <inst_297>
    80003018:	80cfd06f          	j	80000024 <rvtest_error>

000000008000301c <inst_297>:
    8000301c:	00000537          	lui	a0,0x0
    80003020:	00050513          	mv	a0,a0
    80003024:	00b51513          	slli	a0,a0,0xb
    80003028:	5a850513          	addi	a0,a0,1448 # 5a8 <offset+0x310>
    8000302c:	00b51513          	slli	a0,a0,0xb
    80003030:	13c50513          	addi	a0,a0,316
    80003034:	00a51513          	slli	a0,a0,0xa
    80003038:	33350513          	addi	a0,a0,819
    8000303c:	00052593          	slti	a1,a0,0
    80003040:	08b13c23          	sd	a1,152(sp)
    80003044:	00000293          	li	t0,0
    80003048:	00b28463          	beq	t0,a1,80003050 <inst_298>
    8000304c:	fd9fc06f          	j	80000024 <rvtest_error>

0000000080003050 <inst_298>:
    80003050:	00000537          	lui	a0,0x0
    80003054:	00050513          	mv	a0,a0
    80003058:	00b51513          	slli	a0,a0,0xb
    8000305c:	5a850513          	addi	a0,a0,1448 # 5a8 <offset+0x310>
    80003060:	00b51513          	slli	a0,a0,0xb
    80003064:	13c50513          	addi	a0,a0,316
    80003068:	00a51513          	slli	a0,a0,0xa
    8000306c:	33350513          	addi	a0,a0,819
    80003070:	00452593          	slti	a1,a0,4
    80003074:	0ab13023          	sd	a1,160(sp)
    80003078:	00000293          	li	t0,0
    8000307c:	00b28463          	beq	t0,a1,80003084 <inst_299>
    80003080:	fa5fc06f          	j	80000024 <rvtest_error>

0000000080003084 <inst_299>:
    80003084:	00000537          	lui	a0,0x0
    80003088:	00050513          	mv	a0,a0
    8000308c:	00b51513          	slli	a0,a0,0xb
    80003090:	5a850513          	addi	a0,a0,1448 # 5a8 <offset+0x310>
    80003094:	00b51513          	slli	a0,a0,0xb
    80003098:	13c50513          	addi	a0,a0,316
    8000309c:	00a51513          	slli	a0,a0,0xa
    800030a0:	33350513          	addi	a0,a0,819
    800030a4:	33252593          	slti	a1,a0,818
    800030a8:	0ab13423          	sd	a1,168(sp)
    800030ac:	00000293          	li	t0,0
    800030b0:	00b28463          	beq	t0,a1,800030b8 <inst_300>
    800030b4:	f71fc06f          	j	80000024 <rvtest_error>

00000000800030b8 <inst_300>:
    800030b8:	00000537          	lui	a0,0x0
    800030bc:	00050513          	mv	a0,a0
    800030c0:	00b51513          	slli	a0,a0,0xb
    800030c4:	5a850513          	addi	a0,a0,1448 # 5a8 <offset+0x310>
    800030c8:	00b51513          	slli	a0,a0,0xb
    800030cc:	13c50513          	addi	a0,a0,316
    800030d0:	00a51513          	slli	a0,a0,0xa
    800030d4:	33350513          	addi	a0,a0,819
    800030d8:	66552593          	slti	a1,a0,1637
    800030dc:	0ab13823          	sd	a1,176(sp)
    800030e0:	00000293          	li	t0,0
    800030e4:	00b28463          	beq	t0,a1,800030ec <inst_301>
    800030e8:	f3dfc06f          	j	80000024 <rvtest_error>

00000000800030ec <inst_301>:
    800030ec:	00000537          	lui	a0,0x0
    800030f0:	00050513          	mv	a0,a0
    800030f4:	00b51513          	slli	a0,a0,0xb
    800030f8:	5a850513          	addi	a0,a0,1448 # 5a8 <offset+0x310>
    800030fc:	00b51513          	slli	a0,a0,0xb
    80003100:	13c50513          	addi	a0,a0,316
    80003104:	00a51513          	slli	a0,a0,0xa
    80003108:	33350513          	addi	a0,a0,819
    8000310c:	02c52593          	slti	a1,a0,44
    80003110:	0ab13c23          	sd	a1,184(sp)
    80003114:	00000293          	li	t0,0
    80003118:	00b28463          	beq	t0,a1,80003120 <inst_302>
    8000311c:	f09fc06f          	j	80000024 <rvtest_error>

0000000080003120 <inst_302>:
    80003120:	00000537          	lui	a0,0x0
    80003124:	00050513          	mv	a0,a0
    80003128:	00b51513          	slli	a0,a0,0xb
    8000312c:	5a850513          	addi	a0,a0,1448 # 5a8 <offset+0x310>
    80003130:	00b51513          	slli	a0,a0,0xb
    80003134:	13c50513          	addi	a0,a0,316
    80003138:	00a51513          	slli	a0,a0,0xa
    8000313c:	33350513          	addi	a0,a0,819
    80003140:	55652593          	slti	a1,a0,1366
    80003144:	0cb13023          	sd	a1,192(sp)
    80003148:	00000293          	li	t0,0
    8000314c:	00b28463          	beq	t0,a1,80003154 <inst_303>
    80003150:	ed5fc06f          	j	80000024 <rvtest_error>

0000000080003154 <inst_303>:
    80003154:	00000537          	lui	a0,0x0
    80003158:	00050513          	mv	a0,a0
    8000315c:	00b51513          	slli	a0,a0,0xb
    80003160:	5a850513          	addi	a0,a0,1448 # 5a8 <offset+0x310>
    80003164:	00b51513          	slli	a0,a0,0xb
    80003168:	13c50513          	addi	a0,a0,316
    8000316c:	00a51513          	slli	a0,a0,0xa
    80003170:	33350513          	addi	a0,a0,819
    80003174:	aab52593          	slti	a1,a0,-1365
    80003178:	0cb13423          	sd	a1,200(sp)
    8000317c:	00000293          	li	t0,0
    80003180:	00b28463          	beq	t0,a1,80003188 <inst_304>
    80003184:	ea1fc06f          	j	80000024 <rvtest_error>

0000000080003188 <inst_304>:
    80003188:	00000537          	lui	a0,0x0
    8000318c:	00050513          	mv	a0,a0
    80003190:	00b51513          	slli	a0,a0,0xb
    80003194:	5a850513          	addi	a0,a0,1448 # 5a8 <offset+0x310>
    80003198:	00b51513          	slli	a0,a0,0xb
    8000319c:	13c50513          	addi	a0,a0,316
    800031a0:	00a51513          	slli	a0,a0,0xa
    800031a4:	33350513          	addi	a0,a0,819
    800031a8:	00652593          	slti	a1,a0,6
    800031ac:	0cb13823          	sd	a1,208(sp)
    800031b0:	00000293          	li	t0,0
    800031b4:	00b28463          	beq	t0,a1,800031bc <inst_305>
    800031b8:	e6dfc06f          	j	80000024 <rvtest_error>

00000000800031bc <inst_305>:
    800031bc:	00000537          	lui	a0,0x0
    800031c0:	00050513          	mv	a0,a0
    800031c4:	00b51513          	slli	a0,a0,0xb
    800031c8:	5a850513          	addi	a0,a0,1448 # 5a8 <offset+0x310>
    800031cc:	00b51513          	slli	a0,a0,0xb
    800031d0:	13c50513          	addi	a0,a0,316
    800031d4:	00a51513          	slli	a0,a0,0xa
    800031d8:	33350513          	addi	a0,a0,819
    800031dc:	33452593          	slti	a1,a0,820
    800031e0:	0cb13c23          	sd	a1,216(sp)
    800031e4:	00000293          	li	t0,0
    800031e8:	00b28463          	beq	t0,a1,800031f0 <inst_306>
    800031ec:	e39fc06f          	j	80000024 <rvtest_error>

00000000800031f0 <inst_306>:
    800031f0:	00000537          	lui	a0,0x0
    800031f4:	00050513          	mv	a0,a0
    800031f8:	00b51513          	slli	a0,a0,0xb
    800031fc:	5a850513          	addi	a0,a0,1448 # 5a8 <offset+0x310>
    80003200:	00b51513          	slli	a0,a0,0xb
    80003204:	13c50513          	addi	a0,a0,316
    80003208:	00a51513          	slli	a0,a0,0xa
    8000320c:	33350513          	addi	a0,a0,819
    80003210:	66752593          	slti	a1,a0,1639
    80003214:	0eb13023          	sd	a1,224(sp)
    80003218:	00000293          	li	t0,0
    8000321c:	00b28463          	beq	t0,a1,80003224 <inst_307>
    80003220:	e05fc06f          	j	80000024 <rvtest_error>

0000000080003224 <inst_307>:
    80003224:	00000537          	lui	a0,0x0
    80003228:	00050513          	mv	a0,a0
    8000322c:	00b51513          	slli	a0,a0,0xb
    80003230:	5a850513          	addi	a0,a0,1448 # 5a8 <offset+0x310>
    80003234:	00b51513          	slli	a0,a0,0xb
    80003238:	13c50513          	addi	a0,a0,316
    8000323c:	00a51513          	slli	a0,a0,0xa
    80003240:	33350513          	addi	a0,a0,819
    80003244:	fd452593          	slti	a1,a0,-44
    80003248:	0eb13423          	sd	a1,232(sp)
    8000324c:	00000293          	li	t0,0
    80003250:	00b28463          	beq	t0,a1,80003258 <inst_308>
    80003254:	dd1fc06f          	j	80000024 <rvtest_error>

0000000080003258 <inst_308>:
    80003258:	00000537          	lui	a0,0x0
    8000325c:	00050513          	mv	a0,a0
    80003260:	00b51513          	slli	a0,a0,0xb
    80003264:	5a850513          	addi	a0,a0,1448 # 5a8 <offset+0x310>
    80003268:	00b51513          	slli	a0,a0,0xb
    8000326c:	13c50513          	addi	a0,a0,316
    80003270:	00a51513          	slli	a0,a0,0xa
    80003274:	33350513          	addi	a0,a0,819
    80003278:	02e52593          	slti	a1,a0,46
    8000327c:	0eb13823          	sd	a1,240(sp)
    80003280:	00000293          	li	t0,0
    80003284:	00b28463          	beq	t0,a1,8000328c <inst_309>
    80003288:	d9dfc06f          	j	80000024 <rvtest_error>

000000008000328c <inst_309>:
    8000328c:	00200513          	li	a0,2
    80003290:	00352593          	slti	a1,a0,3
    80003294:	0eb13c23          	sd	a1,248(sp)
    80003298:	00100293          	li	t0,1
    8000329c:	00b28463          	beq	t0,a1,800032a4 <inst_310>
    800032a0:	d85fc06f          	j	80000024 <rvtest_error>

00000000800032a4 <inst_310>:
    800032a4:	00200513          	li	a0,2
    800032a8:	55552593          	slti	a1,a0,1365
    800032ac:	10b13023          	sd	a1,256(sp)
    800032b0:	00100293          	li	t0,1
    800032b4:	00b28463          	beq	t0,a1,800032bc <inst_311>
    800032b8:	d6dfc06f          	j	80000024 <rvtest_error>

00000000800032bc <inst_311>:
    800032bc:	00200513          	li	a0,2
    800032c0:	aaa52593          	slti	a1,a0,-1366
    800032c4:	10b13423          	sd	a1,264(sp)
    800032c8:	00000293          	li	t0,0
    800032cc:	00b28463          	beq	t0,a1,800032d4 <inst_312>
    800032d0:	d55fc06f          	j	80000024 <rvtest_error>

00000000800032d4 <inst_312>:
    800032d4:	00200513          	li	a0,2
    800032d8:	00552593          	slti	a1,a0,5
    800032dc:	10b13823          	sd	a1,272(sp)
    800032e0:	00100293          	li	t0,1
    800032e4:	00b28463          	beq	t0,a1,800032ec <inst_313>
    800032e8:	d3dfc06f          	j	80000024 <rvtest_error>

00000000800032ec <inst_313>:
    800032ec:	00200513          	li	a0,2
    800032f0:	33352593          	slti	a1,a0,819
    800032f4:	10b13c23          	sd	a1,280(sp)
    800032f8:	00100293          	li	t0,1
    800032fc:	00b28463          	beq	t0,a1,80003304 <inst_314>
    80003300:	d25fc06f          	j	80000024 <rvtest_error>

0000000080003304 <inst_314>:
    80003304:	00200513          	li	a0,2
    80003308:	66652593          	slti	a1,a0,1638
    8000330c:	12b13023          	sd	a1,288(sp)
    80003310:	00100293          	li	t0,1
    80003314:	00b28463          	beq	t0,a1,8000331c <inst_315>
    80003318:	d0dfc06f          	j	80000024 <rvtest_error>

000000008000331c <inst_315>:
    8000331c:	00200513          	li	a0,2
    80003320:	fd352593          	slti	a1,a0,-45
    80003324:	12b13423          	sd	a1,296(sp)
    80003328:	00000293          	li	t0,0
    8000332c:	00b28463          	beq	t0,a1,80003334 <inst_316>
    80003330:	cf5fc06f          	j	80000024 <rvtest_error>

0000000080003334 <inst_316>:
    80003334:	00200513          	li	a0,2
    80003338:	02d52593          	slti	a1,a0,45
    8000333c:	12b13823          	sd	a1,304(sp)
    80003340:	00100293          	li	t0,1
    80003344:	00b28463          	beq	t0,a1,8000334c <inst_317>
    80003348:	cddfc06f          	j	80000024 <rvtest_error>

000000008000334c <inst_317>:
    8000334c:	00200513          	li	a0,2
    80003350:	00252593          	slti	a1,a0,2
    80003354:	12b13c23          	sd	a1,312(sp)
    80003358:	00000293          	li	t0,0
    8000335c:	00b28463          	beq	t0,a1,80003364 <inst_318>
    80003360:	cc5fc06f          	j	80000024 <rvtest_error>

0000000080003364 <inst_318>:
    80003364:	00200513          	li	a0,2
    80003368:	55452593          	slti	a1,a0,1364
    8000336c:	14b13023          	sd	a1,320(sp)
    80003370:	00100293          	li	t0,1
    80003374:	00b28463          	beq	t0,a1,8000337c <inst_319>
    80003378:	cadfc06f          	j	80000024 <rvtest_error>

000000008000337c <inst_319>:
    8000337c:	00200513          	li	a0,2
    80003380:	00052593          	slti	a1,a0,0
    80003384:	14b13423          	sd	a1,328(sp)
    80003388:	00000293          	li	t0,0
    8000338c:	00b28463          	beq	t0,a1,80003394 <inst_320>
    80003390:	c95fc06f          	j	80000024 <rvtest_error>

0000000080003394 <inst_320>:
    80003394:	00200513          	li	a0,2
    80003398:	00452593          	slti	a1,a0,4
    8000339c:	14b13823          	sd	a1,336(sp)
    800033a0:	00100293          	li	t0,1
    800033a4:	00b28463          	beq	t0,a1,800033ac <inst_321>
    800033a8:	c7dfc06f          	j	80000024 <rvtest_error>

00000000800033ac <inst_321>:
    800033ac:	00200513          	li	a0,2
    800033b0:	33252593          	slti	a1,a0,818
    800033b4:	14b13c23          	sd	a1,344(sp)
    800033b8:	00100293          	li	t0,1
    800033bc:	00b28463          	beq	t0,a1,800033c4 <inst_322>
    800033c0:	c65fc06f          	j	80000024 <rvtest_error>

00000000800033c4 <inst_322>:
    800033c4:	00200513          	li	a0,2
    800033c8:	66552593          	slti	a1,a0,1637
    800033cc:	16b13023          	sd	a1,352(sp)
    800033d0:	00100293          	li	t0,1
    800033d4:	00b28463          	beq	t0,a1,800033dc <inst_323>
    800033d8:	c4dfc06f          	j	80000024 <rvtest_error>

00000000800033dc <inst_323>:
    800033dc:	00200513          	li	a0,2
    800033e0:	02c52593          	slti	a1,a0,44
    800033e4:	16b13423          	sd	a1,360(sp)
    800033e8:	00100293          	li	t0,1
    800033ec:	00b28463          	beq	t0,a1,800033f4 <inst_324>
    800033f0:	c35fc06f          	j	80000024 <rvtest_error>

00000000800033f4 <inst_324>:
    800033f4:	00200513          	li	a0,2
    800033f8:	55652593          	slti	a1,a0,1366
    800033fc:	16b13823          	sd	a1,368(sp)
    80003400:	00100293          	li	t0,1
    80003404:	00b28463          	beq	t0,a1,8000340c <inst_325>
    80003408:	c1dfc06f          	j	80000024 <rvtest_error>

000000008000340c <inst_325>:
    8000340c:	00200513          	li	a0,2
    80003410:	aab52593          	slti	a1,a0,-1365
    80003414:	16b13c23          	sd	a1,376(sp)
    80003418:	00000293          	li	t0,0
    8000341c:	00b28463          	beq	t0,a1,80003424 <inst_326>
    80003420:	c05fc06f          	j	80000024 <rvtest_error>

0000000080003424 <inst_326>:
    80003424:	00200513          	li	a0,2
    80003428:	00652593          	slti	a1,a0,6
    8000342c:	18b13023          	sd	a1,384(sp)
    80003430:	00100293          	li	t0,1
    80003434:	00b28463          	beq	t0,a1,8000343c <inst_327>
    80003438:	bedfc06f          	j	80000024 <rvtest_error>

000000008000343c <inst_327>:
    8000343c:	00200513          	li	a0,2
    80003440:	33452593          	slti	a1,a0,820
    80003444:	18b13423          	sd	a1,392(sp)
    80003448:	00100293          	li	t0,1
    8000344c:	00b28463          	beq	t0,a1,80003454 <inst_328>
    80003450:	bd5fc06f          	j	80000024 <rvtest_error>

0000000080003454 <inst_328>:
    80003454:	00200513          	li	a0,2
    80003458:	66752593          	slti	a1,a0,1639
    8000345c:	18b13823          	sd	a1,400(sp)
    80003460:	00100293          	li	t0,1
    80003464:	00b28463          	beq	t0,a1,8000346c <inst_329>
    80003468:	bbdfc06f          	j	80000024 <rvtest_error>

000000008000346c <inst_329>:
    8000346c:	00200513          	li	a0,2
    80003470:	fd452593          	slti	a1,a0,-44
    80003474:	18b13c23          	sd	a1,408(sp)
    80003478:	00000293          	li	t0,0
    8000347c:	00b28463          	beq	t0,a1,80003484 <inst_330>
    80003480:	ba5fc06f          	j	80000024 <rvtest_error>

0000000080003484 <inst_330>:
    80003484:	00200513          	li	a0,2
    80003488:	02e52593          	slti	a1,a0,46
    8000348c:	1ab13023          	sd	a1,416(sp)
    80003490:	00100293          	li	t0,1
    80003494:	00b28463          	beq	t0,a1,8000349c <inst_331>
    80003498:	b8dfc06f          	j	80000024 <rvtest_error>

000000008000349c <inst_331>:
    8000349c:	55555537          	lui	a0,0x55555
    800034a0:	55550513          	addi	a0,a0,1365 # 55555555 <absimmsh+0x49a847a8>
    800034a4:	00b51513          	slli	a0,a0,0xb
    800034a8:	2aa50513          	addi	a0,a0,682
    800034ac:	00b51513          	slli	a0,a0,0xb
    800034b0:	55550513          	addi	a0,a0,1365
    800034b4:	00a51513          	slli	a0,a0,0xa
    800034b8:	15450513          	addi	a0,a0,340
    800034bc:	00352593          	slti	a1,a0,3
    800034c0:	1ab13423          	sd	a1,424(sp)
    800034c4:	00000293          	li	t0,0
    800034c8:	00b28463          	beq	t0,a1,800034d0 <inst_332>
    800034cc:	b59fc06f          	j	80000024 <rvtest_error>

00000000800034d0 <inst_332>:
    800034d0:	55555537          	lui	a0,0x55555
    800034d4:	55550513          	addi	a0,a0,1365 # 55555555 <absimmsh+0x49a847a8>
    800034d8:	00b51513          	slli	a0,a0,0xb
    800034dc:	2aa50513          	addi	a0,a0,682
    800034e0:	00b51513          	slli	a0,a0,0xb
    800034e4:	55550513          	addi	a0,a0,1365
    800034e8:	00a51513          	slli	a0,a0,0xa
    800034ec:	15450513          	addi	a0,a0,340
    800034f0:	55552593          	slti	a1,a0,1365
    800034f4:	1ab13823          	sd	a1,432(sp)
    800034f8:	00000293          	li	t0,0
    800034fc:	00b28463          	beq	t0,a1,80003504 <inst_333>
    80003500:	b25fc06f          	j	80000024 <rvtest_error>

0000000080003504 <inst_333>:
    80003504:	55555537          	lui	a0,0x55555
    80003508:	55550513          	addi	a0,a0,1365 # 55555555 <absimmsh+0x49a847a8>
    8000350c:	00b51513          	slli	a0,a0,0xb
    80003510:	2aa50513          	addi	a0,a0,682
    80003514:	00b51513          	slli	a0,a0,0xb
    80003518:	55550513          	addi	a0,a0,1365
    8000351c:	00a51513          	slli	a0,a0,0xa
    80003520:	15450513          	addi	a0,a0,340
    80003524:	aaa52593          	slti	a1,a0,-1366
    80003528:	1ab13c23          	sd	a1,440(sp)
    8000352c:	00000293          	li	t0,0
    80003530:	00b28463          	beq	t0,a1,80003538 <inst_334>
    80003534:	af1fc06f          	j	80000024 <rvtest_error>

0000000080003538 <inst_334>:
    80003538:	55555537          	lui	a0,0x55555
    8000353c:	55550513          	addi	a0,a0,1365 # 55555555 <absimmsh+0x49a847a8>
    80003540:	00b51513          	slli	a0,a0,0xb
    80003544:	2aa50513          	addi	a0,a0,682
    80003548:	00b51513          	slli	a0,a0,0xb
    8000354c:	55550513          	addi	a0,a0,1365
    80003550:	00a51513          	slli	a0,a0,0xa
    80003554:	15450513          	addi	a0,a0,340
    80003558:	00552593          	slti	a1,a0,5
    8000355c:	1cb13023          	sd	a1,448(sp)
    80003560:	00000293          	li	t0,0
    80003564:	00b28463          	beq	t0,a1,8000356c <inst_335>
    80003568:	abdfc06f          	j	80000024 <rvtest_error>

000000008000356c <inst_335>:
    8000356c:	55555537          	lui	a0,0x55555
    80003570:	55550513          	addi	a0,a0,1365 # 55555555 <absimmsh+0x49a847a8>
    80003574:	00b51513          	slli	a0,a0,0xb
    80003578:	2aa50513          	addi	a0,a0,682
    8000357c:	00b51513          	slli	a0,a0,0xb
    80003580:	55550513          	addi	a0,a0,1365
    80003584:	00a51513          	slli	a0,a0,0xa
    80003588:	15450513          	addi	a0,a0,340
    8000358c:	33352593          	slti	a1,a0,819
    80003590:	1cb13423          	sd	a1,456(sp)
    80003594:	00000293          	li	t0,0
    80003598:	00b28463          	beq	t0,a1,800035a0 <inst_336>
    8000359c:	a89fc06f          	j	80000024 <rvtest_error>

00000000800035a0 <inst_336>:
    800035a0:	55555537          	lui	a0,0x55555
    800035a4:	55550513          	addi	a0,a0,1365 # 55555555 <absimmsh+0x49a847a8>
    800035a8:	00b51513          	slli	a0,a0,0xb
    800035ac:	2aa50513          	addi	a0,a0,682
    800035b0:	00b51513          	slli	a0,a0,0xb
    800035b4:	55550513          	addi	a0,a0,1365
    800035b8:	00a51513          	slli	a0,a0,0xa
    800035bc:	15450513          	addi	a0,a0,340
    800035c0:	66652593          	slti	a1,a0,1638
    800035c4:	1cb13823          	sd	a1,464(sp)
    800035c8:	00000293          	li	t0,0
    800035cc:	00b28463          	beq	t0,a1,800035d4 <inst_337>
    800035d0:	a55fc06f          	j	80000024 <rvtest_error>

00000000800035d4 <inst_337>:
    800035d4:	55555537          	lui	a0,0x55555
    800035d8:	55550513          	addi	a0,a0,1365 # 55555555 <absimmsh+0x49a847a8>
    800035dc:	00b51513          	slli	a0,a0,0xb
    800035e0:	2aa50513          	addi	a0,a0,682
    800035e4:	00b51513          	slli	a0,a0,0xb
    800035e8:	55550513          	addi	a0,a0,1365
    800035ec:	00a51513          	slli	a0,a0,0xa
    800035f0:	15450513          	addi	a0,a0,340
    800035f4:	fd352593          	slti	a1,a0,-45
    800035f8:	1cb13c23          	sd	a1,472(sp)
    800035fc:	00000293          	li	t0,0
    80003600:	00b28463          	beq	t0,a1,80003608 <inst_338>
    80003604:	a21fc06f          	j	80000024 <rvtest_error>

0000000080003608 <inst_338>:
    80003608:	55555537          	lui	a0,0x55555
    8000360c:	55550513          	addi	a0,a0,1365 # 55555555 <absimmsh+0x49a847a8>
    80003610:	00b51513          	slli	a0,a0,0xb
    80003614:	2aa50513          	addi	a0,a0,682
    80003618:	00b51513          	slli	a0,a0,0xb
    8000361c:	55550513          	addi	a0,a0,1365
    80003620:	00a51513          	slli	a0,a0,0xa
    80003624:	15450513          	addi	a0,a0,340
    80003628:	02d52593          	slti	a1,a0,45
    8000362c:	1eb13023          	sd	a1,480(sp)
    80003630:	00000293          	li	t0,0
    80003634:	00b28463          	beq	t0,a1,8000363c <inst_339>
    80003638:	9edfc06f          	j	80000024 <rvtest_error>

000000008000363c <inst_339>:
    8000363c:	55555537          	lui	a0,0x55555
    80003640:	55550513          	addi	a0,a0,1365 # 55555555 <absimmsh+0x49a847a8>
    80003644:	00b51513          	slli	a0,a0,0xb
    80003648:	2aa50513          	addi	a0,a0,682
    8000364c:	00b51513          	slli	a0,a0,0xb
    80003650:	55550513          	addi	a0,a0,1365
    80003654:	00a51513          	slli	a0,a0,0xa
    80003658:	15450513          	addi	a0,a0,340
    8000365c:	00252593          	slti	a1,a0,2
    80003660:	1eb13423          	sd	a1,488(sp)
    80003664:	00000293          	li	t0,0
    80003668:	00b28463          	beq	t0,a1,80003670 <inst_340>
    8000366c:	9b9fc06f          	j	80000024 <rvtest_error>

0000000080003670 <inst_340>:
    80003670:	55555537          	lui	a0,0x55555
    80003674:	55550513          	addi	a0,a0,1365 # 55555555 <absimmsh+0x49a847a8>
    80003678:	00b51513          	slli	a0,a0,0xb
    8000367c:	2aa50513          	addi	a0,a0,682
    80003680:	00b51513          	slli	a0,a0,0xb
    80003684:	55550513          	addi	a0,a0,1365
    80003688:	00a51513          	slli	a0,a0,0xa
    8000368c:	15450513          	addi	a0,a0,340
    80003690:	55452593          	slti	a1,a0,1364
    80003694:	1eb13823          	sd	a1,496(sp)
    80003698:	00000293          	li	t0,0
    8000369c:	00b28463          	beq	t0,a1,800036a4 <inst_341>
    800036a0:	985fc06f          	j	80000024 <rvtest_error>

00000000800036a4 <inst_341>:
    800036a4:	55555537          	lui	a0,0x55555
    800036a8:	55550513          	addi	a0,a0,1365 # 55555555 <absimmsh+0x49a847a8>
    800036ac:	00b51513          	slli	a0,a0,0xb
    800036b0:	2aa50513          	addi	a0,a0,682
    800036b4:	00b51513          	slli	a0,a0,0xb
    800036b8:	55550513          	addi	a0,a0,1365
    800036bc:	00a51513          	slli	a0,a0,0xa
    800036c0:	15450513          	addi	a0,a0,340
    800036c4:	00052593          	slti	a1,a0,0
    800036c8:	1eb13c23          	sd	a1,504(sp)
    800036cc:	00000293          	li	t0,0
    800036d0:	00b28463          	beq	t0,a1,800036d8 <inst_342>
    800036d4:	951fc06f          	j	80000024 <rvtest_error>

00000000800036d8 <inst_342>:
    800036d8:	55555537          	lui	a0,0x55555
    800036dc:	55550513          	addi	a0,a0,1365 # 55555555 <absimmsh+0x49a847a8>
    800036e0:	00b51513          	slli	a0,a0,0xb
    800036e4:	2aa50513          	addi	a0,a0,682
    800036e8:	00b51513          	slli	a0,a0,0xb
    800036ec:	55550513          	addi	a0,a0,1365
    800036f0:	00a51513          	slli	a0,a0,0xa
    800036f4:	15450513          	addi	a0,a0,340
    800036f8:	00452593          	slti	a1,a0,4
    800036fc:	20b13023          	sd	a1,512(sp)
    80003700:	00000293          	li	t0,0
    80003704:	00b28463          	beq	t0,a1,8000370c <inst_343>
    80003708:	91dfc06f          	j	80000024 <rvtest_error>

000000008000370c <inst_343>:
    8000370c:	55555537          	lui	a0,0x55555
    80003710:	55550513          	addi	a0,a0,1365 # 55555555 <absimmsh+0x49a847a8>
    80003714:	00b51513          	slli	a0,a0,0xb
    80003718:	2aa50513          	addi	a0,a0,682
    8000371c:	00b51513          	slli	a0,a0,0xb
    80003720:	55550513          	addi	a0,a0,1365
    80003724:	00a51513          	slli	a0,a0,0xa
    80003728:	15450513          	addi	a0,a0,340
    8000372c:	33252593          	slti	a1,a0,818
    80003730:	20b13423          	sd	a1,520(sp)
    80003734:	00000293          	li	t0,0
    80003738:	00b28463          	beq	t0,a1,80003740 <inst_344>
    8000373c:	8e9fc06f          	j	80000024 <rvtest_error>

0000000080003740 <inst_344>:
    80003740:	55555537          	lui	a0,0x55555
    80003744:	55550513          	addi	a0,a0,1365 # 55555555 <absimmsh+0x49a847a8>
    80003748:	00b51513          	slli	a0,a0,0xb
    8000374c:	2aa50513          	addi	a0,a0,682
    80003750:	00b51513          	slli	a0,a0,0xb
    80003754:	55550513          	addi	a0,a0,1365
    80003758:	00a51513          	slli	a0,a0,0xa
    8000375c:	15450513          	addi	a0,a0,340
    80003760:	66552593          	slti	a1,a0,1637
    80003764:	20b13823          	sd	a1,528(sp)
    80003768:	00000293          	li	t0,0
    8000376c:	00b28463          	beq	t0,a1,80003774 <inst_345>
    80003770:	8b5fc06f          	j	80000024 <rvtest_error>

0000000080003774 <inst_345>:
    80003774:	55555537          	lui	a0,0x55555
    80003778:	55550513          	addi	a0,a0,1365 # 55555555 <absimmsh+0x49a847a8>
    8000377c:	00b51513          	slli	a0,a0,0xb
    80003780:	2aa50513          	addi	a0,a0,682
    80003784:	00b51513          	slli	a0,a0,0xb
    80003788:	55550513          	addi	a0,a0,1365
    8000378c:	00a51513          	slli	a0,a0,0xa
    80003790:	15450513          	addi	a0,a0,340
    80003794:	02c52593          	slti	a1,a0,44
    80003798:	20b13c23          	sd	a1,536(sp)
    8000379c:	00000293          	li	t0,0
    800037a0:	00b28463          	beq	t0,a1,800037a8 <inst_346>
    800037a4:	881fc06f          	j	80000024 <rvtest_error>

00000000800037a8 <inst_346>:
    800037a8:	55555537          	lui	a0,0x55555
    800037ac:	55550513          	addi	a0,a0,1365 # 55555555 <absimmsh+0x49a847a8>
    800037b0:	00b51513          	slli	a0,a0,0xb
    800037b4:	2aa50513          	addi	a0,a0,682
    800037b8:	00b51513          	slli	a0,a0,0xb
    800037bc:	55550513          	addi	a0,a0,1365
    800037c0:	00a51513          	slli	a0,a0,0xa
    800037c4:	15450513          	addi	a0,a0,340
    800037c8:	55652593          	slti	a1,a0,1366
    800037cc:	22b13023          	sd	a1,544(sp)
    800037d0:	00000293          	li	t0,0
    800037d4:	00b28463          	beq	t0,a1,800037dc <inst_347>
    800037d8:	84dfc06f          	j	80000024 <rvtest_error>

00000000800037dc <inst_347>:
    800037dc:	55555537          	lui	a0,0x55555
    800037e0:	55550513          	addi	a0,a0,1365 # 55555555 <absimmsh+0x49a847a8>
    800037e4:	00b51513          	slli	a0,a0,0xb
    800037e8:	2aa50513          	addi	a0,a0,682
    800037ec:	00b51513          	slli	a0,a0,0xb
    800037f0:	55550513          	addi	a0,a0,1365
    800037f4:	00a51513          	slli	a0,a0,0xa
    800037f8:	15450513          	addi	a0,a0,340
    800037fc:	aab52593          	slti	a1,a0,-1365
    80003800:	22b13423          	sd	a1,552(sp)
    80003804:	00000293          	li	t0,0
    80003808:	00b28463          	beq	t0,a1,80003810 <inst_348>
    8000380c:	819fc06f          	j	80000024 <rvtest_error>

0000000080003810 <inst_348>:
    80003810:	55555537          	lui	a0,0x55555
    80003814:	55550513          	addi	a0,a0,1365 # 55555555 <absimmsh+0x49a847a8>
    80003818:	00b51513          	slli	a0,a0,0xb
    8000381c:	2aa50513          	addi	a0,a0,682
    80003820:	00b51513          	slli	a0,a0,0xb
    80003824:	55550513          	addi	a0,a0,1365
    80003828:	00a51513          	slli	a0,a0,0xa
    8000382c:	15450513          	addi	a0,a0,340
    80003830:	00652593          	slti	a1,a0,6
    80003834:	22b13823          	sd	a1,560(sp)
    80003838:	00000293          	li	t0,0
    8000383c:	00b28463          	beq	t0,a1,80003844 <inst_349>
    80003840:	fe4fc06f          	j	80000024 <rvtest_error>

0000000080003844 <inst_349>:
    80003844:	55555537          	lui	a0,0x55555
    80003848:	55550513          	addi	a0,a0,1365 # 55555555 <absimmsh+0x49a847a8>
    8000384c:	00b51513          	slli	a0,a0,0xb
    80003850:	2aa50513          	addi	a0,a0,682
    80003854:	00b51513          	slli	a0,a0,0xb
    80003858:	55550513          	addi	a0,a0,1365
    8000385c:	00a51513          	slli	a0,a0,0xa
    80003860:	15450513          	addi	a0,a0,340
    80003864:	33452593          	slti	a1,a0,820
    80003868:	22b13c23          	sd	a1,568(sp)
    8000386c:	00000293          	li	t0,0
    80003870:	00b28463          	beq	t0,a1,80003878 <inst_350>
    80003874:	fb0fc06f          	j	80000024 <rvtest_error>

0000000080003878 <inst_350>:
    80003878:	55555537          	lui	a0,0x55555
    8000387c:	55550513          	addi	a0,a0,1365 # 55555555 <absimmsh+0x49a847a8>
    80003880:	00b51513          	slli	a0,a0,0xb
    80003884:	2aa50513          	addi	a0,a0,682
    80003888:	00b51513          	slli	a0,a0,0xb
    8000388c:	55550513          	addi	a0,a0,1365
    80003890:	00a51513          	slli	a0,a0,0xa
    80003894:	15450513          	addi	a0,a0,340
    80003898:	66752593          	slti	a1,a0,1639
    8000389c:	24b13023          	sd	a1,576(sp)
    800038a0:	00000293          	li	t0,0
    800038a4:	00b28463          	beq	t0,a1,800038ac <inst_351>
    800038a8:	f7cfc06f          	j	80000024 <rvtest_error>

00000000800038ac <inst_351>:
    800038ac:	55555537          	lui	a0,0x55555
    800038b0:	55550513          	addi	a0,a0,1365 # 55555555 <absimmsh+0x49a847a8>
    800038b4:	00b51513          	slli	a0,a0,0xb
    800038b8:	2aa50513          	addi	a0,a0,682
    800038bc:	00b51513          	slli	a0,a0,0xb
    800038c0:	55550513          	addi	a0,a0,1365
    800038c4:	00a51513          	slli	a0,a0,0xa
    800038c8:	15450513          	addi	a0,a0,340
    800038cc:	fd452593          	slti	a1,a0,-44
    800038d0:	24b13423          	sd	a1,584(sp)
    800038d4:	00000293          	li	t0,0
    800038d8:	00b28463          	beq	t0,a1,800038e0 <inst_352>
    800038dc:	f48fc06f          	j	80000024 <rvtest_error>

00000000800038e0 <inst_352>:
    800038e0:	55555537          	lui	a0,0x55555
    800038e4:	55550513          	addi	a0,a0,1365 # 55555555 <absimmsh+0x49a847a8>
    800038e8:	00b51513          	slli	a0,a0,0xb
    800038ec:	2aa50513          	addi	a0,a0,682
    800038f0:	00b51513          	slli	a0,a0,0xb
    800038f4:	55550513          	addi	a0,a0,1365
    800038f8:	00a51513          	slli	a0,a0,0xa
    800038fc:	15450513          	addi	a0,a0,340
    80003900:	02e52593          	slti	a1,a0,46
    80003904:	24b13823          	sd	a1,592(sp)
    80003908:	00000293          	li	t0,0
    8000390c:	00b28463          	beq	t0,a1,80003914 <inst_353>
    80003910:	f14fc06f          	j	80000024 <rvtest_error>

0000000080003914 <inst_353>:
    80003914:	00000513          	li	a0,0
    80003918:	00352593          	slti	a1,a0,3
    8000391c:	24b13c23          	sd	a1,600(sp)
    80003920:	00100293          	li	t0,1
    80003924:	00b28463          	beq	t0,a1,8000392c <inst_354>
    80003928:	efcfc06f          	j	80000024 <rvtest_error>

000000008000392c <inst_354>:
    8000392c:	00000513          	li	a0,0
    80003930:	55552593          	slti	a1,a0,1365
    80003934:	26b13023          	sd	a1,608(sp)
    80003938:	00100293          	li	t0,1
    8000393c:	00b28463          	beq	t0,a1,80003944 <inst_355>
    80003940:	ee4fc06f          	j	80000024 <rvtest_error>

0000000080003944 <inst_355>:
    80003944:	00000513          	li	a0,0
    80003948:	aaa52593          	slti	a1,a0,-1366
    8000394c:	26b13423          	sd	a1,616(sp)
    80003950:	00000293          	li	t0,0
    80003954:	00b28463          	beq	t0,a1,8000395c <inst_356>
    80003958:	eccfc06f          	j	80000024 <rvtest_error>

000000008000395c <inst_356>:
    8000395c:	00000513          	li	a0,0
    80003960:	00552593          	slti	a1,a0,5
    80003964:	26b13823          	sd	a1,624(sp)
    80003968:	00100293          	li	t0,1
    8000396c:	00b28463          	beq	t0,a1,80003974 <inst_357>
    80003970:	eb4fc06f          	j	80000024 <rvtest_error>

0000000080003974 <inst_357>:
    80003974:	00000513          	li	a0,0
    80003978:	33352593          	slti	a1,a0,819
    8000397c:	26b13c23          	sd	a1,632(sp)
    80003980:	00100293          	li	t0,1
    80003984:	00b28463          	beq	t0,a1,8000398c <inst_358>
    80003988:	e9cfc06f          	j	80000024 <rvtest_error>

000000008000398c <inst_358>:
    8000398c:	00000513          	li	a0,0
    80003990:	66652593          	slti	a1,a0,1638
    80003994:	28b13023          	sd	a1,640(sp)
    80003998:	00100293          	li	t0,1
    8000399c:	00b28463          	beq	t0,a1,800039a4 <inst_359>
    800039a0:	e84fc06f          	j	80000024 <rvtest_error>

00000000800039a4 <inst_359>:
    800039a4:	00000513          	li	a0,0
    800039a8:	fd352593          	slti	a1,a0,-45
    800039ac:	28b13423          	sd	a1,648(sp)
    800039b0:	00000293          	li	t0,0
    800039b4:	00b28463          	beq	t0,a1,800039bc <inst_360>
    800039b8:	e6cfc06f          	j	80000024 <rvtest_error>

00000000800039bc <inst_360>:
    800039bc:	00000513          	li	a0,0
    800039c0:	02d52593          	slti	a1,a0,45
    800039c4:	28b13823          	sd	a1,656(sp)
    800039c8:	00100293          	li	t0,1
    800039cc:	00b28463          	beq	t0,a1,800039d4 <inst_361>
    800039d0:	e54fc06f          	j	80000024 <rvtest_error>

00000000800039d4 <inst_361>:
    800039d4:	55555537          	lui	a0,0x55555
    800039d8:	55550513          	addi	a0,a0,1365 # 55555555 <absimmsh+0x49a847a8>
    800039dc:	00b51513          	slli	a0,a0,0xb
    800039e0:	2aa50513          	addi	a0,a0,682
    800039e4:	00b51513          	slli	a0,a0,0xb
    800039e8:	55550513          	addi	a0,a0,1365
    800039ec:	00a51513          	slli	a0,a0,0xa
    800039f0:	15650513          	addi	a0,a0,342
    800039f4:	02c52593          	slti	a1,a0,44
    800039f8:	28b13c23          	sd	a1,664(sp)
    800039fc:	00000293          	li	t0,0
    80003a00:	00b28463          	beq	t0,a1,80003a08 <inst_362>
    80003a04:	e20fc06f          	j	80000024 <rvtest_error>

0000000080003a08 <inst_362>:
    80003a08:	55555537          	lui	a0,0x55555
    80003a0c:	55550513          	addi	a0,a0,1365 # 55555555 <absimmsh+0x49a847a8>
    80003a10:	00b51513          	slli	a0,a0,0xb
    80003a14:	2aa50513          	addi	a0,a0,682
    80003a18:	00b51513          	slli	a0,a0,0xb
    80003a1c:	55550513          	addi	a0,a0,1365
    80003a20:	00a51513          	slli	a0,a0,0xa
    80003a24:	15650513          	addi	a0,a0,342
    80003a28:	55652593          	slti	a1,a0,1366
    80003a2c:	2ab13023          	sd	a1,672(sp)
    80003a30:	00000293          	li	t0,0
    80003a34:	00b28463          	beq	t0,a1,80003a3c <inst_363>
    80003a38:	decfc06f          	j	80000024 <rvtest_error>

0000000080003a3c <inst_363>:
    80003a3c:	55555537          	lui	a0,0x55555
    80003a40:	55550513          	addi	a0,a0,1365 # 55555555 <absimmsh+0x49a847a8>
    80003a44:	00b51513          	slli	a0,a0,0xb
    80003a48:	2aa50513          	addi	a0,a0,682
    80003a4c:	00b51513          	slli	a0,a0,0xb
    80003a50:	55550513          	addi	a0,a0,1365
    80003a54:	00a51513          	slli	a0,a0,0xa
    80003a58:	15650513          	addi	a0,a0,342
    80003a5c:	aab52593          	slti	a1,a0,-1365
    80003a60:	2ab13423          	sd	a1,680(sp)
    80003a64:	00000293          	li	t0,0
    80003a68:	00b28463          	beq	t0,a1,80003a70 <inst_364>
    80003a6c:	db8fc06f          	j	80000024 <rvtest_error>

0000000080003a70 <inst_364>:
    80003a70:	55555537          	lui	a0,0x55555
    80003a74:	55550513          	addi	a0,a0,1365 # 55555555 <absimmsh+0x49a847a8>
    80003a78:	00b51513          	slli	a0,a0,0xb
    80003a7c:	2aa50513          	addi	a0,a0,682
    80003a80:	00b51513          	slli	a0,a0,0xb
    80003a84:	55550513          	addi	a0,a0,1365
    80003a88:	00a51513          	slli	a0,a0,0xa
    80003a8c:	15650513          	addi	a0,a0,342
    80003a90:	00652593          	slti	a1,a0,6
    80003a94:	2ab13823          	sd	a1,688(sp)
    80003a98:	00000293          	li	t0,0
    80003a9c:	00b28463          	beq	t0,a1,80003aa4 <inst_365>
    80003aa0:	d84fc06f          	j	80000024 <rvtest_error>

0000000080003aa4 <inst_365>:
    80003aa4:	55555537          	lui	a0,0x55555
    80003aa8:	55550513          	addi	a0,a0,1365 # 55555555 <absimmsh+0x49a847a8>
    80003aac:	00b51513          	slli	a0,a0,0xb
    80003ab0:	2aa50513          	addi	a0,a0,682
    80003ab4:	00b51513          	slli	a0,a0,0xb
    80003ab8:	55550513          	addi	a0,a0,1365
    80003abc:	00a51513          	slli	a0,a0,0xa
    80003ac0:	15650513          	addi	a0,a0,342
    80003ac4:	33452593          	slti	a1,a0,820
    80003ac8:	2ab13c23          	sd	a1,696(sp)
    80003acc:	00000293          	li	t0,0
    80003ad0:	00b28463          	beq	t0,a1,80003ad8 <inst_366>
    80003ad4:	d50fc06f          	j	80000024 <rvtest_error>

0000000080003ad8 <inst_366>:
    80003ad8:	55555537          	lui	a0,0x55555
    80003adc:	55550513          	addi	a0,a0,1365 # 55555555 <absimmsh+0x49a847a8>
    80003ae0:	00b51513          	slli	a0,a0,0xb
    80003ae4:	2aa50513          	addi	a0,a0,682
    80003ae8:	00b51513          	slli	a0,a0,0xb
    80003aec:	55550513          	addi	a0,a0,1365
    80003af0:	00a51513          	slli	a0,a0,0xa
    80003af4:	15650513          	addi	a0,a0,342
    80003af8:	66752593          	slti	a1,a0,1639
    80003afc:	2cb13023          	sd	a1,704(sp)
    80003b00:	00000293          	li	t0,0
    80003b04:	00b28463          	beq	t0,a1,80003b0c <inst_367>
    80003b08:	d1cfc06f          	j	80000024 <rvtest_error>

0000000080003b0c <inst_367>:
    80003b0c:	55555537          	lui	a0,0x55555
    80003b10:	55550513          	addi	a0,a0,1365 # 55555555 <absimmsh+0x49a847a8>
    80003b14:	00b51513          	slli	a0,a0,0xb
    80003b18:	2aa50513          	addi	a0,a0,682
    80003b1c:	00b51513          	slli	a0,a0,0xb
    80003b20:	55550513          	addi	a0,a0,1365
    80003b24:	00a51513          	slli	a0,a0,0xa
    80003b28:	15650513          	addi	a0,a0,342
    80003b2c:	fd452593          	slti	a1,a0,-44
    80003b30:	2cb13423          	sd	a1,712(sp)
    80003b34:	00000293          	li	t0,0
    80003b38:	00b28463          	beq	t0,a1,80003b40 <inst_368>
    80003b3c:	ce8fc06f          	j	80000024 <rvtest_error>

0000000080003b40 <inst_368>:
    80003b40:	55555537          	lui	a0,0x55555
    80003b44:	55550513          	addi	a0,a0,1365 # 55555555 <absimmsh+0x49a847a8>
    80003b48:	00b51513          	slli	a0,a0,0xb
    80003b4c:	2aa50513          	addi	a0,a0,682
    80003b50:	00b51513          	slli	a0,a0,0xb
    80003b54:	55550513          	addi	a0,a0,1365
    80003b58:	00a51513          	slli	a0,a0,0xa
    80003b5c:	15650513          	addi	a0,a0,342
    80003b60:	02e52593          	slti	a1,a0,46
    80003b64:	2cb13823          	sd	a1,720(sp)
    80003b68:	00000293          	li	t0,0
    80003b6c:	00b28463          	beq	t0,a1,80003b74 <inst_369>
    80003b70:	cb4fc06f          	j	80000024 <rvtest_error>

0000000080003b74 <inst_369>:
    80003b74:	aaaab537          	lui	a0,0xaaaab
    80003b78:	aaa50513          	addi	a0,a0,-1366 # ffffffffaaaaaaaa <absimm+0xfffffffeefd9cfda>
    80003b7c:	00b51513          	slli	a0,a0,0xb
    80003b80:	55550513          	addi	a0,a0,1365
    80003b84:	00b51513          	slli	a0,a0,0xb
    80003b88:	2aa50513          	addi	a0,a0,682
    80003b8c:	00a51513          	slli	a0,a0,0xa
    80003b90:	2ab50513          	addi	a0,a0,683
    80003b94:	00352593          	slti	a1,a0,3
    80003b98:	2cb13c23          	sd	a1,728(sp)
    80003b9c:	00100293          	li	t0,1
    80003ba0:	00b28463          	beq	t0,a1,80003ba8 <inst_370>
    80003ba4:	c80fc06f          	j	80000024 <rvtest_error>

0000000080003ba8 <inst_370>:
    80003ba8:	aaaab537          	lui	a0,0xaaaab
    80003bac:	aaa50513          	addi	a0,a0,-1366 # ffffffffaaaaaaaa <absimm+0xfffffffeefd9cfda>
    80003bb0:	00b51513          	slli	a0,a0,0xb
    80003bb4:	55550513          	addi	a0,a0,1365
    80003bb8:	00b51513          	slli	a0,a0,0xb
    80003bbc:	2aa50513          	addi	a0,a0,682
    80003bc0:	00a51513          	slli	a0,a0,0xa
    80003bc4:	2ab50513          	addi	a0,a0,683
    80003bc8:	55552593          	slti	a1,a0,1365
    80003bcc:	2eb13023          	sd	a1,736(sp)
    80003bd0:	00100293          	li	t0,1
    80003bd4:	00b28463          	beq	t0,a1,80003bdc <inst_371>
    80003bd8:	c4cfc06f          	j	80000024 <rvtest_error>

0000000080003bdc <inst_371>:
    80003bdc:	aaaab537          	lui	a0,0xaaaab
    80003be0:	aaa50513          	addi	a0,a0,-1366 # ffffffffaaaaaaaa <absimm+0xfffffffeefd9cfda>
    80003be4:	00b51513          	slli	a0,a0,0xb
    80003be8:	55550513          	addi	a0,a0,1365
    80003bec:	00b51513          	slli	a0,a0,0xb
    80003bf0:	2aa50513          	addi	a0,a0,682
    80003bf4:	00a51513          	slli	a0,a0,0xa
    80003bf8:	2ab50513          	addi	a0,a0,683
    80003bfc:	aaa52593          	slti	a1,a0,-1366
    80003c00:	2eb13423          	sd	a1,744(sp)
    80003c04:	00100293          	li	t0,1
    80003c08:	00b28463          	beq	t0,a1,80003c10 <inst_372>
    80003c0c:	c18fc06f          	j	80000024 <rvtest_error>

0000000080003c10 <inst_372>:
    80003c10:	aaaab537          	lui	a0,0xaaaab
    80003c14:	aaa50513          	addi	a0,a0,-1366 # ffffffffaaaaaaaa <absimm+0xfffffffeefd9cfda>
    80003c18:	00b51513          	slli	a0,a0,0xb
    80003c1c:	55550513          	addi	a0,a0,1365
    80003c20:	00b51513          	slli	a0,a0,0xb
    80003c24:	2aa50513          	addi	a0,a0,682
    80003c28:	00a51513          	slli	a0,a0,0xa
    80003c2c:	2ab50513          	addi	a0,a0,683
    80003c30:	00552593          	slti	a1,a0,5
    80003c34:	2eb13823          	sd	a1,752(sp)
    80003c38:	00100293          	li	t0,1
    80003c3c:	00b28463          	beq	t0,a1,80003c44 <inst_373>
    80003c40:	be4fc06f          	j	80000024 <rvtest_error>

0000000080003c44 <inst_373>:
    80003c44:	aaaab537          	lui	a0,0xaaaab
    80003c48:	aaa50513          	addi	a0,a0,-1366 # ffffffffaaaaaaaa <absimm+0xfffffffeefd9cfda>
    80003c4c:	00b51513          	slli	a0,a0,0xb
    80003c50:	55550513          	addi	a0,a0,1365
    80003c54:	00b51513          	slli	a0,a0,0xb
    80003c58:	2aa50513          	addi	a0,a0,682
    80003c5c:	00a51513          	slli	a0,a0,0xa
    80003c60:	2ab50513          	addi	a0,a0,683
    80003c64:	33352593          	slti	a1,a0,819
    80003c68:	2eb13c23          	sd	a1,760(sp)
    80003c6c:	00100293          	li	t0,1
    80003c70:	00b28463          	beq	t0,a1,80003c78 <inst_374>
    80003c74:	bb0fc06f          	j	80000024 <rvtest_error>

0000000080003c78 <inst_374>:
    80003c78:	aaaab537          	lui	a0,0xaaaab
    80003c7c:	aaa50513          	addi	a0,a0,-1366 # ffffffffaaaaaaaa <absimm+0xfffffffeefd9cfda>
    80003c80:	00b51513          	slli	a0,a0,0xb
    80003c84:	55550513          	addi	a0,a0,1365
    80003c88:	00b51513          	slli	a0,a0,0xb
    80003c8c:	2aa50513          	addi	a0,a0,682
    80003c90:	00a51513          	slli	a0,a0,0xa
    80003c94:	2ab50513          	addi	a0,a0,683
    80003c98:	66652593          	slti	a1,a0,1638
    80003c9c:	30b13023          	sd	a1,768(sp)
    80003ca0:	00100293          	li	t0,1
    80003ca4:	00b28463          	beq	t0,a1,80003cac <inst_375>
    80003ca8:	b7cfc06f          	j	80000024 <rvtest_error>

0000000080003cac <inst_375>:
    80003cac:	aaaab537          	lui	a0,0xaaaab
    80003cb0:	aaa50513          	addi	a0,a0,-1366 # ffffffffaaaaaaaa <absimm+0xfffffffeefd9cfda>
    80003cb4:	00b51513          	slli	a0,a0,0xb
    80003cb8:	55550513          	addi	a0,a0,1365
    80003cbc:	00b51513          	slli	a0,a0,0xb
    80003cc0:	2aa50513          	addi	a0,a0,682
    80003cc4:	00a51513          	slli	a0,a0,0xa
    80003cc8:	2ab50513          	addi	a0,a0,683
    80003ccc:	fd352593          	slti	a1,a0,-45
    80003cd0:	30b13423          	sd	a1,776(sp)
    80003cd4:	00100293          	li	t0,1
    80003cd8:	00b28463          	beq	t0,a1,80003ce0 <inst_376>
    80003cdc:	b48fc06f          	j	80000024 <rvtest_error>

0000000080003ce0 <inst_376>:
    80003ce0:	aaaab537          	lui	a0,0xaaaab
    80003ce4:	aaa50513          	addi	a0,a0,-1366 # ffffffffaaaaaaaa <absimm+0xfffffffeefd9cfda>
    80003ce8:	00b51513          	slli	a0,a0,0xb
    80003cec:	55550513          	addi	a0,a0,1365
    80003cf0:	00b51513          	slli	a0,a0,0xb
    80003cf4:	2aa50513          	addi	a0,a0,682
    80003cf8:	00a51513          	slli	a0,a0,0xa
    80003cfc:	2ab50513          	addi	a0,a0,683
    80003d00:	02d52593          	slti	a1,a0,45
    80003d04:	30b13823          	sd	a1,784(sp)
    80003d08:	00100293          	li	t0,1
    80003d0c:	00b28463          	beq	t0,a1,80003d14 <inst_377>
    80003d10:	b14fc06f          	j	80000024 <rvtest_error>

0000000080003d14 <inst_377>:
    80003d14:	aaaab537          	lui	a0,0xaaaab
    80003d18:	aaa50513          	addi	a0,a0,-1366 # ffffffffaaaaaaaa <absimm+0xfffffffeefd9cfda>
    80003d1c:	00b51513          	slli	a0,a0,0xb
    80003d20:	55550513          	addi	a0,a0,1365
    80003d24:	00b51513          	slli	a0,a0,0xb
    80003d28:	2aa50513          	addi	a0,a0,682
    80003d2c:	00a51513          	slli	a0,a0,0xa
    80003d30:	2ab50513          	addi	a0,a0,683
    80003d34:	00252593          	slti	a1,a0,2
    80003d38:	30b13c23          	sd	a1,792(sp)
    80003d3c:	00100293          	li	t0,1
    80003d40:	00b28463          	beq	t0,a1,80003d48 <inst_378>
    80003d44:	ae0fc06f          	j	80000024 <rvtest_error>

0000000080003d48 <inst_378>:
    80003d48:	aaaab537          	lui	a0,0xaaaab
    80003d4c:	aaa50513          	addi	a0,a0,-1366 # ffffffffaaaaaaaa <absimm+0xfffffffeefd9cfda>
    80003d50:	00b51513          	slli	a0,a0,0xb
    80003d54:	55550513          	addi	a0,a0,1365
    80003d58:	00b51513          	slli	a0,a0,0xb
    80003d5c:	2aa50513          	addi	a0,a0,682
    80003d60:	00a51513          	slli	a0,a0,0xa
    80003d64:	2ab50513          	addi	a0,a0,683
    80003d68:	55452593          	slti	a1,a0,1364
    80003d6c:	32b13023          	sd	a1,800(sp)
    80003d70:	00100293          	li	t0,1
    80003d74:	00b28463          	beq	t0,a1,80003d7c <inst_379>
    80003d78:	aacfc06f          	j	80000024 <rvtest_error>

0000000080003d7c <inst_379>:
    80003d7c:	aaaab537          	lui	a0,0xaaaab
    80003d80:	aaa50513          	addi	a0,a0,-1366 # ffffffffaaaaaaaa <absimm+0xfffffffeefd9cfda>
    80003d84:	00b51513          	slli	a0,a0,0xb
    80003d88:	55550513          	addi	a0,a0,1365
    80003d8c:	00b51513          	slli	a0,a0,0xb
    80003d90:	2aa50513          	addi	a0,a0,682
    80003d94:	00a51513          	slli	a0,a0,0xa
    80003d98:	2ab50513          	addi	a0,a0,683
    80003d9c:	00052593          	slti	a1,a0,0
    80003da0:	32b13423          	sd	a1,808(sp)
    80003da4:	00100293          	li	t0,1
    80003da8:	00b28463          	beq	t0,a1,80003db0 <inst_380>
    80003dac:	a78fc06f          	j	80000024 <rvtest_error>

0000000080003db0 <inst_380>:
    80003db0:	aaaab537          	lui	a0,0xaaaab
    80003db4:	aaa50513          	addi	a0,a0,-1366 # ffffffffaaaaaaaa <absimm+0xfffffffeefd9cfda>
    80003db8:	00b51513          	slli	a0,a0,0xb
    80003dbc:	55550513          	addi	a0,a0,1365
    80003dc0:	00b51513          	slli	a0,a0,0xb
    80003dc4:	2aa50513          	addi	a0,a0,682
    80003dc8:	00a51513          	slli	a0,a0,0xa
    80003dcc:	2ab50513          	addi	a0,a0,683
    80003dd0:	00452593          	slti	a1,a0,4
    80003dd4:	32b13823          	sd	a1,816(sp)
    80003dd8:	00100293          	li	t0,1
    80003ddc:	00b28463          	beq	t0,a1,80003de4 <inst_381>
    80003de0:	a44fc06f          	j	80000024 <rvtest_error>

0000000080003de4 <inst_381>:
    80003de4:	aaaab537          	lui	a0,0xaaaab
    80003de8:	aaa50513          	addi	a0,a0,-1366 # ffffffffaaaaaaaa <absimm+0xfffffffeefd9cfda>
    80003dec:	00b51513          	slli	a0,a0,0xb
    80003df0:	55550513          	addi	a0,a0,1365
    80003df4:	00b51513          	slli	a0,a0,0xb
    80003df8:	2aa50513          	addi	a0,a0,682
    80003dfc:	00a51513          	slli	a0,a0,0xa
    80003e00:	2ab50513          	addi	a0,a0,683
    80003e04:	33252593          	slti	a1,a0,818
    80003e08:	32b13c23          	sd	a1,824(sp)
    80003e0c:	00100293          	li	t0,1
    80003e10:	00b28463          	beq	t0,a1,80003e18 <inst_382>
    80003e14:	a10fc06f          	j	80000024 <rvtest_error>

0000000080003e18 <inst_382>:
    80003e18:	aaaab537          	lui	a0,0xaaaab
    80003e1c:	aaa50513          	addi	a0,a0,-1366 # ffffffffaaaaaaaa <absimm+0xfffffffeefd9cfda>
    80003e20:	00b51513          	slli	a0,a0,0xb
    80003e24:	55550513          	addi	a0,a0,1365
    80003e28:	00b51513          	slli	a0,a0,0xb
    80003e2c:	2aa50513          	addi	a0,a0,682
    80003e30:	00a51513          	slli	a0,a0,0xa
    80003e34:	2ab50513          	addi	a0,a0,683
    80003e38:	66552593          	slti	a1,a0,1637
    80003e3c:	34b13023          	sd	a1,832(sp)
    80003e40:	00100293          	li	t0,1
    80003e44:	00b28463          	beq	t0,a1,80003e4c <inst_383>
    80003e48:	9dcfc06f          	j	80000024 <rvtest_error>

0000000080003e4c <inst_383>:
    80003e4c:	aaaab537          	lui	a0,0xaaaab
    80003e50:	aaa50513          	addi	a0,a0,-1366 # ffffffffaaaaaaaa <absimm+0xfffffffeefd9cfda>
    80003e54:	00b51513          	slli	a0,a0,0xb
    80003e58:	55550513          	addi	a0,a0,1365
    80003e5c:	00b51513          	slli	a0,a0,0xb
    80003e60:	2aa50513          	addi	a0,a0,682
    80003e64:	00a51513          	slli	a0,a0,0xa
    80003e68:	2ab50513          	addi	a0,a0,683
    80003e6c:	02c52593          	slti	a1,a0,44
    80003e70:	34b13423          	sd	a1,840(sp)
    80003e74:	00100293          	li	t0,1
    80003e78:	00b28463          	beq	t0,a1,80003e80 <inst_384>
    80003e7c:	9a8fc06f          	j	80000024 <rvtest_error>

0000000080003e80 <inst_384>:
    80003e80:	aaaab537          	lui	a0,0xaaaab
    80003e84:	aaa50513          	addi	a0,a0,-1366 # ffffffffaaaaaaaa <absimm+0xfffffffeefd9cfda>
    80003e88:	00b51513          	slli	a0,a0,0xb
    80003e8c:	55550513          	addi	a0,a0,1365
    80003e90:	00b51513          	slli	a0,a0,0xb
    80003e94:	2aa50513          	addi	a0,a0,682
    80003e98:	00a51513          	slli	a0,a0,0xa
    80003e9c:	2ab50513          	addi	a0,a0,683
    80003ea0:	55652593          	slti	a1,a0,1366
    80003ea4:	34b13823          	sd	a1,848(sp)
    80003ea8:	00100293          	li	t0,1
    80003eac:	00b28463          	beq	t0,a1,80003eb4 <inst_385>
    80003eb0:	974fc06f          	j	80000024 <rvtest_error>

0000000080003eb4 <inst_385>:
    80003eb4:	aaaab537          	lui	a0,0xaaaab
    80003eb8:	aaa50513          	addi	a0,a0,-1366 # ffffffffaaaaaaaa <absimm+0xfffffffeefd9cfda>
    80003ebc:	00b51513          	slli	a0,a0,0xb
    80003ec0:	55550513          	addi	a0,a0,1365
    80003ec4:	00b51513          	slli	a0,a0,0xb
    80003ec8:	2aa50513          	addi	a0,a0,682
    80003ecc:	00a51513          	slli	a0,a0,0xa
    80003ed0:	2ab50513          	addi	a0,a0,683
    80003ed4:	aab52593          	slti	a1,a0,-1365
    80003ed8:	34b13c23          	sd	a1,856(sp)
    80003edc:	00100293          	li	t0,1
    80003ee0:	00b28463          	beq	t0,a1,80003ee8 <inst_386>
    80003ee4:	940fc06f          	j	80000024 <rvtest_error>

0000000080003ee8 <inst_386>:
    80003ee8:	aaaab537          	lui	a0,0xaaaab
    80003eec:	aaa50513          	addi	a0,a0,-1366 # ffffffffaaaaaaaa <absimm+0xfffffffeefd9cfda>
    80003ef0:	00b51513          	slli	a0,a0,0xb
    80003ef4:	55550513          	addi	a0,a0,1365
    80003ef8:	00b51513          	slli	a0,a0,0xb
    80003efc:	2aa50513          	addi	a0,a0,682
    80003f00:	00a51513          	slli	a0,a0,0xa
    80003f04:	2ab50513          	addi	a0,a0,683
    80003f08:	00652593          	slti	a1,a0,6
    80003f0c:	36b13023          	sd	a1,864(sp)
    80003f10:	00100293          	li	t0,1
    80003f14:	00b28463          	beq	t0,a1,80003f1c <inst_387>
    80003f18:	90cfc06f          	j	80000024 <rvtest_error>

0000000080003f1c <inst_387>:
    80003f1c:	aaaab537          	lui	a0,0xaaaab
    80003f20:	aaa50513          	addi	a0,a0,-1366 # ffffffffaaaaaaaa <absimm+0xfffffffeefd9cfda>
    80003f24:	00b51513          	slli	a0,a0,0xb
    80003f28:	55550513          	addi	a0,a0,1365
    80003f2c:	00b51513          	slli	a0,a0,0xb
    80003f30:	2aa50513          	addi	a0,a0,682
    80003f34:	00a51513          	slli	a0,a0,0xa
    80003f38:	2ab50513          	addi	a0,a0,683
    80003f3c:	33452593          	slti	a1,a0,820
    80003f40:	36b13423          	sd	a1,872(sp)
    80003f44:	00100293          	li	t0,1
    80003f48:	00b28463          	beq	t0,a1,80003f50 <inst_388>
    80003f4c:	8d8fc06f          	j	80000024 <rvtest_error>

0000000080003f50 <inst_388>:
    80003f50:	aaaab537          	lui	a0,0xaaaab
    80003f54:	aaa50513          	addi	a0,a0,-1366 # ffffffffaaaaaaaa <absimm+0xfffffffeefd9cfda>
    80003f58:	00b51513          	slli	a0,a0,0xb
    80003f5c:	55550513          	addi	a0,a0,1365
    80003f60:	00b51513          	slli	a0,a0,0xb
    80003f64:	2aa50513          	addi	a0,a0,682
    80003f68:	00a51513          	slli	a0,a0,0xa
    80003f6c:	2ab50513          	addi	a0,a0,683
    80003f70:	66752593          	slti	a1,a0,1639
    80003f74:	36b13823          	sd	a1,880(sp)
    80003f78:	00100293          	li	t0,1
    80003f7c:	00b28463          	beq	t0,a1,80003f84 <inst_389>
    80003f80:	8a4fc06f          	j	80000024 <rvtest_error>

0000000080003f84 <inst_389>:
    80003f84:	aaaab537          	lui	a0,0xaaaab
    80003f88:	aaa50513          	addi	a0,a0,-1366 # ffffffffaaaaaaaa <absimm+0xfffffffeefd9cfda>
    80003f8c:	00b51513          	slli	a0,a0,0xb
    80003f90:	55550513          	addi	a0,a0,1365
    80003f94:	00b51513          	slli	a0,a0,0xb
    80003f98:	2aa50513          	addi	a0,a0,682
    80003f9c:	00a51513          	slli	a0,a0,0xa
    80003fa0:	2ab50513          	addi	a0,a0,683
    80003fa4:	fd452593          	slti	a1,a0,-44
    80003fa8:	36b13c23          	sd	a1,888(sp)
    80003fac:	00100293          	li	t0,1
    80003fb0:	00b28463          	beq	t0,a1,80003fb8 <inst_390>
    80003fb4:	870fc06f          	j	80000024 <rvtest_error>

0000000080003fb8 <inst_390>:
    80003fb8:	aaaab537          	lui	a0,0xaaaab
    80003fbc:	aaa50513          	addi	a0,a0,-1366 # ffffffffaaaaaaaa <absimm+0xfffffffeefd9cfda>
    80003fc0:	00b51513          	slli	a0,a0,0xb
    80003fc4:	55550513          	addi	a0,a0,1365
    80003fc8:	00b51513          	slli	a0,a0,0xb
    80003fcc:	2aa50513          	addi	a0,a0,682
    80003fd0:	00a51513          	slli	a0,a0,0xa
    80003fd4:	2ab50513          	addi	a0,a0,683
    80003fd8:	02e52593          	slti	a1,a0,46
    80003fdc:	38b13023          	sd	a1,896(sp)
    80003fe0:	00100293          	li	t0,1
    80003fe4:	00b28463          	beq	t0,a1,80003fec <inst_391>
    80003fe8:	83cfc06f          	j	80000024 <rvtest_error>

0000000080003fec <inst_391>:
    80003fec:	00600513          	li	a0,6
    80003ff0:	00352593          	slti	a1,a0,3
    80003ff4:	38b13423          	sd	a1,904(sp)
    80003ff8:	00000293          	li	t0,0
    80003ffc:	00b28463          	beq	t0,a1,80004004 <inst_392>
    80004000:	824fc06f          	j	80000024 <rvtest_error>

0000000080004004 <inst_392>:
    80004004:	00600513          	li	a0,6
    80004008:	55552593          	slti	a1,a0,1365
    8000400c:	38b13823          	sd	a1,912(sp)
    80004010:	00100293          	li	t0,1
    80004014:	00b28463          	beq	t0,a1,8000401c <inst_393>
    80004018:	80cfc06f          	j	80000024 <rvtest_error>

000000008000401c <inst_393>:
    8000401c:	00600513          	li	a0,6
    80004020:	aaa52593          	slti	a1,a0,-1366
    80004024:	38b13c23          	sd	a1,920(sp)
    80004028:	00000293          	li	t0,0
    8000402c:	00b28463          	beq	t0,a1,80004034 <inst_394>
    80004030:	ff5fb06f          	j	80000024 <rvtest_error>

0000000080004034 <inst_394>:
    80004034:	00600513          	li	a0,6
    80004038:	00552593          	slti	a1,a0,5
    8000403c:	3ab13023          	sd	a1,928(sp)
    80004040:	00000293          	li	t0,0
    80004044:	00b28463          	beq	t0,a1,8000404c <inst_395>
    80004048:	fddfb06f          	j	80000024 <rvtest_error>

000000008000404c <inst_395>:
    8000404c:	00600513          	li	a0,6
    80004050:	33352593          	slti	a1,a0,819
    80004054:	3ab13423          	sd	a1,936(sp)
    80004058:	00100293          	li	t0,1
    8000405c:	00b28463          	beq	t0,a1,80004064 <inst_396>
    80004060:	fc5fb06f          	j	80000024 <rvtest_error>

0000000080004064 <inst_396>:
    80004064:	00600513          	li	a0,6
    80004068:	66652593          	slti	a1,a0,1638
    8000406c:	3ab13823          	sd	a1,944(sp)
    80004070:	00100293          	li	t0,1
    80004074:	00b28463          	beq	t0,a1,8000407c <inst_397>
    80004078:	fadfb06f          	j	80000024 <rvtest_error>

000000008000407c <inst_397>:
    8000407c:	00600513          	li	a0,6
    80004080:	fd352593          	slti	a1,a0,-45
    80004084:	3ab13c23          	sd	a1,952(sp)
    80004088:	00000293          	li	t0,0
    8000408c:	00b28463          	beq	t0,a1,80004094 <inst_398>
    80004090:	f95fb06f          	j	80000024 <rvtest_error>

0000000080004094 <inst_398>:
    80004094:	00600513          	li	a0,6
    80004098:	02d52593          	slti	a1,a0,45
    8000409c:	3cb13023          	sd	a1,960(sp)
    800040a0:	00100293          	li	t0,1
    800040a4:	00b28463          	beq	t0,a1,800040ac <inst_399>
    800040a8:	f7dfb06f          	j	80000024 <rvtest_error>

00000000800040ac <inst_399>:
    800040ac:	00600513          	li	a0,6
    800040b0:	00252593          	slti	a1,a0,2
    800040b4:	3cb13423          	sd	a1,968(sp)
    800040b8:	00000293          	li	t0,0
    800040bc:	00b28463          	beq	t0,a1,800040c4 <inst_400>
    800040c0:	f65fb06f          	j	80000024 <rvtest_error>

00000000800040c4 <inst_400>:
    800040c4:	00600513          	li	a0,6
    800040c8:	55452593          	slti	a1,a0,1364
    800040cc:	3cb13823          	sd	a1,976(sp)
    800040d0:	00100293          	li	t0,1
    800040d4:	00b28463          	beq	t0,a1,800040dc <inst_401>
    800040d8:	f4dfb06f          	j	80000024 <rvtest_error>

00000000800040dc <inst_401>:
    800040dc:	00600513          	li	a0,6
    800040e0:	00052593          	slti	a1,a0,0
    800040e4:	3cb13c23          	sd	a1,984(sp)
    800040e8:	00000293          	li	t0,0
    800040ec:	00b28463          	beq	t0,a1,800040f4 <inst_402>
    800040f0:	f35fb06f          	j	80000024 <rvtest_error>

00000000800040f4 <inst_402>:
    800040f4:	00600513          	li	a0,6
    800040f8:	00452593          	slti	a1,a0,4
    800040fc:	3eb13023          	sd	a1,992(sp)
    80004100:	00000293          	li	t0,0
    80004104:	00b28463          	beq	t0,a1,8000410c <inst_403>
    80004108:	f1dfb06f          	j	80000024 <rvtest_error>

000000008000410c <inst_403>:
    8000410c:	00600513          	li	a0,6
    80004110:	33252593          	slti	a1,a0,818
    80004114:	3eb13423          	sd	a1,1000(sp)
    80004118:	00100293          	li	t0,1
    8000411c:	00b28463          	beq	t0,a1,80004124 <inst_404>
    80004120:	f05fb06f          	j	80000024 <rvtest_error>

0000000080004124 <inst_404>:
    80004124:	00600513          	li	a0,6
    80004128:	66552593          	slti	a1,a0,1637
    8000412c:	3eb13823          	sd	a1,1008(sp)
    80004130:	00100293          	li	t0,1
    80004134:	00b28463          	beq	t0,a1,8000413c <inst_405>
    80004138:	eedfb06f          	j	80000024 <rvtest_error>

000000008000413c <inst_405>:
    8000413c:	00600513          	li	a0,6
    80004140:	02c52593          	slti	a1,a0,44
    80004144:	3eb13c23          	sd	a1,1016(sp)
    80004148:	00100293          	li	t0,1
    8000414c:	00b28463          	beq	t0,a1,80004154 <inst_406>
    80004150:	ed5fb06f          	j	80000024 <rvtest_error>

0000000080004154 <inst_406>:
    80004154:	00600513          	li	a0,6
    80004158:	55652593          	slti	a1,a0,1366
    8000415c:	40b13023          	sd	a1,1024(sp)
    80004160:	00100293          	li	t0,1
    80004164:	00b28463          	beq	t0,a1,8000416c <inst_407>
    80004168:	ebdfb06f          	j	80000024 <rvtest_error>

000000008000416c <inst_407>:
    8000416c:	00600513          	li	a0,6
    80004170:	aab52593          	slti	a1,a0,-1365
    80004174:	40b13423          	sd	a1,1032(sp)
    80004178:	00000293          	li	t0,0
    8000417c:	00b28463          	beq	t0,a1,80004184 <inst_408>
    80004180:	ea5fb06f          	j	80000024 <rvtest_error>

0000000080004184 <inst_408>:
    80004184:	00600513          	li	a0,6
    80004188:	00652593          	slti	a1,a0,6
    8000418c:	40b13823          	sd	a1,1040(sp)
    80004190:	00000293          	li	t0,0
    80004194:	00b28463          	beq	t0,a1,8000419c <inst_409>
    80004198:	e8dfb06f          	j	80000024 <rvtest_error>

000000008000419c <inst_409>:
    8000419c:	00600513          	li	a0,6
    800041a0:	33452593          	slti	a1,a0,820
    800041a4:	40b13c23          	sd	a1,1048(sp)
    800041a8:	00100293          	li	t0,1
    800041ac:	00b28463          	beq	t0,a1,800041b4 <inst_410>
    800041b0:	e75fb06f          	j	80000024 <rvtest_error>

00000000800041b4 <inst_410>:
    800041b4:	00600513          	li	a0,6
    800041b8:	66752593          	slti	a1,a0,1639
    800041bc:	42b13023          	sd	a1,1056(sp)
    800041c0:	00100293          	li	t0,1
    800041c4:	00b28463          	beq	t0,a1,800041cc <inst_411>
    800041c8:	e5dfb06f          	j	80000024 <rvtest_error>

00000000800041cc <inst_411>:
    800041cc:	00600513          	li	a0,6
    800041d0:	fd452593          	slti	a1,a0,-44
    800041d4:	42b13423          	sd	a1,1064(sp)
    800041d8:	00000293          	li	t0,0
    800041dc:	00b28463          	beq	t0,a1,800041e4 <inst_412>
    800041e0:	e45fb06f          	j	80000024 <rvtest_error>

00000000800041e4 <inst_412>:
    800041e4:	00600513          	li	a0,6
    800041e8:	02e52593          	slti	a1,a0,46
    800041ec:	42b13823          	sd	a1,1072(sp)
    800041f0:	00100293          	li	t0,1
    800041f4:	00b28463          	beq	t0,a1,800041fc <inst_413>
    800041f8:	e2dfb06f          	j	80000024 <rvtest_error>

00000000800041fc <inst_413>:
    800041fc:	33333537          	lui	a0,0x33333
    80004200:	33350513          	addi	a0,a0,819 # 33333333 <absimmsh+0x27862586>
    80004204:	00b51513          	slli	a0,a0,0xb
    80004208:	19950513          	addi	a0,a0,409
    8000420c:	00b51513          	slli	a0,a0,0xb
    80004210:	4cc50513          	addi	a0,a0,1228
    80004214:	00a51513          	slli	a0,a0,0xa
    80004218:	33450513          	addi	a0,a0,820
    8000421c:	00352593          	slti	a1,a0,3
    80004220:	42b13c23          	sd	a1,1080(sp)
    80004224:	00000293          	li	t0,0
    80004228:	00b28463          	beq	t0,a1,80004230 <inst_414>
    8000422c:	df9fb06f          	j	80000024 <rvtest_error>

0000000080004230 <inst_414>:
    80004230:	33333537          	lui	a0,0x33333
    80004234:	33350513          	addi	a0,a0,819 # 33333333 <absimmsh+0x27862586>
    80004238:	00b51513          	slli	a0,a0,0xb
    8000423c:	19950513          	addi	a0,a0,409
    80004240:	00b51513          	slli	a0,a0,0xb
    80004244:	4cc50513          	addi	a0,a0,1228
    80004248:	00a51513          	slli	a0,a0,0xa
    8000424c:	33450513          	addi	a0,a0,820
    80004250:	55552593          	slti	a1,a0,1365
    80004254:	44b13023          	sd	a1,1088(sp)
    80004258:	00000293          	li	t0,0
    8000425c:	00b28463          	beq	t0,a1,80004264 <inst_415>
    80004260:	dc5fb06f          	j	80000024 <rvtest_error>

0000000080004264 <inst_415>:
    80004264:	33333537          	lui	a0,0x33333
    80004268:	33350513          	addi	a0,a0,819 # 33333333 <absimmsh+0x27862586>
    8000426c:	00b51513          	slli	a0,a0,0xb
    80004270:	19950513          	addi	a0,a0,409
    80004274:	00b51513          	slli	a0,a0,0xb
    80004278:	4cc50513          	addi	a0,a0,1228
    8000427c:	00a51513          	slli	a0,a0,0xa
    80004280:	33450513          	addi	a0,a0,820
    80004284:	aaa52593          	slti	a1,a0,-1366
    80004288:	44b13423          	sd	a1,1096(sp)
    8000428c:	00000293          	li	t0,0
    80004290:	00b28463          	beq	t0,a1,80004298 <inst_416>
    80004294:	d91fb06f          	j	80000024 <rvtest_error>

0000000080004298 <inst_416>:
    80004298:	33333537          	lui	a0,0x33333
    8000429c:	33350513          	addi	a0,a0,819 # 33333333 <absimmsh+0x27862586>
    800042a0:	00b51513          	slli	a0,a0,0xb
    800042a4:	19950513          	addi	a0,a0,409
    800042a8:	00b51513          	slli	a0,a0,0xb
    800042ac:	4cc50513          	addi	a0,a0,1228
    800042b0:	00a51513          	slli	a0,a0,0xa
    800042b4:	33450513          	addi	a0,a0,820
    800042b8:	00552593          	slti	a1,a0,5
    800042bc:	44b13823          	sd	a1,1104(sp)
    800042c0:	00000293          	li	t0,0
    800042c4:	00b28463          	beq	t0,a1,800042cc <inst_417>
    800042c8:	d5dfb06f          	j	80000024 <rvtest_error>

00000000800042cc <inst_417>:
    800042cc:	33333537          	lui	a0,0x33333
    800042d0:	33350513          	addi	a0,a0,819 # 33333333 <absimmsh+0x27862586>
    800042d4:	00b51513          	slli	a0,a0,0xb
    800042d8:	19950513          	addi	a0,a0,409
    800042dc:	00b51513          	slli	a0,a0,0xb
    800042e0:	4cc50513          	addi	a0,a0,1228
    800042e4:	00a51513          	slli	a0,a0,0xa
    800042e8:	33450513          	addi	a0,a0,820
    800042ec:	33352593          	slti	a1,a0,819
    800042f0:	44b13c23          	sd	a1,1112(sp)
    800042f4:	00000293          	li	t0,0
    800042f8:	00b28463          	beq	t0,a1,80004300 <inst_418>
    800042fc:	d29fb06f          	j	80000024 <rvtest_error>

0000000080004300 <inst_418>:
    80004300:	33333537          	lui	a0,0x33333
    80004304:	33350513          	addi	a0,a0,819 # 33333333 <absimmsh+0x27862586>
    80004308:	00b51513          	slli	a0,a0,0xb
    8000430c:	19950513          	addi	a0,a0,409
    80004310:	00b51513          	slli	a0,a0,0xb
    80004314:	4cc50513          	addi	a0,a0,1228
    80004318:	00a51513          	slli	a0,a0,0xa
    8000431c:	33450513          	addi	a0,a0,820
    80004320:	66652593          	slti	a1,a0,1638
    80004324:	46b13023          	sd	a1,1120(sp)
    80004328:	00000293          	li	t0,0
    8000432c:	00b28463          	beq	t0,a1,80004334 <inst_419>
    80004330:	cf5fb06f          	j	80000024 <rvtest_error>

0000000080004334 <inst_419>:
    80004334:	33333537          	lui	a0,0x33333
    80004338:	33350513          	addi	a0,a0,819 # 33333333 <absimmsh+0x27862586>
    8000433c:	00b51513          	slli	a0,a0,0xb
    80004340:	19950513          	addi	a0,a0,409
    80004344:	00b51513          	slli	a0,a0,0xb
    80004348:	4cc50513          	addi	a0,a0,1228
    8000434c:	00a51513          	slli	a0,a0,0xa
    80004350:	33450513          	addi	a0,a0,820
    80004354:	fd352593          	slti	a1,a0,-45
    80004358:	46b13423          	sd	a1,1128(sp)
    8000435c:	00000293          	li	t0,0
    80004360:	00b28463          	beq	t0,a1,80004368 <inst_420>
    80004364:	cc1fb06f          	j	80000024 <rvtest_error>

0000000080004368 <inst_420>:
    80004368:	33333537          	lui	a0,0x33333
    8000436c:	33350513          	addi	a0,a0,819 # 33333333 <absimmsh+0x27862586>
    80004370:	00b51513          	slli	a0,a0,0xb
    80004374:	19950513          	addi	a0,a0,409
    80004378:	00b51513          	slli	a0,a0,0xb
    8000437c:	4cc50513          	addi	a0,a0,1228
    80004380:	00a51513          	slli	a0,a0,0xa
    80004384:	33450513          	addi	a0,a0,820
    80004388:	02d52593          	slti	a1,a0,45
    8000438c:	46b13823          	sd	a1,1136(sp)
    80004390:	00000293          	li	t0,0
    80004394:	00b28463          	beq	t0,a1,8000439c <inst_421>
    80004398:	c8dfb06f          	j	80000024 <rvtest_error>

000000008000439c <inst_421>:
    8000439c:	33333537          	lui	a0,0x33333
    800043a0:	33350513          	addi	a0,a0,819 # 33333333 <absimmsh+0x27862586>
    800043a4:	00b51513          	slli	a0,a0,0xb
    800043a8:	19950513          	addi	a0,a0,409
    800043ac:	00b51513          	slli	a0,a0,0xb
    800043b0:	4cc50513          	addi	a0,a0,1228
    800043b4:	00a51513          	slli	a0,a0,0xa
    800043b8:	33450513          	addi	a0,a0,820
    800043bc:	00252593          	slti	a1,a0,2
    800043c0:	46b13c23          	sd	a1,1144(sp)
    800043c4:	00000293          	li	t0,0
    800043c8:	00b28463          	beq	t0,a1,800043d0 <inst_422>
    800043cc:	c59fb06f          	j	80000024 <rvtest_error>

00000000800043d0 <inst_422>:
    800043d0:	33333537          	lui	a0,0x33333
    800043d4:	33350513          	addi	a0,a0,819 # 33333333 <absimmsh+0x27862586>
    800043d8:	00b51513          	slli	a0,a0,0xb
    800043dc:	19950513          	addi	a0,a0,409
    800043e0:	00b51513          	slli	a0,a0,0xb
    800043e4:	4cc50513          	addi	a0,a0,1228
    800043e8:	00a51513          	slli	a0,a0,0xa
    800043ec:	33450513          	addi	a0,a0,820
    800043f0:	55452593          	slti	a1,a0,1364
    800043f4:	48b13023          	sd	a1,1152(sp)
    800043f8:	00000293          	li	t0,0
    800043fc:	00b28463          	beq	t0,a1,80004404 <inst_423>
    80004400:	c25fb06f          	j	80000024 <rvtest_error>

0000000080004404 <inst_423>:
    80004404:	33333537          	lui	a0,0x33333
    80004408:	33350513          	addi	a0,a0,819 # 33333333 <absimmsh+0x27862586>
    8000440c:	00b51513          	slli	a0,a0,0xb
    80004410:	19950513          	addi	a0,a0,409
    80004414:	00b51513          	slli	a0,a0,0xb
    80004418:	4cc50513          	addi	a0,a0,1228
    8000441c:	00a51513          	slli	a0,a0,0xa
    80004420:	33450513          	addi	a0,a0,820
    80004424:	00052593          	slti	a1,a0,0
    80004428:	48b13423          	sd	a1,1160(sp)
    8000442c:	00000293          	li	t0,0
    80004430:	00b28463          	beq	t0,a1,80004438 <inst_424>
    80004434:	bf1fb06f          	j	80000024 <rvtest_error>

0000000080004438 <inst_424>:
    80004438:	33333537          	lui	a0,0x33333
    8000443c:	33350513          	addi	a0,a0,819 # 33333333 <absimmsh+0x27862586>
    80004440:	00b51513          	slli	a0,a0,0xb
    80004444:	19950513          	addi	a0,a0,409
    80004448:	00b51513          	slli	a0,a0,0xb
    8000444c:	4cc50513          	addi	a0,a0,1228
    80004450:	00a51513          	slli	a0,a0,0xa
    80004454:	33450513          	addi	a0,a0,820
    80004458:	00452593          	slti	a1,a0,4
    8000445c:	48b13823          	sd	a1,1168(sp)
    80004460:	00000293          	li	t0,0
    80004464:	00b28463          	beq	t0,a1,8000446c <inst_425>
    80004468:	bbdfb06f          	j	80000024 <rvtest_error>

000000008000446c <inst_425>:
    8000446c:	33333537          	lui	a0,0x33333
    80004470:	33350513          	addi	a0,a0,819 # 33333333 <absimmsh+0x27862586>
    80004474:	00b51513          	slli	a0,a0,0xb
    80004478:	19950513          	addi	a0,a0,409
    8000447c:	00b51513          	slli	a0,a0,0xb
    80004480:	4cc50513          	addi	a0,a0,1228
    80004484:	00a51513          	slli	a0,a0,0xa
    80004488:	33450513          	addi	a0,a0,820
    8000448c:	33252593          	slti	a1,a0,818
    80004490:	48b13c23          	sd	a1,1176(sp)
    80004494:	00000293          	li	t0,0
    80004498:	00b28463          	beq	t0,a1,800044a0 <inst_426>
    8000449c:	b89fb06f          	j	80000024 <rvtest_error>

00000000800044a0 <inst_426>:
    800044a0:	33333537          	lui	a0,0x33333
    800044a4:	33350513          	addi	a0,a0,819 # 33333333 <absimmsh+0x27862586>
    800044a8:	00b51513          	slli	a0,a0,0xb
    800044ac:	19950513          	addi	a0,a0,409
    800044b0:	00b51513          	slli	a0,a0,0xb
    800044b4:	4cc50513          	addi	a0,a0,1228
    800044b8:	00a51513          	slli	a0,a0,0xa
    800044bc:	33450513          	addi	a0,a0,820
    800044c0:	66552593          	slti	a1,a0,1637
    800044c4:	4ab13023          	sd	a1,1184(sp)
    800044c8:	00000293          	li	t0,0
    800044cc:	00b28463          	beq	t0,a1,800044d4 <inst_427>
    800044d0:	b55fb06f          	j	80000024 <rvtest_error>

00000000800044d4 <inst_427>:
    800044d4:	33333537          	lui	a0,0x33333
    800044d8:	33350513          	addi	a0,a0,819 # 33333333 <absimmsh+0x27862586>
    800044dc:	00b51513          	slli	a0,a0,0xb
    800044e0:	19950513          	addi	a0,a0,409
    800044e4:	00b51513          	slli	a0,a0,0xb
    800044e8:	4cc50513          	addi	a0,a0,1228
    800044ec:	00a51513          	slli	a0,a0,0xa
    800044f0:	33450513          	addi	a0,a0,820
    800044f4:	02c52593          	slti	a1,a0,44
    800044f8:	4ab13423          	sd	a1,1192(sp)
    800044fc:	00000293          	li	t0,0
    80004500:	00b28463          	beq	t0,a1,80004508 <inst_428>
    80004504:	b21fb06f          	j	80000024 <rvtest_error>

0000000080004508 <inst_428>:
    80004508:	33333537          	lui	a0,0x33333
    8000450c:	33350513          	addi	a0,a0,819 # 33333333 <absimmsh+0x27862586>
    80004510:	00b51513          	slli	a0,a0,0xb
    80004514:	19950513          	addi	a0,a0,409
    80004518:	00b51513          	slli	a0,a0,0xb
    8000451c:	4cc50513          	addi	a0,a0,1228
    80004520:	00a51513          	slli	a0,a0,0xa
    80004524:	33450513          	addi	a0,a0,820
    80004528:	55652593          	slti	a1,a0,1366
    8000452c:	4ab13823          	sd	a1,1200(sp)
    80004530:	00000293          	li	t0,0
    80004534:	00b28463          	beq	t0,a1,8000453c <inst_429>
    80004538:	aedfb06f          	j	80000024 <rvtest_error>

000000008000453c <inst_429>:
    8000453c:	33333537          	lui	a0,0x33333
    80004540:	33350513          	addi	a0,a0,819 # 33333333 <absimmsh+0x27862586>
    80004544:	00b51513          	slli	a0,a0,0xb
    80004548:	19950513          	addi	a0,a0,409
    8000454c:	00b51513          	slli	a0,a0,0xb
    80004550:	4cc50513          	addi	a0,a0,1228
    80004554:	00a51513          	slli	a0,a0,0xa
    80004558:	33450513          	addi	a0,a0,820
    8000455c:	aab52593          	slti	a1,a0,-1365
    80004560:	4ab13c23          	sd	a1,1208(sp)
    80004564:	00000293          	li	t0,0
    80004568:	00b28463          	beq	t0,a1,80004570 <inst_430>
    8000456c:	ab9fb06f          	j	80000024 <rvtest_error>

0000000080004570 <inst_430>:
    80004570:	33333537          	lui	a0,0x33333
    80004574:	33350513          	addi	a0,a0,819 # 33333333 <absimmsh+0x27862586>
    80004578:	00b51513          	slli	a0,a0,0xb
    8000457c:	19950513          	addi	a0,a0,409
    80004580:	00b51513          	slli	a0,a0,0xb
    80004584:	4cc50513          	addi	a0,a0,1228
    80004588:	00a51513          	slli	a0,a0,0xa
    8000458c:	33450513          	addi	a0,a0,820
    80004590:	00652593          	slti	a1,a0,6
    80004594:	4cb13023          	sd	a1,1216(sp)
    80004598:	00000293          	li	t0,0
    8000459c:	00b28463          	beq	t0,a1,800045a4 <inst_431>
    800045a0:	a85fb06f          	j	80000024 <rvtest_error>

00000000800045a4 <inst_431>:
    800045a4:	33333537          	lui	a0,0x33333
    800045a8:	33350513          	addi	a0,a0,819 # 33333333 <absimmsh+0x27862586>
    800045ac:	00b51513          	slli	a0,a0,0xb
    800045b0:	19950513          	addi	a0,a0,409
    800045b4:	00b51513          	slli	a0,a0,0xb
    800045b8:	4cc50513          	addi	a0,a0,1228
    800045bc:	00a51513          	slli	a0,a0,0xa
    800045c0:	33450513          	addi	a0,a0,820
    800045c4:	33452593          	slti	a1,a0,820
    800045c8:	4cb13423          	sd	a1,1224(sp)
    800045cc:	00000293          	li	t0,0
    800045d0:	00b28463          	beq	t0,a1,800045d8 <inst_432>
    800045d4:	a51fb06f          	j	80000024 <rvtest_error>

00000000800045d8 <inst_432>:
    800045d8:	33333537          	lui	a0,0x33333
    800045dc:	33350513          	addi	a0,a0,819 # 33333333 <absimmsh+0x27862586>
    800045e0:	00b51513          	slli	a0,a0,0xb
    800045e4:	19950513          	addi	a0,a0,409
    800045e8:	00b51513          	slli	a0,a0,0xb
    800045ec:	4cc50513          	addi	a0,a0,1228
    800045f0:	00a51513          	slli	a0,a0,0xa
    800045f4:	33450513          	addi	a0,a0,820
    800045f8:	66752593          	slti	a1,a0,1639
    800045fc:	4cb13823          	sd	a1,1232(sp)
    80004600:	00000293          	li	t0,0
    80004604:	00b28463          	beq	t0,a1,8000460c <inst_433>
    80004608:	a1dfb06f          	j	80000024 <rvtest_error>

000000008000460c <inst_433>:
    8000460c:	33333537          	lui	a0,0x33333
    80004610:	33350513          	addi	a0,a0,819 # 33333333 <absimmsh+0x27862586>
    80004614:	00b51513          	slli	a0,a0,0xb
    80004618:	19950513          	addi	a0,a0,409
    8000461c:	00b51513          	slli	a0,a0,0xb
    80004620:	4cc50513          	addi	a0,a0,1228
    80004624:	00a51513          	slli	a0,a0,0xa
    80004628:	33450513          	addi	a0,a0,820
    8000462c:	fd452593          	slti	a1,a0,-44
    80004630:	4cb13c23          	sd	a1,1240(sp)
    80004634:	00000293          	li	t0,0
    80004638:	00b28463          	beq	t0,a1,80004640 <inst_434>
    8000463c:	9e9fb06f          	j	80000024 <rvtest_error>

0000000080004640 <inst_434>:
    80004640:	33333537          	lui	a0,0x33333
    80004644:	33350513          	addi	a0,a0,819 # 33333333 <absimmsh+0x27862586>
    80004648:	00b51513          	slli	a0,a0,0xb
    8000464c:	19950513          	addi	a0,a0,409
    80004650:	00b51513          	slli	a0,a0,0xb
    80004654:	4cc50513          	addi	a0,a0,1228
    80004658:	00a51513          	slli	a0,a0,0xa
    8000465c:	33450513          	addi	a0,a0,820
    80004660:	02e52593          	slti	a1,a0,46
    80004664:	4eb13023          	sd	a1,1248(sp)
    80004668:	00000293          	li	t0,0
    8000466c:	00b28463          	beq	t0,a1,80004674 <inst_435>
    80004670:	9b5fb06f          	j	80000024 <rvtest_error>

0000000080004674 <inst_435>:
    80004674:	66666537          	lui	a0,0x66666
    80004678:	66650513          	addi	a0,a0,1638 # 66666666 <absimmsh+0x5ab958b9>
    8000467c:	00b51513          	slli	a0,a0,0xb
    80004680:	33350513          	addi	a0,a0,819
    80004684:	00b51513          	slli	a0,a0,0xb
    80004688:	19950513          	addi	a0,a0,409
    8000468c:	00a51513          	slli	a0,a0,0xa
    80004690:	26750513          	addi	a0,a0,615
    80004694:	00352593          	slti	a1,a0,3
    80004698:	4eb13423          	sd	a1,1256(sp)
    8000469c:	00000293          	li	t0,0
    800046a0:	00b28463          	beq	t0,a1,800046a8 <inst_436>
    800046a4:	981fb06f          	j	80000024 <rvtest_error>

00000000800046a8 <inst_436>:
    800046a8:	66666537          	lui	a0,0x66666
    800046ac:	66650513          	addi	a0,a0,1638 # 66666666 <absimmsh+0x5ab958b9>
    800046b0:	00b51513          	slli	a0,a0,0xb
    800046b4:	33350513          	addi	a0,a0,819
    800046b8:	00b51513          	slli	a0,a0,0xb
    800046bc:	19950513          	addi	a0,a0,409
    800046c0:	00a51513          	slli	a0,a0,0xa
    800046c4:	26750513          	addi	a0,a0,615
    800046c8:	55552593          	slti	a1,a0,1365
    800046cc:	4eb13823          	sd	a1,1264(sp)
    800046d0:	00000293          	li	t0,0
    800046d4:	00b28463          	beq	t0,a1,800046dc <inst_437>
    800046d8:	94dfb06f          	j	80000024 <rvtest_error>

00000000800046dc <inst_437>:
    800046dc:	66666537          	lui	a0,0x66666
    800046e0:	66650513          	addi	a0,a0,1638 # 66666666 <absimmsh+0x5ab958b9>
    800046e4:	00b51513          	slli	a0,a0,0xb
    800046e8:	33350513          	addi	a0,a0,819
    800046ec:	00b51513          	slli	a0,a0,0xb
    800046f0:	19950513          	addi	a0,a0,409
    800046f4:	00a51513          	slli	a0,a0,0xa
    800046f8:	26750513          	addi	a0,a0,615
    800046fc:	aaa52593          	slti	a1,a0,-1366
    80004700:	4eb13c23          	sd	a1,1272(sp)
    80004704:	00000293          	li	t0,0
    80004708:	00b28463          	beq	t0,a1,80004710 <inst_438>
    8000470c:	919fb06f          	j	80000024 <rvtest_error>

0000000080004710 <inst_438>:
    80004710:	66666537          	lui	a0,0x66666
    80004714:	66650513          	addi	a0,a0,1638 # 66666666 <absimmsh+0x5ab958b9>
    80004718:	00b51513          	slli	a0,a0,0xb
    8000471c:	33350513          	addi	a0,a0,819
    80004720:	00b51513          	slli	a0,a0,0xb
    80004724:	19950513          	addi	a0,a0,409
    80004728:	00a51513          	slli	a0,a0,0xa
    8000472c:	26750513          	addi	a0,a0,615
    80004730:	00552593          	slti	a1,a0,5
    80004734:	50b13023          	sd	a1,1280(sp)
    80004738:	00000293          	li	t0,0
    8000473c:	00b28463          	beq	t0,a1,80004744 <inst_439>
    80004740:	8e5fb06f          	j	80000024 <rvtest_error>

0000000080004744 <inst_439>:
    80004744:	66666537          	lui	a0,0x66666
    80004748:	66650513          	addi	a0,a0,1638 # 66666666 <absimmsh+0x5ab958b9>
    8000474c:	00b51513          	slli	a0,a0,0xb
    80004750:	33350513          	addi	a0,a0,819
    80004754:	00b51513          	slli	a0,a0,0xb
    80004758:	19950513          	addi	a0,a0,409
    8000475c:	00a51513          	slli	a0,a0,0xa
    80004760:	26750513          	addi	a0,a0,615
    80004764:	33352593          	slti	a1,a0,819
    80004768:	50b13423          	sd	a1,1288(sp)
    8000476c:	00000293          	li	t0,0
    80004770:	00b28463          	beq	t0,a1,80004778 <inst_440>
    80004774:	8b1fb06f          	j	80000024 <rvtest_error>

0000000080004778 <inst_440>:
    80004778:	66666537          	lui	a0,0x66666
    8000477c:	66650513          	addi	a0,a0,1638 # 66666666 <absimmsh+0x5ab958b9>
    80004780:	00b51513          	slli	a0,a0,0xb
    80004784:	33350513          	addi	a0,a0,819
    80004788:	00b51513          	slli	a0,a0,0xb
    8000478c:	19950513          	addi	a0,a0,409
    80004790:	00a51513          	slli	a0,a0,0xa
    80004794:	26750513          	addi	a0,a0,615
    80004798:	66652593          	slti	a1,a0,1638
    8000479c:	50b13823          	sd	a1,1296(sp)
    800047a0:	00000293          	li	t0,0
    800047a4:	00b28463          	beq	t0,a1,800047ac <inst_441>
    800047a8:	87dfb06f          	j	80000024 <rvtest_error>

00000000800047ac <inst_441>:
    800047ac:	66666537          	lui	a0,0x66666
    800047b0:	66650513          	addi	a0,a0,1638 # 66666666 <absimmsh+0x5ab958b9>
    800047b4:	00b51513          	slli	a0,a0,0xb
    800047b8:	33350513          	addi	a0,a0,819
    800047bc:	00b51513          	slli	a0,a0,0xb
    800047c0:	19950513          	addi	a0,a0,409
    800047c4:	00a51513          	slli	a0,a0,0xa
    800047c8:	26750513          	addi	a0,a0,615
    800047cc:	fd352593          	slti	a1,a0,-45
    800047d0:	50b13c23          	sd	a1,1304(sp)
    800047d4:	00000293          	li	t0,0
    800047d8:	00b28463          	beq	t0,a1,800047e0 <inst_442>
    800047dc:	849fb06f          	j	80000024 <rvtest_error>

00000000800047e0 <inst_442>:
    800047e0:	66666537          	lui	a0,0x66666
    800047e4:	66650513          	addi	a0,a0,1638 # 66666666 <absimmsh+0x5ab958b9>
    800047e8:	00b51513          	slli	a0,a0,0xb
    800047ec:	33350513          	addi	a0,a0,819
    800047f0:	00b51513          	slli	a0,a0,0xb
    800047f4:	19950513          	addi	a0,a0,409
    800047f8:	00a51513          	slli	a0,a0,0xa
    800047fc:	26750513          	addi	a0,a0,615
    80004800:	02d52593          	slti	a1,a0,45
    80004804:	52b13023          	sd	a1,1312(sp)
    80004808:	00000293          	li	t0,0
    8000480c:	00b28463          	beq	t0,a1,80004814 <inst_443>
    80004810:	815fb06f          	j	80000024 <rvtest_error>

0000000080004814 <inst_443>:
    80004814:	66666537          	lui	a0,0x66666
    80004818:	66650513          	addi	a0,a0,1638 # 66666666 <absimmsh+0x5ab958b9>
    8000481c:	00b51513          	slli	a0,a0,0xb
    80004820:	33350513          	addi	a0,a0,819
    80004824:	00b51513          	slli	a0,a0,0xb
    80004828:	19950513          	addi	a0,a0,409
    8000482c:	00a51513          	slli	a0,a0,0xa
    80004830:	26750513          	addi	a0,a0,615
    80004834:	00252593          	slti	a1,a0,2
    80004838:	52b13423          	sd	a1,1320(sp)
    8000483c:	00000293          	li	t0,0
    80004840:	00b28463          	beq	t0,a1,80004848 <inst_444>
    80004844:	fe0fb06f          	j	80000024 <rvtest_error>

0000000080004848 <inst_444>:
    80004848:	66666537          	lui	a0,0x66666
    8000484c:	66650513          	addi	a0,a0,1638 # 66666666 <absimmsh+0x5ab958b9>
    80004850:	00b51513          	slli	a0,a0,0xb
    80004854:	33350513          	addi	a0,a0,819
    80004858:	00b51513          	slli	a0,a0,0xb
    8000485c:	19950513          	addi	a0,a0,409
    80004860:	00a51513          	slli	a0,a0,0xa
    80004864:	26750513          	addi	a0,a0,615
    80004868:	55452593          	slti	a1,a0,1364
    8000486c:	52b13823          	sd	a1,1328(sp)
    80004870:	00000293          	li	t0,0
    80004874:	00b28463          	beq	t0,a1,8000487c <inst_445>
    80004878:	facfb06f          	j	80000024 <rvtest_error>

000000008000487c <inst_445>:
    8000487c:	66666537          	lui	a0,0x66666
    80004880:	66650513          	addi	a0,a0,1638 # 66666666 <absimmsh+0x5ab958b9>
    80004884:	00b51513          	slli	a0,a0,0xb
    80004888:	33350513          	addi	a0,a0,819
    8000488c:	00b51513          	slli	a0,a0,0xb
    80004890:	19950513          	addi	a0,a0,409
    80004894:	00a51513          	slli	a0,a0,0xa
    80004898:	26750513          	addi	a0,a0,615
    8000489c:	00052593          	slti	a1,a0,0
    800048a0:	52b13c23          	sd	a1,1336(sp)
    800048a4:	00000293          	li	t0,0
    800048a8:	00b28463          	beq	t0,a1,800048b0 <inst_446>
    800048ac:	f78fb06f          	j	80000024 <rvtest_error>

00000000800048b0 <inst_446>:
    800048b0:	66666537          	lui	a0,0x66666
    800048b4:	66650513          	addi	a0,a0,1638 # 66666666 <absimmsh+0x5ab958b9>
    800048b8:	00b51513          	slli	a0,a0,0xb
    800048bc:	33350513          	addi	a0,a0,819
    800048c0:	00b51513          	slli	a0,a0,0xb
    800048c4:	19950513          	addi	a0,a0,409
    800048c8:	00a51513          	slli	a0,a0,0xa
    800048cc:	26750513          	addi	a0,a0,615
    800048d0:	00452593          	slti	a1,a0,4
    800048d4:	54b13023          	sd	a1,1344(sp)
    800048d8:	00000293          	li	t0,0
    800048dc:	00b28463          	beq	t0,a1,800048e4 <inst_447>
    800048e0:	f44fb06f          	j	80000024 <rvtest_error>

00000000800048e4 <inst_447>:
    800048e4:	66666537          	lui	a0,0x66666
    800048e8:	66650513          	addi	a0,a0,1638 # 66666666 <absimmsh+0x5ab958b9>
    800048ec:	00b51513          	slli	a0,a0,0xb
    800048f0:	33350513          	addi	a0,a0,819
    800048f4:	00b51513          	slli	a0,a0,0xb
    800048f8:	19950513          	addi	a0,a0,409
    800048fc:	00a51513          	slli	a0,a0,0xa
    80004900:	26750513          	addi	a0,a0,615
    80004904:	33252593          	slti	a1,a0,818
    80004908:	54b13423          	sd	a1,1352(sp)
    8000490c:	00000293          	li	t0,0
    80004910:	00b28463          	beq	t0,a1,80004918 <inst_448>
    80004914:	f10fb06f          	j	80000024 <rvtest_error>

0000000080004918 <inst_448>:
    80004918:	66666537          	lui	a0,0x66666
    8000491c:	66650513          	addi	a0,a0,1638 # 66666666 <absimmsh+0x5ab958b9>
    80004920:	00b51513          	slli	a0,a0,0xb
    80004924:	33350513          	addi	a0,a0,819
    80004928:	00b51513          	slli	a0,a0,0xb
    8000492c:	19950513          	addi	a0,a0,409
    80004930:	00a51513          	slli	a0,a0,0xa
    80004934:	26750513          	addi	a0,a0,615
    80004938:	66552593          	slti	a1,a0,1637
    8000493c:	54b13823          	sd	a1,1360(sp)
    80004940:	00000293          	li	t0,0
    80004944:	00b28463          	beq	t0,a1,8000494c <inst_449>
    80004948:	edcfb06f          	j	80000024 <rvtest_error>

000000008000494c <inst_449>:
    8000494c:	66666537          	lui	a0,0x66666
    80004950:	66650513          	addi	a0,a0,1638 # 66666666 <absimmsh+0x5ab958b9>
    80004954:	00b51513          	slli	a0,a0,0xb
    80004958:	33350513          	addi	a0,a0,819
    8000495c:	00b51513          	slli	a0,a0,0xb
    80004960:	19950513          	addi	a0,a0,409
    80004964:	00a51513          	slli	a0,a0,0xa
    80004968:	26750513          	addi	a0,a0,615
    8000496c:	02c52593          	slti	a1,a0,44
    80004970:	54b13c23          	sd	a1,1368(sp)
    80004974:	00000293          	li	t0,0
    80004978:	00b28463          	beq	t0,a1,80004980 <inst_450>
    8000497c:	ea8fb06f          	j	80000024 <rvtest_error>

0000000080004980 <inst_450>:
    80004980:	66666537          	lui	a0,0x66666
    80004984:	66650513          	addi	a0,a0,1638 # 66666666 <absimmsh+0x5ab958b9>
    80004988:	00b51513          	slli	a0,a0,0xb
    8000498c:	33350513          	addi	a0,a0,819
    80004990:	00b51513          	slli	a0,a0,0xb
    80004994:	19950513          	addi	a0,a0,409
    80004998:	00a51513          	slli	a0,a0,0xa
    8000499c:	26750513          	addi	a0,a0,615
    800049a0:	55652593          	slti	a1,a0,1366
    800049a4:	56b13023          	sd	a1,1376(sp)
    800049a8:	00000293          	li	t0,0
    800049ac:	00b28463          	beq	t0,a1,800049b4 <inst_451>
    800049b0:	e74fb06f          	j	80000024 <rvtest_error>

00000000800049b4 <inst_451>:
    800049b4:	66666537          	lui	a0,0x66666
    800049b8:	66650513          	addi	a0,a0,1638 # 66666666 <absimmsh+0x5ab958b9>
    800049bc:	00b51513          	slli	a0,a0,0xb
    800049c0:	33350513          	addi	a0,a0,819
    800049c4:	00b51513          	slli	a0,a0,0xb
    800049c8:	19950513          	addi	a0,a0,409
    800049cc:	00a51513          	slli	a0,a0,0xa
    800049d0:	26750513          	addi	a0,a0,615
    800049d4:	aab52593          	slti	a1,a0,-1365
    800049d8:	56b13423          	sd	a1,1384(sp)
    800049dc:	00000293          	li	t0,0
    800049e0:	00b28463          	beq	t0,a1,800049e8 <inst_452>
    800049e4:	e40fb06f          	j	80000024 <rvtest_error>

00000000800049e8 <inst_452>:
    800049e8:	66666537          	lui	a0,0x66666
    800049ec:	66650513          	addi	a0,a0,1638 # 66666666 <absimmsh+0x5ab958b9>
    800049f0:	00b51513          	slli	a0,a0,0xb
    800049f4:	33350513          	addi	a0,a0,819
    800049f8:	00b51513          	slli	a0,a0,0xb
    800049fc:	19950513          	addi	a0,a0,409
    80004a00:	00a51513          	slli	a0,a0,0xa
    80004a04:	26750513          	addi	a0,a0,615
    80004a08:	00652593          	slti	a1,a0,6
    80004a0c:	56b13823          	sd	a1,1392(sp)
    80004a10:	00000293          	li	t0,0
    80004a14:	00b28463          	beq	t0,a1,80004a1c <inst_453>
    80004a18:	e0cfb06f          	j	80000024 <rvtest_error>

0000000080004a1c <inst_453>:
    80004a1c:	66666537          	lui	a0,0x66666
    80004a20:	66650513          	addi	a0,a0,1638 # 66666666 <absimmsh+0x5ab958b9>
    80004a24:	00b51513          	slli	a0,a0,0xb
    80004a28:	33350513          	addi	a0,a0,819
    80004a2c:	00b51513          	slli	a0,a0,0xb
    80004a30:	19950513          	addi	a0,a0,409
    80004a34:	00a51513          	slli	a0,a0,0xa
    80004a38:	26750513          	addi	a0,a0,615
    80004a3c:	33452593          	slti	a1,a0,820
    80004a40:	56b13c23          	sd	a1,1400(sp)
    80004a44:	00000293          	li	t0,0
    80004a48:	00b28463          	beq	t0,a1,80004a50 <inst_454>
    80004a4c:	dd8fb06f          	j	80000024 <rvtest_error>

0000000080004a50 <inst_454>:
    80004a50:	66666537          	lui	a0,0x66666
    80004a54:	66650513          	addi	a0,a0,1638 # 66666666 <absimmsh+0x5ab958b9>
    80004a58:	00b51513          	slli	a0,a0,0xb
    80004a5c:	33350513          	addi	a0,a0,819
    80004a60:	00b51513          	slli	a0,a0,0xb
    80004a64:	19950513          	addi	a0,a0,409
    80004a68:	00a51513          	slli	a0,a0,0xa
    80004a6c:	26750513          	addi	a0,a0,615
    80004a70:	66752593          	slti	a1,a0,1639
    80004a74:	58b13023          	sd	a1,1408(sp)
    80004a78:	00000293          	li	t0,0
    80004a7c:	00b28463          	beq	t0,a1,80004a84 <inst_455>
    80004a80:	da4fb06f          	j	80000024 <rvtest_error>

0000000080004a84 <inst_455>:
    80004a84:	66666537          	lui	a0,0x66666
    80004a88:	66650513          	addi	a0,a0,1638 # 66666666 <absimmsh+0x5ab958b9>
    80004a8c:	00b51513          	slli	a0,a0,0xb
    80004a90:	33350513          	addi	a0,a0,819
    80004a94:	00b51513          	slli	a0,a0,0xb
    80004a98:	19950513          	addi	a0,a0,409
    80004a9c:	00a51513          	slli	a0,a0,0xa
    80004aa0:	26750513          	addi	a0,a0,615
    80004aa4:	fd452593          	slti	a1,a0,-44
    80004aa8:	58b13423          	sd	a1,1416(sp)
    80004aac:	00000293          	li	t0,0
    80004ab0:	00b28463          	beq	t0,a1,80004ab8 <inst_456>
    80004ab4:	d70fb06f          	j	80000024 <rvtest_error>

0000000080004ab8 <inst_456>:
    80004ab8:	66666537          	lui	a0,0x66666
    80004abc:	66650513          	addi	a0,a0,1638 # 66666666 <absimmsh+0x5ab958b9>
    80004ac0:	00b51513          	slli	a0,a0,0xb
    80004ac4:	33350513          	addi	a0,a0,819
    80004ac8:	00b51513          	slli	a0,a0,0xb
    80004acc:	19950513          	addi	a0,a0,409
    80004ad0:	00a51513          	slli	a0,a0,0xa
    80004ad4:	26750513          	addi	a0,a0,615
    80004ad8:	02e52593          	slti	a1,a0,46
    80004adc:	58b13823          	sd	a1,1424(sp)
    80004ae0:	00000293          	li	t0,0
    80004ae4:	00b28463          	beq	t0,a1,80004aec <inst_457>
    80004ae8:	d3cfb06f          	j	80000024 <rvtest_error>

0000000080004aec <inst_457>:
    80004aec:	00000537          	lui	a0,0x0
    80004af0:	fff50513          	addi	a0,a0,-1
    80004af4:	00b51513          	slli	a0,a0,0xb
    80004af8:	25750513          	addi	a0,a0,599
    80004afc:	00b51513          	slli	a0,a0,0xb
    80004b00:	6c350513          	addi	a0,a0,1731
    80004b04:	00a51513          	slli	a0,a0,0xa
    80004b08:	0ce50513          	addi	a0,a0,206
    80004b0c:	00352593          	slti	a1,a0,3
    80004b10:	58b13c23          	sd	a1,1432(sp)
    80004b14:	00100293          	li	t0,1
    80004b18:	00b28463          	beq	t0,a1,80004b20 <inst_458>
    80004b1c:	d08fb06f          	j	80000024 <rvtest_error>

0000000080004b20 <inst_458>:
    80004b20:	00000537          	lui	a0,0x0
    80004b24:	fff50513          	addi	a0,a0,-1
    80004b28:	00b51513          	slli	a0,a0,0xb
    80004b2c:	25750513          	addi	a0,a0,599
    80004b30:	00b51513          	slli	a0,a0,0xb
    80004b34:	6c350513          	addi	a0,a0,1731
    80004b38:	00a51513          	slli	a0,a0,0xa
    80004b3c:	0ce50513          	addi	a0,a0,206
    80004b40:	55552593          	slti	a1,a0,1365
    80004b44:	5ab13023          	sd	a1,1440(sp)
    80004b48:	00100293          	li	t0,1
    80004b4c:	00b28463          	beq	t0,a1,80004b54 <inst_459>
    80004b50:	cd4fb06f          	j	80000024 <rvtest_error>

0000000080004b54 <inst_459>:
    80004b54:	00000537          	lui	a0,0x0
    80004b58:	fff50513          	addi	a0,a0,-1
    80004b5c:	00b51513          	slli	a0,a0,0xb
    80004b60:	25750513          	addi	a0,a0,599
    80004b64:	00b51513          	slli	a0,a0,0xb
    80004b68:	6c350513          	addi	a0,a0,1731
    80004b6c:	00a51513          	slli	a0,a0,0xa
    80004b70:	0ce50513          	addi	a0,a0,206
    80004b74:	aaa52593          	slti	a1,a0,-1366
    80004b78:	5ab13423          	sd	a1,1448(sp)
    80004b7c:	00100293          	li	t0,1
    80004b80:	00b28463          	beq	t0,a1,80004b88 <inst_460>
    80004b84:	ca0fb06f          	j	80000024 <rvtest_error>

0000000080004b88 <inst_460>:
    80004b88:	00000537          	lui	a0,0x0
    80004b8c:	fff50513          	addi	a0,a0,-1
    80004b90:	00b51513          	slli	a0,a0,0xb
    80004b94:	25750513          	addi	a0,a0,599
    80004b98:	00b51513          	slli	a0,a0,0xb
    80004b9c:	6c350513          	addi	a0,a0,1731
    80004ba0:	00a51513          	slli	a0,a0,0xa
    80004ba4:	0ce50513          	addi	a0,a0,206
    80004ba8:	00552593          	slti	a1,a0,5
    80004bac:	5ab13823          	sd	a1,1456(sp)
    80004bb0:	00100293          	li	t0,1
    80004bb4:	00b28463          	beq	t0,a1,80004bbc <inst_461>
    80004bb8:	c6cfb06f          	j	80000024 <rvtest_error>

0000000080004bbc <inst_461>:
    80004bbc:	00000537          	lui	a0,0x0
    80004bc0:	fff50513          	addi	a0,a0,-1
    80004bc4:	00b51513          	slli	a0,a0,0xb
    80004bc8:	25750513          	addi	a0,a0,599
    80004bcc:	00b51513          	slli	a0,a0,0xb
    80004bd0:	6c350513          	addi	a0,a0,1731
    80004bd4:	00a51513          	slli	a0,a0,0xa
    80004bd8:	0ce50513          	addi	a0,a0,206
    80004bdc:	33352593          	slti	a1,a0,819
    80004be0:	5ab13c23          	sd	a1,1464(sp)
    80004be4:	00100293          	li	t0,1
    80004be8:	00b28463          	beq	t0,a1,80004bf0 <inst_462>
    80004bec:	c38fb06f          	j	80000024 <rvtest_error>

0000000080004bf0 <inst_462>:
    80004bf0:	00000537          	lui	a0,0x0
    80004bf4:	fff50513          	addi	a0,a0,-1
    80004bf8:	00b51513          	slli	a0,a0,0xb
    80004bfc:	25750513          	addi	a0,a0,599
    80004c00:	00b51513          	slli	a0,a0,0xb
    80004c04:	6c350513          	addi	a0,a0,1731
    80004c08:	00a51513          	slli	a0,a0,0xa
    80004c0c:	0ce50513          	addi	a0,a0,206
    80004c10:	66652593          	slti	a1,a0,1638
    80004c14:	5cb13023          	sd	a1,1472(sp)
    80004c18:	00100293          	li	t0,1
    80004c1c:	00b28463          	beq	t0,a1,80004c24 <inst_463>
    80004c20:	c04fb06f          	j	80000024 <rvtest_error>

0000000080004c24 <inst_463>:
    80004c24:	00000537          	lui	a0,0x0
    80004c28:	fff50513          	addi	a0,a0,-1
    80004c2c:	00b51513          	slli	a0,a0,0xb
    80004c30:	25750513          	addi	a0,a0,599
    80004c34:	00b51513          	slli	a0,a0,0xb
    80004c38:	6c350513          	addi	a0,a0,1731
    80004c3c:	00a51513          	slli	a0,a0,0xa
    80004c40:	0ce50513          	addi	a0,a0,206
    80004c44:	fd352593          	slti	a1,a0,-45
    80004c48:	5cb13423          	sd	a1,1480(sp)
    80004c4c:	00100293          	li	t0,1
    80004c50:	00b28463          	beq	t0,a1,80004c58 <inst_464>
    80004c54:	bd0fb06f          	j	80000024 <rvtest_error>

0000000080004c58 <inst_464>:
    80004c58:	00000537          	lui	a0,0x0
    80004c5c:	fff50513          	addi	a0,a0,-1
    80004c60:	00b51513          	slli	a0,a0,0xb
    80004c64:	25750513          	addi	a0,a0,599
    80004c68:	00b51513          	slli	a0,a0,0xb
    80004c6c:	6c350513          	addi	a0,a0,1731
    80004c70:	00a51513          	slli	a0,a0,0xa
    80004c74:	0ce50513          	addi	a0,a0,206
    80004c78:	02d52593          	slti	a1,a0,45
    80004c7c:	5cb13823          	sd	a1,1488(sp)
    80004c80:	00100293          	li	t0,1
    80004c84:	00b28463          	beq	t0,a1,80004c8c <inst_465>
    80004c88:	b9cfb06f          	j	80000024 <rvtest_error>

0000000080004c8c <inst_465>:
    80004c8c:	00000537          	lui	a0,0x0
    80004c90:	fff50513          	addi	a0,a0,-1
    80004c94:	00b51513          	slli	a0,a0,0xb
    80004c98:	25750513          	addi	a0,a0,599
    80004c9c:	00b51513          	slli	a0,a0,0xb
    80004ca0:	6c350513          	addi	a0,a0,1731
    80004ca4:	00a51513          	slli	a0,a0,0xa
    80004ca8:	0ce50513          	addi	a0,a0,206
    80004cac:	00252593          	slti	a1,a0,2
    80004cb0:	5cb13c23          	sd	a1,1496(sp)
    80004cb4:	00100293          	li	t0,1
    80004cb8:	00b28463          	beq	t0,a1,80004cc0 <inst_466>
    80004cbc:	b68fb06f          	j	80000024 <rvtest_error>

0000000080004cc0 <inst_466>:
    80004cc0:	00000537          	lui	a0,0x0
    80004cc4:	fff50513          	addi	a0,a0,-1
    80004cc8:	00b51513          	slli	a0,a0,0xb
    80004ccc:	25750513          	addi	a0,a0,599
    80004cd0:	00b51513          	slli	a0,a0,0xb
    80004cd4:	6c350513          	addi	a0,a0,1731
    80004cd8:	00a51513          	slli	a0,a0,0xa
    80004cdc:	0ce50513          	addi	a0,a0,206
    80004ce0:	55452593          	slti	a1,a0,1364
    80004ce4:	5eb13023          	sd	a1,1504(sp)
    80004ce8:	00100293          	li	t0,1
    80004cec:	00b28463          	beq	t0,a1,80004cf4 <inst_467>
    80004cf0:	b34fb06f          	j	80000024 <rvtest_error>

0000000080004cf4 <inst_467>:
    80004cf4:	00000537          	lui	a0,0x0
    80004cf8:	fff50513          	addi	a0,a0,-1
    80004cfc:	00b51513          	slli	a0,a0,0xb
    80004d00:	25750513          	addi	a0,a0,599
    80004d04:	00b51513          	slli	a0,a0,0xb
    80004d08:	6c350513          	addi	a0,a0,1731
    80004d0c:	00a51513          	slli	a0,a0,0xa
    80004d10:	0ce50513          	addi	a0,a0,206
    80004d14:	00052593          	slti	a1,a0,0
    80004d18:	5eb13423          	sd	a1,1512(sp)
    80004d1c:	00100293          	li	t0,1
    80004d20:	00b28463          	beq	t0,a1,80004d28 <inst_468>
    80004d24:	b00fb06f          	j	80000024 <rvtest_error>

0000000080004d28 <inst_468>:
    80004d28:	00000537          	lui	a0,0x0
    80004d2c:	fff50513          	addi	a0,a0,-1
    80004d30:	00b51513          	slli	a0,a0,0xb
    80004d34:	25750513          	addi	a0,a0,599
    80004d38:	00b51513          	slli	a0,a0,0xb
    80004d3c:	6c350513          	addi	a0,a0,1731
    80004d40:	00a51513          	slli	a0,a0,0xa
    80004d44:	0ce50513          	addi	a0,a0,206
    80004d48:	00452593          	slti	a1,a0,4
    80004d4c:	5eb13823          	sd	a1,1520(sp)
    80004d50:	00100293          	li	t0,1
    80004d54:	00b28463          	beq	t0,a1,80004d5c <inst_469>
    80004d58:	accfb06f          	j	80000024 <rvtest_error>

0000000080004d5c <inst_469>:
    80004d5c:	00000537          	lui	a0,0x0
    80004d60:	fff50513          	addi	a0,a0,-1
    80004d64:	00b51513          	slli	a0,a0,0xb
    80004d68:	25750513          	addi	a0,a0,599
    80004d6c:	00b51513          	slli	a0,a0,0xb
    80004d70:	6c350513          	addi	a0,a0,1731
    80004d74:	00a51513          	slli	a0,a0,0xa
    80004d78:	0ce50513          	addi	a0,a0,206
    80004d7c:	33252593          	slti	a1,a0,818
    80004d80:	5eb13c23          	sd	a1,1528(sp)
    80004d84:	00100293          	li	t0,1
    80004d88:	00b28463          	beq	t0,a1,80004d90 <inst_470>
    80004d8c:	a98fb06f          	j	80000024 <rvtest_error>

0000000080004d90 <inst_470>:
    80004d90:	00000537          	lui	a0,0x0
    80004d94:	fff50513          	addi	a0,a0,-1
    80004d98:	00b51513          	slli	a0,a0,0xb
    80004d9c:	25750513          	addi	a0,a0,599
    80004da0:	00b51513          	slli	a0,a0,0xb
    80004da4:	6c350513          	addi	a0,a0,1731
    80004da8:	00a51513          	slli	a0,a0,0xa
    80004dac:	0ce50513          	addi	a0,a0,206
    80004db0:	66552593          	slti	a1,a0,1637
    80004db4:	60b13023          	sd	a1,1536(sp)
    80004db8:	00100293          	li	t0,1
    80004dbc:	00b28463          	beq	t0,a1,80004dc4 <inst_471>
    80004dc0:	a64fb06f          	j	80000024 <rvtest_error>

0000000080004dc4 <inst_471>:
    80004dc4:	00000537          	lui	a0,0x0
    80004dc8:	fff50513          	addi	a0,a0,-1
    80004dcc:	00b51513          	slli	a0,a0,0xb
    80004dd0:	25750513          	addi	a0,a0,599
    80004dd4:	00b51513          	slli	a0,a0,0xb
    80004dd8:	6c350513          	addi	a0,a0,1731
    80004ddc:	00a51513          	slli	a0,a0,0xa
    80004de0:	0ce50513          	addi	a0,a0,206
    80004de4:	02c52593          	slti	a1,a0,44
    80004de8:	60b13423          	sd	a1,1544(sp)
    80004dec:	00100293          	li	t0,1
    80004df0:	00b28463          	beq	t0,a1,80004df8 <inst_472>
    80004df4:	a30fb06f          	j	80000024 <rvtest_error>

0000000080004df8 <inst_472>:
    80004df8:	00000537          	lui	a0,0x0
    80004dfc:	fff50513          	addi	a0,a0,-1
    80004e00:	00b51513          	slli	a0,a0,0xb
    80004e04:	25750513          	addi	a0,a0,599
    80004e08:	00b51513          	slli	a0,a0,0xb
    80004e0c:	6c350513          	addi	a0,a0,1731
    80004e10:	00a51513          	slli	a0,a0,0xa
    80004e14:	0ce50513          	addi	a0,a0,206
    80004e18:	55652593          	slti	a1,a0,1366
    80004e1c:	60b13823          	sd	a1,1552(sp)
    80004e20:	00100293          	li	t0,1
    80004e24:	00b28463          	beq	t0,a1,80004e2c <inst_473>
    80004e28:	9fcfb06f          	j	80000024 <rvtest_error>

0000000080004e2c <inst_473>:
    80004e2c:	00000537          	lui	a0,0x0
    80004e30:	fff50513          	addi	a0,a0,-1
    80004e34:	00b51513          	slli	a0,a0,0xb
    80004e38:	25750513          	addi	a0,a0,599
    80004e3c:	00b51513          	slli	a0,a0,0xb
    80004e40:	6c350513          	addi	a0,a0,1731
    80004e44:	00a51513          	slli	a0,a0,0xa
    80004e48:	0ce50513          	addi	a0,a0,206
    80004e4c:	aab52593          	slti	a1,a0,-1365
    80004e50:	60b13c23          	sd	a1,1560(sp)
    80004e54:	00100293          	li	t0,1
    80004e58:	00b28463          	beq	t0,a1,80004e60 <inst_474>
    80004e5c:	9c8fb06f          	j	80000024 <rvtest_error>

0000000080004e60 <inst_474>:
    80004e60:	00000537          	lui	a0,0x0
    80004e64:	fff50513          	addi	a0,a0,-1
    80004e68:	00b51513          	slli	a0,a0,0xb
    80004e6c:	25750513          	addi	a0,a0,599
    80004e70:	00b51513          	slli	a0,a0,0xb
    80004e74:	6c350513          	addi	a0,a0,1731
    80004e78:	00a51513          	slli	a0,a0,0xa
    80004e7c:	0ce50513          	addi	a0,a0,206
    80004e80:	00652593          	slti	a1,a0,6
    80004e84:	62b13023          	sd	a1,1568(sp)
    80004e88:	00100293          	li	t0,1
    80004e8c:	00b28463          	beq	t0,a1,80004e94 <inst_475>
    80004e90:	994fb06f          	j	80000024 <rvtest_error>

0000000080004e94 <inst_475>:
    80004e94:	00000537          	lui	a0,0x0
    80004e98:	fff50513          	addi	a0,a0,-1
    80004e9c:	00b51513          	slli	a0,a0,0xb
    80004ea0:	25750513          	addi	a0,a0,599
    80004ea4:	00b51513          	slli	a0,a0,0xb
    80004ea8:	6c350513          	addi	a0,a0,1731
    80004eac:	00a51513          	slli	a0,a0,0xa
    80004eb0:	0ce50513          	addi	a0,a0,206
    80004eb4:	33452593          	slti	a1,a0,820
    80004eb8:	62b13423          	sd	a1,1576(sp)
    80004ebc:	00100293          	li	t0,1
    80004ec0:	00b28463          	beq	t0,a1,80004ec8 <inst_476>
    80004ec4:	960fb06f          	j	80000024 <rvtest_error>

0000000080004ec8 <inst_476>:
    80004ec8:	00000537          	lui	a0,0x0
    80004ecc:	fff50513          	addi	a0,a0,-1
    80004ed0:	00b51513          	slli	a0,a0,0xb
    80004ed4:	25750513          	addi	a0,a0,599
    80004ed8:	00b51513          	slli	a0,a0,0xb
    80004edc:	6c350513          	addi	a0,a0,1731
    80004ee0:	00a51513          	slli	a0,a0,0xa
    80004ee4:	0ce50513          	addi	a0,a0,206
    80004ee8:	66752593          	slti	a1,a0,1639
    80004eec:	62b13823          	sd	a1,1584(sp)
    80004ef0:	00100293          	li	t0,1
    80004ef4:	00b28463          	beq	t0,a1,80004efc <inst_477>
    80004ef8:	92cfb06f          	j	80000024 <rvtest_error>

0000000080004efc <inst_477>:
    80004efc:	00000537          	lui	a0,0x0
    80004f00:	fff50513          	addi	a0,a0,-1
    80004f04:	00b51513          	slli	a0,a0,0xb
    80004f08:	25750513          	addi	a0,a0,599
    80004f0c:	00b51513          	slli	a0,a0,0xb
    80004f10:	6c350513          	addi	a0,a0,1731
    80004f14:	00a51513          	slli	a0,a0,0xa
    80004f18:	0ce50513          	addi	a0,a0,206
    80004f1c:	fd452593          	slti	a1,a0,-44
    80004f20:	62b13c23          	sd	a1,1592(sp)
    80004f24:	00100293          	li	t0,1
    80004f28:	00b28463          	beq	t0,a1,80004f30 <inst_478>
    80004f2c:	8f8fb06f          	j	80000024 <rvtest_error>

0000000080004f30 <inst_478>:
    80004f30:	00000537          	lui	a0,0x0
    80004f34:	fff50513          	addi	a0,a0,-1
    80004f38:	00b51513          	slli	a0,a0,0xb
    80004f3c:	25750513          	addi	a0,a0,599
    80004f40:	00b51513          	slli	a0,a0,0xb
    80004f44:	6c350513          	addi	a0,a0,1731
    80004f48:	00a51513          	slli	a0,a0,0xa
    80004f4c:	0ce50513          	addi	a0,a0,206
    80004f50:	02e52593          	slti	a1,a0,46
    80004f54:	64b13023          	sd	a1,1600(sp)
    80004f58:	00100293          	li	t0,1
    80004f5c:	00b28463          	beq	t0,a1,80004f64 <inst_479>
    80004f60:	8c4fb06f          	j	80000024 <rvtest_error>

0000000080004f64 <inst_479>:
    80004f64:	00000537          	lui	a0,0x0
    80004f68:	00050513          	mv	a0,a0
    80004f6c:	00b51513          	slli	a0,a0,0xb
    80004f70:	5a850513          	addi	a0,a0,1448 # 5a8 <offset+0x310>
    80004f74:	00b51513          	slli	a0,a0,0xb
    80004f78:	13c50513          	addi	a0,a0,316
    80004f7c:	00a51513          	slli	a0,a0,0xa
    80004f80:	33450513          	addi	a0,a0,820
    80004f84:	00352593          	slti	a1,a0,3
    80004f88:	64b13423          	sd	a1,1608(sp)
    80004f8c:	00000293          	li	t0,0
    80004f90:	00b28463          	beq	t0,a1,80004f98 <inst_480>
    80004f94:	890fb06f          	j	80000024 <rvtest_error>

0000000080004f98 <inst_480>:
    80004f98:	00000537          	lui	a0,0x0
    80004f9c:	00050513          	mv	a0,a0
    80004fa0:	00b51513          	slli	a0,a0,0xb
    80004fa4:	5a850513          	addi	a0,a0,1448 # 5a8 <offset+0x310>
    80004fa8:	00b51513          	slli	a0,a0,0xb
    80004fac:	13c50513          	addi	a0,a0,316
    80004fb0:	00a51513          	slli	a0,a0,0xa
    80004fb4:	33450513          	addi	a0,a0,820
    80004fb8:	55552593          	slti	a1,a0,1365
    80004fbc:	64b13823          	sd	a1,1616(sp)
    80004fc0:	00000293          	li	t0,0
    80004fc4:	00b28463          	beq	t0,a1,80004fcc <inst_481>
    80004fc8:	85cfb06f          	j	80000024 <rvtest_error>

0000000080004fcc <inst_481>:
    80004fcc:	00000537          	lui	a0,0x0
    80004fd0:	00050513          	mv	a0,a0
    80004fd4:	00b51513          	slli	a0,a0,0xb
    80004fd8:	5a850513          	addi	a0,a0,1448 # 5a8 <offset+0x310>
    80004fdc:	00b51513          	slli	a0,a0,0xb
    80004fe0:	13c50513          	addi	a0,a0,316
    80004fe4:	00a51513          	slli	a0,a0,0xa
    80004fe8:	33450513          	addi	a0,a0,820
    80004fec:	aaa52593          	slti	a1,a0,-1366
    80004ff0:	64b13c23          	sd	a1,1624(sp)
    80004ff4:	00000293          	li	t0,0
    80004ff8:	00b28463          	beq	t0,a1,80005000 <inst_482>
    80004ffc:	828fb06f          	j	80000024 <rvtest_error>

0000000080005000 <inst_482>:
    80005000:	00000537          	lui	a0,0x0
    80005004:	00050513          	mv	a0,a0
    80005008:	00b51513          	slli	a0,a0,0xb
    8000500c:	5a850513          	addi	a0,a0,1448 # 5a8 <offset+0x310>
    80005010:	00b51513          	slli	a0,a0,0xb
    80005014:	13c50513          	addi	a0,a0,316
    80005018:	00a51513          	slli	a0,a0,0xa
    8000501c:	33450513          	addi	a0,a0,820
    80005020:	00552593          	slti	a1,a0,5
    80005024:	66b13023          	sd	a1,1632(sp)
    80005028:	00000293          	li	t0,0
    8000502c:	00b28463          	beq	t0,a1,80005034 <inst_483>
    80005030:	ff5fa06f          	j	80000024 <rvtest_error>

0000000080005034 <inst_483>:
    80005034:	00000537          	lui	a0,0x0
    80005038:	00050513          	mv	a0,a0
    8000503c:	00b51513          	slli	a0,a0,0xb
    80005040:	5a850513          	addi	a0,a0,1448 # 5a8 <offset+0x310>
    80005044:	00b51513          	slli	a0,a0,0xb
    80005048:	13c50513          	addi	a0,a0,316
    8000504c:	00a51513          	slli	a0,a0,0xa
    80005050:	33450513          	addi	a0,a0,820
    80005054:	33352593          	slti	a1,a0,819
    80005058:	66b13423          	sd	a1,1640(sp)
    8000505c:	00000293          	li	t0,0
    80005060:	00b28463          	beq	t0,a1,80005068 <inst_484>
    80005064:	fc1fa06f          	j	80000024 <rvtest_error>

0000000080005068 <inst_484>:
    80005068:	00000537          	lui	a0,0x0
    8000506c:	00050513          	mv	a0,a0
    80005070:	00b51513          	slli	a0,a0,0xb
    80005074:	5a850513          	addi	a0,a0,1448 # 5a8 <offset+0x310>
    80005078:	00b51513          	slli	a0,a0,0xb
    8000507c:	13c50513          	addi	a0,a0,316
    80005080:	00a51513          	slli	a0,a0,0xa
    80005084:	33450513          	addi	a0,a0,820
    80005088:	66652593          	slti	a1,a0,1638
    8000508c:	66b13823          	sd	a1,1648(sp)
    80005090:	00000293          	li	t0,0
    80005094:	00b28463          	beq	t0,a1,8000509c <inst_485>
    80005098:	f8dfa06f          	j	80000024 <rvtest_error>

000000008000509c <inst_485>:
    8000509c:	00000537          	lui	a0,0x0
    800050a0:	00050513          	mv	a0,a0
    800050a4:	00b51513          	slli	a0,a0,0xb
    800050a8:	5a850513          	addi	a0,a0,1448 # 5a8 <offset+0x310>
    800050ac:	00b51513          	slli	a0,a0,0xb
    800050b0:	13c50513          	addi	a0,a0,316
    800050b4:	00a51513          	slli	a0,a0,0xa
    800050b8:	33450513          	addi	a0,a0,820
    800050bc:	fd352593          	slti	a1,a0,-45
    800050c0:	66b13c23          	sd	a1,1656(sp)
    800050c4:	00000293          	li	t0,0
    800050c8:	00b28463          	beq	t0,a1,800050d0 <inst_486>
    800050cc:	f59fa06f          	j	80000024 <rvtest_error>

00000000800050d0 <inst_486>:
    800050d0:	00000537          	lui	a0,0x0
    800050d4:	00050513          	mv	a0,a0
    800050d8:	00b51513          	slli	a0,a0,0xb
    800050dc:	5a850513          	addi	a0,a0,1448 # 5a8 <offset+0x310>
    800050e0:	00b51513          	slli	a0,a0,0xb
    800050e4:	13c50513          	addi	a0,a0,316
    800050e8:	00a51513          	slli	a0,a0,0xa
    800050ec:	33450513          	addi	a0,a0,820
    800050f0:	02d52593          	slti	a1,a0,45
    800050f4:	68b13023          	sd	a1,1664(sp)
    800050f8:	00000293          	li	t0,0
    800050fc:	00b28463          	beq	t0,a1,80005104 <inst_487>
    80005100:	f25fa06f          	j	80000024 <rvtest_error>

0000000080005104 <inst_487>:
    80005104:	00000537          	lui	a0,0x0
    80005108:	00050513          	mv	a0,a0
    8000510c:	00b51513          	slli	a0,a0,0xb
    80005110:	5a850513          	addi	a0,a0,1448 # 5a8 <offset+0x310>
    80005114:	00b51513          	slli	a0,a0,0xb
    80005118:	13c50513          	addi	a0,a0,316
    8000511c:	00a51513          	slli	a0,a0,0xa
    80005120:	33450513          	addi	a0,a0,820
    80005124:	00252593          	slti	a1,a0,2
    80005128:	68b13423          	sd	a1,1672(sp)
    8000512c:	00000293          	li	t0,0
    80005130:	00b28463          	beq	t0,a1,80005138 <inst_488>
    80005134:	ef1fa06f          	j	80000024 <rvtest_error>

0000000080005138 <inst_488>:
    80005138:	00000537          	lui	a0,0x0
    8000513c:	00050513          	mv	a0,a0
    80005140:	00b51513          	slli	a0,a0,0xb
    80005144:	5a850513          	addi	a0,a0,1448 # 5a8 <offset+0x310>
    80005148:	00b51513          	slli	a0,a0,0xb
    8000514c:	13c50513          	addi	a0,a0,316
    80005150:	00a51513          	slli	a0,a0,0xa
    80005154:	33450513          	addi	a0,a0,820
    80005158:	55452593          	slti	a1,a0,1364
    8000515c:	68b13823          	sd	a1,1680(sp)
    80005160:	00000293          	li	t0,0
    80005164:	00b28463          	beq	t0,a1,8000516c <inst_489>
    80005168:	ebdfa06f          	j	80000024 <rvtest_error>

000000008000516c <inst_489>:
    8000516c:	00000537          	lui	a0,0x0
    80005170:	00050513          	mv	a0,a0
    80005174:	00b51513          	slli	a0,a0,0xb
    80005178:	5a850513          	addi	a0,a0,1448 # 5a8 <offset+0x310>
    8000517c:	00b51513          	slli	a0,a0,0xb
    80005180:	13c50513          	addi	a0,a0,316
    80005184:	00a51513          	slli	a0,a0,0xa
    80005188:	33450513          	addi	a0,a0,820
    8000518c:	00052593          	slti	a1,a0,0
    80005190:	68b13c23          	sd	a1,1688(sp)
    80005194:	00000293          	li	t0,0
    80005198:	00b28463          	beq	t0,a1,800051a0 <inst_490>
    8000519c:	e89fa06f          	j	80000024 <rvtest_error>

00000000800051a0 <inst_490>:
    800051a0:	00000537          	lui	a0,0x0
    800051a4:	00050513          	mv	a0,a0
    800051a8:	00b51513          	slli	a0,a0,0xb
    800051ac:	5a850513          	addi	a0,a0,1448 # 5a8 <offset+0x310>
    800051b0:	00b51513          	slli	a0,a0,0xb
    800051b4:	13c50513          	addi	a0,a0,316
    800051b8:	00a51513          	slli	a0,a0,0xa
    800051bc:	33450513          	addi	a0,a0,820
    800051c0:	00452593          	slti	a1,a0,4
    800051c4:	6ab13023          	sd	a1,1696(sp)
    800051c8:	00000293          	li	t0,0
    800051cc:	00b28463          	beq	t0,a1,800051d4 <inst_491>
    800051d0:	e55fa06f          	j	80000024 <rvtest_error>

00000000800051d4 <inst_491>:
    800051d4:	00000537          	lui	a0,0x0
    800051d8:	00050513          	mv	a0,a0
    800051dc:	00b51513          	slli	a0,a0,0xb
    800051e0:	5a850513          	addi	a0,a0,1448 # 5a8 <offset+0x310>
    800051e4:	00b51513          	slli	a0,a0,0xb
    800051e8:	13c50513          	addi	a0,a0,316
    800051ec:	00a51513          	slli	a0,a0,0xa
    800051f0:	33450513          	addi	a0,a0,820
    800051f4:	33252593          	slti	a1,a0,818
    800051f8:	6ab13423          	sd	a1,1704(sp)
    800051fc:	00000293          	li	t0,0
    80005200:	00b28463          	beq	t0,a1,80005208 <inst_492>
    80005204:	e21fa06f          	j	80000024 <rvtest_error>

0000000080005208 <inst_492>:
    80005208:	00000537          	lui	a0,0x0
    8000520c:	00050513          	mv	a0,a0
    80005210:	00b51513          	slli	a0,a0,0xb
    80005214:	5a850513          	addi	a0,a0,1448 # 5a8 <offset+0x310>
    80005218:	00b51513          	slli	a0,a0,0xb
    8000521c:	13c50513          	addi	a0,a0,316
    80005220:	00a51513          	slli	a0,a0,0xa
    80005224:	33450513          	addi	a0,a0,820
    80005228:	66552593          	slti	a1,a0,1637
    8000522c:	6ab13823          	sd	a1,1712(sp)
    80005230:	00000293          	li	t0,0
    80005234:	00b28463          	beq	t0,a1,8000523c <inst_493>
    80005238:	dedfa06f          	j	80000024 <rvtest_error>

000000008000523c <inst_493>:
    8000523c:	00000537          	lui	a0,0x0
    80005240:	00050513          	mv	a0,a0
    80005244:	00b51513          	slli	a0,a0,0xb
    80005248:	5a850513          	addi	a0,a0,1448 # 5a8 <offset+0x310>
    8000524c:	00b51513          	slli	a0,a0,0xb
    80005250:	13c50513          	addi	a0,a0,316
    80005254:	00a51513          	slli	a0,a0,0xa
    80005258:	33450513          	addi	a0,a0,820
    8000525c:	02c52593          	slti	a1,a0,44
    80005260:	6ab13c23          	sd	a1,1720(sp)
    80005264:	00000293          	li	t0,0
    80005268:	00b28463          	beq	t0,a1,80005270 <inst_494>
    8000526c:	db9fa06f          	j	80000024 <rvtest_error>

0000000080005270 <inst_494>:
    80005270:	00000537          	lui	a0,0x0
    80005274:	00050513          	mv	a0,a0
    80005278:	00b51513          	slli	a0,a0,0xb
    8000527c:	5a850513          	addi	a0,a0,1448 # 5a8 <offset+0x310>
    80005280:	00b51513          	slli	a0,a0,0xb
    80005284:	13c50513          	addi	a0,a0,316
    80005288:	00a51513          	slli	a0,a0,0xa
    8000528c:	33450513          	addi	a0,a0,820
    80005290:	55652593          	slti	a1,a0,1366
    80005294:	6cb13023          	sd	a1,1728(sp)
    80005298:	00000293          	li	t0,0
    8000529c:	00b28463          	beq	t0,a1,800052a4 <inst_495>
    800052a0:	d85fa06f          	j	80000024 <rvtest_error>

00000000800052a4 <inst_495>:
    800052a4:	00000537          	lui	a0,0x0
    800052a8:	00050513          	mv	a0,a0
    800052ac:	00b51513          	slli	a0,a0,0xb
    800052b0:	5a850513          	addi	a0,a0,1448 # 5a8 <offset+0x310>
    800052b4:	00b51513          	slli	a0,a0,0xb
    800052b8:	13c50513          	addi	a0,a0,316
    800052bc:	00a51513          	slli	a0,a0,0xa
    800052c0:	33450513          	addi	a0,a0,820
    800052c4:	aab52593          	slti	a1,a0,-1365
    800052c8:	6cb13423          	sd	a1,1736(sp)
    800052cc:	00000293          	li	t0,0
    800052d0:	00b28463          	beq	t0,a1,800052d8 <inst_496>
    800052d4:	d51fa06f          	j	80000024 <rvtest_error>

00000000800052d8 <inst_496>:
    800052d8:	00000537          	lui	a0,0x0
    800052dc:	00050513          	mv	a0,a0
    800052e0:	00b51513          	slli	a0,a0,0xb
    800052e4:	5a850513          	addi	a0,a0,1448 # 5a8 <offset+0x310>
    800052e8:	00b51513          	slli	a0,a0,0xb
    800052ec:	13c50513          	addi	a0,a0,316
    800052f0:	00a51513          	slli	a0,a0,0xa
    800052f4:	33450513          	addi	a0,a0,820
    800052f8:	00652593          	slti	a1,a0,6
    800052fc:	6cb13823          	sd	a1,1744(sp)
    80005300:	00000293          	li	t0,0
    80005304:	00b28463          	beq	t0,a1,8000530c <inst_497>
    80005308:	d1dfa06f          	j	80000024 <rvtest_error>

000000008000530c <inst_497>:
    8000530c:	00000537          	lui	a0,0x0
    80005310:	00050513          	mv	a0,a0
    80005314:	00b51513          	slli	a0,a0,0xb
    80005318:	5a850513          	addi	a0,a0,1448 # 5a8 <offset+0x310>
    8000531c:	00b51513          	slli	a0,a0,0xb
    80005320:	13c50513          	addi	a0,a0,316
    80005324:	00a51513          	slli	a0,a0,0xa
    80005328:	33450513          	addi	a0,a0,820
    8000532c:	33452593          	slti	a1,a0,820
    80005330:	6cb13c23          	sd	a1,1752(sp)
    80005334:	00000293          	li	t0,0
    80005338:	00b28463          	beq	t0,a1,80005340 <inst_498>
    8000533c:	ce9fa06f          	j	80000024 <rvtest_error>

0000000080005340 <inst_498>:
    80005340:	00000537          	lui	a0,0x0
    80005344:	00050513          	mv	a0,a0
    80005348:	00b51513          	slli	a0,a0,0xb
    8000534c:	5a850513          	addi	a0,a0,1448 # 5a8 <offset+0x310>
    80005350:	00b51513          	slli	a0,a0,0xb
    80005354:	13c50513          	addi	a0,a0,316
    80005358:	00a51513          	slli	a0,a0,0xa
    8000535c:	33450513          	addi	a0,a0,820
    80005360:	66752593          	slti	a1,a0,1639
    80005364:	6eb13023          	sd	a1,1760(sp)
    80005368:	00000293          	li	t0,0
    8000536c:	00b28463          	beq	t0,a1,80005374 <inst_499>
    80005370:	cb5fa06f          	j	80000024 <rvtest_error>

0000000080005374 <inst_499>:
    80005374:	00000537          	lui	a0,0x0
    80005378:	00050513          	mv	a0,a0
    8000537c:	00b51513          	slli	a0,a0,0xb
    80005380:	5a850513          	addi	a0,a0,1448 # 5a8 <offset+0x310>
    80005384:	00b51513          	slli	a0,a0,0xb
    80005388:	13c50513          	addi	a0,a0,316
    8000538c:	00a51513          	slli	a0,a0,0xa
    80005390:	33450513          	addi	a0,a0,820
    80005394:	fd452593          	slti	a1,a0,-44
    80005398:	6eb13423          	sd	a1,1768(sp)
    8000539c:	00000293          	li	t0,0
    800053a0:	00b28463          	beq	t0,a1,800053a8 <inst_500>
    800053a4:	c81fa06f          	j	80000024 <rvtest_error>

00000000800053a8 <inst_500>:
    800053a8:	00000537          	lui	a0,0x0
    800053ac:	00050513          	mv	a0,a0
    800053b0:	00b51513          	slli	a0,a0,0xb
    800053b4:	5a850513          	addi	a0,a0,1448 # 5a8 <offset+0x310>
    800053b8:	00b51513          	slli	a0,a0,0xb
    800053bc:	13c50513          	addi	a0,a0,316
    800053c0:	00a51513          	slli	a0,a0,0xa
    800053c4:	33450513          	addi	a0,a0,820
    800053c8:	02e52593          	slti	a1,a0,46
    800053cc:	6eb13823          	sd	a1,1776(sp)
    800053d0:	00000293          	li	t0,0
    800053d4:	00b28463          	beq	t0,a1,800053dc <inst_501>
    800053d8:	c4dfa06f          	j	80000024 <rvtest_error>

00000000800053dc <inst_501>:
    800053dc:	00000513          	li	a0,0
    800053e0:	00252593          	slti	a1,a0,2
    800053e4:	6eb13c23          	sd	a1,1784(sp)
    800053e8:	00100293          	li	t0,1
    800053ec:	00b28463          	beq	t0,a1,800053f4 <inst_502>
    800053f0:	c35fa06f          	j	80000024 <rvtest_error>

00000000800053f4 <inst_502>:
    800053f4:	00000513          	li	a0,0
    800053f8:	55452593          	slti	a1,a0,1364
    800053fc:	70b13023          	sd	a1,1792(sp)
    80005400:	00100293          	li	t0,1
    80005404:	00b28463          	beq	t0,a1,8000540c <inst_503>
    80005408:	c1dfa06f          	j	80000024 <rvtest_error>

000000008000540c <inst_503>:
    8000540c:	00000513          	li	a0,0
    80005410:	00452593          	slti	a1,a0,4
    80005414:	70b13423          	sd	a1,1800(sp)
    80005418:	00100293          	li	t0,1
    8000541c:	00b28463          	beq	t0,a1,80005424 <inst_504>
    80005420:	c05fa06f          	j	80000024 <rvtest_error>

0000000080005424 <inst_504>:
    80005424:	00000513          	li	a0,0
    80005428:	33252593          	slti	a1,a0,818
    8000542c:	70b13823          	sd	a1,1808(sp)
    80005430:	00100293          	li	t0,1
    80005434:	00b28463          	beq	t0,a1,8000543c <inst_505>
    80005438:	bedfa06f          	j	80000024 <rvtest_error>

000000008000543c <inst_505>:
    8000543c:	00000513          	li	a0,0
    80005440:	66552593          	slti	a1,a0,1637
    80005444:	70b13c23          	sd	a1,1816(sp)
    80005448:	00100293          	li	t0,1
    8000544c:	00b28463          	beq	t0,a1,80005454 <inst_506>
    80005450:	bd5fa06f          	j	80000024 <rvtest_error>

0000000080005454 <inst_506>:
    80005454:	00000513          	li	a0,0
    80005458:	02c52593          	slti	a1,a0,44
    8000545c:	72b13023          	sd	a1,1824(sp)
    80005460:	00100293          	li	t0,1
    80005464:	00b28463          	beq	t0,a1,8000546c <inst_507>
    80005468:	bbdfa06f          	j	80000024 <rvtest_error>

000000008000546c <inst_507>:
    8000546c:	00000513          	li	a0,0
    80005470:	55652593          	slti	a1,a0,1366
    80005474:	72b13423          	sd	a1,1832(sp)
    80005478:	00100293          	li	t0,1
    8000547c:	00b28463          	beq	t0,a1,80005484 <inst_508>
    80005480:	ba5fa06f          	j	80000024 <rvtest_error>

0000000080005484 <inst_508>:
    80005484:	00000513          	li	a0,0
    80005488:	aab52593          	slti	a1,a0,-1365
    8000548c:	72b13823          	sd	a1,1840(sp)
    80005490:	00000293          	li	t0,0
    80005494:	00b28463          	beq	t0,a1,8000549c <inst_509>
    80005498:	b8dfa06f          	j	80000024 <rvtest_error>

000000008000549c <inst_509>:
    8000549c:	00000513          	li	a0,0
    800054a0:	00652593          	slti	a1,a0,6
    800054a4:	72b13c23          	sd	a1,1848(sp)
    800054a8:	00100293          	li	t0,1
    800054ac:	00b28463          	beq	t0,a1,800054b4 <inst_510>
    800054b0:	b75fa06f          	j	80000024 <rvtest_error>

00000000800054b4 <inst_510>:
    800054b4:	00000513          	li	a0,0
    800054b8:	33452593          	slti	a1,a0,820
    800054bc:	74b13023          	sd	a1,1856(sp)
    800054c0:	00100293          	li	t0,1
    800054c4:	00b28463          	beq	t0,a1,800054cc <inst_511>
    800054c8:	b5dfa06f          	j	80000024 <rvtest_error>

00000000800054cc <inst_511>:
    800054cc:	00000513          	li	a0,0
    800054d0:	66752593          	slti	a1,a0,1639
    800054d4:	74b13423          	sd	a1,1864(sp)
    800054d8:	00100293          	li	t0,1
    800054dc:	00b28463          	beq	t0,a1,800054e4 <inst_512>
    800054e0:	b45fa06f          	j	80000024 <rvtest_error>

00000000800054e4 <inst_512>:
    800054e4:	00000513          	li	a0,0
    800054e8:	fd452593          	slti	a1,a0,-44
    800054ec:	74b13823          	sd	a1,1872(sp)
    800054f0:	00000293          	li	t0,0
    800054f4:	00b28463          	beq	t0,a1,800054fc <inst_513>
    800054f8:	b2dfa06f          	j	80000024 <rvtest_error>

00000000800054fc <inst_513>:
    800054fc:	00000513          	li	a0,0
    80005500:	02e52593          	slti	a1,a0,46
    80005504:	74b13c23          	sd	a1,1880(sp)
    80005508:	00100293          	li	t0,1
    8000550c:	00b28463          	beq	t0,a1,80005514 <inst_514>
    80005510:	b15fa06f          	j	80000024 <rvtest_error>

0000000080005514 <inst_514>:
    80005514:	00400513          	li	a0,4
    80005518:	00352593          	slti	a1,a0,3
    8000551c:	76b13023          	sd	a1,1888(sp)
    80005520:	00000293          	li	t0,0
    80005524:	00b28463          	beq	t0,a1,8000552c <inst_515>
    80005528:	afdfa06f          	j	80000024 <rvtest_error>

000000008000552c <inst_515>:
    8000552c:	00400513          	li	a0,4
    80005530:	55552593          	slti	a1,a0,1365
    80005534:	76b13423          	sd	a1,1896(sp)
    80005538:	00100293          	li	t0,1
    8000553c:	00b28463          	beq	t0,a1,80005544 <inst_516>
    80005540:	ae5fa06f          	j	80000024 <rvtest_error>

0000000080005544 <inst_516>:
    80005544:	00400513          	li	a0,4
    80005548:	aaa52593          	slti	a1,a0,-1366
    8000554c:	76b13823          	sd	a1,1904(sp)
    80005550:	00000293          	li	t0,0
    80005554:	00b28463          	beq	t0,a1,8000555c <inst_517>
    80005558:	acdfa06f          	j	80000024 <rvtest_error>

000000008000555c <inst_517>:
    8000555c:	00400513          	li	a0,4
    80005560:	00552593          	slti	a1,a0,5
    80005564:	76b13c23          	sd	a1,1912(sp)
    80005568:	00100293          	li	t0,1
    8000556c:	00b28463          	beq	t0,a1,80005574 <inst_518>
    80005570:	ab5fa06f          	j	80000024 <rvtest_error>

0000000080005574 <inst_518>:
    80005574:	00400513          	li	a0,4
    80005578:	33352593          	slti	a1,a0,819
    8000557c:	78b13023          	sd	a1,1920(sp)
    80005580:	00100293          	li	t0,1
    80005584:	00b28463          	beq	t0,a1,8000558c <inst_519>
    80005588:	a9dfa06f          	j	80000024 <rvtest_error>

000000008000558c <inst_519>:
    8000558c:	00400513          	li	a0,4
    80005590:	66652593          	slti	a1,a0,1638
    80005594:	78b13423          	sd	a1,1928(sp)
    80005598:	00100293          	li	t0,1
    8000559c:	00b28463          	beq	t0,a1,800055a4 <inst_520>
    800055a0:	a85fa06f          	j	80000024 <rvtest_error>

00000000800055a4 <inst_520>:
    800055a4:	00400513          	li	a0,4
    800055a8:	fd352593          	slti	a1,a0,-45
    800055ac:	78b13823          	sd	a1,1936(sp)
    800055b0:	00000293          	li	t0,0
    800055b4:	00b28463          	beq	t0,a1,800055bc <inst_521>
    800055b8:	a6dfa06f          	j	80000024 <rvtest_error>

00000000800055bc <inst_521>:
    800055bc:	00400513          	li	a0,4
    800055c0:	02d52593          	slti	a1,a0,45
    800055c4:	78b13c23          	sd	a1,1944(sp)
    800055c8:	00100293          	li	t0,1
    800055cc:	00b28463          	beq	t0,a1,800055d4 <inst_522>
    800055d0:	a55fa06f          	j	80000024 <rvtest_error>

00000000800055d4 <inst_522>:
    800055d4:	00400513          	li	a0,4
    800055d8:	00252593          	slti	a1,a0,2
    800055dc:	7ab13023          	sd	a1,1952(sp)
    800055e0:	00000293          	li	t0,0
    800055e4:	00b28463          	beq	t0,a1,800055ec <inst_523>
    800055e8:	a3dfa06f          	j	80000024 <rvtest_error>

00000000800055ec <inst_523>:
    800055ec:	00400513          	li	a0,4
    800055f0:	55452593          	slti	a1,a0,1364
    800055f4:	7ab13423          	sd	a1,1960(sp)
    800055f8:	00100293          	li	t0,1
    800055fc:	00b28463          	beq	t0,a1,80005604 <inst_524>
    80005600:	a25fa06f          	j	80000024 <rvtest_error>

0000000080005604 <inst_524>:
    80005604:	00400513          	li	a0,4
    80005608:	00052593          	slti	a1,a0,0
    8000560c:	7ab13823          	sd	a1,1968(sp)
    80005610:	00000293          	li	t0,0
    80005614:	00b28463          	beq	t0,a1,8000561c <inst_525>
    80005618:	a0dfa06f          	j	80000024 <rvtest_error>

000000008000561c <inst_525>:
    8000561c:	00400513          	li	a0,4
    80005620:	00452593          	slti	a1,a0,4
    80005624:	7ab13c23          	sd	a1,1976(sp)
    80005628:	00000293          	li	t0,0
    8000562c:	00b28463          	beq	t0,a1,80005634 <inst_526>
    80005630:	9f5fa06f          	j	80000024 <rvtest_error>

0000000080005634 <inst_526>:
    80005634:	00400513          	li	a0,4
    80005638:	33252593          	slti	a1,a0,818
    8000563c:	7cb13023          	sd	a1,1984(sp)
    80005640:	00100293          	li	t0,1
    80005644:	00b28463          	beq	t0,a1,8000564c <inst_527>
    80005648:	9ddfa06f          	j	80000024 <rvtest_error>

000000008000564c <inst_527>:
    8000564c:	00400513          	li	a0,4
    80005650:	66552593          	slti	a1,a0,1637
    80005654:	7cb13423          	sd	a1,1992(sp)
    80005658:	00100293          	li	t0,1
    8000565c:	00b28463          	beq	t0,a1,80005664 <inst_528>
    80005660:	9c5fa06f          	j	80000024 <rvtest_error>

0000000080005664 <inst_528>:
    80005664:	00400513          	li	a0,4
    80005668:	02c52593          	slti	a1,a0,44
    8000566c:	7cb13823          	sd	a1,2000(sp)
    80005670:	00100293          	li	t0,1
    80005674:	00b28463          	beq	t0,a1,8000567c <inst_529>
    80005678:	9adfa06f          	j	80000024 <rvtest_error>

000000008000567c <inst_529>:
    8000567c:	00400513          	li	a0,4
    80005680:	55652593          	slti	a1,a0,1366
    80005684:	7cb13c23          	sd	a1,2008(sp)
    80005688:	00100293          	li	t0,1
    8000568c:	00b28463          	beq	t0,a1,80005694 <inst_530>
    80005690:	995fa06f          	j	80000024 <rvtest_error>

0000000080005694 <inst_530>:
    80005694:	00400513          	li	a0,4
    80005698:	aab52593          	slti	a1,a0,-1365
    8000569c:	7eb13023          	sd	a1,2016(sp)
    800056a0:	00000293          	li	t0,0
    800056a4:	00b28463          	beq	t0,a1,800056ac <inst_531>
    800056a8:	97dfa06f          	j	80000024 <rvtest_error>

00000000800056ac <inst_531>:
    800056ac:	00400513          	li	a0,4
    800056b0:	00652593          	slti	a1,a0,6
    800056b4:	7eb13423          	sd	a1,2024(sp)
    800056b8:	00100293          	li	t0,1
    800056bc:	00b28463          	beq	t0,a1,800056c4 <inst_532>
    800056c0:	965fa06f          	j	80000024 <rvtest_error>

00000000800056c4 <inst_532>:
    800056c4:	00400513          	li	a0,4
    800056c8:	33452593          	slti	a1,a0,820
    800056cc:	7eb13823          	sd	a1,2032(sp)
    800056d0:	00100293          	li	t0,1
    800056d4:	00b28463          	beq	t0,a1,800056dc <inst_533>
    800056d8:	94dfa06f          	j	80000024 <rvtest_error>

00000000800056dc <inst_533>:
    800056dc:	00400513          	li	a0,4
    800056e0:	66752593          	slti	a1,a0,1639
    800056e4:	7eb13c23          	sd	a1,2040(sp)
    800056e8:	00100293          	li	t0,1
    800056ec:	00b28463          	beq	t0,a1,800056f4 <inst_533+0x18>
    800056f0:	935fa06f          	j	80000024 <rvtest_error>
    800056f4:	00000013          	nop
    800056f8:	00000013          	nop
    800056fc:	00000013          	nop
    80005700:	00004117          	auipc	sp,0x4
    80005704:	9b810113          	addi	sp,sp,-1608 # 800090b8 <signature_x2_2>
    80005708:	00000013          	nop
    8000570c:	00000013          	nop
    80005710:	00000013          	nop
    80005714:	00000013          	nop
    80005718:	00000013          	nop
    8000571c:	00000013          	nop

0000000080005720 <inst_534>:
    80005720:	00400513          	li	a0,4
    80005724:	fd452593          	slti	a1,a0,-44
    80005728:	00b13023          	sd	a1,0(sp)
    8000572c:	00000293          	li	t0,0
    80005730:	00b28463          	beq	t0,a1,80005738 <inst_535>
    80005734:	8f1fa06f          	j	80000024 <rvtest_error>

0000000080005738 <inst_535>:
    80005738:	00400513          	li	a0,4
    8000573c:	02e52593          	slti	a1,a0,46
    80005740:	00b13423          	sd	a1,8(sp)
    80005744:	00100293          	li	t0,1
    80005748:	00b28463          	beq	t0,a1,80005750 <inst_536>
    8000574c:	8d9fa06f          	j	80000024 <rvtest_error>

0000000080005750 <inst_536>:
    80005750:	33333537          	lui	a0,0x33333
    80005754:	33350513          	addi	a0,a0,819 # 33333333 <absimmsh+0x27862586>
    80005758:	00b51513          	slli	a0,a0,0xb
    8000575c:	19950513          	addi	a0,a0,409
    80005760:	00b51513          	slli	a0,a0,0xb
    80005764:	4cc50513          	addi	a0,a0,1228
    80005768:	00a51513          	slli	a0,a0,0xa
    8000576c:	33250513          	addi	a0,a0,818
    80005770:	00352593          	slti	a1,a0,3
    80005774:	00b13823          	sd	a1,16(sp)
    80005778:	00000293          	li	t0,0
    8000577c:	00b28463          	beq	t0,a1,80005784 <inst_537>
    80005780:	8a5fa06f          	j	80000024 <rvtest_error>

0000000080005784 <inst_537>:
    80005784:	33333537          	lui	a0,0x33333
    80005788:	33350513          	addi	a0,a0,819 # 33333333 <absimmsh+0x27862586>
    8000578c:	00b51513          	slli	a0,a0,0xb
    80005790:	19950513          	addi	a0,a0,409
    80005794:	00b51513          	slli	a0,a0,0xb
    80005798:	4cc50513          	addi	a0,a0,1228
    8000579c:	00a51513          	slli	a0,a0,0xa
    800057a0:	33250513          	addi	a0,a0,818
    800057a4:	55552593          	slti	a1,a0,1365
    800057a8:	00b13c23          	sd	a1,24(sp)
    800057ac:	00000293          	li	t0,0
    800057b0:	00b28463          	beq	t0,a1,800057b8 <inst_538>
    800057b4:	871fa06f          	j	80000024 <rvtest_error>

00000000800057b8 <inst_538>:
    800057b8:	33333537          	lui	a0,0x33333
    800057bc:	33350513          	addi	a0,a0,819 # 33333333 <absimmsh+0x27862586>
    800057c0:	00b51513          	slli	a0,a0,0xb
    800057c4:	19950513          	addi	a0,a0,409
    800057c8:	00b51513          	slli	a0,a0,0xb
    800057cc:	4cc50513          	addi	a0,a0,1228
    800057d0:	00a51513          	slli	a0,a0,0xa
    800057d4:	33250513          	addi	a0,a0,818
    800057d8:	aaa52593          	slti	a1,a0,-1366
    800057dc:	02b13023          	sd	a1,32(sp)
    800057e0:	00000293          	li	t0,0
    800057e4:	00b28463          	beq	t0,a1,800057ec <inst_539>
    800057e8:	83dfa06f          	j	80000024 <rvtest_error>

00000000800057ec <inst_539>:
    800057ec:	33333537          	lui	a0,0x33333
    800057f0:	33350513          	addi	a0,a0,819 # 33333333 <absimmsh+0x27862586>
    800057f4:	00b51513          	slli	a0,a0,0xb
    800057f8:	19950513          	addi	a0,a0,409
    800057fc:	00b51513          	slli	a0,a0,0xb
    80005800:	4cc50513          	addi	a0,a0,1228
    80005804:	00a51513          	slli	a0,a0,0xa
    80005808:	33250513          	addi	a0,a0,818
    8000580c:	00552593          	slti	a1,a0,5
    80005810:	02b13423          	sd	a1,40(sp)
    80005814:	00000293          	li	t0,0
    80005818:	00b28463          	beq	t0,a1,80005820 <inst_540>
    8000581c:	809fa06f          	j	80000024 <rvtest_error>

0000000080005820 <inst_540>:
    80005820:	33333537          	lui	a0,0x33333
    80005824:	33350513          	addi	a0,a0,819 # 33333333 <absimmsh+0x27862586>
    80005828:	00b51513          	slli	a0,a0,0xb
    8000582c:	19950513          	addi	a0,a0,409
    80005830:	00b51513          	slli	a0,a0,0xb
    80005834:	4cc50513          	addi	a0,a0,1228
    80005838:	00a51513          	slli	a0,a0,0xa
    8000583c:	33250513          	addi	a0,a0,818
    80005840:	33352593          	slti	a1,a0,819
    80005844:	02b13823          	sd	a1,48(sp)
    80005848:	00000293          	li	t0,0
    8000584c:	00b28463          	beq	t0,a1,80005854 <inst_541>
    80005850:	fd4fa06f          	j	80000024 <rvtest_error>

0000000080005854 <inst_541>:
    80005854:	33333537          	lui	a0,0x33333
    80005858:	33350513          	addi	a0,a0,819 # 33333333 <absimmsh+0x27862586>
    8000585c:	00b51513          	slli	a0,a0,0xb
    80005860:	19950513          	addi	a0,a0,409
    80005864:	00b51513          	slli	a0,a0,0xb
    80005868:	4cc50513          	addi	a0,a0,1228
    8000586c:	00a51513          	slli	a0,a0,0xa
    80005870:	33250513          	addi	a0,a0,818
    80005874:	66652593          	slti	a1,a0,1638
    80005878:	02b13c23          	sd	a1,56(sp)
    8000587c:	00000293          	li	t0,0
    80005880:	00b28463          	beq	t0,a1,80005888 <inst_542>
    80005884:	fa0fa06f          	j	80000024 <rvtest_error>

0000000080005888 <inst_542>:
    80005888:	33333537          	lui	a0,0x33333
    8000588c:	33350513          	addi	a0,a0,819 # 33333333 <absimmsh+0x27862586>
    80005890:	00b51513          	slli	a0,a0,0xb
    80005894:	19950513          	addi	a0,a0,409
    80005898:	00b51513          	slli	a0,a0,0xb
    8000589c:	4cc50513          	addi	a0,a0,1228
    800058a0:	00a51513          	slli	a0,a0,0xa
    800058a4:	33250513          	addi	a0,a0,818
    800058a8:	fd352593          	slti	a1,a0,-45
    800058ac:	04b13023          	sd	a1,64(sp)
    800058b0:	00000293          	li	t0,0
    800058b4:	00b28463          	beq	t0,a1,800058bc <inst_543>
    800058b8:	f6cfa06f          	j	80000024 <rvtest_error>

00000000800058bc <inst_543>:
    800058bc:	33333537          	lui	a0,0x33333
    800058c0:	33350513          	addi	a0,a0,819 # 33333333 <absimmsh+0x27862586>
    800058c4:	00b51513          	slli	a0,a0,0xb
    800058c8:	19950513          	addi	a0,a0,409
    800058cc:	00b51513          	slli	a0,a0,0xb
    800058d0:	4cc50513          	addi	a0,a0,1228
    800058d4:	00a51513          	slli	a0,a0,0xa
    800058d8:	33250513          	addi	a0,a0,818
    800058dc:	02d52593          	slti	a1,a0,45
    800058e0:	04b13423          	sd	a1,72(sp)
    800058e4:	00000293          	li	t0,0
    800058e8:	00b28463          	beq	t0,a1,800058f0 <inst_544>
    800058ec:	f38fa06f          	j	80000024 <rvtest_error>

00000000800058f0 <inst_544>:
    800058f0:	33333537          	lui	a0,0x33333
    800058f4:	33350513          	addi	a0,a0,819 # 33333333 <absimmsh+0x27862586>
    800058f8:	00b51513          	slli	a0,a0,0xb
    800058fc:	19950513          	addi	a0,a0,409
    80005900:	00b51513          	slli	a0,a0,0xb
    80005904:	4cc50513          	addi	a0,a0,1228
    80005908:	00a51513          	slli	a0,a0,0xa
    8000590c:	33250513          	addi	a0,a0,818
    80005910:	00252593          	slti	a1,a0,2
    80005914:	04b13823          	sd	a1,80(sp)
    80005918:	00000293          	li	t0,0
    8000591c:	00b28463          	beq	t0,a1,80005924 <inst_545>
    80005920:	f04fa06f          	j	80000024 <rvtest_error>

0000000080005924 <inst_545>:
    80005924:	33333537          	lui	a0,0x33333
    80005928:	33350513          	addi	a0,a0,819 # 33333333 <absimmsh+0x27862586>
    8000592c:	00b51513          	slli	a0,a0,0xb
    80005930:	19950513          	addi	a0,a0,409
    80005934:	00b51513          	slli	a0,a0,0xb
    80005938:	4cc50513          	addi	a0,a0,1228
    8000593c:	00a51513          	slli	a0,a0,0xa
    80005940:	33250513          	addi	a0,a0,818
    80005944:	55452593          	slti	a1,a0,1364
    80005948:	04b13c23          	sd	a1,88(sp)
    8000594c:	00000293          	li	t0,0
    80005950:	00b28463          	beq	t0,a1,80005958 <inst_546>
    80005954:	ed0fa06f          	j	80000024 <rvtest_error>

0000000080005958 <inst_546>:
    80005958:	33333537          	lui	a0,0x33333
    8000595c:	33350513          	addi	a0,a0,819 # 33333333 <absimmsh+0x27862586>
    80005960:	00b51513          	slli	a0,a0,0xb
    80005964:	19950513          	addi	a0,a0,409
    80005968:	00b51513          	slli	a0,a0,0xb
    8000596c:	4cc50513          	addi	a0,a0,1228
    80005970:	00a51513          	slli	a0,a0,0xa
    80005974:	33250513          	addi	a0,a0,818
    80005978:	00052593          	slti	a1,a0,0
    8000597c:	06b13023          	sd	a1,96(sp)
    80005980:	00000293          	li	t0,0
    80005984:	00b28463          	beq	t0,a1,8000598c <inst_547>
    80005988:	e9cfa06f          	j	80000024 <rvtest_error>

000000008000598c <inst_547>:
    8000598c:	33333537          	lui	a0,0x33333
    80005990:	33350513          	addi	a0,a0,819 # 33333333 <absimmsh+0x27862586>
    80005994:	00b51513          	slli	a0,a0,0xb
    80005998:	19950513          	addi	a0,a0,409
    8000599c:	00b51513          	slli	a0,a0,0xb
    800059a0:	4cc50513          	addi	a0,a0,1228
    800059a4:	00a51513          	slli	a0,a0,0xa
    800059a8:	33250513          	addi	a0,a0,818
    800059ac:	00452593          	slti	a1,a0,4
    800059b0:	06b13423          	sd	a1,104(sp)
    800059b4:	00000293          	li	t0,0
    800059b8:	00b28463          	beq	t0,a1,800059c0 <inst_548>
    800059bc:	e68fa06f          	j	80000024 <rvtest_error>

00000000800059c0 <inst_548>:
    800059c0:	33333537          	lui	a0,0x33333
    800059c4:	33350513          	addi	a0,a0,819 # 33333333 <absimmsh+0x27862586>
    800059c8:	00b51513          	slli	a0,a0,0xb
    800059cc:	19950513          	addi	a0,a0,409
    800059d0:	00b51513          	slli	a0,a0,0xb
    800059d4:	4cc50513          	addi	a0,a0,1228
    800059d8:	00a51513          	slli	a0,a0,0xa
    800059dc:	33250513          	addi	a0,a0,818
    800059e0:	33252593          	slti	a1,a0,818
    800059e4:	06b13823          	sd	a1,112(sp)
    800059e8:	00000293          	li	t0,0
    800059ec:	00b28463          	beq	t0,a1,800059f4 <inst_549>
    800059f0:	e34fa06f          	j	80000024 <rvtest_error>

00000000800059f4 <inst_549>:
    800059f4:	33333537          	lui	a0,0x33333
    800059f8:	33350513          	addi	a0,a0,819 # 33333333 <absimmsh+0x27862586>
    800059fc:	00b51513          	slli	a0,a0,0xb
    80005a00:	19950513          	addi	a0,a0,409
    80005a04:	00b51513          	slli	a0,a0,0xb
    80005a08:	4cc50513          	addi	a0,a0,1228
    80005a0c:	00a51513          	slli	a0,a0,0xa
    80005a10:	33250513          	addi	a0,a0,818
    80005a14:	66552593          	slti	a1,a0,1637
    80005a18:	06b13c23          	sd	a1,120(sp)
    80005a1c:	00000293          	li	t0,0
    80005a20:	00b28463          	beq	t0,a1,80005a28 <inst_550>
    80005a24:	e00fa06f          	j	80000024 <rvtest_error>

0000000080005a28 <inst_550>:
    80005a28:	33333537          	lui	a0,0x33333
    80005a2c:	33350513          	addi	a0,a0,819 # 33333333 <absimmsh+0x27862586>
    80005a30:	00b51513          	slli	a0,a0,0xb
    80005a34:	19950513          	addi	a0,a0,409
    80005a38:	00b51513          	slli	a0,a0,0xb
    80005a3c:	4cc50513          	addi	a0,a0,1228
    80005a40:	00a51513          	slli	a0,a0,0xa
    80005a44:	33250513          	addi	a0,a0,818
    80005a48:	02c52593          	slti	a1,a0,44
    80005a4c:	08b13023          	sd	a1,128(sp)
    80005a50:	00000293          	li	t0,0
    80005a54:	00b28463          	beq	t0,a1,80005a5c <inst_551>
    80005a58:	dccfa06f          	j	80000024 <rvtest_error>

0000000080005a5c <inst_551>:
    80005a5c:	33333537          	lui	a0,0x33333
    80005a60:	33350513          	addi	a0,a0,819 # 33333333 <absimmsh+0x27862586>
    80005a64:	00b51513          	slli	a0,a0,0xb
    80005a68:	19950513          	addi	a0,a0,409
    80005a6c:	00b51513          	slli	a0,a0,0xb
    80005a70:	4cc50513          	addi	a0,a0,1228
    80005a74:	00a51513          	slli	a0,a0,0xa
    80005a78:	33250513          	addi	a0,a0,818
    80005a7c:	55652593          	slti	a1,a0,1366
    80005a80:	08b13423          	sd	a1,136(sp)
    80005a84:	00000293          	li	t0,0
    80005a88:	00b28463          	beq	t0,a1,80005a90 <inst_552>
    80005a8c:	d98fa06f          	j	80000024 <rvtest_error>

0000000080005a90 <inst_552>:
    80005a90:	33333537          	lui	a0,0x33333
    80005a94:	33350513          	addi	a0,a0,819 # 33333333 <absimmsh+0x27862586>
    80005a98:	00b51513          	slli	a0,a0,0xb
    80005a9c:	19950513          	addi	a0,a0,409
    80005aa0:	00b51513          	slli	a0,a0,0xb
    80005aa4:	4cc50513          	addi	a0,a0,1228
    80005aa8:	00a51513          	slli	a0,a0,0xa
    80005aac:	33250513          	addi	a0,a0,818
    80005ab0:	aab52593          	slti	a1,a0,-1365
    80005ab4:	08b13823          	sd	a1,144(sp)
    80005ab8:	00000293          	li	t0,0
    80005abc:	00b28463          	beq	t0,a1,80005ac4 <inst_553>
    80005ac0:	d64fa06f          	j	80000024 <rvtest_error>

0000000080005ac4 <inst_553>:
    80005ac4:	33333537          	lui	a0,0x33333
    80005ac8:	33350513          	addi	a0,a0,819 # 33333333 <absimmsh+0x27862586>
    80005acc:	00b51513          	slli	a0,a0,0xb
    80005ad0:	19950513          	addi	a0,a0,409
    80005ad4:	00b51513          	slli	a0,a0,0xb
    80005ad8:	4cc50513          	addi	a0,a0,1228
    80005adc:	00a51513          	slli	a0,a0,0xa
    80005ae0:	33250513          	addi	a0,a0,818
    80005ae4:	00652593          	slti	a1,a0,6
    80005ae8:	08b13c23          	sd	a1,152(sp)
    80005aec:	00000293          	li	t0,0
    80005af0:	00b28463          	beq	t0,a1,80005af8 <inst_554>
    80005af4:	d30fa06f          	j	80000024 <rvtest_error>

0000000080005af8 <inst_554>:
    80005af8:	33333537          	lui	a0,0x33333
    80005afc:	33350513          	addi	a0,a0,819 # 33333333 <absimmsh+0x27862586>
    80005b00:	00b51513          	slli	a0,a0,0xb
    80005b04:	19950513          	addi	a0,a0,409
    80005b08:	00b51513          	slli	a0,a0,0xb
    80005b0c:	4cc50513          	addi	a0,a0,1228
    80005b10:	00a51513          	slli	a0,a0,0xa
    80005b14:	33250513          	addi	a0,a0,818
    80005b18:	33452593          	slti	a1,a0,820
    80005b1c:	0ab13023          	sd	a1,160(sp)
    80005b20:	00000293          	li	t0,0
    80005b24:	00b28463          	beq	t0,a1,80005b2c <inst_555>
    80005b28:	cfcfa06f          	j	80000024 <rvtest_error>

0000000080005b2c <inst_555>:
    80005b2c:	33333537          	lui	a0,0x33333
    80005b30:	33350513          	addi	a0,a0,819 # 33333333 <absimmsh+0x27862586>
    80005b34:	00b51513          	slli	a0,a0,0xb
    80005b38:	19950513          	addi	a0,a0,409
    80005b3c:	00b51513          	slli	a0,a0,0xb
    80005b40:	4cc50513          	addi	a0,a0,1228
    80005b44:	00a51513          	slli	a0,a0,0xa
    80005b48:	33250513          	addi	a0,a0,818
    80005b4c:	66752593          	slti	a1,a0,1639
    80005b50:	0ab13423          	sd	a1,168(sp)
    80005b54:	00000293          	li	t0,0
    80005b58:	00b28463          	beq	t0,a1,80005b60 <inst_556>
    80005b5c:	cc8fa06f          	j	80000024 <rvtest_error>

0000000080005b60 <inst_556>:
    80005b60:	33333537          	lui	a0,0x33333
    80005b64:	33350513          	addi	a0,a0,819 # 33333333 <absimmsh+0x27862586>
    80005b68:	00b51513          	slli	a0,a0,0xb
    80005b6c:	19950513          	addi	a0,a0,409
    80005b70:	00b51513          	slli	a0,a0,0xb
    80005b74:	4cc50513          	addi	a0,a0,1228
    80005b78:	00a51513          	slli	a0,a0,0xa
    80005b7c:	33250513          	addi	a0,a0,818
    80005b80:	fd452593          	slti	a1,a0,-44
    80005b84:	0ab13823          	sd	a1,176(sp)
    80005b88:	00000293          	li	t0,0
    80005b8c:	00b28463          	beq	t0,a1,80005b94 <inst_557>
    80005b90:	c94fa06f          	j	80000024 <rvtest_error>

0000000080005b94 <inst_557>:
    80005b94:	33333537          	lui	a0,0x33333
    80005b98:	33350513          	addi	a0,a0,819 # 33333333 <absimmsh+0x27862586>
    80005b9c:	00b51513          	slli	a0,a0,0xb
    80005ba0:	19950513          	addi	a0,a0,409
    80005ba4:	00b51513          	slli	a0,a0,0xb
    80005ba8:	4cc50513          	addi	a0,a0,1228
    80005bac:	00a51513          	slli	a0,a0,0xa
    80005bb0:	33250513          	addi	a0,a0,818
    80005bb4:	02e52593          	slti	a1,a0,46
    80005bb8:	0ab13c23          	sd	a1,184(sp)
    80005bbc:	00000293          	li	t0,0
    80005bc0:	00b28463          	beq	t0,a1,80005bc8 <inst_558>
    80005bc4:	c60fa06f          	j	80000024 <rvtest_error>

0000000080005bc8 <inst_558>:
    80005bc8:	66666537          	lui	a0,0x66666
    80005bcc:	66650513          	addi	a0,a0,1638 # 66666666 <absimmsh+0x5ab958b9>
    80005bd0:	00b51513          	slli	a0,a0,0xb
    80005bd4:	33350513          	addi	a0,a0,819
    80005bd8:	00b51513          	slli	a0,a0,0xb
    80005bdc:	19950513          	addi	a0,a0,409
    80005be0:	00a51513          	slli	a0,a0,0xa
    80005be4:	26550513          	addi	a0,a0,613
    80005be8:	00352593          	slti	a1,a0,3
    80005bec:	0cb13023          	sd	a1,192(sp)
    80005bf0:	00000293          	li	t0,0
    80005bf4:	00b28463          	beq	t0,a1,80005bfc <inst_559>
    80005bf8:	c2cfa06f          	j	80000024 <rvtest_error>

0000000080005bfc <inst_559>:
    80005bfc:	66666537          	lui	a0,0x66666
    80005c00:	66650513          	addi	a0,a0,1638 # 66666666 <absimmsh+0x5ab958b9>
    80005c04:	00b51513          	slli	a0,a0,0xb
    80005c08:	33350513          	addi	a0,a0,819
    80005c0c:	00b51513          	slli	a0,a0,0xb
    80005c10:	19950513          	addi	a0,a0,409
    80005c14:	00a51513          	slli	a0,a0,0xa
    80005c18:	26550513          	addi	a0,a0,613
    80005c1c:	55552593          	slti	a1,a0,1365
    80005c20:	0cb13423          	sd	a1,200(sp)
    80005c24:	00000293          	li	t0,0
    80005c28:	00b28463          	beq	t0,a1,80005c30 <inst_560>
    80005c2c:	bf8fa06f          	j	80000024 <rvtest_error>

0000000080005c30 <inst_560>:
    80005c30:	66666537          	lui	a0,0x66666
    80005c34:	66650513          	addi	a0,a0,1638 # 66666666 <absimmsh+0x5ab958b9>
    80005c38:	00b51513          	slli	a0,a0,0xb
    80005c3c:	33350513          	addi	a0,a0,819
    80005c40:	00b51513          	slli	a0,a0,0xb
    80005c44:	19950513          	addi	a0,a0,409
    80005c48:	00a51513          	slli	a0,a0,0xa
    80005c4c:	26550513          	addi	a0,a0,613
    80005c50:	aaa52593          	slti	a1,a0,-1366
    80005c54:	0cb13823          	sd	a1,208(sp)
    80005c58:	00000293          	li	t0,0
    80005c5c:	00b28463          	beq	t0,a1,80005c64 <inst_561>
    80005c60:	bc4fa06f          	j	80000024 <rvtest_error>

0000000080005c64 <inst_561>:
    80005c64:	66666537          	lui	a0,0x66666
    80005c68:	66650513          	addi	a0,a0,1638 # 66666666 <absimmsh+0x5ab958b9>
    80005c6c:	00b51513          	slli	a0,a0,0xb
    80005c70:	33350513          	addi	a0,a0,819
    80005c74:	00b51513          	slli	a0,a0,0xb
    80005c78:	19950513          	addi	a0,a0,409
    80005c7c:	00a51513          	slli	a0,a0,0xa
    80005c80:	26550513          	addi	a0,a0,613
    80005c84:	00552593          	slti	a1,a0,5
    80005c88:	0cb13c23          	sd	a1,216(sp)
    80005c8c:	00000293          	li	t0,0
    80005c90:	00b28463          	beq	t0,a1,80005c98 <inst_562>
    80005c94:	b90fa06f          	j	80000024 <rvtest_error>

0000000080005c98 <inst_562>:
    80005c98:	66666537          	lui	a0,0x66666
    80005c9c:	66650513          	addi	a0,a0,1638 # 66666666 <absimmsh+0x5ab958b9>
    80005ca0:	00b51513          	slli	a0,a0,0xb
    80005ca4:	33350513          	addi	a0,a0,819
    80005ca8:	00b51513          	slli	a0,a0,0xb
    80005cac:	19950513          	addi	a0,a0,409
    80005cb0:	00a51513          	slli	a0,a0,0xa
    80005cb4:	26550513          	addi	a0,a0,613
    80005cb8:	33352593          	slti	a1,a0,819
    80005cbc:	0eb13023          	sd	a1,224(sp)
    80005cc0:	00000293          	li	t0,0
    80005cc4:	00b28463          	beq	t0,a1,80005ccc <inst_563>
    80005cc8:	b5cfa06f          	j	80000024 <rvtest_error>

0000000080005ccc <inst_563>:
    80005ccc:	66666537          	lui	a0,0x66666
    80005cd0:	66650513          	addi	a0,a0,1638 # 66666666 <absimmsh+0x5ab958b9>
    80005cd4:	00b51513          	slli	a0,a0,0xb
    80005cd8:	33350513          	addi	a0,a0,819
    80005cdc:	00b51513          	slli	a0,a0,0xb
    80005ce0:	19950513          	addi	a0,a0,409
    80005ce4:	00a51513          	slli	a0,a0,0xa
    80005ce8:	26550513          	addi	a0,a0,613
    80005cec:	66652593          	slti	a1,a0,1638
    80005cf0:	0eb13423          	sd	a1,232(sp)
    80005cf4:	00000293          	li	t0,0
    80005cf8:	00b28463          	beq	t0,a1,80005d00 <inst_564>
    80005cfc:	b28fa06f          	j	80000024 <rvtest_error>

0000000080005d00 <inst_564>:
    80005d00:	66666537          	lui	a0,0x66666
    80005d04:	66650513          	addi	a0,a0,1638 # 66666666 <absimmsh+0x5ab958b9>
    80005d08:	00b51513          	slli	a0,a0,0xb
    80005d0c:	33350513          	addi	a0,a0,819
    80005d10:	00b51513          	slli	a0,a0,0xb
    80005d14:	19950513          	addi	a0,a0,409
    80005d18:	00a51513          	slli	a0,a0,0xa
    80005d1c:	26550513          	addi	a0,a0,613
    80005d20:	fd352593          	slti	a1,a0,-45
    80005d24:	0eb13823          	sd	a1,240(sp)
    80005d28:	00000293          	li	t0,0
    80005d2c:	00b28463          	beq	t0,a1,80005d34 <inst_565>
    80005d30:	af4fa06f          	j	80000024 <rvtest_error>

0000000080005d34 <inst_565>:
    80005d34:	66666537          	lui	a0,0x66666
    80005d38:	66650513          	addi	a0,a0,1638 # 66666666 <absimmsh+0x5ab958b9>
    80005d3c:	00b51513          	slli	a0,a0,0xb
    80005d40:	33350513          	addi	a0,a0,819
    80005d44:	00b51513          	slli	a0,a0,0xb
    80005d48:	19950513          	addi	a0,a0,409
    80005d4c:	00a51513          	slli	a0,a0,0xa
    80005d50:	26550513          	addi	a0,a0,613
    80005d54:	02d52593          	slti	a1,a0,45
    80005d58:	0eb13c23          	sd	a1,248(sp)
    80005d5c:	00000293          	li	t0,0
    80005d60:	00b28463          	beq	t0,a1,80005d68 <inst_566>
    80005d64:	ac0fa06f          	j	80000024 <rvtest_error>

0000000080005d68 <inst_566>:
    80005d68:	66666537          	lui	a0,0x66666
    80005d6c:	66650513          	addi	a0,a0,1638 # 66666666 <absimmsh+0x5ab958b9>
    80005d70:	00b51513          	slli	a0,a0,0xb
    80005d74:	33350513          	addi	a0,a0,819
    80005d78:	00b51513          	slli	a0,a0,0xb
    80005d7c:	19950513          	addi	a0,a0,409
    80005d80:	00a51513          	slli	a0,a0,0xa
    80005d84:	26550513          	addi	a0,a0,613
    80005d88:	00252593          	slti	a1,a0,2
    80005d8c:	10b13023          	sd	a1,256(sp)
    80005d90:	00000293          	li	t0,0
    80005d94:	00b28463          	beq	t0,a1,80005d9c <inst_567>
    80005d98:	a8cfa06f          	j	80000024 <rvtest_error>

0000000080005d9c <inst_567>:
    80005d9c:	66666537          	lui	a0,0x66666
    80005da0:	66650513          	addi	a0,a0,1638 # 66666666 <absimmsh+0x5ab958b9>
    80005da4:	00b51513          	slli	a0,a0,0xb
    80005da8:	33350513          	addi	a0,a0,819
    80005dac:	00b51513          	slli	a0,a0,0xb
    80005db0:	19950513          	addi	a0,a0,409
    80005db4:	00a51513          	slli	a0,a0,0xa
    80005db8:	26550513          	addi	a0,a0,613
    80005dbc:	55452593          	slti	a1,a0,1364
    80005dc0:	10b13423          	sd	a1,264(sp)
    80005dc4:	00000293          	li	t0,0
    80005dc8:	00b28463          	beq	t0,a1,80005dd0 <inst_568>
    80005dcc:	a58fa06f          	j	80000024 <rvtest_error>

0000000080005dd0 <inst_568>:
    80005dd0:	66666537          	lui	a0,0x66666
    80005dd4:	66650513          	addi	a0,a0,1638 # 66666666 <absimmsh+0x5ab958b9>
    80005dd8:	00b51513          	slli	a0,a0,0xb
    80005ddc:	33350513          	addi	a0,a0,819
    80005de0:	00b51513          	slli	a0,a0,0xb
    80005de4:	19950513          	addi	a0,a0,409
    80005de8:	00a51513          	slli	a0,a0,0xa
    80005dec:	26550513          	addi	a0,a0,613
    80005df0:	00052593          	slti	a1,a0,0
    80005df4:	10b13823          	sd	a1,272(sp)
    80005df8:	00000293          	li	t0,0
    80005dfc:	00b28463          	beq	t0,a1,80005e04 <inst_569>
    80005e00:	a24fa06f          	j	80000024 <rvtest_error>

0000000080005e04 <inst_569>:
    80005e04:	66666537          	lui	a0,0x66666
    80005e08:	66650513          	addi	a0,a0,1638 # 66666666 <absimmsh+0x5ab958b9>
    80005e0c:	00b51513          	slli	a0,a0,0xb
    80005e10:	33350513          	addi	a0,a0,819
    80005e14:	00b51513          	slli	a0,a0,0xb
    80005e18:	19950513          	addi	a0,a0,409
    80005e1c:	00a51513          	slli	a0,a0,0xa
    80005e20:	26550513          	addi	a0,a0,613
    80005e24:	00452593          	slti	a1,a0,4
    80005e28:	10b13c23          	sd	a1,280(sp)
    80005e2c:	00000293          	li	t0,0
    80005e30:	00b28463          	beq	t0,a1,80005e38 <inst_570>
    80005e34:	9f0fa06f          	j	80000024 <rvtest_error>

0000000080005e38 <inst_570>:
    80005e38:	66666537          	lui	a0,0x66666
    80005e3c:	66650513          	addi	a0,a0,1638 # 66666666 <absimmsh+0x5ab958b9>
    80005e40:	00b51513          	slli	a0,a0,0xb
    80005e44:	33350513          	addi	a0,a0,819
    80005e48:	00b51513          	slli	a0,a0,0xb
    80005e4c:	19950513          	addi	a0,a0,409
    80005e50:	00a51513          	slli	a0,a0,0xa
    80005e54:	26550513          	addi	a0,a0,613
    80005e58:	33252593          	slti	a1,a0,818
    80005e5c:	12b13023          	sd	a1,288(sp)
    80005e60:	00000293          	li	t0,0
    80005e64:	00b28463          	beq	t0,a1,80005e6c <inst_571>
    80005e68:	9bcfa06f          	j	80000024 <rvtest_error>

0000000080005e6c <inst_571>:
    80005e6c:	66666537          	lui	a0,0x66666
    80005e70:	66650513          	addi	a0,a0,1638 # 66666666 <absimmsh+0x5ab958b9>
    80005e74:	00b51513          	slli	a0,a0,0xb
    80005e78:	33350513          	addi	a0,a0,819
    80005e7c:	00b51513          	slli	a0,a0,0xb
    80005e80:	19950513          	addi	a0,a0,409
    80005e84:	00a51513          	slli	a0,a0,0xa
    80005e88:	26550513          	addi	a0,a0,613
    80005e8c:	66552593          	slti	a1,a0,1637
    80005e90:	12b13423          	sd	a1,296(sp)
    80005e94:	00000293          	li	t0,0
    80005e98:	00b28463          	beq	t0,a1,80005ea0 <inst_572>
    80005e9c:	988fa06f          	j	80000024 <rvtest_error>

0000000080005ea0 <inst_572>:
    80005ea0:	66666537          	lui	a0,0x66666
    80005ea4:	66650513          	addi	a0,a0,1638 # 66666666 <absimmsh+0x5ab958b9>
    80005ea8:	00b51513          	slli	a0,a0,0xb
    80005eac:	33350513          	addi	a0,a0,819
    80005eb0:	00b51513          	slli	a0,a0,0xb
    80005eb4:	19950513          	addi	a0,a0,409
    80005eb8:	00a51513          	slli	a0,a0,0xa
    80005ebc:	26550513          	addi	a0,a0,613
    80005ec0:	02c52593          	slti	a1,a0,44
    80005ec4:	12b13823          	sd	a1,304(sp)
    80005ec8:	00000293          	li	t0,0
    80005ecc:	00b28463          	beq	t0,a1,80005ed4 <inst_573>
    80005ed0:	954fa06f          	j	80000024 <rvtest_error>

0000000080005ed4 <inst_573>:
    80005ed4:	66666537          	lui	a0,0x66666
    80005ed8:	66650513          	addi	a0,a0,1638 # 66666666 <absimmsh+0x5ab958b9>
    80005edc:	00b51513          	slli	a0,a0,0xb
    80005ee0:	33350513          	addi	a0,a0,819
    80005ee4:	00b51513          	slli	a0,a0,0xb
    80005ee8:	19950513          	addi	a0,a0,409
    80005eec:	00a51513          	slli	a0,a0,0xa
    80005ef0:	26550513          	addi	a0,a0,613
    80005ef4:	55652593          	slti	a1,a0,1366
    80005ef8:	12b13c23          	sd	a1,312(sp)
    80005efc:	00000293          	li	t0,0
    80005f00:	00b28463          	beq	t0,a1,80005f08 <inst_574>
    80005f04:	920fa06f          	j	80000024 <rvtest_error>

0000000080005f08 <inst_574>:
    80005f08:	66666537          	lui	a0,0x66666
    80005f0c:	66650513          	addi	a0,a0,1638 # 66666666 <absimmsh+0x5ab958b9>
    80005f10:	00b51513          	slli	a0,a0,0xb
    80005f14:	33350513          	addi	a0,a0,819
    80005f18:	00b51513          	slli	a0,a0,0xb
    80005f1c:	19950513          	addi	a0,a0,409
    80005f20:	00a51513          	slli	a0,a0,0xa
    80005f24:	26550513          	addi	a0,a0,613
    80005f28:	aab52593          	slti	a1,a0,-1365
    80005f2c:	14b13023          	sd	a1,320(sp)
    80005f30:	00000293          	li	t0,0
    80005f34:	00b28463          	beq	t0,a1,80005f3c <inst_575>
    80005f38:	8ecfa06f          	j	80000024 <rvtest_error>

0000000080005f3c <inst_575>:
    80005f3c:	66666537          	lui	a0,0x66666
    80005f40:	66650513          	addi	a0,a0,1638 # 66666666 <absimmsh+0x5ab958b9>
    80005f44:	00b51513          	slli	a0,a0,0xb
    80005f48:	33350513          	addi	a0,a0,819
    80005f4c:	00b51513          	slli	a0,a0,0xb
    80005f50:	19950513          	addi	a0,a0,409
    80005f54:	00a51513          	slli	a0,a0,0xa
    80005f58:	26550513          	addi	a0,a0,613
    80005f5c:	00652593          	slti	a1,a0,6
    80005f60:	14b13423          	sd	a1,328(sp)
    80005f64:	00000293          	li	t0,0
    80005f68:	00b28463          	beq	t0,a1,80005f70 <inst_576>
    80005f6c:	8b8fa06f          	j	80000024 <rvtest_error>

0000000080005f70 <inst_576>:
    80005f70:	66666537          	lui	a0,0x66666
    80005f74:	66650513          	addi	a0,a0,1638 # 66666666 <absimmsh+0x5ab958b9>
    80005f78:	00b51513          	slli	a0,a0,0xb
    80005f7c:	33350513          	addi	a0,a0,819
    80005f80:	00b51513          	slli	a0,a0,0xb
    80005f84:	19950513          	addi	a0,a0,409
    80005f88:	00a51513          	slli	a0,a0,0xa
    80005f8c:	26550513          	addi	a0,a0,613
    80005f90:	33452593          	slti	a1,a0,820
    80005f94:	14b13823          	sd	a1,336(sp)
    80005f98:	00000293          	li	t0,0
    80005f9c:	00b28463          	beq	t0,a1,80005fa4 <inst_577>
    80005fa0:	884fa06f          	j	80000024 <rvtest_error>

0000000080005fa4 <inst_577>:
    80005fa4:	66666537          	lui	a0,0x66666
    80005fa8:	66650513          	addi	a0,a0,1638 # 66666666 <absimmsh+0x5ab958b9>
    80005fac:	00b51513          	slli	a0,a0,0xb
    80005fb0:	33350513          	addi	a0,a0,819
    80005fb4:	00b51513          	slli	a0,a0,0xb
    80005fb8:	19950513          	addi	a0,a0,409
    80005fbc:	00a51513          	slli	a0,a0,0xa
    80005fc0:	26550513          	addi	a0,a0,613
    80005fc4:	66752593          	slti	a1,a0,1639
    80005fc8:	14b13c23          	sd	a1,344(sp)
    80005fcc:	00000293          	li	t0,0
    80005fd0:	00b28463          	beq	t0,a1,80005fd8 <inst_578>
    80005fd4:	850fa06f          	j	80000024 <rvtest_error>

0000000080005fd8 <inst_578>:
    80005fd8:	66666537          	lui	a0,0x66666
    80005fdc:	66650513          	addi	a0,a0,1638 # 66666666 <absimmsh+0x5ab958b9>
    80005fe0:	00b51513          	slli	a0,a0,0xb
    80005fe4:	33350513          	addi	a0,a0,819
    80005fe8:	00b51513          	slli	a0,a0,0xb
    80005fec:	19950513          	addi	a0,a0,409
    80005ff0:	00a51513          	slli	a0,a0,0xa
    80005ff4:	26550513          	addi	a0,a0,613
    80005ff8:	fd452593          	slti	a1,a0,-44
    80005ffc:	16b13023          	sd	a1,352(sp)
    80006000:	00000293          	li	t0,0
    80006004:	00b28463          	beq	t0,a1,8000600c <inst_579>
    80006008:	81cfa06f          	j	80000024 <rvtest_error>

000000008000600c <inst_579>:
    8000600c:	66666537          	lui	a0,0x66666
    80006010:	66650513          	addi	a0,a0,1638 # 66666666 <absimmsh+0x5ab958b9>
    80006014:	00b51513          	slli	a0,a0,0xb
    80006018:	33350513          	addi	a0,a0,819
    8000601c:	00b51513          	slli	a0,a0,0xb
    80006020:	19950513          	addi	a0,a0,409
    80006024:	00a51513          	slli	a0,a0,0xa
    80006028:	26550513          	addi	a0,a0,613
    8000602c:	02e52593          	slti	a1,a0,46
    80006030:	16b13423          	sd	a1,360(sp)
    80006034:	00000293          	li	t0,0
    80006038:	00b28463          	beq	t0,a1,80006040 <inst_580>
    8000603c:	fe9f906f          	j	80000024 <rvtest_error>

0000000080006040 <inst_580>:
    80006040:	00000537          	lui	a0,0x0
    80006044:	00050513          	mv	a0,a0
    80006048:	00b51513          	slli	a0,a0,0xb
    8000604c:	5a850513          	addi	a0,a0,1448 # 5a8 <offset+0x310>
    80006050:	00b51513          	slli	a0,a0,0xb
    80006054:	13c50513          	addi	a0,a0,316
    80006058:	00a51513          	slli	a0,a0,0xa
    8000605c:	33250513          	addi	a0,a0,818
    80006060:	00352593          	slti	a1,a0,3
    80006064:	16b13823          	sd	a1,368(sp)
    80006068:	00000293          	li	t0,0
    8000606c:	00b28463          	beq	t0,a1,80006074 <inst_581>
    80006070:	fb5f906f          	j	80000024 <rvtest_error>

0000000080006074 <inst_581>:
    80006074:	00000537          	lui	a0,0x0
    80006078:	00050513          	mv	a0,a0
    8000607c:	00b51513          	slli	a0,a0,0xb
    80006080:	5a850513          	addi	a0,a0,1448 # 5a8 <offset+0x310>
    80006084:	00b51513          	slli	a0,a0,0xb
    80006088:	13c50513          	addi	a0,a0,316
    8000608c:	00a51513          	slli	a0,a0,0xa
    80006090:	33250513          	addi	a0,a0,818
    80006094:	55552593          	slti	a1,a0,1365
    80006098:	16b13c23          	sd	a1,376(sp)
    8000609c:	00000293          	li	t0,0
    800060a0:	00b28463          	beq	t0,a1,800060a8 <inst_582>
    800060a4:	f81f906f          	j	80000024 <rvtest_error>

00000000800060a8 <inst_582>:
    800060a8:	00000537          	lui	a0,0x0
    800060ac:	00050513          	mv	a0,a0
    800060b0:	00b51513          	slli	a0,a0,0xb
    800060b4:	5a850513          	addi	a0,a0,1448 # 5a8 <offset+0x310>
    800060b8:	00b51513          	slli	a0,a0,0xb
    800060bc:	13c50513          	addi	a0,a0,316
    800060c0:	00a51513          	slli	a0,a0,0xa
    800060c4:	33250513          	addi	a0,a0,818
    800060c8:	aaa52593          	slti	a1,a0,-1366
    800060cc:	18b13023          	sd	a1,384(sp)
    800060d0:	00000293          	li	t0,0
    800060d4:	00b28463          	beq	t0,a1,800060dc <inst_583>
    800060d8:	f4df906f          	j	80000024 <rvtest_error>

00000000800060dc <inst_583>:
    800060dc:	00000537          	lui	a0,0x0
    800060e0:	00050513          	mv	a0,a0
    800060e4:	00b51513          	slli	a0,a0,0xb
    800060e8:	5a850513          	addi	a0,a0,1448 # 5a8 <offset+0x310>
    800060ec:	00b51513          	slli	a0,a0,0xb
    800060f0:	13c50513          	addi	a0,a0,316
    800060f4:	00a51513          	slli	a0,a0,0xa
    800060f8:	33250513          	addi	a0,a0,818
    800060fc:	00552593          	slti	a1,a0,5
    80006100:	18b13423          	sd	a1,392(sp)
    80006104:	00000293          	li	t0,0
    80006108:	00b28463          	beq	t0,a1,80006110 <inst_584>
    8000610c:	f19f906f          	j	80000024 <rvtest_error>

0000000080006110 <inst_584>:
    80006110:	00000537          	lui	a0,0x0
    80006114:	00050513          	mv	a0,a0
    80006118:	00b51513          	slli	a0,a0,0xb
    8000611c:	5a850513          	addi	a0,a0,1448 # 5a8 <offset+0x310>
    80006120:	00b51513          	slli	a0,a0,0xb
    80006124:	13c50513          	addi	a0,a0,316
    80006128:	00a51513          	slli	a0,a0,0xa
    8000612c:	33250513          	addi	a0,a0,818
    80006130:	33352593          	slti	a1,a0,819
    80006134:	18b13823          	sd	a1,400(sp)
    80006138:	00000293          	li	t0,0
    8000613c:	00b28463          	beq	t0,a1,80006144 <inst_585>
    80006140:	ee5f906f          	j	80000024 <rvtest_error>

0000000080006144 <inst_585>:
    80006144:	00000537          	lui	a0,0x0
    80006148:	00050513          	mv	a0,a0
    8000614c:	00b51513          	slli	a0,a0,0xb
    80006150:	5a850513          	addi	a0,a0,1448 # 5a8 <offset+0x310>
    80006154:	00b51513          	slli	a0,a0,0xb
    80006158:	13c50513          	addi	a0,a0,316
    8000615c:	00a51513          	slli	a0,a0,0xa
    80006160:	33250513          	addi	a0,a0,818
    80006164:	66652593          	slti	a1,a0,1638
    80006168:	18b13c23          	sd	a1,408(sp)
    8000616c:	00000293          	li	t0,0
    80006170:	00b28463          	beq	t0,a1,80006178 <inst_586>
    80006174:	eb1f906f          	j	80000024 <rvtest_error>

0000000080006178 <inst_586>:
    80006178:	00000537          	lui	a0,0x0
    8000617c:	00050513          	mv	a0,a0
    80006180:	00b51513          	slli	a0,a0,0xb
    80006184:	5a850513          	addi	a0,a0,1448 # 5a8 <offset+0x310>
    80006188:	00b51513          	slli	a0,a0,0xb
    8000618c:	13c50513          	addi	a0,a0,316
    80006190:	00a51513          	slli	a0,a0,0xa
    80006194:	33250513          	addi	a0,a0,818
    80006198:	fd352593          	slti	a1,a0,-45
    8000619c:	1ab13023          	sd	a1,416(sp)
    800061a0:	00000293          	li	t0,0
    800061a4:	00b28463          	beq	t0,a1,800061ac <inst_587>
    800061a8:	e7df906f          	j	80000024 <rvtest_error>

00000000800061ac <inst_587>:
    800061ac:	00000537          	lui	a0,0x0
    800061b0:	00050513          	mv	a0,a0
    800061b4:	00b51513          	slli	a0,a0,0xb
    800061b8:	5a850513          	addi	a0,a0,1448 # 5a8 <offset+0x310>
    800061bc:	00b51513          	slli	a0,a0,0xb
    800061c0:	13c50513          	addi	a0,a0,316
    800061c4:	00a51513          	slli	a0,a0,0xa
    800061c8:	33250513          	addi	a0,a0,818
    800061cc:	02d52593          	slti	a1,a0,45
    800061d0:	1ab13423          	sd	a1,424(sp)
    800061d4:	00000293          	li	t0,0
    800061d8:	00b28463          	beq	t0,a1,800061e0 <inst_588>
    800061dc:	e49f906f          	j	80000024 <rvtest_error>

00000000800061e0 <inst_588>:
    800061e0:	00000537          	lui	a0,0x0
    800061e4:	00050513          	mv	a0,a0
    800061e8:	00b51513          	slli	a0,a0,0xb
    800061ec:	5a850513          	addi	a0,a0,1448 # 5a8 <offset+0x310>
    800061f0:	00b51513          	slli	a0,a0,0xb
    800061f4:	13c50513          	addi	a0,a0,316
    800061f8:	00a51513          	slli	a0,a0,0xa
    800061fc:	33250513          	addi	a0,a0,818
    80006200:	00252593          	slti	a1,a0,2
    80006204:	1ab13823          	sd	a1,432(sp)
    80006208:	00000293          	li	t0,0
    8000620c:	00b28463          	beq	t0,a1,80006214 <inst_589>
    80006210:	e15f906f          	j	80000024 <rvtest_error>

0000000080006214 <inst_589>:
    80006214:	00000537          	lui	a0,0x0
    80006218:	00050513          	mv	a0,a0
    8000621c:	00b51513          	slli	a0,a0,0xb
    80006220:	5a850513          	addi	a0,a0,1448 # 5a8 <offset+0x310>
    80006224:	00b51513          	slli	a0,a0,0xb
    80006228:	13c50513          	addi	a0,a0,316
    8000622c:	00a51513          	slli	a0,a0,0xa
    80006230:	33250513          	addi	a0,a0,818
    80006234:	55452593          	slti	a1,a0,1364
    80006238:	1ab13c23          	sd	a1,440(sp)
    8000623c:	00000293          	li	t0,0
    80006240:	00b28463          	beq	t0,a1,80006248 <inst_590>
    80006244:	de1f906f          	j	80000024 <rvtest_error>

0000000080006248 <inst_590>:
    80006248:	00000537          	lui	a0,0x0
    8000624c:	00050513          	mv	a0,a0
    80006250:	00b51513          	slli	a0,a0,0xb
    80006254:	5a850513          	addi	a0,a0,1448 # 5a8 <offset+0x310>
    80006258:	00b51513          	slli	a0,a0,0xb
    8000625c:	13c50513          	addi	a0,a0,316
    80006260:	00a51513          	slli	a0,a0,0xa
    80006264:	33250513          	addi	a0,a0,818
    80006268:	00052593          	slti	a1,a0,0
    8000626c:	1cb13023          	sd	a1,448(sp)
    80006270:	00000293          	li	t0,0
    80006274:	00b28463          	beq	t0,a1,8000627c <inst_591>
    80006278:	dadf906f          	j	80000024 <rvtest_error>

000000008000627c <inst_591>:
    8000627c:	00000537          	lui	a0,0x0
    80006280:	00050513          	mv	a0,a0
    80006284:	00b51513          	slli	a0,a0,0xb
    80006288:	5a850513          	addi	a0,a0,1448 # 5a8 <offset+0x310>
    8000628c:	00b51513          	slli	a0,a0,0xb
    80006290:	13c50513          	addi	a0,a0,316
    80006294:	00a51513          	slli	a0,a0,0xa
    80006298:	33250513          	addi	a0,a0,818
    8000629c:	00452593          	slti	a1,a0,4
    800062a0:	1cb13423          	sd	a1,456(sp)
    800062a4:	00000293          	li	t0,0
    800062a8:	00b28463          	beq	t0,a1,800062b0 <inst_592>
    800062ac:	d79f906f          	j	80000024 <rvtest_error>

00000000800062b0 <inst_592>:
    800062b0:	00000537          	lui	a0,0x0
    800062b4:	00050513          	mv	a0,a0
    800062b8:	00b51513          	slli	a0,a0,0xb
    800062bc:	5a850513          	addi	a0,a0,1448 # 5a8 <offset+0x310>
    800062c0:	00b51513          	slli	a0,a0,0xb
    800062c4:	13c50513          	addi	a0,a0,316
    800062c8:	00a51513          	slli	a0,a0,0xa
    800062cc:	33250513          	addi	a0,a0,818
    800062d0:	33252593          	slti	a1,a0,818
    800062d4:	1cb13823          	sd	a1,464(sp)
    800062d8:	00000293          	li	t0,0
    800062dc:	00b28463          	beq	t0,a1,800062e4 <inst_593>
    800062e0:	d45f906f          	j	80000024 <rvtest_error>

00000000800062e4 <inst_593>:
    800062e4:	00000537          	lui	a0,0x0
    800062e8:	00050513          	mv	a0,a0
    800062ec:	00b51513          	slli	a0,a0,0xb
    800062f0:	5a850513          	addi	a0,a0,1448 # 5a8 <offset+0x310>
    800062f4:	00b51513          	slli	a0,a0,0xb
    800062f8:	13c50513          	addi	a0,a0,316
    800062fc:	00a51513          	slli	a0,a0,0xa
    80006300:	33250513          	addi	a0,a0,818
    80006304:	66552593          	slti	a1,a0,1637
    80006308:	1cb13c23          	sd	a1,472(sp)
    8000630c:	00000293          	li	t0,0
    80006310:	00b28463          	beq	t0,a1,80006318 <inst_594>
    80006314:	d11f906f          	j	80000024 <rvtest_error>

0000000080006318 <inst_594>:
    80006318:	00000537          	lui	a0,0x0
    8000631c:	00050513          	mv	a0,a0
    80006320:	00b51513          	slli	a0,a0,0xb
    80006324:	5a850513          	addi	a0,a0,1448 # 5a8 <offset+0x310>
    80006328:	00b51513          	slli	a0,a0,0xb
    8000632c:	13c50513          	addi	a0,a0,316
    80006330:	00a51513          	slli	a0,a0,0xa
    80006334:	33250513          	addi	a0,a0,818
    80006338:	02c52593          	slti	a1,a0,44
    8000633c:	1eb13023          	sd	a1,480(sp)
    80006340:	00000293          	li	t0,0
    80006344:	00b28463          	beq	t0,a1,8000634c <inst_595>
    80006348:	cddf906f          	j	80000024 <rvtest_error>

000000008000634c <inst_595>:
    8000634c:	00000537          	lui	a0,0x0
    80006350:	00050513          	mv	a0,a0
    80006354:	00b51513          	slli	a0,a0,0xb
    80006358:	5a850513          	addi	a0,a0,1448 # 5a8 <offset+0x310>
    8000635c:	00b51513          	slli	a0,a0,0xb
    80006360:	13c50513          	addi	a0,a0,316
    80006364:	00a51513          	slli	a0,a0,0xa
    80006368:	33250513          	addi	a0,a0,818
    8000636c:	55652593          	slti	a1,a0,1366
    80006370:	1eb13423          	sd	a1,488(sp)
    80006374:	00000293          	li	t0,0
    80006378:	00b28463          	beq	t0,a1,80006380 <inst_596>
    8000637c:	ca9f906f          	j	80000024 <rvtest_error>

0000000080006380 <inst_596>:
    80006380:	00000537          	lui	a0,0x0
    80006384:	00050513          	mv	a0,a0
    80006388:	00b51513          	slli	a0,a0,0xb
    8000638c:	5a850513          	addi	a0,a0,1448 # 5a8 <offset+0x310>
    80006390:	00b51513          	slli	a0,a0,0xb
    80006394:	13c50513          	addi	a0,a0,316
    80006398:	00a51513          	slli	a0,a0,0xa
    8000639c:	33250513          	addi	a0,a0,818
    800063a0:	aab52593          	slti	a1,a0,-1365
    800063a4:	1eb13823          	sd	a1,496(sp)
    800063a8:	00000293          	li	t0,0
    800063ac:	00b28463          	beq	t0,a1,800063b4 <inst_597>
    800063b0:	c75f906f          	j	80000024 <rvtest_error>

00000000800063b4 <inst_597>:
    800063b4:	00000537          	lui	a0,0x0
    800063b8:	00050513          	mv	a0,a0
    800063bc:	00b51513          	slli	a0,a0,0xb
    800063c0:	5a850513          	addi	a0,a0,1448 # 5a8 <offset+0x310>
    800063c4:	00b51513          	slli	a0,a0,0xb
    800063c8:	13c50513          	addi	a0,a0,316
    800063cc:	00a51513          	slli	a0,a0,0xa
    800063d0:	33250513          	addi	a0,a0,818
    800063d4:	00652593          	slti	a1,a0,6
    800063d8:	1eb13c23          	sd	a1,504(sp)
    800063dc:	00000293          	li	t0,0
    800063e0:	00b28463          	beq	t0,a1,800063e8 <inst_598>
    800063e4:	c41f906f          	j	80000024 <rvtest_error>

00000000800063e8 <inst_598>:
    800063e8:	00000537          	lui	a0,0x0
    800063ec:	00050513          	mv	a0,a0
    800063f0:	00b51513          	slli	a0,a0,0xb
    800063f4:	5a850513          	addi	a0,a0,1448 # 5a8 <offset+0x310>
    800063f8:	00b51513          	slli	a0,a0,0xb
    800063fc:	13c50513          	addi	a0,a0,316
    80006400:	00a51513          	slli	a0,a0,0xa
    80006404:	33250513          	addi	a0,a0,818
    80006408:	33452593          	slti	a1,a0,820
    8000640c:	20b13023          	sd	a1,512(sp)
    80006410:	00000293          	li	t0,0
    80006414:	00b28463          	beq	t0,a1,8000641c <inst_599>
    80006418:	c0df906f          	j	80000024 <rvtest_error>

000000008000641c <inst_599>:
    8000641c:	00000537          	lui	a0,0x0
    80006420:	00050513          	mv	a0,a0
    80006424:	00b51513          	slli	a0,a0,0xb
    80006428:	5a850513          	addi	a0,a0,1448 # 5a8 <offset+0x310>
    8000642c:	00b51513          	slli	a0,a0,0xb
    80006430:	13c50513          	addi	a0,a0,316
    80006434:	00a51513          	slli	a0,a0,0xa
    80006438:	33250513          	addi	a0,a0,818
    8000643c:	66752593          	slti	a1,a0,1639
    80006440:	20b13423          	sd	a1,520(sp)
    80006444:	00000293          	li	t0,0
    80006448:	00b28463          	beq	t0,a1,80006450 <inst_600>
    8000644c:	bd9f906f          	j	80000024 <rvtest_error>

0000000080006450 <inst_600>:
    80006450:	00000537          	lui	a0,0x0
    80006454:	00050513          	mv	a0,a0
    80006458:	00b51513          	slli	a0,a0,0xb
    8000645c:	5a850513          	addi	a0,a0,1448 # 5a8 <offset+0x310>
    80006460:	00b51513          	slli	a0,a0,0xb
    80006464:	13c50513          	addi	a0,a0,316
    80006468:	00a51513          	slli	a0,a0,0xa
    8000646c:	33250513          	addi	a0,a0,818
    80006470:	fd452593          	slti	a1,a0,-44
    80006474:	20b13823          	sd	a1,528(sp)
    80006478:	00000293          	li	t0,0
    8000647c:	00b28463          	beq	t0,a1,80006484 <inst_601>
    80006480:	ba5f906f          	j	80000024 <rvtest_error>

0000000080006484 <inst_601>:
    80006484:	00000537          	lui	a0,0x0
    80006488:	00050513          	mv	a0,a0
    8000648c:	00b51513          	slli	a0,a0,0xb
    80006490:	5a850513          	addi	a0,a0,1448 # 5a8 <offset+0x310>
    80006494:	00b51513          	slli	a0,a0,0xb
    80006498:	13c50513          	addi	a0,a0,316
    8000649c:	00a51513          	slli	a0,a0,0xa
    800064a0:	33250513          	addi	a0,a0,818
    800064a4:	02e52593          	slti	a1,a0,46
    800064a8:	20b13c23          	sd	a1,536(sp)
    800064ac:	00000293          	li	t0,0
    800064b0:	00b28463          	beq	t0,a1,800064b8 <inst_602>
    800064b4:	b71f906f          	j	80000024 <rvtest_error>

00000000800064b8 <inst_602>:
    800064b8:	55555537          	lui	a0,0x55555
    800064bc:	55550513          	addi	a0,a0,1365 # 55555555 <absimmsh+0x49a847a8>
    800064c0:	00b51513          	slli	a0,a0,0xb
    800064c4:	2aa50513          	addi	a0,a0,682
    800064c8:	00b51513          	slli	a0,a0,0xb
    800064cc:	55550513          	addi	a0,a0,1365
    800064d0:	00a51513          	slli	a0,a0,0xa
    800064d4:	15650513          	addi	a0,a0,342
    800064d8:	00352593          	slti	a1,a0,3
    800064dc:	22b13023          	sd	a1,544(sp)
    800064e0:	00000293          	li	t0,0
    800064e4:	00b28463          	beq	t0,a1,800064ec <inst_603>
    800064e8:	b3df906f          	j	80000024 <rvtest_error>

00000000800064ec <inst_603>:
    800064ec:	55555537          	lui	a0,0x55555
    800064f0:	55550513          	addi	a0,a0,1365 # 55555555 <absimmsh+0x49a847a8>
    800064f4:	00b51513          	slli	a0,a0,0xb
    800064f8:	2aa50513          	addi	a0,a0,682
    800064fc:	00b51513          	slli	a0,a0,0xb
    80006500:	55550513          	addi	a0,a0,1365
    80006504:	00a51513          	slli	a0,a0,0xa
    80006508:	15650513          	addi	a0,a0,342
    8000650c:	55552593          	slti	a1,a0,1365
    80006510:	22b13423          	sd	a1,552(sp)
    80006514:	00000293          	li	t0,0
    80006518:	00b28463          	beq	t0,a1,80006520 <inst_604>
    8000651c:	b09f906f          	j	80000024 <rvtest_error>

0000000080006520 <inst_604>:
    80006520:	55555537          	lui	a0,0x55555
    80006524:	55550513          	addi	a0,a0,1365 # 55555555 <absimmsh+0x49a847a8>
    80006528:	00b51513          	slli	a0,a0,0xb
    8000652c:	2aa50513          	addi	a0,a0,682
    80006530:	00b51513          	slli	a0,a0,0xb
    80006534:	55550513          	addi	a0,a0,1365
    80006538:	00a51513          	slli	a0,a0,0xa
    8000653c:	15650513          	addi	a0,a0,342
    80006540:	aaa52593          	slti	a1,a0,-1366
    80006544:	22b13823          	sd	a1,560(sp)
    80006548:	00000293          	li	t0,0
    8000654c:	00b28463          	beq	t0,a1,80006554 <inst_605>
    80006550:	ad5f906f          	j	80000024 <rvtest_error>

0000000080006554 <inst_605>:
    80006554:	55555537          	lui	a0,0x55555
    80006558:	55550513          	addi	a0,a0,1365 # 55555555 <absimmsh+0x49a847a8>
    8000655c:	00b51513          	slli	a0,a0,0xb
    80006560:	2aa50513          	addi	a0,a0,682
    80006564:	00b51513          	slli	a0,a0,0xb
    80006568:	55550513          	addi	a0,a0,1365
    8000656c:	00a51513          	slli	a0,a0,0xa
    80006570:	15650513          	addi	a0,a0,342
    80006574:	00552593          	slti	a1,a0,5
    80006578:	22b13c23          	sd	a1,568(sp)
    8000657c:	00000293          	li	t0,0
    80006580:	00b28463          	beq	t0,a1,80006588 <inst_606>
    80006584:	aa1f906f          	j	80000024 <rvtest_error>

0000000080006588 <inst_606>:
    80006588:	55555537          	lui	a0,0x55555
    8000658c:	55550513          	addi	a0,a0,1365 # 55555555 <absimmsh+0x49a847a8>
    80006590:	00b51513          	slli	a0,a0,0xb
    80006594:	2aa50513          	addi	a0,a0,682
    80006598:	00b51513          	slli	a0,a0,0xb
    8000659c:	55550513          	addi	a0,a0,1365
    800065a0:	00a51513          	slli	a0,a0,0xa
    800065a4:	15650513          	addi	a0,a0,342
    800065a8:	33352593          	slti	a1,a0,819
    800065ac:	24b13023          	sd	a1,576(sp)
    800065b0:	00000293          	li	t0,0
    800065b4:	00b28463          	beq	t0,a1,800065bc <inst_607>
    800065b8:	a6df906f          	j	80000024 <rvtest_error>

00000000800065bc <inst_607>:
    800065bc:	55555537          	lui	a0,0x55555
    800065c0:	55550513          	addi	a0,a0,1365 # 55555555 <absimmsh+0x49a847a8>
    800065c4:	00b51513          	slli	a0,a0,0xb
    800065c8:	2aa50513          	addi	a0,a0,682
    800065cc:	00b51513          	slli	a0,a0,0xb
    800065d0:	55550513          	addi	a0,a0,1365
    800065d4:	00a51513          	slli	a0,a0,0xa
    800065d8:	15650513          	addi	a0,a0,342
    800065dc:	66652593          	slti	a1,a0,1638
    800065e0:	24b13423          	sd	a1,584(sp)
    800065e4:	00000293          	li	t0,0
    800065e8:	00b28463          	beq	t0,a1,800065f0 <inst_608>
    800065ec:	a39f906f          	j	80000024 <rvtest_error>

00000000800065f0 <inst_608>:
    800065f0:	55555537          	lui	a0,0x55555
    800065f4:	55550513          	addi	a0,a0,1365 # 55555555 <absimmsh+0x49a847a8>
    800065f8:	00b51513          	slli	a0,a0,0xb
    800065fc:	2aa50513          	addi	a0,a0,682
    80006600:	00b51513          	slli	a0,a0,0xb
    80006604:	55550513          	addi	a0,a0,1365
    80006608:	00a51513          	slli	a0,a0,0xa
    8000660c:	15650513          	addi	a0,a0,342
    80006610:	fd352593          	slti	a1,a0,-45
    80006614:	24b13823          	sd	a1,592(sp)
    80006618:	00000293          	li	t0,0
    8000661c:	00b28463          	beq	t0,a1,80006624 <inst_609>
    80006620:	a05f906f          	j	80000024 <rvtest_error>

0000000080006624 <inst_609>:
    80006624:	55555537          	lui	a0,0x55555
    80006628:	55550513          	addi	a0,a0,1365 # 55555555 <absimmsh+0x49a847a8>
    8000662c:	00b51513          	slli	a0,a0,0xb
    80006630:	2aa50513          	addi	a0,a0,682
    80006634:	00b51513          	slli	a0,a0,0xb
    80006638:	55550513          	addi	a0,a0,1365
    8000663c:	00a51513          	slli	a0,a0,0xa
    80006640:	15650513          	addi	a0,a0,342
    80006644:	02d52593          	slti	a1,a0,45
    80006648:	24b13c23          	sd	a1,600(sp)
    8000664c:	00000293          	li	t0,0
    80006650:	00b28463          	beq	t0,a1,80006658 <inst_610>
    80006654:	9d1f906f          	j	80000024 <rvtest_error>

0000000080006658 <inst_610>:
    80006658:	55555537          	lui	a0,0x55555
    8000665c:	55550513          	addi	a0,a0,1365 # 55555555 <absimmsh+0x49a847a8>
    80006660:	00b51513          	slli	a0,a0,0xb
    80006664:	2aa50513          	addi	a0,a0,682
    80006668:	00b51513          	slli	a0,a0,0xb
    8000666c:	55550513          	addi	a0,a0,1365
    80006670:	00a51513          	slli	a0,a0,0xa
    80006674:	15650513          	addi	a0,a0,342
    80006678:	00252593          	slti	a1,a0,2
    8000667c:	26b13023          	sd	a1,608(sp)
    80006680:	00000293          	li	t0,0
    80006684:	00b28463          	beq	t0,a1,8000668c <inst_611>
    80006688:	99df906f          	j	80000024 <rvtest_error>

000000008000668c <inst_611>:
    8000668c:	55555537          	lui	a0,0x55555
    80006690:	55550513          	addi	a0,a0,1365 # 55555555 <absimmsh+0x49a847a8>
    80006694:	00b51513          	slli	a0,a0,0xb
    80006698:	2aa50513          	addi	a0,a0,682
    8000669c:	00b51513          	slli	a0,a0,0xb
    800066a0:	55550513          	addi	a0,a0,1365
    800066a4:	00a51513          	slli	a0,a0,0xa
    800066a8:	15650513          	addi	a0,a0,342
    800066ac:	55452593          	slti	a1,a0,1364
    800066b0:	26b13423          	sd	a1,616(sp)
    800066b4:	00000293          	li	t0,0
    800066b8:	00b28463          	beq	t0,a1,800066c0 <inst_612>
    800066bc:	969f906f          	j	80000024 <rvtest_error>

00000000800066c0 <inst_612>:
    800066c0:	55555537          	lui	a0,0x55555
    800066c4:	55550513          	addi	a0,a0,1365 # 55555555 <absimmsh+0x49a847a8>
    800066c8:	00b51513          	slli	a0,a0,0xb
    800066cc:	2aa50513          	addi	a0,a0,682
    800066d0:	00b51513          	slli	a0,a0,0xb
    800066d4:	55550513          	addi	a0,a0,1365
    800066d8:	00a51513          	slli	a0,a0,0xa
    800066dc:	15650513          	addi	a0,a0,342
    800066e0:	00052593          	slti	a1,a0,0
    800066e4:	26b13823          	sd	a1,624(sp)
    800066e8:	00000293          	li	t0,0
    800066ec:	00b28463          	beq	t0,a1,800066f4 <inst_613>
    800066f0:	935f906f          	j	80000024 <rvtest_error>

00000000800066f4 <inst_613>:
    800066f4:	55555537          	lui	a0,0x55555
    800066f8:	55550513          	addi	a0,a0,1365 # 55555555 <absimmsh+0x49a847a8>
    800066fc:	00b51513          	slli	a0,a0,0xb
    80006700:	2aa50513          	addi	a0,a0,682
    80006704:	00b51513          	slli	a0,a0,0xb
    80006708:	55550513          	addi	a0,a0,1365
    8000670c:	00a51513          	slli	a0,a0,0xa
    80006710:	15650513          	addi	a0,a0,342
    80006714:	00452593          	slti	a1,a0,4
    80006718:	26b13c23          	sd	a1,632(sp)
    8000671c:	00000293          	li	t0,0
    80006720:	00b28463          	beq	t0,a1,80006728 <inst_614>
    80006724:	901f906f          	j	80000024 <rvtest_error>

0000000080006728 <inst_614>:
    80006728:	55555537          	lui	a0,0x55555
    8000672c:	55550513          	addi	a0,a0,1365 # 55555555 <absimmsh+0x49a847a8>
    80006730:	00b51513          	slli	a0,a0,0xb
    80006734:	2aa50513          	addi	a0,a0,682
    80006738:	00b51513          	slli	a0,a0,0xb
    8000673c:	55550513          	addi	a0,a0,1365
    80006740:	00a51513          	slli	a0,a0,0xa
    80006744:	15650513          	addi	a0,a0,342
    80006748:	33252593          	slti	a1,a0,818
    8000674c:	28b13023          	sd	a1,640(sp)
    80006750:	00000293          	li	t0,0
    80006754:	00b28463          	beq	t0,a1,8000675c <inst_615>
    80006758:	8cdf906f          	j	80000024 <rvtest_error>

000000008000675c <inst_615>:
    8000675c:	55555537          	lui	a0,0x55555
    80006760:	55550513          	addi	a0,a0,1365 # 55555555 <absimmsh+0x49a847a8>
    80006764:	00b51513          	slli	a0,a0,0xb
    80006768:	2aa50513          	addi	a0,a0,682
    8000676c:	00b51513          	slli	a0,a0,0xb
    80006770:	55550513          	addi	a0,a0,1365
    80006774:	00a51513          	slli	a0,a0,0xa
    80006778:	15650513          	addi	a0,a0,342
    8000677c:	66552593          	slti	a1,a0,1637
    80006780:	28b13423          	sd	a1,648(sp)
    80006784:	00000293          	li	t0,0
    80006788:	00b28463          	beq	t0,a1,80006790 <inst_616>
    8000678c:	899f906f          	j	80000024 <rvtest_error>

0000000080006790 <inst_616>:
    80006790:	fff00513          	li	a0,-1
    80006794:	00155513          	srli	a0,a0,0x1
    80006798:	00052593          	slti	a1,a0,0
    8000679c:	28b13823          	sd	a1,656(sp)
    800067a0:	00000293          	li	t0,0
    800067a4:	00b28463          	beq	t0,a1,800067ac <cleanup_epilogs>
    800067a8:	87df906f          	j	80000024 <rvtest_error>

00000000800067ac <cleanup_epilogs>:
    800067ac:	0380006f          	j	800067e4 <exit_cleanup>

00000000800067b0 <abort_tests>:
    800067b0:	1f813483          	ld	s1,504(sp)
    800067b4:	20013303          	ld	t1,512(sp)
    800067b8:	00930333          	add	t1,t1,s1
    800067bc:	00000337          	lui	t1,0x0
    800067c0:	00030313          	mv	t1,t1
    800067c4:	00b31313          	slli	t1,t1,0xb
    800067c8:	5d630313          	addi	t1,t1,1494 # 5d6 <offset+0x33e>
    800067cc:	00b31313          	slli	t1,t1,0xb
    800067d0:	43630313          	addi	t1,t1,1078
    800067d4:	00a31313          	slli	t1,t1,0xa
    800067d8:	2d030313          	addi	t1,t1,720
    800067dc:	fe64be23          	sd	t1,-4(s1)
    800067e0:	0040006f          	j	800067e4 <exit_cleanup>

00000000800067e4 <exit_cleanup>:
    800067e4:	00000513          	li	a0,0
    800067e8:	0140006f          	j	800067fc <halt>
	...

00000000800067fc <halt>:
    800067fc:	00050513          	mv	a0,a0
    80006800:	00100073          	ebreak
    80006804:	0000006f          	j	80006804 <halt+0x8>

0000000080006808 <_trm_init>:
    80006808:	ff010113          	addi	sp,sp,-16
    8000680c:	00000517          	auipc	a0,0x0
    80006810:	01c50513          	addi	a0,a0,28 # 80006828 <_etext>
    80006814:	00113423          	sd	ra,8(sp)
    80006818:	ff8f90ef          	jal	ra,80000010 <main>
    8000681c:	00050513          	mv	a0,a0
    80006820:	00100073          	ebreak
    80006824:	0000006f          	j	80006824 <_trm_init+0x1c>
