
/home/maveric/ics2023/riscv-arch-test-am/build/sltiu-riscv64-nemu.elf:     file format elf64-littleriscv


Disassembly of section .text:

0000000080000000 <_start>:
    80000000:	00000413          	li	s0,0
    80000004:	00013117          	auipc	sp,0x13
    80000008:	ffc10113          	addi	sp,sp,-4 # 80013000 <_end>
    8000000c:	355070ef          	jal	ra,80007b60 <_trm_init>

0000000080000010 <main>:
    80000010:	030000ef          	jal	ra,80000040 <rvtest_entry_point>
    80000014:	00100513          	li	a0,1
    80000018:	33d070ef          	jal	ra,80007b54 <halt>
    8000001c:	00000513          	li	a0,0
    80000020:	00008067          	ret

0000000080000024 <rvtest_error>:
    80000024:	00100513          	li	a0,1
    80000028:	32d070ef          	jal	ra,80007b54 <halt>
    8000002c:	00008067          	ret
	...

0000000080000040 <rvtest_entry_point>:
    80000040:	feedc0b7          	lui	ra,0xfeedc
    80000044:	ead08093          	addi	ra,ra,-339 # fffffffffeedbead <absimm+0xffffffff441ce3dd>
    80000048:	00b09093          	slli	ra,ra,0xb
    8000004c:	7f708093          	addi	ra,ra,2039
    80000050:	00b09093          	slli	ra,ra,0xb
    80000054:	36f08093          	addi	ra,ra,879
    80000058:	00a09093          	slli	ra,ra,0xa
    8000005c:	2ad08093          	addi	ra,ra,685
    80000060:	ff76e137          	lui	sp,0xff76e
    80000064:	f5610113          	addi	sp,sp,-170 # ffffffffff76df56 <absimm+0xffffffff44a60486>
    80000068:	00b11113          	slli	sp,sp,0xb
    8000006c:	7fb10113          	addi	sp,sp,2043
    80000070:	00b11113          	slli	sp,sp,0xb
    80000074:	5b710113          	addi	sp,sp,1463
    80000078:	00a11113          	slli	sp,sp,0xa
    8000007c:	35610113          	addi	sp,sp,854
    80000080:	7fbb71b7          	lui	gp,0x7fbb7
    80000084:	fab18193          	addi	gp,gp,-85 # 7fbb6fab <absimmsh+0x740e61fe>
    80000088:	00b19193          	slli	gp,gp,0xb
    8000008c:	3fd18193          	addi	gp,gp,1021
    80000090:	00b19193          	slli	gp,gp,0xb
    80000094:	6db18193          	addi	gp,gp,1755
    80000098:	00a19193          	slli	gp,gp,0xa
    8000009c:	3ab18193          	addi	gp,gp,939
    800000a0:	bfddb237          	lui	tp,0xbfddb
    800000a4:	7d520213          	addi	tp,tp,2005 # ffffffffbfddb7d5 <absimm+0xffffffff050cdd05>
    800000a8:	00b21213          	slli	tp,tp,0xb
    800000ac:	5fe20213          	addi	tp,tp,1534 # 5fe <pos+0x5be>
    800000b0:	00b21213          	slli	tp,tp,0xb
    800000b4:	76d20213          	addi	tp,tp,1901 # 76d <offset+0x65>
    800000b8:	00a21213          	slli	tp,tp,0xa
    800000bc:	3d520213          	addi	tp,tp,981 # 3d5 <pos+0x395>
    800000c0:	dfeee2b7          	lui	t0,0xdfeee
    800000c4:	bea28293          	addi	t0,t0,-1046 # ffffffffdfeedbea <absimm+0xffffffff251e011a>
    800000c8:	00b29293          	slli	t0,t0,0xb
    800000cc:	6ff28293          	addi	t0,t0,1791
    800000d0:	00b29293          	slli	t0,t0,0xb
    800000d4:	3b628293          	addi	t0,t0,950
    800000d8:	00a29293          	slli	t0,t0,0xa
    800000dc:	3ea28293          	addi	t0,t0,1002
    800000e0:	6ff77337          	lui	t1,0x6ff77
    800000e4:	df530313          	addi	t1,t1,-523 # 6ff76df5 <absimmsh+0x644a6048>
    800000e8:	00b31313          	slli	t1,t1,0xb
    800000ec:	37f30313          	addi	t1,t1,895
    800000f0:	00b31313          	slli	t1,t1,0xb
    800000f4:	5db30313          	addi	t1,t1,1499
    800000f8:	00a31313          	slli	t1,t1,0xa
    800000fc:	1f530313          	addi	t1,t1,501
    80000100:	b7fbb3b7          	lui	t2,0xb7fbb
    80000104:	6fa38393          	addi	t2,t2,1786 # ffffffffb7fbb6fa <absimm+0xfffffffefd2adc2a>
    80000108:	00b39393          	slli	t2,t2,0xb
    8000010c:	5bf38393          	addi	t2,t2,1471
    80000110:	00b39393          	slli	t2,t2,0xb
    80000114:	6ed38393          	addi	t2,t2,1773
    80000118:	00a39393          	slli	t2,t2,0xa
    8000011c:	2fa38393          	addi	t2,t2,762
    80000120:	5bfde437          	lui	s0,0x5bfde
    80000124:	b7d40413          	addi	s0,s0,-1155 # 5bfddb7d <absimmsh+0x5050cdd0>
    80000128:	00b41413          	slli	s0,s0,0xb
    8000012c:	2df40413          	addi	s0,s0,735
    80000130:	00b41413          	slli	s0,s0,0xb
    80000134:	77640413          	addi	s0,s0,1910
    80000138:	00a41413          	slli	s0,s0,0xa
    8000013c:	37d40413          	addi	s0,s0,893
    80000140:	adfef4b7          	lui	s1,0xadfef
    80000144:	dbe48493          	addi	s1,s1,-578 # ffffffffadfeedbe <absimm+0xfffffffef32e12ee>
    80000148:	00b49493          	slli	s1,s1,0xb
    8000014c:	56f48493          	addi	s1,s1,1391
    80000150:	00b49493          	slli	s1,s1,0xb
    80000154:	7bb48493          	addi	s1,s1,1979
    80000158:	00a49493          	slli	s1,s1,0xa
    8000015c:	1be48493          	addi	s1,s1,446
    80000160:	56ff7537          	lui	a0,0x56ff7
    80000164:	6df50513          	addi	a0,a0,1759 # 56ff76df <absimmsh+0x4b526932>
    80000168:	00b51513          	slli	a0,a0,0xb
    8000016c:	2b750513          	addi	a0,a0,695
    80000170:	00b51513          	slli	a0,a0,0xb
    80000174:	7dd50513          	addi	a0,a0,2013
    80000178:	00a51513          	slli	a0,a0,0xa
    8000017c:	2df50513          	addi	a0,a0,735
    80000180:	ab7fc5b7          	lui	a1,0xab7fc
    80000184:	b6f58593          	addi	a1,a1,-1169 # ffffffffab7fbb6f <absimm+0xfffffffef0aee09f>
    80000188:	00b59593          	slli	a1,a1,0xb
    8000018c:	55b58593          	addi	a1,a1,1371
    80000190:	00b59593          	slli	a1,a1,0xb
    80000194:	7ee58593          	addi	a1,a1,2030
    80000198:	00a59593          	slli	a1,a1,0xa
    8000019c:	36f58593          	addi	a1,a1,879
    800001a0:	d5bfe637          	lui	a2,0xd5bfe
    800001a4:	db760613          	addi	a2,a2,-585 # ffffffffd5bfddb7 <absimm+0xffffffff1aef02e7>
    800001a8:	00b61613          	slli	a2,a2,0xb
    800001ac:	6ad60613          	addi	a2,a2,1709
    800001b0:	00b61613          	slli	a2,a2,0xb
    800001b4:	7f760613          	addi	a2,a2,2039
    800001b8:	00a61613          	slli	a2,a2,0xa
    800001bc:	1b760613          	addi	a2,a2,439
    800001c0:	eadff6b7          	lui	a3,0xeadff
    800001c4:	edb68693          	addi	a3,a3,-293 # ffffffffeadfeedb <absimm+0xffffffff300f140b>
    800001c8:	00b69693          	slli	a3,a3,0xb
    800001cc:	75668693          	addi	a3,a3,1878
    800001d0:	00b69693          	slli	a3,a3,0xb
    800001d4:	7fb68693          	addi	a3,a3,2043
    800001d8:	00a69693          	slli	a3,a3,0xa
    800001dc:	2db68693          	addi	a3,a3,731
    800001e0:	f56ff737          	lui	a4,0xf56ff
    800001e4:	76d70713          	addi	a4,a4,1901 # fffffffff56ff76d <absimm+0xffffffff3a9f1c9d>
    800001e8:	00b71713          	slli	a4,a4,0xb
    800001ec:	7ab70713          	addi	a4,a4,1963
    800001f0:	00b71713          	slli	a4,a4,0xb
    800001f4:	3fd70713          	addi	a4,a4,1021
    800001f8:	00a71713          	slli	a4,a4,0xa
    800001fc:	36d70713          	addi	a4,a4,877
    80000200:	fab807b7          	lui	a5,0xfab80
    80000204:	bb678793          	addi	a5,a5,-1098 # fffffffffab7fbb6 <absimm+0xffffffff3fe720e6>
    80000208:	00b79793          	slli	a5,a5,0xb
    8000020c:	7d578793          	addi	a5,a5,2005
    80000210:	00b79793          	slli	a5,a5,0xb
    80000214:	5fe78793          	addi	a5,a5,1534
    80000218:	00a79793          	slli	a5,a5,0xa
    8000021c:	3b678793          	addi	a5,a5,950
    80000220:	7d5c0837          	lui	a6,0x7d5c0
    80000224:	ddb80813          	addi	a6,a6,-549 # 7d5bfddb <absimmsh+0x71aef02e>
    80000228:	00b81813          	slli	a6,a6,0xb
    8000022c:	3ea80813          	addi	a6,a6,1002
    80000230:	00b81813          	slli	a6,a6,0xb
    80000234:	6ff80813          	addi	a6,a6,1791
    80000238:	00a81813          	slli	a6,a6,0xa
    8000023c:	1db80813          	addi	a6,a6,475
    80000240:	beae08b7          	lui	a7,0xbeae0
    80000244:	eed88893          	addi	a7,a7,-275 # ffffffffbeadfeed <absimm+0xffffffff03dd241d>
    80000248:	00b89893          	slli	a7,a7,0xb
    8000024c:	5f588893          	addi	a7,a7,1525
    80000250:	00b89893          	slli	a7,a7,0xb
    80000254:	37f88893          	addi	a7,a7,895
    80000258:	00a89893          	slli	a7,a7,0xa
    8000025c:	2ed88893          	addi	a7,a7,749
    80000260:	df570937          	lui	s2,0xdf570
    80000264:	f7690913          	addi	s2,s2,-138 # ffffffffdf56ff76 <absimm+0xffffffff248624a6>
    80000268:	00b91913          	slli	s2,s2,0xb
    8000026c:	6fa90913          	addi	s2,s2,1786
    80000270:	00b91913          	slli	s2,s2,0xb
    80000274:	5bf90913          	addi	s2,s2,1471
    80000278:	00a91913          	slli	s2,s2,0xa
    8000027c:	37690913          	addi	s2,s2,886
    80000280:	6fab89b7          	lui	s3,0x6fab8
    80000284:	fbb98993          	addi	s3,s3,-69 # 6fab7fbb <absimmsh+0x63fe720e>
    80000288:	00b99993          	slli	s3,s3,0xb
    8000028c:	37d98993          	addi	s3,s3,893
    80000290:	00b99993          	slli	s3,s3,0xb
    80000294:	2df98993          	addi	s3,s3,735
    80000298:	00a99993          	slli	s3,s3,0xa
    8000029c:	3bb98993          	addi	s3,s3,955
    800002a0:	b7d5ca37          	lui	s4,0xb7d5c
    800002a4:	fdda0a13          	addi	s4,s4,-35 # ffffffffb7d5bfdd <absimm+0xfffffffefd04e50d>
    800002a8:	00ba1a13          	slli	s4,s4,0xb
    800002ac:	5bea0a13          	addi	s4,s4,1470
    800002b0:	00ba1a13          	slli	s4,s4,0xb
    800002b4:	56fa0a13          	addi	s4,s4,1391
    800002b8:	00aa1a13          	slli	s4,s4,0xa
    800002bc:	3dda0a13          	addi	s4,s4,989
    800002c0:	dbeaeab7          	lui	s5,0xdbeae
    800002c4:	feea8a93          	addi	s5,s5,-18 # ffffffffdbeadfee <absimm+0xffffffff211a051e>
    800002c8:	00ba9a93          	slli	s5,s5,0xb
    800002cc:	6dfa8a93          	addi	s5,s5,1759
    800002d0:	00ba9a93          	slli	s5,s5,0xb
    800002d4:	2b7a8a93          	addi	s5,s5,695
    800002d8:	00aa9a93          	slli	s5,s5,0xa
    800002dc:	3eea8a93          	addi	s5,s5,1006
    800002e0:	6df57b37          	lui	s6,0x6df57
    800002e4:	ff7b0b13          	addi	s6,s6,-9 # 6df56ff7 <absimmsh+0x6248624a>
    800002e8:	00bb1b13          	slli	s6,s6,0xb
    800002ec:	36fb0b13          	addi	s6,s6,879
    800002f0:	00bb1b13          	slli	s6,s6,0xb
    800002f4:	55bb0b13          	addi	s6,s6,1371
    800002f8:	00ab1b13          	slli	s6,s6,0xa
    800002fc:	3f7b0b13          	addi	s6,s6,1015
    80000300:	b6fabbb7          	lui	s7,0xb6fab
    80000304:	7fbb8b93          	addi	s7,s7,2043 # ffffffffb6fab7fb <absimm+0xfffffffefc29dd2b>
    80000308:	00bb9b93          	slli	s7,s7,0xb
    8000030c:	5b7b8b93          	addi	s7,s7,1463
    80000310:	00bb9b93          	slli	s7,s7,0xb
    80000314:	6adb8b93          	addi	s7,s7,1709
    80000318:	00ab9b93          	slli	s7,s7,0xa
    8000031c:	3fbb8b93          	addi	s7,s7,1019
    80000320:	db7d6c37          	lui	s8,0xdb7d6
    80000324:	bfdc0c13          	addi	s8,s8,-1027 # ffffffffdb7d5bfd <absimm+0xffffffff20ac812d>
    80000328:	00bc1c13          	slli	s8,s8,0xb
    8000032c:	6dbc0c13          	addi	s8,s8,1755
    80000330:	00bc1c13          	slli	s8,s8,0xb
    80000334:	756c0c13          	addi	s8,s8,1878
    80000338:	00ac1c13          	slli	s8,s8,0xa
    8000033c:	3fdc0c13          	addi	s8,s8,1021
    80000340:	edbebcb7          	lui	s9,0xedbeb
    80000344:	dfec8c93          	addi	s9,s9,-514 # ffffffffedbeadfe <absimm+0xffffffff32edd32e>
    80000348:	00bc9c93          	slli	s9,s9,0xb
    8000034c:	76dc8c93          	addi	s9,s9,1901
    80000350:	00bc9c93          	slli	s9,s9,0xb
    80000354:	7abc8c93          	addi	s9,s9,1963
    80000358:	00ac9c93          	slli	s9,s9,0xa
    8000035c:	1fec8c93          	addi	s9,s9,510
    80000360:	76df5d37          	lui	s10,0x76df5
    80000364:	6ffd0d13          	addi	s10,s10,1791 # 76df56ff <absimmsh+0x6b324952>
    80000368:	00bd1d13          	slli	s10,s10,0xb
    8000036c:	3b6d0d13          	addi	s10,s10,950
    80000370:	00bd1d13          	slli	s10,s10,0xb
    80000374:	7d5d0d13          	addi	s10,s10,2005
    80000378:	00ad1d13          	slli	s10,s10,0xa
    8000037c:	2ffd0d13          	addi	s10,s10,767
    80000380:	bb6fbdb7          	lui	s11,0xbb6fb
    80000384:	b7fd8d93          	addi	s11,s11,-1153 # ffffffffbb6fab7f <absimm+0xffffffff009ed0af>
    80000388:	00bd9d93          	slli	s11,s11,0xb
    8000038c:	5dbd8d93          	addi	s11,s11,1499
    80000390:	00bd9d93          	slli	s11,s11,0xb
    80000394:	3ead8d93          	addi	s11,s11,1002
    80000398:	00ad9d93          	slli	s11,s11,0xa
    8000039c:	37fd8d93          	addi	s11,s11,895
    800003a0:	ddb7de37          	lui	t3,0xddb7d
    800003a4:	5bfe0e13          	addi	t3,t3,1471 # ffffffffddb7d5bf <absimm+0xffffffff22e6faef>
    800003a8:	00be1e13          	slli	t3,t3,0xb
    800003ac:	6ede0e13          	addi	t3,t3,1773
    800003b0:	00be1e13          	slli	t3,t3,0xb
    800003b4:	5f5e0e13          	addi	t3,t3,1525
    800003b8:	00ae1e13          	slli	t3,t3,0xa
    800003bc:	1bfe0e13          	addi	t3,t3,447
    800003c0:	eedbfeb7          	lui	t4,0xeedbf
    800003c4:	adfe8e93          	addi	t4,t4,-1313 # ffffffffeedbeadf <absimm+0xffffffff340b100f>
    800003c8:	00be9e93          	slli	t4,t4,0xb
    800003cc:	776e8e93          	addi	t4,t4,1910
    800003d0:	00be9e93          	slli	t4,t4,0xb
    800003d4:	6fae8e93          	addi	t4,t4,1786
    800003d8:	00ae9e93          	slli	t4,t4,0xa
    800003dc:	2dfe8e93          	addi	t4,t4,735
    800003e0:	f76dff37          	lui	t5,0xf76df
    800003e4:	56ff0f13          	addi	t5,t5,1391 # fffffffff76df56f <absimm+0xffffffff3c9d1a9f>
    800003e8:	00bf1f13          	slli	t5,t5,0xb
    800003ec:	7bbf0f13          	addi	t5,t5,1979
    800003f0:	00bf1f13          	slli	t5,t5,0xb
    800003f4:	37df0f13          	addi	t5,t5,893
    800003f8:	00af1f13          	slli	t5,t5,0xa
    800003fc:	16ff0f13          	addi	t5,t5,367
    80000400:	fbb70fb7          	lui	t6,0xfbb70
    80000404:	ab7f8f93          	addi	t6,t6,-1353 # fffffffffbb6fab7 <absimm+0xffffffff40e61fe7>
    80000408:	00bf9f93          	slli	t6,t6,0xb
    8000040c:	7ddf8f93          	addi	t6,t6,2013
    80000410:	00bf9f93          	slli	t6,t6,0xb
    80000414:	5bef8f93          	addi	t6,t6,1470
    80000418:	00af9f93          	slli	t6,t6,0xa
    8000041c:	2b7f8f93          	addi	t6,t6,695

0000000080000420 <rvtest_code_begin>:
    80000420:	00009617          	auipc	a2,0x9
    80000424:	be860613          	addi	a2,a2,-1048 # 80009008 <signature_x12_0>
    80000428:	00000013          	nop
    8000042c:	00000013          	nop
    80000430:	00000013          	nop
    80000434:	00000013          	nop
    80000438:	00000013          	nop
    8000043c:	00000013          	nop

0000000080000440 <inst_0>:
    80000440:	00e00893          	li	a7,14
    80000444:	0008b893          	sltiu	a7,a7,0
    80000448:	01163023          	sd	a7,0(a2)
    8000044c:	00000a13          	li	s4,0
    80000450:	011a0463          	beq	s4,a7,80000458 <inst_1>
    80000454:	bd1ff06f          	j	80000024 <rvtest_error>

0000000080000458 <inst_1>:
    80000458:	00100413          	li	s0,1
    8000045c:	01441413          	slli	s0,s0,0x14
    80000460:	fff44413          	not	s0,s0
    80000464:	fff43213          	sltiu	tp,s0,-1
    80000468:	00463423          	sd	tp,8(a2)
    8000046c:	00100a13          	li	s4,1
    80000470:	004a0463          	beq	s4,tp,80000478 <inst_2>
    80000474:	bb1ff06f          	j	80000024 <rvtest_error>

0000000080000478 <inst_2>:
    80000478:	00000913          	li	s2,0
    8000047c:	00193713          	seqz	a4,s2
    80000480:	00e63823          	sd	a4,16(a2)
    80000484:	00100a13          	li	s4,1
    80000488:	00ea0463          	beq	s4,a4,80000490 <inst_3>
    8000048c:	b99ff06f          	j	80000024 <rvtest_error>

0000000080000490 <inst_3>:
    80000490:	fff00c93          	li	s9,-1
    80000494:	00ecbb93          	sltiu	s7,s9,14
    80000498:	01763c23          	sd	s7,24(a2)
    8000049c:	00000a13          	li	s4,0
    800004a0:	017a0463          	beq	s4,s7,800004a8 <inst_4>
    800004a4:	b81ff06f          	j	80000024 <rvtest_error>

00000000800004a8 <inst_4>:
    800004a8:	00100f13          	li	t5,1
    800004ac:	7fff3793          	sltiu	a5,t5,2047
    800004b0:	02f63023          	sd	a5,32(a2)
    800004b4:	00100a13          	li	s4,1
    800004b8:	00fa0463          	beq	s4,a5,800004c0 <inst_5>
    800004bc:	b69ff06f          	j	80000024 <rvtest_error>

00000000800004c0 <inst_5>:
    800004c0:	00100493          	li	s1,1
    800004c4:	0014ba93          	seqz	s5,s1
    800004c8:	03563423          	sd	s5,40(a2)
    800004cc:	00000a13          	li	s4,0
    800004d0:	015a0463          	beq	s4,s5,800004d8 <inst_6>
    800004d4:	b51ff06f          	j	80000024 <rvtest_error>

00000000800004d8 <inst_6>:
    800004d8:	00000d13          	li	s10,0
    800004dc:	002d3493          	sltiu	s1,s10,2
    800004e0:	02963823          	sd	s1,48(a2)
    800004e4:	00100a13          	li	s4,1
    800004e8:	009a0463          	beq	s4,s1,800004f0 <inst_7>
    800004ec:	b39ff06f          	j	80000024 <rvtest_error>

00000000800004f0 <inst_7>:
    800004f0:	00100393          	li	t2,1
    800004f4:	00e39393          	slli	t2,t2,0xe
    800004f8:	fff3c393          	not	t2,t2
    800004fc:	0043b813          	sltiu	a6,t2,4
    80000500:	03063c23          	sd	a6,56(a2)
    80000504:	00000a13          	li	s4,0
    80000508:	010a0463          	beq	s4,a6,80000510 <inst_8>
    8000050c:	b19ff06f          	j	80000024 <rvtest_error>

0000000080000510 <inst_8>:
    80000510:	00100993          	li	s3,1
    80000514:	02399993          	slli	s3,s3,0x23
    80000518:	0089b393          	sltiu	t2,s3,8
    8000051c:	04763023          	sd	t2,64(a2)
    80000520:	00000a13          	li	s4,0
    80000524:	007a0463          	beq	s4,t2,8000052c <inst_9>
    80000528:	afdff06f          	j	80000024 <rvtest_error>

000000008000052c <inst_9>:
    8000052c:	00000d93          	li	s11,0
    80000530:	010db193          	sltiu	gp,s11,16
    80000534:	04363423          	sd	gp,72(a2)
    80000538:	00100a13          	li	s4,1
    8000053c:	003a0463          	beq	s4,gp,80000544 <inst_10>
    80000540:	ae5ff06f          	j	80000024 <rvtest_error>

0000000080000544 <inst_10>:
    80000544:	fff00e13          	li	t3,-1
    80000548:	020e3d13          	sltiu	s10,t3,32
    8000054c:	05a63823          	sd	s10,80(a2)
    80000550:	00000a13          	li	s4,0
    80000554:	01aa0463          	beq	s4,s10,8000055c <inst_11>
    80000558:	acdff06f          	j	80000024 <rvtest_error>

000000008000055c <inst_11>:
    8000055c:	aaaab6b7          	lui	a3,0xaaaab
    80000560:	aaa68693          	addi	a3,a3,-1366 # ffffffffaaaaaaaa <absimm+0xfffffffeefd9cfda>
    80000564:	00b69693          	slli	a3,a3,0xb
    80000568:	55568693          	addi	a3,a3,1365
    8000056c:	00b69693          	slli	a3,a3,0xb
    80000570:	2aa68693          	addi	a3,a3,682
    80000574:	00a69693          	slli	a3,a3,0xa
    80000578:	2aa68693          	addi	a3,a3,682
    8000057c:	0406bf13          	sltiu	t5,a3,64
    80000580:	05e63c23          	sd	t5,88(a2)
    80000584:	00000a13          	li	s4,0
    80000588:	01ea0463          	beq	s4,t5,80000590 <inst_12>
    8000058c:	a99ff06f          	j	80000024 <rvtest_error>

0000000080000590 <inst_12>:
    80000590:	00100813          	li	a6,1
    80000594:	02281813          	slli	a6,a6,0x22
    80000598:	08083013          	sltiu	zero,a6,128
    8000059c:	06063023          	sd	zero,96(a2)
    800005a0:	00000a13          	li	s4,0
    800005a4:	000a0463          	beqz	s4,800005ac <inst_13>
    800005a8:	a7dff06f          	j	80000024 <rvtest_error>

00000000800005ac <inst_13>:
    800005ac:	00100593          	li	a1,1
    800005b0:	02259593          	slli	a1,a1,0x22
    800005b4:	1005bc93          	sltiu	s9,a1,256
    800005b8:	07963423          	sd	s9,104(a2)
    800005bc:	00000a13          	li	s4,0
    800005c0:	019a0463          	beq	s4,s9,800005c8 <inst_14>
    800005c4:	a61ff06f          	j	80000024 <rvtest_error>

00000000800005c8 <inst_14>:
    800005c8:	00100513          	li	a0,1
    800005cc:	00e51513          	slli	a0,a0,0xe
    800005d0:	fff54513          	not	a0,a0
    800005d4:	20053113          	sltiu	sp,a0,512
    800005d8:	06263823          	sd	sp,112(a2)
    800005dc:	00000a13          	li	s4,0
    800005e0:	002a0463          	beq	s4,sp,800005e8 <inst_15>
    800005e4:	a41ff06f          	j	80000024 <rvtest_error>

00000000800005e8 <inst_15>:
    800005e8:	00100f93          	li	t6,1
    800005ec:	03ef9f93          	slli	t6,t6,0x3e
    800005f0:	ffffcf93          	not	t6,t6
    800005f4:	400fb413          	sltiu	s0,t6,1024
    800005f8:	06863c23          	sd	s0,120(a2)
    800005fc:	00000a13          	li	s4,0
    80000600:	008a0463          	beq	s4,s0,80000608 <inst_16>
    80000604:	a21ff06f          	j	80000024 <rvtest_error>

0000000080000608 <inst_16>:
    80000608:	00000013          	nop
    8000060c:	80003093          	sltiu	ra,zero,-2048
    80000610:	08163023          	sd	ra,128(a2)
    80000614:	00100a13          	li	s4,1
    80000618:	001a0463          	beq	s4,ra,80000620 <inst_17>
    8000061c:	a09ff06f          	j	80000024 <rvtest_error>

0000000080000620 <inst_17>:
    80000620:	555552b7          	lui	t0,0x55555
    80000624:	55528293          	addi	t0,t0,1365 # 55555555 <absimmsh+0x49a847a8>
    80000628:	00b29293          	slli	t0,t0,0xb
    8000062c:	2aa28293          	addi	t0,t0,682
    80000630:	00b29293          	slli	t0,t0,0xb
    80000634:	55528293          	addi	t0,t0,1365
    80000638:	00a29293          	slli	t0,t0,0xa
    8000063c:	15628293          	addi	t0,t0,342
    80000640:	ffe2bc13          	sltiu	s8,t0,-2
    80000644:	09863423          	sd	s8,136(a2)
    80000648:	00100a13          	li	s4,1
    8000064c:	018a0463          	beq	s4,s8,80000654 <inst_18>
    80000650:	9d5ff06f          	j	80000024 <rvtest_error>

0000000080000654 <inst_18>:
    80000654:	ff700193          	li	gp,-9
    80000658:	ffd1b313          	sltiu	t1,gp,-3
    8000065c:	08663823          	sd	t1,144(a2)
    80000660:	00100a13          	li	s4,1
    80000664:	006a0463          	beq	s4,t1,8000066c <inst_19>
    80000668:	9bdff06f          	j	80000024 <rvtest_error>

000000008000066c <inst_19>:
    8000066c:	00100113          	li	sp,1
    80000670:	02b11113          	slli	sp,sp,0x2b
    80000674:	fff14113          	not	sp,sp
    80000678:	ffb13e13          	sltiu	t3,sp,-5
    8000067c:	09c63c23          	sd	t3,152(a2)
    80000680:	00100193          	li	gp,1
    80000684:	01c18463          	beq	gp,t3,8000068c <inst_20>
    80000688:	99dff06f          	j	80000024 <rvtest_error>

000000008000068c <inst_20>:
    8000068c:	00100a93          	li	s5,1
    80000690:	026a9a93          	slli	s5,s5,0x26
    80000694:	ff7ab293          	sltiu	t0,s5,-9
    80000698:	0a563023          	sd	t0,160(a2)
    8000069c:	00100193          	li	gp,1
    800006a0:	00518463          	beq	gp,t0,800006a8 <inst_21>
    800006a4:	981ff06f          	j	80000024 <rvtest_error>

00000000800006a8 <inst_21>:
    800006a8:	eff00b13          	li	s6,-257
    800006ac:	fefb3d93          	sltiu	s11,s6,-17
    800006b0:	0bb63423          	sd	s11,168(a2)
    800006b4:	00100193          	li	gp,1
    800006b8:	01b18463          	beq	gp,s11,800006c0 <inst_21+0x18>
    800006bc:	969ff06f          	j	80000024 <rvtest_error>
    800006c0:	00009117          	auipc	sp,0x9
    800006c4:	9f810113          	addi	sp,sp,-1544 # 800090b8 <signature_x2_0>
    800006c8:	00000013          	nop
    800006cc:	00000013          	nop
    800006d0:	00000013          	nop
    800006d4:	00000013          	nop
    800006d8:	00000013          	nop
    800006dc:	00000013          	nop

00000000800006e0 <inst_22>:
    800006e0:	00100093          	li	ra,1
    800006e4:	03309093          	slli	ra,ra,0x33
    800006e8:	fff0c093          	not	ra,ra
    800006ec:	fdf0b593          	sltiu	a1,ra,-33
    800006f0:	00b13023          	sd	a1,0(sp)
    800006f4:	00100193          	li	gp,1
    800006f8:	00b18463          	beq	gp,a1,80000700 <inst_23>
    800006fc:	929ff06f          	j	80000024 <rvtest_error>

0000000080000700 <inst_23>:
    80000700:	00100793          	li	a5,1
    80000704:	02779793          	slli	a5,a5,0x27
    80000708:	fff7c793          	not	a5,a5
    8000070c:	fbf7b913          	sltiu	s2,a5,-65
    80000710:	01213423          	sd	s2,8(sp)
    80000714:	00100193          	li	gp,1
    80000718:	01218463          	beq	gp,s2,80000720 <inst_24>
    8000071c:	909ff06f          	j	80000024 <rvtest_error>

0000000080000720 <inst_24>:
    80000720:	00100e93          	li	t4,1
    80000724:	00de9e93          	slli	t4,t4,0xd
    80000728:	fffece93          	not	t4,t4
    8000072c:	f7feba13          	sltiu	s4,t4,-129
    80000730:	01413823          	sd	s4,16(sp)
    80000734:	00100193          	li	gp,1
    80000738:	01418463          	beq	gp,s4,80000740 <inst_25>
    8000073c:	8e9ff06f          	j	80000024 <rvtest_error>

0000000080000740 <inst_25>:
    80000740:	00100213          	li	tp,1
    80000744:	01921213          	slli	tp,tp,0x19
    80000748:	fff24213          	not	tp,tp
    8000074c:	eff23e93          	sltiu	t4,tp,-257
    80000750:	01d13c23          	sd	t4,24(sp)
    80000754:	00100193          	li	gp,1
    80000758:	01d18463          	beq	gp,t4,80000760 <inst_26>
    8000075c:	8c9ff06f          	j	80000024 <rvtest_error>

0000000080000760 <inst_26>:
    80000760:	00100b93          	li	s7,1
    80000764:	028b9b93          	slli	s7,s7,0x28
    80000768:	dffbbb13          	sltiu	s6,s7,-513
    8000076c:	03613023          	sd	s6,32(sp)
    80000770:	00100193          	li	gp,1
    80000774:	01618463          	beq	gp,s6,8000077c <inst_27>
    80000778:	8adff06f          	j	80000024 <rvtest_error>

000000008000077c <inst_27>:
    8000077c:	00100313          	li	t1,1
    80000780:	03e31313          	slli	t1,t1,0x3e
    80000784:	bff33993          	sltiu	s3,t1,-1025
    80000788:	03313423          	sd	s3,40(sp)
    8000078c:	00100193          	li	gp,1
    80000790:	01318463          	beq	gp,s3,80000798 <inst_28>
    80000794:	891ff06f          	j	80000024 <rvtest_error>

0000000080000798 <inst_28>:
    80000798:	00100713          	li	a4,1
    8000079c:	00e71713          	slli	a4,a4,0xe
    800007a0:	fff74713          	not	a4,a4
    800007a4:	55573613          	sltiu	a2,a4,1365
    800007a8:	02c13823          	sd	a2,48(sp)
    800007ac:	00000193          	li	gp,0
    800007b0:	00c18463          	beq	gp,a2,800007b8 <inst_29>
    800007b4:	871ff06f          	j	80000024 <rvtest_error>

00000000800007b8 <inst_29>:
    800007b8:	00400613          	li	a2,4
    800007bc:	aaa63f93          	sltiu	t6,a2,-1366
    800007c0:	03f13c23          	sd	t6,56(sp)
    800007c4:	00100193          	li	gp,1
    800007c8:	01f18463          	beq	gp,t6,800007d0 <inst_30>
    800007cc:	859ff06f          	j	80000024 <rvtest_error>

00000000800007d0 <inst_30>:
    800007d0:	00200c13          	li	s8,2
    800007d4:	03ec3513          	sltiu	a0,s8,62
    800007d8:	04a13023          	sd	a0,64(sp)
    800007dc:	00100193          	li	gp,1
    800007e0:	00a18463          	beq	gp,a0,800007e8 <inst_31>
    800007e4:	841ff06f          	j	80000024 <rvtest_error>

00000000800007e8 <inst_31>:
    800007e8:	00800a13          	li	s4,8
    800007ec:	00aa3693          	sltiu	a3,s4,10
    800007f0:	04d13423          	sd	a3,72(sp)
    800007f4:	00100193          	li	gp,1
    800007f8:	00d18463          	beq	gp,a3,80000800 <inst_32>
    800007fc:	829ff06f          	j	80000024 <rvtest_error>

0000000080000800 <inst_32>:
    80000800:	01000513          	li	a0,16
    80000804:	00c53593          	sltiu	a1,a0,12
    80000808:	04b13823          	sd	a1,80(sp)
    8000080c:	00000193          	li	gp,0
    80000810:	00b18463          	beq	gp,a1,80000818 <inst_33>
    80000814:	811ff06f          	j	80000024 <rvtest_error>

0000000080000818 <inst_33>:
    80000818:	02000513          	li	a0,32
    8000081c:	00f53593          	sltiu	a1,a0,15
    80000820:	04b13c23          	sd	a1,88(sp)
    80000824:	00000193          	li	gp,0
    80000828:	00b18463          	beq	gp,a1,80000830 <inst_34>
    8000082c:	ff8ff06f          	j	80000024 <rvtest_error>

0000000080000830 <inst_34>:
    80000830:	04000513          	li	a0,64
    80000834:	00153593          	seqz	a1,a0
    80000838:	06b13023          	sd	a1,96(sp)
    8000083c:	00000193          	li	gp,0
    80000840:	00b18463          	beq	gp,a1,80000848 <inst_35>
    80000844:	fe0ff06f          	j	80000024 <rvtest_error>

0000000080000848 <inst_35>:
    80000848:	08000513          	li	a0,128
    8000084c:	00d53593          	sltiu	a1,a0,13
    80000850:	06b13423          	sd	a1,104(sp)
    80000854:	00000193          	li	gp,0
    80000858:	00b18463          	beq	gp,a1,80000860 <inst_36>
    8000085c:	fc8ff06f          	j	80000024 <rvtest_error>

0000000080000860 <inst_36>:
    80000860:	10000513          	li	a0,256
    80000864:	00353593          	sltiu	a1,a0,3
    80000868:	06b13823          	sd	a1,112(sp)
    8000086c:	00000193          	li	gp,0
    80000870:	00b18463          	beq	gp,a1,80000878 <inst_37>
    80000874:	fb0ff06f          	j	80000024 <rvtest_error>

0000000080000878 <inst_37>:
    80000878:	20000513          	li	a0,512
    8000087c:	00353593          	sltiu	a1,a0,3
    80000880:	06b13c23          	sd	a1,120(sp)
    80000884:	00000193          	li	gp,0
    80000888:	00b18463          	beq	gp,a1,80000890 <inst_38>
    8000088c:	f98ff06f          	j	80000024 <rvtest_error>

0000000080000890 <inst_38>:
    80000890:	40000513          	li	a0,1024
    80000894:	33253593          	sltiu	a1,a0,818
    80000898:	08b13023          	sd	a1,128(sp)
    8000089c:	00000193          	li	gp,0
    800008a0:	00b18463          	beq	gp,a1,800008a8 <inst_39>
    800008a4:	f80ff06f          	j	80000024 <rvtest_error>

00000000800008a8 <inst_39>:
    800008a8:	00100513          	li	a0,1
    800008ac:	00b51513          	slli	a0,a0,0xb
    800008b0:	00453593          	sltiu	a1,a0,4
    800008b4:	08b13423          	sd	a1,136(sp)
    800008b8:	00000193          	li	gp,0
    800008bc:	00b18463          	beq	gp,a1,800008c4 <inst_40>
    800008c0:	f64ff06f          	j	80000024 <rvtest_error>

00000000800008c4 <inst_40>:
    800008c4:	00100513          	li	a0,1
    800008c8:	00c51513          	slli	a0,a0,0xc
    800008cc:	fbf53593          	sltiu	a1,a0,-65
    800008d0:	08b13823          	sd	a1,144(sp)
    800008d4:	00100193          	li	gp,1
    800008d8:	00b18463          	beq	gp,a1,800008e0 <inst_41>
    800008dc:	f48ff06f          	j	80000024 <rvtest_error>

00000000800008e0 <inst_41>:
    800008e0:	00100513          	li	a0,1
    800008e4:	00d51513          	slli	a0,a0,0xd
    800008e8:	00653593          	sltiu	a1,a0,6
    800008ec:	08b13c23          	sd	a1,152(sp)
    800008f0:	00000193          	li	gp,0
    800008f4:	00b18463          	beq	gp,a1,800008fc <inst_42>
    800008f8:	f2cff06f          	j	80000024 <rvtest_error>

00000000800008fc <inst_42>:
    800008fc:	00100513          	li	a0,1
    80000900:	00e51513          	slli	a0,a0,0xe
    80000904:	bff53593          	sltiu	a1,a0,-1025
    80000908:	0ab13023          	sd	a1,160(sp)
    8000090c:	00100193          	li	gp,1
    80000910:	00b18463          	beq	gp,a1,80000918 <inst_43>
    80000914:	f10ff06f          	j	80000024 <rvtest_error>

0000000080000918 <inst_43>:
    80000918:	00100513          	li	a0,1
    8000091c:	00f51513          	slli	a0,a0,0xf
    80000920:	00453593          	sltiu	a1,a0,4
    80000924:	0ab13423          	sd	a1,168(sp)
    80000928:	00000193          	li	gp,0
    8000092c:	00b18463          	beq	gp,a1,80000934 <inst_44>
    80000930:	ef4ff06f          	j	80000024 <rvtest_error>

0000000080000934 <inst_44>:
    80000934:	00100513          	li	a0,1
    80000938:	01051513          	slli	a0,a0,0x10
    8000093c:	00053593          	sltiu	a1,a0,0
    80000940:	0ab13823          	sd	a1,176(sp)
    80000944:	00000193          	li	gp,0
    80000948:	00b18463          	beq	gp,a1,80000950 <inst_45>
    8000094c:	ed8ff06f          	j	80000024 <rvtest_error>

0000000080000950 <inst_45>:
    80000950:	00100513          	li	a0,1
    80000954:	01151513          	slli	a0,a0,0x11
    80000958:	aab53593          	sltiu	a1,a0,-1365
    8000095c:	0ab13c23          	sd	a1,184(sp)
    80000960:	00100193          	li	gp,1
    80000964:	00b18463          	beq	gp,a1,8000096c <inst_46>
    80000968:	ebcff06f          	j	80000024 <rvtest_error>

000000008000096c <inst_46>:
    8000096c:	00100513          	li	a0,1
    80000970:	01251513          	slli	a0,a0,0x12
    80000974:	fff53593          	sltiu	a1,a0,-1
    80000978:	0cb13023          	sd	a1,192(sp)
    8000097c:	00100193          	li	gp,1
    80000980:	00b18463          	beq	gp,a1,80000988 <inst_47>
    80000984:	ea0ff06f          	j	80000024 <rvtest_error>

0000000080000988 <inst_47>:
    80000988:	00100513          	li	a0,1
    8000098c:	01351513          	slli	a0,a0,0x13
    80000990:	00353593          	sltiu	a1,a0,3
    80000994:	0cb13423          	sd	a1,200(sp)
    80000998:	00000193          	li	gp,0
    8000099c:	00b18463          	beq	gp,a1,800009a4 <inst_48>
    800009a0:	e84ff06f          	j	80000024 <rvtest_error>

00000000800009a4 <inst_48>:
    800009a4:	00100513          	li	a0,1
    800009a8:	01451513          	slli	a0,a0,0x14
    800009ac:	02c53593          	sltiu	a1,a0,44
    800009b0:	0cb13823          	sd	a1,208(sp)
    800009b4:	00000193          	li	gp,0
    800009b8:	00b18463          	beq	gp,a1,800009c0 <inst_49>
    800009bc:	e68ff06f          	j	80000024 <rvtest_error>

00000000800009c0 <inst_49>:
    800009c0:	00100513          	li	a0,1
    800009c4:	01551513          	slli	a0,a0,0x15
    800009c8:	00153593          	seqz	a1,a0
    800009cc:	0cb13c23          	sd	a1,216(sp)
    800009d0:	00000193          	li	gp,0
    800009d4:	00b18463          	beq	gp,a1,800009dc <inst_50>
    800009d8:	e4cff06f          	j	80000024 <rvtest_error>

00000000800009dc <inst_50>:
    800009dc:	00100513          	li	a0,1
    800009e0:	01651513          	slli	a0,a0,0x16
    800009e4:	aab53593          	sltiu	a1,a0,-1365
    800009e8:	0eb13023          	sd	a1,224(sp)
    800009ec:	00100193          	li	gp,1
    800009f0:	00b18463          	beq	gp,a1,800009f8 <inst_51>
    800009f4:	e30ff06f          	j	80000024 <rvtest_error>

00000000800009f8 <inst_51>:
    800009f8:	00100513          	li	a0,1
    800009fc:	01751513          	slli	a0,a0,0x17
    80000a00:	55553593          	sltiu	a1,a0,1365
    80000a04:	0eb13423          	sd	a1,232(sp)
    80000a08:	00000193          	li	gp,0
    80000a0c:	00b18463          	beq	gp,a1,80000a14 <inst_52>
    80000a10:	e14ff06f          	j	80000024 <rvtest_error>

0000000080000a14 <inst_52>:
    80000a14:	00100513          	li	a0,1
    80000a18:	01851513          	slli	a0,a0,0x18
    80000a1c:	02e53593          	sltiu	a1,a0,46
    80000a20:	0eb13823          	sd	a1,240(sp)
    80000a24:	00000193          	li	gp,0
    80000a28:	00b18463          	beq	gp,a1,80000a30 <inst_53>
    80000a2c:	df8ff06f          	j	80000024 <rvtest_error>

0000000080000a30 <inst_53>:
    80000a30:	00100513          	li	a0,1
    80000a34:	01951513          	slli	a0,a0,0x19
    80000a38:	ffd53593          	sltiu	a1,a0,-3
    80000a3c:	0eb13c23          	sd	a1,248(sp)
    80000a40:	00100193          	li	gp,1
    80000a44:	00b18463          	beq	gp,a1,80000a4c <inst_54>
    80000a48:	ddcff06f          	j	80000024 <rvtest_error>

0000000080000a4c <inst_54>:
    80000a4c:	00100513          	li	a0,1
    80000a50:	01a51513          	slli	a0,a0,0x1a
    80000a54:	66653593          	sltiu	a1,a0,1638
    80000a58:	10b13023          	sd	a1,256(sp)
    80000a5c:	00000193          	li	gp,0
    80000a60:	00b18463          	beq	gp,a1,80000a68 <inst_55>
    80000a64:	dc0ff06f          	j	80000024 <rvtest_error>

0000000080000a68 <inst_55>:
    80000a68:	00100513          	li	a0,1
    80000a6c:	01b51513          	slli	a0,a0,0x1b
    80000a70:	00053593          	sltiu	a1,a0,0
    80000a74:	10b13423          	sd	a1,264(sp)
    80000a78:	00000193          	li	gp,0
    80000a7c:	00b18463          	beq	gp,a1,80000a84 <inst_56>
    80000a80:	da4ff06f          	j	80000024 <rvtest_error>

0000000080000a84 <inst_56>:
    80000a84:	00100513          	li	a0,1
    80000a88:	01c51513          	slli	a0,a0,0x1c
    80000a8c:	20053593          	sltiu	a1,a0,512
    80000a90:	10b13823          	sd	a1,272(sp)
    80000a94:	00000193          	li	gp,0
    80000a98:	00b18463          	beq	gp,a1,80000aa0 <inst_57>
    80000a9c:	d88ff06f          	j	80000024 <rvtest_error>

0000000080000aa0 <inst_57>:
    80000aa0:	00100513          	li	a0,1
    80000aa4:	01d51513          	slli	a0,a0,0x1d
    80000aa8:	04053593          	sltiu	a1,a0,64
    80000aac:	10b13c23          	sd	a1,280(sp)
    80000ab0:	00000193          	li	gp,0
    80000ab4:	00b18463          	beq	gp,a1,80000abc <inst_58>
    80000ab8:	d6cff06f          	j	80000024 <rvtest_error>

0000000080000abc <inst_58>:
    80000abc:	00100513          	li	a0,1
    80000ac0:	01e51513          	slli	a0,a0,0x1e
    80000ac4:	55653593          	sltiu	a1,a0,1366
    80000ac8:	12b13023          	sd	a1,288(sp)
    80000acc:	00000193          	li	gp,0
    80000ad0:	00b18463          	beq	gp,a1,80000ad8 <inst_59>
    80000ad4:	d50ff06f          	j	80000024 <rvtest_error>

0000000080000ad8 <inst_59>:
    80000ad8:	00100513          	li	a0,1
    80000adc:	01f51513          	slli	a0,a0,0x1f
    80000ae0:	00653593          	sltiu	a1,a0,6
    80000ae4:	12b13423          	sd	a1,296(sp)
    80000ae8:	00000193          	li	gp,0
    80000aec:	00b18463          	beq	gp,a1,80000af4 <inst_60>
    80000af0:	d34ff06f          	j	80000024 <rvtest_error>

0000000080000af4 <inst_60>:
    80000af4:	00100513          	li	a0,1
    80000af8:	02051513          	slli	a0,a0,0x20
    80000afc:	04053593          	sltiu	a1,a0,64
    80000b00:	12b13823          	sd	a1,304(sp)
    80000b04:	00000193          	li	gp,0
    80000b08:	00b18463          	beq	gp,a1,80000b10 <inst_61>
    80000b0c:	d18ff06f          	j	80000024 <rvtest_error>

0000000080000b10 <inst_61>:
    80000b10:	00100513          	li	a0,1
    80000b14:	02151513          	slli	a0,a0,0x21
    80000b18:	00153593          	seqz	a1,a0
    80000b1c:	12b13c23          	sd	a1,312(sp)
    80000b20:	00000193          	li	gp,0
    80000b24:	00b18463          	beq	gp,a1,80000b2c <inst_62>
    80000b28:	cfcff06f          	j	80000024 <rvtest_error>

0000000080000b2c <inst_62>:
    80000b2c:	00100513          	li	a0,1
    80000b30:	02451513          	slli	a0,a0,0x24
    80000b34:	7ff53593          	sltiu	a1,a0,2047
    80000b38:	14b13023          	sd	a1,320(sp)
    80000b3c:	00000193          	li	gp,0
    80000b40:	00b18463          	beq	gp,a1,80000b48 <inst_63>
    80000b44:	ce0ff06f          	j	80000024 <rvtest_error>

0000000080000b48 <inst_63>:
    80000b48:	00100513          	li	a0,1
    80000b4c:	02551513          	slli	a0,a0,0x25
    80000b50:	00253593          	sltiu	a1,a0,2
    80000b54:	14b13423          	sd	a1,328(sp)
    80000b58:	00000193          	li	gp,0
    80000b5c:	00b18463          	beq	gp,a1,80000b64 <inst_64>
    80000b60:	cc4ff06f          	j	80000024 <rvtest_error>

0000000080000b64 <inst_64>:
    80000b64:	00100513          	li	a0,1
    80000b68:	02751513          	slli	a0,a0,0x27
    80000b6c:	33353593          	sltiu	a1,a0,819
    80000b70:	14b13823          	sd	a1,336(sp)
    80000b74:	00000193          	li	gp,0
    80000b78:	00b18463          	beq	gp,a1,80000b80 <inst_65>
    80000b7c:	ca8ff06f          	j	80000024 <rvtest_error>

0000000080000b80 <inst_65>:
    80000b80:	00100513          	li	a0,1
    80000b84:	02951513          	slli	a0,a0,0x29
    80000b88:	20053593          	sltiu	a1,a0,512
    80000b8c:	14b13c23          	sd	a1,344(sp)
    80000b90:	00000193          	li	gp,0
    80000b94:	00b18463          	beq	gp,a1,80000b9c <inst_66>
    80000b98:	c8cff06f          	j	80000024 <rvtest_error>

0000000080000b9c <inst_66>:
    80000b9c:	00100513          	li	a0,1
    80000ba0:	02a51513          	slli	a0,a0,0x2a
    80000ba4:	02d53593          	sltiu	a1,a0,45
    80000ba8:	16b13023          	sd	a1,352(sp)
    80000bac:	00000193          	li	gp,0
    80000bb0:	00b18463          	beq	gp,a1,80000bb8 <inst_67>
    80000bb4:	c70ff06f          	j	80000024 <rvtest_error>

0000000080000bb8 <inst_67>:
    80000bb8:	00100513          	li	a0,1
    80000bbc:	02b51513          	slli	a0,a0,0x2b
    80000bc0:	00053593          	sltiu	a1,a0,0
    80000bc4:	16b13423          	sd	a1,360(sp)
    80000bc8:	00000193          	li	gp,0
    80000bcc:	00b18463          	beq	gp,a1,80000bd4 <inst_68>
    80000bd0:	c54ff06f          	j	80000024 <rvtest_error>

0000000080000bd4 <inst_68>:
    80000bd4:	00100513          	li	a0,1
    80000bd8:	02c51513          	slli	a0,a0,0x2c
    80000bdc:	aaa53593          	sltiu	a1,a0,-1366
    80000be0:	16b13823          	sd	a1,368(sp)
    80000be4:	00100193          	li	gp,1
    80000be8:	00b18463          	beq	gp,a1,80000bf0 <inst_69>
    80000bec:	c38ff06f          	j	80000024 <rvtest_error>

0000000080000bf0 <inst_69>:
    80000bf0:	00100513          	li	a0,1
    80000bf4:	02d51513          	slli	a0,a0,0x2d
    80000bf8:	33353593          	sltiu	a1,a0,819
    80000bfc:	16b13c23          	sd	a1,376(sp)
    80000c00:	00000193          	li	gp,0
    80000c04:	00b18463          	beq	gp,a1,80000c0c <inst_70>
    80000c08:	c1cff06f          	j	80000024 <rvtest_error>

0000000080000c0c <inst_70>:
    80000c0c:	00100513          	li	a0,1
    80000c10:	02e51513          	slli	a0,a0,0x2e
    80000c14:	aa953593          	sltiu	a1,a0,-1367
    80000c18:	18b13023          	sd	a1,384(sp)
    80000c1c:	00100193          	li	gp,1
    80000c20:	00b18463          	beq	gp,a1,80000c28 <inst_71>
    80000c24:	c00ff06f          	j	80000024 <rvtest_error>

0000000080000c28 <inst_71>:
    80000c28:	00100513          	li	a0,1
    80000c2c:	02f51513          	slli	a0,a0,0x2f
    80000c30:	01353593          	sltiu	a1,a0,19
    80000c34:	18b13423          	sd	a1,392(sp)
    80000c38:	00000193          	li	gp,0
    80000c3c:	00b18463          	beq	gp,a1,80000c44 <inst_72>
    80000c40:	be4ff06f          	j	80000024 <rvtest_error>

0000000080000c44 <inst_72>:
    80000c44:	00100513          	li	a0,1
    80000c48:	03051513          	slli	a0,a0,0x30
    80000c4c:	aab53593          	sltiu	a1,a0,-1365
    80000c50:	18b13823          	sd	a1,400(sp)
    80000c54:	00100193          	li	gp,1
    80000c58:	00b18463          	beq	gp,a1,80000c60 <inst_73>
    80000c5c:	bc8ff06f          	j	80000024 <rvtest_error>

0000000080000c60 <inst_73>:
    80000c60:	00100513          	li	a0,1
    80000c64:	03151513          	slli	a0,a0,0x31
    80000c68:	10053593          	sltiu	a1,a0,256
    80000c6c:	18b13c23          	sd	a1,408(sp)
    80000c70:	00000193          	li	gp,0
    80000c74:	00b18463          	beq	gp,a1,80000c7c <inst_74>
    80000c78:	bacff06f          	j	80000024 <rvtest_error>

0000000080000c7c <inst_74>:
    80000c7c:	00100513          	li	a0,1
    80000c80:	03251513          	slli	a0,a0,0x32
    80000c84:	00453593          	sltiu	a1,a0,4
    80000c88:	1ab13023          	sd	a1,416(sp)
    80000c8c:	00000193          	li	gp,0
    80000c90:	00b18463          	beq	gp,a1,80000c98 <inst_75>
    80000c94:	b90ff06f          	j	80000024 <rvtest_error>

0000000080000c98 <inst_75>:
    80000c98:	00100513          	li	a0,1
    80000c9c:	03351513          	slli	a0,a0,0x33
    80000ca0:	02e53593          	sltiu	a1,a0,46
    80000ca4:	1ab13423          	sd	a1,424(sp)
    80000ca8:	00000193          	li	gp,0
    80000cac:	00b18463          	beq	gp,a1,80000cb4 <inst_76>
    80000cb0:	b74ff06f          	j	80000024 <rvtest_error>

0000000080000cb4 <inst_76>:
    80000cb4:	00100513          	li	a0,1
    80000cb8:	03451513          	slli	a0,a0,0x34
    80000cbc:	00d53593          	sltiu	a1,a0,13
    80000cc0:	1ab13823          	sd	a1,432(sp)
    80000cc4:	00000193          	li	gp,0
    80000cc8:	00b18463          	beq	gp,a1,80000cd0 <inst_77>
    80000ccc:	b58ff06f          	j	80000024 <rvtest_error>

0000000080000cd0 <inst_77>:
    80000cd0:	00100513          	li	a0,1
    80000cd4:	03551513          	slli	a0,a0,0x35
    80000cd8:	00153593          	seqz	a1,a0
    80000cdc:	1ab13c23          	sd	a1,440(sp)
    80000ce0:	00000193          	li	gp,0
    80000ce4:	00b18463          	beq	gp,a1,80000cec <inst_78>
    80000ce8:	b3cff06f          	j	80000024 <rvtest_error>

0000000080000cec <inst_78>:
    80000cec:	00100513          	li	a0,1
    80000cf0:	03651513          	slli	a0,a0,0x36
    80000cf4:	00953593          	sltiu	a1,a0,9
    80000cf8:	1cb13023          	sd	a1,448(sp)
    80000cfc:	00000193          	li	gp,0
    80000d00:	00b18463          	beq	gp,a1,80000d08 <inst_79>
    80000d04:	b20ff06f          	j	80000024 <rvtest_error>

0000000080000d08 <inst_79>:
    80000d08:	00100513          	li	a0,1
    80000d0c:	03751513          	slli	a0,a0,0x37
    80000d10:	00253593          	sltiu	a1,a0,2
    80000d14:	1cb13423          	sd	a1,456(sp)
    80000d18:	00000193          	li	gp,0
    80000d1c:	00b18463          	beq	gp,a1,80000d24 <inst_80>
    80000d20:	b04ff06f          	j	80000024 <rvtest_error>

0000000080000d24 <inst_80>:
    80000d24:	00100513          	li	a0,1
    80000d28:	03851513          	slli	a0,a0,0x38
    80000d2c:	00b53593          	sltiu	a1,a0,11
    80000d30:	1cb13823          	sd	a1,464(sp)
    80000d34:	00000193          	li	gp,0
    80000d38:	00b18463          	beq	gp,a1,80000d40 <inst_81>
    80000d3c:	ae8ff06f          	j	80000024 <rvtest_error>

0000000080000d40 <inst_81>:
    80000d40:	00100513          	li	a0,1
    80000d44:	03951513          	slli	a0,a0,0x39
    80000d48:	00d53593          	sltiu	a1,a0,13
    80000d4c:	1cb13c23          	sd	a1,472(sp)
    80000d50:	00000193          	li	gp,0
    80000d54:	00b18463          	beq	gp,a1,80000d5c <inst_82>
    80000d58:	accff06f          	j	80000024 <rvtest_error>

0000000080000d5c <inst_82>:
    80000d5c:	00100513          	li	a0,1
    80000d60:	03a51513          	slli	a0,a0,0x3a
    80000d64:	ffd53593          	sltiu	a1,a0,-3
    80000d68:	1eb13023          	sd	a1,480(sp)
    80000d6c:	00100193          	li	gp,1
    80000d70:	00b18463          	beq	gp,a1,80000d78 <inst_83>
    80000d74:	ab0ff06f          	j	80000024 <rvtest_error>

0000000080000d78 <inst_83>:
    80000d78:	00100513          	li	a0,1
    80000d7c:	03b51513          	slli	a0,a0,0x3b
    80000d80:	03f53593          	sltiu	a1,a0,63
    80000d84:	1eb13423          	sd	a1,488(sp)
    80000d88:	00000193          	li	gp,0
    80000d8c:	00b18463          	beq	gp,a1,80000d94 <inst_84>
    80000d90:	a94ff06f          	j	80000024 <rvtest_error>

0000000080000d94 <inst_84>:
    80000d94:	00100513          	li	a0,1
    80000d98:	03c51513          	slli	a0,a0,0x3c
    80000d9c:	01153593          	sltiu	a1,a0,17
    80000da0:	1eb13823          	sd	a1,496(sp)
    80000da4:	00000193          	li	gp,0
    80000da8:	00b18463          	beq	gp,a1,80000db0 <inst_85>
    80000dac:	a78ff06f          	j	80000024 <rvtest_error>

0000000080000db0 <inst_85>:
    80000db0:	00100513          	li	a0,1
    80000db4:	03d51513          	slli	a0,a0,0x3d
    80000db8:	40053593          	sltiu	a1,a0,1024
    80000dbc:	1eb13c23          	sd	a1,504(sp)
    80000dc0:	00000193          	li	gp,0
    80000dc4:	00b18463          	beq	gp,a1,80000dcc <inst_86>
    80000dc8:	a5cff06f          	j	80000024 <rvtest_error>

0000000080000dcc <inst_86>:
    80000dcc:	fff00513          	li	a0,-1
    80000dd0:	03f51513          	slli	a0,a0,0x3f
    80000dd4:	00053593          	sltiu	a1,a0,0
    80000dd8:	20b13023          	sd	a1,512(sp)
    80000ddc:	00000193          	li	gp,0
    80000de0:	00b18463          	beq	gp,a1,80000de8 <inst_87>
    80000de4:	a40ff06f          	j	80000024 <rvtest_error>

0000000080000de8 <inst_87>:
    80000de8:	ffe00513          	li	a0,-2
    80000dec:	00653593          	sltiu	a1,a0,6
    80000df0:	20b13423          	sd	a1,520(sp)
    80000df4:	00000193          	li	gp,0
    80000df8:	00b18463          	beq	gp,a1,80000e00 <inst_88>
    80000dfc:	a28ff06f          	j	80000024 <rvtest_error>

0000000080000e00 <inst_88>:
    80000e00:	ffd00513          	li	a0,-3
    80000e04:	00a53593          	sltiu	a1,a0,10
    80000e08:	20b13823          	sd	a1,528(sp)
    80000e0c:	00000193          	li	gp,0
    80000e10:	00b18463          	beq	gp,a1,80000e18 <inst_89>
    80000e14:	a10ff06f          	j	80000024 <rvtest_error>

0000000080000e18 <inst_89>:
    80000e18:	ffb00513          	li	a0,-5
    80000e1c:	00153593          	seqz	a1,a0
    80000e20:	20b13c23          	sd	a1,536(sp)
    80000e24:	00000193          	li	gp,0
    80000e28:	00b18463          	beq	gp,a1,80000e30 <inst_90>
    80000e2c:	9f8ff06f          	j	80000024 <rvtest_error>

0000000080000e30 <inst_90>:
    80000e30:	fef00513          	li	a0,-17
    80000e34:	aa953593          	sltiu	a1,a0,-1367
    80000e38:	22b13023          	sd	a1,544(sp)
    80000e3c:	00000193          	li	gp,0
    80000e40:	00b18463          	beq	gp,a1,80000e48 <inst_91>
    80000e44:	9e0ff06f          	j	80000024 <rvtest_error>

0000000080000e48 <inst_91>:
    80000e48:	fdf00513          	li	a0,-33
    80000e4c:	ff753593          	sltiu	a1,a0,-9
    80000e50:	22b13423          	sd	a1,552(sp)
    80000e54:	00100193          	li	gp,1
    80000e58:	00b18463          	beq	gp,a1,80000e60 <inst_92>
    80000e5c:	9c8ff06f          	j	80000024 <rvtest_error>

0000000080000e60 <inst_92>:
    80000e60:	fbf00513          	li	a0,-65
    80000e64:	02053593          	sltiu	a1,a0,32
    80000e68:	22b13823          	sd	a1,560(sp)
    80000e6c:	00000193          	li	gp,0
    80000e70:	00b18463          	beq	gp,a1,80000e78 <inst_93>
    80000e74:	9b0ff06f          	j	80000024 <rvtest_error>

0000000080000e78 <inst_93>:
    80000e78:	f7f00513          	li	a0,-129
    80000e7c:	00053593          	sltiu	a1,a0,0
    80000e80:	22b13c23          	sd	a1,568(sp)
    80000e84:	00000193          	li	gp,0
    80000e88:	00b18463          	beq	gp,a1,80000e90 <inst_94>
    80000e8c:	998ff06f          	j	80000024 <rvtest_error>

0000000080000e90 <inst_94>:
    80000e90:	dff00513          	li	a0,-513
    80000e94:	00053593          	sltiu	a1,a0,0
    80000e98:	24b13023          	sd	a1,576(sp)
    80000e9c:	00000193          	li	gp,0
    80000ea0:	00b18463          	beq	gp,a1,80000ea8 <inst_95>
    80000ea4:	980ff06f          	j	80000024 <rvtest_error>

0000000080000ea8 <inst_95>:
    80000ea8:	bff00513          	li	a0,-1025
    80000eac:	ffb53593          	sltiu	a1,a0,-5
    80000eb0:	24b13423          	sd	a1,584(sp)
    80000eb4:	00100193          	li	gp,1
    80000eb8:	00b18463          	beq	gp,a1,80000ec0 <inst_96>
    80000ebc:	968ff06f          	j	80000024 <rvtest_error>

0000000080000ec0 <inst_96>:
    80000ec0:	00100513          	li	a0,1
    80000ec4:	00c51513          	slli	a0,a0,0xc
    80000ec8:	fff54513          	not	a0,a0
    80000ecc:	00253593          	sltiu	a1,a0,2
    80000ed0:	24b13823          	sd	a1,592(sp)
    80000ed4:	00000193          	li	gp,0
    80000ed8:	00b18463          	beq	gp,a1,80000ee0 <inst_97>
    80000edc:	948ff06f          	j	80000024 <rvtest_error>

0000000080000ee0 <inst_97>:
    80000ee0:	00100513          	li	a0,1
    80000ee4:	00f51513          	slli	a0,a0,0xf
    80000ee8:	fff54513          	not	a0,a0
    80000eec:	00553593          	sltiu	a1,a0,5
    80000ef0:	24b13c23          	sd	a1,600(sp)
    80000ef4:	00000193          	li	gp,0
    80000ef8:	00b18463          	beq	gp,a1,80000f00 <inst_98>
    80000efc:	928ff06f          	j	80000024 <rvtest_error>

0000000080000f00 <inst_98>:
    80000f00:	00100513          	li	a0,1
    80000f04:	01051513          	slli	a0,a0,0x10
    80000f08:	fff54513          	not	a0,a0
    80000f0c:	fef53593          	sltiu	a1,a0,-17
    80000f10:	26b13023          	sd	a1,608(sp)
    80000f14:	00100193          	li	gp,1
    80000f18:	00b18463          	beq	gp,a1,80000f20 <inst_99>
    80000f1c:	908ff06f          	j	80000024 <rvtest_error>

0000000080000f20 <inst_99>:
    80000f20:	00100513          	li	a0,1
    80000f24:	01151513          	slli	a0,a0,0x11
    80000f28:	fff54513          	not	a0,a0
    80000f2c:	f7f53593          	sltiu	a1,a0,-129
    80000f30:	26b13423          	sd	a1,616(sp)
    80000f34:	00100193          	li	gp,1
    80000f38:	00b18463          	beq	gp,a1,80000f40 <inst_100>
    80000f3c:	8e8ff06f          	j	80000024 <rvtest_error>

0000000080000f40 <inst_100>:
    80000f40:	00100513          	li	a0,1
    80000f44:	01251513          	slli	a0,a0,0x12
    80000f48:	fff54513          	not	a0,a0
    80000f4c:	00453593          	sltiu	a1,a0,4
    80000f50:	26b13823          	sd	a1,624(sp)
    80000f54:	00000193          	li	gp,0
    80000f58:	00b18463          	beq	gp,a1,80000f60 <inst_101>
    80000f5c:	8c8ff06f          	j	80000024 <rvtest_error>

0000000080000f60 <inst_101>:
    80000f60:	00100513          	li	a0,1
    80000f64:	01351513          	slli	a0,a0,0x13
    80000f68:	fff54513          	not	a0,a0
    80000f6c:	00553593          	sltiu	a1,a0,5
    80000f70:	26b13c23          	sd	a1,632(sp)
    80000f74:	00000193          	li	gp,0
    80000f78:	00b18463          	beq	gp,a1,80000f80 <inst_102>
    80000f7c:	8a8ff06f          	j	80000024 <rvtest_error>

0000000080000f80 <inst_102>:
    80000f80:	00100513          	li	a0,1
    80000f84:	01551513          	slli	a0,a0,0x15
    80000f88:	fff54513          	not	a0,a0
    80000f8c:	00d53593          	sltiu	a1,a0,13
    80000f90:	28b13023          	sd	a1,640(sp)
    80000f94:	00000193          	li	gp,0
    80000f98:	00b18463          	beq	gp,a1,80000fa0 <inst_103>
    80000f9c:	888ff06f          	j	80000024 <rvtest_error>

0000000080000fa0 <inst_103>:
    80000fa0:	00100513          	li	a0,1
    80000fa4:	01651513          	slli	a0,a0,0x16
    80000fa8:	fff54513          	not	a0,a0
    80000fac:	03f53593          	sltiu	a1,a0,63
    80000fb0:	28b13423          	sd	a1,648(sp)
    80000fb4:	00000193          	li	gp,0
    80000fb8:	00b18463          	beq	gp,a1,80000fc0 <inst_104>
    80000fbc:	868ff06f          	j	80000024 <rvtest_error>

0000000080000fc0 <inst_104>:
    80000fc0:	00100513          	li	a0,1
    80000fc4:	01751513          	slli	a0,a0,0x17
    80000fc8:	fff54513          	not	a0,a0
    80000fcc:	eff53593          	sltiu	a1,a0,-257
    80000fd0:	28b13823          	sd	a1,656(sp)
    80000fd4:	00100193          	li	gp,1
    80000fd8:	00b18463          	beq	gp,a1,80000fe0 <inst_105>
    80000fdc:	848ff06f          	j	80000024 <rvtest_error>

0000000080000fe0 <inst_105>:
    80000fe0:	00100513          	li	a0,1
    80000fe4:	01851513          	slli	a0,a0,0x18
    80000fe8:	fff54513          	not	a0,a0
    80000fec:	00353593          	sltiu	a1,a0,3
    80000ff0:	28b13c23          	sd	a1,664(sp)
    80000ff4:	00000193          	li	gp,0
    80000ff8:	00b18463          	beq	gp,a1,80001000 <inst_106>
    80000ffc:	828ff06f          	j	80000024 <rvtest_error>

0000000080001000 <inst_106>:
    80001000:	00100513          	li	a0,1
    80001004:	01a51513          	slli	a0,a0,0x1a
    80001008:	fff54513          	not	a0,a0
    8000100c:	55553593          	sltiu	a1,a0,1365
    80001010:	2ab13023          	sd	a1,672(sp)
    80001014:	00000193          	li	gp,0
    80001018:	00b18463          	beq	gp,a1,80001020 <inst_107>
    8000101c:	808ff06f          	j	80000024 <rvtest_error>

0000000080001020 <inst_107>:
    80001020:	00100513          	li	a0,1
    80001024:	01b51513          	slli	a0,a0,0x1b
    80001028:	fff54513          	not	a0,a0
    8000102c:	00153593          	seqz	a1,a0
    80001030:	2ab13423          	sd	a1,680(sp)
    80001034:	00000193          	li	gp,0
    80001038:	00b18463          	beq	gp,a1,80001040 <inst_108>
    8000103c:	fe9fe06f          	j	80000024 <rvtest_error>

0000000080001040 <inst_108>:
    80001040:	00100513          	li	a0,1
    80001044:	01c51513          	slli	a0,a0,0x1c
    80001048:	fff54513          	not	a0,a0
    8000104c:	02d53593          	sltiu	a1,a0,45
    80001050:	2ab13823          	sd	a1,688(sp)
    80001054:	00000193          	li	gp,0
    80001058:	00b18463          	beq	gp,a1,80001060 <inst_109>
    8000105c:	fc9fe06f          	j	80000024 <rvtest_error>

0000000080001060 <inst_109>:
    80001060:	00100513          	li	a0,1
    80001064:	01d51513          	slli	a0,a0,0x1d
    80001068:	fff54513          	not	a0,a0
    8000106c:	00253593          	sltiu	a1,a0,2
    80001070:	2ab13c23          	sd	a1,696(sp)
    80001074:	00000193          	li	gp,0
    80001078:	00b18463          	beq	gp,a1,80001080 <inst_110>
    8000107c:	fa9fe06f          	j	80000024 <rvtest_error>

0000000080001080 <inst_110>:
    80001080:	00100513          	li	a0,1
    80001084:	01e51513          	slli	a0,a0,0x1e
    80001088:	fff54513          	not	a0,a0
    8000108c:	00753593          	sltiu	a1,a0,7
    80001090:	2cb13023          	sd	a1,704(sp)
    80001094:	00000193          	li	gp,0
    80001098:	00b18463          	beq	gp,a1,800010a0 <inst_111>
    8000109c:	f89fe06f          	j	80000024 <rvtest_error>

00000000800010a0 <inst_111>:
    800010a0:	00100513          	li	a0,1
    800010a4:	01f51513          	slli	a0,a0,0x1f
    800010a8:	fff54513          	not	a0,a0
    800010ac:	02d53593          	sltiu	a1,a0,45
    800010b0:	2cb13423          	sd	a1,712(sp)
    800010b4:	00000193          	li	gp,0
    800010b8:	00b18463          	beq	gp,a1,800010c0 <inst_112>
    800010bc:	f69fe06f          	j	80000024 <rvtest_error>

00000000800010c0 <inst_112>:
    800010c0:	00100513          	li	a0,1
    800010c4:	02051513          	slli	a0,a0,0x20
    800010c8:	fff54513          	not	a0,a0
    800010cc:	08053593          	sltiu	a1,a0,128
    800010d0:	2cb13823          	sd	a1,720(sp)
    800010d4:	00000193          	li	gp,0
    800010d8:	00b18463          	beq	gp,a1,800010e0 <inst_113>
    800010dc:	f49fe06f          	j	80000024 <rvtest_error>

00000000800010e0 <inst_113>:
    800010e0:	00100513          	li	a0,1
    800010e4:	02151513          	slli	a0,a0,0x21
    800010e8:	fff54513          	not	a0,a0
    800010ec:	aa953593          	sltiu	a1,a0,-1367
    800010f0:	2cb13c23          	sd	a1,728(sp)
    800010f4:	00100193          	li	gp,1
    800010f8:	00b18463          	beq	gp,a1,80001100 <inst_114>
    800010fc:	f29fe06f          	j	80000024 <rvtest_error>

0000000080001100 <inst_114>:
    80001100:	00100513          	li	a0,1
    80001104:	02251513          	slli	a0,a0,0x22
    80001108:	fff54513          	not	a0,a0
    8000110c:	02c53593          	sltiu	a1,a0,44
    80001110:	2eb13023          	sd	a1,736(sp)
    80001114:	00000193          	li	gp,0
    80001118:	00b18463          	beq	gp,a1,80001120 <inst_115>
    8000111c:	f09fe06f          	j	80000024 <rvtest_error>

0000000080001120 <inst_115>:
    80001120:	00100513          	li	a0,1
    80001124:	02351513          	slli	a0,a0,0x23
    80001128:	fff54513          	not	a0,a0
    8000112c:	04053593          	sltiu	a1,a0,64
    80001130:	2eb13423          	sd	a1,744(sp)
    80001134:	00000193          	li	gp,0
    80001138:	00b18463          	beq	gp,a1,80001140 <inst_116>
    8000113c:	ee9fe06f          	j	80000024 <rvtest_error>

0000000080001140 <inst_116>:
    80001140:	00100513          	li	a0,1
    80001144:	02451513          	slli	a0,a0,0x24
    80001148:	fff54513          	not	a0,a0
    8000114c:	04053593          	sltiu	a1,a0,64
    80001150:	2eb13823          	sd	a1,752(sp)
    80001154:	00000193          	li	gp,0
    80001158:	00b18463          	beq	gp,a1,80001160 <inst_117>
    8000115c:	ec9fe06f          	j	80000024 <rvtest_error>

0000000080001160 <inst_117>:
    80001160:	00100513          	li	a0,1
    80001164:	02551513          	slli	a0,a0,0x25
    80001168:	fff54513          	not	a0,a0
    8000116c:	00053593          	sltiu	a1,a0,0
    80001170:	2eb13c23          	sd	a1,760(sp)
    80001174:	00000193          	li	gp,0
    80001178:	00b18463          	beq	gp,a1,80001180 <inst_118>
    8000117c:	ea9fe06f          	j	80000024 <rvtest_error>

0000000080001180 <inst_118>:
    80001180:	00100513          	li	a0,1
    80001184:	02651513          	slli	a0,a0,0x26
    80001188:	fff54513          	not	a0,a0
    8000118c:	00253593          	sltiu	a1,a0,2
    80001190:	30b13023          	sd	a1,768(sp)
    80001194:	00000193          	li	gp,0
    80001198:	00b18463          	beq	gp,a1,800011a0 <inst_119>
    8000119c:	e89fe06f          	j	80000024 <rvtest_error>

00000000800011a0 <inst_119>:
    800011a0:	00100513          	li	a0,1
    800011a4:	02851513          	slli	a0,a0,0x28
    800011a8:	fff54513          	not	a0,a0
    800011ac:	00453593          	sltiu	a1,a0,4
    800011b0:	30b13423          	sd	a1,776(sp)
    800011b4:	00000193          	li	gp,0
    800011b8:	00b18463          	beq	gp,a1,800011c0 <inst_120>
    800011bc:	e69fe06f          	j	80000024 <rvtest_error>

00000000800011c0 <inst_120>:
    800011c0:	00100513          	li	a0,1
    800011c4:	02951513          	slli	a0,a0,0x29
    800011c8:	fff54513          	not	a0,a0
    800011cc:	03f53593          	sltiu	a1,a0,63
    800011d0:	30b13823          	sd	a1,784(sp)
    800011d4:	00000193          	li	gp,0
    800011d8:	00b18463          	beq	gp,a1,800011e0 <inst_121>
    800011dc:	e49fe06f          	j	80000024 <rvtest_error>

00000000800011e0 <inst_121>:
    800011e0:	00100513          	li	a0,1
    800011e4:	02a51513          	slli	a0,a0,0x2a
    800011e8:	fff54513          	not	a0,a0
    800011ec:	00c53593          	sltiu	a1,a0,12
    800011f0:	30b13c23          	sd	a1,792(sp)
    800011f4:	00000193          	li	gp,0
    800011f8:	00b18463          	beq	gp,a1,80001200 <inst_122>
    800011fc:	e29fe06f          	j	80000024 <rvtest_error>

0000000080001200 <inst_122>:
    80001200:	00100513          	li	a0,1
    80001204:	02c51513          	slli	a0,a0,0x2c
    80001208:	fff54513          	not	a0,a0
    8000120c:	02053593          	sltiu	a1,a0,32
    80001210:	32b13023          	sd	a1,800(sp)
    80001214:	00000193          	li	gp,0
    80001218:	00b18463          	beq	gp,a1,80001220 <inst_123>
    8000121c:	e09fe06f          	j	80000024 <rvtest_error>

0000000080001220 <inst_123>:
    80001220:	00100513          	li	a0,1
    80001224:	02d51513          	slli	a0,a0,0x2d
    80001228:	fff54513          	not	a0,a0
    8000122c:	fdf53593          	sltiu	a1,a0,-33
    80001230:	32b13423          	sd	a1,808(sp)
    80001234:	00100193          	li	gp,1
    80001238:	00b18463          	beq	gp,a1,80001240 <inst_124>
    8000123c:	de9fe06f          	j	80000024 <rvtest_error>

0000000080001240 <inst_124>:
    80001240:	00100513          	li	a0,1
    80001244:	02e51513          	slli	a0,a0,0x2e
    80001248:	fff54513          	not	a0,a0
    8000124c:	00253593          	sltiu	a1,a0,2
    80001250:	32b13823          	sd	a1,816(sp)
    80001254:	00000193          	li	gp,0
    80001258:	00b18463          	beq	gp,a1,80001260 <inst_125>
    8000125c:	dc9fe06f          	j	80000024 <rvtest_error>

0000000080001260 <inst_125>:
    80001260:	00100513          	li	a0,1
    80001264:	02f51513          	slli	a0,a0,0x2f
    80001268:	fff54513          	not	a0,a0
    8000126c:	80053593          	sltiu	a1,a0,-2048
    80001270:	32b13c23          	sd	a1,824(sp)
    80001274:	00100193          	li	gp,1
    80001278:	00b18463          	beq	gp,a1,80001280 <inst_126>
    8000127c:	da9fe06f          	j	80000024 <rvtest_error>

0000000080001280 <inst_126>:
    80001280:	00100513          	li	a0,1
    80001284:	03051513          	slli	a0,a0,0x30
    80001288:	fff54513          	not	a0,a0
    8000128c:	01253593          	sltiu	a1,a0,18
    80001290:	34b13023          	sd	a1,832(sp)
    80001294:	00000193          	li	gp,0
    80001298:	00b18463          	beq	gp,a1,800012a0 <inst_127>
    8000129c:	d89fe06f          	j	80000024 <rvtest_error>

00000000800012a0 <inst_127>:
    800012a0:	00100513          	li	a0,1
    800012a4:	03151513          	slli	a0,a0,0x31
    800012a8:	fff54513          	not	a0,a0
    800012ac:	01253593          	sltiu	a1,a0,18
    800012b0:	34b13423          	sd	a1,840(sp)
    800012b4:	00000193          	li	gp,0
    800012b8:	00b18463          	beq	gp,a1,800012c0 <inst_128>
    800012bc:	d69fe06f          	j	80000024 <rvtest_error>

00000000800012c0 <inst_128>:
    800012c0:	00100513          	li	a0,1
    800012c4:	03251513          	slli	a0,a0,0x32
    800012c8:	fff54513          	not	a0,a0
    800012cc:	fdf53593          	sltiu	a1,a0,-33
    800012d0:	34b13823          	sd	a1,848(sp)
    800012d4:	00100193          	li	gp,1
    800012d8:	00b18463          	beq	gp,a1,800012e0 <inst_129>
    800012dc:	d49fe06f          	j	80000024 <rvtest_error>

00000000800012e0 <inst_129>:
    800012e0:	00100513          	li	a0,1
    800012e4:	03451513          	slli	a0,a0,0x34
    800012e8:	fff54513          	not	a0,a0
    800012ec:	33353593          	sltiu	a1,a0,819
    800012f0:	34b13c23          	sd	a1,856(sp)
    800012f4:	00000193          	li	gp,0
    800012f8:	00b18463          	beq	gp,a1,80001300 <inst_130>
    800012fc:	d29fe06f          	j	80000024 <rvtest_error>

0000000080001300 <inst_130>:
    80001300:	00100513          	li	a0,1
    80001304:	03551513          	slli	a0,a0,0x35
    80001308:	fff54513          	not	a0,a0
    8000130c:	00453593          	sltiu	a1,a0,4
    80001310:	36b13023          	sd	a1,864(sp)
    80001314:	00000193          	li	gp,0
    80001318:	00b18463          	beq	gp,a1,80001320 <inst_131>
    8000131c:	d09fe06f          	j	80000024 <rvtest_error>

0000000080001320 <inst_131>:
    80001320:	00100513          	li	a0,1
    80001324:	03651513          	slli	a0,a0,0x36
    80001328:	fff54513          	not	a0,a0
    8000132c:	fff53593          	sltiu	a1,a0,-1
    80001330:	36b13423          	sd	a1,872(sp)
    80001334:	00100193          	li	gp,1
    80001338:	00b18463          	beq	gp,a1,80001340 <inst_132>
    8000133c:	ce9fe06f          	j	80000024 <rvtest_error>

0000000080001340 <inst_132>:
    80001340:	00100513          	li	a0,1
    80001344:	03751513          	slli	a0,a0,0x37
    80001348:	fff54513          	not	a0,a0
    8000134c:	02c53593          	sltiu	a1,a0,44
    80001350:	36b13823          	sd	a1,880(sp)
    80001354:	00000193          	li	gp,0
    80001358:	00b18463          	beq	gp,a1,80001360 <inst_133>
    8000135c:	cc9fe06f          	j	80000024 <rvtest_error>

0000000080001360 <inst_133>:
    80001360:	00100513          	li	a0,1
    80001364:	03851513          	slli	a0,a0,0x38
    80001368:	fff54513          	not	a0,a0
    8000136c:	00653593          	sltiu	a1,a0,6
    80001370:	36b13c23          	sd	a1,888(sp)
    80001374:	00000193          	li	gp,0
    80001378:	00b18463          	beq	gp,a1,80001380 <inst_134>
    8000137c:	ca9fe06f          	j	80000024 <rvtest_error>

0000000080001380 <inst_134>:
    80001380:	00100513          	li	a0,1
    80001384:	03951513          	slli	a0,a0,0x39
    80001388:	fff54513          	not	a0,a0
    8000138c:	55553593          	sltiu	a1,a0,1365
    80001390:	38b13023          	sd	a1,896(sp)
    80001394:	00000193          	li	gp,0
    80001398:	00b18463          	beq	gp,a1,800013a0 <inst_135>
    8000139c:	c89fe06f          	j	80000024 <rvtest_error>

00000000800013a0 <inst_135>:
    800013a0:	00100513          	li	a0,1
    800013a4:	03a51513          	slli	a0,a0,0x3a
    800013a8:	fff54513          	not	a0,a0
    800013ac:	eff53593          	sltiu	a1,a0,-257
    800013b0:	38b13423          	sd	a1,904(sp)
    800013b4:	00100193          	li	gp,1
    800013b8:	00b18463          	beq	gp,a1,800013c0 <inst_136>
    800013bc:	c69fe06f          	j	80000024 <rvtest_error>

00000000800013c0 <inst_136>:
    800013c0:	00100513          	li	a0,1
    800013c4:	03b51513          	slli	a0,a0,0x3b
    800013c8:	fff54513          	not	a0,a0
    800013cc:	33253593          	sltiu	a1,a0,818
    800013d0:	38b13823          	sd	a1,912(sp)
    800013d4:	00000193          	li	gp,0
    800013d8:	00b18463          	beq	gp,a1,800013e0 <inst_137>
    800013dc:	c49fe06f          	j	80000024 <rvtest_error>

00000000800013e0 <inst_137>:
    800013e0:	00100513          	li	a0,1
    800013e4:	03c51513          	slli	a0,a0,0x3c
    800013e8:	fff54513          	not	a0,a0
    800013ec:	01253593          	sltiu	a1,a0,18
    800013f0:	38b13c23          	sd	a1,920(sp)
    800013f4:	00000193          	li	gp,0
    800013f8:	00b18463          	beq	gp,a1,80001400 <inst_138>
    800013fc:	c29fe06f          	j	80000024 <rvtest_error>

0000000080001400 <inst_138>:
    80001400:	00100513          	li	a0,1
    80001404:	03d51513          	slli	a0,a0,0x3d
    80001408:	fff54513          	not	a0,a0
    8000140c:	33353593          	sltiu	a1,a0,819
    80001410:	3ab13023          	sd	a1,928(sp)
    80001414:	00000193          	li	gp,0
    80001418:	00b18463          	beq	gp,a1,80001420 <inst_139>
    8000141c:	c09fe06f          	j	80000024 <rvtest_error>

0000000080001420 <inst_139>:
    80001420:	fff00513          	li	a0,-1
    80001424:	00155513          	srli	a0,a0,0x1
    80001428:	00e53593          	sltiu	a1,a0,14
    8000142c:	3ab13423          	sd	a1,936(sp)
    80001430:	00000193          	li	gp,0
    80001434:	00b18463          	beq	gp,a1,8000143c <inst_140>
    80001438:	bedfe06f          	j	80000024 <rvtest_error>

000000008000143c <inst_140>:
    8000143c:	55555537          	lui	a0,0x55555
    80001440:	55550513          	addi	a0,a0,1365 # 55555555 <absimmsh+0x49a847a8>
    80001444:	00b51513          	slli	a0,a0,0xb
    80001448:	2aa50513          	addi	a0,a0,682
    8000144c:	00b51513          	slli	a0,a0,0xb
    80001450:	55550513          	addi	a0,a0,1365
    80001454:	00a51513          	slli	a0,a0,0xa
    80001458:	15550513          	addi	a0,a0,341
    8000145c:	00353593          	sltiu	a1,a0,3
    80001460:	3ab13823          	sd	a1,944(sp)
    80001464:	00000193          	li	gp,0
    80001468:	00b18463          	beq	gp,a1,80001470 <inst_141>
    8000146c:	bb9fe06f          	j	80000024 <rvtest_error>

0000000080001470 <inst_141>:
    80001470:	00300513          	li	a0,3
    80001474:	00353593          	sltiu	a1,a0,3
    80001478:	3ab13c23          	sd	a1,952(sp)
    8000147c:	00000193          	li	gp,0
    80001480:	00b18463          	beq	gp,a1,80001488 <inst_142>
    80001484:	ba1fe06f          	j	80000024 <rvtest_error>

0000000080001488 <inst_142>:
    80001488:	00300513          	li	a0,3
    8000148c:	55553593          	sltiu	a1,a0,1365
    80001490:	3cb13023          	sd	a1,960(sp)
    80001494:	00100193          	li	gp,1
    80001498:	00b18463          	beq	gp,a1,800014a0 <inst_143>
    8000149c:	b89fe06f          	j	80000024 <rvtest_error>

00000000800014a0 <inst_143>:
    800014a0:	00300513          	li	a0,3
    800014a4:	aaa53593          	sltiu	a1,a0,-1366
    800014a8:	3cb13423          	sd	a1,968(sp)
    800014ac:	00100193          	li	gp,1
    800014b0:	00b18463          	beq	gp,a1,800014b8 <inst_144>
    800014b4:	b71fe06f          	j	80000024 <rvtest_error>

00000000800014b8 <inst_144>:
    800014b8:	00300513          	li	a0,3
    800014bc:	00553593          	sltiu	a1,a0,5
    800014c0:	3cb13823          	sd	a1,976(sp)
    800014c4:	00100193          	li	gp,1
    800014c8:	00b18463          	beq	gp,a1,800014d0 <inst_145>
    800014cc:	b59fe06f          	j	80000024 <rvtest_error>

00000000800014d0 <inst_145>:
    800014d0:	00300513          	li	a0,3
    800014d4:	33353593          	sltiu	a1,a0,819
    800014d8:	3cb13c23          	sd	a1,984(sp)
    800014dc:	00100193          	li	gp,1
    800014e0:	00b18463          	beq	gp,a1,800014e8 <inst_146>
    800014e4:	b41fe06f          	j	80000024 <rvtest_error>

00000000800014e8 <inst_146>:
    800014e8:	00300513          	li	a0,3
    800014ec:	66653593          	sltiu	a1,a0,1638
    800014f0:	3eb13023          	sd	a1,992(sp)
    800014f4:	00100193          	li	gp,1
    800014f8:	00b18463          	beq	gp,a1,80001500 <inst_147>
    800014fc:	b29fe06f          	j	80000024 <rvtest_error>

0000000080001500 <inst_147>:
    80001500:	00300513          	li	a0,3
    80001504:	02d53593          	sltiu	a1,a0,45
    80001508:	3eb13423          	sd	a1,1000(sp)
    8000150c:	00100193          	li	gp,1
    80001510:	00b18463          	beq	gp,a1,80001518 <inst_148>
    80001514:	b11fe06f          	j	80000024 <rvtest_error>

0000000080001518 <inst_148>:
    80001518:	00300513          	li	a0,3
    8000151c:	00053593          	sltiu	a1,a0,0
    80001520:	3eb13823          	sd	a1,1008(sp)
    80001524:	00000193          	li	gp,0
    80001528:	00b18463          	beq	gp,a1,80001530 <inst_149>
    8000152c:	af9fe06f          	j	80000024 <rvtest_error>

0000000080001530 <inst_149>:
    80001530:	00300513          	li	a0,3
    80001534:	03f53593          	sltiu	a1,a0,63
    80001538:	3eb13c23          	sd	a1,1016(sp)
    8000153c:	00100193          	li	gp,1
    80001540:	00b18463          	beq	gp,a1,80001548 <inst_150>
    80001544:	ae1fe06f          	j	80000024 <rvtest_error>

0000000080001548 <inst_150>:
    80001548:	00300513          	li	a0,3
    8000154c:	00253593          	sltiu	a1,a0,2
    80001550:	40b13023          	sd	a1,1024(sp)
    80001554:	00000193          	li	gp,0
    80001558:	00b18463          	beq	gp,a1,80001560 <inst_151>
    8000155c:	ac9fe06f          	j	80000024 <rvtest_error>

0000000080001560 <inst_151>:
    80001560:	00300513          	li	a0,3
    80001564:	55453593          	sltiu	a1,a0,1364
    80001568:	40b13423          	sd	a1,1032(sp)
    8000156c:	00100193          	li	gp,1
    80001570:	00b18463          	beq	gp,a1,80001578 <inst_152>
    80001574:	ab1fe06f          	j	80000024 <rvtest_error>

0000000080001578 <inst_152>:
    80001578:	00300513          	li	a0,3
    8000157c:	aa953593          	sltiu	a1,a0,-1367
    80001580:	40b13823          	sd	a1,1040(sp)
    80001584:	00100193          	li	gp,1
    80001588:	00b18463          	beq	gp,a1,80001590 <inst_153>
    8000158c:	a99fe06f          	j	80000024 <rvtest_error>

0000000080001590 <inst_153>:
    80001590:	00300513          	li	a0,3
    80001594:	00453593          	sltiu	a1,a0,4
    80001598:	40b13c23          	sd	a1,1048(sp)
    8000159c:	00100193          	li	gp,1
    800015a0:	00b18463          	beq	gp,a1,800015a8 <inst_154>
    800015a4:	a81fe06f          	j	80000024 <rvtest_error>

00000000800015a8 <inst_154>:
    800015a8:	00300513          	li	a0,3
    800015ac:	33253593          	sltiu	a1,a0,818
    800015b0:	42b13023          	sd	a1,1056(sp)
    800015b4:	00100193          	li	gp,1
    800015b8:	00b18463          	beq	gp,a1,800015c0 <inst_155>
    800015bc:	a69fe06f          	j	80000024 <rvtest_error>

00000000800015c0 <inst_155>:
    800015c0:	00300513          	li	a0,3
    800015c4:	66553593          	sltiu	a1,a0,1637
    800015c8:	42b13423          	sd	a1,1064(sp)
    800015cc:	00100193          	li	gp,1
    800015d0:	00b18463          	beq	gp,a1,800015d8 <inst_156>
    800015d4:	a51fe06f          	j	80000024 <rvtest_error>

00000000800015d8 <inst_156>:
    800015d8:	00300513          	li	a0,3
    800015dc:	02c53593          	sltiu	a1,a0,44
    800015e0:	42b13823          	sd	a1,1072(sp)
    800015e4:	00100193          	li	gp,1
    800015e8:	00b18463          	beq	gp,a1,800015f0 <inst_157>
    800015ec:	a39fe06f          	j	80000024 <rvtest_error>

00000000800015f0 <inst_157>:
    800015f0:	00300513          	li	a0,3
    800015f4:	03e53593          	sltiu	a1,a0,62
    800015f8:	42b13c23          	sd	a1,1080(sp)
    800015fc:	00100193          	li	gp,1
    80001600:	00b18463          	beq	gp,a1,80001608 <inst_158>
    80001604:	a21fe06f          	j	80000024 <rvtest_error>

0000000080001608 <inst_158>:
    80001608:	00300513          	li	a0,3
    8000160c:	55653593          	sltiu	a1,a0,1366
    80001610:	44b13023          	sd	a1,1088(sp)
    80001614:	00100193          	li	gp,1
    80001618:	00b18463          	beq	gp,a1,80001620 <inst_159>
    8000161c:	a09fe06f          	j	80000024 <rvtest_error>

0000000080001620 <inst_159>:
    80001620:	00300513          	li	a0,3
    80001624:	aab53593          	sltiu	a1,a0,-1365
    80001628:	44b13423          	sd	a1,1096(sp)
    8000162c:	00100193          	li	gp,1
    80001630:	00b18463          	beq	gp,a1,80001638 <inst_160>
    80001634:	9f1fe06f          	j	80000024 <rvtest_error>

0000000080001638 <inst_160>:
    80001638:	00300513          	li	a0,3
    8000163c:	00653593          	sltiu	a1,a0,6
    80001640:	44b13823          	sd	a1,1104(sp)
    80001644:	00100193          	li	gp,1
    80001648:	00b18463          	beq	gp,a1,80001650 <inst_161>
    8000164c:	9d9fe06f          	j	80000024 <rvtest_error>

0000000080001650 <inst_161>:
    80001650:	00300513          	li	a0,3
    80001654:	33453593          	sltiu	a1,a0,820
    80001658:	44b13c23          	sd	a1,1112(sp)
    8000165c:	00100193          	li	gp,1
    80001660:	00b18463          	beq	gp,a1,80001668 <inst_162>
    80001664:	9c1fe06f          	j	80000024 <rvtest_error>

0000000080001668 <inst_162>:
    80001668:	00300513          	li	a0,3
    8000166c:	66753593          	sltiu	a1,a0,1639
    80001670:	46b13023          	sd	a1,1120(sp)
    80001674:	00100193          	li	gp,1
    80001678:	00b18463          	beq	gp,a1,80001680 <inst_163>
    8000167c:	9a9fe06f          	j	80000024 <rvtest_error>

0000000080001680 <inst_163>:
    80001680:	00300513          	li	a0,3
    80001684:	02e53593          	sltiu	a1,a0,46
    80001688:	46b13423          	sd	a1,1128(sp)
    8000168c:	00100193          	li	gp,1
    80001690:	00b18463          	beq	gp,a1,80001698 <inst_164>
    80001694:	991fe06f          	j	80000024 <rvtest_error>

0000000080001698 <inst_164>:
    80001698:	00300513          	li	a0,3
    8000169c:	00153593          	seqz	a1,a0
    800016a0:	46b13823          	sd	a1,1136(sp)
    800016a4:	00000193          	li	gp,0
    800016a8:	00b18463          	beq	gp,a1,800016b0 <inst_165>
    800016ac:	979fe06f          	j	80000024 <rvtest_error>

00000000800016b0 <inst_165>:
    800016b0:	00300513          	li	a0,3
    800016b4:	04053593          	sltiu	a1,a0,64
    800016b8:	46b13c23          	sd	a1,1144(sp)
    800016bc:	00100193          	li	gp,1
    800016c0:	00b18463          	beq	gp,a1,800016c8 <inst_166>
    800016c4:	961fe06f          	j	80000024 <rvtest_error>

00000000800016c8 <inst_166>:
    800016c8:	55555537          	lui	a0,0x55555
    800016cc:	55550513          	addi	a0,a0,1365 # 55555555 <absimmsh+0x49a847a8>
    800016d0:	00b51513          	slli	a0,a0,0xb
    800016d4:	2aa50513          	addi	a0,a0,682
    800016d8:	00b51513          	slli	a0,a0,0xb
    800016dc:	55550513          	addi	a0,a0,1365
    800016e0:	00a51513          	slli	a0,a0,0xa
    800016e4:	15550513          	addi	a0,a0,341
    800016e8:	55553593          	sltiu	a1,a0,1365
    800016ec:	48b13023          	sd	a1,1152(sp)
    800016f0:	00000193          	li	gp,0
    800016f4:	00b18463          	beq	gp,a1,800016fc <inst_167>
    800016f8:	92dfe06f          	j	80000024 <rvtest_error>

00000000800016fc <inst_167>:
    800016fc:	55555537          	lui	a0,0x55555
    80001700:	55550513          	addi	a0,a0,1365 # 55555555 <absimmsh+0x49a847a8>
    80001704:	00b51513          	slli	a0,a0,0xb
    80001708:	2aa50513          	addi	a0,a0,682
    8000170c:	00b51513          	slli	a0,a0,0xb
    80001710:	55550513          	addi	a0,a0,1365
    80001714:	00a51513          	slli	a0,a0,0xa
    80001718:	15550513          	addi	a0,a0,341
    8000171c:	aaa53593          	sltiu	a1,a0,-1366
    80001720:	48b13423          	sd	a1,1160(sp)
    80001724:	00100193          	li	gp,1
    80001728:	00b18463          	beq	gp,a1,80001730 <inst_168>
    8000172c:	8f9fe06f          	j	80000024 <rvtest_error>

0000000080001730 <inst_168>:
    80001730:	55555537          	lui	a0,0x55555
    80001734:	55550513          	addi	a0,a0,1365 # 55555555 <absimmsh+0x49a847a8>
    80001738:	00b51513          	slli	a0,a0,0xb
    8000173c:	2aa50513          	addi	a0,a0,682
    80001740:	00b51513          	slli	a0,a0,0xb
    80001744:	55550513          	addi	a0,a0,1365
    80001748:	00a51513          	slli	a0,a0,0xa
    8000174c:	15550513          	addi	a0,a0,341
    80001750:	00553593          	sltiu	a1,a0,5
    80001754:	48b13823          	sd	a1,1168(sp)
    80001758:	00000193          	li	gp,0
    8000175c:	00b18463          	beq	gp,a1,80001764 <inst_169>
    80001760:	8c5fe06f          	j	80000024 <rvtest_error>

0000000080001764 <inst_169>:
    80001764:	55555537          	lui	a0,0x55555
    80001768:	55550513          	addi	a0,a0,1365 # 55555555 <absimmsh+0x49a847a8>
    8000176c:	00b51513          	slli	a0,a0,0xb
    80001770:	2aa50513          	addi	a0,a0,682
    80001774:	00b51513          	slli	a0,a0,0xb
    80001778:	55550513          	addi	a0,a0,1365
    8000177c:	00a51513          	slli	a0,a0,0xa
    80001780:	15550513          	addi	a0,a0,341
    80001784:	33353593          	sltiu	a1,a0,819
    80001788:	48b13c23          	sd	a1,1176(sp)
    8000178c:	00000193          	li	gp,0
    80001790:	00b18463          	beq	gp,a1,80001798 <inst_170>
    80001794:	891fe06f          	j	80000024 <rvtest_error>

0000000080001798 <inst_170>:
    80001798:	55555537          	lui	a0,0x55555
    8000179c:	55550513          	addi	a0,a0,1365 # 55555555 <absimmsh+0x49a847a8>
    800017a0:	00b51513          	slli	a0,a0,0xb
    800017a4:	2aa50513          	addi	a0,a0,682
    800017a8:	00b51513          	slli	a0,a0,0xb
    800017ac:	55550513          	addi	a0,a0,1365
    800017b0:	00a51513          	slli	a0,a0,0xa
    800017b4:	15550513          	addi	a0,a0,341
    800017b8:	66653593          	sltiu	a1,a0,1638
    800017bc:	4ab13023          	sd	a1,1184(sp)
    800017c0:	00000193          	li	gp,0
    800017c4:	00b18463          	beq	gp,a1,800017cc <inst_171>
    800017c8:	85dfe06f          	j	80000024 <rvtest_error>

00000000800017cc <inst_171>:
    800017cc:	55555537          	lui	a0,0x55555
    800017d0:	55550513          	addi	a0,a0,1365 # 55555555 <absimmsh+0x49a847a8>
    800017d4:	00b51513          	slli	a0,a0,0xb
    800017d8:	2aa50513          	addi	a0,a0,682
    800017dc:	00b51513          	slli	a0,a0,0xb
    800017e0:	55550513          	addi	a0,a0,1365
    800017e4:	00a51513          	slli	a0,a0,0xa
    800017e8:	15550513          	addi	a0,a0,341
    800017ec:	02d53593          	sltiu	a1,a0,45
    800017f0:	4ab13423          	sd	a1,1192(sp)
    800017f4:	00000193          	li	gp,0
    800017f8:	00b18463          	beq	gp,a1,80001800 <inst_172>
    800017fc:	829fe06f          	j	80000024 <rvtest_error>

0000000080001800 <inst_172>:
    80001800:	55555537          	lui	a0,0x55555
    80001804:	55550513          	addi	a0,a0,1365 # 55555555 <absimmsh+0x49a847a8>
    80001808:	00b51513          	slli	a0,a0,0xb
    8000180c:	2aa50513          	addi	a0,a0,682
    80001810:	00b51513          	slli	a0,a0,0xb
    80001814:	55550513          	addi	a0,a0,1365
    80001818:	00a51513          	slli	a0,a0,0xa
    8000181c:	15550513          	addi	a0,a0,341
    80001820:	00053593          	sltiu	a1,a0,0
    80001824:	4ab13823          	sd	a1,1200(sp)
    80001828:	00000193          	li	gp,0
    8000182c:	00b18463          	beq	gp,a1,80001834 <inst_173>
    80001830:	ff4fe06f          	j	80000024 <rvtest_error>

0000000080001834 <inst_173>:
    80001834:	55555537          	lui	a0,0x55555
    80001838:	55550513          	addi	a0,a0,1365 # 55555555 <absimmsh+0x49a847a8>
    8000183c:	00b51513          	slli	a0,a0,0xb
    80001840:	2aa50513          	addi	a0,a0,682
    80001844:	00b51513          	slli	a0,a0,0xb
    80001848:	55550513          	addi	a0,a0,1365
    8000184c:	00a51513          	slli	a0,a0,0xa
    80001850:	15550513          	addi	a0,a0,341
    80001854:	03f53593          	sltiu	a1,a0,63
    80001858:	4ab13c23          	sd	a1,1208(sp)
    8000185c:	00000193          	li	gp,0
    80001860:	00b18463          	beq	gp,a1,80001868 <inst_174>
    80001864:	fc0fe06f          	j	80000024 <rvtest_error>

0000000080001868 <inst_174>:
    80001868:	55555537          	lui	a0,0x55555
    8000186c:	55550513          	addi	a0,a0,1365 # 55555555 <absimmsh+0x49a847a8>
    80001870:	00b51513          	slli	a0,a0,0xb
    80001874:	2aa50513          	addi	a0,a0,682
    80001878:	00b51513          	slli	a0,a0,0xb
    8000187c:	55550513          	addi	a0,a0,1365
    80001880:	00a51513          	slli	a0,a0,0xa
    80001884:	15550513          	addi	a0,a0,341
    80001888:	00253593          	sltiu	a1,a0,2
    8000188c:	4cb13023          	sd	a1,1216(sp)
    80001890:	00000193          	li	gp,0
    80001894:	00b18463          	beq	gp,a1,8000189c <inst_175>
    80001898:	f8cfe06f          	j	80000024 <rvtest_error>

000000008000189c <inst_175>:
    8000189c:	55555537          	lui	a0,0x55555
    800018a0:	55550513          	addi	a0,a0,1365 # 55555555 <absimmsh+0x49a847a8>
    800018a4:	00b51513          	slli	a0,a0,0xb
    800018a8:	2aa50513          	addi	a0,a0,682
    800018ac:	00b51513          	slli	a0,a0,0xb
    800018b0:	55550513          	addi	a0,a0,1365
    800018b4:	00a51513          	slli	a0,a0,0xa
    800018b8:	15550513          	addi	a0,a0,341
    800018bc:	55453593          	sltiu	a1,a0,1364
    800018c0:	4cb13423          	sd	a1,1224(sp)
    800018c4:	00000193          	li	gp,0
    800018c8:	00b18463          	beq	gp,a1,800018d0 <inst_176>
    800018cc:	f58fe06f          	j	80000024 <rvtest_error>

00000000800018d0 <inst_176>:
    800018d0:	55555537          	lui	a0,0x55555
    800018d4:	55550513          	addi	a0,a0,1365 # 55555555 <absimmsh+0x49a847a8>
    800018d8:	00b51513          	slli	a0,a0,0xb
    800018dc:	2aa50513          	addi	a0,a0,682
    800018e0:	00b51513          	slli	a0,a0,0xb
    800018e4:	55550513          	addi	a0,a0,1365
    800018e8:	00a51513          	slli	a0,a0,0xa
    800018ec:	15550513          	addi	a0,a0,341
    800018f0:	aa953593          	sltiu	a1,a0,-1367
    800018f4:	4cb13823          	sd	a1,1232(sp)
    800018f8:	00100193          	li	gp,1
    800018fc:	00b18463          	beq	gp,a1,80001904 <inst_177>
    80001900:	f24fe06f          	j	80000024 <rvtest_error>

0000000080001904 <inst_177>:
    80001904:	55555537          	lui	a0,0x55555
    80001908:	55550513          	addi	a0,a0,1365 # 55555555 <absimmsh+0x49a847a8>
    8000190c:	00b51513          	slli	a0,a0,0xb
    80001910:	2aa50513          	addi	a0,a0,682
    80001914:	00b51513          	slli	a0,a0,0xb
    80001918:	55550513          	addi	a0,a0,1365
    8000191c:	00a51513          	slli	a0,a0,0xa
    80001920:	15550513          	addi	a0,a0,341
    80001924:	00453593          	sltiu	a1,a0,4
    80001928:	4cb13c23          	sd	a1,1240(sp)
    8000192c:	00000193          	li	gp,0
    80001930:	00b18463          	beq	gp,a1,80001938 <inst_178>
    80001934:	ef0fe06f          	j	80000024 <rvtest_error>

0000000080001938 <inst_178>:
    80001938:	55555537          	lui	a0,0x55555
    8000193c:	55550513          	addi	a0,a0,1365 # 55555555 <absimmsh+0x49a847a8>
    80001940:	00b51513          	slli	a0,a0,0xb
    80001944:	2aa50513          	addi	a0,a0,682
    80001948:	00b51513          	slli	a0,a0,0xb
    8000194c:	55550513          	addi	a0,a0,1365
    80001950:	00a51513          	slli	a0,a0,0xa
    80001954:	15550513          	addi	a0,a0,341
    80001958:	33253593          	sltiu	a1,a0,818
    8000195c:	4eb13023          	sd	a1,1248(sp)
    80001960:	00000193          	li	gp,0
    80001964:	00b18463          	beq	gp,a1,8000196c <inst_179>
    80001968:	ebcfe06f          	j	80000024 <rvtest_error>

000000008000196c <inst_179>:
    8000196c:	55555537          	lui	a0,0x55555
    80001970:	55550513          	addi	a0,a0,1365 # 55555555 <absimmsh+0x49a847a8>
    80001974:	00b51513          	slli	a0,a0,0xb
    80001978:	2aa50513          	addi	a0,a0,682
    8000197c:	00b51513          	slli	a0,a0,0xb
    80001980:	55550513          	addi	a0,a0,1365
    80001984:	00a51513          	slli	a0,a0,0xa
    80001988:	15550513          	addi	a0,a0,341
    8000198c:	66553593          	sltiu	a1,a0,1637
    80001990:	4eb13423          	sd	a1,1256(sp)
    80001994:	00000193          	li	gp,0
    80001998:	00b18463          	beq	gp,a1,800019a0 <inst_180>
    8000199c:	e88fe06f          	j	80000024 <rvtest_error>

00000000800019a0 <inst_180>:
    800019a0:	55555537          	lui	a0,0x55555
    800019a4:	55550513          	addi	a0,a0,1365 # 55555555 <absimmsh+0x49a847a8>
    800019a8:	00b51513          	slli	a0,a0,0xb
    800019ac:	2aa50513          	addi	a0,a0,682
    800019b0:	00b51513          	slli	a0,a0,0xb
    800019b4:	55550513          	addi	a0,a0,1365
    800019b8:	00a51513          	slli	a0,a0,0xa
    800019bc:	15550513          	addi	a0,a0,341
    800019c0:	02c53593          	sltiu	a1,a0,44
    800019c4:	4eb13823          	sd	a1,1264(sp)
    800019c8:	00000193          	li	gp,0
    800019cc:	00b18463          	beq	gp,a1,800019d4 <inst_181>
    800019d0:	e54fe06f          	j	80000024 <rvtest_error>

00000000800019d4 <inst_181>:
    800019d4:	55555537          	lui	a0,0x55555
    800019d8:	55550513          	addi	a0,a0,1365 # 55555555 <absimmsh+0x49a847a8>
    800019dc:	00b51513          	slli	a0,a0,0xb
    800019e0:	2aa50513          	addi	a0,a0,682
    800019e4:	00b51513          	slli	a0,a0,0xb
    800019e8:	55550513          	addi	a0,a0,1365
    800019ec:	00a51513          	slli	a0,a0,0xa
    800019f0:	15550513          	addi	a0,a0,341
    800019f4:	03e53593          	sltiu	a1,a0,62
    800019f8:	4eb13c23          	sd	a1,1272(sp)
    800019fc:	00000193          	li	gp,0
    80001a00:	00b18463          	beq	gp,a1,80001a08 <inst_182>
    80001a04:	e20fe06f          	j	80000024 <rvtest_error>

0000000080001a08 <inst_182>:
    80001a08:	55555537          	lui	a0,0x55555
    80001a0c:	55550513          	addi	a0,a0,1365 # 55555555 <absimmsh+0x49a847a8>
    80001a10:	00b51513          	slli	a0,a0,0xb
    80001a14:	2aa50513          	addi	a0,a0,682
    80001a18:	00b51513          	slli	a0,a0,0xb
    80001a1c:	55550513          	addi	a0,a0,1365
    80001a20:	00a51513          	slli	a0,a0,0xa
    80001a24:	15550513          	addi	a0,a0,341
    80001a28:	55653593          	sltiu	a1,a0,1366
    80001a2c:	50b13023          	sd	a1,1280(sp)
    80001a30:	00000193          	li	gp,0
    80001a34:	00b18463          	beq	gp,a1,80001a3c <inst_183>
    80001a38:	decfe06f          	j	80000024 <rvtest_error>

0000000080001a3c <inst_183>:
    80001a3c:	55555537          	lui	a0,0x55555
    80001a40:	55550513          	addi	a0,a0,1365 # 55555555 <absimmsh+0x49a847a8>
    80001a44:	00b51513          	slli	a0,a0,0xb
    80001a48:	2aa50513          	addi	a0,a0,682
    80001a4c:	00b51513          	slli	a0,a0,0xb
    80001a50:	55550513          	addi	a0,a0,1365
    80001a54:	00a51513          	slli	a0,a0,0xa
    80001a58:	15550513          	addi	a0,a0,341
    80001a5c:	aab53593          	sltiu	a1,a0,-1365
    80001a60:	50b13423          	sd	a1,1288(sp)
    80001a64:	00100193          	li	gp,1
    80001a68:	00b18463          	beq	gp,a1,80001a70 <inst_184>
    80001a6c:	db8fe06f          	j	80000024 <rvtest_error>

0000000080001a70 <inst_184>:
    80001a70:	55555537          	lui	a0,0x55555
    80001a74:	55550513          	addi	a0,a0,1365 # 55555555 <absimmsh+0x49a847a8>
    80001a78:	00b51513          	slli	a0,a0,0xb
    80001a7c:	2aa50513          	addi	a0,a0,682
    80001a80:	00b51513          	slli	a0,a0,0xb
    80001a84:	55550513          	addi	a0,a0,1365
    80001a88:	00a51513          	slli	a0,a0,0xa
    80001a8c:	15550513          	addi	a0,a0,341
    80001a90:	00653593          	sltiu	a1,a0,6
    80001a94:	50b13823          	sd	a1,1296(sp)
    80001a98:	00000193          	li	gp,0
    80001a9c:	00b18463          	beq	gp,a1,80001aa4 <inst_185>
    80001aa0:	d84fe06f          	j	80000024 <rvtest_error>

0000000080001aa4 <inst_185>:
    80001aa4:	55555537          	lui	a0,0x55555
    80001aa8:	55550513          	addi	a0,a0,1365 # 55555555 <absimmsh+0x49a847a8>
    80001aac:	00b51513          	slli	a0,a0,0xb
    80001ab0:	2aa50513          	addi	a0,a0,682
    80001ab4:	00b51513          	slli	a0,a0,0xb
    80001ab8:	55550513          	addi	a0,a0,1365
    80001abc:	00a51513          	slli	a0,a0,0xa
    80001ac0:	15550513          	addi	a0,a0,341
    80001ac4:	33453593          	sltiu	a1,a0,820
    80001ac8:	50b13c23          	sd	a1,1304(sp)
    80001acc:	00000193          	li	gp,0
    80001ad0:	00b18463          	beq	gp,a1,80001ad8 <inst_186>
    80001ad4:	d50fe06f          	j	80000024 <rvtest_error>

0000000080001ad8 <inst_186>:
    80001ad8:	55555537          	lui	a0,0x55555
    80001adc:	55550513          	addi	a0,a0,1365 # 55555555 <absimmsh+0x49a847a8>
    80001ae0:	00b51513          	slli	a0,a0,0xb
    80001ae4:	2aa50513          	addi	a0,a0,682
    80001ae8:	00b51513          	slli	a0,a0,0xb
    80001aec:	55550513          	addi	a0,a0,1365
    80001af0:	00a51513          	slli	a0,a0,0xa
    80001af4:	15550513          	addi	a0,a0,341
    80001af8:	66753593          	sltiu	a1,a0,1639
    80001afc:	52b13023          	sd	a1,1312(sp)
    80001b00:	00000193          	li	gp,0
    80001b04:	00b18463          	beq	gp,a1,80001b0c <inst_187>
    80001b08:	d1cfe06f          	j	80000024 <rvtest_error>

0000000080001b0c <inst_187>:
    80001b0c:	55555537          	lui	a0,0x55555
    80001b10:	55550513          	addi	a0,a0,1365 # 55555555 <absimmsh+0x49a847a8>
    80001b14:	00b51513          	slli	a0,a0,0xb
    80001b18:	2aa50513          	addi	a0,a0,682
    80001b1c:	00b51513          	slli	a0,a0,0xb
    80001b20:	55550513          	addi	a0,a0,1365
    80001b24:	00a51513          	slli	a0,a0,0xa
    80001b28:	15550513          	addi	a0,a0,341
    80001b2c:	02e53593          	sltiu	a1,a0,46
    80001b30:	52b13423          	sd	a1,1320(sp)
    80001b34:	00000193          	li	gp,0
    80001b38:	00b18463          	beq	gp,a1,80001b40 <inst_188>
    80001b3c:	ce8fe06f          	j	80000024 <rvtest_error>

0000000080001b40 <inst_188>:
    80001b40:	55555537          	lui	a0,0x55555
    80001b44:	55550513          	addi	a0,a0,1365 # 55555555 <absimmsh+0x49a847a8>
    80001b48:	00b51513          	slli	a0,a0,0xb
    80001b4c:	2aa50513          	addi	a0,a0,682
    80001b50:	00b51513          	slli	a0,a0,0xb
    80001b54:	55550513          	addi	a0,a0,1365
    80001b58:	00a51513          	slli	a0,a0,0xa
    80001b5c:	15550513          	addi	a0,a0,341
    80001b60:	00153593          	seqz	a1,a0
    80001b64:	52b13823          	sd	a1,1328(sp)
    80001b68:	00000193          	li	gp,0
    80001b6c:	00b18463          	beq	gp,a1,80001b74 <inst_189>
    80001b70:	cb4fe06f          	j	80000024 <rvtest_error>

0000000080001b74 <inst_189>:
    80001b74:	55555537          	lui	a0,0x55555
    80001b78:	55550513          	addi	a0,a0,1365 # 55555555 <absimmsh+0x49a847a8>
    80001b7c:	00b51513          	slli	a0,a0,0xb
    80001b80:	2aa50513          	addi	a0,a0,682
    80001b84:	00b51513          	slli	a0,a0,0xb
    80001b88:	55550513          	addi	a0,a0,1365
    80001b8c:	00a51513          	slli	a0,a0,0xa
    80001b90:	15550513          	addi	a0,a0,341
    80001b94:	04053593          	sltiu	a1,a0,64
    80001b98:	52b13c23          	sd	a1,1336(sp)
    80001b9c:	00000193          	li	gp,0
    80001ba0:	00b18463          	beq	gp,a1,80001ba8 <inst_190>
    80001ba4:	c80fe06f          	j	80000024 <rvtest_error>

0000000080001ba8 <inst_190>:
    80001ba8:	aaaab537          	lui	a0,0xaaaab
    80001bac:	aaa50513          	addi	a0,a0,-1366 # ffffffffaaaaaaaa <absimm+0xfffffffeefd9cfda>
    80001bb0:	00b51513          	slli	a0,a0,0xb
    80001bb4:	55550513          	addi	a0,a0,1365
    80001bb8:	00b51513          	slli	a0,a0,0xb
    80001bbc:	2aa50513          	addi	a0,a0,682
    80001bc0:	00a51513          	slli	a0,a0,0xa
    80001bc4:	2aa50513          	addi	a0,a0,682
    80001bc8:	00353593          	sltiu	a1,a0,3
    80001bcc:	54b13023          	sd	a1,1344(sp)
    80001bd0:	00000193          	li	gp,0
    80001bd4:	00b18463          	beq	gp,a1,80001bdc <inst_191>
    80001bd8:	c4cfe06f          	j	80000024 <rvtest_error>

0000000080001bdc <inst_191>:
    80001bdc:	aaaab537          	lui	a0,0xaaaab
    80001be0:	aaa50513          	addi	a0,a0,-1366 # ffffffffaaaaaaaa <absimm+0xfffffffeefd9cfda>
    80001be4:	00b51513          	slli	a0,a0,0xb
    80001be8:	55550513          	addi	a0,a0,1365
    80001bec:	00b51513          	slli	a0,a0,0xb
    80001bf0:	2aa50513          	addi	a0,a0,682
    80001bf4:	00a51513          	slli	a0,a0,0xa
    80001bf8:	2aa50513          	addi	a0,a0,682
    80001bfc:	55553593          	sltiu	a1,a0,1365
    80001c00:	54b13423          	sd	a1,1352(sp)
    80001c04:	00000193          	li	gp,0
    80001c08:	00b18463          	beq	gp,a1,80001c10 <inst_192>
    80001c0c:	c18fe06f          	j	80000024 <rvtest_error>

0000000080001c10 <inst_192>:
    80001c10:	aaaab537          	lui	a0,0xaaaab
    80001c14:	aaa50513          	addi	a0,a0,-1366 # ffffffffaaaaaaaa <absimm+0xfffffffeefd9cfda>
    80001c18:	00b51513          	slli	a0,a0,0xb
    80001c1c:	55550513          	addi	a0,a0,1365
    80001c20:	00b51513          	slli	a0,a0,0xb
    80001c24:	2aa50513          	addi	a0,a0,682
    80001c28:	00a51513          	slli	a0,a0,0xa
    80001c2c:	2aa50513          	addi	a0,a0,682
    80001c30:	aaa53593          	sltiu	a1,a0,-1366
    80001c34:	54b13823          	sd	a1,1360(sp)
    80001c38:	00100193          	li	gp,1
    80001c3c:	00b18463          	beq	gp,a1,80001c44 <inst_193>
    80001c40:	be4fe06f          	j	80000024 <rvtest_error>

0000000080001c44 <inst_193>:
    80001c44:	aaaab537          	lui	a0,0xaaaab
    80001c48:	aaa50513          	addi	a0,a0,-1366 # ffffffffaaaaaaaa <absimm+0xfffffffeefd9cfda>
    80001c4c:	00b51513          	slli	a0,a0,0xb
    80001c50:	55550513          	addi	a0,a0,1365
    80001c54:	00b51513          	slli	a0,a0,0xb
    80001c58:	2aa50513          	addi	a0,a0,682
    80001c5c:	00a51513          	slli	a0,a0,0xa
    80001c60:	2aa50513          	addi	a0,a0,682
    80001c64:	00553593          	sltiu	a1,a0,5
    80001c68:	54b13c23          	sd	a1,1368(sp)
    80001c6c:	00000193          	li	gp,0
    80001c70:	00b18463          	beq	gp,a1,80001c78 <inst_194>
    80001c74:	bb0fe06f          	j	80000024 <rvtest_error>

0000000080001c78 <inst_194>:
    80001c78:	aaaab537          	lui	a0,0xaaaab
    80001c7c:	aaa50513          	addi	a0,a0,-1366 # ffffffffaaaaaaaa <absimm+0xfffffffeefd9cfda>
    80001c80:	00b51513          	slli	a0,a0,0xb
    80001c84:	55550513          	addi	a0,a0,1365
    80001c88:	00b51513          	slli	a0,a0,0xb
    80001c8c:	2aa50513          	addi	a0,a0,682
    80001c90:	00a51513          	slli	a0,a0,0xa
    80001c94:	2aa50513          	addi	a0,a0,682
    80001c98:	33353593          	sltiu	a1,a0,819
    80001c9c:	56b13023          	sd	a1,1376(sp)
    80001ca0:	00000193          	li	gp,0
    80001ca4:	00b18463          	beq	gp,a1,80001cac <inst_195>
    80001ca8:	b7cfe06f          	j	80000024 <rvtest_error>

0000000080001cac <inst_195>:
    80001cac:	aaaab537          	lui	a0,0xaaaab
    80001cb0:	aaa50513          	addi	a0,a0,-1366 # ffffffffaaaaaaaa <absimm+0xfffffffeefd9cfda>
    80001cb4:	00b51513          	slli	a0,a0,0xb
    80001cb8:	55550513          	addi	a0,a0,1365
    80001cbc:	00b51513          	slli	a0,a0,0xb
    80001cc0:	2aa50513          	addi	a0,a0,682
    80001cc4:	00a51513          	slli	a0,a0,0xa
    80001cc8:	2aa50513          	addi	a0,a0,682
    80001ccc:	66653593          	sltiu	a1,a0,1638
    80001cd0:	56b13423          	sd	a1,1384(sp)
    80001cd4:	00000193          	li	gp,0
    80001cd8:	00b18463          	beq	gp,a1,80001ce0 <inst_196>
    80001cdc:	b48fe06f          	j	80000024 <rvtest_error>

0000000080001ce0 <inst_196>:
    80001ce0:	aaaab537          	lui	a0,0xaaaab
    80001ce4:	aaa50513          	addi	a0,a0,-1366 # ffffffffaaaaaaaa <absimm+0xfffffffeefd9cfda>
    80001ce8:	00b51513          	slli	a0,a0,0xb
    80001cec:	55550513          	addi	a0,a0,1365
    80001cf0:	00b51513          	slli	a0,a0,0xb
    80001cf4:	2aa50513          	addi	a0,a0,682
    80001cf8:	00a51513          	slli	a0,a0,0xa
    80001cfc:	2aa50513          	addi	a0,a0,682
    80001d00:	02d53593          	sltiu	a1,a0,45
    80001d04:	56b13823          	sd	a1,1392(sp)
    80001d08:	00000193          	li	gp,0
    80001d0c:	00b18463          	beq	gp,a1,80001d14 <inst_197>
    80001d10:	b14fe06f          	j	80000024 <rvtest_error>

0000000080001d14 <inst_197>:
    80001d14:	aaaab537          	lui	a0,0xaaaab
    80001d18:	aaa50513          	addi	a0,a0,-1366 # ffffffffaaaaaaaa <absimm+0xfffffffeefd9cfda>
    80001d1c:	00b51513          	slli	a0,a0,0xb
    80001d20:	55550513          	addi	a0,a0,1365
    80001d24:	00b51513          	slli	a0,a0,0xb
    80001d28:	2aa50513          	addi	a0,a0,682
    80001d2c:	00a51513          	slli	a0,a0,0xa
    80001d30:	2aa50513          	addi	a0,a0,682
    80001d34:	00053593          	sltiu	a1,a0,0
    80001d38:	56b13c23          	sd	a1,1400(sp)
    80001d3c:	00000193          	li	gp,0
    80001d40:	00b18463          	beq	gp,a1,80001d48 <inst_198>
    80001d44:	ae0fe06f          	j	80000024 <rvtest_error>

0000000080001d48 <inst_198>:
    80001d48:	aaaab537          	lui	a0,0xaaaab
    80001d4c:	aaa50513          	addi	a0,a0,-1366 # ffffffffaaaaaaaa <absimm+0xfffffffeefd9cfda>
    80001d50:	00b51513          	slli	a0,a0,0xb
    80001d54:	55550513          	addi	a0,a0,1365
    80001d58:	00b51513          	slli	a0,a0,0xb
    80001d5c:	2aa50513          	addi	a0,a0,682
    80001d60:	00a51513          	slli	a0,a0,0xa
    80001d64:	2aa50513          	addi	a0,a0,682
    80001d68:	03f53593          	sltiu	a1,a0,63
    80001d6c:	58b13023          	sd	a1,1408(sp)
    80001d70:	00000193          	li	gp,0
    80001d74:	00b18463          	beq	gp,a1,80001d7c <inst_199>
    80001d78:	aacfe06f          	j	80000024 <rvtest_error>

0000000080001d7c <inst_199>:
    80001d7c:	aaaab537          	lui	a0,0xaaaab
    80001d80:	aaa50513          	addi	a0,a0,-1366 # ffffffffaaaaaaaa <absimm+0xfffffffeefd9cfda>
    80001d84:	00b51513          	slli	a0,a0,0xb
    80001d88:	55550513          	addi	a0,a0,1365
    80001d8c:	00b51513          	slli	a0,a0,0xb
    80001d90:	2aa50513          	addi	a0,a0,682
    80001d94:	00a51513          	slli	a0,a0,0xa
    80001d98:	2aa50513          	addi	a0,a0,682
    80001d9c:	00253593          	sltiu	a1,a0,2
    80001da0:	58b13423          	sd	a1,1416(sp)
    80001da4:	00000193          	li	gp,0
    80001da8:	00b18463          	beq	gp,a1,80001db0 <inst_200>
    80001dac:	a78fe06f          	j	80000024 <rvtest_error>

0000000080001db0 <inst_200>:
    80001db0:	aaaab537          	lui	a0,0xaaaab
    80001db4:	aaa50513          	addi	a0,a0,-1366 # ffffffffaaaaaaaa <absimm+0xfffffffeefd9cfda>
    80001db8:	00b51513          	slli	a0,a0,0xb
    80001dbc:	55550513          	addi	a0,a0,1365
    80001dc0:	00b51513          	slli	a0,a0,0xb
    80001dc4:	2aa50513          	addi	a0,a0,682
    80001dc8:	00a51513          	slli	a0,a0,0xa
    80001dcc:	2aa50513          	addi	a0,a0,682
    80001dd0:	55453593          	sltiu	a1,a0,1364
    80001dd4:	58b13823          	sd	a1,1424(sp)
    80001dd8:	00000193          	li	gp,0
    80001ddc:	00b18463          	beq	gp,a1,80001de4 <inst_201>
    80001de0:	a44fe06f          	j	80000024 <rvtest_error>

0000000080001de4 <inst_201>:
    80001de4:	aaaab537          	lui	a0,0xaaaab
    80001de8:	aaa50513          	addi	a0,a0,-1366 # ffffffffaaaaaaaa <absimm+0xfffffffeefd9cfda>
    80001dec:	00b51513          	slli	a0,a0,0xb
    80001df0:	55550513          	addi	a0,a0,1365
    80001df4:	00b51513          	slli	a0,a0,0xb
    80001df8:	2aa50513          	addi	a0,a0,682
    80001dfc:	00a51513          	slli	a0,a0,0xa
    80001e00:	2aa50513          	addi	a0,a0,682
    80001e04:	aa953593          	sltiu	a1,a0,-1367
    80001e08:	58b13c23          	sd	a1,1432(sp)
    80001e0c:	00100193          	li	gp,1
    80001e10:	00b18463          	beq	gp,a1,80001e18 <inst_202>
    80001e14:	a10fe06f          	j	80000024 <rvtest_error>

0000000080001e18 <inst_202>:
    80001e18:	aaaab537          	lui	a0,0xaaaab
    80001e1c:	aaa50513          	addi	a0,a0,-1366 # ffffffffaaaaaaaa <absimm+0xfffffffeefd9cfda>
    80001e20:	00b51513          	slli	a0,a0,0xb
    80001e24:	55550513          	addi	a0,a0,1365
    80001e28:	00b51513          	slli	a0,a0,0xb
    80001e2c:	2aa50513          	addi	a0,a0,682
    80001e30:	00a51513          	slli	a0,a0,0xa
    80001e34:	2aa50513          	addi	a0,a0,682
    80001e38:	00453593          	sltiu	a1,a0,4
    80001e3c:	5ab13023          	sd	a1,1440(sp)
    80001e40:	00000193          	li	gp,0
    80001e44:	00b18463          	beq	gp,a1,80001e4c <inst_203>
    80001e48:	9dcfe06f          	j	80000024 <rvtest_error>

0000000080001e4c <inst_203>:
    80001e4c:	aaaab537          	lui	a0,0xaaaab
    80001e50:	aaa50513          	addi	a0,a0,-1366 # ffffffffaaaaaaaa <absimm+0xfffffffeefd9cfda>
    80001e54:	00b51513          	slli	a0,a0,0xb
    80001e58:	55550513          	addi	a0,a0,1365
    80001e5c:	00b51513          	slli	a0,a0,0xb
    80001e60:	2aa50513          	addi	a0,a0,682
    80001e64:	00a51513          	slli	a0,a0,0xa
    80001e68:	2aa50513          	addi	a0,a0,682
    80001e6c:	33253593          	sltiu	a1,a0,818
    80001e70:	5ab13423          	sd	a1,1448(sp)
    80001e74:	00000193          	li	gp,0
    80001e78:	00b18463          	beq	gp,a1,80001e80 <inst_204>
    80001e7c:	9a8fe06f          	j	80000024 <rvtest_error>

0000000080001e80 <inst_204>:
    80001e80:	aaaab537          	lui	a0,0xaaaab
    80001e84:	aaa50513          	addi	a0,a0,-1366 # ffffffffaaaaaaaa <absimm+0xfffffffeefd9cfda>
    80001e88:	00b51513          	slli	a0,a0,0xb
    80001e8c:	55550513          	addi	a0,a0,1365
    80001e90:	00b51513          	slli	a0,a0,0xb
    80001e94:	2aa50513          	addi	a0,a0,682
    80001e98:	00a51513          	slli	a0,a0,0xa
    80001e9c:	2aa50513          	addi	a0,a0,682
    80001ea0:	66553593          	sltiu	a1,a0,1637
    80001ea4:	5ab13823          	sd	a1,1456(sp)
    80001ea8:	00000193          	li	gp,0
    80001eac:	00b18463          	beq	gp,a1,80001eb4 <inst_205>
    80001eb0:	974fe06f          	j	80000024 <rvtest_error>

0000000080001eb4 <inst_205>:
    80001eb4:	aaaab537          	lui	a0,0xaaaab
    80001eb8:	aaa50513          	addi	a0,a0,-1366 # ffffffffaaaaaaaa <absimm+0xfffffffeefd9cfda>
    80001ebc:	00b51513          	slli	a0,a0,0xb
    80001ec0:	55550513          	addi	a0,a0,1365
    80001ec4:	00b51513          	slli	a0,a0,0xb
    80001ec8:	2aa50513          	addi	a0,a0,682
    80001ecc:	00a51513          	slli	a0,a0,0xa
    80001ed0:	2aa50513          	addi	a0,a0,682
    80001ed4:	02c53593          	sltiu	a1,a0,44
    80001ed8:	5ab13c23          	sd	a1,1464(sp)
    80001edc:	00000193          	li	gp,0
    80001ee0:	00b18463          	beq	gp,a1,80001ee8 <inst_206>
    80001ee4:	940fe06f          	j	80000024 <rvtest_error>

0000000080001ee8 <inst_206>:
    80001ee8:	aaaab537          	lui	a0,0xaaaab
    80001eec:	aaa50513          	addi	a0,a0,-1366 # ffffffffaaaaaaaa <absimm+0xfffffffeefd9cfda>
    80001ef0:	00b51513          	slli	a0,a0,0xb
    80001ef4:	55550513          	addi	a0,a0,1365
    80001ef8:	00b51513          	slli	a0,a0,0xb
    80001efc:	2aa50513          	addi	a0,a0,682
    80001f00:	00a51513          	slli	a0,a0,0xa
    80001f04:	2aa50513          	addi	a0,a0,682
    80001f08:	03e53593          	sltiu	a1,a0,62
    80001f0c:	5cb13023          	sd	a1,1472(sp)
    80001f10:	00000193          	li	gp,0
    80001f14:	00b18463          	beq	gp,a1,80001f1c <inst_207>
    80001f18:	90cfe06f          	j	80000024 <rvtest_error>

0000000080001f1c <inst_207>:
    80001f1c:	aaaab537          	lui	a0,0xaaaab
    80001f20:	aaa50513          	addi	a0,a0,-1366 # ffffffffaaaaaaaa <absimm+0xfffffffeefd9cfda>
    80001f24:	00b51513          	slli	a0,a0,0xb
    80001f28:	55550513          	addi	a0,a0,1365
    80001f2c:	00b51513          	slli	a0,a0,0xb
    80001f30:	2aa50513          	addi	a0,a0,682
    80001f34:	00a51513          	slli	a0,a0,0xa
    80001f38:	2aa50513          	addi	a0,a0,682
    80001f3c:	55653593          	sltiu	a1,a0,1366
    80001f40:	5cb13423          	sd	a1,1480(sp)
    80001f44:	00000193          	li	gp,0
    80001f48:	00b18463          	beq	gp,a1,80001f50 <inst_208>
    80001f4c:	8d8fe06f          	j	80000024 <rvtest_error>

0000000080001f50 <inst_208>:
    80001f50:	aaaab537          	lui	a0,0xaaaab
    80001f54:	aaa50513          	addi	a0,a0,-1366 # ffffffffaaaaaaaa <absimm+0xfffffffeefd9cfda>
    80001f58:	00b51513          	slli	a0,a0,0xb
    80001f5c:	55550513          	addi	a0,a0,1365
    80001f60:	00b51513          	slli	a0,a0,0xb
    80001f64:	2aa50513          	addi	a0,a0,682
    80001f68:	00a51513          	slli	a0,a0,0xa
    80001f6c:	2aa50513          	addi	a0,a0,682
    80001f70:	aab53593          	sltiu	a1,a0,-1365
    80001f74:	5cb13823          	sd	a1,1488(sp)
    80001f78:	00100193          	li	gp,1
    80001f7c:	00b18463          	beq	gp,a1,80001f84 <inst_209>
    80001f80:	8a4fe06f          	j	80000024 <rvtest_error>

0000000080001f84 <inst_209>:
    80001f84:	aaaab537          	lui	a0,0xaaaab
    80001f88:	aaa50513          	addi	a0,a0,-1366 # ffffffffaaaaaaaa <absimm+0xfffffffeefd9cfda>
    80001f8c:	00b51513          	slli	a0,a0,0xb
    80001f90:	55550513          	addi	a0,a0,1365
    80001f94:	00b51513          	slli	a0,a0,0xb
    80001f98:	2aa50513          	addi	a0,a0,682
    80001f9c:	00a51513          	slli	a0,a0,0xa
    80001fa0:	2aa50513          	addi	a0,a0,682
    80001fa4:	00653593          	sltiu	a1,a0,6
    80001fa8:	5cb13c23          	sd	a1,1496(sp)
    80001fac:	00000193          	li	gp,0
    80001fb0:	00b18463          	beq	gp,a1,80001fb8 <inst_210>
    80001fb4:	870fe06f          	j	80000024 <rvtest_error>

0000000080001fb8 <inst_210>:
    80001fb8:	aaaab537          	lui	a0,0xaaaab
    80001fbc:	aaa50513          	addi	a0,a0,-1366 # ffffffffaaaaaaaa <absimm+0xfffffffeefd9cfda>
    80001fc0:	00b51513          	slli	a0,a0,0xb
    80001fc4:	55550513          	addi	a0,a0,1365
    80001fc8:	00b51513          	slli	a0,a0,0xb
    80001fcc:	2aa50513          	addi	a0,a0,682
    80001fd0:	00a51513          	slli	a0,a0,0xa
    80001fd4:	2aa50513          	addi	a0,a0,682
    80001fd8:	33453593          	sltiu	a1,a0,820
    80001fdc:	5eb13023          	sd	a1,1504(sp)
    80001fe0:	00000193          	li	gp,0
    80001fe4:	00b18463          	beq	gp,a1,80001fec <inst_211>
    80001fe8:	83cfe06f          	j	80000024 <rvtest_error>

0000000080001fec <inst_211>:
    80001fec:	aaaab537          	lui	a0,0xaaaab
    80001ff0:	aaa50513          	addi	a0,a0,-1366 # ffffffffaaaaaaaa <absimm+0xfffffffeefd9cfda>
    80001ff4:	00b51513          	slli	a0,a0,0xb
    80001ff8:	55550513          	addi	a0,a0,1365
    80001ffc:	00b51513          	slli	a0,a0,0xb
    80002000:	2aa50513          	addi	a0,a0,682
    80002004:	00a51513          	slli	a0,a0,0xa
    80002008:	2aa50513          	addi	a0,a0,682
    8000200c:	66753593          	sltiu	a1,a0,1639
    80002010:	5eb13423          	sd	a1,1512(sp)
    80002014:	00000193          	li	gp,0
    80002018:	00b18463          	beq	gp,a1,80002020 <inst_212>
    8000201c:	808fe06f          	j	80000024 <rvtest_error>

0000000080002020 <inst_212>:
    80002020:	aaaab537          	lui	a0,0xaaaab
    80002024:	aaa50513          	addi	a0,a0,-1366 # ffffffffaaaaaaaa <absimm+0xfffffffeefd9cfda>
    80002028:	00b51513          	slli	a0,a0,0xb
    8000202c:	55550513          	addi	a0,a0,1365
    80002030:	00b51513          	slli	a0,a0,0xb
    80002034:	2aa50513          	addi	a0,a0,682
    80002038:	00a51513          	slli	a0,a0,0xa
    8000203c:	2aa50513          	addi	a0,a0,682
    80002040:	02e53593          	sltiu	a1,a0,46
    80002044:	5eb13823          	sd	a1,1520(sp)
    80002048:	00000193          	li	gp,0
    8000204c:	00b18463          	beq	gp,a1,80002054 <inst_213>
    80002050:	fd5fd06f          	j	80000024 <rvtest_error>

0000000080002054 <inst_213>:
    80002054:	aaaab537          	lui	a0,0xaaaab
    80002058:	aaa50513          	addi	a0,a0,-1366 # ffffffffaaaaaaaa <absimm+0xfffffffeefd9cfda>
    8000205c:	00b51513          	slli	a0,a0,0xb
    80002060:	55550513          	addi	a0,a0,1365
    80002064:	00b51513          	slli	a0,a0,0xb
    80002068:	2aa50513          	addi	a0,a0,682
    8000206c:	00a51513          	slli	a0,a0,0xa
    80002070:	2aa50513          	addi	a0,a0,682
    80002074:	00153593          	seqz	a1,a0
    80002078:	5eb13c23          	sd	a1,1528(sp)
    8000207c:	00000193          	li	gp,0
    80002080:	00b18463          	beq	gp,a1,80002088 <inst_214>
    80002084:	fa1fd06f          	j	80000024 <rvtest_error>

0000000080002088 <inst_214>:
    80002088:	00500513          	li	a0,5
    8000208c:	00353593          	sltiu	a1,a0,3
    80002090:	60b13023          	sd	a1,1536(sp)
    80002094:	00000193          	li	gp,0
    80002098:	00b18463          	beq	gp,a1,800020a0 <inst_215>
    8000209c:	f89fd06f          	j	80000024 <rvtest_error>

00000000800020a0 <inst_215>:
    800020a0:	00500513          	li	a0,5
    800020a4:	55553593          	sltiu	a1,a0,1365
    800020a8:	60b13423          	sd	a1,1544(sp)
    800020ac:	00100193          	li	gp,1
    800020b0:	00b18463          	beq	gp,a1,800020b8 <inst_216>
    800020b4:	f71fd06f          	j	80000024 <rvtest_error>

00000000800020b8 <inst_216>:
    800020b8:	00500513          	li	a0,5
    800020bc:	aaa53593          	sltiu	a1,a0,-1366
    800020c0:	60b13823          	sd	a1,1552(sp)
    800020c4:	00100193          	li	gp,1
    800020c8:	00b18463          	beq	gp,a1,800020d0 <inst_217>
    800020cc:	f59fd06f          	j	80000024 <rvtest_error>

00000000800020d0 <inst_217>:
    800020d0:	00500513          	li	a0,5
    800020d4:	00553593          	sltiu	a1,a0,5
    800020d8:	60b13c23          	sd	a1,1560(sp)
    800020dc:	00000193          	li	gp,0
    800020e0:	00b18463          	beq	gp,a1,800020e8 <inst_218>
    800020e4:	f41fd06f          	j	80000024 <rvtest_error>

00000000800020e8 <inst_218>:
    800020e8:	00500513          	li	a0,5
    800020ec:	33353593          	sltiu	a1,a0,819
    800020f0:	62b13023          	sd	a1,1568(sp)
    800020f4:	00100193          	li	gp,1
    800020f8:	00b18463          	beq	gp,a1,80002100 <inst_219>
    800020fc:	f29fd06f          	j	80000024 <rvtest_error>

0000000080002100 <inst_219>:
    80002100:	00500513          	li	a0,5
    80002104:	66653593          	sltiu	a1,a0,1638
    80002108:	62b13423          	sd	a1,1576(sp)
    8000210c:	00100193          	li	gp,1
    80002110:	00b18463          	beq	gp,a1,80002118 <inst_220>
    80002114:	f11fd06f          	j	80000024 <rvtest_error>

0000000080002118 <inst_220>:
    80002118:	00500513          	li	a0,5
    8000211c:	02d53593          	sltiu	a1,a0,45
    80002120:	62b13823          	sd	a1,1584(sp)
    80002124:	00100193          	li	gp,1
    80002128:	00b18463          	beq	gp,a1,80002130 <inst_221>
    8000212c:	ef9fd06f          	j	80000024 <rvtest_error>

0000000080002130 <inst_221>:
    80002130:	00500513          	li	a0,5
    80002134:	00053593          	sltiu	a1,a0,0
    80002138:	62b13c23          	sd	a1,1592(sp)
    8000213c:	00000193          	li	gp,0
    80002140:	00b18463          	beq	gp,a1,80002148 <inst_222>
    80002144:	ee1fd06f          	j	80000024 <rvtest_error>

0000000080002148 <inst_222>:
    80002148:	00500513          	li	a0,5
    8000214c:	03f53593          	sltiu	a1,a0,63
    80002150:	64b13023          	sd	a1,1600(sp)
    80002154:	00100193          	li	gp,1
    80002158:	00b18463          	beq	gp,a1,80002160 <inst_223>
    8000215c:	ec9fd06f          	j	80000024 <rvtest_error>

0000000080002160 <inst_223>:
    80002160:	00500513          	li	a0,5
    80002164:	00253593          	sltiu	a1,a0,2
    80002168:	64b13423          	sd	a1,1608(sp)
    8000216c:	00000193          	li	gp,0
    80002170:	00b18463          	beq	gp,a1,80002178 <inst_224>
    80002174:	eb1fd06f          	j	80000024 <rvtest_error>

0000000080002178 <inst_224>:
    80002178:	00500513          	li	a0,5
    8000217c:	55453593          	sltiu	a1,a0,1364
    80002180:	64b13823          	sd	a1,1616(sp)
    80002184:	00100193          	li	gp,1
    80002188:	00b18463          	beq	gp,a1,80002190 <inst_225>
    8000218c:	e99fd06f          	j	80000024 <rvtest_error>

0000000080002190 <inst_225>:
    80002190:	00500513          	li	a0,5
    80002194:	aa953593          	sltiu	a1,a0,-1367
    80002198:	64b13c23          	sd	a1,1624(sp)
    8000219c:	00100193          	li	gp,1
    800021a0:	00b18463          	beq	gp,a1,800021a8 <inst_226>
    800021a4:	e81fd06f          	j	80000024 <rvtest_error>

00000000800021a8 <inst_226>:
    800021a8:	00500513          	li	a0,5
    800021ac:	00453593          	sltiu	a1,a0,4
    800021b0:	66b13023          	sd	a1,1632(sp)
    800021b4:	00000193          	li	gp,0
    800021b8:	00b18463          	beq	gp,a1,800021c0 <inst_227>
    800021bc:	e69fd06f          	j	80000024 <rvtest_error>

00000000800021c0 <inst_227>:
    800021c0:	00500513          	li	a0,5
    800021c4:	33253593          	sltiu	a1,a0,818
    800021c8:	66b13423          	sd	a1,1640(sp)
    800021cc:	00100193          	li	gp,1
    800021d0:	00b18463          	beq	gp,a1,800021d8 <inst_228>
    800021d4:	e51fd06f          	j	80000024 <rvtest_error>

00000000800021d8 <inst_228>:
    800021d8:	00500513          	li	a0,5
    800021dc:	66553593          	sltiu	a1,a0,1637
    800021e0:	66b13823          	sd	a1,1648(sp)
    800021e4:	00100193          	li	gp,1
    800021e8:	00b18463          	beq	gp,a1,800021f0 <inst_229>
    800021ec:	e39fd06f          	j	80000024 <rvtest_error>

00000000800021f0 <inst_229>:
    800021f0:	00500513          	li	a0,5
    800021f4:	02c53593          	sltiu	a1,a0,44
    800021f8:	66b13c23          	sd	a1,1656(sp)
    800021fc:	00100193          	li	gp,1
    80002200:	00b18463          	beq	gp,a1,80002208 <inst_230>
    80002204:	e21fd06f          	j	80000024 <rvtest_error>

0000000080002208 <inst_230>:
    80002208:	00500513          	li	a0,5
    8000220c:	03e53593          	sltiu	a1,a0,62
    80002210:	68b13023          	sd	a1,1664(sp)
    80002214:	00100193          	li	gp,1
    80002218:	00b18463          	beq	gp,a1,80002220 <inst_231>
    8000221c:	e09fd06f          	j	80000024 <rvtest_error>

0000000080002220 <inst_231>:
    80002220:	00500513          	li	a0,5
    80002224:	55653593          	sltiu	a1,a0,1366
    80002228:	68b13423          	sd	a1,1672(sp)
    8000222c:	00100193          	li	gp,1
    80002230:	00b18463          	beq	gp,a1,80002238 <inst_232>
    80002234:	df1fd06f          	j	80000024 <rvtest_error>

0000000080002238 <inst_232>:
    80002238:	00500513          	li	a0,5
    8000223c:	aab53593          	sltiu	a1,a0,-1365
    80002240:	68b13823          	sd	a1,1680(sp)
    80002244:	00100193          	li	gp,1
    80002248:	00b18463          	beq	gp,a1,80002250 <inst_233>
    8000224c:	dd9fd06f          	j	80000024 <rvtest_error>

0000000080002250 <inst_233>:
    80002250:	00500513          	li	a0,5
    80002254:	00653593          	sltiu	a1,a0,6
    80002258:	68b13c23          	sd	a1,1688(sp)
    8000225c:	00100193          	li	gp,1
    80002260:	00b18463          	beq	gp,a1,80002268 <inst_234>
    80002264:	dc1fd06f          	j	80000024 <rvtest_error>

0000000080002268 <inst_234>:
    80002268:	00500513          	li	a0,5
    8000226c:	33453593          	sltiu	a1,a0,820
    80002270:	6ab13023          	sd	a1,1696(sp)
    80002274:	00100193          	li	gp,1
    80002278:	00b18463          	beq	gp,a1,80002280 <inst_235>
    8000227c:	da9fd06f          	j	80000024 <rvtest_error>

0000000080002280 <inst_235>:
    80002280:	00500513          	li	a0,5
    80002284:	66753593          	sltiu	a1,a0,1639
    80002288:	6ab13423          	sd	a1,1704(sp)
    8000228c:	00100193          	li	gp,1
    80002290:	00b18463          	beq	gp,a1,80002298 <inst_236>
    80002294:	d91fd06f          	j	80000024 <rvtest_error>

0000000080002298 <inst_236>:
    80002298:	00500513          	li	a0,5
    8000229c:	02e53593          	sltiu	a1,a0,46
    800022a0:	6ab13823          	sd	a1,1712(sp)
    800022a4:	00100193          	li	gp,1
    800022a8:	00b18463          	beq	gp,a1,800022b0 <inst_237>
    800022ac:	d79fd06f          	j	80000024 <rvtest_error>

00000000800022b0 <inst_237>:
    800022b0:	00500513          	li	a0,5
    800022b4:	00153593          	seqz	a1,a0
    800022b8:	6ab13c23          	sd	a1,1720(sp)
    800022bc:	00000193          	li	gp,0
    800022c0:	00b18463          	beq	gp,a1,800022c8 <inst_238>
    800022c4:	d61fd06f          	j	80000024 <rvtest_error>

00000000800022c8 <inst_238>:
    800022c8:	00500513          	li	a0,5
    800022cc:	04053593          	sltiu	a1,a0,64
    800022d0:	6cb13023          	sd	a1,1728(sp)
    800022d4:	00100193          	li	gp,1
    800022d8:	00b18463          	beq	gp,a1,800022e0 <inst_239>
    800022dc:	d49fd06f          	j	80000024 <rvtest_error>

00000000800022e0 <inst_239>:
    800022e0:	33333537          	lui	a0,0x33333
    800022e4:	33350513          	addi	a0,a0,819 # 33333333 <absimmsh+0x27862586>
    800022e8:	00b51513          	slli	a0,a0,0xb
    800022ec:	19950513          	addi	a0,a0,409
    800022f0:	00b51513          	slli	a0,a0,0xb
    800022f4:	4cc50513          	addi	a0,a0,1228
    800022f8:	00a51513          	slli	a0,a0,0xa
    800022fc:	33350513          	addi	a0,a0,819
    80002300:	00353593          	sltiu	a1,a0,3
    80002304:	6cb13423          	sd	a1,1736(sp)
    80002308:	00000193          	li	gp,0
    8000230c:	00b18463          	beq	gp,a1,80002314 <inst_240>
    80002310:	d15fd06f          	j	80000024 <rvtest_error>

0000000080002314 <inst_240>:
    80002314:	33333537          	lui	a0,0x33333
    80002318:	33350513          	addi	a0,a0,819 # 33333333 <absimmsh+0x27862586>
    8000231c:	00b51513          	slli	a0,a0,0xb
    80002320:	19950513          	addi	a0,a0,409
    80002324:	00b51513          	slli	a0,a0,0xb
    80002328:	4cc50513          	addi	a0,a0,1228
    8000232c:	00a51513          	slli	a0,a0,0xa
    80002330:	33350513          	addi	a0,a0,819
    80002334:	55553593          	sltiu	a1,a0,1365
    80002338:	6cb13823          	sd	a1,1744(sp)
    8000233c:	00000193          	li	gp,0
    80002340:	00b18463          	beq	gp,a1,80002348 <inst_241>
    80002344:	ce1fd06f          	j	80000024 <rvtest_error>

0000000080002348 <inst_241>:
    80002348:	33333537          	lui	a0,0x33333
    8000234c:	33350513          	addi	a0,a0,819 # 33333333 <absimmsh+0x27862586>
    80002350:	00b51513          	slli	a0,a0,0xb
    80002354:	19950513          	addi	a0,a0,409
    80002358:	00b51513          	slli	a0,a0,0xb
    8000235c:	4cc50513          	addi	a0,a0,1228
    80002360:	00a51513          	slli	a0,a0,0xa
    80002364:	33350513          	addi	a0,a0,819
    80002368:	aaa53593          	sltiu	a1,a0,-1366
    8000236c:	6cb13c23          	sd	a1,1752(sp)
    80002370:	00100193          	li	gp,1
    80002374:	00b18463          	beq	gp,a1,8000237c <inst_242>
    80002378:	cadfd06f          	j	80000024 <rvtest_error>

000000008000237c <inst_242>:
    8000237c:	33333537          	lui	a0,0x33333
    80002380:	33350513          	addi	a0,a0,819 # 33333333 <absimmsh+0x27862586>
    80002384:	00b51513          	slli	a0,a0,0xb
    80002388:	19950513          	addi	a0,a0,409
    8000238c:	00b51513          	slli	a0,a0,0xb
    80002390:	4cc50513          	addi	a0,a0,1228
    80002394:	00a51513          	slli	a0,a0,0xa
    80002398:	33350513          	addi	a0,a0,819
    8000239c:	00553593          	sltiu	a1,a0,5
    800023a0:	6eb13023          	sd	a1,1760(sp)
    800023a4:	00000193          	li	gp,0
    800023a8:	00b18463          	beq	gp,a1,800023b0 <inst_243>
    800023ac:	c79fd06f          	j	80000024 <rvtest_error>

00000000800023b0 <inst_243>:
    800023b0:	33333537          	lui	a0,0x33333
    800023b4:	33350513          	addi	a0,a0,819 # 33333333 <absimmsh+0x27862586>
    800023b8:	00b51513          	slli	a0,a0,0xb
    800023bc:	19950513          	addi	a0,a0,409
    800023c0:	00b51513          	slli	a0,a0,0xb
    800023c4:	4cc50513          	addi	a0,a0,1228
    800023c8:	00a51513          	slli	a0,a0,0xa
    800023cc:	33350513          	addi	a0,a0,819
    800023d0:	33353593          	sltiu	a1,a0,819
    800023d4:	6eb13423          	sd	a1,1768(sp)
    800023d8:	00000193          	li	gp,0
    800023dc:	00b18463          	beq	gp,a1,800023e4 <inst_244>
    800023e0:	c45fd06f          	j	80000024 <rvtest_error>

00000000800023e4 <inst_244>:
    800023e4:	33333537          	lui	a0,0x33333
    800023e8:	33350513          	addi	a0,a0,819 # 33333333 <absimmsh+0x27862586>
    800023ec:	00b51513          	slli	a0,a0,0xb
    800023f0:	19950513          	addi	a0,a0,409
    800023f4:	00b51513          	slli	a0,a0,0xb
    800023f8:	4cc50513          	addi	a0,a0,1228
    800023fc:	00a51513          	slli	a0,a0,0xa
    80002400:	33350513          	addi	a0,a0,819
    80002404:	66653593          	sltiu	a1,a0,1638
    80002408:	6eb13823          	sd	a1,1776(sp)
    8000240c:	00000193          	li	gp,0
    80002410:	00b18463          	beq	gp,a1,80002418 <inst_245>
    80002414:	c11fd06f          	j	80000024 <rvtest_error>

0000000080002418 <inst_245>:
    80002418:	33333537          	lui	a0,0x33333
    8000241c:	33350513          	addi	a0,a0,819 # 33333333 <absimmsh+0x27862586>
    80002420:	00b51513          	slli	a0,a0,0xb
    80002424:	19950513          	addi	a0,a0,409
    80002428:	00b51513          	slli	a0,a0,0xb
    8000242c:	4cc50513          	addi	a0,a0,1228
    80002430:	00a51513          	slli	a0,a0,0xa
    80002434:	33350513          	addi	a0,a0,819
    80002438:	02d53593          	sltiu	a1,a0,45
    8000243c:	6eb13c23          	sd	a1,1784(sp)
    80002440:	00000193          	li	gp,0
    80002444:	00b18463          	beq	gp,a1,8000244c <inst_246>
    80002448:	bddfd06f          	j	80000024 <rvtest_error>

000000008000244c <inst_246>:
    8000244c:	33333537          	lui	a0,0x33333
    80002450:	33350513          	addi	a0,a0,819 # 33333333 <absimmsh+0x27862586>
    80002454:	00b51513          	slli	a0,a0,0xb
    80002458:	19950513          	addi	a0,a0,409
    8000245c:	00b51513          	slli	a0,a0,0xb
    80002460:	4cc50513          	addi	a0,a0,1228
    80002464:	00a51513          	slli	a0,a0,0xa
    80002468:	33350513          	addi	a0,a0,819
    8000246c:	00053593          	sltiu	a1,a0,0
    80002470:	70b13023          	sd	a1,1792(sp)
    80002474:	00000193          	li	gp,0
    80002478:	00b18463          	beq	gp,a1,80002480 <inst_247>
    8000247c:	ba9fd06f          	j	80000024 <rvtest_error>

0000000080002480 <inst_247>:
    80002480:	33333537          	lui	a0,0x33333
    80002484:	33350513          	addi	a0,a0,819 # 33333333 <absimmsh+0x27862586>
    80002488:	00b51513          	slli	a0,a0,0xb
    8000248c:	19950513          	addi	a0,a0,409
    80002490:	00b51513          	slli	a0,a0,0xb
    80002494:	4cc50513          	addi	a0,a0,1228
    80002498:	00a51513          	slli	a0,a0,0xa
    8000249c:	33350513          	addi	a0,a0,819
    800024a0:	03f53593          	sltiu	a1,a0,63
    800024a4:	70b13423          	sd	a1,1800(sp)
    800024a8:	00000193          	li	gp,0
    800024ac:	00b18463          	beq	gp,a1,800024b4 <inst_248>
    800024b0:	b75fd06f          	j	80000024 <rvtest_error>

00000000800024b4 <inst_248>:
    800024b4:	33333537          	lui	a0,0x33333
    800024b8:	33350513          	addi	a0,a0,819 # 33333333 <absimmsh+0x27862586>
    800024bc:	00b51513          	slli	a0,a0,0xb
    800024c0:	19950513          	addi	a0,a0,409
    800024c4:	00b51513          	slli	a0,a0,0xb
    800024c8:	4cc50513          	addi	a0,a0,1228
    800024cc:	00a51513          	slli	a0,a0,0xa
    800024d0:	33350513          	addi	a0,a0,819
    800024d4:	00253593          	sltiu	a1,a0,2
    800024d8:	70b13823          	sd	a1,1808(sp)
    800024dc:	00000193          	li	gp,0
    800024e0:	00b18463          	beq	gp,a1,800024e8 <inst_249>
    800024e4:	b41fd06f          	j	80000024 <rvtest_error>

00000000800024e8 <inst_249>:
    800024e8:	33333537          	lui	a0,0x33333
    800024ec:	33350513          	addi	a0,a0,819 # 33333333 <absimmsh+0x27862586>
    800024f0:	00b51513          	slli	a0,a0,0xb
    800024f4:	19950513          	addi	a0,a0,409
    800024f8:	00b51513          	slli	a0,a0,0xb
    800024fc:	4cc50513          	addi	a0,a0,1228
    80002500:	00a51513          	slli	a0,a0,0xa
    80002504:	33350513          	addi	a0,a0,819
    80002508:	55453593          	sltiu	a1,a0,1364
    8000250c:	70b13c23          	sd	a1,1816(sp)
    80002510:	00000193          	li	gp,0
    80002514:	00b18463          	beq	gp,a1,8000251c <inst_250>
    80002518:	b0dfd06f          	j	80000024 <rvtest_error>

000000008000251c <inst_250>:
    8000251c:	33333537          	lui	a0,0x33333
    80002520:	33350513          	addi	a0,a0,819 # 33333333 <absimmsh+0x27862586>
    80002524:	00b51513          	slli	a0,a0,0xb
    80002528:	19950513          	addi	a0,a0,409
    8000252c:	00b51513          	slli	a0,a0,0xb
    80002530:	4cc50513          	addi	a0,a0,1228
    80002534:	00a51513          	slli	a0,a0,0xa
    80002538:	33350513          	addi	a0,a0,819
    8000253c:	aa953593          	sltiu	a1,a0,-1367
    80002540:	72b13023          	sd	a1,1824(sp)
    80002544:	00100193          	li	gp,1
    80002548:	00b18463          	beq	gp,a1,80002550 <inst_251>
    8000254c:	ad9fd06f          	j	80000024 <rvtest_error>

0000000080002550 <inst_251>:
    80002550:	33333537          	lui	a0,0x33333
    80002554:	33350513          	addi	a0,a0,819 # 33333333 <absimmsh+0x27862586>
    80002558:	00b51513          	slli	a0,a0,0xb
    8000255c:	19950513          	addi	a0,a0,409
    80002560:	00b51513          	slli	a0,a0,0xb
    80002564:	4cc50513          	addi	a0,a0,1228
    80002568:	00a51513          	slli	a0,a0,0xa
    8000256c:	33350513          	addi	a0,a0,819
    80002570:	00453593          	sltiu	a1,a0,4
    80002574:	72b13423          	sd	a1,1832(sp)
    80002578:	00000193          	li	gp,0
    8000257c:	00b18463          	beq	gp,a1,80002584 <inst_252>
    80002580:	aa5fd06f          	j	80000024 <rvtest_error>

0000000080002584 <inst_252>:
    80002584:	33333537          	lui	a0,0x33333
    80002588:	33350513          	addi	a0,a0,819 # 33333333 <absimmsh+0x27862586>
    8000258c:	00b51513          	slli	a0,a0,0xb
    80002590:	19950513          	addi	a0,a0,409
    80002594:	00b51513          	slli	a0,a0,0xb
    80002598:	4cc50513          	addi	a0,a0,1228
    8000259c:	00a51513          	slli	a0,a0,0xa
    800025a0:	33350513          	addi	a0,a0,819
    800025a4:	33253593          	sltiu	a1,a0,818
    800025a8:	72b13823          	sd	a1,1840(sp)
    800025ac:	00000193          	li	gp,0
    800025b0:	00b18463          	beq	gp,a1,800025b8 <inst_253>
    800025b4:	a71fd06f          	j	80000024 <rvtest_error>

00000000800025b8 <inst_253>:
    800025b8:	33333537          	lui	a0,0x33333
    800025bc:	33350513          	addi	a0,a0,819 # 33333333 <absimmsh+0x27862586>
    800025c0:	00b51513          	slli	a0,a0,0xb
    800025c4:	19950513          	addi	a0,a0,409
    800025c8:	00b51513          	slli	a0,a0,0xb
    800025cc:	4cc50513          	addi	a0,a0,1228
    800025d0:	00a51513          	slli	a0,a0,0xa
    800025d4:	33350513          	addi	a0,a0,819
    800025d8:	66553593          	sltiu	a1,a0,1637
    800025dc:	72b13c23          	sd	a1,1848(sp)
    800025e0:	00000193          	li	gp,0
    800025e4:	00b18463          	beq	gp,a1,800025ec <inst_254>
    800025e8:	a3dfd06f          	j	80000024 <rvtest_error>

00000000800025ec <inst_254>:
    800025ec:	33333537          	lui	a0,0x33333
    800025f0:	33350513          	addi	a0,a0,819 # 33333333 <absimmsh+0x27862586>
    800025f4:	00b51513          	slli	a0,a0,0xb
    800025f8:	19950513          	addi	a0,a0,409
    800025fc:	00b51513          	slli	a0,a0,0xb
    80002600:	4cc50513          	addi	a0,a0,1228
    80002604:	00a51513          	slli	a0,a0,0xa
    80002608:	33350513          	addi	a0,a0,819
    8000260c:	02c53593          	sltiu	a1,a0,44
    80002610:	74b13023          	sd	a1,1856(sp)
    80002614:	00000193          	li	gp,0
    80002618:	00b18463          	beq	gp,a1,80002620 <inst_255>
    8000261c:	a09fd06f          	j	80000024 <rvtest_error>

0000000080002620 <inst_255>:
    80002620:	33333537          	lui	a0,0x33333
    80002624:	33350513          	addi	a0,a0,819 # 33333333 <absimmsh+0x27862586>
    80002628:	00b51513          	slli	a0,a0,0xb
    8000262c:	19950513          	addi	a0,a0,409
    80002630:	00b51513          	slli	a0,a0,0xb
    80002634:	4cc50513          	addi	a0,a0,1228
    80002638:	00a51513          	slli	a0,a0,0xa
    8000263c:	33350513          	addi	a0,a0,819
    80002640:	03e53593          	sltiu	a1,a0,62
    80002644:	74b13423          	sd	a1,1864(sp)
    80002648:	00000193          	li	gp,0
    8000264c:	00b18463          	beq	gp,a1,80002654 <inst_256>
    80002650:	9d5fd06f          	j	80000024 <rvtest_error>

0000000080002654 <inst_256>:
    80002654:	33333537          	lui	a0,0x33333
    80002658:	33350513          	addi	a0,a0,819 # 33333333 <absimmsh+0x27862586>
    8000265c:	00b51513          	slli	a0,a0,0xb
    80002660:	19950513          	addi	a0,a0,409
    80002664:	00b51513          	slli	a0,a0,0xb
    80002668:	4cc50513          	addi	a0,a0,1228
    8000266c:	00a51513          	slli	a0,a0,0xa
    80002670:	33350513          	addi	a0,a0,819
    80002674:	55653593          	sltiu	a1,a0,1366
    80002678:	74b13823          	sd	a1,1872(sp)
    8000267c:	00000193          	li	gp,0
    80002680:	00b18463          	beq	gp,a1,80002688 <inst_257>
    80002684:	9a1fd06f          	j	80000024 <rvtest_error>

0000000080002688 <inst_257>:
    80002688:	33333537          	lui	a0,0x33333
    8000268c:	33350513          	addi	a0,a0,819 # 33333333 <absimmsh+0x27862586>
    80002690:	00b51513          	slli	a0,a0,0xb
    80002694:	19950513          	addi	a0,a0,409
    80002698:	00b51513          	slli	a0,a0,0xb
    8000269c:	4cc50513          	addi	a0,a0,1228
    800026a0:	00a51513          	slli	a0,a0,0xa
    800026a4:	33350513          	addi	a0,a0,819
    800026a8:	aab53593          	sltiu	a1,a0,-1365
    800026ac:	74b13c23          	sd	a1,1880(sp)
    800026b0:	00100193          	li	gp,1
    800026b4:	00b18463          	beq	gp,a1,800026bc <inst_258>
    800026b8:	96dfd06f          	j	80000024 <rvtest_error>

00000000800026bc <inst_258>:
    800026bc:	33333537          	lui	a0,0x33333
    800026c0:	33350513          	addi	a0,a0,819 # 33333333 <absimmsh+0x27862586>
    800026c4:	00b51513          	slli	a0,a0,0xb
    800026c8:	19950513          	addi	a0,a0,409
    800026cc:	00b51513          	slli	a0,a0,0xb
    800026d0:	4cc50513          	addi	a0,a0,1228
    800026d4:	00a51513          	slli	a0,a0,0xa
    800026d8:	33350513          	addi	a0,a0,819
    800026dc:	00653593          	sltiu	a1,a0,6
    800026e0:	76b13023          	sd	a1,1888(sp)
    800026e4:	00000193          	li	gp,0
    800026e8:	00b18463          	beq	gp,a1,800026f0 <inst_259>
    800026ec:	939fd06f          	j	80000024 <rvtest_error>

00000000800026f0 <inst_259>:
    800026f0:	33333537          	lui	a0,0x33333
    800026f4:	33350513          	addi	a0,a0,819 # 33333333 <absimmsh+0x27862586>
    800026f8:	00b51513          	slli	a0,a0,0xb
    800026fc:	19950513          	addi	a0,a0,409
    80002700:	00b51513          	slli	a0,a0,0xb
    80002704:	4cc50513          	addi	a0,a0,1228
    80002708:	00a51513          	slli	a0,a0,0xa
    8000270c:	33350513          	addi	a0,a0,819
    80002710:	33453593          	sltiu	a1,a0,820
    80002714:	76b13423          	sd	a1,1896(sp)
    80002718:	00000193          	li	gp,0
    8000271c:	00b18463          	beq	gp,a1,80002724 <inst_260>
    80002720:	905fd06f          	j	80000024 <rvtest_error>

0000000080002724 <inst_260>:
    80002724:	33333537          	lui	a0,0x33333
    80002728:	33350513          	addi	a0,a0,819 # 33333333 <absimmsh+0x27862586>
    8000272c:	00b51513          	slli	a0,a0,0xb
    80002730:	19950513          	addi	a0,a0,409
    80002734:	00b51513          	slli	a0,a0,0xb
    80002738:	4cc50513          	addi	a0,a0,1228
    8000273c:	00a51513          	slli	a0,a0,0xa
    80002740:	33350513          	addi	a0,a0,819
    80002744:	66753593          	sltiu	a1,a0,1639
    80002748:	76b13823          	sd	a1,1904(sp)
    8000274c:	00000193          	li	gp,0
    80002750:	00b18463          	beq	gp,a1,80002758 <inst_261>
    80002754:	8d1fd06f          	j	80000024 <rvtest_error>

0000000080002758 <inst_261>:
    80002758:	33333537          	lui	a0,0x33333
    8000275c:	33350513          	addi	a0,a0,819 # 33333333 <absimmsh+0x27862586>
    80002760:	00b51513          	slli	a0,a0,0xb
    80002764:	19950513          	addi	a0,a0,409
    80002768:	00b51513          	slli	a0,a0,0xb
    8000276c:	4cc50513          	addi	a0,a0,1228
    80002770:	00a51513          	slli	a0,a0,0xa
    80002774:	33350513          	addi	a0,a0,819
    80002778:	02e53593          	sltiu	a1,a0,46
    8000277c:	76b13c23          	sd	a1,1912(sp)
    80002780:	00000193          	li	gp,0
    80002784:	00b18463          	beq	gp,a1,8000278c <inst_262>
    80002788:	89dfd06f          	j	80000024 <rvtest_error>

000000008000278c <inst_262>:
    8000278c:	33333537          	lui	a0,0x33333
    80002790:	33350513          	addi	a0,a0,819 # 33333333 <absimmsh+0x27862586>
    80002794:	00b51513          	slli	a0,a0,0xb
    80002798:	19950513          	addi	a0,a0,409
    8000279c:	00b51513          	slli	a0,a0,0xb
    800027a0:	4cc50513          	addi	a0,a0,1228
    800027a4:	00a51513          	slli	a0,a0,0xa
    800027a8:	33350513          	addi	a0,a0,819
    800027ac:	00153593          	seqz	a1,a0
    800027b0:	78b13023          	sd	a1,1920(sp)
    800027b4:	00000193          	li	gp,0
    800027b8:	00b18463          	beq	gp,a1,800027c0 <inst_263>
    800027bc:	869fd06f          	j	80000024 <rvtest_error>

00000000800027c0 <inst_263>:
    800027c0:	33333537          	lui	a0,0x33333
    800027c4:	33350513          	addi	a0,a0,819 # 33333333 <absimmsh+0x27862586>
    800027c8:	00b51513          	slli	a0,a0,0xb
    800027cc:	19950513          	addi	a0,a0,409
    800027d0:	00b51513          	slli	a0,a0,0xb
    800027d4:	4cc50513          	addi	a0,a0,1228
    800027d8:	00a51513          	slli	a0,a0,0xa
    800027dc:	33350513          	addi	a0,a0,819
    800027e0:	04053593          	sltiu	a1,a0,64
    800027e4:	78b13423          	sd	a1,1928(sp)
    800027e8:	00000193          	li	gp,0
    800027ec:	00b18463          	beq	gp,a1,800027f4 <inst_264>
    800027f0:	835fd06f          	j	80000024 <rvtest_error>

00000000800027f4 <inst_264>:
    800027f4:	66666537          	lui	a0,0x66666
    800027f8:	66650513          	addi	a0,a0,1638 # 66666666 <absimmsh+0x5ab958b9>
    800027fc:	00b51513          	slli	a0,a0,0xb
    80002800:	33350513          	addi	a0,a0,819
    80002804:	00b51513          	slli	a0,a0,0xb
    80002808:	19950513          	addi	a0,a0,409
    8000280c:	00a51513          	slli	a0,a0,0xa
    80002810:	26650513          	addi	a0,a0,614
    80002814:	00353593          	sltiu	a1,a0,3
    80002818:	78b13823          	sd	a1,1936(sp)
    8000281c:	00000193          	li	gp,0
    80002820:	00b18463          	beq	gp,a1,80002828 <inst_265>
    80002824:	801fd06f          	j	80000024 <rvtest_error>

0000000080002828 <inst_265>:
    80002828:	66666537          	lui	a0,0x66666
    8000282c:	66650513          	addi	a0,a0,1638 # 66666666 <absimmsh+0x5ab958b9>
    80002830:	00b51513          	slli	a0,a0,0xb
    80002834:	33350513          	addi	a0,a0,819
    80002838:	00b51513          	slli	a0,a0,0xb
    8000283c:	19950513          	addi	a0,a0,409
    80002840:	00a51513          	slli	a0,a0,0xa
    80002844:	26650513          	addi	a0,a0,614
    80002848:	55553593          	sltiu	a1,a0,1365
    8000284c:	78b13c23          	sd	a1,1944(sp)
    80002850:	00000193          	li	gp,0
    80002854:	00b18463          	beq	gp,a1,8000285c <inst_266>
    80002858:	fccfd06f          	j	80000024 <rvtest_error>

000000008000285c <inst_266>:
    8000285c:	66666537          	lui	a0,0x66666
    80002860:	66650513          	addi	a0,a0,1638 # 66666666 <absimmsh+0x5ab958b9>
    80002864:	00b51513          	slli	a0,a0,0xb
    80002868:	33350513          	addi	a0,a0,819
    8000286c:	00b51513          	slli	a0,a0,0xb
    80002870:	19950513          	addi	a0,a0,409
    80002874:	00a51513          	slli	a0,a0,0xa
    80002878:	26650513          	addi	a0,a0,614
    8000287c:	aaa53593          	sltiu	a1,a0,-1366
    80002880:	7ab13023          	sd	a1,1952(sp)
    80002884:	00100193          	li	gp,1
    80002888:	00b18463          	beq	gp,a1,80002890 <inst_267>
    8000288c:	f98fd06f          	j	80000024 <rvtest_error>

0000000080002890 <inst_267>:
    80002890:	66666537          	lui	a0,0x66666
    80002894:	66650513          	addi	a0,a0,1638 # 66666666 <absimmsh+0x5ab958b9>
    80002898:	00b51513          	slli	a0,a0,0xb
    8000289c:	33350513          	addi	a0,a0,819
    800028a0:	00b51513          	slli	a0,a0,0xb
    800028a4:	19950513          	addi	a0,a0,409
    800028a8:	00a51513          	slli	a0,a0,0xa
    800028ac:	26650513          	addi	a0,a0,614
    800028b0:	00553593          	sltiu	a1,a0,5
    800028b4:	7ab13423          	sd	a1,1960(sp)
    800028b8:	00000193          	li	gp,0
    800028bc:	00b18463          	beq	gp,a1,800028c4 <inst_268>
    800028c0:	f64fd06f          	j	80000024 <rvtest_error>

00000000800028c4 <inst_268>:
    800028c4:	66666537          	lui	a0,0x66666
    800028c8:	66650513          	addi	a0,a0,1638 # 66666666 <absimmsh+0x5ab958b9>
    800028cc:	00b51513          	slli	a0,a0,0xb
    800028d0:	33350513          	addi	a0,a0,819
    800028d4:	00b51513          	slli	a0,a0,0xb
    800028d8:	19950513          	addi	a0,a0,409
    800028dc:	00a51513          	slli	a0,a0,0xa
    800028e0:	26650513          	addi	a0,a0,614
    800028e4:	33353593          	sltiu	a1,a0,819
    800028e8:	7ab13823          	sd	a1,1968(sp)
    800028ec:	00000193          	li	gp,0
    800028f0:	00b18463          	beq	gp,a1,800028f8 <inst_269>
    800028f4:	f30fd06f          	j	80000024 <rvtest_error>

00000000800028f8 <inst_269>:
    800028f8:	66666537          	lui	a0,0x66666
    800028fc:	66650513          	addi	a0,a0,1638 # 66666666 <absimmsh+0x5ab958b9>
    80002900:	00b51513          	slli	a0,a0,0xb
    80002904:	33350513          	addi	a0,a0,819
    80002908:	00b51513          	slli	a0,a0,0xb
    8000290c:	19950513          	addi	a0,a0,409
    80002910:	00a51513          	slli	a0,a0,0xa
    80002914:	26650513          	addi	a0,a0,614
    80002918:	66653593          	sltiu	a1,a0,1638
    8000291c:	7ab13c23          	sd	a1,1976(sp)
    80002920:	00000193          	li	gp,0
    80002924:	00b18463          	beq	gp,a1,8000292c <inst_270>
    80002928:	efcfd06f          	j	80000024 <rvtest_error>

000000008000292c <inst_270>:
    8000292c:	66666537          	lui	a0,0x66666
    80002930:	66650513          	addi	a0,a0,1638 # 66666666 <absimmsh+0x5ab958b9>
    80002934:	00b51513          	slli	a0,a0,0xb
    80002938:	33350513          	addi	a0,a0,819
    8000293c:	00b51513          	slli	a0,a0,0xb
    80002940:	19950513          	addi	a0,a0,409
    80002944:	00a51513          	slli	a0,a0,0xa
    80002948:	26650513          	addi	a0,a0,614
    8000294c:	02d53593          	sltiu	a1,a0,45
    80002950:	7cb13023          	sd	a1,1984(sp)
    80002954:	00000193          	li	gp,0
    80002958:	00b18463          	beq	gp,a1,80002960 <inst_271>
    8000295c:	ec8fd06f          	j	80000024 <rvtest_error>

0000000080002960 <inst_271>:
    80002960:	66666537          	lui	a0,0x66666
    80002964:	66650513          	addi	a0,a0,1638 # 66666666 <absimmsh+0x5ab958b9>
    80002968:	00b51513          	slli	a0,a0,0xb
    8000296c:	33350513          	addi	a0,a0,819
    80002970:	00b51513          	slli	a0,a0,0xb
    80002974:	19950513          	addi	a0,a0,409
    80002978:	00a51513          	slli	a0,a0,0xa
    8000297c:	26650513          	addi	a0,a0,614
    80002980:	00053593          	sltiu	a1,a0,0
    80002984:	7cb13423          	sd	a1,1992(sp)
    80002988:	00000193          	li	gp,0
    8000298c:	00b18463          	beq	gp,a1,80002994 <inst_272>
    80002990:	e94fd06f          	j	80000024 <rvtest_error>

0000000080002994 <inst_272>:
    80002994:	66666537          	lui	a0,0x66666
    80002998:	66650513          	addi	a0,a0,1638 # 66666666 <absimmsh+0x5ab958b9>
    8000299c:	00b51513          	slli	a0,a0,0xb
    800029a0:	33350513          	addi	a0,a0,819
    800029a4:	00b51513          	slli	a0,a0,0xb
    800029a8:	19950513          	addi	a0,a0,409
    800029ac:	00a51513          	slli	a0,a0,0xa
    800029b0:	26650513          	addi	a0,a0,614
    800029b4:	03f53593          	sltiu	a1,a0,63
    800029b8:	7cb13823          	sd	a1,2000(sp)
    800029bc:	00000193          	li	gp,0
    800029c0:	00b18463          	beq	gp,a1,800029c8 <inst_273>
    800029c4:	e60fd06f          	j	80000024 <rvtest_error>

00000000800029c8 <inst_273>:
    800029c8:	66666537          	lui	a0,0x66666
    800029cc:	66650513          	addi	a0,a0,1638 # 66666666 <absimmsh+0x5ab958b9>
    800029d0:	00b51513          	slli	a0,a0,0xb
    800029d4:	33350513          	addi	a0,a0,819
    800029d8:	00b51513          	slli	a0,a0,0xb
    800029dc:	19950513          	addi	a0,a0,409
    800029e0:	00a51513          	slli	a0,a0,0xa
    800029e4:	26650513          	addi	a0,a0,614
    800029e8:	00253593          	sltiu	a1,a0,2
    800029ec:	7cb13c23          	sd	a1,2008(sp)
    800029f0:	00000193          	li	gp,0
    800029f4:	00b18463          	beq	gp,a1,800029fc <inst_274>
    800029f8:	e2cfd06f          	j	80000024 <rvtest_error>

00000000800029fc <inst_274>:
    800029fc:	66666537          	lui	a0,0x66666
    80002a00:	66650513          	addi	a0,a0,1638 # 66666666 <absimmsh+0x5ab958b9>
    80002a04:	00b51513          	slli	a0,a0,0xb
    80002a08:	33350513          	addi	a0,a0,819
    80002a0c:	00b51513          	slli	a0,a0,0xb
    80002a10:	19950513          	addi	a0,a0,409
    80002a14:	00a51513          	slli	a0,a0,0xa
    80002a18:	26650513          	addi	a0,a0,614
    80002a1c:	55453593          	sltiu	a1,a0,1364
    80002a20:	7eb13023          	sd	a1,2016(sp)
    80002a24:	00000193          	li	gp,0
    80002a28:	00b18463          	beq	gp,a1,80002a30 <inst_275>
    80002a2c:	df8fd06f          	j	80000024 <rvtest_error>

0000000080002a30 <inst_275>:
    80002a30:	66666537          	lui	a0,0x66666
    80002a34:	66650513          	addi	a0,a0,1638 # 66666666 <absimmsh+0x5ab958b9>
    80002a38:	00b51513          	slli	a0,a0,0xb
    80002a3c:	33350513          	addi	a0,a0,819
    80002a40:	00b51513          	slli	a0,a0,0xb
    80002a44:	19950513          	addi	a0,a0,409
    80002a48:	00a51513          	slli	a0,a0,0xa
    80002a4c:	26650513          	addi	a0,a0,614
    80002a50:	aa953593          	sltiu	a1,a0,-1367
    80002a54:	7eb13423          	sd	a1,2024(sp)
    80002a58:	00100193          	li	gp,1
    80002a5c:	00b18463          	beq	gp,a1,80002a64 <inst_276>
    80002a60:	dc4fd06f          	j	80000024 <rvtest_error>

0000000080002a64 <inst_276>:
    80002a64:	66666537          	lui	a0,0x66666
    80002a68:	66650513          	addi	a0,a0,1638 # 66666666 <absimmsh+0x5ab958b9>
    80002a6c:	00b51513          	slli	a0,a0,0xb
    80002a70:	33350513          	addi	a0,a0,819
    80002a74:	00b51513          	slli	a0,a0,0xb
    80002a78:	19950513          	addi	a0,a0,409
    80002a7c:	00a51513          	slli	a0,a0,0xa
    80002a80:	26650513          	addi	a0,a0,614
    80002a84:	00453593          	sltiu	a1,a0,4
    80002a88:	7eb13823          	sd	a1,2032(sp)
    80002a8c:	00000193          	li	gp,0
    80002a90:	00b18463          	beq	gp,a1,80002a98 <inst_277>
    80002a94:	d90fd06f          	j	80000024 <rvtest_error>

0000000080002a98 <inst_277>:
    80002a98:	66666537          	lui	a0,0x66666
    80002a9c:	66650513          	addi	a0,a0,1638 # 66666666 <absimmsh+0x5ab958b9>
    80002aa0:	00b51513          	slli	a0,a0,0xb
    80002aa4:	33350513          	addi	a0,a0,819
    80002aa8:	00b51513          	slli	a0,a0,0xb
    80002aac:	19950513          	addi	a0,a0,409
    80002ab0:	00a51513          	slli	a0,a0,0xa
    80002ab4:	26650513          	addi	a0,a0,614
    80002ab8:	33253593          	sltiu	a1,a0,818
    80002abc:	7eb13c23          	sd	a1,2040(sp)
    80002ac0:	00000193          	li	gp,0
    80002ac4:	00b18463          	beq	gp,a1,80002acc <inst_277+0x34>
    80002ac8:	d5cfd06f          	j	80000024 <rvtest_error>
    80002acc:	00000013          	nop
    80002ad0:	00000013          	nop
    80002ad4:	00000013          	nop
    80002ad8:	00000013          	nop
    80002adc:	00000013          	nop
    80002ae0:	00007117          	auipc	sp,0x7
    80002ae4:	dd810113          	addi	sp,sp,-552 # 800098b8 <signature_x2_1>
    80002ae8:	00000013          	nop
    80002aec:	00000013          	nop
    80002af0:	00000013          	nop
    80002af4:	00000013          	nop
    80002af8:	00000013          	nop
    80002afc:	00000013          	nop

0000000080002b00 <inst_278>:
    80002b00:	66666537          	lui	a0,0x66666
    80002b04:	66650513          	addi	a0,a0,1638 # 66666666 <absimmsh+0x5ab958b9>
    80002b08:	00b51513          	slli	a0,a0,0xb
    80002b0c:	33350513          	addi	a0,a0,819
    80002b10:	00b51513          	slli	a0,a0,0xb
    80002b14:	19950513          	addi	a0,a0,409
    80002b18:	00a51513          	slli	a0,a0,0xa
    80002b1c:	26650513          	addi	a0,a0,614
    80002b20:	66553593          	sltiu	a1,a0,1637
    80002b24:	00b13023          	sd	a1,0(sp)
    80002b28:	00000193          	li	gp,0
    80002b2c:	00b18463          	beq	gp,a1,80002b34 <inst_279>
    80002b30:	cf4fd06f          	j	80000024 <rvtest_error>

0000000080002b34 <inst_279>:
    80002b34:	66666537          	lui	a0,0x66666
    80002b38:	66650513          	addi	a0,a0,1638 # 66666666 <absimmsh+0x5ab958b9>
    80002b3c:	00b51513          	slli	a0,a0,0xb
    80002b40:	33350513          	addi	a0,a0,819
    80002b44:	00b51513          	slli	a0,a0,0xb
    80002b48:	19950513          	addi	a0,a0,409
    80002b4c:	00a51513          	slli	a0,a0,0xa
    80002b50:	26650513          	addi	a0,a0,614
    80002b54:	02c53593          	sltiu	a1,a0,44
    80002b58:	00b13423          	sd	a1,8(sp)
    80002b5c:	00000193          	li	gp,0
    80002b60:	00b18463          	beq	gp,a1,80002b68 <inst_280>
    80002b64:	cc0fd06f          	j	80000024 <rvtest_error>

0000000080002b68 <inst_280>:
    80002b68:	66666537          	lui	a0,0x66666
    80002b6c:	66650513          	addi	a0,a0,1638 # 66666666 <absimmsh+0x5ab958b9>
    80002b70:	00b51513          	slli	a0,a0,0xb
    80002b74:	33350513          	addi	a0,a0,819
    80002b78:	00b51513          	slli	a0,a0,0xb
    80002b7c:	19950513          	addi	a0,a0,409
    80002b80:	00a51513          	slli	a0,a0,0xa
    80002b84:	26650513          	addi	a0,a0,614
    80002b88:	03e53593          	sltiu	a1,a0,62
    80002b8c:	00b13823          	sd	a1,16(sp)
    80002b90:	00000193          	li	gp,0
    80002b94:	00b18463          	beq	gp,a1,80002b9c <inst_281>
    80002b98:	c8cfd06f          	j	80000024 <rvtest_error>

0000000080002b9c <inst_281>:
    80002b9c:	66666537          	lui	a0,0x66666
    80002ba0:	66650513          	addi	a0,a0,1638 # 66666666 <absimmsh+0x5ab958b9>
    80002ba4:	00b51513          	slli	a0,a0,0xb
    80002ba8:	33350513          	addi	a0,a0,819
    80002bac:	00b51513          	slli	a0,a0,0xb
    80002bb0:	19950513          	addi	a0,a0,409
    80002bb4:	00a51513          	slli	a0,a0,0xa
    80002bb8:	26650513          	addi	a0,a0,614
    80002bbc:	55653593          	sltiu	a1,a0,1366
    80002bc0:	00b13c23          	sd	a1,24(sp)
    80002bc4:	00000193          	li	gp,0
    80002bc8:	00b18463          	beq	gp,a1,80002bd0 <inst_282>
    80002bcc:	c58fd06f          	j	80000024 <rvtest_error>

0000000080002bd0 <inst_282>:
    80002bd0:	66666537          	lui	a0,0x66666
    80002bd4:	66650513          	addi	a0,a0,1638 # 66666666 <absimmsh+0x5ab958b9>
    80002bd8:	00b51513          	slli	a0,a0,0xb
    80002bdc:	33350513          	addi	a0,a0,819
    80002be0:	00b51513          	slli	a0,a0,0xb
    80002be4:	19950513          	addi	a0,a0,409
    80002be8:	00a51513          	slli	a0,a0,0xa
    80002bec:	26650513          	addi	a0,a0,614
    80002bf0:	aab53593          	sltiu	a1,a0,-1365
    80002bf4:	02b13023          	sd	a1,32(sp)
    80002bf8:	00100193          	li	gp,1
    80002bfc:	00b18463          	beq	gp,a1,80002c04 <inst_283>
    80002c00:	c24fd06f          	j	80000024 <rvtest_error>

0000000080002c04 <inst_283>:
    80002c04:	66666537          	lui	a0,0x66666
    80002c08:	66650513          	addi	a0,a0,1638 # 66666666 <absimmsh+0x5ab958b9>
    80002c0c:	00b51513          	slli	a0,a0,0xb
    80002c10:	33350513          	addi	a0,a0,819
    80002c14:	00b51513          	slli	a0,a0,0xb
    80002c18:	19950513          	addi	a0,a0,409
    80002c1c:	00a51513          	slli	a0,a0,0xa
    80002c20:	26650513          	addi	a0,a0,614
    80002c24:	00653593          	sltiu	a1,a0,6
    80002c28:	02b13423          	sd	a1,40(sp)
    80002c2c:	00000193          	li	gp,0
    80002c30:	00b18463          	beq	gp,a1,80002c38 <inst_284>
    80002c34:	bf0fd06f          	j	80000024 <rvtest_error>

0000000080002c38 <inst_284>:
    80002c38:	66666537          	lui	a0,0x66666
    80002c3c:	66650513          	addi	a0,a0,1638 # 66666666 <absimmsh+0x5ab958b9>
    80002c40:	00b51513          	slli	a0,a0,0xb
    80002c44:	33350513          	addi	a0,a0,819
    80002c48:	00b51513          	slli	a0,a0,0xb
    80002c4c:	19950513          	addi	a0,a0,409
    80002c50:	00a51513          	slli	a0,a0,0xa
    80002c54:	26650513          	addi	a0,a0,614
    80002c58:	33453593          	sltiu	a1,a0,820
    80002c5c:	02b13823          	sd	a1,48(sp)
    80002c60:	00000193          	li	gp,0
    80002c64:	00b18463          	beq	gp,a1,80002c6c <inst_285>
    80002c68:	bbcfd06f          	j	80000024 <rvtest_error>

0000000080002c6c <inst_285>:
    80002c6c:	66666537          	lui	a0,0x66666
    80002c70:	66650513          	addi	a0,a0,1638 # 66666666 <absimmsh+0x5ab958b9>
    80002c74:	00b51513          	slli	a0,a0,0xb
    80002c78:	33350513          	addi	a0,a0,819
    80002c7c:	00b51513          	slli	a0,a0,0xb
    80002c80:	19950513          	addi	a0,a0,409
    80002c84:	00a51513          	slli	a0,a0,0xa
    80002c88:	26650513          	addi	a0,a0,614
    80002c8c:	66753593          	sltiu	a1,a0,1639
    80002c90:	02b13c23          	sd	a1,56(sp)
    80002c94:	00000193          	li	gp,0
    80002c98:	00b18463          	beq	gp,a1,80002ca0 <inst_286>
    80002c9c:	b88fd06f          	j	80000024 <rvtest_error>

0000000080002ca0 <inst_286>:
    80002ca0:	66666537          	lui	a0,0x66666
    80002ca4:	66650513          	addi	a0,a0,1638 # 66666666 <absimmsh+0x5ab958b9>
    80002ca8:	00b51513          	slli	a0,a0,0xb
    80002cac:	33350513          	addi	a0,a0,819
    80002cb0:	00b51513          	slli	a0,a0,0xb
    80002cb4:	19950513          	addi	a0,a0,409
    80002cb8:	00a51513          	slli	a0,a0,0xa
    80002cbc:	26650513          	addi	a0,a0,614
    80002cc0:	02e53593          	sltiu	a1,a0,46
    80002cc4:	04b13023          	sd	a1,64(sp)
    80002cc8:	00000193          	li	gp,0
    80002ccc:	00b18463          	beq	gp,a1,80002cd4 <inst_287>
    80002cd0:	b54fd06f          	j	80000024 <rvtest_error>

0000000080002cd4 <inst_287>:
    80002cd4:	66666537          	lui	a0,0x66666
    80002cd8:	66650513          	addi	a0,a0,1638 # 66666666 <absimmsh+0x5ab958b9>
    80002cdc:	00b51513          	slli	a0,a0,0xb
    80002ce0:	33350513          	addi	a0,a0,819
    80002ce4:	00b51513          	slli	a0,a0,0xb
    80002ce8:	19950513          	addi	a0,a0,409
    80002cec:	00a51513          	slli	a0,a0,0xa
    80002cf0:	26650513          	addi	a0,a0,614
    80002cf4:	00153593          	seqz	a1,a0
    80002cf8:	04b13423          	sd	a1,72(sp)
    80002cfc:	00000193          	li	gp,0
    80002d00:	00b18463          	beq	gp,a1,80002d08 <inst_288>
    80002d04:	b20fd06f          	j	80000024 <rvtest_error>

0000000080002d08 <inst_288>:
    80002d08:	66666537          	lui	a0,0x66666
    80002d0c:	66650513          	addi	a0,a0,1638 # 66666666 <absimmsh+0x5ab958b9>
    80002d10:	00b51513          	slli	a0,a0,0xb
    80002d14:	33350513          	addi	a0,a0,819
    80002d18:	00b51513          	slli	a0,a0,0xb
    80002d1c:	19950513          	addi	a0,a0,409
    80002d20:	00a51513          	slli	a0,a0,0xa
    80002d24:	26650513          	addi	a0,a0,614
    80002d28:	04053593          	sltiu	a1,a0,64
    80002d2c:	04b13823          	sd	a1,80(sp)
    80002d30:	00000193          	li	gp,0
    80002d34:	00b18463          	beq	gp,a1,80002d3c <inst_289>
    80002d38:	aecfd06f          	j	80000024 <rvtest_error>

0000000080002d3c <inst_289>:
    80002d3c:	00000537          	lui	a0,0x0
    80002d40:	00050513          	mv	a0,a0
    80002d44:	00b51513          	slli	a0,a0,0xb
    80002d48:	5a850513          	addi	a0,a0,1448 # 5a8 <pos+0x568>
    80002d4c:	00b51513          	slli	a0,a0,0xb
    80002d50:	13c50513          	addi	a0,a0,316
    80002d54:	00a51513          	slli	a0,a0,0xa
    80002d58:	33350513          	addi	a0,a0,819
    80002d5c:	00353593          	sltiu	a1,a0,3
    80002d60:	04b13c23          	sd	a1,88(sp)
    80002d64:	00000193          	li	gp,0
    80002d68:	00b18463          	beq	gp,a1,80002d70 <inst_290>
    80002d6c:	ab8fd06f          	j	80000024 <rvtest_error>

0000000080002d70 <inst_290>:
    80002d70:	00000537          	lui	a0,0x0
    80002d74:	00050513          	mv	a0,a0
    80002d78:	00b51513          	slli	a0,a0,0xb
    80002d7c:	5a850513          	addi	a0,a0,1448 # 5a8 <pos+0x568>
    80002d80:	00b51513          	slli	a0,a0,0xb
    80002d84:	13c50513          	addi	a0,a0,316
    80002d88:	00a51513          	slli	a0,a0,0xa
    80002d8c:	33350513          	addi	a0,a0,819
    80002d90:	55553593          	sltiu	a1,a0,1365
    80002d94:	06b13023          	sd	a1,96(sp)
    80002d98:	00000193          	li	gp,0
    80002d9c:	00b18463          	beq	gp,a1,80002da4 <inst_291>
    80002da0:	a84fd06f          	j	80000024 <rvtest_error>

0000000080002da4 <inst_291>:
    80002da4:	00000537          	lui	a0,0x0
    80002da8:	00050513          	mv	a0,a0
    80002dac:	00b51513          	slli	a0,a0,0xb
    80002db0:	5a850513          	addi	a0,a0,1448 # 5a8 <pos+0x568>
    80002db4:	00b51513          	slli	a0,a0,0xb
    80002db8:	13c50513          	addi	a0,a0,316
    80002dbc:	00a51513          	slli	a0,a0,0xa
    80002dc0:	33350513          	addi	a0,a0,819
    80002dc4:	aaa53593          	sltiu	a1,a0,-1366
    80002dc8:	06b13423          	sd	a1,104(sp)
    80002dcc:	00100193          	li	gp,1
    80002dd0:	00b18463          	beq	gp,a1,80002dd8 <inst_292>
    80002dd4:	a50fd06f          	j	80000024 <rvtest_error>

0000000080002dd8 <inst_292>:
    80002dd8:	00000537          	lui	a0,0x0
    80002ddc:	00050513          	mv	a0,a0
    80002de0:	00b51513          	slli	a0,a0,0xb
    80002de4:	5a850513          	addi	a0,a0,1448 # 5a8 <pos+0x568>
    80002de8:	00b51513          	slli	a0,a0,0xb
    80002dec:	13c50513          	addi	a0,a0,316
    80002df0:	00a51513          	slli	a0,a0,0xa
    80002df4:	33350513          	addi	a0,a0,819
    80002df8:	00553593          	sltiu	a1,a0,5
    80002dfc:	06b13823          	sd	a1,112(sp)
    80002e00:	00000193          	li	gp,0
    80002e04:	00b18463          	beq	gp,a1,80002e0c <inst_293>
    80002e08:	a1cfd06f          	j	80000024 <rvtest_error>

0000000080002e0c <inst_293>:
    80002e0c:	00000537          	lui	a0,0x0
    80002e10:	00050513          	mv	a0,a0
    80002e14:	00b51513          	slli	a0,a0,0xb
    80002e18:	5a850513          	addi	a0,a0,1448 # 5a8 <pos+0x568>
    80002e1c:	00b51513          	slli	a0,a0,0xb
    80002e20:	13c50513          	addi	a0,a0,316
    80002e24:	00a51513          	slli	a0,a0,0xa
    80002e28:	33350513          	addi	a0,a0,819
    80002e2c:	33353593          	sltiu	a1,a0,819
    80002e30:	06b13c23          	sd	a1,120(sp)
    80002e34:	00000193          	li	gp,0
    80002e38:	00b18463          	beq	gp,a1,80002e40 <inst_294>
    80002e3c:	9e8fd06f          	j	80000024 <rvtest_error>

0000000080002e40 <inst_294>:
    80002e40:	00000537          	lui	a0,0x0
    80002e44:	00050513          	mv	a0,a0
    80002e48:	00b51513          	slli	a0,a0,0xb
    80002e4c:	5a850513          	addi	a0,a0,1448 # 5a8 <pos+0x568>
    80002e50:	00b51513          	slli	a0,a0,0xb
    80002e54:	13c50513          	addi	a0,a0,316
    80002e58:	00a51513          	slli	a0,a0,0xa
    80002e5c:	33350513          	addi	a0,a0,819
    80002e60:	66653593          	sltiu	a1,a0,1638
    80002e64:	08b13023          	sd	a1,128(sp)
    80002e68:	00000193          	li	gp,0
    80002e6c:	00b18463          	beq	gp,a1,80002e74 <inst_295>
    80002e70:	9b4fd06f          	j	80000024 <rvtest_error>

0000000080002e74 <inst_295>:
    80002e74:	00000537          	lui	a0,0x0
    80002e78:	00050513          	mv	a0,a0
    80002e7c:	00b51513          	slli	a0,a0,0xb
    80002e80:	5a850513          	addi	a0,a0,1448 # 5a8 <pos+0x568>
    80002e84:	00b51513          	slli	a0,a0,0xb
    80002e88:	13c50513          	addi	a0,a0,316
    80002e8c:	00a51513          	slli	a0,a0,0xa
    80002e90:	33350513          	addi	a0,a0,819
    80002e94:	02d53593          	sltiu	a1,a0,45
    80002e98:	08b13423          	sd	a1,136(sp)
    80002e9c:	00000193          	li	gp,0
    80002ea0:	00b18463          	beq	gp,a1,80002ea8 <inst_296>
    80002ea4:	980fd06f          	j	80000024 <rvtest_error>

0000000080002ea8 <inst_296>:
    80002ea8:	00000537          	lui	a0,0x0
    80002eac:	00050513          	mv	a0,a0
    80002eb0:	00b51513          	slli	a0,a0,0xb
    80002eb4:	5a850513          	addi	a0,a0,1448 # 5a8 <pos+0x568>
    80002eb8:	00b51513          	slli	a0,a0,0xb
    80002ebc:	13c50513          	addi	a0,a0,316
    80002ec0:	00a51513          	slli	a0,a0,0xa
    80002ec4:	33350513          	addi	a0,a0,819
    80002ec8:	00053593          	sltiu	a1,a0,0
    80002ecc:	08b13823          	sd	a1,144(sp)
    80002ed0:	00000193          	li	gp,0
    80002ed4:	00b18463          	beq	gp,a1,80002edc <inst_297>
    80002ed8:	94cfd06f          	j	80000024 <rvtest_error>

0000000080002edc <inst_297>:
    80002edc:	00000537          	lui	a0,0x0
    80002ee0:	00050513          	mv	a0,a0
    80002ee4:	00b51513          	slli	a0,a0,0xb
    80002ee8:	5a850513          	addi	a0,a0,1448 # 5a8 <pos+0x568>
    80002eec:	00b51513          	slli	a0,a0,0xb
    80002ef0:	13c50513          	addi	a0,a0,316
    80002ef4:	00a51513          	slli	a0,a0,0xa
    80002ef8:	33350513          	addi	a0,a0,819
    80002efc:	03f53593          	sltiu	a1,a0,63
    80002f00:	08b13c23          	sd	a1,152(sp)
    80002f04:	00000193          	li	gp,0
    80002f08:	00b18463          	beq	gp,a1,80002f10 <inst_298>
    80002f0c:	918fd06f          	j	80000024 <rvtest_error>

0000000080002f10 <inst_298>:
    80002f10:	00000537          	lui	a0,0x0
    80002f14:	00050513          	mv	a0,a0
    80002f18:	00b51513          	slli	a0,a0,0xb
    80002f1c:	5a850513          	addi	a0,a0,1448 # 5a8 <pos+0x568>
    80002f20:	00b51513          	slli	a0,a0,0xb
    80002f24:	13c50513          	addi	a0,a0,316
    80002f28:	00a51513          	slli	a0,a0,0xa
    80002f2c:	33350513          	addi	a0,a0,819
    80002f30:	00253593          	sltiu	a1,a0,2
    80002f34:	0ab13023          	sd	a1,160(sp)
    80002f38:	00000193          	li	gp,0
    80002f3c:	00b18463          	beq	gp,a1,80002f44 <inst_299>
    80002f40:	8e4fd06f          	j	80000024 <rvtest_error>

0000000080002f44 <inst_299>:
    80002f44:	00000537          	lui	a0,0x0
    80002f48:	00050513          	mv	a0,a0
    80002f4c:	00b51513          	slli	a0,a0,0xb
    80002f50:	5a850513          	addi	a0,a0,1448 # 5a8 <pos+0x568>
    80002f54:	00b51513          	slli	a0,a0,0xb
    80002f58:	13c50513          	addi	a0,a0,316
    80002f5c:	00a51513          	slli	a0,a0,0xa
    80002f60:	33350513          	addi	a0,a0,819
    80002f64:	55453593          	sltiu	a1,a0,1364
    80002f68:	0ab13423          	sd	a1,168(sp)
    80002f6c:	00000193          	li	gp,0
    80002f70:	00b18463          	beq	gp,a1,80002f78 <inst_300>
    80002f74:	8b0fd06f          	j	80000024 <rvtest_error>

0000000080002f78 <inst_300>:
    80002f78:	00000537          	lui	a0,0x0
    80002f7c:	00050513          	mv	a0,a0
    80002f80:	00b51513          	slli	a0,a0,0xb
    80002f84:	5a850513          	addi	a0,a0,1448 # 5a8 <pos+0x568>
    80002f88:	00b51513          	slli	a0,a0,0xb
    80002f8c:	13c50513          	addi	a0,a0,316
    80002f90:	00a51513          	slli	a0,a0,0xa
    80002f94:	33350513          	addi	a0,a0,819
    80002f98:	aa953593          	sltiu	a1,a0,-1367
    80002f9c:	0ab13823          	sd	a1,176(sp)
    80002fa0:	00100193          	li	gp,1
    80002fa4:	00b18463          	beq	gp,a1,80002fac <inst_301>
    80002fa8:	87cfd06f          	j	80000024 <rvtest_error>

0000000080002fac <inst_301>:
    80002fac:	00000537          	lui	a0,0x0
    80002fb0:	00050513          	mv	a0,a0
    80002fb4:	00b51513          	slli	a0,a0,0xb
    80002fb8:	5a850513          	addi	a0,a0,1448 # 5a8 <pos+0x568>
    80002fbc:	00b51513          	slli	a0,a0,0xb
    80002fc0:	13c50513          	addi	a0,a0,316
    80002fc4:	00a51513          	slli	a0,a0,0xa
    80002fc8:	33350513          	addi	a0,a0,819
    80002fcc:	00453593          	sltiu	a1,a0,4
    80002fd0:	0ab13c23          	sd	a1,184(sp)
    80002fd4:	00000193          	li	gp,0
    80002fd8:	00b18463          	beq	gp,a1,80002fe0 <inst_302>
    80002fdc:	848fd06f          	j	80000024 <rvtest_error>

0000000080002fe0 <inst_302>:
    80002fe0:	00000537          	lui	a0,0x0
    80002fe4:	00050513          	mv	a0,a0
    80002fe8:	00b51513          	slli	a0,a0,0xb
    80002fec:	5a850513          	addi	a0,a0,1448 # 5a8 <pos+0x568>
    80002ff0:	00b51513          	slli	a0,a0,0xb
    80002ff4:	13c50513          	addi	a0,a0,316
    80002ff8:	00a51513          	slli	a0,a0,0xa
    80002ffc:	33350513          	addi	a0,a0,819
    80003000:	33253593          	sltiu	a1,a0,818
    80003004:	0cb13023          	sd	a1,192(sp)
    80003008:	00000193          	li	gp,0
    8000300c:	00b18463          	beq	gp,a1,80003014 <inst_303>
    80003010:	814fd06f          	j	80000024 <rvtest_error>

0000000080003014 <inst_303>:
    80003014:	00000537          	lui	a0,0x0
    80003018:	00050513          	mv	a0,a0
    8000301c:	00b51513          	slli	a0,a0,0xb
    80003020:	5a850513          	addi	a0,a0,1448 # 5a8 <pos+0x568>
    80003024:	00b51513          	slli	a0,a0,0xb
    80003028:	13c50513          	addi	a0,a0,316
    8000302c:	00a51513          	slli	a0,a0,0xa
    80003030:	33350513          	addi	a0,a0,819
    80003034:	66553593          	sltiu	a1,a0,1637
    80003038:	0cb13423          	sd	a1,200(sp)
    8000303c:	00000193          	li	gp,0
    80003040:	00b18463          	beq	gp,a1,80003048 <inst_304>
    80003044:	fe1fc06f          	j	80000024 <rvtest_error>

0000000080003048 <inst_304>:
    80003048:	00000537          	lui	a0,0x0
    8000304c:	00050513          	mv	a0,a0
    80003050:	00b51513          	slli	a0,a0,0xb
    80003054:	5a850513          	addi	a0,a0,1448 # 5a8 <pos+0x568>
    80003058:	00b51513          	slli	a0,a0,0xb
    8000305c:	13c50513          	addi	a0,a0,316
    80003060:	00a51513          	slli	a0,a0,0xa
    80003064:	33350513          	addi	a0,a0,819
    80003068:	02c53593          	sltiu	a1,a0,44
    8000306c:	0cb13823          	sd	a1,208(sp)
    80003070:	00000193          	li	gp,0
    80003074:	00b18463          	beq	gp,a1,8000307c <inst_305>
    80003078:	fadfc06f          	j	80000024 <rvtest_error>

000000008000307c <inst_305>:
    8000307c:	00000537          	lui	a0,0x0
    80003080:	00050513          	mv	a0,a0
    80003084:	00b51513          	slli	a0,a0,0xb
    80003088:	5a850513          	addi	a0,a0,1448 # 5a8 <pos+0x568>
    8000308c:	00b51513          	slli	a0,a0,0xb
    80003090:	13c50513          	addi	a0,a0,316
    80003094:	00a51513          	slli	a0,a0,0xa
    80003098:	33350513          	addi	a0,a0,819
    8000309c:	03e53593          	sltiu	a1,a0,62
    800030a0:	0cb13c23          	sd	a1,216(sp)
    800030a4:	00000193          	li	gp,0
    800030a8:	00b18463          	beq	gp,a1,800030b0 <inst_306>
    800030ac:	f79fc06f          	j	80000024 <rvtest_error>

00000000800030b0 <inst_306>:
    800030b0:	00000537          	lui	a0,0x0
    800030b4:	00050513          	mv	a0,a0
    800030b8:	00b51513          	slli	a0,a0,0xb
    800030bc:	5a850513          	addi	a0,a0,1448 # 5a8 <pos+0x568>
    800030c0:	00b51513          	slli	a0,a0,0xb
    800030c4:	13c50513          	addi	a0,a0,316
    800030c8:	00a51513          	slli	a0,a0,0xa
    800030cc:	33350513          	addi	a0,a0,819
    800030d0:	55653593          	sltiu	a1,a0,1366
    800030d4:	0eb13023          	sd	a1,224(sp)
    800030d8:	00000193          	li	gp,0
    800030dc:	00b18463          	beq	gp,a1,800030e4 <inst_307>
    800030e0:	f45fc06f          	j	80000024 <rvtest_error>

00000000800030e4 <inst_307>:
    800030e4:	00000537          	lui	a0,0x0
    800030e8:	00050513          	mv	a0,a0
    800030ec:	00b51513          	slli	a0,a0,0xb
    800030f0:	5a850513          	addi	a0,a0,1448 # 5a8 <pos+0x568>
    800030f4:	00b51513          	slli	a0,a0,0xb
    800030f8:	13c50513          	addi	a0,a0,316
    800030fc:	00a51513          	slli	a0,a0,0xa
    80003100:	33350513          	addi	a0,a0,819
    80003104:	aab53593          	sltiu	a1,a0,-1365
    80003108:	0eb13423          	sd	a1,232(sp)
    8000310c:	00100193          	li	gp,1
    80003110:	00b18463          	beq	gp,a1,80003118 <inst_308>
    80003114:	f11fc06f          	j	80000024 <rvtest_error>

0000000080003118 <inst_308>:
    80003118:	00000537          	lui	a0,0x0
    8000311c:	00050513          	mv	a0,a0
    80003120:	00b51513          	slli	a0,a0,0xb
    80003124:	5a850513          	addi	a0,a0,1448 # 5a8 <pos+0x568>
    80003128:	00b51513          	slli	a0,a0,0xb
    8000312c:	13c50513          	addi	a0,a0,316
    80003130:	00a51513          	slli	a0,a0,0xa
    80003134:	33350513          	addi	a0,a0,819
    80003138:	00653593          	sltiu	a1,a0,6
    8000313c:	0eb13823          	sd	a1,240(sp)
    80003140:	00000193          	li	gp,0
    80003144:	00b18463          	beq	gp,a1,8000314c <inst_309>
    80003148:	eddfc06f          	j	80000024 <rvtest_error>

000000008000314c <inst_309>:
    8000314c:	00000537          	lui	a0,0x0
    80003150:	00050513          	mv	a0,a0
    80003154:	00b51513          	slli	a0,a0,0xb
    80003158:	5a850513          	addi	a0,a0,1448 # 5a8 <pos+0x568>
    8000315c:	00b51513          	slli	a0,a0,0xb
    80003160:	13c50513          	addi	a0,a0,316
    80003164:	00a51513          	slli	a0,a0,0xa
    80003168:	33350513          	addi	a0,a0,819
    8000316c:	33453593          	sltiu	a1,a0,820
    80003170:	0eb13c23          	sd	a1,248(sp)
    80003174:	00000193          	li	gp,0
    80003178:	00b18463          	beq	gp,a1,80003180 <inst_310>
    8000317c:	ea9fc06f          	j	80000024 <rvtest_error>

0000000080003180 <inst_310>:
    80003180:	00000537          	lui	a0,0x0
    80003184:	00050513          	mv	a0,a0
    80003188:	00b51513          	slli	a0,a0,0xb
    8000318c:	5a850513          	addi	a0,a0,1448 # 5a8 <pos+0x568>
    80003190:	00b51513          	slli	a0,a0,0xb
    80003194:	13c50513          	addi	a0,a0,316
    80003198:	00a51513          	slli	a0,a0,0xa
    8000319c:	33350513          	addi	a0,a0,819
    800031a0:	66753593          	sltiu	a1,a0,1639
    800031a4:	10b13023          	sd	a1,256(sp)
    800031a8:	00000193          	li	gp,0
    800031ac:	00b18463          	beq	gp,a1,800031b4 <inst_311>
    800031b0:	e75fc06f          	j	80000024 <rvtest_error>

00000000800031b4 <inst_311>:
    800031b4:	00000537          	lui	a0,0x0
    800031b8:	00050513          	mv	a0,a0
    800031bc:	00b51513          	slli	a0,a0,0xb
    800031c0:	5a850513          	addi	a0,a0,1448 # 5a8 <pos+0x568>
    800031c4:	00b51513          	slli	a0,a0,0xb
    800031c8:	13c50513          	addi	a0,a0,316
    800031cc:	00a51513          	slli	a0,a0,0xa
    800031d0:	33350513          	addi	a0,a0,819
    800031d4:	02e53593          	sltiu	a1,a0,46
    800031d8:	10b13423          	sd	a1,264(sp)
    800031dc:	00000193          	li	gp,0
    800031e0:	00b18463          	beq	gp,a1,800031e8 <inst_312>
    800031e4:	e41fc06f          	j	80000024 <rvtest_error>

00000000800031e8 <inst_312>:
    800031e8:	00000537          	lui	a0,0x0
    800031ec:	00050513          	mv	a0,a0
    800031f0:	00b51513          	slli	a0,a0,0xb
    800031f4:	5a850513          	addi	a0,a0,1448 # 5a8 <pos+0x568>
    800031f8:	00b51513          	slli	a0,a0,0xb
    800031fc:	13c50513          	addi	a0,a0,316
    80003200:	00a51513          	slli	a0,a0,0xa
    80003204:	33350513          	addi	a0,a0,819
    80003208:	00153593          	seqz	a1,a0
    8000320c:	10b13823          	sd	a1,272(sp)
    80003210:	00000193          	li	gp,0
    80003214:	00b18463          	beq	gp,a1,8000321c <inst_313>
    80003218:	e0dfc06f          	j	80000024 <rvtest_error>

000000008000321c <inst_313>:
    8000321c:	00000537          	lui	a0,0x0
    80003220:	00050513          	mv	a0,a0
    80003224:	00b51513          	slli	a0,a0,0xb
    80003228:	5a850513          	addi	a0,a0,1448 # 5a8 <pos+0x568>
    8000322c:	00b51513          	slli	a0,a0,0xb
    80003230:	13c50513          	addi	a0,a0,316
    80003234:	00a51513          	slli	a0,a0,0xa
    80003238:	33350513          	addi	a0,a0,819
    8000323c:	04053593          	sltiu	a1,a0,64
    80003240:	10b13c23          	sd	a1,280(sp)
    80003244:	00000193          	li	gp,0
    80003248:	00b18463          	beq	gp,a1,80003250 <inst_314>
    8000324c:	dd9fc06f          	j	80000024 <rvtest_error>

0000000080003250 <inst_314>:
    80003250:	00000513          	li	a0,0
    80003254:	00353593          	sltiu	a1,a0,3
    80003258:	12b13023          	sd	a1,288(sp)
    8000325c:	00100193          	li	gp,1
    80003260:	00b18463          	beq	gp,a1,80003268 <inst_315>
    80003264:	dc1fc06f          	j	80000024 <rvtest_error>

0000000080003268 <inst_315>:
    80003268:	00000513          	li	a0,0
    8000326c:	55553593          	sltiu	a1,a0,1365
    80003270:	12b13423          	sd	a1,296(sp)
    80003274:	00100193          	li	gp,1
    80003278:	00b18463          	beq	gp,a1,80003280 <inst_316>
    8000327c:	da9fc06f          	j	80000024 <rvtest_error>

0000000080003280 <inst_316>:
    80003280:	00000513          	li	a0,0
    80003284:	aaa53593          	sltiu	a1,a0,-1366
    80003288:	12b13823          	sd	a1,304(sp)
    8000328c:	00100193          	li	gp,1
    80003290:	00b18463          	beq	gp,a1,80003298 <inst_317>
    80003294:	d91fc06f          	j	80000024 <rvtest_error>

0000000080003298 <inst_317>:
    80003298:	00000513          	li	a0,0
    8000329c:	00553593          	sltiu	a1,a0,5
    800032a0:	12b13c23          	sd	a1,312(sp)
    800032a4:	00100193          	li	gp,1
    800032a8:	00b18463          	beq	gp,a1,800032b0 <inst_318>
    800032ac:	d79fc06f          	j	80000024 <rvtest_error>

00000000800032b0 <inst_318>:
    800032b0:	00000513          	li	a0,0
    800032b4:	33353593          	sltiu	a1,a0,819
    800032b8:	14b13023          	sd	a1,320(sp)
    800032bc:	00100193          	li	gp,1
    800032c0:	00b18463          	beq	gp,a1,800032c8 <inst_319>
    800032c4:	d61fc06f          	j	80000024 <rvtest_error>

00000000800032c8 <inst_319>:
    800032c8:	00000513          	li	a0,0
    800032cc:	66653593          	sltiu	a1,a0,1638
    800032d0:	14b13423          	sd	a1,328(sp)
    800032d4:	00100193          	li	gp,1
    800032d8:	00b18463          	beq	gp,a1,800032e0 <inst_320>
    800032dc:	d49fc06f          	j	80000024 <rvtest_error>

00000000800032e0 <inst_320>:
    800032e0:	00000513          	li	a0,0
    800032e4:	02d53593          	sltiu	a1,a0,45
    800032e8:	14b13823          	sd	a1,336(sp)
    800032ec:	00100193          	li	gp,1
    800032f0:	00b18463          	beq	gp,a1,800032f8 <inst_321>
    800032f4:	d31fc06f          	j	80000024 <rvtest_error>

00000000800032f8 <inst_321>:
    800032f8:	00000513          	li	a0,0
    800032fc:	00053593          	sltiu	a1,a0,0
    80003300:	14b13c23          	sd	a1,344(sp)
    80003304:	00000193          	li	gp,0
    80003308:	00b18463          	beq	gp,a1,80003310 <inst_322>
    8000330c:	d19fc06f          	j	80000024 <rvtest_error>

0000000080003310 <inst_322>:
    80003310:	00000513          	li	a0,0
    80003314:	03f53593          	sltiu	a1,a0,63
    80003318:	16b13023          	sd	a1,352(sp)
    8000331c:	00100193          	li	gp,1
    80003320:	00b18463          	beq	gp,a1,80003328 <inst_323>
    80003324:	d01fc06f          	j	80000024 <rvtest_error>

0000000080003328 <inst_323>:
    80003328:	00000513          	li	a0,0
    8000332c:	55453593          	sltiu	a1,a0,1364
    80003330:	16b13423          	sd	a1,360(sp)
    80003334:	00100193          	li	gp,1
    80003338:	00b18463          	beq	gp,a1,80003340 <inst_324>
    8000333c:	ce9fc06f          	j	80000024 <rvtest_error>

0000000080003340 <inst_324>:
    80003340:	00000513          	li	a0,0
    80003344:	aa953593          	sltiu	a1,a0,-1367
    80003348:	16b13823          	sd	a1,368(sp)
    8000334c:	00100193          	li	gp,1
    80003350:	00b18463          	beq	gp,a1,80003358 <inst_325>
    80003354:	cd1fc06f          	j	80000024 <rvtest_error>

0000000080003358 <inst_325>:
    80003358:	00000513          	li	a0,0
    8000335c:	00453593          	sltiu	a1,a0,4
    80003360:	16b13c23          	sd	a1,376(sp)
    80003364:	00100193          	li	gp,1
    80003368:	00b18463          	beq	gp,a1,80003370 <inst_326>
    8000336c:	cb9fc06f          	j	80000024 <rvtest_error>

0000000080003370 <inst_326>:
    80003370:	00000513          	li	a0,0
    80003374:	33253593          	sltiu	a1,a0,818
    80003378:	18b13023          	sd	a1,384(sp)
    8000337c:	00100193          	li	gp,1
    80003380:	00b18463          	beq	gp,a1,80003388 <inst_327>
    80003384:	ca1fc06f          	j	80000024 <rvtest_error>

0000000080003388 <inst_327>:
    80003388:	00000513          	li	a0,0
    8000338c:	66553593          	sltiu	a1,a0,1637
    80003390:	18b13423          	sd	a1,392(sp)
    80003394:	00100193          	li	gp,1
    80003398:	00b18463          	beq	gp,a1,800033a0 <inst_328>
    8000339c:	c89fc06f          	j	80000024 <rvtest_error>

00000000800033a0 <inst_328>:
    800033a0:	00000513          	li	a0,0
    800033a4:	02c53593          	sltiu	a1,a0,44
    800033a8:	18b13823          	sd	a1,400(sp)
    800033ac:	00100193          	li	gp,1
    800033b0:	00b18463          	beq	gp,a1,800033b8 <inst_329>
    800033b4:	c71fc06f          	j	80000024 <rvtest_error>

00000000800033b8 <inst_329>:
    800033b8:	00000513          	li	a0,0
    800033bc:	03e53593          	sltiu	a1,a0,62
    800033c0:	18b13c23          	sd	a1,408(sp)
    800033c4:	00100193          	li	gp,1
    800033c8:	00b18463          	beq	gp,a1,800033d0 <inst_330>
    800033cc:	c59fc06f          	j	80000024 <rvtest_error>

00000000800033d0 <inst_330>:
    800033d0:	00000513          	li	a0,0
    800033d4:	55653593          	sltiu	a1,a0,1366
    800033d8:	1ab13023          	sd	a1,416(sp)
    800033dc:	00100193          	li	gp,1
    800033e0:	00b18463          	beq	gp,a1,800033e8 <inst_331>
    800033e4:	c41fc06f          	j	80000024 <rvtest_error>

00000000800033e8 <inst_331>:
    800033e8:	00000513          	li	a0,0
    800033ec:	aab53593          	sltiu	a1,a0,-1365
    800033f0:	1ab13423          	sd	a1,424(sp)
    800033f4:	00100193          	li	gp,1
    800033f8:	00b18463          	beq	gp,a1,80003400 <inst_332>
    800033fc:	c29fc06f          	j	80000024 <rvtest_error>

0000000080003400 <inst_332>:
    80003400:	00000513          	li	a0,0
    80003404:	00653593          	sltiu	a1,a0,6
    80003408:	1ab13823          	sd	a1,432(sp)
    8000340c:	00100193          	li	gp,1
    80003410:	00b18463          	beq	gp,a1,80003418 <inst_333>
    80003414:	c11fc06f          	j	80000024 <rvtest_error>

0000000080003418 <inst_333>:
    80003418:	00000513          	li	a0,0
    8000341c:	33453593          	sltiu	a1,a0,820
    80003420:	1ab13c23          	sd	a1,440(sp)
    80003424:	00100193          	li	gp,1
    80003428:	00b18463          	beq	gp,a1,80003430 <inst_334>
    8000342c:	bf9fc06f          	j	80000024 <rvtest_error>

0000000080003430 <inst_334>:
    80003430:	00000513          	li	a0,0
    80003434:	66753593          	sltiu	a1,a0,1639
    80003438:	1cb13023          	sd	a1,448(sp)
    8000343c:	00100193          	li	gp,1
    80003440:	00b18463          	beq	gp,a1,80003448 <inst_335>
    80003444:	be1fc06f          	j	80000024 <rvtest_error>

0000000080003448 <inst_335>:
    80003448:	00000513          	li	a0,0
    8000344c:	02e53593          	sltiu	a1,a0,46
    80003450:	1cb13423          	sd	a1,456(sp)
    80003454:	00100193          	li	gp,1
    80003458:	00b18463          	beq	gp,a1,80003460 <inst_336>
    8000345c:	bc9fc06f          	j	80000024 <rvtest_error>

0000000080003460 <inst_336>:
    80003460:	00000513          	li	a0,0
    80003464:	04053593          	sltiu	a1,a0,64
    80003468:	1cb13823          	sd	a1,464(sp)
    8000346c:	00100193          	li	gp,1
    80003470:	00b18463          	beq	gp,a1,80003478 <inst_337>
    80003474:	bb1fc06f          	j	80000024 <rvtest_error>

0000000080003478 <inst_337>:
    80003478:	00100513          	li	a0,1
    8000347c:	02051513          	slli	a0,a0,0x20
    80003480:	00353593          	sltiu	a1,a0,3
    80003484:	1cb13c23          	sd	a1,472(sp)
    80003488:	00000193          	li	gp,0
    8000348c:	00b18463          	beq	gp,a1,80003494 <inst_338>
    80003490:	b95fc06f          	j	80000024 <rvtest_error>

0000000080003494 <inst_338>:
    80003494:	00100513          	li	a0,1
    80003498:	02051513          	slli	a0,a0,0x20
    8000349c:	55553593          	sltiu	a1,a0,1365
    800034a0:	1eb13023          	sd	a1,480(sp)
    800034a4:	00000193          	li	gp,0
    800034a8:	00b18463          	beq	gp,a1,800034b0 <inst_339>
    800034ac:	b79fc06f          	j	80000024 <rvtest_error>

00000000800034b0 <inst_339>:
    800034b0:	00100513          	li	a0,1
    800034b4:	02051513          	slli	a0,a0,0x20
    800034b8:	aaa53593          	sltiu	a1,a0,-1366
    800034bc:	1eb13423          	sd	a1,488(sp)
    800034c0:	00100193          	li	gp,1
    800034c4:	00b18463          	beq	gp,a1,800034cc <inst_340>
    800034c8:	b5dfc06f          	j	80000024 <rvtest_error>

00000000800034cc <inst_340>:
    800034cc:	00100513          	li	a0,1
    800034d0:	02051513          	slli	a0,a0,0x20
    800034d4:	00553593          	sltiu	a1,a0,5
    800034d8:	1eb13823          	sd	a1,496(sp)
    800034dc:	00000193          	li	gp,0
    800034e0:	00b18463          	beq	gp,a1,800034e8 <inst_341>
    800034e4:	b41fc06f          	j	80000024 <rvtest_error>

00000000800034e8 <inst_341>:
    800034e8:	00100513          	li	a0,1
    800034ec:	02051513          	slli	a0,a0,0x20
    800034f0:	33353593          	sltiu	a1,a0,819
    800034f4:	1eb13c23          	sd	a1,504(sp)
    800034f8:	00000193          	li	gp,0
    800034fc:	00b18463          	beq	gp,a1,80003504 <inst_342>
    80003500:	b25fc06f          	j	80000024 <rvtest_error>

0000000080003504 <inst_342>:
    80003504:	00100513          	li	a0,1
    80003508:	02051513          	slli	a0,a0,0x20
    8000350c:	66653593          	sltiu	a1,a0,1638
    80003510:	20b13023          	sd	a1,512(sp)
    80003514:	00000193          	li	gp,0
    80003518:	00b18463          	beq	gp,a1,80003520 <inst_343>
    8000351c:	b09fc06f          	j	80000024 <rvtest_error>

0000000080003520 <inst_343>:
    80003520:	00100513          	li	a0,1
    80003524:	02051513          	slli	a0,a0,0x20
    80003528:	02d53593          	sltiu	a1,a0,45
    8000352c:	20b13423          	sd	a1,520(sp)
    80003530:	00000193          	li	gp,0
    80003534:	00b18463          	beq	gp,a1,8000353c <inst_344>
    80003538:	aedfc06f          	j	80000024 <rvtest_error>

000000008000353c <inst_344>:
    8000353c:	00100513          	li	a0,1
    80003540:	02051513          	slli	a0,a0,0x20
    80003544:	00053593          	sltiu	a1,a0,0
    80003548:	20b13823          	sd	a1,528(sp)
    8000354c:	00000193          	li	gp,0
    80003550:	00b18463          	beq	gp,a1,80003558 <inst_345>
    80003554:	ad1fc06f          	j	80000024 <rvtest_error>

0000000080003558 <inst_345>:
    80003558:	00100513          	li	a0,1
    8000355c:	02051513          	slli	a0,a0,0x20
    80003560:	03f53593          	sltiu	a1,a0,63
    80003564:	20b13c23          	sd	a1,536(sp)
    80003568:	00000193          	li	gp,0
    8000356c:	00b18463          	beq	gp,a1,80003574 <inst_346>
    80003570:	ab5fc06f          	j	80000024 <rvtest_error>

0000000080003574 <inst_346>:
    80003574:	00100513          	li	a0,1
    80003578:	02051513          	slli	a0,a0,0x20
    8000357c:	00253593          	sltiu	a1,a0,2
    80003580:	22b13023          	sd	a1,544(sp)
    80003584:	00000193          	li	gp,0
    80003588:	00b18463          	beq	gp,a1,80003590 <inst_347>
    8000358c:	a99fc06f          	j	80000024 <rvtest_error>

0000000080003590 <inst_347>:
    80003590:	00100513          	li	a0,1
    80003594:	02051513          	slli	a0,a0,0x20
    80003598:	55453593          	sltiu	a1,a0,1364
    8000359c:	22b13423          	sd	a1,552(sp)
    800035a0:	00000193          	li	gp,0
    800035a4:	00b18463          	beq	gp,a1,800035ac <inst_348>
    800035a8:	a7dfc06f          	j	80000024 <rvtest_error>

00000000800035ac <inst_348>:
    800035ac:	00100513          	li	a0,1
    800035b0:	02051513          	slli	a0,a0,0x20
    800035b4:	aa953593          	sltiu	a1,a0,-1367
    800035b8:	22b13823          	sd	a1,560(sp)
    800035bc:	00100193          	li	gp,1
    800035c0:	00b18463          	beq	gp,a1,800035c8 <inst_349>
    800035c4:	a61fc06f          	j	80000024 <rvtest_error>

00000000800035c8 <inst_349>:
    800035c8:	00100513          	li	a0,1
    800035cc:	02051513          	slli	a0,a0,0x20
    800035d0:	00453593          	sltiu	a1,a0,4
    800035d4:	22b13c23          	sd	a1,568(sp)
    800035d8:	00000193          	li	gp,0
    800035dc:	00b18463          	beq	gp,a1,800035e4 <inst_350>
    800035e0:	a45fc06f          	j	80000024 <rvtest_error>

00000000800035e4 <inst_350>:
    800035e4:	00100513          	li	a0,1
    800035e8:	02051513          	slli	a0,a0,0x20
    800035ec:	33253593          	sltiu	a1,a0,818
    800035f0:	24b13023          	sd	a1,576(sp)
    800035f4:	00000193          	li	gp,0
    800035f8:	00b18463          	beq	gp,a1,80003600 <inst_351>
    800035fc:	a29fc06f          	j	80000024 <rvtest_error>

0000000080003600 <inst_351>:
    80003600:	00100513          	li	a0,1
    80003604:	02051513          	slli	a0,a0,0x20
    80003608:	66553593          	sltiu	a1,a0,1637
    8000360c:	24b13423          	sd	a1,584(sp)
    80003610:	00000193          	li	gp,0
    80003614:	00b18463          	beq	gp,a1,8000361c <inst_352>
    80003618:	a0dfc06f          	j	80000024 <rvtest_error>

000000008000361c <inst_352>:
    8000361c:	00100513          	li	a0,1
    80003620:	02051513          	slli	a0,a0,0x20
    80003624:	02c53593          	sltiu	a1,a0,44
    80003628:	24b13823          	sd	a1,592(sp)
    8000362c:	00000193          	li	gp,0
    80003630:	00b18463          	beq	gp,a1,80003638 <inst_353>
    80003634:	9f1fc06f          	j	80000024 <rvtest_error>

0000000080003638 <inst_353>:
    80003638:	00100513          	li	a0,1
    8000363c:	02051513          	slli	a0,a0,0x20
    80003640:	03e53593          	sltiu	a1,a0,62
    80003644:	24b13c23          	sd	a1,600(sp)
    80003648:	00000193          	li	gp,0
    8000364c:	00b18463          	beq	gp,a1,80003654 <inst_354>
    80003650:	9d5fc06f          	j	80000024 <rvtest_error>

0000000080003654 <inst_354>:
    80003654:	00100513          	li	a0,1
    80003658:	02051513          	slli	a0,a0,0x20
    8000365c:	55653593          	sltiu	a1,a0,1366
    80003660:	26b13023          	sd	a1,608(sp)
    80003664:	00000193          	li	gp,0
    80003668:	00b18463          	beq	gp,a1,80003670 <inst_355>
    8000366c:	9b9fc06f          	j	80000024 <rvtest_error>

0000000080003670 <inst_355>:
    80003670:	00100513          	li	a0,1
    80003674:	02051513          	slli	a0,a0,0x20
    80003678:	aab53593          	sltiu	a1,a0,-1365
    8000367c:	26b13423          	sd	a1,616(sp)
    80003680:	00100193          	li	gp,1
    80003684:	00b18463          	beq	gp,a1,8000368c <inst_356>
    80003688:	99dfc06f          	j	80000024 <rvtest_error>

000000008000368c <inst_356>:
    8000368c:	00100513          	li	a0,1
    80003690:	02051513          	slli	a0,a0,0x20
    80003694:	00653593          	sltiu	a1,a0,6
    80003698:	26b13823          	sd	a1,624(sp)
    8000369c:	00000193          	li	gp,0
    800036a0:	00b18463          	beq	gp,a1,800036a8 <inst_357>
    800036a4:	981fc06f          	j	80000024 <rvtest_error>

00000000800036a8 <inst_357>:
    800036a8:	00100513          	li	a0,1
    800036ac:	02051513          	slli	a0,a0,0x20
    800036b0:	33453593          	sltiu	a1,a0,820
    800036b4:	26b13c23          	sd	a1,632(sp)
    800036b8:	00000193          	li	gp,0
    800036bc:	00b18463          	beq	gp,a1,800036c4 <inst_358>
    800036c0:	965fc06f          	j	80000024 <rvtest_error>

00000000800036c4 <inst_358>:
    800036c4:	00100513          	li	a0,1
    800036c8:	02051513          	slli	a0,a0,0x20
    800036cc:	66753593          	sltiu	a1,a0,1639
    800036d0:	28b13023          	sd	a1,640(sp)
    800036d4:	00000193          	li	gp,0
    800036d8:	00b18463          	beq	gp,a1,800036e0 <inst_359>
    800036dc:	949fc06f          	j	80000024 <rvtest_error>

00000000800036e0 <inst_359>:
    800036e0:	00100513          	li	a0,1
    800036e4:	02051513          	slli	a0,a0,0x20
    800036e8:	02e53593          	sltiu	a1,a0,46
    800036ec:	28b13423          	sd	a1,648(sp)
    800036f0:	00000193          	li	gp,0
    800036f4:	00b18463          	beq	gp,a1,800036fc <inst_360>
    800036f8:	92dfc06f          	j	80000024 <rvtest_error>

00000000800036fc <inst_360>:
    800036fc:	00100513          	li	a0,1
    80003700:	02051513          	slli	a0,a0,0x20
    80003704:	00153593          	seqz	a1,a0
    80003708:	28b13823          	sd	a1,656(sp)
    8000370c:	00000193          	li	gp,0
    80003710:	00b18463          	beq	gp,a1,80003718 <inst_361>
    80003714:	911fc06f          	j	80000024 <rvtest_error>

0000000080003718 <inst_361>:
    80003718:	00200513          	li	a0,2
    8000371c:	00353593          	sltiu	a1,a0,3
    80003720:	28b13c23          	sd	a1,664(sp)
    80003724:	00100193          	li	gp,1
    80003728:	00b18463          	beq	gp,a1,80003730 <inst_362>
    8000372c:	8f9fc06f          	j	80000024 <rvtest_error>

0000000080003730 <inst_362>:
    80003730:	00200513          	li	a0,2
    80003734:	55553593          	sltiu	a1,a0,1365
    80003738:	2ab13023          	sd	a1,672(sp)
    8000373c:	00100193          	li	gp,1
    80003740:	00b18463          	beq	gp,a1,80003748 <inst_363>
    80003744:	8e1fc06f          	j	80000024 <rvtest_error>

0000000080003748 <inst_363>:
    80003748:	00200513          	li	a0,2
    8000374c:	aaa53593          	sltiu	a1,a0,-1366
    80003750:	2ab13423          	sd	a1,680(sp)
    80003754:	00100193          	li	gp,1
    80003758:	00b18463          	beq	gp,a1,80003760 <inst_364>
    8000375c:	8c9fc06f          	j	80000024 <rvtest_error>

0000000080003760 <inst_364>:
    80003760:	00200513          	li	a0,2
    80003764:	00553593          	sltiu	a1,a0,5
    80003768:	2ab13823          	sd	a1,688(sp)
    8000376c:	00100193          	li	gp,1
    80003770:	00b18463          	beq	gp,a1,80003778 <inst_365>
    80003774:	8b1fc06f          	j	80000024 <rvtest_error>

0000000080003778 <inst_365>:
    80003778:	00200513          	li	a0,2
    8000377c:	33353593          	sltiu	a1,a0,819
    80003780:	2ab13c23          	sd	a1,696(sp)
    80003784:	00100193          	li	gp,1
    80003788:	00b18463          	beq	gp,a1,80003790 <inst_366>
    8000378c:	899fc06f          	j	80000024 <rvtest_error>

0000000080003790 <inst_366>:
    80003790:	00200513          	li	a0,2
    80003794:	66653593          	sltiu	a1,a0,1638
    80003798:	2cb13023          	sd	a1,704(sp)
    8000379c:	00100193          	li	gp,1
    800037a0:	00b18463          	beq	gp,a1,800037a8 <inst_367>
    800037a4:	881fc06f          	j	80000024 <rvtest_error>

00000000800037a8 <inst_367>:
    800037a8:	00200513          	li	a0,2
    800037ac:	02d53593          	sltiu	a1,a0,45
    800037b0:	2cb13423          	sd	a1,712(sp)
    800037b4:	00100193          	li	gp,1
    800037b8:	00b18463          	beq	gp,a1,800037c0 <inst_368>
    800037bc:	869fc06f          	j	80000024 <rvtest_error>

00000000800037c0 <inst_368>:
    800037c0:	00200513          	li	a0,2
    800037c4:	00053593          	sltiu	a1,a0,0
    800037c8:	2cb13823          	sd	a1,720(sp)
    800037cc:	00000193          	li	gp,0
    800037d0:	00b18463          	beq	gp,a1,800037d8 <inst_369>
    800037d4:	851fc06f          	j	80000024 <rvtest_error>

00000000800037d8 <inst_369>:
    800037d8:	00200513          	li	a0,2
    800037dc:	03f53593          	sltiu	a1,a0,63
    800037e0:	2cb13c23          	sd	a1,728(sp)
    800037e4:	00100193          	li	gp,1
    800037e8:	00b18463          	beq	gp,a1,800037f0 <inst_370>
    800037ec:	839fc06f          	j	80000024 <rvtest_error>

00000000800037f0 <inst_370>:
    800037f0:	00200513          	li	a0,2
    800037f4:	00253593          	sltiu	a1,a0,2
    800037f8:	2eb13023          	sd	a1,736(sp)
    800037fc:	00000193          	li	gp,0
    80003800:	00b18463          	beq	gp,a1,80003808 <inst_371>
    80003804:	821fc06f          	j	80000024 <rvtest_error>

0000000080003808 <inst_371>:
    80003808:	00200513          	li	a0,2
    8000380c:	55453593          	sltiu	a1,a0,1364
    80003810:	2eb13423          	sd	a1,744(sp)
    80003814:	00100193          	li	gp,1
    80003818:	00b18463          	beq	gp,a1,80003820 <inst_372>
    8000381c:	809fc06f          	j	80000024 <rvtest_error>

0000000080003820 <inst_372>:
    80003820:	00200513          	li	a0,2
    80003824:	aa953593          	sltiu	a1,a0,-1367
    80003828:	2eb13823          	sd	a1,752(sp)
    8000382c:	00100193          	li	gp,1
    80003830:	00b18463          	beq	gp,a1,80003838 <inst_373>
    80003834:	ff0fc06f          	j	80000024 <rvtest_error>

0000000080003838 <inst_373>:
    80003838:	00200513          	li	a0,2
    8000383c:	00453593          	sltiu	a1,a0,4
    80003840:	2eb13c23          	sd	a1,760(sp)
    80003844:	00100193          	li	gp,1
    80003848:	00b18463          	beq	gp,a1,80003850 <inst_374>
    8000384c:	fd8fc06f          	j	80000024 <rvtest_error>

0000000080003850 <inst_374>:
    80003850:	00200513          	li	a0,2
    80003854:	33253593          	sltiu	a1,a0,818
    80003858:	30b13023          	sd	a1,768(sp)
    8000385c:	00100193          	li	gp,1
    80003860:	00b18463          	beq	gp,a1,80003868 <inst_375>
    80003864:	fc0fc06f          	j	80000024 <rvtest_error>

0000000080003868 <inst_375>:
    80003868:	00200513          	li	a0,2
    8000386c:	66553593          	sltiu	a1,a0,1637
    80003870:	30b13423          	sd	a1,776(sp)
    80003874:	00100193          	li	gp,1
    80003878:	00b18463          	beq	gp,a1,80003880 <inst_376>
    8000387c:	fa8fc06f          	j	80000024 <rvtest_error>

0000000080003880 <inst_376>:
    80003880:	00200513          	li	a0,2
    80003884:	02c53593          	sltiu	a1,a0,44
    80003888:	30b13823          	sd	a1,784(sp)
    8000388c:	00100193          	li	gp,1
    80003890:	00b18463          	beq	gp,a1,80003898 <inst_377>
    80003894:	f90fc06f          	j	80000024 <rvtest_error>

0000000080003898 <inst_377>:
    80003898:	00200513          	li	a0,2
    8000389c:	55653593          	sltiu	a1,a0,1366
    800038a0:	30b13c23          	sd	a1,792(sp)
    800038a4:	00100193          	li	gp,1
    800038a8:	00b18463          	beq	gp,a1,800038b0 <inst_378>
    800038ac:	f78fc06f          	j	80000024 <rvtest_error>

00000000800038b0 <inst_378>:
    800038b0:	00200513          	li	a0,2
    800038b4:	aab53593          	sltiu	a1,a0,-1365
    800038b8:	32b13023          	sd	a1,800(sp)
    800038bc:	00100193          	li	gp,1
    800038c0:	00b18463          	beq	gp,a1,800038c8 <inst_379>
    800038c4:	f60fc06f          	j	80000024 <rvtest_error>

00000000800038c8 <inst_379>:
    800038c8:	00200513          	li	a0,2
    800038cc:	00653593          	sltiu	a1,a0,6
    800038d0:	32b13423          	sd	a1,808(sp)
    800038d4:	00100193          	li	gp,1
    800038d8:	00b18463          	beq	gp,a1,800038e0 <inst_380>
    800038dc:	f48fc06f          	j	80000024 <rvtest_error>

00000000800038e0 <inst_380>:
    800038e0:	00200513          	li	a0,2
    800038e4:	33453593          	sltiu	a1,a0,820
    800038e8:	32b13823          	sd	a1,816(sp)
    800038ec:	00100193          	li	gp,1
    800038f0:	00b18463          	beq	gp,a1,800038f8 <inst_381>
    800038f4:	f30fc06f          	j	80000024 <rvtest_error>

00000000800038f8 <inst_381>:
    800038f8:	00200513          	li	a0,2
    800038fc:	66753593          	sltiu	a1,a0,1639
    80003900:	32b13c23          	sd	a1,824(sp)
    80003904:	00100193          	li	gp,1
    80003908:	00b18463          	beq	gp,a1,80003910 <inst_382>
    8000390c:	f18fc06f          	j	80000024 <rvtest_error>

0000000080003910 <inst_382>:
    80003910:	00200513          	li	a0,2
    80003914:	02e53593          	sltiu	a1,a0,46
    80003918:	34b13023          	sd	a1,832(sp)
    8000391c:	00100193          	li	gp,1
    80003920:	00b18463          	beq	gp,a1,80003928 <inst_383>
    80003924:	f00fc06f          	j	80000024 <rvtest_error>

0000000080003928 <inst_383>:
    80003928:	00200513          	li	a0,2
    8000392c:	00153593          	seqz	a1,a0
    80003930:	34b13423          	sd	a1,840(sp)
    80003934:	00000193          	li	gp,0
    80003938:	00b18463          	beq	gp,a1,80003940 <inst_384>
    8000393c:	ee8fc06f          	j	80000024 <rvtest_error>

0000000080003940 <inst_384>:
    80003940:	00200513          	li	a0,2
    80003944:	04053593          	sltiu	a1,a0,64
    80003948:	34b13823          	sd	a1,848(sp)
    8000394c:	00100193          	li	gp,1
    80003950:	00b18463          	beq	gp,a1,80003958 <inst_385>
    80003954:	ed0fc06f          	j	80000024 <rvtest_error>

0000000080003958 <inst_385>:
    80003958:	55555537          	lui	a0,0x55555
    8000395c:	55550513          	addi	a0,a0,1365 # 55555555 <absimmsh+0x49a847a8>
    80003960:	00b51513          	slli	a0,a0,0xb
    80003964:	2aa50513          	addi	a0,a0,682
    80003968:	00b51513          	slli	a0,a0,0xb
    8000396c:	55550513          	addi	a0,a0,1365
    80003970:	00a51513          	slli	a0,a0,0xa
    80003974:	15450513          	addi	a0,a0,340
    80003978:	00353593          	sltiu	a1,a0,3
    8000397c:	34b13c23          	sd	a1,856(sp)
    80003980:	00000193          	li	gp,0
    80003984:	00b18463          	beq	gp,a1,8000398c <inst_386>
    80003988:	e9cfc06f          	j	80000024 <rvtest_error>

000000008000398c <inst_386>:
    8000398c:	55555537          	lui	a0,0x55555
    80003990:	55550513          	addi	a0,a0,1365 # 55555555 <absimmsh+0x49a847a8>
    80003994:	00b51513          	slli	a0,a0,0xb
    80003998:	2aa50513          	addi	a0,a0,682
    8000399c:	00b51513          	slli	a0,a0,0xb
    800039a0:	55550513          	addi	a0,a0,1365
    800039a4:	00a51513          	slli	a0,a0,0xa
    800039a8:	15450513          	addi	a0,a0,340
    800039ac:	55553593          	sltiu	a1,a0,1365
    800039b0:	36b13023          	sd	a1,864(sp)
    800039b4:	00000193          	li	gp,0
    800039b8:	00b18463          	beq	gp,a1,800039c0 <inst_387>
    800039bc:	e68fc06f          	j	80000024 <rvtest_error>

00000000800039c0 <inst_387>:
    800039c0:	55555537          	lui	a0,0x55555
    800039c4:	55550513          	addi	a0,a0,1365 # 55555555 <absimmsh+0x49a847a8>
    800039c8:	00b51513          	slli	a0,a0,0xb
    800039cc:	2aa50513          	addi	a0,a0,682
    800039d0:	00b51513          	slli	a0,a0,0xb
    800039d4:	55550513          	addi	a0,a0,1365
    800039d8:	00a51513          	slli	a0,a0,0xa
    800039dc:	15450513          	addi	a0,a0,340
    800039e0:	aaa53593          	sltiu	a1,a0,-1366
    800039e4:	36b13423          	sd	a1,872(sp)
    800039e8:	00100193          	li	gp,1
    800039ec:	00b18463          	beq	gp,a1,800039f4 <inst_388>
    800039f0:	e34fc06f          	j	80000024 <rvtest_error>

00000000800039f4 <inst_388>:
    800039f4:	55555537          	lui	a0,0x55555
    800039f8:	55550513          	addi	a0,a0,1365 # 55555555 <absimmsh+0x49a847a8>
    800039fc:	00b51513          	slli	a0,a0,0xb
    80003a00:	2aa50513          	addi	a0,a0,682
    80003a04:	00b51513          	slli	a0,a0,0xb
    80003a08:	55550513          	addi	a0,a0,1365
    80003a0c:	00a51513          	slli	a0,a0,0xa
    80003a10:	15450513          	addi	a0,a0,340
    80003a14:	00553593          	sltiu	a1,a0,5
    80003a18:	36b13823          	sd	a1,880(sp)
    80003a1c:	00000193          	li	gp,0
    80003a20:	00b18463          	beq	gp,a1,80003a28 <inst_389>
    80003a24:	e00fc06f          	j	80000024 <rvtest_error>

0000000080003a28 <inst_389>:
    80003a28:	55555537          	lui	a0,0x55555
    80003a2c:	55550513          	addi	a0,a0,1365 # 55555555 <absimmsh+0x49a847a8>
    80003a30:	00b51513          	slli	a0,a0,0xb
    80003a34:	2aa50513          	addi	a0,a0,682
    80003a38:	00b51513          	slli	a0,a0,0xb
    80003a3c:	55550513          	addi	a0,a0,1365
    80003a40:	00a51513          	slli	a0,a0,0xa
    80003a44:	15450513          	addi	a0,a0,340
    80003a48:	33353593          	sltiu	a1,a0,819
    80003a4c:	36b13c23          	sd	a1,888(sp)
    80003a50:	00000193          	li	gp,0
    80003a54:	00b18463          	beq	gp,a1,80003a5c <inst_390>
    80003a58:	dccfc06f          	j	80000024 <rvtest_error>

0000000080003a5c <inst_390>:
    80003a5c:	55555537          	lui	a0,0x55555
    80003a60:	55550513          	addi	a0,a0,1365 # 55555555 <absimmsh+0x49a847a8>
    80003a64:	00b51513          	slli	a0,a0,0xb
    80003a68:	2aa50513          	addi	a0,a0,682
    80003a6c:	00b51513          	slli	a0,a0,0xb
    80003a70:	55550513          	addi	a0,a0,1365
    80003a74:	00a51513          	slli	a0,a0,0xa
    80003a78:	15450513          	addi	a0,a0,340
    80003a7c:	66653593          	sltiu	a1,a0,1638
    80003a80:	38b13023          	sd	a1,896(sp)
    80003a84:	00000193          	li	gp,0
    80003a88:	00b18463          	beq	gp,a1,80003a90 <inst_391>
    80003a8c:	d98fc06f          	j	80000024 <rvtest_error>

0000000080003a90 <inst_391>:
    80003a90:	55555537          	lui	a0,0x55555
    80003a94:	55550513          	addi	a0,a0,1365 # 55555555 <absimmsh+0x49a847a8>
    80003a98:	00b51513          	slli	a0,a0,0xb
    80003a9c:	2aa50513          	addi	a0,a0,682
    80003aa0:	00b51513          	slli	a0,a0,0xb
    80003aa4:	55550513          	addi	a0,a0,1365
    80003aa8:	00a51513          	slli	a0,a0,0xa
    80003aac:	15450513          	addi	a0,a0,340
    80003ab0:	02d53593          	sltiu	a1,a0,45
    80003ab4:	38b13423          	sd	a1,904(sp)
    80003ab8:	00000193          	li	gp,0
    80003abc:	00b18463          	beq	gp,a1,80003ac4 <inst_392>
    80003ac0:	d64fc06f          	j	80000024 <rvtest_error>

0000000080003ac4 <inst_392>:
    80003ac4:	55555537          	lui	a0,0x55555
    80003ac8:	55550513          	addi	a0,a0,1365 # 55555555 <absimmsh+0x49a847a8>
    80003acc:	00b51513          	slli	a0,a0,0xb
    80003ad0:	2aa50513          	addi	a0,a0,682
    80003ad4:	00b51513          	slli	a0,a0,0xb
    80003ad8:	55550513          	addi	a0,a0,1365
    80003adc:	00a51513          	slli	a0,a0,0xa
    80003ae0:	15450513          	addi	a0,a0,340
    80003ae4:	00053593          	sltiu	a1,a0,0
    80003ae8:	38b13823          	sd	a1,912(sp)
    80003aec:	00000193          	li	gp,0
    80003af0:	00b18463          	beq	gp,a1,80003af8 <inst_393>
    80003af4:	d30fc06f          	j	80000024 <rvtest_error>

0000000080003af8 <inst_393>:
    80003af8:	55555537          	lui	a0,0x55555
    80003afc:	55550513          	addi	a0,a0,1365 # 55555555 <absimmsh+0x49a847a8>
    80003b00:	00b51513          	slli	a0,a0,0xb
    80003b04:	2aa50513          	addi	a0,a0,682
    80003b08:	00b51513          	slli	a0,a0,0xb
    80003b0c:	55550513          	addi	a0,a0,1365
    80003b10:	00a51513          	slli	a0,a0,0xa
    80003b14:	15450513          	addi	a0,a0,340
    80003b18:	03f53593          	sltiu	a1,a0,63
    80003b1c:	38b13c23          	sd	a1,920(sp)
    80003b20:	00000193          	li	gp,0
    80003b24:	00b18463          	beq	gp,a1,80003b2c <inst_394>
    80003b28:	cfcfc06f          	j	80000024 <rvtest_error>

0000000080003b2c <inst_394>:
    80003b2c:	55555537          	lui	a0,0x55555
    80003b30:	55550513          	addi	a0,a0,1365 # 55555555 <absimmsh+0x49a847a8>
    80003b34:	00b51513          	slli	a0,a0,0xb
    80003b38:	2aa50513          	addi	a0,a0,682
    80003b3c:	00b51513          	slli	a0,a0,0xb
    80003b40:	55550513          	addi	a0,a0,1365
    80003b44:	00a51513          	slli	a0,a0,0xa
    80003b48:	15450513          	addi	a0,a0,340
    80003b4c:	00253593          	sltiu	a1,a0,2
    80003b50:	3ab13023          	sd	a1,928(sp)
    80003b54:	00000193          	li	gp,0
    80003b58:	00b18463          	beq	gp,a1,80003b60 <inst_395>
    80003b5c:	cc8fc06f          	j	80000024 <rvtest_error>

0000000080003b60 <inst_395>:
    80003b60:	55555537          	lui	a0,0x55555
    80003b64:	55550513          	addi	a0,a0,1365 # 55555555 <absimmsh+0x49a847a8>
    80003b68:	00b51513          	slli	a0,a0,0xb
    80003b6c:	2aa50513          	addi	a0,a0,682
    80003b70:	00b51513          	slli	a0,a0,0xb
    80003b74:	55550513          	addi	a0,a0,1365
    80003b78:	00a51513          	slli	a0,a0,0xa
    80003b7c:	15450513          	addi	a0,a0,340
    80003b80:	55453593          	sltiu	a1,a0,1364
    80003b84:	3ab13423          	sd	a1,936(sp)
    80003b88:	00000193          	li	gp,0
    80003b8c:	00b18463          	beq	gp,a1,80003b94 <inst_396>
    80003b90:	c94fc06f          	j	80000024 <rvtest_error>

0000000080003b94 <inst_396>:
    80003b94:	55555537          	lui	a0,0x55555
    80003b98:	55550513          	addi	a0,a0,1365 # 55555555 <absimmsh+0x49a847a8>
    80003b9c:	00b51513          	slli	a0,a0,0xb
    80003ba0:	2aa50513          	addi	a0,a0,682
    80003ba4:	00b51513          	slli	a0,a0,0xb
    80003ba8:	55550513          	addi	a0,a0,1365
    80003bac:	00a51513          	slli	a0,a0,0xa
    80003bb0:	15450513          	addi	a0,a0,340
    80003bb4:	aa953593          	sltiu	a1,a0,-1367
    80003bb8:	3ab13823          	sd	a1,944(sp)
    80003bbc:	00100193          	li	gp,1
    80003bc0:	00b18463          	beq	gp,a1,80003bc8 <inst_397>
    80003bc4:	c60fc06f          	j	80000024 <rvtest_error>

0000000080003bc8 <inst_397>:
    80003bc8:	55555537          	lui	a0,0x55555
    80003bcc:	55550513          	addi	a0,a0,1365 # 55555555 <absimmsh+0x49a847a8>
    80003bd0:	00b51513          	slli	a0,a0,0xb
    80003bd4:	2aa50513          	addi	a0,a0,682
    80003bd8:	00b51513          	slli	a0,a0,0xb
    80003bdc:	55550513          	addi	a0,a0,1365
    80003be0:	00a51513          	slli	a0,a0,0xa
    80003be4:	15450513          	addi	a0,a0,340
    80003be8:	00453593          	sltiu	a1,a0,4
    80003bec:	3ab13c23          	sd	a1,952(sp)
    80003bf0:	00000193          	li	gp,0
    80003bf4:	00b18463          	beq	gp,a1,80003bfc <inst_398>
    80003bf8:	c2cfc06f          	j	80000024 <rvtest_error>

0000000080003bfc <inst_398>:
    80003bfc:	55555537          	lui	a0,0x55555
    80003c00:	55550513          	addi	a0,a0,1365 # 55555555 <absimmsh+0x49a847a8>
    80003c04:	00b51513          	slli	a0,a0,0xb
    80003c08:	2aa50513          	addi	a0,a0,682
    80003c0c:	00b51513          	slli	a0,a0,0xb
    80003c10:	55550513          	addi	a0,a0,1365
    80003c14:	00a51513          	slli	a0,a0,0xa
    80003c18:	15450513          	addi	a0,a0,340
    80003c1c:	33253593          	sltiu	a1,a0,818
    80003c20:	3cb13023          	sd	a1,960(sp)
    80003c24:	00000193          	li	gp,0
    80003c28:	00b18463          	beq	gp,a1,80003c30 <inst_399>
    80003c2c:	bf8fc06f          	j	80000024 <rvtest_error>

0000000080003c30 <inst_399>:
    80003c30:	55555537          	lui	a0,0x55555
    80003c34:	55550513          	addi	a0,a0,1365 # 55555555 <absimmsh+0x49a847a8>
    80003c38:	00b51513          	slli	a0,a0,0xb
    80003c3c:	2aa50513          	addi	a0,a0,682
    80003c40:	00b51513          	slli	a0,a0,0xb
    80003c44:	55550513          	addi	a0,a0,1365
    80003c48:	00a51513          	slli	a0,a0,0xa
    80003c4c:	15450513          	addi	a0,a0,340
    80003c50:	66553593          	sltiu	a1,a0,1637
    80003c54:	3cb13423          	sd	a1,968(sp)
    80003c58:	00000193          	li	gp,0
    80003c5c:	00b18463          	beq	gp,a1,80003c64 <inst_400>
    80003c60:	bc4fc06f          	j	80000024 <rvtest_error>

0000000080003c64 <inst_400>:
    80003c64:	55555537          	lui	a0,0x55555
    80003c68:	55550513          	addi	a0,a0,1365 # 55555555 <absimmsh+0x49a847a8>
    80003c6c:	00b51513          	slli	a0,a0,0xb
    80003c70:	2aa50513          	addi	a0,a0,682
    80003c74:	00b51513          	slli	a0,a0,0xb
    80003c78:	55550513          	addi	a0,a0,1365
    80003c7c:	00a51513          	slli	a0,a0,0xa
    80003c80:	15450513          	addi	a0,a0,340
    80003c84:	02c53593          	sltiu	a1,a0,44
    80003c88:	3cb13823          	sd	a1,976(sp)
    80003c8c:	00000193          	li	gp,0
    80003c90:	00b18463          	beq	gp,a1,80003c98 <inst_401>
    80003c94:	b90fc06f          	j	80000024 <rvtest_error>

0000000080003c98 <inst_401>:
    80003c98:	55555537          	lui	a0,0x55555
    80003c9c:	55550513          	addi	a0,a0,1365 # 55555555 <absimmsh+0x49a847a8>
    80003ca0:	00b51513          	slli	a0,a0,0xb
    80003ca4:	2aa50513          	addi	a0,a0,682
    80003ca8:	00b51513          	slli	a0,a0,0xb
    80003cac:	55550513          	addi	a0,a0,1365
    80003cb0:	00a51513          	slli	a0,a0,0xa
    80003cb4:	15450513          	addi	a0,a0,340
    80003cb8:	03e53593          	sltiu	a1,a0,62
    80003cbc:	3cb13c23          	sd	a1,984(sp)
    80003cc0:	00000193          	li	gp,0
    80003cc4:	00b18463          	beq	gp,a1,80003ccc <inst_402>
    80003cc8:	b5cfc06f          	j	80000024 <rvtest_error>

0000000080003ccc <inst_402>:
    80003ccc:	55555537          	lui	a0,0x55555
    80003cd0:	55550513          	addi	a0,a0,1365 # 55555555 <absimmsh+0x49a847a8>
    80003cd4:	00b51513          	slli	a0,a0,0xb
    80003cd8:	2aa50513          	addi	a0,a0,682
    80003cdc:	00b51513          	slli	a0,a0,0xb
    80003ce0:	55550513          	addi	a0,a0,1365
    80003ce4:	00a51513          	slli	a0,a0,0xa
    80003ce8:	15450513          	addi	a0,a0,340
    80003cec:	55653593          	sltiu	a1,a0,1366
    80003cf0:	3eb13023          	sd	a1,992(sp)
    80003cf4:	00000193          	li	gp,0
    80003cf8:	00b18463          	beq	gp,a1,80003d00 <inst_403>
    80003cfc:	b28fc06f          	j	80000024 <rvtest_error>

0000000080003d00 <inst_403>:
    80003d00:	55555537          	lui	a0,0x55555
    80003d04:	55550513          	addi	a0,a0,1365 # 55555555 <absimmsh+0x49a847a8>
    80003d08:	00b51513          	slli	a0,a0,0xb
    80003d0c:	2aa50513          	addi	a0,a0,682
    80003d10:	00b51513          	slli	a0,a0,0xb
    80003d14:	55550513          	addi	a0,a0,1365
    80003d18:	00a51513          	slli	a0,a0,0xa
    80003d1c:	15450513          	addi	a0,a0,340
    80003d20:	aab53593          	sltiu	a1,a0,-1365
    80003d24:	3eb13423          	sd	a1,1000(sp)
    80003d28:	00100193          	li	gp,1
    80003d2c:	00b18463          	beq	gp,a1,80003d34 <inst_404>
    80003d30:	af4fc06f          	j	80000024 <rvtest_error>

0000000080003d34 <inst_404>:
    80003d34:	55555537          	lui	a0,0x55555
    80003d38:	55550513          	addi	a0,a0,1365 # 55555555 <absimmsh+0x49a847a8>
    80003d3c:	00b51513          	slli	a0,a0,0xb
    80003d40:	2aa50513          	addi	a0,a0,682
    80003d44:	00b51513          	slli	a0,a0,0xb
    80003d48:	55550513          	addi	a0,a0,1365
    80003d4c:	00a51513          	slli	a0,a0,0xa
    80003d50:	15450513          	addi	a0,a0,340
    80003d54:	00653593          	sltiu	a1,a0,6
    80003d58:	3eb13823          	sd	a1,1008(sp)
    80003d5c:	00000193          	li	gp,0
    80003d60:	00b18463          	beq	gp,a1,80003d68 <inst_405>
    80003d64:	ac0fc06f          	j	80000024 <rvtest_error>

0000000080003d68 <inst_405>:
    80003d68:	55555537          	lui	a0,0x55555
    80003d6c:	55550513          	addi	a0,a0,1365 # 55555555 <absimmsh+0x49a847a8>
    80003d70:	00b51513          	slli	a0,a0,0xb
    80003d74:	2aa50513          	addi	a0,a0,682
    80003d78:	00b51513          	slli	a0,a0,0xb
    80003d7c:	55550513          	addi	a0,a0,1365
    80003d80:	00a51513          	slli	a0,a0,0xa
    80003d84:	15450513          	addi	a0,a0,340
    80003d88:	33453593          	sltiu	a1,a0,820
    80003d8c:	3eb13c23          	sd	a1,1016(sp)
    80003d90:	00000193          	li	gp,0
    80003d94:	00b18463          	beq	gp,a1,80003d9c <inst_406>
    80003d98:	a8cfc06f          	j	80000024 <rvtest_error>

0000000080003d9c <inst_406>:
    80003d9c:	55555537          	lui	a0,0x55555
    80003da0:	55550513          	addi	a0,a0,1365 # 55555555 <absimmsh+0x49a847a8>
    80003da4:	00b51513          	slli	a0,a0,0xb
    80003da8:	2aa50513          	addi	a0,a0,682
    80003dac:	00b51513          	slli	a0,a0,0xb
    80003db0:	55550513          	addi	a0,a0,1365
    80003db4:	00a51513          	slli	a0,a0,0xa
    80003db8:	15450513          	addi	a0,a0,340
    80003dbc:	66753593          	sltiu	a1,a0,1639
    80003dc0:	40b13023          	sd	a1,1024(sp)
    80003dc4:	00000193          	li	gp,0
    80003dc8:	00b18463          	beq	gp,a1,80003dd0 <inst_407>
    80003dcc:	a58fc06f          	j	80000024 <rvtest_error>

0000000080003dd0 <inst_407>:
    80003dd0:	55555537          	lui	a0,0x55555
    80003dd4:	55550513          	addi	a0,a0,1365 # 55555555 <absimmsh+0x49a847a8>
    80003dd8:	00b51513          	slli	a0,a0,0xb
    80003ddc:	2aa50513          	addi	a0,a0,682
    80003de0:	00b51513          	slli	a0,a0,0xb
    80003de4:	55550513          	addi	a0,a0,1365
    80003de8:	00a51513          	slli	a0,a0,0xa
    80003dec:	15450513          	addi	a0,a0,340
    80003df0:	02e53593          	sltiu	a1,a0,46
    80003df4:	40b13423          	sd	a1,1032(sp)
    80003df8:	00000193          	li	gp,0
    80003dfc:	00b18463          	beq	gp,a1,80003e04 <inst_408>
    80003e00:	a24fc06f          	j	80000024 <rvtest_error>

0000000080003e04 <inst_408>:
    80003e04:	55555537          	lui	a0,0x55555
    80003e08:	55550513          	addi	a0,a0,1365 # 55555555 <absimmsh+0x49a847a8>
    80003e0c:	00b51513          	slli	a0,a0,0xb
    80003e10:	2aa50513          	addi	a0,a0,682
    80003e14:	00b51513          	slli	a0,a0,0xb
    80003e18:	55550513          	addi	a0,a0,1365
    80003e1c:	00a51513          	slli	a0,a0,0xa
    80003e20:	15450513          	addi	a0,a0,340
    80003e24:	00153593          	seqz	a1,a0
    80003e28:	40b13823          	sd	a1,1040(sp)
    80003e2c:	00000193          	li	gp,0
    80003e30:	00b18463          	beq	gp,a1,80003e38 <inst_409>
    80003e34:	9f0fc06f          	j	80000024 <rvtest_error>

0000000080003e38 <inst_409>:
    80003e38:	55555537          	lui	a0,0x55555
    80003e3c:	55550513          	addi	a0,a0,1365 # 55555555 <absimmsh+0x49a847a8>
    80003e40:	00b51513          	slli	a0,a0,0xb
    80003e44:	2aa50513          	addi	a0,a0,682
    80003e48:	00b51513          	slli	a0,a0,0xb
    80003e4c:	55550513          	addi	a0,a0,1365
    80003e50:	00a51513          	slli	a0,a0,0xa
    80003e54:	15450513          	addi	a0,a0,340
    80003e58:	04053593          	sltiu	a1,a0,64
    80003e5c:	40b13c23          	sd	a1,1048(sp)
    80003e60:	00000193          	li	gp,0
    80003e64:	00b18463          	beq	gp,a1,80003e6c <inst_410>
    80003e68:	9bcfc06f          	j	80000024 <rvtest_error>

0000000080003e6c <inst_410>:
    80003e6c:	aaaab537          	lui	a0,0xaaaab
    80003e70:	aaa50513          	addi	a0,a0,-1366 # ffffffffaaaaaaaa <absimm+0xfffffffeefd9cfda>
    80003e74:	00b51513          	slli	a0,a0,0xb
    80003e78:	55550513          	addi	a0,a0,1365
    80003e7c:	00b51513          	slli	a0,a0,0xb
    80003e80:	2aa50513          	addi	a0,a0,682
    80003e84:	00a51513          	slli	a0,a0,0xa
    80003e88:	2a950513          	addi	a0,a0,681
    80003e8c:	00353593          	sltiu	a1,a0,3
    80003e90:	42b13023          	sd	a1,1056(sp)
    80003e94:	00000193          	li	gp,0
    80003e98:	00b18463          	beq	gp,a1,80003ea0 <inst_411>
    80003e9c:	988fc06f          	j	80000024 <rvtest_error>

0000000080003ea0 <inst_411>:
    80003ea0:	aaaab537          	lui	a0,0xaaaab
    80003ea4:	aaa50513          	addi	a0,a0,-1366 # ffffffffaaaaaaaa <absimm+0xfffffffeefd9cfda>
    80003ea8:	00b51513          	slli	a0,a0,0xb
    80003eac:	55550513          	addi	a0,a0,1365
    80003eb0:	00b51513          	slli	a0,a0,0xb
    80003eb4:	2aa50513          	addi	a0,a0,682
    80003eb8:	00a51513          	slli	a0,a0,0xa
    80003ebc:	2a950513          	addi	a0,a0,681
    80003ec0:	55553593          	sltiu	a1,a0,1365
    80003ec4:	42b13423          	sd	a1,1064(sp)
    80003ec8:	00000193          	li	gp,0
    80003ecc:	00b18463          	beq	gp,a1,80003ed4 <inst_412>
    80003ed0:	954fc06f          	j	80000024 <rvtest_error>

0000000080003ed4 <inst_412>:
    80003ed4:	aaaab537          	lui	a0,0xaaaab
    80003ed8:	aaa50513          	addi	a0,a0,-1366 # ffffffffaaaaaaaa <absimm+0xfffffffeefd9cfda>
    80003edc:	00b51513          	slli	a0,a0,0xb
    80003ee0:	55550513          	addi	a0,a0,1365
    80003ee4:	00b51513          	slli	a0,a0,0xb
    80003ee8:	2aa50513          	addi	a0,a0,682
    80003eec:	00a51513          	slli	a0,a0,0xa
    80003ef0:	2a950513          	addi	a0,a0,681
    80003ef4:	aaa53593          	sltiu	a1,a0,-1366
    80003ef8:	42b13823          	sd	a1,1072(sp)
    80003efc:	00100193          	li	gp,1
    80003f00:	00b18463          	beq	gp,a1,80003f08 <inst_413>
    80003f04:	920fc06f          	j	80000024 <rvtest_error>

0000000080003f08 <inst_413>:
    80003f08:	aaaab537          	lui	a0,0xaaaab
    80003f0c:	aaa50513          	addi	a0,a0,-1366 # ffffffffaaaaaaaa <absimm+0xfffffffeefd9cfda>
    80003f10:	00b51513          	slli	a0,a0,0xb
    80003f14:	55550513          	addi	a0,a0,1365
    80003f18:	00b51513          	slli	a0,a0,0xb
    80003f1c:	2aa50513          	addi	a0,a0,682
    80003f20:	00a51513          	slli	a0,a0,0xa
    80003f24:	2a950513          	addi	a0,a0,681
    80003f28:	00553593          	sltiu	a1,a0,5
    80003f2c:	42b13c23          	sd	a1,1080(sp)
    80003f30:	00000193          	li	gp,0
    80003f34:	00b18463          	beq	gp,a1,80003f3c <inst_414>
    80003f38:	8ecfc06f          	j	80000024 <rvtest_error>

0000000080003f3c <inst_414>:
    80003f3c:	aaaab537          	lui	a0,0xaaaab
    80003f40:	aaa50513          	addi	a0,a0,-1366 # ffffffffaaaaaaaa <absimm+0xfffffffeefd9cfda>
    80003f44:	00b51513          	slli	a0,a0,0xb
    80003f48:	55550513          	addi	a0,a0,1365
    80003f4c:	00b51513          	slli	a0,a0,0xb
    80003f50:	2aa50513          	addi	a0,a0,682
    80003f54:	00a51513          	slli	a0,a0,0xa
    80003f58:	2a950513          	addi	a0,a0,681
    80003f5c:	33353593          	sltiu	a1,a0,819
    80003f60:	44b13023          	sd	a1,1088(sp)
    80003f64:	00000193          	li	gp,0
    80003f68:	00b18463          	beq	gp,a1,80003f70 <inst_415>
    80003f6c:	8b8fc06f          	j	80000024 <rvtest_error>

0000000080003f70 <inst_415>:
    80003f70:	aaaab537          	lui	a0,0xaaaab
    80003f74:	aaa50513          	addi	a0,a0,-1366 # ffffffffaaaaaaaa <absimm+0xfffffffeefd9cfda>
    80003f78:	00b51513          	slli	a0,a0,0xb
    80003f7c:	55550513          	addi	a0,a0,1365
    80003f80:	00b51513          	slli	a0,a0,0xb
    80003f84:	2aa50513          	addi	a0,a0,682
    80003f88:	00a51513          	slli	a0,a0,0xa
    80003f8c:	2a950513          	addi	a0,a0,681
    80003f90:	66653593          	sltiu	a1,a0,1638
    80003f94:	44b13423          	sd	a1,1096(sp)
    80003f98:	00000193          	li	gp,0
    80003f9c:	00b18463          	beq	gp,a1,80003fa4 <inst_416>
    80003fa0:	884fc06f          	j	80000024 <rvtest_error>

0000000080003fa4 <inst_416>:
    80003fa4:	aaaab537          	lui	a0,0xaaaab
    80003fa8:	aaa50513          	addi	a0,a0,-1366 # ffffffffaaaaaaaa <absimm+0xfffffffeefd9cfda>
    80003fac:	00b51513          	slli	a0,a0,0xb
    80003fb0:	55550513          	addi	a0,a0,1365
    80003fb4:	00b51513          	slli	a0,a0,0xb
    80003fb8:	2aa50513          	addi	a0,a0,682
    80003fbc:	00a51513          	slli	a0,a0,0xa
    80003fc0:	2a950513          	addi	a0,a0,681
    80003fc4:	02d53593          	sltiu	a1,a0,45
    80003fc8:	44b13823          	sd	a1,1104(sp)
    80003fcc:	00000193          	li	gp,0
    80003fd0:	00b18463          	beq	gp,a1,80003fd8 <inst_417>
    80003fd4:	850fc06f          	j	80000024 <rvtest_error>

0000000080003fd8 <inst_417>:
    80003fd8:	aaaab537          	lui	a0,0xaaaab
    80003fdc:	aaa50513          	addi	a0,a0,-1366 # ffffffffaaaaaaaa <absimm+0xfffffffeefd9cfda>
    80003fe0:	00b51513          	slli	a0,a0,0xb
    80003fe4:	55550513          	addi	a0,a0,1365
    80003fe8:	00b51513          	slli	a0,a0,0xb
    80003fec:	2aa50513          	addi	a0,a0,682
    80003ff0:	00a51513          	slli	a0,a0,0xa
    80003ff4:	2a950513          	addi	a0,a0,681
    80003ff8:	00053593          	sltiu	a1,a0,0
    80003ffc:	44b13c23          	sd	a1,1112(sp)
    80004000:	00000193          	li	gp,0
    80004004:	00b18463          	beq	gp,a1,8000400c <inst_418>
    80004008:	81cfc06f          	j	80000024 <rvtest_error>

000000008000400c <inst_418>:
    8000400c:	aaaab537          	lui	a0,0xaaaab
    80004010:	aaa50513          	addi	a0,a0,-1366 # ffffffffaaaaaaaa <absimm+0xfffffffeefd9cfda>
    80004014:	00b51513          	slli	a0,a0,0xb
    80004018:	55550513          	addi	a0,a0,1365
    8000401c:	00b51513          	slli	a0,a0,0xb
    80004020:	2aa50513          	addi	a0,a0,682
    80004024:	00a51513          	slli	a0,a0,0xa
    80004028:	2a950513          	addi	a0,a0,681
    8000402c:	03f53593          	sltiu	a1,a0,63
    80004030:	46b13023          	sd	a1,1120(sp)
    80004034:	00000193          	li	gp,0
    80004038:	00b18463          	beq	gp,a1,80004040 <inst_419>
    8000403c:	fe9fb06f          	j	80000024 <rvtest_error>

0000000080004040 <inst_419>:
    80004040:	aaaab537          	lui	a0,0xaaaab
    80004044:	aaa50513          	addi	a0,a0,-1366 # ffffffffaaaaaaaa <absimm+0xfffffffeefd9cfda>
    80004048:	00b51513          	slli	a0,a0,0xb
    8000404c:	55550513          	addi	a0,a0,1365
    80004050:	00b51513          	slli	a0,a0,0xb
    80004054:	2aa50513          	addi	a0,a0,682
    80004058:	00a51513          	slli	a0,a0,0xa
    8000405c:	2a950513          	addi	a0,a0,681
    80004060:	00253593          	sltiu	a1,a0,2
    80004064:	46b13423          	sd	a1,1128(sp)
    80004068:	00000193          	li	gp,0
    8000406c:	00b18463          	beq	gp,a1,80004074 <inst_420>
    80004070:	fb5fb06f          	j	80000024 <rvtest_error>

0000000080004074 <inst_420>:
    80004074:	aaaab537          	lui	a0,0xaaaab
    80004078:	aaa50513          	addi	a0,a0,-1366 # ffffffffaaaaaaaa <absimm+0xfffffffeefd9cfda>
    8000407c:	00b51513          	slli	a0,a0,0xb
    80004080:	55550513          	addi	a0,a0,1365
    80004084:	00b51513          	slli	a0,a0,0xb
    80004088:	2aa50513          	addi	a0,a0,682
    8000408c:	00a51513          	slli	a0,a0,0xa
    80004090:	2a950513          	addi	a0,a0,681
    80004094:	55453593          	sltiu	a1,a0,1364
    80004098:	46b13823          	sd	a1,1136(sp)
    8000409c:	00000193          	li	gp,0
    800040a0:	00b18463          	beq	gp,a1,800040a8 <inst_421>
    800040a4:	f81fb06f          	j	80000024 <rvtest_error>

00000000800040a8 <inst_421>:
    800040a8:	aaaab537          	lui	a0,0xaaaab
    800040ac:	aaa50513          	addi	a0,a0,-1366 # ffffffffaaaaaaaa <absimm+0xfffffffeefd9cfda>
    800040b0:	00b51513          	slli	a0,a0,0xb
    800040b4:	55550513          	addi	a0,a0,1365
    800040b8:	00b51513          	slli	a0,a0,0xb
    800040bc:	2aa50513          	addi	a0,a0,682
    800040c0:	00a51513          	slli	a0,a0,0xa
    800040c4:	2a950513          	addi	a0,a0,681
    800040c8:	aa953593          	sltiu	a1,a0,-1367
    800040cc:	46b13c23          	sd	a1,1144(sp)
    800040d0:	00100193          	li	gp,1
    800040d4:	00b18463          	beq	gp,a1,800040dc <inst_422>
    800040d8:	f4dfb06f          	j	80000024 <rvtest_error>

00000000800040dc <inst_422>:
    800040dc:	aaaab537          	lui	a0,0xaaaab
    800040e0:	aaa50513          	addi	a0,a0,-1366 # ffffffffaaaaaaaa <absimm+0xfffffffeefd9cfda>
    800040e4:	00b51513          	slli	a0,a0,0xb
    800040e8:	55550513          	addi	a0,a0,1365
    800040ec:	00b51513          	slli	a0,a0,0xb
    800040f0:	2aa50513          	addi	a0,a0,682
    800040f4:	00a51513          	slli	a0,a0,0xa
    800040f8:	2a950513          	addi	a0,a0,681
    800040fc:	00453593          	sltiu	a1,a0,4
    80004100:	48b13023          	sd	a1,1152(sp)
    80004104:	00000193          	li	gp,0
    80004108:	00b18463          	beq	gp,a1,80004110 <inst_423>
    8000410c:	f19fb06f          	j	80000024 <rvtest_error>

0000000080004110 <inst_423>:
    80004110:	aaaab537          	lui	a0,0xaaaab
    80004114:	aaa50513          	addi	a0,a0,-1366 # ffffffffaaaaaaaa <absimm+0xfffffffeefd9cfda>
    80004118:	00b51513          	slli	a0,a0,0xb
    8000411c:	55550513          	addi	a0,a0,1365
    80004120:	00b51513          	slli	a0,a0,0xb
    80004124:	2aa50513          	addi	a0,a0,682
    80004128:	00a51513          	slli	a0,a0,0xa
    8000412c:	2a950513          	addi	a0,a0,681
    80004130:	33253593          	sltiu	a1,a0,818
    80004134:	48b13423          	sd	a1,1160(sp)
    80004138:	00000193          	li	gp,0
    8000413c:	00b18463          	beq	gp,a1,80004144 <inst_424>
    80004140:	ee5fb06f          	j	80000024 <rvtest_error>

0000000080004144 <inst_424>:
    80004144:	aaaab537          	lui	a0,0xaaaab
    80004148:	aaa50513          	addi	a0,a0,-1366 # ffffffffaaaaaaaa <absimm+0xfffffffeefd9cfda>
    8000414c:	00b51513          	slli	a0,a0,0xb
    80004150:	55550513          	addi	a0,a0,1365
    80004154:	00b51513          	slli	a0,a0,0xb
    80004158:	2aa50513          	addi	a0,a0,682
    8000415c:	00a51513          	slli	a0,a0,0xa
    80004160:	2a950513          	addi	a0,a0,681
    80004164:	66553593          	sltiu	a1,a0,1637
    80004168:	48b13823          	sd	a1,1168(sp)
    8000416c:	00000193          	li	gp,0
    80004170:	00b18463          	beq	gp,a1,80004178 <inst_425>
    80004174:	eb1fb06f          	j	80000024 <rvtest_error>

0000000080004178 <inst_425>:
    80004178:	aaaab537          	lui	a0,0xaaaab
    8000417c:	aaa50513          	addi	a0,a0,-1366 # ffffffffaaaaaaaa <absimm+0xfffffffeefd9cfda>
    80004180:	00b51513          	slli	a0,a0,0xb
    80004184:	55550513          	addi	a0,a0,1365
    80004188:	00b51513          	slli	a0,a0,0xb
    8000418c:	2aa50513          	addi	a0,a0,682
    80004190:	00a51513          	slli	a0,a0,0xa
    80004194:	2a950513          	addi	a0,a0,681
    80004198:	02c53593          	sltiu	a1,a0,44
    8000419c:	48b13c23          	sd	a1,1176(sp)
    800041a0:	00000193          	li	gp,0
    800041a4:	00b18463          	beq	gp,a1,800041ac <inst_426>
    800041a8:	e7dfb06f          	j	80000024 <rvtest_error>

00000000800041ac <inst_426>:
    800041ac:	aaaab537          	lui	a0,0xaaaab
    800041b0:	aaa50513          	addi	a0,a0,-1366 # ffffffffaaaaaaaa <absimm+0xfffffffeefd9cfda>
    800041b4:	00b51513          	slli	a0,a0,0xb
    800041b8:	55550513          	addi	a0,a0,1365
    800041bc:	00b51513          	slli	a0,a0,0xb
    800041c0:	2aa50513          	addi	a0,a0,682
    800041c4:	00a51513          	slli	a0,a0,0xa
    800041c8:	2a950513          	addi	a0,a0,681
    800041cc:	03e53593          	sltiu	a1,a0,62
    800041d0:	4ab13023          	sd	a1,1184(sp)
    800041d4:	00000193          	li	gp,0
    800041d8:	00b18463          	beq	gp,a1,800041e0 <inst_427>
    800041dc:	e49fb06f          	j	80000024 <rvtest_error>

00000000800041e0 <inst_427>:
    800041e0:	aaaab537          	lui	a0,0xaaaab
    800041e4:	aaa50513          	addi	a0,a0,-1366 # ffffffffaaaaaaaa <absimm+0xfffffffeefd9cfda>
    800041e8:	00b51513          	slli	a0,a0,0xb
    800041ec:	55550513          	addi	a0,a0,1365
    800041f0:	00b51513          	slli	a0,a0,0xb
    800041f4:	2aa50513          	addi	a0,a0,682
    800041f8:	00a51513          	slli	a0,a0,0xa
    800041fc:	2a950513          	addi	a0,a0,681
    80004200:	55653593          	sltiu	a1,a0,1366
    80004204:	4ab13423          	sd	a1,1192(sp)
    80004208:	00000193          	li	gp,0
    8000420c:	00b18463          	beq	gp,a1,80004214 <inst_428>
    80004210:	e15fb06f          	j	80000024 <rvtest_error>

0000000080004214 <inst_428>:
    80004214:	aaaab537          	lui	a0,0xaaaab
    80004218:	aaa50513          	addi	a0,a0,-1366 # ffffffffaaaaaaaa <absimm+0xfffffffeefd9cfda>
    8000421c:	00b51513          	slli	a0,a0,0xb
    80004220:	55550513          	addi	a0,a0,1365
    80004224:	00b51513          	slli	a0,a0,0xb
    80004228:	2aa50513          	addi	a0,a0,682
    8000422c:	00a51513          	slli	a0,a0,0xa
    80004230:	2a950513          	addi	a0,a0,681
    80004234:	aab53593          	sltiu	a1,a0,-1365
    80004238:	4ab13823          	sd	a1,1200(sp)
    8000423c:	00100193          	li	gp,1
    80004240:	00b18463          	beq	gp,a1,80004248 <inst_429>
    80004244:	de1fb06f          	j	80000024 <rvtest_error>

0000000080004248 <inst_429>:
    80004248:	aaaab537          	lui	a0,0xaaaab
    8000424c:	aaa50513          	addi	a0,a0,-1366 # ffffffffaaaaaaaa <absimm+0xfffffffeefd9cfda>
    80004250:	00b51513          	slli	a0,a0,0xb
    80004254:	55550513          	addi	a0,a0,1365
    80004258:	00b51513          	slli	a0,a0,0xb
    8000425c:	2aa50513          	addi	a0,a0,682
    80004260:	00a51513          	slli	a0,a0,0xa
    80004264:	2a950513          	addi	a0,a0,681
    80004268:	00653593          	sltiu	a1,a0,6
    8000426c:	4ab13c23          	sd	a1,1208(sp)
    80004270:	00000193          	li	gp,0
    80004274:	00b18463          	beq	gp,a1,8000427c <inst_430>
    80004278:	dadfb06f          	j	80000024 <rvtest_error>

000000008000427c <inst_430>:
    8000427c:	aaaab537          	lui	a0,0xaaaab
    80004280:	aaa50513          	addi	a0,a0,-1366 # ffffffffaaaaaaaa <absimm+0xfffffffeefd9cfda>
    80004284:	00b51513          	slli	a0,a0,0xb
    80004288:	55550513          	addi	a0,a0,1365
    8000428c:	00b51513          	slli	a0,a0,0xb
    80004290:	2aa50513          	addi	a0,a0,682
    80004294:	00a51513          	slli	a0,a0,0xa
    80004298:	2a950513          	addi	a0,a0,681
    8000429c:	33453593          	sltiu	a1,a0,820
    800042a0:	4cb13023          	sd	a1,1216(sp)
    800042a4:	00000193          	li	gp,0
    800042a8:	00b18463          	beq	gp,a1,800042b0 <inst_431>
    800042ac:	d79fb06f          	j	80000024 <rvtest_error>

00000000800042b0 <inst_431>:
    800042b0:	aaaab537          	lui	a0,0xaaaab
    800042b4:	aaa50513          	addi	a0,a0,-1366 # ffffffffaaaaaaaa <absimm+0xfffffffeefd9cfda>
    800042b8:	00b51513          	slli	a0,a0,0xb
    800042bc:	55550513          	addi	a0,a0,1365
    800042c0:	00b51513          	slli	a0,a0,0xb
    800042c4:	2aa50513          	addi	a0,a0,682
    800042c8:	00a51513          	slli	a0,a0,0xa
    800042cc:	2a950513          	addi	a0,a0,681
    800042d0:	66753593          	sltiu	a1,a0,1639
    800042d4:	4cb13423          	sd	a1,1224(sp)
    800042d8:	00000193          	li	gp,0
    800042dc:	00b18463          	beq	gp,a1,800042e4 <inst_432>
    800042e0:	d45fb06f          	j	80000024 <rvtest_error>

00000000800042e4 <inst_432>:
    800042e4:	aaaab537          	lui	a0,0xaaaab
    800042e8:	aaa50513          	addi	a0,a0,-1366 # ffffffffaaaaaaaa <absimm+0xfffffffeefd9cfda>
    800042ec:	00b51513          	slli	a0,a0,0xb
    800042f0:	55550513          	addi	a0,a0,1365
    800042f4:	00b51513          	slli	a0,a0,0xb
    800042f8:	2aa50513          	addi	a0,a0,682
    800042fc:	00a51513          	slli	a0,a0,0xa
    80004300:	2a950513          	addi	a0,a0,681
    80004304:	02e53593          	sltiu	a1,a0,46
    80004308:	4cb13823          	sd	a1,1232(sp)
    8000430c:	00000193          	li	gp,0
    80004310:	00b18463          	beq	gp,a1,80004318 <inst_433>
    80004314:	d11fb06f          	j	80000024 <rvtest_error>

0000000080004318 <inst_433>:
    80004318:	aaaab537          	lui	a0,0xaaaab
    8000431c:	aaa50513          	addi	a0,a0,-1366 # ffffffffaaaaaaaa <absimm+0xfffffffeefd9cfda>
    80004320:	00b51513          	slli	a0,a0,0xb
    80004324:	55550513          	addi	a0,a0,1365
    80004328:	00b51513          	slli	a0,a0,0xb
    8000432c:	2aa50513          	addi	a0,a0,682
    80004330:	00a51513          	slli	a0,a0,0xa
    80004334:	2a950513          	addi	a0,a0,681
    80004338:	00153593          	seqz	a1,a0
    8000433c:	4cb13c23          	sd	a1,1240(sp)
    80004340:	00000193          	li	gp,0
    80004344:	00b18463          	beq	gp,a1,8000434c <inst_434>
    80004348:	cddfb06f          	j	80000024 <rvtest_error>

000000008000434c <inst_434>:
    8000434c:	aaaab537          	lui	a0,0xaaaab
    80004350:	aaa50513          	addi	a0,a0,-1366 # ffffffffaaaaaaaa <absimm+0xfffffffeefd9cfda>
    80004354:	00b51513          	slli	a0,a0,0xb
    80004358:	55550513          	addi	a0,a0,1365
    8000435c:	00b51513          	slli	a0,a0,0xb
    80004360:	2aa50513          	addi	a0,a0,682
    80004364:	00a51513          	slli	a0,a0,0xa
    80004368:	2a950513          	addi	a0,a0,681
    8000436c:	04053593          	sltiu	a1,a0,64
    80004370:	4eb13023          	sd	a1,1248(sp)
    80004374:	00000193          	li	gp,0
    80004378:	00b18463          	beq	gp,a1,80004380 <inst_435>
    8000437c:	ca9fb06f          	j	80000024 <rvtest_error>

0000000080004380 <inst_435>:
    80004380:	00400513          	li	a0,4
    80004384:	00353593          	sltiu	a1,a0,3
    80004388:	4eb13423          	sd	a1,1256(sp)
    8000438c:	00000193          	li	gp,0
    80004390:	00b18463          	beq	gp,a1,80004398 <inst_436>
    80004394:	c91fb06f          	j	80000024 <rvtest_error>

0000000080004398 <inst_436>:
    80004398:	00400513          	li	a0,4
    8000439c:	55553593          	sltiu	a1,a0,1365
    800043a0:	4eb13823          	sd	a1,1264(sp)
    800043a4:	00100193          	li	gp,1
    800043a8:	00b18463          	beq	gp,a1,800043b0 <inst_437>
    800043ac:	c79fb06f          	j	80000024 <rvtest_error>

00000000800043b0 <inst_437>:
    800043b0:	00400513          	li	a0,4
    800043b4:	00553593          	sltiu	a1,a0,5
    800043b8:	4eb13c23          	sd	a1,1272(sp)
    800043bc:	00100193          	li	gp,1
    800043c0:	00b18463          	beq	gp,a1,800043c8 <inst_438>
    800043c4:	c61fb06f          	j	80000024 <rvtest_error>

00000000800043c8 <inst_438>:
    800043c8:	00400513          	li	a0,4
    800043cc:	33353593          	sltiu	a1,a0,819
    800043d0:	50b13023          	sd	a1,1280(sp)
    800043d4:	00100193          	li	gp,1
    800043d8:	00b18463          	beq	gp,a1,800043e0 <inst_439>
    800043dc:	c49fb06f          	j	80000024 <rvtest_error>

00000000800043e0 <inst_439>:
    800043e0:	00400513          	li	a0,4
    800043e4:	66653593          	sltiu	a1,a0,1638
    800043e8:	50b13423          	sd	a1,1288(sp)
    800043ec:	00100193          	li	gp,1
    800043f0:	00b18463          	beq	gp,a1,800043f8 <inst_440>
    800043f4:	c31fb06f          	j	80000024 <rvtest_error>

00000000800043f8 <inst_440>:
    800043f8:	00400513          	li	a0,4
    800043fc:	02d53593          	sltiu	a1,a0,45
    80004400:	50b13823          	sd	a1,1296(sp)
    80004404:	00100193          	li	gp,1
    80004408:	00b18463          	beq	gp,a1,80004410 <inst_441>
    8000440c:	c19fb06f          	j	80000024 <rvtest_error>

0000000080004410 <inst_441>:
    80004410:	00400513          	li	a0,4
    80004414:	00053593          	sltiu	a1,a0,0
    80004418:	50b13c23          	sd	a1,1304(sp)
    8000441c:	00000193          	li	gp,0
    80004420:	00b18463          	beq	gp,a1,80004428 <inst_442>
    80004424:	c01fb06f          	j	80000024 <rvtest_error>

0000000080004428 <inst_442>:
    80004428:	00400513          	li	a0,4
    8000442c:	03f53593          	sltiu	a1,a0,63
    80004430:	52b13023          	sd	a1,1312(sp)
    80004434:	00100193          	li	gp,1
    80004438:	00b18463          	beq	gp,a1,80004440 <inst_443>
    8000443c:	be9fb06f          	j	80000024 <rvtest_error>

0000000080004440 <inst_443>:
    80004440:	00400513          	li	a0,4
    80004444:	00253593          	sltiu	a1,a0,2
    80004448:	52b13423          	sd	a1,1320(sp)
    8000444c:	00000193          	li	gp,0
    80004450:	00b18463          	beq	gp,a1,80004458 <inst_444>
    80004454:	bd1fb06f          	j	80000024 <rvtest_error>

0000000080004458 <inst_444>:
    80004458:	00400513          	li	a0,4
    8000445c:	55453593          	sltiu	a1,a0,1364
    80004460:	52b13823          	sd	a1,1328(sp)
    80004464:	00100193          	li	gp,1
    80004468:	00b18463          	beq	gp,a1,80004470 <inst_445>
    8000446c:	bb9fb06f          	j	80000024 <rvtest_error>

0000000080004470 <inst_445>:
    80004470:	00400513          	li	a0,4
    80004474:	aa953593          	sltiu	a1,a0,-1367
    80004478:	52b13c23          	sd	a1,1336(sp)
    8000447c:	00100193          	li	gp,1
    80004480:	00b18463          	beq	gp,a1,80004488 <inst_446>
    80004484:	ba1fb06f          	j	80000024 <rvtest_error>

0000000080004488 <inst_446>:
    80004488:	00400513          	li	a0,4
    8000448c:	00453593          	sltiu	a1,a0,4
    80004490:	54b13023          	sd	a1,1344(sp)
    80004494:	00000193          	li	gp,0
    80004498:	00b18463          	beq	gp,a1,800044a0 <inst_447>
    8000449c:	b89fb06f          	j	80000024 <rvtest_error>

00000000800044a0 <inst_447>:
    800044a0:	00400513          	li	a0,4
    800044a4:	33253593          	sltiu	a1,a0,818
    800044a8:	54b13423          	sd	a1,1352(sp)
    800044ac:	00100193          	li	gp,1
    800044b0:	00b18463          	beq	gp,a1,800044b8 <inst_448>
    800044b4:	b71fb06f          	j	80000024 <rvtest_error>

00000000800044b8 <inst_448>:
    800044b8:	00400513          	li	a0,4
    800044bc:	66553593          	sltiu	a1,a0,1637
    800044c0:	54b13823          	sd	a1,1360(sp)
    800044c4:	00100193          	li	gp,1
    800044c8:	00b18463          	beq	gp,a1,800044d0 <inst_449>
    800044cc:	b59fb06f          	j	80000024 <rvtest_error>

00000000800044d0 <inst_449>:
    800044d0:	00400513          	li	a0,4
    800044d4:	02c53593          	sltiu	a1,a0,44
    800044d8:	54b13c23          	sd	a1,1368(sp)
    800044dc:	00100193          	li	gp,1
    800044e0:	00b18463          	beq	gp,a1,800044e8 <inst_450>
    800044e4:	b41fb06f          	j	80000024 <rvtest_error>

00000000800044e8 <inst_450>:
    800044e8:	00400513          	li	a0,4
    800044ec:	03e53593          	sltiu	a1,a0,62
    800044f0:	56b13023          	sd	a1,1376(sp)
    800044f4:	00100193          	li	gp,1
    800044f8:	00b18463          	beq	gp,a1,80004500 <inst_451>
    800044fc:	b29fb06f          	j	80000024 <rvtest_error>

0000000080004500 <inst_451>:
    80004500:	00400513          	li	a0,4
    80004504:	55653593          	sltiu	a1,a0,1366
    80004508:	56b13423          	sd	a1,1384(sp)
    8000450c:	00100193          	li	gp,1
    80004510:	00b18463          	beq	gp,a1,80004518 <inst_452>
    80004514:	b11fb06f          	j	80000024 <rvtest_error>

0000000080004518 <inst_452>:
    80004518:	00400513          	li	a0,4
    8000451c:	aab53593          	sltiu	a1,a0,-1365
    80004520:	56b13823          	sd	a1,1392(sp)
    80004524:	00100193          	li	gp,1
    80004528:	00b18463          	beq	gp,a1,80004530 <inst_453>
    8000452c:	af9fb06f          	j	80000024 <rvtest_error>

0000000080004530 <inst_453>:
    80004530:	00400513          	li	a0,4
    80004534:	00653593          	sltiu	a1,a0,6
    80004538:	56b13c23          	sd	a1,1400(sp)
    8000453c:	00100193          	li	gp,1
    80004540:	00b18463          	beq	gp,a1,80004548 <inst_454>
    80004544:	ae1fb06f          	j	80000024 <rvtest_error>

0000000080004548 <inst_454>:
    80004548:	00400513          	li	a0,4
    8000454c:	33453593          	sltiu	a1,a0,820
    80004550:	58b13023          	sd	a1,1408(sp)
    80004554:	00100193          	li	gp,1
    80004558:	00b18463          	beq	gp,a1,80004560 <inst_455>
    8000455c:	ac9fb06f          	j	80000024 <rvtest_error>

0000000080004560 <inst_455>:
    80004560:	00400513          	li	a0,4
    80004564:	66753593          	sltiu	a1,a0,1639
    80004568:	58b13423          	sd	a1,1416(sp)
    8000456c:	00100193          	li	gp,1
    80004570:	00b18463          	beq	gp,a1,80004578 <inst_456>
    80004574:	ab1fb06f          	j	80000024 <rvtest_error>

0000000080004578 <inst_456>:
    80004578:	00400513          	li	a0,4
    8000457c:	02e53593          	sltiu	a1,a0,46
    80004580:	58b13823          	sd	a1,1424(sp)
    80004584:	00100193          	li	gp,1
    80004588:	00b18463          	beq	gp,a1,80004590 <inst_457>
    8000458c:	a99fb06f          	j	80000024 <rvtest_error>

0000000080004590 <inst_457>:
    80004590:	00400513          	li	a0,4
    80004594:	00153593          	seqz	a1,a0
    80004598:	58b13c23          	sd	a1,1432(sp)
    8000459c:	00000193          	li	gp,0
    800045a0:	00b18463          	beq	gp,a1,800045a8 <inst_458>
    800045a4:	a81fb06f          	j	80000024 <rvtest_error>

00000000800045a8 <inst_458>:
    800045a8:	00400513          	li	a0,4
    800045ac:	04053593          	sltiu	a1,a0,64
    800045b0:	5ab13023          	sd	a1,1440(sp)
    800045b4:	00100193          	li	gp,1
    800045b8:	00b18463          	beq	gp,a1,800045c0 <inst_459>
    800045bc:	a69fb06f          	j	80000024 <rvtest_error>

00000000800045c0 <inst_459>:
    800045c0:	33333537          	lui	a0,0x33333
    800045c4:	33350513          	addi	a0,a0,819 # 33333333 <absimmsh+0x27862586>
    800045c8:	00b51513          	slli	a0,a0,0xb
    800045cc:	19950513          	addi	a0,a0,409
    800045d0:	00b51513          	slli	a0,a0,0xb
    800045d4:	4cc50513          	addi	a0,a0,1228
    800045d8:	00a51513          	slli	a0,a0,0xa
    800045dc:	33250513          	addi	a0,a0,818
    800045e0:	00353593          	sltiu	a1,a0,3
    800045e4:	5ab13423          	sd	a1,1448(sp)
    800045e8:	00000193          	li	gp,0
    800045ec:	00b18463          	beq	gp,a1,800045f4 <inst_460>
    800045f0:	a35fb06f          	j	80000024 <rvtest_error>

00000000800045f4 <inst_460>:
    800045f4:	33333537          	lui	a0,0x33333
    800045f8:	33350513          	addi	a0,a0,819 # 33333333 <absimmsh+0x27862586>
    800045fc:	00b51513          	slli	a0,a0,0xb
    80004600:	19950513          	addi	a0,a0,409
    80004604:	00b51513          	slli	a0,a0,0xb
    80004608:	4cc50513          	addi	a0,a0,1228
    8000460c:	00a51513          	slli	a0,a0,0xa
    80004610:	33250513          	addi	a0,a0,818
    80004614:	55553593          	sltiu	a1,a0,1365
    80004618:	5ab13823          	sd	a1,1456(sp)
    8000461c:	00000193          	li	gp,0
    80004620:	00b18463          	beq	gp,a1,80004628 <inst_461>
    80004624:	a01fb06f          	j	80000024 <rvtest_error>

0000000080004628 <inst_461>:
    80004628:	33333537          	lui	a0,0x33333
    8000462c:	33350513          	addi	a0,a0,819 # 33333333 <absimmsh+0x27862586>
    80004630:	00b51513          	slli	a0,a0,0xb
    80004634:	19950513          	addi	a0,a0,409
    80004638:	00b51513          	slli	a0,a0,0xb
    8000463c:	4cc50513          	addi	a0,a0,1228
    80004640:	00a51513          	slli	a0,a0,0xa
    80004644:	33250513          	addi	a0,a0,818
    80004648:	aaa53593          	sltiu	a1,a0,-1366
    8000464c:	5ab13c23          	sd	a1,1464(sp)
    80004650:	00100193          	li	gp,1
    80004654:	00b18463          	beq	gp,a1,8000465c <inst_462>
    80004658:	9cdfb06f          	j	80000024 <rvtest_error>

000000008000465c <inst_462>:
    8000465c:	33333537          	lui	a0,0x33333
    80004660:	33350513          	addi	a0,a0,819 # 33333333 <absimmsh+0x27862586>
    80004664:	00b51513          	slli	a0,a0,0xb
    80004668:	19950513          	addi	a0,a0,409
    8000466c:	00b51513          	slli	a0,a0,0xb
    80004670:	4cc50513          	addi	a0,a0,1228
    80004674:	00a51513          	slli	a0,a0,0xa
    80004678:	33250513          	addi	a0,a0,818
    8000467c:	00553593          	sltiu	a1,a0,5
    80004680:	5cb13023          	sd	a1,1472(sp)
    80004684:	00000193          	li	gp,0
    80004688:	00b18463          	beq	gp,a1,80004690 <inst_463>
    8000468c:	999fb06f          	j	80000024 <rvtest_error>

0000000080004690 <inst_463>:
    80004690:	33333537          	lui	a0,0x33333
    80004694:	33350513          	addi	a0,a0,819 # 33333333 <absimmsh+0x27862586>
    80004698:	00b51513          	slli	a0,a0,0xb
    8000469c:	19950513          	addi	a0,a0,409
    800046a0:	00b51513          	slli	a0,a0,0xb
    800046a4:	4cc50513          	addi	a0,a0,1228
    800046a8:	00a51513          	slli	a0,a0,0xa
    800046ac:	33250513          	addi	a0,a0,818
    800046b0:	33353593          	sltiu	a1,a0,819
    800046b4:	5cb13423          	sd	a1,1480(sp)
    800046b8:	00000193          	li	gp,0
    800046bc:	00b18463          	beq	gp,a1,800046c4 <inst_464>
    800046c0:	965fb06f          	j	80000024 <rvtest_error>

00000000800046c4 <inst_464>:
    800046c4:	33333537          	lui	a0,0x33333
    800046c8:	33350513          	addi	a0,a0,819 # 33333333 <absimmsh+0x27862586>
    800046cc:	00b51513          	slli	a0,a0,0xb
    800046d0:	19950513          	addi	a0,a0,409
    800046d4:	00b51513          	slli	a0,a0,0xb
    800046d8:	4cc50513          	addi	a0,a0,1228
    800046dc:	00a51513          	slli	a0,a0,0xa
    800046e0:	33250513          	addi	a0,a0,818
    800046e4:	66653593          	sltiu	a1,a0,1638
    800046e8:	5cb13823          	sd	a1,1488(sp)
    800046ec:	00000193          	li	gp,0
    800046f0:	00b18463          	beq	gp,a1,800046f8 <inst_465>
    800046f4:	931fb06f          	j	80000024 <rvtest_error>

00000000800046f8 <inst_465>:
    800046f8:	33333537          	lui	a0,0x33333
    800046fc:	33350513          	addi	a0,a0,819 # 33333333 <absimmsh+0x27862586>
    80004700:	00b51513          	slli	a0,a0,0xb
    80004704:	19950513          	addi	a0,a0,409
    80004708:	00b51513          	slli	a0,a0,0xb
    8000470c:	4cc50513          	addi	a0,a0,1228
    80004710:	00a51513          	slli	a0,a0,0xa
    80004714:	33250513          	addi	a0,a0,818
    80004718:	02d53593          	sltiu	a1,a0,45
    8000471c:	5cb13c23          	sd	a1,1496(sp)
    80004720:	00000193          	li	gp,0
    80004724:	00b18463          	beq	gp,a1,8000472c <inst_466>
    80004728:	8fdfb06f          	j	80000024 <rvtest_error>

000000008000472c <inst_466>:
    8000472c:	33333537          	lui	a0,0x33333
    80004730:	33350513          	addi	a0,a0,819 # 33333333 <absimmsh+0x27862586>
    80004734:	00b51513          	slli	a0,a0,0xb
    80004738:	19950513          	addi	a0,a0,409
    8000473c:	00b51513          	slli	a0,a0,0xb
    80004740:	4cc50513          	addi	a0,a0,1228
    80004744:	00a51513          	slli	a0,a0,0xa
    80004748:	33250513          	addi	a0,a0,818
    8000474c:	00053593          	sltiu	a1,a0,0
    80004750:	5eb13023          	sd	a1,1504(sp)
    80004754:	00000193          	li	gp,0
    80004758:	00b18463          	beq	gp,a1,80004760 <inst_467>
    8000475c:	8c9fb06f          	j	80000024 <rvtest_error>

0000000080004760 <inst_467>:
    80004760:	33333537          	lui	a0,0x33333
    80004764:	33350513          	addi	a0,a0,819 # 33333333 <absimmsh+0x27862586>
    80004768:	00b51513          	slli	a0,a0,0xb
    8000476c:	19950513          	addi	a0,a0,409
    80004770:	00b51513          	slli	a0,a0,0xb
    80004774:	4cc50513          	addi	a0,a0,1228
    80004778:	00a51513          	slli	a0,a0,0xa
    8000477c:	33250513          	addi	a0,a0,818
    80004780:	03f53593          	sltiu	a1,a0,63
    80004784:	5eb13423          	sd	a1,1512(sp)
    80004788:	00000193          	li	gp,0
    8000478c:	00b18463          	beq	gp,a1,80004794 <inst_468>
    80004790:	895fb06f          	j	80000024 <rvtest_error>

0000000080004794 <inst_468>:
    80004794:	33333537          	lui	a0,0x33333
    80004798:	33350513          	addi	a0,a0,819 # 33333333 <absimmsh+0x27862586>
    8000479c:	00b51513          	slli	a0,a0,0xb
    800047a0:	19950513          	addi	a0,a0,409
    800047a4:	00b51513          	slli	a0,a0,0xb
    800047a8:	4cc50513          	addi	a0,a0,1228
    800047ac:	00a51513          	slli	a0,a0,0xa
    800047b0:	33250513          	addi	a0,a0,818
    800047b4:	00253593          	sltiu	a1,a0,2
    800047b8:	5eb13823          	sd	a1,1520(sp)
    800047bc:	00000193          	li	gp,0
    800047c0:	00b18463          	beq	gp,a1,800047c8 <inst_469>
    800047c4:	861fb06f          	j	80000024 <rvtest_error>

00000000800047c8 <inst_469>:
    800047c8:	33333537          	lui	a0,0x33333
    800047cc:	33350513          	addi	a0,a0,819 # 33333333 <absimmsh+0x27862586>
    800047d0:	00b51513          	slli	a0,a0,0xb
    800047d4:	19950513          	addi	a0,a0,409
    800047d8:	00b51513          	slli	a0,a0,0xb
    800047dc:	4cc50513          	addi	a0,a0,1228
    800047e0:	00a51513          	slli	a0,a0,0xa
    800047e4:	33250513          	addi	a0,a0,818
    800047e8:	55453593          	sltiu	a1,a0,1364
    800047ec:	5eb13c23          	sd	a1,1528(sp)
    800047f0:	00000193          	li	gp,0
    800047f4:	00b18463          	beq	gp,a1,800047fc <inst_470>
    800047f8:	82dfb06f          	j	80000024 <rvtest_error>

00000000800047fc <inst_470>:
    800047fc:	33333537          	lui	a0,0x33333
    80004800:	33350513          	addi	a0,a0,819 # 33333333 <absimmsh+0x27862586>
    80004804:	00b51513          	slli	a0,a0,0xb
    80004808:	19950513          	addi	a0,a0,409
    8000480c:	00b51513          	slli	a0,a0,0xb
    80004810:	4cc50513          	addi	a0,a0,1228
    80004814:	00a51513          	slli	a0,a0,0xa
    80004818:	33250513          	addi	a0,a0,818
    8000481c:	aa953593          	sltiu	a1,a0,-1367
    80004820:	60b13023          	sd	a1,1536(sp)
    80004824:	00100193          	li	gp,1
    80004828:	00b18463          	beq	gp,a1,80004830 <inst_471>
    8000482c:	ff8fb06f          	j	80000024 <rvtest_error>

0000000080004830 <inst_471>:
    80004830:	33333537          	lui	a0,0x33333
    80004834:	33350513          	addi	a0,a0,819 # 33333333 <absimmsh+0x27862586>
    80004838:	00b51513          	slli	a0,a0,0xb
    8000483c:	19950513          	addi	a0,a0,409
    80004840:	00b51513          	slli	a0,a0,0xb
    80004844:	4cc50513          	addi	a0,a0,1228
    80004848:	00a51513          	slli	a0,a0,0xa
    8000484c:	33250513          	addi	a0,a0,818
    80004850:	00453593          	sltiu	a1,a0,4
    80004854:	60b13423          	sd	a1,1544(sp)
    80004858:	00000193          	li	gp,0
    8000485c:	00b18463          	beq	gp,a1,80004864 <inst_472>
    80004860:	fc4fb06f          	j	80000024 <rvtest_error>

0000000080004864 <inst_472>:
    80004864:	33333537          	lui	a0,0x33333
    80004868:	33350513          	addi	a0,a0,819 # 33333333 <absimmsh+0x27862586>
    8000486c:	00b51513          	slli	a0,a0,0xb
    80004870:	19950513          	addi	a0,a0,409
    80004874:	00b51513          	slli	a0,a0,0xb
    80004878:	4cc50513          	addi	a0,a0,1228
    8000487c:	00a51513          	slli	a0,a0,0xa
    80004880:	33250513          	addi	a0,a0,818
    80004884:	33253593          	sltiu	a1,a0,818
    80004888:	60b13823          	sd	a1,1552(sp)
    8000488c:	00000193          	li	gp,0
    80004890:	00b18463          	beq	gp,a1,80004898 <inst_473>
    80004894:	f90fb06f          	j	80000024 <rvtest_error>

0000000080004898 <inst_473>:
    80004898:	33333537          	lui	a0,0x33333
    8000489c:	33350513          	addi	a0,a0,819 # 33333333 <absimmsh+0x27862586>
    800048a0:	00b51513          	slli	a0,a0,0xb
    800048a4:	19950513          	addi	a0,a0,409
    800048a8:	00b51513          	slli	a0,a0,0xb
    800048ac:	4cc50513          	addi	a0,a0,1228
    800048b0:	00a51513          	slli	a0,a0,0xa
    800048b4:	33250513          	addi	a0,a0,818
    800048b8:	66553593          	sltiu	a1,a0,1637
    800048bc:	60b13c23          	sd	a1,1560(sp)
    800048c0:	00000193          	li	gp,0
    800048c4:	00b18463          	beq	gp,a1,800048cc <inst_474>
    800048c8:	f5cfb06f          	j	80000024 <rvtest_error>

00000000800048cc <inst_474>:
    800048cc:	33333537          	lui	a0,0x33333
    800048d0:	33350513          	addi	a0,a0,819 # 33333333 <absimmsh+0x27862586>
    800048d4:	00b51513          	slli	a0,a0,0xb
    800048d8:	19950513          	addi	a0,a0,409
    800048dc:	00b51513          	slli	a0,a0,0xb
    800048e0:	4cc50513          	addi	a0,a0,1228
    800048e4:	00a51513          	slli	a0,a0,0xa
    800048e8:	33250513          	addi	a0,a0,818
    800048ec:	02c53593          	sltiu	a1,a0,44
    800048f0:	62b13023          	sd	a1,1568(sp)
    800048f4:	00000193          	li	gp,0
    800048f8:	00b18463          	beq	gp,a1,80004900 <inst_475>
    800048fc:	f28fb06f          	j	80000024 <rvtest_error>

0000000080004900 <inst_475>:
    80004900:	33333537          	lui	a0,0x33333
    80004904:	33350513          	addi	a0,a0,819 # 33333333 <absimmsh+0x27862586>
    80004908:	00b51513          	slli	a0,a0,0xb
    8000490c:	19950513          	addi	a0,a0,409
    80004910:	00b51513          	slli	a0,a0,0xb
    80004914:	4cc50513          	addi	a0,a0,1228
    80004918:	00a51513          	slli	a0,a0,0xa
    8000491c:	33250513          	addi	a0,a0,818
    80004920:	03e53593          	sltiu	a1,a0,62
    80004924:	62b13423          	sd	a1,1576(sp)
    80004928:	00000193          	li	gp,0
    8000492c:	00b18463          	beq	gp,a1,80004934 <inst_476>
    80004930:	ef4fb06f          	j	80000024 <rvtest_error>

0000000080004934 <inst_476>:
    80004934:	33333537          	lui	a0,0x33333
    80004938:	33350513          	addi	a0,a0,819 # 33333333 <absimmsh+0x27862586>
    8000493c:	00b51513          	slli	a0,a0,0xb
    80004940:	19950513          	addi	a0,a0,409
    80004944:	00b51513          	slli	a0,a0,0xb
    80004948:	4cc50513          	addi	a0,a0,1228
    8000494c:	00a51513          	slli	a0,a0,0xa
    80004950:	33250513          	addi	a0,a0,818
    80004954:	55653593          	sltiu	a1,a0,1366
    80004958:	62b13823          	sd	a1,1584(sp)
    8000495c:	00000193          	li	gp,0
    80004960:	00b18463          	beq	gp,a1,80004968 <inst_477>
    80004964:	ec0fb06f          	j	80000024 <rvtest_error>

0000000080004968 <inst_477>:
    80004968:	33333537          	lui	a0,0x33333
    8000496c:	33350513          	addi	a0,a0,819 # 33333333 <absimmsh+0x27862586>
    80004970:	00b51513          	slli	a0,a0,0xb
    80004974:	19950513          	addi	a0,a0,409
    80004978:	00b51513          	slli	a0,a0,0xb
    8000497c:	4cc50513          	addi	a0,a0,1228
    80004980:	00a51513          	slli	a0,a0,0xa
    80004984:	33250513          	addi	a0,a0,818
    80004988:	aab53593          	sltiu	a1,a0,-1365
    8000498c:	62b13c23          	sd	a1,1592(sp)
    80004990:	00100193          	li	gp,1
    80004994:	00b18463          	beq	gp,a1,8000499c <inst_478>
    80004998:	e8cfb06f          	j	80000024 <rvtest_error>

000000008000499c <inst_478>:
    8000499c:	33333537          	lui	a0,0x33333
    800049a0:	33350513          	addi	a0,a0,819 # 33333333 <absimmsh+0x27862586>
    800049a4:	00b51513          	slli	a0,a0,0xb
    800049a8:	19950513          	addi	a0,a0,409
    800049ac:	00b51513          	slli	a0,a0,0xb
    800049b0:	4cc50513          	addi	a0,a0,1228
    800049b4:	00a51513          	slli	a0,a0,0xa
    800049b8:	33250513          	addi	a0,a0,818
    800049bc:	00653593          	sltiu	a1,a0,6
    800049c0:	64b13023          	sd	a1,1600(sp)
    800049c4:	00000193          	li	gp,0
    800049c8:	00b18463          	beq	gp,a1,800049d0 <inst_479>
    800049cc:	e58fb06f          	j	80000024 <rvtest_error>

00000000800049d0 <inst_479>:
    800049d0:	33333537          	lui	a0,0x33333
    800049d4:	33350513          	addi	a0,a0,819 # 33333333 <absimmsh+0x27862586>
    800049d8:	00b51513          	slli	a0,a0,0xb
    800049dc:	19950513          	addi	a0,a0,409
    800049e0:	00b51513          	slli	a0,a0,0xb
    800049e4:	4cc50513          	addi	a0,a0,1228
    800049e8:	00a51513          	slli	a0,a0,0xa
    800049ec:	33250513          	addi	a0,a0,818
    800049f0:	33453593          	sltiu	a1,a0,820
    800049f4:	64b13423          	sd	a1,1608(sp)
    800049f8:	00000193          	li	gp,0
    800049fc:	00b18463          	beq	gp,a1,80004a04 <inst_480>
    80004a00:	e24fb06f          	j	80000024 <rvtest_error>

0000000080004a04 <inst_480>:
    80004a04:	33333537          	lui	a0,0x33333
    80004a08:	33350513          	addi	a0,a0,819 # 33333333 <absimmsh+0x27862586>
    80004a0c:	00b51513          	slli	a0,a0,0xb
    80004a10:	19950513          	addi	a0,a0,409
    80004a14:	00b51513          	slli	a0,a0,0xb
    80004a18:	4cc50513          	addi	a0,a0,1228
    80004a1c:	00a51513          	slli	a0,a0,0xa
    80004a20:	33250513          	addi	a0,a0,818
    80004a24:	66753593          	sltiu	a1,a0,1639
    80004a28:	64b13823          	sd	a1,1616(sp)
    80004a2c:	00000193          	li	gp,0
    80004a30:	00b18463          	beq	gp,a1,80004a38 <inst_481>
    80004a34:	df0fb06f          	j	80000024 <rvtest_error>

0000000080004a38 <inst_481>:
    80004a38:	33333537          	lui	a0,0x33333
    80004a3c:	33350513          	addi	a0,a0,819 # 33333333 <absimmsh+0x27862586>
    80004a40:	00b51513          	slli	a0,a0,0xb
    80004a44:	19950513          	addi	a0,a0,409
    80004a48:	00b51513          	slli	a0,a0,0xb
    80004a4c:	4cc50513          	addi	a0,a0,1228
    80004a50:	00a51513          	slli	a0,a0,0xa
    80004a54:	33250513          	addi	a0,a0,818
    80004a58:	02e53593          	sltiu	a1,a0,46
    80004a5c:	64b13c23          	sd	a1,1624(sp)
    80004a60:	00000193          	li	gp,0
    80004a64:	00b18463          	beq	gp,a1,80004a6c <inst_482>
    80004a68:	dbcfb06f          	j	80000024 <rvtest_error>

0000000080004a6c <inst_482>:
    80004a6c:	33333537          	lui	a0,0x33333
    80004a70:	33350513          	addi	a0,a0,819 # 33333333 <absimmsh+0x27862586>
    80004a74:	00b51513          	slli	a0,a0,0xb
    80004a78:	19950513          	addi	a0,a0,409
    80004a7c:	00b51513          	slli	a0,a0,0xb
    80004a80:	4cc50513          	addi	a0,a0,1228
    80004a84:	00a51513          	slli	a0,a0,0xa
    80004a88:	33250513          	addi	a0,a0,818
    80004a8c:	00153593          	seqz	a1,a0
    80004a90:	66b13023          	sd	a1,1632(sp)
    80004a94:	00000193          	li	gp,0
    80004a98:	00b18463          	beq	gp,a1,80004aa0 <inst_483>
    80004a9c:	d88fb06f          	j	80000024 <rvtest_error>

0000000080004aa0 <inst_483>:
    80004aa0:	33333537          	lui	a0,0x33333
    80004aa4:	33350513          	addi	a0,a0,819 # 33333333 <absimmsh+0x27862586>
    80004aa8:	00b51513          	slli	a0,a0,0xb
    80004aac:	19950513          	addi	a0,a0,409
    80004ab0:	00b51513          	slli	a0,a0,0xb
    80004ab4:	4cc50513          	addi	a0,a0,1228
    80004ab8:	00a51513          	slli	a0,a0,0xa
    80004abc:	33250513          	addi	a0,a0,818
    80004ac0:	04053593          	sltiu	a1,a0,64
    80004ac4:	66b13423          	sd	a1,1640(sp)
    80004ac8:	00000193          	li	gp,0
    80004acc:	00b18463          	beq	gp,a1,80004ad4 <inst_484>
    80004ad0:	d54fb06f          	j	80000024 <rvtest_error>

0000000080004ad4 <inst_484>:
    80004ad4:	66666537          	lui	a0,0x66666
    80004ad8:	66650513          	addi	a0,a0,1638 # 66666666 <absimmsh+0x5ab958b9>
    80004adc:	00b51513          	slli	a0,a0,0xb
    80004ae0:	33350513          	addi	a0,a0,819
    80004ae4:	00b51513          	slli	a0,a0,0xb
    80004ae8:	19950513          	addi	a0,a0,409
    80004aec:	00a51513          	slli	a0,a0,0xa
    80004af0:	26550513          	addi	a0,a0,613
    80004af4:	00353593          	sltiu	a1,a0,3
    80004af8:	66b13823          	sd	a1,1648(sp)
    80004afc:	00000193          	li	gp,0
    80004b00:	00b18463          	beq	gp,a1,80004b08 <inst_485>
    80004b04:	d20fb06f          	j	80000024 <rvtest_error>

0000000080004b08 <inst_485>:
    80004b08:	66666537          	lui	a0,0x66666
    80004b0c:	66650513          	addi	a0,a0,1638 # 66666666 <absimmsh+0x5ab958b9>
    80004b10:	00b51513          	slli	a0,a0,0xb
    80004b14:	33350513          	addi	a0,a0,819
    80004b18:	00b51513          	slli	a0,a0,0xb
    80004b1c:	19950513          	addi	a0,a0,409
    80004b20:	00a51513          	slli	a0,a0,0xa
    80004b24:	26550513          	addi	a0,a0,613
    80004b28:	55553593          	sltiu	a1,a0,1365
    80004b2c:	66b13c23          	sd	a1,1656(sp)
    80004b30:	00000193          	li	gp,0
    80004b34:	00b18463          	beq	gp,a1,80004b3c <inst_486>
    80004b38:	cecfb06f          	j	80000024 <rvtest_error>

0000000080004b3c <inst_486>:
    80004b3c:	66666537          	lui	a0,0x66666
    80004b40:	66650513          	addi	a0,a0,1638 # 66666666 <absimmsh+0x5ab958b9>
    80004b44:	00b51513          	slli	a0,a0,0xb
    80004b48:	33350513          	addi	a0,a0,819
    80004b4c:	00b51513          	slli	a0,a0,0xb
    80004b50:	19950513          	addi	a0,a0,409
    80004b54:	00a51513          	slli	a0,a0,0xa
    80004b58:	26550513          	addi	a0,a0,613
    80004b5c:	aaa53593          	sltiu	a1,a0,-1366
    80004b60:	68b13023          	sd	a1,1664(sp)
    80004b64:	00100193          	li	gp,1
    80004b68:	00b18463          	beq	gp,a1,80004b70 <inst_487>
    80004b6c:	cb8fb06f          	j	80000024 <rvtest_error>

0000000080004b70 <inst_487>:
    80004b70:	66666537          	lui	a0,0x66666
    80004b74:	66650513          	addi	a0,a0,1638 # 66666666 <absimmsh+0x5ab958b9>
    80004b78:	00b51513          	slli	a0,a0,0xb
    80004b7c:	33350513          	addi	a0,a0,819
    80004b80:	00b51513          	slli	a0,a0,0xb
    80004b84:	19950513          	addi	a0,a0,409
    80004b88:	00a51513          	slli	a0,a0,0xa
    80004b8c:	26550513          	addi	a0,a0,613
    80004b90:	00553593          	sltiu	a1,a0,5
    80004b94:	68b13423          	sd	a1,1672(sp)
    80004b98:	00000193          	li	gp,0
    80004b9c:	00b18463          	beq	gp,a1,80004ba4 <inst_488>
    80004ba0:	c84fb06f          	j	80000024 <rvtest_error>

0000000080004ba4 <inst_488>:
    80004ba4:	66666537          	lui	a0,0x66666
    80004ba8:	66650513          	addi	a0,a0,1638 # 66666666 <absimmsh+0x5ab958b9>
    80004bac:	00b51513          	slli	a0,a0,0xb
    80004bb0:	33350513          	addi	a0,a0,819
    80004bb4:	00b51513          	slli	a0,a0,0xb
    80004bb8:	19950513          	addi	a0,a0,409
    80004bbc:	00a51513          	slli	a0,a0,0xa
    80004bc0:	26550513          	addi	a0,a0,613
    80004bc4:	33353593          	sltiu	a1,a0,819
    80004bc8:	68b13823          	sd	a1,1680(sp)
    80004bcc:	00000193          	li	gp,0
    80004bd0:	00b18463          	beq	gp,a1,80004bd8 <inst_489>
    80004bd4:	c50fb06f          	j	80000024 <rvtest_error>

0000000080004bd8 <inst_489>:
    80004bd8:	66666537          	lui	a0,0x66666
    80004bdc:	66650513          	addi	a0,a0,1638 # 66666666 <absimmsh+0x5ab958b9>
    80004be0:	00b51513          	slli	a0,a0,0xb
    80004be4:	33350513          	addi	a0,a0,819
    80004be8:	00b51513          	slli	a0,a0,0xb
    80004bec:	19950513          	addi	a0,a0,409
    80004bf0:	00a51513          	slli	a0,a0,0xa
    80004bf4:	26550513          	addi	a0,a0,613
    80004bf8:	66653593          	sltiu	a1,a0,1638
    80004bfc:	68b13c23          	sd	a1,1688(sp)
    80004c00:	00000193          	li	gp,0
    80004c04:	00b18463          	beq	gp,a1,80004c0c <inst_490>
    80004c08:	c1cfb06f          	j	80000024 <rvtest_error>

0000000080004c0c <inst_490>:
    80004c0c:	66666537          	lui	a0,0x66666
    80004c10:	66650513          	addi	a0,a0,1638 # 66666666 <absimmsh+0x5ab958b9>
    80004c14:	00b51513          	slli	a0,a0,0xb
    80004c18:	33350513          	addi	a0,a0,819
    80004c1c:	00b51513          	slli	a0,a0,0xb
    80004c20:	19950513          	addi	a0,a0,409
    80004c24:	00a51513          	slli	a0,a0,0xa
    80004c28:	26550513          	addi	a0,a0,613
    80004c2c:	02d53593          	sltiu	a1,a0,45
    80004c30:	6ab13023          	sd	a1,1696(sp)
    80004c34:	00000193          	li	gp,0
    80004c38:	00b18463          	beq	gp,a1,80004c40 <inst_491>
    80004c3c:	be8fb06f          	j	80000024 <rvtest_error>

0000000080004c40 <inst_491>:
    80004c40:	66666537          	lui	a0,0x66666
    80004c44:	66650513          	addi	a0,a0,1638 # 66666666 <absimmsh+0x5ab958b9>
    80004c48:	00b51513          	slli	a0,a0,0xb
    80004c4c:	33350513          	addi	a0,a0,819
    80004c50:	00b51513          	slli	a0,a0,0xb
    80004c54:	19950513          	addi	a0,a0,409
    80004c58:	00a51513          	slli	a0,a0,0xa
    80004c5c:	26550513          	addi	a0,a0,613
    80004c60:	00053593          	sltiu	a1,a0,0
    80004c64:	6ab13423          	sd	a1,1704(sp)
    80004c68:	00000193          	li	gp,0
    80004c6c:	00b18463          	beq	gp,a1,80004c74 <inst_492>
    80004c70:	bb4fb06f          	j	80000024 <rvtest_error>

0000000080004c74 <inst_492>:
    80004c74:	66666537          	lui	a0,0x66666
    80004c78:	66650513          	addi	a0,a0,1638 # 66666666 <absimmsh+0x5ab958b9>
    80004c7c:	00b51513          	slli	a0,a0,0xb
    80004c80:	33350513          	addi	a0,a0,819
    80004c84:	00b51513          	slli	a0,a0,0xb
    80004c88:	19950513          	addi	a0,a0,409
    80004c8c:	00a51513          	slli	a0,a0,0xa
    80004c90:	26550513          	addi	a0,a0,613
    80004c94:	03f53593          	sltiu	a1,a0,63
    80004c98:	6ab13823          	sd	a1,1712(sp)
    80004c9c:	00000193          	li	gp,0
    80004ca0:	00b18463          	beq	gp,a1,80004ca8 <inst_493>
    80004ca4:	b80fb06f          	j	80000024 <rvtest_error>

0000000080004ca8 <inst_493>:
    80004ca8:	66666537          	lui	a0,0x66666
    80004cac:	66650513          	addi	a0,a0,1638 # 66666666 <absimmsh+0x5ab958b9>
    80004cb0:	00b51513          	slli	a0,a0,0xb
    80004cb4:	33350513          	addi	a0,a0,819
    80004cb8:	00b51513          	slli	a0,a0,0xb
    80004cbc:	19950513          	addi	a0,a0,409
    80004cc0:	00a51513          	slli	a0,a0,0xa
    80004cc4:	26550513          	addi	a0,a0,613
    80004cc8:	00253593          	sltiu	a1,a0,2
    80004ccc:	6ab13c23          	sd	a1,1720(sp)
    80004cd0:	00000193          	li	gp,0
    80004cd4:	00b18463          	beq	gp,a1,80004cdc <inst_494>
    80004cd8:	b4cfb06f          	j	80000024 <rvtest_error>

0000000080004cdc <inst_494>:
    80004cdc:	66666537          	lui	a0,0x66666
    80004ce0:	66650513          	addi	a0,a0,1638 # 66666666 <absimmsh+0x5ab958b9>
    80004ce4:	00b51513          	slli	a0,a0,0xb
    80004ce8:	33350513          	addi	a0,a0,819
    80004cec:	00b51513          	slli	a0,a0,0xb
    80004cf0:	19950513          	addi	a0,a0,409
    80004cf4:	00a51513          	slli	a0,a0,0xa
    80004cf8:	26550513          	addi	a0,a0,613
    80004cfc:	55453593          	sltiu	a1,a0,1364
    80004d00:	6cb13023          	sd	a1,1728(sp)
    80004d04:	00000193          	li	gp,0
    80004d08:	00b18463          	beq	gp,a1,80004d10 <inst_495>
    80004d0c:	b18fb06f          	j	80000024 <rvtest_error>

0000000080004d10 <inst_495>:
    80004d10:	66666537          	lui	a0,0x66666
    80004d14:	66650513          	addi	a0,a0,1638 # 66666666 <absimmsh+0x5ab958b9>
    80004d18:	00b51513          	slli	a0,a0,0xb
    80004d1c:	33350513          	addi	a0,a0,819
    80004d20:	00b51513          	slli	a0,a0,0xb
    80004d24:	19950513          	addi	a0,a0,409
    80004d28:	00a51513          	slli	a0,a0,0xa
    80004d2c:	26550513          	addi	a0,a0,613
    80004d30:	aa953593          	sltiu	a1,a0,-1367
    80004d34:	6cb13423          	sd	a1,1736(sp)
    80004d38:	00100193          	li	gp,1
    80004d3c:	00b18463          	beq	gp,a1,80004d44 <inst_496>
    80004d40:	ae4fb06f          	j	80000024 <rvtest_error>

0000000080004d44 <inst_496>:
    80004d44:	66666537          	lui	a0,0x66666
    80004d48:	66650513          	addi	a0,a0,1638 # 66666666 <absimmsh+0x5ab958b9>
    80004d4c:	00b51513          	slli	a0,a0,0xb
    80004d50:	33350513          	addi	a0,a0,819
    80004d54:	00b51513          	slli	a0,a0,0xb
    80004d58:	19950513          	addi	a0,a0,409
    80004d5c:	00a51513          	slli	a0,a0,0xa
    80004d60:	26550513          	addi	a0,a0,613
    80004d64:	00453593          	sltiu	a1,a0,4
    80004d68:	6cb13823          	sd	a1,1744(sp)
    80004d6c:	00000193          	li	gp,0
    80004d70:	00b18463          	beq	gp,a1,80004d78 <inst_497>
    80004d74:	ab0fb06f          	j	80000024 <rvtest_error>

0000000080004d78 <inst_497>:
    80004d78:	66666537          	lui	a0,0x66666
    80004d7c:	66650513          	addi	a0,a0,1638 # 66666666 <absimmsh+0x5ab958b9>
    80004d80:	00b51513          	slli	a0,a0,0xb
    80004d84:	33350513          	addi	a0,a0,819
    80004d88:	00b51513          	slli	a0,a0,0xb
    80004d8c:	19950513          	addi	a0,a0,409
    80004d90:	00a51513          	slli	a0,a0,0xa
    80004d94:	26550513          	addi	a0,a0,613
    80004d98:	33253593          	sltiu	a1,a0,818
    80004d9c:	6cb13c23          	sd	a1,1752(sp)
    80004da0:	00000193          	li	gp,0
    80004da4:	00b18463          	beq	gp,a1,80004dac <inst_498>
    80004da8:	a7cfb06f          	j	80000024 <rvtest_error>

0000000080004dac <inst_498>:
    80004dac:	66666537          	lui	a0,0x66666
    80004db0:	66650513          	addi	a0,a0,1638 # 66666666 <absimmsh+0x5ab958b9>
    80004db4:	00b51513          	slli	a0,a0,0xb
    80004db8:	33350513          	addi	a0,a0,819
    80004dbc:	00b51513          	slli	a0,a0,0xb
    80004dc0:	19950513          	addi	a0,a0,409
    80004dc4:	00a51513          	slli	a0,a0,0xa
    80004dc8:	26550513          	addi	a0,a0,613
    80004dcc:	66553593          	sltiu	a1,a0,1637
    80004dd0:	6eb13023          	sd	a1,1760(sp)
    80004dd4:	00000193          	li	gp,0
    80004dd8:	00b18463          	beq	gp,a1,80004de0 <inst_499>
    80004ddc:	a48fb06f          	j	80000024 <rvtest_error>

0000000080004de0 <inst_499>:
    80004de0:	66666537          	lui	a0,0x66666
    80004de4:	66650513          	addi	a0,a0,1638 # 66666666 <absimmsh+0x5ab958b9>
    80004de8:	00b51513          	slli	a0,a0,0xb
    80004dec:	33350513          	addi	a0,a0,819
    80004df0:	00b51513          	slli	a0,a0,0xb
    80004df4:	19950513          	addi	a0,a0,409
    80004df8:	00a51513          	slli	a0,a0,0xa
    80004dfc:	26550513          	addi	a0,a0,613
    80004e00:	02c53593          	sltiu	a1,a0,44
    80004e04:	6eb13423          	sd	a1,1768(sp)
    80004e08:	00000193          	li	gp,0
    80004e0c:	00b18463          	beq	gp,a1,80004e14 <inst_500>
    80004e10:	a14fb06f          	j	80000024 <rvtest_error>

0000000080004e14 <inst_500>:
    80004e14:	66666537          	lui	a0,0x66666
    80004e18:	66650513          	addi	a0,a0,1638 # 66666666 <absimmsh+0x5ab958b9>
    80004e1c:	00b51513          	slli	a0,a0,0xb
    80004e20:	33350513          	addi	a0,a0,819
    80004e24:	00b51513          	slli	a0,a0,0xb
    80004e28:	19950513          	addi	a0,a0,409
    80004e2c:	00a51513          	slli	a0,a0,0xa
    80004e30:	26550513          	addi	a0,a0,613
    80004e34:	03e53593          	sltiu	a1,a0,62
    80004e38:	6eb13823          	sd	a1,1776(sp)
    80004e3c:	00000193          	li	gp,0
    80004e40:	00b18463          	beq	gp,a1,80004e48 <inst_501>
    80004e44:	9e0fb06f          	j	80000024 <rvtest_error>

0000000080004e48 <inst_501>:
    80004e48:	66666537          	lui	a0,0x66666
    80004e4c:	66650513          	addi	a0,a0,1638 # 66666666 <absimmsh+0x5ab958b9>
    80004e50:	00b51513          	slli	a0,a0,0xb
    80004e54:	33350513          	addi	a0,a0,819
    80004e58:	00b51513          	slli	a0,a0,0xb
    80004e5c:	19950513          	addi	a0,a0,409
    80004e60:	00a51513          	slli	a0,a0,0xa
    80004e64:	26550513          	addi	a0,a0,613
    80004e68:	55653593          	sltiu	a1,a0,1366
    80004e6c:	6eb13c23          	sd	a1,1784(sp)
    80004e70:	00000193          	li	gp,0
    80004e74:	00b18463          	beq	gp,a1,80004e7c <inst_502>
    80004e78:	9acfb06f          	j	80000024 <rvtest_error>

0000000080004e7c <inst_502>:
    80004e7c:	66666537          	lui	a0,0x66666
    80004e80:	66650513          	addi	a0,a0,1638 # 66666666 <absimmsh+0x5ab958b9>
    80004e84:	00b51513          	slli	a0,a0,0xb
    80004e88:	33350513          	addi	a0,a0,819
    80004e8c:	00b51513          	slli	a0,a0,0xb
    80004e90:	19950513          	addi	a0,a0,409
    80004e94:	00a51513          	slli	a0,a0,0xa
    80004e98:	26550513          	addi	a0,a0,613
    80004e9c:	aab53593          	sltiu	a1,a0,-1365
    80004ea0:	70b13023          	sd	a1,1792(sp)
    80004ea4:	00100193          	li	gp,1
    80004ea8:	00b18463          	beq	gp,a1,80004eb0 <inst_503>
    80004eac:	978fb06f          	j	80000024 <rvtest_error>

0000000080004eb0 <inst_503>:
    80004eb0:	66666537          	lui	a0,0x66666
    80004eb4:	66650513          	addi	a0,a0,1638 # 66666666 <absimmsh+0x5ab958b9>
    80004eb8:	00b51513          	slli	a0,a0,0xb
    80004ebc:	33350513          	addi	a0,a0,819
    80004ec0:	00b51513          	slli	a0,a0,0xb
    80004ec4:	19950513          	addi	a0,a0,409
    80004ec8:	00a51513          	slli	a0,a0,0xa
    80004ecc:	26550513          	addi	a0,a0,613
    80004ed0:	00653593          	sltiu	a1,a0,6
    80004ed4:	70b13423          	sd	a1,1800(sp)
    80004ed8:	00000193          	li	gp,0
    80004edc:	00b18463          	beq	gp,a1,80004ee4 <inst_504>
    80004ee0:	944fb06f          	j	80000024 <rvtest_error>

0000000080004ee4 <inst_504>:
    80004ee4:	66666537          	lui	a0,0x66666
    80004ee8:	66650513          	addi	a0,a0,1638 # 66666666 <absimmsh+0x5ab958b9>
    80004eec:	00b51513          	slli	a0,a0,0xb
    80004ef0:	33350513          	addi	a0,a0,819
    80004ef4:	00b51513          	slli	a0,a0,0xb
    80004ef8:	19950513          	addi	a0,a0,409
    80004efc:	00a51513          	slli	a0,a0,0xa
    80004f00:	26550513          	addi	a0,a0,613
    80004f04:	33453593          	sltiu	a1,a0,820
    80004f08:	70b13823          	sd	a1,1808(sp)
    80004f0c:	00000193          	li	gp,0
    80004f10:	00b18463          	beq	gp,a1,80004f18 <inst_505>
    80004f14:	910fb06f          	j	80000024 <rvtest_error>

0000000080004f18 <inst_505>:
    80004f18:	66666537          	lui	a0,0x66666
    80004f1c:	66650513          	addi	a0,a0,1638 # 66666666 <absimmsh+0x5ab958b9>
    80004f20:	00b51513          	slli	a0,a0,0xb
    80004f24:	33350513          	addi	a0,a0,819
    80004f28:	00b51513          	slli	a0,a0,0xb
    80004f2c:	19950513          	addi	a0,a0,409
    80004f30:	00a51513          	slli	a0,a0,0xa
    80004f34:	26550513          	addi	a0,a0,613
    80004f38:	66753593          	sltiu	a1,a0,1639
    80004f3c:	70b13c23          	sd	a1,1816(sp)
    80004f40:	00000193          	li	gp,0
    80004f44:	00b18463          	beq	gp,a1,80004f4c <inst_506>
    80004f48:	8dcfb06f          	j	80000024 <rvtest_error>

0000000080004f4c <inst_506>:
    80004f4c:	66666537          	lui	a0,0x66666
    80004f50:	66650513          	addi	a0,a0,1638 # 66666666 <absimmsh+0x5ab958b9>
    80004f54:	00b51513          	slli	a0,a0,0xb
    80004f58:	33350513          	addi	a0,a0,819
    80004f5c:	00b51513          	slli	a0,a0,0xb
    80004f60:	19950513          	addi	a0,a0,409
    80004f64:	00a51513          	slli	a0,a0,0xa
    80004f68:	26550513          	addi	a0,a0,613
    80004f6c:	02e53593          	sltiu	a1,a0,46
    80004f70:	72b13023          	sd	a1,1824(sp)
    80004f74:	00000193          	li	gp,0
    80004f78:	00b18463          	beq	gp,a1,80004f80 <inst_507>
    80004f7c:	8a8fb06f          	j	80000024 <rvtest_error>

0000000080004f80 <inst_507>:
    80004f80:	66666537          	lui	a0,0x66666
    80004f84:	66650513          	addi	a0,a0,1638 # 66666666 <absimmsh+0x5ab958b9>
    80004f88:	00b51513          	slli	a0,a0,0xb
    80004f8c:	33350513          	addi	a0,a0,819
    80004f90:	00b51513          	slli	a0,a0,0xb
    80004f94:	19950513          	addi	a0,a0,409
    80004f98:	00a51513          	slli	a0,a0,0xa
    80004f9c:	26550513          	addi	a0,a0,613
    80004fa0:	00153593          	seqz	a1,a0
    80004fa4:	72b13423          	sd	a1,1832(sp)
    80004fa8:	00000193          	li	gp,0
    80004fac:	00b18463          	beq	gp,a1,80004fb4 <inst_508>
    80004fb0:	874fb06f          	j	80000024 <rvtest_error>

0000000080004fb4 <inst_508>:
    80004fb4:	66666537          	lui	a0,0x66666
    80004fb8:	66650513          	addi	a0,a0,1638 # 66666666 <absimmsh+0x5ab958b9>
    80004fbc:	00b51513          	slli	a0,a0,0xb
    80004fc0:	33350513          	addi	a0,a0,819
    80004fc4:	00b51513          	slli	a0,a0,0xb
    80004fc8:	19950513          	addi	a0,a0,409
    80004fcc:	00a51513          	slli	a0,a0,0xa
    80004fd0:	26550513          	addi	a0,a0,613
    80004fd4:	04053593          	sltiu	a1,a0,64
    80004fd8:	72b13823          	sd	a1,1840(sp)
    80004fdc:	00000193          	li	gp,0
    80004fe0:	00b18463          	beq	gp,a1,80004fe8 <inst_509>
    80004fe4:	840fb06f          	j	80000024 <rvtest_error>

0000000080004fe8 <inst_509>:
    80004fe8:	00000537          	lui	a0,0x0
    80004fec:	00050513          	mv	a0,a0
    80004ff0:	00b51513          	slli	a0,a0,0xb
    80004ff4:	5a850513          	addi	a0,a0,1448 # 5a8 <pos+0x568>
    80004ff8:	00b51513          	slli	a0,a0,0xb
    80004ffc:	13c50513          	addi	a0,a0,316
    80005000:	00a51513          	slli	a0,a0,0xa
    80005004:	33250513          	addi	a0,a0,818
    80005008:	00353593          	sltiu	a1,a0,3
    8000500c:	72b13c23          	sd	a1,1848(sp)
    80005010:	00000193          	li	gp,0
    80005014:	00b18463          	beq	gp,a1,8000501c <inst_510>
    80005018:	80cfb06f          	j	80000024 <rvtest_error>

000000008000501c <inst_510>:
    8000501c:	00000537          	lui	a0,0x0
    80005020:	00050513          	mv	a0,a0
    80005024:	00b51513          	slli	a0,a0,0xb
    80005028:	5a850513          	addi	a0,a0,1448 # 5a8 <pos+0x568>
    8000502c:	00b51513          	slli	a0,a0,0xb
    80005030:	13c50513          	addi	a0,a0,316
    80005034:	00a51513          	slli	a0,a0,0xa
    80005038:	33250513          	addi	a0,a0,818
    8000503c:	55553593          	sltiu	a1,a0,1365
    80005040:	74b13023          	sd	a1,1856(sp)
    80005044:	00000193          	li	gp,0
    80005048:	00b18463          	beq	gp,a1,80005050 <inst_511>
    8000504c:	fd9fa06f          	j	80000024 <rvtest_error>

0000000080005050 <inst_511>:
    80005050:	00000537          	lui	a0,0x0
    80005054:	00050513          	mv	a0,a0
    80005058:	00b51513          	slli	a0,a0,0xb
    8000505c:	5a850513          	addi	a0,a0,1448 # 5a8 <pos+0x568>
    80005060:	00b51513          	slli	a0,a0,0xb
    80005064:	13c50513          	addi	a0,a0,316
    80005068:	00a51513          	slli	a0,a0,0xa
    8000506c:	33250513          	addi	a0,a0,818
    80005070:	aaa53593          	sltiu	a1,a0,-1366
    80005074:	74b13423          	sd	a1,1864(sp)
    80005078:	00100193          	li	gp,1
    8000507c:	00b18463          	beq	gp,a1,80005084 <inst_512>
    80005080:	fa5fa06f          	j	80000024 <rvtest_error>

0000000080005084 <inst_512>:
    80005084:	00000537          	lui	a0,0x0
    80005088:	00050513          	mv	a0,a0
    8000508c:	00b51513          	slli	a0,a0,0xb
    80005090:	5a850513          	addi	a0,a0,1448 # 5a8 <pos+0x568>
    80005094:	00b51513          	slli	a0,a0,0xb
    80005098:	13c50513          	addi	a0,a0,316
    8000509c:	00a51513          	slli	a0,a0,0xa
    800050a0:	33250513          	addi	a0,a0,818
    800050a4:	00553593          	sltiu	a1,a0,5
    800050a8:	74b13823          	sd	a1,1872(sp)
    800050ac:	00000193          	li	gp,0
    800050b0:	00b18463          	beq	gp,a1,800050b8 <inst_513>
    800050b4:	f71fa06f          	j	80000024 <rvtest_error>

00000000800050b8 <inst_513>:
    800050b8:	00000537          	lui	a0,0x0
    800050bc:	00050513          	mv	a0,a0
    800050c0:	00b51513          	slli	a0,a0,0xb
    800050c4:	5a850513          	addi	a0,a0,1448 # 5a8 <pos+0x568>
    800050c8:	00b51513          	slli	a0,a0,0xb
    800050cc:	13c50513          	addi	a0,a0,316
    800050d0:	00a51513          	slli	a0,a0,0xa
    800050d4:	33250513          	addi	a0,a0,818
    800050d8:	33353593          	sltiu	a1,a0,819
    800050dc:	74b13c23          	sd	a1,1880(sp)
    800050e0:	00000193          	li	gp,0
    800050e4:	00b18463          	beq	gp,a1,800050ec <inst_514>
    800050e8:	f3dfa06f          	j	80000024 <rvtest_error>

00000000800050ec <inst_514>:
    800050ec:	00000537          	lui	a0,0x0
    800050f0:	00050513          	mv	a0,a0
    800050f4:	00b51513          	slli	a0,a0,0xb
    800050f8:	5a850513          	addi	a0,a0,1448 # 5a8 <pos+0x568>
    800050fc:	00b51513          	slli	a0,a0,0xb
    80005100:	13c50513          	addi	a0,a0,316
    80005104:	00a51513          	slli	a0,a0,0xa
    80005108:	33250513          	addi	a0,a0,818
    8000510c:	66653593          	sltiu	a1,a0,1638
    80005110:	76b13023          	sd	a1,1888(sp)
    80005114:	00000193          	li	gp,0
    80005118:	00b18463          	beq	gp,a1,80005120 <inst_515>
    8000511c:	f09fa06f          	j	80000024 <rvtest_error>

0000000080005120 <inst_515>:
    80005120:	00000537          	lui	a0,0x0
    80005124:	00050513          	mv	a0,a0
    80005128:	00b51513          	slli	a0,a0,0xb
    8000512c:	5a850513          	addi	a0,a0,1448 # 5a8 <pos+0x568>
    80005130:	00b51513          	slli	a0,a0,0xb
    80005134:	13c50513          	addi	a0,a0,316
    80005138:	00a51513          	slli	a0,a0,0xa
    8000513c:	33250513          	addi	a0,a0,818
    80005140:	02d53593          	sltiu	a1,a0,45
    80005144:	76b13423          	sd	a1,1896(sp)
    80005148:	00000193          	li	gp,0
    8000514c:	00b18463          	beq	gp,a1,80005154 <inst_516>
    80005150:	ed5fa06f          	j	80000024 <rvtest_error>

0000000080005154 <inst_516>:
    80005154:	00000537          	lui	a0,0x0
    80005158:	00050513          	mv	a0,a0
    8000515c:	00b51513          	slli	a0,a0,0xb
    80005160:	5a850513          	addi	a0,a0,1448 # 5a8 <pos+0x568>
    80005164:	00b51513          	slli	a0,a0,0xb
    80005168:	13c50513          	addi	a0,a0,316
    8000516c:	00a51513          	slli	a0,a0,0xa
    80005170:	33250513          	addi	a0,a0,818
    80005174:	00053593          	sltiu	a1,a0,0
    80005178:	76b13823          	sd	a1,1904(sp)
    8000517c:	00000193          	li	gp,0
    80005180:	00b18463          	beq	gp,a1,80005188 <inst_517>
    80005184:	ea1fa06f          	j	80000024 <rvtest_error>

0000000080005188 <inst_517>:
    80005188:	00000537          	lui	a0,0x0
    8000518c:	00050513          	mv	a0,a0
    80005190:	00b51513          	slli	a0,a0,0xb
    80005194:	5a850513          	addi	a0,a0,1448 # 5a8 <pos+0x568>
    80005198:	00b51513          	slli	a0,a0,0xb
    8000519c:	13c50513          	addi	a0,a0,316
    800051a0:	00a51513          	slli	a0,a0,0xa
    800051a4:	33250513          	addi	a0,a0,818
    800051a8:	03f53593          	sltiu	a1,a0,63
    800051ac:	76b13c23          	sd	a1,1912(sp)
    800051b0:	00000193          	li	gp,0
    800051b4:	00b18463          	beq	gp,a1,800051bc <inst_518>
    800051b8:	e6dfa06f          	j	80000024 <rvtest_error>

00000000800051bc <inst_518>:
    800051bc:	00000537          	lui	a0,0x0
    800051c0:	00050513          	mv	a0,a0
    800051c4:	00b51513          	slli	a0,a0,0xb
    800051c8:	5a850513          	addi	a0,a0,1448 # 5a8 <pos+0x568>
    800051cc:	00b51513          	slli	a0,a0,0xb
    800051d0:	13c50513          	addi	a0,a0,316
    800051d4:	00a51513          	slli	a0,a0,0xa
    800051d8:	33250513          	addi	a0,a0,818
    800051dc:	00253593          	sltiu	a1,a0,2
    800051e0:	78b13023          	sd	a1,1920(sp)
    800051e4:	00000193          	li	gp,0
    800051e8:	00b18463          	beq	gp,a1,800051f0 <inst_519>
    800051ec:	e39fa06f          	j	80000024 <rvtest_error>

00000000800051f0 <inst_519>:
    800051f0:	00000537          	lui	a0,0x0
    800051f4:	00050513          	mv	a0,a0
    800051f8:	00b51513          	slli	a0,a0,0xb
    800051fc:	5a850513          	addi	a0,a0,1448 # 5a8 <pos+0x568>
    80005200:	00b51513          	slli	a0,a0,0xb
    80005204:	13c50513          	addi	a0,a0,316
    80005208:	00a51513          	slli	a0,a0,0xa
    8000520c:	33250513          	addi	a0,a0,818
    80005210:	55453593          	sltiu	a1,a0,1364
    80005214:	78b13423          	sd	a1,1928(sp)
    80005218:	00000193          	li	gp,0
    8000521c:	00b18463          	beq	gp,a1,80005224 <inst_520>
    80005220:	e05fa06f          	j	80000024 <rvtest_error>

0000000080005224 <inst_520>:
    80005224:	00000537          	lui	a0,0x0
    80005228:	00050513          	mv	a0,a0
    8000522c:	00b51513          	slli	a0,a0,0xb
    80005230:	5a850513          	addi	a0,a0,1448 # 5a8 <pos+0x568>
    80005234:	00b51513          	slli	a0,a0,0xb
    80005238:	13c50513          	addi	a0,a0,316
    8000523c:	00a51513          	slli	a0,a0,0xa
    80005240:	33250513          	addi	a0,a0,818
    80005244:	aa953593          	sltiu	a1,a0,-1367
    80005248:	78b13823          	sd	a1,1936(sp)
    8000524c:	00100193          	li	gp,1
    80005250:	00b18463          	beq	gp,a1,80005258 <inst_521>
    80005254:	dd1fa06f          	j	80000024 <rvtest_error>

0000000080005258 <inst_521>:
    80005258:	00000537          	lui	a0,0x0
    8000525c:	00050513          	mv	a0,a0
    80005260:	00b51513          	slli	a0,a0,0xb
    80005264:	5a850513          	addi	a0,a0,1448 # 5a8 <pos+0x568>
    80005268:	00b51513          	slli	a0,a0,0xb
    8000526c:	13c50513          	addi	a0,a0,316
    80005270:	00a51513          	slli	a0,a0,0xa
    80005274:	33250513          	addi	a0,a0,818
    80005278:	00453593          	sltiu	a1,a0,4
    8000527c:	78b13c23          	sd	a1,1944(sp)
    80005280:	00000193          	li	gp,0
    80005284:	00b18463          	beq	gp,a1,8000528c <inst_522>
    80005288:	d9dfa06f          	j	80000024 <rvtest_error>

000000008000528c <inst_522>:
    8000528c:	00000537          	lui	a0,0x0
    80005290:	00050513          	mv	a0,a0
    80005294:	00b51513          	slli	a0,a0,0xb
    80005298:	5a850513          	addi	a0,a0,1448 # 5a8 <pos+0x568>
    8000529c:	00b51513          	slli	a0,a0,0xb
    800052a0:	13c50513          	addi	a0,a0,316
    800052a4:	00a51513          	slli	a0,a0,0xa
    800052a8:	33250513          	addi	a0,a0,818
    800052ac:	33253593          	sltiu	a1,a0,818
    800052b0:	7ab13023          	sd	a1,1952(sp)
    800052b4:	00000193          	li	gp,0
    800052b8:	00b18463          	beq	gp,a1,800052c0 <inst_523>
    800052bc:	d69fa06f          	j	80000024 <rvtest_error>

00000000800052c0 <inst_523>:
    800052c0:	00000537          	lui	a0,0x0
    800052c4:	00050513          	mv	a0,a0
    800052c8:	00b51513          	slli	a0,a0,0xb
    800052cc:	5a850513          	addi	a0,a0,1448 # 5a8 <pos+0x568>
    800052d0:	00b51513          	slli	a0,a0,0xb
    800052d4:	13c50513          	addi	a0,a0,316
    800052d8:	00a51513          	slli	a0,a0,0xa
    800052dc:	33250513          	addi	a0,a0,818
    800052e0:	66553593          	sltiu	a1,a0,1637
    800052e4:	7ab13423          	sd	a1,1960(sp)
    800052e8:	00000193          	li	gp,0
    800052ec:	00b18463          	beq	gp,a1,800052f4 <inst_524>
    800052f0:	d35fa06f          	j	80000024 <rvtest_error>

00000000800052f4 <inst_524>:
    800052f4:	00000537          	lui	a0,0x0
    800052f8:	00050513          	mv	a0,a0
    800052fc:	00b51513          	slli	a0,a0,0xb
    80005300:	5a850513          	addi	a0,a0,1448 # 5a8 <pos+0x568>
    80005304:	00b51513          	slli	a0,a0,0xb
    80005308:	13c50513          	addi	a0,a0,316
    8000530c:	00a51513          	slli	a0,a0,0xa
    80005310:	33250513          	addi	a0,a0,818
    80005314:	02c53593          	sltiu	a1,a0,44
    80005318:	7ab13823          	sd	a1,1968(sp)
    8000531c:	00000193          	li	gp,0
    80005320:	00b18463          	beq	gp,a1,80005328 <inst_525>
    80005324:	d01fa06f          	j	80000024 <rvtest_error>

0000000080005328 <inst_525>:
    80005328:	00000537          	lui	a0,0x0
    8000532c:	00050513          	mv	a0,a0
    80005330:	00b51513          	slli	a0,a0,0xb
    80005334:	5a850513          	addi	a0,a0,1448 # 5a8 <pos+0x568>
    80005338:	00b51513          	slli	a0,a0,0xb
    8000533c:	13c50513          	addi	a0,a0,316
    80005340:	00a51513          	slli	a0,a0,0xa
    80005344:	33250513          	addi	a0,a0,818
    80005348:	03e53593          	sltiu	a1,a0,62
    8000534c:	7ab13c23          	sd	a1,1976(sp)
    80005350:	00000193          	li	gp,0
    80005354:	00b18463          	beq	gp,a1,8000535c <inst_526>
    80005358:	ccdfa06f          	j	80000024 <rvtest_error>

000000008000535c <inst_526>:
    8000535c:	00000537          	lui	a0,0x0
    80005360:	00050513          	mv	a0,a0
    80005364:	00b51513          	slli	a0,a0,0xb
    80005368:	5a850513          	addi	a0,a0,1448 # 5a8 <pos+0x568>
    8000536c:	00b51513          	slli	a0,a0,0xb
    80005370:	13c50513          	addi	a0,a0,316
    80005374:	00a51513          	slli	a0,a0,0xa
    80005378:	33250513          	addi	a0,a0,818
    8000537c:	55653593          	sltiu	a1,a0,1366
    80005380:	7cb13023          	sd	a1,1984(sp)
    80005384:	00000193          	li	gp,0
    80005388:	00b18463          	beq	gp,a1,80005390 <inst_527>
    8000538c:	c99fa06f          	j	80000024 <rvtest_error>

0000000080005390 <inst_527>:
    80005390:	00000537          	lui	a0,0x0
    80005394:	00050513          	mv	a0,a0
    80005398:	00b51513          	slli	a0,a0,0xb
    8000539c:	5a850513          	addi	a0,a0,1448 # 5a8 <pos+0x568>
    800053a0:	00b51513          	slli	a0,a0,0xb
    800053a4:	13c50513          	addi	a0,a0,316
    800053a8:	00a51513          	slli	a0,a0,0xa
    800053ac:	33250513          	addi	a0,a0,818
    800053b0:	aab53593          	sltiu	a1,a0,-1365
    800053b4:	7cb13423          	sd	a1,1992(sp)
    800053b8:	00100193          	li	gp,1
    800053bc:	00b18463          	beq	gp,a1,800053c4 <inst_528>
    800053c0:	c65fa06f          	j	80000024 <rvtest_error>

00000000800053c4 <inst_528>:
    800053c4:	00000537          	lui	a0,0x0
    800053c8:	00050513          	mv	a0,a0
    800053cc:	00b51513          	slli	a0,a0,0xb
    800053d0:	5a850513          	addi	a0,a0,1448 # 5a8 <pos+0x568>
    800053d4:	00b51513          	slli	a0,a0,0xb
    800053d8:	13c50513          	addi	a0,a0,316
    800053dc:	00a51513          	slli	a0,a0,0xa
    800053e0:	33250513          	addi	a0,a0,818
    800053e4:	00653593          	sltiu	a1,a0,6
    800053e8:	7cb13823          	sd	a1,2000(sp)
    800053ec:	00000193          	li	gp,0
    800053f0:	00b18463          	beq	gp,a1,800053f8 <inst_529>
    800053f4:	c31fa06f          	j	80000024 <rvtest_error>

00000000800053f8 <inst_529>:
    800053f8:	00000537          	lui	a0,0x0
    800053fc:	00050513          	mv	a0,a0
    80005400:	00b51513          	slli	a0,a0,0xb
    80005404:	5a850513          	addi	a0,a0,1448 # 5a8 <pos+0x568>
    80005408:	00b51513          	slli	a0,a0,0xb
    8000540c:	13c50513          	addi	a0,a0,316
    80005410:	00a51513          	slli	a0,a0,0xa
    80005414:	33250513          	addi	a0,a0,818
    80005418:	33453593          	sltiu	a1,a0,820
    8000541c:	7cb13c23          	sd	a1,2008(sp)
    80005420:	00000193          	li	gp,0
    80005424:	00b18463          	beq	gp,a1,8000542c <inst_530>
    80005428:	bfdfa06f          	j	80000024 <rvtest_error>

000000008000542c <inst_530>:
    8000542c:	00000537          	lui	a0,0x0
    80005430:	00050513          	mv	a0,a0
    80005434:	00b51513          	slli	a0,a0,0xb
    80005438:	5a850513          	addi	a0,a0,1448 # 5a8 <pos+0x568>
    8000543c:	00b51513          	slli	a0,a0,0xb
    80005440:	13c50513          	addi	a0,a0,316
    80005444:	00a51513          	slli	a0,a0,0xa
    80005448:	33250513          	addi	a0,a0,818
    8000544c:	66753593          	sltiu	a1,a0,1639
    80005450:	7eb13023          	sd	a1,2016(sp)
    80005454:	00000193          	li	gp,0
    80005458:	00b18463          	beq	gp,a1,80005460 <inst_531>
    8000545c:	bc9fa06f          	j	80000024 <rvtest_error>

0000000080005460 <inst_531>:
    80005460:	00000537          	lui	a0,0x0
    80005464:	00050513          	mv	a0,a0
    80005468:	00b51513          	slli	a0,a0,0xb
    8000546c:	5a850513          	addi	a0,a0,1448 # 5a8 <pos+0x568>
    80005470:	00b51513          	slli	a0,a0,0xb
    80005474:	13c50513          	addi	a0,a0,316
    80005478:	00a51513          	slli	a0,a0,0xa
    8000547c:	33250513          	addi	a0,a0,818
    80005480:	02e53593          	sltiu	a1,a0,46
    80005484:	7eb13423          	sd	a1,2024(sp)
    80005488:	00000193          	li	gp,0
    8000548c:	00b18463          	beq	gp,a1,80005494 <inst_532>
    80005490:	b95fa06f          	j	80000024 <rvtest_error>

0000000080005494 <inst_532>:
    80005494:	00000537          	lui	a0,0x0
    80005498:	00050513          	mv	a0,a0
    8000549c:	00b51513          	slli	a0,a0,0xb
    800054a0:	5a850513          	addi	a0,a0,1448 # 5a8 <pos+0x568>
    800054a4:	00b51513          	slli	a0,a0,0xb
    800054a8:	13c50513          	addi	a0,a0,316
    800054ac:	00a51513          	slli	a0,a0,0xa
    800054b0:	33250513          	addi	a0,a0,818
    800054b4:	00153593          	seqz	a1,a0
    800054b8:	7eb13823          	sd	a1,2032(sp)
    800054bc:	00000193          	li	gp,0
    800054c0:	00b18463          	beq	gp,a1,800054c8 <inst_533>
    800054c4:	b61fa06f          	j	80000024 <rvtest_error>

00000000800054c8 <inst_533>:
    800054c8:	00000537          	lui	a0,0x0
    800054cc:	00050513          	mv	a0,a0
    800054d0:	00b51513          	slli	a0,a0,0xb
    800054d4:	5a850513          	addi	a0,a0,1448 # 5a8 <pos+0x568>
    800054d8:	00b51513          	slli	a0,a0,0xb
    800054dc:	13c50513          	addi	a0,a0,316
    800054e0:	00a51513          	slli	a0,a0,0xa
    800054e4:	33250513          	addi	a0,a0,818
    800054e8:	04053593          	sltiu	a1,a0,64
    800054ec:	7eb13c23          	sd	a1,2040(sp)
    800054f0:	00000193          	li	gp,0
    800054f4:	00b18463          	beq	gp,a1,800054fc <inst_533+0x34>
    800054f8:	b2dfa06f          	j	80000024 <rvtest_error>
    800054fc:	00000013          	nop
    80005500:	00005117          	auipc	sp,0x5
    80005504:	bb810113          	addi	sp,sp,-1096 # 8000a0b8 <signature_x2_2>
    80005508:	00000013          	nop
    8000550c:	00000013          	nop
    80005510:	00000013          	nop
    80005514:	00000013          	nop
    80005518:	00000013          	nop
    8000551c:	00000013          	nop

0000000080005520 <inst_534>:
    80005520:	fff00513          	li	a0,-1
    80005524:	02055513          	srli	a0,a0,0x20
    80005528:	00353593          	sltiu	a1,a0,3
    8000552c:	00b13023          	sd	a1,0(sp)
    80005530:	00000193          	li	gp,0
    80005534:	00b18463          	beq	gp,a1,8000553c <inst_535>
    80005538:	aedfa06f          	j	80000024 <rvtest_error>

000000008000553c <inst_535>:
    8000553c:	fff00513          	li	a0,-1
    80005540:	02055513          	srli	a0,a0,0x20
    80005544:	55553593          	sltiu	a1,a0,1365
    80005548:	00b13423          	sd	a1,8(sp)
    8000554c:	00000193          	li	gp,0
    80005550:	00b18463          	beq	gp,a1,80005558 <inst_536>
    80005554:	ad1fa06f          	j	80000024 <rvtest_error>

0000000080005558 <inst_536>:
    80005558:	fff00513          	li	a0,-1
    8000555c:	02055513          	srli	a0,a0,0x20
    80005560:	aaa53593          	sltiu	a1,a0,-1366
    80005564:	00b13823          	sd	a1,16(sp)
    80005568:	00100193          	li	gp,1
    8000556c:	00b18463          	beq	gp,a1,80005574 <inst_537>
    80005570:	ab5fa06f          	j	80000024 <rvtest_error>

0000000080005574 <inst_537>:
    80005574:	fff00513          	li	a0,-1
    80005578:	02055513          	srli	a0,a0,0x20
    8000557c:	00553593          	sltiu	a1,a0,5
    80005580:	00b13c23          	sd	a1,24(sp)
    80005584:	00000193          	li	gp,0
    80005588:	00b18463          	beq	gp,a1,80005590 <inst_538>
    8000558c:	a99fa06f          	j	80000024 <rvtest_error>

0000000080005590 <inst_538>:
    80005590:	fff00513          	li	a0,-1
    80005594:	02055513          	srli	a0,a0,0x20
    80005598:	33353593          	sltiu	a1,a0,819
    8000559c:	02b13023          	sd	a1,32(sp)
    800055a0:	00000193          	li	gp,0
    800055a4:	00b18463          	beq	gp,a1,800055ac <inst_539>
    800055a8:	a7dfa06f          	j	80000024 <rvtest_error>

00000000800055ac <inst_539>:
    800055ac:	fff00513          	li	a0,-1
    800055b0:	02055513          	srli	a0,a0,0x20
    800055b4:	66653593          	sltiu	a1,a0,1638
    800055b8:	02b13423          	sd	a1,40(sp)
    800055bc:	00000193          	li	gp,0
    800055c0:	00b18463          	beq	gp,a1,800055c8 <inst_540>
    800055c4:	a61fa06f          	j	80000024 <rvtest_error>

00000000800055c8 <inst_540>:
    800055c8:	fff00513          	li	a0,-1
    800055cc:	02055513          	srli	a0,a0,0x20
    800055d0:	02d53593          	sltiu	a1,a0,45
    800055d4:	02b13823          	sd	a1,48(sp)
    800055d8:	00000193          	li	gp,0
    800055dc:	00b18463          	beq	gp,a1,800055e4 <inst_541>
    800055e0:	a45fa06f          	j	80000024 <rvtest_error>

00000000800055e4 <inst_541>:
    800055e4:	fff00513          	li	a0,-1
    800055e8:	02055513          	srli	a0,a0,0x20
    800055ec:	00053593          	sltiu	a1,a0,0
    800055f0:	02b13c23          	sd	a1,56(sp)
    800055f4:	00000193          	li	gp,0
    800055f8:	00b18463          	beq	gp,a1,80005600 <inst_542>
    800055fc:	a29fa06f          	j	80000024 <rvtest_error>

0000000080005600 <inst_542>:
    80005600:	fff00513          	li	a0,-1
    80005604:	02055513          	srli	a0,a0,0x20
    80005608:	03f53593          	sltiu	a1,a0,63
    8000560c:	04b13023          	sd	a1,64(sp)
    80005610:	00000193          	li	gp,0
    80005614:	00b18463          	beq	gp,a1,8000561c <inst_543>
    80005618:	a0dfa06f          	j	80000024 <rvtest_error>

000000008000561c <inst_543>:
    8000561c:	fff00513          	li	a0,-1
    80005620:	02055513          	srli	a0,a0,0x20
    80005624:	00253593          	sltiu	a1,a0,2
    80005628:	04b13423          	sd	a1,72(sp)
    8000562c:	00000193          	li	gp,0
    80005630:	00b18463          	beq	gp,a1,80005638 <inst_544>
    80005634:	9f1fa06f          	j	80000024 <rvtest_error>

0000000080005638 <inst_544>:
    80005638:	fff00513          	li	a0,-1
    8000563c:	02055513          	srli	a0,a0,0x20
    80005640:	55453593          	sltiu	a1,a0,1364
    80005644:	04b13823          	sd	a1,80(sp)
    80005648:	00000193          	li	gp,0
    8000564c:	00b18463          	beq	gp,a1,80005654 <inst_545>
    80005650:	9d5fa06f          	j	80000024 <rvtest_error>

0000000080005654 <inst_545>:
    80005654:	fff00513          	li	a0,-1
    80005658:	02055513          	srli	a0,a0,0x20
    8000565c:	aa953593          	sltiu	a1,a0,-1367
    80005660:	04b13c23          	sd	a1,88(sp)
    80005664:	00100193          	li	gp,1
    80005668:	00b18463          	beq	gp,a1,80005670 <inst_546>
    8000566c:	9b9fa06f          	j	80000024 <rvtest_error>

0000000080005670 <inst_546>:
    80005670:	fff00513          	li	a0,-1
    80005674:	02055513          	srli	a0,a0,0x20
    80005678:	00453593          	sltiu	a1,a0,4
    8000567c:	06b13023          	sd	a1,96(sp)
    80005680:	00000193          	li	gp,0
    80005684:	00b18463          	beq	gp,a1,8000568c <inst_547>
    80005688:	99dfa06f          	j	80000024 <rvtest_error>

000000008000568c <inst_547>:
    8000568c:	fff00513          	li	a0,-1
    80005690:	02055513          	srli	a0,a0,0x20
    80005694:	33253593          	sltiu	a1,a0,818
    80005698:	06b13423          	sd	a1,104(sp)
    8000569c:	00000193          	li	gp,0
    800056a0:	00b18463          	beq	gp,a1,800056a8 <inst_548>
    800056a4:	981fa06f          	j	80000024 <rvtest_error>

00000000800056a8 <inst_548>:
    800056a8:	fff00513          	li	a0,-1
    800056ac:	02055513          	srli	a0,a0,0x20
    800056b0:	66553593          	sltiu	a1,a0,1637
    800056b4:	06b13823          	sd	a1,112(sp)
    800056b8:	00000193          	li	gp,0
    800056bc:	00b18463          	beq	gp,a1,800056c4 <inst_549>
    800056c0:	965fa06f          	j	80000024 <rvtest_error>

00000000800056c4 <inst_549>:
    800056c4:	fff00513          	li	a0,-1
    800056c8:	02055513          	srli	a0,a0,0x20
    800056cc:	02c53593          	sltiu	a1,a0,44
    800056d0:	06b13c23          	sd	a1,120(sp)
    800056d4:	00000193          	li	gp,0
    800056d8:	00b18463          	beq	gp,a1,800056e0 <inst_550>
    800056dc:	949fa06f          	j	80000024 <rvtest_error>

00000000800056e0 <inst_550>:
    800056e0:	fff00513          	li	a0,-1
    800056e4:	02055513          	srli	a0,a0,0x20
    800056e8:	03e53593          	sltiu	a1,a0,62
    800056ec:	08b13023          	sd	a1,128(sp)
    800056f0:	00000193          	li	gp,0
    800056f4:	00b18463          	beq	gp,a1,800056fc <inst_551>
    800056f8:	92dfa06f          	j	80000024 <rvtest_error>

00000000800056fc <inst_551>:
    800056fc:	fff00513          	li	a0,-1
    80005700:	02055513          	srli	a0,a0,0x20
    80005704:	55653593          	sltiu	a1,a0,1366
    80005708:	08b13423          	sd	a1,136(sp)
    8000570c:	00000193          	li	gp,0
    80005710:	00b18463          	beq	gp,a1,80005718 <inst_552>
    80005714:	911fa06f          	j	80000024 <rvtest_error>

0000000080005718 <inst_552>:
    80005718:	fff00513          	li	a0,-1
    8000571c:	02055513          	srli	a0,a0,0x20
    80005720:	aab53593          	sltiu	a1,a0,-1365
    80005724:	08b13823          	sd	a1,144(sp)
    80005728:	00100193          	li	gp,1
    8000572c:	00b18463          	beq	gp,a1,80005734 <inst_553>
    80005730:	8f5fa06f          	j	80000024 <rvtest_error>

0000000080005734 <inst_553>:
    80005734:	fff00513          	li	a0,-1
    80005738:	02055513          	srli	a0,a0,0x20
    8000573c:	00653593          	sltiu	a1,a0,6
    80005740:	08b13c23          	sd	a1,152(sp)
    80005744:	00000193          	li	gp,0
    80005748:	00b18463          	beq	gp,a1,80005750 <inst_554>
    8000574c:	8d9fa06f          	j	80000024 <rvtest_error>

0000000080005750 <inst_554>:
    80005750:	fff00513          	li	a0,-1
    80005754:	02055513          	srli	a0,a0,0x20
    80005758:	33453593          	sltiu	a1,a0,820
    8000575c:	0ab13023          	sd	a1,160(sp)
    80005760:	00000193          	li	gp,0
    80005764:	00b18463          	beq	gp,a1,8000576c <inst_555>
    80005768:	8bdfa06f          	j	80000024 <rvtest_error>

000000008000576c <inst_555>:
    8000576c:	fff00513          	li	a0,-1
    80005770:	02055513          	srli	a0,a0,0x20
    80005774:	66753593          	sltiu	a1,a0,1639
    80005778:	0ab13423          	sd	a1,168(sp)
    8000577c:	00000193          	li	gp,0
    80005780:	00b18463          	beq	gp,a1,80005788 <inst_556>
    80005784:	8a1fa06f          	j	80000024 <rvtest_error>

0000000080005788 <inst_556>:
    80005788:	fff00513          	li	a0,-1
    8000578c:	02055513          	srli	a0,a0,0x20
    80005790:	02e53593          	sltiu	a1,a0,46
    80005794:	0ab13823          	sd	a1,176(sp)
    80005798:	00000193          	li	gp,0
    8000579c:	00b18463          	beq	gp,a1,800057a4 <inst_557>
    800057a0:	885fa06f          	j	80000024 <rvtest_error>

00000000800057a4 <inst_557>:
    800057a4:	fff00513          	li	a0,-1
    800057a8:	02055513          	srli	a0,a0,0x20
    800057ac:	00153593          	seqz	a1,a0
    800057b0:	0ab13c23          	sd	a1,184(sp)
    800057b4:	00000193          	li	gp,0
    800057b8:	00b18463          	beq	gp,a1,800057c0 <inst_558>
    800057bc:	869fa06f          	j	80000024 <rvtest_error>

00000000800057c0 <inst_558>:
    800057c0:	fff00513          	li	a0,-1
    800057c4:	02055513          	srli	a0,a0,0x20
    800057c8:	04053593          	sltiu	a1,a0,64
    800057cc:	0cb13023          	sd	a1,192(sp)
    800057d0:	00000193          	li	gp,0
    800057d4:	00b18463          	beq	gp,a1,800057dc <inst_559>
    800057d8:	84dfa06f          	j	80000024 <rvtest_error>

00000000800057dc <inst_559>:
    800057dc:	55555537          	lui	a0,0x55555
    800057e0:	55550513          	addi	a0,a0,1365 # 55555555 <absimmsh+0x49a847a8>
    800057e4:	00b51513          	slli	a0,a0,0xb
    800057e8:	2aa50513          	addi	a0,a0,682
    800057ec:	00b51513          	slli	a0,a0,0xb
    800057f0:	55550513          	addi	a0,a0,1365
    800057f4:	00a51513          	slli	a0,a0,0xa
    800057f8:	15650513          	addi	a0,a0,342
    800057fc:	00353593          	sltiu	a1,a0,3
    80005800:	0cb13423          	sd	a1,200(sp)
    80005804:	00000193          	li	gp,0
    80005808:	00b18463          	beq	gp,a1,80005810 <inst_560>
    8000580c:	819fa06f          	j	80000024 <rvtest_error>

0000000080005810 <inst_560>:
    80005810:	55555537          	lui	a0,0x55555
    80005814:	55550513          	addi	a0,a0,1365 # 55555555 <absimmsh+0x49a847a8>
    80005818:	00b51513          	slli	a0,a0,0xb
    8000581c:	2aa50513          	addi	a0,a0,682
    80005820:	00b51513          	slli	a0,a0,0xb
    80005824:	55550513          	addi	a0,a0,1365
    80005828:	00a51513          	slli	a0,a0,0xa
    8000582c:	15650513          	addi	a0,a0,342
    80005830:	55553593          	sltiu	a1,a0,1365
    80005834:	0cb13823          	sd	a1,208(sp)
    80005838:	00000193          	li	gp,0
    8000583c:	00b18463          	beq	gp,a1,80005844 <inst_561>
    80005840:	fe4fa06f          	j	80000024 <rvtest_error>

0000000080005844 <inst_561>:
    80005844:	55555537          	lui	a0,0x55555
    80005848:	55550513          	addi	a0,a0,1365 # 55555555 <absimmsh+0x49a847a8>
    8000584c:	00b51513          	slli	a0,a0,0xb
    80005850:	2aa50513          	addi	a0,a0,682
    80005854:	00b51513          	slli	a0,a0,0xb
    80005858:	55550513          	addi	a0,a0,1365
    8000585c:	00a51513          	slli	a0,a0,0xa
    80005860:	15650513          	addi	a0,a0,342
    80005864:	aaa53593          	sltiu	a1,a0,-1366
    80005868:	0cb13c23          	sd	a1,216(sp)
    8000586c:	00100193          	li	gp,1
    80005870:	00b18463          	beq	gp,a1,80005878 <inst_562>
    80005874:	fb0fa06f          	j	80000024 <rvtest_error>

0000000080005878 <inst_562>:
    80005878:	55555537          	lui	a0,0x55555
    8000587c:	55550513          	addi	a0,a0,1365 # 55555555 <absimmsh+0x49a847a8>
    80005880:	00b51513          	slli	a0,a0,0xb
    80005884:	2aa50513          	addi	a0,a0,682
    80005888:	00b51513          	slli	a0,a0,0xb
    8000588c:	55550513          	addi	a0,a0,1365
    80005890:	00a51513          	slli	a0,a0,0xa
    80005894:	15650513          	addi	a0,a0,342
    80005898:	00553593          	sltiu	a1,a0,5
    8000589c:	0eb13023          	sd	a1,224(sp)
    800058a0:	00000193          	li	gp,0
    800058a4:	00b18463          	beq	gp,a1,800058ac <inst_563>
    800058a8:	f7cfa06f          	j	80000024 <rvtest_error>

00000000800058ac <inst_563>:
    800058ac:	55555537          	lui	a0,0x55555
    800058b0:	55550513          	addi	a0,a0,1365 # 55555555 <absimmsh+0x49a847a8>
    800058b4:	00b51513          	slli	a0,a0,0xb
    800058b8:	2aa50513          	addi	a0,a0,682
    800058bc:	00b51513          	slli	a0,a0,0xb
    800058c0:	55550513          	addi	a0,a0,1365
    800058c4:	00a51513          	slli	a0,a0,0xa
    800058c8:	15650513          	addi	a0,a0,342
    800058cc:	33353593          	sltiu	a1,a0,819
    800058d0:	0eb13423          	sd	a1,232(sp)
    800058d4:	00000193          	li	gp,0
    800058d8:	00b18463          	beq	gp,a1,800058e0 <inst_564>
    800058dc:	f48fa06f          	j	80000024 <rvtest_error>

00000000800058e0 <inst_564>:
    800058e0:	55555537          	lui	a0,0x55555
    800058e4:	55550513          	addi	a0,a0,1365 # 55555555 <absimmsh+0x49a847a8>
    800058e8:	00b51513          	slli	a0,a0,0xb
    800058ec:	2aa50513          	addi	a0,a0,682
    800058f0:	00b51513          	slli	a0,a0,0xb
    800058f4:	55550513          	addi	a0,a0,1365
    800058f8:	00a51513          	slli	a0,a0,0xa
    800058fc:	15650513          	addi	a0,a0,342
    80005900:	66653593          	sltiu	a1,a0,1638
    80005904:	0eb13823          	sd	a1,240(sp)
    80005908:	00000193          	li	gp,0
    8000590c:	00b18463          	beq	gp,a1,80005914 <inst_565>
    80005910:	f14fa06f          	j	80000024 <rvtest_error>

0000000080005914 <inst_565>:
    80005914:	55555537          	lui	a0,0x55555
    80005918:	55550513          	addi	a0,a0,1365 # 55555555 <absimmsh+0x49a847a8>
    8000591c:	00b51513          	slli	a0,a0,0xb
    80005920:	2aa50513          	addi	a0,a0,682
    80005924:	00b51513          	slli	a0,a0,0xb
    80005928:	55550513          	addi	a0,a0,1365
    8000592c:	00a51513          	slli	a0,a0,0xa
    80005930:	15650513          	addi	a0,a0,342
    80005934:	02d53593          	sltiu	a1,a0,45
    80005938:	0eb13c23          	sd	a1,248(sp)
    8000593c:	00000193          	li	gp,0
    80005940:	00b18463          	beq	gp,a1,80005948 <inst_566>
    80005944:	ee0fa06f          	j	80000024 <rvtest_error>

0000000080005948 <inst_566>:
    80005948:	55555537          	lui	a0,0x55555
    8000594c:	55550513          	addi	a0,a0,1365 # 55555555 <absimmsh+0x49a847a8>
    80005950:	00b51513          	slli	a0,a0,0xb
    80005954:	2aa50513          	addi	a0,a0,682
    80005958:	00b51513          	slli	a0,a0,0xb
    8000595c:	55550513          	addi	a0,a0,1365
    80005960:	00a51513          	slli	a0,a0,0xa
    80005964:	15650513          	addi	a0,a0,342
    80005968:	00053593          	sltiu	a1,a0,0
    8000596c:	10b13023          	sd	a1,256(sp)
    80005970:	00000193          	li	gp,0
    80005974:	00b18463          	beq	gp,a1,8000597c <inst_567>
    80005978:	eacfa06f          	j	80000024 <rvtest_error>

000000008000597c <inst_567>:
    8000597c:	55555537          	lui	a0,0x55555
    80005980:	55550513          	addi	a0,a0,1365 # 55555555 <absimmsh+0x49a847a8>
    80005984:	00b51513          	slli	a0,a0,0xb
    80005988:	2aa50513          	addi	a0,a0,682
    8000598c:	00b51513          	slli	a0,a0,0xb
    80005990:	55550513          	addi	a0,a0,1365
    80005994:	00a51513          	slli	a0,a0,0xa
    80005998:	15650513          	addi	a0,a0,342
    8000599c:	03f53593          	sltiu	a1,a0,63
    800059a0:	10b13423          	sd	a1,264(sp)
    800059a4:	00000193          	li	gp,0
    800059a8:	00b18463          	beq	gp,a1,800059b0 <inst_568>
    800059ac:	e78fa06f          	j	80000024 <rvtest_error>

00000000800059b0 <inst_568>:
    800059b0:	55555537          	lui	a0,0x55555
    800059b4:	55550513          	addi	a0,a0,1365 # 55555555 <absimmsh+0x49a847a8>
    800059b8:	00b51513          	slli	a0,a0,0xb
    800059bc:	2aa50513          	addi	a0,a0,682
    800059c0:	00b51513          	slli	a0,a0,0xb
    800059c4:	55550513          	addi	a0,a0,1365
    800059c8:	00a51513          	slli	a0,a0,0xa
    800059cc:	15650513          	addi	a0,a0,342
    800059d0:	00253593          	sltiu	a1,a0,2
    800059d4:	10b13823          	sd	a1,272(sp)
    800059d8:	00000193          	li	gp,0
    800059dc:	00b18463          	beq	gp,a1,800059e4 <inst_569>
    800059e0:	e44fa06f          	j	80000024 <rvtest_error>

00000000800059e4 <inst_569>:
    800059e4:	55555537          	lui	a0,0x55555
    800059e8:	55550513          	addi	a0,a0,1365 # 55555555 <absimmsh+0x49a847a8>
    800059ec:	00b51513          	slli	a0,a0,0xb
    800059f0:	2aa50513          	addi	a0,a0,682
    800059f4:	00b51513          	slli	a0,a0,0xb
    800059f8:	55550513          	addi	a0,a0,1365
    800059fc:	00a51513          	slli	a0,a0,0xa
    80005a00:	15650513          	addi	a0,a0,342
    80005a04:	55453593          	sltiu	a1,a0,1364
    80005a08:	10b13c23          	sd	a1,280(sp)
    80005a0c:	00000193          	li	gp,0
    80005a10:	00b18463          	beq	gp,a1,80005a18 <inst_570>
    80005a14:	e10fa06f          	j	80000024 <rvtest_error>

0000000080005a18 <inst_570>:
    80005a18:	55555537          	lui	a0,0x55555
    80005a1c:	55550513          	addi	a0,a0,1365 # 55555555 <absimmsh+0x49a847a8>
    80005a20:	00b51513          	slli	a0,a0,0xb
    80005a24:	2aa50513          	addi	a0,a0,682
    80005a28:	00b51513          	slli	a0,a0,0xb
    80005a2c:	55550513          	addi	a0,a0,1365
    80005a30:	00a51513          	slli	a0,a0,0xa
    80005a34:	15650513          	addi	a0,a0,342
    80005a38:	aa953593          	sltiu	a1,a0,-1367
    80005a3c:	12b13023          	sd	a1,288(sp)
    80005a40:	00100193          	li	gp,1
    80005a44:	00b18463          	beq	gp,a1,80005a4c <inst_571>
    80005a48:	ddcfa06f          	j	80000024 <rvtest_error>

0000000080005a4c <inst_571>:
    80005a4c:	55555537          	lui	a0,0x55555
    80005a50:	55550513          	addi	a0,a0,1365 # 55555555 <absimmsh+0x49a847a8>
    80005a54:	00b51513          	slli	a0,a0,0xb
    80005a58:	2aa50513          	addi	a0,a0,682
    80005a5c:	00b51513          	slli	a0,a0,0xb
    80005a60:	55550513          	addi	a0,a0,1365
    80005a64:	00a51513          	slli	a0,a0,0xa
    80005a68:	15650513          	addi	a0,a0,342
    80005a6c:	00453593          	sltiu	a1,a0,4
    80005a70:	12b13423          	sd	a1,296(sp)
    80005a74:	00000193          	li	gp,0
    80005a78:	00b18463          	beq	gp,a1,80005a80 <inst_572>
    80005a7c:	da8fa06f          	j	80000024 <rvtest_error>

0000000080005a80 <inst_572>:
    80005a80:	55555537          	lui	a0,0x55555
    80005a84:	55550513          	addi	a0,a0,1365 # 55555555 <absimmsh+0x49a847a8>
    80005a88:	00b51513          	slli	a0,a0,0xb
    80005a8c:	2aa50513          	addi	a0,a0,682
    80005a90:	00b51513          	slli	a0,a0,0xb
    80005a94:	55550513          	addi	a0,a0,1365
    80005a98:	00a51513          	slli	a0,a0,0xa
    80005a9c:	15650513          	addi	a0,a0,342
    80005aa0:	33253593          	sltiu	a1,a0,818
    80005aa4:	12b13823          	sd	a1,304(sp)
    80005aa8:	00000193          	li	gp,0
    80005aac:	00b18463          	beq	gp,a1,80005ab4 <inst_573>
    80005ab0:	d74fa06f          	j	80000024 <rvtest_error>

0000000080005ab4 <inst_573>:
    80005ab4:	55555537          	lui	a0,0x55555
    80005ab8:	55550513          	addi	a0,a0,1365 # 55555555 <absimmsh+0x49a847a8>
    80005abc:	00b51513          	slli	a0,a0,0xb
    80005ac0:	2aa50513          	addi	a0,a0,682
    80005ac4:	00b51513          	slli	a0,a0,0xb
    80005ac8:	55550513          	addi	a0,a0,1365
    80005acc:	00a51513          	slli	a0,a0,0xa
    80005ad0:	15650513          	addi	a0,a0,342
    80005ad4:	66553593          	sltiu	a1,a0,1637
    80005ad8:	12b13c23          	sd	a1,312(sp)
    80005adc:	00000193          	li	gp,0
    80005ae0:	00b18463          	beq	gp,a1,80005ae8 <inst_574>
    80005ae4:	d40fa06f          	j	80000024 <rvtest_error>

0000000080005ae8 <inst_574>:
    80005ae8:	55555537          	lui	a0,0x55555
    80005aec:	55550513          	addi	a0,a0,1365 # 55555555 <absimmsh+0x49a847a8>
    80005af0:	00b51513          	slli	a0,a0,0xb
    80005af4:	2aa50513          	addi	a0,a0,682
    80005af8:	00b51513          	slli	a0,a0,0xb
    80005afc:	55550513          	addi	a0,a0,1365
    80005b00:	00a51513          	slli	a0,a0,0xa
    80005b04:	15650513          	addi	a0,a0,342
    80005b08:	02c53593          	sltiu	a1,a0,44
    80005b0c:	14b13023          	sd	a1,320(sp)
    80005b10:	00000193          	li	gp,0
    80005b14:	00b18463          	beq	gp,a1,80005b1c <inst_575>
    80005b18:	d0cfa06f          	j	80000024 <rvtest_error>

0000000080005b1c <inst_575>:
    80005b1c:	55555537          	lui	a0,0x55555
    80005b20:	55550513          	addi	a0,a0,1365 # 55555555 <absimmsh+0x49a847a8>
    80005b24:	00b51513          	slli	a0,a0,0xb
    80005b28:	2aa50513          	addi	a0,a0,682
    80005b2c:	00b51513          	slli	a0,a0,0xb
    80005b30:	55550513          	addi	a0,a0,1365
    80005b34:	00a51513          	slli	a0,a0,0xa
    80005b38:	15650513          	addi	a0,a0,342
    80005b3c:	03e53593          	sltiu	a1,a0,62
    80005b40:	14b13423          	sd	a1,328(sp)
    80005b44:	00000193          	li	gp,0
    80005b48:	00b18463          	beq	gp,a1,80005b50 <inst_576>
    80005b4c:	cd8fa06f          	j	80000024 <rvtest_error>

0000000080005b50 <inst_576>:
    80005b50:	55555537          	lui	a0,0x55555
    80005b54:	55550513          	addi	a0,a0,1365 # 55555555 <absimmsh+0x49a847a8>
    80005b58:	00b51513          	slli	a0,a0,0xb
    80005b5c:	2aa50513          	addi	a0,a0,682
    80005b60:	00b51513          	slli	a0,a0,0xb
    80005b64:	55550513          	addi	a0,a0,1365
    80005b68:	00a51513          	slli	a0,a0,0xa
    80005b6c:	15650513          	addi	a0,a0,342
    80005b70:	55653593          	sltiu	a1,a0,1366
    80005b74:	14b13823          	sd	a1,336(sp)
    80005b78:	00000193          	li	gp,0
    80005b7c:	00b18463          	beq	gp,a1,80005b84 <inst_577>
    80005b80:	ca4fa06f          	j	80000024 <rvtest_error>

0000000080005b84 <inst_577>:
    80005b84:	55555537          	lui	a0,0x55555
    80005b88:	55550513          	addi	a0,a0,1365 # 55555555 <absimmsh+0x49a847a8>
    80005b8c:	00b51513          	slli	a0,a0,0xb
    80005b90:	2aa50513          	addi	a0,a0,682
    80005b94:	00b51513          	slli	a0,a0,0xb
    80005b98:	55550513          	addi	a0,a0,1365
    80005b9c:	00a51513          	slli	a0,a0,0xa
    80005ba0:	15650513          	addi	a0,a0,342
    80005ba4:	aab53593          	sltiu	a1,a0,-1365
    80005ba8:	14b13c23          	sd	a1,344(sp)
    80005bac:	00100193          	li	gp,1
    80005bb0:	00b18463          	beq	gp,a1,80005bb8 <inst_578>
    80005bb4:	c70fa06f          	j	80000024 <rvtest_error>

0000000080005bb8 <inst_578>:
    80005bb8:	55555537          	lui	a0,0x55555
    80005bbc:	55550513          	addi	a0,a0,1365 # 55555555 <absimmsh+0x49a847a8>
    80005bc0:	00b51513          	slli	a0,a0,0xb
    80005bc4:	2aa50513          	addi	a0,a0,682
    80005bc8:	00b51513          	slli	a0,a0,0xb
    80005bcc:	55550513          	addi	a0,a0,1365
    80005bd0:	00a51513          	slli	a0,a0,0xa
    80005bd4:	15650513          	addi	a0,a0,342
    80005bd8:	00653593          	sltiu	a1,a0,6
    80005bdc:	16b13023          	sd	a1,352(sp)
    80005be0:	00000193          	li	gp,0
    80005be4:	00b18463          	beq	gp,a1,80005bec <inst_579>
    80005be8:	c3cfa06f          	j	80000024 <rvtest_error>

0000000080005bec <inst_579>:
    80005bec:	55555537          	lui	a0,0x55555
    80005bf0:	55550513          	addi	a0,a0,1365 # 55555555 <absimmsh+0x49a847a8>
    80005bf4:	00b51513          	slli	a0,a0,0xb
    80005bf8:	2aa50513          	addi	a0,a0,682
    80005bfc:	00b51513          	slli	a0,a0,0xb
    80005c00:	55550513          	addi	a0,a0,1365
    80005c04:	00a51513          	slli	a0,a0,0xa
    80005c08:	15650513          	addi	a0,a0,342
    80005c0c:	33453593          	sltiu	a1,a0,820
    80005c10:	16b13423          	sd	a1,360(sp)
    80005c14:	00000193          	li	gp,0
    80005c18:	00b18463          	beq	gp,a1,80005c20 <inst_580>
    80005c1c:	c08fa06f          	j	80000024 <rvtest_error>

0000000080005c20 <inst_580>:
    80005c20:	55555537          	lui	a0,0x55555
    80005c24:	55550513          	addi	a0,a0,1365 # 55555555 <absimmsh+0x49a847a8>
    80005c28:	00b51513          	slli	a0,a0,0xb
    80005c2c:	2aa50513          	addi	a0,a0,682
    80005c30:	00b51513          	slli	a0,a0,0xb
    80005c34:	55550513          	addi	a0,a0,1365
    80005c38:	00a51513          	slli	a0,a0,0xa
    80005c3c:	15650513          	addi	a0,a0,342
    80005c40:	66753593          	sltiu	a1,a0,1639
    80005c44:	16b13823          	sd	a1,368(sp)
    80005c48:	00000193          	li	gp,0
    80005c4c:	00b18463          	beq	gp,a1,80005c54 <inst_581>
    80005c50:	bd4fa06f          	j	80000024 <rvtest_error>

0000000080005c54 <inst_581>:
    80005c54:	55555537          	lui	a0,0x55555
    80005c58:	55550513          	addi	a0,a0,1365 # 55555555 <absimmsh+0x49a847a8>
    80005c5c:	00b51513          	slli	a0,a0,0xb
    80005c60:	2aa50513          	addi	a0,a0,682
    80005c64:	00b51513          	slli	a0,a0,0xb
    80005c68:	55550513          	addi	a0,a0,1365
    80005c6c:	00a51513          	slli	a0,a0,0xa
    80005c70:	15650513          	addi	a0,a0,342
    80005c74:	02e53593          	sltiu	a1,a0,46
    80005c78:	16b13c23          	sd	a1,376(sp)
    80005c7c:	00000193          	li	gp,0
    80005c80:	00b18463          	beq	gp,a1,80005c88 <inst_582>
    80005c84:	ba0fa06f          	j	80000024 <rvtest_error>

0000000080005c88 <inst_582>:
    80005c88:	55555537          	lui	a0,0x55555
    80005c8c:	55550513          	addi	a0,a0,1365 # 55555555 <absimmsh+0x49a847a8>
    80005c90:	00b51513          	slli	a0,a0,0xb
    80005c94:	2aa50513          	addi	a0,a0,682
    80005c98:	00b51513          	slli	a0,a0,0xb
    80005c9c:	55550513          	addi	a0,a0,1365
    80005ca0:	00a51513          	slli	a0,a0,0xa
    80005ca4:	15650513          	addi	a0,a0,342
    80005ca8:	00153593          	seqz	a1,a0
    80005cac:	18b13023          	sd	a1,384(sp)
    80005cb0:	00000193          	li	gp,0
    80005cb4:	00b18463          	beq	gp,a1,80005cbc <inst_583>
    80005cb8:	b6cfa06f          	j	80000024 <rvtest_error>

0000000080005cbc <inst_583>:
    80005cbc:	55555537          	lui	a0,0x55555
    80005cc0:	55550513          	addi	a0,a0,1365 # 55555555 <absimmsh+0x49a847a8>
    80005cc4:	00b51513          	slli	a0,a0,0xb
    80005cc8:	2aa50513          	addi	a0,a0,682
    80005ccc:	00b51513          	slli	a0,a0,0xb
    80005cd0:	55550513          	addi	a0,a0,1365
    80005cd4:	00a51513          	slli	a0,a0,0xa
    80005cd8:	15650513          	addi	a0,a0,342
    80005cdc:	04053593          	sltiu	a1,a0,64
    80005ce0:	18b13423          	sd	a1,392(sp)
    80005ce4:	00000193          	li	gp,0
    80005ce8:	00b18463          	beq	gp,a1,80005cf0 <inst_584>
    80005cec:	b38fa06f          	j	80000024 <rvtest_error>

0000000080005cf0 <inst_584>:
    80005cf0:	aaaab537          	lui	a0,0xaaaab
    80005cf4:	aaa50513          	addi	a0,a0,-1366 # ffffffffaaaaaaaa <absimm+0xfffffffeefd9cfda>
    80005cf8:	00b51513          	slli	a0,a0,0xb
    80005cfc:	55550513          	addi	a0,a0,1365
    80005d00:	00b51513          	slli	a0,a0,0xb
    80005d04:	2aa50513          	addi	a0,a0,682
    80005d08:	00a51513          	slli	a0,a0,0xa
    80005d0c:	2ab50513          	addi	a0,a0,683
    80005d10:	00353593          	sltiu	a1,a0,3
    80005d14:	18b13823          	sd	a1,400(sp)
    80005d18:	00000193          	li	gp,0
    80005d1c:	00b18463          	beq	gp,a1,80005d24 <inst_585>
    80005d20:	b04fa06f          	j	80000024 <rvtest_error>

0000000080005d24 <inst_585>:
    80005d24:	aaaab537          	lui	a0,0xaaaab
    80005d28:	aaa50513          	addi	a0,a0,-1366 # ffffffffaaaaaaaa <absimm+0xfffffffeefd9cfda>
    80005d2c:	00b51513          	slli	a0,a0,0xb
    80005d30:	55550513          	addi	a0,a0,1365
    80005d34:	00b51513          	slli	a0,a0,0xb
    80005d38:	2aa50513          	addi	a0,a0,682
    80005d3c:	00a51513          	slli	a0,a0,0xa
    80005d40:	2ab50513          	addi	a0,a0,683
    80005d44:	55553593          	sltiu	a1,a0,1365
    80005d48:	18b13c23          	sd	a1,408(sp)
    80005d4c:	00000193          	li	gp,0
    80005d50:	00b18463          	beq	gp,a1,80005d58 <inst_586>
    80005d54:	ad0fa06f          	j	80000024 <rvtest_error>

0000000080005d58 <inst_586>:
    80005d58:	aaaab537          	lui	a0,0xaaaab
    80005d5c:	aaa50513          	addi	a0,a0,-1366 # ffffffffaaaaaaaa <absimm+0xfffffffeefd9cfda>
    80005d60:	00b51513          	slli	a0,a0,0xb
    80005d64:	55550513          	addi	a0,a0,1365
    80005d68:	00b51513          	slli	a0,a0,0xb
    80005d6c:	2aa50513          	addi	a0,a0,682
    80005d70:	00a51513          	slli	a0,a0,0xa
    80005d74:	2ab50513          	addi	a0,a0,683
    80005d78:	aaa53593          	sltiu	a1,a0,-1366
    80005d7c:	1ab13023          	sd	a1,416(sp)
    80005d80:	00100193          	li	gp,1
    80005d84:	00b18463          	beq	gp,a1,80005d8c <inst_587>
    80005d88:	a9cfa06f          	j	80000024 <rvtest_error>

0000000080005d8c <inst_587>:
    80005d8c:	aaaab537          	lui	a0,0xaaaab
    80005d90:	aaa50513          	addi	a0,a0,-1366 # ffffffffaaaaaaaa <absimm+0xfffffffeefd9cfda>
    80005d94:	00b51513          	slli	a0,a0,0xb
    80005d98:	55550513          	addi	a0,a0,1365
    80005d9c:	00b51513          	slli	a0,a0,0xb
    80005da0:	2aa50513          	addi	a0,a0,682
    80005da4:	00a51513          	slli	a0,a0,0xa
    80005da8:	2ab50513          	addi	a0,a0,683
    80005dac:	00553593          	sltiu	a1,a0,5
    80005db0:	1ab13423          	sd	a1,424(sp)
    80005db4:	00000193          	li	gp,0
    80005db8:	00b18463          	beq	gp,a1,80005dc0 <inst_588>
    80005dbc:	a68fa06f          	j	80000024 <rvtest_error>

0000000080005dc0 <inst_588>:
    80005dc0:	aaaab537          	lui	a0,0xaaaab
    80005dc4:	aaa50513          	addi	a0,a0,-1366 # ffffffffaaaaaaaa <absimm+0xfffffffeefd9cfda>
    80005dc8:	00b51513          	slli	a0,a0,0xb
    80005dcc:	55550513          	addi	a0,a0,1365
    80005dd0:	00b51513          	slli	a0,a0,0xb
    80005dd4:	2aa50513          	addi	a0,a0,682
    80005dd8:	00a51513          	slli	a0,a0,0xa
    80005ddc:	2ab50513          	addi	a0,a0,683
    80005de0:	33353593          	sltiu	a1,a0,819
    80005de4:	1ab13823          	sd	a1,432(sp)
    80005de8:	00000193          	li	gp,0
    80005dec:	00b18463          	beq	gp,a1,80005df4 <inst_589>
    80005df0:	a34fa06f          	j	80000024 <rvtest_error>

0000000080005df4 <inst_589>:
    80005df4:	aaaab537          	lui	a0,0xaaaab
    80005df8:	aaa50513          	addi	a0,a0,-1366 # ffffffffaaaaaaaa <absimm+0xfffffffeefd9cfda>
    80005dfc:	00b51513          	slli	a0,a0,0xb
    80005e00:	55550513          	addi	a0,a0,1365
    80005e04:	00b51513          	slli	a0,a0,0xb
    80005e08:	2aa50513          	addi	a0,a0,682
    80005e0c:	00a51513          	slli	a0,a0,0xa
    80005e10:	2ab50513          	addi	a0,a0,683
    80005e14:	66653593          	sltiu	a1,a0,1638
    80005e18:	1ab13c23          	sd	a1,440(sp)
    80005e1c:	00000193          	li	gp,0
    80005e20:	00b18463          	beq	gp,a1,80005e28 <inst_590>
    80005e24:	a00fa06f          	j	80000024 <rvtest_error>

0000000080005e28 <inst_590>:
    80005e28:	aaaab537          	lui	a0,0xaaaab
    80005e2c:	aaa50513          	addi	a0,a0,-1366 # ffffffffaaaaaaaa <absimm+0xfffffffeefd9cfda>
    80005e30:	00b51513          	slli	a0,a0,0xb
    80005e34:	55550513          	addi	a0,a0,1365
    80005e38:	00b51513          	slli	a0,a0,0xb
    80005e3c:	2aa50513          	addi	a0,a0,682
    80005e40:	00a51513          	slli	a0,a0,0xa
    80005e44:	2ab50513          	addi	a0,a0,683
    80005e48:	02d53593          	sltiu	a1,a0,45
    80005e4c:	1cb13023          	sd	a1,448(sp)
    80005e50:	00000193          	li	gp,0
    80005e54:	00b18463          	beq	gp,a1,80005e5c <inst_591>
    80005e58:	9ccfa06f          	j	80000024 <rvtest_error>

0000000080005e5c <inst_591>:
    80005e5c:	aaaab537          	lui	a0,0xaaaab
    80005e60:	aaa50513          	addi	a0,a0,-1366 # ffffffffaaaaaaaa <absimm+0xfffffffeefd9cfda>
    80005e64:	00b51513          	slli	a0,a0,0xb
    80005e68:	55550513          	addi	a0,a0,1365
    80005e6c:	00b51513          	slli	a0,a0,0xb
    80005e70:	2aa50513          	addi	a0,a0,682
    80005e74:	00a51513          	slli	a0,a0,0xa
    80005e78:	2ab50513          	addi	a0,a0,683
    80005e7c:	00053593          	sltiu	a1,a0,0
    80005e80:	1cb13423          	sd	a1,456(sp)
    80005e84:	00000193          	li	gp,0
    80005e88:	00b18463          	beq	gp,a1,80005e90 <inst_592>
    80005e8c:	998fa06f          	j	80000024 <rvtest_error>

0000000080005e90 <inst_592>:
    80005e90:	aaaab537          	lui	a0,0xaaaab
    80005e94:	aaa50513          	addi	a0,a0,-1366 # ffffffffaaaaaaaa <absimm+0xfffffffeefd9cfda>
    80005e98:	00b51513          	slli	a0,a0,0xb
    80005e9c:	55550513          	addi	a0,a0,1365
    80005ea0:	00b51513          	slli	a0,a0,0xb
    80005ea4:	2aa50513          	addi	a0,a0,682
    80005ea8:	00a51513          	slli	a0,a0,0xa
    80005eac:	2ab50513          	addi	a0,a0,683
    80005eb0:	03f53593          	sltiu	a1,a0,63
    80005eb4:	1cb13823          	sd	a1,464(sp)
    80005eb8:	00000193          	li	gp,0
    80005ebc:	00b18463          	beq	gp,a1,80005ec4 <inst_593>
    80005ec0:	964fa06f          	j	80000024 <rvtest_error>

0000000080005ec4 <inst_593>:
    80005ec4:	aaaab537          	lui	a0,0xaaaab
    80005ec8:	aaa50513          	addi	a0,a0,-1366 # ffffffffaaaaaaaa <absimm+0xfffffffeefd9cfda>
    80005ecc:	00b51513          	slli	a0,a0,0xb
    80005ed0:	55550513          	addi	a0,a0,1365
    80005ed4:	00b51513          	slli	a0,a0,0xb
    80005ed8:	2aa50513          	addi	a0,a0,682
    80005edc:	00a51513          	slli	a0,a0,0xa
    80005ee0:	2ab50513          	addi	a0,a0,683
    80005ee4:	00253593          	sltiu	a1,a0,2
    80005ee8:	1cb13c23          	sd	a1,472(sp)
    80005eec:	00000193          	li	gp,0
    80005ef0:	00b18463          	beq	gp,a1,80005ef8 <inst_594>
    80005ef4:	930fa06f          	j	80000024 <rvtest_error>

0000000080005ef8 <inst_594>:
    80005ef8:	aaaab537          	lui	a0,0xaaaab
    80005efc:	aaa50513          	addi	a0,a0,-1366 # ffffffffaaaaaaaa <absimm+0xfffffffeefd9cfda>
    80005f00:	00b51513          	slli	a0,a0,0xb
    80005f04:	55550513          	addi	a0,a0,1365
    80005f08:	00b51513          	slli	a0,a0,0xb
    80005f0c:	2aa50513          	addi	a0,a0,682
    80005f10:	00a51513          	slli	a0,a0,0xa
    80005f14:	2ab50513          	addi	a0,a0,683
    80005f18:	55453593          	sltiu	a1,a0,1364
    80005f1c:	1eb13023          	sd	a1,480(sp)
    80005f20:	00000193          	li	gp,0
    80005f24:	00b18463          	beq	gp,a1,80005f2c <inst_595>
    80005f28:	8fcfa06f          	j	80000024 <rvtest_error>

0000000080005f2c <inst_595>:
    80005f2c:	aaaab537          	lui	a0,0xaaaab
    80005f30:	aaa50513          	addi	a0,a0,-1366 # ffffffffaaaaaaaa <absimm+0xfffffffeefd9cfda>
    80005f34:	00b51513          	slli	a0,a0,0xb
    80005f38:	55550513          	addi	a0,a0,1365
    80005f3c:	00b51513          	slli	a0,a0,0xb
    80005f40:	2aa50513          	addi	a0,a0,682
    80005f44:	00a51513          	slli	a0,a0,0xa
    80005f48:	2ab50513          	addi	a0,a0,683
    80005f4c:	aa953593          	sltiu	a1,a0,-1367
    80005f50:	1eb13423          	sd	a1,488(sp)
    80005f54:	00100193          	li	gp,1
    80005f58:	00b18463          	beq	gp,a1,80005f60 <inst_596>
    80005f5c:	8c8fa06f          	j	80000024 <rvtest_error>

0000000080005f60 <inst_596>:
    80005f60:	aaaab537          	lui	a0,0xaaaab
    80005f64:	aaa50513          	addi	a0,a0,-1366 # ffffffffaaaaaaaa <absimm+0xfffffffeefd9cfda>
    80005f68:	00b51513          	slli	a0,a0,0xb
    80005f6c:	55550513          	addi	a0,a0,1365
    80005f70:	00b51513          	slli	a0,a0,0xb
    80005f74:	2aa50513          	addi	a0,a0,682
    80005f78:	00a51513          	slli	a0,a0,0xa
    80005f7c:	2ab50513          	addi	a0,a0,683
    80005f80:	00453593          	sltiu	a1,a0,4
    80005f84:	1eb13823          	sd	a1,496(sp)
    80005f88:	00000193          	li	gp,0
    80005f8c:	00b18463          	beq	gp,a1,80005f94 <inst_597>
    80005f90:	894fa06f          	j	80000024 <rvtest_error>

0000000080005f94 <inst_597>:
    80005f94:	aaaab537          	lui	a0,0xaaaab
    80005f98:	aaa50513          	addi	a0,a0,-1366 # ffffffffaaaaaaaa <absimm+0xfffffffeefd9cfda>
    80005f9c:	00b51513          	slli	a0,a0,0xb
    80005fa0:	55550513          	addi	a0,a0,1365
    80005fa4:	00b51513          	slli	a0,a0,0xb
    80005fa8:	2aa50513          	addi	a0,a0,682
    80005fac:	00a51513          	slli	a0,a0,0xa
    80005fb0:	2ab50513          	addi	a0,a0,683
    80005fb4:	33253593          	sltiu	a1,a0,818
    80005fb8:	1eb13c23          	sd	a1,504(sp)
    80005fbc:	00000193          	li	gp,0
    80005fc0:	00b18463          	beq	gp,a1,80005fc8 <inst_598>
    80005fc4:	860fa06f          	j	80000024 <rvtest_error>

0000000080005fc8 <inst_598>:
    80005fc8:	aaaab537          	lui	a0,0xaaaab
    80005fcc:	aaa50513          	addi	a0,a0,-1366 # ffffffffaaaaaaaa <absimm+0xfffffffeefd9cfda>
    80005fd0:	00b51513          	slli	a0,a0,0xb
    80005fd4:	55550513          	addi	a0,a0,1365
    80005fd8:	00b51513          	slli	a0,a0,0xb
    80005fdc:	2aa50513          	addi	a0,a0,682
    80005fe0:	00a51513          	slli	a0,a0,0xa
    80005fe4:	2ab50513          	addi	a0,a0,683
    80005fe8:	66553593          	sltiu	a1,a0,1637
    80005fec:	20b13023          	sd	a1,512(sp)
    80005ff0:	00000193          	li	gp,0
    80005ff4:	00b18463          	beq	gp,a1,80005ffc <inst_599>
    80005ff8:	82cfa06f          	j	80000024 <rvtest_error>

0000000080005ffc <inst_599>:
    80005ffc:	aaaab537          	lui	a0,0xaaaab
    80006000:	aaa50513          	addi	a0,a0,-1366 # ffffffffaaaaaaaa <absimm+0xfffffffeefd9cfda>
    80006004:	00b51513          	slli	a0,a0,0xb
    80006008:	55550513          	addi	a0,a0,1365
    8000600c:	00b51513          	slli	a0,a0,0xb
    80006010:	2aa50513          	addi	a0,a0,682
    80006014:	00a51513          	slli	a0,a0,0xa
    80006018:	2ab50513          	addi	a0,a0,683
    8000601c:	02c53593          	sltiu	a1,a0,44
    80006020:	20b13423          	sd	a1,520(sp)
    80006024:	00000193          	li	gp,0
    80006028:	00b18463          	beq	gp,a1,80006030 <inst_600>
    8000602c:	ff9f906f          	j	80000024 <rvtest_error>

0000000080006030 <inst_600>:
    80006030:	aaaab537          	lui	a0,0xaaaab
    80006034:	aaa50513          	addi	a0,a0,-1366 # ffffffffaaaaaaaa <absimm+0xfffffffeefd9cfda>
    80006038:	00b51513          	slli	a0,a0,0xb
    8000603c:	55550513          	addi	a0,a0,1365
    80006040:	00b51513          	slli	a0,a0,0xb
    80006044:	2aa50513          	addi	a0,a0,682
    80006048:	00a51513          	slli	a0,a0,0xa
    8000604c:	2ab50513          	addi	a0,a0,683
    80006050:	03e53593          	sltiu	a1,a0,62
    80006054:	20b13823          	sd	a1,528(sp)
    80006058:	00000193          	li	gp,0
    8000605c:	00b18463          	beq	gp,a1,80006064 <inst_601>
    80006060:	fc5f906f          	j	80000024 <rvtest_error>

0000000080006064 <inst_601>:
    80006064:	aaaab537          	lui	a0,0xaaaab
    80006068:	aaa50513          	addi	a0,a0,-1366 # ffffffffaaaaaaaa <absimm+0xfffffffeefd9cfda>
    8000606c:	00b51513          	slli	a0,a0,0xb
    80006070:	55550513          	addi	a0,a0,1365
    80006074:	00b51513          	slli	a0,a0,0xb
    80006078:	2aa50513          	addi	a0,a0,682
    8000607c:	00a51513          	slli	a0,a0,0xa
    80006080:	2ab50513          	addi	a0,a0,683
    80006084:	55653593          	sltiu	a1,a0,1366
    80006088:	20b13c23          	sd	a1,536(sp)
    8000608c:	00000193          	li	gp,0
    80006090:	00b18463          	beq	gp,a1,80006098 <inst_602>
    80006094:	f91f906f          	j	80000024 <rvtest_error>

0000000080006098 <inst_602>:
    80006098:	aaaab537          	lui	a0,0xaaaab
    8000609c:	aaa50513          	addi	a0,a0,-1366 # ffffffffaaaaaaaa <absimm+0xfffffffeefd9cfda>
    800060a0:	00b51513          	slli	a0,a0,0xb
    800060a4:	55550513          	addi	a0,a0,1365
    800060a8:	00b51513          	slli	a0,a0,0xb
    800060ac:	2aa50513          	addi	a0,a0,682
    800060b0:	00a51513          	slli	a0,a0,0xa
    800060b4:	2ab50513          	addi	a0,a0,683
    800060b8:	aab53593          	sltiu	a1,a0,-1365
    800060bc:	22b13023          	sd	a1,544(sp)
    800060c0:	00100193          	li	gp,1
    800060c4:	00b18463          	beq	gp,a1,800060cc <inst_603>
    800060c8:	f5df906f          	j	80000024 <rvtest_error>

00000000800060cc <inst_603>:
    800060cc:	aaaab537          	lui	a0,0xaaaab
    800060d0:	aaa50513          	addi	a0,a0,-1366 # ffffffffaaaaaaaa <absimm+0xfffffffeefd9cfda>
    800060d4:	00b51513          	slli	a0,a0,0xb
    800060d8:	55550513          	addi	a0,a0,1365
    800060dc:	00b51513          	slli	a0,a0,0xb
    800060e0:	2aa50513          	addi	a0,a0,682
    800060e4:	00a51513          	slli	a0,a0,0xa
    800060e8:	2ab50513          	addi	a0,a0,683
    800060ec:	00653593          	sltiu	a1,a0,6
    800060f0:	22b13423          	sd	a1,552(sp)
    800060f4:	00000193          	li	gp,0
    800060f8:	00b18463          	beq	gp,a1,80006100 <inst_604>
    800060fc:	f29f906f          	j	80000024 <rvtest_error>

0000000080006100 <inst_604>:
    80006100:	aaaab537          	lui	a0,0xaaaab
    80006104:	aaa50513          	addi	a0,a0,-1366 # ffffffffaaaaaaaa <absimm+0xfffffffeefd9cfda>
    80006108:	00b51513          	slli	a0,a0,0xb
    8000610c:	55550513          	addi	a0,a0,1365
    80006110:	00b51513          	slli	a0,a0,0xb
    80006114:	2aa50513          	addi	a0,a0,682
    80006118:	00a51513          	slli	a0,a0,0xa
    8000611c:	2ab50513          	addi	a0,a0,683
    80006120:	33453593          	sltiu	a1,a0,820
    80006124:	22b13823          	sd	a1,560(sp)
    80006128:	00000193          	li	gp,0
    8000612c:	00b18463          	beq	gp,a1,80006134 <inst_605>
    80006130:	ef5f906f          	j	80000024 <rvtest_error>

0000000080006134 <inst_605>:
    80006134:	aaaab537          	lui	a0,0xaaaab
    80006138:	aaa50513          	addi	a0,a0,-1366 # ffffffffaaaaaaaa <absimm+0xfffffffeefd9cfda>
    8000613c:	00b51513          	slli	a0,a0,0xb
    80006140:	55550513          	addi	a0,a0,1365
    80006144:	00b51513          	slli	a0,a0,0xb
    80006148:	2aa50513          	addi	a0,a0,682
    8000614c:	00a51513          	slli	a0,a0,0xa
    80006150:	2ab50513          	addi	a0,a0,683
    80006154:	66753593          	sltiu	a1,a0,1639
    80006158:	22b13c23          	sd	a1,568(sp)
    8000615c:	00000193          	li	gp,0
    80006160:	00b18463          	beq	gp,a1,80006168 <inst_606>
    80006164:	ec1f906f          	j	80000024 <rvtest_error>

0000000080006168 <inst_606>:
    80006168:	aaaab537          	lui	a0,0xaaaab
    8000616c:	aaa50513          	addi	a0,a0,-1366 # ffffffffaaaaaaaa <absimm+0xfffffffeefd9cfda>
    80006170:	00b51513          	slli	a0,a0,0xb
    80006174:	55550513          	addi	a0,a0,1365
    80006178:	00b51513          	slli	a0,a0,0xb
    8000617c:	2aa50513          	addi	a0,a0,682
    80006180:	00a51513          	slli	a0,a0,0xa
    80006184:	2ab50513          	addi	a0,a0,683
    80006188:	02e53593          	sltiu	a1,a0,46
    8000618c:	24b13023          	sd	a1,576(sp)
    80006190:	00000193          	li	gp,0
    80006194:	00b18463          	beq	gp,a1,8000619c <inst_607>
    80006198:	e8df906f          	j	80000024 <rvtest_error>

000000008000619c <inst_607>:
    8000619c:	aaaab537          	lui	a0,0xaaaab
    800061a0:	aaa50513          	addi	a0,a0,-1366 # ffffffffaaaaaaaa <absimm+0xfffffffeefd9cfda>
    800061a4:	00b51513          	slli	a0,a0,0xb
    800061a8:	55550513          	addi	a0,a0,1365
    800061ac:	00b51513          	slli	a0,a0,0xb
    800061b0:	2aa50513          	addi	a0,a0,682
    800061b4:	00a51513          	slli	a0,a0,0xa
    800061b8:	2ab50513          	addi	a0,a0,683
    800061bc:	00153593          	seqz	a1,a0
    800061c0:	24b13423          	sd	a1,584(sp)
    800061c4:	00000193          	li	gp,0
    800061c8:	00b18463          	beq	gp,a1,800061d0 <inst_608>
    800061cc:	e59f906f          	j	80000024 <rvtest_error>

00000000800061d0 <inst_608>:
    800061d0:	aaaab537          	lui	a0,0xaaaab
    800061d4:	aaa50513          	addi	a0,a0,-1366 # ffffffffaaaaaaaa <absimm+0xfffffffeefd9cfda>
    800061d8:	00b51513          	slli	a0,a0,0xb
    800061dc:	55550513          	addi	a0,a0,1365
    800061e0:	00b51513          	slli	a0,a0,0xb
    800061e4:	2aa50513          	addi	a0,a0,682
    800061e8:	00a51513          	slli	a0,a0,0xa
    800061ec:	2ab50513          	addi	a0,a0,683
    800061f0:	04053593          	sltiu	a1,a0,64
    800061f4:	24b13823          	sd	a1,592(sp)
    800061f8:	00000193          	li	gp,0
    800061fc:	00b18463          	beq	gp,a1,80006204 <inst_609>
    80006200:	e25f906f          	j	80000024 <rvtest_error>

0000000080006204 <inst_609>:
    80006204:	00600513          	li	a0,6
    80006208:	00353593          	sltiu	a1,a0,3
    8000620c:	24b13c23          	sd	a1,600(sp)
    80006210:	00000193          	li	gp,0
    80006214:	00b18463          	beq	gp,a1,8000621c <inst_610>
    80006218:	e0df906f          	j	80000024 <rvtest_error>

000000008000621c <inst_610>:
    8000621c:	00600513          	li	a0,6
    80006220:	55553593          	sltiu	a1,a0,1365
    80006224:	26b13023          	sd	a1,608(sp)
    80006228:	00100193          	li	gp,1
    8000622c:	00b18463          	beq	gp,a1,80006234 <inst_611>
    80006230:	df5f906f          	j	80000024 <rvtest_error>

0000000080006234 <inst_611>:
    80006234:	00600513          	li	a0,6
    80006238:	aaa53593          	sltiu	a1,a0,-1366
    8000623c:	26b13423          	sd	a1,616(sp)
    80006240:	00100193          	li	gp,1
    80006244:	00b18463          	beq	gp,a1,8000624c <inst_612>
    80006248:	dddf906f          	j	80000024 <rvtest_error>

000000008000624c <inst_612>:
    8000624c:	00600513          	li	a0,6
    80006250:	00553593          	sltiu	a1,a0,5
    80006254:	26b13823          	sd	a1,624(sp)
    80006258:	00000193          	li	gp,0
    8000625c:	00b18463          	beq	gp,a1,80006264 <inst_613>
    80006260:	dc5f906f          	j	80000024 <rvtest_error>

0000000080006264 <inst_613>:
    80006264:	00600513          	li	a0,6
    80006268:	33353593          	sltiu	a1,a0,819
    8000626c:	26b13c23          	sd	a1,632(sp)
    80006270:	00100193          	li	gp,1
    80006274:	00b18463          	beq	gp,a1,8000627c <inst_614>
    80006278:	dadf906f          	j	80000024 <rvtest_error>

000000008000627c <inst_614>:
    8000627c:	00600513          	li	a0,6
    80006280:	66653593          	sltiu	a1,a0,1638
    80006284:	28b13023          	sd	a1,640(sp)
    80006288:	00100193          	li	gp,1
    8000628c:	00b18463          	beq	gp,a1,80006294 <inst_615>
    80006290:	d95f906f          	j	80000024 <rvtest_error>

0000000080006294 <inst_615>:
    80006294:	00600513          	li	a0,6
    80006298:	02d53593          	sltiu	a1,a0,45
    8000629c:	28b13423          	sd	a1,648(sp)
    800062a0:	00100193          	li	gp,1
    800062a4:	00b18463          	beq	gp,a1,800062ac <inst_616>
    800062a8:	d7df906f          	j	80000024 <rvtest_error>

00000000800062ac <inst_616>:
    800062ac:	00600513          	li	a0,6
    800062b0:	00053593          	sltiu	a1,a0,0
    800062b4:	28b13823          	sd	a1,656(sp)
    800062b8:	00000193          	li	gp,0
    800062bc:	00b18463          	beq	gp,a1,800062c4 <inst_617>
    800062c0:	d65f906f          	j	80000024 <rvtest_error>

00000000800062c4 <inst_617>:
    800062c4:	00600513          	li	a0,6
    800062c8:	03f53593          	sltiu	a1,a0,63
    800062cc:	28b13c23          	sd	a1,664(sp)
    800062d0:	00100193          	li	gp,1
    800062d4:	00b18463          	beq	gp,a1,800062dc <inst_618>
    800062d8:	d4df906f          	j	80000024 <rvtest_error>

00000000800062dc <inst_618>:
    800062dc:	00600513          	li	a0,6
    800062e0:	00253593          	sltiu	a1,a0,2
    800062e4:	2ab13023          	sd	a1,672(sp)
    800062e8:	00000193          	li	gp,0
    800062ec:	00b18463          	beq	gp,a1,800062f4 <inst_619>
    800062f0:	d35f906f          	j	80000024 <rvtest_error>

00000000800062f4 <inst_619>:
    800062f4:	00600513          	li	a0,6
    800062f8:	55453593          	sltiu	a1,a0,1364
    800062fc:	2ab13423          	sd	a1,680(sp)
    80006300:	00100193          	li	gp,1
    80006304:	00b18463          	beq	gp,a1,8000630c <inst_620>
    80006308:	d1df906f          	j	80000024 <rvtest_error>

000000008000630c <inst_620>:
    8000630c:	00600513          	li	a0,6
    80006310:	aa953593          	sltiu	a1,a0,-1367
    80006314:	2ab13823          	sd	a1,688(sp)
    80006318:	00100193          	li	gp,1
    8000631c:	00b18463          	beq	gp,a1,80006324 <inst_621>
    80006320:	d05f906f          	j	80000024 <rvtest_error>

0000000080006324 <inst_621>:
    80006324:	00600513          	li	a0,6
    80006328:	00453593          	sltiu	a1,a0,4
    8000632c:	2ab13c23          	sd	a1,696(sp)
    80006330:	00000193          	li	gp,0
    80006334:	00b18463          	beq	gp,a1,8000633c <inst_622>
    80006338:	cedf906f          	j	80000024 <rvtest_error>

000000008000633c <inst_622>:
    8000633c:	00600513          	li	a0,6
    80006340:	33253593          	sltiu	a1,a0,818
    80006344:	2cb13023          	sd	a1,704(sp)
    80006348:	00100193          	li	gp,1
    8000634c:	00b18463          	beq	gp,a1,80006354 <inst_623>
    80006350:	cd5f906f          	j	80000024 <rvtest_error>

0000000080006354 <inst_623>:
    80006354:	00600513          	li	a0,6
    80006358:	66553593          	sltiu	a1,a0,1637
    8000635c:	2cb13423          	sd	a1,712(sp)
    80006360:	00100193          	li	gp,1
    80006364:	00b18463          	beq	gp,a1,8000636c <inst_624>
    80006368:	cbdf906f          	j	80000024 <rvtest_error>

000000008000636c <inst_624>:
    8000636c:	00600513          	li	a0,6
    80006370:	02c53593          	sltiu	a1,a0,44
    80006374:	2cb13823          	sd	a1,720(sp)
    80006378:	00100193          	li	gp,1
    8000637c:	00b18463          	beq	gp,a1,80006384 <inst_625>
    80006380:	ca5f906f          	j	80000024 <rvtest_error>

0000000080006384 <inst_625>:
    80006384:	00600513          	li	a0,6
    80006388:	03e53593          	sltiu	a1,a0,62
    8000638c:	2cb13c23          	sd	a1,728(sp)
    80006390:	00100193          	li	gp,1
    80006394:	00b18463          	beq	gp,a1,8000639c <inst_626>
    80006398:	c8df906f          	j	80000024 <rvtest_error>

000000008000639c <inst_626>:
    8000639c:	00600513          	li	a0,6
    800063a0:	55653593          	sltiu	a1,a0,1366
    800063a4:	2eb13023          	sd	a1,736(sp)
    800063a8:	00100193          	li	gp,1
    800063ac:	00b18463          	beq	gp,a1,800063b4 <inst_627>
    800063b0:	c75f906f          	j	80000024 <rvtest_error>

00000000800063b4 <inst_627>:
    800063b4:	00600513          	li	a0,6
    800063b8:	aab53593          	sltiu	a1,a0,-1365
    800063bc:	2eb13423          	sd	a1,744(sp)
    800063c0:	00100193          	li	gp,1
    800063c4:	00b18463          	beq	gp,a1,800063cc <inst_628>
    800063c8:	c5df906f          	j	80000024 <rvtest_error>

00000000800063cc <inst_628>:
    800063cc:	00600513          	li	a0,6
    800063d0:	00653593          	sltiu	a1,a0,6
    800063d4:	2eb13823          	sd	a1,752(sp)
    800063d8:	00000193          	li	gp,0
    800063dc:	00b18463          	beq	gp,a1,800063e4 <inst_629>
    800063e0:	c45f906f          	j	80000024 <rvtest_error>

00000000800063e4 <inst_629>:
    800063e4:	00600513          	li	a0,6
    800063e8:	33453593          	sltiu	a1,a0,820
    800063ec:	2eb13c23          	sd	a1,760(sp)
    800063f0:	00100193          	li	gp,1
    800063f4:	00b18463          	beq	gp,a1,800063fc <inst_630>
    800063f8:	c2df906f          	j	80000024 <rvtest_error>

00000000800063fc <inst_630>:
    800063fc:	00600513          	li	a0,6
    80006400:	66753593          	sltiu	a1,a0,1639
    80006404:	30b13023          	sd	a1,768(sp)
    80006408:	00100193          	li	gp,1
    8000640c:	00b18463          	beq	gp,a1,80006414 <inst_631>
    80006410:	c15f906f          	j	80000024 <rvtest_error>

0000000080006414 <inst_631>:
    80006414:	00000537          	lui	a0,0x0
    80006418:	00150513          	addi	a0,a0,1 # 1 <SMODE_SIG>
    8000641c:	00b51513          	slli	a0,a0,0xb
    80006420:	00050513          	mv	a0,a0
    80006424:	00b51513          	slli	a0,a0,0xb
    80006428:	00050513          	mv	a0,a0
    8000642c:	00a51513          	slli	a0,a0,0xa
    80006430:	00150513          	addi	a0,a0,1
    80006434:	02d53593          	sltiu	a1,a0,45
    80006438:	30b13423          	sd	a1,776(sp)
    8000643c:	00000193          	li	gp,0
    80006440:	00b18463          	beq	gp,a1,80006448 <inst_632>
    80006444:	be1f906f          	j	80000024 <rvtest_error>

0000000080006448 <inst_632>:
    80006448:	00000537          	lui	a0,0x0
    8000644c:	00150513          	addi	a0,a0,1 # 1 <SMODE_SIG>
    80006450:	00b51513          	slli	a0,a0,0xb
    80006454:	00050513          	mv	a0,a0
    80006458:	00b51513          	slli	a0,a0,0xb
    8000645c:	00050513          	mv	a0,a0
    80006460:	00a51513          	slli	a0,a0,0xa
    80006464:	00150513          	addi	a0,a0,1
    80006468:	00053593          	sltiu	a1,a0,0
    8000646c:	30b13823          	sd	a1,784(sp)
    80006470:	00000193          	li	gp,0
    80006474:	00b18463          	beq	gp,a1,8000647c <inst_633>
    80006478:	badf906f          	j	80000024 <rvtest_error>

000000008000647c <inst_633>:
    8000647c:	00000537          	lui	a0,0x0
    80006480:	00150513          	addi	a0,a0,1 # 1 <SMODE_SIG>
    80006484:	00b51513          	slli	a0,a0,0xb
    80006488:	00050513          	mv	a0,a0
    8000648c:	00b51513          	slli	a0,a0,0xb
    80006490:	00050513          	mv	a0,a0
    80006494:	00a51513          	slli	a0,a0,0xa
    80006498:	00150513          	addi	a0,a0,1
    8000649c:	03f53593          	sltiu	a1,a0,63
    800064a0:	30b13c23          	sd	a1,792(sp)
    800064a4:	00000193          	li	gp,0
    800064a8:	00b18463          	beq	gp,a1,800064b0 <inst_634>
    800064ac:	b79f906f          	j	80000024 <rvtest_error>

00000000800064b0 <inst_634>:
    800064b0:	00000537          	lui	a0,0x0
    800064b4:	00150513          	addi	a0,a0,1 # 1 <SMODE_SIG>
    800064b8:	00b51513          	slli	a0,a0,0xb
    800064bc:	00050513          	mv	a0,a0
    800064c0:	00b51513          	slli	a0,a0,0xb
    800064c4:	00050513          	mv	a0,a0
    800064c8:	00a51513          	slli	a0,a0,0xa
    800064cc:	00150513          	addi	a0,a0,1
    800064d0:	00253593          	sltiu	a1,a0,2
    800064d4:	32b13023          	sd	a1,800(sp)
    800064d8:	00000193          	li	gp,0
    800064dc:	00b18463          	beq	gp,a1,800064e4 <inst_635>
    800064e0:	b45f906f          	j	80000024 <rvtest_error>

00000000800064e4 <inst_635>:
    800064e4:	00000537          	lui	a0,0x0
    800064e8:	00150513          	addi	a0,a0,1 # 1 <SMODE_SIG>
    800064ec:	00b51513          	slli	a0,a0,0xb
    800064f0:	00050513          	mv	a0,a0
    800064f4:	00b51513          	slli	a0,a0,0xb
    800064f8:	00050513          	mv	a0,a0
    800064fc:	00a51513          	slli	a0,a0,0xa
    80006500:	00150513          	addi	a0,a0,1
    80006504:	55453593          	sltiu	a1,a0,1364
    80006508:	32b13423          	sd	a1,808(sp)
    8000650c:	00000193          	li	gp,0
    80006510:	00b18463          	beq	gp,a1,80006518 <inst_636>
    80006514:	b11f906f          	j	80000024 <rvtest_error>

0000000080006518 <inst_636>:
    80006518:	00000537          	lui	a0,0x0
    8000651c:	00150513          	addi	a0,a0,1 # 1 <SMODE_SIG>
    80006520:	00b51513          	slli	a0,a0,0xb
    80006524:	00050513          	mv	a0,a0
    80006528:	00b51513          	slli	a0,a0,0xb
    8000652c:	00050513          	mv	a0,a0
    80006530:	00a51513          	slli	a0,a0,0xa
    80006534:	00150513          	addi	a0,a0,1
    80006538:	aa953593          	sltiu	a1,a0,-1367
    8000653c:	32b13823          	sd	a1,816(sp)
    80006540:	00100193          	li	gp,1
    80006544:	00b18463          	beq	gp,a1,8000654c <inst_637>
    80006548:	addf906f          	j	80000024 <rvtest_error>

000000008000654c <inst_637>:
    8000654c:	00000537          	lui	a0,0x0
    80006550:	00150513          	addi	a0,a0,1 # 1 <SMODE_SIG>
    80006554:	00b51513          	slli	a0,a0,0xb
    80006558:	00050513          	mv	a0,a0
    8000655c:	00b51513          	slli	a0,a0,0xb
    80006560:	00050513          	mv	a0,a0
    80006564:	00a51513          	slli	a0,a0,0xa
    80006568:	00150513          	addi	a0,a0,1
    8000656c:	00453593          	sltiu	a1,a0,4
    80006570:	32b13c23          	sd	a1,824(sp)
    80006574:	00000193          	li	gp,0
    80006578:	00b18463          	beq	gp,a1,80006580 <inst_638>
    8000657c:	aa9f906f          	j	80000024 <rvtest_error>

0000000080006580 <inst_638>:
    80006580:	00000537          	lui	a0,0x0
    80006584:	00150513          	addi	a0,a0,1 # 1 <SMODE_SIG>
    80006588:	00b51513          	slli	a0,a0,0xb
    8000658c:	00050513          	mv	a0,a0
    80006590:	00b51513          	slli	a0,a0,0xb
    80006594:	00050513          	mv	a0,a0
    80006598:	00a51513          	slli	a0,a0,0xa
    8000659c:	00150513          	addi	a0,a0,1
    800065a0:	33253593          	sltiu	a1,a0,818
    800065a4:	34b13023          	sd	a1,832(sp)
    800065a8:	00000193          	li	gp,0
    800065ac:	00b18463          	beq	gp,a1,800065b4 <inst_639>
    800065b0:	a75f906f          	j	80000024 <rvtest_error>

00000000800065b4 <inst_639>:
    800065b4:	00000537          	lui	a0,0x0
    800065b8:	00150513          	addi	a0,a0,1 # 1 <SMODE_SIG>
    800065bc:	00b51513          	slli	a0,a0,0xb
    800065c0:	00050513          	mv	a0,a0
    800065c4:	00b51513          	slli	a0,a0,0xb
    800065c8:	00050513          	mv	a0,a0
    800065cc:	00a51513          	slli	a0,a0,0xa
    800065d0:	00150513          	addi	a0,a0,1
    800065d4:	66553593          	sltiu	a1,a0,1637
    800065d8:	34b13423          	sd	a1,840(sp)
    800065dc:	00000193          	li	gp,0
    800065e0:	00b18463          	beq	gp,a1,800065e8 <inst_640>
    800065e4:	a41f906f          	j	80000024 <rvtest_error>

00000000800065e8 <inst_640>:
    800065e8:	00000537          	lui	a0,0x0
    800065ec:	00150513          	addi	a0,a0,1 # 1 <SMODE_SIG>
    800065f0:	00b51513          	slli	a0,a0,0xb
    800065f4:	00050513          	mv	a0,a0
    800065f8:	00b51513          	slli	a0,a0,0xb
    800065fc:	00050513          	mv	a0,a0
    80006600:	00a51513          	slli	a0,a0,0xa
    80006604:	00150513          	addi	a0,a0,1
    80006608:	02c53593          	sltiu	a1,a0,44
    8000660c:	34b13823          	sd	a1,848(sp)
    80006610:	00000193          	li	gp,0
    80006614:	00b18463          	beq	gp,a1,8000661c <inst_641>
    80006618:	a0df906f          	j	80000024 <rvtest_error>

000000008000661c <inst_641>:
    8000661c:	00000537          	lui	a0,0x0
    80006620:	00150513          	addi	a0,a0,1 # 1 <SMODE_SIG>
    80006624:	00b51513          	slli	a0,a0,0xb
    80006628:	00050513          	mv	a0,a0
    8000662c:	00b51513          	slli	a0,a0,0xb
    80006630:	00050513          	mv	a0,a0
    80006634:	00a51513          	slli	a0,a0,0xa
    80006638:	00150513          	addi	a0,a0,1
    8000663c:	03e53593          	sltiu	a1,a0,62
    80006640:	34b13c23          	sd	a1,856(sp)
    80006644:	00000193          	li	gp,0
    80006648:	00b18463          	beq	gp,a1,80006650 <inst_642>
    8000664c:	9d9f906f          	j	80000024 <rvtest_error>

0000000080006650 <inst_642>:
    80006650:	00000537          	lui	a0,0x0
    80006654:	00150513          	addi	a0,a0,1 # 1 <SMODE_SIG>
    80006658:	00b51513          	slli	a0,a0,0xb
    8000665c:	00050513          	mv	a0,a0
    80006660:	00b51513          	slli	a0,a0,0xb
    80006664:	00050513          	mv	a0,a0
    80006668:	00a51513          	slli	a0,a0,0xa
    8000666c:	00150513          	addi	a0,a0,1
    80006670:	55653593          	sltiu	a1,a0,1366
    80006674:	36b13023          	sd	a1,864(sp)
    80006678:	00000193          	li	gp,0
    8000667c:	00b18463          	beq	gp,a1,80006684 <inst_643>
    80006680:	9a5f906f          	j	80000024 <rvtest_error>

0000000080006684 <inst_643>:
    80006684:	00000537          	lui	a0,0x0
    80006688:	00150513          	addi	a0,a0,1 # 1 <SMODE_SIG>
    8000668c:	00b51513          	slli	a0,a0,0xb
    80006690:	00050513          	mv	a0,a0
    80006694:	00b51513          	slli	a0,a0,0xb
    80006698:	00050513          	mv	a0,a0
    8000669c:	00a51513          	slli	a0,a0,0xa
    800066a0:	00150513          	addi	a0,a0,1
    800066a4:	aab53593          	sltiu	a1,a0,-1365
    800066a8:	36b13423          	sd	a1,872(sp)
    800066ac:	00100193          	li	gp,1
    800066b0:	00b18463          	beq	gp,a1,800066b8 <inst_644>
    800066b4:	971f906f          	j	80000024 <rvtest_error>

00000000800066b8 <inst_644>:
    800066b8:	00000537          	lui	a0,0x0
    800066bc:	00150513          	addi	a0,a0,1 # 1 <SMODE_SIG>
    800066c0:	00b51513          	slli	a0,a0,0xb
    800066c4:	00050513          	mv	a0,a0
    800066c8:	00b51513          	slli	a0,a0,0xb
    800066cc:	00050513          	mv	a0,a0
    800066d0:	00a51513          	slli	a0,a0,0xa
    800066d4:	00150513          	addi	a0,a0,1
    800066d8:	00653593          	sltiu	a1,a0,6
    800066dc:	36b13823          	sd	a1,880(sp)
    800066e0:	00000193          	li	gp,0
    800066e4:	00b18463          	beq	gp,a1,800066ec <inst_645>
    800066e8:	93df906f          	j	80000024 <rvtest_error>

00000000800066ec <inst_645>:
    800066ec:	00000537          	lui	a0,0x0
    800066f0:	00150513          	addi	a0,a0,1 # 1 <SMODE_SIG>
    800066f4:	00b51513          	slli	a0,a0,0xb
    800066f8:	00050513          	mv	a0,a0
    800066fc:	00b51513          	slli	a0,a0,0xb
    80006700:	00050513          	mv	a0,a0
    80006704:	00a51513          	slli	a0,a0,0xa
    80006708:	00150513          	addi	a0,a0,1
    8000670c:	33453593          	sltiu	a1,a0,820
    80006710:	36b13c23          	sd	a1,888(sp)
    80006714:	00000193          	li	gp,0
    80006718:	00b18463          	beq	gp,a1,80006720 <inst_646>
    8000671c:	909f906f          	j	80000024 <rvtest_error>

0000000080006720 <inst_646>:
    80006720:	00000537          	lui	a0,0x0
    80006724:	00150513          	addi	a0,a0,1 # 1 <SMODE_SIG>
    80006728:	00b51513          	slli	a0,a0,0xb
    8000672c:	00050513          	mv	a0,a0
    80006730:	00b51513          	slli	a0,a0,0xb
    80006734:	00050513          	mv	a0,a0
    80006738:	00a51513          	slli	a0,a0,0xa
    8000673c:	00150513          	addi	a0,a0,1
    80006740:	66753593          	sltiu	a1,a0,1639
    80006744:	38b13023          	sd	a1,896(sp)
    80006748:	00000193          	li	gp,0
    8000674c:	00b18463          	beq	gp,a1,80006754 <inst_647>
    80006750:	8d5f906f          	j	80000024 <rvtest_error>

0000000080006754 <inst_647>:
    80006754:	00000537          	lui	a0,0x0
    80006758:	00150513          	addi	a0,a0,1 # 1 <SMODE_SIG>
    8000675c:	00b51513          	slli	a0,a0,0xb
    80006760:	00050513          	mv	a0,a0
    80006764:	00b51513          	slli	a0,a0,0xb
    80006768:	00050513          	mv	a0,a0
    8000676c:	00a51513          	slli	a0,a0,0xa
    80006770:	00150513          	addi	a0,a0,1
    80006774:	02e53593          	sltiu	a1,a0,46
    80006778:	38b13423          	sd	a1,904(sp)
    8000677c:	00000193          	li	gp,0
    80006780:	00b18463          	beq	gp,a1,80006788 <inst_648>
    80006784:	8a1f906f          	j	80000024 <rvtest_error>

0000000080006788 <inst_648>:
    80006788:	00000537          	lui	a0,0x0
    8000678c:	00150513          	addi	a0,a0,1 # 1 <SMODE_SIG>
    80006790:	00b51513          	slli	a0,a0,0xb
    80006794:	00050513          	mv	a0,a0
    80006798:	00b51513          	slli	a0,a0,0xb
    8000679c:	00050513          	mv	a0,a0
    800067a0:	00a51513          	slli	a0,a0,0xa
    800067a4:	00150513          	addi	a0,a0,1
    800067a8:	00153593          	seqz	a1,a0
    800067ac:	38b13823          	sd	a1,912(sp)
    800067b0:	00000193          	li	gp,0
    800067b4:	00b18463          	beq	gp,a1,800067bc <inst_649>
    800067b8:	86df906f          	j	80000024 <rvtest_error>

00000000800067bc <inst_649>:
    800067bc:	00000537          	lui	a0,0x0
    800067c0:	00150513          	addi	a0,a0,1 # 1 <SMODE_SIG>
    800067c4:	00b51513          	slli	a0,a0,0xb
    800067c8:	00050513          	mv	a0,a0
    800067cc:	00b51513          	slli	a0,a0,0xb
    800067d0:	00050513          	mv	a0,a0
    800067d4:	00a51513          	slli	a0,a0,0xa
    800067d8:	00150513          	addi	a0,a0,1
    800067dc:	04053593          	sltiu	a1,a0,64
    800067e0:	38b13c23          	sd	a1,920(sp)
    800067e4:	00000193          	li	gp,0
    800067e8:	00b18463          	beq	gp,a1,800067f0 <inst_650>
    800067ec:	839f906f          	j	80000024 <rvtest_error>

00000000800067f0 <inst_650>:
    800067f0:	00600513          	li	a0,6
    800067f4:	02e53593          	sltiu	a1,a0,46
    800067f8:	3ab13023          	sd	a1,928(sp)
    800067fc:	00100193          	li	gp,1
    80006800:	00b18463          	beq	gp,a1,80006808 <inst_651>
    80006804:	821f906f          	j	80000024 <rvtest_error>

0000000080006808 <inst_651>:
    80006808:	00600513          	li	a0,6
    8000680c:	00153593          	seqz	a1,a0
    80006810:	3ab13423          	sd	a1,936(sp)
    80006814:	00000193          	li	gp,0
    80006818:	00b18463          	beq	gp,a1,80006820 <inst_652>
    8000681c:	809f906f          	j	80000024 <rvtest_error>

0000000080006820 <inst_652>:
    80006820:	00600513          	li	a0,6
    80006824:	04053593          	sltiu	a1,a0,64
    80006828:	3ab13823          	sd	a1,944(sp)
    8000682c:	00100193          	li	gp,1
    80006830:	00b18463          	beq	gp,a1,80006838 <inst_653>
    80006834:	ff0f906f          	j	80000024 <rvtest_error>

0000000080006838 <inst_653>:
    80006838:	33333537          	lui	a0,0x33333
    8000683c:	33350513          	addi	a0,a0,819 # 33333333 <absimmsh+0x27862586>
    80006840:	00b51513          	slli	a0,a0,0xb
    80006844:	19950513          	addi	a0,a0,409
    80006848:	00b51513          	slli	a0,a0,0xb
    8000684c:	4cc50513          	addi	a0,a0,1228
    80006850:	00a51513          	slli	a0,a0,0xa
    80006854:	33450513          	addi	a0,a0,820
    80006858:	00353593          	sltiu	a1,a0,3
    8000685c:	3ab13c23          	sd	a1,952(sp)
    80006860:	00000193          	li	gp,0
    80006864:	00b18463          	beq	gp,a1,8000686c <inst_654>
    80006868:	fbcf906f          	j	80000024 <rvtest_error>

000000008000686c <inst_654>:
    8000686c:	33333537          	lui	a0,0x33333
    80006870:	33350513          	addi	a0,a0,819 # 33333333 <absimmsh+0x27862586>
    80006874:	00b51513          	slli	a0,a0,0xb
    80006878:	19950513          	addi	a0,a0,409
    8000687c:	00b51513          	slli	a0,a0,0xb
    80006880:	4cc50513          	addi	a0,a0,1228
    80006884:	00a51513          	slli	a0,a0,0xa
    80006888:	33450513          	addi	a0,a0,820
    8000688c:	55553593          	sltiu	a1,a0,1365
    80006890:	3cb13023          	sd	a1,960(sp)
    80006894:	00000193          	li	gp,0
    80006898:	00b18463          	beq	gp,a1,800068a0 <inst_655>
    8000689c:	f88f906f          	j	80000024 <rvtest_error>

00000000800068a0 <inst_655>:
    800068a0:	33333537          	lui	a0,0x33333
    800068a4:	33350513          	addi	a0,a0,819 # 33333333 <absimmsh+0x27862586>
    800068a8:	00b51513          	slli	a0,a0,0xb
    800068ac:	19950513          	addi	a0,a0,409
    800068b0:	00b51513          	slli	a0,a0,0xb
    800068b4:	4cc50513          	addi	a0,a0,1228
    800068b8:	00a51513          	slli	a0,a0,0xa
    800068bc:	33450513          	addi	a0,a0,820
    800068c0:	aaa53593          	sltiu	a1,a0,-1366
    800068c4:	3cb13423          	sd	a1,968(sp)
    800068c8:	00100193          	li	gp,1
    800068cc:	00b18463          	beq	gp,a1,800068d4 <inst_656>
    800068d0:	f54f906f          	j	80000024 <rvtest_error>

00000000800068d4 <inst_656>:
    800068d4:	33333537          	lui	a0,0x33333
    800068d8:	33350513          	addi	a0,a0,819 # 33333333 <absimmsh+0x27862586>
    800068dc:	00b51513          	slli	a0,a0,0xb
    800068e0:	19950513          	addi	a0,a0,409
    800068e4:	00b51513          	slli	a0,a0,0xb
    800068e8:	4cc50513          	addi	a0,a0,1228
    800068ec:	00a51513          	slli	a0,a0,0xa
    800068f0:	33450513          	addi	a0,a0,820
    800068f4:	00553593          	sltiu	a1,a0,5
    800068f8:	3cb13823          	sd	a1,976(sp)
    800068fc:	00000193          	li	gp,0
    80006900:	00b18463          	beq	gp,a1,80006908 <inst_657>
    80006904:	f20f906f          	j	80000024 <rvtest_error>

0000000080006908 <inst_657>:
    80006908:	33333537          	lui	a0,0x33333
    8000690c:	33350513          	addi	a0,a0,819 # 33333333 <absimmsh+0x27862586>
    80006910:	00b51513          	slli	a0,a0,0xb
    80006914:	19950513          	addi	a0,a0,409
    80006918:	00b51513          	slli	a0,a0,0xb
    8000691c:	4cc50513          	addi	a0,a0,1228
    80006920:	00a51513          	slli	a0,a0,0xa
    80006924:	33450513          	addi	a0,a0,820
    80006928:	33353593          	sltiu	a1,a0,819
    8000692c:	3cb13c23          	sd	a1,984(sp)
    80006930:	00000193          	li	gp,0
    80006934:	00b18463          	beq	gp,a1,8000693c <inst_658>
    80006938:	eecf906f          	j	80000024 <rvtest_error>

000000008000693c <inst_658>:
    8000693c:	33333537          	lui	a0,0x33333
    80006940:	33350513          	addi	a0,a0,819 # 33333333 <absimmsh+0x27862586>
    80006944:	00b51513          	slli	a0,a0,0xb
    80006948:	19950513          	addi	a0,a0,409
    8000694c:	00b51513          	slli	a0,a0,0xb
    80006950:	4cc50513          	addi	a0,a0,1228
    80006954:	00a51513          	slli	a0,a0,0xa
    80006958:	33450513          	addi	a0,a0,820
    8000695c:	66653593          	sltiu	a1,a0,1638
    80006960:	3eb13023          	sd	a1,992(sp)
    80006964:	00000193          	li	gp,0
    80006968:	00b18463          	beq	gp,a1,80006970 <inst_659>
    8000696c:	eb8f906f          	j	80000024 <rvtest_error>

0000000080006970 <inst_659>:
    80006970:	33333537          	lui	a0,0x33333
    80006974:	33350513          	addi	a0,a0,819 # 33333333 <absimmsh+0x27862586>
    80006978:	00b51513          	slli	a0,a0,0xb
    8000697c:	19950513          	addi	a0,a0,409
    80006980:	00b51513          	slli	a0,a0,0xb
    80006984:	4cc50513          	addi	a0,a0,1228
    80006988:	00a51513          	slli	a0,a0,0xa
    8000698c:	33450513          	addi	a0,a0,820
    80006990:	02d53593          	sltiu	a1,a0,45
    80006994:	3eb13423          	sd	a1,1000(sp)
    80006998:	00000193          	li	gp,0
    8000699c:	00b18463          	beq	gp,a1,800069a4 <inst_660>
    800069a0:	e84f906f          	j	80000024 <rvtest_error>

00000000800069a4 <inst_660>:
    800069a4:	33333537          	lui	a0,0x33333
    800069a8:	33350513          	addi	a0,a0,819 # 33333333 <absimmsh+0x27862586>
    800069ac:	00b51513          	slli	a0,a0,0xb
    800069b0:	19950513          	addi	a0,a0,409
    800069b4:	00b51513          	slli	a0,a0,0xb
    800069b8:	4cc50513          	addi	a0,a0,1228
    800069bc:	00a51513          	slli	a0,a0,0xa
    800069c0:	33450513          	addi	a0,a0,820
    800069c4:	00053593          	sltiu	a1,a0,0
    800069c8:	3eb13823          	sd	a1,1008(sp)
    800069cc:	00000193          	li	gp,0
    800069d0:	00b18463          	beq	gp,a1,800069d8 <inst_661>
    800069d4:	e50f906f          	j	80000024 <rvtest_error>

00000000800069d8 <inst_661>:
    800069d8:	33333537          	lui	a0,0x33333
    800069dc:	33350513          	addi	a0,a0,819 # 33333333 <absimmsh+0x27862586>
    800069e0:	00b51513          	slli	a0,a0,0xb
    800069e4:	19950513          	addi	a0,a0,409
    800069e8:	00b51513          	slli	a0,a0,0xb
    800069ec:	4cc50513          	addi	a0,a0,1228
    800069f0:	00a51513          	slli	a0,a0,0xa
    800069f4:	33450513          	addi	a0,a0,820
    800069f8:	03f53593          	sltiu	a1,a0,63
    800069fc:	3eb13c23          	sd	a1,1016(sp)
    80006a00:	00000193          	li	gp,0
    80006a04:	00b18463          	beq	gp,a1,80006a0c <inst_662>
    80006a08:	e1cf906f          	j	80000024 <rvtest_error>

0000000080006a0c <inst_662>:
    80006a0c:	33333537          	lui	a0,0x33333
    80006a10:	33350513          	addi	a0,a0,819 # 33333333 <absimmsh+0x27862586>
    80006a14:	00b51513          	slli	a0,a0,0xb
    80006a18:	19950513          	addi	a0,a0,409
    80006a1c:	00b51513          	slli	a0,a0,0xb
    80006a20:	4cc50513          	addi	a0,a0,1228
    80006a24:	00a51513          	slli	a0,a0,0xa
    80006a28:	33450513          	addi	a0,a0,820
    80006a2c:	00253593          	sltiu	a1,a0,2
    80006a30:	40b13023          	sd	a1,1024(sp)
    80006a34:	00000193          	li	gp,0
    80006a38:	00b18463          	beq	gp,a1,80006a40 <inst_663>
    80006a3c:	de8f906f          	j	80000024 <rvtest_error>

0000000080006a40 <inst_663>:
    80006a40:	33333537          	lui	a0,0x33333
    80006a44:	33350513          	addi	a0,a0,819 # 33333333 <absimmsh+0x27862586>
    80006a48:	00b51513          	slli	a0,a0,0xb
    80006a4c:	19950513          	addi	a0,a0,409
    80006a50:	00b51513          	slli	a0,a0,0xb
    80006a54:	4cc50513          	addi	a0,a0,1228
    80006a58:	00a51513          	slli	a0,a0,0xa
    80006a5c:	33450513          	addi	a0,a0,820
    80006a60:	55453593          	sltiu	a1,a0,1364
    80006a64:	40b13423          	sd	a1,1032(sp)
    80006a68:	00000193          	li	gp,0
    80006a6c:	00b18463          	beq	gp,a1,80006a74 <inst_664>
    80006a70:	db4f906f          	j	80000024 <rvtest_error>

0000000080006a74 <inst_664>:
    80006a74:	33333537          	lui	a0,0x33333
    80006a78:	33350513          	addi	a0,a0,819 # 33333333 <absimmsh+0x27862586>
    80006a7c:	00b51513          	slli	a0,a0,0xb
    80006a80:	19950513          	addi	a0,a0,409
    80006a84:	00b51513          	slli	a0,a0,0xb
    80006a88:	4cc50513          	addi	a0,a0,1228
    80006a8c:	00a51513          	slli	a0,a0,0xa
    80006a90:	33450513          	addi	a0,a0,820
    80006a94:	aa953593          	sltiu	a1,a0,-1367
    80006a98:	40b13823          	sd	a1,1040(sp)
    80006a9c:	00100193          	li	gp,1
    80006aa0:	00b18463          	beq	gp,a1,80006aa8 <inst_665>
    80006aa4:	d80f906f          	j	80000024 <rvtest_error>

0000000080006aa8 <inst_665>:
    80006aa8:	33333537          	lui	a0,0x33333
    80006aac:	33350513          	addi	a0,a0,819 # 33333333 <absimmsh+0x27862586>
    80006ab0:	00b51513          	slli	a0,a0,0xb
    80006ab4:	19950513          	addi	a0,a0,409
    80006ab8:	00b51513          	slli	a0,a0,0xb
    80006abc:	4cc50513          	addi	a0,a0,1228
    80006ac0:	00a51513          	slli	a0,a0,0xa
    80006ac4:	33450513          	addi	a0,a0,820
    80006ac8:	00453593          	sltiu	a1,a0,4
    80006acc:	40b13c23          	sd	a1,1048(sp)
    80006ad0:	00000193          	li	gp,0
    80006ad4:	00b18463          	beq	gp,a1,80006adc <inst_666>
    80006ad8:	d4cf906f          	j	80000024 <rvtest_error>

0000000080006adc <inst_666>:
    80006adc:	33333537          	lui	a0,0x33333
    80006ae0:	33350513          	addi	a0,a0,819 # 33333333 <absimmsh+0x27862586>
    80006ae4:	00b51513          	slli	a0,a0,0xb
    80006ae8:	19950513          	addi	a0,a0,409
    80006aec:	00b51513          	slli	a0,a0,0xb
    80006af0:	4cc50513          	addi	a0,a0,1228
    80006af4:	00a51513          	slli	a0,a0,0xa
    80006af8:	33450513          	addi	a0,a0,820
    80006afc:	33253593          	sltiu	a1,a0,818
    80006b00:	42b13023          	sd	a1,1056(sp)
    80006b04:	00000193          	li	gp,0
    80006b08:	00b18463          	beq	gp,a1,80006b10 <inst_667>
    80006b0c:	d18f906f          	j	80000024 <rvtest_error>

0000000080006b10 <inst_667>:
    80006b10:	33333537          	lui	a0,0x33333
    80006b14:	33350513          	addi	a0,a0,819 # 33333333 <absimmsh+0x27862586>
    80006b18:	00b51513          	slli	a0,a0,0xb
    80006b1c:	19950513          	addi	a0,a0,409
    80006b20:	00b51513          	slli	a0,a0,0xb
    80006b24:	4cc50513          	addi	a0,a0,1228
    80006b28:	00a51513          	slli	a0,a0,0xa
    80006b2c:	33450513          	addi	a0,a0,820
    80006b30:	66553593          	sltiu	a1,a0,1637
    80006b34:	42b13423          	sd	a1,1064(sp)
    80006b38:	00000193          	li	gp,0
    80006b3c:	00b18463          	beq	gp,a1,80006b44 <inst_668>
    80006b40:	ce4f906f          	j	80000024 <rvtest_error>

0000000080006b44 <inst_668>:
    80006b44:	33333537          	lui	a0,0x33333
    80006b48:	33350513          	addi	a0,a0,819 # 33333333 <absimmsh+0x27862586>
    80006b4c:	00b51513          	slli	a0,a0,0xb
    80006b50:	19950513          	addi	a0,a0,409
    80006b54:	00b51513          	slli	a0,a0,0xb
    80006b58:	4cc50513          	addi	a0,a0,1228
    80006b5c:	00a51513          	slli	a0,a0,0xa
    80006b60:	33450513          	addi	a0,a0,820
    80006b64:	02c53593          	sltiu	a1,a0,44
    80006b68:	42b13823          	sd	a1,1072(sp)
    80006b6c:	00000193          	li	gp,0
    80006b70:	00b18463          	beq	gp,a1,80006b78 <inst_669>
    80006b74:	cb0f906f          	j	80000024 <rvtest_error>

0000000080006b78 <inst_669>:
    80006b78:	33333537          	lui	a0,0x33333
    80006b7c:	33350513          	addi	a0,a0,819 # 33333333 <absimmsh+0x27862586>
    80006b80:	00b51513          	slli	a0,a0,0xb
    80006b84:	19950513          	addi	a0,a0,409
    80006b88:	00b51513          	slli	a0,a0,0xb
    80006b8c:	4cc50513          	addi	a0,a0,1228
    80006b90:	00a51513          	slli	a0,a0,0xa
    80006b94:	33450513          	addi	a0,a0,820
    80006b98:	03e53593          	sltiu	a1,a0,62
    80006b9c:	42b13c23          	sd	a1,1080(sp)
    80006ba0:	00000193          	li	gp,0
    80006ba4:	00b18463          	beq	gp,a1,80006bac <inst_670>
    80006ba8:	c7cf906f          	j	80000024 <rvtest_error>

0000000080006bac <inst_670>:
    80006bac:	33333537          	lui	a0,0x33333
    80006bb0:	33350513          	addi	a0,a0,819 # 33333333 <absimmsh+0x27862586>
    80006bb4:	00b51513          	slli	a0,a0,0xb
    80006bb8:	19950513          	addi	a0,a0,409
    80006bbc:	00b51513          	slli	a0,a0,0xb
    80006bc0:	4cc50513          	addi	a0,a0,1228
    80006bc4:	00a51513          	slli	a0,a0,0xa
    80006bc8:	33450513          	addi	a0,a0,820
    80006bcc:	55653593          	sltiu	a1,a0,1366
    80006bd0:	44b13023          	sd	a1,1088(sp)
    80006bd4:	00000193          	li	gp,0
    80006bd8:	00b18463          	beq	gp,a1,80006be0 <inst_671>
    80006bdc:	c48f906f          	j	80000024 <rvtest_error>

0000000080006be0 <inst_671>:
    80006be0:	33333537          	lui	a0,0x33333
    80006be4:	33350513          	addi	a0,a0,819 # 33333333 <absimmsh+0x27862586>
    80006be8:	00b51513          	slli	a0,a0,0xb
    80006bec:	19950513          	addi	a0,a0,409
    80006bf0:	00b51513          	slli	a0,a0,0xb
    80006bf4:	4cc50513          	addi	a0,a0,1228
    80006bf8:	00a51513          	slli	a0,a0,0xa
    80006bfc:	33450513          	addi	a0,a0,820
    80006c00:	aab53593          	sltiu	a1,a0,-1365
    80006c04:	44b13423          	sd	a1,1096(sp)
    80006c08:	00100193          	li	gp,1
    80006c0c:	00b18463          	beq	gp,a1,80006c14 <inst_672>
    80006c10:	c14f906f          	j	80000024 <rvtest_error>

0000000080006c14 <inst_672>:
    80006c14:	33333537          	lui	a0,0x33333
    80006c18:	33350513          	addi	a0,a0,819 # 33333333 <absimmsh+0x27862586>
    80006c1c:	00b51513          	slli	a0,a0,0xb
    80006c20:	19950513          	addi	a0,a0,409
    80006c24:	00b51513          	slli	a0,a0,0xb
    80006c28:	4cc50513          	addi	a0,a0,1228
    80006c2c:	00a51513          	slli	a0,a0,0xa
    80006c30:	33450513          	addi	a0,a0,820
    80006c34:	00653593          	sltiu	a1,a0,6
    80006c38:	44b13823          	sd	a1,1104(sp)
    80006c3c:	00000193          	li	gp,0
    80006c40:	00b18463          	beq	gp,a1,80006c48 <inst_673>
    80006c44:	be0f906f          	j	80000024 <rvtest_error>

0000000080006c48 <inst_673>:
    80006c48:	33333537          	lui	a0,0x33333
    80006c4c:	33350513          	addi	a0,a0,819 # 33333333 <absimmsh+0x27862586>
    80006c50:	00b51513          	slli	a0,a0,0xb
    80006c54:	19950513          	addi	a0,a0,409
    80006c58:	00b51513          	slli	a0,a0,0xb
    80006c5c:	4cc50513          	addi	a0,a0,1228
    80006c60:	00a51513          	slli	a0,a0,0xa
    80006c64:	33450513          	addi	a0,a0,820
    80006c68:	33453593          	sltiu	a1,a0,820
    80006c6c:	44b13c23          	sd	a1,1112(sp)
    80006c70:	00000193          	li	gp,0
    80006c74:	00b18463          	beq	gp,a1,80006c7c <inst_674>
    80006c78:	bacf906f          	j	80000024 <rvtest_error>

0000000080006c7c <inst_674>:
    80006c7c:	33333537          	lui	a0,0x33333
    80006c80:	33350513          	addi	a0,a0,819 # 33333333 <absimmsh+0x27862586>
    80006c84:	00b51513          	slli	a0,a0,0xb
    80006c88:	19950513          	addi	a0,a0,409
    80006c8c:	00b51513          	slli	a0,a0,0xb
    80006c90:	4cc50513          	addi	a0,a0,1228
    80006c94:	00a51513          	slli	a0,a0,0xa
    80006c98:	33450513          	addi	a0,a0,820
    80006c9c:	66753593          	sltiu	a1,a0,1639
    80006ca0:	46b13023          	sd	a1,1120(sp)
    80006ca4:	00000193          	li	gp,0
    80006ca8:	00b18463          	beq	gp,a1,80006cb0 <inst_675>
    80006cac:	b78f906f          	j	80000024 <rvtest_error>

0000000080006cb0 <inst_675>:
    80006cb0:	33333537          	lui	a0,0x33333
    80006cb4:	33350513          	addi	a0,a0,819 # 33333333 <absimmsh+0x27862586>
    80006cb8:	00b51513          	slli	a0,a0,0xb
    80006cbc:	19950513          	addi	a0,a0,409
    80006cc0:	00b51513          	slli	a0,a0,0xb
    80006cc4:	4cc50513          	addi	a0,a0,1228
    80006cc8:	00a51513          	slli	a0,a0,0xa
    80006ccc:	33450513          	addi	a0,a0,820
    80006cd0:	02e53593          	sltiu	a1,a0,46
    80006cd4:	46b13423          	sd	a1,1128(sp)
    80006cd8:	00000193          	li	gp,0
    80006cdc:	00b18463          	beq	gp,a1,80006ce4 <inst_676>
    80006ce0:	b44f906f          	j	80000024 <rvtest_error>

0000000080006ce4 <inst_676>:
    80006ce4:	33333537          	lui	a0,0x33333
    80006ce8:	33350513          	addi	a0,a0,819 # 33333333 <absimmsh+0x27862586>
    80006cec:	00b51513          	slli	a0,a0,0xb
    80006cf0:	19950513          	addi	a0,a0,409
    80006cf4:	00b51513          	slli	a0,a0,0xb
    80006cf8:	4cc50513          	addi	a0,a0,1228
    80006cfc:	00a51513          	slli	a0,a0,0xa
    80006d00:	33450513          	addi	a0,a0,820
    80006d04:	00153593          	seqz	a1,a0
    80006d08:	46b13823          	sd	a1,1136(sp)
    80006d0c:	00000193          	li	gp,0
    80006d10:	00b18463          	beq	gp,a1,80006d18 <inst_677>
    80006d14:	b10f906f          	j	80000024 <rvtest_error>

0000000080006d18 <inst_677>:
    80006d18:	33333537          	lui	a0,0x33333
    80006d1c:	33350513          	addi	a0,a0,819 # 33333333 <absimmsh+0x27862586>
    80006d20:	00b51513          	slli	a0,a0,0xb
    80006d24:	19950513          	addi	a0,a0,409
    80006d28:	00b51513          	slli	a0,a0,0xb
    80006d2c:	4cc50513          	addi	a0,a0,1228
    80006d30:	00a51513          	slli	a0,a0,0xa
    80006d34:	33450513          	addi	a0,a0,820
    80006d38:	04053593          	sltiu	a1,a0,64
    80006d3c:	46b13c23          	sd	a1,1144(sp)
    80006d40:	00000193          	li	gp,0
    80006d44:	00b18463          	beq	gp,a1,80006d4c <inst_678>
    80006d48:	adcf906f          	j	80000024 <rvtest_error>

0000000080006d4c <inst_678>:
    80006d4c:	66666537          	lui	a0,0x66666
    80006d50:	66650513          	addi	a0,a0,1638 # 66666666 <absimmsh+0x5ab958b9>
    80006d54:	00b51513          	slli	a0,a0,0xb
    80006d58:	33350513          	addi	a0,a0,819
    80006d5c:	00b51513          	slli	a0,a0,0xb
    80006d60:	19950513          	addi	a0,a0,409
    80006d64:	00a51513          	slli	a0,a0,0xa
    80006d68:	26750513          	addi	a0,a0,615
    80006d6c:	00353593          	sltiu	a1,a0,3
    80006d70:	48b13023          	sd	a1,1152(sp)
    80006d74:	00000193          	li	gp,0
    80006d78:	00b18463          	beq	gp,a1,80006d80 <inst_679>
    80006d7c:	aa8f906f          	j	80000024 <rvtest_error>

0000000080006d80 <inst_679>:
    80006d80:	66666537          	lui	a0,0x66666
    80006d84:	66650513          	addi	a0,a0,1638 # 66666666 <absimmsh+0x5ab958b9>
    80006d88:	00b51513          	slli	a0,a0,0xb
    80006d8c:	33350513          	addi	a0,a0,819
    80006d90:	00b51513          	slli	a0,a0,0xb
    80006d94:	19950513          	addi	a0,a0,409
    80006d98:	00a51513          	slli	a0,a0,0xa
    80006d9c:	26750513          	addi	a0,a0,615
    80006da0:	55553593          	sltiu	a1,a0,1365
    80006da4:	48b13423          	sd	a1,1160(sp)
    80006da8:	00000193          	li	gp,0
    80006dac:	00b18463          	beq	gp,a1,80006db4 <inst_680>
    80006db0:	a74f906f          	j	80000024 <rvtest_error>

0000000080006db4 <inst_680>:
    80006db4:	66666537          	lui	a0,0x66666
    80006db8:	66650513          	addi	a0,a0,1638 # 66666666 <absimmsh+0x5ab958b9>
    80006dbc:	00b51513          	slli	a0,a0,0xb
    80006dc0:	33350513          	addi	a0,a0,819
    80006dc4:	00b51513          	slli	a0,a0,0xb
    80006dc8:	19950513          	addi	a0,a0,409
    80006dcc:	00a51513          	slli	a0,a0,0xa
    80006dd0:	26750513          	addi	a0,a0,615
    80006dd4:	aaa53593          	sltiu	a1,a0,-1366
    80006dd8:	48b13823          	sd	a1,1168(sp)
    80006ddc:	00100193          	li	gp,1
    80006de0:	00b18463          	beq	gp,a1,80006de8 <inst_681>
    80006de4:	a40f906f          	j	80000024 <rvtest_error>

0000000080006de8 <inst_681>:
    80006de8:	66666537          	lui	a0,0x66666
    80006dec:	66650513          	addi	a0,a0,1638 # 66666666 <absimmsh+0x5ab958b9>
    80006df0:	00b51513          	slli	a0,a0,0xb
    80006df4:	33350513          	addi	a0,a0,819
    80006df8:	00b51513          	slli	a0,a0,0xb
    80006dfc:	19950513          	addi	a0,a0,409
    80006e00:	00a51513          	slli	a0,a0,0xa
    80006e04:	26750513          	addi	a0,a0,615
    80006e08:	00553593          	sltiu	a1,a0,5
    80006e0c:	48b13c23          	sd	a1,1176(sp)
    80006e10:	00000193          	li	gp,0
    80006e14:	00b18463          	beq	gp,a1,80006e1c <inst_682>
    80006e18:	a0cf906f          	j	80000024 <rvtest_error>

0000000080006e1c <inst_682>:
    80006e1c:	66666537          	lui	a0,0x66666
    80006e20:	66650513          	addi	a0,a0,1638 # 66666666 <absimmsh+0x5ab958b9>
    80006e24:	00b51513          	slli	a0,a0,0xb
    80006e28:	33350513          	addi	a0,a0,819
    80006e2c:	00b51513          	slli	a0,a0,0xb
    80006e30:	19950513          	addi	a0,a0,409
    80006e34:	00a51513          	slli	a0,a0,0xa
    80006e38:	26750513          	addi	a0,a0,615
    80006e3c:	33353593          	sltiu	a1,a0,819
    80006e40:	4ab13023          	sd	a1,1184(sp)
    80006e44:	00000193          	li	gp,0
    80006e48:	00b18463          	beq	gp,a1,80006e50 <inst_683>
    80006e4c:	9d8f906f          	j	80000024 <rvtest_error>

0000000080006e50 <inst_683>:
    80006e50:	66666537          	lui	a0,0x66666
    80006e54:	66650513          	addi	a0,a0,1638 # 66666666 <absimmsh+0x5ab958b9>
    80006e58:	00b51513          	slli	a0,a0,0xb
    80006e5c:	33350513          	addi	a0,a0,819
    80006e60:	00b51513          	slli	a0,a0,0xb
    80006e64:	19950513          	addi	a0,a0,409
    80006e68:	00a51513          	slli	a0,a0,0xa
    80006e6c:	26750513          	addi	a0,a0,615
    80006e70:	66653593          	sltiu	a1,a0,1638
    80006e74:	4ab13423          	sd	a1,1192(sp)
    80006e78:	00000193          	li	gp,0
    80006e7c:	00b18463          	beq	gp,a1,80006e84 <inst_684>
    80006e80:	9a4f906f          	j	80000024 <rvtest_error>

0000000080006e84 <inst_684>:
    80006e84:	66666537          	lui	a0,0x66666
    80006e88:	66650513          	addi	a0,a0,1638 # 66666666 <absimmsh+0x5ab958b9>
    80006e8c:	00b51513          	slli	a0,a0,0xb
    80006e90:	33350513          	addi	a0,a0,819
    80006e94:	00b51513          	slli	a0,a0,0xb
    80006e98:	19950513          	addi	a0,a0,409
    80006e9c:	00a51513          	slli	a0,a0,0xa
    80006ea0:	26750513          	addi	a0,a0,615
    80006ea4:	02d53593          	sltiu	a1,a0,45
    80006ea8:	4ab13823          	sd	a1,1200(sp)
    80006eac:	00000193          	li	gp,0
    80006eb0:	00b18463          	beq	gp,a1,80006eb8 <inst_685>
    80006eb4:	970f906f          	j	80000024 <rvtest_error>

0000000080006eb8 <inst_685>:
    80006eb8:	66666537          	lui	a0,0x66666
    80006ebc:	66650513          	addi	a0,a0,1638 # 66666666 <absimmsh+0x5ab958b9>
    80006ec0:	00b51513          	slli	a0,a0,0xb
    80006ec4:	33350513          	addi	a0,a0,819
    80006ec8:	00b51513          	slli	a0,a0,0xb
    80006ecc:	19950513          	addi	a0,a0,409
    80006ed0:	00a51513          	slli	a0,a0,0xa
    80006ed4:	26750513          	addi	a0,a0,615
    80006ed8:	00053593          	sltiu	a1,a0,0
    80006edc:	4ab13c23          	sd	a1,1208(sp)
    80006ee0:	00000193          	li	gp,0
    80006ee4:	00b18463          	beq	gp,a1,80006eec <inst_686>
    80006ee8:	93cf906f          	j	80000024 <rvtest_error>

0000000080006eec <inst_686>:
    80006eec:	66666537          	lui	a0,0x66666
    80006ef0:	66650513          	addi	a0,a0,1638 # 66666666 <absimmsh+0x5ab958b9>
    80006ef4:	00b51513          	slli	a0,a0,0xb
    80006ef8:	33350513          	addi	a0,a0,819
    80006efc:	00b51513          	slli	a0,a0,0xb
    80006f00:	19950513          	addi	a0,a0,409
    80006f04:	00a51513          	slli	a0,a0,0xa
    80006f08:	26750513          	addi	a0,a0,615
    80006f0c:	03f53593          	sltiu	a1,a0,63
    80006f10:	4cb13023          	sd	a1,1216(sp)
    80006f14:	00000193          	li	gp,0
    80006f18:	00b18463          	beq	gp,a1,80006f20 <inst_687>
    80006f1c:	908f906f          	j	80000024 <rvtest_error>

0000000080006f20 <inst_687>:
    80006f20:	66666537          	lui	a0,0x66666
    80006f24:	66650513          	addi	a0,a0,1638 # 66666666 <absimmsh+0x5ab958b9>
    80006f28:	00b51513          	slli	a0,a0,0xb
    80006f2c:	33350513          	addi	a0,a0,819
    80006f30:	00b51513          	slli	a0,a0,0xb
    80006f34:	19950513          	addi	a0,a0,409
    80006f38:	00a51513          	slli	a0,a0,0xa
    80006f3c:	26750513          	addi	a0,a0,615
    80006f40:	00253593          	sltiu	a1,a0,2
    80006f44:	4cb13423          	sd	a1,1224(sp)
    80006f48:	00000193          	li	gp,0
    80006f4c:	00b18463          	beq	gp,a1,80006f54 <inst_688>
    80006f50:	8d4f906f          	j	80000024 <rvtest_error>

0000000080006f54 <inst_688>:
    80006f54:	66666537          	lui	a0,0x66666
    80006f58:	66650513          	addi	a0,a0,1638 # 66666666 <absimmsh+0x5ab958b9>
    80006f5c:	00b51513          	slli	a0,a0,0xb
    80006f60:	33350513          	addi	a0,a0,819
    80006f64:	00b51513          	slli	a0,a0,0xb
    80006f68:	19950513          	addi	a0,a0,409
    80006f6c:	00a51513          	slli	a0,a0,0xa
    80006f70:	26750513          	addi	a0,a0,615
    80006f74:	55453593          	sltiu	a1,a0,1364
    80006f78:	4cb13823          	sd	a1,1232(sp)
    80006f7c:	00000193          	li	gp,0
    80006f80:	00b18463          	beq	gp,a1,80006f88 <inst_689>
    80006f84:	8a0f906f          	j	80000024 <rvtest_error>

0000000080006f88 <inst_689>:
    80006f88:	66666537          	lui	a0,0x66666
    80006f8c:	66650513          	addi	a0,a0,1638 # 66666666 <absimmsh+0x5ab958b9>
    80006f90:	00b51513          	slli	a0,a0,0xb
    80006f94:	33350513          	addi	a0,a0,819
    80006f98:	00b51513          	slli	a0,a0,0xb
    80006f9c:	19950513          	addi	a0,a0,409
    80006fa0:	00a51513          	slli	a0,a0,0xa
    80006fa4:	26750513          	addi	a0,a0,615
    80006fa8:	aa953593          	sltiu	a1,a0,-1367
    80006fac:	4cb13c23          	sd	a1,1240(sp)
    80006fb0:	00100193          	li	gp,1
    80006fb4:	00b18463          	beq	gp,a1,80006fbc <inst_690>
    80006fb8:	86cf906f          	j	80000024 <rvtest_error>

0000000080006fbc <inst_690>:
    80006fbc:	66666537          	lui	a0,0x66666
    80006fc0:	66650513          	addi	a0,a0,1638 # 66666666 <absimmsh+0x5ab958b9>
    80006fc4:	00b51513          	slli	a0,a0,0xb
    80006fc8:	33350513          	addi	a0,a0,819
    80006fcc:	00b51513          	slli	a0,a0,0xb
    80006fd0:	19950513          	addi	a0,a0,409
    80006fd4:	00a51513          	slli	a0,a0,0xa
    80006fd8:	26750513          	addi	a0,a0,615
    80006fdc:	00453593          	sltiu	a1,a0,4
    80006fe0:	4eb13023          	sd	a1,1248(sp)
    80006fe4:	00000193          	li	gp,0
    80006fe8:	00b18463          	beq	gp,a1,80006ff0 <inst_691>
    80006fec:	838f906f          	j	80000024 <rvtest_error>

0000000080006ff0 <inst_691>:
    80006ff0:	66666537          	lui	a0,0x66666
    80006ff4:	66650513          	addi	a0,a0,1638 # 66666666 <absimmsh+0x5ab958b9>
    80006ff8:	00b51513          	slli	a0,a0,0xb
    80006ffc:	33350513          	addi	a0,a0,819
    80007000:	00b51513          	slli	a0,a0,0xb
    80007004:	19950513          	addi	a0,a0,409
    80007008:	00a51513          	slli	a0,a0,0xa
    8000700c:	26750513          	addi	a0,a0,615
    80007010:	33253593          	sltiu	a1,a0,818
    80007014:	4eb13423          	sd	a1,1256(sp)
    80007018:	00000193          	li	gp,0
    8000701c:	00b18463          	beq	gp,a1,80007024 <inst_692>
    80007020:	804f906f          	j	80000024 <rvtest_error>

0000000080007024 <inst_692>:
    80007024:	66666537          	lui	a0,0x66666
    80007028:	66650513          	addi	a0,a0,1638 # 66666666 <absimmsh+0x5ab958b9>
    8000702c:	00b51513          	slli	a0,a0,0xb
    80007030:	33350513          	addi	a0,a0,819
    80007034:	00b51513          	slli	a0,a0,0xb
    80007038:	19950513          	addi	a0,a0,409
    8000703c:	00a51513          	slli	a0,a0,0xa
    80007040:	26750513          	addi	a0,a0,615
    80007044:	66553593          	sltiu	a1,a0,1637
    80007048:	4eb13823          	sd	a1,1264(sp)
    8000704c:	00000193          	li	gp,0
    80007050:	00b18463          	beq	gp,a1,80007058 <inst_693>
    80007054:	fd1f806f          	j	80000024 <rvtest_error>

0000000080007058 <inst_693>:
    80007058:	66666537          	lui	a0,0x66666
    8000705c:	66650513          	addi	a0,a0,1638 # 66666666 <absimmsh+0x5ab958b9>
    80007060:	00b51513          	slli	a0,a0,0xb
    80007064:	33350513          	addi	a0,a0,819
    80007068:	00b51513          	slli	a0,a0,0xb
    8000706c:	19950513          	addi	a0,a0,409
    80007070:	00a51513          	slli	a0,a0,0xa
    80007074:	26750513          	addi	a0,a0,615
    80007078:	02c53593          	sltiu	a1,a0,44
    8000707c:	4eb13c23          	sd	a1,1272(sp)
    80007080:	00000193          	li	gp,0
    80007084:	00b18463          	beq	gp,a1,8000708c <inst_694>
    80007088:	f9df806f          	j	80000024 <rvtest_error>

000000008000708c <inst_694>:
    8000708c:	66666537          	lui	a0,0x66666
    80007090:	66650513          	addi	a0,a0,1638 # 66666666 <absimmsh+0x5ab958b9>
    80007094:	00b51513          	slli	a0,a0,0xb
    80007098:	33350513          	addi	a0,a0,819
    8000709c:	00b51513          	slli	a0,a0,0xb
    800070a0:	19950513          	addi	a0,a0,409
    800070a4:	00a51513          	slli	a0,a0,0xa
    800070a8:	26750513          	addi	a0,a0,615
    800070ac:	03e53593          	sltiu	a1,a0,62
    800070b0:	50b13023          	sd	a1,1280(sp)
    800070b4:	00000193          	li	gp,0
    800070b8:	00b18463          	beq	gp,a1,800070c0 <inst_695>
    800070bc:	f69f806f          	j	80000024 <rvtest_error>

00000000800070c0 <inst_695>:
    800070c0:	66666537          	lui	a0,0x66666
    800070c4:	66650513          	addi	a0,a0,1638 # 66666666 <absimmsh+0x5ab958b9>
    800070c8:	00b51513          	slli	a0,a0,0xb
    800070cc:	33350513          	addi	a0,a0,819
    800070d0:	00b51513          	slli	a0,a0,0xb
    800070d4:	19950513          	addi	a0,a0,409
    800070d8:	00a51513          	slli	a0,a0,0xa
    800070dc:	26750513          	addi	a0,a0,615
    800070e0:	55653593          	sltiu	a1,a0,1366
    800070e4:	50b13423          	sd	a1,1288(sp)
    800070e8:	00000193          	li	gp,0
    800070ec:	00b18463          	beq	gp,a1,800070f4 <inst_696>
    800070f0:	f35f806f          	j	80000024 <rvtest_error>

00000000800070f4 <inst_696>:
    800070f4:	66666537          	lui	a0,0x66666
    800070f8:	66650513          	addi	a0,a0,1638 # 66666666 <absimmsh+0x5ab958b9>
    800070fc:	00b51513          	slli	a0,a0,0xb
    80007100:	33350513          	addi	a0,a0,819
    80007104:	00b51513          	slli	a0,a0,0xb
    80007108:	19950513          	addi	a0,a0,409
    8000710c:	00a51513          	slli	a0,a0,0xa
    80007110:	26750513          	addi	a0,a0,615
    80007114:	aab53593          	sltiu	a1,a0,-1365
    80007118:	50b13823          	sd	a1,1296(sp)
    8000711c:	00100193          	li	gp,1
    80007120:	00b18463          	beq	gp,a1,80007128 <inst_697>
    80007124:	f01f806f          	j	80000024 <rvtest_error>

0000000080007128 <inst_697>:
    80007128:	66666537          	lui	a0,0x66666
    8000712c:	66650513          	addi	a0,a0,1638 # 66666666 <absimmsh+0x5ab958b9>
    80007130:	00b51513          	slli	a0,a0,0xb
    80007134:	33350513          	addi	a0,a0,819
    80007138:	00b51513          	slli	a0,a0,0xb
    8000713c:	19950513          	addi	a0,a0,409
    80007140:	00a51513          	slli	a0,a0,0xa
    80007144:	26750513          	addi	a0,a0,615
    80007148:	00653593          	sltiu	a1,a0,6
    8000714c:	50b13c23          	sd	a1,1304(sp)
    80007150:	00000193          	li	gp,0
    80007154:	00b18463          	beq	gp,a1,8000715c <inst_698>
    80007158:	ecdf806f          	j	80000024 <rvtest_error>

000000008000715c <inst_698>:
    8000715c:	66666537          	lui	a0,0x66666
    80007160:	66650513          	addi	a0,a0,1638 # 66666666 <absimmsh+0x5ab958b9>
    80007164:	00b51513          	slli	a0,a0,0xb
    80007168:	33350513          	addi	a0,a0,819
    8000716c:	00b51513          	slli	a0,a0,0xb
    80007170:	19950513          	addi	a0,a0,409
    80007174:	00a51513          	slli	a0,a0,0xa
    80007178:	26750513          	addi	a0,a0,615
    8000717c:	33453593          	sltiu	a1,a0,820
    80007180:	52b13023          	sd	a1,1312(sp)
    80007184:	00000193          	li	gp,0
    80007188:	00b18463          	beq	gp,a1,80007190 <inst_699>
    8000718c:	e99f806f          	j	80000024 <rvtest_error>

0000000080007190 <inst_699>:
    80007190:	66666537          	lui	a0,0x66666
    80007194:	66650513          	addi	a0,a0,1638 # 66666666 <absimmsh+0x5ab958b9>
    80007198:	00b51513          	slli	a0,a0,0xb
    8000719c:	33350513          	addi	a0,a0,819
    800071a0:	00b51513          	slli	a0,a0,0xb
    800071a4:	19950513          	addi	a0,a0,409
    800071a8:	00a51513          	slli	a0,a0,0xa
    800071ac:	26750513          	addi	a0,a0,615
    800071b0:	66753593          	sltiu	a1,a0,1639
    800071b4:	52b13423          	sd	a1,1320(sp)
    800071b8:	00000193          	li	gp,0
    800071bc:	00b18463          	beq	gp,a1,800071c4 <inst_700>
    800071c0:	e65f806f          	j	80000024 <rvtest_error>

00000000800071c4 <inst_700>:
    800071c4:	66666537          	lui	a0,0x66666
    800071c8:	66650513          	addi	a0,a0,1638 # 66666666 <absimmsh+0x5ab958b9>
    800071cc:	00b51513          	slli	a0,a0,0xb
    800071d0:	33350513          	addi	a0,a0,819
    800071d4:	00b51513          	slli	a0,a0,0xb
    800071d8:	19950513          	addi	a0,a0,409
    800071dc:	00a51513          	slli	a0,a0,0xa
    800071e0:	26750513          	addi	a0,a0,615
    800071e4:	02e53593          	sltiu	a1,a0,46
    800071e8:	52b13823          	sd	a1,1328(sp)
    800071ec:	00000193          	li	gp,0
    800071f0:	00b18463          	beq	gp,a1,800071f8 <inst_701>
    800071f4:	e31f806f          	j	80000024 <rvtest_error>

00000000800071f8 <inst_701>:
    800071f8:	66666537          	lui	a0,0x66666
    800071fc:	66650513          	addi	a0,a0,1638 # 66666666 <absimmsh+0x5ab958b9>
    80007200:	00b51513          	slli	a0,a0,0xb
    80007204:	33350513          	addi	a0,a0,819
    80007208:	00b51513          	slli	a0,a0,0xb
    8000720c:	19950513          	addi	a0,a0,409
    80007210:	00a51513          	slli	a0,a0,0xa
    80007214:	26750513          	addi	a0,a0,615
    80007218:	00153593          	seqz	a1,a0
    8000721c:	52b13c23          	sd	a1,1336(sp)
    80007220:	00000193          	li	gp,0
    80007224:	00b18463          	beq	gp,a1,8000722c <inst_702>
    80007228:	dfdf806f          	j	80000024 <rvtest_error>

000000008000722c <inst_702>:
    8000722c:	66666537          	lui	a0,0x66666
    80007230:	66650513          	addi	a0,a0,1638 # 66666666 <absimmsh+0x5ab958b9>
    80007234:	00b51513          	slli	a0,a0,0xb
    80007238:	33350513          	addi	a0,a0,819
    8000723c:	00b51513          	slli	a0,a0,0xb
    80007240:	19950513          	addi	a0,a0,409
    80007244:	00a51513          	slli	a0,a0,0xa
    80007248:	26750513          	addi	a0,a0,615
    8000724c:	04053593          	sltiu	a1,a0,64
    80007250:	54b13023          	sd	a1,1344(sp)
    80007254:	00000193          	li	gp,0
    80007258:	00b18463          	beq	gp,a1,80007260 <inst_703>
    8000725c:	dc9f806f          	j	80000024 <rvtest_error>

0000000080007260 <inst_703>:
    80007260:	00000537          	lui	a0,0x0
    80007264:	00050513          	mv	a0,a0
    80007268:	00b51513          	slli	a0,a0,0xb
    8000726c:	5a850513          	addi	a0,a0,1448 # 5a8 <pos+0x568>
    80007270:	00b51513          	slli	a0,a0,0xb
    80007274:	13c50513          	addi	a0,a0,316
    80007278:	00a51513          	slli	a0,a0,0xa
    8000727c:	33450513          	addi	a0,a0,820
    80007280:	00353593          	sltiu	a1,a0,3
    80007284:	54b13423          	sd	a1,1352(sp)
    80007288:	00000193          	li	gp,0
    8000728c:	00b18463          	beq	gp,a1,80007294 <inst_704>
    80007290:	d95f806f          	j	80000024 <rvtest_error>

0000000080007294 <inst_704>:
    80007294:	00000537          	lui	a0,0x0
    80007298:	00050513          	mv	a0,a0
    8000729c:	00b51513          	slli	a0,a0,0xb
    800072a0:	5a850513          	addi	a0,a0,1448 # 5a8 <pos+0x568>
    800072a4:	00b51513          	slli	a0,a0,0xb
    800072a8:	13c50513          	addi	a0,a0,316
    800072ac:	00a51513          	slli	a0,a0,0xa
    800072b0:	33450513          	addi	a0,a0,820
    800072b4:	55553593          	sltiu	a1,a0,1365
    800072b8:	54b13823          	sd	a1,1360(sp)
    800072bc:	00000193          	li	gp,0
    800072c0:	00b18463          	beq	gp,a1,800072c8 <inst_705>
    800072c4:	d61f806f          	j	80000024 <rvtest_error>

00000000800072c8 <inst_705>:
    800072c8:	00000537          	lui	a0,0x0
    800072cc:	00050513          	mv	a0,a0
    800072d0:	00b51513          	slli	a0,a0,0xb
    800072d4:	5a850513          	addi	a0,a0,1448 # 5a8 <pos+0x568>
    800072d8:	00b51513          	slli	a0,a0,0xb
    800072dc:	13c50513          	addi	a0,a0,316
    800072e0:	00a51513          	slli	a0,a0,0xa
    800072e4:	33450513          	addi	a0,a0,820
    800072e8:	aaa53593          	sltiu	a1,a0,-1366
    800072ec:	54b13c23          	sd	a1,1368(sp)
    800072f0:	00100193          	li	gp,1
    800072f4:	00b18463          	beq	gp,a1,800072fc <inst_706>
    800072f8:	d2df806f          	j	80000024 <rvtest_error>

00000000800072fc <inst_706>:
    800072fc:	00000537          	lui	a0,0x0
    80007300:	00050513          	mv	a0,a0
    80007304:	00b51513          	slli	a0,a0,0xb
    80007308:	5a850513          	addi	a0,a0,1448 # 5a8 <pos+0x568>
    8000730c:	00b51513          	slli	a0,a0,0xb
    80007310:	13c50513          	addi	a0,a0,316
    80007314:	00a51513          	slli	a0,a0,0xa
    80007318:	33450513          	addi	a0,a0,820
    8000731c:	00553593          	sltiu	a1,a0,5
    80007320:	56b13023          	sd	a1,1376(sp)
    80007324:	00000193          	li	gp,0
    80007328:	00b18463          	beq	gp,a1,80007330 <inst_707>
    8000732c:	cf9f806f          	j	80000024 <rvtest_error>

0000000080007330 <inst_707>:
    80007330:	00000537          	lui	a0,0x0
    80007334:	00050513          	mv	a0,a0
    80007338:	00b51513          	slli	a0,a0,0xb
    8000733c:	5a850513          	addi	a0,a0,1448 # 5a8 <pos+0x568>
    80007340:	00b51513          	slli	a0,a0,0xb
    80007344:	13c50513          	addi	a0,a0,316
    80007348:	00a51513          	slli	a0,a0,0xa
    8000734c:	33450513          	addi	a0,a0,820
    80007350:	33353593          	sltiu	a1,a0,819
    80007354:	56b13423          	sd	a1,1384(sp)
    80007358:	00000193          	li	gp,0
    8000735c:	00b18463          	beq	gp,a1,80007364 <inst_708>
    80007360:	cc5f806f          	j	80000024 <rvtest_error>

0000000080007364 <inst_708>:
    80007364:	00000537          	lui	a0,0x0
    80007368:	00050513          	mv	a0,a0
    8000736c:	00b51513          	slli	a0,a0,0xb
    80007370:	5a850513          	addi	a0,a0,1448 # 5a8 <pos+0x568>
    80007374:	00b51513          	slli	a0,a0,0xb
    80007378:	13c50513          	addi	a0,a0,316
    8000737c:	00a51513          	slli	a0,a0,0xa
    80007380:	33450513          	addi	a0,a0,820
    80007384:	66653593          	sltiu	a1,a0,1638
    80007388:	56b13823          	sd	a1,1392(sp)
    8000738c:	00000193          	li	gp,0
    80007390:	00b18463          	beq	gp,a1,80007398 <inst_709>
    80007394:	c91f806f          	j	80000024 <rvtest_error>

0000000080007398 <inst_709>:
    80007398:	00000537          	lui	a0,0x0
    8000739c:	00050513          	mv	a0,a0
    800073a0:	00b51513          	slli	a0,a0,0xb
    800073a4:	5a850513          	addi	a0,a0,1448 # 5a8 <pos+0x568>
    800073a8:	00b51513          	slli	a0,a0,0xb
    800073ac:	13c50513          	addi	a0,a0,316
    800073b0:	00a51513          	slli	a0,a0,0xa
    800073b4:	33450513          	addi	a0,a0,820
    800073b8:	02d53593          	sltiu	a1,a0,45
    800073bc:	56b13c23          	sd	a1,1400(sp)
    800073c0:	00000193          	li	gp,0
    800073c4:	00b18463          	beq	gp,a1,800073cc <inst_710>
    800073c8:	c5df806f          	j	80000024 <rvtest_error>

00000000800073cc <inst_710>:
    800073cc:	00000537          	lui	a0,0x0
    800073d0:	00050513          	mv	a0,a0
    800073d4:	00b51513          	slli	a0,a0,0xb
    800073d8:	5a850513          	addi	a0,a0,1448 # 5a8 <pos+0x568>
    800073dc:	00b51513          	slli	a0,a0,0xb
    800073e0:	13c50513          	addi	a0,a0,316
    800073e4:	00a51513          	slli	a0,a0,0xa
    800073e8:	33450513          	addi	a0,a0,820
    800073ec:	00053593          	sltiu	a1,a0,0
    800073f0:	58b13023          	sd	a1,1408(sp)
    800073f4:	00000193          	li	gp,0
    800073f8:	00b18463          	beq	gp,a1,80007400 <inst_711>
    800073fc:	c29f806f          	j	80000024 <rvtest_error>

0000000080007400 <inst_711>:
    80007400:	00000537          	lui	a0,0x0
    80007404:	00050513          	mv	a0,a0
    80007408:	00b51513          	slli	a0,a0,0xb
    8000740c:	5a850513          	addi	a0,a0,1448 # 5a8 <pos+0x568>
    80007410:	00b51513          	slli	a0,a0,0xb
    80007414:	13c50513          	addi	a0,a0,316
    80007418:	00a51513          	slli	a0,a0,0xa
    8000741c:	33450513          	addi	a0,a0,820
    80007420:	03f53593          	sltiu	a1,a0,63
    80007424:	58b13423          	sd	a1,1416(sp)
    80007428:	00000193          	li	gp,0
    8000742c:	00b18463          	beq	gp,a1,80007434 <inst_712>
    80007430:	bf5f806f          	j	80000024 <rvtest_error>

0000000080007434 <inst_712>:
    80007434:	00000537          	lui	a0,0x0
    80007438:	00050513          	mv	a0,a0
    8000743c:	00b51513          	slli	a0,a0,0xb
    80007440:	5a850513          	addi	a0,a0,1448 # 5a8 <pos+0x568>
    80007444:	00b51513          	slli	a0,a0,0xb
    80007448:	13c50513          	addi	a0,a0,316
    8000744c:	00a51513          	slli	a0,a0,0xa
    80007450:	33450513          	addi	a0,a0,820
    80007454:	00253593          	sltiu	a1,a0,2
    80007458:	58b13823          	sd	a1,1424(sp)
    8000745c:	00000193          	li	gp,0
    80007460:	00b18463          	beq	gp,a1,80007468 <inst_713>
    80007464:	bc1f806f          	j	80000024 <rvtest_error>

0000000080007468 <inst_713>:
    80007468:	00000537          	lui	a0,0x0
    8000746c:	00050513          	mv	a0,a0
    80007470:	00b51513          	slli	a0,a0,0xb
    80007474:	5a850513          	addi	a0,a0,1448 # 5a8 <pos+0x568>
    80007478:	00b51513          	slli	a0,a0,0xb
    8000747c:	13c50513          	addi	a0,a0,316
    80007480:	00a51513          	slli	a0,a0,0xa
    80007484:	33450513          	addi	a0,a0,820
    80007488:	55453593          	sltiu	a1,a0,1364
    8000748c:	58b13c23          	sd	a1,1432(sp)
    80007490:	00000193          	li	gp,0
    80007494:	00b18463          	beq	gp,a1,8000749c <inst_714>
    80007498:	b8df806f          	j	80000024 <rvtest_error>

000000008000749c <inst_714>:
    8000749c:	00000537          	lui	a0,0x0
    800074a0:	00050513          	mv	a0,a0
    800074a4:	00b51513          	slli	a0,a0,0xb
    800074a8:	5a850513          	addi	a0,a0,1448 # 5a8 <pos+0x568>
    800074ac:	00b51513          	slli	a0,a0,0xb
    800074b0:	13c50513          	addi	a0,a0,316
    800074b4:	00a51513          	slli	a0,a0,0xa
    800074b8:	33450513          	addi	a0,a0,820
    800074bc:	aa953593          	sltiu	a1,a0,-1367
    800074c0:	5ab13023          	sd	a1,1440(sp)
    800074c4:	00100193          	li	gp,1
    800074c8:	00b18463          	beq	gp,a1,800074d0 <inst_715>
    800074cc:	b59f806f          	j	80000024 <rvtest_error>

00000000800074d0 <inst_715>:
    800074d0:	00000537          	lui	a0,0x0
    800074d4:	00050513          	mv	a0,a0
    800074d8:	00b51513          	slli	a0,a0,0xb
    800074dc:	5a850513          	addi	a0,a0,1448 # 5a8 <pos+0x568>
    800074e0:	00b51513          	slli	a0,a0,0xb
    800074e4:	13c50513          	addi	a0,a0,316
    800074e8:	00a51513          	slli	a0,a0,0xa
    800074ec:	33450513          	addi	a0,a0,820
    800074f0:	00453593          	sltiu	a1,a0,4
    800074f4:	5ab13423          	sd	a1,1448(sp)
    800074f8:	00000193          	li	gp,0
    800074fc:	00b18463          	beq	gp,a1,80007504 <inst_716>
    80007500:	b25f806f          	j	80000024 <rvtest_error>

0000000080007504 <inst_716>:
    80007504:	00000537          	lui	a0,0x0
    80007508:	00050513          	mv	a0,a0
    8000750c:	00b51513          	slli	a0,a0,0xb
    80007510:	5a850513          	addi	a0,a0,1448 # 5a8 <pos+0x568>
    80007514:	00b51513          	slli	a0,a0,0xb
    80007518:	13c50513          	addi	a0,a0,316
    8000751c:	00a51513          	slli	a0,a0,0xa
    80007520:	33450513          	addi	a0,a0,820
    80007524:	33253593          	sltiu	a1,a0,818
    80007528:	5ab13823          	sd	a1,1456(sp)
    8000752c:	00000193          	li	gp,0
    80007530:	00b18463          	beq	gp,a1,80007538 <inst_717>
    80007534:	af1f806f          	j	80000024 <rvtest_error>

0000000080007538 <inst_717>:
    80007538:	00000537          	lui	a0,0x0
    8000753c:	00050513          	mv	a0,a0
    80007540:	00b51513          	slli	a0,a0,0xb
    80007544:	5a850513          	addi	a0,a0,1448 # 5a8 <pos+0x568>
    80007548:	00b51513          	slli	a0,a0,0xb
    8000754c:	13c50513          	addi	a0,a0,316
    80007550:	00a51513          	slli	a0,a0,0xa
    80007554:	33450513          	addi	a0,a0,820
    80007558:	66553593          	sltiu	a1,a0,1637
    8000755c:	5ab13c23          	sd	a1,1464(sp)
    80007560:	00000193          	li	gp,0
    80007564:	00b18463          	beq	gp,a1,8000756c <inst_718>
    80007568:	abdf806f          	j	80000024 <rvtest_error>

000000008000756c <inst_718>:
    8000756c:	00000537          	lui	a0,0x0
    80007570:	00050513          	mv	a0,a0
    80007574:	00b51513          	slli	a0,a0,0xb
    80007578:	5a850513          	addi	a0,a0,1448 # 5a8 <pos+0x568>
    8000757c:	00b51513          	slli	a0,a0,0xb
    80007580:	13c50513          	addi	a0,a0,316
    80007584:	00a51513          	slli	a0,a0,0xa
    80007588:	33450513          	addi	a0,a0,820
    8000758c:	02c53593          	sltiu	a1,a0,44
    80007590:	5cb13023          	sd	a1,1472(sp)
    80007594:	00000193          	li	gp,0
    80007598:	00b18463          	beq	gp,a1,800075a0 <inst_719>
    8000759c:	a89f806f          	j	80000024 <rvtest_error>

00000000800075a0 <inst_719>:
    800075a0:	00000537          	lui	a0,0x0
    800075a4:	00050513          	mv	a0,a0
    800075a8:	00b51513          	slli	a0,a0,0xb
    800075ac:	5a850513          	addi	a0,a0,1448 # 5a8 <pos+0x568>
    800075b0:	00b51513          	slli	a0,a0,0xb
    800075b4:	13c50513          	addi	a0,a0,316
    800075b8:	00a51513          	slli	a0,a0,0xa
    800075bc:	33450513          	addi	a0,a0,820
    800075c0:	03e53593          	sltiu	a1,a0,62
    800075c4:	5cb13423          	sd	a1,1480(sp)
    800075c8:	00000193          	li	gp,0
    800075cc:	00b18463          	beq	gp,a1,800075d4 <inst_720>
    800075d0:	a55f806f          	j	80000024 <rvtest_error>

00000000800075d4 <inst_720>:
    800075d4:	00000537          	lui	a0,0x0
    800075d8:	00050513          	mv	a0,a0
    800075dc:	00b51513          	slli	a0,a0,0xb
    800075e0:	5a850513          	addi	a0,a0,1448 # 5a8 <pos+0x568>
    800075e4:	00b51513          	slli	a0,a0,0xb
    800075e8:	13c50513          	addi	a0,a0,316
    800075ec:	00a51513          	slli	a0,a0,0xa
    800075f0:	33450513          	addi	a0,a0,820
    800075f4:	55653593          	sltiu	a1,a0,1366
    800075f8:	5cb13823          	sd	a1,1488(sp)
    800075fc:	00000193          	li	gp,0
    80007600:	00b18463          	beq	gp,a1,80007608 <inst_721>
    80007604:	a21f806f          	j	80000024 <rvtest_error>

0000000080007608 <inst_721>:
    80007608:	00000537          	lui	a0,0x0
    8000760c:	00050513          	mv	a0,a0
    80007610:	00b51513          	slli	a0,a0,0xb
    80007614:	5a850513          	addi	a0,a0,1448 # 5a8 <pos+0x568>
    80007618:	00b51513          	slli	a0,a0,0xb
    8000761c:	13c50513          	addi	a0,a0,316
    80007620:	00a51513          	slli	a0,a0,0xa
    80007624:	33450513          	addi	a0,a0,820
    80007628:	aab53593          	sltiu	a1,a0,-1365
    8000762c:	5cb13c23          	sd	a1,1496(sp)
    80007630:	00100193          	li	gp,1
    80007634:	00b18463          	beq	gp,a1,8000763c <inst_722>
    80007638:	9edf806f          	j	80000024 <rvtest_error>

000000008000763c <inst_722>:
    8000763c:	00000537          	lui	a0,0x0
    80007640:	00050513          	mv	a0,a0
    80007644:	00b51513          	slli	a0,a0,0xb
    80007648:	5a850513          	addi	a0,a0,1448 # 5a8 <pos+0x568>
    8000764c:	00b51513          	slli	a0,a0,0xb
    80007650:	13c50513          	addi	a0,a0,316
    80007654:	00a51513          	slli	a0,a0,0xa
    80007658:	33450513          	addi	a0,a0,820
    8000765c:	00653593          	sltiu	a1,a0,6
    80007660:	5eb13023          	sd	a1,1504(sp)
    80007664:	00000193          	li	gp,0
    80007668:	00b18463          	beq	gp,a1,80007670 <inst_723>
    8000766c:	9b9f806f          	j	80000024 <rvtest_error>

0000000080007670 <inst_723>:
    80007670:	00000537          	lui	a0,0x0
    80007674:	00050513          	mv	a0,a0
    80007678:	00b51513          	slli	a0,a0,0xb
    8000767c:	5a850513          	addi	a0,a0,1448 # 5a8 <pos+0x568>
    80007680:	00b51513          	slli	a0,a0,0xb
    80007684:	13c50513          	addi	a0,a0,316
    80007688:	00a51513          	slli	a0,a0,0xa
    8000768c:	33450513          	addi	a0,a0,820
    80007690:	33453593          	sltiu	a1,a0,820
    80007694:	5eb13423          	sd	a1,1512(sp)
    80007698:	00000193          	li	gp,0
    8000769c:	00b18463          	beq	gp,a1,800076a4 <inst_724>
    800076a0:	985f806f          	j	80000024 <rvtest_error>

00000000800076a4 <inst_724>:
    800076a4:	00000537          	lui	a0,0x0
    800076a8:	00050513          	mv	a0,a0
    800076ac:	00b51513          	slli	a0,a0,0xb
    800076b0:	5a850513          	addi	a0,a0,1448 # 5a8 <pos+0x568>
    800076b4:	00b51513          	slli	a0,a0,0xb
    800076b8:	13c50513          	addi	a0,a0,316
    800076bc:	00a51513          	slli	a0,a0,0xa
    800076c0:	33450513          	addi	a0,a0,820
    800076c4:	66753593          	sltiu	a1,a0,1639
    800076c8:	5eb13823          	sd	a1,1520(sp)
    800076cc:	00000193          	li	gp,0
    800076d0:	00b18463          	beq	gp,a1,800076d8 <inst_725>
    800076d4:	951f806f          	j	80000024 <rvtest_error>

00000000800076d8 <inst_725>:
    800076d8:	00000537          	lui	a0,0x0
    800076dc:	00050513          	mv	a0,a0
    800076e0:	00b51513          	slli	a0,a0,0xb
    800076e4:	5a850513          	addi	a0,a0,1448 # 5a8 <pos+0x568>
    800076e8:	00b51513          	slli	a0,a0,0xb
    800076ec:	13c50513          	addi	a0,a0,316
    800076f0:	00a51513          	slli	a0,a0,0xa
    800076f4:	33450513          	addi	a0,a0,820
    800076f8:	02e53593          	sltiu	a1,a0,46
    800076fc:	5eb13c23          	sd	a1,1528(sp)
    80007700:	00000193          	li	gp,0
    80007704:	00b18463          	beq	gp,a1,8000770c <inst_726>
    80007708:	91df806f          	j	80000024 <rvtest_error>

000000008000770c <inst_726>:
    8000770c:	00000537          	lui	a0,0x0
    80007710:	00050513          	mv	a0,a0
    80007714:	00b51513          	slli	a0,a0,0xb
    80007718:	5a850513          	addi	a0,a0,1448 # 5a8 <pos+0x568>
    8000771c:	00b51513          	slli	a0,a0,0xb
    80007720:	13c50513          	addi	a0,a0,316
    80007724:	00a51513          	slli	a0,a0,0xa
    80007728:	33450513          	addi	a0,a0,820
    8000772c:	00153593          	seqz	a1,a0
    80007730:	60b13023          	sd	a1,1536(sp)
    80007734:	00000193          	li	gp,0
    80007738:	00b18463          	beq	gp,a1,80007740 <inst_727>
    8000773c:	8e9f806f          	j	80000024 <rvtest_error>

0000000080007740 <inst_727>:
    80007740:	00000537          	lui	a0,0x0
    80007744:	00050513          	mv	a0,a0
    80007748:	00b51513          	slli	a0,a0,0xb
    8000774c:	5a850513          	addi	a0,a0,1448 # 5a8 <pos+0x568>
    80007750:	00b51513          	slli	a0,a0,0xb
    80007754:	13c50513          	addi	a0,a0,316
    80007758:	00a51513          	slli	a0,a0,0xa
    8000775c:	33450513          	addi	a0,a0,820
    80007760:	04053593          	sltiu	a1,a0,64
    80007764:	60b13423          	sd	a1,1544(sp)
    80007768:	00000193          	li	gp,0
    8000776c:	00b18463          	beq	gp,a1,80007774 <inst_728>
    80007770:	8b5f806f          	j	80000024 <rvtest_error>

0000000080007774 <inst_728>:
    80007774:	00100513          	li	a0,1
    80007778:	00353593          	sltiu	a1,a0,3
    8000777c:	60b13823          	sd	a1,1552(sp)
    80007780:	00100193          	li	gp,1
    80007784:	00b18463          	beq	gp,a1,8000778c <inst_729>
    80007788:	89df806f          	j	80000024 <rvtest_error>

000000008000778c <inst_729>:
    8000778c:	00100513          	li	a0,1
    80007790:	55553593          	sltiu	a1,a0,1365
    80007794:	60b13c23          	sd	a1,1560(sp)
    80007798:	00100193          	li	gp,1
    8000779c:	00b18463          	beq	gp,a1,800077a4 <inst_730>
    800077a0:	885f806f          	j	80000024 <rvtest_error>

00000000800077a4 <inst_730>:
    800077a4:	00100513          	li	a0,1
    800077a8:	aaa53593          	sltiu	a1,a0,-1366
    800077ac:	62b13023          	sd	a1,1568(sp)
    800077b0:	00100193          	li	gp,1
    800077b4:	00b18463          	beq	gp,a1,800077bc <inst_731>
    800077b8:	86df806f          	j	80000024 <rvtest_error>

00000000800077bc <inst_731>:
    800077bc:	00100513          	li	a0,1
    800077c0:	00553593          	sltiu	a1,a0,5
    800077c4:	62b13423          	sd	a1,1576(sp)
    800077c8:	00100193          	li	gp,1
    800077cc:	00b18463          	beq	gp,a1,800077d4 <inst_732>
    800077d0:	855f806f          	j	80000024 <rvtest_error>

00000000800077d4 <inst_732>:
    800077d4:	00100513          	li	a0,1
    800077d8:	33353593          	sltiu	a1,a0,819
    800077dc:	62b13823          	sd	a1,1584(sp)
    800077e0:	00100193          	li	gp,1
    800077e4:	00b18463          	beq	gp,a1,800077ec <inst_733>
    800077e8:	83df806f          	j	80000024 <rvtest_error>

00000000800077ec <inst_733>:
    800077ec:	00100513          	li	a0,1
    800077f0:	66653593          	sltiu	a1,a0,1638
    800077f4:	62b13c23          	sd	a1,1592(sp)
    800077f8:	00100193          	li	gp,1
    800077fc:	00b18463          	beq	gp,a1,80007804 <inst_734>
    80007800:	825f806f          	j	80000024 <rvtest_error>

0000000080007804 <inst_734>:
    80007804:	00100513          	li	a0,1
    80007808:	02d53593          	sltiu	a1,a0,45
    8000780c:	64b13023          	sd	a1,1600(sp)
    80007810:	00100193          	li	gp,1
    80007814:	00b18463          	beq	gp,a1,8000781c <inst_735>
    80007818:	80df806f          	j	80000024 <rvtest_error>

000000008000781c <inst_735>:
    8000781c:	00100513          	li	a0,1
    80007820:	00053593          	sltiu	a1,a0,0
    80007824:	64b13423          	sd	a1,1608(sp)
    80007828:	00000193          	li	gp,0
    8000782c:	00b18463          	beq	gp,a1,80007834 <inst_736>
    80007830:	ff4f806f          	j	80000024 <rvtest_error>

0000000080007834 <inst_736>:
    80007834:	00100513          	li	a0,1
    80007838:	03f53593          	sltiu	a1,a0,63
    8000783c:	64b13823          	sd	a1,1616(sp)
    80007840:	00100193          	li	gp,1
    80007844:	00b18463          	beq	gp,a1,8000784c <inst_737>
    80007848:	fdcf806f          	j	80000024 <rvtest_error>

000000008000784c <inst_737>:
    8000784c:	00100513          	li	a0,1
    80007850:	00253593          	sltiu	a1,a0,2
    80007854:	64b13c23          	sd	a1,1624(sp)
    80007858:	00100193          	li	gp,1
    8000785c:	00b18463          	beq	gp,a1,80007864 <inst_738>
    80007860:	fc4f806f          	j	80000024 <rvtest_error>

0000000080007864 <inst_738>:
    80007864:	00100513          	li	a0,1
    80007868:	55453593          	sltiu	a1,a0,1364
    8000786c:	66b13023          	sd	a1,1632(sp)
    80007870:	00100193          	li	gp,1
    80007874:	00b18463          	beq	gp,a1,8000787c <inst_739>
    80007878:	facf806f          	j	80000024 <rvtest_error>

000000008000787c <inst_739>:
    8000787c:	00100513          	li	a0,1
    80007880:	aa953593          	sltiu	a1,a0,-1367
    80007884:	66b13423          	sd	a1,1640(sp)
    80007888:	00100193          	li	gp,1
    8000788c:	00b18463          	beq	gp,a1,80007894 <inst_740>
    80007890:	f94f806f          	j	80000024 <rvtest_error>

0000000080007894 <inst_740>:
    80007894:	00100513          	li	a0,1
    80007898:	00453593          	sltiu	a1,a0,4
    8000789c:	66b13823          	sd	a1,1648(sp)
    800078a0:	00100193          	li	gp,1
    800078a4:	00b18463          	beq	gp,a1,800078ac <inst_741>
    800078a8:	f7cf806f          	j	80000024 <rvtest_error>

00000000800078ac <inst_741>:
    800078ac:	00100513          	li	a0,1
    800078b0:	33253593          	sltiu	a1,a0,818
    800078b4:	66b13c23          	sd	a1,1656(sp)
    800078b8:	00100193          	li	gp,1
    800078bc:	00b18463          	beq	gp,a1,800078c4 <inst_742>
    800078c0:	f64f806f          	j	80000024 <rvtest_error>

00000000800078c4 <inst_742>:
    800078c4:	00100513          	li	a0,1
    800078c8:	66553593          	sltiu	a1,a0,1637
    800078cc:	68b13023          	sd	a1,1664(sp)
    800078d0:	00100193          	li	gp,1
    800078d4:	00b18463          	beq	gp,a1,800078dc <inst_743>
    800078d8:	f4cf806f          	j	80000024 <rvtest_error>

00000000800078dc <inst_743>:
    800078dc:	00100513          	li	a0,1
    800078e0:	02c53593          	sltiu	a1,a0,44
    800078e4:	68b13423          	sd	a1,1672(sp)
    800078e8:	00100193          	li	gp,1
    800078ec:	00b18463          	beq	gp,a1,800078f4 <inst_744>
    800078f0:	f34f806f          	j	80000024 <rvtest_error>

00000000800078f4 <inst_744>:
    800078f4:	00100513          	li	a0,1
    800078f8:	03e53593          	sltiu	a1,a0,62
    800078fc:	68b13823          	sd	a1,1680(sp)
    80007900:	00100193          	li	gp,1
    80007904:	00b18463          	beq	gp,a1,8000790c <inst_745>
    80007908:	f1cf806f          	j	80000024 <rvtest_error>

000000008000790c <inst_745>:
    8000790c:	00100513          	li	a0,1
    80007910:	55653593          	sltiu	a1,a0,1366
    80007914:	68b13c23          	sd	a1,1688(sp)
    80007918:	00100193          	li	gp,1
    8000791c:	00b18463          	beq	gp,a1,80007924 <inst_746>
    80007920:	f04f806f          	j	80000024 <rvtest_error>

0000000080007924 <inst_746>:
    80007924:	00100513          	li	a0,1
    80007928:	aab53593          	sltiu	a1,a0,-1365
    8000792c:	6ab13023          	sd	a1,1696(sp)
    80007930:	00100193          	li	gp,1
    80007934:	00b18463          	beq	gp,a1,8000793c <inst_747>
    80007938:	eecf806f          	j	80000024 <rvtest_error>

000000008000793c <inst_747>:
    8000793c:	00100513          	li	a0,1
    80007940:	00653593          	sltiu	a1,a0,6
    80007944:	6ab13423          	sd	a1,1704(sp)
    80007948:	00100193          	li	gp,1
    8000794c:	00b18463          	beq	gp,a1,80007954 <inst_748>
    80007950:	ed4f806f          	j	80000024 <rvtest_error>

0000000080007954 <inst_748>:
    80007954:	00100513          	li	a0,1
    80007958:	33453593          	sltiu	a1,a0,820
    8000795c:	6ab13823          	sd	a1,1712(sp)
    80007960:	00100193          	li	gp,1
    80007964:	00b18463          	beq	gp,a1,8000796c <inst_749>
    80007968:	ebcf806f          	j	80000024 <rvtest_error>

000000008000796c <inst_749>:
    8000796c:	00100513          	li	a0,1
    80007970:	66753593          	sltiu	a1,a0,1639
    80007974:	6ab13c23          	sd	a1,1720(sp)
    80007978:	00100193          	li	gp,1
    8000797c:	00b18463          	beq	gp,a1,80007984 <inst_750>
    80007980:	ea4f806f          	j	80000024 <rvtest_error>

0000000080007984 <inst_750>:
    80007984:	00100513          	li	a0,1
    80007988:	02e53593          	sltiu	a1,a0,46
    8000798c:	6cb13023          	sd	a1,1728(sp)
    80007990:	00100193          	li	gp,1
    80007994:	00b18463          	beq	gp,a1,8000799c <inst_751>
    80007998:	e8cf806f          	j	80000024 <rvtest_error>

000000008000799c <inst_751>:
    8000799c:	00100513          	li	a0,1
    800079a0:	04053593          	sltiu	a1,a0,64
    800079a4:	6cb13423          	sd	a1,1736(sp)
    800079a8:	00100193          	li	gp,1
    800079ac:	00b18463          	beq	gp,a1,800079b4 <inst_752>
    800079b0:	e74f806f          	j	80000024 <rvtest_error>

00000000800079b4 <inst_752>:
    800079b4:	00000537          	lui	a0,0x0
    800079b8:	00150513          	addi	a0,a0,1 # 1 <SMODE_SIG>
    800079bc:	00b51513          	slli	a0,a0,0xb
    800079c0:	00050513          	mv	a0,a0
    800079c4:	00b51513          	slli	a0,a0,0xb
    800079c8:	00050513          	mv	a0,a0
    800079cc:	00a51513          	slli	a0,a0,0xa
    800079d0:	00150513          	addi	a0,a0,1
    800079d4:	00353593          	sltiu	a1,a0,3
    800079d8:	6cb13823          	sd	a1,1744(sp)
    800079dc:	00000193          	li	gp,0
    800079e0:	00b18463          	beq	gp,a1,800079e8 <inst_753>
    800079e4:	e40f806f          	j	80000024 <rvtest_error>

00000000800079e8 <inst_753>:
    800079e8:	00000537          	lui	a0,0x0
    800079ec:	00150513          	addi	a0,a0,1 # 1 <SMODE_SIG>
    800079f0:	00b51513          	slli	a0,a0,0xb
    800079f4:	00050513          	mv	a0,a0
    800079f8:	00b51513          	slli	a0,a0,0xb
    800079fc:	00050513          	mv	a0,a0
    80007a00:	00a51513          	slli	a0,a0,0xa
    80007a04:	00150513          	addi	a0,a0,1
    80007a08:	55553593          	sltiu	a1,a0,1365
    80007a0c:	6cb13c23          	sd	a1,1752(sp)
    80007a10:	00000193          	li	gp,0
    80007a14:	00b18463          	beq	gp,a1,80007a1c <inst_754>
    80007a18:	e0cf806f          	j	80000024 <rvtest_error>

0000000080007a1c <inst_754>:
    80007a1c:	00000537          	lui	a0,0x0
    80007a20:	00150513          	addi	a0,a0,1 # 1 <SMODE_SIG>
    80007a24:	00b51513          	slli	a0,a0,0xb
    80007a28:	00050513          	mv	a0,a0
    80007a2c:	00b51513          	slli	a0,a0,0xb
    80007a30:	00050513          	mv	a0,a0
    80007a34:	00a51513          	slli	a0,a0,0xa
    80007a38:	00150513          	addi	a0,a0,1
    80007a3c:	aaa53593          	sltiu	a1,a0,-1366
    80007a40:	6eb13023          	sd	a1,1760(sp)
    80007a44:	00100193          	li	gp,1
    80007a48:	00b18463          	beq	gp,a1,80007a50 <inst_755>
    80007a4c:	dd8f806f          	j	80000024 <rvtest_error>

0000000080007a50 <inst_755>:
    80007a50:	00000537          	lui	a0,0x0
    80007a54:	00150513          	addi	a0,a0,1 # 1 <SMODE_SIG>
    80007a58:	00b51513          	slli	a0,a0,0xb
    80007a5c:	00050513          	mv	a0,a0
    80007a60:	00b51513          	slli	a0,a0,0xb
    80007a64:	00050513          	mv	a0,a0
    80007a68:	00a51513          	slli	a0,a0,0xa
    80007a6c:	00150513          	addi	a0,a0,1
    80007a70:	00553593          	sltiu	a1,a0,5
    80007a74:	6eb13423          	sd	a1,1768(sp)
    80007a78:	00000193          	li	gp,0
    80007a7c:	00b18463          	beq	gp,a1,80007a84 <inst_756>
    80007a80:	da4f806f          	j	80000024 <rvtest_error>

0000000080007a84 <inst_756>:
    80007a84:	00000537          	lui	a0,0x0
    80007a88:	00150513          	addi	a0,a0,1 # 1 <SMODE_SIG>
    80007a8c:	00b51513          	slli	a0,a0,0xb
    80007a90:	00050513          	mv	a0,a0
    80007a94:	00b51513          	slli	a0,a0,0xb
    80007a98:	00050513          	mv	a0,a0
    80007a9c:	00a51513          	slli	a0,a0,0xa
    80007aa0:	00150513          	addi	a0,a0,1
    80007aa4:	33353593          	sltiu	a1,a0,819
    80007aa8:	6eb13823          	sd	a1,1776(sp)
    80007aac:	00000193          	li	gp,0
    80007ab0:	00b18463          	beq	gp,a1,80007ab8 <inst_757>
    80007ab4:	d70f806f          	j	80000024 <rvtest_error>

0000000080007ab8 <inst_757>:
    80007ab8:	00000537          	lui	a0,0x0
    80007abc:	00150513          	addi	a0,a0,1 # 1 <SMODE_SIG>
    80007ac0:	00b51513          	slli	a0,a0,0xb
    80007ac4:	00050513          	mv	a0,a0
    80007ac8:	00b51513          	slli	a0,a0,0xb
    80007acc:	00050513          	mv	a0,a0
    80007ad0:	00a51513          	slli	a0,a0,0xa
    80007ad4:	00150513          	addi	a0,a0,1
    80007ad8:	66653593          	sltiu	a1,a0,1638
    80007adc:	6eb13c23          	sd	a1,1784(sp)
    80007ae0:	00000193          	li	gp,0
    80007ae4:	00b18463          	beq	gp,a1,80007aec <inst_758>
    80007ae8:	d3cf806f          	j	80000024 <rvtest_error>

0000000080007aec <inst_758>:
    80007aec:	00100513          	li	a0,1
    80007af0:	00b51513          	slli	a0,a0,0xb
    80007af4:	fff54513          	not	a0,a0
    80007af8:	80053593          	sltiu	a1,a0,-2048
    80007afc:	70b13023          	sd	a1,1792(sp)
    80007b00:	00100193          	li	gp,1
    80007b04:	00b18463          	beq	gp,a1,80007b0c <cleanup_epilogs>
    80007b08:	d1cf806f          	j	80000024 <rvtest_error>

0000000080007b0c <cleanup_epilogs>:
    80007b0c:	0380006f          	j	80007b44 <exit_cleanup>

0000000080007b10 <abort_tests>:
    80007b10:	1f813483          	ld	s1,504(sp)
    80007b14:	20013303          	ld	t1,512(sp)
    80007b18:	00930333          	add	t1,t1,s1
    80007b1c:	00000337          	lui	t1,0x0
    80007b20:	00030313          	mv	t1,t1
    80007b24:	00b31313          	slli	t1,t1,0xb
    80007b28:	5d630313          	addi	t1,t1,1494 # 5d6 <pos+0x596>
    80007b2c:	00b31313          	slli	t1,t1,0xb
    80007b30:	43630313          	addi	t1,t1,1078
    80007b34:	00a31313          	slli	t1,t1,0xa
    80007b38:	2d030313          	addi	t1,t1,720
    80007b3c:	fe64be23          	sd	t1,-4(s1)
    80007b40:	0040006f          	j	80007b44 <exit_cleanup>

0000000080007b44 <exit_cleanup>:
    80007b44:	00000513          	li	a0,0
    80007b48:	00c0006f          	j	80007b54 <halt>
	...

0000000080007b54 <halt>:
    80007b54:	00050513          	mv	a0,a0
    80007b58:	00100073          	ebreak
    80007b5c:	0000006f          	j	80007b5c <halt+0x8>

0000000080007b60 <_trm_init>:
    80007b60:	ff010113          	addi	sp,sp,-16
    80007b64:	00000517          	auipc	a0,0x0
    80007b68:	01c50513          	addi	a0,a0,28 # 80007b80 <_etext>
    80007b6c:	00113423          	sd	ra,8(sp)
    80007b70:	ca0f80ef          	jal	ra,80000010 <main>
    80007b74:	00050513          	mv	a0,a0
    80007b78:	00100073          	ebreak
    80007b7c:	0000006f          	j	80007b7c <_trm_init+0x1c>
