
/home/maveric/ics2023/riscv-arch-test-am/build/srai-riscv64-nemu.elf:     file format elf64-littleriscv


Disassembly of section .text:

0000000080000000 <_start>:
    80000000:	00000413          	li	s0,0
    80000004:	0000c117          	auipc	sp,0xc
    80000008:	ffc10113          	addi	sp,sp,-4 # 8000c000 <_end>
    8000000c:	15d010ef          	jal	ra,80001968 <_trm_init>

0000000080000010 <main>:
    80000010:	030000ef          	jal	ra,80000040 <rvtest_entry_point>
    80000014:	00100513          	li	a0,1
    80000018:	145010ef          	jal	ra,8000195c <halt>
    8000001c:	00000513          	li	a0,0
    80000020:	00008067          	ret

0000000080000024 <rvtest_error>:
    80000024:	00100513          	li	a0,1
    80000028:	135010ef          	jal	ra,8000195c <halt>
    8000002c:	00008067          	ret
	...

0000000080000040 <rvtest_entry_point>:
    80000040:	feedc0b7          	lui	ra,0xfeedc
    80000044:	ead08093          	addi	ra,ra,-339 # fffffffffeedbead <absimm+0xffffffff441ce3dd>
    80000048:	00b09093          	slli	ra,ra,0xb
    8000004c:	7f708093          	addi	ra,ra,2039
    80000050:	00b09093          	slli	ra,ra,0xb
    80000054:	36f08093          	addi	ra,ra,879
    80000058:	00a09093          	slli	ra,ra,0xa
    8000005c:	2ad08093          	addi	ra,ra,685
    80000060:	ff76e137          	lui	sp,0xff76e
    80000064:	f5610113          	addi	sp,sp,-170 # ffffffffff76df56 <absimm+0xffffffff44a60486>
    80000068:	00b11113          	slli	sp,sp,0xb
    8000006c:	7fb10113          	addi	sp,sp,2043
    80000070:	00b11113          	slli	sp,sp,0xb
    80000074:	5b710113          	addi	sp,sp,1463
    80000078:	00a11113          	slli	sp,sp,0xa
    8000007c:	35610113          	addi	sp,sp,854
    80000080:	7fbb71b7          	lui	gp,0x7fbb7
    80000084:	fab18193          	addi	gp,gp,-85 # 7fbb6fab <absimmsh+0x740e61fe>
    80000088:	00b19193          	slli	gp,gp,0xb
    8000008c:	3fd18193          	addi	gp,gp,1021
    80000090:	00b19193          	slli	gp,gp,0xb
    80000094:	6db18193          	addi	gp,gp,1755
    80000098:	00a19193          	slli	gp,gp,0xa
    8000009c:	3ab18193          	addi	gp,gp,939
    800000a0:	bfddb237          	lui	tp,0xbfddb
    800000a4:	7d520213          	addi	tp,tp,2005 # ffffffffbfddb7d5 <absimm+0xffffffff050cdd05>
    800000a8:	00b21213          	slli	tp,tp,0xb
    800000ac:	5fe20213          	addi	tp,tp,1534 # 5fe <offset+0x1f6>
    800000b0:	00b21213          	slli	tp,tp,0xb
    800000b4:	76d20213          	addi	tp,tp,1901 # 76d <offset+0x365>
    800000b8:	00a21213          	slli	tp,tp,0xa
    800000bc:	3d520213          	addi	tp,tp,981 # 3d5 <pos+0x395>
    800000c0:	dfeee2b7          	lui	t0,0xdfeee
    800000c4:	bea28293          	addi	t0,t0,-1046 # ffffffffdfeedbea <absimm+0xffffffff251e011a>
    800000c8:	00b29293          	slli	t0,t0,0xb
    800000cc:	6ff28293          	addi	t0,t0,1791
    800000d0:	00b29293          	slli	t0,t0,0xb
    800000d4:	3b628293          	addi	t0,t0,950
    800000d8:	00a29293          	slli	t0,t0,0xa
    800000dc:	3ea28293          	addi	t0,t0,1002
    800000e0:	6ff77337          	lui	t1,0x6ff77
    800000e4:	df530313          	addi	t1,t1,-523 # 6ff76df5 <absimmsh+0x644a6048>
    800000e8:	00b31313          	slli	t1,t1,0xb
    800000ec:	37f30313          	addi	t1,t1,895
    800000f0:	00b31313          	slli	t1,t1,0xb
    800000f4:	5db30313          	addi	t1,t1,1499
    800000f8:	00a31313          	slli	t1,t1,0xa
    800000fc:	1f530313          	addi	t1,t1,501
    80000100:	b7fbb3b7          	lui	t2,0xb7fbb
    80000104:	6fa38393          	addi	t2,t2,1786 # ffffffffb7fbb6fa <absimm+0xfffffffefd2adc2a>
    80000108:	00b39393          	slli	t2,t2,0xb
    8000010c:	5bf38393          	addi	t2,t2,1471
    80000110:	00b39393          	slli	t2,t2,0xb
    80000114:	6ed38393          	addi	t2,t2,1773
    80000118:	00a39393          	slli	t2,t2,0xa
    8000011c:	2fa38393          	addi	t2,t2,762
    80000120:	5bfde437          	lui	s0,0x5bfde
    80000124:	b7d40413          	addi	s0,s0,-1155 # 5bfddb7d <absimmsh+0x5050cdd0>
    80000128:	00b41413          	slli	s0,s0,0xb
    8000012c:	2df40413          	addi	s0,s0,735
    80000130:	00b41413          	slli	s0,s0,0xb
    80000134:	77640413          	addi	s0,s0,1910
    80000138:	00a41413          	slli	s0,s0,0xa
    8000013c:	37d40413          	addi	s0,s0,893
    80000140:	adfef4b7          	lui	s1,0xadfef
    80000144:	dbe48493          	addi	s1,s1,-578 # ffffffffadfeedbe <absimm+0xfffffffef32e12ee>
    80000148:	00b49493          	slli	s1,s1,0xb
    8000014c:	56f48493          	addi	s1,s1,1391
    80000150:	00b49493          	slli	s1,s1,0xb
    80000154:	7bb48493          	addi	s1,s1,1979
    80000158:	00a49493          	slli	s1,s1,0xa
    8000015c:	1be48493          	addi	s1,s1,446
    80000160:	56ff7537          	lui	a0,0x56ff7
    80000164:	6df50513          	addi	a0,a0,1759 # 56ff76df <absimmsh+0x4b526932>
    80000168:	00b51513          	slli	a0,a0,0xb
    8000016c:	2b750513          	addi	a0,a0,695
    80000170:	00b51513          	slli	a0,a0,0xb
    80000174:	7dd50513          	addi	a0,a0,2013
    80000178:	00a51513          	slli	a0,a0,0xa
    8000017c:	2df50513          	addi	a0,a0,735
    80000180:	ab7fc5b7          	lui	a1,0xab7fc
    80000184:	b6f58593          	addi	a1,a1,-1169 # ffffffffab7fbb6f <absimm+0xfffffffef0aee09f>
    80000188:	00b59593          	slli	a1,a1,0xb
    8000018c:	55b58593          	addi	a1,a1,1371
    80000190:	00b59593          	slli	a1,a1,0xb
    80000194:	7ee58593          	addi	a1,a1,2030
    80000198:	00a59593          	slli	a1,a1,0xa
    8000019c:	36f58593          	addi	a1,a1,879
    800001a0:	d5bfe637          	lui	a2,0xd5bfe
    800001a4:	db760613          	addi	a2,a2,-585 # ffffffffd5bfddb7 <absimm+0xffffffff1aef02e7>
    800001a8:	00b61613          	slli	a2,a2,0xb
    800001ac:	6ad60613          	addi	a2,a2,1709
    800001b0:	00b61613          	slli	a2,a2,0xb
    800001b4:	7f760613          	addi	a2,a2,2039
    800001b8:	00a61613          	slli	a2,a2,0xa
    800001bc:	1b760613          	addi	a2,a2,439
    800001c0:	eadff6b7          	lui	a3,0xeadff
    800001c4:	edb68693          	addi	a3,a3,-293 # ffffffffeadfeedb <absimm+0xffffffff300f140b>
    800001c8:	00b69693          	slli	a3,a3,0xb
    800001cc:	75668693          	addi	a3,a3,1878
    800001d0:	00b69693          	slli	a3,a3,0xb
    800001d4:	7fb68693          	addi	a3,a3,2043
    800001d8:	00a69693          	slli	a3,a3,0xa
    800001dc:	2db68693          	addi	a3,a3,731
    800001e0:	f56ff737          	lui	a4,0xf56ff
    800001e4:	76d70713          	addi	a4,a4,1901 # fffffffff56ff76d <absimm+0xffffffff3a9f1c9d>
    800001e8:	00b71713          	slli	a4,a4,0xb
    800001ec:	7ab70713          	addi	a4,a4,1963
    800001f0:	00b71713          	slli	a4,a4,0xb
    800001f4:	3fd70713          	addi	a4,a4,1021
    800001f8:	00a71713          	slli	a4,a4,0xa
    800001fc:	36d70713          	addi	a4,a4,877
    80000200:	fab807b7          	lui	a5,0xfab80
    80000204:	bb678793          	addi	a5,a5,-1098 # fffffffffab7fbb6 <absimm+0xffffffff3fe720e6>
    80000208:	00b79793          	slli	a5,a5,0xb
    8000020c:	7d578793          	addi	a5,a5,2005
    80000210:	00b79793          	slli	a5,a5,0xb
    80000214:	5fe78793          	addi	a5,a5,1534
    80000218:	00a79793          	slli	a5,a5,0xa
    8000021c:	3b678793          	addi	a5,a5,950
    80000220:	7d5c0837          	lui	a6,0x7d5c0
    80000224:	ddb80813          	addi	a6,a6,-549 # 7d5bfddb <absimmsh+0x71aef02e>
    80000228:	00b81813          	slli	a6,a6,0xb
    8000022c:	3ea80813          	addi	a6,a6,1002
    80000230:	00b81813          	slli	a6,a6,0xb
    80000234:	6ff80813          	addi	a6,a6,1791
    80000238:	00a81813          	slli	a6,a6,0xa
    8000023c:	1db80813          	addi	a6,a6,475
    80000240:	beae08b7          	lui	a7,0xbeae0
    80000244:	eed88893          	addi	a7,a7,-275 # ffffffffbeadfeed <absimm+0xffffffff03dd241d>
    80000248:	00b89893          	slli	a7,a7,0xb
    8000024c:	5f588893          	addi	a7,a7,1525
    80000250:	00b89893          	slli	a7,a7,0xb
    80000254:	37f88893          	addi	a7,a7,895
    80000258:	00a89893          	slli	a7,a7,0xa
    8000025c:	2ed88893          	addi	a7,a7,749
    80000260:	df570937          	lui	s2,0xdf570
    80000264:	f7690913          	addi	s2,s2,-138 # ffffffffdf56ff76 <absimm+0xffffffff248624a6>
    80000268:	00b91913          	slli	s2,s2,0xb
    8000026c:	6fa90913          	addi	s2,s2,1786
    80000270:	00b91913          	slli	s2,s2,0xb
    80000274:	5bf90913          	addi	s2,s2,1471
    80000278:	00a91913          	slli	s2,s2,0xa
    8000027c:	37690913          	addi	s2,s2,886
    80000280:	6fab89b7          	lui	s3,0x6fab8
    80000284:	fbb98993          	addi	s3,s3,-69 # 6fab7fbb <absimmsh+0x63fe720e>
    80000288:	00b99993          	slli	s3,s3,0xb
    8000028c:	37d98993          	addi	s3,s3,893
    80000290:	00b99993          	slli	s3,s3,0xb
    80000294:	2df98993          	addi	s3,s3,735
    80000298:	00a99993          	slli	s3,s3,0xa
    8000029c:	3bb98993          	addi	s3,s3,955
    800002a0:	b7d5ca37          	lui	s4,0xb7d5c
    800002a4:	fdda0a13          	addi	s4,s4,-35 # ffffffffb7d5bfdd <absimm+0xfffffffefd04e50d>
    800002a8:	00ba1a13          	slli	s4,s4,0xb
    800002ac:	5bea0a13          	addi	s4,s4,1470
    800002b0:	00ba1a13          	slli	s4,s4,0xb
    800002b4:	56fa0a13          	addi	s4,s4,1391
    800002b8:	00aa1a13          	slli	s4,s4,0xa
    800002bc:	3dda0a13          	addi	s4,s4,989
    800002c0:	dbeaeab7          	lui	s5,0xdbeae
    800002c4:	feea8a93          	addi	s5,s5,-18 # ffffffffdbeadfee <absimm+0xffffffff211a051e>
    800002c8:	00ba9a93          	slli	s5,s5,0xb
    800002cc:	6dfa8a93          	addi	s5,s5,1759
    800002d0:	00ba9a93          	slli	s5,s5,0xb
    800002d4:	2b7a8a93          	addi	s5,s5,695
    800002d8:	00aa9a93          	slli	s5,s5,0xa
    800002dc:	3eea8a93          	addi	s5,s5,1006
    800002e0:	6df57b37          	lui	s6,0x6df57
    800002e4:	ff7b0b13          	addi	s6,s6,-9 # 6df56ff7 <absimmsh+0x6248624a>
    800002e8:	00bb1b13          	slli	s6,s6,0xb
    800002ec:	36fb0b13          	addi	s6,s6,879
    800002f0:	00bb1b13          	slli	s6,s6,0xb
    800002f4:	55bb0b13          	addi	s6,s6,1371
    800002f8:	00ab1b13          	slli	s6,s6,0xa
    800002fc:	3f7b0b13          	addi	s6,s6,1015
    80000300:	b6fabbb7          	lui	s7,0xb6fab
    80000304:	7fbb8b93          	addi	s7,s7,2043 # ffffffffb6fab7fb <absimm+0xfffffffefc29dd2b>
    80000308:	00bb9b93          	slli	s7,s7,0xb
    8000030c:	5b7b8b93          	addi	s7,s7,1463
    80000310:	00bb9b93          	slli	s7,s7,0xb
    80000314:	6adb8b93          	addi	s7,s7,1709
    80000318:	00ab9b93          	slli	s7,s7,0xa
    8000031c:	3fbb8b93          	addi	s7,s7,1019
    80000320:	db7d6c37          	lui	s8,0xdb7d6
    80000324:	bfdc0c13          	addi	s8,s8,-1027 # ffffffffdb7d5bfd <absimm+0xffffffff20ac812d>
    80000328:	00bc1c13          	slli	s8,s8,0xb
    8000032c:	6dbc0c13          	addi	s8,s8,1755
    80000330:	00bc1c13          	slli	s8,s8,0xb
    80000334:	756c0c13          	addi	s8,s8,1878
    80000338:	00ac1c13          	slli	s8,s8,0xa
    8000033c:	3fdc0c13          	addi	s8,s8,1021
    80000340:	edbebcb7          	lui	s9,0xedbeb
    80000344:	dfec8c93          	addi	s9,s9,-514 # ffffffffedbeadfe <absimm+0xffffffff32edd32e>
    80000348:	00bc9c93          	slli	s9,s9,0xb
    8000034c:	76dc8c93          	addi	s9,s9,1901
    80000350:	00bc9c93          	slli	s9,s9,0xb
    80000354:	7abc8c93          	addi	s9,s9,1963
    80000358:	00ac9c93          	slli	s9,s9,0xa
    8000035c:	1fec8c93          	addi	s9,s9,510
    80000360:	76df5d37          	lui	s10,0x76df5
    80000364:	6ffd0d13          	addi	s10,s10,1791 # 76df56ff <absimmsh+0x6b324952>
    80000368:	00bd1d13          	slli	s10,s10,0xb
    8000036c:	3b6d0d13          	addi	s10,s10,950
    80000370:	00bd1d13          	slli	s10,s10,0xb
    80000374:	7d5d0d13          	addi	s10,s10,2005
    80000378:	00ad1d13          	slli	s10,s10,0xa
    8000037c:	2ffd0d13          	addi	s10,s10,767
    80000380:	bb6fbdb7          	lui	s11,0xbb6fb
    80000384:	b7fd8d93          	addi	s11,s11,-1153 # ffffffffbb6fab7f <absimm+0xffffffff009ed0af>
    80000388:	00bd9d93          	slli	s11,s11,0xb
    8000038c:	5dbd8d93          	addi	s11,s11,1499
    80000390:	00bd9d93          	slli	s11,s11,0xb
    80000394:	3ead8d93          	addi	s11,s11,1002
    80000398:	00ad9d93          	slli	s11,s11,0xa
    8000039c:	37fd8d93          	addi	s11,s11,895
    800003a0:	ddb7de37          	lui	t3,0xddb7d
    800003a4:	5bfe0e13          	addi	t3,t3,1471 # ffffffffddb7d5bf <absimm+0xffffffff22e6faef>
    800003a8:	00be1e13          	slli	t3,t3,0xb
    800003ac:	6ede0e13          	addi	t3,t3,1773
    800003b0:	00be1e13          	slli	t3,t3,0xb
    800003b4:	5f5e0e13          	addi	t3,t3,1525
    800003b8:	00ae1e13          	slli	t3,t3,0xa
    800003bc:	1bfe0e13          	addi	t3,t3,447
    800003c0:	eedbfeb7          	lui	t4,0xeedbf
    800003c4:	adfe8e93          	addi	t4,t4,-1313 # ffffffffeedbeadf <absimm+0xffffffff340b100f>
    800003c8:	00be9e93          	slli	t4,t4,0xb
    800003cc:	776e8e93          	addi	t4,t4,1910
    800003d0:	00be9e93          	slli	t4,t4,0xb
    800003d4:	6fae8e93          	addi	t4,t4,1786
    800003d8:	00ae9e93          	slli	t4,t4,0xa
    800003dc:	2dfe8e93          	addi	t4,t4,735
    800003e0:	f76dff37          	lui	t5,0xf76df
    800003e4:	56ff0f13          	addi	t5,t5,1391 # fffffffff76df56f <absimm+0xffffffff3c9d1a9f>
    800003e8:	00bf1f13          	slli	t5,t5,0xb
    800003ec:	7bbf0f13          	addi	t5,t5,1979
    800003f0:	00bf1f13          	slli	t5,t5,0xb
    800003f4:	37df0f13          	addi	t5,t5,893
    800003f8:	00af1f13          	slli	t5,t5,0xa
    800003fc:	16ff0f13          	addi	t5,t5,367
    80000400:	fbb70fb7          	lui	t6,0xfbb70
    80000404:	ab7f8f93          	addi	t6,t6,-1353 # fffffffffbb6fab7 <absimm+0xffffffff40e61fe7>
    80000408:	00bf9f93          	slli	t6,t6,0xb
    8000040c:	7ddf8f93          	addi	t6,t6,2013
    80000410:	00bf9f93          	slli	t6,t6,0xb
    80000414:	5bef8f93          	addi	t6,t6,1470
    80000418:	00af9f93          	slli	t6,t6,0xa
    8000041c:	2b7f8f93          	addi	t6,t6,695

0000000080000420 <rvtest_code_begin>:
    80000420:	00003397          	auipc	t2,0x3
    80000424:	be838393          	addi	t2,t2,-1048 # 80003008 <signature_x7_0>
    80000428:	00000013          	nop
    8000042c:	00000013          	nop
    80000430:	00000013          	nop
    80000434:	00000013          	nop
    80000438:	00000013          	nop
    8000043c:	00000013          	nop

0000000080000440 <inst_0>:
    80000440:	00100693          	li	a3,1
    80000444:	03a69693          	slli	a3,a3,0x3a
    80000448:	fff6c693          	not	a3,a3
    8000044c:	4066d693          	srai	a3,a3,0x6
    80000450:	00d3b023          	sd	a3,0(t2)
    80000454:	fff0049b          	addiw	s1,zero,-1
    80000458:	03449493          	slli	s1,s1,0x34
    8000045c:	fff48493          	addi	s1,s1,-1
    80000460:	00d48463          	beq	s1,a3,80000468 <inst_1>
    80000464:	bc1ff06f          	j	80000024 <rvtest_error>

0000000080000468 <inst_1>:
    80000468:	00400313          	li	t1,4
    8000046c:	40c35113          	srai	sp,t1,0xc
    80000470:	0023b423          	sd	sp,8(t2)
    80000474:	00000493          	li	s1,0
    80000478:	00248463          	beq	s1,sp,80000480 <inst_2>
    8000047c:	ba9ff06f          	j	80000024 <rvtest_error>

0000000080000480 <inst_2>:
    80000480:	ff600793          	li	a5,-10
    80000484:	4007de13          	srai	t3,a5,0x0
    80000488:	01c3b823          	sd	t3,16(t2)
    8000048c:	ff600493          	li	s1,-10
    80000490:	01c48463          	beq	s1,t3,80000498 <inst_3>
    80000494:	b91ff06f          	j	80000024 <rvtest_error>

0000000080000498 <inst_3>:
    80000498:	00900913          	li	s2,9
    8000049c:	40095f13          	srai	t5,s2,0x0
    800004a0:	01e3bc23          	sd	t5,24(t2)
    800004a4:	00900493          	li	s1,9
    800004a8:	01e48463          	beq	s1,t5,800004b0 <inst_4>
    800004ac:	b79ff06f          	j	80000024 <rvtest_error>

00000000800004b0 <inst_4>:
    800004b0:	00100f13          	li	t5,1
    800004b4:	019f1f13          	slli	t5,t5,0x19
    800004b8:	ffff4f13          	not	t5,t5
    800004bc:	43ff5e93          	srai	t4,t5,0x3f
    800004c0:	03d3b023          	sd	t4,32(t2)
    800004c4:	fff00493          	li	s1,-1
    800004c8:	01d48463          	beq	s1,t4,800004d0 <inst_5>
    800004cc:	b59ff06f          	j	80000024 <rvtest_error>

00000000800004d0 <inst_5>:
    800004d0:	00100d93          	li	s11,1
    800004d4:	010d9d93          	slli	s11,s11,0x10
    800004d8:	43fdd793          	srai	a5,s11,0x3f
    800004dc:	02f3b423          	sd	a5,40(t2)
    800004e0:	00000493          	li	s1,0
    800004e4:	00f48463          	beq	s1,a5,800004ec <inst_6>
    800004e8:	b3dff06f          	j	80000024 <rvtest_error>

00000000800004ec <inst_6>:
    800004ec:	00100b93          	li	s7,1
    800004f0:	401bd713          	srai	a4,s7,0x1
    800004f4:	02e3b823          	sd	a4,48(t2)
    800004f8:	00000493          	li	s1,0
    800004fc:	00e48463          	beq	s1,a4,80000504 <inst_7>
    80000500:	b25ff06f          	j	80000024 <rvtest_error>

0000000080000504 <inst_7>:
    80000504:	fff00e93          	li	t4,-1
    80000508:	03fe9e93          	slli	t4,t4,0x3f
    8000050c:	420edd93          	srai	s11,t4,0x20
    80000510:	03b3bc23          	sd	s11,56(t2)
    80000514:	800004b7          	lui	s1,0x80000
    80000518:	01b48463          	beq	s1,s11,80000520 <inst_8>
    8000051c:	b09ff06f          	j	80000024 <rvtest_error>

0000000080000520 <inst_8>:
    80000520:	00000f93          	li	t6,0
    80000524:	407fdb13          	srai	s6,t6,0x7
    80000528:	0563b023          	sd	s6,64(t2)
    8000052c:	00000493          	li	s1,0
    80000530:	01648463          	beq	s1,s6,80000538 <inst_9>
    80000534:	af1ff06f          	j	80000024 <rvtest_error>

0000000080000538 <inst_9>:
    80000538:	fff00213          	li	tp,-1
    8000053c:	00125213          	srli	tp,tp,0x1
    80000540:	40c25813          	srai	a6,tp,0xc
    80000544:	0503b423          	sd	a6,72(t2)
    80000548:	0010049b          	addiw	s1,zero,1
    8000054c:	03349493          	slli	s1,s1,0x33
    80000550:	fff48493          	addi	s1,s1,-1 # ffffffff7fffffff <absimm+0xfffffffec52f252f>
    80000554:	01048463          	beq	s1,a6,8000055c <inst_10>
    80000558:	acdff06f          	j	80000024 <rvtest_error>

000000008000055c <inst_10>:
    8000055c:	00200c13          	li	s8,2
    80000560:	411c5a93          	srai	s5,s8,0x11
    80000564:	0553b823          	sd	s5,80(t2)
    80000568:	00000493          	li	s1,0
    8000056c:	01548463          	beq	s1,s5,80000574 <inst_11>
    80000570:	ab5ff06f          	j	80000024 <rvtest_error>

0000000080000574 <inst_11>:
    80000574:	00800a13          	li	s4,8
    80000578:	42aa5013          	srai	zero,s4,0x2a
    8000057c:	0403bc23          	sd	zero,88(t2)
    80000580:	00000493          	li	s1,0
    80000584:	00048463          	beqz	s1,8000058c <inst_12>
    80000588:	a9dff06f          	j	80000024 <rvtest_error>

000000008000058c <inst_12>:
    8000058c:	01000e13          	li	t3,16
    80000590:	41fe5993          	srai	s3,t3,0x1f
    80000594:	0733b023          	sd	s3,96(t2)
    80000598:	00000493          	li	s1,0
    8000059c:	01348463          	beq	s1,s3,800005a4 <inst_13>
    800005a0:	a85ff06f          	j	80000024 <rvtest_error>

00000000800005a4 <inst_13>:
    800005a4:	02000413          	li	s0,32
    800005a8:	40345913          	srai	s2,s0,0x3
    800005ac:	0723b423          	sd	s2,104(t2)
    800005b0:	00400493          	li	s1,4
    800005b4:	01248463          	beq	s1,s2,800005bc <inst_14>
    800005b8:	a6dff06f          	j	80000024 <rvtest_error>

00000000800005bc <inst_14>:
    800005bc:	04000193          	li	gp,64
    800005c0:	40b1dd13          	srai	s10,gp,0xb
    800005c4:	07a3b823          	sd	s10,112(t2)
    800005c8:	00000493          	li	s1,0
    800005cc:	01a48463          	beq	s1,s10,800005d4 <inst_15>
    800005d0:	a55ff06f          	j	80000024 <rvtest_error>

00000000800005d4 <inst_15>:
    800005d4:	08000093          	li	ra,128
    800005d8:	4120db93          	srai	s7,ra,0x12
    800005dc:	0773bc23          	sd	s7,120(t2)
    800005e0:	00000493          	li	s1,0
    800005e4:	01748463          	beq	s1,s7,800005ec <inst_16>
    800005e8:	a3dff06f          	j	80000024 <rvtest_error>

00000000800005ec <inst_16>:
    800005ec:	00000013          	nop
    800005f0:	41205a13          	srai	s4,zero,0x12
    800005f4:	0943b023          	sd	s4,128(t2)
    800005f8:	00000493          	li	s1,0
    800005fc:	01448463          	beq	s1,s4,80000604 <inst_17>
    80000600:	a25ff06f          	j	80000024 <rvtest_error>

0000000080000604 <inst_17>:
    80000604:	20000513          	li	a0,512
    80000608:	41555413          	srai	s0,a0,0x15
    8000060c:	0883b423          	sd	s0,136(t2)
    80000610:	00000493          	li	s1,0
    80000614:	00848463          	beq	s1,s0,8000061c <inst_18>
    80000618:	a0dff06f          	j	80000024 <rvtest_error>

000000008000061c <inst_18>:
    8000061c:	40000293          	li	t0,1024
    80000620:	4002d313          	srai	t1,t0,0x0
    80000624:	0863b823          	sd	t1,144(t2)
    80000628:	40000493          	li	s1,1024
    8000062c:	00648463          	beq	s1,t1,80000634 <inst_19>
    80000630:	9f5ff06f          	j	80000024 <rvtest_error>

0000000080000634 <inst_19>:
    80000634:	00100613          	li	a2,1
    80000638:	00b61613          	slli	a2,a2,0xb
    8000063c:	40265513          	srai	a0,a2,0x2
    80000640:	08a3bc23          	sd	a0,152(t2)
    80000644:	20000493          	li	s1,512
    80000648:	00a48463          	beq	s1,a0,80000650 <inst_20>
    8000064c:	9d9ff06f          	j	80000024 <rvtest_error>

0000000080000650 <inst_20>:
    80000650:	00100a93          	li	s5,1
    80000654:	00ca9a93          	slli	s5,s5,0xc
    80000658:	404ad093          	srai	ra,s5,0x4
    8000065c:	0a13b023          	sd	ra,160(t2)
    80000660:	10000493          	li	s1,256
    80000664:	00148463          	beq	s1,ra,8000066c <inst_21>
    80000668:	9bdff06f          	j	80000024 <rvtest_error>

000000008000066c <inst_21>:
    8000066c:	00100593          	li	a1,1
    80000670:	00d59593          	slli	a1,a1,0xd
    80000674:	4115d293          	srai	t0,a1,0x11
    80000678:	0a53b423          	sd	t0,168(t2)
    8000067c:	00000493          	li	s1,0
    80000680:	00548463          	beq	s1,t0,80000688 <inst_22>
    80000684:	9a1ff06f          	j	80000024 <rvtest_error>

0000000080000688 <inst_22>:
    80000688:	00100113          	li	sp,1
    8000068c:	00e11113          	slli	sp,sp,0xe
    80000690:	40f15893          	srai	a7,sp,0xf
    80000694:	0b13b823          	sd	a7,176(t2)
    80000698:	00000293          	li	t0,0
    8000069c:	01128463          	beq	t0,a7,800006a4 <inst_22+0x1c>
    800006a0:	985ff06f          	j	80000024 <rvtest_error>
    800006a4:	00000013          	nop
    800006a8:	00000013          	nop
    800006ac:	00000013          	nop
    800006b0:	00000013          	nop
    800006b4:	00000013          	nop
    800006b8:	00000013          	nop
    800006bc:	00000013          	nop
    800006c0:	00003097          	auipc	ra,0x3
    800006c4:	a0008093          	addi	ra,ra,-1536 # 800030c0 <signature_x1_0>
    800006c8:	00000013          	nop
    800006cc:	00000013          	nop
    800006d0:	00000013          	nop
    800006d4:	00000013          	nop
    800006d8:	00000013          	nop
    800006dc:	00000013          	nop

00000000800006e0 <inst_23>:
    800006e0:	00100c93          	li	s9,1
    800006e4:	00fc9c93          	slli	s9,s9,0xf
    800006e8:	40bcd213          	srai	tp,s9,0xb
    800006ec:	0040b023          	sd	tp,0(ra)
    800006f0:	01000293          	li	t0,16
    800006f4:	00428463          	beq	t0,tp,800006fc <inst_24>
    800006f8:	92dff06f          	j	80000024 <rvtest_error>

00000000800006fc <inst_24>:
    800006fc:	00100993          	li	s3,1
    80000700:	01199993          	slli	s3,s3,0x11
    80000704:	4079d493          	srai	s1,s3,0x7
    80000708:	0090b423          	sd	s1,8(ra)
    8000070c:	40000293          	li	t0,1024
    80000710:	00928463          	beq	t0,s1,80000718 <inst_25>
    80000714:	911ff06f          	j	80000024 <rvtest_error>

0000000080000718 <inst_25>:
    80000718:	00100393          	li	t2,1
    8000071c:	01239393          	slli	t2,t2,0x12
    80000720:	4063d613          	srai	a2,t2,0x6
    80000724:	00c0b823          	sd	a2,16(ra)
    80000728:	000012b7          	lui	t0,0x1
    8000072c:	00c28463          	beq	t0,a2,80000734 <inst_26>
    80000730:	8f5ff06f          	j	80000024 <rvtest_error>

0000000080000734 <inst_26>:
    80000734:	00100813          	li	a6,1
    80000738:	01381813          	slli	a6,a6,0x13
    8000073c:	41385593          	srai	a1,a6,0x13
    80000740:	00b0bc23          	sd	a1,24(ra)
    80000744:	00100293          	li	t0,1
    80000748:	00b28463          	beq	t0,a1,80000750 <inst_27>
    8000074c:	8d9ff06f          	j	80000024 <rvtest_error>

0000000080000750 <inst_27>:
    80000750:	00100713          	li	a4,1
    80000754:	01471713          	slli	a4,a4,0x14
    80000758:	41275193          	srai	gp,a4,0x12
    8000075c:	0230b023          	sd	gp,32(ra)
    80000760:	00400293          	li	t0,4
    80000764:	00328463          	beq	t0,gp,8000076c <inst_28>
    80000768:	8bdff06f          	j	80000024 <rvtest_error>

000000008000076c <inst_28>:
    8000076c:	00100493          	li	s1,1
    80000770:	01549493          	slli	s1,s1,0x15
    80000774:	40a4df93          	srai	t6,s1,0xa
    80000778:	03f0b423          	sd	t6,40(ra)
    8000077c:	000012b7          	lui	t0,0x1
    80000780:	8002829b          	addiw	t0,t0,-2048 # 800 <offset+0x3f8>
    80000784:	01f28463          	beq	t0,t6,8000078c <inst_29>
    80000788:	89dff06f          	j	80000024 <rvtest_error>

000000008000078c <inst_29>:
    8000078c:	00100d13          	li	s10,1
    80000790:	016d1d13          	slli	s10,s10,0x16
    80000794:	40ad5393          	srai	t2,s10,0xa
    80000798:	0270b823          	sd	t2,48(ra)
    8000079c:	000012b7          	lui	t0,0x1
    800007a0:	00728463          	beq	t0,t2,800007a8 <inst_30>
    800007a4:	881ff06f          	j	80000024 <rvtest_error>

00000000800007a8 <inst_30>:
    800007a8:	00100b13          	li	s6,1
    800007ac:	017b1b13          	slli	s6,s6,0x17
    800007b0:	40db5c93          	srai	s9,s6,0xd
    800007b4:	0390bc23          	sd	s9,56(ra)
    800007b8:	40000293          	li	t0,1024
    800007bc:	01928463          	beq	t0,s9,800007c4 <inst_31>
    800007c0:	865ff06f          	j	80000024 <rvtest_error>

00000000800007c4 <inst_31>:
    800007c4:	00100893          	li	a7,1
    800007c8:	01889893          	slli	a7,a7,0x18
    800007cc:	4058dc13          	srai	s8,a7,0x5
    800007d0:	0580b023          	sd	s8,64(ra)
    800007d4:	000802b7          	lui	t0,0x80
    800007d8:	01828463          	beq	t0,s8,800007e0 <inst_32>
    800007dc:	849ff06f          	j	80000024 <rvtest_error>

00000000800007e0 <inst_32>:
    800007e0:	00100513          	li	a0,1
    800007e4:	01951513          	slli	a0,a0,0x19
    800007e8:	40955593          	srai	a1,a0,0x9
    800007ec:	04b0b423          	sd	a1,72(ra)
    800007f0:	000102b7          	lui	t0,0x10
    800007f4:	00b28463          	beq	t0,a1,800007fc <inst_33>
    800007f8:	82dff06f          	j	80000024 <rvtest_error>

00000000800007fc <inst_33>:
    800007fc:	00100513          	li	a0,1
    80000800:	01a51513          	slli	a0,a0,0x1a
    80000804:	41055593          	srai	a1,a0,0x10
    80000808:	04b0b823          	sd	a1,80(ra)
    8000080c:	40000293          	li	t0,1024
    80000810:	00b28463          	beq	t0,a1,80000818 <inst_34>
    80000814:	811ff06f          	j	80000024 <rvtest_error>

0000000080000818 <inst_34>:
    80000818:	00100513          	li	a0,1
    8000081c:	01b51513          	slli	a0,a0,0x1b
    80000820:	40d55593          	srai	a1,a0,0xd
    80000824:	04b0bc23          	sd	a1,88(ra)
    80000828:	000042b7          	lui	t0,0x4
    8000082c:	00b28463          	beq	t0,a1,80000834 <inst_35>
    80000830:	ff4ff06f          	j	80000024 <rvtest_error>

0000000080000834 <inst_35>:
    80000834:	00100513          	li	a0,1
    80000838:	01c51513          	slli	a0,a0,0x1c
    8000083c:	43b55593          	srai	a1,a0,0x3b
    80000840:	06b0b023          	sd	a1,96(ra)
    80000844:	00000293          	li	t0,0
    80000848:	00b28463          	beq	t0,a1,80000850 <inst_36>
    8000084c:	fd8ff06f          	j	80000024 <rvtest_error>

0000000080000850 <inst_36>:
    80000850:	00100513          	li	a0,1
    80000854:	01d51513          	slli	a0,a0,0x1d
    80000858:	40955593          	srai	a1,a0,0x9
    8000085c:	06b0b423          	sd	a1,104(ra)
    80000860:	001002b7          	lui	t0,0x100
    80000864:	00b28463          	beq	t0,a1,8000086c <inst_37>
    80000868:	fbcff06f          	j	80000024 <rvtest_error>

000000008000086c <inst_37>:
    8000086c:	00100513          	li	a0,1
    80000870:	01e51513          	slli	a0,a0,0x1e
    80000874:	40e55593          	srai	a1,a0,0xe
    80000878:	06b0b823          	sd	a1,112(ra)
    8000087c:	000102b7          	lui	t0,0x10
    80000880:	00b28463          	beq	t0,a1,80000888 <inst_38>
    80000884:	fa0ff06f          	j	80000024 <rvtest_error>

0000000080000888 <inst_38>:
    80000888:	00100513          	li	a0,1
    8000088c:	01f51513          	slli	a0,a0,0x1f
    80000890:	42055593          	srai	a1,a0,0x20
    80000894:	06b0bc23          	sd	a1,120(ra)
    80000898:	00000293          	li	t0,0
    8000089c:	00b28463          	beq	t0,a1,800008a4 <inst_39>
    800008a0:	f84ff06f          	j	80000024 <rvtest_error>

00000000800008a4 <inst_39>:
    800008a4:	00100513          	li	a0,1
    800008a8:	02051513          	slli	a0,a0,0x20
    800008ac:	41f55593          	srai	a1,a0,0x1f
    800008b0:	08b0b023          	sd	a1,128(ra)
    800008b4:	00200293          	li	t0,2
    800008b8:	00b28463          	beq	t0,a1,800008c0 <inst_40>
    800008bc:	f68ff06f          	j	80000024 <rvtest_error>

00000000800008c0 <inst_40>:
    800008c0:	00100513          	li	a0,1
    800008c4:	02151513          	slli	a0,a0,0x21
    800008c8:	40a55593          	srai	a1,a0,0xa
    800008cc:	08b0b423          	sd	a1,136(ra)
    800008d0:	008002b7          	lui	t0,0x800
    800008d4:	00b28463          	beq	t0,a1,800008dc <inst_41>
    800008d8:	f4cff06f          	j	80000024 <rvtest_error>

00000000800008dc <inst_41>:
    800008dc:	00100513          	li	a0,1
    800008e0:	02251513          	slli	a0,a0,0x22
    800008e4:	40955593          	srai	a1,a0,0x9
    800008e8:	08b0b823          	sd	a1,144(ra)
    800008ec:	020002b7          	lui	t0,0x2000
    800008f0:	00b28463          	beq	t0,a1,800008f8 <inst_42>
    800008f4:	f30ff06f          	j	80000024 <rvtest_error>

00000000800008f8 <inst_42>:
    800008f8:	00100513          	li	a0,1
    800008fc:	02351513          	slli	a0,a0,0x23
    80000900:	40f55593          	srai	a1,a0,0xf
    80000904:	08b0bc23          	sd	a1,152(ra)
    80000908:	001002b7          	lui	t0,0x100
    8000090c:	00b28463          	beq	t0,a1,80000914 <inst_43>
    80000910:	f14ff06f          	j	80000024 <rvtest_error>

0000000080000914 <inst_43>:
    80000914:	00100513          	li	a0,1
    80000918:	02451513          	slli	a0,a0,0x24
    8000091c:	43e55593          	srai	a1,a0,0x3e
    80000920:	0ab0b023          	sd	a1,160(ra)
    80000924:	00000293          	li	t0,0
    80000928:	00b28463          	beq	t0,a1,80000930 <inst_44>
    8000092c:	ef8ff06f          	j	80000024 <rvtest_error>

0000000080000930 <inst_44>:
    80000930:	00100513          	li	a0,1
    80000934:	02551513          	slli	a0,a0,0x25
    80000938:	40255593          	srai	a1,a0,0x2
    8000093c:	0ab0b423          	sd	a1,168(ra)
    80000940:	0010029b          	addiw	t0,zero,1
    80000944:	02329293          	slli	t0,t0,0x23
    80000948:	00b28463          	beq	t0,a1,80000950 <inst_45>
    8000094c:	ed8ff06f          	j	80000024 <rvtest_error>

0000000080000950 <inst_45>:
    80000950:	00100513          	li	a0,1
    80000954:	02651513          	slli	a0,a0,0x26
    80000958:	41f55593          	srai	a1,a0,0x1f
    8000095c:	0ab0b823          	sd	a1,176(ra)
    80000960:	08000293          	li	t0,128
    80000964:	00b28463          	beq	t0,a1,8000096c <inst_46>
    80000968:	ebcff06f          	j	80000024 <rvtest_error>

000000008000096c <inst_46>:
    8000096c:	00100513          	li	a0,1
    80000970:	02751513          	slli	a0,a0,0x27
    80000974:	40355593          	srai	a1,a0,0x3
    80000978:	0ab0bc23          	sd	a1,184(ra)
    8000097c:	0010029b          	addiw	t0,zero,1
    80000980:	02429293          	slli	t0,t0,0x24
    80000984:	00b28463          	beq	t0,a1,8000098c <inst_47>
    80000988:	e9cff06f          	j	80000024 <rvtest_error>

000000008000098c <inst_47>:
    8000098c:	00100513          	li	a0,1
    80000990:	02851513          	slli	a0,a0,0x28
    80000994:	40455593          	srai	a1,a0,0x4
    80000998:	0cb0b023          	sd	a1,192(ra)
    8000099c:	0010029b          	addiw	t0,zero,1
    800009a0:	02429293          	slli	t0,t0,0x24
    800009a4:	00b28463          	beq	t0,a1,800009ac <inst_48>
    800009a8:	e7cff06f          	j	80000024 <rvtest_error>

00000000800009ac <inst_48>:
    800009ac:	00100513          	li	a0,1
    800009b0:	02951513          	slli	a0,a0,0x29
    800009b4:	40e55593          	srai	a1,a0,0xe
    800009b8:	0cb0b423          	sd	a1,200(ra)
    800009bc:	080002b7          	lui	t0,0x8000
    800009c0:	00b28463          	beq	t0,a1,800009c8 <inst_49>
    800009c4:	e60ff06f          	j	80000024 <rvtest_error>

00000000800009c8 <inst_49>:
    800009c8:	00100513          	li	a0,1
    800009cc:	02a51513          	slli	a0,a0,0x2a
    800009d0:	40455593          	srai	a1,a0,0x4
    800009d4:	0cb0b823          	sd	a1,208(ra)
    800009d8:	0010029b          	addiw	t0,zero,1
    800009dc:	02629293          	slli	t0,t0,0x26
    800009e0:	00b28463          	beq	t0,a1,800009e8 <inst_50>
    800009e4:	e40ff06f          	j	80000024 <rvtest_error>

00000000800009e8 <inst_50>:
    800009e8:	00100513          	li	a0,1
    800009ec:	02b51513          	slli	a0,a0,0x2b
    800009f0:	40555593          	srai	a1,a0,0x5
    800009f4:	0cb0bc23          	sd	a1,216(ra)
    800009f8:	0010029b          	addiw	t0,zero,1
    800009fc:	02629293          	slli	t0,t0,0x26
    80000a00:	00b28463          	beq	t0,a1,80000a08 <inst_51>
    80000a04:	e20ff06f          	j	80000024 <rvtest_error>

0000000080000a08 <inst_51>:
    80000a08:	00100513          	li	a0,1
    80000a0c:	02c51513          	slli	a0,a0,0x2c
    80000a10:	40f55593          	srai	a1,a0,0xf
    80000a14:	0eb0b023          	sd	a1,224(ra)
    80000a18:	200002b7          	lui	t0,0x20000
    80000a1c:	00b28463          	beq	t0,a1,80000a24 <inst_52>
    80000a20:	e04ff06f          	j	80000024 <rvtest_error>

0000000080000a24 <inst_52>:
    80000a24:	00100513          	li	a0,1
    80000a28:	02d51513          	slli	a0,a0,0x2d
    80000a2c:	40455593          	srai	a1,a0,0x4
    80000a30:	0eb0b423          	sd	a1,232(ra)
    80000a34:	0010029b          	addiw	t0,zero,1
    80000a38:	02929293          	slli	t0,t0,0x29
    80000a3c:	00b28463          	beq	t0,a1,80000a44 <inst_53>
    80000a40:	de4ff06f          	j	80000024 <rvtest_error>

0000000080000a44 <inst_53>:
    80000a44:	00100513          	li	a0,1
    80000a48:	02e51513          	slli	a0,a0,0x2e
    80000a4c:	40a55593          	srai	a1,a0,0xa
    80000a50:	0eb0b823          	sd	a1,240(ra)
    80000a54:	0010029b          	addiw	t0,zero,1
    80000a58:	02429293          	slli	t0,t0,0x24
    80000a5c:	00b28463          	beq	t0,a1,80000a64 <inst_54>
    80000a60:	dc4ff06f          	j	80000024 <rvtest_error>

0000000080000a64 <inst_54>:
    80000a64:	00100513          	li	a0,1
    80000a68:	02f51513          	slli	a0,a0,0x2f
    80000a6c:	42a55593          	srai	a1,a0,0x2a
    80000a70:	0eb0bc23          	sd	a1,248(ra)
    80000a74:	02000293          	li	t0,32
    80000a78:	00b28463          	beq	t0,a1,80000a80 <inst_55>
    80000a7c:	da8ff06f          	j	80000024 <rvtest_error>

0000000080000a80 <inst_55>:
    80000a80:	00100513          	li	a0,1
    80000a84:	03051513          	slli	a0,a0,0x30
    80000a88:	40a55593          	srai	a1,a0,0xa
    80000a8c:	10b0b023          	sd	a1,256(ra)
    80000a90:	0010029b          	addiw	t0,zero,1
    80000a94:	02629293          	slli	t0,t0,0x26
    80000a98:	00b28463          	beq	t0,a1,80000aa0 <inst_56>
    80000a9c:	d88ff06f          	j	80000024 <rvtest_error>

0000000080000aa0 <inst_56>:
    80000aa0:	00100513          	li	a0,1
    80000aa4:	03151513          	slli	a0,a0,0x31
    80000aa8:	43f55593          	srai	a1,a0,0x3f
    80000aac:	10b0b423          	sd	a1,264(ra)
    80000ab0:	00000293          	li	t0,0
    80000ab4:	00b28463          	beq	t0,a1,80000abc <inst_57>
    80000ab8:	d6cff06f          	j	80000024 <rvtest_error>

0000000080000abc <inst_57>:
    80000abc:	00100513          	li	a0,1
    80000ac0:	03251513          	slli	a0,a0,0x32
    80000ac4:	40355593          	srai	a1,a0,0x3
    80000ac8:	10b0b823          	sd	a1,272(ra)
    80000acc:	0010029b          	addiw	t0,zero,1
    80000ad0:	02f29293          	slli	t0,t0,0x2f
    80000ad4:	00b28463          	beq	t0,a1,80000adc <inst_58>
    80000ad8:	d4cff06f          	j	80000024 <rvtest_error>

0000000080000adc <inst_58>:
    80000adc:	00100513          	li	a0,1
    80000ae0:	03351513          	slli	a0,a0,0x33
    80000ae4:	40455593          	srai	a1,a0,0x4
    80000ae8:	10b0bc23          	sd	a1,280(ra)
    80000aec:	0010029b          	addiw	t0,zero,1
    80000af0:	02f29293          	slli	t0,t0,0x2f
    80000af4:	00b28463          	beq	t0,a1,80000afc <inst_59>
    80000af8:	d2cff06f          	j	80000024 <rvtest_error>

0000000080000afc <inst_59>:
    80000afc:	00100513          	li	a0,1
    80000b00:	03451513          	slli	a0,a0,0x34
    80000b04:	40f55593          	srai	a1,a0,0xf
    80000b08:	12b0b023          	sd	a1,288(ra)
    80000b0c:	0010029b          	addiw	t0,zero,1
    80000b10:	02529293          	slli	t0,t0,0x25
    80000b14:	00b28463          	beq	t0,a1,80000b1c <inst_60>
    80000b18:	d0cff06f          	j	80000024 <rvtest_error>

0000000080000b1c <inst_60>:
    80000b1c:	00100513          	li	a0,1
    80000b20:	03551513          	slli	a0,a0,0x35
    80000b24:	43d55593          	srai	a1,a0,0x3d
    80000b28:	12b0b423          	sd	a1,296(ra)
    80000b2c:	00000293          	li	t0,0
    80000b30:	00b28463          	beq	t0,a1,80000b38 <inst_61>
    80000b34:	cf0ff06f          	j	80000024 <rvtest_error>

0000000080000b38 <inst_61>:
    80000b38:	00100513          	li	a0,1
    80000b3c:	03651513          	slli	a0,a0,0x36
    80000b40:	40e55593          	srai	a1,a0,0xe
    80000b44:	12b0b823          	sd	a1,304(ra)
    80000b48:	0010029b          	addiw	t0,zero,1
    80000b4c:	02829293          	slli	t0,t0,0x28
    80000b50:	00b28463          	beq	t0,a1,80000b58 <inst_62>
    80000b54:	cd0ff06f          	j	80000024 <rvtest_error>

0000000080000b58 <inst_62>:
    80000b58:	00100513          	li	a0,1
    80000b5c:	03751513          	slli	a0,a0,0x37
    80000b60:	40a55593          	srai	a1,a0,0xa
    80000b64:	12b0bc23          	sd	a1,312(ra)
    80000b68:	0010029b          	addiw	t0,zero,1
    80000b6c:	02d29293          	slli	t0,t0,0x2d
    80000b70:	00b28463          	beq	t0,a1,80000b78 <inst_63>
    80000b74:	cb0ff06f          	j	80000024 <rvtest_error>

0000000080000b78 <inst_63>:
    80000b78:	00100513          	li	a0,1
    80000b7c:	03851513          	slli	a0,a0,0x38
    80000b80:	40a55593          	srai	a1,a0,0xa
    80000b84:	14b0b023          	sd	a1,320(ra)
    80000b88:	0010029b          	addiw	t0,zero,1
    80000b8c:	02e29293          	slli	t0,t0,0x2e
    80000b90:	00b28463          	beq	t0,a1,80000b98 <inst_64>
    80000b94:	c90ff06f          	j	80000024 <rvtest_error>

0000000080000b98 <inst_64>:
    80000b98:	00100513          	li	a0,1
    80000b9c:	03951513          	slli	a0,a0,0x39
    80000ba0:	42a55593          	srai	a1,a0,0x2a
    80000ba4:	14b0b423          	sd	a1,328(ra)
    80000ba8:	000082b7          	lui	t0,0x8
    80000bac:	00b28463          	beq	t0,a1,80000bb4 <inst_65>
    80000bb0:	c74ff06f          	j	80000024 <rvtest_error>

0000000080000bb4 <inst_65>:
    80000bb4:	00100513          	li	a0,1
    80000bb8:	03a51513          	slli	a0,a0,0x3a
    80000bbc:	40455593          	srai	a1,a0,0x4
    80000bc0:	14b0b823          	sd	a1,336(ra)
    80000bc4:	0010029b          	addiw	t0,zero,1
    80000bc8:	03629293          	slli	t0,t0,0x36
    80000bcc:	00b28463          	beq	t0,a1,80000bd4 <inst_66>
    80000bd0:	c54ff06f          	j	80000024 <rvtest_error>

0000000080000bd4 <inst_66>:
    80000bd4:	00100513          	li	a0,1
    80000bd8:	03b51513          	slli	a0,a0,0x3b
    80000bdc:	40b55593          	srai	a1,a0,0xb
    80000be0:	14b0bc23          	sd	a1,344(ra)
    80000be4:	0010029b          	addiw	t0,zero,1
    80000be8:	03029293          	slli	t0,t0,0x30
    80000bec:	00b28463          	beq	t0,a1,80000bf4 <inst_67>
    80000bf0:	c34ff06f          	j	80000024 <rvtest_error>

0000000080000bf4 <inst_67>:
    80000bf4:	00100513          	li	a0,1
    80000bf8:	03c51513          	slli	a0,a0,0x3c
    80000bfc:	43b55593          	srai	a1,a0,0x3b
    80000c00:	16b0b023          	sd	a1,352(ra)
    80000c04:	00200293          	li	t0,2
    80000c08:	00b28463          	beq	t0,a1,80000c10 <inst_68>
    80000c0c:	c18ff06f          	j	80000024 <rvtest_error>

0000000080000c10 <inst_68>:
    80000c10:	00100513          	li	a0,1
    80000c14:	03d51513          	slli	a0,a0,0x3d
    80000c18:	43f55593          	srai	a1,a0,0x3f
    80000c1c:	16b0b423          	sd	a1,360(ra)
    80000c20:	00000293          	li	t0,0
    80000c24:	00b28463          	beq	t0,a1,80000c2c <inst_69>
    80000c28:	bfcff06f          	j	80000024 <rvtest_error>

0000000080000c2c <inst_69>:
    80000c2c:	00100513          	li	a0,1
    80000c30:	03e51513          	slli	a0,a0,0x3e
    80000c34:	40955593          	srai	a1,a0,0x9
    80000c38:	16b0b823          	sd	a1,368(ra)
    80000c3c:	0010029b          	addiw	t0,zero,1
    80000c40:	03529293          	slli	t0,t0,0x35
    80000c44:	00b28463          	beq	t0,a1,80000c4c <inst_70>
    80000c48:	bdcff06f          	j	80000024 <rvtest_error>

0000000080000c4c <inst_70>:
    80000c4c:	ffe00513          	li	a0,-2
    80000c50:	41555593          	srai	a1,a0,0x15
    80000c54:	16b0bc23          	sd	a1,376(ra)
    80000c58:	fff00293          	li	t0,-1
    80000c5c:	00b28463          	beq	t0,a1,80000c64 <inst_71>
    80000c60:	bc4ff06f          	j	80000024 <rvtest_error>

0000000080000c64 <inst_71>:
    80000c64:	ffd00513          	li	a0,-3
    80000c68:	40255593          	srai	a1,a0,0x2
    80000c6c:	18b0b023          	sd	a1,384(ra)
    80000c70:	fff00293          	li	t0,-1
    80000c74:	00b28463          	beq	t0,a1,80000c7c <inst_72>
    80000c78:	bacff06f          	j	80000024 <rvtest_error>

0000000080000c7c <inst_72>:
    80000c7c:	ffb00513          	li	a0,-5
    80000c80:	43d55593          	srai	a1,a0,0x3d
    80000c84:	18b0b423          	sd	a1,392(ra)
    80000c88:	fff00293          	li	t0,-1
    80000c8c:	00b28463          	beq	t0,a1,80000c94 <inst_73>
    80000c90:	b94ff06f          	j	80000024 <rvtest_error>

0000000080000c94 <inst_73>:
    80000c94:	ff700513          	li	a0,-9
    80000c98:	40d55593          	srai	a1,a0,0xd
    80000c9c:	18b0b823          	sd	a1,400(ra)
    80000ca0:	fff00293          	li	t0,-1
    80000ca4:	00b28463          	beq	t0,a1,80000cac <inst_74>
    80000ca8:	b7cff06f          	j	80000024 <rvtest_error>

0000000080000cac <inst_74>:
    80000cac:	fef00513          	li	a0,-17
    80000cb0:	43f55593          	srai	a1,a0,0x3f
    80000cb4:	18b0bc23          	sd	a1,408(ra)
    80000cb8:	fff00293          	li	t0,-1
    80000cbc:	00b28463          	beq	t0,a1,80000cc4 <inst_75>
    80000cc0:	b64ff06f          	j	80000024 <rvtest_error>

0000000080000cc4 <inst_75>:
    80000cc4:	fdf00513          	li	a0,-33
    80000cc8:	40755593          	srai	a1,a0,0x7
    80000ccc:	1ab0b023          	sd	a1,416(ra)
    80000cd0:	fff00293          	li	t0,-1
    80000cd4:	00b28463          	beq	t0,a1,80000cdc <inst_76>
    80000cd8:	b4cff06f          	j	80000024 <rvtest_error>

0000000080000cdc <inst_76>:
    80000cdc:	fbf00513          	li	a0,-65
    80000ce0:	40e55593          	srai	a1,a0,0xe
    80000ce4:	1ab0b423          	sd	a1,424(ra)
    80000ce8:	fff00293          	li	t0,-1
    80000cec:	00b28463          	beq	t0,a1,80000cf4 <inst_77>
    80000cf0:	b34ff06f          	j	80000024 <rvtest_error>

0000000080000cf4 <inst_77>:
    80000cf4:	f7f00513          	li	a0,-129
    80000cf8:	40655593          	srai	a1,a0,0x6
    80000cfc:	1ab0b823          	sd	a1,432(ra)
    80000d00:	ffd00293          	li	t0,-3
    80000d04:	00b28463          	beq	t0,a1,80000d0c <inst_78>
    80000d08:	b1cff06f          	j	80000024 <rvtest_error>

0000000080000d0c <inst_78>:
    80000d0c:	eff00513          	li	a0,-257
    80000d10:	40c55593          	srai	a1,a0,0xc
    80000d14:	1ab0bc23          	sd	a1,440(ra)
    80000d18:	fff00293          	li	t0,-1
    80000d1c:	00b28463          	beq	t0,a1,80000d24 <inst_79>
    80000d20:	b04ff06f          	j	80000024 <rvtest_error>

0000000080000d24 <inst_79>:
    80000d24:	dff00513          	li	a0,-513
    80000d28:	40355593          	srai	a1,a0,0x3
    80000d2c:	1cb0b023          	sd	a1,448(ra)
    80000d30:	fbf00293          	li	t0,-65
    80000d34:	00b28463          	beq	t0,a1,80000d3c <inst_80>
    80000d38:	aecff06f          	j	80000024 <rvtest_error>

0000000080000d3c <inst_80>:
    80000d3c:	bff00513          	li	a0,-1025
    80000d40:	40f55593          	srai	a1,a0,0xf
    80000d44:	1cb0b423          	sd	a1,456(ra)
    80000d48:	fff00293          	li	t0,-1
    80000d4c:	00b28463          	beq	t0,a1,80000d54 <inst_81>
    80000d50:	ad4ff06f          	j	80000024 <rvtest_error>

0000000080000d54 <inst_81>:
    80000d54:	00100513          	li	a0,1
    80000d58:	00b51513          	slli	a0,a0,0xb
    80000d5c:	fff54513          	not	a0,a0
    80000d60:	40955593          	srai	a1,a0,0x9
    80000d64:	1cb0b823          	sd	a1,464(ra)
    80000d68:	ffb00293          	li	t0,-5
    80000d6c:	00b28463          	beq	t0,a1,80000d74 <inst_82>
    80000d70:	ab4ff06f          	j	80000024 <rvtest_error>

0000000080000d74 <inst_82>:
    80000d74:	00100513          	li	a0,1
    80000d78:	00c51513          	slli	a0,a0,0xc
    80000d7c:	fff54513          	not	a0,a0
    80000d80:	43f55593          	srai	a1,a0,0x3f
    80000d84:	1cb0bc23          	sd	a1,472(ra)
    80000d88:	fff00293          	li	t0,-1
    80000d8c:	00b28463          	beq	t0,a1,80000d94 <inst_83>
    80000d90:	a94ff06f          	j	80000024 <rvtest_error>

0000000080000d94 <inst_83>:
    80000d94:	00100513          	li	a0,1
    80000d98:	00d51513          	slli	a0,a0,0xd
    80000d9c:	fff54513          	not	a0,a0
    80000da0:	40955593          	srai	a1,a0,0x9
    80000da4:	1eb0b023          	sd	a1,480(ra)
    80000da8:	fef00293          	li	t0,-17
    80000dac:	00b28463          	beq	t0,a1,80000db4 <inst_84>
    80000db0:	a74ff06f          	j	80000024 <rvtest_error>

0000000080000db4 <inst_84>:
    80000db4:	00100513          	li	a0,1
    80000db8:	00e51513          	slli	a0,a0,0xe
    80000dbc:	fff54513          	not	a0,a0
    80000dc0:	40355593          	srai	a1,a0,0x3
    80000dc4:	1eb0b423          	sd	a1,488(ra)
    80000dc8:	fffff2b7          	lui	t0,0xfffff
    80000dcc:	7ff2829b          	addiw	t0,t0,2047 # fffffffffffff7ff <absimm+0xffffffff452f1d2f>
    80000dd0:	00b28463          	beq	t0,a1,80000dd8 <inst_85>
    80000dd4:	a50ff06f          	j	80000024 <rvtest_error>

0000000080000dd8 <inst_85>:
    80000dd8:	00100513          	li	a0,1
    80000ddc:	00f51513          	slli	a0,a0,0xf
    80000de0:	fff54513          	not	a0,a0
    80000de4:	41055593          	srai	a1,a0,0x10
    80000de8:	1eb0b823          	sd	a1,496(ra)
    80000dec:	fff00293          	li	t0,-1
    80000df0:	00b28463          	beq	t0,a1,80000df8 <inst_86>
    80000df4:	a30ff06f          	j	80000024 <rvtest_error>

0000000080000df8 <inst_86>:
    80000df8:	00100513          	li	a0,1
    80000dfc:	01051513          	slli	a0,a0,0x10
    80000e00:	fff54513          	not	a0,a0
    80000e04:	41555593          	srai	a1,a0,0x15
    80000e08:	1eb0bc23          	sd	a1,504(ra)
    80000e0c:	fff00293          	li	t0,-1
    80000e10:	00b28463          	beq	t0,a1,80000e18 <inst_87>
    80000e14:	a10ff06f          	j	80000024 <rvtest_error>

0000000080000e18 <inst_87>:
    80000e18:	00100513          	li	a0,1
    80000e1c:	01151513          	slli	a0,a0,0x11
    80000e20:	fff54513          	not	a0,a0
    80000e24:	40555593          	srai	a1,a0,0x5
    80000e28:	20b0b023          	sd	a1,512(ra)
    80000e2c:	fffff2b7          	lui	t0,0xfffff
    80000e30:	fff2829b          	addiw	t0,t0,-1 # ffffffffffffefff <absimm+0xffffffff452f152f>
    80000e34:	00b28463          	beq	t0,a1,80000e3c <inst_88>
    80000e38:	9ecff06f          	j	80000024 <rvtest_error>

0000000080000e3c <inst_88>:
    80000e3c:	00100513          	li	a0,1
    80000e40:	01251513          	slli	a0,a0,0x12
    80000e44:	fff54513          	not	a0,a0
    80000e48:	40155593          	srai	a1,a0,0x1
    80000e4c:	20b0b423          	sd	a1,520(ra)
    80000e50:	fffe02b7          	lui	t0,0xfffe0
    80000e54:	fff2829b          	addiw	t0,t0,-1 # fffffffffffdffff <absimm+0xffffffff452d252f>
    80000e58:	00b28463          	beq	t0,a1,80000e60 <inst_89>
    80000e5c:	9c8ff06f          	j	80000024 <rvtest_error>

0000000080000e60 <inst_89>:
    80000e60:	00100513          	li	a0,1
    80000e64:	01351513          	slli	a0,a0,0x13
    80000e68:	fff54513          	not	a0,a0
    80000e6c:	43f55593          	srai	a1,a0,0x3f
    80000e70:	20b0b823          	sd	a1,528(ra)
    80000e74:	fff00293          	li	t0,-1
    80000e78:	00b28463          	beq	t0,a1,80000e80 <inst_90>
    80000e7c:	9a8ff06f          	j	80000024 <rvtest_error>

0000000080000e80 <inst_90>:
    80000e80:	00100513          	li	a0,1
    80000e84:	01451513          	slli	a0,a0,0x14
    80000e88:	fff54513          	not	a0,a0
    80000e8c:	43755593          	srai	a1,a0,0x37
    80000e90:	20b0bc23          	sd	a1,536(ra)
    80000e94:	fff00293          	li	t0,-1
    80000e98:	00b28463          	beq	t0,a1,80000ea0 <inst_91>
    80000e9c:	988ff06f          	j	80000024 <rvtest_error>

0000000080000ea0 <inst_91>:
    80000ea0:	00100513          	li	a0,1
    80000ea4:	01551513          	slli	a0,a0,0x15
    80000ea8:	fff54513          	not	a0,a0
    80000eac:	40755593          	srai	a1,a0,0x7
    80000eb0:	22b0b023          	sd	a1,544(ra)
    80000eb4:	ffffc2b7          	lui	t0,0xffffc
    80000eb8:	fff2829b          	addiw	t0,t0,-1 # ffffffffffffbfff <absimm+0xffffffff452ee52f>
    80000ebc:	00b28463          	beq	t0,a1,80000ec4 <inst_92>
    80000ec0:	964ff06f          	j	80000024 <rvtest_error>

0000000080000ec4 <inst_92>:
    80000ec4:	00100513          	li	a0,1
    80000ec8:	03551513          	slli	a0,a0,0x35
    80000ecc:	fff54513          	not	a0,a0
    80000ed0:	41555593          	srai	a1,a0,0x15
    80000ed4:	22b0b423          	sd	a1,552(ra)
    80000ed8:	fff0029b          	addiw	t0,zero,-1
    80000edc:	02029293          	slli	t0,t0,0x20
    80000ee0:	fff28293          	addi	t0,t0,-1
    80000ee4:	00b28463          	beq	t0,a1,80000eec <inst_93>
    80000ee8:	93cff06f          	j	80000024 <rvtest_error>

0000000080000eec <inst_93>:
    80000eec:	00100513          	li	a0,1
    80000ef0:	03651513          	slli	a0,a0,0x36
    80000ef4:	fff54513          	not	a0,a0
    80000ef8:	41355593          	srai	a1,a0,0x13
    80000efc:	22b0b823          	sd	a1,560(ra)
    80000f00:	fff0029b          	addiw	t0,zero,-1
    80000f04:	02329293          	slli	t0,t0,0x23
    80000f08:	fff28293          	addi	t0,t0,-1
    80000f0c:	00b28463          	beq	t0,a1,80000f14 <inst_94>
    80000f10:	914ff06f          	j	80000024 <rvtest_error>

0000000080000f14 <inst_94>:
    80000f14:	00100513          	li	a0,1
    80000f18:	03751513          	slli	a0,a0,0x37
    80000f1c:	fff54513          	not	a0,a0
    80000f20:	41555593          	srai	a1,a0,0x15
    80000f24:	22b0bc23          	sd	a1,568(ra)
    80000f28:	fff0029b          	addiw	t0,zero,-1
    80000f2c:	02229293          	slli	t0,t0,0x22
    80000f30:	fff28293          	addi	t0,t0,-1
    80000f34:	00b28463          	beq	t0,a1,80000f3c <inst_95>
    80000f38:	8ecff06f          	j	80000024 <rvtest_error>

0000000080000f3c <inst_95>:
    80000f3c:	00100513          	li	a0,1
    80000f40:	03851513          	slli	a0,a0,0x38
    80000f44:	fff54513          	not	a0,a0
    80000f48:	41f55593          	srai	a1,a0,0x1f
    80000f4c:	24b0b023          	sd	a1,576(ra)
    80000f50:	fe0002b7          	lui	t0,0xfe000
    80000f54:	fff2829b          	addiw	t0,t0,-1 # fffffffffdffffff <absimm+0xffffffff432f252f>
    80000f58:	00b28463          	beq	t0,a1,80000f60 <inst_96>
    80000f5c:	8c8ff06f          	j	80000024 <rvtest_error>

0000000080000f60 <inst_96>:
    80000f60:	00100513          	li	a0,1
    80000f64:	03951513          	slli	a0,a0,0x39
    80000f68:	fff54513          	not	a0,a0
    80000f6c:	43b55593          	srai	a1,a0,0x3b
    80000f70:	24b0b423          	sd	a1,584(ra)
    80000f74:	fff00293          	li	t0,-1
    80000f78:	00b28463          	beq	t0,a1,80000f80 <inst_97>
    80000f7c:	8a8ff06f          	j	80000024 <rvtest_error>

0000000080000f80 <inst_97>:
    80000f80:	00100513          	li	a0,1
    80000f84:	03b51513          	slli	a0,a0,0x3b
    80000f88:	fff54513          	not	a0,a0
    80000f8c:	41f55593          	srai	a1,a0,0x1f
    80000f90:	24b0b823          	sd	a1,592(ra)
    80000f94:	f00002b7          	lui	t0,0xf0000
    80000f98:	fff2829b          	addiw	t0,t0,-1 # ffffffffefffffff <absimm+0xffffffff352f252f>
    80000f9c:	00b28463          	beq	t0,a1,80000fa4 <inst_98>
    80000fa0:	884ff06f          	j	80000024 <rvtest_error>

0000000080000fa4 <inst_98>:
    80000fa4:	00100513          	li	a0,1
    80000fa8:	03c51513          	slli	a0,a0,0x3c
    80000fac:	fff54513          	not	a0,a0
    80000fb0:	40155593          	srai	a1,a0,0x1
    80000fb4:	24b0bc23          	sd	a1,600(ra)
    80000fb8:	fff0029b          	addiw	t0,zero,-1
    80000fbc:	03b29293          	slli	t0,t0,0x3b
    80000fc0:	fff28293          	addi	t0,t0,-1
    80000fc4:	00b28463          	beq	t0,a1,80000fcc <inst_99>
    80000fc8:	85cff06f          	j	80000024 <rvtest_error>

0000000080000fcc <inst_99>:
    80000fcc:	00100513          	li	a0,1
    80000fd0:	03d51513          	slli	a0,a0,0x3d
    80000fd4:	fff54513          	not	a0,a0
    80000fd8:	42055593          	srai	a1,a0,0x20
    80000fdc:	26b0b023          	sd	a1,608(ra)
    80000fe0:	e00002b7          	lui	t0,0xe0000
    80000fe4:	fff2829b          	addiw	t0,t0,-1 # ffffffffdfffffff <absimm+0xffffffff252f252f>
    80000fe8:	00b28463          	beq	t0,a1,80000ff0 <inst_100>
    80000fec:	838ff06f          	j	80000024 <rvtest_error>

0000000080000ff0 <inst_100>:
    80000ff0:	00100513          	li	a0,1
    80000ff4:	03e51513          	slli	a0,a0,0x3e
    80000ff8:	fff54513          	not	a0,a0
    80000ffc:	41355593          	srai	a1,a0,0x13
    80001000:	26b0b423          	sd	a1,616(ra)
    80001004:	fff0029b          	addiw	t0,zero,-1
    80001008:	02b29293          	slli	t0,t0,0x2b
    8000100c:	fff28293          	addi	t0,t0,-1
    80001010:	00b28463          	beq	t0,a1,80001018 <inst_101>
    80001014:	810ff06f          	j	80000024 <rvtest_error>

0000000080001018 <inst_101>:
    80001018:	55555537          	lui	a0,0x55555
    8000101c:	55550513          	addi	a0,a0,1365 # 55555555 <absimmsh+0x49a847a8>
    80001020:	00b51513          	slli	a0,a0,0xb
    80001024:	2aa50513          	addi	a0,a0,682
    80001028:	00b51513          	slli	a0,a0,0xb
    8000102c:	55550513          	addi	a0,a0,1365
    80001030:	00a51513          	slli	a0,a0,0xa
    80001034:	15550513          	addi	a0,a0,341
    80001038:	41255593          	srai	a1,a0,0x12
    8000103c:	26b0b823          	sd	a1,624(ra)
    80001040:	001552b7          	lui	t0,0x155
    80001044:	5552829b          	addiw	t0,t0,1365 # 155555 <offset+0x15514d>
    80001048:	00c29293          	slli	t0,t0,0xc
    8000104c:	55528293          	addi	t0,t0,1365
    80001050:	00c29293          	slli	t0,t0,0xc
    80001054:	55528293          	addi	t0,t0,1365
    80001058:	00b28463          	beq	t0,a1,80001060 <inst_102>
    8000105c:	fc9fe06f          	j	80000024 <rvtest_error>

0000000080001060 <inst_102>:
    80001060:	aaaab537          	lui	a0,0xaaaab
    80001064:	aaa50513          	addi	a0,a0,-1366 # ffffffffaaaaaaaa <absimm+0xfffffffeefd9cfda>
    80001068:	00b51513          	slli	a0,a0,0xb
    8000106c:	55550513          	addi	a0,a0,1365
    80001070:	00b51513          	slli	a0,a0,0xb
    80001074:	2aa50513          	addi	a0,a0,682
    80001078:	00a51513          	slli	a0,a0,0xa
    8000107c:	2aa50513          	addi	a0,a0,682
    80001080:	41f55593          	srai	a1,a0,0x1f
    80001084:	26b0bc23          	sd	a1,632(ra)
    80001088:	fff552b7          	lui	t0,0xfff55
    8000108c:	5552829b          	addiw	t0,t0,1365 # fffffffffff55555 <absimm+0xffffffff45247a85>
    80001090:	00c29293          	slli	t0,t0,0xc
    80001094:	55528293          	addi	t0,t0,1365
    80001098:	00b28463          	beq	t0,a1,800010a0 <inst_103>
    8000109c:	f89fe06f          	j	80000024 <rvtest_error>

00000000800010a0 <inst_103>:
    800010a0:	00300513          	li	a0,3
    800010a4:	42a55593          	srai	a1,a0,0x2a
    800010a8:	28b0b023          	sd	a1,640(ra)
    800010ac:	00000293          	li	t0,0
    800010b0:	00b28463          	beq	t0,a1,800010b8 <inst_104>
    800010b4:	f71fe06f          	j	80000024 <rvtest_error>

00000000800010b8 <inst_104>:
    800010b8:	00500513          	li	a0,5
    800010bc:	43e55593          	srai	a1,a0,0x3e
    800010c0:	28b0b423          	sd	a1,648(ra)
    800010c4:	00000293          	li	t0,0
    800010c8:	00b28463          	beq	t0,a1,800010d0 <inst_105>
    800010cc:	f59fe06f          	j	80000024 <rvtest_error>

00000000800010d0 <inst_105>:
    800010d0:	33333537          	lui	a0,0x33333
    800010d4:	33350513          	addi	a0,a0,819 # 33333333 <absimmsh+0x27862586>
    800010d8:	00b51513          	slli	a0,a0,0xb
    800010dc:	19950513          	addi	a0,a0,409
    800010e0:	00b51513          	slli	a0,a0,0xb
    800010e4:	4cc50513          	addi	a0,a0,1228
    800010e8:	00a51513          	slli	a0,a0,0xa
    800010ec:	33350513          	addi	a0,a0,819
    800010f0:	40455593          	srai	a1,a0,0x4
    800010f4:	28b0b823          	sd	a1,656(ra)
    800010f8:	003332b7          	lui	t0,0x333
    800010fc:	3332829b          	addiw	t0,t0,819 # 333333 <offset+0x332f2b>
    80001100:	00c29293          	slli	t0,t0,0xc
    80001104:	33328293          	addi	t0,t0,819
    80001108:	00c29293          	slli	t0,t0,0xc
    8000110c:	33328293          	addi	t0,t0,819
    80001110:	00c29293          	slli	t0,t0,0xc
    80001114:	33328293          	addi	t0,t0,819
    80001118:	00b28463          	beq	t0,a1,80001120 <inst_106>
    8000111c:	f09fe06f          	j	80000024 <rvtest_error>

0000000080001120 <inst_106>:
    80001120:	66666537          	lui	a0,0x66666
    80001124:	66650513          	addi	a0,a0,1638 # 66666666 <absimmsh+0x5ab958b9>
    80001128:	00b51513          	slli	a0,a0,0xb
    8000112c:	33350513          	addi	a0,a0,819
    80001130:	00b51513          	slli	a0,a0,0xb
    80001134:	19950513          	addi	a0,a0,409
    80001138:	00a51513          	slli	a0,a0,0xa
    8000113c:	26650513          	addi	a0,a0,614
    80001140:	40255593          	srai	a1,a0,0x2
    80001144:	28b0bc23          	sd	a1,664(ra)
    80001148:	00ccd2b7          	lui	t0,0xccd
    8000114c:	ccd2829b          	addiw	t0,t0,-819 # cccccd <offset+0xccc8c5>
    80001150:	00c29293          	slli	t0,t0,0xc
    80001154:	ccd28293          	addi	t0,t0,-819
    80001158:	00c29293          	slli	t0,t0,0xc
    8000115c:	ccd28293          	addi	t0,t0,-819
    80001160:	00d29293          	slli	t0,t0,0xd
    80001164:	99928293          	addi	t0,t0,-1639
    80001168:	00b28463          	beq	t0,a1,80001170 <inst_107>
    8000116c:	eb9fe06f          	j	80000024 <rvtest_error>

0000000080001170 <inst_107>:
    80001170:	00000537          	lui	a0,0x0
    80001174:	fff50513          	addi	a0,a0,-1
    80001178:	00b51513          	slli	a0,a0,0xb
    8000117c:	25750513          	addi	a0,a0,599
    80001180:	00b51513          	slli	a0,a0,0xb
    80001184:	6c350513          	addi	a0,a0,1731
    80001188:	00a51513          	slli	a0,a0,0xa
    8000118c:	0cd50513          	addi	a0,a0,205
    80001190:	40b55593          	srai	a1,a0,0xb
    80001194:	2ab0b023          	sd	a1,672(ra)
    80001198:	ffe962b7          	lui	t0,0xffe96
    8000119c:	f612829b          	addiw	t0,t0,-159 # ffffffffffe95f61 <absimm+0xffffffff45188491>
    800011a0:	00b28463          	beq	t0,a1,800011a8 <inst_108>
    800011a4:	e81fe06f          	j	80000024 <rvtest_error>

00000000800011a8 <inst_108>:
    800011a8:	00000537          	lui	a0,0x0
    800011ac:	00050513          	mv	a0,a0
    800011b0:	00b51513          	slli	a0,a0,0xb
    800011b4:	5a850513          	addi	a0,a0,1448 # 5a8 <offset+0x1a0>
    800011b8:	00b51513          	slli	a0,a0,0xb
    800011bc:	13c50513          	addi	a0,a0,316
    800011c0:	00a51513          	slli	a0,a0,0xa
    800011c4:	33350513          	addi	a0,a0,819
    800011c8:	41255593          	srai	a1,a0,0x12
    800011cc:	2ab0b423          	sd	a1,680(ra)
    800011d0:	000032b7          	lui	t0,0x3
    800011d4:	d412829b          	addiw	t0,t0,-703 # 2d41 <offset+0x2939>
    800011d8:	00b28463          	beq	t0,a1,800011e0 <inst_109>
    800011dc:	e49fe06f          	j	80000024 <rvtest_error>

00000000800011e0 <inst_109>:
    800011e0:	55555537          	lui	a0,0x55555
    800011e4:	55550513          	addi	a0,a0,1365 # 55555555 <absimmsh+0x49a847a8>
    800011e8:	00b51513          	slli	a0,a0,0xb
    800011ec:	2aa50513          	addi	a0,a0,682
    800011f0:	00b51513          	slli	a0,a0,0xb
    800011f4:	55550513          	addi	a0,a0,1365
    800011f8:	00a51513          	slli	a0,a0,0xa
    800011fc:	15450513          	addi	a0,a0,340
    80001200:	40c55593          	srai	a1,a0,0xc
    80001204:	2ab0b823          	sd	a1,688(ra)
    80001208:	055552b7          	lui	t0,0x5555
    8000120c:	5552829b          	addiw	t0,t0,1365 # 5555555 <offset+0x555514d>
    80001210:	00c29293          	slli	t0,t0,0xc
    80001214:	55528293          	addi	t0,t0,1365
    80001218:	00c29293          	slli	t0,t0,0xc
    8000121c:	55528293          	addi	t0,t0,1365
    80001220:	00b28463          	beq	t0,a1,80001228 <inst_110>
    80001224:	e01fe06f          	j	80000024 <rvtest_error>

0000000080001228 <inst_110>:
    80001228:	33333537          	lui	a0,0x33333
    8000122c:	33350513          	addi	a0,a0,819 # 33333333 <absimmsh+0x27862586>
    80001230:	00b51513          	slli	a0,a0,0xb
    80001234:	19950513          	addi	a0,a0,409
    80001238:	00b51513          	slli	a0,a0,0xb
    8000123c:	4cc50513          	addi	a0,a0,1228
    80001240:	00a51513          	slli	a0,a0,0xa
    80001244:	33250513          	addi	a0,a0,818
    80001248:	41355593          	srai	a1,a0,0x13
    8000124c:	2ab0bc23          	sd	a1,696(ra)
    80001250:	333332b7          	lui	t0,0x33333
    80001254:	3332829b          	addiw	t0,t0,819 # 33333333 <absimmsh+0x27862586>
    80001258:	00d29293          	slli	t0,t0,0xd
    8000125c:	66628293          	addi	t0,t0,1638
    80001260:	00b28463          	beq	t0,a1,80001268 <inst_111>
    80001264:	dc1fe06f          	j	80000024 <rvtest_error>

0000000080001268 <inst_111>:
    80001268:	66666537          	lui	a0,0x66666
    8000126c:	66650513          	addi	a0,a0,1638 # 66666666 <absimmsh+0x5ab958b9>
    80001270:	00b51513          	slli	a0,a0,0xb
    80001274:	33350513          	addi	a0,a0,819
    80001278:	00b51513          	slli	a0,a0,0xb
    8000127c:	19950513          	addi	a0,a0,409
    80001280:	00a51513          	slli	a0,a0,0xa
    80001284:	26550513          	addi	a0,a0,613
    80001288:	40155593          	srai	a1,a0,0x1
    8000128c:	2cb0b023          	sd	a1,704(ra)
    80001290:	033332b7          	lui	t0,0x3333
    80001294:	3332829b          	addiw	t0,t0,819 # 3333333 <offset+0x3332f2b>
    80001298:	00c29293          	slli	t0,t0,0xc
    8000129c:	33328293          	addi	t0,t0,819
    800012a0:	00c29293          	slli	t0,t0,0xc
    800012a4:	33328293          	addi	t0,t0,819
    800012a8:	00c29293          	slli	t0,t0,0xc
    800012ac:	33228293          	addi	t0,t0,818
    800012b0:	00b28463          	beq	t0,a1,800012b8 <inst_112>
    800012b4:	d71fe06f          	j	80000024 <rvtest_error>

00000000800012b8 <inst_112>:
    800012b8:	00000537          	lui	a0,0x0
    800012bc:	00050513          	mv	a0,a0
    800012c0:	00b51513          	slli	a0,a0,0xb
    800012c4:	5a850513          	addi	a0,a0,1448 # 5a8 <offset+0x1a0>
    800012c8:	00b51513          	slli	a0,a0,0xb
    800012cc:	13c50513          	addi	a0,a0,316
    800012d0:	00a51513          	slli	a0,a0,0xa
    800012d4:	33250513          	addi	a0,a0,818
    800012d8:	40a55593          	srai	a1,a0,0xa
    800012dc:	2cb0b423          	sd	a1,712(ra)
    800012e0:	002d42b7          	lui	t0,0x2d4
    800012e4:	13c2829b          	addiw	t0,t0,316 # 2d413c <offset+0x2d3d34>
    800012e8:	00b28463          	beq	t0,a1,800012f0 <inst_113>
    800012ec:	d39fe06f          	j	80000024 <rvtest_error>

00000000800012f0 <inst_113>:
    800012f0:	55555537          	lui	a0,0x55555
    800012f4:	55550513          	addi	a0,a0,1365 # 55555555 <absimmsh+0x49a847a8>
    800012f8:	00b51513          	slli	a0,a0,0xb
    800012fc:	2aa50513          	addi	a0,a0,682
    80001300:	00b51513          	slli	a0,a0,0xb
    80001304:	55550513          	addi	a0,a0,1365
    80001308:	00a51513          	slli	a0,a0,0xa
    8000130c:	15650513          	addi	a0,a0,342
    80001310:	40c55593          	srai	a1,a0,0xc
    80001314:	2cb0b823          	sd	a1,720(ra)
    80001318:	055552b7          	lui	t0,0x5555
    8000131c:	5552829b          	addiw	t0,t0,1365 # 5555555 <offset+0x555514d>
    80001320:	00c29293          	slli	t0,t0,0xc
    80001324:	55528293          	addi	t0,t0,1365
    80001328:	00c29293          	slli	t0,t0,0xc
    8000132c:	55528293          	addi	t0,t0,1365
    80001330:	00b28463          	beq	t0,a1,80001338 <inst_114>
    80001334:	cf1fe06f          	j	80000024 <rvtest_error>

0000000080001338 <inst_114>:
    80001338:	aaaab537          	lui	a0,0xaaaab
    8000133c:	aaa50513          	addi	a0,a0,-1366 # ffffffffaaaaaaaa <absimm+0xfffffffeefd9cfda>
    80001340:	00b51513          	slli	a0,a0,0xb
    80001344:	55550513          	addi	a0,a0,1365
    80001348:	00b51513          	slli	a0,a0,0xb
    8000134c:	2aa50513          	addi	a0,a0,682
    80001350:	00a51513          	slli	a0,a0,0xa
    80001354:	2ab50513          	addi	a0,a0,683
    80001358:	40355593          	srai	a1,a0,0x3
    8000135c:	2cb0bc23          	sd	a1,728(ra)
    80001360:	ff5552b7          	lui	t0,0xff555
    80001364:	5552829b          	addiw	t0,t0,1365 # ffffffffff555555 <absimm+0xffffffff44847a85>
    80001368:	00c29293          	slli	t0,t0,0xc
    8000136c:	55528293          	addi	t0,t0,1365
    80001370:	00c29293          	slli	t0,t0,0xc
    80001374:	55528293          	addi	t0,t0,1365
    80001378:	00c29293          	slli	t0,t0,0xc
    8000137c:	55528293          	addi	t0,t0,1365
    80001380:	00b28463          	beq	t0,a1,80001388 <inst_115>
    80001384:	ca1fe06f          	j	80000024 <rvtest_error>

0000000080001388 <inst_115>:
    80001388:	00600513          	li	a0,6
    8000138c:	41555593          	srai	a1,a0,0x15
    80001390:	2eb0b023          	sd	a1,736(ra)
    80001394:	00000293          	li	t0,0
    80001398:	00b28463          	beq	t0,a1,800013a0 <inst_116>
    8000139c:	c89fe06f          	j	80000024 <rvtest_error>

00000000800013a0 <inst_116>:
    800013a0:	33333537          	lui	a0,0x33333
    800013a4:	33350513          	addi	a0,a0,819 # 33333333 <absimmsh+0x27862586>
    800013a8:	00b51513          	slli	a0,a0,0xb
    800013ac:	19950513          	addi	a0,a0,409
    800013b0:	00b51513          	slli	a0,a0,0xb
    800013b4:	4cc50513          	addi	a0,a0,1228
    800013b8:	00a51513          	slli	a0,a0,0xa
    800013bc:	33450513          	addi	a0,a0,820
    800013c0:	40f55593          	srai	a1,a0,0xf
    800013c4:	2eb0b423          	sd	a1,744(ra)
    800013c8:	003332b7          	lui	t0,0x333
    800013cc:	3332829b          	addiw	t0,t0,819 # 333333 <offset+0x332f2b>
    800013d0:	00c29293          	slli	t0,t0,0xc
    800013d4:	33328293          	addi	t0,t0,819
    800013d8:	00d29293          	slli	t0,t0,0xd
    800013dc:	66628293          	addi	t0,t0,1638
    800013e0:	00b28463          	beq	t0,a1,800013e8 <inst_117>
    800013e4:	c41fe06f          	j	80000024 <rvtest_error>

00000000800013e8 <inst_117>:
    800013e8:	66666537          	lui	a0,0x66666
    800013ec:	66650513          	addi	a0,a0,1638 # 66666666 <absimmsh+0x5ab958b9>
    800013f0:	00b51513          	slli	a0,a0,0xb
    800013f4:	33350513          	addi	a0,a0,819
    800013f8:	00b51513          	slli	a0,a0,0xb
    800013fc:	19950513          	addi	a0,a0,409
    80001400:	00a51513          	slli	a0,a0,0xa
    80001404:	26750513          	addi	a0,a0,615
    80001408:	40a55593          	srai	a1,a0,0xa
    8000140c:	2eb0b823          	sd	a1,752(ra)
    80001410:	0cccd2b7          	lui	t0,0xcccd
    80001414:	ccd2829b          	addiw	t0,t0,-819 # ccccccd <absimmsh+0x11fbf20>
    80001418:	00c29293          	slli	t0,t0,0xc
    8000141c:	ccd28293          	addi	t0,t0,-819
    80001420:	00d29293          	slli	t0,t0,0xd
    80001424:	99928293          	addi	t0,t0,-1639
    80001428:	00b28463          	beq	t0,a1,80001430 <inst_118>
    8000142c:	bf9fe06f          	j	80000024 <rvtest_error>

0000000080001430 <inst_118>:
    80001430:	00000537          	lui	a0,0x0
    80001434:	fff50513          	addi	a0,a0,-1
    80001438:	00b51513          	slli	a0,a0,0xb
    8000143c:	25750513          	addi	a0,a0,599
    80001440:	00b51513          	slli	a0,a0,0xb
    80001444:	6c350513          	addi	a0,a0,1731
    80001448:	00a51513          	slli	a0,a0,0xa
    8000144c:	0ce50513          	addi	a0,a0,206
    80001450:	40b55593          	srai	a1,a0,0xb
    80001454:	2eb0bc23          	sd	a1,760(ra)
    80001458:	ffe962b7          	lui	t0,0xffe96
    8000145c:	f612829b          	addiw	t0,t0,-159 # ffffffffffe95f61 <absimm+0xffffffff45188491>
    80001460:	00b28463          	beq	t0,a1,80001468 <inst_119>
    80001464:	bc1fe06f          	j	80000024 <rvtest_error>

0000000080001468 <inst_119>:
    80001468:	00000537          	lui	a0,0x0
    8000146c:	00050513          	mv	a0,a0
    80001470:	00b51513          	slli	a0,a0,0xb
    80001474:	5a850513          	addi	a0,a0,1448 # 5a8 <offset+0x1a0>
    80001478:	00b51513          	slli	a0,a0,0xb
    8000147c:	13c50513          	addi	a0,a0,316
    80001480:	00a51513          	slli	a0,a0,0xa
    80001484:	33450513          	addi	a0,a0,820
    80001488:	40855593          	srai	a1,a0,0x8
    8000148c:	30b0b023          	sd	a1,768(ra)
    80001490:	00b502b7          	lui	t0,0xb50
    80001494:	4f32829b          	addiw	t0,t0,1267 # b504f3 <offset+0xb500eb>
    80001498:	00b28463          	beq	t0,a1,800014a0 <inst_120>
    8000149c:	b89fe06f          	j	80000024 <rvtest_error>

00000000800014a0 <inst_120>:
    800014a0:	00100513          	li	a0,1
    800014a4:	02d51513          	slli	a0,a0,0x2d
    800014a8:	fff54513          	not	a0,a0
    800014ac:	42f55593          	srai	a1,a0,0x2f
    800014b0:	30b0b423          	sd	a1,776(ra)
    800014b4:	fff00293          	li	t0,-1
    800014b8:	00b28463          	beq	t0,a1,800014c0 <inst_121>
    800014bc:	b69fe06f          	j	80000024 <rvtest_error>

00000000800014c0 <inst_121>:
    800014c0:	00100513          	li	a0,1
    800014c4:	01651513          	slli	a0,a0,0x16
    800014c8:	fff54513          	not	a0,a0
    800014cc:	42a55593          	srai	a1,a0,0x2a
    800014d0:	30b0b823          	sd	a1,784(ra)
    800014d4:	fff00293          	li	t0,-1
    800014d8:	00b28463          	beq	t0,a1,800014e0 <inst_122>
    800014dc:	b49fe06f          	j	80000024 <rvtest_error>

00000000800014e0 <inst_122>:
    800014e0:	00100513          	li	a0,1
    800014e4:	01751513          	slli	a0,a0,0x17
    800014e8:	fff54513          	not	a0,a0
    800014ec:	40d55593          	srai	a1,a0,0xd
    800014f0:	30b0bc23          	sd	a1,792(ra)
    800014f4:	bff00293          	li	t0,-1025
    800014f8:	00b28463          	beq	t0,a1,80001500 <inst_123>
    800014fc:	b29fe06f          	j	80000024 <rvtest_error>

0000000080001500 <inst_123>:
    80001500:	00100513          	li	a0,1
    80001504:	01851513          	slli	a0,a0,0x18
    80001508:	fff54513          	not	a0,a0
    8000150c:	40155593          	srai	a1,a0,0x1
    80001510:	32b0b023          	sd	a1,800(ra)
    80001514:	ff8002b7          	lui	t0,0xff800
    80001518:	fff2829b          	addiw	t0,t0,-1 # ffffffffff7fffff <absimm+0xffffffff44af252f>
    8000151c:	00b28463          	beq	t0,a1,80001524 <inst_124>
    80001520:	b05fe06f          	j	80000024 <rvtest_error>

0000000080001524 <inst_124>:
    80001524:	00100513          	li	a0,1
    80001528:	01a51513          	slli	a0,a0,0x1a
    8000152c:	fff54513          	not	a0,a0
    80001530:	40c55593          	srai	a1,a0,0xc
    80001534:	32b0b423          	sd	a1,808(ra)
    80001538:	ffffc2b7          	lui	t0,0xffffc
    8000153c:	fff2829b          	addiw	t0,t0,-1 # ffffffffffffbfff <absimm+0xffffffff452ee52f>
    80001540:	00b28463          	beq	t0,a1,80001548 <inst_125>
    80001544:	ae1fe06f          	j	80000024 <rvtest_error>

0000000080001548 <inst_125>:
    80001548:	00100513          	li	a0,1
    8000154c:	01b51513          	slli	a0,a0,0x1b
    80001550:	fff54513          	not	a0,a0
    80001554:	40755593          	srai	a1,a0,0x7
    80001558:	32b0b823          	sd	a1,816(ra)
    8000155c:	fff002b7          	lui	t0,0xfff00
    80001560:	fff2829b          	addiw	t0,t0,-1 # ffffffffffefffff <absimm+0xffffffff451f252f>
    80001564:	00b28463          	beq	t0,a1,8000156c <inst_126>
    80001568:	abdfe06f          	j	80000024 <rvtest_error>

000000008000156c <inst_126>:
    8000156c:	00100513          	li	a0,1
    80001570:	01c51513          	slli	a0,a0,0x1c
    80001574:	fff54513          	not	a0,a0
    80001578:	40455593          	srai	a1,a0,0x4
    8000157c:	32b0bc23          	sd	a1,824(ra)
    80001580:	ff0002b7          	lui	t0,0xff000
    80001584:	fff2829b          	addiw	t0,t0,-1 # fffffffffeffffff <absimm+0xffffffff442f252f>
    80001588:	00b28463          	beq	t0,a1,80001590 <inst_127>
    8000158c:	a99fe06f          	j	80000024 <rvtest_error>

0000000080001590 <inst_127>:
    80001590:	00100513          	li	a0,1
    80001594:	01d51513          	slli	a0,a0,0x1d
    80001598:	fff54513          	not	a0,a0
    8000159c:	43b55593          	srai	a1,a0,0x3b
    800015a0:	34b0b023          	sd	a1,832(ra)
    800015a4:	fff00293          	li	t0,-1
    800015a8:	00b28463          	beq	t0,a1,800015b0 <inst_128>
    800015ac:	a79fe06f          	j	80000024 <rvtest_error>

00000000800015b0 <inst_128>:
    800015b0:	00100513          	li	a0,1
    800015b4:	01e51513          	slli	a0,a0,0x1e
    800015b8:	fff54513          	not	a0,a0
    800015bc:	42055593          	srai	a1,a0,0x20
    800015c0:	34b0b423          	sd	a1,840(ra)
    800015c4:	fff00293          	li	t0,-1
    800015c8:	00b28463          	beq	t0,a1,800015d0 <inst_129>
    800015cc:	a59fe06f          	j	80000024 <rvtest_error>

00000000800015d0 <inst_129>:
    800015d0:	00100513          	li	a0,1
    800015d4:	01f51513          	slli	a0,a0,0x1f
    800015d8:	fff54513          	not	a0,a0
    800015dc:	40955593          	srai	a1,a0,0x9
    800015e0:	34b0b823          	sd	a1,848(ra)
    800015e4:	ffc002b7          	lui	t0,0xffc00
    800015e8:	fff2829b          	addiw	t0,t0,-1 # ffffffffffbfffff <absimm+0xffffffff44ef252f>
    800015ec:	00b28463          	beq	t0,a1,800015f4 <inst_130>
    800015f0:	a35fe06f          	j	80000024 <rvtest_error>

00000000800015f4 <inst_130>:
    800015f4:	00100513          	li	a0,1
    800015f8:	02051513          	slli	a0,a0,0x20
    800015fc:	fff54513          	not	a0,a0
    80001600:	40455593          	srai	a1,a0,0x4
    80001604:	34b0bc23          	sd	a1,856(ra)
    80001608:	f00002b7          	lui	t0,0xf0000
    8000160c:	fff2829b          	addiw	t0,t0,-1 # ffffffffefffffff <absimm+0xffffffff352f252f>
    80001610:	00b28463          	beq	t0,a1,80001618 <inst_131>
    80001614:	a11fe06f          	j	80000024 <rvtest_error>

0000000080001618 <inst_131>:
    80001618:	00100513          	li	a0,1
    8000161c:	02151513          	slli	a0,a0,0x21
    80001620:	fff54513          	not	a0,a0
    80001624:	40c55593          	srai	a1,a0,0xc
    80001628:	36b0b023          	sd	a1,864(ra)
    8000162c:	ffe002b7          	lui	t0,0xffe00
    80001630:	fff2829b          	addiw	t0,t0,-1 # ffffffffffdfffff <absimm+0xffffffff450f252f>
    80001634:	00b28463          	beq	t0,a1,8000163c <inst_132>
    80001638:	9edfe06f          	j	80000024 <rvtest_error>

000000008000163c <inst_132>:
    8000163c:	00100513          	li	a0,1
    80001640:	02251513          	slli	a0,a0,0x22
    80001644:	fff54513          	not	a0,a0
    80001648:	42f55593          	srai	a1,a0,0x2f
    8000164c:	36b0b423          	sd	a1,872(ra)
    80001650:	fff00293          	li	t0,-1
    80001654:	00b28463          	beq	t0,a1,8000165c <inst_133>
    80001658:	9cdfe06f          	j	80000024 <rvtest_error>

000000008000165c <inst_133>:
    8000165c:	00100513          	li	a0,1
    80001660:	02351513          	slli	a0,a0,0x23
    80001664:	fff54513          	not	a0,a0
    80001668:	41155593          	srai	a1,a0,0x11
    8000166c:	36b0b823          	sd	a1,880(ra)
    80001670:	fffc02b7          	lui	t0,0xfffc0
    80001674:	fff2829b          	addiw	t0,t0,-1 # fffffffffffbffff <absimm+0xffffffff452b252f>
    80001678:	00b28463          	beq	t0,a1,80001680 <inst_134>
    8000167c:	9a9fe06f          	j	80000024 <rvtest_error>

0000000080001680 <inst_134>:
    80001680:	00100513          	li	a0,1
    80001684:	02451513          	slli	a0,a0,0x24
    80001688:	fff54513          	not	a0,a0
    8000168c:	40f55593          	srai	a1,a0,0xf
    80001690:	36b0bc23          	sd	a1,888(ra)
    80001694:	ffe002b7          	lui	t0,0xffe00
    80001698:	fff2829b          	addiw	t0,t0,-1 # ffffffffffdfffff <absimm+0xffffffff450f252f>
    8000169c:	00b28463          	beq	t0,a1,800016a4 <inst_135>
    800016a0:	985fe06f          	j	80000024 <rvtest_error>

00000000800016a4 <inst_135>:
    800016a4:	00100513          	li	a0,1
    800016a8:	02551513          	slli	a0,a0,0x25
    800016ac:	fff54513          	not	a0,a0
    800016b0:	41355593          	srai	a1,a0,0x13
    800016b4:	38b0b023          	sd	a1,896(ra)
    800016b8:	fffc02b7          	lui	t0,0xfffc0
    800016bc:	fff2829b          	addiw	t0,t0,-1 # fffffffffffbffff <absimm+0xffffffff452b252f>
    800016c0:	00b28463          	beq	t0,a1,800016c8 <inst_136>
    800016c4:	961fe06f          	j	80000024 <rvtest_error>

00000000800016c8 <inst_136>:
    800016c8:	00100513          	li	a0,1
    800016cc:	02651513          	slli	a0,a0,0x26
    800016d0:	fff54513          	not	a0,a0
    800016d4:	40355593          	srai	a1,a0,0x3
    800016d8:	38b0b423          	sd	a1,904(ra)
    800016dc:	fff0029b          	addiw	t0,zero,-1
    800016e0:	02329293          	slli	t0,t0,0x23
    800016e4:	fff28293          	addi	t0,t0,-1
    800016e8:	00b28463          	beq	t0,a1,800016f0 <inst_137>
    800016ec:	939fe06f          	j	80000024 <rvtest_error>

00000000800016f0 <inst_137>:
    800016f0:	00100513          	li	a0,1
    800016f4:	02751513          	slli	a0,a0,0x27
    800016f8:	fff54513          	not	a0,a0
    800016fc:	40e55593          	srai	a1,a0,0xe
    80001700:	38b0b823          	sd	a1,912(ra)
    80001704:	fe0002b7          	lui	t0,0xfe000
    80001708:	fff2829b          	addiw	t0,t0,-1 # fffffffffdffffff <absimm+0xffffffff432f252f>
    8000170c:	00b28463          	beq	t0,a1,80001714 <inst_138>
    80001710:	915fe06f          	j	80000024 <rvtest_error>

0000000080001714 <inst_138>:
    80001714:	00100513          	li	a0,1
    80001718:	02851513          	slli	a0,a0,0x28
    8000171c:	fff54513          	not	a0,a0
    80001720:	40155593          	srai	a1,a0,0x1
    80001724:	38b0bc23          	sd	a1,920(ra)
    80001728:	fff0029b          	addiw	t0,zero,-1
    8000172c:	02729293          	slli	t0,t0,0x27
    80001730:	fff28293          	addi	t0,t0,-1
    80001734:	00b28463          	beq	t0,a1,8000173c <inst_139>
    80001738:	8edfe06f          	j	80000024 <rvtest_error>

000000008000173c <inst_139>:
    8000173c:	00100513          	li	a0,1
    80001740:	02951513          	slli	a0,a0,0x29
    80001744:	fff54513          	not	a0,a0
    80001748:	40555593          	srai	a1,a0,0x5
    8000174c:	3ab0b023          	sd	a1,928(ra)
    80001750:	fff0029b          	addiw	t0,zero,-1
    80001754:	02429293          	slli	t0,t0,0x24
    80001758:	fff28293          	addi	t0,t0,-1
    8000175c:	00b28463          	beq	t0,a1,80001764 <inst_140>
    80001760:	8c5fe06f          	j	80000024 <rvtest_error>

0000000080001764 <inst_140>:
    80001764:	00100513          	li	a0,1
    80001768:	02a51513          	slli	a0,a0,0x2a
    8000176c:	fff54513          	not	a0,a0
    80001770:	40855593          	srai	a1,a0,0x8
    80001774:	3ab0b423          	sd	a1,936(ra)
    80001778:	fff0029b          	addiw	t0,zero,-1
    8000177c:	02229293          	slli	t0,t0,0x22
    80001780:	fff28293          	addi	t0,t0,-1
    80001784:	00b28463          	beq	t0,a1,8000178c <inst_141>
    80001788:	89dfe06f          	j	80000024 <rvtest_error>

000000008000178c <inst_141>:
    8000178c:	00100513          	li	a0,1
    80001790:	02b51513          	slli	a0,a0,0x2b
    80001794:	fff54513          	not	a0,a0
    80001798:	40655593          	srai	a1,a0,0x6
    8000179c:	3ab0b823          	sd	a1,944(ra)
    800017a0:	fff0029b          	addiw	t0,zero,-1
    800017a4:	02529293          	slli	t0,t0,0x25
    800017a8:	fff28293          	addi	t0,t0,-1
    800017ac:	00b28463          	beq	t0,a1,800017b4 <inst_142>
    800017b0:	875fe06f          	j	80000024 <rvtest_error>

00000000800017b4 <inst_142>:
    800017b4:	00100513          	li	a0,1
    800017b8:	02c51513          	slli	a0,a0,0x2c
    800017bc:	fff54513          	not	a0,a0
    800017c0:	40955593          	srai	a1,a0,0x9
    800017c4:	3ab0bc23          	sd	a1,952(ra)
    800017c8:	fff0029b          	addiw	t0,zero,-1
    800017cc:	02329293          	slli	t0,t0,0x23
    800017d0:	fff28293          	addi	t0,t0,-1
    800017d4:	00b28463          	beq	t0,a1,800017dc <inst_143>
    800017d8:	84dfe06f          	j	80000024 <rvtest_error>

00000000800017dc <inst_143>:
    800017dc:	00100513          	li	a0,1
    800017e0:	02e51513          	slli	a0,a0,0x2e
    800017e4:	fff54513          	not	a0,a0
    800017e8:	40855593          	srai	a1,a0,0x8
    800017ec:	3cb0b023          	sd	a1,960(ra)
    800017f0:	fff0029b          	addiw	t0,zero,-1
    800017f4:	02629293          	slli	t0,t0,0x26
    800017f8:	fff28293          	addi	t0,t0,-1
    800017fc:	00b28463          	beq	t0,a1,80001804 <inst_144>
    80001800:	825fe06f          	j	80000024 <rvtest_error>

0000000080001804 <inst_144>:
    80001804:	00100513          	li	a0,1
    80001808:	02f51513          	slli	a0,a0,0x2f
    8000180c:	fff54513          	not	a0,a0
    80001810:	40255593          	srai	a1,a0,0x2
    80001814:	3cb0b423          	sd	a1,968(ra)
    80001818:	fff0029b          	addiw	t0,zero,-1
    8000181c:	02d29293          	slli	t0,t0,0x2d
    80001820:	fff28293          	addi	t0,t0,-1
    80001824:	00b28463          	beq	t0,a1,8000182c <inst_145>
    80001828:	ffcfe06f          	j	80000024 <rvtest_error>

000000008000182c <inst_145>:
    8000182c:	00100513          	li	a0,1
    80001830:	03051513          	slli	a0,a0,0x30
    80001834:	fff54513          	not	a0,a0
    80001838:	41f55593          	srai	a1,a0,0x1f
    8000183c:	3cb0b823          	sd	a1,976(ra)
    80001840:	fffe02b7          	lui	t0,0xfffe0
    80001844:	fff2829b          	addiw	t0,t0,-1 # fffffffffffdffff <absimm+0xffffffff452d252f>
    80001848:	00b28463          	beq	t0,a1,80001850 <inst_146>
    8000184c:	fd8fe06f          	j	80000024 <rvtest_error>

0000000080001850 <inst_146>:
    80001850:	00100513          	li	a0,1
    80001854:	03151513          	slli	a0,a0,0x31
    80001858:	fff54513          	not	a0,a0
    8000185c:	43b55593          	srai	a1,a0,0x3b
    80001860:	3cb0bc23          	sd	a1,984(ra)
    80001864:	fff00293          	li	t0,-1
    80001868:	00b28463          	beq	t0,a1,80001870 <inst_147>
    8000186c:	fb8fe06f          	j	80000024 <rvtest_error>

0000000080001870 <inst_147>:
    80001870:	00100513          	li	a0,1
    80001874:	03251513          	slli	a0,a0,0x32
    80001878:	fff54513          	not	a0,a0
    8000187c:	43755593          	srai	a1,a0,0x37
    80001880:	3eb0b023          	sd	a1,992(ra)
    80001884:	fff00293          	li	t0,-1
    80001888:	00b28463          	beq	t0,a1,80001890 <inst_148>
    8000188c:	f98fe06f          	j	80000024 <rvtest_error>

0000000080001890 <inst_148>:
    80001890:	00100513          	li	a0,1
    80001894:	03351513          	slli	a0,a0,0x33
    80001898:	fff54513          	not	a0,a0
    8000189c:	40355593          	srai	a1,a0,0x3
    800018a0:	3eb0b423          	sd	a1,1000(ra)
    800018a4:	fff0029b          	addiw	t0,zero,-1
    800018a8:	03029293          	slli	t0,t0,0x30
    800018ac:	fff28293          	addi	t0,t0,-1
    800018b0:	00b28463          	beq	t0,a1,800018b8 <inst_149>
    800018b4:	f70fe06f          	j	80000024 <rvtest_error>

00000000800018b8 <inst_149>:
    800018b8:	00100513          	li	a0,1
    800018bc:	03451513          	slli	a0,a0,0x34
    800018c0:	fff54513          	not	a0,a0
    800018c4:	41355593          	srai	a1,a0,0x13
    800018c8:	3eb0b823          	sd	a1,1008(ra)
    800018cc:	fff0029b          	addiw	t0,zero,-1
    800018d0:	02129293          	slli	t0,t0,0x21
    800018d4:	fff28293          	addi	t0,t0,-1
    800018d8:	00b28463          	beq	t0,a1,800018e0 <inst_150>
    800018dc:	f48fe06f          	j	80000024 <rvtest_error>

00000000800018e0 <inst_150>:
    800018e0:	00800513          	li	a0,8
    800018e4:	42a55593          	srai	a1,a0,0x2a
    800018e8:	3eb0bc23          	sd	a1,1016(ra)
    800018ec:	00000293          	li	t0,0
    800018f0:	00b28463          	beq	t0,a1,800018f8 <inst_151>
    800018f4:	f30fe06f          	j	80000024 <rvtest_error>

00000000800018f8 <inst_151>:
    800018f8:	10000513          	li	a0,256
    800018fc:	41255593          	srai	a1,a0,0x12
    80001900:	40b0b023          	sd	a1,1024(ra)
    80001904:	00000293          	li	t0,0
    80001908:	00b28463          	beq	t0,a1,80001910 <cleanup_epilogs>
    8000190c:	f18fe06f          	j	80000024 <rvtest_error>

0000000080001910 <cleanup_epilogs>:
    80001910:	0380006f          	j	80001948 <exit_cleanup>

0000000080001914 <abort_tests>:
    80001914:	1f813483          	ld	s1,504(sp)
    80001918:	20013303          	ld	t1,512(sp)
    8000191c:	00930333          	add	t1,t1,s1
    80001920:	00000337          	lui	t1,0x0
    80001924:	00030313          	mv	t1,t1
    80001928:	00b31313          	slli	t1,t1,0xb
    8000192c:	5d630313          	addi	t1,t1,1494 # 5d6 <offset+0x1ce>
    80001930:	00b31313          	slli	t1,t1,0xb
    80001934:	43630313          	addi	t1,t1,1078
    80001938:	00a31313          	slli	t1,t1,0xa
    8000193c:	2d030313          	addi	t1,t1,720
    80001940:	fe64be23          	sd	t1,-4(s1)
    80001944:	0040006f          	j	80001948 <exit_cleanup>

0000000080001948 <exit_cleanup>:
    80001948:	00000513          	li	a0,0
    8000194c:	0100006f          	j	8000195c <halt>
	...

000000008000195c <halt>:
    8000195c:	00050513          	mv	a0,a0
    80001960:	00100073          	ebreak
    80001964:	0000006f          	j	80001964 <halt+0x8>

0000000080001968 <_trm_init>:
    80001968:	ff010113          	addi	sp,sp,-16
    8000196c:	00000517          	auipc	a0,0x0
    80001970:	01c50513          	addi	a0,a0,28 # 80001988 <_etext>
    80001974:	00113423          	sd	ra,8(sp)
    80001978:	e98fe0ef          	jal	ra,80000010 <main>
    8000197c:	00050513          	mv	a0,a0
    80001980:	00100073          	ebreak
    80001984:	0000006f          	j	80001984 <_trm_init+0x1c>
