
/home/maveric/ics2023/riscv-arch-test-am/build/srli-riscv64-nemu.elf:     file format elf64-littleriscv


Disassembly of section .text:

0000000080000000 <_start>:
    80000000:	00000413          	li	s0,0
    80000004:	0000c117          	auipc	sp,0xc
    80000008:	ffc10113          	addi	sp,sp,-4 # 8000c000 <_end>
    8000000c:	2c9010ef          	jal	ra,80001ad4 <_trm_init>

0000000080000010 <main>:
    80000010:	030000ef          	jal	ra,80000040 <rvtest_entry_point>
    80000014:	00100513          	li	a0,1
    80000018:	2b1010ef          	jal	ra,80001ac8 <halt>
    8000001c:	00000513          	li	a0,0
    80000020:	00008067          	ret

0000000080000024 <rvtest_error>:
    80000024:	00100513          	li	a0,1
    80000028:	2a1010ef          	jal	ra,80001ac8 <halt>
    8000002c:	00008067          	ret
	...

0000000080000040 <rvtest_entry_point>:
    80000040:	feedc0b7          	lui	ra,0xfeedc
    80000044:	ead08093          	addi	ra,ra,-339 # fffffffffeedbead <absimm+0xffffffff441ce3dd>
    80000048:	00b09093          	slli	ra,ra,0xb
    8000004c:	7f708093          	addi	ra,ra,2039
    80000050:	00b09093          	slli	ra,ra,0xb
    80000054:	36f08093          	addi	ra,ra,879
    80000058:	00a09093          	slli	ra,ra,0xa
    8000005c:	2ad08093          	addi	ra,ra,685
    80000060:	ff76e137          	lui	sp,0xff76e
    80000064:	f5610113          	addi	sp,sp,-170 # ffffffffff76df56 <absimm+0xffffffff44a60486>
    80000068:	00b11113          	slli	sp,sp,0xb
    8000006c:	7fb10113          	addi	sp,sp,2043
    80000070:	00b11113          	slli	sp,sp,0xb
    80000074:	5b710113          	addi	sp,sp,1463
    80000078:	00a11113          	slli	sp,sp,0xa
    8000007c:	35610113          	addi	sp,sp,854
    80000080:	7fbb71b7          	lui	gp,0x7fbb7
    80000084:	fab18193          	addi	gp,gp,-85 # 7fbb6fab <absimmsh+0x740e61fe>
    80000088:	00b19193          	slli	gp,gp,0xb
    8000008c:	3fd18193          	addi	gp,gp,1021
    80000090:	00b19193          	slli	gp,gp,0xb
    80000094:	6db18193          	addi	gp,gp,1755
    80000098:	00a19193          	slli	gp,gp,0xa
    8000009c:	3ab18193          	addi	gp,gp,939
    800000a0:	bfddb237          	lui	tp,0xbfddb
    800000a4:	7d520213          	addi	tp,tp,2005 # ffffffffbfddb7d5 <absimm+0xffffffff050cdd05>
    800000a8:	00b21213          	slli	tp,tp,0xb
    800000ac:	5fe20213          	addi	tp,tp,1534 # 5fe <offset+0x1e6>
    800000b0:	00b21213          	slli	tp,tp,0xb
    800000b4:	76d20213          	addi	tp,tp,1901 # 76d <offset+0x355>
    800000b8:	00a21213          	slli	tp,tp,0xa
    800000bc:	3d520213          	addi	tp,tp,981 # 3d5 <pos+0x395>
    800000c0:	dfeee2b7          	lui	t0,0xdfeee
    800000c4:	bea28293          	addi	t0,t0,-1046 # ffffffffdfeedbea <absimm+0xffffffff251e011a>
    800000c8:	00b29293          	slli	t0,t0,0xb
    800000cc:	6ff28293          	addi	t0,t0,1791
    800000d0:	00b29293          	slli	t0,t0,0xb
    800000d4:	3b628293          	addi	t0,t0,950
    800000d8:	00a29293          	slli	t0,t0,0xa
    800000dc:	3ea28293          	addi	t0,t0,1002
    800000e0:	6ff77337          	lui	t1,0x6ff77
    800000e4:	df530313          	addi	t1,t1,-523 # 6ff76df5 <absimmsh+0x644a6048>
    800000e8:	00b31313          	slli	t1,t1,0xb
    800000ec:	37f30313          	addi	t1,t1,895
    800000f0:	00b31313          	slli	t1,t1,0xb
    800000f4:	5db30313          	addi	t1,t1,1499
    800000f8:	00a31313          	slli	t1,t1,0xa
    800000fc:	1f530313          	addi	t1,t1,501
    80000100:	b7fbb3b7          	lui	t2,0xb7fbb
    80000104:	6fa38393          	addi	t2,t2,1786 # ffffffffb7fbb6fa <absimm+0xfffffffefd2adc2a>
    80000108:	00b39393          	slli	t2,t2,0xb
    8000010c:	5bf38393          	addi	t2,t2,1471
    80000110:	00b39393          	slli	t2,t2,0xb
    80000114:	6ed38393          	addi	t2,t2,1773
    80000118:	00a39393          	slli	t2,t2,0xa
    8000011c:	2fa38393          	addi	t2,t2,762
    80000120:	5bfde437          	lui	s0,0x5bfde
    80000124:	b7d40413          	addi	s0,s0,-1155 # 5bfddb7d <absimmsh+0x5050cdd0>
    80000128:	00b41413          	slli	s0,s0,0xb
    8000012c:	2df40413          	addi	s0,s0,735
    80000130:	00b41413          	slli	s0,s0,0xb
    80000134:	77640413          	addi	s0,s0,1910
    80000138:	00a41413          	slli	s0,s0,0xa
    8000013c:	37d40413          	addi	s0,s0,893
    80000140:	adfef4b7          	lui	s1,0xadfef
    80000144:	dbe48493          	addi	s1,s1,-578 # ffffffffadfeedbe <absimm+0xfffffffef32e12ee>
    80000148:	00b49493          	slli	s1,s1,0xb
    8000014c:	56f48493          	addi	s1,s1,1391
    80000150:	00b49493          	slli	s1,s1,0xb
    80000154:	7bb48493          	addi	s1,s1,1979
    80000158:	00a49493          	slli	s1,s1,0xa
    8000015c:	1be48493          	addi	s1,s1,446
    80000160:	56ff7537          	lui	a0,0x56ff7
    80000164:	6df50513          	addi	a0,a0,1759 # 56ff76df <absimmsh+0x4b526932>
    80000168:	00b51513          	slli	a0,a0,0xb
    8000016c:	2b750513          	addi	a0,a0,695
    80000170:	00b51513          	slli	a0,a0,0xb
    80000174:	7dd50513          	addi	a0,a0,2013
    80000178:	00a51513          	slli	a0,a0,0xa
    8000017c:	2df50513          	addi	a0,a0,735
    80000180:	ab7fc5b7          	lui	a1,0xab7fc
    80000184:	b6f58593          	addi	a1,a1,-1169 # ffffffffab7fbb6f <absimm+0xfffffffef0aee09f>
    80000188:	00b59593          	slli	a1,a1,0xb
    8000018c:	55b58593          	addi	a1,a1,1371
    80000190:	00b59593          	slli	a1,a1,0xb
    80000194:	7ee58593          	addi	a1,a1,2030
    80000198:	00a59593          	slli	a1,a1,0xa
    8000019c:	36f58593          	addi	a1,a1,879
    800001a0:	d5bfe637          	lui	a2,0xd5bfe
    800001a4:	db760613          	addi	a2,a2,-585 # ffffffffd5bfddb7 <absimm+0xffffffff1aef02e7>
    800001a8:	00b61613          	slli	a2,a2,0xb
    800001ac:	6ad60613          	addi	a2,a2,1709
    800001b0:	00b61613          	slli	a2,a2,0xb
    800001b4:	7f760613          	addi	a2,a2,2039
    800001b8:	00a61613          	slli	a2,a2,0xa
    800001bc:	1b760613          	addi	a2,a2,439
    800001c0:	eadff6b7          	lui	a3,0xeadff
    800001c4:	edb68693          	addi	a3,a3,-293 # ffffffffeadfeedb <absimm+0xffffffff300f140b>
    800001c8:	00b69693          	slli	a3,a3,0xb
    800001cc:	75668693          	addi	a3,a3,1878
    800001d0:	00b69693          	slli	a3,a3,0xb
    800001d4:	7fb68693          	addi	a3,a3,2043
    800001d8:	00a69693          	slli	a3,a3,0xa
    800001dc:	2db68693          	addi	a3,a3,731
    800001e0:	f56ff737          	lui	a4,0xf56ff
    800001e4:	76d70713          	addi	a4,a4,1901 # fffffffff56ff76d <absimm+0xffffffff3a9f1c9d>
    800001e8:	00b71713          	slli	a4,a4,0xb
    800001ec:	7ab70713          	addi	a4,a4,1963
    800001f0:	00b71713          	slli	a4,a4,0xb
    800001f4:	3fd70713          	addi	a4,a4,1021
    800001f8:	00a71713          	slli	a4,a4,0xa
    800001fc:	36d70713          	addi	a4,a4,877
    80000200:	fab807b7          	lui	a5,0xfab80
    80000204:	bb678793          	addi	a5,a5,-1098 # fffffffffab7fbb6 <absimm+0xffffffff3fe720e6>
    80000208:	00b79793          	slli	a5,a5,0xb
    8000020c:	7d578793          	addi	a5,a5,2005
    80000210:	00b79793          	slli	a5,a5,0xb
    80000214:	5fe78793          	addi	a5,a5,1534
    80000218:	00a79793          	slli	a5,a5,0xa
    8000021c:	3b678793          	addi	a5,a5,950
    80000220:	7d5c0837          	lui	a6,0x7d5c0
    80000224:	ddb80813          	addi	a6,a6,-549 # 7d5bfddb <absimmsh+0x71aef02e>
    80000228:	00b81813          	slli	a6,a6,0xb
    8000022c:	3ea80813          	addi	a6,a6,1002
    80000230:	00b81813          	slli	a6,a6,0xb
    80000234:	6ff80813          	addi	a6,a6,1791
    80000238:	00a81813          	slli	a6,a6,0xa
    8000023c:	1db80813          	addi	a6,a6,475
    80000240:	beae08b7          	lui	a7,0xbeae0
    80000244:	eed88893          	addi	a7,a7,-275 # ffffffffbeadfeed <absimm+0xffffffff03dd241d>
    80000248:	00b89893          	slli	a7,a7,0xb
    8000024c:	5f588893          	addi	a7,a7,1525
    80000250:	00b89893          	slli	a7,a7,0xb
    80000254:	37f88893          	addi	a7,a7,895
    80000258:	00a89893          	slli	a7,a7,0xa
    8000025c:	2ed88893          	addi	a7,a7,749
    80000260:	df570937          	lui	s2,0xdf570
    80000264:	f7690913          	addi	s2,s2,-138 # ffffffffdf56ff76 <absimm+0xffffffff248624a6>
    80000268:	00b91913          	slli	s2,s2,0xb
    8000026c:	6fa90913          	addi	s2,s2,1786
    80000270:	00b91913          	slli	s2,s2,0xb
    80000274:	5bf90913          	addi	s2,s2,1471
    80000278:	00a91913          	slli	s2,s2,0xa
    8000027c:	37690913          	addi	s2,s2,886
    80000280:	6fab89b7          	lui	s3,0x6fab8
    80000284:	fbb98993          	addi	s3,s3,-69 # 6fab7fbb <absimmsh+0x63fe720e>
    80000288:	00b99993          	slli	s3,s3,0xb
    8000028c:	37d98993          	addi	s3,s3,893
    80000290:	00b99993          	slli	s3,s3,0xb
    80000294:	2df98993          	addi	s3,s3,735
    80000298:	00a99993          	slli	s3,s3,0xa
    8000029c:	3bb98993          	addi	s3,s3,955
    800002a0:	b7d5ca37          	lui	s4,0xb7d5c
    800002a4:	fdda0a13          	addi	s4,s4,-35 # ffffffffb7d5bfdd <absimm+0xfffffffefd04e50d>
    800002a8:	00ba1a13          	slli	s4,s4,0xb
    800002ac:	5bea0a13          	addi	s4,s4,1470
    800002b0:	00ba1a13          	slli	s4,s4,0xb
    800002b4:	56fa0a13          	addi	s4,s4,1391
    800002b8:	00aa1a13          	slli	s4,s4,0xa
    800002bc:	3dda0a13          	addi	s4,s4,989
    800002c0:	dbeaeab7          	lui	s5,0xdbeae
    800002c4:	feea8a93          	addi	s5,s5,-18 # ffffffffdbeadfee <absimm+0xffffffff211a051e>
    800002c8:	00ba9a93          	slli	s5,s5,0xb
    800002cc:	6dfa8a93          	addi	s5,s5,1759
    800002d0:	00ba9a93          	slli	s5,s5,0xb
    800002d4:	2b7a8a93          	addi	s5,s5,695
    800002d8:	00aa9a93          	slli	s5,s5,0xa
    800002dc:	3eea8a93          	addi	s5,s5,1006
    800002e0:	6df57b37          	lui	s6,0x6df57
    800002e4:	ff7b0b13          	addi	s6,s6,-9 # 6df56ff7 <absimmsh+0x6248624a>
    800002e8:	00bb1b13          	slli	s6,s6,0xb
    800002ec:	36fb0b13          	addi	s6,s6,879
    800002f0:	00bb1b13          	slli	s6,s6,0xb
    800002f4:	55bb0b13          	addi	s6,s6,1371
    800002f8:	00ab1b13          	slli	s6,s6,0xa
    800002fc:	3f7b0b13          	addi	s6,s6,1015
    80000300:	b6fabbb7          	lui	s7,0xb6fab
    80000304:	7fbb8b93          	addi	s7,s7,2043 # ffffffffb6fab7fb <absimm+0xfffffffefc29dd2b>
    80000308:	00bb9b93          	slli	s7,s7,0xb
    8000030c:	5b7b8b93          	addi	s7,s7,1463
    80000310:	00bb9b93          	slli	s7,s7,0xb
    80000314:	6adb8b93          	addi	s7,s7,1709
    80000318:	00ab9b93          	slli	s7,s7,0xa
    8000031c:	3fbb8b93          	addi	s7,s7,1019
    80000320:	db7d6c37          	lui	s8,0xdb7d6
    80000324:	bfdc0c13          	addi	s8,s8,-1027 # ffffffffdb7d5bfd <absimm+0xffffffff20ac812d>
    80000328:	00bc1c13          	slli	s8,s8,0xb
    8000032c:	6dbc0c13          	addi	s8,s8,1755
    80000330:	00bc1c13          	slli	s8,s8,0xb
    80000334:	756c0c13          	addi	s8,s8,1878
    80000338:	00ac1c13          	slli	s8,s8,0xa
    8000033c:	3fdc0c13          	addi	s8,s8,1021
    80000340:	edbebcb7          	lui	s9,0xedbeb
    80000344:	dfec8c93          	addi	s9,s9,-514 # ffffffffedbeadfe <absimm+0xffffffff32edd32e>
    80000348:	00bc9c93          	slli	s9,s9,0xb
    8000034c:	76dc8c93          	addi	s9,s9,1901
    80000350:	00bc9c93          	slli	s9,s9,0xb
    80000354:	7abc8c93          	addi	s9,s9,1963
    80000358:	00ac9c93          	slli	s9,s9,0xa
    8000035c:	1fec8c93          	addi	s9,s9,510
    80000360:	76df5d37          	lui	s10,0x76df5
    80000364:	6ffd0d13          	addi	s10,s10,1791 # 76df56ff <absimmsh+0x6b324952>
    80000368:	00bd1d13          	slli	s10,s10,0xb
    8000036c:	3b6d0d13          	addi	s10,s10,950
    80000370:	00bd1d13          	slli	s10,s10,0xb
    80000374:	7d5d0d13          	addi	s10,s10,2005
    80000378:	00ad1d13          	slli	s10,s10,0xa
    8000037c:	2ffd0d13          	addi	s10,s10,767
    80000380:	bb6fbdb7          	lui	s11,0xbb6fb
    80000384:	b7fd8d93          	addi	s11,s11,-1153 # ffffffffbb6fab7f <absimm+0xffffffff009ed0af>
    80000388:	00bd9d93          	slli	s11,s11,0xb
    8000038c:	5dbd8d93          	addi	s11,s11,1499
    80000390:	00bd9d93          	slli	s11,s11,0xb
    80000394:	3ead8d93          	addi	s11,s11,1002
    80000398:	00ad9d93          	slli	s11,s11,0xa
    8000039c:	37fd8d93          	addi	s11,s11,895
    800003a0:	ddb7de37          	lui	t3,0xddb7d
    800003a4:	5bfe0e13          	addi	t3,t3,1471 # ffffffffddb7d5bf <absimm+0xffffffff22e6faef>
    800003a8:	00be1e13          	slli	t3,t3,0xb
    800003ac:	6ede0e13          	addi	t3,t3,1773
    800003b0:	00be1e13          	slli	t3,t3,0xb
    800003b4:	5f5e0e13          	addi	t3,t3,1525
    800003b8:	00ae1e13          	slli	t3,t3,0xa
    800003bc:	1bfe0e13          	addi	t3,t3,447
    800003c0:	eedbfeb7          	lui	t4,0xeedbf
    800003c4:	adfe8e93          	addi	t4,t4,-1313 # ffffffffeedbeadf <absimm+0xffffffff340b100f>
    800003c8:	00be9e93          	slli	t4,t4,0xb
    800003cc:	776e8e93          	addi	t4,t4,1910
    800003d0:	00be9e93          	slli	t4,t4,0xb
    800003d4:	6fae8e93          	addi	t4,t4,1786
    800003d8:	00ae9e93          	slli	t4,t4,0xa
    800003dc:	2dfe8e93          	addi	t4,t4,735
    800003e0:	f76dff37          	lui	t5,0xf76df
    800003e4:	56ff0f13          	addi	t5,t5,1391 # fffffffff76df56f <absimm+0xffffffff3c9d1a9f>
    800003e8:	00bf1f13          	slli	t5,t5,0xb
    800003ec:	7bbf0f13          	addi	t5,t5,1979
    800003f0:	00bf1f13          	slli	t5,t5,0xb
    800003f4:	37df0f13          	addi	t5,t5,893
    800003f8:	00af1f13          	slli	t5,t5,0xa
    800003fc:	16ff0f13          	addi	t5,t5,367
    80000400:	fbb70fb7          	lui	t6,0xfbb70
    80000404:	ab7f8f93          	addi	t6,t6,-1353 # fffffffffbb6fab7 <absimm+0xffffffff40e61fe7>
    80000408:	00bf9f93          	slli	t6,t6,0xb
    8000040c:	7ddf8f93          	addi	t6,t6,2013
    80000410:	00bf9f93          	slli	t6,t6,0xb
    80000414:	5bef8f93          	addi	t6,t6,1470
    80000418:	00af9f93          	slli	t6,t6,0xa
    8000041c:	2b7f8f93          	addi	t6,t6,695

0000000080000420 <rvtest_code_begin>:
    80000420:	00003817          	auipc	a6,0x3
    80000424:	be880813          	addi	a6,a6,-1048 # 80003008 <signature_x16_0>
    80000428:	00000013          	nop
    8000042c:	00000013          	nop
    80000430:	00000013          	nop
    80000434:	00000013          	nop
    80000438:	00000013          	nop
    8000043c:	00000013          	nop

0000000080000440 <inst_0>:
    80000440:	fff00d13          	li	s10,-1
    80000444:	008d5d13          	srli	s10,s10,0x8
    80000448:	01a83023          	sd	s10,0(a6)
    8000044c:	00100a1b          	addiw	s4,zero,1
    80000450:	038a1a13          	slli	s4,s4,0x38
    80000454:	fffa0a13          	addi	s4,s4,-1
    80000458:	01aa0463          	beq	s4,s10,80000460 <inst_1>
    8000045c:	bc9ff06f          	j	80000024 <rvtest_error>

0000000080000460 <inst_1>:
    80000460:	00000cb7          	lui	s9,0x0
    80000464:	000c8c93          	mv	s9,s9
    80000468:	00bc9c93          	slli	s9,s9,0xb
    8000046c:	5a8c8c93          	addi	s9,s9,1448 # 5a8 <offset+0x190>
    80000470:	00bc9c93          	slli	s9,s9,0xb
    80000474:	13cc8c93          	addi	s9,s9,316
    80000478:	00ac9c93          	slli	s9,s9,0xa
    8000047c:	333c8c93          	addi	s9,s9,819
    80000480:	00ecd013          	srli	zero,s9,0xe
    80000484:	00083423          	sd	zero,8(a6)
    80000488:	00000a13          	li	s4,0
    8000048c:	000a0463          	beqz	s4,80000494 <inst_2>
    80000490:	b95ff06f          	j	80000024 <rvtest_error>

0000000080000494 <inst_2>:
    80000494:	00100a93          	li	s5,1
    80000498:	025a9a93          	slli	s5,s5,0x25
    8000049c:	fffaca93          	not	s5,s5
    800004a0:	000ad313          	srli	t1,s5,0x0
    800004a4:	00683823          	sd	t1,16(a6)
    800004a8:	fff00a1b          	addiw	s4,zero,-1
    800004ac:	025a1a13          	slli	s4,s4,0x25
    800004b0:	fffa0a13          	addi	s4,s4,-1
    800004b4:	006a0463          	beq	s4,t1,800004bc <inst_3>
    800004b8:	b6dff06f          	j	80000024 <rvtest_error>

00000000800004bc <inst_3>:
    800004bc:	666668b7          	lui	a7,0x66666
    800004c0:	66688893          	addi	a7,a7,1638 # 66666666 <absimmsh+0x5ab958b9>
    800004c4:	00b89893          	slli	a7,a7,0xb
    800004c8:	33388893          	addi	a7,a7,819
    800004cc:	00b89893          	slli	a7,a7,0xb
    800004d0:	19988893          	addi	a7,a7,409
    800004d4:	00a89893          	slli	a7,a7,0xa
    800004d8:	26688893          	addi	a7,a7,614
    800004dc:	0008d293          	srli	t0,a7,0x0
    800004e0:	00583c23          	sd	t0,24(a6)
    800004e4:	03333a37          	lui	s4,0x3333
    800004e8:	333a0a1b          	addiw	s4,s4,819 # 3333333 <offset+0x3332f1b>
    800004ec:	00ca1a13          	slli	s4,s4,0xc
    800004f0:	333a0a13          	addi	s4,s4,819
    800004f4:	00ca1a13          	slli	s4,s4,0xc
    800004f8:	333a0a13          	addi	s4,s4,819
    800004fc:	00da1a13          	slli	s4,s4,0xd
    80000500:	666a0a13          	addi	s4,s4,1638
    80000504:	005a0463          	beq	s4,t0,8000050c <inst_4>
    80000508:	b1dff06f          	j	80000024 <rvtest_error>

000000008000050c <inst_4>:
    8000050c:	ff800f13          	li	t5,-8
    80000510:	03ff5c13          	srli	s8,t5,0x3f
    80000514:	03883023          	sd	s8,32(a6)
    80000518:	00100a13          	li	s4,1
    8000051c:	018a0463          	beq	s4,s8,80000524 <inst_5>
    80000520:	b05ff06f          	j	80000024 <rvtest_error>

0000000080000524 <inst_5>:
    80000524:	00100213          	li	tp,1
    80000528:	03321213          	slli	tp,tp,0x33
    8000052c:	03f25093          	srli	ra,tp,0x3f
    80000530:	02183423          	sd	ra,40(a6)
    80000534:	00000a13          	li	s4,0
    80000538:	001a0463          	beq	s4,ra,80000540 <inst_6>
    8000053c:	ae9ff06f          	j	80000024 <rvtest_error>

0000000080000540 <inst_6>:
    80000540:	00300493          	li	s1,3
    80000544:	0034d693          	srli	a3,s1,0x3
    80000548:	02d83823          	sd	a3,48(a6)
    8000054c:	00000a13          	li	s4,0
    80000550:	00da0463          	beq	s4,a3,80000558 <inst_7>
    80000554:	ad1ff06f          	j	80000024 <rvtest_error>

0000000080000558 <inst_7>:
    80000558:	fff00113          	li	sp,-1
    8000055c:	03f11113          	slli	sp,sp,0x3f
    80000560:	00915193          	srli	gp,sp,0x9
    80000564:	02383c23          	sd	gp,56(a6)
    80000568:	00100a1b          	addiw	s4,zero,1
    8000056c:	036a1a13          	slli	s4,s4,0x36
    80000570:	003a0463          	beq	s4,gp,80000578 <inst_8>
    80000574:	ab1ff06f          	j	80000024 <rvtest_error>

0000000080000578 <inst_8>:
    80000578:	00000413          	li	s0,0
    8000057c:	00345513          	srli	a0,s0,0x3
    80000580:	04a83023          	sd	a0,64(a6)
    80000584:	00000a13          	li	s4,0
    80000588:	00aa0463          	beq	s4,a0,80000590 <inst_9>
    8000058c:	a99ff06f          	j	80000024 <rvtest_error>

0000000080000590 <inst_9>:
    80000590:	fff00313          	li	t1,-1
    80000594:	00135313          	srli	t1,t1,0x1
    80000598:	00b35b93          	srli	s7,t1,0xb
    8000059c:	05783423          	sd	s7,72(a6)
    800005a0:	00100a1b          	addiw	s4,zero,1
    800005a4:	034a1a13          	slli	s4,s4,0x34
    800005a8:	fffa0a13          	addi	s4,s4,-1
    800005ac:	017a0463          	beq	s4,s7,800005b4 <inst_10>
    800005b0:	a75ff06f          	j	80000024 <rvtest_error>

00000000800005b4 <inst_10>:
    800005b4:	00100613          	li	a2,1
    800005b8:	01565e13          	srli	t3,a2,0x15
    800005bc:	05c83823          	sd	t3,80(a6)
    800005c0:	00000a13          	li	s4,0
    800005c4:	01ca0463          	beq	s4,t3,800005cc <inst_11>
    800005c8:	a5dff06f          	j	80000024 <rvtest_error>

00000000800005cc <inst_11>:
    800005cc:	00200793          	li	a5,2
    800005d0:	03b7d393          	srli	t2,a5,0x3b
    800005d4:	04783c23          	sd	t2,88(a6)
    800005d8:	00000a13          	li	s4,0
    800005dc:	007a0463          	beq	s4,t2,800005e4 <inst_12>
    800005e0:	a45ff06f          	j	80000024 <rvtest_error>

00000000800005e4 <inst_12>:
    800005e4:	00400593          	li	a1,4
    800005e8:	03f5d793          	srli	a5,a1,0x3f
    800005ec:	06f83023          	sd	a5,96(a6)
    800005f0:	00000a13          	li	s4,0
    800005f4:	00fa0463          	beq	s4,a5,800005fc <inst_13>
    800005f8:	a2dff06f          	j	80000024 <rvtest_error>

00000000800005fc <inst_13>:
    800005fc:	00800993          	li	s3,8
    80000600:	0089d493          	srli	s1,s3,0x8
    80000604:	06983423          	sd	s1,104(a6)
    80000608:	00000a13          	li	s4,0
    8000060c:	009a0463          	beq	s4,s1,80000614 <inst_14>
    80000610:	a15ff06f          	j	80000024 <rvtest_error>

0000000080000614 <inst_14>:
    80000614:	01000e13          	li	t3,16
    80000618:	007e5c93          	srli	s9,t3,0x7
    8000061c:	07983823          	sd	s9,112(a6)
    80000620:	00000a13          	li	s4,0
    80000624:	019a0463          	beq	s4,s9,8000062c <inst_15>
    80000628:	9fdff06f          	j	80000024 <rvtest_error>

000000008000062c <inst_15>:
    8000062c:	02000d93          	li	s11,32
    80000630:	011ddf93          	srli	t6,s11,0x11
    80000634:	07f83c23          	sd	t6,120(a6)
    80000638:	00000a13          	li	s4,0
    8000063c:	01fa0463          	beq	s4,t6,80000644 <inst_16>
    80000640:	9e5ff06f          	j	80000024 <rvtest_error>

0000000080000644 <inst_16>:
    80000644:	04000713          	li	a4,64
    80000648:	00175a93          	srli	s5,a4,0x1
    8000064c:	09583023          	sd	s5,128(a6)
    80000650:	02000a13          	li	s4,32
    80000654:	015a0463          	beq	s4,s5,8000065c <inst_17>
    80000658:	9cdff06f          	j	80000024 <rvtest_error>

000000008000065c <inst_17>:
    8000065c:	08000193          	li	gp,128
    80000660:	0051df13          	srli	t5,gp,0x5
    80000664:	09e83423          	sd	t5,136(a6)
    80000668:	00400a13          	li	s4,4
    8000066c:	01ea0463          	beq	s4,t5,80000674 <inst_18>
    80000670:	9b5ff06f          	j	80000024 <rvtest_error>

0000000080000674 <inst_18>:
    80000674:	10000913          	li	s2,256
    80000678:	00895413          	srli	s0,s2,0x8
    8000067c:	08883823          	sd	s0,144(a6)
    80000680:	00100a13          	li	s4,1
    80000684:	008a0463          	beq	s4,s0,8000068c <inst_19>
    80000688:	99dff06f          	j	80000024 <rvtest_error>

000000008000068c <inst_19>:
    8000068c:	20000f93          	li	t6,512
    80000690:	02ffd893          	srli	a7,t6,0x2f
    80000694:	09183c23          	sd	a7,152(a6)
    80000698:	00000313          	li	t1,0
    8000069c:	01130463          	beq	t1,a7,800006a4 <inst_20>
    800006a0:	985ff06f          	j	80000024 <rvtest_error>

00000000800006a4 <inst_20>:
    800006a4:	40000393          	li	t2,1024
    800006a8:	0133d913          	srli	s2,t2,0x13
    800006ac:	0b283023          	sd	s2,160(a6)
    800006b0:	00000313          	li	t1,0
    800006b4:	01230463          	beq	t1,s2,800006bc <inst_21>
    800006b8:	96dff06f          	j	80000024 <rvtest_error>

00000000800006bc <inst_21>:
    800006bc:	00100e93          	li	t4,1
    800006c0:	00be9e93          	slli	t4,t4,0xb
    800006c4:	013ed213          	srli	tp,t4,0x13
    800006c8:	0a483423          	sd	tp,168(a6)
    800006cc:	00000313          	li	t1,0
    800006d0:	00430463          	beq	t1,tp,800006d8 <inst_21+0x1c>
    800006d4:	951ff06f          	j	80000024 <rvtest_error>
    800006d8:	00000013          	nop
    800006dc:	00000013          	nop
    800006e0:	00003197          	auipc	gp,0x3
    800006e4:	9d818193          	addi	gp,gp,-1576 # 800030b8 <signature_x3_0>
    800006e8:	00000013          	nop
    800006ec:	00000013          	nop
    800006f0:	00000013          	nop
    800006f4:	00000013          	nop
    800006f8:	00000013          	nop
    800006fc:	00000013          	nop

0000000080000700 <inst_22>:
    80000700:	00100a13          	li	s4,1
    80000704:	00ca1a13          	slli	s4,s4,0xc
    80000708:	00ca5993          	srli	s3,s4,0xc
    8000070c:	0131b023          	sd	s3,0(gp)
    80000710:	00100313          	li	t1,1
    80000714:	01330463          	beq	t1,s3,8000071c <inst_23>
    80000718:	90dff06f          	j	80000024 <rvtest_error>

000000008000071c <inst_23>:
    8000071c:	00100293          	li	t0,1
    80000720:	00d29293          	slli	t0,t0,0xd
    80000724:	0012d813          	srli	a6,t0,0x1
    80000728:	0101b423          	sd	a6,8(gp)
    8000072c:	00001337          	lui	t1,0x1
    80000730:	01030463          	beq	t1,a6,80000738 <inst_24>
    80000734:	8f1ff06f          	j	80000024 <rvtest_error>

0000000080000738 <inst_24>:
    80000738:	00100093          	li	ra,1
    8000073c:	00e09093          	slli	ra,ra,0xe
    80000740:	0080d713          	srli	a4,ra,0x8
    80000744:	00e1b823          	sd	a4,16(gp)
    80000748:	04000313          	li	t1,64
    8000074c:	00e30463          	beq	t1,a4,80000754 <inst_25>
    80000750:	8d5ff06f          	j	80000024 <rvtest_error>

0000000080000754 <inst_25>:
    80000754:	00100513          	li	a0,1
    80000758:	00f51513          	slli	a0,a0,0xf
    8000075c:	00655113          	srli	sp,a0,0x6
    80000760:	0021bc23          	sd	sp,24(gp)
    80000764:	20000313          	li	t1,512
    80000768:	00230463          	beq	t1,sp,80000770 <inst_26>
    8000076c:	8b9ff06f          	j	80000024 <rvtest_error>

0000000080000770 <inst_26>:
    80000770:	00100813          	li	a6,1
    80000774:	01081813          	slli	a6,a6,0x10
    80000778:	02f85a13          	srli	s4,a6,0x2f
    8000077c:	0341b023          	sd	s4,32(gp)
    80000780:	00000313          	li	t1,0
    80000784:	01430463          	beq	t1,s4,8000078c <inst_27>
    80000788:	89dff06f          	j	80000024 <rvtest_error>

000000008000078c <inst_27>:
    8000078c:	00100693          	li	a3,1
    80000790:	01169693          	slli	a3,a3,0x11
    80000794:	00f6dd93          	srli	s11,a3,0xf
    80000798:	03b1b423          	sd	s11,40(gp)
    8000079c:	00400313          	li	t1,4
    800007a0:	01b30463          	beq	t1,s11,800007a8 <inst_28>
    800007a4:	881ff06f          	j	80000024 <rvtest_error>

00000000800007a8 <inst_28>:
    800007a8:	00000013          	nop
    800007ac:	00705e93          	srli	t4,zero,0x7
    800007b0:	03d1b823          	sd	t4,48(gp)
    800007b4:	00000313          	li	t1,0
    800007b8:	01d30463          	beq	t1,t4,800007c0 <inst_29>
    800007bc:	869ff06f          	j	80000024 <rvtest_error>

00000000800007c0 <inst_29>:
    800007c0:	00100c13          	li	s8,1
    800007c4:	013c1c13          	slli	s8,s8,0x13
    800007c8:	02ac5593          	srli	a1,s8,0x2a
    800007cc:	02b1bc23          	sd	a1,56(gp)
    800007d0:	00000313          	li	t1,0
    800007d4:	00b30463          	beq	t1,a1,800007dc <inst_30>
    800007d8:	84dff06f          	j	80000024 <rvtest_error>

00000000800007dc <inst_30>:
    800007dc:	00100b93          	li	s7,1
    800007e0:	014b9b93          	slli	s7,s7,0x14
    800007e4:	020bdb13          	srli	s6,s7,0x20
    800007e8:	0561b023          	sd	s6,64(gp)
    800007ec:	00000313          	li	t1,0
    800007f0:	01630463          	beq	t1,s6,800007f8 <inst_31>
    800007f4:	831ff06f          	j	80000024 <rvtest_error>

00000000800007f8 <inst_31>:
    800007f8:	00100b13          	li	s6,1
    800007fc:	015b1b13          	slli	s6,s6,0x15
    80000800:	001b5613          	srli	a2,s6,0x1
    80000804:	04c1b423          	sd	a2,72(gp)
    80000808:	00100337          	lui	t1,0x100
    8000080c:	00c30463          	beq	t1,a2,80000814 <inst_32>
    80000810:	815ff06f          	j	80000024 <rvtest_error>

0000000080000814 <inst_32>:
    80000814:	00100513          	li	a0,1
    80000818:	01651513          	slli	a0,a0,0x16
    8000081c:	00655593          	srli	a1,a0,0x6
    80000820:	04b1b823          	sd	a1,80(gp)
    80000824:	00010337          	lui	t1,0x10
    80000828:	00b30463          	beq	t1,a1,80000830 <inst_33>
    8000082c:	ff8ff06f          	j	80000024 <rvtest_error>

0000000080000830 <inst_33>:
    80000830:	00100513          	li	a0,1
    80000834:	01751513          	slli	a0,a0,0x17
    80000838:	00d55593          	srli	a1,a0,0xd
    8000083c:	04b1bc23          	sd	a1,88(gp)
    80000840:	40000313          	li	t1,1024
    80000844:	00b30463          	beq	t1,a1,8000084c <inst_34>
    80000848:	fdcff06f          	j	80000024 <rvtest_error>

000000008000084c <inst_34>:
    8000084c:	00100513          	li	a0,1
    80000850:	01851513          	slli	a0,a0,0x18
    80000854:	01f55593          	srli	a1,a0,0x1f
    80000858:	06b1b023          	sd	a1,96(gp)
    8000085c:	00000313          	li	t1,0
    80000860:	00b30463          	beq	t1,a1,80000868 <inst_35>
    80000864:	fc0ff06f          	j	80000024 <rvtest_error>

0000000080000868 <inst_35>:
    80000868:	00100513          	li	a0,1
    8000086c:	01951513          	slli	a0,a0,0x19
    80000870:	00b55593          	srli	a1,a0,0xb
    80000874:	06b1b423          	sd	a1,104(gp)
    80000878:	00004337          	lui	t1,0x4
    8000087c:	00b30463          	beq	t1,a1,80000884 <inst_36>
    80000880:	fa4ff06f          	j	80000024 <rvtest_error>

0000000080000884 <inst_36>:
    80000884:	00100513          	li	a0,1
    80000888:	01a51513          	slli	a0,a0,0x1a
    8000088c:	01f55593          	srli	a1,a0,0x1f
    80000890:	06b1b823          	sd	a1,112(gp)
    80000894:	00000313          	li	t1,0
    80000898:	00b30463          	beq	t1,a1,800008a0 <inst_37>
    8000089c:	f88ff06f          	j	80000024 <rvtest_error>

00000000800008a0 <inst_37>:
    800008a0:	00100513          	li	a0,1
    800008a4:	01b51513          	slli	a0,a0,0x1b
    800008a8:	01255593          	srli	a1,a0,0x12
    800008ac:	06b1bc23          	sd	a1,120(gp)
    800008b0:	20000313          	li	t1,512
    800008b4:	00b30463          	beq	t1,a1,800008bc <inst_38>
    800008b8:	f6cff06f          	j	80000024 <rvtest_error>

00000000800008bc <inst_38>:
    800008bc:	00100513          	li	a0,1
    800008c0:	01c51513          	slli	a0,a0,0x1c
    800008c4:	00055593          	srli	a1,a0,0x0
    800008c8:	08b1b023          	sd	a1,128(gp)
    800008cc:	10000337          	lui	t1,0x10000
    800008d0:	00b30463          	beq	t1,a1,800008d8 <inst_39>
    800008d4:	f50ff06f          	j	80000024 <rvtest_error>

00000000800008d8 <inst_39>:
    800008d8:	00100513          	li	a0,1
    800008dc:	01d51513          	slli	a0,a0,0x1d
    800008e0:	02a55593          	srli	a1,a0,0x2a
    800008e4:	08b1b423          	sd	a1,136(gp)
    800008e8:	00000313          	li	t1,0
    800008ec:	00b30463          	beq	t1,a1,800008f4 <inst_40>
    800008f0:	f34ff06f          	j	80000024 <rvtest_error>

00000000800008f4 <inst_40>:
    800008f4:	00100513          	li	a0,1
    800008f8:	01e51513          	slli	a0,a0,0x1e
    800008fc:	01555593          	srli	a1,a0,0x15
    80000900:	08b1b823          	sd	a1,144(gp)
    80000904:	20000313          	li	t1,512
    80000908:	00b30463          	beq	t1,a1,80000910 <inst_41>
    8000090c:	f18ff06f          	j	80000024 <rvtest_error>

0000000080000910 <inst_41>:
    80000910:	00100513          	li	a0,1
    80000914:	01f51513          	slli	a0,a0,0x1f
    80000918:	00a55593          	srli	a1,a0,0xa
    8000091c:	08b1bc23          	sd	a1,152(gp)
    80000920:	00200337          	lui	t1,0x200
    80000924:	00b30463          	beq	t1,a1,8000092c <inst_42>
    80000928:	efcff06f          	j	80000024 <rvtest_error>

000000008000092c <inst_42>:
    8000092c:	00100513          	li	a0,1
    80000930:	02051513          	slli	a0,a0,0x20
    80000934:	01355593          	srli	a1,a0,0x13
    80000938:	0ab1b023          	sd	a1,160(gp)
    8000093c:	00002337          	lui	t1,0x2
    80000940:	00b30463          	beq	t1,a1,80000948 <inst_43>
    80000944:	ee0ff06f          	j	80000024 <rvtest_error>

0000000080000948 <inst_43>:
    80000948:	00100513          	li	a0,1
    8000094c:	02151513          	slli	a0,a0,0x21
    80000950:	01255593          	srli	a1,a0,0x12
    80000954:	0ab1b423          	sd	a1,168(gp)
    80000958:	00008337          	lui	t1,0x8
    8000095c:	00b30463          	beq	t1,a1,80000964 <inst_44>
    80000960:	ec4ff06f          	j	80000024 <rvtest_error>

0000000080000964 <inst_44>:
    80000964:	00100513          	li	a0,1
    80000968:	02251513          	slli	a0,a0,0x22
    8000096c:	00055593          	srli	a1,a0,0x0
    80000970:	0ab1b823          	sd	a1,176(gp)
    80000974:	0010031b          	addiw	t1,zero,1
    80000978:	02231313          	slli	t1,t1,0x22
    8000097c:	00b30463          	beq	t1,a1,80000984 <inst_45>
    80000980:	ea4ff06f          	j	80000024 <rvtest_error>

0000000080000984 <inst_45>:
    80000984:	00100513          	li	a0,1
    80000988:	02351513          	slli	a0,a0,0x23
    8000098c:	00355593          	srli	a1,a0,0x3
    80000990:	0ab1bc23          	sd	a1,184(gp)
    80000994:	0010031b          	addiw	t1,zero,1
    80000998:	02031313          	slli	t1,t1,0x20
    8000099c:	00b30463          	beq	t1,a1,800009a4 <inst_46>
    800009a0:	e84ff06f          	j	80000024 <rvtest_error>

00000000800009a4 <inst_46>:
    800009a4:	00100513          	li	a0,1
    800009a8:	02451513          	slli	a0,a0,0x24
    800009ac:	00d55593          	srli	a1,a0,0xd
    800009b0:	0cb1b023          	sd	a1,192(gp)
    800009b4:	00800337          	lui	t1,0x800
    800009b8:	00b30463          	beq	t1,a1,800009c0 <inst_47>
    800009bc:	e68ff06f          	j	80000024 <rvtest_error>

00000000800009c0 <inst_47>:
    800009c0:	00100513          	li	a0,1
    800009c4:	02551513          	slli	a0,a0,0x25
    800009c8:	01f55593          	srli	a1,a0,0x1f
    800009cc:	0cb1b423          	sd	a1,200(gp)
    800009d0:	04000313          	li	t1,64
    800009d4:	00b30463          	beq	t1,a1,800009dc <inst_48>
    800009d8:	e4cff06f          	j	80000024 <rvtest_error>

00000000800009dc <inst_48>:
    800009dc:	00100513          	li	a0,1
    800009e0:	02651513          	slli	a0,a0,0x26
    800009e4:	03b55593          	srli	a1,a0,0x3b
    800009e8:	0cb1b823          	sd	a1,208(gp)
    800009ec:	00000313          	li	t1,0
    800009f0:	00b30463          	beq	t1,a1,800009f8 <inst_49>
    800009f4:	e30ff06f          	j	80000024 <rvtest_error>

00000000800009f8 <inst_49>:
    800009f8:	00100513          	li	a0,1
    800009fc:	02751513          	slli	a0,a0,0x27
    80000a00:	00455593          	srli	a1,a0,0x4
    80000a04:	0cb1bc23          	sd	a1,216(gp)
    80000a08:	0010031b          	addiw	t1,zero,1
    80000a0c:	02331313          	slli	t1,t1,0x23
    80000a10:	00b30463          	beq	t1,a1,80000a18 <inst_50>
    80000a14:	e10ff06f          	j	80000024 <rvtest_error>

0000000080000a18 <inst_50>:
    80000a18:	00100513          	li	a0,1
    80000a1c:	02851513          	slli	a0,a0,0x28
    80000a20:	01555593          	srli	a1,a0,0x15
    80000a24:	0eb1b023          	sd	a1,224(gp)
    80000a28:	00080337          	lui	t1,0x80
    80000a2c:	00b30463          	beq	t1,a1,80000a34 <inst_51>
    80000a30:	df4ff06f          	j	80000024 <rvtest_error>

0000000080000a34 <inst_51>:
    80000a34:	00100513          	li	a0,1
    80000a38:	02951513          	slli	a0,a0,0x29
    80000a3c:	01355593          	srli	a1,a0,0x13
    80000a40:	0eb1b423          	sd	a1,232(gp)
    80000a44:	00400337          	lui	t1,0x400
    80000a48:	00b30463          	beq	t1,a1,80000a50 <inst_52>
    80000a4c:	dd8ff06f          	j	80000024 <rvtest_error>

0000000080000a50 <inst_52>:
    80000a50:	00100513          	li	a0,1
    80000a54:	02a51513          	slli	a0,a0,0x2a
    80000a58:	03d55593          	srli	a1,a0,0x3d
    80000a5c:	0eb1b823          	sd	a1,240(gp)
    80000a60:	00000313          	li	t1,0
    80000a64:	00b30463          	beq	t1,a1,80000a6c <inst_53>
    80000a68:	dbcff06f          	j	80000024 <rvtest_error>

0000000080000a6c <inst_53>:
    80000a6c:	00100513          	li	a0,1
    80000a70:	02b51513          	slli	a0,a0,0x2b
    80000a74:	02a55593          	srli	a1,a0,0x2a
    80000a78:	0eb1bc23          	sd	a1,248(gp)
    80000a7c:	00200313          	li	t1,2
    80000a80:	00b30463          	beq	t1,a1,80000a88 <inst_54>
    80000a84:	da0ff06f          	j	80000024 <rvtest_error>

0000000080000a88 <inst_54>:
    80000a88:	00100513          	li	a0,1
    80000a8c:	02c51513          	slli	a0,a0,0x2c
    80000a90:	00055593          	srli	a1,a0,0x0
    80000a94:	10b1b023          	sd	a1,256(gp)
    80000a98:	0010031b          	addiw	t1,zero,1
    80000a9c:	02c31313          	slli	t1,t1,0x2c
    80000aa0:	00b30463          	beq	t1,a1,80000aa8 <inst_55>
    80000aa4:	d80ff06f          	j	80000024 <rvtest_error>

0000000080000aa8 <inst_55>:
    80000aa8:	00100513          	li	a0,1
    80000aac:	02d51513          	slli	a0,a0,0x2d
    80000ab0:	00155593          	srli	a1,a0,0x1
    80000ab4:	10b1b423          	sd	a1,264(gp)
    80000ab8:	0010031b          	addiw	t1,zero,1
    80000abc:	02c31313          	slli	t1,t1,0x2c
    80000ac0:	00b30463          	beq	t1,a1,80000ac8 <inst_56>
    80000ac4:	d60ff06f          	j	80000024 <rvtest_error>

0000000080000ac8 <inst_56>:
    80000ac8:	00100513          	li	a0,1
    80000acc:	02e51513          	slli	a0,a0,0x2e
    80000ad0:	00b55593          	srli	a1,a0,0xb
    80000ad4:	10b1b823          	sd	a1,272(gp)
    80000ad8:	0010031b          	addiw	t1,zero,1
    80000adc:	02331313          	slli	t1,t1,0x23
    80000ae0:	00b30463          	beq	t1,a1,80000ae8 <inst_57>
    80000ae4:	d40ff06f          	j	80000024 <rvtest_error>

0000000080000ae8 <inst_57>:
    80000ae8:	00100513          	li	a0,1
    80000aec:	02f51513          	slli	a0,a0,0x2f
    80000af0:	03d55593          	srli	a1,a0,0x3d
    80000af4:	10b1bc23          	sd	a1,280(gp)
    80000af8:	00000313          	li	t1,0
    80000afc:	00b30463          	beq	t1,a1,80000b04 <inst_58>
    80000b00:	d24ff06f          	j	80000024 <rvtest_error>

0000000080000b04 <inst_58>:
    80000b04:	00100513          	li	a0,1
    80000b08:	03051513          	slli	a0,a0,0x30
    80000b0c:	02a55593          	srli	a1,a0,0x2a
    80000b10:	12b1b023          	sd	a1,288(gp)
    80000b14:	04000313          	li	t1,64
    80000b18:	00b30463          	beq	t1,a1,80000b20 <inst_59>
    80000b1c:	d08ff06f          	j	80000024 <rvtest_error>

0000000080000b20 <inst_59>:
    80000b20:	00100513          	li	a0,1
    80000b24:	03151513          	slli	a0,a0,0x31
    80000b28:	00855593          	srli	a1,a0,0x8
    80000b2c:	12b1b423          	sd	a1,296(gp)
    80000b30:	0010031b          	addiw	t1,zero,1
    80000b34:	02931313          	slli	t1,t1,0x29
    80000b38:	00b30463          	beq	t1,a1,80000b40 <inst_60>
    80000b3c:	ce8ff06f          	j	80000024 <rvtest_error>

0000000080000b40 <inst_60>:
    80000b40:	00100513          	li	a0,1
    80000b44:	03251513          	slli	a0,a0,0x32
    80000b48:	02055593          	srli	a1,a0,0x20
    80000b4c:	12b1b823          	sd	a1,304(gp)
    80000b50:	00040337          	lui	t1,0x40
    80000b54:	00b30463          	beq	t1,a1,80000b5c <inst_61>
    80000b58:	cccff06f          	j	80000024 <rvtest_error>

0000000080000b5c <inst_61>:
    80000b5c:	00100513          	li	a0,1
    80000b60:	03451513          	slli	a0,a0,0x34
    80000b64:	02a55593          	srli	a1,a0,0x2a
    80000b68:	12b1bc23          	sd	a1,312(gp)
    80000b6c:	40000313          	li	t1,1024
    80000b70:	00b30463          	beq	t1,a1,80000b78 <inst_62>
    80000b74:	cb0ff06f          	j	80000024 <rvtest_error>

0000000080000b78 <inst_62>:
    80000b78:	00100513          	li	a0,1
    80000b7c:	03551513          	slli	a0,a0,0x35
    80000b80:	03e55593          	srli	a1,a0,0x3e
    80000b84:	14b1b023          	sd	a1,320(gp)
    80000b88:	00000313          	li	t1,0
    80000b8c:	00b30463          	beq	t1,a1,80000b94 <inst_63>
    80000b90:	c94ff06f          	j	80000024 <rvtest_error>

0000000080000b94 <inst_63>:
    80000b94:	00100513          	li	a0,1
    80000b98:	03651513          	slli	a0,a0,0x36
    80000b9c:	00d55593          	srli	a1,a0,0xd
    80000ba0:	14b1b423          	sd	a1,328(gp)
    80000ba4:	0010031b          	addiw	t1,zero,1
    80000ba8:	02931313          	slli	t1,t1,0x29
    80000bac:	00b30463          	beq	t1,a1,80000bb4 <inst_64>
    80000bb0:	c74ff06f          	j	80000024 <rvtest_error>

0000000080000bb4 <inst_64>:
    80000bb4:	00100513          	li	a0,1
    80000bb8:	03751513          	slli	a0,a0,0x37
    80000bbc:	01255593          	srli	a1,a0,0x12
    80000bc0:	14b1b823          	sd	a1,336(gp)
    80000bc4:	0010031b          	addiw	t1,zero,1
    80000bc8:	02531313          	slli	t1,t1,0x25
    80000bcc:	00b30463          	beq	t1,a1,80000bd4 <inst_65>
    80000bd0:	c54ff06f          	j	80000024 <rvtest_error>

0000000080000bd4 <inst_65>:
    80000bd4:	00100513          	li	a0,1
    80000bd8:	03851513          	slli	a0,a0,0x38
    80000bdc:	01255593          	srli	a1,a0,0x12
    80000be0:	14b1bc23          	sd	a1,344(gp)
    80000be4:	0010031b          	addiw	t1,zero,1
    80000be8:	02631313          	slli	t1,t1,0x26
    80000bec:	00b30463          	beq	t1,a1,80000bf4 <inst_66>
    80000bf0:	c34ff06f          	j	80000024 <rvtest_error>

0000000080000bf4 <inst_66>:
    80000bf4:	00100513          	li	a0,1
    80000bf8:	03951513          	slli	a0,a0,0x39
    80000bfc:	00d55593          	srli	a1,a0,0xd
    80000c00:	16b1b023          	sd	a1,352(gp)
    80000c04:	0010031b          	addiw	t1,zero,1
    80000c08:	02c31313          	slli	t1,t1,0x2c
    80000c0c:	00b30463          	beq	t1,a1,80000c14 <inst_67>
    80000c10:	c14ff06f          	j	80000024 <rvtest_error>

0000000080000c14 <inst_67>:
    80000c14:	00100513          	li	a0,1
    80000c18:	03a51513          	slli	a0,a0,0x3a
    80000c1c:	00655593          	srli	a1,a0,0x6
    80000c20:	16b1b423          	sd	a1,360(gp)
    80000c24:	0010031b          	addiw	t1,zero,1
    80000c28:	03431313          	slli	t1,t1,0x34
    80000c2c:	00b30463          	beq	t1,a1,80000c34 <inst_68>
    80000c30:	bf4ff06f          	j	80000024 <rvtest_error>

0000000080000c34 <inst_68>:
    80000c34:	00100513          	li	a0,1
    80000c38:	03b51513          	slli	a0,a0,0x3b
    80000c3c:	02055593          	srli	a1,a0,0x20
    80000c40:	16b1b823          	sd	a1,368(gp)
    80000c44:	08000337          	lui	t1,0x8000
    80000c48:	00b30463          	beq	t1,a1,80000c50 <inst_69>
    80000c4c:	bd8ff06f          	j	80000024 <rvtest_error>

0000000080000c50 <inst_69>:
    80000c50:	00100513          	li	a0,1
    80000c54:	03c51513          	slli	a0,a0,0x3c
    80000c58:	00355593          	srli	a1,a0,0x3
    80000c5c:	16b1bc23          	sd	a1,376(gp)
    80000c60:	0010031b          	addiw	t1,zero,1
    80000c64:	03931313          	slli	t1,t1,0x39
    80000c68:	00b30463          	beq	t1,a1,80000c70 <inst_70>
    80000c6c:	bb8ff06f          	j	80000024 <rvtest_error>

0000000080000c70 <inst_70>:
    80000c70:	00100513          	li	a0,1
    80000c74:	03d51513          	slli	a0,a0,0x3d
    80000c78:	00355593          	srli	a1,a0,0x3
    80000c7c:	18b1b023          	sd	a1,384(gp)
    80000c80:	0010031b          	addiw	t1,zero,1
    80000c84:	03a31313          	slli	t1,t1,0x3a
    80000c88:	00b30463          	beq	t1,a1,80000c90 <inst_71>
    80000c8c:	b98ff06f          	j	80000024 <rvtest_error>

0000000080000c90 <inst_71>:
    80000c90:	00100513          	li	a0,1
    80000c94:	03e51513          	slli	a0,a0,0x3e
    80000c98:	00f55593          	srli	a1,a0,0xf
    80000c9c:	18b1b423          	sd	a1,392(gp)
    80000ca0:	0010031b          	addiw	t1,zero,1
    80000ca4:	02f31313          	slli	t1,t1,0x2f
    80000ca8:	00b30463          	beq	t1,a1,80000cb0 <inst_72>
    80000cac:	b78ff06f          	j	80000024 <rvtest_error>

0000000080000cb0 <inst_72>:
    80000cb0:	ffe00513          	li	a0,-2
    80000cb4:	01055593          	srli	a1,a0,0x10
    80000cb8:	18b1b823          	sd	a1,400(gp)
    80000cbc:	0010031b          	addiw	t1,zero,1
    80000cc0:	03031313          	slli	t1,t1,0x30
    80000cc4:	fff30313          	addi	t1,t1,-1 # 7ffffff <offset+0x7fffbe7>
    80000cc8:	00b30463          	beq	t1,a1,80000cd0 <inst_73>
    80000ccc:	b58ff06f          	j	80000024 <rvtest_error>

0000000080000cd0 <inst_73>:
    80000cd0:	ffd00513          	li	a0,-3
    80000cd4:	03d55593          	srli	a1,a0,0x3d
    80000cd8:	18b1bc23          	sd	a1,408(gp)
    80000cdc:	00700313          	li	t1,7
    80000ce0:	00b30463          	beq	t1,a1,80000ce8 <inst_74>
    80000ce4:	b40ff06f          	j	80000024 <rvtest_error>

0000000080000ce8 <inst_74>:
    80000ce8:	ffb00513          	li	a0,-5
    80000cec:	03f55593          	srli	a1,a0,0x3f
    80000cf0:	1ab1b023          	sd	a1,416(gp)
    80000cf4:	00100313          	li	t1,1
    80000cf8:	00b30463          	beq	t1,a1,80000d00 <inst_75>
    80000cfc:	b28ff06f          	j	80000024 <rvtest_error>

0000000080000d00 <inst_75>:
    80000d00:	ff700513          	li	a0,-9
    80000d04:	00355593          	srli	a1,a0,0x3
    80000d08:	1ab1b423          	sd	a1,424(gp)
    80000d0c:	0010031b          	addiw	t1,zero,1
    80000d10:	03d31313          	slli	t1,t1,0x3d
    80000d14:	ffe30313          	addi	t1,t1,-2
    80000d18:	00b30463          	beq	t1,a1,80000d20 <inst_76>
    80000d1c:	b08ff06f          	j	80000024 <rvtest_error>

0000000080000d20 <inst_76>:
    80000d20:	fef00513          	li	a0,-17
    80000d24:	00c55593          	srli	a1,a0,0xc
    80000d28:	1ab1b823          	sd	a1,432(gp)
    80000d2c:	0010031b          	addiw	t1,zero,1
    80000d30:	03431313          	slli	t1,t1,0x34
    80000d34:	fff30313          	addi	t1,t1,-1
    80000d38:	00b30463          	beq	t1,a1,80000d40 <inst_77>
    80000d3c:	ae8ff06f          	j	80000024 <rvtest_error>

0000000080000d40 <inst_77>:
    80000d40:	fdf00513          	li	a0,-33
    80000d44:	00655593          	srli	a1,a0,0x6
    80000d48:	1ab1bc23          	sd	a1,440(gp)
    80000d4c:	0010031b          	addiw	t1,zero,1
    80000d50:	03a31313          	slli	t1,t1,0x3a
    80000d54:	fff30313          	addi	t1,t1,-1
    80000d58:	00b30463          	beq	t1,a1,80000d60 <inst_78>
    80000d5c:	ac8ff06f          	j	80000024 <rvtest_error>

0000000080000d60 <inst_78>:
    80000d60:	fbf00513          	li	a0,-65
    80000d64:	00555593          	srli	a1,a0,0x5
    80000d68:	1cb1b023          	sd	a1,448(gp)
    80000d6c:	0010031b          	addiw	t1,zero,1
    80000d70:	03b31313          	slli	t1,t1,0x3b
    80000d74:	ffd30313          	addi	t1,t1,-3
    80000d78:	00b30463          	beq	t1,a1,80000d80 <inst_79>
    80000d7c:	aa8ff06f          	j	80000024 <rvtest_error>

0000000080000d80 <inst_79>:
    80000d80:	f7f00513          	li	a0,-129
    80000d84:	00d55593          	srli	a1,a0,0xd
    80000d88:	1cb1b423          	sd	a1,456(gp)
    80000d8c:	0010031b          	addiw	t1,zero,1
    80000d90:	03331313          	slli	t1,t1,0x33
    80000d94:	fff30313          	addi	t1,t1,-1
    80000d98:	00b30463          	beq	t1,a1,80000da0 <inst_80>
    80000d9c:	a88ff06f          	j	80000024 <rvtest_error>

0000000080000da0 <inst_80>:
    80000da0:	eff00513          	li	a0,-257
    80000da4:	03e55593          	srli	a1,a0,0x3e
    80000da8:	1cb1b823          	sd	a1,464(gp)
    80000dac:	00300313          	li	t1,3
    80000db0:	00b30463          	beq	t1,a1,80000db8 <inst_81>
    80000db4:	a70ff06f          	j	80000024 <rvtest_error>

0000000080000db8 <inst_81>:
    80000db8:	dff00513          	li	a0,-513
    80000dbc:	00d55593          	srli	a1,a0,0xd
    80000dc0:	1cb1bc23          	sd	a1,472(gp)
    80000dc4:	0010031b          	addiw	t1,zero,1
    80000dc8:	03331313          	slli	t1,t1,0x33
    80000dcc:	fff30313          	addi	t1,t1,-1
    80000dd0:	00b30463          	beq	t1,a1,80000dd8 <inst_82>
    80000dd4:	a50ff06f          	j	80000024 <rvtest_error>

0000000080000dd8 <inst_82>:
    80000dd8:	bff00513          	li	a0,-1025
    80000ddc:	00955593          	srli	a1,a0,0x9
    80000de0:	1eb1b023          	sd	a1,480(gp)
    80000de4:	0010031b          	addiw	t1,zero,1
    80000de8:	03731313          	slli	t1,t1,0x37
    80000dec:	ffd30313          	addi	t1,t1,-3
    80000df0:	00b30463          	beq	t1,a1,80000df8 <inst_83>
    80000df4:	a30ff06f          	j	80000024 <rvtest_error>

0000000080000df8 <inst_83>:
    80000df8:	00100513          	li	a0,1
    80000dfc:	00b51513          	slli	a0,a0,0xb
    80000e00:	fff54513          	not	a0,a0
    80000e04:	00e55593          	srli	a1,a0,0xe
    80000e08:	1eb1b423          	sd	a1,488(gp)
    80000e0c:	0010031b          	addiw	t1,zero,1
    80000e10:	03231313          	slli	t1,t1,0x32
    80000e14:	fff30313          	addi	t1,t1,-1
    80000e18:	00b30463          	beq	t1,a1,80000e20 <inst_84>
    80000e1c:	a08ff06f          	j	80000024 <rvtest_error>

0000000080000e20 <inst_84>:
    80000e20:	00100513          	li	a0,1
    80000e24:	00c51513          	slli	a0,a0,0xc
    80000e28:	fff54513          	not	a0,a0
    80000e2c:	03755593          	srli	a1,a0,0x37
    80000e30:	1eb1b823          	sd	a1,496(gp)
    80000e34:	1ff00313          	li	t1,511
    80000e38:	00b30463          	beq	t1,a1,80000e40 <inst_85>
    80000e3c:	9e8ff06f          	j	80000024 <rvtest_error>

0000000080000e40 <inst_85>:
    80000e40:	00100513          	li	a0,1
    80000e44:	00d51513          	slli	a0,a0,0xd
    80000e48:	fff54513          	not	a0,a0
    80000e4c:	00655593          	srli	a1,a0,0x6
    80000e50:	1eb1bc23          	sd	a1,504(gp)
    80000e54:	0010031b          	addiw	t1,zero,1
    80000e58:	03a31313          	slli	t1,t1,0x3a
    80000e5c:	f7f30313          	addi	t1,t1,-129
    80000e60:	00b30463          	beq	t1,a1,80000e68 <inst_86>
    80000e64:	9c0ff06f          	j	80000024 <rvtest_error>

0000000080000e68 <inst_86>:
    80000e68:	00100513          	li	a0,1
    80000e6c:	00e51513          	slli	a0,a0,0xe
    80000e70:	fff54513          	not	a0,a0
    80000e74:	01255593          	srli	a1,a0,0x12
    80000e78:	20b1b023          	sd	a1,512(gp)
    80000e7c:	0010031b          	addiw	t1,zero,1
    80000e80:	02e31313          	slli	t1,t1,0x2e
    80000e84:	fff30313          	addi	t1,t1,-1
    80000e88:	00b30463          	beq	t1,a1,80000e90 <inst_87>
    80000e8c:	998ff06f          	j	80000024 <rvtest_error>

0000000080000e90 <inst_87>:
    80000e90:	00100513          	li	a0,1
    80000e94:	00f51513          	slli	a0,a0,0xf
    80000e98:	fff54513          	not	a0,a0
    80000e9c:	00055593          	srli	a1,a0,0x0
    80000ea0:	20b1b423          	sd	a1,520(gp)
    80000ea4:	ffff8337          	lui	t1,0xffff8
    80000ea8:	fff3031b          	addiw	t1,t1,-1 # ffffffffffff7fff <absimm+0xffffffff452ea52f>
    80000eac:	00b30463          	beq	t1,a1,80000eb4 <inst_88>
    80000eb0:	974ff06f          	j	80000024 <rvtest_error>

0000000080000eb4 <inst_88>:
    80000eb4:	00100513          	li	a0,1
    80000eb8:	01051513          	slli	a0,a0,0x10
    80000ebc:	fff54513          	not	a0,a0
    80000ec0:	00e55593          	srli	a1,a0,0xe
    80000ec4:	20b1b823          	sd	a1,528(gp)
    80000ec8:	0010031b          	addiw	t1,zero,1
    80000ecc:	03231313          	slli	t1,t1,0x32
    80000ed0:	ffb30313          	addi	t1,t1,-5
    80000ed4:	00b30463          	beq	t1,a1,80000edc <inst_89>
    80000ed8:	94cff06f          	j	80000024 <rvtest_error>

0000000080000edc <inst_89>:
    80000edc:	00100513          	li	a0,1
    80000ee0:	01151513          	slli	a0,a0,0x11
    80000ee4:	fff54513          	not	a0,a0
    80000ee8:	01f55593          	srli	a1,a0,0x1f
    80000eec:	20b1bc23          	sd	a1,536(gp)
    80000ef0:	0010031b          	addiw	t1,zero,1
    80000ef4:	02131313          	slli	t1,t1,0x21
    80000ef8:	fff30313          	addi	t1,t1,-1
    80000efc:	00b30463          	beq	t1,a1,80000f04 <inst_90>
    80000f00:	924ff06f          	j	80000024 <rvtest_error>

0000000080000f04 <inst_90>:
    80000f04:	00100513          	li	a0,1
    80000f08:	03551513          	slli	a0,a0,0x35
    80000f0c:	fff54513          	not	a0,a0
    80000f10:	01255593          	srli	a1,a0,0x12
    80000f14:	22b1b023          	sd	a1,544(gp)
    80000f18:	7ff0031b          	addiw	t1,zero,2047
    80000f1c:	02331313          	slli	t1,t1,0x23
    80000f20:	fff30313          	addi	t1,t1,-1
    80000f24:	00b30463          	beq	t1,a1,80000f2c <inst_91>
    80000f28:	8fcff06f          	j	80000024 <rvtest_error>

0000000080000f2c <inst_91>:
    80000f2c:	00100513          	li	a0,1
    80000f30:	03651513          	slli	a0,a0,0x36
    80000f34:	fff54513          	not	a0,a0
    80000f38:	01f55593          	srli	a1,a0,0x1f
    80000f3c:	22b1b423          	sd	a1,552(gp)
    80000f40:	3ff0031b          	addiw	t1,zero,1023
    80000f44:	01731313          	slli	t1,t1,0x17
    80000f48:	fff30313          	addi	t1,t1,-1
    80000f4c:	00b30463          	beq	t1,a1,80000f54 <inst_92>
    80000f50:	8d4ff06f          	j	80000024 <rvtest_error>

0000000080000f54 <inst_92>:
    80000f54:	00100513          	li	a0,1
    80000f58:	03751513          	slli	a0,a0,0x37
    80000f5c:	fff54513          	not	a0,a0
    80000f60:	03b55593          	srli	a1,a0,0x3b
    80000f64:	22b1b823          	sd	a1,560(gp)
    80000f68:	01f00313          	li	t1,31
    80000f6c:	00b30463          	beq	t1,a1,80000f74 <inst_93>
    80000f70:	8b4ff06f          	j	80000024 <rvtest_error>

0000000080000f74 <inst_93>:
    80000f74:	00100513          	li	a0,1
    80000f78:	03851513          	slli	a0,a0,0x38
    80000f7c:	fff54513          	not	a0,a0
    80000f80:	00355593          	srli	a1,a0,0x3
    80000f84:	22b1bc23          	sd	a1,568(gp)
    80000f88:	0ff0031b          	addiw	t1,zero,255
    80000f8c:	03531313          	slli	t1,t1,0x35
    80000f90:	fff30313          	addi	t1,t1,-1
    80000f94:	00b30463          	beq	t1,a1,80000f9c <inst_94>
    80000f98:	88cff06f          	j	80000024 <rvtest_error>

0000000080000f9c <inst_94>:
    80000f9c:	00100513          	li	a0,1
    80000fa0:	03951513          	slli	a0,a0,0x39
    80000fa4:	fff54513          	not	a0,a0
    80000fa8:	01255593          	srli	a1,a0,0x12
    80000fac:	24b1b023          	sd	a1,576(gp)
    80000fb0:	07f0031b          	addiw	t1,zero,127
    80000fb4:	02731313          	slli	t1,t1,0x27
    80000fb8:	fff30313          	addi	t1,t1,-1
    80000fbc:	00b30463          	beq	t1,a1,80000fc4 <inst_95>
    80000fc0:	864ff06f          	j	80000024 <rvtest_error>

0000000080000fc4 <inst_95>:
    80000fc4:	00100513          	li	a0,1
    80000fc8:	03a51513          	slli	a0,a0,0x3a
    80000fcc:	fff54513          	not	a0,a0
    80000fd0:	00855593          	srli	a1,a0,0x8
    80000fd4:	24b1b423          	sd	a1,584(gp)
    80000fd8:	03f0031b          	addiw	t1,zero,63
    80000fdc:	03231313          	slli	t1,t1,0x32
    80000fe0:	fff30313          	addi	t1,t1,-1
    80000fe4:	00b30463          	beq	t1,a1,80000fec <inst_96>
    80000fe8:	83cff06f          	j	80000024 <rvtest_error>

0000000080000fec <inst_96>:
    80000fec:	00100513          	li	a0,1
    80000ff0:	03b51513          	slli	a0,a0,0x3b
    80000ff4:	fff54513          	not	a0,a0
    80000ff8:	01255593          	srli	a1,a0,0x12
    80000ffc:	24b1b823          	sd	a1,592(gp)
    80001000:	01f0031b          	addiw	t1,zero,31
    80001004:	02931313          	slli	t1,t1,0x29
    80001008:	fff30313          	addi	t1,t1,-1
    8000100c:	00b30463          	beq	t1,a1,80001014 <inst_97>
    80001010:	814ff06f          	j	80000024 <rvtest_error>

0000000080001014 <inst_97>:
    80001014:	00100513          	li	a0,1
    80001018:	03c51513          	slli	a0,a0,0x3c
    8000101c:	fff54513          	not	a0,a0
    80001020:	00b55593          	srli	a1,a0,0xb
    80001024:	24b1bc23          	sd	a1,600(gp)
    80001028:	00f0031b          	addiw	t1,zero,15
    8000102c:	03131313          	slli	t1,t1,0x31
    80001030:	fff30313          	addi	t1,t1,-1
    80001034:	00b30463          	beq	t1,a1,8000103c <inst_98>
    80001038:	fedfe06f          	j	80000024 <rvtest_error>

000000008000103c <inst_98>:
    8000103c:	00100513          	li	a0,1
    80001040:	03d51513          	slli	a0,a0,0x3d
    80001044:	fff54513          	not	a0,a0
    80001048:	00c55593          	srli	a1,a0,0xc
    8000104c:	26b1b023          	sd	a1,608(gp)
    80001050:	0070031b          	addiw	t1,zero,7
    80001054:	03131313          	slli	t1,t1,0x31
    80001058:	fff30313          	addi	t1,t1,-1
    8000105c:	00b30463          	beq	t1,a1,80001064 <inst_99>
    80001060:	fc5fe06f          	j	80000024 <rvtest_error>

0000000080001064 <inst_99>:
    80001064:	00100513          	li	a0,1
    80001068:	03e51513          	slli	a0,a0,0x3e
    8000106c:	fff54513          	not	a0,a0
    80001070:	01255593          	srli	a1,a0,0x12
    80001074:	26b1b423          	sd	a1,616(gp)
    80001078:	0030031b          	addiw	t1,zero,3
    8000107c:	02c31313          	slli	t1,t1,0x2c
    80001080:	fff30313          	addi	t1,t1,-1
    80001084:	00b30463          	beq	t1,a1,8000108c <inst_100>
    80001088:	f9dfe06f          	j	80000024 <rvtest_error>

000000008000108c <inst_100>:
    8000108c:	55555537          	lui	a0,0x55555
    80001090:	55550513          	addi	a0,a0,1365 # 55555555 <absimmsh+0x49a847a8>
    80001094:	00b51513          	slli	a0,a0,0xb
    80001098:	2aa50513          	addi	a0,a0,682
    8000109c:	00b51513          	slli	a0,a0,0xb
    800010a0:	55550513          	addi	a0,a0,1365
    800010a4:	00a51513          	slli	a0,a0,0xa
    800010a8:	15550513          	addi	a0,a0,341
    800010ac:	00955593          	srli	a1,a0,0x9
    800010b0:	26b1b823          	sd	a1,624(gp)
    800010b4:	2aaab337          	lui	t1,0x2aaab
    800010b8:	aab3031b          	addiw	t1,t1,-1365 # 2aaaaaab <absimmsh+0x1efd9cfe>
    800010bc:	00c31313          	slli	t1,t1,0xc
    800010c0:	aab30313          	addi	t1,t1,-1365
    800010c4:	00c31313          	slli	t1,t1,0xc
    800010c8:	aaa30313          	addi	t1,t1,-1366
    800010cc:	00b30463          	beq	t1,a1,800010d4 <inst_101>
    800010d0:	f55fe06f          	j	80000024 <rvtest_error>

00000000800010d4 <inst_101>:
    800010d4:	aaaab537          	lui	a0,0xaaaab
    800010d8:	aaa50513          	addi	a0,a0,-1366 # ffffffffaaaaaaaa <absimm+0xfffffffeefd9cfda>
    800010dc:	00b51513          	slli	a0,a0,0xb
    800010e0:	55550513          	addi	a0,a0,1365
    800010e4:	00b51513          	slli	a0,a0,0xb
    800010e8:	2aa50513          	addi	a0,a0,682
    800010ec:	00a51513          	slli	a0,a0,0xa
    800010f0:	2aa50513          	addi	a0,a0,682
    800010f4:	00155593          	srli	a1,a0,0x1
    800010f8:	26b1bc23          	sd	a1,632(gp)
    800010fc:	05555337          	lui	t1,0x5555
    80001100:	5553031b          	addiw	t1,t1,1365 # 5555555 <offset+0x555513d>
    80001104:	00c31313          	slli	t1,t1,0xc
    80001108:	55530313          	addi	t1,t1,1365
    8000110c:	00c31313          	slli	t1,t1,0xc
    80001110:	55530313          	addi	t1,t1,1365
    80001114:	00c31313          	slli	t1,t1,0xc
    80001118:	55530313          	addi	t1,t1,1365
    8000111c:	00b30463          	beq	t1,a1,80001124 <inst_102>
    80001120:	f05fe06f          	j	80000024 <rvtest_error>

0000000080001124 <inst_102>:
    80001124:	00500513          	li	a0,5
    80001128:	01355593          	srli	a1,a0,0x13
    8000112c:	28b1b023          	sd	a1,640(gp)
    80001130:	00000313          	li	t1,0
    80001134:	00b30463          	beq	t1,a1,8000113c <inst_103>
    80001138:	eedfe06f          	j	80000024 <rvtest_error>

000000008000113c <inst_103>:
    8000113c:	33333537          	lui	a0,0x33333
    80001140:	33350513          	addi	a0,a0,819 # 33333333 <absimmsh+0x27862586>
    80001144:	00b51513          	slli	a0,a0,0xb
    80001148:	19950513          	addi	a0,a0,409
    8000114c:	00b51513          	slli	a0,a0,0xb
    80001150:	4cc50513          	addi	a0,a0,1228
    80001154:	00a51513          	slli	a0,a0,0xa
    80001158:	33350513          	addi	a0,a0,819
    8000115c:	02055593          	srli	a1,a0,0x20
    80001160:	28b1b423          	sd	a1,648(gp)
    80001164:	33333337          	lui	t1,0x33333
    80001168:	3333031b          	addiw	t1,t1,819 # 33333333 <absimmsh+0x27862586>
    8000116c:	00b30463          	beq	t1,a1,80001174 <inst_104>
    80001170:	eb5fe06f          	j	80000024 <rvtest_error>

0000000080001174 <inst_104>:
    80001174:	00000537          	lui	a0,0x0
    80001178:	fff50513          	addi	a0,a0,-1
    8000117c:	00b51513          	slli	a0,a0,0xb
    80001180:	25750513          	addi	a0,a0,599
    80001184:	00b51513          	slli	a0,a0,0xb
    80001188:	6c350513          	addi	a0,a0,1731
    8000118c:	00a51513          	slli	a0,a0,0xa
    80001190:	0cd50513          	addi	a0,a0,205
    80001194:	00555593          	srli	a1,a0,0x5
    80001198:	28b1b823          	sd	a1,656(gp)
    8000119c:	0010031b          	addiw	t1,zero,1
    800011a0:	02231313          	slli	t1,t1,0x22
    800011a4:	ffd30313          	addi	t1,t1,-3
    800011a8:	00c31313          	slli	t1,t1,0xc
    800011ac:	2bf30313          	addi	t1,t1,703
    800011b0:	00d31313          	slli	t1,t1,0xd
    800011b4:	86630313          	addi	t1,t1,-1946
    800011b8:	00b30463          	beq	t1,a1,800011c0 <inst_105>
    800011bc:	e69fe06f          	j	80000024 <rvtest_error>

00000000800011c0 <inst_105>:
    800011c0:	55555537          	lui	a0,0x55555
    800011c4:	55550513          	addi	a0,a0,1365 # 55555555 <absimmsh+0x49a847a8>
    800011c8:	00b51513          	slli	a0,a0,0xb
    800011cc:	2aa50513          	addi	a0,a0,682
    800011d0:	00b51513          	slli	a0,a0,0xb
    800011d4:	55550513          	addi	a0,a0,1365
    800011d8:	00a51513          	slli	a0,a0,0xa
    800011dc:	15450513          	addi	a0,a0,340
    800011e0:	00155593          	srli	a1,a0,0x1
    800011e4:	28b1bc23          	sd	a1,664(gp)
    800011e8:	02aab337          	lui	t1,0x2aab
    800011ec:	aab3031b          	addiw	t1,t1,-1365 # 2aaaaab <offset+0x2aaa693>
    800011f0:	00c31313          	slli	t1,t1,0xc
    800011f4:	aab30313          	addi	t1,t1,-1365
    800011f8:	00c31313          	slli	t1,t1,0xc
    800011fc:	aab30313          	addi	t1,t1,-1365
    80001200:	00c31313          	slli	t1,t1,0xc
    80001204:	aaa30313          	addi	t1,t1,-1366
    80001208:	00b30463          	beq	t1,a1,80001210 <inst_106>
    8000120c:	e19fe06f          	j	80000024 <rvtest_error>

0000000080001210 <inst_106>:
    80001210:	33333537          	lui	a0,0x33333
    80001214:	33350513          	addi	a0,a0,819 # 33333333 <absimmsh+0x27862586>
    80001218:	00b51513          	slli	a0,a0,0xb
    8000121c:	19950513          	addi	a0,a0,409
    80001220:	00b51513          	slli	a0,a0,0xb
    80001224:	4cc50513          	addi	a0,a0,1228
    80001228:	00a51513          	slli	a0,a0,0xa
    8000122c:	33250513          	addi	a0,a0,818
    80001230:	00755593          	srli	a1,a0,0x7
    80001234:	2ab1b023          	sd	a1,672(gp)
    80001238:	33333337          	lui	t1,0x33333
    8000123c:	3333031b          	addiw	t1,t1,819 # 33333333 <absimmsh+0x27862586>
    80001240:	00c31313          	slli	t1,t1,0xc
    80001244:	33330313          	addi	t1,t1,819
    80001248:	00d31313          	slli	t1,t1,0xd
    8000124c:	66630313          	addi	t1,t1,1638
    80001250:	00b30463          	beq	t1,a1,80001258 <inst_107>
    80001254:	dd1fe06f          	j	80000024 <rvtest_error>

0000000080001258 <inst_107>:
    80001258:	66666537          	lui	a0,0x66666
    8000125c:	66650513          	addi	a0,a0,1638 # 66666666 <absimmsh+0x5ab958b9>
    80001260:	00b51513          	slli	a0,a0,0xb
    80001264:	33350513          	addi	a0,a0,819
    80001268:	00b51513          	slli	a0,a0,0xb
    8000126c:	19950513          	addi	a0,a0,409
    80001270:	00a51513          	slli	a0,a0,0xa
    80001274:	26550513          	addi	a0,a0,613
    80001278:	02f55593          	srli	a1,a0,0x2f
    8000127c:	2ab1b423          	sd	a1,680(gp)
    80001280:	0000d337          	lui	t1,0xd
    80001284:	ccc3031b          	addiw	t1,t1,-820 # cccc <offset+0xc8b4>
    80001288:	00b30463          	beq	t1,a1,80001290 <inst_108>
    8000128c:	d99fe06f          	j	80000024 <rvtest_error>

0000000080001290 <inst_108>:
    80001290:	00000537          	lui	a0,0x0
    80001294:	00050513          	mv	a0,a0
    80001298:	00b51513          	slli	a0,a0,0xb
    8000129c:	5a850513          	addi	a0,a0,1448 # 5a8 <offset+0x190>
    800012a0:	00b51513          	slli	a0,a0,0xb
    800012a4:	13c50513          	addi	a0,a0,316
    800012a8:	00a51513          	slli	a0,a0,0xa
    800012ac:	33250513          	addi	a0,a0,818
    800012b0:	01555593          	srli	a1,a0,0x15
    800012b4:	2ab1b823          	sd	a1,688(gp)
    800012b8:	5a800313          	li	t1,1448
    800012bc:	00b30463          	beq	t1,a1,800012c4 <inst_109>
    800012c0:	d65fe06f          	j	80000024 <rvtest_error>

00000000800012c4 <inst_109>:
    800012c4:	55555537          	lui	a0,0x55555
    800012c8:	55550513          	addi	a0,a0,1365 # 55555555 <absimmsh+0x49a847a8>
    800012cc:	00b51513          	slli	a0,a0,0xb
    800012d0:	2aa50513          	addi	a0,a0,682
    800012d4:	00b51513          	slli	a0,a0,0xb
    800012d8:	55550513          	addi	a0,a0,1365
    800012dc:	00a51513          	slli	a0,a0,0xa
    800012e0:	15650513          	addi	a0,a0,342
    800012e4:	00b55593          	srli	a1,a0,0xb
    800012e8:	2ab1bc23          	sd	a1,696(gp)
    800012ec:	0aaab337          	lui	t1,0xaaab
    800012f0:	aab3031b          	addiw	t1,t1,-1365 # aaaaaab <offset+0xaaaa693>
    800012f4:	00c31313          	slli	t1,t1,0xc
    800012f8:	aab30313          	addi	t1,t1,-1365
    800012fc:	00c31313          	slli	t1,t1,0xc
    80001300:	aaa30313          	addi	t1,t1,-1366
    80001304:	00b30463          	beq	t1,a1,8000130c <inst_110>
    80001308:	d1dfe06f          	j	80000024 <rvtest_error>

000000008000130c <inst_110>:
    8000130c:	aaaab537          	lui	a0,0xaaaab
    80001310:	aaa50513          	addi	a0,a0,-1366 # ffffffffaaaaaaaa <absimm+0xfffffffeefd9cfda>
    80001314:	00b51513          	slli	a0,a0,0xb
    80001318:	55550513          	addi	a0,a0,1365
    8000131c:	00b51513          	slli	a0,a0,0xb
    80001320:	2aa50513          	addi	a0,a0,682
    80001324:	00a51513          	slli	a0,a0,0xa
    80001328:	2ab50513          	addi	a0,a0,683
    8000132c:	00a55593          	srli	a1,a0,0xa
    80001330:	2cb1b023          	sd	a1,704(gp)
    80001334:	2aaab337          	lui	t1,0x2aaab
    80001338:	aab3031b          	addiw	t1,t1,-1365 # 2aaaaaab <absimmsh+0x1efd9cfe>
    8000133c:	00c31313          	slli	t1,t1,0xc
    80001340:	aab30313          	addi	t1,t1,-1365
    80001344:	00c31313          	slli	t1,t1,0xc
    80001348:	aaa30313          	addi	t1,t1,-1366
    8000134c:	00b30463          	beq	t1,a1,80001354 <inst_111>
    80001350:	cd5fe06f          	j	80000024 <rvtest_error>

0000000080001354 <inst_111>:
    80001354:	00600513          	li	a0,6
    80001358:	00d55593          	srli	a1,a0,0xd
    8000135c:	2cb1b423          	sd	a1,712(gp)
    80001360:	00000313          	li	t1,0
    80001364:	00b30463          	beq	t1,a1,8000136c <inst_112>
    80001368:	cbdfe06f          	j	80000024 <rvtest_error>

000000008000136c <inst_112>:
    8000136c:	33333537          	lui	a0,0x33333
    80001370:	33350513          	addi	a0,a0,819 # 33333333 <absimmsh+0x27862586>
    80001374:	00b51513          	slli	a0,a0,0xb
    80001378:	19950513          	addi	a0,a0,409
    8000137c:	00b51513          	slli	a0,a0,0xb
    80001380:	4cc50513          	addi	a0,a0,1228
    80001384:	00a51513          	slli	a0,a0,0xa
    80001388:	33450513          	addi	a0,a0,820
    8000138c:	00e55593          	srli	a1,a0,0xe
    80001390:	2cb1b823          	sd	a1,720(gp)
    80001394:	00ccd337          	lui	t1,0xccd
    80001398:	ccd3031b          	addiw	t1,t1,-819 # cccccd <offset+0xccc8b5>
    8000139c:	00c31313          	slli	t1,t1,0xc
    800013a0:	ccd30313          	addi	t1,t1,-819
    800013a4:	00c31313          	slli	t1,t1,0xc
    800013a8:	ccc30313          	addi	t1,t1,-820
    800013ac:	00b30463          	beq	t1,a1,800013b4 <inst_113>
    800013b0:	c75fe06f          	j	80000024 <rvtest_error>

00000000800013b4 <inst_113>:
    800013b4:	66666537          	lui	a0,0x66666
    800013b8:	66650513          	addi	a0,a0,1638 # 66666666 <absimmsh+0x5ab958b9>
    800013bc:	00b51513          	slli	a0,a0,0xb
    800013c0:	33350513          	addi	a0,a0,819
    800013c4:	00b51513          	slli	a0,a0,0xb
    800013c8:	19950513          	addi	a0,a0,409
    800013cc:	00a51513          	slli	a0,a0,0xa
    800013d0:	26750513          	addi	a0,a0,615
    800013d4:	00055593          	srli	a1,a0,0x0
    800013d8:	2cb1bc23          	sd	a1,728(gp)
    800013dc:	03333337          	lui	t1,0x3333
    800013e0:	3333031b          	addiw	t1,t1,819 # 3333333 <offset+0x3332f1b>
    800013e4:	00c31313          	slli	t1,t1,0xc
    800013e8:	33330313          	addi	t1,t1,819
    800013ec:	00c31313          	slli	t1,t1,0xc
    800013f0:	33330313          	addi	t1,t1,819
    800013f4:	00d31313          	slli	t1,t1,0xd
    800013f8:	66730313          	addi	t1,t1,1639
    800013fc:	00b30463          	beq	t1,a1,80001404 <inst_114>
    80001400:	c25fe06f          	j	80000024 <rvtest_error>

0000000080001404 <inst_114>:
    80001404:	00000537          	lui	a0,0x0
    80001408:	fff50513          	addi	a0,a0,-1
    8000140c:	00b51513          	slli	a0,a0,0xb
    80001410:	25750513          	addi	a0,a0,599
    80001414:	00b51513          	slli	a0,a0,0xb
    80001418:	6c350513          	addi	a0,a0,1731
    8000141c:	00a51513          	slli	a0,a0,0xa
    80001420:	0ce50513          	addi	a0,a0,206
    80001424:	03e55593          	srli	a1,a0,0x3e
    80001428:	2eb1b023          	sd	a1,736(gp)
    8000142c:	00300313          	li	t1,3
    80001430:	00b30463          	beq	t1,a1,80001438 <inst_115>
    80001434:	bf1fe06f          	j	80000024 <rvtest_error>

0000000080001438 <inst_115>:
    80001438:	00000537          	lui	a0,0x0
    8000143c:	00050513          	mv	a0,a0
    80001440:	00b51513          	slli	a0,a0,0xb
    80001444:	5a850513          	addi	a0,a0,1448 # 5a8 <offset+0x190>
    80001448:	00b51513          	slli	a0,a0,0xb
    8000144c:	13c50513          	addi	a0,a0,316
    80001450:	00a51513          	slli	a0,a0,0xa
    80001454:	33450513          	addi	a0,a0,820
    80001458:	02055593          	srli	a1,a0,0x20
    8000145c:	2eb1b423          	sd	a1,744(gp)
    80001460:	00000313          	li	t1,0
    80001464:	00b30463          	beq	t1,a1,8000146c <inst_116>
    80001468:	bbdfe06f          	j	80000024 <rvtest_error>

000000008000146c <inst_116>:
    8000146c:	00100513          	li	a0,1
    80001470:	03651513          	slli	a0,a0,0x36
    80001474:	00255593          	srli	a1,a0,0x2
    80001478:	2eb1b823          	sd	a1,752(gp)
    8000147c:	0010031b          	addiw	t1,zero,1
    80001480:	03431313          	slli	t1,t1,0x34
    80001484:	00b30463          	beq	t1,a1,8000148c <inst_117>
    80001488:	b9dfe06f          	j	80000024 <rvtest_error>

000000008000148c <inst_117>:
    8000148c:	00100513          	li	a0,1
    80001490:	01251513          	slli	a0,a0,0x12
    80001494:	fff54513          	not	a0,a0
    80001498:	00255593          	srli	a1,a0,0x2
    8000149c:	2eb1bc23          	sd	a1,760(gp)
    800014a0:	0010031b          	addiw	t1,zero,1
    800014a4:	02e31313          	slli	t1,t1,0x2e
    800014a8:	fff30313          	addi	t1,t1,-1
    800014ac:	01031313          	slli	t1,t1,0x10
    800014b0:	fff30313          	addi	t1,t1,-1
    800014b4:	00b30463          	beq	t1,a1,800014bc <inst_118>
    800014b8:	b6dfe06f          	j	80000024 <rvtest_error>

00000000800014bc <inst_118>:
    800014bc:	00100513          	li	a0,1
    800014c0:	01351513          	slli	a0,a0,0x13
    800014c4:	fff54513          	not	a0,a0
    800014c8:	03755593          	srli	a1,a0,0x37
    800014cc:	30b1b023          	sd	a1,768(gp)
    800014d0:	1ff00313          	li	t1,511
    800014d4:	00b30463          	beq	t1,a1,800014dc <inst_119>
    800014d8:	b4dfe06f          	j	80000024 <rvtest_error>

00000000800014dc <inst_119>:
    800014dc:	00100513          	li	a0,1
    800014e0:	01451513          	slli	a0,a0,0x14
    800014e4:	fff54513          	not	a0,a0
    800014e8:	03755593          	srli	a1,a0,0x37
    800014ec:	30b1b423          	sd	a1,776(gp)
    800014f0:	1ff00313          	li	t1,511
    800014f4:	00b30463          	beq	t1,a1,800014fc <inst_120>
    800014f8:	b2dfe06f          	j	80000024 <rvtest_error>

00000000800014fc <inst_120>:
    800014fc:	00100513          	li	a0,1
    80001500:	01551513          	slli	a0,a0,0x15
    80001504:	fff54513          	not	a0,a0
    80001508:	03e55593          	srli	a1,a0,0x3e
    8000150c:	30b1b823          	sd	a1,784(gp)
    80001510:	00300313          	li	t1,3
    80001514:	00b30463          	beq	t1,a1,8000151c <inst_121>
    80001518:	b0dfe06f          	j	80000024 <rvtest_error>

000000008000151c <inst_121>:
    8000151c:	00100513          	li	a0,1
    80001520:	01651513          	slli	a0,a0,0x16
    80001524:	fff54513          	not	a0,a0
    80001528:	03b55593          	srli	a1,a0,0x3b
    8000152c:	30b1bc23          	sd	a1,792(gp)
    80001530:	01f00313          	li	t1,31
    80001534:	00b30463          	beq	t1,a1,8000153c <inst_122>
    80001538:	aedfe06f          	j	80000024 <rvtest_error>

000000008000153c <inst_122>:
    8000153c:	00100513          	li	a0,1
    80001540:	01751513          	slli	a0,a0,0x17
    80001544:	fff54513          	not	a0,a0
    80001548:	01555593          	srli	a1,a0,0x15
    8000154c:	32b1b023          	sd	a1,800(gp)
    80001550:	0010031b          	addiw	t1,zero,1
    80001554:	02b31313          	slli	t1,t1,0x2b
    80001558:	ffb30313          	addi	t1,t1,-5
    8000155c:	00b30463          	beq	t1,a1,80001564 <inst_123>
    80001560:	ac5fe06f          	j	80000024 <rvtest_error>

0000000080001564 <inst_123>:
    80001564:	00100513          	li	a0,1
    80001568:	01851513          	slli	a0,a0,0x18
    8000156c:	fff54513          	not	a0,a0
    80001570:	00155593          	srli	a1,a0,0x1
    80001574:	32b1b423          	sd	a1,808(gp)
    80001578:	0010031b          	addiw	t1,zero,1
    8000157c:	02831313          	slli	t1,t1,0x28
    80001580:	fff30313          	addi	t1,t1,-1
    80001584:	01731313          	slli	t1,t1,0x17
    80001588:	fff30313          	addi	t1,t1,-1
    8000158c:	00b30463          	beq	t1,a1,80001594 <inst_124>
    80001590:	a95fe06f          	j	80000024 <rvtest_error>

0000000080001594 <inst_124>:
    80001594:	00100513          	li	a0,1
    80001598:	01951513          	slli	a0,a0,0x19
    8000159c:	fff54513          	not	a0,a0
    800015a0:	01255593          	srli	a1,a0,0x12
    800015a4:	32b1b823          	sd	a1,816(gp)
    800015a8:	0010031b          	addiw	t1,zero,1
    800015ac:	02e31313          	slli	t1,t1,0x2e
    800015b0:	f7f30313          	addi	t1,t1,-129
    800015b4:	00b30463          	beq	t1,a1,800015bc <inst_125>
    800015b8:	a6dfe06f          	j	80000024 <rvtest_error>

00000000800015bc <inst_125>:
    800015bc:	00100513          	li	a0,1
    800015c0:	01a51513          	slli	a0,a0,0x1a
    800015c4:	fff54513          	not	a0,a0
    800015c8:	00a55593          	srli	a1,a0,0xa
    800015cc:	32b1bc23          	sd	a1,824(gp)
    800015d0:	0010031b          	addiw	t1,zero,1
    800015d4:	02631313          	slli	t1,t1,0x26
    800015d8:	fff30313          	addi	t1,t1,-1
    800015dc:	01031313          	slli	t1,t1,0x10
    800015e0:	fff30313          	addi	t1,t1,-1
    800015e4:	00b30463          	beq	t1,a1,800015ec <inst_126>
    800015e8:	a3dfe06f          	j	80000024 <rvtest_error>

00000000800015ec <inst_126>:
    800015ec:	00100513          	li	a0,1
    800015f0:	01b51513          	slli	a0,a0,0x1b
    800015f4:	fff54513          	not	a0,a0
    800015f8:	02055593          	srli	a1,a0,0x20
    800015fc:	34b1b023          	sd	a1,832(gp)
    80001600:	0010031b          	addiw	t1,zero,1
    80001604:	02031313          	slli	t1,t1,0x20
    80001608:	fff30313          	addi	t1,t1,-1
    8000160c:	00b30463          	beq	t1,a1,80001614 <inst_127>
    80001610:	a15fe06f          	j	80000024 <rvtest_error>

0000000080001614 <inst_127>:
    80001614:	00100513          	li	a0,1
    80001618:	01c51513          	slli	a0,a0,0x1c
    8000161c:	fff54513          	not	a0,a0
    80001620:	00c55593          	srli	a1,a0,0xc
    80001624:	34b1b423          	sd	a1,840(gp)
    80001628:	0010031b          	addiw	t1,zero,1
    8000162c:	02431313          	slli	t1,t1,0x24
    80001630:	fff30313          	addi	t1,t1,-1
    80001634:	01031313          	slli	t1,t1,0x10
    80001638:	fff30313          	addi	t1,t1,-1
    8000163c:	00b30463          	beq	t1,a1,80001644 <inst_128>
    80001640:	9e5fe06f          	j	80000024 <rvtest_error>

0000000080001644 <inst_128>:
    80001644:	00100513          	li	a0,1
    80001648:	01d51513          	slli	a0,a0,0x1d
    8000164c:	fff54513          	not	a0,a0
    80001650:	00e55593          	srli	a1,a0,0xe
    80001654:	34b1b823          	sd	a1,848(gp)
    80001658:	0010031b          	addiw	t1,zero,1
    8000165c:	02331313          	slli	t1,t1,0x23
    80001660:	fff30313          	addi	t1,t1,-1
    80001664:	00f31313          	slli	t1,t1,0xf
    80001668:	fff30313          	addi	t1,t1,-1
    8000166c:	00b30463          	beq	t1,a1,80001674 <inst_129>
    80001670:	9b5fe06f          	j	80000024 <rvtest_error>

0000000080001674 <inst_129>:
    80001674:	00100513          	li	a0,1
    80001678:	01e51513          	slli	a0,a0,0x1e
    8000167c:	fff54513          	not	a0,a0
    80001680:	03755593          	srli	a1,a0,0x37
    80001684:	34b1bc23          	sd	a1,856(gp)
    80001688:	1ff00313          	li	t1,511
    8000168c:	00b30463          	beq	t1,a1,80001694 <inst_130>
    80001690:	995fe06f          	j	80000024 <rvtest_error>

0000000080001694 <inst_130>:
    80001694:	00100513          	li	a0,1
    80001698:	01f51513          	slli	a0,a0,0x1f
    8000169c:	fff54513          	not	a0,a0
    800016a0:	00155593          	srli	a1,a0,0x1
    800016a4:	36b1b023          	sd	a1,864(gp)
    800016a8:	0010031b          	addiw	t1,zero,1
    800016ac:	02131313          	slli	t1,t1,0x21
    800016b0:	fff30313          	addi	t1,t1,-1
    800016b4:	01e31313          	slli	t1,t1,0x1e
    800016b8:	fff30313          	addi	t1,t1,-1
    800016bc:	00b30463          	beq	t1,a1,800016c4 <inst_131>
    800016c0:	965fe06f          	j	80000024 <rvtest_error>

00000000800016c4 <inst_131>:
    800016c4:	00100513          	li	a0,1
    800016c8:	02051513          	slli	a0,a0,0x20
    800016cc:	fff54513          	not	a0,a0
    800016d0:	01255593          	srli	a1,a0,0x12
    800016d4:	36b1b423          	sd	a1,872(gp)
    800016d8:	0010031b          	addiw	t1,zero,1
    800016dc:	02031313          	slli	t1,t1,0x20
    800016e0:	fff30313          	addi	t1,t1,-1
    800016e4:	00e31313          	slli	t1,t1,0xe
    800016e8:	fff30313          	addi	t1,t1,-1
    800016ec:	00b30463          	beq	t1,a1,800016f4 <inst_132>
    800016f0:	935fe06f          	j	80000024 <rvtest_error>

00000000800016f4 <inst_132>:
    800016f4:	00100513          	li	a0,1
    800016f8:	02151513          	slli	a0,a0,0x21
    800016fc:	fff54513          	not	a0,a0
    80001700:	01155593          	srli	a1,a0,0x11
    80001704:	36b1b823          	sd	a1,880(gp)
    80001708:	80000337          	lui	t1,0x80000
    8000170c:	fff3031b          	addiw	t1,t1,-1 # 7fffffff <absimmsh+0x7452f252>
    80001710:	01031313          	slli	t1,t1,0x10
    80001714:	fff30313          	addi	t1,t1,-1
    80001718:	00b30463          	beq	t1,a1,80001720 <inst_133>
    8000171c:	909fe06f          	j	80000024 <rvtest_error>

0000000080001720 <inst_133>:
    80001720:	00100513          	li	a0,1
    80001724:	02251513          	slli	a0,a0,0x22
    80001728:	fff54513          	not	a0,a0
    8000172c:	00e55593          	srli	a1,a0,0xe
    80001730:	36b1bc23          	sd	a1,888(gp)
    80001734:	40000337          	lui	t1,0x40000
    80001738:	fff3031b          	addiw	t1,t1,-1 # 3fffffff <absimmsh+0x3452f252>
    8000173c:	01431313          	slli	t1,t1,0x14
    80001740:	fff30313          	addi	t1,t1,-1
    80001744:	00b30463          	beq	t1,a1,8000174c <inst_134>
    80001748:	8ddfe06f          	j	80000024 <rvtest_error>

000000008000174c <inst_134>:
    8000174c:	00100513          	li	a0,1
    80001750:	02351513          	slli	a0,a0,0x23
    80001754:	fff54513          	not	a0,a0
    80001758:	00055593          	srli	a1,a0,0x0
    8000175c:	38b1b023          	sd	a1,896(gp)
    80001760:	fff0031b          	addiw	t1,zero,-1
    80001764:	02331313          	slli	t1,t1,0x23
    80001768:	fff30313          	addi	t1,t1,-1
    8000176c:	00b30463          	beq	t1,a1,80001774 <inst_135>
    80001770:	8b5fe06f          	j	80000024 <rvtest_error>

0000000080001774 <inst_135>:
    80001774:	00100513          	li	a0,1
    80001778:	02451513          	slli	a0,a0,0x24
    8000177c:	fff54513          	not	a0,a0
    80001780:	00255593          	srli	a1,a0,0x2
    80001784:	38b1b423          	sd	a1,904(gp)
    80001788:	10000337          	lui	t1,0x10000
    8000178c:	fff3031b          	addiw	t1,t1,-1 # fffffff <absimmsh+0x452f252>
    80001790:	02231313          	slli	t1,t1,0x22
    80001794:	fff30313          	addi	t1,t1,-1
    80001798:	00b30463          	beq	t1,a1,800017a0 <inst_136>
    8000179c:	889fe06f          	j	80000024 <rvtest_error>

00000000800017a0 <inst_136>:
    800017a0:	00100513          	li	a0,1
    800017a4:	02651513          	slli	a0,a0,0x26
    800017a8:	fff54513          	not	a0,a0
    800017ac:	02055593          	srli	a1,a0,0x20
    800017b0:	38b1b823          	sd	a1,912(gp)
    800017b4:	0010031b          	addiw	t1,zero,1
    800017b8:	02031313          	slli	t1,t1,0x20
    800017bc:	fbf30313          	addi	t1,t1,-65
    800017c0:	00b30463          	beq	t1,a1,800017c8 <inst_137>
    800017c4:	861fe06f          	j	80000024 <rvtest_error>

00000000800017c8 <inst_137>:
    800017c8:	00100513          	li	a0,1
    800017cc:	02751513          	slli	a0,a0,0x27
    800017d0:	fff54513          	not	a0,a0
    800017d4:	00a55593          	srli	a1,a0,0xa
    800017d8:	38b1bc23          	sd	a1,920(gp)
    800017dc:	02000337          	lui	t1,0x2000
    800017e0:	fff3031b          	addiw	t1,t1,-1 # 1ffffff <offset+0x1fffbe7>
    800017e4:	01d31313          	slli	t1,t1,0x1d
    800017e8:	fff30313          	addi	t1,t1,-1
    800017ec:	00b30463          	beq	t1,a1,800017f4 <inst_138>
    800017f0:	835fe06f          	j	80000024 <rvtest_error>

00000000800017f4 <inst_138>:
    800017f4:	00100513          	li	a0,1
    800017f8:	02851513          	slli	a0,a0,0x28
    800017fc:	fff54513          	not	a0,a0
    80001800:	00d55593          	srli	a1,a0,0xd
    80001804:	3ab1b023          	sd	a1,928(gp)
    80001808:	01000337          	lui	t1,0x1000
    8000180c:	fff3031b          	addiw	t1,t1,-1 # ffffff <offset+0xfffbe7>
    80001810:	01b31313          	slli	t1,t1,0x1b
    80001814:	fff30313          	addi	t1,t1,-1
    80001818:	00b30463          	beq	t1,a1,80001820 <inst_139>
    8000181c:	809fe06f          	j	80000024 <rvtest_error>

0000000080001820 <inst_139>:
    80001820:	00100513          	li	a0,1
    80001824:	02951513          	slli	a0,a0,0x29
    80001828:	fff54513          	not	a0,a0
    8000182c:	00855593          	srli	a1,a0,0x8
    80001830:	3ab1b423          	sd	a1,936(gp)
    80001834:	00800337          	lui	t1,0x800
    80001838:	fff3031b          	addiw	t1,t1,-1 # 7fffff <offset+0x7ffbe7>
    8000183c:	02131313          	slli	t1,t1,0x21
    80001840:	fff30313          	addi	t1,t1,-1
    80001844:	00b30463          	beq	t1,a1,8000184c <inst_140>
    80001848:	fdcfe06f          	j	80000024 <rvtest_error>

000000008000184c <inst_140>:
    8000184c:	00100513          	li	a0,1
    80001850:	02a51513          	slli	a0,a0,0x2a
    80001854:	fff54513          	not	a0,a0
    80001858:	00b55593          	srli	a1,a0,0xb
    8000185c:	3ab1b823          	sd	a1,944(gp)
    80001860:	00400337          	lui	t1,0x400
    80001864:	fff3031b          	addiw	t1,t1,-1 # 3fffff <offset+0x3ffbe7>
    80001868:	01f31313          	slli	t1,t1,0x1f
    8000186c:	fff30313          	addi	t1,t1,-1
    80001870:	00b30463          	beq	t1,a1,80001878 <inst_141>
    80001874:	fb0fe06f          	j	80000024 <rvtest_error>

0000000080001878 <inst_141>:
    80001878:	00100513          	li	a0,1
    8000187c:	02b51513          	slli	a0,a0,0x2b
    80001880:	fff54513          	not	a0,a0
    80001884:	00655593          	srli	a1,a0,0x6
    80001888:	3ab1bc23          	sd	a1,952(gp)
    8000188c:	00200337          	lui	t1,0x200
    80001890:	fff3031b          	addiw	t1,t1,-1 # 1fffff <offset+0x1ffbe7>
    80001894:	02531313          	slli	t1,t1,0x25
    80001898:	fff30313          	addi	t1,t1,-1
    8000189c:	00b30463          	beq	t1,a1,800018a4 <inst_142>
    800018a0:	f84fe06f          	j	80000024 <rvtest_error>

00000000800018a4 <inst_142>:
    800018a4:	00100513          	li	a0,1
    800018a8:	02c51513          	slli	a0,a0,0x2c
    800018ac:	fff54513          	not	a0,a0
    800018b0:	01255593          	srli	a1,a0,0x12
    800018b4:	3cb1b023          	sd	a1,960(gp)
    800018b8:	00100337          	lui	t1,0x100
    800018bc:	fff3031b          	addiw	t1,t1,-1 # fffff <offset+0xffbe7>
    800018c0:	01a31313          	slli	t1,t1,0x1a
    800018c4:	fff30313          	addi	t1,t1,-1
    800018c8:	00b30463          	beq	t1,a1,800018d0 <inst_143>
    800018cc:	f58fe06f          	j	80000024 <rvtest_error>

00000000800018d0 <inst_143>:
    800018d0:	00100513          	li	a0,1
    800018d4:	02d51513          	slli	a0,a0,0x2d
    800018d8:	fff54513          	not	a0,a0
    800018dc:	03d55593          	srli	a1,a0,0x3d
    800018e0:	3cb1b423          	sd	a1,968(gp)
    800018e4:	00700313          	li	t1,7
    800018e8:	00b30463          	beq	t1,a1,800018f0 <inst_144>
    800018ec:	f38fe06f          	j	80000024 <rvtest_error>

00000000800018f0 <inst_144>:
    800018f0:	00100513          	li	a0,1
    800018f4:	02e51513          	slli	a0,a0,0x2e
    800018f8:	fff54513          	not	a0,a0
    800018fc:	02a55593          	srli	a1,a0,0x2a
    80001900:	3cb1b823          	sd	a1,976(gp)
    80001904:	00400337          	lui	t1,0x400
    80001908:	fef3031b          	addiw	t1,t1,-17 # 3fffef <offset+0x3ffbd7>
    8000190c:	00b30463          	beq	t1,a1,80001914 <inst_145>
    80001910:	f14fe06f          	j	80000024 <rvtest_error>

0000000080001914 <inst_145>:
    80001914:	00100513          	li	a0,1
    80001918:	02f51513          	slli	a0,a0,0x2f
    8000191c:	fff54513          	not	a0,a0
    80001920:	01555593          	srli	a1,a0,0x15
    80001924:	3cb1bc23          	sd	a1,984(gp)
    80001928:	00020337          	lui	t1,0x20
    8000192c:	fff3031b          	addiw	t1,t1,-1 # 1ffff <offset+0x1fbe7>
    80001930:	01a31313          	slli	t1,t1,0x1a
    80001934:	fff30313          	addi	t1,t1,-1
    80001938:	00b30463          	beq	t1,a1,80001940 <inst_146>
    8000193c:	ee8fe06f          	j	80000024 <rvtest_error>

0000000080001940 <inst_146>:
    80001940:	00100513          	li	a0,1
    80001944:	03051513          	slli	a0,a0,0x30
    80001948:	fff54513          	not	a0,a0
    8000194c:	00755593          	srli	a1,a0,0x7
    80001950:	3eb1b023          	sd	a1,992(gp)
    80001954:	00010337          	lui	t1,0x10
    80001958:	fff3031b          	addiw	t1,t1,-1 # ffff <offset+0xfbe7>
    8000195c:	02931313          	slli	t1,t1,0x29
    80001960:	fff30313          	addi	t1,t1,-1
    80001964:	00b30463          	beq	t1,a1,8000196c <inst_147>
    80001968:	ebcfe06f          	j	80000024 <rvtest_error>

000000008000196c <inst_147>:
    8000196c:	00100513          	li	a0,1
    80001970:	03151513          	slli	a0,a0,0x31
    80001974:	fff54513          	not	a0,a0
    80001978:	03d55593          	srli	a1,a0,0x3d
    8000197c:	3eb1b423          	sd	a1,1000(gp)
    80001980:	00700313          	li	t1,7
    80001984:	00b30463          	beq	t1,a1,8000198c <inst_148>
    80001988:	e9cfe06f          	j	80000024 <rvtest_error>

000000008000198c <inst_148>:
    8000198c:	00100513          	li	a0,1
    80001990:	03251513          	slli	a0,a0,0x32
    80001994:	fff54513          	not	a0,a0
    80001998:	00555593          	srli	a1,a0,0x5
    8000199c:	3eb1b823          	sd	a1,1008(gp)
    800019a0:	00004337          	lui	t1,0x4
    800019a4:	fff3031b          	addiw	t1,t1,-1 # 3fff <offset+0x3be7>
    800019a8:	02d31313          	slli	t1,t1,0x2d
    800019ac:	fff30313          	addi	t1,t1,-1
    800019b0:	00b30463          	beq	t1,a1,800019b8 <inst_149>
    800019b4:	e70fe06f          	j	80000024 <rvtest_error>

00000000800019b8 <inst_149>:
    800019b8:	00100513          	li	a0,1
    800019bc:	03351513          	slli	a0,a0,0x33
    800019c0:	fff54513          	not	a0,a0
    800019c4:	00d55593          	srli	a1,a0,0xd
    800019c8:	3eb1bc23          	sd	a1,1016(gp)
    800019cc:	00002337          	lui	t1,0x2
    800019d0:	fff3031b          	addiw	t1,t1,-1 # 1fff <offset+0x1be7>
    800019d4:	02631313          	slli	t1,t1,0x26
    800019d8:	fff30313          	addi	t1,t1,-1
    800019dc:	00b30463          	beq	t1,a1,800019e4 <inst_150>
    800019e0:	e44fe06f          	j	80000024 <rvtest_error>

00000000800019e4 <inst_150>:
    800019e4:	00100513          	li	a0,1
    800019e8:	03451513          	slli	a0,a0,0x34
    800019ec:	fff54513          	not	a0,a0
    800019f0:	01555593          	srli	a1,a0,0x15
    800019f4:	40b1b023          	sd	a1,1024(gp)
    800019f8:	00001337          	lui	t1,0x1
    800019fc:	fff3031b          	addiw	t1,t1,-1 # fff <offset+0xbe7>
    80001a00:	01f31313          	slli	t1,t1,0x1f
    80001a04:	fff30313          	addi	t1,t1,-1
    80001a08:	00b30463          	beq	t1,a1,80001a10 <inst_151>
    80001a0c:	e18fe06f          	j	80000024 <rvtest_error>

0000000080001a10 <inst_151>:
    80001a10:	00000537          	lui	a0,0x0
    80001a14:	00050513          	mv	a0,a0
    80001a18:	00b51513          	slli	a0,a0,0xb
    80001a1c:	5a850513          	addi	a0,a0,1448 # 5a8 <offset+0x190>
    80001a20:	00b51513          	slli	a0,a0,0xb
    80001a24:	13c50513          	addi	a0,a0,316
    80001a28:	00a51513          	slli	a0,a0,0xa
    80001a2c:	33350513          	addi	a0,a0,819
    80001a30:	00e55593          	srli	a1,a0,0xe
    80001a34:	40b1b423          	sd	a1,1032(gp)
    80001a38:	0002d337          	lui	t1,0x2d
    80001a3c:	4133031b          	addiw	t1,t1,1043 # 2d413 <offset+0x2cffb>
    80001a40:	00b30463          	beq	t1,a1,80001a48 <inst_152>
    80001a44:	de0fe06f          	j	80000024 <rvtest_error>

0000000080001a48 <inst_152>:
    80001a48:	00100513          	li	a0,1
    80001a4c:	01251513          	slli	a0,a0,0x12
    80001a50:	00755593          	srli	a1,a0,0x7
    80001a54:	40b1b823          	sd	a1,1040(gp)
    80001a58:	00001337          	lui	t1,0x1
    80001a5c:	8003031b          	addiw	t1,t1,-2048 # 800 <offset+0x3e8>
    80001a60:	00b30463          	beq	t1,a1,80001a68 <cleanup_epilogs>
    80001a64:	dc0fe06f          	j	80000024 <rvtest_error>

0000000080001a68 <cleanup_epilogs>:
    80001a68:	0380006f          	j	80001aa0 <exit_cleanup>

0000000080001a6c <abort_tests>:
    80001a6c:	1f813483          	ld	s1,504(sp)
    80001a70:	20013303          	ld	t1,512(sp)
    80001a74:	00930333          	add	t1,t1,s1
    80001a78:	00000337          	lui	t1,0x0
    80001a7c:	00030313          	mv	t1,t1
    80001a80:	00b31313          	slli	t1,t1,0xb
    80001a84:	5d630313          	addi	t1,t1,1494 # 5d6 <offset+0x1be>
    80001a88:	00b31313          	slli	t1,t1,0xb
    80001a8c:	43630313          	addi	t1,t1,1078
    80001a90:	00a31313          	slli	t1,t1,0xa
    80001a94:	2d030313          	addi	t1,t1,720
    80001a98:	fe64be23          	sd	t1,-4(s1)
    80001a9c:	0040006f          	j	80001aa0 <exit_cleanup>

0000000080001aa0 <exit_cleanup>:
    80001aa0:	00000513          	li	a0,0
    80001aa4:	0240006f          	j	80001ac8 <halt>
	...

0000000080001ac8 <halt>:
    80001ac8:	00050513          	mv	a0,a0
    80001acc:	00100073          	ebreak
    80001ad0:	0000006f          	j	80001ad0 <halt+0x8>

0000000080001ad4 <_trm_init>:
    80001ad4:	ff010113          	addi	sp,sp,-16
    80001ad8:	00000517          	auipc	a0,0x0
    80001adc:	02050513          	addi	a0,a0,32 # 80001af8 <mainargs>
    80001ae0:	00113423          	sd	ra,8(sp)
    80001ae4:	d2cfe0ef          	jal	ra,80000010 <main>
    80001ae8:	00050513          	mv	a0,a0
    80001aec:	00100073          	ebreak
    80001af0:	0000006f          	j	80001af0 <_trm_init+0x1c>
