
/home/maveric/ics2023/riscv-arch-test-am/build/srlw-riscv64-nemu.elf:     file format elf64-littleriscv


Disassembly of section .text:

0000000080000000 <_start>:
    80000000:	00000413          	li	s0,0
    80000004:	0000c117          	auipc	sp,0xc
    80000008:	ffc10113          	addi	sp,sp,-4 # 8000c000 <_end>
    8000000c:	30d010ef          	jal	ra,80001b18 <_trm_init>

0000000080000010 <main>:
    80000010:	030000ef          	jal	ra,80000040 <rvtest_entry_point>
    80000014:	00100513          	li	a0,1
    80000018:	2f5010ef          	jal	ra,80001b0c <halt>
    8000001c:	00000513          	li	a0,0
    80000020:	00008067          	ret

0000000080000024 <rvtest_error>:
    80000024:	00100513          	li	a0,1
    80000028:	2e5010ef          	jal	ra,80001b0c <halt>
    8000002c:	00008067          	ret
	...

0000000080000040 <rvtest_entry_point>:
    80000040:	feedc0b7          	lui	ra,0xfeedc
    80000044:	ead08093          	addi	ra,ra,-339 # fffffffffeedbead <absimm+0xffffffff441ce3dd>
    80000048:	00b09093          	slli	ra,ra,0xb
    8000004c:	7f708093          	addi	ra,ra,2039
    80000050:	00b09093          	slli	ra,ra,0xb
    80000054:	36f08093          	addi	ra,ra,879
    80000058:	00a09093          	slli	ra,ra,0xa
    8000005c:	2ad08093          	addi	ra,ra,685
    80000060:	ff76e137          	lui	sp,0xff76e
    80000064:	f5610113          	addi	sp,sp,-170 # ffffffffff76df56 <absimm+0xffffffff44a60486>
    80000068:	00b11113          	slli	sp,sp,0xb
    8000006c:	7fb10113          	addi	sp,sp,2043
    80000070:	00b11113          	slli	sp,sp,0xb
    80000074:	5b710113          	addi	sp,sp,1463
    80000078:	00a11113          	slli	sp,sp,0xa
    8000007c:	35610113          	addi	sp,sp,854
    80000080:	7fbb71b7          	lui	gp,0x7fbb7
    80000084:	fab18193          	addi	gp,gp,-85 # 7fbb6fab <absimmsh+0x740e61fe>
    80000088:	00b19193          	slli	gp,gp,0xb
    8000008c:	3fd18193          	addi	gp,gp,1021
    80000090:	00b19193          	slli	gp,gp,0xb
    80000094:	6db18193          	addi	gp,gp,1755
    80000098:	00a19193          	slli	gp,gp,0xa
    8000009c:	3ab18193          	addi	gp,gp,939
    800000a0:	bfddb237          	lui	tp,0xbfddb
    800000a4:	7d520213          	addi	tp,tp,2005 # ffffffffbfddb7d5 <absimm+0xffffffff050cdd05>
    800000a8:	00b21213          	slli	tp,tp,0xb
    800000ac:	5fe20213          	addi	tp,tp,1534 # 5fe <offset+0x1be>
    800000b0:	00b21213          	slli	tp,tp,0xb
    800000b4:	76d20213          	addi	tp,tp,1901 # 76d <offset+0x32d>
    800000b8:	00a21213          	slli	tp,tp,0xa
    800000bc:	3d520213          	addi	tp,tp,981 # 3d5 <pos+0x395>
    800000c0:	dfeee2b7          	lui	t0,0xdfeee
    800000c4:	bea28293          	addi	t0,t0,-1046 # ffffffffdfeedbea <absimm+0xffffffff251e011a>
    800000c8:	00b29293          	slli	t0,t0,0xb
    800000cc:	6ff28293          	addi	t0,t0,1791
    800000d0:	00b29293          	slli	t0,t0,0xb
    800000d4:	3b628293          	addi	t0,t0,950
    800000d8:	00a29293          	slli	t0,t0,0xa
    800000dc:	3ea28293          	addi	t0,t0,1002
    800000e0:	6ff77337          	lui	t1,0x6ff77
    800000e4:	df530313          	addi	t1,t1,-523 # 6ff76df5 <absimmsh+0x644a6048>
    800000e8:	00b31313          	slli	t1,t1,0xb
    800000ec:	37f30313          	addi	t1,t1,895
    800000f0:	00b31313          	slli	t1,t1,0xb
    800000f4:	5db30313          	addi	t1,t1,1499
    800000f8:	00a31313          	slli	t1,t1,0xa
    800000fc:	1f530313          	addi	t1,t1,501
    80000100:	b7fbb3b7          	lui	t2,0xb7fbb
    80000104:	6fa38393          	addi	t2,t2,1786 # ffffffffb7fbb6fa <absimm+0xfffffffefd2adc2a>
    80000108:	00b39393          	slli	t2,t2,0xb
    8000010c:	5bf38393          	addi	t2,t2,1471
    80000110:	00b39393          	slli	t2,t2,0xb
    80000114:	6ed38393          	addi	t2,t2,1773
    80000118:	00a39393          	slli	t2,t2,0xa
    8000011c:	2fa38393          	addi	t2,t2,762
    80000120:	5bfde437          	lui	s0,0x5bfde
    80000124:	b7d40413          	addi	s0,s0,-1155 # 5bfddb7d <absimmsh+0x5050cdd0>
    80000128:	00b41413          	slli	s0,s0,0xb
    8000012c:	2df40413          	addi	s0,s0,735
    80000130:	00b41413          	slli	s0,s0,0xb
    80000134:	77640413          	addi	s0,s0,1910
    80000138:	00a41413          	slli	s0,s0,0xa
    8000013c:	37d40413          	addi	s0,s0,893
    80000140:	adfef4b7          	lui	s1,0xadfef
    80000144:	dbe48493          	addi	s1,s1,-578 # ffffffffadfeedbe <absimm+0xfffffffef32e12ee>
    80000148:	00b49493          	slli	s1,s1,0xb
    8000014c:	56f48493          	addi	s1,s1,1391
    80000150:	00b49493          	slli	s1,s1,0xb
    80000154:	7bb48493          	addi	s1,s1,1979
    80000158:	00a49493          	slli	s1,s1,0xa
    8000015c:	1be48493          	addi	s1,s1,446
    80000160:	56ff7537          	lui	a0,0x56ff7
    80000164:	6df50513          	addi	a0,a0,1759 # 56ff76df <absimmsh+0x4b526932>
    80000168:	00b51513          	slli	a0,a0,0xb
    8000016c:	2b750513          	addi	a0,a0,695
    80000170:	00b51513          	slli	a0,a0,0xb
    80000174:	7dd50513          	addi	a0,a0,2013
    80000178:	00a51513          	slli	a0,a0,0xa
    8000017c:	2df50513          	addi	a0,a0,735
    80000180:	ab7fc5b7          	lui	a1,0xab7fc
    80000184:	b6f58593          	addi	a1,a1,-1169 # ffffffffab7fbb6f <absimm+0xfffffffef0aee09f>
    80000188:	00b59593          	slli	a1,a1,0xb
    8000018c:	55b58593          	addi	a1,a1,1371
    80000190:	00b59593          	slli	a1,a1,0xb
    80000194:	7ee58593          	addi	a1,a1,2030
    80000198:	00a59593          	slli	a1,a1,0xa
    8000019c:	36f58593          	addi	a1,a1,879
    800001a0:	d5bfe637          	lui	a2,0xd5bfe
    800001a4:	db760613          	addi	a2,a2,-585 # ffffffffd5bfddb7 <absimm+0xffffffff1aef02e7>
    800001a8:	00b61613          	slli	a2,a2,0xb
    800001ac:	6ad60613          	addi	a2,a2,1709
    800001b0:	00b61613          	slli	a2,a2,0xb
    800001b4:	7f760613          	addi	a2,a2,2039
    800001b8:	00a61613          	slli	a2,a2,0xa
    800001bc:	1b760613          	addi	a2,a2,439
    800001c0:	eadff6b7          	lui	a3,0xeadff
    800001c4:	edb68693          	addi	a3,a3,-293 # ffffffffeadfeedb <absimm+0xffffffff300f140b>
    800001c8:	00b69693          	slli	a3,a3,0xb
    800001cc:	75668693          	addi	a3,a3,1878
    800001d0:	00b69693          	slli	a3,a3,0xb
    800001d4:	7fb68693          	addi	a3,a3,2043
    800001d8:	00a69693          	slli	a3,a3,0xa
    800001dc:	2db68693          	addi	a3,a3,731
    800001e0:	f56ff737          	lui	a4,0xf56ff
    800001e4:	76d70713          	addi	a4,a4,1901 # fffffffff56ff76d <absimm+0xffffffff3a9f1c9d>
    800001e8:	00b71713          	slli	a4,a4,0xb
    800001ec:	7ab70713          	addi	a4,a4,1963
    800001f0:	00b71713          	slli	a4,a4,0xb
    800001f4:	3fd70713          	addi	a4,a4,1021
    800001f8:	00a71713          	slli	a4,a4,0xa
    800001fc:	36d70713          	addi	a4,a4,877
    80000200:	fab807b7          	lui	a5,0xfab80
    80000204:	bb678793          	addi	a5,a5,-1098 # fffffffffab7fbb6 <absimm+0xffffffff3fe720e6>
    80000208:	00b79793          	slli	a5,a5,0xb
    8000020c:	7d578793          	addi	a5,a5,2005
    80000210:	00b79793          	slli	a5,a5,0xb
    80000214:	5fe78793          	addi	a5,a5,1534
    80000218:	00a79793          	slli	a5,a5,0xa
    8000021c:	3b678793          	addi	a5,a5,950
    80000220:	7d5c0837          	lui	a6,0x7d5c0
    80000224:	ddb80813          	addi	a6,a6,-549 # 7d5bfddb <absimmsh+0x71aef02e>
    80000228:	00b81813          	slli	a6,a6,0xb
    8000022c:	3ea80813          	addi	a6,a6,1002
    80000230:	00b81813          	slli	a6,a6,0xb
    80000234:	6ff80813          	addi	a6,a6,1791
    80000238:	00a81813          	slli	a6,a6,0xa
    8000023c:	1db80813          	addi	a6,a6,475
    80000240:	beae08b7          	lui	a7,0xbeae0
    80000244:	eed88893          	addi	a7,a7,-275 # ffffffffbeadfeed <absimm+0xffffffff03dd241d>
    80000248:	00b89893          	slli	a7,a7,0xb
    8000024c:	5f588893          	addi	a7,a7,1525
    80000250:	00b89893          	slli	a7,a7,0xb
    80000254:	37f88893          	addi	a7,a7,895
    80000258:	00a89893          	slli	a7,a7,0xa
    8000025c:	2ed88893          	addi	a7,a7,749
    80000260:	df570937          	lui	s2,0xdf570
    80000264:	f7690913          	addi	s2,s2,-138 # ffffffffdf56ff76 <absimm+0xffffffff248624a6>
    80000268:	00b91913          	slli	s2,s2,0xb
    8000026c:	6fa90913          	addi	s2,s2,1786
    80000270:	00b91913          	slli	s2,s2,0xb
    80000274:	5bf90913          	addi	s2,s2,1471
    80000278:	00a91913          	slli	s2,s2,0xa
    8000027c:	37690913          	addi	s2,s2,886
    80000280:	6fab89b7          	lui	s3,0x6fab8
    80000284:	fbb98993          	addi	s3,s3,-69 # 6fab7fbb <absimmsh+0x63fe720e>
    80000288:	00b99993          	slli	s3,s3,0xb
    8000028c:	37d98993          	addi	s3,s3,893
    80000290:	00b99993          	slli	s3,s3,0xb
    80000294:	2df98993          	addi	s3,s3,735
    80000298:	00a99993          	slli	s3,s3,0xa
    8000029c:	3bb98993          	addi	s3,s3,955
    800002a0:	b7d5ca37          	lui	s4,0xb7d5c
    800002a4:	fdda0a13          	addi	s4,s4,-35 # ffffffffb7d5bfdd <absimm+0xfffffffefd04e50d>
    800002a8:	00ba1a13          	slli	s4,s4,0xb
    800002ac:	5bea0a13          	addi	s4,s4,1470
    800002b0:	00ba1a13          	slli	s4,s4,0xb
    800002b4:	56fa0a13          	addi	s4,s4,1391
    800002b8:	00aa1a13          	slli	s4,s4,0xa
    800002bc:	3dda0a13          	addi	s4,s4,989
    800002c0:	dbeaeab7          	lui	s5,0xdbeae
    800002c4:	feea8a93          	addi	s5,s5,-18 # ffffffffdbeadfee <absimm+0xffffffff211a051e>
    800002c8:	00ba9a93          	slli	s5,s5,0xb
    800002cc:	6dfa8a93          	addi	s5,s5,1759
    800002d0:	00ba9a93          	slli	s5,s5,0xb
    800002d4:	2b7a8a93          	addi	s5,s5,695
    800002d8:	00aa9a93          	slli	s5,s5,0xa
    800002dc:	3eea8a93          	addi	s5,s5,1006
    800002e0:	6df57b37          	lui	s6,0x6df57
    800002e4:	ff7b0b13          	addi	s6,s6,-9 # 6df56ff7 <absimmsh+0x6248624a>
    800002e8:	00bb1b13          	slli	s6,s6,0xb
    800002ec:	36fb0b13          	addi	s6,s6,879
    800002f0:	00bb1b13          	slli	s6,s6,0xb
    800002f4:	55bb0b13          	addi	s6,s6,1371
    800002f8:	00ab1b13          	slli	s6,s6,0xa
    800002fc:	3f7b0b13          	addi	s6,s6,1015
    80000300:	b6fabbb7          	lui	s7,0xb6fab
    80000304:	7fbb8b93          	addi	s7,s7,2043 # ffffffffb6fab7fb <absimm+0xfffffffefc29dd2b>
    80000308:	00bb9b93          	slli	s7,s7,0xb
    8000030c:	5b7b8b93          	addi	s7,s7,1463
    80000310:	00bb9b93          	slli	s7,s7,0xb
    80000314:	6adb8b93          	addi	s7,s7,1709
    80000318:	00ab9b93          	slli	s7,s7,0xa
    8000031c:	3fbb8b93          	addi	s7,s7,1019
    80000320:	db7d6c37          	lui	s8,0xdb7d6
    80000324:	bfdc0c13          	addi	s8,s8,-1027 # ffffffffdb7d5bfd <absimm+0xffffffff20ac812d>
    80000328:	00bc1c13          	slli	s8,s8,0xb
    8000032c:	6dbc0c13          	addi	s8,s8,1755
    80000330:	00bc1c13          	slli	s8,s8,0xb
    80000334:	756c0c13          	addi	s8,s8,1878
    80000338:	00ac1c13          	slli	s8,s8,0xa
    8000033c:	3fdc0c13          	addi	s8,s8,1021
    80000340:	edbebcb7          	lui	s9,0xedbeb
    80000344:	dfec8c93          	addi	s9,s9,-514 # ffffffffedbeadfe <absimm+0xffffffff32edd32e>
    80000348:	00bc9c93          	slli	s9,s9,0xb
    8000034c:	76dc8c93          	addi	s9,s9,1901
    80000350:	00bc9c93          	slli	s9,s9,0xb
    80000354:	7abc8c93          	addi	s9,s9,1963
    80000358:	00ac9c93          	slli	s9,s9,0xa
    8000035c:	1fec8c93          	addi	s9,s9,510
    80000360:	76df5d37          	lui	s10,0x76df5
    80000364:	6ffd0d13          	addi	s10,s10,1791 # 76df56ff <absimmsh+0x6b324952>
    80000368:	00bd1d13          	slli	s10,s10,0xb
    8000036c:	3b6d0d13          	addi	s10,s10,950
    80000370:	00bd1d13          	slli	s10,s10,0xb
    80000374:	7d5d0d13          	addi	s10,s10,2005
    80000378:	00ad1d13          	slli	s10,s10,0xa
    8000037c:	2ffd0d13          	addi	s10,s10,767
    80000380:	bb6fbdb7          	lui	s11,0xbb6fb
    80000384:	b7fd8d93          	addi	s11,s11,-1153 # ffffffffbb6fab7f <absimm+0xffffffff009ed0af>
    80000388:	00bd9d93          	slli	s11,s11,0xb
    8000038c:	5dbd8d93          	addi	s11,s11,1499
    80000390:	00bd9d93          	slli	s11,s11,0xb
    80000394:	3ead8d93          	addi	s11,s11,1002
    80000398:	00ad9d93          	slli	s11,s11,0xa
    8000039c:	37fd8d93          	addi	s11,s11,895
    800003a0:	ddb7de37          	lui	t3,0xddb7d
    800003a4:	5bfe0e13          	addi	t3,t3,1471 # ffffffffddb7d5bf <absimm+0xffffffff22e6faef>
    800003a8:	00be1e13          	slli	t3,t3,0xb
    800003ac:	6ede0e13          	addi	t3,t3,1773
    800003b0:	00be1e13          	slli	t3,t3,0xb
    800003b4:	5f5e0e13          	addi	t3,t3,1525
    800003b8:	00ae1e13          	slli	t3,t3,0xa
    800003bc:	1bfe0e13          	addi	t3,t3,447
    800003c0:	eedbfeb7          	lui	t4,0xeedbf
    800003c4:	adfe8e93          	addi	t4,t4,-1313 # ffffffffeedbeadf <absimm+0xffffffff340b100f>
    800003c8:	00be9e93          	slli	t4,t4,0xb
    800003cc:	776e8e93          	addi	t4,t4,1910
    800003d0:	00be9e93          	slli	t4,t4,0xb
    800003d4:	6fae8e93          	addi	t4,t4,1786
    800003d8:	00ae9e93          	slli	t4,t4,0xa
    800003dc:	2dfe8e93          	addi	t4,t4,735
    800003e0:	f76dff37          	lui	t5,0xf76df
    800003e4:	56ff0f13          	addi	t5,t5,1391 # fffffffff76df56f <absimm+0xffffffff3c9d1a9f>
    800003e8:	00bf1f13          	slli	t5,t5,0xb
    800003ec:	7bbf0f13          	addi	t5,t5,1979
    800003f0:	00bf1f13          	slli	t5,t5,0xb
    800003f4:	37df0f13          	addi	t5,t5,893
    800003f8:	00af1f13          	slli	t5,t5,0xa
    800003fc:	16ff0f13          	addi	t5,t5,367
    80000400:	fbb70fb7          	lui	t6,0xfbb70
    80000404:	ab7f8f93          	addi	t6,t6,-1353 # fffffffffbb6fab7 <absimm+0xffffffff40e61fe7>
    80000408:	00bf9f93          	slli	t6,t6,0xb
    8000040c:	7ddf8f93          	addi	t6,t6,2013
    80000410:	00bf9f93          	slli	t6,t6,0xb
    80000414:	5bef8f93          	addi	t6,t6,1470
    80000418:	00af9f93          	slli	t6,t6,0xa
    8000041c:	2b7f8f93          	addi	t6,t6,695

0000000080000420 <rvtest_code_begin>:
    80000420:	00003417          	auipc	s0,0x3
    80000424:	be840413          	addi	s0,s0,-1048 # 80003008 <signature_x8_0>
    80000428:	00000013          	nop
    8000042c:	00000013          	nop
    80000430:	00000013          	nop
    80000434:	00000013          	nop
    80000438:	00000013          	nop
    8000043c:	00000013          	nop

0000000080000440 <inst_0>:
    80000440:	000008b7          	lui	a7,0x0
    80000444:	fff88893          	addi	a7,a7,-1
    80000448:	00b89893          	slli	a7,a7,0xb
    8000044c:	25788893          	addi	a7,a7,599
    80000450:	00b89893          	slli	a7,a7,0xb
    80000454:	6c388893          	addi	a7,a7,1731
    80000458:	00a89893          	slli	a7,a7,0xa
    8000045c:	0cd88893          	addi	a7,a7,205
    80000460:	000008b7          	lui	a7,0x0
    80000464:	fff88893          	addi	a7,a7,-1
    80000468:	00b89893          	slli	a7,a7,0xb
    8000046c:	25788893          	addi	a7,a7,599
    80000470:	00b89893          	slli	a7,a7,0xb
    80000474:	6c388893          	addi	a7,a7,1731
    80000478:	00a89893          	slli	a7,a7,0xa
    8000047c:	0cd88893          	addi	a7,a7,205
    80000480:	0118dc3b          	srlw	s8,a7,a7
    80000484:	01843023          	sd	s8,0(s0)
    80000488:	00025537          	lui	a0,0x25
    8000048c:	7d85051b          	addiw	a0,a0,2008 # 257d8 <offset+0x25398>
    80000490:	01850463          	beq	a0,s8,80000498 <inst_1>
    80000494:	b91ff06f          	j	80000024 <rvtest_error>

0000000080000498 <inst_1>:
    80000498:	00100193          	li	gp,1
    8000049c:	03a19193          	slli	gp,gp,0x3a
    800004a0:	00200613          	li	a2,2
    800004a4:	00c1d63b          	srlw	a2,gp,a2
    800004a8:	00c43423          	sd	a2,8(s0)
    800004ac:	00000513          	li	a0,0
    800004b0:	00c50463          	beq	a0,a2,800004b8 <inst_2>
    800004b4:	b71ff06f          	j	80000024 <rvtest_error>

00000000800004b8 <inst_2>:
    800004b8:	00100393          	li	t2,1
    800004bc:	03439393          	slli	t2,t2,0x34
    800004c0:	fff3c393          	not	t2,t2
    800004c4:	00100393          	li	t2,1
    800004c8:	03439393          	slli	t2,t2,0x34
    800004cc:	fff3c393          	not	t2,t2
    800004d0:	0073d3bb          	srlw	t2,t2,t2
    800004d4:	00743823          	sd	t2,16(s0)
    800004d8:	00100513          	li	a0,1
    800004dc:	00750463          	beq	a0,t2,800004e4 <inst_3>
    800004e0:	b45ff06f          	j	80000024 <rvtest_error>

00000000800004e4 <inst_3>:
    800004e4:	00100493          	li	s1,1
    800004e8:	02f49493          	slli	s1,s1,0x2f
    800004ec:	00000793          	li	a5,0
    800004f0:	00f4db3b          	srlw	s6,s1,a5
    800004f4:	01643c23          	sd	s6,24(s0)
    800004f8:	00000513          	li	a0,0
    800004fc:	01650463          	beq	a0,s6,80000504 <inst_4>
    80000500:	b25ff06f          	j	80000024 <rvtest_error>

0000000080000504 <inst_4>:
    80000504:	00700593          	li	a1,7
    80000508:	00700213          	li	tp,7
    8000050c:	0045d5bb          	srlw	a1,a1,tp
    80000510:	02b43023          	sd	a1,32(s0)
    80000514:	00000513          	li	a0,0
    80000518:	00b50463          	beq	a0,a1,80000520 <inst_5>
    8000051c:	b09ff06f          	j	80000024 <rvtest_error>

0000000080000520 <inst_5>:
    80000520:	fff00213          	li	tp,-1
    80000524:	03f21213          	slli	tp,tp,0x3f
    80000528:	00f00c13          	li	s8,15
    8000052c:	018250bb          	srlw	ra,tp,s8
    80000530:	02143423          	sd	ra,40(s0)
    80000534:	00000513          	li	a0,0
    80000538:	00150463          	beq	a0,ra,80000540 <inst_6>
    8000053c:	ae9ff06f          	j	80000024 <rvtest_error>

0000000080000540 <inst_6>:
    80000540:	00000113          	li	sp,0
    80000544:	01200913          	li	s2,18
    80000548:	0121503b          	srlw	zero,sp,s2
    8000054c:	02043823          	sd	zero,48(s0)
    80000550:	00000513          	li	a0,0
    80000554:	00050463          	beqz	a0,8000055c <inst_7>
    80000558:	acdff06f          	j	80000024 <rvtest_error>

000000008000055c <inst_7>:
    8000055c:	fff00a93          	li	s5,-1
    80000560:	001ada93          	srli	s5,s5,0x1
    80000564:	00000013          	nop
    80000568:	000ad2bb          	srlw	t0,s5,zero
    8000056c:	02543c23          	sd	t0,56(s0)
    80000570:	fff00513          	li	a0,-1
    80000574:	00550463          	beq	a0,t0,8000057c <inst_8>
    80000578:	aadff06f          	j	80000024 <rvtest_error>

000000008000057c <inst_8>:
    8000057c:	00100793          	li	a5,1
    80000580:	00200493          	li	s1,2
    80000584:	0097dabb          	srlw	s5,a5,s1
    80000588:	05543023          	sd	s5,64(s0)
    8000058c:	00000513          	li	a0,0
    80000590:	01550463          	beq	a0,s5,80000598 <inst_9>
    80000594:	a91ff06f          	j	80000024 <rvtest_error>

0000000080000598 <inst_9>:
    80000598:	00200693          	li	a3,2
    8000059c:	01300f13          	li	t5,19
    800005a0:	01e6d33b          	srlw	t1,a3,t5
    800005a4:	04643423          	sd	t1,72(s0)
    800005a8:	00000513          	li	a0,0
    800005ac:	00650463          	beq	a0,t1,800005b4 <inst_10>
    800005b0:	a75ff06f          	j	80000024 <rvtest_error>

00000000800005b4 <inst_10>:
    800005b4:	00400b13          	li	s6,4
    800005b8:	00e00a13          	li	s4,14
    800005bc:	014b5bbb          	srlw	s7,s6,s4
    800005c0:	05743823          	sd	s7,80(s0)
    800005c4:	00000513          	li	a0,0
    800005c8:	01750463          	beq	a0,s7,800005d0 <inst_11>
    800005cc:	a59ff06f          	j	80000024 <rvtest_error>

00000000800005d0 <inst_11>:
    800005d0:	00800613          	li	a2,8
    800005d4:	01200d13          	li	s10,18
    800005d8:	01a65e3b          	srlw	t3,a2,s10
    800005dc:	05c43c23          	sd	t3,88(s0)
    800005e0:	00000513          	li	a0,0
    800005e4:	01c50463          	beq	a0,t3,800005ec <inst_12>
    800005e8:	a3dff06f          	j	80000024 <rvtest_error>

00000000800005ec <inst_12>:
    800005ec:	01000c13          	li	s8,16
    800005f0:	01200f93          	li	t6,18
    800005f4:	01fc513b          	srlw	sp,s8,t6
    800005f8:	06243023          	sd	sp,96(s0)
    800005fc:	00000513          	li	a0,0
    80000600:	00250463          	beq	a0,sp,80000608 <inst_13>
    80000604:	a21ff06f          	j	80000024 <rvtest_error>

0000000080000608 <inst_13>:
    80000608:	02000813          	li	a6,32
    8000060c:	01e00c93          	li	s9,30
    80000610:	01985dbb          	srlw	s11,a6,s9
    80000614:	07b43423          	sd	s11,104(s0)
    80000618:	00000513          	li	a0,0
    8000061c:	01b50463          	beq	a0,s11,80000624 <inst_14>
    80000620:	a05ff06f          	j	80000024 <rvtest_error>

0000000080000624 <inst_14>:
    80000624:	04000f93          	li	t6,64
    80000628:	00800093          	li	ra,8
    8000062c:	001fd7bb          	srlw	a5,t6,ra
    80000630:	06f43823          	sd	a5,112(s0)
    80000634:	00000513          	li	a0,0
    80000638:	00f50463          	beq	a0,a5,80000640 <inst_15>
    8000063c:	9e9ff06f          	j	80000024 <rvtest_error>

0000000080000640 <inst_15>:
    80000640:	00000013          	nop
    80000644:	00d00293          	li	t0,13
    80000648:	00505cbb          	srlw	s9,zero,t0
    8000064c:	07943c23          	sd	s9,120(s0)
    80000650:	00000513          	li	a0,0
    80000654:	01950463          	beq	a0,s9,8000065c <inst_16>
    80000658:	9cdff06f          	j	80000024 <rvtest_error>

000000008000065c <inst_16>:
    8000065c:	10000d93          	li	s11,256
    80000660:	01e00713          	li	a4,30
    80000664:	00eddf3b          	srlw	t5,s11,a4
    80000668:	09e43023          	sd	t5,128(s0)
    8000066c:	00000513          	li	a0,0
    80000670:	01e50463          	beq	a0,t5,80000678 <inst_17>
    80000674:	9b1ff06f          	j	80000024 <rvtest_error>

0000000080000678 <inst_17>:
    80000678:	20000313          	li	t1,512
    8000067c:	01b00993          	li	s3,27
    80000680:	0133523b          	srlw	tp,t1,s3
    80000684:	08443423          	sd	tp,136(s0)
    80000688:	00000393          	li	t2,0
    8000068c:	00438463          	beq	t2,tp,80000694 <inst_17+0x1c>
    80000690:	995ff06f          	j	80000024 <rvtest_error>
    80000694:	00000013          	nop
    80000698:	00000013          	nop
    8000069c:	00000013          	nop
    800006a0:	00003217          	auipc	tp,0x3
    800006a4:	9f820213          	addi	tp,tp,-1544 # 80003098 <signature_x4_0>
    800006a8:	00000013          	nop
    800006ac:	00000013          	nop
    800006b0:	00000013          	nop
    800006b4:	00000013          	nop
    800006b8:	00000013          	nop
    800006bc:	00000013          	nop

00000000800006c0 <inst_18>:
    800006c0:	40000a13          	li	s4,1024
    800006c4:	00500e13          	li	t3,5
    800006c8:	01ca51bb          	srlw	gp,s4,t3
    800006cc:	00323023          	sd	gp,0(tp) # 0 <_entry_offset>
    800006d0:	02000393          	li	t2,32
    800006d4:	00338463          	beq	t2,gp,800006dc <inst_19>
    800006d8:	94dff06f          	j	80000024 <rvtest_error>

00000000800006dc <inst_19>:
    800006dc:	00100913          	li	s2,1
    800006e0:	00b91913          	slli	s2,s2,0xb
    800006e4:	00300593          	li	a1,3
    800006e8:	00b95fbb          	srlw	t6,s2,a1
    800006ec:	01f23423          	sd	t6,8(tp) # 8 <edge2+0x3>
    800006f0:	10000393          	li	t2,256
    800006f4:	01f38463          	beq	t2,t6,800006fc <inst_20>
    800006f8:	92dff06f          	j	80000024 <rvtest_error>

00000000800006fc <inst_20>:
    800006fc:	00100f13          	li	t5,1
    80000700:	00cf1f13          	slli	t5,t5,0xc
    80000704:	00e00113          	li	sp,14
    80000708:	002f593b          	srlw	s2,t5,sp
    8000070c:	01223823          	sd	s2,16(tp) # 10 <edge2+0xb>
    80000710:	00000393          	li	t2,0
    80000714:	01238463          	beq	t2,s2,8000071c <inst_21>
    80000718:	90dff06f          	j	80000024 <rvtest_error>

000000008000071c <inst_21>:
    8000071c:	00100993          	li	s3,1
    80000720:	00d99993          	slli	s3,s3,0xd
    80000724:	00900a93          	li	s5,9
    80000728:	0159dd3b          	srlw	s10,s3,s5
    8000072c:	01a23c23          	sd	s10,24(tp) # 18 <edge2+0x13>
    80000730:	01000393          	li	t2,16
    80000734:	01a38463          	beq	t2,s10,8000073c <inst_22>
    80000738:	8edff06f          	j	80000024 <rvtest_error>

000000008000073c <inst_22>:
    8000073c:	00100093          	li	ra,1
    80000740:	00e09093          	slli	ra,ra,0xe
    80000744:	00500e93          	li	t4,5
    80000748:	01d0da3b          	srlw	s4,ra,t4
    8000074c:	03423023          	sd	s4,32(tp) # 20 <edge2+0x1b>
    80000750:	20000393          	li	t2,512
    80000754:	01438463          	beq	t2,s4,8000075c <inst_23>
    80000758:	8cdff06f          	j	80000024 <rvtest_error>

000000008000075c <inst_23>:
    8000075c:	00100c93          	li	s9,1
    80000760:	00fc9c93          	slli	s9,s9,0xf
    80000764:	01300b13          	li	s6,19
    80000768:	016cd4bb          	srlw	s1,s9,s6
    8000076c:	02923423          	sd	s1,40(tp) # 28 <edge2+0x23>
    80000770:	00000393          	li	t2,0
    80000774:	00938463          	beq	t2,s1,8000077c <inst_24>
    80000778:	8adff06f          	j	80000024 <rvtest_error>

000000008000077c <inst_24>:
    8000077c:	00100293          	li	t0,1
    80000780:	01029293          	slli	t0,t0,0x10
    80000784:	00e00313          	li	t1,14
    80000788:	0062d6bb          	srlw	a3,t0,t1
    8000078c:	02d23823          	sd	a3,48(tp) # 30 <edge2+0x2b>
    80000790:	00400393          	li	t2,4
    80000794:	00d38463          	beq	t2,a3,8000079c <inst_25>
    80000798:	88dff06f          	j	80000024 <rvtest_error>

000000008000079c <inst_25>:
    8000079c:	00100d13          	li	s10,1
    800007a0:	011d1d13          	slli	s10,s10,0x11
    800007a4:	00200193          	li	gp,2
    800007a8:	003d58bb          	srlw	a7,s10,gp
    800007ac:	03123c23          	sd	a7,56(tp) # 38 <edge2+0x33>
    800007b0:	000083b7          	lui	t2,0x8
    800007b4:	01138463          	beq	t2,a7,800007bc <inst_26>
    800007b8:	86dff06f          	j	80000024 <rvtest_error>

00000000800007bc <inst_26>:
    800007bc:	00100513          	li	a0,1
    800007c0:	01251513          	slli	a0,a0,0x12
    800007c4:	00300693          	li	a3,3
    800007c8:	00d5543b          	srlw	s0,a0,a3
    800007cc:	04823023          	sd	s0,64(tp) # 40 <pos>
    800007d0:	000083b7          	lui	t2,0x8
    800007d4:	00838463          	beq	t2,s0,800007dc <inst_27>
    800007d8:	84dff06f          	j	80000024 <rvtest_error>

00000000800007dc <inst_27>:
    800007dc:	00100b93          	li	s7,1
    800007e0:	013b9b93          	slli	s7,s7,0x13
    800007e4:	01f00513          	li	a0,31
    800007e8:	00abd83b          	srlw	a6,s7,a0
    800007ec:	05023423          	sd	a6,72(tp) # 48 <pos+0x8>
    800007f0:	00000393          	li	t2,0
    800007f4:	01038463          	beq	t2,a6,800007fc <inst_28>
    800007f8:	82dff06f          	j	80000024 <rvtest_error>

00000000800007fc <inst_28>:
    800007fc:	00100e13          	li	t3,1
    80000800:	014e1e13          	slli	t3,t3,0x14
    80000804:	00500413          	li	s0,5
    80000808:	008e553b          	srlw	a0,t3,s0
    8000080c:	04a23823          	sd	a0,80(tp) # 50 <pos+0x10>
    80000810:	000083b7          	lui	t2,0x8
    80000814:	00a38463          	beq	t2,a0,8000081c <inst_29>
    80000818:	80dff06f          	j	80000024 <rvtest_error>

000000008000081c <inst_29>:
    8000081c:	00100413          	li	s0,1
    80000820:	01541413          	slli	s0,s0,0x15
    80000824:	01200b93          	li	s7,18
    80000828:	0174573b          	srlw	a4,s0,s7
    8000082c:	04e23c23          	sd	a4,88(tp) # 58 <pos+0x18>
    80000830:	00800393          	li	t2,8
    80000834:	00e38463          	beq	t2,a4,8000083c <inst_30>
    80000838:	fecff06f          	j	80000024 <rvtest_error>

000000008000083c <inst_30>:
    8000083c:	00100e93          	li	t4,1
    80000840:	016e9e93          	slli	t4,t4,0x16
    80000844:	00300813          	li	a6,3
    80000848:	010ed9bb          	srlw	s3,t4,a6
    8000084c:	07323023          	sd	s3,96(tp) # 60 <pos+0x20>
    80000850:	000803b7          	lui	t2,0x80
    80000854:	01338463          	beq	t2,s3,8000085c <inst_31>
    80000858:	fccff06f          	j	80000024 <rvtest_error>

000000008000085c <inst_31>:
    8000085c:	00100713          	li	a4,1
    80000860:	01771713          	slli	a4,a4,0x17
    80000864:	00d00d93          	li	s11,13
    80000868:	01b75ebb          	srlw	t4,a4,s11
    8000086c:	07d23423          	sd	t4,104(tp) # 68 <pos+0x28>
    80000870:	40000393          	li	t2,1024
    80000874:	01d38463          	beq	t2,t4,8000087c <inst_32>
    80000878:	facff06f          	j	80000024 <rvtest_error>

000000008000087c <inst_32>:
    8000087c:	00100513          	li	a0,1
    80000880:	01851513          	slli	a0,a0,0x18
    80000884:	01e00593          	li	a1,30
    80000888:	00b5563b          	srlw	a2,a0,a1
    8000088c:	06c23823          	sd	a2,112(tp) # 70 <pos+0x30>
    80000890:	00000393          	li	t2,0
    80000894:	00c38463          	beq	t2,a2,8000089c <inst_33>
    80000898:	f8cff06f          	j	80000024 <rvtest_error>

000000008000089c <inst_33>:
    8000089c:	00100513          	li	a0,1
    800008a0:	01951513          	slli	a0,a0,0x19
    800008a4:	00c00593          	li	a1,12
    800008a8:	00b5563b          	srlw	a2,a0,a1
    800008ac:	06c23c23          	sd	a2,120(tp) # 78 <pos+0x38>
    800008b0:	000020b7          	lui	ra,0x2
    800008b4:	00c08463          	beq	ra,a2,800008bc <inst_34>
    800008b8:	f6cff06f          	j	80000024 <rvtest_error>

00000000800008bc <inst_34>:
    800008bc:	00100513          	li	a0,1
    800008c0:	01a51513          	slli	a0,a0,0x1a
    800008c4:	00b00593          	li	a1,11
    800008c8:	00b5563b          	srlw	a2,a0,a1
    800008cc:	08c23023          	sd	a2,128(tp) # 80 <pos+0x40>
    800008d0:	000080b7          	lui	ra,0x8
    800008d4:	00c08463          	beq	ra,a2,800008dc <inst_35>
    800008d8:	f4cff06f          	j	80000024 <rvtest_error>

00000000800008dc <inst_35>:
    800008dc:	00100513          	li	a0,1
    800008e0:	01b51513          	slli	a0,a0,0x1b
    800008e4:	00600593          	li	a1,6
    800008e8:	00b5563b          	srlw	a2,a0,a1
    800008ec:	08c23423          	sd	a2,136(tp) # 88 <pos+0x48>
    800008f0:	002000b7          	lui	ra,0x200
    800008f4:	00c08463          	beq	ra,a2,800008fc <inst_36>
    800008f8:	f2cff06f          	j	80000024 <rvtest_error>

00000000800008fc <inst_36>:
    800008fc:	00100513          	li	a0,1
    80000900:	01c51513          	slli	a0,a0,0x1c
    80000904:	00400593          	li	a1,4
    80000908:	00b5563b          	srlw	a2,a0,a1
    8000090c:	08c23823          	sd	a2,144(tp) # 90 <pos+0x50>
    80000910:	010000b7          	lui	ra,0x1000
    80000914:	00c08463          	beq	ra,a2,8000091c <inst_37>
    80000918:	f0cff06f          	j	80000024 <rvtest_error>

000000008000091c <inst_37>:
    8000091c:	00100513          	li	a0,1
    80000920:	01d51513          	slli	a0,a0,0x1d
    80000924:	00300593          	li	a1,3
    80000928:	00b5563b          	srlw	a2,a0,a1
    8000092c:	08c23c23          	sd	a2,152(tp) # 98 <pos+0x58>
    80000930:	040000b7          	lui	ra,0x4000
    80000934:	00c08463          	beq	ra,a2,8000093c <inst_38>
    80000938:	eecff06f          	j	80000024 <rvtest_error>

000000008000093c <inst_38>:
    8000093c:	00100513          	li	a0,1
    80000940:	01e51513          	slli	a0,a0,0x1e
    80000944:	00200593          	li	a1,2
    80000948:	00b5563b          	srlw	a2,a0,a1
    8000094c:	0ac23023          	sd	a2,160(tp) # a0 <pos+0x60>
    80000950:	100000b7          	lui	ra,0x10000
    80000954:	00c08463          	beq	ra,a2,8000095c <inst_39>
    80000958:	eccff06f          	j	80000024 <rvtest_error>

000000008000095c <inst_39>:
    8000095c:	00100513          	li	a0,1
    80000960:	01f51513          	slli	a0,a0,0x1f
    80000964:	00f00593          	li	a1,15
    80000968:	00b5563b          	srlw	a2,a0,a1
    8000096c:	0ac23423          	sd	a2,168(tp) # a8 <pos+0x68>
    80000970:	000100b7          	lui	ra,0x10
    80000974:	00c08463          	beq	ra,a2,8000097c <inst_40>
    80000978:	eacff06f          	j	80000024 <rvtest_error>

000000008000097c <inst_40>:
    8000097c:	00100513          	li	a0,1
    80000980:	02051513          	slli	a0,a0,0x20
    80000984:	00100593          	li	a1,1
    80000988:	00b5563b          	srlw	a2,a0,a1
    8000098c:	0ac23823          	sd	a2,176(tp) # b0 <pos+0x70>
    80000990:	00000093          	li	ra,0
    80000994:	00c08463          	beq	ra,a2,8000099c <inst_41>
    80000998:	e8cff06f          	j	80000024 <rvtest_error>

000000008000099c <inst_41>:
    8000099c:	00100513          	li	a0,1
    800009a0:	02151513          	slli	a0,a0,0x21
    800009a4:	01200593          	li	a1,18
    800009a8:	00b5563b          	srlw	a2,a0,a1
    800009ac:	0ac23c23          	sd	a2,184(tp) # b8 <pos+0x78>
    800009b0:	00000093          	li	ra,0
    800009b4:	00c08463          	beq	ra,a2,800009bc <inst_42>
    800009b8:	e6cff06f          	j	80000024 <rvtest_error>

00000000800009bc <inst_42>:
    800009bc:	00100513          	li	a0,1
    800009c0:	02251513          	slli	a0,a0,0x22
    800009c4:	00b00593          	li	a1,11
    800009c8:	00b5563b          	srlw	a2,a0,a1
    800009cc:	0cc23023          	sd	a2,192(tp) # c0 <pos+0x80>
    800009d0:	00000093          	li	ra,0
    800009d4:	00c08463          	beq	ra,a2,800009dc <inst_43>
    800009d8:	e4cff06f          	j	80000024 <rvtest_error>

00000000800009dc <inst_43>:
    800009dc:	00100513          	li	a0,1
    800009e0:	02351513          	slli	a0,a0,0x23
    800009e4:	00c00593          	li	a1,12
    800009e8:	00b5563b          	srlw	a2,a0,a1
    800009ec:	0cc23423          	sd	a2,200(tp) # c8 <pos+0x88>
    800009f0:	00000093          	li	ra,0
    800009f4:	00c08463          	beq	ra,a2,800009fc <inst_44>
    800009f8:	e2cff06f          	j	80000024 <rvtest_error>

00000000800009fc <inst_44>:
    800009fc:	00100513          	li	a0,1
    80000a00:	02451513          	slli	a0,a0,0x24
    80000a04:	00500593          	li	a1,5
    80000a08:	00b5563b          	srlw	a2,a0,a1
    80000a0c:	0cc23823          	sd	a2,208(tp) # d0 <pos+0x90>
    80000a10:	00000093          	li	ra,0
    80000a14:	00c08463          	beq	ra,a2,80000a1c <inst_45>
    80000a18:	e0cff06f          	j	80000024 <rvtest_error>

0000000080000a1c <inst_45>:
    80000a1c:	00100513          	li	a0,1
    80000a20:	02551513          	slli	a0,a0,0x25
    80000a24:	01e00593          	li	a1,30
    80000a28:	00b5563b          	srlw	a2,a0,a1
    80000a2c:	0cc23c23          	sd	a2,216(tp) # d8 <pos+0x98>
    80000a30:	00000093          	li	ra,0
    80000a34:	00c08463          	beq	ra,a2,80000a3c <inst_46>
    80000a38:	decff06f          	j	80000024 <rvtest_error>

0000000080000a3c <inst_46>:
    80000a3c:	00100513          	li	a0,1
    80000a40:	02651513          	slli	a0,a0,0x26
    80000a44:	01e00593          	li	a1,30
    80000a48:	00b5563b          	srlw	a2,a0,a1
    80000a4c:	0ec23023          	sd	a2,224(tp) # e0 <pos+0xa0>
    80000a50:	00000093          	li	ra,0
    80000a54:	00c08463          	beq	ra,a2,80000a5c <inst_47>
    80000a58:	dccff06f          	j	80000024 <rvtest_error>

0000000080000a5c <inst_47>:
    80000a5c:	00100513          	li	a0,1
    80000a60:	02751513          	slli	a0,a0,0x27
    80000a64:	01300593          	li	a1,19
    80000a68:	00b5563b          	srlw	a2,a0,a1
    80000a6c:	0ec23423          	sd	a2,232(tp) # e8 <pos+0xa8>
    80000a70:	00000093          	li	ra,0
    80000a74:	00c08463          	beq	ra,a2,80000a7c <inst_48>
    80000a78:	dacff06f          	j	80000024 <rvtest_error>

0000000080000a7c <inst_48>:
    80000a7c:	00100513          	li	a0,1
    80000a80:	02851513          	slli	a0,a0,0x28
    80000a84:	01200593          	li	a1,18
    80000a88:	00b5563b          	srlw	a2,a0,a1
    80000a8c:	0ec23823          	sd	a2,240(tp) # f0 <pos+0xb0>
    80000a90:	00000093          	li	ra,0
    80000a94:	00c08463          	beq	ra,a2,80000a9c <inst_49>
    80000a98:	d8cff06f          	j	80000024 <rvtest_error>

0000000080000a9c <inst_49>:
    80000a9c:	00100513          	li	a0,1
    80000aa0:	02951513          	slli	a0,a0,0x29
    80000aa4:	01300593          	li	a1,19
    80000aa8:	00b5563b          	srlw	a2,a0,a1
    80000aac:	0ec23c23          	sd	a2,248(tp) # f8 <pos+0xb8>
    80000ab0:	00000093          	li	ra,0
    80000ab4:	00c08463          	beq	ra,a2,80000abc <inst_50>
    80000ab8:	d6cff06f          	j	80000024 <rvtest_error>

0000000080000abc <inst_50>:
    80000abc:	00100513          	li	a0,1
    80000ac0:	02a51513          	slli	a0,a0,0x2a
    80000ac4:	00400593          	li	a1,4
    80000ac8:	00b5563b          	srlw	a2,a0,a1
    80000acc:	10c23023          	sd	a2,256(tp) # 100 <pos+0xc0>
    80000ad0:	00000093          	li	ra,0
    80000ad4:	00c08463          	beq	ra,a2,80000adc <inst_51>
    80000ad8:	d4cff06f          	j	80000024 <rvtest_error>

0000000080000adc <inst_51>:
    80000adc:	00100513          	li	a0,1
    80000ae0:	02b51513          	slli	a0,a0,0x2b
    80000ae4:	00000593          	li	a1,0
    80000ae8:	00b5563b          	srlw	a2,a0,a1
    80000aec:	10c23423          	sd	a2,264(tp) # 108 <pos+0xc8>
    80000af0:	00000093          	li	ra,0
    80000af4:	00c08463          	beq	ra,a2,80000afc <inst_52>
    80000af8:	d2cff06f          	j	80000024 <rvtest_error>

0000000080000afc <inst_52>:
    80000afc:	00100513          	li	a0,1
    80000b00:	02c51513          	slli	a0,a0,0x2c
    80000b04:	00f00593          	li	a1,15
    80000b08:	00b5563b          	srlw	a2,a0,a1
    80000b0c:	10c23823          	sd	a2,272(tp) # 110 <pos+0xd0>
    80000b10:	00000093          	li	ra,0
    80000b14:	00c08463          	beq	ra,a2,80000b1c <inst_53>
    80000b18:	d0cff06f          	j	80000024 <rvtest_error>

0000000080000b1c <inst_53>:
    80000b1c:	00100513          	li	a0,1
    80000b20:	02d51513          	slli	a0,a0,0x2d
    80000b24:	00600593          	li	a1,6
    80000b28:	00b5563b          	srlw	a2,a0,a1
    80000b2c:	10c23c23          	sd	a2,280(tp) # 118 <pos+0xd8>
    80000b30:	00000093          	li	ra,0
    80000b34:	00c08463          	beq	ra,a2,80000b3c <inst_54>
    80000b38:	cecff06f          	j	80000024 <rvtest_error>

0000000080000b3c <inst_54>:
    80000b3c:	00100513          	li	a0,1
    80000b40:	02e51513          	slli	a0,a0,0x2e
    80000b44:	00500593          	li	a1,5
    80000b48:	00b5563b          	srlw	a2,a0,a1
    80000b4c:	12c23023          	sd	a2,288(tp) # 120 <pos+0xe0>
    80000b50:	00000093          	li	ra,0
    80000b54:	00c08463          	beq	ra,a2,80000b5c <inst_55>
    80000b58:	cccff06f          	j	80000024 <rvtest_error>

0000000080000b5c <inst_55>:
    80000b5c:	00100513          	li	a0,1
    80000b60:	03051513          	slli	a0,a0,0x30
    80000b64:	00e00593          	li	a1,14
    80000b68:	00b5563b          	srlw	a2,a0,a1
    80000b6c:	12c23423          	sd	a2,296(tp) # 128 <pos+0xe8>
    80000b70:	00000093          	li	ra,0
    80000b74:	00c08463          	beq	ra,a2,80000b7c <inst_56>
    80000b78:	cacff06f          	j	80000024 <rvtest_error>

0000000080000b7c <inst_56>:
    80000b7c:	00100513          	li	a0,1
    80000b80:	03151513          	slli	a0,a0,0x31
    80000b84:	00700593          	li	a1,7
    80000b88:	00b5563b          	srlw	a2,a0,a1
    80000b8c:	12c23823          	sd	a2,304(tp) # 130 <pos+0xf0>
    80000b90:	00000093          	li	ra,0
    80000b94:	00c08463          	beq	ra,a2,80000b9c <inst_57>
    80000b98:	c8cff06f          	j	80000024 <rvtest_error>

0000000080000b9c <inst_57>:
    80000b9c:	00100513          	li	a0,1
    80000ba0:	03251513          	slli	a0,a0,0x32
    80000ba4:	01700593          	li	a1,23
    80000ba8:	00b5563b          	srlw	a2,a0,a1
    80000bac:	12c23c23          	sd	a2,312(tp) # 138 <pos+0xf8>
    80000bb0:	00000093          	li	ra,0
    80000bb4:	00c08463          	beq	ra,a2,80000bbc <inst_58>
    80000bb8:	c6cff06f          	j	80000024 <rvtest_error>

0000000080000bbc <inst_58>:
    80000bbc:	00100513          	li	a0,1
    80000bc0:	03351513          	slli	a0,a0,0x33
    80000bc4:	00a00593          	li	a1,10
    80000bc8:	00b5563b          	srlw	a2,a0,a1
    80000bcc:	14c23023          	sd	a2,320(tp) # 140 <pos+0x100>
    80000bd0:	00000093          	li	ra,0
    80000bd4:	00c08463          	beq	ra,a2,80000bdc <inst_59>
    80000bd8:	c4cff06f          	j	80000024 <rvtest_error>

0000000080000bdc <inst_59>:
    80000bdc:	00100513          	li	a0,1
    80000be0:	03451513          	slli	a0,a0,0x34
    80000be4:	01200593          	li	a1,18
    80000be8:	00b5563b          	srlw	a2,a0,a1
    80000bec:	14c23423          	sd	a2,328(tp) # 148 <pos+0x108>
    80000bf0:	00000093          	li	ra,0
    80000bf4:	00c08463          	beq	ra,a2,80000bfc <inst_60>
    80000bf8:	c2cff06f          	j	80000024 <rvtest_error>

0000000080000bfc <inst_60>:
    80000bfc:	00100513          	li	a0,1
    80000c00:	03551513          	slli	a0,a0,0x35
    80000c04:	00100593          	li	a1,1
    80000c08:	00b5563b          	srlw	a2,a0,a1
    80000c0c:	14c23823          	sd	a2,336(tp) # 150 <pos+0x110>
    80000c10:	00000093          	li	ra,0
    80000c14:	00c08463          	beq	ra,a2,80000c1c <inst_61>
    80000c18:	c0cff06f          	j	80000024 <rvtest_error>

0000000080000c1c <inst_61>:
    80000c1c:	00100513          	li	a0,1
    80000c20:	03651513          	slli	a0,a0,0x36
    80000c24:	00000593          	li	a1,0
    80000c28:	00b5563b          	srlw	a2,a0,a1
    80000c2c:	14c23c23          	sd	a2,344(tp) # 158 <pos+0x118>
    80000c30:	00000093          	li	ra,0
    80000c34:	00c08463          	beq	ra,a2,80000c3c <inst_62>
    80000c38:	becff06f          	j	80000024 <rvtest_error>

0000000080000c3c <inst_62>:
    80000c3c:	00100513          	li	a0,1
    80000c40:	03751513          	slli	a0,a0,0x37
    80000c44:	00500593          	li	a1,5
    80000c48:	00b5563b          	srlw	a2,a0,a1
    80000c4c:	16c23023          	sd	a2,352(tp) # 160 <pos+0x120>
    80000c50:	00000093          	li	ra,0
    80000c54:	00c08463          	beq	ra,a2,80000c5c <inst_63>
    80000c58:	bccff06f          	j	80000024 <rvtest_error>

0000000080000c5c <inst_63>:
    80000c5c:	00100513          	li	a0,1
    80000c60:	03851513          	slli	a0,a0,0x38
    80000c64:	01200593          	li	a1,18
    80000c68:	00b5563b          	srlw	a2,a0,a1
    80000c6c:	16c23423          	sd	a2,360(tp) # 168 <pos+0x128>
    80000c70:	00000093          	li	ra,0
    80000c74:	00c08463          	beq	ra,a2,80000c7c <inst_64>
    80000c78:	bacff06f          	j	80000024 <rvtest_error>

0000000080000c7c <inst_64>:
    80000c7c:	00100513          	li	a0,1
    80000c80:	03951513          	slli	a0,a0,0x39
    80000c84:	00b00593          	li	a1,11
    80000c88:	00b5563b          	srlw	a2,a0,a1
    80000c8c:	16c23823          	sd	a2,368(tp) # 170 <pos+0x130>
    80000c90:	00000093          	li	ra,0
    80000c94:	00c08463          	beq	ra,a2,80000c9c <inst_65>
    80000c98:	b8cff06f          	j	80000024 <rvtest_error>

0000000080000c9c <inst_65>:
    80000c9c:	00100513          	li	a0,1
    80000ca0:	03b51513          	slli	a0,a0,0x3b
    80000ca4:	01f00593          	li	a1,31
    80000ca8:	00b5563b          	srlw	a2,a0,a1
    80000cac:	16c23c23          	sd	a2,376(tp) # 178 <pos+0x138>
    80000cb0:	00000093          	li	ra,0
    80000cb4:	00c08463          	beq	ra,a2,80000cbc <inst_66>
    80000cb8:	b6cff06f          	j	80000024 <rvtest_error>

0000000080000cbc <inst_66>:
    80000cbc:	00100513          	li	a0,1
    80000cc0:	03c51513          	slli	a0,a0,0x3c
    80000cc4:	00700593          	li	a1,7
    80000cc8:	00b5563b          	srlw	a2,a0,a1
    80000ccc:	18c23023          	sd	a2,384(tp) # 180 <pos+0x140>
    80000cd0:	00000093          	li	ra,0
    80000cd4:	00c08463          	beq	ra,a2,80000cdc <inst_67>
    80000cd8:	b4cff06f          	j	80000024 <rvtest_error>

0000000080000cdc <inst_67>:
    80000cdc:	00100513          	li	a0,1
    80000ce0:	03d51513          	slli	a0,a0,0x3d
    80000ce4:	00100593          	li	a1,1
    80000ce8:	00b5563b          	srlw	a2,a0,a1
    80000cec:	18c23423          	sd	a2,392(tp) # 188 <pos+0x148>
    80000cf0:	00000093          	li	ra,0
    80000cf4:	00c08463          	beq	ra,a2,80000cfc <inst_68>
    80000cf8:	b2cff06f          	j	80000024 <rvtest_error>

0000000080000cfc <inst_68>:
    80000cfc:	00100513          	li	a0,1
    80000d00:	03e51513          	slli	a0,a0,0x3e
    80000d04:	01000593          	li	a1,16
    80000d08:	00b5563b          	srlw	a2,a0,a1
    80000d0c:	18c23823          	sd	a2,400(tp) # 190 <pos+0x150>
    80000d10:	00000093          	li	ra,0
    80000d14:	00c08463          	beq	ra,a2,80000d1c <inst_69>
    80000d18:	b0cff06f          	j	80000024 <rvtest_error>

0000000080000d1c <inst_69>:
    80000d1c:	ffe00513          	li	a0,-2
    80000d20:	00600593          	li	a1,6
    80000d24:	00b5563b          	srlw	a2,a0,a1
    80000d28:	18c23c23          	sd	a2,408(tp) # 198 <pos+0x158>
    80000d2c:	040000b7          	lui	ra,0x4000
    80000d30:	fff0809b          	addiw	ra,ra,-1 # 3ffffff <offset+0x3fffbbf>
    80000d34:	00c08463          	beq	ra,a2,80000d3c <inst_70>
    80000d38:	aecff06f          	j	80000024 <rvtest_error>

0000000080000d3c <inst_70>:
    80000d3c:	ffd00513          	li	a0,-3
    80000d40:	01b00593          	li	a1,27
    80000d44:	00b5563b          	srlw	a2,a0,a1
    80000d48:	1ac23023          	sd	a2,416(tp) # 1a0 <pos+0x160>
    80000d4c:	01f00093          	li	ra,31
    80000d50:	00c08463          	beq	ra,a2,80000d58 <inst_71>
    80000d54:	ad0ff06f          	j	80000024 <rvtest_error>

0000000080000d58 <inst_71>:
    80000d58:	ffb00513          	li	a0,-5
    80000d5c:	01300593          	li	a1,19
    80000d60:	00b5563b          	srlw	a2,a0,a1
    80000d64:	1ac23423          	sd	a2,424(tp) # 1a8 <pos+0x168>
    80000d68:	000020b7          	lui	ra,0x2
    80000d6c:	fff0809b          	addiw	ra,ra,-1 # 1fff <offset+0x1bbf>
    80000d70:	00c08463          	beq	ra,a2,80000d78 <inst_72>
    80000d74:	ab0ff06f          	j	80000024 <rvtest_error>

0000000080000d78 <inst_72>:
    80000d78:	ff700513          	li	a0,-9
    80000d7c:	00c00593          	li	a1,12
    80000d80:	00b5563b          	srlw	a2,a0,a1
    80000d84:	1ac23823          	sd	a2,432(tp) # 1b0 <pos+0x170>
    80000d88:	001000b7          	lui	ra,0x100
    80000d8c:	fff0809b          	addiw	ra,ra,-1 # fffff <offset+0xffbbf>
    80000d90:	00c08463          	beq	ra,a2,80000d98 <inst_73>
    80000d94:	a90ff06f          	j	80000024 <rvtest_error>

0000000080000d98 <inst_73>:
    80000d98:	fef00513          	li	a0,-17
    80000d9c:	00400593          	li	a1,4
    80000da0:	00b5563b          	srlw	a2,a0,a1
    80000da4:	1ac23c23          	sd	a2,440(tp) # 1b8 <pos+0x178>
    80000da8:	100000b7          	lui	ra,0x10000
    80000dac:	ffe0809b          	addiw	ra,ra,-2 # ffffffe <absimmsh+0x452f251>
    80000db0:	00c08463          	beq	ra,a2,80000db8 <inst_74>
    80000db4:	a70ff06f          	j	80000024 <rvtest_error>

0000000080000db8 <inst_74>:
    80000db8:	fdf00513          	li	a0,-33
    80000dbc:	00900593          	li	a1,9
    80000dc0:	00b5563b          	srlw	a2,a0,a1
    80000dc4:	1cc23023          	sd	a2,448(tp) # 1c0 <pos+0x180>
    80000dc8:	008000b7          	lui	ra,0x800
    80000dcc:	fff0809b          	addiw	ra,ra,-1 # 7fffff <offset+0x7ffbbf>
    80000dd0:	00c08463          	beq	ra,a2,80000dd8 <inst_75>
    80000dd4:	a50ff06f          	j	80000024 <rvtest_error>

0000000080000dd8 <inst_75>:
    80000dd8:	fbf00513          	li	a0,-65
    80000ddc:	00000593          	li	a1,0
    80000de0:	00b5563b          	srlw	a2,a0,a1
    80000de4:	1cc23423          	sd	a2,456(tp) # 1c8 <pos+0x188>
    80000de8:	fbf00093          	li	ra,-65
    80000dec:	00c08463          	beq	ra,a2,80000df4 <inst_76>
    80000df0:	a34ff06f          	j	80000024 <rvtest_error>

0000000080000df4 <inst_76>:
    80000df4:	f7f00513          	li	a0,-129
    80000df8:	01500593          	li	a1,21
    80000dfc:	00b5563b          	srlw	a2,a0,a1
    80000e00:	1cc23823          	sd	a2,464(tp) # 1d0 <pos+0x190>
    80000e04:	7ff00093          	li	ra,2047
    80000e08:	00c08463          	beq	ra,a2,80000e10 <inst_77>
    80000e0c:	a18ff06f          	j	80000024 <rvtest_error>

0000000080000e10 <inst_77>:
    80000e10:	eff00513          	li	a0,-257
    80000e14:	00100593          	li	a1,1
    80000e18:	00b5563b          	srlw	a2,a0,a1
    80000e1c:	1cc23c23          	sd	a2,472(tp) # 1d8 <pos+0x198>
    80000e20:	800000b7          	lui	ra,0x80000
    80000e24:	f7f0809b          	addiw	ra,ra,-129 # 7fffff7f <absimmsh+0x7452f1d2>
    80000e28:	00c08463          	beq	ra,a2,80000e30 <inst_78>
    80000e2c:	9f8ff06f          	j	80000024 <rvtest_error>

0000000080000e30 <inst_78>:
    80000e30:	dff00513          	li	a0,-513
    80000e34:	00900593          	li	a1,9
    80000e38:	00b5563b          	srlw	a2,a0,a1
    80000e3c:	1ec23023          	sd	a2,480(tp) # 1e0 <pos+0x1a0>
    80000e40:	008000b7          	lui	ra,0x800
    80000e44:	ffe0809b          	addiw	ra,ra,-2 # 7ffffe <offset+0x7ffbbe>
    80000e48:	00c08463          	beq	ra,a2,80000e50 <inst_79>
    80000e4c:	9d8ff06f          	j	80000024 <rvtest_error>

0000000080000e50 <inst_79>:
    80000e50:	bff00513          	li	a0,-1025
    80000e54:	00200593          	li	a1,2
    80000e58:	00b5563b          	srlw	a2,a0,a1
    80000e5c:	1ec23423          	sd	a2,488(tp) # 1e8 <pos+0x1a8>
    80000e60:	400000b7          	lui	ra,0x40000
    80000e64:	eff0809b          	addiw	ra,ra,-257 # 3ffffeff <absimmsh+0x3452f152>
    80000e68:	00c08463          	beq	ra,a2,80000e70 <inst_80>
    80000e6c:	9b8ff06f          	j	80000024 <rvtest_error>

0000000080000e70 <inst_80>:
    80000e70:	00100513          	li	a0,1
    80000e74:	00b51513          	slli	a0,a0,0xb
    80000e78:	fff54513          	not	a0,a0
    80000e7c:	00800593          	li	a1,8
    80000e80:	00b5563b          	srlw	a2,a0,a1
    80000e84:	1ec23823          	sd	a2,496(tp) # 1f0 <pos+0x1b0>
    80000e88:	010000b7          	lui	ra,0x1000
    80000e8c:	ff70809b          	addiw	ra,ra,-9 # fffff7 <offset+0xfffbb7>
    80000e90:	00c08463          	beq	ra,a2,80000e98 <inst_81>
    80000e94:	990ff06f          	j	80000024 <rvtest_error>

0000000080000e98 <inst_81>:
    80000e98:	00100513          	li	a0,1
    80000e9c:	00c51513          	slli	a0,a0,0xc
    80000ea0:	fff54513          	not	a0,a0
    80000ea4:	01300593          	li	a1,19
    80000ea8:	00b5563b          	srlw	a2,a0,a1
    80000eac:	1ec23c23          	sd	a2,504(tp) # 1f8 <pos+0x1b8>
    80000eb0:	000020b7          	lui	ra,0x2
    80000eb4:	fff0809b          	addiw	ra,ra,-1 # 1fff <offset+0x1bbf>
    80000eb8:	00c08463          	beq	ra,a2,80000ec0 <inst_82>
    80000ebc:	968ff06f          	j	80000024 <rvtest_error>

0000000080000ec0 <inst_82>:
    80000ec0:	00100513          	li	a0,1
    80000ec4:	00d51513          	slli	a0,a0,0xd
    80000ec8:	fff54513          	not	a0,a0
    80000ecc:	00c00593          	li	a1,12
    80000ed0:	00b5563b          	srlw	a2,a0,a1
    80000ed4:	20c23023          	sd	a2,512(tp) # 200 <pos+0x1c0>
    80000ed8:	001000b7          	lui	ra,0x100
    80000edc:	ffd0809b          	addiw	ra,ra,-3 # ffffd <offset+0xffbbd>
    80000ee0:	00c08463          	beq	ra,a2,80000ee8 <inst_83>
    80000ee4:	940ff06f          	j	80000024 <rvtest_error>

0000000080000ee8 <inst_83>:
    80000ee8:	00100513          	li	a0,1
    80000eec:	00e51513          	slli	a0,a0,0xe
    80000ef0:	fff54513          	not	a0,a0
    80000ef4:	00e00593          	li	a1,14
    80000ef8:	00b5563b          	srlw	a2,a0,a1
    80000efc:	20c23423          	sd	a2,520(tp) # 208 <pos+0x1c8>
    80000f00:	000400b7          	lui	ra,0x40
    80000f04:	ffe0809b          	addiw	ra,ra,-2 # 3fffe <offset+0x3fbbe>
    80000f08:	00c08463          	beq	ra,a2,80000f10 <inst_84>
    80000f0c:	918ff06f          	j	80000024 <rvtest_error>

0000000080000f10 <inst_84>:
    80000f10:	00100513          	li	a0,1
    80000f14:	00f51513          	slli	a0,a0,0xf
    80000f18:	fff54513          	not	a0,a0
    80000f1c:	00100593          	li	a1,1
    80000f20:	00b5563b          	srlw	a2,a0,a1
    80000f24:	20c23823          	sd	a2,528(tp) # 210 <pos+0x1d0>
    80000f28:	7fffc0b7          	lui	ra,0x7fffc
    80000f2c:	fff0809b          	addiw	ra,ra,-1 # 7fffbfff <absimmsh+0x7452b252>
    80000f30:	00c08463          	beq	ra,a2,80000f38 <inst_85>
    80000f34:	8f0ff06f          	j	80000024 <rvtest_error>

0000000080000f38 <inst_85>:
    80000f38:	00100513          	li	a0,1
    80000f3c:	01051513          	slli	a0,a0,0x10
    80000f40:	fff54513          	not	a0,a0
    80000f44:	00f00593          	li	a1,15
    80000f48:	00b5563b          	srlw	a2,a0,a1
    80000f4c:	20c23c23          	sd	a2,536(tp) # 218 <pos+0x1d8>
    80000f50:	000200b7          	lui	ra,0x20
    80000f54:	ffd0809b          	addiw	ra,ra,-3 # 1fffd <offset+0x1fbbd>
    80000f58:	00c08463          	beq	ra,a2,80000f60 <inst_86>
    80000f5c:	8c8ff06f          	j	80000024 <rvtest_error>

0000000080000f60 <inst_86>:
    80000f60:	00100513          	li	a0,1
    80000f64:	01151513          	slli	a0,a0,0x11
    80000f68:	fff54513          	not	a0,a0
    80000f6c:	01200593          	li	a1,18
    80000f70:	00b5563b          	srlw	a2,a0,a1
    80000f74:	22c23023          	sd	a2,544(tp) # 220 <pos+0x1e0>
    80000f78:	000040b7          	lui	ra,0x4
    80000f7c:	fff0809b          	addiw	ra,ra,-1 # 3fff <offset+0x3bbf>
    80000f80:	00c08463          	beq	ra,a2,80000f88 <inst_87>
    80000f84:	8a0ff06f          	j	80000024 <rvtest_error>

0000000080000f88 <inst_87>:
    80000f88:	00100513          	li	a0,1
    80000f8c:	01251513          	slli	a0,a0,0x12
    80000f90:	fff54513          	not	a0,a0
    80000f94:	00100593          	li	a1,1
    80000f98:	00b5563b          	srlw	a2,a0,a1
    80000f9c:	22c23423          	sd	a2,552(tp) # 228 <pos+0x1e8>
    80000fa0:	7ffe00b7          	lui	ra,0x7ffe0
    80000fa4:	fff0809b          	addiw	ra,ra,-1 # 7ffdffff <absimmsh+0x7450f252>
    80000fa8:	00c08463          	beq	ra,a2,80000fb0 <inst_88>
    80000fac:	878ff06f          	j	80000024 <rvtest_error>

0000000080000fb0 <inst_88>:
    80000fb0:	00100513          	li	a0,1
    80000fb4:	01351513          	slli	a0,a0,0x13
    80000fb8:	fff54513          	not	a0,a0
    80000fbc:	00400593          	li	a1,4
    80000fc0:	00b5563b          	srlw	a2,a0,a1
    80000fc4:	22c23823          	sd	a2,560(tp) # 230 <pos+0x1f0>
    80000fc8:	0fff80b7          	lui	ra,0xfff8
    80000fcc:	fff0809b          	addiw	ra,ra,-1 # fff7fff <absimmsh+0x4527252>
    80000fd0:	00c08463          	beq	ra,a2,80000fd8 <inst_89>
    80000fd4:	850ff06f          	j	80000024 <rvtest_error>

0000000080000fd8 <inst_89>:
    80000fd8:	00100513          	li	a0,1
    80000fdc:	03751513          	slli	a0,a0,0x37
    80000fe0:	fff54513          	not	a0,a0
    80000fe4:	01e00593          	li	a1,30
    80000fe8:	00b5563b          	srlw	a2,a0,a1
    80000fec:	22c23c23          	sd	a2,568(tp) # 238 <pos+0x1f8>
    80000ff0:	00300093          	li	ra,3
    80000ff4:	00c08463          	beq	ra,a2,80000ffc <inst_90>
    80000ff8:	82cff06f          	j	80000024 <rvtest_error>

0000000080000ffc <inst_90>:
    80000ffc:	00100513          	li	a0,1
    80001000:	03851513          	slli	a0,a0,0x38
    80001004:	fff54513          	not	a0,a0
    80001008:	01d00593          	li	a1,29
    8000100c:	00b5563b          	srlw	a2,a0,a1
    80001010:	24c23023          	sd	a2,576(tp) # 240 <pos+0x200>
    80001014:	00700093          	li	ra,7
    80001018:	00c08463          	beq	ra,a2,80001020 <inst_91>
    8000101c:	808ff06f          	j	80000024 <rvtest_error>

0000000080001020 <inst_91>:
    80001020:	00100513          	li	a0,1
    80001024:	03951513          	slli	a0,a0,0x39
    80001028:	fff54513          	not	a0,a0
    8000102c:	00800593          	li	a1,8
    80001030:	00b5563b          	srlw	a2,a0,a1
    80001034:	24c23423          	sd	a2,584(tp) # 248 <pos+0x208>
    80001038:	010000b7          	lui	ra,0x1000
    8000103c:	fff0809b          	addiw	ra,ra,-1 # ffffff <offset+0xfffbbf>
    80001040:	00c08463          	beq	ra,a2,80001048 <inst_92>
    80001044:	fe1fe06f          	j	80000024 <rvtest_error>

0000000080001048 <inst_92>:
    80001048:	00100513          	li	a0,1
    8000104c:	03a51513          	slli	a0,a0,0x3a
    80001050:	fff54513          	not	a0,a0
    80001054:	00200593          	li	a1,2
    80001058:	00b5563b          	srlw	a2,a0,a1
    8000105c:	24c23823          	sd	a2,592(tp) # 250 <pos+0x210>
    80001060:	400000b7          	lui	ra,0x40000
    80001064:	fff0809b          	addiw	ra,ra,-1 # 3fffffff <absimmsh+0x3452f252>
    80001068:	00c08463          	beq	ra,a2,80001070 <inst_93>
    8000106c:	fb9fe06f          	j	80000024 <rvtest_error>

0000000080001070 <inst_93>:
    80001070:	00100513          	li	a0,1
    80001074:	03b51513          	slli	a0,a0,0x3b
    80001078:	fff54513          	not	a0,a0
    8000107c:	00000593          	li	a1,0
    80001080:	00b5563b          	srlw	a2,a0,a1
    80001084:	24c23c23          	sd	a2,600(tp) # 258 <pos+0x218>
    80001088:	fff00093          	li	ra,-1
    8000108c:	00c08463          	beq	ra,a2,80001094 <inst_94>
    80001090:	f95fe06f          	j	80000024 <rvtest_error>

0000000080001094 <inst_94>:
    80001094:	00100513          	li	a0,1
    80001098:	03c51513          	slli	a0,a0,0x3c
    8000109c:	fff54513          	not	a0,a0
    800010a0:	00900593          	li	a1,9
    800010a4:	00b5563b          	srlw	a2,a0,a1
    800010a8:	26c23023          	sd	a2,608(tp) # 260 <pos+0x220>
    800010ac:	008000b7          	lui	ra,0x800
    800010b0:	fff0809b          	addiw	ra,ra,-1 # 7fffff <offset+0x7ffbbf>
    800010b4:	00c08463          	beq	ra,a2,800010bc <inst_95>
    800010b8:	f6dfe06f          	j	80000024 <rvtest_error>

00000000800010bc <inst_95>:
    800010bc:	00100513          	li	a0,1
    800010c0:	03d51513          	slli	a0,a0,0x3d
    800010c4:	fff54513          	not	a0,a0
    800010c8:	00f00593          	li	a1,15
    800010cc:	00b5563b          	srlw	a2,a0,a1
    800010d0:	26c23423          	sd	a2,616(tp) # 268 <pos+0x228>
    800010d4:	000200b7          	lui	ra,0x20
    800010d8:	fff0809b          	addiw	ra,ra,-1 # 1ffff <offset+0x1fbbf>
    800010dc:	00c08463          	beq	ra,a2,800010e4 <inst_96>
    800010e0:	f45fe06f          	j	80000024 <rvtest_error>

00000000800010e4 <inst_96>:
    800010e4:	00100513          	li	a0,1
    800010e8:	03e51513          	slli	a0,a0,0x3e
    800010ec:	fff54513          	not	a0,a0
    800010f0:	01e00593          	li	a1,30
    800010f4:	00b5563b          	srlw	a2,a0,a1
    800010f8:	26c23823          	sd	a2,624(tp) # 270 <pos+0x230>
    800010fc:	00300093          	li	ra,3
    80001100:	00c08463          	beq	ra,a2,80001108 <inst_97>
    80001104:	f21fe06f          	j	80000024 <rvtest_error>

0000000080001108 <inst_97>:
    80001108:	55555537          	lui	a0,0x55555
    8000110c:	55550513          	addi	a0,a0,1365 # 55555555 <absimmsh+0x49a847a8>
    80001110:	00b51513          	slli	a0,a0,0xb
    80001114:	2aa50513          	addi	a0,a0,682
    80001118:	00b51513          	slli	a0,a0,0xb
    8000111c:	55550513          	addi	a0,a0,1365
    80001120:	00a51513          	slli	a0,a0,0xa
    80001124:	15550513          	addi	a0,a0,341
    80001128:	00a00593          	li	a1,10
    8000112c:	00b5563b          	srlw	a2,a0,a1
    80001130:	26c23c23          	sd	a2,632(tp) # 278 <pos+0x238>
    80001134:	001550b7          	lui	ra,0x155
    80001138:	5550809b          	addiw	ra,ra,1365 # 155555 <offset+0x155115>
    8000113c:	00c08463          	beq	ra,a2,80001144 <inst_98>
    80001140:	ee5fe06f          	j	80000024 <rvtest_error>

0000000080001144 <inst_98>:
    80001144:	aaaab537          	lui	a0,0xaaaab
    80001148:	aaa50513          	addi	a0,a0,-1366 # ffffffffaaaaaaaa <absimm+0xfffffffeefd9cfda>
    8000114c:	00b51513          	slli	a0,a0,0xb
    80001150:	55550513          	addi	a0,a0,1365
    80001154:	00b51513          	slli	a0,a0,0xb
    80001158:	2aa50513          	addi	a0,a0,682
    8000115c:	00a51513          	slli	a0,a0,0xa
    80001160:	2aa50513          	addi	a0,a0,682
    80001164:	01300593          	li	a1,19
    80001168:	00b5563b          	srlw	a2,a0,a1
    8000116c:	28c23023          	sd	a2,640(tp) # 280 <pos+0x240>
    80001170:	000010b7          	lui	ra,0x1
    80001174:	5550809b          	addiw	ra,ra,1365 # 1555 <offset+0x1115>
    80001178:	00c08463          	beq	ra,a2,80001180 <inst_99>
    8000117c:	ea9fe06f          	j	80000024 <rvtest_error>

0000000080001180 <inst_99>:
    80001180:	00300513          	li	a0,3
    80001184:	01700593          	li	a1,23
    80001188:	00b5563b          	srlw	a2,a0,a1
    8000118c:	28c23423          	sd	a2,648(tp) # 288 <pos+0x248>
    80001190:	00000093          	li	ra,0
    80001194:	00c08463          	beq	ra,a2,8000119c <inst_100>
    80001198:	e8dfe06f          	j	80000024 <rvtest_error>

000000008000119c <inst_100>:
    8000119c:	00500513          	li	a0,5
    800011a0:	01e00593          	li	a1,30
    800011a4:	00b5563b          	srlw	a2,a0,a1
    800011a8:	28c23823          	sd	a2,656(tp) # 290 <pos+0x250>
    800011ac:	00000093          	li	ra,0
    800011b0:	00c08463          	beq	ra,a2,800011b8 <inst_101>
    800011b4:	e71fe06f          	j	80000024 <rvtest_error>

00000000800011b8 <inst_101>:
    800011b8:	33333537          	lui	a0,0x33333
    800011bc:	33350513          	addi	a0,a0,819 # 33333333 <absimmsh+0x27862586>
    800011c0:	00b51513          	slli	a0,a0,0xb
    800011c4:	19950513          	addi	a0,a0,409
    800011c8:	00b51513          	slli	a0,a0,0xb
    800011cc:	4cc50513          	addi	a0,a0,1228
    800011d0:	00a51513          	slli	a0,a0,0xa
    800011d4:	33350513          	addi	a0,a0,819
    800011d8:	01100593          	li	a1,17
    800011dc:	00b5563b          	srlw	a2,a0,a1
    800011e0:	28c23c23          	sd	a2,664(tp) # 298 <pos+0x258>
    800011e4:	000020b7          	lui	ra,0x2
    800011e8:	9990809b          	addiw	ra,ra,-1639 # 1999 <offset+0x1559>
    800011ec:	00c08463          	beq	ra,a2,800011f4 <inst_102>
    800011f0:	e35fe06f          	j	80000024 <rvtest_error>

00000000800011f4 <inst_102>:
    800011f4:	66666537          	lui	a0,0x66666
    800011f8:	66650513          	addi	a0,a0,1638 # 66666666 <absimmsh+0x5ab958b9>
    800011fc:	00b51513          	slli	a0,a0,0xb
    80001200:	33350513          	addi	a0,a0,819
    80001204:	00b51513          	slli	a0,a0,0xb
    80001208:	19950513          	addi	a0,a0,409
    8000120c:	00a51513          	slli	a0,a0,0xa
    80001210:	26650513          	addi	a0,a0,614
    80001214:	01b00593          	li	a1,27
    80001218:	00b5563b          	srlw	a2,a0,a1
    8000121c:	2ac23023          	sd	a2,672(tp) # 2a0 <pos+0x260>
    80001220:	00c00093          	li	ra,12
    80001224:	00c08463          	beq	ra,a2,8000122c <inst_103>
    80001228:	dfdfe06f          	j	80000024 <rvtest_error>

000000008000122c <inst_103>:
    8000122c:	00000537          	lui	a0,0x0
    80001230:	00050513          	mv	a0,a0
    80001234:	00b51513          	slli	a0,a0,0xb
    80001238:	5a850513          	addi	a0,a0,1448 # 5a8 <offset+0x168>
    8000123c:	00b51513          	slli	a0,a0,0xb
    80001240:	13c50513          	addi	a0,a0,316
    80001244:	00a51513          	slli	a0,a0,0xa
    80001248:	33350513          	addi	a0,a0,819
    8000124c:	00800593          	li	a1,8
    80001250:	00b5563b          	srlw	a2,a0,a1
    80001254:	2ac23423          	sd	a2,680(tp) # 2a8 <pos+0x268>
    80001258:	00b500b7          	lui	ra,0xb50
    8000125c:	4f30809b          	addiw	ra,ra,1267 # b504f3 <offset+0xb500b3>
    80001260:	00c08463          	beq	ra,a2,80001268 <inst_104>
    80001264:	dc1fe06f          	j	80000024 <rvtest_error>

0000000080001268 <inst_104>:
    80001268:	55555537          	lui	a0,0x55555
    8000126c:	55550513          	addi	a0,a0,1365 # 55555555 <absimmsh+0x49a847a8>
    80001270:	00b51513          	slli	a0,a0,0xb
    80001274:	2aa50513          	addi	a0,a0,682
    80001278:	00b51513          	slli	a0,a0,0xb
    8000127c:	55550513          	addi	a0,a0,1365
    80001280:	00a51513          	slli	a0,a0,0xa
    80001284:	15450513          	addi	a0,a0,340
    80001288:	00c00593          	li	a1,12
    8000128c:	00b5563b          	srlw	a2,a0,a1
    80001290:	2ac23823          	sd	a2,688(tp) # 2b0 <pos+0x270>
    80001294:	000550b7          	lui	ra,0x55
    80001298:	5550809b          	addiw	ra,ra,1365 # 55555 <offset+0x55115>
    8000129c:	00c08463          	beq	ra,a2,800012a4 <inst_105>
    800012a0:	d85fe06f          	j	80000024 <rvtest_error>

00000000800012a4 <inst_105>:
    800012a4:	33333537          	lui	a0,0x33333
    800012a8:	33350513          	addi	a0,a0,819 # 33333333 <absimmsh+0x27862586>
    800012ac:	00b51513          	slli	a0,a0,0xb
    800012b0:	19950513          	addi	a0,a0,409
    800012b4:	00b51513          	slli	a0,a0,0xb
    800012b8:	4cc50513          	addi	a0,a0,1228
    800012bc:	00a51513          	slli	a0,a0,0xa
    800012c0:	33250513          	addi	a0,a0,818
    800012c4:	00300593          	li	a1,3
    800012c8:	00b5563b          	srlw	a2,a0,a1
    800012cc:	2ac23c23          	sd	a2,696(tp) # 2b8 <pos+0x278>
    800012d0:	066660b7          	lui	ra,0x6666
    800012d4:	6660809b          	addiw	ra,ra,1638 # 6666666 <offset+0x6666226>
    800012d8:	00c08463          	beq	ra,a2,800012e0 <inst_106>
    800012dc:	d49fe06f          	j	80000024 <rvtest_error>

00000000800012e0 <inst_106>:
    800012e0:	66666537          	lui	a0,0x66666
    800012e4:	66650513          	addi	a0,a0,1638 # 66666666 <absimmsh+0x5ab958b9>
    800012e8:	00b51513          	slli	a0,a0,0xb
    800012ec:	33350513          	addi	a0,a0,819
    800012f0:	00b51513          	slli	a0,a0,0xb
    800012f4:	19950513          	addi	a0,a0,409
    800012f8:	00a51513          	slli	a0,a0,0xa
    800012fc:	26550513          	addi	a0,a0,613
    80001300:	00200593          	li	a1,2
    80001304:	00b5563b          	srlw	a2,a0,a1
    80001308:	2cc23023          	sd	a2,704(tp) # 2c0 <pos+0x280>
    8000130c:	1999a0b7          	lui	ra,0x1999a
    80001310:	9990809b          	addiw	ra,ra,-1639 # 19999999 <absimmsh+0xdec8bec>
    80001314:	00c08463          	beq	ra,a2,8000131c <inst_107>
    80001318:	d0dfe06f          	j	80000024 <rvtest_error>

000000008000131c <inst_107>:
    8000131c:	00000537          	lui	a0,0x0
    80001320:	00050513          	mv	a0,a0
    80001324:	00b51513          	slli	a0,a0,0xb
    80001328:	5a850513          	addi	a0,a0,1448 # 5a8 <offset+0x168>
    8000132c:	00b51513          	slli	a0,a0,0xb
    80001330:	13c50513          	addi	a0,a0,316
    80001334:	00a51513          	slli	a0,a0,0xa
    80001338:	33250513          	addi	a0,a0,818
    8000133c:	01f00593          	li	a1,31
    80001340:	00b5563b          	srlw	a2,a0,a1
    80001344:	2cc23423          	sd	a2,712(tp) # 2c8 <pos+0x288>
    80001348:	00100093          	li	ra,1
    8000134c:	00c08463          	beq	ra,a2,80001354 <inst_108>
    80001350:	cd5fe06f          	j	80000024 <rvtest_error>

0000000080001354 <inst_108>:
    80001354:	55555537          	lui	a0,0x55555
    80001358:	55550513          	addi	a0,a0,1365 # 55555555 <absimmsh+0x49a847a8>
    8000135c:	00b51513          	slli	a0,a0,0xb
    80001360:	2aa50513          	addi	a0,a0,682
    80001364:	00b51513          	slli	a0,a0,0xb
    80001368:	55550513          	addi	a0,a0,1365
    8000136c:	00a51513          	slli	a0,a0,0xa
    80001370:	15650513          	addi	a0,a0,342
    80001374:	00900593          	li	a1,9
    80001378:	00b5563b          	srlw	a2,a0,a1
    8000137c:	2cc23823          	sd	a2,720(tp) # 2d0 <pos+0x290>
    80001380:	002ab0b7          	lui	ra,0x2ab
    80001384:	aaa0809b          	addiw	ra,ra,-1366 # 2aaaaa <offset+0x2aa66a>
    80001388:	00c08463          	beq	ra,a2,80001390 <inst_109>
    8000138c:	c99fe06f          	j	80000024 <rvtest_error>

0000000080001390 <inst_109>:
    80001390:	aaaab537          	lui	a0,0xaaaab
    80001394:	aaa50513          	addi	a0,a0,-1366 # ffffffffaaaaaaaa <absimm+0xfffffffeefd9cfda>
    80001398:	00b51513          	slli	a0,a0,0xb
    8000139c:	55550513          	addi	a0,a0,1365
    800013a0:	00b51513          	slli	a0,a0,0xb
    800013a4:	2aa50513          	addi	a0,a0,682
    800013a8:	00a51513          	slli	a0,a0,0xa
    800013ac:	2ab50513          	addi	a0,a0,683
    800013b0:	01500593          	li	a1,21
    800013b4:	00b5563b          	srlw	a2,a0,a1
    800013b8:	2cc23c23          	sd	a2,728(tp) # 2d8 <pos+0x298>
    800013bc:	55500093          	li	ra,1365
    800013c0:	00c08463          	beq	ra,a2,800013c8 <inst_110>
    800013c4:	c61fe06f          	j	80000024 <rvtest_error>

00000000800013c8 <inst_110>:
    800013c8:	00600513          	li	a0,6
    800013cc:	00f00593          	li	a1,15
    800013d0:	00b5563b          	srlw	a2,a0,a1
    800013d4:	2ec23023          	sd	a2,736(tp) # 2e0 <pos+0x2a0>
    800013d8:	00000093          	li	ra,0
    800013dc:	00c08463          	beq	ra,a2,800013e4 <inst_111>
    800013e0:	c45fe06f          	j	80000024 <rvtest_error>

00000000800013e4 <inst_111>:
    800013e4:	33333537          	lui	a0,0x33333
    800013e8:	33350513          	addi	a0,a0,819 # 33333333 <absimmsh+0x27862586>
    800013ec:	00b51513          	slli	a0,a0,0xb
    800013f0:	19950513          	addi	a0,a0,409
    800013f4:	00b51513          	slli	a0,a0,0xb
    800013f8:	4cc50513          	addi	a0,a0,1228
    800013fc:	00a51513          	slli	a0,a0,0xa
    80001400:	33450513          	addi	a0,a0,820
    80001404:	01000593          	li	a1,16
    80001408:	00b5563b          	srlw	a2,a0,a1
    8000140c:	2ec23423          	sd	a2,744(tp) # 2e8 <pos+0x2a8>
    80001410:	000030b7          	lui	ra,0x3
    80001414:	3330809b          	addiw	ra,ra,819 # 3333 <offset+0x2ef3>
    80001418:	00c08463          	beq	ra,a2,80001420 <inst_112>
    8000141c:	c09fe06f          	j	80000024 <rvtest_error>

0000000080001420 <inst_112>:
    80001420:	66666537          	lui	a0,0x66666
    80001424:	66650513          	addi	a0,a0,1638 # 66666666 <absimmsh+0x5ab958b9>
    80001428:	00b51513          	slli	a0,a0,0xb
    8000142c:	33350513          	addi	a0,a0,819
    80001430:	00b51513          	slli	a0,a0,0xb
    80001434:	19950513          	addi	a0,a0,409
    80001438:	00a51513          	slli	a0,a0,0xa
    8000143c:	26750513          	addi	a0,a0,615
    80001440:	01100593          	li	a1,17
    80001444:	00b5563b          	srlw	a2,a0,a1
    80001448:	2ec23823          	sd	a2,752(tp) # 2f0 <pos+0x2b0>
    8000144c:	000030b7          	lui	ra,0x3
    80001450:	3330809b          	addiw	ra,ra,819 # 3333 <offset+0x2ef3>
    80001454:	00c08463          	beq	ra,a2,8000145c <inst_113>
    80001458:	bcdfe06f          	j	80000024 <rvtest_error>

000000008000145c <inst_113>:
    8000145c:	00000537          	lui	a0,0x0
    80001460:	fff50513          	addi	a0,a0,-1
    80001464:	00b51513          	slli	a0,a0,0xb
    80001468:	25750513          	addi	a0,a0,599
    8000146c:	00b51513          	slli	a0,a0,0xb
    80001470:	6c350513          	addi	a0,a0,1731
    80001474:	00a51513          	slli	a0,a0,0xa
    80001478:	0ce50513          	addi	a0,a0,206
    8000147c:	01f00593          	li	a1,31
    80001480:	00b5563b          	srlw	a2,a0,a1
    80001484:	2ec23c23          	sd	a2,760(tp) # 2f8 <pos+0x2b8>
    80001488:	00000093          	li	ra,0
    8000148c:	00c08463          	beq	ra,a2,80001494 <inst_114>
    80001490:	b95fe06f          	j	80000024 <rvtest_error>

0000000080001494 <inst_114>:
    80001494:	00000537          	lui	a0,0x0
    80001498:	00050513          	mv	a0,a0
    8000149c:	00b51513          	slli	a0,a0,0xb
    800014a0:	5a850513          	addi	a0,a0,1448 # 5a8 <offset+0x168>
    800014a4:	00b51513          	slli	a0,a0,0xb
    800014a8:	13c50513          	addi	a0,a0,316
    800014ac:	00a51513          	slli	a0,a0,0xa
    800014b0:	33450513          	addi	a0,a0,820
    800014b4:	01500593          	li	a1,21
    800014b8:	00b5563b          	srlw	a2,a0,a1
    800014bc:	30c23023          	sd	a2,768(tp) # 300 <pos+0x2c0>
    800014c0:	5a800093          	li	ra,1448
    800014c4:	00c08463          	beq	ra,a2,800014cc <inst_115>
    800014c8:	b5dfe06f          	j	80000024 <rvtest_error>

00000000800014cc <inst_115>:
    800014cc:	00100513          	li	a0,1
    800014d0:	01451513          	slli	a0,a0,0x14
    800014d4:	fff54513          	not	a0,a0
    800014d8:	00600593          	li	a1,6
    800014dc:	00b5563b          	srlw	a2,a0,a1
    800014e0:	30c23423          	sd	a2,776(tp) # 308 <pos+0x2c8>
    800014e4:	03ffc0b7          	lui	ra,0x3ffc
    800014e8:	fff0809b          	addiw	ra,ra,-1 # 3ffbfff <offset+0x3ffbbbf>
    800014ec:	00c08463          	beq	ra,a2,800014f4 <inst_116>
    800014f0:	b35fe06f          	j	80000024 <rvtest_error>

00000000800014f4 <inst_116>:
    800014f4:	00100513          	li	a0,1
    800014f8:	01551513          	slli	a0,a0,0x15
    800014fc:	fff54513          	not	a0,a0
    80001500:	01000593          	li	a1,16
    80001504:	00b5563b          	srlw	a2,a0,a1
    80001508:	30c23823          	sd	a2,784(tp) # 310 <pos+0x2d0>
    8000150c:	000100b7          	lui	ra,0x10
    80001510:	fdf0809b          	addiw	ra,ra,-33 # ffdf <offset+0xfb9f>
    80001514:	00c08463          	beq	ra,a2,8000151c <inst_117>
    80001518:	b0dfe06f          	j	80000024 <rvtest_error>

000000008000151c <inst_117>:
    8000151c:	00100513          	li	a0,1
    80001520:	01651513          	slli	a0,a0,0x16
    80001524:	fff54513          	not	a0,a0
    80001528:	01500593          	li	a1,21
    8000152c:	00b5563b          	srlw	a2,a0,a1
    80001530:	30c23c23          	sd	a2,792(tp) # 318 <pos+0x2d8>
    80001534:	7fd00093          	li	ra,2045
    80001538:	00c08463          	beq	ra,a2,80001540 <inst_118>
    8000153c:	ae9fe06f          	j	80000024 <rvtest_error>

0000000080001540 <inst_118>:
    80001540:	00100513          	li	a0,1
    80001544:	01751513          	slli	a0,a0,0x17
    80001548:	fff54513          	not	a0,a0
    8000154c:	00a00593          	li	a1,10
    80001550:	00b5563b          	srlw	a2,a0,a1
    80001554:	32c23023          	sd	a2,800(tp) # 320 <pos+0x2e0>
    80001558:	003fe0b7          	lui	ra,0x3fe
    8000155c:	fff0809b          	addiw	ra,ra,-1 # 3fdfff <offset+0x3fdbbf>
    80001560:	00c08463          	beq	ra,a2,80001568 <inst_119>
    80001564:	ac1fe06f          	j	80000024 <rvtest_error>

0000000080001568 <inst_119>:
    80001568:	00100513          	li	a0,1
    8000156c:	01851513          	slli	a0,a0,0x18
    80001570:	fff54513          	not	a0,a0
    80001574:	00900593          	li	a1,9
    80001578:	00b5563b          	srlw	a2,a0,a1
    8000157c:	32c23423          	sd	a2,808(tp) # 328 <pos+0x2e8>
    80001580:	007f80b7          	lui	ra,0x7f8
    80001584:	fff0809b          	addiw	ra,ra,-1 # 7f7fff <offset+0x7f7bbf>
    80001588:	00c08463          	beq	ra,a2,80001590 <inst_120>
    8000158c:	a99fe06f          	j	80000024 <rvtest_error>

0000000080001590 <inst_120>:
    80001590:	00100513          	li	a0,1
    80001594:	01951513          	slli	a0,a0,0x19
    80001598:	fff54513          	not	a0,a0
    8000159c:	00600593          	li	a1,6
    800015a0:	00b5563b          	srlw	a2,a0,a1
    800015a4:	32c23823          	sd	a2,816(tp) # 330 <pos+0x2f0>
    800015a8:	03f800b7          	lui	ra,0x3f80
    800015ac:	fff0809b          	addiw	ra,ra,-1 # 3f7ffff <offset+0x3f7fbbf>
    800015b0:	00c08463          	beq	ra,a2,800015b8 <inst_121>
    800015b4:	a71fe06f          	j	80000024 <rvtest_error>

00000000800015b8 <inst_121>:
    800015b8:	00100513          	li	a0,1
    800015bc:	01a51513          	slli	a0,a0,0x1a
    800015c0:	fff54513          	not	a0,a0
    800015c4:	01700593          	li	a1,23
    800015c8:	00b5563b          	srlw	a2,a0,a1
    800015cc:	32c23c23          	sd	a2,824(tp) # 338 <pos+0x2f8>
    800015d0:	1f700093          	li	ra,503
    800015d4:	00c08463          	beq	ra,a2,800015dc <inst_122>
    800015d8:	a4dfe06f          	j	80000024 <rvtest_error>

00000000800015dc <inst_122>:
    800015dc:	00100513          	li	a0,1
    800015e0:	01b51513          	slli	a0,a0,0x1b
    800015e4:	fff54513          	not	a0,a0
    800015e8:	00200593          	li	a1,2
    800015ec:	00b5563b          	srlw	a2,a0,a1
    800015f0:	34c23023          	sd	a2,832(tp) # 340 <pos+0x300>
    800015f4:	3e0000b7          	lui	ra,0x3e000
    800015f8:	fff0809b          	addiw	ra,ra,-1 # 3dffffff <absimmsh+0x3252f252>
    800015fc:	00c08463          	beq	ra,a2,80001604 <inst_123>
    80001600:	a25fe06f          	j	80000024 <rvtest_error>

0000000080001604 <inst_123>:
    80001604:	00100513          	li	a0,1
    80001608:	01c51513          	slli	a0,a0,0x1c
    8000160c:	fff54513          	not	a0,a0
    80001610:	00c00593          	li	a1,12
    80001614:	00b5563b          	srlw	a2,a0,a1
    80001618:	34c23423          	sd	a2,840(tp) # 348 <pos+0x308>
    8000161c:	000f00b7          	lui	ra,0xf0
    80001620:	fff0809b          	addiw	ra,ra,-1 # effff <offset+0xefbbf>
    80001624:	00c08463          	beq	ra,a2,8000162c <inst_124>
    80001628:	9fdfe06f          	j	80000024 <rvtest_error>

000000008000162c <inst_124>:
    8000162c:	00100513          	li	a0,1
    80001630:	01d51513          	slli	a0,a0,0x1d
    80001634:	fff54513          	not	a0,a0
    80001638:	00900593          	li	a1,9
    8000163c:	00b5563b          	srlw	a2,a0,a1
    80001640:	34c23823          	sd	a2,848(tp) # 350 <pos+0x310>
    80001644:	007000b7          	lui	ra,0x700
    80001648:	fff0809b          	addiw	ra,ra,-1 # 6fffff <offset+0x6ffbbf>
    8000164c:	00c08463          	beq	ra,a2,80001654 <inst_125>
    80001650:	9d5fe06f          	j	80000024 <rvtest_error>

0000000080001654 <inst_125>:
    80001654:	00100513          	li	a0,1
    80001658:	01e51513          	slli	a0,a0,0x1e
    8000165c:	fff54513          	not	a0,a0
    80001660:	01f00593          	li	a1,31
    80001664:	00b5563b          	srlw	a2,a0,a1
    80001668:	34c23c23          	sd	a2,856(tp) # 358 <pos+0x318>
    8000166c:	00100093          	li	ra,1
    80001670:	00c08463          	beq	ra,a2,80001678 <inst_126>
    80001674:	9b1fe06f          	j	80000024 <rvtest_error>

0000000080001678 <inst_126>:
    80001678:	00100513          	li	a0,1
    8000167c:	01f51513          	slli	a0,a0,0x1f
    80001680:	fff54513          	not	a0,a0
    80001684:	00800593          	li	a1,8
    80001688:	00b5563b          	srlw	a2,a0,a1
    8000168c:	36c23023          	sd	a2,864(tp) # 360 <pos+0x320>
    80001690:	008000b7          	lui	ra,0x800
    80001694:	fff0809b          	addiw	ra,ra,-1 # 7fffff <offset+0x7ffbbf>
    80001698:	00c08463          	beq	ra,a2,800016a0 <inst_127>
    8000169c:	989fe06f          	j	80000024 <rvtest_error>

00000000800016a0 <inst_127>:
    800016a0:	00100513          	li	a0,1
    800016a4:	02051513          	slli	a0,a0,0x20
    800016a8:	fff54513          	not	a0,a0
    800016ac:	00400593          	li	a1,4
    800016b0:	00b5563b          	srlw	a2,a0,a1
    800016b4:	36c23423          	sd	a2,872(tp) # 368 <pos+0x328>
    800016b8:	100000b7          	lui	ra,0x10000
    800016bc:	fff0809b          	addiw	ra,ra,-1 # fffffff <absimmsh+0x452f252>
    800016c0:	00c08463          	beq	ra,a2,800016c8 <inst_128>
    800016c4:	961fe06f          	j	80000024 <rvtest_error>

00000000800016c8 <inst_128>:
    800016c8:	00100513          	li	a0,1
    800016cc:	02151513          	slli	a0,a0,0x21
    800016d0:	fff54513          	not	a0,a0
    800016d4:	01700593          	li	a1,23
    800016d8:	00b5563b          	srlw	a2,a0,a1
    800016dc:	36c23823          	sd	a2,880(tp) # 370 <pos+0x330>
    800016e0:	1ff00093          	li	ra,511
    800016e4:	00c08463          	beq	ra,a2,800016ec <inst_129>
    800016e8:	93dfe06f          	j	80000024 <rvtest_error>

00000000800016ec <inst_129>:
    800016ec:	00100513          	li	a0,1
    800016f0:	02251513          	slli	a0,a0,0x22
    800016f4:	fff54513          	not	a0,a0
    800016f8:	00d00593          	li	a1,13
    800016fc:	00b5563b          	srlw	a2,a0,a1
    80001700:	36c23c23          	sd	a2,888(tp) # 378 <pos+0x338>
    80001704:	000800b7          	lui	ra,0x80
    80001708:	fff0809b          	addiw	ra,ra,-1 # 7ffff <offset+0x7fbbf>
    8000170c:	00c08463          	beq	ra,a2,80001714 <inst_130>
    80001710:	915fe06f          	j	80000024 <rvtest_error>

0000000080001714 <inst_130>:
    80001714:	00100513          	li	a0,1
    80001718:	02351513          	slli	a0,a0,0x23
    8000171c:	fff54513          	not	a0,a0
    80001720:	01d00593          	li	a1,29
    80001724:	00b5563b          	srlw	a2,a0,a1
    80001728:	38c23023          	sd	a2,896(tp) # 380 <pos+0x340>
    8000172c:	00700093          	li	ra,7
    80001730:	00c08463          	beq	ra,a2,80001738 <inst_131>
    80001734:	8f1fe06f          	j	80000024 <rvtest_error>

0000000080001738 <inst_131>:
    80001738:	00100513          	li	a0,1
    8000173c:	02451513          	slli	a0,a0,0x24
    80001740:	fff54513          	not	a0,a0
    80001744:	01500593          	li	a1,21
    80001748:	00b5563b          	srlw	a2,a0,a1
    8000174c:	38c23423          	sd	a2,904(tp) # 388 <pos+0x348>
    80001750:	7ff00093          	li	ra,2047
    80001754:	00c08463          	beq	ra,a2,8000175c <inst_132>
    80001758:	8cdfe06f          	j	80000024 <rvtest_error>

000000008000175c <inst_132>:
    8000175c:	00100513          	li	a0,1
    80001760:	02551513          	slli	a0,a0,0x25
    80001764:	fff54513          	not	a0,a0
    80001768:	01200593          	li	a1,18
    8000176c:	00b5563b          	srlw	a2,a0,a1
    80001770:	38c23823          	sd	a2,912(tp) # 390 <pos+0x350>
    80001774:	000040b7          	lui	ra,0x4
    80001778:	fff0809b          	addiw	ra,ra,-1 # 3fff <offset+0x3bbf>
    8000177c:	00c08463          	beq	ra,a2,80001784 <inst_133>
    80001780:	8a5fe06f          	j	80000024 <rvtest_error>

0000000080001784 <inst_133>:
    80001784:	00100513          	li	a0,1
    80001788:	02651513          	slli	a0,a0,0x26
    8000178c:	fff54513          	not	a0,a0
    80001790:	00e00593          	li	a1,14
    80001794:	00b5563b          	srlw	a2,a0,a1
    80001798:	38c23c23          	sd	a2,920(tp) # 398 <pos+0x358>
    8000179c:	000400b7          	lui	ra,0x40
    800017a0:	fff0809b          	addiw	ra,ra,-1 # 3ffff <offset+0x3fbbf>
    800017a4:	00c08463          	beq	ra,a2,800017ac <inst_134>
    800017a8:	87dfe06f          	j	80000024 <rvtest_error>

00000000800017ac <inst_134>:
    800017ac:	00100513          	li	a0,1
    800017b0:	02751513          	slli	a0,a0,0x27
    800017b4:	fff54513          	not	a0,a0
    800017b8:	00500593          	li	a1,5
    800017bc:	00b5563b          	srlw	a2,a0,a1
    800017c0:	3ac23023          	sd	a2,928(tp) # 3a0 <pos+0x360>
    800017c4:	080000b7          	lui	ra,0x8000
    800017c8:	fff0809b          	addiw	ra,ra,-1 # 7ffffff <offset+0x7fffbbf>
    800017cc:	00c08463          	beq	ra,a2,800017d4 <inst_135>
    800017d0:	855fe06f          	j	80000024 <rvtest_error>

00000000800017d4 <inst_135>:
    800017d4:	00100513          	li	a0,1
    800017d8:	02851513          	slli	a0,a0,0x28
    800017dc:	fff54513          	not	a0,a0
    800017e0:	00500593          	li	a1,5
    800017e4:	00b5563b          	srlw	a2,a0,a1
    800017e8:	3ac23423          	sd	a2,936(tp) # 3a8 <pos+0x368>
    800017ec:	080000b7          	lui	ra,0x8000
    800017f0:	fff0809b          	addiw	ra,ra,-1 # 7ffffff <offset+0x7fffbbf>
    800017f4:	00c08463          	beq	ra,a2,800017fc <inst_136>
    800017f8:	82dfe06f          	j	80000024 <rvtest_error>

00000000800017fc <inst_136>:
    800017fc:	00100513          	li	a0,1
    80001800:	02951513          	slli	a0,a0,0x29
    80001804:	fff54513          	not	a0,a0
    80001808:	01500593          	li	a1,21
    8000180c:	00b5563b          	srlw	a2,a0,a1
    80001810:	3ac23823          	sd	a2,944(tp) # 3b0 <pos+0x370>
    80001814:	7ff00093          	li	ra,2047
    80001818:	00c08463          	beq	ra,a2,80001820 <inst_137>
    8000181c:	809fe06f          	j	80000024 <rvtest_error>

0000000080001820 <inst_137>:
    80001820:	00100513          	li	a0,1
    80001824:	02a51513          	slli	a0,a0,0x2a
    80001828:	fff54513          	not	a0,a0
    8000182c:	01500593          	li	a1,21
    80001830:	00b5563b          	srlw	a2,a0,a1
    80001834:	3ac23c23          	sd	a2,952(tp) # 3b8 <pos+0x378>
    80001838:	7ff00093          	li	ra,2047
    8000183c:	00c08463          	beq	ra,a2,80001844 <inst_138>
    80001840:	fe4fe06f          	j	80000024 <rvtest_error>

0000000080001844 <inst_138>:
    80001844:	00100513          	li	a0,1
    80001848:	02b51513          	slli	a0,a0,0x2b
    8000184c:	fff54513          	not	a0,a0
    80001850:	01000593          	li	a1,16
    80001854:	00b5563b          	srlw	a2,a0,a1
    80001858:	3cc23023          	sd	a2,960(tp) # 3c0 <pos+0x380>
    8000185c:	000100b7          	lui	ra,0x10
    80001860:	fff0809b          	addiw	ra,ra,-1 # ffff <offset+0xfbbf>
    80001864:	00c08463          	beq	ra,a2,8000186c <inst_139>
    80001868:	fbcfe06f          	j	80000024 <rvtest_error>

000000008000186c <inst_139>:
    8000186c:	00100513          	li	a0,1
    80001870:	02c51513          	slli	a0,a0,0x2c
    80001874:	fff54513          	not	a0,a0
    80001878:	00d00593          	li	a1,13
    8000187c:	00b5563b          	srlw	a2,a0,a1
    80001880:	3cc23423          	sd	a2,968(tp) # 3c8 <pos+0x388>
    80001884:	000800b7          	lui	ra,0x80
    80001888:	fff0809b          	addiw	ra,ra,-1 # 7ffff <offset+0x7fbbf>
    8000188c:	00c08463          	beq	ra,a2,80001894 <inst_140>
    80001890:	f94fe06f          	j	80000024 <rvtest_error>

0000000080001894 <inst_140>:
    80001894:	00100513          	li	a0,1
    80001898:	02d51513          	slli	a0,a0,0x2d
    8000189c:	fff54513          	not	a0,a0
    800018a0:	00100593          	li	a1,1
    800018a4:	00b5563b          	srlw	a2,a0,a1
    800018a8:	3cc23823          	sd	a2,976(tp) # 3d0 <pos+0x390>
    800018ac:	800000b7          	lui	ra,0x80000
    800018b0:	fff0809b          	addiw	ra,ra,-1 # 7fffffff <absimmsh+0x7452f252>
    800018b4:	00c08463          	beq	ra,a2,800018bc <inst_141>
    800018b8:	f6cfe06f          	j	80000024 <rvtest_error>

00000000800018bc <inst_141>:
    800018bc:	00100513          	li	a0,1
    800018c0:	02e51513          	slli	a0,a0,0x2e
    800018c4:	fff54513          	not	a0,a0
    800018c8:	00500593          	li	a1,5
    800018cc:	00b5563b          	srlw	a2,a0,a1
    800018d0:	3cc23c23          	sd	a2,984(tp) # 3d8 <pos+0x398>
    800018d4:	080000b7          	lui	ra,0x8000
    800018d8:	fff0809b          	addiw	ra,ra,-1 # 7ffffff <offset+0x7fffbbf>
    800018dc:	00c08463          	beq	ra,a2,800018e4 <inst_142>
    800018e0:	f44fe06f          	j	80000024 <rvtest_error>

00000000800018e4 <inst_142>:
    800018e4:	00100513          	li	a0,1
    800018e8:	02f51513          	slli	a0,a0,0x2f
    800018ec:	fff54513          	not	a0,a0
    800018f0:	00200593          	li	a1,2
    800018f4:	00b5563b          	srlw	a2,a0,a1
    800018f8:	3ec23023          	sd	a2,992(tp) # 3e0 <pos+0x3a0>
    800018fc:	400000b7          	lui	ra,0x40000
    80001900:	fff0809b          	addiw	ra,ra,-1 # 3fffffff <absimmsh+0x3452f252>
    80001904:	00c08463          	beq	ra,a2,8000190c <inst_143>
    80001908:	f1cfe06f          	j	80000024 <rvtest_error>

000000008000190c <inst_143>:
    8000190c:	00100513          	li	a0,1
    80001910:	03051513          	slli	a0,a0,0x30
    80001914:	fff54513          	not	a0,a0
    80001918:	00e00593          	li	a1,14
    8000191c:	00b5563b          	srlw	a2,a0,a1
    80001920:	3ec23423          	sd	a2,1000(tp) # 3e8 <pos+0x3a8>
    80001924:	000400b7          	lui	ra,0x40
    80001928:	fff0809b          	addiw	ra,ra,-1 # 3ffff <offset+0x3fbbf>
    8000192c:	00c08463          	beq	ra,a2,80001934 <inst_144>
    80001930:	ef4fe06f          	j	80000024 <rvtest_error>

0000000080001934 <inst_144>:
    80001934:	00100513          	li	a0,1
    80001938:	03151513          	slli	a0,a0,0x31
    8000193c:	fff54513          	not	a0,a0
    80001940:	00100593          	li	a1,1
    80001944:	00b5563b          	srlw	a2,a0,a1
    80001948:	3ec23823          	sd	a2,1008(tp) # 3f0 <pos+0x3b0>
    8000194c:	800000b7          	lui	ra,0x80000
    80001950:	fff0809b          	addiw	ra,ra,-1 # 7fffffff <absimmsh+0x7452f252>
    80001954:	00c08463          	beq	ra,a2,8000195c <inst_145>
    80001958:	eccfe06f          	j	80000024 <rvtest_error>

000000008000195c <inst_145>:
    8000195c:	00100513          	li	a0,1
    80001960:	03251513          	slli	a0,a0,0x32
    80001964:	fff54513          	not	a0,a0
    80001968:	01e00593          	li	a1,30
    8000196c:	00b5563b          	srlw	a2,a0,a1
    80001970:	3ec23c23          	sd	a2,1016(tp) # 3f8 <pos+0x3b8>
    80001974:	00300093          	li	ra,3
    80001978:	00c08463          	beq	ra,a2,80001980 <inst_146>
    8000197c:	ea8fe06f          	j	80000024 <rvtest_error>

0000000080001980 <inst_146>:
    80001980:	00100513          	li	a0,1
    80001984:	03351513          	slli	a0,a0,0x33
    80001988:	fff54513          	not	a0,a0
    8000198c:	00c00593          	li	a1,12
    80001990:	00b5563b          	srlw	a2,a0,a1
    80001994:	40c23023          	sd	a2,1024(tp) # 400 <pos+0x3c0>
    80001998:	001000b7          	lui	ra,0x100
    8000199c:	fff0809b          	addiw	ra,ra,-1 # fffff <offset+0xffbbf>
    800019a0:	00c08463          	beq	ra,a2,800019a8 <inst_147>
    800019a4:	e80fe06f          	j	80000024 <rvtest_error>

00000000800019a8 <inst_147>:
    800019a8:	00100513          	li	a0,1
    800019ac:	03551513          	slli	a0,a0,0x35
    800019b0:	fff54513          	not	a0,a0
    800019b4:	00e00593          	li	a1,14
    800019b8:	00b5563b          	srlw	a2,a0,a1
    800019bc:	40c23423          	sd	a2,1032(tp) # 408 <pos+0x3c8>
    800019c0:	000400b7          	lui	ra,0x40
    800019c4:	fff0809b          	addiw	ra,ra,-1 # 3ffff <offset+0x3fbbf>
    800019c8:	00c08463          	beq	ra,a2,800019d0 <inst_148>
    800019cc:	e58fe06f          	j	80000024 <rvtest_error>

00000000800019d0 <inst_148>:
    800019d0:	00100513          	li	a0,1
    800019d4:	03651513          	slli	a0,a0,0x36
    800019d8:	fff54513          	not	a0,a0
    800019dc:	00900593          	li	a1,9
    800019e0:	00b5563b          	srlw	a2,a0,a1
    800019e4:	40c23823          	sd	a2,1040(tp) # 410 <pos+0x3d0>
    800019e8:	008000b7          	lui	ra,0x800
    800019ec:	fff0809b          	addiw	ra,ra,-1 # 7fffff <offset+0x7ffbbf>
    800019f0:	00c08463          	beq	ra,a2,800019f8 <inst_149>
    800019f4:	e30fe06f          	j	80000024 <rvtest_error>

00000000800019f8 <inst_149>:
    800019f8:	00000537          	lui	a0,0x0
    800019fc:	fff50513          	addi	a0,a0,-1
    80001a00:	00b51513          	slli	a0,a0,0xb
    80001a04:	25750513          	addi	a0,a0,599
    80001a08:	00b51513          	slli	a0,a0,0xb
    80001a0c:	6c350513          	addi	a0,a0,1731
    80001a10:	00a51513          	slli	a0,a0,0xa
    80001a14:	0cd50513          	addi	a0,a0,205
    80001a18:	00600593          	li	a1,6
    80001a1c:	00b5563b          	srlw	a2,a0,a1
    80001a20:	40c23c23          	sd	a2,1048(tp) # 418 <pos+0x3d8>
    80001a24:	012bf0b7          	lui	ra,0x12bf
    80001a28:	c330809b          	addiw	ra,ra,-973 # 12bec33 <offset+0x12be7f3>
    80001a2c:	00c08463          	beq	ra,a2,80001a34 <inst_150>
    80001a30:	df4fe06f          	j	80000024 <rvtest_error>

0000000080001a34 <inst_150>:
    80001a34:	00100513          	li	a0,1
    80001a38:	03451513          	slli	a0,a0,0x34
    80001a3c:	fff54513          	not	a0,a0
    80001a40:	00000593          	li	a1,0
    80001a44:	00b5563b          	srlw	a2,a0,a1
    80001a48:	42c23023          	sd	a2,1056(tp) # 420 <pos+0x3e0>
    80001a4c:	fff00093          	li	ra,-1
    80001a50:	00c08463          	beq	ra,a2,80001a58 <inst_151>
    80001a54:	dd0fe06f          	j	80000024 <rvtest_error>

0000000080001a58 <inst_151>:
    80001a58:	00000513          	li	a0,0
    80001a5c:	01200593          	li	a1,18
    80001a60:	00b5563b          	srlw	a2,a0,a1
    80001a64:	42c23423          	sd	a2,1064(tp) # 428 <pos+0x3e8>
    80001a68:	00000093          	li	ra,0
    80001a6c:	00c08463          	beq	ra,a2,80001a74 <inst_152>
    80001a70:	db4fe06f          	j	80000024 <rvtest_error>

0000000080001a74 <inst_152>:
    80001a74:	fff00513          	li	a0,-1
    80001a78:	00155513          	srli	a0,a0,0x1
    80001a7c:	01b00593          	li	a1,27
    80001a80:	00b5563b          	srlw	a2,a0,a1
    80001a84:	42c23823          	sd	a2,1072(tp) # 430 <pos+0x3f0>
    80001a88:	01f00093          	li	ra,31
    80001a8c:	00c08463          	beq	ra,a2,80001a94 <inst_153>
    80001a90:	d94fe06f          	j	80000024 <rvtest_error>

0000000080001a94 <inst_153>:
    80001a94:	08000513          	li	a0,128
    80001a98:	00d00593          	li	a1,13
    80001a9c:	00b5563b          	srlw	a2,a0,a1
    80001aa0:	42c23c23          	sd	a2,1080(tp) # 438 <pos+0x3f8>
    80001aa4:	00000093          	li	ra,0
    80001aa8:	00c08463          	beq	ra,a2,80001ab0 <cleanup_epilogs>
    80001aac:	d78fe06f          	j	80000024 <rvtest_error>

0000000080001ab0 <cleanup_epilogs>:
    80001ab0:	0380006f          	j	80001ae8 <exit_cleanup>

0000000080001ab4 <abort_tests>:
    80001ab4:	1f813483          	ld	s1,504(sp)
    80001ab8:	20013303          	ld	t1,512(sp)
    80001abc:	00930333          	add	t1,t1,s1
    80001ac0:	00000337          	lui	t1,0x0
    80001ac4:	00030313          	mv	t1,t1
    80001ac8:	00b31313          	slli	t1,t1,0xb
    80001acc:	5d630313          	addi	t1,t1,1494 # 5d6 <offset+0x196>
    80001ad0:	00b31313          	slli	t1,t1,0xb
    80001ad4:	43630313          	addi	t1,t1,1078
    80001ad8:	00a31313          	slli	t1,t1,0xa
    80001adc:	2d030313          	addi	t1,t1,720
    80001ae0:	fe64be23          	sd	t1,-4(s1)
    80001ae4:	0040006f          	j	80001ae8 <exit_cleanup>

0000000080001ae8 <exit_cleanup>:
    80001ae8:	00000513          	li	a0,0
    80001aec:	0200006f          	j	80001b0c <halt>
	...

0000000080001b0c <halt>:
    80001b0c:	00050513          	mv	a0,a0
    80001b10:	00100073          	ebreak
    80001b14:	0000006f          	j	80001b14 <halt+0x8>

0000000080001b18 <_trm_init>:
    80001b18:	ff010113          	addi	sp,sp,-16
    80001b1c:	00000517          	auipc	a0,0x0
    80001b20:	01c50513          	addi	a0,a0,28 # 80001b38 <_etext>
    80001b24:	00113423          	sd	ra,8(sp)
    80001b28:	ce8fe0ef          	jal	ra,80000010 <main>
    80001b2c:	00050513          	mv	a0,a0
    80001b30:	00100073          	ebreak
    80001b34:	0000006f          	j	80001b34 <_trm_init+0x1c>
