
/home/maveric/ics2023/riscv-arch-test-am/build/sub-riscv64-nemu.elf:     file format elf64-littleriscv


Disassembly of section .text:

0000000080000000 <_start>:
    80000000:	00000413          	li	s0,0
    80000004:	00019117          	auipc	sp,0x19
    80000008:	ffc10113          	addi	sp,sp,-4 # 80019000 <_end>
    8000000c:	0740d0ef          	jal	ra,8000d080 <_trm_init>

0000000080000010 <main>:
    80000010:	030000ef          	jal	ra,80000040 <rvtest_entry_point>
    80000014:	00100513          	li	a0,1
    80000018:	05c0d0ef          	jal	ra,8000d074 <halt>
    8000001c:	00000513          	li	a0,0
    80000020:	00008067          	ret

0000000080000024 <rvtest_error>:
    80000024:	00100513          	li	a0,1
    80000028:	04c0d0ef          	jal	ra,8000d074 <halt>
    8000002c:	00008067          	ret
	...

0000000080000040 <rvtest_entry_point>:
    80000040:	feedc0b7          	lui	ra,0xfeedc
    80000044:	ead08093          	addi	ra,ra,-339 # fffffffffeedbead <absimm+0xffffffff441ce3dd>
    80000048:	00b09093          	slli	ra,ra,0xb
    8000004c:	7f708093          	addi	ra,ra,2039
    80000050:	00b09093          	slli	ra,ra,0xb
    80000054:	36f08093          	addi	ra,ra,879
    80000058:	00a09093          	slli	ra,ra,0xa
    8000005c:	2ad08093          	addi	ra,ra,685
    80000060:	ff76e137          	lui	sp,0xff76e
    80000064:	f5610113          	addi	sp,sp,-170 # ffffffffff76df56 <absimm+0xffffffff44a60486>
    80000068:	00b11113          	slli	sp,sp,0xb
    8000006c:	7fb10113          	addi	sp,sp,2043
    80000070:	00b11113          	slli	sp,sp,0xb
    80000074:	5b710113          	addi	sp,sp,1463
    80000078:	00a11113          	slli	sp,sp,0xa
    8000007c:	35610113          	addi	sp,sp,854
    80000080:	7fbb71b7          	lui	gp,0x7fbb7
    80000084:	fab18193          	addi	gp,gp,-85 # 7fbb6fab <absimmsh+0x740e61fe>
    80000088:	00b19193          	slli	gp,gp,0xb
    8000008c:	3fd18193          	addi	gp,gp,1021
    80000090:	00b19193          	slli	gp,gp,0xb
    80000094:	6db18193          	addi	gp,gp,1755
    80000098:	00a19193          	slli	gp,gp,0xa
    8000009c:	3ab18193          	addi	gp,gp,939
    800000a0:	bfddb237          	lui	tp,0xbfddb
    800000a4:	7d520213          	addi	tp,tp,2005 # ffffffffbfddb7d5 <absimm+0xffffffff050cdd05>
    800000a8:	00b21213          	slli	tp,tp,0xb
    800000ac:	5fe20213          	addi	tp,tp,1534 # 5fe <offset+0x206>
    800000b0:	00b21213          	slli	tp,tp,0xb
    800000b4:	76d20213          	addi	tp,tp,1901 # 76d <offset+0x375>
    800000b8:	00a21213          	slli	tp,tp,0xa
    800000bc:	3d520213          	addi	tp,tp,981 # 3d5 <pos+0x395>
    800000c0:	dfeee2b7          	lui	t0,0xdfeee
    800000c4:	bea28293          	addi	t0,t0,-1046 # ffffffffdfeedbea <absimm+0xffffffff251e011a>
    800000c8:	00b29293          	slli	t0,t0,0xb
    800000cc:	6ff28293          	addi	t0,t0,1791
    800000d0:	00b29293          	slli	t0,t0,0xb
    800000d4:	3b628293          	addi	t0,t0,950
    800000d8:	00a29293          	slli	t0,t0,0xa
    800000dc:	3ea28293          	addi	t0,t0,1002
    800000e0:	6ff77337          	lui	t1,0x6ff77
    800000e4:	df530313          	addi	t1,t1,-523 # 6ff76df5 <absimmsh+0x644a6048>
    800000e8:	00b31313          	slli	t1,t1,0xb
    800000ec:	37f30313          	addi	t1,t1,895
    800000f0:	00b31313          	slli	t1,t1,0xb
    800000f4:	5db30313          	addi	t1,t1,1499
    800000f8:	00a31313          	slli	t1,t1,0xa
    800000fc:	1f530313          	addi	t1,t1,501
    80000100:	b7fbb3b7          	lui	t2,0xb7fbb
    80000104:	6fa38393          	addi	t2,t2,1786 # ffffffffb7fbb6fa <absimm+0xfffffffefd2adc2a>
    80000108:	00b39393          	slli	t2,t2,0xb
    8000010c:	5bf38393          	addi	t2,t2,1471
    80000110:	00b39393          	slli	t2,t2,0xb
    80000114:	6ed38393          	addi	t2,t2,1773
    80000118:	00a39393          	slli	t2,t2,0xa
    8000011c:	2fa38393          	addi	t2,t2,762
    80000120:	5bfde437          	lui	s0,0x5bfde
    80000124:	b7d40413          	addi	s0,s0,-1155 # 5bfddb7d <absimmsh+0x5050cdd0>
    80000128:	00b41413          	slli	s0,s0,0xb
    8000012c:	2df40413          	addi	s0,s0,735
    80000130:	00b41413          	slli	s0,s0,0xb
    80000134:	77640413          	addi	s0,s0,1910
    80000138:	00a41413          	slli	s0,s0,0xa
    8000013c:	37d40413          	addi	s0,s0,893
    80000140:	adfef4b7          	lui	s1,0xadfef
    80000144:	dbe48493          	addi	s1,s1,-578 # ffffffffadfeedbe <absimm+0xfffffffef32e12ee>
    80000148:	00b49493          	slli	s1,s1,0xb
    8000014c:	56f48493          	addi	s1,s1,1391
    80000150:	00b49493          	slli	s1,s1,0xb
    80000154:	7bb48493          	addi	s1,s1,1979
    80000158:	00a49493          	slli	s1,s1,0xa
    8000015c:	1be48493          	addi	s1,s1,446
    80000160:	56ff7537          	lui	a0,0x56ff7
    80000164:	6df50513          	addi	a0,a0,1759 # 56ff76df <absimmsh+0x4b526932>
    80000168:	00b51513          	slli	a0,a0,0xb
    8000016c:	2b750513          	addi	a0,a0,695
    80000170:	00b51513          	slli	a0,a0,0xb
    80000174:	7dd50513          	addi	a0,a0,2013
    80000178:	00a51513          	slli	a0,a0,0xa
    8000017c:	2df50513          	addi	a0,a0,735
    80000180:	ab7fc5b7          	lui	a1,0xab7fc
    80000184:	b6f58593          	addi	a1,a1,-1169 # ffffffffab7fbb6f <absimm+0xfffffffef0aee09f>
    80000188:	00b59593          	slli	a1,a1,0xb
    8000018c:	55b58593          	addi	a1,a1,1371
    80000190:	00b59593          	slli	a1,a1,0xb
    80000194:	7ee58593          	addi	a1,a1,2030
    80000198:	00a59593          	slli	a1,a1,0xa
    8000019c:	36f58593          	addi	a1,a1,879
    800001a0:	d5bfe637          	lui	a2,0xd5bfe
    800001a4:	db760613          	addi	a2,a2,-585 # ffffffffd5bfddb7 <absimm+0xffffffff1aef02e7>
    800001a8:	00b61613          	slli	a2,a2,0xb
    800001ac:	6ad60613          	addi	a2,a2,1709
    800001b0:	00b61613          	slli	a2,a2,0xb
    800001b4:	7f760613          	addi	a2,a2,2039
    800001b8:	00a61613          	slli	a2,a2,0xa
    800001bc:	1b760613          	addi	a2,a2,439
    800001c0:	eadff6b7          	lui	a3,0xeadff
    800001c4:	edb68693          	addi	a3,a3,-293 # ffffffffeadfeedb <absimm+0xffffffff300f140b>
    800001c8:	00b69693          	slli	a3,a3,0xb
    800001cc:	75668693          	addi	a3,a3,1878
    800001d0:	00b69693          	slli	a3,a3,0xb
    800001d4:	7fb68693          	addi	a3,a3,2043
    800001d8:	00a69693          	slli	a3,a3,0xa
    800001dc:	2db68693          	addi	a3,a3,731
    800001e0:	f56ff737          	lui	a4,0xf56ff
    800001e4:	76d70713          	addi	a4,a4,1901 # fffffffff56ff76d <absimm+0xffffffff3a9f1c9d>
    800001e8:	00b71713          	slli	a4,a4,0xb
    800001ec:	7ab70713          	addi	a4,a4,1963
    800001f0:	00b71713          	slli	a4,a4,0xb
    800001f4:	3fd70713          	addi	a4,a4,1021
    800001f8:	00a71713          	slli	a4,a4,0xa
    800001fc:	36d70713          	addi	a4,a4,877
    80000200:	fab807b7          	lui	a5,0xfab80
    80000204:	bb678793          	addi	a5,a5,-1098 # fffffffffab7fbb6 <absimm+0xffffffff3fe720e6>
    80000208:	00b79793          	slli	a5,a5,0xb
    8000020c:	7d578793          	addi	a5,a5,2005
    80000210:	00b79793          	slli	a5,a5,0xb
    80000214:	5fe78793          	addi	a5,a5,1534
    80000218:	00a79793          	slli	a5,a5,0xa
    8000021c:	3b678793          	addi	a5,a5,950
    80000220:	7d5c0837          	lui	a6,0x7d5c0
    80000224:	ddb80813          	addi	a6,a6,-549 # 7d5bfddb <absimmsh+0x71aef02e>
    80000228:	00b81813          	slli	a6,a6,0xb
    8000022c:	3ea80813          	addi	a6,a6,1002
    80000230:	00b81813          	slli	a6,a6,0xb
    80000234:	6ff80813          	addi	a6,a6,1791
    80000238:	00a81813          	slli	a6,a6,0xa
    8000023c:	1db80813          	addi	a6,a6,475
    80000240:	beae08b7          	lui	a7,0xbeae0
    80000244:	eed88893          	addi	a7,a7,-275 # ffffffffbeadfeed <absimm+0xffffffff03dd241d>
    80000248:	00b89893          	slli	a7,a7,0xb
    8000024c:	5f588893          	addi	a7,a7,1525
    80000250:	00b89893          	slli	a7,a7,0xb
    80000254:	37f88893          	addi	a7,a7,895
    80000258:	00a89893          	slli	a7,a7,0xa
    8000025c:	2ed88893          	addi	a7,a7,749
    80000260:	df570937          	lui	s2,0xdf570
    80000264:	f7690913          	addi	s2,s2,-138 # ffffffffdf56ff76 <absimm+0xffffffff248624a6>
    80000268:	00b91913          	slli	s2,s2,0xb
    8000026c:	6fa90913          	addi	s2,s2,1786
    80000270:	00b91913          	slli	s2,s2,0xb
    80000274:	5bf90913          	addi	s2,s2,1471
    80000278:	00a91913          	slli	s2,s2,0xa
    8000027c:	37690913          	addi	s2,s2,886
    80000280:	6fab89b7          	lui	s3,0x6fab8
    80000284:	fbb98993          	addi	s3,s3,-69 # 6fab7fbb <absimmsh+0x63fe720e>
    80000288:	00b99993          	slli	s3,s3,0xb
    8000028c:	37d98993          	addi	s3,s3,893
    80000290:	00b99993          	slli	s3,s3,0xb
    80000294:	2df98993          	addi	s3,s3,735
    80000298:	00a99993          	slli	s3,s3,0xa
    8000029c:	3bb98993          	addi	s3,s3,955
    800002a0:	b7d5ca37          	lui	s4,0xb7d5c
    800002a4:	fdda0a13          	addi	s4,s4,-35 # ffffffffb7d5bfdd <absimm+0xfffffffefd04e50d>
    800002a8:	00ba1a13          	slli	s4,s4,0xb
    800002ac:	5bea0a13          	addi	s4,s4,1470
    800002b0:	00ba1a13          	slli	s4,s4,0xb
    800002b4:	56fa0a13          	addi	s4,s4,1391
    800002b8:	00aa1a13          	slli	s4,s4,0xa
    800002bc:	3dda0a13          	addi	s4,s4,989
    800002c0:	dbeaeab7          	lui	s5,0xdbeae
    800002c4:	feea8a93          	addi	s5,s5,-18 # ffffffffdbeadfee <absimm+0xffffffff211a051e>
    800002c8:	00ba9a93          	slli	s5,s5,0xb
    800002cc:	6dfa8a93          	addi	s5,s5,1759
    800002d0:	00ba9a93          	slli	s5,s5,0xb
    800002d4:	2b7a8a93          	addi	s5,s5,695
    800002d8:	00aa9a93          	slli	s5,s5,0xa
    800002dc:	3eea8a93          	addi	s5,s5,1006
    800002e0:	6df57b37          	lui	s6,0x6df57
    800002e4:	ff7b0b13          	addi	s6,s6,-9 # 6df56ff7 <absimmsh+0x6248624a>
    800002e8:	00bb1b13          	slli	s6,s6,0xb
    800002ec:	36fb0b13          	addi	s6,s6,879
    800002f0:	00bb1b13          	slli	s6,s6,0xb
    800002f4:	55bb0b13          	addi	s6,s6,1371
    800002f8:	00ab1b13          	slli	s6,s6,0xa
    800002fc:	3f7b0b13          	addi	s6,s6,1015
    80000300:	b6fabbb7          	lui	s7,0xb6fab
    80000304:	7fbb8b93          	addi	s7,s7,2043 # ffffffffb6fab7fb <absimm+0xfffffffefc29dd2b>
    80000308:	00bb9b93          	slli	s7,s7,0xb
    8000030c:	5b7b8b93          	addi	s7,s7,1463
    80000310:	00bb9b93          	slli	s7,s7,0xb
    80000314:	6adb8b93          	addi	s7,s7,1709
    80000318:	00ab9b93          	slli	s7,s7,0xa
    8000031c:	3fbb8b93          	addi	s7,s7,1019
    80000320:	db7d6c37          	lui	s8,0xdb7d6
    80000324:	bfdc0c13          	addi	s8,s8,-1027 # ffffffffdb7d5bfd <absimm+0xffffffff20ac812d>
    80000328:	00bc1c13          	slli	s8,s8,0xb
    8000032c:	6dbc0c13          	addi	s8,s8,1755
    80000330:	00bc1c13          	slli	s8,s8,0xb
    80000334:	756c0c13          	addi	s8,s8,1878
    80000338:	00ac1c13          	slli	s8,s8,0xa
    8000033c:	3fdc0c13          	addi	s8,s8,1021
    80000340:	edbebcb7          	lui	s9,0xedbeb
    80000344:	dfec8c93          	addi	s9,s9,-514 # ffffffffedbeadfe <absimm+0xffffffff32edd32e>
    80000348:	00bc9c93          	slli	s9,s9,0xb
    8000034c:	76dc8c93          	addi	s9,s9,1901
    80000350:	00bc9c93          	slli	s9,s9,0xb
    80000354:	7abc8c93          	addi	s9,s9,1963
    80000358:	00ac9c93          	slli	s9,s9,0xa
    8000035c:	1fec8c93          	addi	s9,s9,510
    80000360:	76df5d37          	lui	s10,0x76df5
    80000364:	6ffd0d13          	addi	s10,s10,1791 # 76df56ff <absimmsh+0x6b324952>
    80000368:	00bd1d13          	slli	s10,s10,0xb
    8000036c:	3b6d0d13          	addi	s10,s10,950
    80000370:	00bd1d13          	slli	s10,s10,0xb
    80000374:	7d5d0d13          	addi	s10,s10,2005
    80000378:	00ad1d13          	slli	s10,s10,0xa
    8000037c:	2ffd0d13          	addi	s10,s10,767
    80000380:	bb6fbdb7          	lui	s11,0xbb6fb
    80000384:	b7fd8d93          	addi	s11,s11,-1153 # ffffffffbb6fab7f <absimm+0xffffffff009ed0af>
    80000388:	00bd9d93          	slli	s11,s11,0xb
    8000038c:	5dbd8d93          	addi	s11,s11,1499
    80000390:	00bd9d93          	slli	s11,s11,0xb
    80000394:	3ead8d93          	addi	s11,s11,1002
    80000398:	00ad9d93          	slli	s11,s11,0xa
    8000039c:	37fd8d93          	addi	s11,s11,895
    800003a0:	ddb7de37          	lui	t3,0xddb7d
    800003a4:	5bfe0e13          	addi	t3,t3,1471 # ffffffffddb7d5bf <absimm+0xffffffff22e6faef>
    800003a8:	00be1e13          	slli	t3,t3,0xb
    800003ac:	6ede0e13          	addi	t3,t3,1773
    800003b0:	00be1e13          	slli	t3,t3,0xb
    800003b4:	5f5e0e13          	addi	t3,t3,1525
    800003b8:	00ae1e13          	slli	t3,t3,0xa
    800003bc:	1bfe0e13          	addi	t3,t3,447
    800003c0:	eedbfeb7          	lui	t4,0xeedbf
    800003c4:	adfe8e93          	addi	t4,t4,-1313 # ffffffffeedbeadf <absimm+0xffffffff340b100f>
    800003c8:	00be9e93          	slli	t4,t4,0xb
    800003cc:	776e8e93          	addi	t4,t4,1910
    800003d0:	00be9e93          	slli	t4,t4,0xb
    800003d4:	6fae8e93          	addi	t4,t4,1786
    800003d8:	00ae9e93          	slli	t4,t4,0xa
    800003dc:	2dfe8e93          	addi	t4,t4,735
    800003e0:	f76dff37          	lui	t5,0xf76df
    800003e4:	56ff0f13          	addi	t5,t5,1391 # fffffffff76df56f <absimm+0xffffffff3c9d1a9f>
    800003e8:	00bf1f13          	slli	t5,t5,0xb
    800003ec:	7bbf0f13          	addi	t5,t5,1979
    800003f0:	00bf1f13          	slli	t5,t5,0xb
    800003f4:	37df0f13          	addi	t5,t5,893
    800003f8:	00af1f13          	slli	t5,t5,0xa
    800003fc:	16ff0f13          	addi	t5,t5,367
    80000400:	fbb70fb7          	lui	t6,0xfbb70
    80000404:	ab7f8f93          	addi	t6,t6,-1353 # fffffffffbb6fab7 <absimm+0xffffffff40e61fe7>
    80000408:	00bf9f93          	slli	t6,t6,0xb
    8000040c:	7ddf8f93          	addi	t6,t6,2013
    80000410:	00bf9f93          	slli	t6,t6,0xb
    80000414:	5bef8f93          	addi	t6,t6,1470
    80000418:	00af9f93          	slli	t6,t6,0xa
    8000041c:	2b7f8f93          	addi	t6,t6,695

0000000080000420 <rvtest_code_begin>:
    80000420:	0000fb97          	auipc	s7,0xf
    80000424:	be8b8b93          	addi	s7,s7,-1048 # 8000f008 <signature_x23_0>
    80000428:	00000013          	nop
    8000042c:	00000013          	nop
    80000430:	00000013          	nop
    80000434:	00000013          	nop
    80000438:	00000013          	nop
    8000043c:	00000013          	nop

0000000080000440 <inst_0>:
    80000440:	00100a93          	li	s5,1
    80000444:	027a9a93          	slli	s5,s5,0x27
    80000448:	00100a93          	li	s5,1
    8000044c:	027a9a93          	slli	s5,s5,0x27
    80000450:	415a8833          	sub	a6,s5,s5
    80000454:	010bb023          	sd	a6,0(s7)
    80000458:	00000e13          	li	t3,0
    8000045c:	010e0463          	beq	t3,a6,80000464 <inst_1>
    80000460:	bc5ff06f          	j	80000024 <rvtest_error>

0000000080000464 <inst_1>:
    80000464:	00100913          	li	s2,1
    80000468:	03c91913          	slli	s2,s2,0x3c
    8000046c:	00100313          	li	t1,1
    80000470:	03131313          	slli	t1,t1,0x31
    80000474:	fff34313          	not	t1,t1
    80000478:	40690333          	sub	t1,s2,t1
    8000047c:	006bb423          	sd	t1,8(s7)
    80000480:	00001e37          	lui	t3,0x1
    80000484:	801e0e1b          	addiw	t3,t3,-2047 # 801 <offset+0x409>
    80000488:	031e1e13          	slli	t3,t3,0x31
    8000048c:	001e0e13          	addi	t3,t3,1
    80000490:	006e0463          	beq	t3,t1,80000498 <inst_2>
    80000494:	b91ff06f          	j	80000024 <rvtest_error>

0000000080000498 <inst_2>:
    80000498:	00100593          	li	a1,1
    8000049c:	03b59593          	slli	a1,a1,0x3b
    800004a0:	fff5c593          	not	a1,a1
    800004a4:	00100593          	li	a1,1
    800004a8:	03b59593          	slli	a1,a1,0x3b
    800004ac:	fff5c593          	not	a1,a1
    800004b0:	40b585b3          	sub	a1,a1,a1
    800004b4:	00bbb823          	sd	a1,16(s7)
    800004b8:	00000e13          	li	t3,0
    800004bc:	00be0463          	beq	t3,a1,800004c4 <inst_3>
    800004c0:	b65ff06f          	j	80000024 <rvtest_error>

00000000800004c4 <inst_3>:
    800004c4:	00100113          	li	sp,1
    800004c8:	00b11113          	slli	sp,sp,0xb
    800004cc:	fff14113          	not	sp,sp
    800004d0:	00100993          	li	s3,1
    800004d4:	00b99993          	slli	s3,s3,0xb
    800004d8:	41310db3          	sub	s11,sp,s3
    800004dc:	01bbbc23          	sd	s11,24(s7)
    800004e0:	fffffe37          	lui	t3,0xfffff
    800004e4:	fffe0e1b          	addiw	t3,t3,-1 # ffffffffffffefff <absimm+0xffffffff452f152f>
    800004e8:	01be0463          	beq	t3,s11,800004f0 <inst_4>
    800004ec:	b39ff06f          	j	80000024 <rvtest_error>

00000000800004f0 <inst_4>:
    800004f0:	00000f93          	li	t6,0
    800004f4:	00000a13          	li	s4,0
    800004f8:	414f8fb3          	sub	t6,t6,s4
    800004fc:	03fbb023          	sd	t6,32(s7)
    80000500:	00000e13          	li	t3,0
    80000504:	01fe0463          	beq	t3,t6,8000050c <inst_5>
    80000508:	b1dff06f          	j	80000024 <rvtest_error>

000000008000050c <inst_5>:
    8000050c:	00100e93          	li	t4,1
    80000510:	031e9e93          	slli	t4,t4,0x31
    80000514:	fffece93          	not	t4,t4
    80000518:	fff00413          	li	s0,-1
    8000051c:	03f41413          	slli	s0,s0,0x3f
    80000520:	408e8a33          	sub	s4,t4,s0
    80000524:	034bb423          	sd	s4,40(s7)
    80000528:	00004e37          	lui	t3,0x4
    8000052c:	fffe0e1b          	addiw	t3,t3,-1 # 3fff <offset+0x3c07>
    80000530:	031e1e13          	slli	t3,t3,0x31
    80000534:	fffe0e13          	addi	t3,t3,-1
    80000538:	014e0463          	beq	t3,s4,80000540 <inst_6>
    8000053c:	ae9ff06f          	j	80000024 <rvtest_error>

0000000080000540 <inst_6>:
    80000540:	00100413          	li	s0,1
    80000544:	02041413          	slli	s0,s0,0x20
    80000548:	fff44413          	not	s0,s0
    8000054c:	fff00093          	li	ra,-1
    80000550:	0010d093          	srli	ra,ra,0x1
    80000554:	401409b3          	sub	s3,s0,ra
    80000558:	033bb823          	sd	s3,48(s7)
    8000055c:	80000e37          	lui	t3,0x80000
    80000560:	fffe0e1b          	addiw	t3,t3,-1 # 7fffffff <absimmsh+0x7452f252>
    80000564:	020e1e13          	slli	t3,t3,0x20
    80000568:	013e0463          	beq	t3,s3,80000570 <inst_7>
    8000056c:	ab9ff06f          	j	80000024 <rvtest_error>

0000000080000570 <inst_7>:
    80000570:	01000513          	li	a0,16
    80000574:	00100193          	li	gp,1
    80000578:	403504b3          	sub	s1,a0,gp
    8000057c:	029bbc23          	sd	s1,56(s7)
    80000580:	00f00e13          	li	t3,15
    80000584:	009e0463          	beq	t3,s1,8000058c <inst_8>
    80000588:	a9dff06f          	j	80000024 <rvtest_error>

000000008000058c <inst_8>:
    8000058c:	fff00c13          	li	s8,-1
    80000590:	03fc1c13          	slli	s8,s8,0x3f
    80000594:	fbf00713          	li	a4,-65
    80000598:	40ec0b33          	sub	s6,s8,a4
    8000059c:	056bb023          	sd	s6,64(s7)
    800005a0:	fff00e1b          	addiw	t3,zero,-1
    800005a4:	03fe1e13          	slli	t3,t3,0x3f
    800005a8:	041e0e13          	addi	t3,t3,65
    800005ac:	016e0463          	beq	t3,s6,800005b4 <inst_9>
    800005b0:	a75ff06f          	j	80000024 <rvtest_error>

00000000800005b4 <inst_9>:
    800005b4:	fff00093          	li	ra,-1
    800005b8:	0010d093          	srli	ra,ra,0x1
    800005bc:	00100513          	li	a0,1
    800005c0:	01a51513          	slli	a0,a0,0x1a
    800005c4:	40a08633          	sub	a2,ra,a0
    800005c8:	04cbb423          	sd	a2,72(s7)
    800005cc:	00100e1b          	addiw	t3,zero,1
    800005d0:	025e1e13          	slli	t3,t3,0x25
    800005d4:	fffe0e13          	addi	t3,t3,-1
    800005d8:	01ae1e13          	slli	t3,t3,0x1a
    800005dc:	fffe0e13          	addi	t3,t3,-1
    800005e0:	00ce0463          	beq	t3,a2,800005e8 <inst_10>
    800005e4:	a41ff06f          	j	80000024 <rvtest_error>

00000000800005e8 <inst_10>:
    800005e8:	00100b13          	li	s6,1
    800005ec:	00100493          	li	s1,1
    800005f0:	03e49493          	slli	s1,s1,0x3e
    800005f4:	409b0cb3          	sub	s9,s6,s1
    800005f8:	059bb823          	sd	s9,80(s7)
    800005fc:	fff00e1b          	addiw	t3,zero,-1
    80000600:	03ee1e13          	slli	t3,t3,0x3e
    80000604:	001e0e13          	addi	t3,t3,1
    80000608:	019e0463          	beq	t3,s9,80000610 <inst_11>
    8000060c:	a19ff06f          	j	80000024 <rvtest_error>

0000000080000610 <inst_11>:
    80000610:	00400693          	li	a3,4
    80000614:	00400793          	li	a5,4
    80000618:	40f68eb3          	sub	t4,a3,a5
    8000061c:	05dbbc23          	sd	t4,88(s7)
    80000620:	00000e13          	li	t3,0
    80000624:	01de0463          	beq	t3,t4,8000062c <inst_12>
    80000628:	9fdff06f          	j	80000024 <rvtest_error>

000000008000062c <inst_12>:
    8000062c:	00100293          	li	t0,1
    80000630:	00c29293          	slli	t0,t0,0xc
    80000634:	fff2c293          	not	t0,t0
    80000638:	00800693          	li	a3,8
    8000063c:	40d28533          	sub	a0,t0,a3
    80000640:	06abb023          	sd	a0,96(s7)
    80000644:	fffffe37          	lui	t3,0xfffff
    80000648:	ff7e0e1b          	addiw	t3,t3,-9 # ffffffffffffeff7 <absimm+0xffffffff452f1527>
    8000064c:	00ae0463          	beq	t3,a0,80000654 <inst_13>
    80000650:	9d5ff06f          	j	80000024 <rvtest_error>

0000000080000654 <inst_13>:
    80000654:	00000013          	nop
    80000658:	01000293          	li	t0,16
    8000065c:	405003b3          	neg	t2,t0
    80000660:	067bb423          	sd	t2,104(s7)
    80000664:	ff000e13          	li	t3,-16
    80000668:	007e0463          	beq	t3,t2,80000670 <inst_14>
    8000066c:	9b9ff06f          	j	80000024 <rvtest_error>

0000000080000670 <inst_14>:
    80000670:	00400393          	li	t2,4
    80000674:	02000b13          	li	s6,32
    80000678:	41638233          	sub	tp,t2,s6
    8000067c:	064bb823          	sd	tp,112(s7)
    80000680:	fe400e13          	li	t3,-28
    80000684:	004e0463          	beq	t3,tp,8000068c <inst_15>
    80000688:	99dff06f          	j	80000024 <rvtest_error>

000000008000068c <inst_15>:
    8000068c:	000007b7          	lui	a5,0x0
    80000690:	00078793          	mv	a5,a5
    80000694:	00b79793          	slli	a5,a5,0xb
    80000698:	5a878793          	addi	a5,a5,1448 # 5a8 <offset+0x1b0>
    8000069c:	00b79793          	slli	a5,a5,0xb
    800006a0:	13c78793          	addi	a5,a5,316
    800006a4:	00a79793          	slli	a5,a5,0xa
    800006a8:	33378793          	addi	a5,a5,819
    800006ac:	04000893          	li	a7,64
    800006b0:	41178d33          	sub	s10,a5,a7
    800006b4:	07abbc23          	sd	s10,120(s7)
    800006b8:	000b5e37          	lui	t3,0xb5
    800006bc:	04fe0e1b          	addiw	t3,t3,79 # b504f <offset+0xb4c57>
    800006c0:	00ce1e13          	slli	t3,t3,0xc
    800006c4:	2f3e0e13          	addi	t3,t3,755
    800006c8:	01ae0463          	beq	t3,s10,800006d0 <inst_15+0x44>
    800006cc:	959ff06f          	j	80000024 <rvtest_error>
    800006d0:	00000013          	nop
    800006d4:	00000013          	nop
    800006d8:	00000013          	nop
    800006dc:	00000013          	nop
    800006e0:	0000f517          	auipc	a0,0xf
    800006e4:	9a850513          	addi	a0,a0,-1624 # 8000f088 <signature_x10_0>
    800006e8:	00000013          	nop
    800006ec:	00000013          	nop
    800006f0:	00000013          	nop
    800006f4:	00000013          	nop
    800006f8:	00000013          	nop
    800006fc:	00000013          	nop

0000000080000700 <inst_16>:
    80000700:	00100e13          	li	t3,1
    80000704:	032e1e13          	slli	t3,t3,0x32
    80000708:	fffe4e13          	not	t3,t3
    8000070c:	08000c13          	li	s8,128
    80000710:	418e0ab3          	sub	s5,t3,s8
    80000714:	01553023          	sd	s5,0(a0)
    80000718:	fff0059b          	addiw	a1,zero,-1
    8000071c:	03259593          	slli	a1,a1,0x32
    80000720:	f7f58593          	addi	a1,a1,-129
    80000724:	01558463          	beq	a1,s5,8000072c <inst_17>
    80000728:	8fdff06f          	j	80000024 <rvtest_error>

000000008000072c <inst_17>:
    8000072c:	00100313          	li	t1,1
    80000730:	01331313          	slli	t1,t1,0x13
    80000734:	10000e13          	li	t3,256
    80000738:	41c30433          	sub	s0,t1,t3
    8000073c:	00853423          	sd	s0,8(a0)
    80000740:	000805b7          	lui	a1,0x80
    80000744:	f005859b          	addiw	a1,a1,-256 # 7ff00 <offset+0x7fb08>
    80000748:	00858463          	beq	a1,s0,80000750 <inst_18>
    8000074c:	8d9ff06f          	j	80000024 <rvtest_error>

0000000080000750 <inst_18>:
    80000750:	00100493          	li	s1,1
    80000754:	01149493          	slli	s1,s1,0x11
    80000758:	20000613          	li	a2,512
    8000075c:	40c48133          	sub	sp,s1,a2
    80000760:	00253823          	sd	sp,16(a0)
    80000764:	000205b7          	lui	a1,0x20
    80000768:	e005859b          	addiw	a1,a1,-512 # 1fe00 <offset+0x1fa08>
    8000076c:	00258463          	beq	a1,sp,80000774 <inst_19>
    80000770:	8b5ff06f          	j	80000024 <rvtest_error>

0000000080000774 <inst_19>:
    80000774:	00100213          	li	tp,1
    80000778:	03d21213          	slli	tp,tp,0x3d
    8000077c:	40000d13          	li	s10,1024
    80000780:	41a20e33          	sub	t3,tp,s10
    80000784:	01c53c23          	sd	t3,24(a0)
    80000788:	0010059b          	addiw	a1,zero,1
    8000078c:	03d59593          	slli	a1,a1,0x3d
    80000790:	c0058593          	addi	a1,a1,-1024
    80000794:	01c58463          	beq	a1,t3,8000079c <inst_20>
    80000798:	88dff06f          	j	80000024 <rvtest_error>

000000008000079c <inst_20>:
    8000079c:	00100193          	li	gp,1
    800007a0:	01c19193          	slli	gp,gp,0x1c
    800007a4:	00100e93          	li	t4,1
    800007a8:	00ce9e93          	slli	t4,t4,0xc
    800007ac:	41d18f33          	sub	t5,gp,t4
    800007b0:	03e53023          	sd	t5,32(a0)
    800007b4:	0ffff5b7          	lui	a1,0xffff
    800007b8:	01e58463          	beq	a1,t5,800007c0 <inst_21>
    800007bc:	869ff06f          	j	80000024 <rvtest_error>

00000000800007c0 <inst_21>:
    800007c0:	00400a13          	li	s4,4
    800007c4:	00100113          	li	sp,1
    800007c8:	00d11113          	slli	sp,sp,0xd
    800007cc:	402a08b3          	sub	a7,s4,sp
    800007d0:	03153423          	sd	a7,40(a0)
    800007d4:	ffffe5b7          	lui	a1,0xffffe
    800007d8:	0045859b          	addiw	a1,a1,4 # ffffffffffffe004 <absimm+0xffffffff452f0534>
    800007dc:	01158463          	beq	a1,a7,800007e4 <inst_22>
    800007e0:	845ff06f          	j	80000024 <rvtest_error>

00000000800007e4 <inst_22>:
    800007e4:	aaaabd37          	lui	s10,0xaaaab
    800007e8:	aaad0d13          	addi	s10,s10,-1366 # ffffffffaaaaaaaa <absimm+0xfffffffeefd9cfda>
    800007ec:	00bd1d13          	slli	s10,s10,0xb
    800007f0:	555d0d13          	addi	s10,s10,1365
    800007f4:	00bd1d13          	slli	s10,s10,0xb
    800007f8:	2aad0d13          	addi	s10,s10,682
    800007fc:	00ad1d13          	slli	s10,s10,0xa
    80000800:	2abd0d13          	addi	s10,s10,683
    80000804:	00100393          	li	t2,1
    80000808:	00e39393          	slli	t2,t2,0xe
    8000080c:	407d07b3          	sub	a5,s10,t2
    80000810:	02f53823          	sd	a5,48(a0)
    80000814:	faaab5b7          	lui	a1,0xfaaab
    80000818:	aab5859b          	addiw	a1,a1,-1365 # fffffffffaaaaaab <absimm+0xffffffff3fd9cfdb>
    8000081c:	00c59593          	slli	a1,a1,0xc
    80000820:	aab58593          	addi	a1,a1,-1365
    80000824:	00c59593          	slli	a1,a1,0xc
    80000828:	aa758593          	addi	a1,a1,-1369
    8000082c:	00c59593          	slli	a1,a1,0xc
    80000830:	aab58593          	addi	a1,a1,-1365
    80000834:	00f58463          	beq	a1,a5,8000083c <inst_23>
    80000838:	fecff06f          	j	80000024 <rvtest_error>

000000008000083c <inst_23>:
    8000083c:	00100b93          	li	s7,1
    80000840:	036b9b93          	slli	s7,s7,0x36
    80000844:	fffbcb93          	not	s7,s7
    80000848:	00100f93          	li	t6,1
    8000084c:	00ff9f93          	slli	t6,t6,0xf
    80000850:	41fb8033          	sub	zero,s7,t6
    80000854:	02053c23          	sd	zero,56(a0)
    80000858:	00000593          	li	a1,0
    8000085c:	00058463          	beqz	a1,80000864 <inst_24>
    80000860:	fc4ff06f          	j	80000024 <rvtest_error>

0000000080000864 <inst_24>:
    80000864:	00100613          	li	a2,1
    80000868:	01061613          	slli	a2,a2,0x10
    8000086c:	00100f13          	li	t5,1
    80000870:	010f1f13          	slli	t5,t5,0x10
    80000874:	41e600b3          	sub	ra,a2,t5
    80000878:	04153023          	sd	ra,64(a0)
    8000087c:	00000593          	li	a1,0
    80000880:	00158463          	beq	a1,ra,80000888 <inst_25>
    80000884:	fa0ff06f          	j	80000024 <rvtest_error>

0000000080000888 <inst_25>:
    80000888:	00100813          	li	a6,1
    8000088c:	01d81813          	slli	a6,a6,0x1d
    80000890:	00100b93          	li	s7,1
    80000894:	011b9b93          	slli	s7,s7,0x11
    80000898:	417806b3          	sub	a3,a6,s7
    8000089c:	04d53423          	sd	a3,72(a0)
    800008a0:	1ffe05b7          	lui	a1,0x1ffe0
    800008a4:	00d58463          	beq	a1,a3,800008ac <inst_26>
    800008a8:	f7cff06f          	j	80000024 <rvtest_error>

00000000800008ac <inst_26>:
    800008ac:	00100d93          	li	s11,1
    800008b0:	014d9d93          	slli	s11,s11,0x14
    800008b4:	fffdcd93          	not	s11,s11
    800008b8:	00100213          	li	tp,1
    800008bc:	01221213          	slli	tp,tp,0x12
    800008c0:	404d8c33          	sub	s8,s11,tp
    800008c4:	05853823          	sd	s8,80(a0)
    800008c8:	ffec05b7          	lui	a1,0xffec0
    800008cc:	fff5859b          	addiw	a1,a1,-1 # ffffffffffebffff <absimm+0xffffffff451b252f>
    800008d0:	01858463          	beq	a1,s8,800008d8 <inst_27>
    800008d4:	f50ff06f          	j	80000024 <rvtest_error>

00000000800008d8 <inst_27>:
    800008d8:	00100f13          	li	t5,1
    800008dc:	01bf1f13          	slli	t5,t5,0x1b
    800008e0:	ffff4f13          	not	t5,t5
    800008e4:	00100d93          	li	s11,1
    800008e8:	013d9d93          	slli	s11,s11,0x13
    800008ec:	41bf02b3          	sub	t0,t5,s11
    800008f0:	04553c23          	sd	t0,88(a0)
    800008f4:	f7f805b7          	lui	a1,0xf7f80
    800008f8:	fff5859b          	addiw	a1,a1,-1 # fffffffff7f7ffff <absimm+0xffffffff3d27252f>
    800008fc:	00558463          	beq	a1,t0,80000904 <inst_28>
    80000900:	f24ff06f          	j	80000024 <rvtest_error>

0000000080000904 <inst_28>:
    80000904:	00100893          	li	a7,1
    80000908:	03c89893          	slli	a7,a7,0x3c
    8000090c:	00100c93          	li	s9,1
    80000910:	014c9c93          	slli	s9,s9,0x14
    80000914:	41988733          	sub	a4,a7,s9
    80000918:	06e53023          	sd	a4,96(a0)
    8000091c:	0010059b          	addiw	a1,zero,1
    80000920:	02859593          	slli	a1,a1,0x28
    80000924:	fff58593          	addi	a1,a1,-1
    80000928:	01459593          	slli	a1,a1,0x14
    8000092c:	00e58463          	beq	a1,a4,80000934 <inst_29>
    80000930:	ef4ff06f          	j	80000024 <rvtest_error>

0000000080000934 <inst_29>:
    80000934:	00800c93          	li	s9,8
    80000938:	00100813          	li	a6,1
    8000093c:	01581813          	slli	a6,a6,0x15
    80000940:	410c8bb3          	sub	s7,s9,a6
    80000944:	07753423          	sd	s7,104(a0)
    80000948:	ffe005b7          	lui	a1,0xffe00
    8000094c:	0085859b          	addiw	a1,a1,8 # ffffffffffe00008 <absimm+0xffffffff450f2538>
    80000950:	01758463          	beq	a1,s7,80000958 <inst_30>
    80000954:	ed0ff06f          	j	80000024 <rvtest_error>

0000000080000958 <inst_30>:
    80000958:	00100993          	li	s3,1
    8000095c:	02d99993          	slli	s3,s3,0x2d
    80000960:	00000013          	nop
    80000964:	40098933          	sub	s2,s3,zero
    80000968:	07253823          	sd	s2,112(a0)
    8000096c:	0010059b          	addiw	a1,zero,1
    80000970:	02d59593          	slli	a1,a1,0x2d
    80000974:	01258463          	beq	a1,s2,8000097c <inst_30+0x24>
    80000978:	eacff06f          	j	80000024 <rvtest_error>
    8000097c:	00000013          	nop
    80000980:	0000e097          	auipc	ra,0xe
    80000984:	78008093          	addi	ra,ra,1920 # 8000f100 <signature_x1_0>
    80000988:	00000013          	nop
    8000098c:	00000013          	nop
    80000990:	00000013          	nop
    80000994:	00000013          	nop
    80000998:	00000013          	nop
    8000099c:	00000013          	nop

00000000800009a0 <inst_31>:
    800009a0:	01000713          	li	a4,16
    800009a4:	00100913          	li	s2,1
    800009a8:	01791913          	slli	s2,s2,0x17
    800009ac:	412701b3          	sub	gp,a4,s2
    800009b0:	0030b023          	sd	gp,0(ra)
    800009b4:	ff800137          	lui	sp,0xff800
    800009b8:	0101011b          	addiw	sp,sp,16 # ffffffffff800010 <absimm+0xffffffff44af2540>
    800009bc:	00310463          	beq	sp,gp,800009c4 <inst_32>
    800009c0:	e64ff06f          	j	80000024 <rvtest_error>

00000000800009c4 <inst_32>:
    800009c4:	00100513          	li	a0,1
    800009c8:	01951513          	slli	a0,a0,0x19
    800009cc:	00100593          	li	a1,1
    800009d0:	01859593          	slli	a1,a1,0x18
    800009d4:	40b50633          	sub	a2,a0,a1
    800009d8:	00c0b423          	sd	a2,8(ra)
    800009dc:	01000137          	lui	sp,0x1000
    800009e0:	00c10463          	beq	sp,a2,800009e8 <inst_33>
    800009e4:	e40ff06f          	j	80000024 <rvtest_error>

00000000800009e8 <inst_33>:
    800009e8:	00100513          	li	a0,1
    800009ec:	01751513          	slli	a0,a0,0x17
    800009f0:	00100593          	li	a1,1
    800009f4:	01959593          	slli	a1,a1,0x19
    800009f8:	40b50633          	sub	a2,a0,a1
    800009fc:	00c0b823          	sd	a2,16(ra)
    80000a00:	fe800137          	lui	sp,0xfe800
    80000a04:	00c10463          	beq	sp,a2,80000a0c <inst_34>
    80000a08:	e1cff06f          	j	80000024 <rvtest_error>

0000000080000a0c <inst_34>:
    80000a0c:	00100513          	li	a0,1
    80000a10:	01d51513          	slli	a0,a0,0x1d
    80000a14:	00100593          	li	a1,1
    80000a18:	01b59593          	slli	a1,a1,0x1b
    80000a1c:	40b50633          	sub	a2,a0,a1
    80000a20:	00c0bc23          	sd	a2,24(ra)
    80000a24:	18000137          	lui	sp,0x18000
    80000a28:	00c10463          	beq	sp,a2,80000a30 <inst_35>
    80000a2c:	df8ff06f          	j	80000024 <rvtest_error>

0000000080000a30 <inst_35>:
    80000a30:	04000513          	li	a0,64
    80000a34:	00100593          	li	a1,1
    80000a38:	01c59593          	slli	a1,a1,0x1c
    80000a3c:	40b50633          	sub	a2,a0,a1
    80000a40:	02c0b023          	sd	a2,32(ra)
    80000a44:	f0000137          	lui	sp,0xf0000
    80000a48:	0401011b          	addiw	sp,sp,64 # fffffffff0000040 <absimm+0xffffffff352f2570>
    80000a4c:	00c10463          	beq	sp,a2,80000a54 <inst_36>
    80000a50:	dd4ff06f          	j	80000024 <rvtest_error>

0000000080000a54 <inst_36>:
    80000a54:	00000537          	lui	a0,0x0
    80000a58:	fff50513          	addi	a0,a0,-1
    80000a5c:	00b51513          	slli	a0,a0,0xb
    80000a60:	25750513          	addi	a0,a0,599
    80000a64:	00b51513          	slli	a0,a0,0xb
    80000a68:	6c350513          	addi	a0,a0,1731
    80000a6c:	00a51513          	slli	a0,a0,0xa
    80000a70:	0cd50513          	addi	a0,a0,205
    80000a74:	00100593          	li	a1,1
    80000a78:	01d59593          	slli	a1,a1,0x1d
    80000a7c:	40b50633          	sub	a2,a0,a1
    80000a80:	02c0b423          	sd	a2,40(ra)
    80000a84:	fff2b137          	lui	sp,0xfff2b
    80000a88:	fb11011b          	addiw	sp,sp,-79 # fffffffffff2afb1 <absimm+0xffffffff4521d4e1>
    80000a8c:	00c11113          	slli	sp,sp,0xc
    80000a90:	ccd10113          	addi	sp,sp,-819
    80000a94:	00c10463          	beq	sp,a2,80000a9c <inst_37>
    80000a98:	d8cff06f          	j	80000024 <rvtest_error>

0000000080000a9c <inst_37>:
    80000a9c:	00100513          	li	a0,1
    80000aa0:	01551513          	slli	a0,a0,0x15
    80000aa4:	00100593          	li	a1,1
    80000aa8:	01e59593          	slli	a1,a1,0x1e
    80000aac:	40b50633          	sub	a2,a0,a1
    80000ab0:	02c0b823          	sd	a2,48(ra)
    80000ab4:	c0200137          	lui	sp,0xc0200
    80000ab8:	00c10463          	beq	sp,a2,80000ac0 <inst_38>
    80000abc:	d68ff06f          	j	80000024 <rvtest_error>

0000000080000ac0 <inst_38>:
    80000ac0:	00100513          	li	a0,1
    80000ac4:	02c51513          	slli	a0,a0,0x2c
    80000ac8:	fff54513          	not	a0,a0
    80000acc:	00100593          	li	a1,1
    80000ad0:	01f59593          	slli	a1,a1,0x1f
    80000ad4:	40b50633          	sub	a2,a0,a1
    80000ad8:	02c0bc23          	sd	a2,56(ra)
    80000adc:	ffffe137          	lui	sp,0xffffe
    80000ae0:	fff1011b          	addiw	sp,sp,-1 # ffffffffffffdfff <absimm+0xffffffff452f052f>
    80000ae4:	01f11113          	slli	sp,sp,0x1f
    80000ae8:	fff10113          	addi	sp,sp,-1
    80000aec:	00c10463          	beq	sp,a2,80000af4 <inst_39>
    80000af0:	d34ff06f          	j	80000024 <rvtest_error>

0000000080000af4 <inst_39>:
    80000af4:	00100513          	li	a0,1
    80000af8:	01151513          	slli	a0,a0,0x11
    80000afc:	00100593          	li	a1,1
    80000b00:	02059593          	slli	a1,a1,0x20
    80000b04:	40b50633          	sub	a2,a0,a1
    80000b08:	04c0b023          	sd	a2,64(ra)
    80000b0c:	ffff8137          	lui	sp,0xffff8
    80000b10:	0011011b          	addiw	sp,sp,1 # ffffffffffff8001 <absimm+0xffffffff452ea531>
    80000b14:	01111113          	slli	sp,sp,0x11
    80000b18:	00c10463          	beq	sp,a2,80000b20 <inst_40>
    80000b1c:	d08ff06f          	j	80000024 <rvtest_error>

0000000080000b20 <inst_40>:
    80000b20:	00000537          	lui	a0,0x0
    80000b24:	fff50513          	addi	a0,a0,-1
    80000b28:	00b51513          	slli	a0,a0,0xb
    80000b2c:	25750513          	addi	a0,a0,599
    80000b30:	00b51513          	slli	a0,a0,0xb
    80000b34:	6c350513          	addi	a0,a0,1731
    80000b38:	00a51513          	slli	a0,a0,0xa
    80000b3c:	0ce50513          	addi	a0,a0,206
    80000b40:	00100593          	li	a1,1
    80000b44:	02159593          	slli	a1,a1,0x21
    80000b48:	40b50633          	sub	a2,a0,a1
    80000b4c:	04c0b423          	sd	a2,72(ra)
    80000b50:	ffd4b137          	lui	sp,0xffd4b
    80000b54:	fb11011b          	addiw	sp,sp,-79 # ffffffffffd4afb1 <absimm+0xffffffff4503d4e1>
    80000b58:	00c11113          	slli	sp,sp,0xc
    80000b5c:	cce10113          	addi	sp,sp,-818
    80000b60:	00c10463          	beq	sp,a2,80000b68 <inst_41>
    80000b64:	cc0ff06f          	j	80000024 <rvtest_error>

0000000080000b68 <inst_41>:
    80000b68:	00700513          	li	a0,7
    80000b6c:	00100593          	li	a1,1
    80000b70:	02259593          	slli	a1,a1,0x22
    80000b74:	40b50633          	sub	a2,a0,a1
    80000b78:	04c0b823          	sd	a2,80(ra)
    80000b7c:	fff0011b          	addiw	sp,zero,-1
    80000b80:	02211113          	slli	sp,sp,0x22
    80000b84:	00710113          	addi	sp,sp,7
    80000b88:	00c10463          	beq	sp,a2,80000b90 <inst_42>
    80000b8c:	c98ff06f          	j	80000024 <rvtest_error>

0000000080000b90 <inst_42>:
    80000b90:	00400513          	li	a0,4
    80000b94:	00100593          	li	a1,1
    80000b98:	02359593          	slli	a1,a1,0x23
    80000b9c:	40b50633          	sub	a2,a0,a1
    80000ba0:	04c0bc23          	sd	a2,88(ra)
    80000ba4:	fff0011b          	addiw	sp,zero,-1
    80000ba8:	02311113          	slli	sp,sp,0x23
    80000bac:	00410113          	addi	sp,sp,4
    80000bb0:	00c10463          	beq	sp,a2,80000bb8 <inst_43>
    80000bb4:	c70ff06f          	j	80000024 <rvtest_error>

0000000080000bb8 <inst_43>:
    80000bb8:	00100513          	li	a0,1
    80000bbc:	02851513          	slli	a0,a0,0x28
    80000bc0:	00100593          	li	a1,1
    80000bc4:	02459593          	slli	a1,a1,0x24
    80000bc8:	40b50633          	sub	a2,a0,a1
    80000bcc:	06c0b023          	sd	a2,96(ra)
    80000bd0:	00f0011b          	addiw	sp,zero,15
    80000bd4:	02411113          	slli	sp,sp,0x24
    80000bd8:	00c10463          	beq	sp,a2,80000be0 <inst_44>
    80000bdc:	c48ff06f          	j	80000024 <rvtest_error>

0000000080000be0 <inst_44>:
    80000be0:	00100513          	li	a0,1
    80000be4:	02151513          	slli	a0,a0,0x21
    80000be8:	00100593          	li	a1,1
    80000bec:	02559593          	slli	a1,a1,0x25
    80000bf0:	40b50633          	sub	a2,a0,a1
    80000bf4:	06c0b423          	sd	a2,104(ra)
    80000bf8:	ff10011b          	addiw	sp,zero,-15
    80000bfc:	02111113          	slli	sp,sp,0x21
    80000c00:	00c10463          	beq	sp,a2,80000c08 <inst_45>
    80000c04:	c20ff06f          	j	80000024 <rvtest_error>

0000000080000c08 <inst_45>:
    80000c08:	00100513          	li	a0,1
    80000c0c:	02751513          	slli	a0,a0,0x27
    80000c10:	fff54513          	not	a0,a0
    80000c14:	00100593          	li	a1,1
    80000c18:	02659593          	slli	a1,a1,0x26
    80000c1c:	40b50633          	sub	a2,a0,a1
    80000c20:	06c0b823          	sd	a2,112(ra)
    80000c24:	ffd0011b          	addiw	sp,zero,-3
    80000c28:	02611113          	slli	sp,sp,0x26
    80000c2c:	fff10113          	addi	sp,sp,-1
    80000c30:	00c10463          	beq	sp,a2,80000c38 <inst_46>
    80000c34:	bf0ff06f          	j	80000024 <rvtest_error>

0000000080000c38 <inst_46>:
    80000c38:	00100513          	li	a0,1
    80000c3c:	01e51513          	slli	a0,a0,0x1e
    80000c40:	fff54513          	not	a0,a0
    80000c44:	00100593          	li	a1,1
    80000c48:	02759593          	slli	a1,a1,0x27
    80000c4c:	40b50633          	sub	a2,a0,a1
    80000c50:	06c0bc23          	sd	a2,120(ra)
    80000c54:	dff0011b          	addiw	sp,zero,-513
    80000c58:	01e11113          	slli	sp,sp,0x1e
    80000c5c:	fff10113          	addi	sp,sp,-1
    80000c60:	00c10463          	beq	sp,a2,80000c68 <inst_47>
    80000c64:	bc0ff06f          	j	80000024 <rvtest_error>

0000000080000c68 <inst_47>:
    80000c68:	00500513          	li	a0,5
    80000c6c:	00100593          	li	a1,1
    80000c70:	02859593          	slli	a1,a1,0x28
    80000c74:	40b50633          	sub	a2,a0,a1
    80000c78:	08c0b023          	sd	a2,128(ra)
    80000c7c:	fff0011b          	addiw	sp,zero,-1
    80000c80:	02811113          	slli	sp,sp,0x28
    80000c84:	00510113          	addi	sp,sp,5
    80000c88:	00c10463          	beq	sp,a2,80000c90 <inst_48>
    80000c8c:	b98ff06f          	j	80000024 <rvtest_error>

0000000080000c90 <inst_48>:
    80000c90:	00100513          	li	a0,1
    80000c94:	00b51513          	slli	a0,a0,0xb
    80000c98:	fff54513          	not	a0,a0
    80000c9c:	00100593          	li	a1,1
    80000ca0:	02959593          	slli	a1,a1,0x29
    80000ca4:	40b50633          	sub	a2,a0,a1
    80000ca8:	08c0b423          	sd	a2,136(ra)
    80000cac:	e0000137          	lui	sp,0xe0000
    80000cb0:	fff1011b          	addiw	sp,sp,-1 # ffffffffdfffffff <absimm+0xffffffff252f252f>
    80000cb4:	00c11113          	slli	sp,sp,0xc
    80000cb8:	7ff10113          	addi	sp,sp,2047
    80000cbc:	00c10463          	beq	sp,a2,80000cc4 <inst_49>
    80000cc0:	b64ff06f          	j	80000024 <rvtest_error>

0000000080000cc4 <inst_49>:
    80000cc4:	00100513          	li	a0,1
    80000cc8:	01c51513          	slli	a0,a0,0x1c
    80000ccc:	00100593          	li	a1,1
    80000cd0:	02a59593          	slli	a1,a1,0x2a
    80000cd4:	40b50633          	sub	a2,a0,a1
    80000cd8:	08c0b823          	sd	a2,144(ra)
    80000cdc:	ffffc137          	lui	sp,0xffffc
    80000ce0:	0011011b          	addiw	sp,sp,1 # ffffffffffffc001 <absimm+0xffffffff452ee531>
    80000ce4:	01c11113          	slli	sp,sp,0x1c
    80000ce8:	00c10463          	beq	sp,a2,80000cf0 <inst_50>
    80000cec:	b38ff06f          	j	80000024 <rvtest_error>

0000000080000cf0 <inst_50>:
    80000cf0:	00000513          	li	a0,0
    80000cf4:	00100593          	li	a1,1
    80000cf8:	02b59593          	slli	a1,a1,0x2b
    80000cfc:	40b50633          	sub	a2,a0,a1
    80000d00:	08c0bc23          	sd	a2,152(ra)
    80000d04:	fff0011b          	addiw	sp,zero,-1
    80000d08:	02b11113          	slli	sp,sp,0x2b
    80000d0c:	00c10463          	beq	sp,a2,80000d14 <inst_51>
    80000d10:	b14ff06f          	j	80000024 <rvtest_error>

0000000080000d14 <inst_51>:
    80000d14:	00100513          	li	a0,1
    80000d18:	00d51513          	slli	a0,a0,0xd
    80000d1c:	00100593          	li	a1,1
    80000d20:	02c59593          	slli	a1,a1,0x2c
    80000d24:	40b50633          	sub	a2,a0,a1
    80000d28:	0ac0b023          	sd	a2,160(ra)
    80000d2c:	80000137          	lui	sp,0x80000
    80000d30:	0011011b          	addiw	sp,sp,1 # ffffffff80000001 <absimm+0xfffffffec52f2531>
    80000d34:	00d11113          	slli	sp,sp,0xd
    80000d38:	00c10463          	beq	sp,a2,80000d40 <inst_52>
    80000d3c:	ae8ff06f          	j	80000024 <rvtest_error>

0000000080000d40 <inst_52>:
    80000d40:	00100513          	li	a0,1
    80000d44:	00d51513          	slli	a0,a0,0xd
    80000d48:	00100593          	li	a1,1
    80000d4c:	02d59593          	slli	a1,a1,0x2d
    80000d50:	40b50633          	sub	a2,a0,a1
    80000d54:	0ac0b423          	sd	a2,168(ra)
    80000d58:	fff0011b          	addiw	sp,zero,-1
    80000d5c:	02011113          	slli	sp,sp,0x20
    80000d60:	00110113          	addi	sp,sp,1
    80000d64:	00d11113          	slli	sp,sp,0xd
    80000d68:	00c10463          	beq	sp,a2,80000d70 <inst_53>
    80000d6c:	ab8ff06f          	j	80000024 <rvtest_error>

0000000080000d70 <inst_53>:
    80000d70:	08000513          	li	a0,128
    80000d74:	00100593          	li	a1,1
    80000d78:	02e59593          	slli	a1,a1,0x2e
    80000d7c:	40b50633          	sub	a2,a0,a1
    80000d80:	0ac0b823          	sd	a2,176(ra)
    80000d84:	fff0011b          	addiw	sp,zero,-1
    80000d88:	02e11113          	slli	sp,sp,0x2e
    80000d8c:	08010113          	addi	sp,sp,128
    80000d90:	00c10463          	beq	sp,a2,80000d98 <inst_54>
    80000d94:	a90ff06f          	j	80000024 <rvtest_error>

0000000080000d98 <inst_54>:
    80000d98:	00400513          	li	a0,4
    80000d9c:	00100593          	li	a1,1
    80000da0:	02f59593          	slli	a1,a1,0x2f
    80000da4:	40b50633          	sub	a2,a0,a1
    80000da8:	0ac0bc23          	sd	a2,184(ra)
    80000dac:	fff0011b          	addiw	sp,zero,-1
    80000db0:	02f11113          	slli	sp,sp,0x2f
    80000db4:	00410113          	addi	sp,sp,4
    80000db8:	00c10463          	beq	sp,a2,80000dc0 <inst_55>
    80000dbc:	a68ff06f          	j	80000024 <rvtest_error>

0000000080000dc0 <inst_55>:
    80000dc0:	00100513          	li	a0,1
    80000dc4:	02551513          	slli	a0,a0,0x25
    80000dc8:	fff54513          	not	a0,a0
    80000dcc:	00100593          	li	a1,1
    80000dd0:	03059593          	slli	a1,a1,0x30
    80000dd4:	40b50633          	sub	a2,a0,a1
    80000dd8:	0cc0b023          	sd	a2,192(ra)
    80000ddc:	fffff137          	lui	sp,0xfffff
    80000de0:	7ff1011b          	addiw	sp,sp,2047 # fffffffffffff7ff <absimm+0xffffffff452f1d2f>
    80000de4:	02511113          	slli	sp,sp,0x25
    80000de8:	fff10113          	addi	sp,sp,-1
    80000dec:	00c10463          	beq	sp,a2,80000df4 <inst_56>
    80000df0:	a34ff06f          	j	80000024 <rvtest_error>

0000000080000df4 <inst_56>:
    80000df4:	00000537          	lui	a0,0x0
    80000df8:	fff50513          	addi	a0,a0,-1
    80000dfc:	00b51513          	slli	a0,a0,0xb
    80000e00:	25750513          	addi	a0,a0,599
    80000e04:	00b51513          	slli	a0,a0,0xb
    80000e08:	6c350513          	addi	a0,a0,1731
    80000e0c:	00a51513          	slli	a0,a0,0xa
    80000e10:	0ce50513          	addi	a0,a0,206
    80000e14:	00100593          	li	a1,1
    80000e18:	03159593          	slli	a1,a1,0x31
    80000e1c:	40b50633          	sub	a2,a0,a1
    80000e20:	0cc0b423          	sd	a2,200(ra)
    80000e24:	fe000137          	lui	sp,0xfe000
    80000e28:	f4b1011b          	addiw	sp,sp,-181 # fffffffffdffff4b <absimm+0xffffffff432f247b>
    80000e2c:	00c11113          	slli	sp,sp,0xc
    80000e30:	fb110113          	addi	sp,sp,-79
    80000e34:	00c11113          	slli	sp,sp,0xc
    80000e38:	cce10113          	addi	sp,sp,-818
    80000e3c:	00c10463          	beq	sp,a2,80000e44 <inst_57>
    80000e40:	9e4ff06f          	j	80000024 <rvtest_error>

0000000080000e44 <inst_57>:
    80000e44:	ffd00513          	li	a0,-3
    80000e48:	00100593          	li	a1,1
    80000e4c:	03259593          	slli	a1,a1,0x32
    80000e50:	40b50633          	sub	a2,a0,a1
    80000e54:	0cc0b823          	sd	a2,208(ra)
    80000e58:	fff0011b          	addiw	sp,zero,-1
    80000e5c:	03211113          	slli	sp,sp,0x32
    80000e60:	ffd10113          	addi	sp,sp,-3
    80000e64:	00c10463          	beq	sp,a2,80000e6c <inst_58>
    80000e68:	9bcff06f          	j	80000024 <rvtest_error>

0000000080000e6c <inst_58>:
    80000e6c:	00100513          	li	a0,1
    80000e70:	03351513          	slli	a0,a0,0x33
    80000e74:	fff54513          	not	a0,a0
    80000e78:	00100593          	li	a1,1
    80000e7c:	03359593          	slli	a1,a1,0x33
    80000e80:	40b50633          	sub	a2,a0,a1
    80000e84:	0cc0bc23          	sd	a2,216(ra)
    80000e88:	fff0011b          	addiw	sp,zero,-1
    80000e8c:	03411113          	slli	sp,sp,0x34
    80000e90:	fff10113          	addi	sp,sp,-1
    80000e94:	00c10463          	beq	sp,a2,80000e9c <inst_59>
    80000e98:	98cff06f          	j	80000024 <rvtest_error>

0000000080000e9c <inst_59>:
    80000e9c:	00300513          	li	a0,3
    80000ea0:	00100593          	li	a1,1
    80000ea4:	03459593          	slli	a1,a1,0x34
    80000ea8:	40b50633          	sub	a2,a0,a1
    80000eac:	0ec0b023          	sd	a2,224(ra)
    80000eb0:	fff0011b          	addiw	sp,zero,-1
    80000eb4:	03411113          	slli	sp,sp,0x34
    80000eb8:	00310113          	addi	sp,sp,3
    80000ebc:	00c10463          	beq	sp,a2,80000ec4 <inst_60>
    80000ec0:	964ff06f          	j	80000024 <rvtest_error>

0000000080000ec4 <inst_60>:
    80000ec4:	00100513          	li	a0,1
    80000ec8:	01251513          	slli	a0,a0,0x12
    80000ecc:	00100593          	li	a1,1
    80000ed0:	03559593          	slli	a1,a1,0x35
    80000ed4:	40b50633          	sub	a2,a0,a1
    80000ed8:	0ec0b423          	sd	a2,232(ra)
    80000edc:	fff0011b          	addiw	sp,zero,-1
    80000ee0:	02311113          	slli	sp,sp,0x23
    80000ee4:	00110113          	addi	sp,sp,1
    80000ee8:	01211113          	slli	sp,sp,0x12
    80000eec:	00c10463          	beq	sp,a2,80000ef4 <inst_61>
    80000ef0:	934ff06f          	j	80000024 <rvtest_error>

0000000080000ef4 <inst_61>:
    80000ef4:	00100513          	li	a0,1
    80000ef8:	02a51513          	slli	a0,a0,0x2a
    80000efc:	fff54513          	not	a0,a0
    80000f00:	00100593          	li	a1,1
    80000f04:	03659593          	slli	a1,a1,0x36
    80000f08:	40b50633          	sub	a2,a0,a1
    80000f0c:	0ec0b823          	sd	a2,240(ra)
    80000f10:	fffff137          	lui	sp,0xfffff
    80000f14:	fff1011b          	addiw	sp,sp,-1 # ffffffffffffefff <absimm+0xffffffff452f152f>
    80000f18:	02a11113          	slli	sp,sp,0x2a
    80000f1c:	fff10113          	addi	sp,sp,-1
    80000f20:	00c10463          	beq	sp,a2,80000f28 <inst_62>
    80000f24:	900ff06f          	j	80000024 <rvtest_error>

0000000080000f28 <inst_62>:
    80000f28:	00500513          	li	a0,5
    80000f2c:	00100593          	li	a1,1
    80000f30:	03759593          	slli	a1,a1,0x37
    80000f34:	40b50633          	sub	a2,a0,a1
    80000f38:	0ec0bc23          	sd	a2,248(ra)
    80000f3c:	fff0011b          	addiw	sp,zero,-1
    80000f40:	03711113          	slli	sp,sp,0x37
    80000f44:	00510113          	addi	sp,sp,5
    80000f48:	00c10463          	beq	sp,a2,80000f50 <inst_63>
    80000f4c:	8d8ff06f          	j	80000024 <rvtest_error>

0000000080000f50 <inst_63>:
    80000f50:	00100513          	li	a0,1
    80000f54:	02551513          	slli	a0,a0,0x25
    80000f58:	00100593          	li	a1,1
    80000f5c:	03859593          	slli	a1,a1,0x38
    80000f60:	40b50633          	sub	a2,a0,a1
    80000f64:	10c0b023          	sd	a2,256(ra)
    80000f68:	fff80137          	lui	sp,0xfff80
    80000f6c:	0011011b          	addiw	sp,sp,1 # fffffffffff80001 <absimm+0xffffffff45272531>
    80000f70:	02511113          	slli	sp,sp,0x25
    80000f74:	00c10463          	beq	sp,a2,80000f7c <inst_64>
    80000f78:	8acff06f          	j	80000024 <rvtest_error>

0000000080000f7c <inst_64>:
    80000f7c:	00100513          	li	a0,1
    80000f80:	01051513          	slli	a0,a0,0x10
    80000f84:	00100593          	li	a1,1
    80000f88:	03959593          	slli	a1,a1,0x39
    80000f8c:	40b50633          	sub	a2,a0,a1
    80000f90:	10c0b423          	sd	a2,264(ra)
    80000f94:	fff0011b          	addiw	sp,zero,-1
    80000f98:	02911113          	slli	sp,sp,0x29
    80000f9c:	00110113          	addi	sp,sp,1
    80000fa0:	01011113          	slli	sp,sp,0x10
    80000fa4:	00c10463          	beq	sp,a2,80000fac <inst_65>
    80000fa8:	87cff06f          	j	80000024 <rvtest_error>

0000000080000fac <inst_65>:
    80000fac:	00400513          	li	a0,4
    80000fb0:	00100593          	li	a1,1
    80000fb4:	03a59593          	slli	a1,a1,0x3a
    80000fb8:	40b50633          	sub	a2,a0,a1
    80000fbc:	10c0b823          	sd	a2,272(ra)
    80000fc0:	fff0011b          	addiw	sp,zero,-1
    80000fc4:	03a11113          	slli	sp,sp,0x3a
    80000fc8:	00410113          	addi	sp,sp,4
    80000fcc:	00c10463          	beq	sp,a2,80000fd4 <inst_66>
    80000fd0:	854ff06f          	j	80000024 <rvtest_error>

0000000080000fd4 <inst_66>:
    80000fd4:	00100513          	li	a0,1
    80000fd8:	03051513          	slli	a0,a0,0x30
    80000fdc:	fff54513          	not	a0,a0
    80000fe0:	00100593          	li	a1,1
    80000fe4:	03b59593          	slli	a1,a1,0x3b
    80000fe8:	40b50633          	sub	a2,a0,a1
    80000fec:	10c0bc23          	sd	a2,280(ra)
    80000ff0:	fffff137          	lui	sp,0xfffff
    80000ff4:	7ff1011b          	addiw	sp,sp,2047 # fffffffffffff7ff <absimm+0xffffffff452f1d2f>
    80000ff8:	03011113          	slli	sp,sp,0x30
    80000ffc:	fff10113          	addi	sp,sp,-1
    80001000:	00c10463          	beq	sp,a2,80001008 <inst_67>
    80001004:	820ff06f          	j	80000024 <rvtest_error>

0000000080001008 <inst_67>:
    80001008:	00100513          	li	a0,1
    8000100c:	02f51513          	slli	a0,a0,0x2f
    80001010:	fff54513          	not	a0,a0
    80001014:	00100593          	li	a1,1
    80001018:	03c59593          	slli	a1,a1,0x3c
    8000101c:	40b50633          	sub	a2,a0,a1
    80001020:	12c0b023          	sd	a2,288(ra)
    80001024:	ffffe137          	lui	sp,0xffffe
    80001028:	fff1011b          	addiw	sp,sp,-1 # ffffffffffffdfff <absimm+0xffffffff452f052f>
    8000102c:	02f11113          	slli	sp,sp,0x2f
    80001030:	fff10113          	addi	sp,sp,-1
    80001034:	00c10463          	beq	sp,a2,8000103c <inst_68>
    80001038:	fedfe06f          	j	80000024 <rvtest_error>

000000008000103c <inst_68>:
    8000103c:	00100513          	li	a0,1
    80001040:	02451513          	slli	a0,a0,0x24
    80001044:	fff54513          	not	a0,a0
    80001048:	00100593          	li	a1,1
    8000104c:	03d59593          	slli	a1,a1,0x3d
    80001050:	40b50633          	sub	a2,a0,a1
    80001054:	12c0b423          	sd	a2,296(ra)
    80001058:	fe000137          	lui	sp,0xfe000
    8000105c:	fff1011b          	addiw	sp,sp,-1 # fffffffffdffffff <absimm+0xffffffff432f252f>
    80001060:	02411113          	slli	sp,sp,0x24
    80001064:	fff10113          	addi	sp,sp,-1
    80001068:	00c10463          	beq	sp,a2,80001070 <inst_69>
    8000106c:	fb9fe06f          	j	80000024 <rvtest_error>

0000000080001070 <inst_69>:
    80001070:	00100513          	li	a0,1
    80001074:	03951513          	slli	a0,a0,0x39
    80001078:	fff54513          	not	a0,a0
    8000107c:	ffe00593          	li	a1,-2
    80001080:	40b50633          	sub	a2,a0,a1
    80001084:	12c0b823          	sd	a2,304(ra)
    80001088:	fff0011b          	addiw	sp,zero,-1
    8000108c:	03911113          	slli	sp,sp,0x39
    80001090:	00110113          	addi	sp,sp,1
    80001094:	00c10463          	beq	sp,a2,8000109c <inst_70>
    80001098:	f8dfe06f          	j	80000024 <rvtest_error>

000000008000109c <inst_70>:
    8000109c:	ffd00513          	li	a0,-3
    800010a0:	ffd00593          	li	a1,-3
    800010a4:	40b50633          	sub	a2,a0,a1
    800010a8:	12c0bc23          	sd	a2,312(ra)
    800010ac:	00000113          	li	sp,0
    800010b0:	00c10463          	beq	sp,a2,800010b8 <inst_71>
    800010b4:	f71fe06f          	j	80000024 <rvtest_error>

00000000800010b8 <inst_71>:
    800010b8:	33333537          	lui	a0,0x33333
    800010bc:	33350513          	addi	a0,a0,819 # 33333333 <absimmsh+0x27862586>
    800010c0:	00b51513          	slli	a0,a0,0xb
    800010c4:	19950513          	addi	a0,a0,409
    800010c8:	00b51513          	slli	a0,a0,0xb
    800010cc:	4cc50513          	addi	a0,a0,1228
    800010d0:	00a51513          	slli	a0,a0,0xa
    800010d4:	33250513          	addi	a0,a0,818
    800010d8:	ffb00593          	li	a1,-5
    800010dc:	40b50633          	sub	a2,a0,a1
    800010e0:	14c0b023          	sd	a2,320(ra)
    800010e4:	03333137          	lui	sp,0x3333
    800010e8:	3331011b          	addiw	sp,sp,819 # 3333333 <offset+0x3332f3b>
    800010ec:	00c11113          	slli	sp,sp,0xc
    800010f0:	33310113          	addi	sp,sp,819
    800010f4:	00c11113          	slli	sp,sp,0xc
    800010f8:	33310113          	addi	sp,sp,819
    800010fc:	00c11113          	slli	sp,sp,0xc
    80001100:	33710113          	addi	sp,sp,823
    80001104:	00c10463          	beq	sp,a2,8000110c <inst_72>
    80001108:	f1dfe06f          	j	80000024 <rvtest_error>

000000008000110c <inst_72>:
    8000110c:	10000513          	li	a0,256
    80001110:	ff700593          	li	a1,-9
    80001114:	40b50633          	sub	a2,a0,a1
    80001118:	14c0b423          	sd	a2,328(ra)
    8000111c:	10900113          	li	sp,265
    80001120:	00c10463          	beq	sp,a2,80001128 <inst_73>
    80001124:	f01fe06f          	j	80000024 <rvtest_error>

0000000080001128 <inst_73>:
    80001128:	00100513          	li	a0,1
    8000112c:	03d51513          	slli	a0,a0,0x3d
    80001130:	fff54513          	not	a0,a0
    80001134:	fef00593          	li	a1,-17
    80001138:	40b50633          	sub	a2,a0,a1
    8000113c:	14c0b823          	sd	a2,336(ra)
    80001140:	fff0011b          	addiw	sp,zero,-1
    80001144:	03d11113          	slli	sp,sp,0x3d
    80001148:	01010113          	addi	sp,sp,16
    8000114c:	00c10463          	beq	sp,a2,80001154 <inst_74>
    80001150:	ed5fe06f          	j	80000024 <rvtest_error>

0000000080001154 <inst_74>:
    80001154:	00100513          	li	a0,1
    80001158:	02251513          	slli	a0,a0,0x22
    8000115c:	fdf00593          	li	a1,-33
    80001160:	40b50633          	sub	a2,a0,a1
    80001164:	14c0bc23          	sd	a2,344(ra)
    80001168:	0010011b          	addiw	sp,zero,1
    8000116c:	02211113          	slli	sp,sp,0x22
    80001170:	02110113          	addi	sp,sp,33
    80001174:	00c10463          	beq	sp,a2,8000117c <inst_75>
    80001178:	eadfe06f          	j	80000024 <rvtest_error>

000000008000117c <inst_75>:
    8000117c:	dff00513          	li	a0,-513
    80001180:	f7f00593          	li	a1,-129
    80001184:	40b50633          	sub	a2,a0,a1
    80001188:	16c0b023          	sd	a2,352(ra)
    8000118c:	e8000113          	li	sp,-384
    80001190:	00c10463          	beq	sp,a2,80001198 <inst_76>
    80001194:	e91fe06f          	j	80000024 <rvtest_error>

0000000080001198 <inst_76>:
    80001198:	00600513          	li	a0,6
    8000119c:	eff00593          	li	a1,-257
    800011a0:	40b50633          	sub	a2,a0,a1
    800011a4:	16c0b423          	sd	a2,360(ra)
    800011a8:	10700113          	li	sp,263
    800011ac:	00c10463          	beq	sp,a2,800011b4 <inst_77>
    800011b0:	e75fe06f          	j	80000024 <rvtest_error>

00000000800011b4 <inst_77>:
    800011b4:	00100513          	li	a0,1
    800011b8:	02151513          	slli	a0,a0,0x21
    800011bc:	fff54513          	not	a0,a0
    800011c0:	dff00593          	li	a1,-513
    800011c4:	40b50633          	sub	a2,a0,a1
    800011c8:	16c0b823          	sd	a2,368(ra)
    800011cc:	fff0011b          	addiw	sp,zero,-1
    800011d0:	02111113          	slli	sp,sp,0x21
    800011d4:	20010113          	addi	sp,sp,512
    800011d8:	00c10463          	beq	sp,a2,800011e0 <inst_78>
    800011dc:	e49fe06f          	j	80000024 <rvtest_error>

00000000800011e0 <inst_78>:
    800011e0:	00100513          	li	a0,1
    800011e4:	00b51513          	slli	a0,a0,0xb
    800011e8:	bff00593          	li	a1,-1025
    800011ec:	40b50633          	sub	a2,a0,a1
    800011f0:	16c0bc23          	sd	a2,376(ra)
    800011f4:	00001137          	lui	sp,0x1
    800011f8:	c011011b          	addiw	sp,sp,-1023 # c01 <offset+0x809>
    800011fc:	00c10463          	beq	sp,a2,80001204 <inst_79>
    80001200:	e25fe06f          	j	80000024 <rvtest_error>

0000000080001204 <inst_79>:
    80001204:	ffa00513          	li	a0,-6
    80001208:	00100593          	li	a1,1
    8000120c:	00b59593          	slli	a1,a1,0xb
    80001210:	fff5c593          	not	a1,a1
    80001214:	40b50633          	sub	a2,a0,a1
    80001218:	18c0b023          	sd	a2,384(ra)
    8000121c:	7fb00113          	li	sp,2043
    80001220:	00c10463          	beq	sp,a2,80001228 <inst_80>
    80001224:	e01fe06f          	j	80000024 <rvtest_error>

0000000080001228 <inst_80>:
    80001228:	00100513          	li	a0,1
    8000122c:	02b51513          	slli	a0,a0,0x2b
    80001230:	00100593          	li	a1,1
    80001234:	00c59593          	slli	a1,a1,0xc
    80001238:	fff5c593          	not	a1,a1
    8000123c:	40b50633          	sub	a2,a0,a1
    80001240:	18c0b423          	sd	a2,392(ra)
    80001244:	0010011b          	addiw	sp,zero,1
    80001248:	01f11113          	slli	sp,sp,0x1f
    8000124c:	00110113          	addi	sp,sp,1
    80001250:	00c11113          	slli	sp,sp,0xc
    80001254:	00110113          	addi	sp,sp,1
    80001258:	00c10463          	beq	sp,a2,80001260 <inst_81>
    8000125c:	dc9fe06f          	j	80000024 <rvtest_error>

0000000080001260 <inst_81>:
    80001260:	00100513          	li	a0,1
    80001264:	00c51513          	slli	a0,a0,0xc
    80001268:	fff54513          	not	a0,a0
    8000126c:	00100593          	li	a1,1
    80001270:	00d59593          	slli	a1,a1,0xd
    80001274:	fff5c593          	not	a1,a1
    80001278:	40b50633          	sub	a2,a0,a1
    8000127c:	18c0b823          	sd	a2,400(ra)
    80001280:	00001137          	lui	sp,0x1
    80001284:	00c10463          	beq	sp,a2,8000128c <inst_82>
    80001288:	d9dfe06f          	j	80000024 <rvtest_error>

000000008000128c <inst_82>:
    8000128c:	00200513          	li	a0,2
    80001290:	00100593          	li	a1,1
    80001294:	00e59593          	slli	a1,a1,0xe
    80001298:	fff5c593          	not	a1,a1
    8000129c:	40b50633          	sub	a2,a0,a1
    800012a0:	18c0bc23          	sd	a2,408(ra)
    800012a4:	00004137          	lui	sp,0x4
    800012a8:	0031011b          	addiw	sp,sp,3 # 4003 <offset+0x3c0b>
    800012ac:	00c10463          	beq	sp,a2,800012b4 <inst_83>
    800012b0:	d75fe06f          	j	80000024 <rvtest_error>

00000000800012b4 <inst_83>:
    800012b4:	ff900513          	li	a0,-7
    800012b8:	00100593          	li	a1,1
    800012bc:	00f59593          	slli	a1,a1,0xf
    800012c0:	fff5c593          	not	a1,a1
    800012c4:	40b50633          	sub	a2,a0,a1
    800012c8:	1ac0b023          	sd	a2,416(ra)
    800012cc:	00008137          	lui	sp,0x8
    800012d0:	ffa1011b          	addiw	sp,sp,-6 # 7ffa <offset+0x7c02>
    800012d4:	00c10463          	beq	sp,a2,800012dc <inst_84>
    800012d8:	d4dfe06f          	j	80000024 <rvtest_error>

00000000800012dc <inst_84>:
    800012dc:	bff00513          	li	a0,-1025
    800012e0:	00100593          	li	a1,1
    800012e4:	01059593          	slli	a1,a1,0x10
    800012e8:	fff5c593          	not	a1,a1
    800012ec:	40b50633          	sub	a2,a0,a1
    800012f0:	1ac0b423          	sd	a2,424(ra)
    800012f4:	00010137          	lui	sp,0x10
    800012f8:	c001011b          	addiw	sp,sp,-1024 # fc00 <offset+0xf808>
    800012fc:	00c10463          	beq	sp,a2,80001304 <inst_85>
    80001300:	d25fe06f          	j	80000024 <rvtest_error>

0000000080001304 <inst_85>:
    80001304:	00100513          	li	a0,1
    80001308:	02351513          	slli	a0,a0,0x23
    8000130c:	fff54513          	not	a0,a0
    80001310:	00100593          	li	a1,1
    80001314:	01159593          	slli	a1,a1,0x11
    80001318:	fff5c593          	not	a1,a1
    8000131c:	40b50633          	sub	a2,a0,a1
    80001320:	1ac0b823          	sd	a2,432(ra)
    80001324:	fffc0137          	lui	sp,0xfffc0
    80001328:	0011011b          	addiw	sp,sp,1 # fffffffffffc0001 <absimm+0xffffffff452b2531>
    8000132c:	01111113          	slli	sp,sp,0x11
    80001330:	00c10463          	beq	sp,a2,80001338 <inst_86>
    80001334:	cf1fe06f          	j	80000024 <rvtest_error>

0000000080001338 <inst_86>:
    80001338:	00100513          	li	a0,1
    8000133c:	03651513          	slli	a0,a0,0x36
    80001340:	00100593          	li	a1,1
    80001344:	01259593          	slli	a1,a1,0x12
    80001348:	fff5c593          	not	a1,a1
    8000134c:	40b50633          	sub	a2,a0,a1
    80001350:	1ac0bc23          	sd	a2,440(ra)
    80001354:	0010011b          	addiw	sp,zero,1
    80001358:	02411113          	slli	sp,sp,0x24
    8000135c:	00110113          	addi	sp,sp,1
    80001360:	01211113          	slli	sp,sp,0x12
    80001364:	00110113          	addi	sp,sp,1
    80001368:	00c10463          	beq	sp,a2,80001370 <inst_87>
    8000136c:	cb9fe06f          	j	80000024 <rvtest_error>

0000000080001370 <inst_87>:
    80001370:	00100513          	li	a0,1
    80001374:	01351513          	slli	a0,a0,0x13
    80001378:	00100593          	li	a1,1
    8000137c:	01359593          	slli	a1,a1,0x13
    80001380:	fff5c593          	not	a1,a1
    80001384:	40b50633          	sub	a2,a0,a1
    80001388:	1cc0b023          	sd	a2,448(ra)
    8000138c:	00100137          	lui	sp,0x100
    80001390:	0011011b          	addiw	sp,sp,1 # 100001 <offset+0xffc09>
    80001394:	00c10463          	beq	sp,a2,8000139c <inst_88>
    80001398:	c8dfe06f          	j	80000024 <rvtest_error>

000000008000139c <inst_88>:
    8000139c:	00700513          	li	a0,7
    800013a0:	00100593          	li	a1,1
    800013a4:	01459593          	slli	a1,a1,0x14
    800013a8:	fff5c593          	not	a1,a1
    800013ac:	40b50633          	sub	a2,a0,a1
    800013b0:	1cc0b423          	sd	a2,456(ra)
    800013b4:	00100137          	lui	sp,0x100
    800013b8:	0081011b          	addiw	sp,sp,8 # 100008 <offset+0xffc10>
    800013bc:	00c10463          	beq	sp,a2,800013c4 <inst_89>
    800013c0:	c65fe06f          	j	80000024 <rvtest_error>

00000000800013c4 <inst_89>:
    800013c4:	00100513          	li	a0,1
    800013c8:	01c51513          	slli	a0,a0,0x1c
    800013cc:	00100593          	li	a1,1
    800013d0:	01559593          	slli	a1,a1,0x15
    800013d4:	fff5c593          	not	a1,a1
    800013d8:	40b50633          	sub	a2,a0,a1
    800013dc:	1cc0b823          	sd	a2,464(ra)
    800013e0:	10200137          	lui	sp,0x10200
    800013e4:	0011011b          	addiw	sp,sp,1 # 10200001 <absimmsh+0x472f254>
    800013e8:	00c10463          	beq	sp,a2,800013f0 <inst_90>
    800013ec:	c39fe06f          	j	80000024 <rvtest_error>

00000000800013f0 <inst_90>:
    800013f0:	00100513          	li	a0,1
    800013f4:	02051513          	slli	a0,a0,0x20
    800013f8:	00100593          	li	a1,1
    800013fc:	01659593          	slli	a1,a1,0x16
    80001400:	fff5c593          	not	a1,a1
    80001404:	40b50633          	sub	a2,a0,a1
    80001408:	1cc0bc23          	sd	a2,472(ra)
    8000140c:	4010011b          	addiw	sp,zero,1025
    80001410:	01611113          	slli	sp,sp,0x16
    80001414:	00110113          	addi	sp,sp,1
    80001418:	00c10463          	beq	sp,a2,80001420 <inst_91>
    8000141c:	c09fe06f          	j	80000024 <rvtest_error>

0000000080001420 <inst_91>:
    80001420:	ffb00513          	li	a0,-5
    80001424:	00100593          	li	a1,1
    80001428:	01759593          	slli	a1,a1,0x17
    8000142c:	fff5c593          	not	a1,a1
    80001430:	40b50633          	sub	a2,a0,a1
    80001434:	1ec0b023          	sd	a2,480(ra)
    80001438:	00800137          	lui	sp,0x800
    8000143c:	ffc1011b          	addiw	sp,sp,-4 # 7ffffc <offset+0x7ffc04>
    80001440:	00c10463          	beq	sp,a2,80001448 <inst_92>
    80001444:	be1fe06f          	j	80000024 <rvtest_error>

0000000080001448 <inst_92>:
    80001448:	00100513          	li	a0,1
    8000144c:	02651513          	slli	a0,a0,0x26
    80001450:	00100593          	li	a1,1
    80001454:	01859593          	slli	a1,a1,0x18
    80001458:	fff5c593          	not	a1,a1
    8000145c:	40b50633          	sub	a2,a0,a1
    80001460:	1ec0b423          	sd	a2,488(ra)
    80001464:	00004137          	lui	sp,0x4
    80001468:	0011011b          	addiw	sp,sp,1 # 4001 <offset+0x3c09>
    8000146c:	01811113          	slli	sp,sp,0x18
    80001470:	00110113          	addi	sp,sp,1
    80001474:	00c10463          	beq	sp,a2,8000147c <inst_93>
    80001478:	badfe06f          	j	80000024 <rvtest_error>

000000008000147c <inst_93>:
    8000147c:	00100513          	li	a0,1
    80001480:	01d51513          	slli	a0,a0,0x1d
    80001484:	00100593          	li	a1,1
    80001488:	01959593          	slli	a1,a1,0x19
    8000148c:	fff5c593          	not	a1,a1
    80001490:	40b50633          	sub	a2,a0,a1
    80001494:	1ec0b823          	sd	a2,496(ra)
    80001498:	22000137          	lui	sp,0x22000
    8000149c:	0011011b          	addiw	sp,sp,1 # 22000001 <absimmsh+0x1652f254>
    800014a0:	00c10463          	beq	sp,a2,800014a8 <inst_94>
    800014a4:	b81fe06f          	j	80000024 <rvtest_error>

00000000800014a8 <inst_94>:
    800014a8:	02000513          	li	a0,32
    800014ac:	00100593          	li	a1,1
    800014b0:	01a59593          	slli	a1,a1,0x1a
    800014b4:	fff5c593          	not	a1,a1
    800014b8:	40b50633          	sub	a2,a0,a1
    800014bc:	1ec0bc23          	sd	a2,504(ra)
    800014c0:	04000137          	lui	sp,0x4000
    800014c4:	0211011b          	addiw	sp,sp,33 # 4000021 <offset+0x3fffc29>
    800014c8:	00c10463          	beq	sp,a2,800014d0 <inst_95>
    800014cc:	b59fe06f          	j	80000024 <rvtest_error>

00000000800014d0 <inst_95>:
    800014d0:	00100513          	li	a0,1
    800014d4:	01d51513          	slli	a0,a0,0x1d
    800014d8:	fff54513          	not	a0,a0
    800014dc:	00100593          	li	a1,1
    800014e0:	01b59593          	slli	a1,a1,0x1b
    800014e4:	fff5c593          	not	a1,a1
    800014e8:	40b50633          	sub	a2,a0,a1
    800014ec:	20c0b023          	sd	a2,512(ra)
    800014f0:	e8000137          	lui	sp,0xe8000
    800014f4:	00c10463          	beq	sp,a2,800014fc <inst_96>
    800014f8:	b2dfe06f          	j	80000024 <rvtest_error>

00000000800014fc <inst_96>:
    800014fc:	00000537          	lui	a0,0x0
    80001500:	fff50513          	addi	a0,a0,-1
    80001504:	00b51513          	slli	a0,a0,0xb
    80001508:	25750513          	addi	a0,a0,599
    8000150c:	00b51513          	slli	a0,a0,0xb
    80001510:	6c350513          	addi	a0,a0,1731
    80001514:	00a51513          	slli	a0,a0,0xa
    80001518:	0cd50513          	addi	a0,a0,205
    8000151c:	00100593          	li	a1,1
    80001520:	01c59593          	slli	a1,a1,0x1c
    80001524:	fff5c593          	not	a1,a1
    80001528:	40b50633          	sub	a2,a0,a1
    8000152c:	20c0b423          	sd	a2,520(ra)
    80001530:	fff5b137          	lui	sp,0xfff5b
    80001534:	fb11011b          	addiw	sp,sp,-79 # fffffffffff5afb1 <absimm+0xffffffff4524d4e1>
    80001538:	00c11113          	slli	sp,sp,0xc
    8000153c:	cce10113          	addi	sp,sp,-818
    80001540:	00c10463          	beq	sp,a2,80001548 <inst_97>
    80001544:	ae1fe06f          	j	80000024 <rvtest_error>

0000000080001548 <inst_97>:
    80001548:	00100513          	li	a0,1
    8000154c:	01651513          	slli	a0,a0,0x16
    80001550:	00100593          	li	a1,1
    80001554:	01d59593          	slli	a1,a1,0x1d
    80001558:	fff5c593          	not	a1,a1
    8000155c:	40b50633          	sub	a2,a0,a1
    80001560:	20c0b823          	sd	a2,528(ra)
    80001564:	20400137          	lui	sp,0x20400
    80001568:	0011011b          	addiw	sp,sp,1 # 20400001 <absimmsh+0x1492f254>
    8000156c:	00c10463          	beq	sp,a2,80001574 <inst_98>
    80001570:	ab5fe06f          	j	80000024 <rvtest_error>

0000000080001574 <inst_98>:
    80001574:	00000513          	li	a0,0
    80001578:	00100593          	li	a1,1
    8000157c:	01e59593          	slli	a1,a1,0x1e
    80001580:	fff5c593          	not	a1,a1
    80001584:	40b50633          	sub	a2,a0,a1
    80001588:	20c0bc23          	sd	a2,536(ra)
    8000158c:	40000137          	lui	sp,0x40000
    80001590:	0011011b          	addiw	sp,sp,1 # 40000001 <absimmsh+0x3452f254>
    80001594:	00c10463          	beq	sp,a2,8000159c <inst_99>
    80001598:	a8dfe06f          	j	80000024 <rvtest_error>

000000008000159c <inst_99>:
    8000159c:	04000513          	li	a0,64
    800015a0:	00100593          	li	a1,1
    800015a4:	01f59593          	slli	a1,a1,0x1f
    800015a8:	fff5c593          	not	a1,a1
    800015ac:	40b50633          	sub	a2,a0,a1
    800015b0:	22c0b023          	sd	a2,544(ra)
    800015b4:	0010011b          	addiw	sp,zero,1
    800015b8:	01f11113          	slli	sp,sp,0x1f
    800015bc:	04110113          	addi	sp,sp,65
    800015c0:	00c10463          	beq	sp,a2,800015c8 <inst_100>
    800015c4:	a61fe06f          	j	80000024 <rvtest_error>

00000000800015c8 <inst_100>:
    800015c8:	f7f00513          	li	a0,-129
    800015cc:	00100593          	li	a1,1
    800015d0:	02059593          	slli	a1,a1,0x20
    800015d4:	fff5c593          	not	a1,a1
    800015d8:	40b50633          	sub	a2,a0,a1
    800015dc:	22c0b423          	sd	a2,552(ra)
    800015e0:	0010011b          	addiw	sp,zero,1
    800015e4:	02011113          	slli	sp,sp,0x20
    800015e8:	f8010113          	addi	sp,sp,-128
    800015ec:	00c10463          	beq	sp,a2,800015f4 <inst_101>
    800015f0:	a35fe06f          	j	80000024 <rvtest_error>

00000000800015f4 <inst_101>:
    800015f4:	00100513          	li	a0,1
    800015f8:	02351513          	slli	a0,a0,0x23
    800015fc:	00100593          	li	a1,1
    80001600:	02159593          	slli	a1,a1,0x21
    80001604:	fff5c593          	not	a1,a1
    80001608:	40b50633          	sub	a2,a0,a1
    8000160c:	22c0b823          	sd	a2,560(ra)
    80001610:	0050011b          	addiw	sp,zero,5
    80001614:	02111113          	slli	sp,sp,0x21
    80001618:	00110113          	addi	sp,sp,1
    8000161c:	00c10463          	beq	sp,a2,80001624 <inst_102>
    80001620:	a05fe06f          	j	80000024 <rvtest_error>

0000000080001624 <inst_102>:
    80001624:	f7f00513          	li	a0,-129
    80001628:	00100593          	li	a1,1
    8000162c:	02259593          	slli	a1,a1,0x22
    80001630:	fff5c593          	not	a1,a1
    80001634:	40b50633          	sub	a2,a0,a1
    80001638:	22c0bc23          	sd	a2,568(ra)
    8000163c:	0010011b          	addiw	sp,zero,1
    80001640:	02211113          	slli	sp,sp,0x22
    80001644:	f8010113          	addi	sp,sp,-128
    80001648:	00c10463          	beq	sp,a2,80001650 <inst_103>
    8000164c:	9d9fe06f          	j	80000024 <rvtest_error>

0000000080001650 <inst_103>:
    80001650:	ffe00513          	li	a0,-2
    80001654:	00100593          	li	a1,1
    80001658:	02359593          	slli	a1,a1,0x23
    8000165c:	fff5c593          	not	a1,a1
    80001660:	40b50633          	sub	a2,a0,a1
    80001664:	24c0b023          	sd	a2,576(ra)
    80001668:	0010011b          	addiw	sp,zero,1
    8000166c:	02311113          	slli	sp,sp,0x23
    80001670:	fff10113          	addi	sp,sp,-1
    80001674:	00c10463          	beq	sp,a2,8000167c <inst_104>
    80001678:	9adfe06f          	j	80000024 <rvtest_error>

000000008000167c <inst_104>:
    8000167c:	00100513          	li	a0,1
    80001680:	01451513          	slli	a0,a0,0x14
    80001684:	fff54513          	not	a0,a0
    80001688:	00100593          	li	a1,1
    8000168c:	02459593          	slli	a1,a1,0x24
    80001690:	fff5c593          	not	a1,a1
    80001694:	40b50633          	sub	a2,a0,a1
    80001698:	24c0b423          	sd	a2,584(ra)
    8000169c:	00010137          	lui	sp,0x10
    800016a0:	fff1011b          	addiw	sp,sp,-1 # ffff <offset+0xfc07>
    800016a4:	01411113          	slli	sp,sp,0x14
    800016a8:	00c10463          	beq	sp,a2,800016b0 <inst_105>
    800016ac:	979fe06f          	j	80000024 <rvtest_error>

00000000800016b0 <inst_105>:
    800016b0:	00100513          	li	a0,1
    800016b4:	03551513          	slli	a0,a0,0x35
    800016b8:	00100593          	li	a1,1
    800016bc:	02559593          	slli	a1,a1,0x25
    800016c0:	fff5c593          	not	a1,a1
    800016c4:	40b50633          	sub	a2,a0,a1
    800016c8:	24c0b823          	sd	a2,592(ra)
    800016cc:	00010137          	lui	sp,0x10
    800016d0:	0011011b          	addiw	sp,sp,1 # 10001 <offset+0xfc09>
    800016d4:	02511113          	slli	sp,sp,0x25
    800016d8:	00110113          	addi	sp,sp,1
    800016dc:	00c10463          	beq	sp,a2,800016e4 <inst_106>
    800016e0:	945fe06f          	j	80000024 <rvtest_error>

00000000800016e4 <inst_106>:
    800016e4:	00100513          	li	a0,1
    800016e8:	00f51513          	slli	a0,a0,0xf
    800016ec:	00100593          	li	a1,1
    800016f0:	02659593          	slli	a1,a1,0x26
    800016f4:	fff5c593          	not	a1,a1
    800016f8:	40b50633          	sub	a2,a0,a1
    800016fc:	24c0bc23          	sd	a2,600(ra)
    80001700:	00800137          	lui	sp,0x800
    80001704:	0011011b          	addiw	sp,sp,1 # 800001 <offset+0x7ffc09>
    80001708:	00f11113          	slli	sp,sp,0xf
    8000170c:	00110113          	addi	sp,sp,1
    80001710:	00c10463          	beq	sp,a2,80001718 <inst_107>
    80001714:	911fe06f          	j	80000024 <rvtest_error>

0000000080001718 <inst_107>:
    80001718:	00100513          	li	a0,1
    8000171c:	02f51513          	slli	a0,a0,0x2f
    80001720:	fff54513          	not	a0,a0
    80001724:	00100593          	li	a1,1
    80001728:	02759593          	slli	a1,a1,0x27
    8000172c:	fff5c593          	not	a1,a1
    80001730:	40b50633          	sub	a2,a0,a1
    80001734:	26c0b023          	sd	a2,608(ra)
    80001738:	f010011b          	addiw	sp,zero,-255
    8000173c:	02711113          	slli	sp,sp,0x27
    80001740:	00c10463          	beq	sp,a2,80001748 <inst_108>
    80001744:	8e1fe06f          	j	80000024 <rvtest_error>

0000000080001748 <inst_108>:
    80001748:	00100513          	li	a0,1
    8000174c:	02851513          	slli	a0,a0,0x28
    80001750:	00100593          	li	a1,1
    80001754:	02859593          	slli	a1,a1,0x28
    80001758:	fff5c593          	not	a1,a1
    8000175c:	40b50633          	sub	a2,a0,a1
    80001760:	26c0b423          	sd	a2,616(ra)
    80001764:	0010011b          	addiw	sp,zero,1
    80001768:	02911113          	slli	sp,sp,0x29
    8000176c:	00110113          	addi	sp,sp,1
    80001770:	00c10463          	beq	sp,a2,80001778 <inst_109>
    80001774:	8b1fe06f          	j	80000024 <rvtest_error>

0000000080001778 <inst_109>:
    80001778:	55555537          	lui	a0,0x55555
    8000177c:	55550513          	addi	a0,a0,1365 # 55555555 <absimmsh+0x49a847a8>
    80001780:	00b51513          	slli	a0,a0,0xb
    80001784:	2aa50513          	addi	a0,a0,682
    80001788:	00b51513          	slli	a0,a0,0xb
    8000178c:	55550513          	addi	a0,a0,1365
    80001790:	00a51513          	slli	a0,a0,0xa
    80001794:	15450513          	addi	a0,a0,340
    80001798:	00100593          	li	a1,1
    8000179c:	02959593          	slli	a1,a1,0x29
    800017a0:	fff5c593          	not	a1,a1
    800017a4:	40b50633          	sub	a2,a0,a1
    800017a8:	26c0b823          	sd	a2,624(ra)
    800017ac:	05555137          	lui	sp,0x5555
    800017b0:	5751011b          	addiw	sp,sp,1397 # 5555575 <offset+0x555517d>
    800017b4:	00c11113          	slli	sp,sp,0xc
    800017b8:	55510113          	addi	sp,sp,1365
    800017bc:	00c11113          	slli	sp,sp,0xc
    800017c0:	55510113          	addi	sp,sp,1365
    800017c4:	00c11113          	slli	sp,sp,0xc
    800017c8:	55510113          	addi	sp,sp,1365
    800017cc:	00c10463          	beq	sp,a2,800017d4 <inst_110>
    800017d0:	855fe06f          	j	80000024 <rvtest_error>

00000000800017d4 <inst_110>:
    800017d4:	00100513          	li	a0,1
    800017d8:	01951513          	slli	a0,a0,0x19
    800017dc:	00100593          	li	a1,1
    800017e0:	02a59593          	slli	a1,a1,0x2a
    800017e4:	fff5c593          	not	a1,a1
    800017e8:	40b50633          	sub	a2,a0,a1
    800017ec:	26c0bc23          	sd	a2,632(ra)
    800017f0:	00020137          	lui	sp,0x20
    800017f4:	0011011b          	addiw	sp,sp,1 # 20001 <offset+0x1fc09>
    800017f8:	01911113          	slli	sp,sp,0x19
    800017fc:	00110113          	addi	sp,sp,1
    80001800:	00c10463          	beq	sp,a2,80001808 <inst_111>
    80001804:	821fe06f          	j	80000024 <rvtest_error>

0000000080001808 <inst_111>:
    80001808:	00100513          	li	a0,1
    8000180c:	03a51513          	slli	a0,a0,0x3a
    80001810:	00100593          	li	a1,1
    80001814:	02b59593          	slli	a1,a1,0x2b
    80001818:	fff5c593          	not	a1,a1
    8000181c:	40b50633          	sub	a2,a0,a1
    80001820:	28c0b023          	sd	a2,640(ra)
    80001824:	00008137          	lui	sp,0x8
    80001828:	0011011b          	addiw	sp,sp,1 # 8001 <offset+0x7c09>
    8000182c:	02b11113          	slli	sp,sp,0x2b
    80001830:	00110113          	addi	sp,sp,1
    80001834:	00c10463          	beq	sp,a2,8000183c <inst_112>
    80001838:	fecfe06f          	j	80000024 <rvtest_error>

000000008000183c <inst_112>:
    8000183c:	00100513          	li	a0,1
    80001840:	01951513          	slli	a0,a0,0x19
    80001844:	fff54513          	not	a0,a0
    80001848:	00100593          	li	a1,1
    8000184c:	02c59593          	slli	a1,a1,0x2c
    80001850:	fff5c593          	not	a1,a1
    80001854:	40b50633          	sub	a2,a0,a1
    80001858:	28c0b423          	sd	a2,648(ra)
    8000185c:	00080137          	lui	sp,0x80
    80001860:	fff1011b          	addiw	sp,sp,-1 # 7ffff <offset+0x7fc07>
    80001864:	01911113          	slli	sp,sp,0x19
    80001868:	00c10463          	beq	sp,a2,80001870 <inst_113>
    8000186c:	fb8fe06f          	j	80000024 <rvtest_error>

0000000080001870 <inst_113>:
    80001870:	00000537          	lui	a0,0x0
    80001874:	fff50513          	addi	a0,a0,-1
    80001878:	00b51513          	slli	a0,a0,0xb
    8000187c:	25750513          	addi	a0,a0,599
    80001880:	00b51513          	slli	a0,a0,0xb
    80001884:	6c350513          	addi	a0,a0,1731
    80001888:	00a51513          	slli	a0,a0,0xa
    8000188c:	0ce50513          	addi	a0,a0,206
    80001890:	00100593          	li	a1,1
    80001894:	02d59593          	slli	a1,a1,0x2d
    80001898:	fff5c593          	not	a1,a1
    8000189c:	40b50633          	sub	a2,a0,a1
    800018a0:	28c0b823          	sd	a2,656(ra)
    800018a4:	00200137          	lui	sp,0x200
    800018a8:	f4b1011b          	addiw	sp,sp,-181 # 1fff4b <offset+0x1ffb53>
    800018ac:	00c11113          	slli	sp,sp,0xc
    800018b0:	fb110113          	addi	sp,sp,-79
    800018b4:	00c11113          	slli	sp,sp,0xc
    800018b8:	ccf10113          	addi	sp,sp,-817
    800018bc:	00c10463          	beq	sp,a2,800018c4 <inst_114>
    800018c0:	f64fe06f          	j	80000024 <rvtest_error>

00000000800018c4 <inst_114>:
    800018c4:	00100513          	li	a0,1
    800018c8:	02151513          	slli	a0,a0,0x21
    800018cc:	fff54513          	not	a0,a0
    800018d0:	00100593          	li	a1,1
    800018d4:	02e59593          	slli	a1,a1,0x2e
    800018d8:	fff5c593          	not	a1,a1
    800018dc:	40b50633          	sub	a2,a0,a1
    800018e0:	28c0bc23          	sd	a2,664(ra)
    800018e4:	00002137          	lui	sp,0x2
    800018e8:	fff1011b          	addiw	sp,sp,-1 # 1fff <offset+0x1c07>
    800018ec:	02111113          	slli	sp,sp,0x21
    800018f0:	00c10463          	beq	sp,a2,800018f8 <inst_115>
    800018f4:	f30fe06f          	j	80000024 <rvtest_error>

00000000800018f8 <inst_115>:
    800018f8:	00000537          	lui	a0,0x0
    800018fc:	fff50513          	addi	a0,a0,-1
    80001900:	00b51513          	slli	a0,a0,0xb
    80001904:	25750513          	addi	a0,a0,599
    80001908:	00b51513          	slli	a0,a0,0xb
    8000190c:	6c350513          	addi	a0,a0,1731
    80001910:	00a51513          	slli	a0,a0,0xa
    80001914:	0ce50513          	addi	a0,a0,206
    80001918:	00100593          	li	a1,1
    8000191c:	02f59593          	slli	a1,a1,0x2f
    80001920:	fff5c593          	not	a1,a1
    80001924:	40b50633          	sub	a2,a0,a1
    80001928:	2ac0b023          	sd	a2,672(ra)
    8000192c:	00800137          	lui	sp,0x800
    80001930:	f4b1011b          	addiw	sp,sp,-181 # 7fff4b <offset+0x7ffb53>
    80001934:	00c11113          	slli	sp,sp,0xc
    80001938:	fb110113          	addi	sp,sp,-79
    8000193c:	00c11113          	slli	sp,sp,0xc
    80001940:	ccf10113          	addi	sp,sp,-817
    80001944:	00c10463          	beq	sp,a2,8000194c <inst_116>
    80001948:	edcfe06f          	j	80000024 <rvtest_error>

000000008000194c <inst_116>:
    8000194c:	55555537          	lui	a0,0x55555
    80001950:	55550513          	addi	a0,a0,1365 # 55555555 <absimmsh+0x49a847a8>
    80001954:	00b51513          	slli	a0,a0,0xb
    80001958:	2aa50513          	addi	a0,a0,682
    8000195c:	00b51513          	slli	a0,a0,0xb
    80001960:	55550513          	addi	a0,a0,1365
    80001964:	00a51513          	slli	a0,a0,0xa
    80001968:	15650513          	addi	a0,a0,342
    8000196c:	00100593          	li	a1,1
    80001970:	03059593          	slli	a1,a1,0x30
    80001974:	fff5c593          	not	a1,a1
    80001978:	40b50633          	sub	a2,a0,a1
    8000197c:	2ac0b423          	sd	a2,680(ra)
    80001980:	05556137          	lui	sp,0x5556
    80001984:	5551011b          	addiw	sp,sp,1365 # 5556555 <offset+0x555615d>
    80001988:	00c11113          	slli	sp,sp,0xc
    8000198c:	55510113          	addi	sp,sp,1365
    80001990:	00c11113          	slli	sp,sp,0xc
    80001994:	55510113          	addi	sp,sp,1365
    80001998:	00c11113          	slli	sp,sp,0xc
    8000199c:	55710113          	addi	sp,sp,1367
    800019a0:	00c10463          	beq	sp,a2,800019a8 <inst_117>
    800019a4:	e80fe06f          	j	80000024 <rvtest_error>

00000000800019a8 <inst_117>:
    800019a8:	00100513          	li	a0,1
    800019ac:	02e51513          	slli	a0,a0,0x2e
    800019b0:	fff54513          	not	a0,a0
    800019b4:	00100593          	li	a1,1
    800019b8:	03259593          	slli	a1,a1,0x32
    800019bc:	fff5c593          	not	a1,a1
    800019c0:	40b50633          	sub	a2,a0,a1
    800019c4:	2ac0b823          	sd	a2,688(ra)
    800019c8:	00f0011b          	addiw	sp,zero,15
    800019cc:	02e11113          	slli	sp,sp,0x2e
    800019d0:	00c10463          	beq	sp,a2,800019d8 <inst_118>
    800019d4:	e50fe06f          	j	80000024 <rvtest_error>

00000000800019d8 <inst_118>:
    800019d8:	00100513          	li	a0,1
    800019dc:	01c51513          	slli	a0,a0,0x1c
    800019e0:	fff54513          	not	a0,a0
    800019e4:	00100593          	li	a1,1
    800019e8:	03359593          	slli	a1,a1,0x33
    800019ec:	fff5c593          	not	a1,a1
    800019f0:	40b50633          	sub	a2,a0,a1
    800019f4:	2ac0bc23          	sd	a2,696(ra)
    800019f8:	00800137          	lui	sp,0x800
    800019fc:	fff1011b          	addiw	sp,sp,-1 # 7fffff <offset+0x7ffc07>
    80001a00:	01c11113          	slli	sp,sp,0x1c
    80001a04:	00c10463          	beq	sp,a2,80001a0c <inst_119>
    80001a08:	e1cfe06f          	j	80000024 <rvtest_error>

0000000080001a0c <inst_119>:
    80001a0c:	00400513          	li	a0,4
    80001a10:	00100593          	li	a1,1
    80001a14:	03459593          	slli	a1,a1,0x34
    80001a18:	fff5c593          	not	a1,a1
    80001a1c:	40b50633          	sub	a2,a0,a1
    80001a20:	2cc0b023          	sd	a2,704(ra)
    80001a24:	0010011b          	addiw	sp,zero,1
    80001a28:	03411113          	slli	sp,sp,0x34
    80001a2c:	00510113          	addi	sp,sp,5
    80001a30:	00c10463          	beq	sp,a2,80001a38 <inst_120>
    80001a34:	df0fe06f          	j	80000024 <rvtest_error>

0000000080001a38 <inst_120>:
    80001a38:	66666537          	lui	a0,0x66666
    80001a3c:	66650513          	addi	a0,a0,1638 # 66666666 <absimmsh+0x5ab958b9>
    80001a40:	00b51513          	slli	a0,a0,0xb
    80001a44:	33350513          	addi	a0,a0,819
    80001a48:	00b51513          	slli	a0,a0,0xb
    80001a4c:	19950513          	addi	a0,a0,409
    80001a50:	00a51513          	slli	a0,a0,0xa
    80001a54:	26550513          	addi	a0,a0,613
    80001a58:	00100593          	li	a1,1
    80001a5c:	03559593          	slli	a1,a1,0x35
    80001a60:	fff5c593          	not	a1,a1
    80001a64:	40b50633          	sub	a2,a0,a1
    80001a68:	2cc0b423          	sd	a2,712(ra)
    80001a6c:	03343137          	lui	sp,0x3343
    80001a70:	3331011b          	addiw	sp,sp,819 # 3343333 <offset+0x3342f3b>
    80001a74:	00c11113          	slli	sp,sp,0xc
    80001a78:	33310113          	addi	sp,sp,819
    80001a7c:	00c11113          	slli	sp,sp,0xc
    80001a80:	33310113          	addi	sp,sp,819
    80001a84:	00d11113          	slli	sp,sp,0xd
    80001a88:	66610113          	addi	sp,sp,1638
    80001a8c:	00c10463          	beq	sp,a2,80001a94 <inst_121>
    80001a90:	d94fe06f          	j	80000024 <rvtest_error>

0000000080001a94 <inst_121>:
    80001a94:	00100513          	li	a0,1
    80001a98:	01151513          	slli	a0,a0,0x11
    80001a9c:	00100593          	li	a1,1
    80001aa0:	03659593          	slli	a1,a1,0x36
    80001aa4:	fff5c593          	not	a1,a1
    80001aa8:	40b50633          	sub	a2,a0,a1
    80001aac:	2cc0b823          	sd	a2,720(ra)
    80001ab0:	0010011b          	addiw	sp,zero,1
    80001ab4:	02511113          	slli	sp,sp,0x25
    80001ab8:	00110113          	addi	sp,sp,1
    80001abc:	01111113          	slli	sp,sp,0x11
    80001ac0:	00110113          	addi	sp,sp,1
    80001ac4:	00c10463          	beq	sp,a2,80001acc <inst_122>
    80001ac8:	d5cfe06f          	j	80000024 <rvtest_error>

0000000080001acc <inst_122>:
    80001acc:	00100513          	li	a0,1
    80001ad0:	00b51513          	slli	a0,a0,0xb
    80001ad4:	00100593          	li	a1,1
    80001ad8:	03759593          	slli	a1,a1,0x37
    80001adc:	fff5c593          	not	a1,a1
    80001ae0:	40b50633          	sub	a2,a0,a1
    80001ae4:	2cc0bc23          	sd	a2,728(ra)
    80001ae8:	0010011b          	addiw	sp,zero,1
    80001aec:	02b11113          	slli	sp,sp,0x2b
    80001af0:	00110113          	addi	sp,sp,1
    80001af4:	00c11113          	slli	sp,sp,0xc
    80001af8:	80110113          	addi	sp,sp,-2047
    80001afc:	00c10463          	beq	sp,a2,80001b04 <inst_123>
    80001b00:	d24fe06f          	j	80000024 <rvtest_error>

0000000080001b04 <inst_123>:
    80001b04:	fef00513          	li	a0,-17
    80001b08:	00100593          	li	a1,1
    80001b0c:	03859593          	slli	a1,a1,0x38
    80001b10:	fff5c593          	not	a1,a1
    80001b14:	40b50633          	sub	a2,a0,a1
    80001b18:	2ec0b023          	sd	a2,736(ra)
    80001b1c:	0010011b          	addiw	sp,zero,1
    80001b20:	03811113          	slli	sp,sp,0x38
    80001b24:	ff010113          	addi	sp,sp,-16
    80001b28:	00c10463          	beq	sp,a2,80001b30 <inst_124>
    80001b2c:	cf8fe06f          	j	80000024 <rvtest_error>

0000000080001b30 <inst_124>:
    80001b30:	00100513          	li	a0,1
    80001b34:	01851513          	slli	a0,a0,0x18
    80001b38:	fff54513          	not	a0,a0
    80001b3c:	00100593          	li	a1,1
    80001b40:	03959593          	slli	a1,a1,0x39
    80001b44:	fff5c593          	not	a1,a1
    80001b48:	40b50633          	sub	a2,a0,a1
    80001b4c:	2ec0b423          	sd	a2,744(ra)
    80001b50:	0010011b          	addiw	sp,zero,1
    80001b54:	02111113          	slli	sp,sp,0x21
    80001b58:	fff10113          	addi	sp,sp,-1
    80001b5c:	01811113          	slli	sp,sp,0x18
    80001b60:	00c10463          	beq	sp,a2,80001b68 <inst_125>
    80001b64:	cc0fe06f          	j	80000024 <rvtest_error>

0000000080001b68 <inst_125>:
    80001b68:	00100513          	li	a0,1
    80001b6c:	01151513          	slli	a0,a0,0x11
    80001b70:	00100593          	li	a1,1
    80001b74:	03a59593          	slli	a1,a1,0x3a
    80001b78:	fff5c593          	not	a1,a1
    80001b7c:	40b50633          	sub	a2,a0,a1
    80001b80:	2ec0b823          	sd	a2,752(ra)
    80001b84:	0010011b          	addiw	sp,zero,1
    80001b88:	02911113          	slli	sp,sp,0x29
    80001b8c:	00110113          	addi	sp,sp,1
    80001b90:	01111113          	slli	sp,sp,0x11
    80001b94:	00110113          	addi	sp,sp,1
    80001b98:	00c10463          	beq	sp,a2,80001ba0 <inst_126>
    80001b9c:	c88fe06f          	j	80000024 <rvtest_error>

0000000080001ba0 <inst_126>:
    80001ba0:	00000537          	lui	a0,0x0
    80001ba4:	fff50513          	addi	a0,a0,-1
    80001ba8:	00b51513          	slli	a0,a0,0xb
    80001bac:	25750513          	addi	a0,a0,599
    80001bb0:	00b51513          	slli	a0,a0,0xb
    80001bb4:	6c350513          	addi	a0,a0,1731
    80001bb8:	00a51513          	slli	a0,a0,0xa
    80001bbc:	0cd50513          	addi	a0,a0,205
    80001bc0:	00100593          	li	a1,1
    80001bc4:	03b59593          	slli	a1,a1,0x3b
    80001bc8:	fff5c593          	not	a1,a1
    80001bcc:	40b50633          	sub	a2,a0,a1
    80001bd0:	2ec0bc23          	sd	a2,760(ra)
    80001bd4:	0010011b          	addiw	sp,zero,1
    80001bd8:	02311113          	slli	sp,sp,0x23
    80001bdc:	f4b10113          	addi	sp,sp,-181
    80001be0:	00c11113          	slli	sp,sp,0xc
    80001be4:	fb110113          	addi	sp,sp,-79
    80001be8:	00c11113          	slli	sp,sp,0xc
    80001bec:	cce10113          	addi	sp,sp,-818
    80001bf0:	00c10463          	beq	sp,a2,80001bf8 <inst_127>
    80001bf4:	c30fe06f          	j	80000024 <rvtest_error>

0000000080001bf8 <inst_127>:
    80001bf8:	ff700513          	li	a0,-9
    80001bfc:	00100593          	li	a1,1
    80001c00:	03c59593          	slli	a1,a1,0x3c
    80001c04:	fff5c593          	not	a1,a1
    80001c08:	40b50633          	sub	a2,a0,a1
    80001c0c:	30c0b023          	sd	a2,768(ra)
    80001c10:	0010011b          	addiw	sp,zero,1
    80001c14:	03c11113          	slli	sp,sp,0x3c
    80001c18:	ff810113          	addi	sp,sp,-8
    80001c1c:	00c10463          	beq	sp,a2,80001c24 <inst_128>
    80001c20:	c04fe06f          	j	80000024 <rvtest_error>

0000000080001c24 <inst_128>:
    80001c24:	00100513          	li	a0,1
    80001c28:	03251513          	slli	a0,a0,0x32
    80001c2c:	fff54513          	not	a0,a0
    80001c30:	00100593          	li	a1,1
    80001c34:	03d59593          	slli	a1,a1,0x3d
    80001c38:	fff5c593          	not	a1,a1
    80001c3c:	40b50633          	sub	a2,a0,a1
    80001c40:	30c0b423          	sd	a2,776(ra)
    80001c44:	7ff0011b          	addiw	sp,zero,2047
    80001c48:	03211113          	slli	sp,sp,0x32
    80001c4c:	00c10463          	beq	sp,a2,80001c54 <inst_129>
    80001c50:	bd4fe06f          	j	80000024 <rvtest_error>

0000000080001c54 <inst_129>:
    80001c54:	00400513          	li	a0,4
    80001c58:	00100593          	li	a1,1
    80001c5c:	03e59593          	slli	a1,a1,0x3e
    80001c60:	fff5c593          	not	a1,a1
    80001c64:	40b50633          	sub	a2,a0,a1
    80001c68:	30c0b823          	sd	a2,784(ra)
    80001c6c:	0010011b          	addiw	sp,zero,1
    80001c70:	03e11113          	slli	sp,sp,0x3e
    80001c74:	00510113          	addi	sp,sp,5
    80001c78:	00c10463          	beq	sp,a2,80001c80 <inst_130>
    80001c7c:	ba8fe06f          	j	80000024 <rvtest_error>

0000000080001c80 <inst_130>:
    80001c80:	00100513          	li	a0,1
    80001c84:	02751513          	slli	a0,a0,0x27
    80001c88:	555555b7          	lui	a1,0x55555
    80001c8c:	55558593          	addi	a1,a1,1365 # 55555555 <absimmsh+0x49a847a8>
    80001c90:	00b59593          	slli	a1,a1,0xb
    80001c94:	2aa58593          	addi	a1,a1,682
    80001c98:	00b59593          	slli	a1,a1,0xb
    80001c9c:	55558593          	addi	a1,a1,1365
    80001ca0:	00a59593          	slli	a1,a1,0xa
    80001ca4:	15558593          	addi	a1,a1,341
    80001ca8:	40b50633          	sub	a2,a0,a1
    80001cac:	30c0bc23          	sd	a2,792(ra)
    80001cb0:	faaab137          	lui	sp,0xfaaab
    80001cb4:	ab31011b          	addiw	sp,sp,-1357 # fffffffffaaaaab3 <absimm+0xffffffff3fd9cfe3>
    80001cb8:	00c11113          	slli	sp,sp,0xc
    80001cbc:	aab10113          	addi	sp,sp,-1365
    80001cc0:	00c11113          	slli	sp,sp,0xc
    80001cc4:	aab10113          	addi	sp,sp,-1365
    80001cc8:	00c11113          	slli	sp,sp,0xc
    80001ccc:	aab10113          	addi	sp,sp,-1365
    80001cd0:	00c10463          	beq	sp,a2,80001cd8 <inst_131>
    80001cd4:	b50fe06f          	j	80000024 <rvtest_error>

0000000080001cd8 <inst_131>:
    80001cd8:	55555537          	lui	a0,0x55555
    80001cdc:	55550513          	addi	a0,a0,1365 # 55555555 <absimmsh+0x49a847a8>
    80001ce0:	00b51513          	slli	a0,a0,0xb
    80001ce4:	2aa50513          	addi	a0,a0,682
    80001ce8:	00b51513          	slli	a0,a0,0xb
    80001cec:	55550513          	addi	a0,a0,1365
    80001cf0:	00a51513          	slli	a0,a0,0xa
    80001cf4:	15550513          	addi	a0,a0,341
    80001cf8:	aaaab5b7          	lui	a1,0xaaaab
    80001cfc:	aaa58593          	addi	a1,a1,-1366 # ffffffffaaaaaaaa <absimm+0xfffffffeefd9cfda>
    80001d00:	00b59593          	slli	a1,a1,0xb
    80001d04:	55558593          	addi	a1,a1,1365
    80001d08:	00b59593          	slli	a1,a1,0xb
    80001d0c:	2aa58593          	addi	a1,a1,682
    80001d10:	00a59593          	slli	a1,a1,0xa
    80001d14:	2aa58593          	addi	a1,a1,682
    80001d18:	40b50633          	sub	a2,a0,a1
    80001d1c:	32c0b023          	sd	a2,800(ra)
    80001d20:	faaab137          	lui	sp,0xfaaab
    80001d24:	aab1011b          	addiw	sp,sp,-1365 # fffffffffaaaaaab <absimm+0xffffffff3fd9cfdb>
    80001d28:	00c11113          	slli	sp,sp,0xc
    80001d2c:	aab10113          	addi	sp,sp,-1365
    80001d30:	00c11113          	slli	sp,sp,0xc
    80001d34:	aab10113          	addi	sp,sp,-1365
    80001d38:	00c11113          	slli	sp,sp,0xc
    80001d3c:	aab10113          	addi	sp,sp,-1365
    80001d40:	00c10463          	beq	sp,a2,80001d48 <inst_132>
    80001d44:	ae0fe06f          	j	80000024 <rvtest_error>

0000000080001d48 <inst_132>:
    80001d48:	20000513          	li	a0,512
    80001d4c:	ffe00593          	li	a1,-2
    80001d50:	40b50633          	sub	a2,a0,a1
    80001d54:	32c0b423          	sd	a2,808(ra)
    80001d58:	20200113          	li	sp,514
    80001d5c:	00c10463          	beq	sp,a2,80001d64 <inst_133>
    80001d60:	ac4fe06f          	j	80000024 <rvtest_error>

0000000080001d64 <inst_133>:
    80001d64:	40000513          	li	a0,1024
    80001d68:	00100593          	li	a1,1
    80001d6c:	00d59593          	slli	a1,a1,0xd
    80001d70:	fff5c593          	not	a1,a1
    80001d74:	40b50633          	sub	a2,a0,a1
    80001d78:	32c0b823          	sd	a2,816(ra)
    80001d7c:	00002137          	lui	sp,0x2
    80001d80:	4011011b          	addiw	sp,sp,1025 # 2401 <offset+0x2009>
    80001d84:	00c10463          	beq	sp,a2,80001d8c <inst_134>
    80001d88:	a9cfe06f          	j	80000024 <rvtest_error>

0000000080001d8c <inst_134>:
    80001d8c:	00100513          	li	a0,1
    80001d90:	00c51513          	slli	a0,a0,0xc
    80001d94:	00100593          	li	a1,1
    80001d98:	02059593          	slli	a1,a1,0x20
    80001d9c:	fff5c593          	not	a1,a1
    80001da0:	40b50633          	sub	a2,a0,a1
    80001da4:	32c0bc23          	sd	a2,824(ra)
    80001da8:	00100137          	lui	sp,0x100
    80001dac:	0011011b          	addiw	sp,sp,1 # 100001 <offset+0xffc09>
    80001db0:	00c11113          	slli	sp,sp,0xc
    80001db4:	00110113          	addi	sp,sp,1
    80001db8:	00c10463          	beq	sp,a2,80001dc0 <inst_135>
    80001dbc:	a68fe06f          	j	80000024 <rvtest_error>

0000000080001dc0 <inst_135>:
    80001dc0:	00100513          	li	a0,1
    80001dc4:	00e51513          	slli	a0,a0,0xe
    80001dc8:	00100593          	li	a1,1
    80001dcc:	01c59593          	slli	a1,a1,0x1c
    80001dd0:	40b50633          	sub	a2,a0,a1
    80001dd4:	34c0b023          	sd	a2,832(ra)
    80001dd8:	f0004137          	lui	sp,0xf0004
    80001ddc:	00c10463          	beq	sp,a2,80001de4 <inst_136>
    80001de0:	a44fe06f          	j	80000024 <rvtest_error>

0000000080001de4 <inst_136>:
    80001de4:	00100513          	li	a0,1
    80001de8:	01451513          	slli	a0,a0,0x14
    80001dec:	00100593          	li	a1,1
    80001df0:	03559593          	slli	a1,a1,0x35
    80001df4:	40b50633          	sub	a2,a0,a1
    80001df8:	34c0b423          	sd	a2,840(ra)
    80001dfc:	fff0011b          	addiw	sp,zero,-1
    80001e00:	02111113          	slli	sp,sp,0x21
    80001e04:	00110113          	addi	sp,sp,1 # fffffffff0004001 <absimm+0xffffffff352f6531>
    80001e08:	01411113          	slli	sp,sp,0x14
    80001e0c:	00c10463          	beq	sp,a2,80001e14 <inst_137>
    80001e10:	a14fe06f          	j	80000024 <rvtest_error>

0000000080001e14 <inst_137>:
    80001e14:	00100513          	li	a0,1
    80001e18:	01851513          	slli	a0,a0,0x18
    80001e1c:	00100593          	li	a1,1
    80001e20:	02959593          	slli	a1,a1,0x29
    80001e24:	fff5c593          	not	a1,a1
    80001e28:	40b50633          	sub	a2,a0,a1
    80001e2c:	34c0b823          	sd	a2,848(ra)
    80001e30:	00020137          	lui	sp,0x20
    80001e34:	0011011b          	addiw	sp,sp,1 # 20001 <offset+0x1fc09>
    80001e38:	01811113          	slli	sp,sp,0x18
    80001e3c:	00110113          	addi	sp,sp,1
    80001e40:	00c10463          	beq	sp,a2,80001e48 <inst_138>
    80001e44:	9e0fe06f          	j	80000024 <rvtest_error>

0000000080001e48 <inst_138>:
    80001e48:	00100513          	li	a0,1
    80001e4c:	01a51513          	slli	a0,a0,0x1a
    80001e50:	01000593          	li	a1,16
    80001e54:	40b50633          	sub	a2,a0,a1
    80001e58:	34c0bc23          	sd	a2,856(ra)
    80001e5c:	04000137          	lui	sp,0x4000
    80001e60:	ff01011b          	addiw	sp,sp,-16 # 3fffff0 <offset+0x3fffbf8>
    80001e64:	00c10463          	beq	sp,a2,80001e6c <inst_139>
    80001e68:	9bcfe06f          	j	80000024 <rvtest_error>

0000000080001e6c <inst_139>:
    80001e6c:	00100513          	li	a0,1
    80001e70:	01b51513          	slli	a0,a0,0x1b
    80001e74:	f7f00593          	li	a1,-129
    80001e78:	40b50633          	sub	a2,a0,a1
    80001e7c:	36c0b023          	sd	a2,864(ra)
    80001e80:	08000137          	lui	sp,0x8000
    80001e84:	0811011b          	addiw	sp,sp,129 # 8000081 <offset+0x7fffc89>
    80001e88:	00c10463          	beq	sp,a2,80001e90 <inst_140>
    80001e8c:	998fe06f          	j	80000024 <rvtest_error>

0000000080001e90 <inst_140>:
    80001e90:	00100513          	li	a0,1
    80001e94:	01e51513          	slli	a0,a0,0x1e
    80001e98:	00000593          	li	a1,0
    80001e9c:	40b50633          	sub	a2,a0,a1
    80001ea0:	36c0b423          	sd	a2,872(ra)
    80001ea4:	40000137          	lui	sp,0x40000
    80001ea8:	00c10463          	beq	sp,a2,80001eb0 <inst_141>
    80001eac:	978fe06f          	j	80000024 <rvtest_error>

0000000080001eb0 <inst_141>:
    80001eb0:	00100513          	li	a0,1
    80001eb4:	01f51513          	slli	a0,a0,0x1f
    80001eb8:	00100593          	li	a1,1
    80001ebc:	01659593          	slli	a1,a1,0x16
    80001ec0:	40b50633          	sub	a2,a0,a1
    80001ec4:	36c0b823          	sd	a2,880(ra)
    80001ec8:	7fc00137          	lui	sp,0x7fc00
    80001ecc:	00c10463          	beq	sp,a2,80001ed4 <inst_142>
    80001ed0:	954fe06f          	j	80000024 <rvtest_error>

0000000080001ed4 <inst_142>:
    80001ed4:	00100513          	li	a0,1
    80001ed8:	02451513          	slli	a0,a0,0x24
    80001edc:	00400593          	li	a1,4
    80001ee0:	40b50633          	sub	a2,a0,a1
    80001ee4:	36c0bc23          	sd	a2,888(ra)
    80001ee8:	0010011b          	addiw	sp,zero,1
    80001eec:	02411113          	slli	sp,sp,0x24
    80001ef0:	ffc10113          	addi	sp,sp,-4 # 7fbffffc <absimmsh+0x7412f24f>
    80001ef4:	00c10463          	beq	sp,a2,80001efc <inst_143>
    80001ef8:	92cfe06f          	j	80000024 <rvtest_error>

0000000080001efc <inst_143>:
    80001efc:	00100513          	li	a0,1
    80001f00:	02951513          	slli	a0,a0,0x29
    80001f04:	00400593          	li	a1,4
    80001f08:	40b50633          	sub	a2,a0,a1
    80001f0c:	38c0b023          	sd	a2,896(ra)
    80001f10:	0010011b          	addiw	sp,zero,1
    80001f14:	02911113          	slli	sp,sp,0x29
    80001f18:	ffc10113          	addi	sp,sp,-4
    80001f1c:	00c10463          	beq	sp,a2,80001f24 <inst_144>
    80001f20:	904fe06f          	j	80000024 <rvtest_error>

0000000080001f24 <inst_144>:
    80001f24:	00100513          	li	a0,1
    80001f28:	02a51513          	slli	a0,a0,0x2a
    80001f2c:	00100593          	li	a1,1
    80001f30:	00e59593          	slli	a1,a1,0xe
    80001f34:	fff5c593          	not	a1,a1
    80001f38:	40b50633          	sub	a2,a0,a1
    80001f3c:	38c0b423          	sd	a2,904(ra)
    80001f40:	10000137          	lui	sp,0x10000
    80001f44:	0011011b          	addiw	sp,sp,1 # 10000001 <absimmsh+0x452f254>
    80001f48:	00e11113          	slli	sp,sp,0xe
    80001f4c:	00110113          	addi	sp,sp,1
    80001f50:	00c10463          	beq	sp,a2,80001f58 <inst_145>
    80001f54:	8d0fe06f          	j	80000024 <rvtest_error>

0000000080001f58 <inst_145>:
    80001f58:	00100513          	li	a0,1
    80001f5c:	02c51513          	slli	a0,a0,0x2c
    80001f60:	00500593          	li	a1,5
    80001f64:	40b50633          	sub	a2,a0,a1
    80001f68:	38c0b823          	sd	a2,912(ra)
    80001f6c:	0010011b          	addiw	sp,zero,1
    80001f70:	02c11113          	slli	sp,sp,0x2c
    80001f74:	ffb10113          	addi	sp,sp,-5
    80001f78:	00c10463          	beq	sp,a2,80001f80 <inst_146>
    80001f7c:	8a8fe06f          	j	80000024 <rvtest_error>

0000000080001f80 <inst_146>:
    80001f80:	00100513          	li	a0,1
    80001f84:	02e51513          	slli	a0,a0,0x2e
    80001f88:	ff800593          	li	a1,-8
    80001f8c:	40b50633          	sub	a2,a0,a1
    80001f90:	38c0bc23          	sd	a2,920(ra)
    80001f94:	0010011b          	addiw	sp,zero,1
    80001f98:	02e11113          	slli	sp,sp,0x2e
    80001f9c:	00810113          	addi	sp,sp,8
    80001fa0:	00c10463          	beq	sp,a2,80001fa8 <inst_147>
    80001fa4:	880fe06f          	j	80000024 <rvtest_error>

0000000080001fa8 <inst_147>:
    80001fa8:	00100513          	li	a0,1
    80001fac:	02f51513          	slli	a0,a0,0x2f
    80001fb0:	dff00593          	li	a1,-513
    80001fb4:	40b50633          	sub	a2,a0,a1
    80001fb8:	3ac0b023          	sd	a2,928(ra)
    80001fbc:	0010011b          	addiw	sp,zero,1
    80001fc0:	02f11113          	slli	sp,sp,0x2f
    80001fc4:	20110113          	addi	sp,sp,513
    80001fc8:	00c10463          	beq	sp,a2,80001fd0 <inst_148>
    80001fcc:	858fe06f          	j	80000024 <rvtest_error>

0000000080001fd0 <inst_148>:
    80001fd0:	00100513          	li	a0,1
    80001fd4:	03051513          	slli	a0,a0,0x30
    80001fd8:	00700593          	li	a1,7
    80001fdc:	40b50633          	sub	a2,a0,a1
    80001fe0:	3ac0b423          	sd	a2,936(ra)
    80001fe4:	0010011b          	addiw	sp,zero,1
    80001fe8:	03011113          	slli	sp,sp,0x30
    80001fec:	ff910113          	addi	sp,sp,-7
    80001ff0:	00c10463          	beq	sp,a2,80001ff8 <inst_149>
    80001ff4:	830fe06f          	j	80000024 <rvtest_error>

0000000080001ff8 <inst_149>:
    80001ff8:	00100513          	li	a0,1
    80001ffc:	03151513          	slli	a0,a0,0x31
    80002000:	ffe00593          	li	a1,-2
    80002004:	40b50633          	sub	a2,a0,a1
    80002008:	3ac0b823          	sd	a2,944(ra)
    8000200c:	0010011b          	addiw	sp,zero,1
    80002010:	03111113          	slli	sp,sp,0x31
    80002014:	00210113          	addi	sp,sp,2
    80002018:	00c10463          	beq	sp,a2,80002020 <inst_150>
    8000201c:	808fe06f          	j	80000024 <rvtest_error>

0000000080002020 <inst_150>:
    80002020:	00100513          	li	a0,1
    80002024:	03251513          	slli	a0,a0,0x32
    80002028:	555555b7          	lui	a1,0x55555
    8000202c:	55558593          	addi	a1,a1,1365 # 55555555 <absimmsh+0x49a847a8>
    80002030:	00b59593          	slli	a1,a1,0xb
    80002034:	2aa58593          	addi	a1,a1,682
    80002038:	00b59593          	slli	a1,a1,0xb
    8000203c:	55558593          	addi	a1,a1,1365
    80002040:	00a59593          	slli	a1,a1,0xa
    80002044:	15558593          	addi	a1,a1,341
    80002048:	40b50633          	sub	a2,a0,a1
    8000204c:	3ac0bc23          	sd	a2,952(ra)
    80002050:	faaaf137          	lui	sp,0xfaaaf
    80002054:	aab1011b          	addiw	sp,sp,-1365 # fffffffffaaaeaab <absimm+0xffffffff3fda0fdb>
    80002058:	00c11113          	slli	sp,sp,0xc
    8000205c:	aab10113          	addi	sp,sp,-1365
    80002060:	00c11113          	slli	sp,sp,0xc
    80002064:	aab10113          	addi	sp,sp,-1365
    80002068:	00c11113          	slli	sp,sp,0xc
    8000206c:	aab10113          	addi	sp,sp,-1365
    80002070:	00c10463          	beq	sp,a2,80002078 <inst_151>
    80002074:	fb1fd06f          	j	80000024 <rvtest_error>

0000000080002078 <inst_151>:
    80002078:	00100513          	li	a0,1
    8000207c:	03351513          	slli	a0,a0,0x33
    80002080:	00100593          	li	a1,1
    80002084:	03959593          	slli	a1,a1,0x39
    80002088:	fff5c593          	not	a1,a1
    8000208c:	40b50633          	sub	a2,a0,a1
    80002090:	3cc0b023          	sd	a2,960(ra)
    80002094:	0410011b          	addiw	sp,zero,65
    80002098:	03311113          	slli	sp,sp,0x33
    8000209c:	00110113          	addi	sp,sp,1
    800020a0:	00c10463          	beq	sp,a2,800020a8 <inst_152>
    800020a4:	f81fd06f          	j	80000024 <rvtest_error>

00000000800020a8 <inst_152>:
    800020a8:	00100513          	li	a0,1
    800020ac:	03451513          	slli	a0,a0,0x34
    800020b0:	00100593          	li	a1,1
    800020b4:	03a59593          	slli	a1,a1,0x3a
    800020b8:	fff5c593          	not	a1,a1
    800020bc:	40b50633          	sub	a2,a0,a1
    800020c0:	3cc0b423          	sd	a2,968(ra)
    800020c4:	0410011b          	addiw	sp,zero,65
    800020c8:	03411113          	slli	sp,sp,0x34
    800020cc:	00110113          	addi	sp,sp,1
    800020d0:	00c10463          	beq	sp,a2,800020d8 <inst_153>
    800020d4:	f51fd06f          	j	80000024 <rvtest_error>

00000000800020d8 <inst_153>:
    800020d8:	00100513          	li	a0,1
    800020dc:	03751513          	slli	a0,a0,0x37
    800020e0:	04000593          	li	a1,64
    800020e4:	40b50633          	sub	a2,a0,a1
    800020e8:	3cc0b823          	sd	a2,976(ra)
    800020ec:	0010011b          	addiw	sp,zero,1
    800020f0:	03711113          	slli	sp,sp,0x37
    800020f4:	fc010113          	addi	sp,sp,-64
    800020f8:	00c10463          	beq	sp,a2,80002100 <inst_154>
    800020fc:	f29fd06f          	j	80000024 <rvtest_error>

0000000080002100 <inst_154>:
    80002100:	00100513          	li	a0,1
    80002104:	03851513          	slli	a0,a0,0x38
    80002108:	eff00593          	li	a1,-257
    8000210c:	40b50633          	sub	a2,a0,a1
    80002110:	3cc0bc23          	sd	a2,984(ra)
    80002114:	0010011b          	addiw	sp,zero,1
    80002118:	03811113          	slli	sp,sp,0x38
    8000211c:	10110113          	addi	sp,sp,257
    80002120:	00c10463          	beq	sp,a2,80002128 <inst_155>
    80002124:	f01fd06f          	j	80000024 <rvtest_error>

0000000080002128 <inst_155>:
    80002128:	00100513          	li	a0,1
    8000212c:	03951513          	slli	a0,a0,0x39
    80002130:	10000593          	li	a1,256
    80002134:	40b50633          	sub	a2,a0,a1
    80002138:	3ec0b023          	sd	a2,992(ra)
    8000213c:	0010011b          	addiw	sp,zero,1
    80002140:	03911113          	slli	sp,sp,0x39
    80002144:	f0010113          	addi	sp,sp,-256
    80002148:	00c10463          	beq	sp,a2,80002150 <inst_156>
    8000214c:	ed9fd06f          	j	80000024 <rvtest_error>

0000000080002150 <inst_156>:
    80002150:	00100513          	li	a0,1
    80002154:	03b51513          	slli	a0,a0,0x3b
    80002158:	00100593          	li	a1,1
    8000215c:	02159593          	slli	a1,a1,0x21
    80002160:	40b50633          	sub	a2,a0,a1
    80002164:	3ec0b423          	sd	a2,1000(ra)
    80002168:	04000137          	lui	sp,0x4000
    8000216c:	fff1011b          	addiw	sp,sp,-1 # 3ffffff <offset+0x3fffc07>
    80002170:	02111113          	slli	sp,sp,0x21
    80002174:	00c10463          	beq	sp,a2,8000217c <inst_157>
    80002178:	eadfd06f          	j	80000024 <rvtest_error>

000000008000217c <inst_157>:
    8000217c:	00100513          	li	a0,1
    80002180:	03e51513          	slli	a0,a0,0x3e
    80002184:	fdf00593          	li	a1,-33
    80002188:	40b50633          	sub	a2,a0,a1
    8000218c:	3ec0b823          	sd	a2,1008(ra)
    80002190:	0010011b          	addiw	sp,zero,1
    80002194:	03e11113          	slli	sp,sp,0x3e
    80002198:	02110113          	addi	sp,sp,33
    8000219c:	00c10463          	beq	sp,a2,800021a4 <inst_158>
    800021a0:	e85fd06f          	j	80000024 <rvtest_error>

00000000800021a4 <inst_158>:
    800021a4:	fdf00513          	li	a0,-33
    800021a8:	aaaab5b7          	lui	a1,0xaaaab
    800021ac:	aaa58593          	addi	a1,a1,-1366 # ffffffffaaaaaaaa <absimm+0xfffffffeefd9cfda>
    800021b0:	00b59593          	slli	a1,a1,0xb
    800021b4:	55558593          	addi	a1,a1,1365
    800021b8:	00b59593          	slli	a1,a1,0xb
    800021bc:	2aa58593          	addi	a1,a1,682
    800021c0:	00a59593          	slli	a1,a1,0xa
    800021c4:	2aa58593          	addi	a1,a1,682
    800021c8:	40b50633          	sub	a2,a0,a1
    800021cc:	3ec0bc23          	sd	a2,1016(ra)
    800021d0:	05555137          	lui	sp,0x5555
    800021d4:	5551011b          	addiw	sp,sp,1365 # 5555555 <offset+0x555515d>
    800021d8:	00c11113          	slli	sp,sp,0xc
    800021dc:	55510113          	addi	sp,sp,1365
    800021e0:	00c11113          	slli	sp,sp,0xc
    800021e4:	55510113          	addi	sp,sp,1365
    800021e8:	00c11113          	slli	sp,sp,0xc
    800021ec:	53510113          	addi	sp,sp,1333
    800021f0:	00c10463          	beq	sp,a2,800021f8 <inst_159>
    800021f4:	e31fd06f          	j	80000024 <rvtest_error>

00000000800021f8 <inst_159>:
    800021f8:	fbf00513          	li	a0,-65
    800021fc:	00100593          	li	a1,1
    80002200:	01059593          	slli	a1,a1,0x10
    80002204:	40b50633          	sub	a2,a0,a1
    80002208:	40c0b023          	sd	a2,1024(ra)
    8000220c:	ffff0137          	lui	sp,0xffff0
    80002210:	fbf1011b          	addiw	sp,sp,-65 # fffffffffffeffbf <absimm+0xffffffff452e24ef>
    80002214:	00c10463          	beq	sp,a2,8000221c <inst_160>
    80002218:	e0dfd06f          	j	80000024 <rvtest_error>

000000008000221c <inst_160>:
    8000221c:	eff00513          	li	a0,-257
    80002220:	00100593          	li	a1,1
    80002224:	02d59593          	slli	a1,a1,0x2d
    80002228:	fff5c593          	not	a1,a1
    8000222c:	40b50633          	sub	a2,a0,a1
    80002230:	40c0b423          	sd	a2,1032(ra)
    80002234:	0010011b          	addiw	sp,zero,1
    80002238:	02d11113          	slli	sp,sp,0x2d
    8000223c:	f0010113          	addi	sp,sp,-256
    80002240:	00c10463          	beq	sp,a2,80002248 <inst_161>
    80002244:	de1fd06f          	j	80000024 <rvtest_error>

0000000080002248 <inst_161>:
    80002248:	00100513          	li	a0,1
    8000224c:	00d51513          	slli	a0,a0,0xd
    80002250:	fff54513          	not	a0,a0
    80002254:	fff00593          	li	a1,-1
    80002258:	40b50633          	sub	a2,a0,a1
    8000225c:	40c0b823          	sd	a2,1040(ra)
    80002260:	ffffe137          	lui	sp,0xffffe
    80002264:	00c10463          	beq	sp,a2,8000226c <inst_162>
    80002268:	dbdfd06f          	j	80000024 <rvtest_error>

000000008000226c <inst_162>:
    8000226c:	00100513          	li	a0,1
    80002270:	00e51513          	slli	a0,a0,0xe
    80002274:	fff54513          	not	a0,a0
    80002278:	00200593          	li	a1,2
    8000227c:	40b50633          	sub	a2,a0,a1
    80002280:	40c0bc23          	sd	a2,1048(ra)
    80002284:	ffffc137          	lui	sp,0xffffc
    80002288:	ffd1011b          	addiw	sp,sp,-3 # ffffffffffffbffd <absimm+0xffffffff452ee52d>
    8000228c:	00c10463          	beq	sp,a2,80002294 <inst_163>
    80002290:	d95fd06f          	j	80000024 <rvtest_error>

0000000080002294 <inst_163>:
    80002294:	00100513          	li	a0,1
    80002298:	00f51513          	slli	a0,a0,0xf
    8000229c:	fff54513          	not	a0,a0
    800022a0:	00200593          	li	a1,2
    800022a4:	40b50633          	sub	a2,a0,a1
    800022a8:	42c0b023          	sd	a2,1056(ra)
    800022ac:	ffff8137          	lui	sp,0xffff8
    800022b0:	ffd1011b          	addiw	sp,sp,-3 # ffffffffffff7ffd <absimm+0xffffffff452ea52d>
    800022b4:	00c10463          	beq	sp,a2,800022bc <inst_164>
    800022b8:	d6dfd06f          	j	80000024 <rvtest_error>

00000000800022bc <inst_164>:
    800022bc:	00100513          	li	a0,1
    800022c0:	01051513          	slli	a0,a0,0x10
    800022c4:	fff54513          	not	a0,a0
    800022c8:	00100593          	li	a1,1
    800022cc:	01a59593          	slli	a1,a1,0x1a
    800022d0:	fff5c593          	not	a1,a1
    800022d4:	40b50633          	sub	a2,a0,a1
    800022d8:	42c0b423          	sd	a2,1064(ra)
    800022dc:	03ff0137          	lui	sp,0x3ff0
    800022e0:	00c10463          	beq	sp,a2,800022e8 <inst_165>
    800022e4:	d41fd06f          	j	80000024 <rvtest_error>

00000000800022e8 <inst_165>:
    800022e8:	00100513          	li	a0,1
    800022ec:	01151513          	slli	a0,a0,0x11
    800022f0:	fff54513          	not	a0,a0
    800022f4:	00100593          	li	a1,1
    800022f8:	03d59593          	slli	a1,a1,0x3d
    800022fc:	fff5c593          	not	a1,a1
    80002300:	40b50633          	sub	a2,a0,a1
    80002304:	42c0b823          	sd	a2,1072(ra)
    80002308:	0010011b          	addiw	sp,zero,1
    8000230c:	02c11113          	slli	sp,sp,0x2c
    80002310:	fff10113          	addi	sp,sp,-1 # 3feffff <offset+0x3fefc07>
    80002314:	01111113          	slli	sp,sp,0x11
    80002318:	00c10463          	beq	sp,a2,80002320 <inst_166>
    8000231c:	d09fd06f          	j	80000024 <rvtest_error>

0000000080002320 <inst_166>:
    80002320:	00100513          	li	a0,1
    80002324:	01251513          	slli	a0,a0,0x12
    80002328:	fff54513          	not	a0,a0
    8000232c:	00100593          	li	a1,1
    80002330:	03559593          	slli	a1,a1,0x35
    80002334:	fff5c593          	not	a1,a1
    80002338:	40b50633          	sub	a2,a0,a1
    8000233c:	42c0bc23          	sd	a2,1080(ra)
    80002340:	0010011b          	addiw	sp,zero,1
    80002344:	02311113          	slli	sp,sp,0x23
    80002348:	fff10113          	addi	sp,sp,-1
    8000234c:	01211113          	slli	sp,sp,0x12
    80002350:	00c10463          	beq	sp,a2,80002358 <inst_167>
    80002354:	cd1fd06f          	j	80000024 <rvtest_error>

0000000080002358 <inst_167>:
    80002358:	00100513          	li	a0,1
    8000235c:	01351513          	slli	a0,a0,0x13
    80002360:	fff54513          	not	a0,a0
    80002364:	00100593          	li	a1,1
    80002368:	01859593          	slli	a1,a1,0x18
    8000236c:	40b50633          	sub	a2,a0,a1
    80002370:	44c0b023          	sd	a2,1088(ra)
    80002374:	fef80137          	lui	sp,0xfef80
    80002378:	fff1011b          	addiw	sp,sp,-1 # fffffffffef7ffff <absimm+0xffffffff4427252f>
    8000237c:	00c10463          	beq	sp,a2,80002384 <inst_168>
    80002380:	ca5fd06f          	j	80000024 <rvtest_error>

0000000080002384 <inst_168>:
    80002384:	00100513          	li	a0,1
    80002388:	01551513          	slli	a0,a0,0x15
    8000238c:	fff54513          	not	a0,a0
    80002390:	ffe00593          	li	a1,-2
    80002394:	40b50633          	sub	a2,a0,a1
    80002398:	44c0b423          	sd	a2,1096(ra)
    8000239c:	ffe00137          	lui	sp,0xffe00
    800023a0:	0011011b          	addiw	sp,sp,1 # ffffffffffe00001 <absimm+0xffffffff450f2531>
    800023a4:	00c10463          	beq	sp,a2,800023ac <inst_169>
    800023a8:	c7dfd06f          	j	80000024 <rvtest_error>

00000000800023ac <inst_169>:
    800023ac:	00100513          	li	a0,1
    800023b0:	01651513          	slli	a0,a0,0x16
    800023b4:	fff54513          	not	a0,a0
    800023b8:	00100593          	li	a1,1
    800023bc:	01859593          	slli	a1,a1,0x18
    800023c0:	fff5c593          	not	a1,a1
    800023c4:	40b50633          	sub	a2,a0,a1
    800023c8:	44c0b823          	sd	a2,1104(ra)
    800023cc:	00c00137          	lui	sp,0xc00
    800023d0:	00c10463          	beq	sp,a2,800023d8 <inst_170>
    800023d4:	c51fd06f          	j	80000024 <rvtest_error>

00000000800023d8 <inst_170>:
    800023d8:	00100513          	li	a0,1
    800023dc:	01751513          	slli	a0,a0,0x17
    800023e0:	fff54513          	not	a0,a0
    800023e4:	00000593          	li	a1,0
    800023e8:	40b50633          	sub	a2,a0,a1
    800023ec:	44c0bc23          	sd	a2,1112(ra)
    800023f0:	ff800137          	lui	sp,0xff800
    800023f4:	fff1011b          	addiw	sp,sp,-1 # ffffffffff7fffff <absimm+0xffffffff44af252f>
    800023f8:	00c10463          	beq	sp,a2,80002400 <inst_171>
    800023fc:	c29fd06f          	j	80000024 <rvtest_error>

0000000080002400 <inst_171>:
    80002400:	00100513          	li	a0,1
    80002404:	01a51513          	slli	a0,a0,0x1a
    80002408:	fff54513          	not	a0,a0
    8000240c:	00100593          	li	a1,1
    80002410:	01e59593          	slli	a1,a1,0x1e
    80002414:	fff5c593          	not	a1,a1
    80002418:	40b50633          	sub	a2,a0,a1
    8000241c:	46c0b023          	sd	a2,1120(ra)
    80002420:	3c000137          	lui	sp,0x3c000
    80002424:	00c10463          	beq	sp,a2,8000242c <inst_172>
    80002428:	bfdfd06f          	j	80000024 <rvtest_error>

000000008000242c <inst_172>:
    8000242c:	00100513          	li	a0,1
    80002430:	01f51513          	slli	a0,a0,0x1f
    80002434:	fff54513          	not	a0,a0
    80002438:	00000593          	li	a1,0
    8000243c:	40b50633          	sub	a2,a0,a1
    80002440:	46c0b423          	sd	a2,1128(ra)
    80002444:	fff0011b          	addiw	sp,zero,-1
    80002448:	01f11113          	slli	sp,sp,0x1f
    8000244c:	fff10113          	addi	sp,sp,-1 # 3bffffff <absimmsh+0x3052f252>
    80002450:	00c10463          	beq	sp,a2,80002458 <inst_173>
    80002454:	bd1fd06f          	j	80000024 <rvtest_error>

0000000080002458 <inst_173>:
    80002458:	00100513          	li	a0,1
    8000245c:	02251513          	slli	a0,a0,0x22
    80002460:	fff54513          	not	a0,a0
    80002464:	ff900593          	li	a1,-7
    80002468:	40b50633          	sub	a2,a0,a1
    8000246c:	46c0b823          	sd	a2,1136(ra)
    80002470:	fff0011b          	addiw	sp,zero,-1
    80002474:	02211113          	slli	sp,sp,0x22
    80002478:	00610113          	addi	sp,sp,6
    8000247c:	00c10463          	beq	sp,a2,80002484 <inst_174>
    80002480:	ba5fd06f          	j	80000024 <rvtest_error>

0000000080002484 <inst_174>:
    80002484:	00100513          	li	a0,1
    80002488:	02651513          	slli	a0,a0,0x26
    8000248c:	fff54513          	not	a0,a0
    80002490:	00000593          	li	a1,0
    80002494:	40b50633          	sub	a2,a0,a1
    80002498:	46c0bc23          	sd	a2,1144(ra)
    8000249c:	fff0011b          	addiw	sp,zero,-1
    800024a0:	02611113          	slli	sp,sp,0x26
    800024a4:	fff10113          	addi	sp,sp,-1
    800024a8:	00c10463          	beq	sp,a2,800024b0 <inst_175>
    800024ac:	b79fd06f          	j	80000024 <rvtest_error>

00000000800024b0 <inst_175>:
    800024b0:	00100513          	li	a0,1
    800024b4:	02851513          	slli	a0,a0,0x28
    800024b8:	fff54513          	not	a0,a0
    800024bc:	00100593          	li	a1,1
    800024c0:	03159593          	slli	a1,a1,0x31
    800024c4:	40b50633          	sub	a2,a0,a1
    800024c8:	48c0b023          	sd	a2,1152(ra)
    800024cc:	dff0011b          	addiw	sp,zero,-513
    800024d0:	02811113          	slli	sp,sp,0x28
    800024d4:	fff10113          	addi	sp,sp,-1
    800024d8:	00c10463          	beq	sp,a2,800024e0 <inst_176>
    800024dc:	b49fd06f          	j	80000024 <rvtest_error>

00000000800024e0 <inst_176>:
    800024e0:	00100513          	li	a0,1
    800024e4:	02951513          	slli	a0,a0,0x29
    800024e8:	fff54513          	not	a0,a0
    800024ec:	00100593          	li	a1,1
    800024f0:	02359593          	slli	a1,a1,0x23
    800024f4:	fff5c593          	not	a1,a1
    800024f8:	40b50633          	sub	a2,a0,a1
    800024fc:	48c0b423          	sd	a2,1160(ra)
    80002500:	fc10011b          	addiw	sp,zero,-63
    80002504:	02311113          	slli	sp,sp,0x23
    80002508:	00c10463          	beq	sp,a2,80002510 <inst_177>
    8000250c:	b19fd06f          	j	80000024 <rvtest_error>

0000000080002510 <inst_177>:
    80002510:	00100513          	li	a0,1
    80002514:	02b51513          	slli	a0,a0,0x2b
    80002518:	fff54513          	not	a0,a0
    8000251c:	00100593          	li	a1,1
    80002520:	01a59593          	slli	a1,a1,0x1a
    80002524:	fff5c593          	not	a1,a1
    80002528:	40b50633          	sub	a2,a0,a1
    8000252c:	48c0b823          	sd	a2,1168(ra)
    80002530:	fffe0137          	lui	sp,0xfffe0
    80002534:	0011011b          	addiw	sp,sp,1 # fffffffffffe0001 <absimm+0xffffffff452d2531>
    80002538:	01a11113          	slli	sp,sp,0x1a
    8000253c:	00c10463          	beq	sp,a2,80002544 <inst_178>
    80002540:	ae5fd06f          	j	80000024 <rvtest_error>

0000000080002544 <inst_178>:
    80002544:	00100513          	li	a0,1
    80002548:	02d51513          	slli	a0,a0,0x2d
    8000254c:	fff54513          	not	a0,a0
    80002550:	00100593          	li	a1,1
    80002554:	01f59593          	slli	a1,a1,0x1f
    80002558:	fff5c593          	not	a1,a1
    8000255c:	40b50633          	sub	a2,a0,a1
    80002560:	48c0bc23          	sd	a2,1176(ra)
    80002564:	ffffc137          	lui	sp,0xffffc
    80002568:	0011011b          	addiw	sp,sp,1 # ffffffffffffc001 <absimm+0xffffffff452ee531>
    8000256c:	01f11113          	slli	sp,sp,0x1f
    80002570:	00c10463          	beq	sp,a2,80002578 <inst_179>
    80002574:	ab1fd06f          	j	80000024 <rvtest_error>

0000000080002578 <inst_179>:
    80002578:	00100513          	li	a0,1
    8000257c:	03451513          	slli	a0,a0,0x34
    80002580:	fff54513          	not	a0,a0
    80002584:	40000593          	li	a1,1024
    80002588:	40b50633          	sub	a2,a0,a1
    8000258c:	4ac0b023          	sd	a2,1184(ra)
    80002590:	fff0011b          	addiw	sp,zero,-1
    80002594:	03411113          	slli	sp,sp,0x34
    80002598:	bff10113          	addi	sp,sp,-1025
    8000259c:	00c10463          	beq	sp,a2,800025a4 <inst_180>
    800025a0:	a85fd06f          	j	80000024 <rvtest_error>

00000000800025a4 <inst_180>:
    800025a4:	00100513          	li	a0,1
    800025a8:	03551513          	slli	a0,a0,0x35
    800025ac:	fff54513          	not	a0,a0
    800025b0:	ff600593          	li	a1,-10
    800025b4:	40b50633          	sub	a2,a0,a1
    800025b8:	4ac0b423          	sd	a2,1192(ra)
    800025bc:	fff0011b          	addiw	sp,zero,-1
    800025c0:	03511113          	slli	sp,sp,0x35
    800025c4:	00910113          	addi	sp,sp,9
    800025c8:	00c10463          	beq	sp,a2,800025d0 <inst_181>
    800025cc:	a59fd06f          	j	80000024 <rvtest_error>

00000000800025d0 <inst_181>:
    800025d0:	00100513          	li	a0,1
    800025d4:	03751513          	slli	a0,a0,0x37
    800025d8:	fff54513          	not	a0,a0
    800025dc:	00900593          	li	a1,9
    800025e0:	40b50633          	sub	a2,a0,a1
    800025e4:	4ac0b823          	sd	a2,1200(ra)
    800025e8:	fff0011b          	addiw	sp,zero,-1
    800025ec:	03711113          	slli	sp,sp,0x37
    800025f0:	ff610113          	addi	sp,sp,-10
    800025f4:	00c10463          	beq	sp,a2,800025fc <inst_182>
    800025f8:	a2dfd06f          	j	80000024 <rvtest_error>

00000000800025fc <inst_182>:
    800025fc:	00100513          	li	a0,1
    80002600:	03851513          	slli	a0,a0,0x38
    80002604:	fff54513          	not	a0,a0
    80002608:	00100593          	li	a1,1
    8000260c:	02d59593          	slli	a1,a1,0x2d
    80002610:	fff5c593          	not	a1,a1
    80002614:	40b50633          	sub	a2,a0,a1
    80002618:	4ac0bc23          	sd	a2,1208(ra)
    8000261c:	8010011b          	addiw	sp,zero,-2047
    80002620:	02d11113          	slli	sp,sp,0x2d
    80002624:	00c10463          	beq	sp,a2,8000262c <inst_183>
    80002628:	9fdfd06f          	j	80000024 <rvtest_error>

000000008000262c <inst_183>:
    8000262c:	00100513          	li	a0,1
    80002630:	03a51513          	slli	a0,a0,0x3a
    80002634:	fff54513          	not	a0,a0
    80002638:	00100593          	li	a1,1
    8000263c:	01659593          	slli	a1,a1,0x16
    80002640:	fff5c593          	not	a1,a1
    80002644:	40b50633          	sub	a2,a0,a1
    80002648:	4cc0b023          	sd	a2,1216(ra)
    8000264c:	fff0011b          	addiw	sp,zero,-1
    80002650:	02411113          	slli	sp,sp,0x24
    80002654:	00110113          	addi	sp,sp,1
    80002658:	01611113          	slli	sp,sp,0x16
    8000265c:	00c10463          	beq	sp,a2,80002664 <inst_184>
    80002660:	9c5fd06f          	j	80000024 <rvtest_error>

0000000080002664 <inst_184>:
    80002664:	00100513          	li	a0,1
    80002668:	03c51513          	slli	a0,a0,0x3c
    8000266c:	fff54513          	not	a0,a0
    80002670:	00100593          	li	a1,1
    80002674:	01359593          	slli	a1,a1,0x13
    80002678:	fff5c593          	not	a1,a1
    8000267c:	40b50633          	sub	a2,a0,a1
    80002680:	4cc0b423          	sd	a2,1224(ra)
    80002684:	fff0011b          	addiw	sp,zero,-1
    80002688:	02911113          	slli	sp,sp,0x29
    8000268c:	00110113          	addi	sp,sp,1
    80002690:	01311113          	slli	sp,sp,0x13
    80002694:	00c10463          	beq	sp,a2,8000269c <inst_185>
    80002698:	98dfd06f          	j	80000024 <rvtest_error>

000000008000269c <inst_185>:
    8000269c:	00100513          	li	a0,1
    800026a0:	03e51513          	slli	a0,a0,0x3e
    800026a4:	fff54513          	not	a0,a0
    800026a8:	00100593          	li	a1,1
    800026ac:	03c59593          	slli	a1,a1,0x3c
    800026b0:	fff5c593          	not	a1,a1
    800026b4:	40b50633          	sub	a2,a0,a1
    800026b8:	4cc0b823          	sd	a2,1232(ra)
    800026bc:	ffd0011b          	addiw	sp,zero,-3
    800026c0:	03c11113          	slli	sp,sp,0x3c
    800026c4:	00c10463          	beq	sp,a2,800026cc <inst_186>
    800026c8:	95dfd06f          	j	80000024 <rvtest_error>

00000000800026cc <inst_186>:
    800026cc:	aaaab537          	lui	a0,0xaaaab
    800026d0:	aaa50513          	addi	a0,a0,-1366 # ffffffffaaaaaaaa <absimm+0xfffffffeefd9cfda>
    800026d4:	00b51513          	slli	a0,a0,0xb
    800026d8:	55550513          	addi	a0,a0,1365
    800026dc:	00b51513          	slli	a0,a0,0xb
    800026e0:	2aa50513          	addi	a0,a0,682
    800026e4:	00a51513          	slli	a0,a0,0xa
    800026e8:	2aa50513          	addi	a0,a0,682
    800026ec:	00000593          	li	a1,0
    800026f0:	40b50633          	sub	a2,a0,a1
    800026f4:	4cc0bc23          	sd	a2,1240(ra)
    800026f8:	faaab137          	lui	sp,0xfaaab
    800026fc:	aab1011b          	addiw	sp,sp,-1365 # fffffffffaaaaaab <absimm+0xffffffff3fd9cfdb>
    80002700:	00c11113          	slli	sp,sp,0xc
    80002704:	aab10113          	addi	sp,sp,-1365
    80002708:	00c11113          	slli	sp,sp,0xc
    8000270c:	aab10113          	addi	sp,sp,-1365
    80002710:	00c11113          	slli	sp,sp,0xc
    80002714:	aaa10113          	addi	sp,sp,-1366
    80002718:	00c10463          	beq	sp,a2,80002720 <inst_187>
    8000271c:	909fd06f          	j	80000024 <rvtest_error>

0000000080002720 <inst_187>:
    80002720:	00300513          	li	a0,3
    80002724:	00300593          	li	a1,3
    80002728:	40b50633          	sub	a2,a0,a1
    8000272c:	4ec0b023          	sd	a2,1248(ra)
    80002730:	00000113          	li	sp,0
    80002734:	00c10463          	beq	sp,a2,8000273c <inst_188>
    80002738:	8edfd06f          	j	80000024 <rvtest_error>

000000008000273c <inst_188>:
    8000273c:	00300513          	li	a0,3
    80002740:	555555b7          	lui	a1,0x55555
    80002744:	55558593          	addi	a1,a1,1365 # 55555555 <absimmsh+0x49a847a8>
    80002748:	00b59593          	slli	a1,a1,0xb
    8000274c:	2aa58593          	addi	a1,a1,682
    80002750:	00b59593          	slli	a1,a1,0xb
    80002754:	55558593          	addi	a1,a1,1365
    80002758:	00a59593          	slli	a1,a1,0xa
    8000275c:	15558593          	addi	a1,a1,341
    80002760:	40b50633          	sub	a2,a0,a1
    80002764:	4ec0b423          	sd	a2,1256(ra)
    80002768:	faaab137          	lui	sp,0xfaaab
    8000276c:	aab1011b          	addiw	sp,sp,-1365 # fffffffffaaaaaab <absimm+0xffffffff3fd9cfdb>
    80002770:	00c11113          	slli	sp,sp,0xc
    80002774:	aab10113          	addi	sp,sp,-1365
    80002778:	00c11113          	slli	sp,sp,0xc
    8000277c:	aab10113          	addi	sp,sp,-1365
    80002780:	00c11113          	slli	sp,sp,0xc
    80002784:	aae10113          	addi	sp,sp,-1362
    80002788:	00c10463          	beq	sp,a2,80002790 <inst_189>
    8000278c:	899fd06f          	j	80000024 <rvtest_error>

0000000080002790 <inst_189>:
    80002790:	00300513          	li	a0,3
    80002794:	aaaab5b7          	lui	a1,0xaaaab
    80002798:	aaa58593          	addi	a1,a1,-1366 # ffffffffaaaaaaaa <absimm+0xfffffffeefd9cfda>
    8000279c:	00b59593          	slli	a1,a1,0xb
    800027a0:	55558593          	addi	a1,a1,1365
    800027a4:	00b59593          	slli	a1,a1,0xb
    800027a8:	2aa58593          	addi	a1,a1,682
    800027ac:	00a59593          	slli	a1,a1,0xa
    800027b0:	2aa58593          	addi	a1,a1,682
    800027b4:	40b50633          	sub	a2,a0,a1
    800027b8:	4ec0b823          	sd	a2,1264(ra)
    800027bc:	05555137          	lui	sp,0x5555
    800027c0:	5551011b          	addiw	sp,sp,1365 # 5555555 <offset+0x555515d>
    800027c4:	00c11113          	slli	sp,sp,0xc
    800027c8:	55510113          	addi	sp,sp,1365
    800027cc:	00c11113          	slli	sp,sp,0xc
    800027d0:	55510113          	addi	sp,sp,1365
    800027d4:	00c11113          	slli	sp,sp,0xc
    800027d8:	55910113          	addi	sp,sp,1369
    800027dc:	00c10463          	beq	sp,a2,800027e4 <inst_190>
    800027e0:	845fd06f          	j	80000024 <rvtest_error>

00000000800027e4 <inst_190>:
    800027e4:	00300513          	li	a0,3
    800027e8:	00500593          	li	a1,5
    800027ec:	40b50633          	sub	a2,a0,a1
    800027f0:	4ec0bc23          	sd	a2,1272(ra)
    800027f4:	ffe00113          	li	sp,-2
    800027f8:	00c10463          	beq	sp,a2,80002800 <inst_191>
    800027fc:	829fd06f          	j	80000024 <rvtest_error>

0000000080002800 <inst_191>:
    80002800:	00300513          	li	a0,3
    80002804:	333335b7          	lui	a1,0x33333
    80002808:	33358593          	addi	a1,a1,819 # 33333333 <absimmsh+0x27862586>
    8000280c:	00b59593          	slli	a1,a1,0xb
    80002810:	19958593          	addi	a1,a1,409
    80002814:	00b59593          	slli	a1,a1,0xb
    80002818:	4cc58593          	addi	a1,a1,1228
    8000281c:	00a59593          	slli	a1,a1,0xa
    80002820:	33358593          	addi	a1,a1,819
    80002824:	40b50633          	sub	a2,a0,a1
    80002828:	50c0b023          	sd	a2,1280(ra)
    8000282c:	fcccd137          	lui	sp,0xfcccd
    80002830:	ccd1011b          	addiw	sp,sp,-819 # fffffffffccccccd <absimm+0xffffffff41fbf1fd>
    80002834:	00c11113          	slli	sp,sp,0xc
    80002838:	ccd10113          	addi	sp,sp,-819
    8000283c:	00c11113          	slli	sp,sp,0xc
    80002840:	ccd10113          	addi	sp,sp,-819
    80002844:	00c11113          	slli	sp,sp,0xc
    80002848:	cd010113          	addi	sp,sp,-816
    8000284c:	00c10463          	beq	sp,a2,80002854 <inst_192>
    80002850:	fd4fd06f          	j	80000024 <rvtest_error>

0000000080002854 <inst_192>:
    80002854:	00300513          	li	a0,3
    80002858:	666665b7          	lui	a1,0x66666
    8000285c:	66658593          	addi	a1,a1,1638 # 66666666 <absimmsh+0x5ab958b9>
    80002860:	00b59593          	slli	a1,a1,0xb
    80002864:	33358593          	addi	a1,a1,819
    80002868:	00b59593          	slli	a1,a1,0xb
    8000286c:	19958593          	addi	a1,a1,409
    80002870:	00a59593          	slli	a1,a1,0xa
    80002874:	26658593          	addi	a1,a1,614
    80002878:	40b50633          	sub	a2,a0,a1
    8000287c:	50c0b423          	sd	a2,1288(ra)
    80002880:	fcccd137          	lui	sp,0xfcccd
    80002884:	ccd1011b          	addiw	sp,sp,-819 # fffffffffccccccd <absimm+0xffffffff41fbf1fd>
    80002888:	00c11113          	slli	sp,sp,0xc
    8000288c:	ccd10113          	addi	sp,sp,-819
    80002890:	00c11113          	slli	sp,sp,0xc
    80002894:	ccd10113          	addi	sp,sp,-819
    80002898:	00d11113          	slli	sp,sp,0xd
    8000289c:	99d10113          	addi	sp,sp,-1635
    800028a0:	00c10463          	beq	sp,a2,800028a8 <inst_193>
    800028a4:	f80fd06f          	j	80000024 <rvtest_error>

00000000800028a8 <inst_193>:
    800028a8:	00300513          	li	a0,3
    800028ac:	000005b7          	lui	a1,0x0
    800028b0:	fff58593          	addi	a1,a1,-1
    800028b4:	00b59593          	slli	a1,a1,0xb
    800028b8:	25758593          	addi	a1,a1,599
    800028bc:	00b59593          	slli	a1,a1,0xb
    800028c0:	6c358593          	addi	a1,a1,1731
    800028c4:	00a59593          	slli	a1,a1,0xa
    800028c8:	0cd58593          	addi	a1,a1,205
    800028cc:	40b50633          	sub	a2,a0,a1
    800028d0:	50c0b823          	sd	a2,1296(ra)
    800028d4:	000b5137          	lui	sp,0xb5
    800028d8:	04f1011b          	addiw	sp,sp,79 # b504f <offset+0xb4c57>
    800028dc:	00c11113          	slli	sp,sp,0xc
    800028e0:	33610113          	addi	sp,sp,822
    800028e4:	00c10463          	beq	sp,a2,800028ec <inst_194>
    800028e8:	f3cfd06f          	j	80000024 <rvtest_error>

00000000800028ec <inst_194>:
    800028ec:	00300513          	li	a0,3
    800028f0:	000005b7          	lui	a1,0x0
    800028f4:	00058593          	mv	a1,a1
    800028f8:	00b59593          	slli	a1,a1,0xb
    800028fc:	5a858593          	addi	a1,a1,1448 # 5a8 <offset+0x1b0>
    80002900:	00b59593          	slli	a1,a1,0xb
    80002904:	13c58593          	addi	a1,a1,316
    80002908:	00a59593          	slli	a1,a1,0xa
    8000290c:	33358593          	addi	a1,a1,819
    80002910:	40b50633          	sub	a2,a0,a1
    80002914:	50c0bc23          	sd	a2,1304(ra)
    80002918:	fff4b137          	lui	sp,0xfff4b
    8000291c:	fb11011b          	addiw	sp,sp,-79 # fffffffffff4afb1 <absimm+0xffffffff4523d4e1>
    80002920:	00c11113          	slli	sp,sp,0xc
    80002924:	cd010113          	addi	sp,sp,-816
    80002928:	00c10463          	beq	sp,a2,80002930 <inst_195>
    8000292c:	ef8fd06f          	j	80000024 <rvtest_error>

0000000080002930 <inst_195>:
    80002930:	00300513          	li	a0,3
    80002934:	00200593          	li	a1,2
    80002938:	40b50633          	sub	a2,a0,a1
    8000293c:	52c0b023          	sd	a2,1312(ra)
    80002940:	00100113          	li	sp,1
    80002944:	00c10463          	beq	sp,a2,8000294c <inst_196>
    80002948:	edcfd06f          	j	80000024 <rvtest_error>

000000008000294c <inst_196>:
    8000294c:	00300513          	li	a0,3
    80002950:	555555b7          	lui	a1,0x55555
    80002954:	55558593          	addi	a1,a1,1365 # 55555555 <absimmsh+0x49a847a8>
    80002958:	00b59593          	slli	a1,a1,0xb
    8000295c:	2aa58593          	addi	a1,a1,682
    80002960:	00b59593          	slli	a1,a1,0xb
    80002964:	55558593          	addi	a1,a1,1365
    80002968:	00a59593          	slli	a1,a1,0xa
    8000296c:	15458593          	addi	a1,a1,340
    80002970:	40b50633          	sub	a2,a0,a1
    80002974:	52c0b423          	sd	a2,1320(ra)
    80002978:	faaab137          	lui	sp,0xfaaab
    8000297c:	aab1011b          	addiw	sp,sp,-1365 # fffffffffaaaaaab <absimm+0xffffffff3fd9cfdb>
    80002980:	00c11113          	slli	sp,sp,0xc
    80002984:	aab10113          	addi	sp,sp,-1365
    80002988:	00c11113          	slli	sp,sp,0xc
    8000298c:	aab10113          	addi	sp,sp,-1365
    80002990:	00c11113          	slli	sp,sp,0xc
    80002994:	aaf10113          	addi	sp,sp,-1361
    80002998:	00c10463          	beq	sp,a2,800029a0 <inst_197>
    8000299c:	e88fd06f          	j	80000024 <rvtest_error>

00000000800029a0 <inst_197>:
    800029a0:	00300513          	li	a0,3
    800029a4:	00000593          	li	a1,0
    800029a8:	40b50633          	sub	a2,a0,a1
    800029ac:	52c0b823          	sd	a2,1328(ra)
    800029b0:	00300113          	li	sp,3
    800029b4:	00c10463          	beq	sp,a2,800029bc <inst_198>
    800029b8:	e6cfd06f          	j	80000024 <rvtest_error>

00000000800029bc <inst_198>:
    800029bc:	00300513          	li	a0,3
    800029c0:	00400593          	li	a1,4
    800029c4:	40b50633          	sub	a2,a0,a1
    800029c8:	52c0bc23          	sd	a2,1336(ra)
    800029cc:	fff00113          	li	sp,-1
    800029d0:	00c10463          	beq	sp,a2,800029d8 <inst_199>
    800029d4:	e50fd06f          	j	80000024 <rvtest_error>

00000000800029d8 <inst_199>:
    800029d8:	00300513          	li	a0,3
    800029dc:	333335b7          	lui	a1,0x33333
    800029e0:	33358593          	addi	a1,a1,819 # 33333333 <absimmsh+0x27862586>
    800029e4:	00b59593          	slli	a1,a1,0xb
    800029e8:	19958593          	addi	a1,a1,409
    800029ec:	00b59593          	slli	a1,a1,0xb
    800029f0:	4cc58593          	addi	a1,a1,1228
    800029f4:	00a59593          	slli	a1,a1,0xa
    800029f8:	33258593          	addi	a1,a1,818
    800029fc:	40b50633          	sub	a2,a0,a1
    80002a00:	54c0b023          	sd	a2,1344(ra)
    80002a04:	fcccd137          	lui	sp,0xfcccd
    80002a08:	ccd1011b          	addiw	sp,sp,-819 # fffffffffccccccd <absimm+0xffffffff41fbf1fd>
    80002a0c:	00c11113          	slli	sp,sp,0xc
    80002a10:	ccd10113          	addi	sp,sp,-819
    80002a14:	00c11113          	slli	sp,sp,0xc
    80002a18:	ccd10113          	addi	sp,sp,-819
    80002a1c:	00c11113          	slli	sp,sp,0xc
    80002a20:	cd110113          	addi	sp,sp,-815
    80002a24:	00c10463          	beq	sp,a2,80002a2c <inst_200>
    80002a28:	dfcfd06f          	j	80000024 <rvtest_error>

0000000080002a2c <inst_200>:
    80002a2c:	00300513          	li	a0,3
    80002a30:	666665b7          	lui	a1,0x66666
    80002a34:	66658593          	addi	a1,a1,1638 # 66666666 <absimmsh+0x5ab958b9>
    80002a38:	00b59593          	slli	a1,a1,0xb
    80002a3c:	33358593          	addi	a1,a1,819
    80002a40:	00b59593          	slli	a1,a1,0xb
    80002a44:	19958593          	addi	a1,a1,409
    80002a48:	00a59593          	slli	a1,a1,0xa
    80002a4c:	26558593          	addi	a1,a1,613
    80002a50:	40b50633          	sub	a2,a0,a1
    80002a54:	54c0b423          	sd	a2,1352(ra)
    80002a58:	fcccd137          	lui	sp,0xfcccd
    80002a5c:	ccd1011b          	addiw	sp,sp,-819 # fffffffffccccccd <absimm+0xffffffff41fbf1fd>
    80002a60:	00c11113          	slli	sp,sp,0xc
    80002a64:	ccd10113          	addi	sp,sp,-819
    80002a68:	00c11113          	slli	sp,sp,0xc
    80002a6c:	ccd10113          	addi	sp,sp,-819
    80002a70:	00d11113          	slli	sp,sp,0xd
    80002a74:	99e10113          	addi	sp,sp,-1634
    80002a78:	00c10463          	beq	sp,a2,80002a80 <inst_201>
    80002a7c:	da8fd06f          	j	80000024 <rvtest_error>

0000000080002a80 <inst_201>:
    80002a80:	00300513          	li	a0,3
    80002a84:	000005b7          	lui	a1,0x0
    80002a88:	00058593          	mv	a1,a1
    80002a8c:	00b59593          	slli	a1,a1,0xb
    80002a90:	5a858593          	addi	a1,a1,1448 # 5a8 <offset+0x1b0>
    80002a94:	00b59593          	slli	a1,a1,0xb
    80002a98:	13c58593          	addi	a1,a1,316
    80002a9c:	00a59593          	slli	a1,a1,0xa
    80002aa0:	33258593          	addi	a1,a1,818
    80002aa4:	40b50633          	sub	a2,a0,a1
    80002aa8:	54c0b823          	sd	a2,1360(ra)
    80002aac:	fff4b137          	lui	sp,0xfff4b
    80002ab0:	fb11011b          	addiw	sp,sp,-79 # fffffffffff4afb1 <absimm+0xffffffff4523d4e1>
    80002ab4:	00c11113          	slli	sp,sp,0xc
    80002ab8:	cd110113          	addi	sp,sp,-815
    80002abc:	00c10463          	beq	sp,a2,80002ac4 <inst_202>
    80002ac0:	d64fd06f          	j	80000024 <rvtest_error>

0000000080002ac4 <inst_202>:
    80002ac4:	00300513          	li	a0,3
    80002ac8:	555555b7          	lui	a1,0x55555
    80002acc:	55558593          	addi	a1,a1,1365 # 55555555 <absimmsh+0x49a847a8>
    80002ad0:	00b59593          	slli	a1,a1,0xb
    80002ad4:	2aa58593          	addi	a1,a1,682
    80002ad8:	00b59593          	slli	a1,a1,0xb
    80002adc:	55558593          	addi	a1,a1,1365
    80002ae0:	00a59593          	slli	a1,a1,0xa
    80002ae4:	15658593          	addi	a1,a1,342
    80002ae8:	40b50633          	sub	a2,a0,a1
    80002aec:	54c0bc23          	sd	a2,1368(ra)
    80002af0:	faaab137          	lui	sp,0xfaaab
    80002af4:	aab1011b          	addiw	sp,sp,-1365 # fffffffffaaaaaab <absimm+0xffffffff3fd9cfdb>
    80002af8:	00c11113          	slli	sp,sp,0xc
    80002afc:	aab10113          	addi	sp,sp,-1365
    80002b00:	00c11113          	slli	sp,sp,0xc
    80002b04:	aab10113          	addi	sp,sp,-1365
    80002b08:	00c11113          	slli	sp,sp,0xc
    80002b0c:	aad10113          	addi	sp,sp,-1363
    80002b10:	00c10463          	beq	sp,a2,80002b18 <inst_203>
    80002b14:	d10fd06f          	j	80000024 <rvtest_error>

0000000080002b18 <inst_203>:
    80002b18:	00300513          	li	a0,3
    80002b1c:	aaaab5b7          	lui	a1,0xaaaab
    80002b20:	aaa58593          	addi	a1,a1,-1366 # ffffffffaaaaaaaa <absimm+0xfffffffeefd9cfda>
    80002b24:	00b59593          	slli	a1,a1,0xb
    80002b28:	55558593          	addi	a1,a1,1365
    80002b2c:	00b59593          	slli	a1,a1,0xb
    80002b30:	2aa58593          	addi	a1,a1,682
    80002b34:	00a59593          	slli	a1,a1,0xa
    80002b38:	2ab58593          	addi	a1,a1,683
    80002b3c:	40b50633          	sub	a2,a0,a1
    80002b40:	56c0b023          	sd	a2,1376(ra)
    80002b44:	05555137          	lui	sp,0x5555
    80002b48:	5551011b          	addiw	sp,sp,1365 # 5555555 <offset+0x555515d>
    80002b4c:	00c11113          	slli	sp,sp,0xc
    80002b50:	55510113          	addi	sp,sp,1365
    80002b54:	00c11113          	slli	sp,sp,0xc
    80002b58:	55510113          	addi	sp,sp,1365
    80002b5c:	00c11113          	slli	sp,sp,0xc
    80002b60:	55810113          	addi	sp,sp,1368
    80002b64:	00c10463          	beq	sp,a2,80002b6c <inst_204>
    80002b68:	cbcfd06f          	j	80000024 <rvtest_error>

0000000080002b6c <inst_204>:
    80002b6c:	00300513          	li	a0,3
    80002b70:	00600593          	li	a1,6
    80002b74:	40b50633          	sub	a2,a0,a1
    80002b78:	56c0b423          	sd	a2,1384(ra)
    80002b7c:	ffd00113          	li	sp,-3
    80002b80:	00c10463          	beq	sp,a2,80002b88 <inst_205>
    80002b84:	ca0fd06f          	j	80000024 <rvtest_error>

0000000080002b88 <inst_205>:
    80002b88:	00300513          	li	a0,3
    80002b8c:	333335b7          	lui	a1,0x33333
    80002b90:	33358593          	addi	a1,a1,819 # 33333333 <absimmsh+0x27862586>
    80002b94:	00b59593          	slli	a1,a1,0xb
    80002b98:	19958593          	addi	a1,a1,409
    80002b9c:	00b59593          	slli	a1,a1,0xb
    80002ba0:	4cc58593          	addi	a1,a1,1228
    80002ba4:	00a59593          	slli	a1,a1,0xa
    80002ba8:	33458593          	addi	a1,a1,820
    80002bac:	40b50633          	sub	a2,a0,a1
    80002bb0:	56c0b823          	sd	a2,1392(ra)
    80002bb4:	fcccd137          	lui	sp,0xfcccd
    80002bb8:	ccd1011b          	addiw	sp,sp,-819 # fffffffffccccccd <absimm+0xffffffff41fbf1fd>
    80002bbc:	00c11113          	slli	sp,sp,0xc
    80002bc0:	ccd10113          	addi	sp,sp,-819
    80002bc4:	00c11113          	slli	sp,sp,0xc
    80002bc8:	ccd10113          	addi	sp,sp,-819
    80002bcc:	00c11113          	slli	sp,sp,0xc
    80002bd0:	ccf10113          	addi	sp,sp,-817
    80002bd4:	00c10463          	beq	sp,a2,80002bdc <inst_206>
    80002bd8:	c4cfd06f          	j	80000024 <rvtest_error>

0000000080002bdc <inst_206>:
    80002bdc:	00300513          	li	a0,3
    80002be0:	666665b7          	lui	a1,0x66666
    80002be4:	66658593          	addi	a1,a1,1638 # 66666666 <absimmsh+0x5ab958b9>
    80002be8:	00b59593          	slli	a1,a1,0xb
    80002bec:	33358593          	addi	a1,a1,819
    80002bf0:	00b59593          	slli	a1,a1,0xb
    80002bf4:	19958593          	addi	a1,a1,409
    80002bf8:	00a59593          	slli	a1,a1,0xa
    80002bfc:	26758593          	addi	a1,a1,615
    80002c00:	40b50633          	sub	a2,a0,a1
    80002c04:	56c0bc23          	sd	a2,1400(ra)
    80002c08:	fcccd137          	lui	sp,0xfcccd
    80002c0c:	ccd1011b          	addiw	sp,sp,-819 # fffffffffccccccd <absimm+0xffffffff41fbf1fd>
    80002c10:	00c11113          	slli	sp,sp,0xc
    80002c14:	ccd10113          	addi	sp,sp,-819
    80002c18:	00c11113          	slli	sp,sp,0xc
    80002c1c:	ccd10113          	addi	sp,sp,-819
    80002c20:	00d11113          	slli	sp,sp,0xd
    80002c24:	99c10113          	addi	sp,sp,-1636
    80002c28:	00c10463          	beq	sp,a2,80002c30 <inst_207>
    80002c2c:	bf8fd06f          	j	80000024 <rvtest_error>

0000000080002c30 <inst_207>:
    80002c30:	00300513          	li	a0,3
    80002c34:	000005b7          	lui	a1,0x0
    80002c38:	fff58593          	addi	a1,a1,-1
    80002c3c:	00b59593          	slli	a1,a1,0xb
    80002c40:	25758593          	addi	a1,a1,599
    80002c44:	00b59593          	slli	a1,a1,0xb
    80002c48:	6c358593          	addi	a1,a1,1731
    80002c4c:	00a59593          	slli	a1,a1,0xa
    80002c50:	0ce58593          	addi	a1,a1,206
    80002c54:	40b50633          	sub	a2,a0,a1
    80002c58:	58c0b023          	sd	a2,1408(ra)
    80002c5c:	000b5137          	lui	sp,0xb5
    80002c60:	04f1011b          	addiw	sp,sp,79 # b504f <offset+0xb4c57>
    80002c64:	00c11113          	slli	sp,sp,0xc
    80002c68:	33510113          	addi	sp,sp,821
    80002c6c:	00c10463          	beq	sp,a2,80002c74 <inst_208>
    80002c70:	bb4fd06f          	j	80000024 <rvtest_error>

0000000080002c74 <inst_208>:
    80002c74:	00300513          	li	a0,3
    80002c78:	000005b7          	lui	a1,0x0
    80002c7c:	00058593          	mv	a1,a1
    80002c80:	00b59593          	slli	a1,a1,0xb
    80002c84:	5a858593          	addi	a1,a1,1448 # 5a8 <offset+0x1b0>
    80002c88:	00b59593          	slli	a1,a1,0xb
    80002c8c:	13c58593          	addi	a1,a1,316
    80002c90:	00a59593          	slli	a1,a1,0xa
    80002c94:	33458593          	addi	a1,a1,820
    80002c98:	40b50633          	sub	a2,a0,a1
    80002c9c:	58c0b423          	sd	a2,1416(ra)
    80002ca0:	fff4b137          	lui	sp,0xfff4b
    80002ca4:	fb11011b          	addiw	sp,sp,-79 # fffffffffff4afb1 <absimm+0xffffffff4523d4e1>
    80002ca8:	00c11113          	slli	sp,sp,0xc
    80002cac:	ccf10113          	addi	sp,sp,-817
    80002cb0:	00c10463          	beq	sp,a2,80002cb8 <inst_209>
    80002cb4:	b70fd06f          	j	80000024 <rvtest_error>

0000000080002cb8 <inst_209>:
    80002cb8:	55555537          	lui	a0,0x55555
    80002cbc:	55550513          	addi	a0,a0,1365 # 55555555 <absimmsh+0x49a847a8>
    80002cc0:	00b51513          	slli	a0,a0,0xb
    80002cc4:	2aa50513          	addi	a0,a0,682
    80002cc8:	00b51513          	slli	a0,a0,0xb
    80002ccc:	55550513          	addi	a0,a0,1365
    80002cd0:	00a51513          	slli	a0,a0,0xa
    80002cd4:	15550513          	addi	a0,a0,341
    80002cd8:	00300593          	li	a1,3
    80002cdc:	40b50633          	sub	a2,a0,a1
    80002ce0:	58c0b823          	sd	a2,1424(ra)
    80002ce4:	05555137          	lui	sp,0x5555
    80002ce8:	5551011b          	addiw	sp,sp,1365 # 5555555 <offset+0x555515d>
    80002cec:	00c11113          	slli	sp,sp,0xc
    80002cf0:	55510113          	addi	sp,sp,1365
    80002cf4:	00c11113          	slli	sp,sp,0xc
    80002cf8:	55510113          	addi	sp,sp,1365
    80002cfc:	00c11113          	slli	sp,sp,0xc
    80002d00:	55210113          	addi	sp,sp,1362
    80002d04:	00c10463          	beq	sp,a2,80002d0c <inst_210>
    80002d08:	b1cfd06f          	j	80000024 <rvtest_error>

0000000080002d0c <inst_210>:
    80002d0c:	55555537          	lui	a0,0x55555
    80002d10:	55550513          	addi	a0,a0,1365 # 55555555 <absimmsh+0x49a847a8>
    80002d14:	00b51513          	slli	a0,a0,0xb
    80002d18:	2aa50513          	addi	a0,a0,682
    80002d1c:	00b51513          	slli	a0,a0,0xb
    80002d20:	55550513          	addi	a0,a0,1365
    80002d24:	00a51513          	slli	a0,a0,0xa
    80002d28:	15550513          	addi	a0,a0,341
    80002d2c:	555555b7          	lui	a1,0x55555
    80002d30:	55558593          	addi	a1,a1,1365 # 55555555 <absimmsh+0x49a847a8>
    80002d34:	00b59593          	slli	a1,a1,0xb
    80002d38:	2aa58593          	addi	a1,a1,682
    80002d3c:	00b59593          	slli	a1,a1,0xb
    80002d40:	55558593          	addi	a1,a1,1365
    80002d44:	00a59593          	slli	a1,a1,0xa
    80002d48:	15558593          	addi	a1,a1,341
    80002d4c:	40b50633          	sub	a2,a0,a1
    80002d50:	58c0bc23          	sd	a2,1432(ra)
    80002d54:	00000113          	li	sp,0
    80002d58:	00c10463          	beq	sp,a2,80002d60 <inst_211>
    80002d5c:	ac8fd06f          	j	80000024 <rvtest_error>

0000000080002d60 <inst_211>:
    80002d60:	55555537          	lui	a0,0x55555
    80002d64:	55550513          	addi	a0,a0,1365 # 55555555 <absimmsh+0x49a847a8>
    80002d68:	00b51513          	slli	a0,a0,0xb
    80002d6c:	2aa50513          	addi	a0,a0,682
    80002d70:	00b51513          	slli	a0,a0,0xb
    80002d74:	55550513          	addi	a0,a0,1365
    80002d78:	00a51513          	slli	a0,a0,0xa
    80002d7c:	15550513          	addi	a0,a0,341
    80002d80:	00500593          	li	a1,5
    80002d84:	40b50633          	sub	a2,a0,a1
    80002d88:	5ac0b023          	sd	a2,1440(ra)
    80002d8c:	05555137          	lui	sp,0x5555
    80002d90:	5551011b          	addiw	sp,sp,1365 # 5555555 <offset+0x555515d>
    80002d94:	00c11113          	slli	sp,sp,0xc
    80002d98:	55510113          	addi	sp,sp,1365
    80002d9c:	00c11113          	slli	sp,sp,0xc
    80002da0:	55510113          	addi	sp,sp,1365
    80002da4:	00c11113          	slli	sp,sp,0xc
    80002da8:	55010113          	addi	sp,sp,1360
    80002dac:	00c10463          	beq	sp,a2,80002db4 <inst_212>
    80002db0:	a74fd06f          	j	80000024 <rvtest_error>

0000000080002db4 <inst_212>:
    80002db4:	55555537          	lui	a0,0x55555
    80002db8:	55550513          	addi	a0,a0,1365 # 55555555 <absimmsh+0x49a847a8>
    80002dbc:	00b51513          	slli	a0,a0,0xb
    80002dc0:	2aa50513          	addi	a0,a0,682
    80002dc4:	00b51513          	slli	a0,a0,0xb
    80002dc8:	55550513          	addi	a0,a0,1365
    80002dcc:	00a51513          	slli	a0,a0,0xa
    80002dd0:	15550513          	addi	a0,a0,341
    80002dd4:	333335b7          	lui	a1,0x33333
    80002dd8:	33358593          	addi	a1,a1,819 # 33333333 <absimmsh+0x27862586>
    80002ddc:	00b59593          	slli	a1,a1,0xb
    80002de0:	19958593          	addi	a1,a1,409
    80002de4:	00b59593          	slli	a1,a1,0xb
    80002de8:	4cc58593          	addi	a1,a1,1228
    80002dec:	00a59593          	slli	a1,a1,0xa
    80002df0:	33358593          	addi	a1,a1,819
    80002df4:	40b50633          	sub	a2,a0,a1
    80002df8:	5ac0b423          	sd	a2,1448(ra)
    80002dfc:	01111137          	lui	sp,0x1111
    80002e00:	1111011b          	addiw	sp,sp,273 # 1111111 <offset+0x1110d19>
    80002e04:	00c11113          	slli	sp,sp,0xc
    80002e08:	11110113          	addi	sp,sp,273
    80002e0c:	00c11113          	slli	sp,sp,0xc
    80002e10:	11110113          	addi	sp,sp,273
    80002e14:	00d11113          	slli	sp,sp,0xd
    80002e18:	22210113          	addi	sp,sp,546
    80002e1c:	00c10463          	beq	sp,a2,80002e24 <inst_213>
    80002e20:	a04fd06f          	j	80000024 <rvtest_error>

0000000080002e24 <inst_213>:
    80002e24:	55555537          	lui	a0,0x55555
    80002e28:	55550513          	addi	a0,a0,1365 # 55555555 <absimmsh+0x49a847a8>
    80002e2c:	00b51513          	slli	a0,a0,0xb
    80002e30:	2aa50513          	addi	a0,a0,682
    80002e34:	00b51513          	slli	a0,a0,0xb
    80002e38:	55550513          	addi	a0,a0,1365
    80002e3c:	00a51513          	slli	a0,a0,0xa
    80002e40:	15550513          	addi	a0,a0,341
    80002e44:	666665b7          	lui	a1,0x66666
    80002e48:	66658593          	addi	a1,a1,1638 # 66666666 <absimmsh+0x5ab958b9>
    80002e4c:	00b59593          	slli	a1,a1,0xb
    80002e50:	33358593          	addi	a1,a1,819
    80002e54:	00b59593          	slli	a1,a1,0xb
    80002e58:	19958593          	addi	a1,a1,409
    80002e5c:	00a59593          	slli	a1,a1,0xa
    80002e60:	26658593          	addi	a1,a1,614
    80002e64:	40b50633          	sub	a2,a0,a1
    80002e68:	5ac0b823          	sd	a2,1456(ra)
    80002e6c:	feeef137          	lui	sp,0xfeeef
    80002e70:	eef1011b          	addiw	sp,sp,-273 # fffffffffeeeeeef <absimm+0xffffffff441e141f>
    80002e74:	00c11113          	slli	sp,sp,0xc
    80002e78:	eef10113          	addi	sp,sp,-273
    80002e7c:	00c11113          	slli	sp,sp,0xc
    80002e80:	eef10113          	addi	sp,sp,-273
    80002e84:	00c11113          	slli	sp,sp,0xc
    80002e88:	eef10113          	addi	sp,sp,-273
    80002e8c:	00c10463          	beq	sp,a2,80002e94 <inst_214>
    80002e90:	994fd06f          	j	80000024 <rvtest_error>

0000000080002e94 <inst_214>:
    80002e94:	55555537          	lui	a0,0x55555
    80002e98:	55550513          	addi	a0,a0,1365 # 55555555 <absimmsh+0x49a847a8>
    80002e9c:	00b51513          	slli	a0,a0,0xb
    80002ea0:	2aa50513          	addi	a0,a0,682
    80002ea4:	00b51513          	slli	a0,a0,0xb
    80002ea8:	55550513          	addi	a0,a0,1365
    80002eac:	00a51513          	slli	a0,a0,0xa
    80002eb0:	15550513          	addi	a0,a0,341
    80002eb4:	000005b7          	lui	a1,0x0
    80002eb8:	fff58593          	addi	a1,a1,-1
    80002ebc:	00b59593          	slli	a1,a1,0xb
    80002ec0:	25758593          	addi	a1,a1,599
    80002ec4:	00b59593          	slli	a1,a1,0xb
    80002ec8:	6c358593          	addi	a1,a1,1731
    80002ecc:	00a59593          	slli	a1,a1,0xa
    80002ed0:	0cd58593          	addi	a1,a1,205
    80002ed4:	40b50633          	sub	a2,a0,a1
    80002ed8:	5ac0bc23          	sd	a2,1464(ra)
    80002edc:	02aab137          	lui	sp,0x2aab
    80002ee0:	aab1011b          	addiw	sp,sp,-1365 # 2aaaaab <offset+0x2aaa6b3>
    80002ee4:	00c11113          	slli	sp,sp,0xc
    80002ee8:	b0510113          	addi	sp,sp,-1275
    80002eec:	00d11113          	slli	sp,sp,0xd
    80002ef0:	5a510113          	addi	sp,sp,1445
    80002ef4:	00c11113          	slli	sp,sp,0xc
    80002ef8:	88810113          	addi	sp,sp,-1912
    80002efc:	00c10463          	beq	sp,a2,80002f04 <inst_215>
    80002f00:	924fd06f          	j	80000024 <rvtest_error>

0000000080002f04 <inst_215>:
    80002f04:	55555537          	lui	a0,0x55555
    80002f08:	55550513          	addi	a0,a0,1365 # 55555555 <absimmsh+0x49a847a8>
    80002f0c:	00b51513          	slli	a0,a0,0xb
    80002f10:	2aa50513          	addi	a0,a0,682
    80002f14:	00b51513          	slli	a0,a0,0xb
    80002f18:	55550513          	addi	a0,a0,1365
    80002f1c:	00a51513          	slli	a0,a0,0xa
    80002f20:	15550513          	addi	a0,a0,341
    80002f24:	000005b7          	lui	a1,0x0
    80002f28:	00058593          	mv	a1,a1
    80002f2c:	00b59593          	slli	a1,a1,0xb
    80002f30:	5a858593          	addi	a1,a1,1448 # 5a8 <offset+0x1b0>
    80002f34:	00b59593          	slli	a1,a1,0xb
    80002f38:	13c58593          	addi	a1,a1,316
    80002f3c:	00a59593          	slli	a1,a1,0xa
    80002f40:	33358593          	addi	a1,a1,819
    80002f44:	40b50633          	sub	a2,a0,a1
    80002f48:	5cc0b023          	sd	a2,1472(ra)
    80002f4c:	002ab137          	lui	sp,0x2ab
    80002f50:	aab1011b          	addiw	sp,sp,-1365 # 2aaaab <offset+0x2aa6b3>
    80002f54:	00c11113          	slli	sp,sp,0xc
    80002f58:	aa510113          	addi	sp,sp,-1371
    80002f5c:	01011113          	slli	sp,sp,0x10
    80002f60:	28310113          	addi	sp,sp,643
    80002f64:	00d11113          	slli	sp,sp,0xd
    80002f68:	22210113          	addi	sp,sp,546
    80002f6c:	00c10463          	beq	sp,a2,80002f74 <inst_216>
    80002f70:	8b4fd06f          	j	80000024 <rvtest_error>

0000000080002f74 <inst_216>:
    80002f74:	55555537          	lui	a0,0x55555
    80002f78:	55550513          	addi	a0,a0,1365 # 55555555 <absimmsh+0x49a847a8>
    80002f7c:	00b51513          	slli	a0,a0,0xb
    80002f80:	2aa50513          	addi	a0,a0,682
    80002f84:	00b51513          	slli	a0,a0,0xb
    80002f88:	55550513          	addi	a0,a0,1365
    80002f8c:	00a51513          	slli	a0,a0,0xa
    80002f90:	15550513          	addi	a0,a0,341
    80002f94:	00200593          	li	a1,2
    80002f98:	40b50633          	sub	a2,a0,a1
    80002f9c:	5cc0b423          	sd	a2,1480(ra)
    80002fa0:	05555137          	lui	sp,0x5555
    80002fa4:	5551011b          	addiw	sp,sp,1365 # 5555555 <offset+0x555515d>
    80002fa8:	00c11113          	slli	sp,sp,0xc
    80002fac:	55510113          	addi	sp,sp,1365
    80002fb0:	00c11113          	slli	sp,sp,0xc
    80002fb4:	55510113          	addi	sp,sp,1365
    80002fb8:	00c11113          	slli	sp,sp,0xc
    80002fbc:	55310113          	addi	sp,sp,1363
    80002fc0:	00c10463          	beq	sp,a2,80002fc8 <inst_217>
    80002fc4:	860fd06f          	j	80000024 <rvtest_error>

0000000080002fc8 <inst_217>:
    80002fc8:	55555537          	lui	a0,0x55555
    80002fcc:	55550513          	addi	a0,a0,1365 # 55555555 <absimmsh+0x49a847a8>
    80002fd0:	00b51513          	slli	a0,a0,0xb
    80002fd4:	2aa50513          	addi	a0,a0,682
    80002fd8:	00b51513          	slli	a0,a0,0xb
    80002fdc:	55550513          	addi	a0,a0,1365
    80002fe0:	00a51513          	slli	a0,a0,0xa
    80002fe4:	15550513          	addi	a0,a0,341
    80002fe8:	555555b7          	lui	a1,0x55555
    80002fec:	55558593          	addi	a1,a1,1365 # 55555555 <absimmsh+0x49a847a8>
    80002ff0:	00b59593          	slli	a1,a1,0xb
    80002ff4:	2aa58593          	addi	a1,a1,682
    80002ff8:	00b59593          	slli	a1,a1,0xb
    80002ffc:	55558593          	addi	a1,a1,1365
    80003000:	00a59593          	slli	a1,a1,0xa
    80003004:	15458593          	addi	a1,a1,340
    80003008:	40b50633          	sub	a2,a0,a1
    8000300c:	5cc0b823          	sd	a2,1488(ra)
    80003010:	00100113          	li	sp,1
    80003014:	00c10463          	beq	sp,a2,8000301c <inst_218>
    80003018:	80cfd06f          	j	80000024 <rvtest_error>

000000008000301c <inst_218>:
    8000301c:	55555537          	lui	a0,0x55555
    80003020:	55550513          	addi	a0,a0,1365 # 55555555 <absimmsh+0x49a847a8>
    80003024:	00b51513          	slli	a0,a0,0xb
    80003028:	2aa50513          	addi	a0,a0,682
    8000302c:	00b51513          	slli	a0,a0,0xb
    80003030:	55550513          	addi	a0,a0,1365
    80003034:	00a51513          	slli	a0,a0,0xa
    80003038:	15550513          	addi	a0,a0,341
    8000303c:	00000593          	li	a1,0
    80003040:	40b50633          	sub	a2,a0,a1
    80003044:	5cc0bc23          	sd	a2,1496(ra)
    80003048:	05555137          	lui	sp,0x5555
    8000304c:	5551011b          	addiw	sp,sp,1365 # 5555555 <offset+0x555515d>
    80003050:	00c11113          	slli	sp,sp,0xc
    80003054:	55510113          	addi	sp,sp,1365
    80003058:	00c11113          	slli	sp,sp,0xc
    8000305c:	55510113          	addi	sp,sp,1365
    80003060:	00c11113          	slli	sp,sp,0xc
    80003064:	55510113          	addi	sp,sp,1365
    80003068:	00c10463          	beq	sp,a2,80003070 <inst_219>
    8000306c:	fb9fc06f          	j	80000024 <rvtest_error>

0000000080003070 <inst_219>:
    80003070:	55555537          	lui	a0,0x55555
    80003074:	55550513          	addi	a0,a0,1365 # 55555555 <absimmsh+0x49a847a8>
    80003078:	00b51513          	slli	a0,a0,0xb
    8000307c:	2aa50513          	addi	a0,a0,682
    80003080:	00b51513          	slli	a0,a0,0xb
    80003084:	55550513          	addi	a0,a0,1365
    80003088:	00a51513          	slli	a0,a0,0xa
    8000308c:	15550513          	addi	a0,a0,341
    80003090:	00400593          	li	a1,4
    80003094:	40b50633          	sub	a2,a0,a1
    80003098:	5ec0b023          	sd	a2,1504(ra)
    8000309c:	05555137          	lui	sp,0x5555
    800030a0:	5551011b          	addiw	sp,sp,1365 # 5555555 <offset+0x555515d>
    800030a4:	00c11113          	slli	sp,sp,0xc
    800030a8:	55510113          	addi	sp,sp,1365
    800030ac:	00c11113          	slli	sp,sp,0xc
    800030b0:	55510113          	addi	sp,sp,1365
    800030b4:	00c11113          	slli	sp,sp,0xc
    800030b8:	55110113          	addi	sp,sp,1361
    800030bc:	00c10463          	beq	sp,a2,800030c4 <inst_220>
    800030c0:	f65fc06f          	j	80000024 <rvtest_error>

00000000800030c4 <inst_220>:
    800030c4:	55555537          	lui	a0,0x55555
    800030c8:	55550513          	addi	a0,a0,1365 # 55555555 <absimmsh+0x49a847a8>
    800030cc:	00b51513          	slli	a0,a0,0xb
    800030d0:	2aa50513          	addi	a0,a0,682
    800030d4:	00b51513          	slli	a0,a0,0xb
    800030d8:	55550513          	addi	a0,a0,1365
    800030dc:	00a51513          	slli	a0,a0,0xa
    800030e0:	15550513          	addi	a0,a0,341
    800030e4:	333335b7          	lui	a1,0x33333
    800030e8:	33358593          	addi	a1,a1,819 # 33333333 <absimmsh+0x27862586>
    800030ec:	00b59593          	slli	a1,a1,0xb
    800030f0:	19958593          	addi	a1,a1,409
    800030f4:	00b59593          	slli	a1,a1,0xb
    800030f8:	4cc58593          	addi	a1,a1,1228
    800030fc:	00a59593          	slli	a1,a1,0xa
    80003100:	33258593          	addi	a1,a1,818
    80003104:	40b50633          	sub	a2,a0,a1
    80003108:	5ec0b423          	sd	a2,1512(ra)
    8000310c:	01111137          	lui	sp,0x1111
    80003110:	1111011b          	addiw	sp,sp,273 # 1111111 <offset+0x1110d19>
    80003114:	00c11113          	slli	sp,sp,0xc
    80003118:	11110113          	addi	sp,sp,273
    8000311c:	00c11113          	slli	sp,sp,0xc
    80003120:	11110113          	addi	sp,sp,273
    80003124:	00d11113          	slli	sp,sp,0xd
    80003128:	22310113          	addi	sp,sp,547
    8000312c:	00c10463          	beq	sp,a2,80003134 <inst_221>
    80003130:	ef5fc06f          	j	80000024 <rvtest_error>

0000000080003134 <inst_221>:
    80003134:	55555537          	lui	a0,0x55555
    80003138:	55550513          	addi	a0,a0,1365 # 55555555 <absimmsh+0x49a847a8>
    8000313c:	00b51513          	slli	a0,a0,0xb
    80003140:	2aa50513          	addi	a0,a0,682
    80003144:	00b51513          	slli	a0,a0,0xb
    80003148:	55550513          	addi	a0,a0,1365
    8000314c:	00a51513          	slli	a0,a0,0xa
    80003150:	15550513          	addi	a0,a0,341
    80003154:	666665b7          	lui	a1,0x66666
    80003158:	66658593          	addi	a1,a1,1638 # 66666666 <absimmsh+0x5ab958b9>
    8000315c:	00b59593          	slli	a1,a1,0xb
    80003160:	33358593          	addi	a1,a1,819
    80003164:	00b59593          	slli	a1,a1,0xb
    80003168:	19958593          	addi	a1,a1,409
    8000316c:	00a59593          	slli	a1,a1,0xa
    80003170:	26558593          	addi	a1,a1,613
    80003174:	40b50633          	sub	a2,a0,a1
    80003178:	5ec0b823          	sd	a2,1520(ra)
    8000317c:	feeef137          	lui	sp,0xfeeef
    80003180:	eef1011b          	addiw	sp,sp,-273 # fffffffffeeeeeef <absimm+0xffffffff441e141f>
    80003184:	00c11113          	slli	sp,sp,0xc
    80003188:	eef10113          	addi	sp,sp,-273
    8000318c:	00c11113          	slli	sp,sp,0xc
    80003190:	eef10113          	addi	sp,sp,-273
    80003194:	00c11113          	slli	sp,sp,0xc
    80003198:	ef010113          	addi	sp,sp,-272
    8000319c:	00c10463          	beq	sp,a2,800031a4 <inst_222>
    800031a0:	e85fc06f          	j	80000024 <rvtest_error>

00000000800031a4 <inst_222>:
    800031a4:	55555537          	lui	a0,0x55555
    800031a8:	55550513          	addi	a0,a0,1365 # 55555555 <absimmsh+0x49a847a8>
    800031ac:	00b51513          	slli	a0,a0,0xb
    800031b0:	2aa50513          	addi	a0,a0,682
    800031b4:	00b51513          	slli	a0,a0,0xb
    800031b8:	55550513          	addi	a0,a0,1365
    800031bc:	00a51513          	slli	a0,a0,0xa
    800031c0:	15550513          	addi	a0,a0,341
    800031c4:	000005b7          	lui	a1,0x0
    800031c8:	00058593          	mv	a1,a1
    800031cc:	00b59593          	slli	a1,a1,0xb
    800031d0:	5a858593          	addi	a1,a1,1448 # 5a8 <offset+0x1b0>
    800031d4:	00b59593          	slli	a1,a1,0xb
    800031d8:	13c58593          	addi	a1,a1,316
    800031dc:	00a59593          	slli	a1,a1,0xa
    800031e0:	33258593          	addi	a1,a1,818
    800031e4:	40b50633          	sub	a2,a0,a1
    800031e8:	5ec0bc23          	sd	a2,1528(ra)
    800031ec:	002ab137          	lui	sp,0x2ab
    800031f0:	aab1011b          	addiw	sp,sp,-1365 # 2aaaab <offset+0x2aa6b3>
    800031f4:	00c11113          	slli	sp,sp,0xc
    800031f8:	aa510113          	addi	sp,sp,-1371
    800031fc:	01011113          	slli	sp,sp,0x10
    80003200:	28310113          	addi	sp,sp,643
    80003204:	00d11113          	slli	sp,sp,0xd
    80003208:	22310113          	addi	sp,sp,547
    8000320c:	00c10463          	beq	sp,a2,80003214 <inst_223>
    80003210:	e15fc06f          	j	80000024 <rvtest_error>

0000000080003214 <inst_223>:
    80003214:	55555537          	lui	a0,0x55555
    80003218:	55550513          	addi	a0,a0,1365 # 55555555 <absimmsh+0x49a847a8>
    8000321c:	00b51513          	slli	a0,a0,0xb
    80003220:	2aa50513          	addi	a0,a0,682
    80003224:	00b51513          	slli	a0,a0,0xb
    80003228:	55550513          	addi	a0,a0,1365
    8000322c:	00a51513          	slli	a0,a0,0xa
    80003230:	15550513          	addi	a0,a0,341
    80003234:	555555b7          	lui	a1,0x55555
    80003238:	55558593          	addi	a1,a1,1365 # 55555555 <absimmsh+0x49a847a8>
    8000323c:	00b59593          	slli	a1,a1,0xb
    80003240:	2aa58593          	addi	a1,a1,682
    80003244:	00b59593          	slli	a1,a1,0xb
    80003248:	55558593          	addi	a1,a1,1365
    8000324c:	00a59593          	slli	a1,a1,0xa
    80003250:	15658593          	addi	a1,a1,342
    80003254:	40b50633          	sub	a2,a0,a1
    80003258:	60c0b023          	sd	a2,1536(ra)
    8000325c:	fff00113          	li	sp,-1
    80003260:	00c10463          	beq	sp,a2,80003268 <inst_224>
    80003264:	dc1fc06f          	j	80000024 <rvtest_error>

0000000080003268 <inst_224>:
    80003268:	55555537          	lui	a0,0x55555
    8000326c:	55550513          	addi	a0,a0,1365 # 55555555 <absimmsh+0x49a847a8>
    80003270:	00b51513          	slli	a0,a0,0xb
    80003274:	2aa50513          	addi	a0,a0,682
    80003278:	00b51513          	slli	a0,a0,0xb
    8000327c:	55550513          	addi	a0,a0,1365
    80003280:	00a51513          	slli	a0,a0,0xa
    80003284:	15550513          	addi	a0,a0,341
    80003288:	aaaab5b7          	lui	a1,0xaaaab
    8000328c:	aaa58593          	addi	a1,a1,-1366 # ffffffffaaaaaaaa <absimm+0xfffffffeefd9cfda>
    80003290:	00b59593          	slli	a1,a1,0xb
    80003294:	55558593          	addi	a1,a1,1365
    80003298:	00b59593          	slli	a1,a1,0xb
    8000329c:	2aa58593          	addi	a1,a1,682
    800032a0:	00a59593          	slli	a1,a1,0xa
    800032a4:	2ab58593          	addi	a1,a1,683
    800032a8:	40b50633          	sub	a2,a0,a1
    800032ac:	60c0b423          	sd	a2,1544(ra)
    800032b0:	faaab137          	lui	sp,0xfaaab
    800032b4:	aab1011b          	addiw	sp,sp,-1365 # fffffffffaaaaaab <absimm+0xffffffff3fd9cfdb>
    800032b8:	00c11113          	slli	sp,sp,0xc
    800032bc:	aab10113          	addi	sp,sp,-1365
    800032c0:	00c11113          	slli	sp,sp,0xc
    800032c4:	aab10113          	addi	sp,sp,-1365
    800032c8:	00c11113          	slli	sp,sp,0xc
    800032cc:	aaa10113          	addi	sp,sp,-1366
    800032d0:	00c10463          	beq	sp,a2,800032d8 <inst_225>
    800032d4:	d51fc06f          	j	80000024 <rvtest_error>

00000000800032d8 <inst_225>:
    800032d8:	55555537          	lui	a0,0x55555
    800032dc:	55550513          	addi	a0,a0,1365 # 55555555 <absimmsh+0x49a847a8>
    800032e0:	00b51513          	slli	a0,a0,0xb
    800032e4:	2aa50513          	addi	a0,a0,682
    800032e8:	00b51513          	slli	a0,a0,0xb
    800032ec:	55550513          	addi	a0,a0,1365
    800032f0:	00a51513          	slli	a0,a0,0xa
    800032f4:	15550513          	addi	a0,a0,341
    800032f8:	00600593          	li	a1,6
    800032fc:	40b50633          	sub	a2,a0,a1
    80003300:	60c0b823          	sd	a2,1552(ra)
    80003304:	05555137          	lui	sp,0x5555
    80003308:	5551011b          	addiw	sp,sp,1365 # 5555555 <offset+0x555515d>
    8000330c:	00c11113          	slli	sp,sp,0xc
    80003310:	55510113          	addi	sp,sp,1365
    80003314:	00c11113          	slli	sp,sp,0xc
    80003318:	55510113          	addi	sp,sp,1365
    8000331c:	00c11113          	slli	sp,sp,0xc
    80003320:	54f10113          	addi	sp,sp,1359
    80003324:	00c10463          	beq	sp,a2,8000332c <inst_226>
    80003328:	cfdfc06f          	j	80000024 <rvtest_error>

000000008000332c <inst_226>:
    8000332c:	55555537          	lui	a0,0x55555
    80003330:	55550513          	addi	a0,a0,1365 # 55555555 <absimmsh+0x49a847a8>
    80003334:	00b51513          	slli	a0,a0,0xb
    80003338:	2aa50513          	addi	a0,a0,682
    8000333c:	00b51513          	slli	a0,a0,0xb
    80003340:	55550513          	addi	a0,a0,1365
    80003344:	00a51513          	slli	a0,a0,0xa
    80003348:	15550513          	addi	a0,a0,341
    8000334c:	333335b7          	lui	a1,0x33333
    80003350:	33358593          	addi	a1,a1,819 # 33333333 <absimmsh+0x27862586>
    80003354:	00b59593          	slli	a1,a1,0xb
    80003358:	19958593          	addi	a1,a1,409
    8000335c:	00b59593          	slli	a1,a1,0xb
    80003360:	4cc58593          	addi	a1,a1,1228
    80003364:	00a59593          	slli	a1,a1,0xa
    80003368:	33458593          	addi	a1,a1,820
    8000336c:	40b50633          	sub	a2,a0,a1
    80003370:	60c0bc23          	sd	a2,1560(ra)
    80003374:	01111137          	lui	sp,0x1111
    80003378:	1111011b          	addiw	sp,sp,273 # 1111111 <offset+0x1110d19>
    8000337c:	00c11113          	slli	sp,sp,0xc
    80003380:	11110113          	addi	sp,sp,273
    80003384:	00c11113          	slli	sp,sp,0xc
    80003388:	11110113          	addi	sp,sp,273
    8000338c:	00d11113          	slli	sp,sp,0xd
    80003390:	22110113          	addi	sp,sp,545
    80003394:	00c10463          	beq	sp,a2,8000339c <inst_227>
    80003398:	c8dfc06f          	j	80000024 <rvtest_error>

000000008000339c <inst_227>:
    8000339c:	55555537          	lui	a0,0x55555
    800033a0:	55550513          	addi	a0,a0,1365 # 55555555 <absimmsh+0x49a847a8>
    800033a4:	00b51513          	slli	a0,a0,0xb
    800033a8:	2aa50513          	addi	a0,a0,682
    800033ac:	00b51513          	slli	a0,a0,0xb
    800033b0:	55550513          	addi	a0,a0,1365
    800033b4:	00a51513          	slli	a0,a0,0xa
    800033b8:	15550513          	addi	a0,a0,341
    800033bc:	666665b7          	lui	a1,0x66666
    800033c0:	66658593          	addi	a1,a1,1638 # 66666666 <absimmsh+0x5ab958b9>
    800033c4:	00b59593          	slli	a1,a1,0xb
    800033c8:	33358593          	addi	a1,a1,819
    800033cc:	00b59593          	slli	a1,a1,0xb
    800033d0:	19958593          	addi	a1,a1,409
    800033d4:	00a59593          	slli	a1,a1,0xa
    800033d8:	26758593          	addi	a1,a1,615
    800033dc:	40b50633          	sub	a2,a0,a1
    800033e0:	62c0b023          	sd	a2,1568(ra)
    800033e4:	feeef137          	lui	sp,0xfeeef
    800033e8:	eef1011b          	addiw	sp,sp,-273 # fffffffffeeeeeef <absimm+0xffffffff441e141f>
    800033ec:	00c11113          	slli	sp,sp,0xc
    800033f0:	eef10113          	addi	sp,sp,-273
    800033f4:	00c11113          	slli	sp,sp,0xc
    800033f8:	eef10113          	addi	sp,sp,-273
    800033fc:	00c11113          	slli	sp,sp,0xc
    80003400:	eee10113          	addi	sp,sp,-274
    80003404:	00c10463          	beq	sp,a2,8000340c <inst_228>
    80003408:	c1dfc06f          	j	80000024 <rvtest_error>

000000008000340c <inst_228>:
    8000340c:	55555537          	lui	a0,0x55555
    80003410:	55550513          	addi	a0,a0,1365 # 55555555 <absimmsh+0x49a847a8>
    80003414:	00b51513          	slli	a0,a0,0xb
    80003418:	2aa50513          	addi	a0,a0,682
    8000341c:	00b51513          	slli	a0,a0,0xb
    80003420:	55550513          	addi	a0,a0,1365
    80003424:	00a51513          	slli	a0,a0,0xa
    80003428:	15550513          	addi	a0,a0,341
    8000342c:	000005b7          	lui	a1,0x0
    80003430:	fff58593          	addi	a1,a1,-1
    80003434:	00b59593          	slli	a1,a1,0xb
    80003438:	25758593          	addi	a1,a1,599
    8000343c:	00b59593          	slli	a1,a1,0xb
    80003440:	6c358593          	addi	a1,a1,1731
    80003444:	00a59593          	slli	a1,a1,0xa
    80003448:	0ce58593          	addi	a1,a1,206
    8000344c:	40b50633          	sub	a2,a0,a1
    80003450:	62c0b423          	sd	a2,1576(ra)
    80003454:	02aab137          	lui	sp,0x2aab
    80003458:	aab1011b          	addiw	sp,sp,-1365 # 2aaaaab <offset+0x2aaa6b3>
    8000345c:	00c11113          	slli	sp,sp,0xc
    80003460:	b0510113          	addi	sp,sp,-1275
    80003464:	00d11113          	slli	sp,sp,0xd
    80003468:	5a510113          	addi	sp,sp,1445
    8000346c:	00c11113          	slli	sp,sp,0xc
    80003470:	88710113          	addi	sp,sp,-1913
    80003474:	00c10463          	beq	sp,a2,8000347c <inst_229>
    80003478:	badfc06f          	j	80000024 <rvtest_error>

000000008000347c <inst_229>:
    8000347c:	55555537          	lui	a0,0x55555
    80003480:	55550513          	addi	a0,a0,1365 # 55555555 <absimmsh+0x49a847a8>
    80003484:	00b51513          	slli	a0,a0,0xb
    80003488:	2aa50513          	addi	a0,a0,682
    8000348c:	00b51513          	slli	a0,a0,0xb
    80003490:	55550513          	addi	a0,a0,1365
    80003494:	00a51513          	slli	a0,a0,0xa
    80003498:	15550513          	addi	a0,a0,341
    8000349c:	000005b7          	lui	a1,0x0
    800034a0:	00058593          	mv	a1,a1
    800034a4:	00b59593          	slli	a1,a1,0xb
    800034a8:	5a858593          	addi	a1,a1,1448 # 5a8 <offset+0x1b0>
    800034ac:	00b59593          	slli	a1,a1,0xb
    800034b0:	13c58593          	addi	a1,a1,316
    800034b4:	00a59593          	slli	a1,a1,0xa
    800034b8:	33458593          	addi	a1,a1,820
    800034bc:	40b50633          	sub	a2,a0,a1
    800034c0:	62c0b823          	sd	a2,1584(ra)
    800034c4:	002ab137          	lui	sp,0x2ab
    800034c8:	aab1011b          	addiw	sp,sp,-1365 # 2aaaab <offset+0x2aa6b3>
    800034cc:	00c11113          	slli	sp,sp,0xc
    800034d0:	aa510113          	addi	sp,sp,-1371
    800034d4:	01011113          	slli	sp,sp,0x10
    800034d8:	28310113          	addi	sp,sp,643
    800034dc:	00d11113          	slli	sp,sp,0xd
    800034e0:	22110113          	addi	sp,sp,545
    800034e4:	00c10463          	beq	sp,a2,800034ec <inst_230>
    800034e8:	b3dfc06f          	j	80000024 <rvtest_error>

00000000800034ec <inst_230>:
    800034ec:	aaaab537          	lui	a0,0xaaaab
    800034f0:	aaa50513          	addi	a0,a0,-1366 # ffffffffaaaaaaaa <absimm+0xfffffffeefd9cfda>
    800034f4:	00b51513          	slli	a0,a0,0xb
    800034f8:	55550513          	addi	a0,a0,1365
    800034fc:	00b51513          	slli	a0,a0,0xb
    80003500:	2aa50513          	addi	a0,a0,682
    80003504:	00a51513          	slli	a0,a0,0xa
    80003508:	2aa50513          	addi	a0,a0,682
    8000350c:	00300593          	li	a1,3
    80003510:	40b50633          	sub	a2,a0,a1
    80003514:	62c0bc23          	sd	a2,1592(ra)
    80003518:	faaab137          	lui	sp,0xfaaab
    8000351c:	aab1011b          	addiw	sp,sp,-1365 # fffffffffaaaaaab <absimm+0xffffffff3fd9cfdb>
    80003520:	00c11113          	slli	sp,sp,0xc
    80003524:	aab10113          	addi	sp,sp,-1365
    80003528:	00c11113          	slli	sp,sp,0xc
    8000352c:	aab10113          	addi	sp,sp,-1365
    80003530:	00c11113          	slli	sp,sp,0xc
    80003534:	aa710113          	addi	sp,sp,-1369
    80003538:	00c10463          	beq	sp,a2,80003540 <inst_231>
    8000353c:	ae9fc06f          	j	80000024 <rvtest_error>

0000000080003540 <inst_231>:
    80003540:	aaaab537          	lui	a0,0xaaaab
    80003544:	aaa50513          	addi	a0,a0,-1366 # ffffffffaaaaaaaa <absimm+0xfffffffeefd9cfda>
    80003548:	00b51513          	slli	a0,a0,0xb
    8000354c:	55550513          	addi	a0,a0,1365
    80003550:	00b51513          	slli	a0,a0,0xb
    80003554:	2aa50513          	addi	a0,a0,682
    80003558:	00a51513          	slli	a0,a0,0xa
    8000355c:	2aa50513          	addi	a0,a0,682
    80003560:	555555b7          	lui	a1,0x55555
    80003564:	55558593          	addi	a1,a1,1365 # 55555555 <absimmsh+0x49a847a8>
    80003568:	00b59593          	slli	a1,a1,0xb
    8000356c:	2aa58593          	addi	a1,a1,682
    80003570:	00b59593          	slli	a1,a1,0xb
    80003574:	55558593          	addi	a1,a1,1365
    80003578:	00a59593          	slli	a1,a1,0xa
    8000357c:	15558593          	addi	a1,a1,341
    80003580:	40b50633          	sub	a2,a0,a1
    80003584:	64c0b023          	sd	a2,1600(ra)
    80003588:	05555137          	lui	sp,0x5555
    8000358c:	5551011b          	addiw	sp,sp,1365 # 5555555 <offset+0x555515d>
    80003590:	00c11113          	slli	sp,sp,0xc
    80003594:	55510113          	addi	sp,sp,1365
    80003598:	00c11113          	slli	sp,sp,0xc
    8000359c:	55510113          	addi	sp,sp,1365
    800035a0:	00c11113          	slli	sp,sp,0xc
    800035a4:	55510113          	addi	sp,sp,1365
    800035a8:	00c10463          	beq	sp,a2,800035b0 <inst_232>
    800035ac:	a79fc06f          	j	80000024 <rvtest_error>

00000000800035b0 <inst_232>:
    800035b0:	aaaab537          	lui	a0,0xaaaab
    800035b4:	aaa50513          	addi	a0,a0,-1366 # ffffffffaaaaaaaa <absimm+0xfffffffeefd9cfda>
    800035b8:	00b51513          	slli	a0,a0,0xb
    800035bc:	55550513          	addi	a0,a0,1365
    800035c0:	00b51513          	slli	a0,a0,0xb
    800035c4:	2aa50513          	addi	a0,a0,682
    800035c8:	00a51513          	slli	a0,a0,0xa
    800035cc:	2aa50513          	addi	a0,a0,682
    800035d0:	aaaab5b7          	lui	a1,0xaaaab
    800035d4:	aaa58593          	addi	a1,a1,-1366 # ffffffffaaaaaaaa <absimm+0xfffffffeefd9cfda>
    800035d8:	00b59593          	slli	a1,a1,0xb
    800035dc:	55558593          	addi	a1,a1,1365
    800035e0:	00b59593          	slli	a1,a1,0xb
    800035e4:	2aa58593          	addi	a1,a1,682
    800035e8:	00a59593          	slli	a1,a1,0xa
    800035ec:	2aa58593          	addi	a1,a1,682
    800035f0:	40b50633          	sub	a2,a0,a1
    800035f4:	64c0b423          	sd	a2,1608(ra)
    800035f8:	00000113          	li	sp,0
    800035fc:	00c10463          	beq	sp,a2,80003604 <inst_233>
    80003600:	a25fc06f          	j	80000024 <rvtest_error>

0000000080003604 <inst_233>:
    80003604:	aaaab537          	lui	a0,0xaaaab
    80003608:	aaa50513          	addi	a0,a0,-1366 # ffffffffaaaaaaaa <absimm+0xfffffffeefd9cfda>
    8000360c:	00b51513          	slli	a0,a0,0xb
    80003610:	55550513          	addi	a0,a0,1365
    80003614:	00b51513          	slli	a0,a0,0xb
    80003618:	2aa50513          	addi	a0,a0,682
    8000361c:	00a51513          	slli	a0,a0,0xa
    80003620:	2aa50513          	addi	a0,a0,682
    80003624:	00500593          	li	a1,5
    80003628:	40b50633          	sub	a2,a0,a1
    8000362c:	64c0b823          	sd	a2,1616(ra)
    80003630:	faaab137          	lui	sp,0xfaaab
    80003634:	aab1011b          	addiw	sp,sp,-1365 # fffffffffaaaaaab <absimm+0xffffffff3fd9cfdb>
    80003638:	00c11113          	slli	sp,sp,0xc
    8000363c:	aab10113          	addi	sp,sp,-1365
    80003640:	00c11113          	slli	sp,sp,0xc
    80003644:	aab10113          	addi	sp,sp,-1365
    80003648:	00c11113          	slli	sp,sp,0xc
    8000364c:	aa510113          	addi	sp,sp,-1371
    80003650:	00c10463          	beq	sp,a2,80003658 <inst_234>
    80003654:	9d1fc06f          	j	80000024 <rvtest_error>

0000000080003658 <inst_234>:
    80003658:	aaaab537          	lui	a0,0xaaaab
    8000365c:	aaa50513          	addi	a0,a0,-1366 # ffffffffaaaaaaaa <absimm+0xfffffffeefd9cfda>
    80003660:	00b51513          	slli	a0,a0,0xb
    80003664:	55550513          	addi	a0,a0,1365
    80003668:	00b51513          	slli	a0,a0,0xb
    8000366c:	2aa50513          	addi	a0,a0,682
    80003670:	00a51513          	slli	a0,a0,0xa
    80003674:	2aa50513          	addi	a0,a0,682
    80003678:	333335b7          	lui	a1,0x33333
    8000367c:	33358593          	addi	a1,a1,819 # 33333333 <absimmsh+0x27862586>
    80003680:	00b59593          	slli	a1,a1,0xb
    80003684:	19958593          	addi	a1,a1,409
    80003688:	00b59593          	slli	a1,a1,0xb
    8000368c:	4cc58593          	addi	a1,a1,1228
    80003690:	00a59593          	slli	a1,a1,0xa
    80003694:	33358593          	addi	a1,a1,819
    80003698:	40b50633          	sub	a2,a0,a1
    8000369c:	64c0bc23          	sd	a2,1624(ra)
    800036a0:	07777137          	lui	sp,0x7777
    800036a4:	7771011b          	addiw	sp,sp,1911 # 7777777 <offset+0x777737f>
    800036a8:	00c11113          	slli	sp,sp,0xc
    800036ac:	77710113          	addi	sp,sp,1911
    800036b0:	00c11113          	slli	sp,sp,0xc
    800036b4:	77710113          	addi	sp,sp,1911
    800036b8:	00c11113          	slli	sp,sp,0xc
    800036bc:	77710113          	addi	sp,sp,1911
    800036c0:	00c10463          	beq	sp,a2,800036c8 <inst_235>
    800036c4:	961fc06f          	j	80000024 <rvtest_error>

00000000800036c8 <inst_235>:
    800036c8:	aaaab537          	lui	a0,0xaaaab
    800036cc:	aaa50513          	addi	a0,a0,-1366 # ffffffffaaaaaaaa <absimm+0xfffffffeefd9cfda>
    800036d0:	00b51513          	slli	a0,a0,0xb
    800036d4:	55550513          	addi	a0,a0,1365
    800036d8:	00b51513          	slli	a0,a0,0xb
    800036dc:	2aa50513          	addi	a0,a0,682
    800036e0:	00a51513          	slli	a0,a0,0xa
    800036e4:	2aa50513          	addi	a0,a0,682
    800036e8:	666665b7          	lui	a1,0x66666
    800036ec:	66658593          	addi	a1,a1,1638 # 66666666 <absimmsh+0x5ab958b9>
    800036f0:	00b59593          	slli	a1,a1,0xb
    800036f4:	33358593          	addi	a1,a1,819
    800036f8:	00b59593          	slli	a1,a1,0xb
    800036fc:	19958593          	addi	a1,a1,409
    80003700:	00a59593          	slli	a1,a1,0xa
    80003704:	26658593          	addi	a1,a1,614
    80003708:	40b50633          	sub	a2,a0,a1
    8000370c:	66c0b023          	sd	a2,1632(ra)
    80003710:	01111137          	lui	sp,0x1111
    80003714:	1111011b          	addiw	sp,sp,273 # 1111111 <offset+0x1110d19>
    80003718:	00c11113          	slli	sp,sp,0xc
    8000371c:	11110113          	addi	sp,sp,273
    80003720:	00c11113          	slli	sp,sp,0xc
    80003724:	11110113          	addi	sp,sp,273
    80003728:	00e11113          	slli	sp,sp,0xe
    8000372c:	44410113          	addi	sp,sp,1092
    80003730:	00c10463          	beq	sp,a2,80003738 <inst_236>
    80003734:	8f1fc06f          	j	80000024 <rvtest_error>

0000000080003738 <inst_236>:
    80003738:	aaaab537          	lui	a0,0xaaaab
    8000373c:	aaa50513          	addi	a0,a0,-1366 # ffffffffaaaaaaaa <absimm+0xfffffffeefd9cfda>
    80003740:	00b51513          	slli	a0,a0,0xb
    80003744:	55550513          	addi	a0,a0,1365
    80003748:	00b51513          	slli	a0,a0,0xb
    8000374c:	2aa50513          	addi	a0,a0,682
    80003750:	00a51513          	slli	a0,a0,0xa
    80003754:	2aa50513          	addi	a0,a0,682
    80003758:	000005b7          	lui	a1,0x0
    8000375c:	fff58593          	addi	a1,a1,-1
    80003760:	00b59593          	slli	a1,a1,0xb
    80003764:	25758593          	addi	a1,a1,599
    80003768:	00b59593          	slli	a1,a1,0xb
    8000376c:	6c358593          	addi	a1,a1,1731
    80003770:	00a59593          	slli	a1,a1,0xa
    80003774:	0cd58593          	addi	a1,a1,205
    80003778:	40b50633          	sub	a2,a0,a1
    8000377c:	66c0b423          	sd	a2,1640(ra)
    80003780:	ffd55137          	lui	sp,0xffd55
    80003784:	5551011b          	addiw	sp,sp,1365 # ffffffffffd55555 <absimm+0xffffffff45047a85>
    80003788:	00c11113          	slli	sp,sp,0xc
    8000378c:	55b10113          	addi	sp,sp,1371
    80003790:	01011113          	slli	sp,sp,0x10
    80003794:	d7d10113          	addi	sp,sp,-643
    80003798:	00d11113          	slli	sp,sp,0xd
    8000379c:	ddd10113          	addi	sp,sp,-547
    800037a0:	00c10463          	beq	sp,a2,800037a8 <inst_237>
    800037a4:	881fc06f          	j	80000024 <rvtest_error>

00000000800037a8 <inst_237>:
    800037a8:	aaaab537          	lui	a0,0xaaaab
    800037ac:	aaa50513          	addi	a0,a0,-1366 # ffffffffaaaaaaaa <absimm+0xfffffffeefd9cfda>
    800037b0:	00b51513          	slli	a0,a0,0xb
    800037b4:	55550513          	addi	a0,a0,1365
    800037b8:	00b51513          	slli	a0,a0,0xb
    800037bc:	2aa50513          	addi	a0,a0,682
    800037c0:	00a51513          	slli	a0,a0,0xa
    800037c4:	2aa50513          	addi	a0,a0,682
    800037c8:	000005b7          	lui	a1,0x0
    800037cc:	00058593          	mv	a1,a1
    800037d0:	00b59593          	slli	a1,a1,0xb
    800037d4:	5a858593          	addi	a1,a1,1448 # 5a8 <offset+0x1b0>
    800037d8:	00b59593          	slli	a1,a1,0xb
    800037dc:	13c58593          	addi	a1,a1,316
    800037e0:	00a59593          	slli	a1,a1,0xa
    800037e4:	33358593          	addi	a1,a1,819
    800037e8:	40b50633          	sub	a2,a0,a1
    800037ec:	66c0b823          	sd	a2,1648(ra)
    800037f0:	fd555137          	lui	sp,0xfd555
    800037f4:	5551011b          	addiw	sp,sp,1365 # fffffffffd555555 <absimm+0xffffffff42847a85>
    800037f8:	00c11113          	slli	sp,sp,0xc
    800037fc:	4fb10113          	addi	sp,sp,1275
    80003800:	00d11113          	slli	sp,sp,0xd
    80003804:	a5b10113          	addi	sp,sp,-1445
    80003808:	00c11113          	slli	sp,sp,0xc
    8000380c:	77710113          	addi	sp,sp,1911
    80003810:	00c10463          	beq	sp,a2,80003818 <inst_238>
    80003814:	811fc06f          	j	80000024 <rvtest_error>

0000000080003818 <inst_238>:
    80003818:	aaaab537          	lui	a0,0xaaaab
    8000381c:	aaa50513          	addi	a0,a0,-1366 # ffffffffaaaaaaaa <absimm+0xfffffffeefd9cfda>
    80003820:	00b51513          	slli	a0,a0,0xb
    80003824:	55550513          	addi	a0,a0,1365
    80003828:	00b51513          	slli	a0,a0,0xb
    8000382c:	2aa50513          	addi	a0,a0,682
    80003830:	00a51513          	slli	a0,a0,0xa
    80003834:	2aa50513          	addi	a0,a0,682
    80003838:	00200593          	li	a1,2
    8000383c:	40b50633          	sub	a2,a0,a1
    80003840:	66c0bc23          	sd	a2,1656(ra)
    80003844:	faaab137          	lui	sp,0xfaaab
    80003848:	aab1011b          	addiw	sp,sp,-1365 # fffffffffaaaaaab <absimm+0xffffffff3fd9cfdb>
    8000384c:	00c11113          	slli	sp,sp,0xc
    80003850:	aab10113          	addi	sp,sp,-1365
    80003854:	00c11113          	slli	sp,sp,0xc
    80003858:	aab10113          	addi	sp,sp,-1365
    8000385c:	00c11113          	slli	sp,sp,0xc
    80003860:	aa810113          	addi	sp,sp,-1368
    80003864:	00c10463          	beq	sp,a2,8000386c <inst_239>
    80003868:	fbcfc06f          	j	80000024 <rvtest_error>

000000008000386c <inst_239>:
    8000386c:	aaaab537          	lui	a0,0xaaaab
    80003870:	aaa50513          	addi	a0,a0,-1366 # ffffffffaaaaaaaa <absimm+0xfffffffeefd9cfda>
    80003874:	00b51513          	slli	a0,a0,0xb
    80003878:	55550513          	addi	a0,a0,1365
    8000387c:	00b51513          	slli	a0,a0,0xb
    80003880:	2aa50513          	addi	a0,a0,682
    80003884:	00a51513          	slli	a0,a0,0xa
    80003888:	2aa50513          	addi	a0,a0,682
    8000388c:	555555b7          	lui	a1,0x55555
    80003890:	55558593          	addi	a1,a1,1365 # 55555555 <absimmsh+0x49a847a8>
    80003894:	00b59593          	slli	a1,a1,0xb
    80003898:	2aa58593          	addi	a1,a1,682
    8000389c:	00b59593          	slli	a1,a1,0xb
    800038a0:	55558593          	addi	a1,a1,1365
    800038a4:	00a59593          	slli	a1,a1,0xa
    800038a8:	15458593          	addi	a1,a1,340
    800038ac:	40b50633          	sub	a2,a0,a1
    800038b0:	68c0b023          	sd	a2,1664(ra)
    800038b4:	05555137          	lui	sp,0x5555
    800038b8:	5551011b          	addiw	sp,sp,1365 # 5555555 <offset+0x555515d>
    800038bc:	00c11113          	slli	sp,sp,0xc
    800038c0:	55510113          	addi	sp,sp,1365
    800038c4:	00c11113          	slli	sp,sp,0xc
    800038c8:	55510113          	addi	sp,sp,1365
    800038cc:	00c11113          	slli	sp,sp,0xc
    800038d0:	55610113          	addi	sp,sp,1366
    800038d4:	00c10463          	beq	sp,a2,800038dc <inst_240>
    800038d8:	f4cfc06f          	j	80000024 <rvtest_error>

00000000800038dc <inst_240>:
    800038dc:	aaaab537          	lui	a0,0xaaaab
    800038e0:	aaa50513          	addi	a0,a0,-1366 # ffffffffaaaaaaaa <absimm+0xfffffffeefd9cfda>
    800038e4:	00b51513          	slli	a0,a0,0xb
    800038e8:	55550513          	addi	a0,a0,1365
    800038ec:	00b51513          	slli	a0,a0,0xb
    800038f0:	2aa50513          	addi	a0,a0,682
    800038f4:	00a51513          	slli	a0,a0,0xa
    800038f8:	2aa50513          	addi	a0,a0,682
    800038fc:	00400593          	li	a1,4
    80003900:	40b50633          	sub	a2,a0,a1
    80003904:	68c0b423          	sd	a2,1672(ra)
    80003908:	faaab137          	lui	sp,0xfaaab
    8000390c:	aab1011b          	addiw	sp,sp,-1365 # fffffffffaaaaaab <absimm+0xffffffff3fd9cfdb>
    80003910:	00c11113          	slli	sp,sp,0xc
    80003914:	aab10113          	addi	sp,sp,-1365
    80003918:	00c11113          	slli	sp,sp,0xc
    8000391c:	aab10113          	addi	sp,sp,-1365
    80003920:	00c11113          	slli	sp,sp,0xc
    80003924:	aa610113          	addi	sp,sp,-1370
    80003928:	00c10463          	beq	sp,a2,80003930 <inst_241>
    8000392c:	ef8fc06f          	j	80000024 <rvtest_error>

0000000080003930 <inst_241>:
    80003930:	aaaab537          	lui	a0,0xaaaab
    80003934:	aaa50513          	addi	a0,a0,-1366 # ffffffffaaaaaaaa <absimm+0xfffffffeefd9cfda>
    80003938:	00b51513          	slli	a0,a0,0xb
    8000393c:	55550513          	addi	a0,a0,1365
    80003940:	00b51513          	slli	a0,a0,0xb
    80003944:	2aa50513          	addi	a0,a0,682
    80003948:	00a51513          	slli	a0,a0,0xa
    8000394c:	2aa50513          	addi	a0,a0,682
    80003950:	333335b7          	lui	a1,0x33333
    80003954:	33358593          	addi	a1,a1,819 # 33333333 <absimmsh+0x27862586>
    80003958:	00b59593          	slli	a1,a1,0xb
    8000395c:	19958593          	addi	a1,a1,409
    80003960:	00b59593          	slli	a1,a1,0xb
    80003964:	4cc58593          	addi	a1,a1,1228
    80003968:	00a59593          	slli	a1,a1,0xa
    8000396c:	33258593          	addi	a1,a1,818
    80003970:	40b50633          	sub	a2,a0,a1
    80003974:	68c0b823          	sd	a2,1680(ra)
    80003978:	07777137          	lui	sp,0x7777
    8000397c:	7771011b          	addiw	sp,sp,1911 # 7777777 <offset+0x777737f>
    80003980:	00c11113          	slli	sp,sp,0xc
    80003984:	77710113          	addi	sp,sp,1911
    80003988:	00c11113          	slli	sp,sp,0xc
    8000398c:	77710113          	addi	sp,sp,1911
    80003990:	00c11113          	slli	sp,sp,0xc
    80003994:	77810113          	addi	sp,sp,1912
    80003998:	00c10463          	beq	sp,a2,800039a0 <inst_242>
    8000399c:	e88fc06f          	j	80000024 <rvtest_error>

00000000800039a0 <inst_242>:
    800039a0:	aaaab537          	lui	a0,0xaaaab
    800039a4:	aaa50513          	addi	a0,a0,-1366 # ffffffffaaaaaaaa <absimm+0xfffffffeefd9cfda>
    800039a8:	00b51513          	slli	a0,a0,0xb
    800039ac:	55550513          	addi	a0,a0,1365
    800039b0:	00b51513          	slli	a0,a0,0xb
    800039b4:	2aa50513          	addi	a0,a0,682
    800039b8:	00a51513          	slli	a0,a0,0xa
    800039bc:	2aa50513          	addi	a0,a0,682
    800039c0:	666665b7          	lui	a1,0x66666
    800039c4:	66658593          	addi	a1,a1,1638 # 66666666 <absimmsh+0x5ab958b9>
    800039c8:	00b59593          	slli	a1,a1,0xb
    800039cc:	33358593          	addi	a1,a1,819
    800039d0:	00b59593          	slli	a1,a1,0xb
    800039d4:	19958593          	addi	a1,a1,409
    800039d8:	00a59593          	slli	a1,a1,0xa
    800039dc:	26558593          	addi	a1,a1,613
    800039e0:	40b50633          	sub	a2,a0,a1
    800039e4:	68c0bc23          	sd	a2,1688(ra)
    800039e8:	01111137          	lui	sp,0x1111
    800039ec:	1111011b          	addiw	sp,sp,273 # 1111111 <offset+0x1110d19>
    800039f0:	00c11113          	slli	sp,sp,0xc
    800039f4:	11110113          	addi	sp,sp,273
    800039f8:	00c11113          	slli	sp,sp,0xc
    800039fc:	11110113          	addi	sp,sp,273
    80003a00:	00e11113          	slli	sp,sp,0xe
    80003a04:	44510113          	addi	sp,sp,1093
    80003a08:	00c10463          	beq	sp,a2,80003a10 <inst_243>
    80003a0c:	e18fc06f          	j	80000024 <rvtest_error>

0000000080003a10 <inst_243>:
    80003a10:	aaaab537          	lui	a0,0xaaaab
    80003a14:	aaa50513          	addi	a0,a0,-1366 # ffffffffaaaaaaaa <absimm+0xfffffffeefd9cfda>
    80003a18:	00b51513          	slli	a0,a0,0xb
    80003a1c:	55550513          	addi	a0,a0,1365
    80003a20:	00b51513          	slli	a0,a0,0xb
    80003a24:	2aa50513          	addi	a0,a0,682
    80003a28:	00a51513          	slli	a0,a0,0xa
    80003a2c:	2aa50513          	addi	a0,a0,682
    80003a30:	000005b7          	lui	a1,0x0
    80003a34:	00058593          	mv	a1,a1
    80003a38:	00b59593          	slli	a1,a1,0xb
    80003a3c:	5a858593          	addi	a1,a1,1448 # 5a8 <offset+0x1b0>
    80003a40:	00b59593          	slli	a1,a1,0xb
    80003a44:	13c58593          	addi	a1,a1,316
    80003a48:	00a59593          	slli	a1,a1,0xa
    80003a4c:	33258593          	addi	a1,a1,818
    80003a50:	40b50633          	sub	a2,a0,a1
    80003a54:	6ac0b023          	sd	a2,1696(ra)
    80003a58:	fd555137          	lui	sp,0xfd555
    80003a5c:	5551011b          	addiw	sp,sp,1365 # fffffffffd555555 <absimm+0xffffffff42847a85>
    80003a60:	00c11113          	slli	sp,sp,0xc
    80003a64:	4fb10113          	addi	sp,sp,1275
    80003a68:	00d11113          	slli	sp,sp,0xd
    80003a6c:	a5b10113          	addi	sp,sp,-1445
    80003a70:	00c11113          	slli	sp,sp,0xc
    80003a74:	77810113          	addi	sp,sp,1912
    80003a78:	00c10463          	beq	sp,a2,80003a80 <inst_244>
    80003a7c:	da8fc06f          	j	80000024 <rvtest_error>

0000000080003a80 <inst_244>:
    80003a80:	aaaab537          	lui	a0,0xaaaab
    80003a84:	aaa50513          	addi	a0,a0,-1366 # ffffffffaaaaaaaa <absimm+0xfffffffeefd9cfda>
    80003a88:	00b51513          	slli	a0,a0,0xb
    80003a8c:	55550513          	addi	a0,a0,1365
    80003a90:	00b51513          	slli	a0,a0,0xb
    80003a94:	2aa50513          	addi	a0,a0,682
    80003a98:	00a51513          	slli	a0,a0,0xa
    80003a9c:	2aa50513          	addi	a0,a0,682
    80003aa0:	555555b7          	lui	a1,0x55555
    80003aa4:	55558593          	addi	a1,a1,1365 # 55555555 <absimmsh+0x49a847a8>
    80003aa8:	00b59593          	slli	a1,a1,0xb
    80003aac:	2aa58593          	addi	a1,a1,682
    80003ab0:	00b59593          	slli	a1,a1,0xb
    80003ab4:	55558593          	addi	a1,a1,1365
    80003ab8:	00a59593          	slli	a1,a1,0xa
    80003abc:	15658593          	addi	a1,a1,342
    80003ac0:	40b50633          	sub	a2,a0,a1
    80003ac4:	6ac0b423          	sd	a2,1704(ra)
    80003ac8:	05555137          	lui	sp,0x5555
    80003acc:	5551011b          	addiw	sp,sp,1365 # 5555555 <offset+0x555515d>
    80003ad0:	00c11113          	slli	sp,sp,0xc
    80003ad4:	55510113          	addi	sp,sp,1365
    80003ad8:	00c11113          	slli	sp,sp,0xc
    80003adc:	55510113          	addi	sp,sp,1365
    80003ae0:	00c11113          	slli	sp,sp,0xc
    80003ae4:	55410113          	addi	sp,sp,1364
    80003ae8:	00c10463          	beq	sp,a2,80003af0 <inst_245>
    80003aec:	d38fc06f          	j	80000024 <rvtest_error>

0000000080003af0 <inst_245>:
    80003af0:	aaaab537          	lui	a0,0xaaaab
    80003af4:	aaa50513          	addi	a0,a0,-1366 # ffffffffaaaaaaaa <absimm+0xfffffffeefd9cfda>
    80003af8:	00b51513          	slli	a0,a0,0xb
    80003afc:	55550513          	addi	a0,a0,1365
    80003b00:	00b51513          	slli	a0,a0,0xb
    80003b04:	2aa50513          	addi	a0,a0,682
    80003b08:	00a51513          	slli	a0,a0,0xa
    80003b0c:	2aa50513          	addi	a0,a0,682
    80003b10:	aaaab5b7          	lui	a1,0xaaaab
    80003b14:	aaa58593          	addi	a1,a1,-1366 # ffffffffaaaaaaaa <absimm+0xfffffffeefd9cfda>
    80003b18:	00b59593          	slli	a1,a1,0xb
    80003b1c:	55558593          	addi	a1,a1,1365
    80003b20:	00b59593          	slli	a1,a1,0xb
    80003b24:	2aa58593          	addi	a1,a1,682
    80003b28:	00a59593          	slli	a1,a1,0xa
    80003b2c:	2ab58593          	addi	a1,a1,683
    80003b30:	40b50633          	sub	a2,a0,a1
    80003b34:	6ac0b823          	sd	a2,1712(ra)
    80003b38:	fff00113          	li	sp,-1
    80003b3c:	00c10463          	beq	sp,a2,80003b44 <inst_246>
    80003b40:	ce4fc06f          	j	80000024 <rvtest_error>

0000000080003b44 <inst_246>:
    80003b44:	aaaab537          	lui	a0,0xaaaab
    80003b48:	aaa50513          	addi	a0,a0,-1366 # ffffffffaaaaaaaa <absimm+0xfffffffeefd9cfda>
    80003b4c:	00b51513          	slli	a0,a0,0xb
    80003b50:	55550513          	addi	a0,a0,1365
    80003b54:	00b51513          	slli	a0,a0,0xb
    80003b58:	2aa50513          	addi	a0,a0,682
    80003b5c:	00a51513          	slli	a0,a0,0xa
    80003b60:	2aa50513          	addi	a0,a0,682
    80003b64:	00600593          	li	a1,6
    80003b68:	40b50633          	sub	a2,a0,a1
    80003b6c:	6ac0bc23          	sd	a2,1720(ra)
    80003b70:	faaab137          	lui	sp,0xfaaab
    80003b74:	aab1011b          	addiw	sp,sp,-1365 # fffffffffaaaaaab <absimm+0xffffffff3fd9cfdb>
    80003b78:	00c11113          	slli	sp,sp,0xc
    80003b7c:	aab10113          	addi	sp,sp,-1365
    80003b80:	00c11113          	slli	sp,sp,0xc
    80003b84:	aab10113          	addi	sp,sp,-1365
    80003b88:	00c11113          	slli	sp,sp,0xc
    80003b8c:	aa410113          	addi	sp,sp,-1372
    80003b90:	00c10463          	beq	sp,a2,80003b98 <inst_247>
    80003b94:	c90fc06f          	j	80000024 <rvtest_error>

0000000080003b98 <inst_247>:
    80003b98:	aaaab537          	lui	a0,0xaaaab
    80003b9c:	aaa50513          	addi	a0,a0,-1366 # ffffffffaaaaaaaa <absimm+0xfffffffeefd9cfda>
    80003ba0:	00b51513          	slli	a0,a0,0xb
    80003ba4:	55550513          	addi	a0,a0,1365
    80003ba8:	00b51513          	slli	a0,a0,0xb
    80003bac:	2aa50513          	addi	a0,a0,682
    80003bb0:	00a51513          	slli	a0,a0,0xa
    80003bb4:	2aa50513          	addi	a0,a0,682
    80003bb8:	333335b7          	lui	a1,0x33333
    80003bbc:	33358593          	addi	a1,a1,819 # 33333333 <absimmsh+0x27862586>
    80003bc0:	00b59593          	slli	a1,a1,0xb
    80003bc4:	19958593          	addi	a1,a1,409
    80003bc8:	00b59593          	slli	a1,a1,0xb
    80003bcc:	4cc58593          	addi	a1,a1,1228
    80003bd0:	00a59593          	slli	a1,a1,0xa
    80003bd4:	33458593          	addi	a1,a1,820
    80003bd8:	40b50633          	sub	a2,a0,a1
    80003bdc:	6cc0b023          	sd	a2,1728(ra)
    80003be0:	07777137          	lui	sp,0x7777
    80003be4:	7771011b          	addiw	sp,sp,1911 # 7777777 <offset+0x777737f>
    80003be8:	00c11113          	slli	sp,sp,0xc
    80003bec:	77710113          	addi	sp,sp,1911
    80003bf0:	00c11113          	slli	sp,sp,0xc
    80003bf4:	77710113          	addi	sp,sp,1911
    80003bf8:	00c11113          	slli	sp,sp,0xc
    80003bfc:	77610113          	addi	sp,sp,1910
    80003c00:	00c10463          	beq	sp,a2,80003c08 <inst_248>
    80003c04:	c20fc06f          	j	80000024 <rvtest_error>

0000000080003c08 <inst_248>:
    80003c08:	aaaab537          	lui	a0,0xaaaab
    80003c0c:	aaa50513          	addi	a0,a0,-1366 # ffffffffaaaaaaaa <absimm+0xfffffffeefd9cfda>
    80003c10:	00b51513          	slli	a0,a0,0xb
    80003c14:	55550513          	addi	a0,a0,1365
    80003c18:	00b51513          	slli	a0,a0,0xb
    80003c1c:	2aa50513          	addi	a0,a0,682
    80003c20:	00a51513          	slli	a0,a0,0xa
    80003c24:	2aa50513          	addi	a0,a0,682
    80003c28:	666665b7          	lui	a1,0x66666
    80003c2c:	66658593          	addi	a1,a1,1638 # 66666666 <absimmsh+0x5ab958b9>
    80003c30:	00b59593          	slli	a1,a1,0xb
    80003c34:	33358593          	addi	a1,a1,819
    80003c38:	00b59593          	slli	a1,a1,0xb
    80003c3c:	19958593          	addi	a1,a1,409
    80003c40:	00a59593          	slli	a1,a1,0xa
    80003c44:	26758593          	addi	a1,a1,615
    80003c48:	40b50633          	sub	a2,a0,a1
    80003c4c:	6cc0b423          	sd	a2,1736(ra)
    80003c50:	01111137          	lui	sp,0x1111
    80003c54:	1111011b          	addiw	sp,sp,273 # 1111111 <offset+0x1110d19>
    80003c58:	00c11113          	slli	sp,sp,0xc
    80003c5c:	11110113          	addi	sp,sp,273
    80003c60:	00c11113          	slli	sp,sp,0xc
    80003c64:	11110113          	addi	sp,sp,273
    80003c68:	00e11113          	slli	sp,sp,0xe
    80003c6c:	44310113          	addi	sp,sp,1091
    80003c70:	00c10463          	beq	sp,a2,80003c78 <inst_249>
    80003c74:	bb0fc06f          	j	80000024 <rvtest_error>

0000000080003c78 <inst_249>:
    80003c78:	aaaab537          	lui	a0,0xaaaab
    80003c7c:	aaa50513          	addi	a0,a0,-1366 # ffffffffaaaaaaaa <absimm+0xfffffffeefd9cfda>
    80003c80:	00b51513          	slli	a0,a0,0xb
    80003c84:	55550513          	addi	a0,a0,1365
    80003c88:	00b51513          	slli	a0,a0,0xb
    80003c8c:	2aa50513          	addi	a0,a0,682
    80003c90:	00a51513          	slli	a0,a0,0xa
    80003c94:	2aa50513          	addi	a0,a0,682
    80003c98:	000005b7          	lui	a1,0x0
    80003c9c:	fff58593          	addi	a1,a1,-1
    80003ca0:	00b59593          	slli	a1,a1,0xb
    80003ca4:	25758593          	addi	a1,a1,599
    80003ca8:	00b59593          	slli	a1,a1,0xb
    80003cac:	6c358593          	addi	a1,a1,1731
    80003cb0:	00a59593          	slli	a1,a1,0xa
    80003cb4:	0ce58593          	addi	a1,a1,206
    80003cb8:	40b50633          	sub	a2,a0,a1
    80003cbc:	6cc0b823          	sd	a2,1744(ra)
    80003cc0:	ffd55137          	lui	sp,0xffd55
    80003cc4:	5551011b          	addiw	sp,sp,1365 # ffffffffffd55555 <absimm+0xffffffff45047a85>
    80003cc8:	00c11113          	slli	sp,sp,0xc
    80003ccc:	55b10113          	addi	sp,sp,1371
    80003cd0:	01011113          	slli	sp,sp,0x10
    80003cd4:	d7d10113          	addi	sp,sp,-643
    80003cd8:	00d11113          	slli	sp,sp,0xd
    80003cdc:	ddc10113          	addi	sp,sp,-548
    80003ce0:	00c10463          	beq	sp,a2,80003ce8 <inst_250>
    80003ce4:	b40fc06f          	j	80000024 <rvtest_error>

0000000080003ce8 <inst_250>:
    80003ce8:	aaaab537          	lui	a0,0xaaaab
    80003cec:	aaa50513          	addi	a0,a0,-1366 # ffffffffaaaaaaaa <absimm+0xfffffffeefd9cfda>
    80003cf0:	00b51513          	slli	a0,a0,0xb
    80003cf4:	55550513          	addi	a0,a0,1365
    80003cf8:	00b51513          	slli	a0,a0,0xb
    80003cfc:	2aa50513          	addi	a0,a0,682
    80003d00:	00a51513          	slli	a0,a0,0xa
    80003d04:	2aa50513          	addi	a0,a0,682
    80003d08:	000005b7          	lui	a1,0x0
    80003d0c:	00058593          	mv	a1,a1
    80003d10:	00b59593          	slli	a1,a1,0xb
    80003d14:	5a858593          	addi	a1,a1,1448 # 5a8 <offset+0x1b0>
    80003d18:	00b59593          	slli	a1,a1,0xb
    80003d1c:	13c58593          	addi	a1,a1,316
    80003d20:	00a59593          	slli	a1,a1,0xa
    80003d24:	33458593          	addi	a1,a1,820
    80003d28:	40b50633          	sub	a2,a0,a1
    80003d2c:	6cc0bc23          	sd	a2,1752(ra)
    80003d30:	fd555137          	lui	sp,0xfd555
    80003d34:	5551011b          	addiw	sp,sp,1365 # fffffffffd555555 <absimm+0xffffffff42847a85>
    80003d38:	00c11113          	slli	sp,sp,0xc
    80003d3c:	4fb10113          	addi	sp,sp,1275
    80003d40:	00d11113          	slli	sp,sp,0xd
    80003d44:	a5b10113          	addi	sp,sp,-1445
    80003d48:	00c11113          	slli	sp,sp,0xc
    80003d4c:	77610113          	addi	sp,sp,1910
    80003d50:	00c10463          	beq	sp,a2,80003d58 <inst_251>
    80003d54:	ad0fc06f          	j	80000024 <rvtest_error>

0000000080003d58 <inst_251>:
    80003d58:	00500513          	li	a0,5
    80003d5c:	00300593          	li	a1,3
    80003d60:	40b50633          	sub	a2,a0,a1
    80003d64:	6ec0b023          	sd	a2,1760(ra)
    80003d68:	00200113          	li	sp,2
    80003d6c:	00c10463          	beq	sp,a2,80003d74 <inst_252>
    80003d70:	ab4fc06f          	j	80000024 <rvtest_error>

0000000080003d74 <inst_252>:
    80003d74:	00500513          	li	a0,5
    80003d78:	555555b7          	lui	a1,0x55555
    80003d7c:	55558593          	addi	a1,a1,1365 # 55555555 <absimmsh+0x49a847a8>
    80003d80:	00b59593          	slli	a1,a1,0xb
    80003d84:	2aa58593          	addi	a1,a1,682
    80003d88:	00b59593          	slli	a1,a1,0xb
    80003d8c:	55558593          	addi	a1,a1,1365
    80003d90:	00a59593          	slli	a1,a1,0xa
    80003d94:	15558593          	addi	a1,a1,341
    80003d98:	40b50633          	sub	a2,a0,a1
    80003d9c:	6ec0b423          	sd	a2,1768(ra)
    80003da0:	faaab137          	lui	sp,0xfaaab
    80003da4:	aab1011b          	addiw	sp,sp,-1365 # fffffffffaaaaaab <absimm+0xffffffff3fd9cfdb>
    80003da8:	00c11113          	slli	sp,sp,0xc
    80003dac:	aab10113          	addi	sp,sp,-1365
    80003db0:	00c11113          	slli	sp,sp,0xc
    80003db4:	aab10113          	addi	sp,sp,-1365
    80003db8:	00c11113          	slli	sp,sp,0xc
    80003dbc:	ab010113          	addi	sp,sp,-1360
    80003dc0:	00c10463          	beq	sp,a2,80003dc8 <inst_253>
    80003dc4:	a60fc06f          	j	80000024 <rvtest_error>

0000000080003dc8 <inst_253>:
    80003dc8:	00500513          	li	a0,5
    80003dcc:	aaaab5b7          	lui	a1,0xaaaab
    80003dd0:	aaa58593          	addi	a1,a1,-1366 # ffffffffaaaaaaaa <absimm+0xfffffffeefd9cfda>
    80003dd4:	00b59593          	slli	a1,a1,0xb
    80003dd8:	55558593          	addi	a1,a1,1365
    80003ddc:	00b59593          	slli	a1,a1,0xb
    80003de0:	2aa58593          	addi	a1,a1,682
    80003de4:	00a59593          	slli	a1,a1,0xa
    80003de8:	2aa58593          	addi	a1,a1,682
    80003dec:	40b50633          	sub	a2,a0,a1
    80003df0:	6ec0b823          	sd	a2,1776(ra)
    80003df4:	05555137          	lui	sp,0x5555
    80003df8:	5551011b          	addiw	sp,sp,1365 # 5555555 <offset+0x555515d>
    80003dfc:	00c11113          	slli	sp,sp,0xc
    80003e00:	55510113          	addi	sp,sp,1365
    80003e04:	00c11113          	slli	sp,sp,0xc
    80003e08:	55510113          	addi	sp,sp,1365
    80003e0c:	00c11113          	slli	sp,sp,0xc
    80003e10:	55b10113          	addi	sp,sp,1371
    80003e14:	00c10463          	beq	sp,a2,80003e1c <inst_254>
    80003e18:	a0cfc06f          	j	80000024 <rvtest_error>

0000000080003e1c <inst_254>:
    80003e1c:	00500513          	li	a0,5
    80003e20:	00500593          	li	a1,5
    80003e24:	40b50633          	sub	a2,a0,a1
    80003e28:	6ec0bc23          	sd	a2,1784(ra)
    80003e2c:	00000113          	li	sp,0
    80003e30:	00c10463          	beq	sp,a2,80003e38 <inst_255>
    80003e34:	9f0fc06f          	j	80000024 <rvtest_error>

0000000080003e38 <inst_255>:
    80003e38:	00500513          	li	a0,5
    80003e3c:	333335b7          	lui	a1,0x33333
    80003e40:	33358593          	addi	a1,a1,819 # 33333333 <absimmsh+0x27862586>
    80003e44:	00b59593          	slli	a1,a1,0xb
    80003e48:	19958593          	addi	a1,a1,409
    80003e4c:	00b59593          	slli	a1,a1,0xb
    80003e50:	4cc58593          	addi	a1,a1,1228
    80003e54:	00a59593          	slli	a1,a1,0xa
    80003e58:	33358593          	addi	a1,a1,819
    80003e5c:	40b50633          	sub	a2,a0,a1
    80003e60:	70c0b023          	sd	a2,1792(ra)
    80003e64:	fcccd137          	lui	sp,0xfcccd
    80003e68:	ccd1011b          	addiw	sp,sp,-819 # fffffffffccccccd <absimm+0xffffffff41fbf1fd>
    80003e6c:	00c11113          	slli	sp,sp,0xc
    80003e70:	ccd10113          	addi	sp,sp,-819
    80003e74:	00c11113          	slli	sp,sp,0xc
    80003e78:	ccd10113          	addi	sp,sp,-819
    80003e7c:	00c11113          	slli	sp,sp,0xc
    80003e80:	cd210113          	addi	sp,sp,-814
    80003e84:	00c10463          	beq	sp,a2,80003e8c <inst_256>
    80003e88:	99cfc06f          	j	80000024 <rvtest_error>

0000000080003e8c <inst_256>:
    80003e8c:	00500513          	li	a0,5
    80003e90:	666665b7          	lui	a1,0x66666
    80003e94:	66658593          	addi	a1,a1,1638 # 66666666 <absimmsh+0x5ab958b9>
    80003e98:	00b59593          	slli	a1,a1,0xb
    80003e9c:	33358593          	addi	a1,a1,819
    80003ea0:	00b59593          	slli	a1,a1,0xb
    80003ea4:	19958593          	addi	a1,a1,409
    80003ea8:	00a59593          	slli	a1,a1,0xa
    80003eac:	26658593          	addi	a1,a1,614
    80003eb0:	40b50633          	sub	a2,a0,a1
    80003eb4:	70c0b423          	sd	a2,1800(ra)
    80003eb8:	fcccd137          	lui	sp,0xfcccd
    80003ebc:	ccd1011b          	addiw	sp,sp,-819 # fffffffffccccccd <absimm+0xffffffff41fbf1fd>
    80003ec0:	00c11113          	slli	sp,sp,0xc
    80003ec4:	ccd10113          	addi	sp,sp,-819
    80003ec8:	00c11113          	slli	sp,sp,0xc
    80003ecc:	ccd10113          	addi	sp,sp,-819
    80003ed0:	00d11113          	slli	sp,sp,0xd
    80003ed4:	99f10113          	addi	sp,sp,-1633
    80003ed8:	00c10463          	beq	sp,a2,80003ee0 <inst_257>
    80003edc:	948fc06f          	j	80000024 <rvtest_error>

0000000080003ee0 <inst_257>:
    80003ee0:	00500513          	li	a0,5
    80003ee4:	000005b7          	lui	a1,0x0
    80003ee8:	fff58593          	addi	a1,a1,-1
    80003eec:	00b59593          	slli	a1,a1,0xb
    80003ef0:	25758593          	addi	a1,a1,599
    80003ef4:	00b59593          	slli	a1,a1,0xb
    80003ef8:	6c358593          	addi	a1,a1,1731
    80003efc:	00a59593          	slli	a1,a1,0xa
    80003f00:	0cd58593          	addi	a1,a1,205
    80003f04:	40b50633          	sub	a2,a0,a1
    80003f08:	70c0b823          	sd	a2,1808(ra)
    80003f0c:	000b5137          	lui	sp,0xb5
    80003f10:	04f1011b          	addiw	sp,sp,79 # b504f <offset+0xb4c57>
    80003f14:	00c11113          	slli	sp,sp,0xc
    80003f18:	33810113          	addi	sp,sp,824
    80003f1c:	00c10463          	beq	sp,a2,80003f24 <inst_258>
    80003f20:	904fc06f          	j	80000024 <rvtest_error>

0000000080003f24 <inst_258>:
    80003f24:	00500513          	li	a0,5
    80003f28:	000005b7          	lui	a1,0x0
    80003f2c:	00058593          	mv	a1,a1
    80003f30:	00b59593          	slli	a1,a1,0xb
    80003f34:	5a858593          	addi	a1,a1,1448 # 5a8 <offset+0x1b0>
    80003f38:	00b59593          	slli	a1,a1,0xb
    80003f3c:	13c58593          	addi	a1,a1,316
    80003f40:	00a59593          	slli	a1,a1,0xa
    80003f44:	33358593          	addi	a1,a1,819
    80003f48:	40b50633          	sub	a2,a0,a1
    80003f4c:	70c0bc23          	sd	a2,1816(ra)
    80003f50:	fff4b137          	lui	sp,0xfff4b
    80003f54:	fb11011b          	addiw	sp,sp,-79 # fffffffffff4afb1 <absimm+0xffffffff4523d4e1>
    80003f58:	00c11113          	slli	sp,sp,0xc
    80003f5c:	cd210113          	addi	sp,sp,-814
    80003f60:	00c10463          	beq	sp,a2,80003f68 <inst_259>
    80003f64:	8c0fc06f          	j	80000024 <rvtest_error>

0000000080003f68 <inst_259>:
    80003f68:	00500513          	li	a0,5
    80003f6c:	00200593          	li	a1,2
    80003f70:	40b50633          	sub	a2,a0,a1
    80003f74:	72c0b023          	sd	a2,1824(ra)
    80003f78:	00300113          	li	sp,3
    80003f7c:	00c10463          	beq	sp,a2,80003f84 <inst_260>
    80003f80:	8a4fc06f          	j	80000024 <rvtest_error>

0000000080003f84 <inst_260>:
    80003f84:	00500513          	li	a0,5
    80003f88:	555555b7          	lui	a1,0x55555
    80003f8c:	55558593          	addi	a1,a1,1365 # 55555555 <absimmsh+0x49a847a8>
    80003f90:	00b59593          	slli	a1,a1,0xb
    80003f94:	2aa58593          	addi	a1,a1,682
    80003f98:	00b59593          	slli	a1,a1,0xb
    80003f9c:	55558593          	addi	a1,a1,1365
    80003fa0:	00a59593          	slli	a1,a1,0xa
    80003fa4:	15458593          	addi	a1,a1,340
    80003fa8:	40b50633          	sub	a2,a0,a1
    80003fac:	72c0b423          	sd	a2,1832(ra)
    80003fb0:	faaab137          	lui	sp,0xfaaab
    80003fb4:	aab1011b          	addiw	sp,sp,-1365 # fffffffffaaaaaab <absimm+0xffffffff3fd9cfdb>
    80003fb8:	00c11113          	slli	sp,sp,0xc
    80003fbc:	aab10113          	addi	sp,sp,-1365
    80003fc0:	00c11113          	slli	sp,sp,0xc
    80003fc4:	aab10113          	addi	sp,sp,-1365
    80003fc8:	00c11113          	slli	sp,sp,0xc
    80003fcc:	ab110113          	addi	sp,sp,-1359
    80003fd0:	00c10463          	beq	sp,a2,80003fd8 <inst_261>
    80003fd4:	850fc06f          	j	80000024 <rvtest_error>

0000000080003fd8 <inst_261>:
    80003fd8:	00500513          	li	a0,5
    80003fdc:	00000593          	li	a1,0
    80003fe0:	40b50633          	sub	a2,a0,a1
    80003fe4:	72c0b823          	sd	a2,1840(ra)
    80003fe8:	00500113          	li	sp,5
    80003fec:	00c10463          	beq	sp,a2,80003ff4 <inst_262>
    80003ff0:	834fc06f          	j	80000024 <rvtest_error>

0000000080003ff4 <inst_262>:
    80003ff4:	00500513          	li	a0,5
    80003ff8:	00400593          	li	a1,4
    80003ffc:	40b50633          	sub	a2,a0,a1
    80004000:	72c0bc23          	sd	a2,1848(ra)
    80004004:	00100113          	li	sp,1
    80004008:	00c10463          	beq	sp,a2,80004010 <inst_263>
    8000400c:	818fc06f          	j	80000024 <rvtest_error>

0000000080004010 <inst_263>:
    80004010:	00500513          	li	a0,5
    80004014:	333335b7          	lui	a1,0x33333
    80004018:	33358593          	addi	a1,a1,819 # 33333333 <absimmsh+0x27862586>
    8000401c:	00b59593          	slli	a1,a1,0xb
    80004020:	19958593          	addi	a1,a1,409
    80004024:	00b59593          	slli	a1,a1,0xb
    80004028:	4cc58593          	addi	a1,a1,1228
    8000402c:	00a59593          	slli	a1,a1,0xa
    80004030:	33258593          	addi	a1,a1,818
    80004034:	40b50633          	sub	a2,a0,a1
    80004038:	74c0b023          	sd	a2,1856(ra)
    8000403c:	fcccd137          	lui	sp,0xfcccd
    80004040:	ccd1011b          	addiw	sp,sp,-819 # fffffffffccccccd <absimm+0xffffffff41fbf1fd>
    80004044:	00c11113          	slli	sp,sp,0xc
    80004048:	ccd10113          	addi	sp,sp,-819
    8000404c:	00c11113          	slli	sp,sp,0xc
    80004050:	ccd10113          	addi	sp,sp,-819
    80004054:	00c11113          	slli	sp,sp,0xc
    80004058:	cd310113          	addi	sp,sp,-813
    8000405c:	00c10463          	beq	sp,a2,80004064 <inst_264>
    80004060:	fc5fb06f          	j	80000024 <rvtest_error>

0000000080004064 <inst_264>:
    80004064:	00500513          	li	a0,5
    80004068:	666665b7          	lui	a1,0x66666
    8000406c:	66658593          	addi	a1,a1,1638 # 66666666 <absimmsh+0x5ab958b9>
    80004070:	00b59593          	slli	a1,a1,0xb
    80004074:	33358593          	addi	a1,a1,819
    80004078:	00b59593          	slli	a1,a1,0xb
    8000407c:	19958593          	addi	a1,a1,409
    80004080:	00a59593          	slli	a1,a1,0xa
    80004084:	26558593          	addi	a1,a1,613
    80004088:	40b50633          	sub	a2,a0,a1
    8000408c:	74c0b423          	sd	a2,1864(ra)
    80004090:	fcccd137          	lui	sp,0xfcccd
    80004094:	ccd1011b          	addiw	sp,sp,-819 # fffffffffccccccd <absimm+0xffffffff41fbf1fd>
    80004098:	00c11113          	slli	sp,sp,0xc
    8000409c:	ccd10113          	addi	sp,sp,-819
    800040a0:	00c11113          	slli	sp,sp,0xc
    800040a4:	ccd10113          	addi	sp,sp,-819
    800040a8:	00d11113          	slli	sp,sp,0xd
    800040ac:	9a010113          	addi	sp,sp,-1632
    800040b0:	00c10463          	beq	sp,a2,800040b8 <inst_265>
    800040b4:	f71fb06f          	j	80000024 <rvtest_error>

00000000800040b8 <inst_265>:
    800040b8:	00500513          	li	a0,5
    800040bc:	000005b7          	lui	a1,0x0
    800040c0:	00058593          	mv	a1,a1
    800040c4:	00b59593          	slli	a1,a1,0xb
    800040c8:	5a858593          	addi	a1,a1,1448 # 5a8 <offset+0x1b0>
    800040cc:	00b59593          	slli	a1,a1,0xb
    800040d0:	13c58593          	addi	a1,a1,316
    800040d4:	00a59593          	slli	a1,a1,0xa
    800040d8:	33258593          	addi	a1,a1,818
    800040dc:	40b50633          	sub	a2,a0,a1
    800040e0:	74c0b823          	sd	a2,1872(ra)
    800040e4:	fff4b137          	lui	sp,0xfff4b
    800040e8:	fb11011b          	addiw	sp,sp,-79 # fffffffffff4afb1 <absimm+0xffffffff4523d4e1>
    800040ec:	00c11113          	slli	sp,sp,0xc
    800040f0:	cd310113          	addi	sp,sp,-813
    800040f4:	00c10463          	beq	sp,a2,800040fc <inst_266>
    800040f8:	f2dfb06f          	j	80000024 <rvtest_error>

00000000800040fc <inst_266>:
    800040fc:	00500513          	li	a0,5
    80004100:	555555b7          	lui	a1,0x55555
    80004104:	55558593          	addi	a1,a1,1365 # 55555555 <absimmsh+0x49a847a8>
    80004108:	00b59593          	slli	a1,a1,0xb
    8000410c:	2aa58593          	addi	a1,a1,682
    80004110:	00b59593          	slli	a1,a1,0xb
    80004114:	55558593          	addi	a1,a1,1365
    80004118:	00a59593          	slli	a1,a1,0xa
    8000411c:	15658593          	addi	a1,a1,342
    80004120:	40b50633          	sub	a2,a0,a1
    80004124:	74c0bc23          	sd	a2,1880(ra)
    80004128:	faaab137          	lui	sp,0xfaaab
    8000412c:	aab1011b          	addiw	sp,sp,-1365 # fffffffffaaaaaab <absimm+0xffffffff3fd9cfdb>
    80004130:	00c11113          	slli	sp,sp,0xc
    80004134:	aab10113          	addi	sp,sp,-1365
    80004138:	00c11113          	slli	sp,sp,0xc
    8000413c:	aab10113          	addi	sp,sp,-1365
    80004140:	00c11113          	slli	sp,sp,0xc
    80004144:	aaf10113          	addi	sp,sp,-1361
    80004148:	00c10463          	beq	sp,a2,80004150 <inst_267>
    8000414c:	ed9fb06f          	j	80000024 <rvtest_error>

0000000080004150 <inst_267>:
    80004150:	00500513          	li	a0,5
    80004154:	aaaab5b7          	lui	a1,0xaaaab
    80004158:	aaa58593          	addi	a1,a1,-1366 # ffffffffaaaaaaaa <absimm+0xfffffffeefd9cfda>
    8000415c:	00b59593          	slli	a1,a1,0xb
    80004160:	55558593          	addi	a1,a1,1365
    80004164:	00b59593          	slli	a1,a1,0xb
    80004168:	2aa58593          	addi	a1,a1,682
    8000416c:	00a59593          	slli	a1,a1,0xa
    80004170:	2ab58593          	addi	a1,a1,683
    80004174:	40b50633          	sub	a2,a0,a1
    80004178:	76c0b023          	sd	a2,1888(ra)
    8000417c:	05555137          	lui	sp,0x5555
    80004180:	5551011b          	addiw	sp,sp,1365 # 5555555 <offset+0x555515d>
    80004184:	00c11113          	slli	sp,sp,0xc
    80004188:	55510113          	addi	sp,sp,1365
    8000418c:	00c11113          	slli	sp,sp,0xc
    80004190:	55510113          	addi	sp,sp,1365
    80004194:	00c11113          	slli	sp,sp,0xc
    80004198:	55a10113          	addi	sp,sp,1370
    8000419c:	00c10463          	beq	sp,a2,800041a4 <inst_268>
    800041a0:	e85fb06f          	j	80000024 <rvtest_error>

00000000800041a4 <inst_268>:
    800041a4:	00500513          	li	a0,5
    800041a8:	00600593          	li	a1,6
    800041ac:	40b50633          	sub	a2,a0,a1
    800041b0:	76c0b423          	sd	a2,1896(ra)
    800041b4:	fff00113          	li	sp,-1
    800041b8:	00c10463          	beq	sp,a2,800041c0 <inst_269>
    800041bc:	e69fb06f          	j	80000024 <rvtest_error>

00000000800041c0 <inst_269>:
    800041c0:	00500513          	li	a0,5
    800041c4:	333335b7          	lui	a1,0x33333
    800041c8:	33358593          	addi	a1,a1,819 # 33333333 <absimmsh+0x27862586>
    800041cc:	00b59593          	slli	a1,a1,0xb
    800041d0:	19958593          	addi	a1,a1,409
    800041d4:	00b59593          	slli	a1,a1,0xb
    800041d8:	4cc58593          	addi	a1,a1,1228
    800041dc:	00a59593          	slli	a1,a1,0xa
    800041e0:	33458593          	addi	a1,a1,820
    800041e4:	40b50633          	sub	a2,a0,a1
    800041e8:	76c0b823          	sd	a2,1904(ra)
    800041ec:	fcccd137          	lui	sp,0xfcccd
    800041f0:	ccd1011b          	addiw	sp,sp,-819 # fffffffffccccccd <absimm+0xffffffff41fbf1fd>
    800041f4:	00c11113          	slli	sp,sp,0xc
    800041f8:	ccd10113          	addi	sp,sp,-819
    800041fc:	00c11113          	slli	sp,sp,0xc
    80004200:	ccd10113          	addi	sp,sp,-819
    80004204:	00c11113          	slli	sp,sp,0xc
    80004208:	cd110113          	addi	sp,sp,-815
    8000420c:	00c10463          	beq	sp,a2,80004214 <inst_270>
    80004210:	e15fb06f          	j	80000024 <rvtest_error>

0000000080004214 <inst_270>:
    80004214:	00500513          	li	a0,5
    80004218:	666665b7          	lui	a1,0x66666
    8000421c:	66658593          	addi	a1,a1,1638 # 66666666 <absimmsh+0x5ab958b9>
    80004220:	00b59593          	slli	a1,a1,0xb
    80004224:	33358593          	addi	a1,a1,819
    80004228:	00b59593          	slli	a1,a1,0xb
    8000422c:	19958593          	addi	a1,a1,409
    80004230:	00a59593          	slli	a1,a1,0xa
    80004234:	26758593          	addi	a1,a1,615
    80004238:	40b50633          	sub	a2,a0,a1
    8000423c:	76c0bc23          	sd	a2,1912(ra)
    80004240:	fcccd137          	lui	sp,0xfcccd
    80004244:	ccd1011b          	addiw	sp,sp,-819 # fffffffffccccccd <absimm+0xffffffff41fbf1fd>
    80004248:	00c11113          	slli	sp,sp,0xc
    8000424c:	ccd10113          	addi	sp,sp,-819
    80004250:	00c11113          	slli	sp,sp,0xc
    80004254:	ccd10113          	addi	sp,sp,-819
    80004258:	00d11113          	slli	sp,sp,0xd
    8000425c:	99e10113          	addi	sp,sp,-1634
    80004260:	00c10463          	beq	sp,a2,80004268 <inst_271>
    80004264:	dc1fb06f          	j	80000024 <rvtest_error>

0000000080004268 <inst_271>:
    80004268:	00500513          	li	a0,5
    8000426c:	000005b7          	lui	a1,0x0
    80004270:	fff58593          	addi	a1,a1,-1
    80004274:	00b59593          	slli	a1,a1,0xb
    80004278:	25758593          	addi	a1,a1,599
    8000427c:	00b59593          	slli	a1,a1,0xb
    80004280:	6c358593          	addi	a1,a1,1731
    80004284:	00a59593          	slli	a1,a1,0xa
    80004288:	0ce58593          	addi	a1,a1,206
    8000428c:	40b50633          	sub	a2,a0,a1
    80004290:	78c0b023          	sd	a2,1920(ra)
    80004294:	000b5137          	lui	sp,0xb5
    80004298:	04f1011b          	addiw	sp,sp,79 # b504f <offset+0xb4c57>
    8000429c:	00c11113          	slli	sp,sp,0xc
    800042a0:	33710113          	addi	sp,sp,823
    800042a4:	00c10463          	beq	sp,a2,800042ac <inst_272>
    800042a8:	d7dfb06f          	j	80000024 <rvtest_error>

00000000800042ac <inst_272>:
    800042ac:	00500513          	li	a0,5
    800042b0:	000005b7          	lui	a1,0x0
    800042b4:	00058593          	mv	a1,a1
    800042b8:	00b59593          	slli	a1,a1,0xb
    800042bc:	5a858593          	addi	a1,a1,1448 # 5a8 <offset+0x1b0>
    800042c0:	00b59593          	slli	a1,a1,0xb
    800042c4:	13c58593          	addi	a1,a1,316
    800042c8:	00a59593          	slli	a1,a1,0xa
    800042cc:	33458593          	addi	a1,a1,820
    800042d0:	40b50633          	sub	a2,a0,a1
    800042d4:	78c0b423          	sd	a2,1928(ra)
    800042d8:	fff4b137          	lui	sp,0xfff4b
    800042dc:	fb11011b          	addiw	sp,sp,-79 # fffffffffff4afb1 <absimm+0xffffffff4523d4e1>
    800042e0:	00c11113          	slli	sp,sp,0xc
    800042e4:	cd110113          	addi	sp,sp,-815
    800042e8:	00c10463          	beq	sp,a2,800042f0 <inst_273>
    800042ec:	d39fb06f          	j	80000024 <rvtest_error>

00000000800042f0 <inst_273>:
    800042f0:	33333537          	lui	a0,0x33333
    800042f4:	33350513          	addi	a0,a0,819 # 33333333 <absimmsh+0x27862586>
    800042f8:	00b51513          	slli	a0,a0,0xb
    800042fc:	19950513          	addi	a0,a0,409
    80004300:	00b51513          	slli	a0,a0,0xb
    80004304:	4cc50513          	addi	a0,a0,1228
    80004308:	00a51513          	slli	a0,a0,0xa
    8000430c:	33350513          	addi	a0,a0,819
    80004310:	00300593          	li	a1,3
    80004314:	40b50633          	sub	a2,a0,a1
    80004318:	78c0b823          	sd	a2,1936(ra)
    8000431c:	03333137          	lui	sp,0x3333
    80004320:	3331011b          	addiw	sp,sp,819 # 3333333 <offset+0x3332f3b>
    80004324:	00c11113          	slli	sp,sp,0xc
    80004328:	33310113          	addi	sp,sp,819
    8000432c:	00c11113          	slli	sp,sp,0xc
    80004330:	33310113          	addi	sp,sp,819
    80004334:	00c11113          	slli	sp,sp,0xc
    80004338:	33010113          	addi	sp,sp,816
    8000433c:	00c10463          	beq	sp,a2,80004344 <inst_274>
    80004340:	ce5fb06f          	j	80000024 <rvtest_error>

0000000080004344 <inst_274>:
    80004344:	33333537          	lui	a0,0x33333
    80004348:	33350513          	addi	a0,a0,819 # 33333333 <absimmsh+0x27862586>
    8000434c:	00b51513          	slli	a0,a0,0xb
    80004350:	19950513          	addi	a0,a0,409
    80004354:	00b51513          	slli	a0,a0,0xb
    80004358:	4cc50513          	addi	a0,a0,1228
    8000435c:	00a51513          	slli	a0,a0,0xa
    80004360:	33350513          	addi	a0,a0,819
    80004364:	555555b7          	lui	a1,0x55555
    80004368:	55558593          	addi	a1,a1,1365 # 55555555 <absimmsh+0x49a847a8>
    8000436c:	00b59593          	slli	a1,a1,0xb
    80004370:	2aa58593          	addi	a1,a1,682
    80004374:	00b59593          	slli	a1,a1,0xb
    80004378:	55558593          	addi	a1,a1,1365
    8000437c:	00a59593          	slli	a1,a1,0xa
    80004380:	15558593          	addi	a1,a1,341
    80004384:	40b50633          	sub	a2,a0,a1
    80004388:	78c0bc23          	sd	a2,1944(ra)
    8000438c:	feeef137          	lui	sp,0xfeeef
    80004390:	eef1011b          	addiw	sp,sp,-273 # fffffffffeeeeeef <absimm+0xffffffff441e141f>
    80004394:	00c11113          	slli	sp,sp,0xc
    80004398:	eef10113          	addi	sp,sp,-273
    8000439c:	00c11113          	slli	sp,sp,0xc
    800043a0:	eef10113          	addi	sp,sp,-273
    800043a4:	00d11113          	slli	sp,sp,0xd
    800043a8:	dde10113          	addi	sp,sp,-546
    800043ac:	00c10463          	beq	sp,a2,800043b4 <inst_275>
    800043b0:	c75fb06f          	j	80000024 <rvtest_error>

00000000800043b4 <inst_275>:
    800043b4:	33333537          	lui	a0,0x33333
    800043b8:	33350513          	addi	a0,a0,819 # 33333333 <absimmsh+0x27862586>
    800043bc:	00b51513          	slli	a0,a0,0xb
    800043c0:	19950513          	addi	a0,a0,409
    800043c4:	00b51513          	slli	a0,a0,0xb
    800043c8:	4cc50513          	addi	a0,a0,1228
    800043cc:	00a51513          	slli	a0,a0,0xa
    800043d0:	33350513          	addi	a0,a0,819
    800043d4:	aaaab5b7          	lui	a1,0xaaaab
    800043d8:	aaa58593          	addi	a1,a1,-1366 # ffffffffaaaaaaaa <absimm+0xfffffffeefd9cfda>
    800043dc:	00b59593          	slli	a1,a1,0xb
    800043e0:	55558593          	addi	a1,a1,1365
    800043e4:	00b59593          	slli	a1,a1,0xb
    800043e8:	2aa58593          	addi	a1,a1,682
    800043ec:	00a59593          	slli	a1,a1,0xa
    800043f0:	2aa58593          	addi	a1,a1,682
    800043f4:	40b50633          	sub	a2,a0,a1
    800043f8:	7ac0b023          	sd	a2,1952(ra)
    800043fc:	f8889137          	lui	sp,0xf8889
    80004400:	8891011b          	addiw	sp,sp,-1911 # fffffffff8888889 <absimm+0xffffffff3db7adb9>
    80004404:	00c11113          	slli	sp,sp,0xc
    80004408:	88910113          	addi	sp,sp,-1911
    8000440c:	00c11113          	slli	sp,sp,0xc
    80004410:	88910113          	addi	sp,sp,-1911
    80004414:	00c11113          	slli	sp,sp,0xc
    80004418:	88910113          	addi	sp,sp,-1911
    8000441c:	00c10463          	beq	sp,a2,80004424 <inst_276>
    80004420:	c05fb06f          	j	80000024 <rvtest_error>

0000000080004424 <inst_276>:
    80004424:	33333537          	lui	a0,0x33333
    80004428:	33350513          	addi	a0,a0,819 # 33333333 <absimmsh+0x27862586>
    8000442c:	00b51513          	slli	a0,a0,0xb
    80004430:	19950513          	addi	a0,a0,409
    80004434:	00b51513          	slli	a0,a0,0xb
    80004438:	4cc50513          	addi	a0,a0,1228
    8000443c:	00a51513          	slli	a0,a0,0xa
    80004440:	33350513          	addi	a0,a0,819
    80004444:	00500593          	li	a1,5
    80004448:	40b50633          	sub	a2,a0,a1
    8000444c:	7ac0b423          	sd	a2,1960(ra)
    80004450:	03333137          	lui	sp,0x3333
    80004454:	3331011b          	addiw	sp,sp,819 # 3333333 <offset+0x3332f3b>
    80004458:	00c11113          	slli	sp,sp,0xc
    8000445c:	33310113          	addi	sp,sp,819
    80004460:	00c11113          	slli	sp,sp,0xc
    80004464:	33310113          	addi	sp,sp,819
    80004468:	00c11113          	slli	sp,sp,0xc
    8000446c:	32e10113          	addi	sp,sp,814
    80004470:	00c10463          	beq	sp,a2,80004478 <inst_277>
    80004474:	bb1fb06f          	j	80000024 <rvtest_error>

0000000080004478 <inst_277>:
    80004478:	33333537          	lui	a0,0x33333
    8000447c:	33350513          	addi	a0,a0,819 # 33333333 <absimmsh+0x27862586>
    80004480:	00b51513          	slli	a0,a0,0xb
    80004484:	19950513          	addi	a0,a0,409
    80004488:	00b51513          	slli	a0,a0,0xb
    8000448c:	4cc50513          	addi	a0,a0,1228
    80004490:	00a51513          	slli	a0,a0,0xa
    80004494:	33350513          	addi	a0,a0,819
    80004498:	333335b7          	lui	a1,0x33333
    8000449c:	33358593          	addi	a1,a1,819 # 33333333 <absimmsh+0x27862586>
    800044a0:	00b59593          	slli	a1,a1,0xb
    800044a4:	19958593          	addi	a1,a1,409
    800044a8:	00b59593          	slli	a1,a1,0xb
    800044ac:	4cc58593          	addi	a1,a1,1228
    800044b0:	00a59593          	slli	a1,a1,0xa
    800044b4:	33358593          	addi	a1,a1,819
    800044b8:	40b50633          	sub	a2,a0,a1
    800044bc:	7ac0b823          	sd	a2,1968(ra)
    800044c0:	00000113          	li	sp,0
    800044c4:	00c10463          	beq	sp,a2,800044cc <inst_278>
    800044c8:	b5dfb06f          	j	80000024 <rvtest_error>

00000000800044cc <inst_278>:
    800044cc:	33333537          	lui	a0,0x33333
    800044d0:	33350513          	addi	a0,a0,819 # 33333333 <absimmsh+0x27862586>
    800044d4:	00b51513          	slli	a0,a0,0xb
    800044d8:	19950513          	addi	a0,a0,409
    800044dc:	00b51513          	slli	a0,a0,0xb
    800044e0:	4cc50513          	addi	a0,a0,1228
    800044e4:	00a51513          	slli	a0,a0,0xa
    800044e8:	33350513          	addi	a0,a0,819
    800044ec:	666665b7          	lui	a1,0x66666
    800044f0:	66658593          	addi	a1,a1,1638 # 66666666 <absimmsh+0x5ab958b9>
    800044f4:	00b59593          	slli	a1,a1,0xb
    800044f8:	33358593          	addi	a1,a1,819
    800044fc:	00b59593          	slli	a1,a1,0xb
    80004500:	19958593          	addi	a1,a1,409
    80004504:	00a59593          	slli	a1,a1,0xa
    80004508:	26658593          	addi	a1,a1,614
    8000450c:	40b50633          	sub	a2,a0,a1
    80004510:	7ac0bc23          	sd	a2,1976(ra)
    80004514:	fcccd137          	lui	sp,0xfcccd
    80004518:	ccd1011b          	addiw	sp,sp,-819 # fffffffffccccccd <absimm+0xffffffff41fbf1fd>
    8000451c:	00c11113          	slli	sp,sp,0xc
    80004520:	ccd10113          	addi	sp,sp,-819
    80004524:	00c11113          	slli	sp,sp,0xc
    80004528:	ccd10113          	addi	sp,sp,-819
    8000452c:	00c11113          	slli	sp,sp,0xc
    80004530:	ccd10113          	addi	sp,sp,-819
    80004534:	00c10463          	beq	sp,a2,8000453c <inst_279>
    80004538:	aedfb06f          	j	80000024 <rvtest_error>

000000008000453c <inst_279>:
    8000453c:	33333537          	lui	a0,0x33333
    80004540:	33350513          	addi	a0,a0,819 # 33333333 <absimmsh+0x27862586>
    80004544:	00b51513          	slli	a0,a0,0xb
    80004548:	19950513          	addi	a0,a0,409
    8000454c:	00b51513          	slli	a0,a0,0xb
    80004550:	4cc50513          	addi	a0,a0,1228
    80004554:	00a51513          	slli	a0,a0,0xa
    80004558:	33350513          	addi	a0,a0,819
    8000455c:	000005b7          	lui	a1,0x0
    80004560:	fff58593          	addi	a1,a1,-1
    80004564:	00b59593          	slli	a1,a1,0xb
    80004568:	25758593          	addi	a1,a1,599
    8000456c:	00b59593          	slli	a1,a1,0xb
    80004570:	6c358593          	addi	a1,a1,1731
    80004574:	00a59593          	slli	a1,a1,0xa
    80004578:	0cd58593          	addi	a1,a1,205
    8000457c:	40b50633          	sub	a2,a0,a1
    80004580:	7cc0b023          	sd	a2,1984(ra)
    80004584:	00333137          	lui	sp,0x333
    80004588:	3331011b          	addiw	sp,sp,819 # 333333 <offset+0x332f3b>
    8000458c:	00d11113          	slli	sp,sp,0xd
    80004590:	67d10113          	addi	sp,sp,1661
    80004594:	00e11113          	slli	sp,sp,0xe
    80004598:	1c110113          	addi	sp,sp,449
    8000459c:	00d11113          	slli	sp,sp,0xd
    800045a0:	66610113          	addi	sp,sp,1638
    800045a4:	00c10463          	beq	sp,a2,800045ac <inst_280>
    800045a8:	a7dfb06f          	j	80000024 <rvtest_error>

00000000800045ac <inst_280>:
    800045ac:	33333537          	lui	a0,0x33333
    800045b0:	33350513          	addi	a0,a0,819 # 33333333 <absimmsh+0x27862586>
    800045b4:	00b51513          	slli	a0,a0,0xb
    800045b8:	19950513          	addi	a0,a0,409
    800045bc:	00b51513          	slli	a0,a0,0xb
    800045c0:	4cc50513          	addi	a0,a0,1228
    800045c4:	00a51513          	slli	a0,a0,0xa
    800045c8:	33350513          	addi	a0,a0,819
    800045cc:	000005b7          	lui	a1,0x0
    800045d0:	00058593          	mv	a1,a1
    800045d4:	00b59593          	slli	a1,a1,0xb
    800045d8:	5a858593          	addi	a1,a1,1448 # 5a8 <offset+0x1b0>
    800045dc:	00b59593          	slli	a1,a1,0xb
    800045e0:	13c58593          	addi	a1,a1,316
    800045e4:	00a59593          	slli	a1,a1,0xa
    800045e8:	33358593          	addi	a1,a1,819
    800045ec:	40b50633          	sub	a2,a0,a1
    800045f0:	7cc0b423          	sd	a2,1992(ra)
    800045f4:	66666137          	lui	sp,0x66666
    800045f8:	6651011b          	addiw	sp,sp,1637 # 66666665 <absimmsh+0x5ab958b8>
    800045fc:	01111113          	slli	sp,sp,0x11
    80004600:	8b910113          	addi	sp,sp,-1863
    80004604:	00e11113          	slli	sp,sp,0xe
    80004608:	00c10463          	beq	sp,a2,80004610 <inst_281>
    8000460c:	a19fb06f          	j	80000024 <rvtest_error>

0000000080004610 <inst_281>:
    80004610:	33333537          	lui	a0,0x33333
    80004614:	33350513          	addi	a0,a0,819 # 33333333 <absimmsh+0x27862586>
    80004618:	00b51513          	slli	a0,a0,0xb
    8000461c:	19950513          	addi	a0,a0,409
    80004620:	00b51513          	slli	a0,a0,0xb
    80004624:	4cc50513          	addi	a0,a0,1228
    80004628:	00a51513          	slli	a0,a0,0xa
    8000462c:	33350513          	addi	a0,a0,819
    80004630:	00200593          	li	a1,2
    80004634:	40b50633          	sub	a2,a0,a1
    80004638:	7cc0b823          	sd	a2,2000(ra)
    8000463c:	03333137          	lui	sp,0x3333
    80004640:	3331011b          	addiw	sp,sp,819 # 3333333 <offset+0x3332f3b>
    80004644:	00c11113          	slli	sp,sp,0xc
    80004648:	33310113          	addi	sp,sp,819
    8000464c:	00c11113          	slli	sp,sp,0xc
    80004650:	33310113          	addi	sp,sp,819
    80004654:	00c11113          	slli	sp,sp,0xc
    80004658:	33110113          	addi	sp,sp,817
    8000465c:	00c10463          	beq	sp,a2,80004664 <inst_282>
    80004660:	9c5fb06f          	j	80000024 <rvtest_error>

0000000080004664 <inst_282>:
    80004664:	33333537          	lui	a0,0x33333
    80004668:	33350513          	addi	a0,a0,819 # 33333333 <absimmsh+0x27862586>
    8000466c:	00b51513          	slli	a0,a0,0xb
    80004670:	19950513          	addi	a0,a0,409
    80004674:	00b51513          	slli	a0,a0,0xb
    80004678:	4cc50513          	addi	a0,a0,1228
    8000467c:	00a51513          	slli	a0,a0,0xa
    80004680:	33350513          	addi	a0,a0,819
    80004684:	555555b7          	lui	a1,0x55555
    80004688:	55558593          	addi	a1,a1,1365 # 55555555 <absimmsh+0x49a847a8>
    8000468c:	00b59593          	slli	a1,a1,0xb
    80004690:	2aa58593          	addi	a1,a1,682
    80004694:	00b59593          	slli	a1,a1,0xb
    80004698:	55558593          	addi	a1,a1,1365
    8000469c:	00a59593          	slli	a1,a1,0xa
    800046a0:	15458593          	addi	a1,a1,340
    800046a4:	40b50633          	sub	a2,a0,a1
    800046a8:	7cc0bc23          	sd	a2,2008(ra)
    800046ac:	feeef137          	lui	sp,0xfeeef
    800046b0:	eef1011b          	addiw	sp,sp,-273 # fffffffffeeeeeef <absimm+0xffffffff441e141f>
    800046b4:	00c11113          	slli	sp,sp,0xc
    800046b8:	eef10113          	addi	sp,sp,-273
    800046bc:	00c11113          	slli	sp,sp,0xc
    800046c0:	eef10113          	addi	sp,sp,-273
    800046c4:	00d11113          	slli	sp,sp,0xd
    800046c8:	ddf10113          	addi	sp,sp,-545
    800046cc:	00c10463          	beq	sp,a2,800046d4 <inst_283>
    800046d0:	955fb06f          	j	80000024 <rvtest_error>

00000000800046d4 <inst_283>:
    800046d4:	33333537          	lui	a0,0x33333
    800046d8:	33350513          	addi	a0,a0,819 # 33333333 <absimmsh+0x27862586>
    800046dc:	00b51513          	slli	a0,a0,0xb
    800046e0:	19950513          	addi	a0,a0,409
    800046e4:	00b51513          	slli	a0,a0,0xb
    800046e8:	4cc50513          	addi	a0,a0,1228
    800046ec:	00a51513          	slli	a0,a0,0xa
    800046f0:	33350513          	addi	a0,a0,819
    800046f4:	00000593          	li	a1,0
    800046f8:	40b50633          	sub	a2,a0,a1
    800046fc:	7ec0b023          	sd	a2,2016(ra)
    80004700:	03333137          	lui	sp,0x3333
    80004704:	3331011b          	addiw	sp,sp,819 # 3333333 <offset+0x3332f3b>
    80004708:	00c11113          	slli	sp,sp,0xc
    8000470c:	33310113          	addi	sp,sp,819
    80004710:	00c11113          	slli	sp,sp,0xc
    80004714:	33310113          	addi	sp,sp,819
    80004718:	00c11113          	slli	sp,sp,0xc
    8000471c:	33310113          	addi	sp,sp,819
    80004720:	00c10463          	beq	sp,a2,80004728 <inst_284>
    80004724:	901fb06f          	j	80000024 <rvtest_error>

0000000080004728 <inst_284>:
    80004728:	33333537          	lui	a0,0x33333
    8000472c:	33350513          	addi	a0,a0,819 # 33333333 <absimmsh+0x27862586>
    80004730:	00b51513          	slli	a0,a0,0xb
    80004734:	19950513          	addi	a0,a0,409
    80004738:	00b51513          	slli	a0,a0,0xb
    8000473c:	4cc50513          	addi	a0,a0,1228
    80004740:	00a51513          	slli	a0,a0,0xa
    80004744:	33350513          	addi	a0,a0,819
    80004748:	00400593          	li	a1,4
    8000474c:	40b50633          	sub	a2,a0,a1
    80004750:	7ec0b423          	sd	a2,2024(ra)
    80004754:	03333137          	lui	sp,0x3333
    80004758:	3331011b          	addiw	sp,sp,819 # 3333333 <offset+0x3332f3b>
    8000475c:	00c11113          	slli	sp,sp,0xc
    80004760:	33310113          	addi	sp,sp,819
    80004764:	00c11113          	slli	sp,sp,0xc
    80004768:	33310113          	addi	sp,sp,819
    8000476c:	00c11113          	slli	sp,sp,0xc
    80004770:	32f10113          	addi	sp,sp,815
    80004774:	00c10463          	beq	sp,a2,8000477c <inst_285>
    80004778:	8adfb06f          	j	80000024 <rvtest_error>

000000008000477c <inst_285>:
    8000477c:	33333537          	lui	a0,0x33333
    80004780:	33350513          	addi	a0,a0,819 # 33333333 <absimmsh+0x27862586>
    80004784:	00b51513          	slli	a0,a0,0xb
    80004788:	19950513          	addi	a0,a0,409
    8000478c:	00b51513          	slli	a0,a0,0xb
    80004790:	4cc50513          	addi	a0,a0,1228
    80004794:	00a51513          	slli	a0,a0,0xa
    80004798:	33350513          	addi	a0,a0,819
    8000479c:	333335b7          	lui	a1,0x33333
    800047a0:	33358593          	addi	a1,a1,819 # 33333333 <absimmsh+0x27862586>
    800047a4:	00b59593          	slli	a1,a1,0xb
    800047a8:	19958593          	addi	a1,a1,409
    800047ac:	00b59593          	slli	a1,a1,0xb
    800047b0:	4cc58593          	addi	a1,a1,1228
    800047b4:	00a59593          	slli	a1,a1,0xa
    800047b8:	33258593          	addi	a1,a1,818
    800047bc:	40b50633          	sub	a2,a0,a1
    800047c0:	7ec0b823          	sd	a2,2032(ra)
    800047c4:	00100113          	li	sp,1
    800047c8:	00c10463          	beq	sp,a2,800047d0 <inst_286>
    800047cc:	859fb06f          	j	80000024 <rvtest_error>

00000000800047d0 <inst_286>:
    800047d0:	33333537          	lui	a0,0x33333
    800047d4:	33350513          	addi	a0,a0,819 # 33333333 <absimmsh+0x27862586>
    800047d8:	00b51513          	slli	a0,a0,0xb
    800047dc:	19950513          	addi	a0,a0,409
    800047e0:	00b51513          	slli	a0,a0,0xb
    800047e4:	4cc50513          	addi	a0,a0,1228
    800047e8:	00a51513          	slli	a0,a0,0xa
    800047ec:	33350513          	addi	a0,a0,819
    800047f0:	666665b7          	lui	a1,0x66666
    800047f4:	66658593          	addi	a1,a1,1638 # 66666666 <absimmsh+0x5ab958b9>
    800047f8:	00b59593          	slli	a1,a1,0xb
    800047fc:	33358593          	addi	a1,a1,819
    80004800:	00b59593          	slli	a1,a1,0xb
    80004804:	19958593          	addi	a1,a1,409
    80004808:	00a59593          	slli	a1,a1,0xa
    8000480c:	26558593          	addi	a1,a1,613
    80004810:	40b50633          	sub	a2,a0,a1
    80004814:	7ec0bc23          	sd	a2,2040(ra)
    80004818:	fcccd137          	lui	sp,0xfcccd
    8000481c:	ccd1011b          	addiw	sp,sp,-819 # fffffffffccccccd <absimm+0xffffffff41fbf1fd>
    80004820:	00c11113          	slli	sp,sp,0xc
    80004824:	ccd10113          	addi	sp,sp,-819
    80004828:	00c11113          	slli	sp,sp,0xc
    8000482c:	ccd10113          	addi	sp,sp,-819
    80004830:	00c11113          	slli	sp,sp,0xc
    80004834:	cce10113          	addi	sp,sp,-818
    80004838:	00c10463          	beq	sp,a2,80004840 <inst_286+0x70>
    8000483c:	fe8fb06f          	j	80000024 <rvtest_error>
    80004840:	0000b097          	auipc	ra,0xb
    80004844:	0c008093          	addi	ra,ra,192 # 8000f900 <signature_x1_1>
    80004848:	00000013          	nop
    8000484c:	00000013          	nop
    80004850:	00000013          	nop
    80004854:	00000013          	nop
    80004858:	00000013          	nop
    8000485c:	00000013          	nop

0000000080004860 <inst_287>:
    80004860:	33333537          	lui	a0,0x33333
    80004864:	33350513          	addi	a0,a0,819 # 33333333 <absimmsh+0x27862586>
    80004868:	00b51513          	slli	a0,a0,0xb
    8000486c:	19950513          	addi	a0,a0,409
    80004870:	00b51513          	slli	a0,a0,0xb
    80004874:	4cc50513          	addi	a0,a0,1228
    80004878:	00a51513          	slli	a0,a0,0xa
    8000487c:	33350513          	addi	a0,a0,819
    80004880:	000005b7          	lui	a1,0x0
    80004884:	00058593          	mv	a1,a1
    80004888:	00b59593          	slli	a1,a1,0xb
    8000488c:	5a858593          	addi	a1,a1,1448 # 5a8 <offset+0x1b0>
    80004890:	00b59593          	slli	a1,a1,0xb
    80004894:	13c58593          	addi	a1,a1,316
    80004898:	00a59593          	slli	a1,a1,0xa
    8000489c:	33258593          	addi	a1,a1,818
    800048a0:	40b50633          	sub	a2,a0,a1
    800048a4:	00c0b023          	sd	a2,0(ra)
    800048a8:	66666137          	lui	sp,0x66666
    800048ac:	6651011b          	addiw	sp,sp,1637 # 66666665 <absimmsh+0x5ab958b8>
    800048b0:	01111113          	slli	sp,sp,0x11
    800048b4:	8b910113          	addi	sp,sp,-1863
    800048b8:	00e11113          	slli	sp,sp,0xe
    800048bc:	00110113          	addi	sp,sp,1
    800048c0:	00c10463          	beq	sp,a2,800048c8 <inst_288>
    800048c4:	f60fb06f          	j	80000024 <rvtest_error>

00000000800048c8 <inst_288>:
    800048c8:	33333537          	lui	a0,0x33333
    800048cc:	33350513          	addi	a0,a0,819 # 33333333 <absimmsh+0x27862586>
    800048d0:	00b51513          	slli	a0,a0,0xb
    800048d4:	19950513          	addi	a0,a0,409
    800048d8:	00b51513          	slli	a0,a0,0xb
    800048dc:	4cc50513          	addi	a0,a0,1228
    800048e0:	00a51513          	slli	a0,a0,0xa
    800048e4:	33350513          	addi	a0,a0,819
    800048e8:	555555b7          	lui	a1,0x55555
    800048ec:	55558593          	addi	a1,a1,1365 # 55555555 <absimmsh+0x49a847a8>
    800048f0:	00b59593          	slli	a1,a1,0xb
    800048f4:	2aa58593          	addi	a1,a1,682
    800048f8:	00b59593          	slli	a1,a1,0xb
    800048fc:	55558593          	addi	a1,a1,1365
    80004900:	00a59593          	slli	a1,a1,0xa
    80004904:	15658593          	addi	a1,a1,342
    80004908:	40b50633          	sub	a2,a0,a1
    8000490c:	00c0b423          	sd	a2,8(ra)
    80004910:	feeef137          	lui	sp,0xfeeef
    80004914:	eef1011b          	addiw	sp,sp,-273 # fffffffffeeeeeef <absimm+0xffffffff441e141f>
    80004918:	00c11113          	slli	sp,sp,0xc
    8000491c:	eef10113          	addi	sp,sp,-273
    80004920:	00c11113          	slli	sp,sp,0xc
    80004924:	eef10113          	addi	sp,sp,-273
    80004928:	00d11113          	slli	sp,sp,0xd
    8000492c:	ddd10113          	addi	sp,sp,-547
    80004930:	00c10463          	beq	sp,a2,80004938 <inst_289>
    80004934:	ef0fb06f          	j	80000024 <rvtest_error>

0000000080004938 <inst_289>:
    80004938:	33333537          	lui	a0,0x33333
    8000493c:	33350513          	addi	a0,a0,819 # 33333333 <absimmsh+0x27862586>
    80004940:	00b51513          	slli	a0,a0,0xb
    80004944:	19950513          	addi	a0,a0,409
    80004948:	00b51513          	slli	a0,a0,0xb
    8000494c:	4cc50513          	addi	a0,a0,1228
    80004950:	00a51513          	slli	a0,a0,0xa
    80004954:	33350513          	addi	a0,a0,819
    80004958:	aaaab5b7          	lui	a1,0xaaaab
    8000495c:	aaa58593          	addi	a1,a1,-1366 # ffffffffaaaaaaaa <absimm+0xfffffffeefd9cfda>
    80004960:	00b59593          	slli	a1,a1,0xb
    80004964:	55558593          	addi	a1,a1,1365
    80004968:	00b59593          	slli	a1,a1,0xb
    8000496c:	2aa58593          	addi	a1,a1,682
    80004970:	00a59593          	slli	a1,a1,0xa
    80004974:	2ab58593          	addi	a1,a1,683
    80004978:	40b50633          	sub	a2,a0,a1
    8000497c:	00c0b823          	sd	a2,16(ra)
    80004980:	f8889137          	lui	sp,0xf8889
    80004984:	8891011b          	addiw	sp,sp,-1911 # fffffffff8888889 <absimm+0xffffffff3db7adb9>
    80004988:	00c11113          	slli	sp,sp,0xc
    8000498c:	88910113          	addi	sp,sp,-1911
    80004990:	00c11113          	slli	sp,sp,0xc
    80004994:	88910113          	addi	sp,sp,-1911
    80004998:	00c11113          	slli	sp,sp,0xc
    8000499c:	88810113          	addi	sp,sp,-1912
    800049a0:	00c10463          	beq	sp,a2,800049a8 <inst_290>
    800049a4:	e80fb06f          	j	80000024 <rvtest_error>

00000000800049a8 <inst_290>:
    800049a8:	33333537          	lui	a0,0x33333
    800049ac:	33350513          	addi	a0,a0,819 # 33333333 <absimmsh+0x27862586>
    800049b0:	00b51513          	slli	a0,a0,0xb
    800049b4:	19950513          	addi	a0,a0,409
    800049b8:	00b51513          	slli	a0,a0,0xb
    800049bc:	4cc50513          	addi	a0,a0,1228
    800049c0:	00a51513          	slli	a0,a0,0xa
    800049c4:	33350513          	addi	a0,a0,819
    800049c8:	00600593          	li	a1,6
    800049cc:	40b50633          	sub	a2,a0,a1
    800049d0:	00c0bc23          	sd	a2,24(ra)
    800049d4:	03333137          	lui	sp,0x3333
    800049d8:	3331011b          	addiw	sp,sp,819 # 3333333 <offset+0x3332f3b>
    800049dc:	00c11113          	slli	sp,sp,0xc
    800049e0:	33310113          	addi	sp,sp,819
    800049e4:	00c11113          	slli	sp,sp,0xc
    800049e8:	33310113          	addi	sp,sp,819
    800049ec:	00c11113          	slli	sp,sp,0xc
    800049f0:	32d10113          	addi	sp,sp,813
    800049f4:	00c10463          	beq	sp,a2,800049fc <inst_291>
    800049f8:	e2cfb06f          	j	80000024 <rvtest_error>

00000000800049fc <inst_291>:
    800049fc:	33333537          	lui	a0,0x33333
    80004a00:	33350513          	addi	a0,a0,819 # 33333333 <absimmsh+0x27862586>
    80004a04:	00b51513          	slli	a0,a0,0xb
    80004a08:	19950513          	addi	a0,a0,409
    80004a0c:	00b51513          	slli	a0,a0,0xb
    80004a10:	4cc50513          	addi	a0,a0,1228
    80004a14:	00a51513          	slli	a0,a0,0xa
    80004a18:	33350513          	addi	a0,a0,819
    80004a1c:	333335b7          	lui	a1,0x33333
    80004a20:	33358593          	addi	a1,a1,819 # 33333333 <absimmsh+0x27862586>
    80004a24:	00b59593          	slli	a1,a1,0xb
    80004a28:	19958593          	addi	a1,a1,409
    80004a2c:	00b59593          	slli	a1,a1,0xb
    80004a30:	4cc58593          	addi	a1,a1,1228
    80004a34:	00a59593          	slli	a1,a1,0xa
    80004a38:	33458593          	addi	a1,a1,820
    80004a3c:	40b50633          	sub	a2,a0,a1
    80004a40:	02c0b023          	sd	a2,32(ra)
    80004a44:	fff00113          	li	sp,-1
    80004a48:	00c10463          	beq	sp,a2,80004a50 <inst_292>
    80004a4c:	dd8fb06f          	j	80000024 <rvtest_error>

0000000080004a50 <inst_292>:
    80004a50:	33333537          	lui	a0,0x33333
    80004a54:	33350513          	addi	a0,a0,819 # 33333333 <absimmsh+0x27862586>
    80004a58:	00b51513          	slli	a0,a0,0xb
    80004a5c:	19950513          	addi	a0,a0,409
    80004a60:	00b51513          	slli	a0,a0,0xb
    80004a64:	4cc50513          	addi	a0,a0,1228
    80004a68:	00a51513          	slli	a0,a0,0xa
    80004a6c:	33350513          	addi	a0,a0,819
    80004a70:	666665b7          	lui	a1,0x66666
    80004a74:	66658593          	addi	a1,a1,1638 # 66666666 <absimmsh+0x5ab958b9>
    80004a78:	00b59593          	slli	a1,a1,0xb
    80004a7c:	33358593          	addi	a1,a1,819
    80004a80:	00b59593          	slli	a1,a1,0xb
    80004a84:	19958593          	addi	a1,a1,409
    80004a88:	00a59593          	slli	a1,a1,0xa
    80004a8c:	26758593          	addi	a1,a1,615
    80004a90:	40b50633          	sub	a2,a0,a1
    80004a94:	02c0b423          	sd	a2,40(ra)
    80004a98:	fcccd137          	lui	sp,0xfcccd
    80004a9c:	ccd1011b          	addiw	sp,sp,-819 # fffffffffccccccd <absimm+0xffffffff41fbf1fd>
    80004aa0:	00c11113          	slli	sp,sp,0xc
    80004aa4:	ccd10113          	addi	sp,sp,-819
    80004aa8:	00c11113          	slli	sp,sp,0xc
    80004aac:	ccd10113          	addi	sp,sp,-819
    80004ab0:	00c11113          	slli	sp,sp,0xc
    80004ab4:	ccc10113          	addi	sp,sp,-820
    80004ab8:	00c10463          	beq	sp,a2,80004ac0 <inst_293>
    80004abc:	d68fb06f          	j	80000024 <rvtest_error>

0000000080004ac0 <inst_293>:
    80004ac0:	33333537          	lui	a0,0x33333
    80004ac4:	33350513          	addi	a0,a0,819 # 33333333 <absimmsh+0x27862586>
    80004ac8:	00b51513          	slli	a0,a0,0xb
    80004acc:	19950513          	addi	a0,a0,409
    80004ad0:	00b51513          	slli	a0,a0,0xb
    80004ad4:	4cc50513          	addi	a0,a0,1228
    80004ad8:	00a51513          	slli	a0,a0,0xa
    80004adc:	33350513          	addi	a0,a0,819
    80004ae0:	000005b7          	lui	a1,0x0
    80004ae4:	fff58593          	addi	a1,a1,-1
    80004ae8:	00b59593          	slli	a1,a1,0xb
    80004aec:	25758593          	addi	a1,a1,599
    80004af0:	00b59593          	slli	a1,a1,0xb
    80004af4:	6c358593          	addi	a1,a1,1731
    80004af8:	00a59593          	slli	a1,a1,0xa
    80004afc:	0ce58593          	addi	a1,a1,206
    80004b00:	40b50633          	sub	a2,a0,a1
    80004b04:	02c0b823          	sd	a2,48(ra)
    80004b08:	00333137          	lui	sp,0x333
    80004b0c:	3331011b          	addiw	sp,sp,819 # 333333 <offset+0x332f3b>
    80004b10:	00d11113          	slli	sp,sp,0xd
    80004b14:	67d10113          	addi	sp,sp,1661
    80004b18:	00e11113          	slli	sp,sp,0xe
    80004b1c:	1c110113          	addi	sp,sp,449
    80004b20:	00d11113          	slli	sp,sp,0xd
    80004b24:	66510113          	addi	sp,sp,1637
    80004b28:	00c10463          	beq	sp,a2,80004b30 <inst_294>
    80004b2c:	cf8fb06f          	j	80000024 <rvtest_error>

0000000080004b30 <inst_294>:
    80004b30:	33333537          	lui	a0,0x33333
    80004b34:	33350513          	addi	a0,a0,819 # 33333333 <absimmsh+0x27862586>
    80004b38:	00b51513          	slli	a0,a0,0xb
    80004b3c:	19950513          	addi	a0,a0,409
    80004b40:	00b51513          	slli	a0,a0,0xb
    80004b44:	4cc50513          	addi	a0,a0,1228
    80004b48:	00a51513          	slli	a0,a0,0xa
    80004b4c:	33350513          	addi	a0,a0,819
    80004b50:	000005b7          	lui	a1,0x0
    80004b54:	00058593          	mv	a1,a1
    80004b58:	00b59593          	slli	a1,a1,0xb
    80004b5c:	5a858593          	addi	a1,a1,1448 # 5a8 <offset+0x1b0>
    80004b60:	00b59593          	slli	a1,a1,0xb
    80004b64:	13c58593          	addi	a1,a1,316
    80004b68:	00a59593          	slli	a1,a1,0xa
    80004b6c:	33458593          	addi	a1,a1,820
    80004b70:	40b50633          	sub	a2,a0,a1
    80004b74:	02c0bc23          	sd	a2,56(ra)
    80004b78:	66666137          	lui	sp,0x66666
    80004b7c:	6651011b          	addiw	sp,sp,1637 # 66666665 <absimmsh+0x5ab958b8>
    80004b80:	01111113          	slli	sp,sp,0x11
    80004b84:	8b910113          	addi	sp,sp,-1863
    80004b88:	00e11113          	slli	sp,sp,0xe
    80004b8c:	fff10113          	addi	sp,sp,-1
    80004b90:	00c10463          	beq	sp,a2,80004b98 <inst_295>
    80004b94:	c90fb06f          	j	80000024 <rvtest_error>

0000000080004b98 <inst_295>:
    80004b98:	66666537          	lui	a0,0x66666
    80004b9c:	66650513          	addi	a0,a0,1638 # 66666666 <absimmsh+0x5ab958b9>
    80004ba0:	00b51513          	slli	a0,a0,0xb
    80004ba4:	33350513          	addi	a0,a0,819
    80004ba8:	00b51513          	slli	a0,a0,0xb
    80004bac:	19950513          	addi	a0,a0,409
    80004bb0:	00a51513          	slli	a0,a0,0xa
    80004bb4:	26650513          	addi	a0,a0,614
    80004bb8:	00300593          	li	a1,3
    80004bbc:	40b50633          	sub	a2,a0,a1
    80004bc0:	04c0b023          	sd	a2,64(ra)
    80004bc4:	03333137          	lui	sp,0x3333
    80004bc8:	3331011b          	addiw	sp,sp,819 # 3333333 <offset+0x3332f3b>
    80004bcc:	00c11113          	slli	sp,sp,0xc
    80004bd0:	33310113          	addi	sp,sp,819
    80004bd4:	00c11113          	slli	sp,sp,0xc
    80004bd8:	33310113          	addi	sp,sp,819
    80004bdc:	00d11113          	slli	sp,sp,0xd
    80004be0:	66310113          	addi	sp,sp,1635
    80004be4:	00c10463          	beq	sp,a2,80004bec <inst_296>
    80004be8:	c3cfb06f          	j	80000024 <rvtest_error>

0000000080004bec <inst_296>:
    80004bec:	66666537          	lui	a0,0x66666
    80004bf0:	66650513          	addi	a0,a0,1638 # 66666666 <absimmsh+0x5ab958b9>
    80004bf4:	00b51513          	slli	a0,a0,0xb
    80004bf8:	33350513          	addi	a0,a0,819
    80004bfc:	00b51513          	slli	a0,a0,0xb
    80004c00:	19950513          	addi	a0,a0,409
    80004c04:	00a51513          	slli	a0,a0,0xa
    80004c08:	26650513          	addi	a0,a0,614
    80004c0c:	555555b7          	lui	a1,0x55555
    80004c10:	55558593          	addi	a1,a1,1365 # 55555555 <absimmsh+0x49a847a8>
    80004c14:	00b59593          	slli	a1,a1,0xb
    80004c18:	2aa58593          	addi	a1,a1,682
    80004c1c:	00b59593          	slli	a1,a1,0xb
    80004c20:	55558593          	addi	a1,a1,1365
    80004c24:	00a59593          	slli	a1,a1,0xa
    80004c28:	15558593          	addi	a1,a1,341
    80004c2c:	40b50633          	sub	a2,a0,a1
    80004c30:	04c0b423          	sd	a2,72(ra)
    80004c34:	01111137          	lui	sp,0x1111
    80004c38:	1111011b          	addiw	sp,sp,273 # 1111111 <offset+0x1110d19>
    80004c3c:	00c11113          	slli	sp,sp,0xc
    80004c40:	11110113          	addi	sp,sp,273
    80004c44:	00c11113          	slli	sp,sp,0xc
    80004c48:	11110113          	addi	sp,sp,273
    80004c4c:	00c11113          	slli	sp,sp,0xc
    80004c50:	11110113          	addi	sp,sp,273
    80004c54:	00c10463          	beq	sp,a2,80004c5c <inst_297>
    80004c58:	bccfb06f          	j	80000024 <rvtest_error>

0000000080004c5c <inst_297>:
    80004c5c:	66666537          	lui	a0,0x66666
    80004c60:	66650513          	addi	a0,a0,1638 # 66666666 <absimmsh+0x5ab958b9>
    80004c64:	00b51513          	slli	a0,a0,0xb
    80004c68:	33350513          	addi	a0,a0,819
    80004c6c:	00b51513          	slli	a0,a0,0xb
    80004c70:	19950513          	addi	a0,a0,409
    80004c74:	00a51513          	slli	a0,a0,0xa
    80004c78:	26650513          	addi	a0,a0,614
    80004c7c:	aaaab5b7          	lui	a1,0xaaaab
    80004c80:	aaa58593          	addi	a1,a1,-1366 # ffffffffaaaaaaaa <absimm+0xfffffffeefd9cfda>
    80004c84:	00b59593          	slli	a1,a1,0xb
    80004c88:	55558593          	addi	a1,a1,1365
    80004c8c:	00b59593          	slli	a1,a1,0xb
    80004c90:	2aa58593          	addi	a1,a1,682
    80004c94:	00a59593          	slli	a1,a1,0xa
    80004c98:	2aa58593          	addi	a1,a1,682
    80004c9c:	40b50633          	sub	a2,a0,a1
    80004ca0:	04c0b823          	sd	a2,80(ra)
    80004ca4:	feeef137          	lui	sp,0xfeeef
    80004ca8:	eef1011b          	addiw	sp,sp,-273 # fffffffffeeeeeef <absimm+0xffffffff441e141f>
    80004cac:	00c11113          	slli	sp,sp,0xc
    80004cb0:	eef10113          	addi	sp,sp,-273
    80004cb4:	00c11113          	slli	sp,sp,0xc
    80004cb8:	eef10113          	addi	sp,sp,-273
    80004cbc:	00e11113          	slli	sp,sp,0xe
    80004cc0:	bbc10113          	addi	sp,sp,-1092
    80004cc4:	00c10463          	beq	sp,a2,80004ccc <inst_298>
    80004cc8:	b5cfb06f          	j	80000024 <rvtest_error>

0000000080004ccc <inst_298>:
    80004ccc:	66666537          	lui	a0,0x66666
    80004cd0:	66650513          	addi	a0,a0,1638 # 66666666 <absimmsh+0x5ab958b9>
    80004cd4:	00b51513          	slli	a0,a0,0xb
    80004cd8:	33350513          	addi	a0,a0,819
    80004cdc:	00b51513          	slli	a0,a0,0xb
    80004ce0:	19950513          	addi	a0,a0,409
    80004ce4:	00a51513          	slli	a0,a0,0xa
    80004ce8:	26650513          	addi	a0,a0,614
    80004cec:	00500593          	li	a1,5
    80004cf0:	40b50633          	sub	a2,a0,a1
    80004cf4:	04c0bc23          	sd	a2,88(ra)
    80004cf8:	03333137          	lui	sp,0x3333
    80004cfc:	3331011b          	addiw	sp,sp,819 # 3333333 <offset+0x3332f3b>
    80004d00:	00c11113          	slli	sp,sp,0xc
    80004d04:	33310113          	addi	sp,sp,819
    80004d08:	00c11113          	slli	sp,sp,0xc
    80004d0c:	33310113          	addi	sp,sp,819
    80004d10:	00d11113          	slli	sp,sp,0xd
    80004d14:	66110113          	addi	sp,sp,1633
    80004d18:	00c10463          	beq	sp,a2,80004d20 <inst_299>
    80004d1c:	b08fb06f          	j	80000024 <rvtest_error>

0000000080004d20 <inst_299>:
    80004d20:	66666537          	lui	a0,0x66666
    80004d24:	66650513          	addi	a0,a0,1638 # 66666666 <absimmsh+0x5ab958b9>
    80004d28:	00b51513          	slli	a0,a0,0xb
    80004d2c:	33350513          	addi	a0,a0,819
    80004d30:	00b51513          	slli	a0,a0,0xb
    80004d34:	19950513          	addi	a0,a0,409
    80004d38:	00a51513          	slli	a0,a0,0xa
    80004d3c:	26650513          	addi	a0,a0,614
    80004d40:	333335b7          	lui	a1,0x33333
    80004d44:	33358593          	addi	a1,a1,819 # 33333333 <absimmsh+0x27862586>
    80004d48:	00b59593          	slli	a1,a1,0xb
    80004d4c:	19958593          	addi	a1,a1,409
    80004d50:	00b59593          	slli	a1,a1,0xb
    80004d54:	4cc58593          	addi	a1,a1,1228
    80004d58:	00a59593          	slli	a1,a1,0xa
    80004d5c:	33358593          	addi	a1,a1,819
    80004d60:	40b50633          	sub	a2,a0,a1
    80004d64:	06c0b023          	sd	a2,96(ra)
    80004d68:	03333137          	lui	sp,0x3333
    80004d6c:	3331011b          	addiw	sp,sp,819 # 3333333 <offset+0x3332f3b>
    80004d70:	00c11113          	slli	sp,sp,0xc
    80004d74:	33310113          	addi	sp,sp,819
    80004d78:	00c11113          	slli	sp,sp,0xc
    80004d7c:	33310113          	addi	sp,sp,819
    80004d80:	00c11113          	slli	sp,sp,0xc
    80004d84:	33310113          	addi	sp,sp,819
    80004d88:	00c10463          	beq	sp,a2,80004d90 <inst_300>
    80004d8c:	a98fb06f          	j	80000024 <rvtest_error>

0000000080004d90 <inst_300>:
    80004d90:	66666537          	lui	a0,0x66666
    80004d94:	66650513          	addi	a0,a0,1638 # 66666666 <absimmsh+0x5ab958b9>
    80004d98:	00b51513          	slli	a0,a0,0xb
    80004d9c:	33350513          	addi	a0,a0,819
    80004da0:	00b51513          	slli	a0,a0,0xb
    80004da4:	19950513          	addi	a0,a0,409
    80004da8:	00a51513          	slli	a0,a0,0xa
    80004dac:	26650513          	addi	a0,a0,614
    80004db0:	666665b7          	lui	a1,0x66666
    80004db4:	66658593          	addi	a1,a1,1638 # 66666666 <absimmsh+0x5ab958b9>
    80004db8:	00b59593          	slli	a1,a1,0xb
    80004dbc:	33358593          	addi	a1,a1,819
    80004dc0:	00b59593          	slli	a1,a1,0xb
    80004dc4:	19958593          	addi	a1,a1,409
    80004dc8:	00a59593          	slli	a1,a1,0xa
    80004dcc:	26658593          	addi	a1,a1,614
    80004dd0:	40b50633          	sub	a2,a0,a1
    80004dd4:	06c0b423          	sd	a2,104(ra)
    80004dd8:	00000113          	li	sp,0
    80004ddc:	00c10463          	beq	sp,a2,80004de4 <inst_301>
    80004de0:	a44fb06f          	j	80000024 <rvtest_error>

0000000080004de4 <inst_301>:
    80004de4:	66666537          	lui	a0,0x66666
    80004de8:	66650513          	addi	a0,a0,1638 # 66666666 <absimmsh+0x5ab958b9>
    80004dec:	00b51513          	slli	a0,a0,0xb
    80004df0:	33350513          	addi	a0,a0,819
    80004df4:	00b51513          	slli	a0,a0,0xb
    80004df8:	19950513          	addi	a0,a0,409
    80004dfc:	00a51513          	slli	a0,a0,0xa
    80004e00:	26650513          	addi	a0,a0,614
    80004e04:	000005b7          	lui	a1,0x0
    80004e08:	fff58593          	addi	a1,a1,-1
    80004e0c:	00b59593          	slli	a1,a1,0xb
    80004e10:	25758593          	addi	a1,a1,599
    80004e14:	00b59593          	slli	a1,a1,0xb
    80004e18:	6c358593          	addi	a1,a1,1731
    80004e1c:	00a59593          	slli	a1,a1,0xa
    80004e20:	0cd58593          	addi	a1,a1,205
    80004e24:	40b50633          	sub	a2,a0,a1
    80004e28:	06c0b823          	sd	a2,112(ra)
    80004e2c:	00ccd137          	lui	sp,0xccd
    80004e30:	ccd1011b          	addiw	sp,sp,-819 # cccccd <offset+0xccc8d5>
    80004e34:	00d11113          	slli	sp,sp,0xd
    80004e38:	9c710113          	addi	sp,sp,-1593
    80004e3c:	00d11113          	slli	sp,sp,0xd
    80004e40:	b5b10113          	addi	sp,sp,-1189
    80004e44:	00d11113          	slli	sp,sp,0xd
    80004e48:	99910113          	addi	sp,sp,-1639
    80004e4c:	00c10463          	beq	sp,a2,80004e54 <inst_302>
    80004e50:	9d4fb06f          	j	80000024 <rvtest_error>

0000000080004e54 <inst_302>:
    80004e54:	66666537          	lui	a0,0x66666
    80004e58:	66650513          	addi	a0,a0,1638 # 66666666 <absimmsh+0x5ab958b9>
    80004e5c:	00b51513          	slli	a0,a0,0xb
    80004e60:	33350513          	addi	a0,a0,819
    80004e64:	00b51513          	slli	a0,a0,0xb
    80004e68:	19950513          	addi	a0,a0,409
    80004e6c:	00a51513          	slli	a0,a0,0xa
    80004e70:	26650513          	addi	a0,a0,614
    80004e74:	000005b7          	lui	a1,0x0
    80004e78:	00058593          	mv	a1,a1
    80004e7c:	00b59593          	slli	a1,a1,0xb
    80004e80:	5a858593          	addi	a1,a1,1448 # 5a8 <offset+0x1b0>
    80004e84:	00b59593          	slli	a1,a1,0xb
    80004e88:	13c58593          	addi	a1,a1,316
    80004e8c:	00a59593          	slli	a1,a1,0xa
    80004e90:	33358593          	addi	a1,a1,819
    80004e94:	40b50633          	sub	a2,a0,a1
    80004e98:	06c0bc23          	sd	a2,120(ra)
    80004e9c:	03333137          	lui	sp,0x3333
    80004ea0:	3331011b          	addiw	sp,sp,819 # 3333333 <offset+0x3332f3b>
    80004ea4:	00d11113          	slli	sp,sp,0xd
    80004ea8:	5b110113          	addi	sp,sp,1457
    80004eac:	00c11113          	slli	sp,sp,0xc
    80004eb0:	61710113          	addi	sp,sp,1559
    80004eb4:	00c11113          	slli	sp,sp,0xc
    80004eb8:	33310113          	addi	sp,sp,819
    80004ebc:	00c10463          	beq	sp,a2,80004ec4 <inst_303>
    80004ec0:	964fb06f          	j	80000024 <rvtest_error>

0000000080004ec4 <inst_303>:
    80004ec4:	66666537          	lui	a0,0x66666
    80004ec8:	66650513          	addi	a0,a0,1638 # 66666666 <absimmsh+0x5ab958b9>
    80004ecc:	00b51513          	slli	a0,a0,0xb
    80004ed0:	33350513          	addi	a0,a0,819
    80004ed4:	00b51513          	slli	a0,a0,0xb
    80004ed8:	19950513          	addi	a0,a0,409
    80004edc:	00a51513          	slli	a0,a0,0xa
    80004ee0:	26650513          	addi	a0,a0,614
    80004ee4:	00200593          	li	a1,2
    80004ee8:	40b50633          	sub	a2,a0,a1
    80004eec:	08c0b023          	sd	a2,128(ra)
    80004ef0:	03333137          	lui	sp,0x3333
    80004ef4:	3331011b          	addiw	sp,sp,819 # 3333333 <offset+0x3332f3b>
    80004ef8:	00c11113          	slli	sp,sp,0xc
    80004efc:	33310113          	addi	sp,sp,819
    80004f00:	00c11113          	slli	sp,sp,0xc
    80004f04:	33310113          	addi	sp,sp,819
    80004f08:	00d11113          	slli	sp,sp,0xd
    80004f0c:	66410113          	addi	sp,sp,1636
    80004f10:	00c10463          	beq	sp,a2,80004f18 <inst_304>
    80004f14:	910fb06f          	j	80000024 <rvtest_error>

0000000080004f18 <inst_304>:
    80004f18:	66666537          	lui	a0,0x66666
    80004f1c:	66650513          	addi	a0,a0,1638 # 66666666 <absimmsh+0x5ab958b9>
    80004f20:	00b51513          	slli	a0,a0,0xb
    80004f24:	33350513          	addi	a0,a0,819
    80004f28:	00b51513          	slli	a0,a0,0xb
    80004f2c:	19950513          	addi	a0,a0,409
    80004f30:	00a51513          	slli	a0,a0,0xa
    80004f34:	26650513          	addi	a0,a0,614
    80004f38:	555555b7          	lui	a1,0x55555
    80004f3c:	55558593          	addi	a1,a1,1365 # 55555555 <absimmsh+0x49a847a8>
    80004f40:	00b59593          	slli	a1,a1,0xb
    80004f44:	2aa58593          	addi	a1,a1,682
    80004f48:	00b59593          	slli	a1,a1,0xb
    80004f4c:	55558593          	addi	a1,a1,1365
    80004f50:	00a59593          	slli	a1,a1,0xa
    80004f54:	15458593          	addi	a1,a1,340
    80004f58:	40b50633          	sub	a2,a0,a1
    80004f5c:	08c0b423          	sd	a2,136(ra)
    80004f60:	01111137          	lui	sp,0x1111
    80004f64:	1111011b          	addiw	sp,sp,273 # 1111111 <offset+0x1110d19>
    80004f68:	00c11113          	slli	sp,sp,0xc
    80004f6c:	11110113          	addi	sp,sp,273
    80004f70:	00c11113          	slli	sp,sp,0xc
    80004f74:	11110113          	addi	sp,sp,273
    80004f78:	00c11113          	slli	sp,sp,0xc
    80004f7c:	11210113          	addi	sp,sp,274
    80004f80:	00c10463          	beq	sp,a2,80004f88 <inst_305>
    80004f84:	8a0fb06f          	j	80000024 <rvtest_error>

0000000080004f88 <inst_305>:
    80004f88:	66666537          	lui	a0,0x66666
    80004f8c:	66650513          	addi	a0,a0,1638 # 66666666 <absimmsh+0x5ab958b9>
    80004f90:	00b51513          	slli	a0,a0,0xb
    80004f94:	33350513          	addi	a0,a0,819
    80004f98:	00b51513          	slli	a0,a0,0xb
    80004f9c:	19950513          	addi	a0,a0,409
    80004fa0:	00a51513          	slli	a0,a0,0xa
    80004fa4:	26650513          	addi	a0,a0,614
    80004fa8:	00000593          	li	a1,0
    80004fac:	40b50633          	sub	a2,a0,a1
    80004fb0:	08c0b823          	sd	a2,144(ra)
    80004fb4:	03333137          	lui	sp,0x3333
    80004fb8:	3331011b          	addiw	sp,sp,819 # 3333333 <offset+0x3332f3b>
    80004fbc:	00c11113          	slli	sp,sp,0xc
    80004fc0:	33310113          	addi	sp,sp,819
    80004fc4:	00c11113          	slli	sp,sp,0xc
    80004fc8:	33310113          	addi	sp,sp,819
    80004fcc:	00d11113          	slli	sp,sp,0xd
    80004fd0:	66610113          	addi	sp,sp,1638
    80004fd4:	00c10463          	beq	sp,a2,80004fdc <inst_306>
    80004fd8:	84cfb06f          	j	80000024 <rvtest_error>

0000000080004fdc <inst_306>:
    80004fdc:	66666537          	lui	a0,0x66666
    80004fe0:	66650513          	addi	a0,a0,1638 # 66666666 <absimmsh+0x5ab958b9>
    80004fe4:	00b51513          	slli	a0,a0,0xb
    80004fe8:	33350513          	addi	a0,a0,819
    80004fec:	00b51513          	slli	a0,a0,0xb
    80004ff0:	19950513          	addi	a0,a0,409
    80004ff4:	00a51513          	slli	a0,a0,0xa
    80004ff8:	26650513          	addi	a0,a0,614
    80004ffc:	00400593          	li	a1,4
    80005000:	40b50633          	sub	a2,a0,a1
    80005004:	08c0bc23          	sd	a2,152(ra)
    80005008:	03333137          	lui	sp,0x3333
    8000500c:	3331011b          	addiw	sp,sp,819 # 3333333 <offset+0x3332f3b>
    80005010:	00c11113          	slli	sp,sp,0xc
    80005014:	33310113          	addi	sp,sp,819
    80005018:	00c11113          	slli	sp,sp,0xc
    8000501c:	33310113          	addi	sp,sp,819
    80005020:	00d11113          	slli	sp,sp,0xd
    80005024:	66210113          	addi	sp,sp,1634
    80005028:	00c10463          	beq	sp,a2,80005030 <inst_307>
    8000502c:	ff9fa06f          	j	80000024 <rvtest_error>

0000000080005030 <inst_307>:
    80005030:	66666537          	lui	a0,0x66666
    80005034:	66650513          	addi	a0,a0,1638 # 66666666 <absimmsh+0x5ab958b9>
    80005038:	00b51513          	slli	a0,a0,0xb
    8000503c:	33350513          	addi	a0,a0,819
    80005040:	00b51513          	slli	a0,a0,0xb
    80005044:	19950513          	addi	a0,a0,409
    80005048:	00a51513          	slli	a0,a0,0xa
    8000504c:	26650513          	addi	a0,a0,614
    80005050:	333335b7          	lui	a1,0x33333
    80005054:	33358593          	addi	a1,a1,819 # 33333333 <absimmsh+0x27862586>
    80005058:	00b59593          	slli	a1,a1,0xb
    8000505c:	19958593          	addi	a1,a1,409
    80005060:	00b59593          	slli	a1,a1,0xb
    80005064:	4cc58593          	addi	a1,a1,1228
    80005068:	00a59593          	slli	a1,a1,0xa
    8000506c:	33258593          	addi	a1,a1,818
    80005070:	40b50633          	sub	a2,a0,a1
    80005074:	0ac0b023          	sd	a2,160(ra)
    80005078:	03333137          	lui	sp,0x3333
    8000507c:	3331011b          	addiw	sp,sp,819 # 3333333 <offset+0x3332f3b>
    80005080:	00c11113          	slli	sp,sp,0xc
    80005084:	33310113          	addi	sp,sp,819
    80005088:	00c11113          	slli	sp,sp,0xc
    8000508c:	33310113          	addi	sp,sp,819
    80005090:	00c11113          	slli	sp,sp,0xc
    80005094:	33410113          	addi	sp,sp,820
    80005098:	00c10463          	beq	sp,a2,800050a0 <inst_308>
    8000509c:	f89fa06f          	j	80000024 <rvtest_error>

00000000800050a0 <inst_308>:
    800050a0:	66666537          	lui	a0,0x66666
    800050a4:	66650513          	addi	a0,a0,1638 # 66666666 <absimmsh+0x5ab958b9>
    800050a8:	00b51513          	slli	a0,a0,0xb
    800050ac:	33350513          	addi	a0,a0,819
    800050b0:	00b51513          	slli	a0,a0,0xb
    800050b4:	19950513          	addi	a0,a0,409
    800050b8:	00a51513          	slli	a0,a0,0xa
    800050bc:	26650513          	addi	a0,a0,614
    800050c0:	666665b7          	lui	a1,0x66666
    800050c4:	66658593          	addi	a1,a1,1638 # 66666666 <absimmsh+0x5ab958b9>
    800050c8:	00b59593          	slli	a1,a1,0xb
    800050cc:	33358593          	addi	a1,a1,819
    800050d0:	00b59593          	slli	a1,a1,0xb
    800050d4:	19958593          	addi	a1,a1,409
    800050d8:	00a59593          	slli	a1,a1,0xa
    800050dc:	26558593          	addi	a1,a1,613
    800050e0:	40b50633          	sub	a2,a0,a1
    800050e4:	0ac0b423          	sd	a2,168(ra)
    800050e8:	00100113          	li	sp,1
    800050ec:	00c10463          	beq	sp,a2,800050f4 <inst_309>
    800050f0:	f35fa06f          	j	80000024 <rvtest_error>

00000000800050f4 <inst_309>:
    800050f4:	66666537          	lui	a0,0x66666
    800050f8:	66650513          	addi	a0,a0,1638 # 66666666 <absimmsh+0x5ab958b9>
    800050fc:	00b51513          	slli	a0,a0,0xb
    80005100:	33350513          	addi	a0,a0,819
    80005104:	00b51513          	slli	a0,a0,0xb
    80005108:	19950513          	addi	a0,a0,409
    8000510c:	00a51513          	slli	a0,a0,0xa
    80005110:	26650513          	addi	a0,a0,614
    80005114:	000005b7          	lui	a1,0x0
    80005118:	00058593          	mv	a1,a1
    8000511c:	00b59593          	slli	a1,a1,0xb
    80005120:	5a858593          	addi	a1,a1,1448 # 5a8 <offset+0x1b0>
    80005124:	00b59593          	slli	a1,a1,0xb
    80005128:	13c58593          	addi	a1,a1,316
    8000512c:	00a59593          	slli	a1,a1,0xa
    80005130:	33258593          	addi	a1,a1,818
    80005134:	40b50633          	sub	a2,a0,a1
    80005138:	0ac0b823          	sd	a2,176(ra)
    8000513c:	03333137          	lui	sp,0x3333
    80005140:	3331011b          	addiw	sp,sp,819 # 3333333 <offset+0x3332f3b>
    80005144:	00d11113          	slli	sp,sp,0xd
    80005148:	5b110113          	addi	sp,sp,1457
    8000514c:	00c11113          	slli	sp,sp,0xc
    80005150:	61710113          	addi	sp,sp,1559
    80005154:	00c11113          	slli	sp,sp,0xc
    80005158:	33410113          	addi	sp,sp,820
    8000515c:	00c10463          	beq	sp,a2,80005164 <inst_310>
    80005160:	ec5fa06f          	j	80000024 <rvtest_error>

0000000080005164 <inst_310>:
    80005164:	66666537          	lui	a0,0x66666
    80005168:	66650513          	addi	a0,a0,1638 # 66666666 <absimmsh+0x5ab958b9>
    8000516c:	00b51513          	slli	a0,a0,0xb
    80005170:	33350513          	addi	a0,a0,819
    80005174:	00b51513          	slli	a0,a0,0xb
    80005178:	19950513          	addi	a0,a0,409
    8000517c:	00a51513          	slli	a0,a0,0xa
    80005180:	26650513          	addi	a0,a0,614
    80005184:	555555b7          	lui	a1,0x55555
    80005188:	55558593          	addi	a1,a1,1365 # 55555555 <absimmsh+0x49a847a8>
    8000518c:	00b59593          	slli	a1,a1,0xb
    80005190:	2aa58593          	addi	a1,a1,682
    80005194:	00b59593          	slli	a1,a1,0xb
    80005198:	55558593          	addi	a1,a1,1365
    8000519c:	00a59593          	slli	a1,a1,0xa
    800051a0:	15658593          	addi	a1,a1,342
    800051a4:	40b50633          	sub	a2,a0,a1
    800051a8:	0ac0bc23          	sd	a2,184(ra)
    800051ac:	01111137          	lui	sp,0x1111
    800051b0:	1111011b          	addiw	sp,sp,273 # 1111111 <offset+0x1110d19>
    800051b4:	00c11113          	slli	sp,sp,0xc
    800051b8:	11110113          	addi	sp,sp,273
    800051bc:	00c11113          	slli	sp,sp,0xc
    800051c0:	11110113          	addi	sp,sp,273
    800051c4:	00c11113          	slli	sp,sp,0xc
    800051c8:	11010113          	addi	sp,sp,272
    800051cc:	00c10463          	beq	sp,a2,800051d4 <inst_311>
    800051d0:	e55fa06f          	j	80000024 <rvtest_error>

00000000800051d4 <inst_311>:
    800051d4:	66666537          	lui	a0,0x66666
    800051d8:	66650513          	addi	a0,a0,1638 # 66666666 <absimmsh+0x5ab958b9>
    800051dc:	00b51513          	slli	a0,a0,0xb
    800051e0:	33350513          	addi	a0,a0,819
    800051e4:	00b51513          	slli	a0,a0,0xb
    800051e8:	19950513          	addi	a0,a0,409
    800051ec:	00a51513          	slli	a0,a0,0xa
    800051f0:	26650513          	addi	a0,a0,614
    800051f4:	aaaab5b7          	lui	a1,0xaaaab
    800051f8:	aaa58593          	addi	a1,a1,-1366 # ffffffffaaaaaaaa <absimm+0xfffffffeefd9cfda>
    800051fc:	00b59593          	slli	a1,a1,0xb
    80005200:	55558593          	addi	a1,a1,1365
    80005204:	00b59593          	slli	a1,a1,0xb
    80005208:	2aa58593          	addi	a1,a1,682
    8000520c:	00a59593          	slli	a1,a1,0xa
    80005210:	2ab58593          	addi	a1,a1,683
    80005214:	40b50633          	sub	a2,a0,a1
    80005218:	0cc0b023          	sd	a2,192(ra)
    8000521c:	feeef137          	lui	sp,0xfeeef
    80005220:	eef1011b          	addiw	sp,sp,-273 # fffffffffeeeeeef <absimm+0xffffffff441e141f>
    80005224:	00c11113          	slli	sp,sp,0xc
    80005228:	eef10113          	addi	sp,sp,-273
    8000522c:	00c11113          	slli	sp,sp,0xc
    80005230:	eef10113          	addi	sp,sp,-273
    80005234:	00e11113          	slli	sp,sp,0xe
    80005238:	bbb10113          	addi	sp,sp,-1093
    8000523c:	00c10463          	beq	sp,a2,80005244 <inst_312>
    80005240:	de5fa06f          	j	80000024 <rvtest_error>

0000000080005244 <inst_312>:
    80005244:	66666537          	lui	a0,0x66666
    80005248:	66650513          	addi	a0,a0,1638 # 66666666 <absimmsh+0x5ab958b9>
    8000524c:	00b51513          	slli	a0,a0,0xb
    80005250:	33350513          	addi	a0,a0,819
    80005254:	00b51513          	slli	a0,a0,0xb
    80005258:	19950513          	addi	a0,a0,409
    8000525c:	00a51513          	slli	a0,a0,0xa
    80005260:	26650513          	addi	a0,a0,614
    80005264:	00600593          	li	a1,6
    80005268:	40b50633          	sub	a2,a0,a1
    8000526c:	0cc0b423          	sd	a2,200(ra)
    80005270:	03333137          	lui	sp,0x3333
    80005274:	3331011b          	addiw	sp,sp,819 # 3333333 <offset+0x3332f3b>
    80005278:	00c11113          	slli	sp,sp,0xc
    8000527c:	33310113          	addi	sp,sp,819
    80005280:	00c11113          	slli	sp,sp,0xc
    80005284:	33310113          	addi	sp,sp,819
    80005288:	00d11113          	slli	sp,sp,0xd
    8000528c:	66010113          	addi	sp,sp,1632
    80005290:	00c10463          	beq	sp,a2,80005298 <inst_313>
    80005294:	d91fa06f          	j	80000024 <rvtest_error>

0000000080005298 <inst_313>:
    80005298:	66666537          	lui	a0,0x66666
    8000529c:	66650513          	addi	a0,a0,1638 # 66666666 <absimmsh+0x5ab958b9>
    800052a0:	00b51513          	slli	a0,a0,0xb
    800052a4:	33350513          	addi	a0,a0,819
    800052a8:	00b51513          	slli	a0,a0,0xb
    800052ac:	19950513          	addi	a0,a0,409
    800052b0:	00a51513          	slli	a0,a0,0xa
    800052b4:	26650513          	addi	a0,a0,614
    800052b8:	333335b7          	lui	a1,0x33333
    800052bc:	33358593          	addi	a1,a1,819 # 33333333 <absimmsh+0x27862586>
    800052c0:	00b59593          	slli	a1,a1,0xb
    800052c4:	19958593          	addi	a1,a1,409
    800052c8:	00b59593          	slli	a1,a1,0xb
    800052cc:	4cc58593          	addi	a1,a1,1228
    800052d0:	00a59593          	slli	a1,a1,0xa
    800052d4:	33458593          	addi	a1,a1,820
    800052d8:	40b50633          	sub	a2,a0,a1
    800052dc:	0cc0b823          	sd	a2,208(ra)
    800052e0:	03333137          	lui	sp,0x3333
    800052e4:	3331011b          	addiw	sp,sp,819 # 3333333 <offset+0x3332f3b>
    800052e8:	00c11113          	slli	sp,sp,0xc
    800052ec:	33310113          	addi	sp,sp,819
    800052f0:	00c11113          	slli	sp,sp,0xc
    800052f4:	33310113          	addi	sp,sp,819
    800052f8:	00c11113          	slli	sp,sp,0xc
    800052fc:	33210113          	addi	sp,sp,818
    80005300:	00c10463          	beq	sp,a2,80005308 <inst_314>
    80005304:	d21fa06f          	j	80000024 <rvtest_error>

0000000080005308 <inst_314>:
    80005308:	66666537          	lui	a0,0x66666
    8000530c:	66650513          	addi	a0,a0,1638 # 66666666 <absimmsh+0x5ab958b9>
    80005310:	00b51513          	slli	a0,a0,0xb
    80005314:	33350513          	addi	a0,a0,819
    80005318:	00b51513          	slli	a0,a0,0xb
    8000531c:	19950513          	addi	a0,a0,409
    80005320:	00a51513          	slli	a0,a0,0xa
    80005324:	26650513          	addi	a0,a0,614
    80005328:	666665b7          	lui	a1,0x66666
    8000532c:	66658593          	addi	a1,a1,1638 # 66666666 <absimmsh+0x5ab958b9>
    80005330:	00b59593          	slli	a1,a1,0xb
    80005334:	33358593          	addi	a1,a1,819
    80005338:	00b59593          	slli	a1,a1,0xb
    8000533c:	19958593          	addi	a1,a1,409
    80005340:	00a59593          	slli	a1,a1,0xa
    80005344:	26758593          	addi	a1,a1,615
    80005348:	40b50633          	sub	a2,a0,a1
    8000534c:	0cc0bc23          	sd	a2,216(ra)
    80005350:	fff00113          	li	sp,-1
    80005354:	00c10463          	beq	sp,a2,8000535c <inst_315>
    80005358:	ccdfa06f          	j	80000024 <rvtest_error>

000000008000535c <inst_315>:
    8000535c:	66666537          	lui	a0,0x66666
    80005360:	66650513          	addi	a0,a0,1638 # 66666666 <absimmsh+0x5ab958b9>
    80005364:	00b51513          	slli	a0,a0,0xb
    80005368:	33350513          	addi	a0,a0,819
    8000536c:	00b51513          	slli	a0,a0,0xb
    80005370:	19950513          	addi	a0,a0,409
    80005374:	00a51513          	slli	a0,a0,0xa
    80005378:	26650513          	addi	a0,a0,614
    8000537c:	000005b7          	lui	a1,0x0
    80005380:	fff58593          	addi	a1,a1,-1
    80005384:	00b59593          	slli	a1,a1,0xb
    80005388:	25758593          	addi	a1,a1,599
    8000538c:	00b59593          	slli	a1,a1,0xb
    80005390:	6c358593          	addi	a1,a1,1731
    80005394:	00a59593          	slli	a1,a1,0xa
    80005398:	0ce58593          	addi	a1,a1,206
    8000539c:	40b50633          	sub	a2,a0,a1
    800053a0:	0ec0b023          	sd	a2,224(ra)
    800053a4:	00ccd137          	lui	sp,0xccd
    800053a8:	ccd1011b          	addiw	sp,sp,-819 # cccccd <offset+0xccc8d5>
    800053ac:	00d11113          	slli	sp,sp,0xd
    800053b0:	9c710113          	addi	sp,sp,-1593
    800053b4:	00d11113          	slli	sp,sp,0xd
    800053b8:	b5b10113          	addi	sp,sp,-1189
    800053bc:	00d11113          	slli	sp,sp,0xd
    800053c0:	99810113          	addi	sp,sp,-1640
    800053c4:	00c10463          	beq	sp,a2,800053cc <inst_316>
    800053c8:	c5dfa06f          	j	80000024 <rvtest_error>

00000000800053cc <inst_316>:
    800053cc:	66666537          	lui	a0,0x66666
    800053d0:	66650513          	addi	a0,a0,1638 # 66666666 <absimmsh+0x5ab958b9>
    800053d4:	00b51513          	slli	a0,a0,0xb
    800053d8:	33350513          	addi	a0,a0,819
    800053dc:	00b51513          	slli	a0,a0,0xb
    800053e0:	19950513          	addi	a0,a0,409
    800053e4:	00a51513          	slli	a0,a0,0xa
    800053e8:	26650513          	addi	a0,a0,614
    800053ec:	000005b7          	lui	a1,0x0
    800053f0:	00058593          	mv	a1,a1
    800053f4:	00b59593          	slli	a1,a1,0xb
    800053f8:	5a858593          	addi	a1,a1,1448 # 5a8 <offset+0x1b0>
    800053fc:	00b59593          	slli	a1,a1,0xb
    80005400:	13c58593          	addi	a1,a1,316
    80005404:	00a59593          	slli	a1,a1,0xa
    80005408:	33458593          	addi	a1,a1,820
    8000540c:	40b50633          	sub	a2,a0,a1
    80005410:	0ec0b423          	sd	a2,232(ra)
    80005414:	03333137          	lui	sp,0x3333
    80005418:	3331011b          	addiw	sp,sp,819 # 3333333 <offset+0x3332f3b>
    8000541c:	00d11113          	slli	sp,sp,0xd
    80005420:	5b110113          	addi	sp,sp,1457
    80005424:	00c11113          	slli	sp,sp,0xc
    80005428:	61710113          	addi	sp,sp,1559
    8000542c:	00c11113          	slli	sp,sp,0xc
    80005430:	33210113          	addi	sp,sp,818
    80005434:	00c10463          	beq	sp,a2,8000543c <inst_317>
    80005438:	bedfa06f          	j	80000024 <rvtest_error>

000000008000543c <inst_317>:
    8000543c:	00000537          	lui	a0,0x0
    80005440:	fff50513          	addi	a0,a0,-1
    80005444:	00b51513          	slli	a0,a0,0xb
    80005448:	25750513          	addi	a0,a0,599
    8000544c:	00b51513          	slli	a0,a0,0xb
    80005450:	6c350513          	addi	a0,a0,1731
    80005454:	00a51513          	slli	a0,a0,0xa
    80005458:	0cd50513          	addi	a0,a0,205
    8000545c:	00300593          	li	a1,3
    80005460:	40b50633          	sub	a2,a0,a1
    80005464:	0ec0b823          	sd	a2,240(ra)
    80005468:	fff4b137          	lui	sp,0xfff4b
    8000546c:	fb11011b          	addiw	sp,sp,-79 # fffffffffff4afb1 <absimm+0xffffffff4523d4e1>
    80005470:	00c11113          	slli	sp,sp,0xc
    80005474:	cca10113          	addi	sp,sp,-822
    80005478:	00c10463          	beq	sp,a2,80005480 <inst_318>
    8000547c:	ba9fa06f          	j	80000024 <rvtest_error>

0000000080005480 <inst_318>:
    80005480:	00000537          	lui	a0,0x0
    80005484:	fff50513          	addi	a0,a0,-1
    80005488:	00b51513          	slli	a0,a0,0xb
    8000548c:	25750513          	addi	a0,a0,599
    80005490:	00b51513          	slli	a0,a0,0xb
    80005494:	6c350513          	addi	a0,a0,1731
    80005498:	00a51513          	slli	a0,a0,0xa
    8000549c:	0cd50513          	addi	a0,a0,205
    800054a0:	555555b7          	lui	a1,0x55555
    800054a4:	55558593          	addi	a1,a1,1365 # 55555555 <absimmsh+0x49a847a8>
    800054a8:	00b59593          	slli	a1,a1,0xb
    800054ac:	2aa58593          	addi	a1,a1,682
    800054b0:	00b59593          	slli	a1,a1,0xb
    800054b4:	55558593          	addi	a1,a1,1365
    800054b8:	00a59593          	slli	a1,a1,0xa
    800054bc:	15558593          	addi	a1,a1,341
    800054c0:	40b50633          	sub	a2,a0,a1
    800054c4:	0ec0bc23          	sd	a2,248(ra)
    800054c8:	fd555137          	lui	sp,0xfd555
    800054cc:	5551011b          	addiw	sp,sp,1365 # fffffffffd555555 <absimm+0xffffffff42847a85>
    800054d0:	00c11113          	slli	sp,sp,0xc
    800054d4:	4fb10113          	addi	sp,sp,1275
    800054d8:	00d11113          	slli	sp,sp,0xd
    800054dc:	a5b10113          	addi	sp,sp,-1445
    800054e0:	00c11113          	slli	sp,sp,0xc
    800054e4:	77810113          	addi	sp,sp,1912
    800054e8:	00c10463          	beq	sp,a2,800054f0 <inst_319>
    800054ec:	b39fa06f          	j	80000024 <rvtest_error>

00000000800054f0 <inst_319>:
    800054f0:	00000537          	lui	a0,0x0
    800054f4:	fff50513          	addi	a0,a0,-1
    800054f8:	00b51513          	slli	a0,a0,0xb
    800054fc:	25750513          	addi	a0,a0,599
    80005500:	00b51513          	slli	a0,a0,0xb
    80005504:	6c350513          	addi	a0,a0,1731
    80005508:	00a51513          	slli	a0,a0,0xa
    8000550c:	0cd50513          	addi	a0,a0,205
    80005510:	aaaab5b7          	lui	a1,0xaaaab
    80005514:	aaa58593          	addi	a1,a1,-1366 # ffffffffaaaaaaaa <absimm+0xfffffffeefd9cfda>
    80005518:	00b59593          	slli	a1,a1,0xb
    8000551c:	55558593          	addi	a1,a1,1365
    80005520:	00b59593          	slli	a1,a1,0xb
    80005524:	2aa58593          	addi	a1,a1,682
    80005528:	00a59593          	slli	a1,a1,0xa
    8000552c:	2aa58593          	addi	a1,a1,682
    80005530:	40b50633          	sub	a2,a0,a1
    80005534:	10c0b023          	sd	a2,256(ra)
    80005538:	002ab137          	lui	sp,0x2ab
    8000553c:	aab1011b          	addiw	sp,sp,-1365 # 2aaaab <offset+0x2aa6b3>
    80005540:	00c11113          	slli	sp,sp,0xc
    80005544:	aa510113          	addi	sp,sp,-1371
    80005548:	01011113          	slli	sp,sp,0x10
    8000554c:	28310113          	addi	sp,sp,643
    80005550:	00d11113          	slli	sp,sp,0xd
    80005554:	22310113          	addi	sp,sp,547
    80005558:	00c10463          	beq	sp,a2,80005560 <inst_320>
    8000555c:	ac9fa06f          	j	80000024 <rvtest_error>

0000000080005560 <inst_320>:
    80005560:	00000537          	lui	a0,0x0
    80005564:	fff50513          	addi	a0,a0,-1
    80005568:	00b51513          	slli	a0,a0,0xb
    8000556c:	25750513          	addi	a0,a0,599
    80005570:	00b51513          	slli	a0,a0,0xb
    80005574:	6c350513          	addi	a0,a0,1731
    80005578:	00a51513          	slli	a0,a0,0xa
    8000557c:	0cd50513          	addi	a0,a0,205
    80005580:	00500593          	li	a1,5
    80005584:	40b50633          	sub	a2,a0,a1
    80005588:	10c0b423          	sd	a2,264(ra)
    8000558c:	fff4b137          	lui	sp,0xfff4b
    80005590:	fb11011b          	addiw	sp,sp,-79 # fffffffffff4afb1 <absimm+0xffffffff4523d4e1>
    80005594:	00c11113          	slli	sp,sp,0xc
    80005598:	cc810113          	addi	sp,sp,-824
    8000559c:	00c10463          	beq	sp,a2,800055a4 <inst_321>
    800055a0:	a85fa06f          	j	80000024 <rvtest_error>

00000000800055a4 <inst_321>:
    800055a4:	00000537          	lui	a0,0x0
    800055a8:	fff50513          	addi	a0,a0,-1
    800055ac:	00b51513          	slli	a0,a0,0xb
    800055b0:	25750513          	addi	a0,a0,599
    800055b4:	00b51513          	slli	a0,a0,0xb
    800055b8:	6c350513          	addi	a0,a0,1731
    800055bc:	00a51513          	slli	a0,a0,0xa
    800055c0:	0cd50513          	addi	a0,a0,205
    800055c4:	333335b7          	lui	a1,0x33333
    800055c8:	33358593          	addi	a1,a1,819 # 33333333 <absimmsh+0x27862586>
    800055cc:	00b59593          	slli	a1,a1,0xb
    800055d0:	19958593          	addi	a1,a1,409
    800055d4:	00b59593          	slli	a1,a1,0xb
    800055d8:	4cc58593          	addi	a1,a1,1228
    800055dc:	00a59593          	slli	a1,a1,0xa
    800055e0:	33358593          	addi	a1,a1,819
    800055e4:	40b50633          	sub	a2,a0,a1
    800055e8:	10c0b823          	sd	a2,272(ra)
    800055ec:	ffccd137          	lui	sp,0xffccd
    800055f0:	ccd1011b          	addiw	sp,sp,-819 # ffffffffffcccccd <absimm+0xffffffff44fbf1fd>
    800055f4:	00d11113          	slli	sp,sp,0xd
    800055f8:	98310113          	addi	sp,sp,-1661
    800055fc:	00e11113          	slli	sp,sp,0xe
    80005600:	e3f10113          	addi	sp,sp,-449
    80005604:	00d11113          	slli	sp,sp,0xd
    80005608:	99a10113          	addi	sp,sp,-1638
    8000560c:	00c10463          	beq	sp,a2,80005614 <inst_322>
    80005610:	a15fa06f          	j	80000024 <rvtest_error>

0000000080005614 <inst_322>:
    80005614:	00000537          	lui	a0,0x0
    80005618:	fff50513          	addi	a0,a0,-1
    8000561c:	00b51513          	slli	a0,a0,0xb
    80005620:	25750513          	addi	a0,a0,599
    80005624:	00b51513          	slli	a0,a0,0xb
    80005628:	6c350513          	addi	a0,a0,1731
    8000562c:	00a51513          	slli	a0,a0,0xa
    80005630:	0cd50513          	addi	a0,a0,205
    80005634:	666665b7          	lui	a1,0x66666
    80005638:	66658593          	addi	a1,a1,1638 # 66666666 <absimmsh+0x5ab958b9>
    8000563c:	00b59593          	slli	a1,a1,0xb
    80005640:	33358593          	addi	a1,a1,819
    80005644:	00b59593          	slli	a1,a1,0xb
    80005648:	19958593          	addi	a1,a1,409
    8000564c:	00a59593          	slli	a1,a1,0xa
    80005650:	26658593          	addi	a1,a1,614
    80005654:	40b50633          	sub	a2,a0,a1
    80005658:	10c0bc23          	sd	a2,280(ra)
    8000565c:	ff333137          	lui	sp,0xff333
    80005660:	3331011b          	addiw	sp,sp,819 # ffffffffff333333 <absimm+0xffffffff44625863>
    80005664:	00d11113          	slli	sp,sp,0xd
    80005668:	63910113          	addi	sp,sp,1593
    8000566c:	00d11113          	slli	sp,sp,0xd
    80005670:	4a510113          	addi	sp,sp,1189
    80005674:	00d11113          	slli	sp,sp,0xd
    80005678:	66710113          	addi	sp,sp,1639
    8000567c:	00c10463          	beq	sp,a2,80005684 <inst_323>
    80005680:	9a5fa06f          	j	80000024 <rvtest_error>

0000000080005684 <inst_323>:
    80005684:	00000537          	lui	a0,0x0
    80005688:	fff50513          	addi	a0,a0,-1
    8000568c:	00b51513          	slli	a0,a0,0xb
    80005690:	25750513          	addi	a0,a0,599
    80005694:	00b51513          	slli	a0,a0,0xb
    80005698:	6c350513          	addi	a0,a0,1731
    8000569c:	00a51513          	slli	a0,a0,0xa
    800056a0:	0cd50513          	addi	a0,a0,205
    800056a4:	000005b7          	lui	a1,0x0
    800056a8:	fff58593          	addi	a1,a1,-1
    800056ac:	00b59593          	slli	a1,a1,0xb
    800056b0:	25758593          	addi	a1,a1,599
    800056b4:	00b59593          	slli	a1,a1,0xb
    800056b8:	6c358593          	addi	a1,a1,1731
    800056bc:	00a59593          	slli	a1,a1,0xa
    800056c0:	0cd58593          	addi	a1,a1,205
    800056c4:	40b50633          	sub	a2,a0,a1
    800056c8:	12c0b023          	sd	a2,288(ra)
    800056cc:	00000113          	li	sp,0
    800056d0:	00c10463          	beq	sp,a2,800056d8 <inst_324>
    800056d4:	951fa06f          	j	80000024 <rvtest_error>

00000000800056d8 <inst_324>:
    800056d8:	00000537          	lui	a0,0x0
    800056dc:	fff50513          	addi	a0,a0,-1
    800056e0:	00b51513          	slli	a0,a0,0xb
    800056e4:	25750513          	addi	a0,a0,599
    800056e8:	00b51513          	slli	a0,a0,0xb
    800056ec:	6c350513          	addi	a0,a0,1731
    800056f0:	00a51513          	slli	a0,a0,0xa
    800056f4:	0cd50513          	addi	a0,a0,205
    800056f8:	000005b7          	lui	a1,0x0
    800056fc:	00058593          	mv	a1,a1
    80005700:	00b59593          	slli	a1,a1,0xb
    80005704:	5a858593          	addi	a1,a1,1448 # 5a8 <offset+0x1b0>
    80005708:	00b59593          	slli	a1,a1,0xb
    8000570c:	13c58593          	addi	a1,a1,316
    80005710:	00a59593          	slli	a1,a1,0xa
    80005714:	33358593          	addi	a1,a1,819
    80005718:	40b50633          	sub	a2,a0,a1
    8000571c:	12c0b423          	sd	a2,296(ra)
    80005720:	fff4b137          	lui	sp,0xfff4b
    80005724:	fb11011b          	addiw	sp,sp,-79 # fffffffffff4afb1 <absimm+0xffffffff4523d4e1>
    80005728:	00d11113          	slli	sp,sp,0xd
    8000572c:	99a10113          	addi	sp,sp,-1638
    80005730:	00c10463          	beq	sp,a2,80005738 <inst_325>
    80005734:	8f1fa06f          	j	80000024 <rvtest_error>

0000000080005738 <inst_325>:
    80005738:	00000537          	lui	a0,0x0
    8000573c:	fff50513          	addi	a0,a0,-1
    80005740:	00b51513          	slli	a0,a0,0xb
    80005744:	25750513          	addi	a0,a0,599
    80005748:	00b51513          	slli	a0,a0,0xb
    8000574c:	6c350513          	addi	a0,a0,1731
    80005750:	00a51513          	slli	a0,a0,0xa
    80005754:	0cd50513          	addi	a0,a0,205
    80005758:	00200593          	li	a1,2
    8000575c:	40b50633          	sub	a2,a0,a1
    80005760:	12c0b823          	sd	a2,304(ra)
    80005764:	fff4b137          	lui	sp,0xfff4b
    80005768:	fb11011b          	addiw	sp,sp,-79 # fffffffffff4afb1 <absimm+0xffffffff4523d4e1>
    8000576c:	00c11113          	slli	sp,sp,0xc
    80005770:	ccb10113          	addi	sp,sp,-821
    80005774:	00c10463          	beq	sp,a2,8000577c <inst_326>
    80005778:	8adfa06f          	j	80000024 <rvtest_error>

000000008000577c <inst_326>:
    8000577c:	00000537          	lui	a0,0x0
    80005780:	fff50513          	addi	a0,a0,-1
    80005784:	00b51513          	slli	a0,a0,0xb
    80005788:	25750513          	addi	a0,a0,599
    8000578c:	00b51513          	slli	a0,a0,0xb
    80005790:	6c350513          	addi	a0,a0,1731
    80005794:	00a51513          	slli	a0,a0,0xa
    80005798:	0cd50513          	addi	a0,a0,205
    8000579c:	555555b7          	lui	a1,0x55555
    800057a0:	55558593          	addi	a1,a1,1365 # 55555555 <absimmsh+0x49a847a8>
    800057a4:	00b59593          	slli	a1,a1,0xb
    800057a8:	2aa58593          	addi	a1,a1,682
    800057ac:	00b59593          	slli	a1,a1,0xb
    800057b0:	55558593          	addi	a1,a1,1365
    800057b4:	00a59593          	slli	a1,a1,0xa
    800057b8:	15458593          	addi	a1,a1,340
    800057bc:	40b50633          	sub	a2,a0,a1
    800057c0:	12c0bc23          	sd	a2,312(ra)
    800057c4:	fd555137          	lui	sp,0xfd555
    800057c8:	5551011b          	addiw	sp,sp,1365 # fffffffffd555555 <absimm+0xffffffff42847a85>
    800057cc:	00c11113          	slli	sp,sp,0xc
    800057d0:	4fb10113          	addi	sp,sp,1275
    800057d4:	00d11113          	slli	sp,sp,0xd
    800057d8:	a5b10113          	addi	sp,sp,-1445
    800057dc:	00c11113          	slli	sp,sp,0xc
    800057e0:	77910113          	addi	sp,sp,1913
    800057e4:	00c10463          	beq	sp,a2,800057ec <inst_327>
    800057e8:	83dfa06f          	j	80000024 <rvtest_error>

00000000800057ec <inst_327>:
    800057ec:	00000537          	lui	a0,0x0
    800057f0:	fff50513          	addi	a0,a0,-1
    800057f4:	00b51513          	slli	a0,a0,0xb
    800057f8:	25750513          	addi	a0,a0,599
    800057fc:	00b51513          	slli	a0,a0,0xb
    80005800:	6c350513          	addi	a0,a0,1731
    80005804:	00a51513          	slli	a0,a0,0xa
    80005808:	0cd50513          	addi	a0,a0,205
    8000580c:	00000593          	li	a1,0
    80005810:	40b50633          	sub	a2,a0,a1
    80005814:	14c0b023          	sd	a2,320(ra)
    80005818:	fff4b137          	lui	sp,0xfff4b
    8000581c:	fb11011b          	addiw	sp,sp,-79 # fffffffffff4afb1 <absimm+0xffffffff4523d4e1>
    80005820:	00c11113          	slli	sp,sp,0xc
    80005824:	ccd10113          	addi	sp,sp,-819
    80005828:	00c10463          	beq	sp,a2,80005830 <inst_328>
    8000582c:	ff8fa06f          	j	80000024 <rvtest_error>

0000000080005830 <inst_328>:
    80005830:	00000537          	lui	a0,0x0
    80005834:	fff50513          	addi	a0,a0,-1
    80005838:	00b51513          	slli	a0,a0,0xb
    8000583c:	25750513          	addi	a0,a0,599
    80005840:	00b51513          	slli	a0,a0,0xb
    80005844:	6c350513          	addi	a0,a0,1731
    80005848:	00a51513          	slli	a0,a0,0xa
    8000584c:	0cd50513          	addi	a0,a0,205
    80005850:	00400593          	li	a1,4
    80005854:	40b50633          	sub	a2,a0,a1
    80005858:	14c0b423          	sd	a2,328(ra)
    8000585c:	fff4b137          	lui	sp,0xfff4b
    80005860:	fb11011b          	addiw	sp,sp,-79 # fffffffffff4afb1 <absimm+0xffffffff4523d4e1>
    80005864:	00c11113          	slli	sp,sp,0xc
    80005868:	cc910113          	addi	sp,sp,-823
    8000586c:	00c10463          	beq	sp,a2,80005874 <inst_329>
    80005870:	fb4fa06f          	j	80000024 <rvtest_error>

0000000080005874 <inst_329>:
    80005874:	00000537          	lui	a0,0x0
    80005878:	fff50513          	addi	a0,a0,-1
    8000587c:	00b51513          	slli	a0,a0,0xb
    80005880:	25750513          	addi	a0,a0,599
    80005884:	00b51513          	slli	a0,a0,0xb
    80005888:	6c350513          	addi	a0,a0,1731
    8000588c:	00a51513          	slli	a0,a0,0xa
    80005890:	0cd50513          	addi	a0,a0,205
    80005894:	333335b7          	lui	a1,0x33333
    80005898:	33358593          	addi	a1,a1,819 # 33333333 <absimmsh+0x27862586>
    8000589c:	00b59593          	slli	a1,a1,0xb
    800058a0:	19958593          	addi	a1,a1,409
    800058a4:	00b59593          	slli	a1,a1,0xb
    800058a8:	4cc58593          	addi	a1,a1,1228
    800058ac:	00a59593          	slli	a1,a1,0xa
    800058b0:	33258593          	addi	a1,a1,818
    800058b4:	40b50633          	sub	a2,a0,a1
    800058b8:	14c0b823          	sd	a2,336(ra)
    800058bc:	ffccd137          	lui	sp,0xffccd
    800058c0:	ccd1011b          	addiw	sp,sp,-819 # ffffffffffcccccd <absimm+0xffffffff44fbf1fd>
    800058c4:	00d11113          	slli	sp,sp,0xd
    800058c8:	98310113          	addi	sp,sp,-1661
    800058cc:	00e11113          	slli	sp,sp,0xe
    800058d0:	e3f10113          	addi	sp,sp,-449
    800058d4:	00d11113          	slli	sp,sp,0xd
    800058d8:	99b10113          	addi	sp,sp,-1637
    800058dc:	00c10463          	beq	sp,a2,800058e4 <inst_330>
    800058e0:	f44fa06f          	j	80000024 <rvtest_error>

00000000800058e4 <inst_330>:
    800058e4:	00000537          	lui	a0,0x0
    800058e8:	fff50513          	addi	a0,a0,-1
    800058ec:	00b51513          	slli	a0,a0,0xb
    800058f0:	25750513          	addi	a0,a0,599
    800058f4:	00b51513          	slli	a0,a0,0xb
    800058f8:	6c350513          	addi	a0,a0,1731
    800058fc:	00a51513          	slli	a0,a0,0xa
    80005900:	0cd50513          	addi	a0,a0,205
    80005904:	666665b7          	lui	a1,0x66666
    80005908:	66658593          	addi	a1,a1,1638 # 66666666 <absimmsh+0x5ab958b9>
    8000590c:	00b59593          	slli	a1,a1,0xb
    80005910:	33358593          	addi	a1,a1,819
    80005914:	00b59593          	slli	a1,a1,0xb
    80005918:	19958593          	addi	a1,a1,409
    8000591c:	00a59593          	slli	a1,a1,0xa
    80005920:	26558593          	addi	a1,a1,613
    80005924:	40b50633          	sub	a2,a0,a1
    80005928:	14c0bc23          	sd	a2,344(ra)
    8000592c:	ff333137          	lui	sp,0xff333
    80005930:	3331011b          	addiw	sp,sp,819 # ffffffffff333333 <absimm+0xffffffff44625863>
    80005934:	00d11113          	slli	sp,sp,0xd
    80005938:	63910113          	addi	sp,sp,1593
    8000593c:	00d11113          	slli	sp,sp,0xd
    80005940:	4a510113          	addi	sp,sp,1189
    80005944:	00d11113          	slli	sp,sp,0xd
    80005948:	66810113          	addi	sp,sp,1640
    8000594c:	00c10463          	beq	sp,a2,80005954 <inst_331>
    80005950:	ed4fa06f          	j	80000024 <rvtest_error>

0000000080005954 <inst_331>:
    80005954:	00000537          	lui	a0,0x0
    80005958:	fff50513          	addi	a0,a0,-1
    8000595c:	00b51513          	slli	a0,a0,0xb
    80005960:	25750513          	addi	a0,a0,599
    80005964:	00b51513          	slli	a0,a0,0xb
    80005968:	6c350513          	addi	a0,a0,1731
    8000596c:	00a51513          	slli	a0,a0,0xa
    80005970:	0cd50513          	addi	a0,a0,205
    80005974:	000005b7          	lui	a1,0x0
    80005978:	00058593          	mv	a1,a1
    8000597c:	00b59593          	slli	a1,a1,0xb
    80005980:	5a858593          	addi	a1,a1,1448 # 5a8 <offset+0x1b0>
    80005984:	00b59593          	slli	a1,a1,0xb
    80005988:	13c58593          	addi	a1,a1,316
    8000598c:	00a59593          	slli	a1,a1,0xa
    80005990:	33258593          	addi	a1,a1,818
    80005994:	40b50633          	sub	a2,a0,a1
    80005998:	16c0b023          	sd	a2,352(ra)
    8000599c:	fff4b137          	lui	sp,0xfff4b
    800059a0:	fb11011b          	addiw	sp,sp,-79 # fffffffffff4afb1 <absimm+0xffffffff4523d4e1>
    800059a4:	00d11113          	slli	sp,sp,0xd
    800059a8:	99b10113          	addi	sp,sp,-1637
    800059ac:	00c10463          	beq	sp,a2,800059b4 <inst_332>
    800059b0:	e74fa06f          	j	80000024 <rvtest_error>

00000000800059b4 <inst_332>:
    800059b4:	00000537          	lui	a0,0x0
    800059b8:	fff50513          	addi	a0,a0,-1
    800059bc:	00b51513          	slli	a0,a0,0xb
    800059c0:	25750513          	addi	a0,a0,599
    800059c4:	00b51513          	slli	a0,a0,0xb
    800059c8:	6c350513          	addi	a0,a0,1731
    800059cc:	00a51513          	slli	a0,a0,0xa
    800059d0:	0cd50513          	addi	a0,a0,205
    800059d4:	555555b7          	lui	a1,0x55555
    800059d8:	55558593          	addi	a1,a1,1365 # 55555555 <absimmsh+0x49a847a8>
    800059dc:	00b59593          	slli	a1,a1,0xb
    800059e0:	2aa58593          	addi	a1,a1,682
    800059e4:	00b59593          	slli	a1,a1,0xb
    800059e8:	55558593          	addi	a1,a1,1365
    800059ec:	00a59593          	slli	a1,a1,0xa
    800059f0:	15658593          	addi	a1,a1,342
    800059f4:	40b50633          	sub	a2,a0,a1
    800059f8:	16c0b423          	sd	a2,360(ra)
    800059fc:	fd555137          	lui	sp,0xfd555
    80005a00:	5551011b          	addiw	sp,sp,1365 # fffffffffd555555 <absimm+0xffffffff42847a85>
    80005a04:	00c11113          	slli	sp,sp,0xc
    80005a08:	4fb10113          	addi	sp,sp,1275
    80005a0c:	00d11113          	slli	sp,sp,0xd
    80005a10:	a5b10113          	addi	sp,sp,-1445
    80005a14:	00c11113          	slli	sp,sp,0xc
    80005a18:	77710113          	addi	sp,sp,1911
    80005a1c:	00c10463          	beq	sp,a2,80005a24 <inst_333>
    80005a20:	e04fa06f          	j	80000024 <rvtest_error>

0000000080005a24 <inst_333>:
    80005a24:	00000537          	lui	a0,0x0
    80005a28:	fff50513          	addi	a0,a0,-1
    80005a2c:	00b51513          	slli	a0,a0,0xb
    80005a30:	25750513          	addi	a0,a0,599
    80005a34:	00b51513          	slli	a0,a0,0xb
    80005a38:	6c350513          	addi	a0,a0,1731
    80005a3c:	00a51513          	slli	a0,a0,0xa
    80005a40:	0cd50513          	addi	a0,a0,205
    80005a44:	aaaab5b7          	lui	a1,0xaaaab
    80005a48:	aaa58593          	addi	a1,a1,-1366 # ffffffffaaaaaaaa <absimm+0xfffffffeefd9cfda>
    80005a4c:	00b59593          	slli	a1,a1,0xb
    80005a50:	55558593          	addi	a1,a1,1365
    80005a54:	00b59593          	slli	a1,a1,0xb
    80005a58:	2aa58593          	addi	a1,a1,682
    80005a5c:	00a59593          	slli	a1,a1,0xa
    80005a60:	2ab58593          	addi	a1,a1,683
    80005a64:	40b50633          	sub	a2,a0,a1
    80005a68:	16c0b823          	sd	a2,368(ra)
    80005a6c:	002ab137          	lui	sp,0x2ab
    80005a70:	aab1011b          	addiw	sp,sp,-1365 # 2aaaab <offset+0x2aa6b3>
    80005a74:	00c11113          	slli	sp,sp,0xc
    80005a78:	aa510113          	addi	sp,sp,-1371
    80005a7c:	01011113          	slli	sp,sp,0x10
    80005a80:	28310113          	addi	sp,sp,643
    80005a84:	00d11113          	slli	sp,sp,0xd
    80005a88:	22210113          	addi	sp,sp,546
    80005a8c:	00c10463          	beq	sp,a2,80005a94 <inst_334>
    80005a90:	d94fa06f          	j	80000024 <rvtest_error>

0000000080005a94 <inst_334>:
    80005a94:	00000537          	lui	a0,0x0
    80005a98:	fff50513          	addi	a0,a0,-1
    80005a9c:	00b51513          	slli	a0,a0,0xb
    80005aa0:	25750513          	addi	a0,a0,599
    80005aa4:	00b51513          	slli	a0,a0,0xb
    80005aa8:	6c350513          	addi	a0,a0,1731
    80005aac:	00a51513          	slli	a0,a0,0xa
    80005ab0:	0cd50513          	addi	a0,a0,205
    80005ab4:	00600593          	li	a1,6
    80005ab8:	40b50633          	sub	a2,a0,a1
    80005abc:	16c0bc23          	sd	a2,376(ra)
    80005ac0:	fff4b137          	lui	sp,0xfff4b
    80005ac4:	fb11011b          	addiw	sp,sp,-79 # fffffffffff4afb1 <absimm+0xffffffff4523d4e1>
    80005ac8:	00c11113          	slli	sp,sp,0xc
    80005acc:	cc710113          	addi	sp,sp,-825
    80005ad0:	00c10463          	beq	sp,a2,80005ad8 <inst_335>
    80005ad4:	d50fa06f          	j	80000024 <rvtest_error>

0000000080005ad8 <inst_335>:
    80005ad8:	00000537          	lui	a0,0x0
    80005adc:	fff50513          	addi	a0,a0,-1
    80005ae0:	00b51513          	slli	a0,a0,0xb
    80005ae4:	25750513          	addi	a0,a0,599
    80005ae8:	00b51513          	slli	a0,a0,0xb
    80005aec:	6c350513          	addi	a0,a0,1731
    80005af0:	00a51513          	slli	a0,a0,0xa
    80005af4:	0cd50513          	addi	a0,a0,205
    80005af8:	333335b7          	lui	a1,0x33333
    80005afc:	33358593          	addi	a1,a1,819 # 33333333 <absimmsh+0x27862586>
    80005b00:	00b59593          	slli	a1,a1,0xb
    80005b04:	19958593          	addi	a1,a1,409
    80005b08:	00b59593          	slli	a1,a1,0xb
    80005b0c:	4cc58593          	addi	a1,a1,1228
    80005b10:	00a59593          	slli	a1,a1,0xa
    80005b14:	33458593          	addi	a1,a1,820
    80005b18:	40b50633          	sub	a2,a0,a1
    80005b1c:	18c0b023          	sd	a2,384(ra)
    80005b20:	ffccd137          	lui	sp,0xffccd
    80005b24:	ccd1011b          	addiw	sp,sp,-819 # ffffffffffcccccd <absimm+0xffffffff44fbf1fd>
    80005b28:	00d11113          	slli	sp,sp,0xd
    80005b2c:	98310113          	addi	sp,sp,-1661
    80005b30:	00e11113          	slli	sp,sp,0xe
    80005b34:	e3f10113          	addi	sp,sp,-449
    80005b38:	00d11113          	slli	sp,sp,0xd
    80005b3c:	99910113          	addi	sp,sp,-1639
    80005b40:	00c10463          	beq	sp,a2,80005b48 <inst_336>
    80005b44:	ce0fa06f          	j	80000024 <rvtest_error>

0000000080005b48 <inst_336>:
    80005b48:	00000537          	lui	a0,0x0
    80005b4c:	fff50513          	addi	a0,a0,-1
    80005b50:	00b51513          	slli	a0,a0,0xb
    80005b54:	25750513          	addi	a0,a0,599
    80005b58:	00b51513          	slli	a0,a0,0xb
    80005b5c:	6c350513          	addi	a0,a0,1731
    80005b60:	00a51513          	slli	a0,a0,0xa
    80005b64:	0cd50513          	addi	a0,a0,205
    80005b68:	666665b7          	lui	a1,0x66666
    80005b6c:	66658593          	addi	a1,a1,1638 # 66666666 <absimmsh+0x5ab958b9>
    80005b70:	00b59593          	slli	a1,a1,0xb
    80005b74:	33358593          	addi	a1,a1,819
    80005b78:	00b59593          	slli	a1,a1,0xb
    80005b7c:	19958593          	addi	a1,a1,409
    80005b80:	00a59593          	slli	a1,a1,0xa
    80005b84:	26758593          	addi	a1,a1,615
    80005b88:	40b50633          	sub	a2,a0,a1
    80005b8c:	18c0b423          	sd	a2,392(ra)
    80005b90:	ff333137          	lui	sp,0xff333
    80005b94:	3331011b          	addiw	sp,sp,819 # ffffffffff333333 <absimm+0xffffffff44625863>
    80005b98:	00d11113          	slli	sp,sp,0xd
    80005b9c:	63910113          	addi	sp,sp,1593
    80005ba0:	00d11113          	slli	sp,sp,0xd
    80005ba4:	4a510113          	addi	sp,sp,1189
    80005ba8:	00d11113          	slli	sp,sp,0xd
    80005bac:	66610113          	addi	sp,sp,1638
    80005bb0:	00c10463          	beq	sp,a2,80005bb8 <inst_337>
    80005bb4:	c70fa06f          	j	80000024 <rvtest_error>

0000000080005bb8 <inst_337>:
    80005bb8:	00000537          	lui	a0,0x0
    80005bbc:	fff50513          	addi	a0,a0,-1
    80005bc0:	00b51513          	slli	a0,a0,0xb
    80005bc4:	25750513          	addi	a0,a0,599
    80005bc8:	00b51513          	slli	a0,a0,0xb
    80005bcc:	6c350513          	addi	a0,a0,1731
    80005bd0:	00a51513          	slli	a0,a0,0xa
    80005bd4:	0cd50513          	addi	a0,a0,205
    80005bd8:	000005b7          	lui	a1,0x0
    80005bdc:	fff58593          	addi	a1,a1,-1
    80005be0:	00b59593          	slli	a1,a1,0xb
    80005be4:	25758593          	addi	a1,a1,599
    80005be8:	00b59593          	slli	a1,a1,0xb
    80005bec:	6c358593          	addi	a1,a1,1731
    80005bf0:	00a59593          	slli	a1,a1,0xa
    80005bf4:	0ce58593          	addi	a1,a1,206
    80005bf8:	40b50633          	sub	a2,a0,a1
    80005bfc:	18c0b823          	sd	a2,400(ra)
    80005c00:	fff00113          	li	sp,-1
    80005c04:	00c10463          	beq	sp,a2,80005c0c <inst_338>
    80005c08:	c1cfa06f          	j	80000024 <rvtest_error>

0000000080005c0c <inst_338>:
    80005c0c:	00000537          	lui	a0,0x0
    80005c10:	fff50513          	addi	a0,a0,-1
    80005c14:	00b51513          	slli	a0,a0,0xb
    80005c18:	25750513          	addi	a0,a0,599
    80005c1c:	00b51513          	slli	a0,a0,0xb
    80005c20:	6c350513          	addi	a0,a0,1731
    80005c24:	00a51513          	slli	a0,a0,0xa
    80005c28:	0cd50513          	addi	a0,a0,205
    80005c2c:	000005b7          	lui	a1,0x0
    80005c30:	00058593          	mv	a1,a1
    80005c34:	00b59593          	slli	a1,a1,0xb
    80005c38:	5a858593          	addi	a1,a1,1448 # 5a8 <offset+0x1b0>
    80005c3c:	00b59593          	slli	a1,a1,0xb
    80005c40:	13c58593          	addi	a1,a1,316
    80005c44:	00a59593          	slli	a1,a1,0xa
    80005c48:	33458593          	addi	a1,a1,820
    80005c4c:	40b50633          	sub	a2,a0,a1
    80005c50:	18c0bc23          	sd	a2,408(ra)
    80005c54:	fff4b137          	lui	sp,0xfff4b
    80005c58:	fb11011b          	addiw	sp,sp,-79 # fffffffffff4afb1 <absimm+0xffffffff4523d4e1>
    80005c5c:	00d11113          	slli	sp,sp,0xd
    80005c60:	99910113          	addi	sp,sp,-1639
    80005c64:	00c10463          	beq	sp,a2,80005c6c <inst_339>
    80005c68:	bbcfa06f          	j	80000024 <rvtest_error>

0000000080005c6c <inst_339>:
    80005c6c:	00000537          	lui	a0,0x0
    80005c70:	00050513          	mv	a0,a0
    80005c74:	00b51513          	slli	a0,a0,0xb
    80005c78:	5a850513          	addi	a0,a0,1448 # 5a8 <offset+0x1b0>
    80005c7c:	00b51513          	slli	a0,a0,0xb
    80005c80:	13c50513          	addi	a0,a0,316
    80005c84:	00a51513          	slli	a0,a0,0xa
    80005c88:	33350513          	addi	a0,a0,819
    80005c8c:	00300593          	li	a1,3
    80005c90:	40b50633          	sub	a2,a0,a1
    80005c94:	1ac0b023          	sd	a2,416(ra)
    80005c98:	000b5137          	lui	sp,0xb5
    80005c9c:	04f1011b          	addiw	sp,sp,79 # b504f <offset+0xb4c57>
    80005ca0:	00c11113          	slli	sp,sp,0xc
    80005ca4:	33010113          	addi	sp,sp,816
    80005ca8:	00c10463          	beq	sp,a2,80005cb0 <inst_340>
    80005cac:	b78fa06f          	j	80000024 <rvtest_error>

0000000080005cb0 <inst_340>:
    80005cb0:	00000537          	lui	a0,0x0
    80005cb4:	00050513          	mv	a0,a0
    80005cb8:	00b51513          	slli	a0,a0,0xb
    80005cbc:	5a850513          	addi	a0,a0,1448 # 5a8 <offset+0x1b0>
    80005cc0:	00b51513          	slli	a0,a0,0xb
    80005cc4:	13c50513          	addi	a0,a0,316
    80005cc8:	00a51513          	slli	a0,a0,0xa
    80005ccc:	33350513          	addi	a0,a0,819
    80005cd0:	555555b7          	lui	a1,0x55555
    80005cd4:	55558593          	addi	a1,a1,1365 # 55555555 <absimmsh+0x49a847a8>
    80005cd8:	00b59593          	slli	a1,a1,0xb
    80005cdc:	2aa58593          	addi	a1,a1,682
    80005ce0:	00b59593          	slli	a1,a1,0xb
    80005ce4:	55558593          	addi	a1,a1,1365
    80005ce8:	00a59593          	slli	a1,a1,0xa
    80005cec:	15558593          	addi	a1,a1,341
    80005cf0:	40b50633          	sub	a2,a0,a1
    80005cf4:	1ac0b423          	sd	a2,424(ra)
    80005cf8:	ffd55137          	lui	sp,0xffd55
    80005cfc:	5551011b          	addiw	sp,sp,1365 # ffffffffffd55555 <absimm+0xffffffff45047a85>
    80005d00:	00c11113          	slli	sp,sp,0xc
    80005d04:	55b10113          	addi	sp,sp,1371
    80005d08:	01011113          	slli	sp,sp,0x10
    80005d0c:	d7d10113          	addi	sp,sp,-643
    80005d10:	00d11113          	slli	sp,sp,0xd
    80005d14:	dde10113          	addi	sp,sp,-546
    80005d18:	00c10463          	beq	sp,a2,80005d20 <inst_341>
    80005d1c:	b08fa06f          	j	80000024 <rvtest_error>

0000000080005d20 <inst_341>:
    80005d20:	00000537          	lui	a0,0x0
    80005d24:	00050513          	mv	a0,a0
    80005d28:	00b51513          	slli	a0,a0,0xb
    80005d2c:	5a850513          	addi	a0,a0,1448 # 5a8 <offset+0x1b0>
    80005d30:	00b51513          	slli	a0,a0,0xb
    80005d34:	13c50513          	addi	a0,a0,316
    80005d38:	00a51513          	slli	a0,a0,0xa
    80005d3c:	33350513          	addi	a0,a0,819
    80005d40:	aaaab5b7          	lui	a1,0xaaaab
    80005d44:	aaa58593          	addi	a1,a1,-1366 # ffffffffaaaaaaaa <absimm+0xfffffffeefd9cfda>
    80005d48:	00b59593          	slli	a1,a1,0xb
    80005d4c:	55558593          	addi	a1,a1,1365
    80005d50:	00b59593          	slli	a1,a1,0xb
    80005d54:	2aa58593          	addi	a1,a1,682
    80005d58:	00a59593          	slli	a1,a1,0xa
    80005d5c:	2aa58593          	addi	a1,a1,682
    80005d60:	40b50633          	sub	a2,a0,a1
    80005d64:	1ac0b823          	sd	a2,432(ra)
    80005d68:	02aab137          	lui	sp,0x2aab
    80005d6c:	aab1011b          	addiw	sp,sp,-1365 # 2aaaaab <offset+0x2aaa6b3>
    80005d70:	00c11113          	slli	sp,sp,0xc
    80005d74:	b0510113          	addi	sp,sp,-1275
    80005d78:	00d11113          	slli	sp,sp,0xd
    80005d7c:	5a510113          	addi	sp,sp,1445
    80005d80:	00c11113          	slli	sp,sp,0xc
    80005d84:	88910113          	addi	sp,sp,-1911
    80005d88:	00c10463          	beq	sp,a2,80005d90 <inst_342>
    80005d8c:	a98fa06f          	j	80000024 <rvtest_error>

0000000080005d90 <inst_342>:
    80005d90:	00000537          	lui	a0,0x0
    80005d94:	00050513          	mv	a0,a0
    80005d98:	00b51513          	slli	a0,a0,0xb
    80005d9c:	5a850513          	addi	a0,a0,1448 # 5a8 <offset+0x1b0>
    80005da0:	00b51513          	slli	a0,a0,0xb
    80005da4:	13c50513          	addi	a0,a0,316
    80005da8:	00a51513          	slli	a0,a0,0xa
    80005dac:	33350513          	addi	a0,a0,819
    80005db0:	00500593          	li	a1,5
    80005db4:	40b50633          	sub	a2,a0,a1
    80005db8:	1ac0bc23          	sd	a2,440(ra)
    80005dbc:	000b5137          	lui	sp,0xb5
    80005dc0:	04f1011b          	addiw	sp,sp,79 # b504f <offset+0xb4c57>
    80005dc4:	00c11113          	slli	sp,sp,0xc
    80005dc8:	32e10113          	addi	sp,sp,814
    80005dcc:	00c10463          	beq	sp,a2,80005dd4 <inst_343>
    80005dd0:	a54fa06f          	j	80000024 <rvtest_error>

0000000080005dd4 <inst_343>:
    80005dd4:	00000537          	lui	a0,0x0
    80005dd8:	00050513          	mv	a0,a0
    80005ddc:	00b51513          	slli	a0,a0,0xb
    80005de0:	5a850513          	addi	a0,a0,1448 # 5a8 <offset+0x1b0>
    80005de4:	00b51513          	slli	a0,a0,0xb
    80005de8:	13c50513          	addi	a0,a0,316
    80005dec:	00a51513          	slli	a0,a0,0xa
    80005df0:	33350513          	addi	a0,a0,819
    80005df4:	333335b7          	lui	a1,0x33333
    80005df8:	33358593          	addi	a1,a1,819 # 33333333 <absimmsh+0x27862586>
    80005dfc:	00b59593          	slli	a1,a1,0xb
    80005e00:	19958593          	addi	a1,a1,409
    80005e04:	00b59593          	slli	a1,a1,0xb
    80005e08:	4cc58593          	addi	a1,a1,1228
    80005e0c:	00a59593          	slli	a1,a1,0xa
    80005e10:	33358593          	addi	a1,a1,819
    80005e14:	40b50633          	sub	a2,a0,a1
    80005e18:	1cc0b023          	sd	a2,448(ra)
    80005e1c:	9999a137          	lui	sp,0x9999a
    80005e20:	99b1011b          	addiw	sp,sp,-1637 # ffffffff9999999b <absimm+0xfffffffedec8becb>
    80005e24:	01111113          	slli	sp,sp,0x11
    80005e28:	74710113          	addi	sp,sp,1863
    80005e2c:	00e11113          	slli	sp,sp,0xe
    80005e30:	00c10463          	beq	sp,a2,80005e38 <inst_344>
    80005e34:	9f0fa06f          	j	80000024 <rvtest_error>

0000000080005e38 <inst_344>:
    80005e38:	00000537          	lui	a0,0x0
    80005e3c:	00050513          	mv	a0,a0
    80005e40:	00b51513          	slli	a0,a0,0xb
    80005e44:	5a850513          	addi	a0,a0,1448 # 5a8 <offset+0x1b0>
    80005e48:	00b51513          	slli	a0,a0,0xb
    80005e4c:	13c50513          	addi	a0,a0,316
    80005e50:	00a51513          	slli	a0,a0,0xa
    80005e54:	33350513          	addi	a0,a0,819
    80005e58:	666665b7          	lui	a1,0x66666
    80005e5c:	66658593          	addi	a1,a1,1638 # 66666666 <absimmsh+0x5ab958b9>
    80005e60:	00b59593          	slli	a1,a1,0xb
    80005e64:	33358593          	addi	a1,a1,819
    80005e68:	00b59593          	slli	a1,a1,0xb
    80005e6c:	19958593          	addi	a1,a1,409
    80005e70:	00a59593          	slli	a1,a1,0xa
    80005e74:	26658593          	addi	a1,a1,614
    80005e78:	40b50633          	sub	a2,a0,a1
    80005e7c:	1cc0b423          	sd	a2,456(ra)
    80005e80:	fcccd137          	lui	sp,0xfcccd
    80005e84:	ccd1011b          	addiw	sp,sp,-819 # fffffffffccccccd <absimm+0xffffffff41fbf1fd>
    80005e88:	00d11113          	slli	sp,sp,0xd
    80005e8c:	a4f10113          	addi	sp,sp,-1457
    80005e90:	00c11113          	slli	sp,sp,0xc
    80005e94:	9e910113          	addi	sp,sp,-1559
    80005e98:	00c11113          	slli	sp,sp,0xc
    80005e9c:	ccd10113          	addi	sp,sp,-819
    80005ea0:	00c10463          	beq	sp,a2,80005ea8 <inst_345>
    80005ea4:	980fa06f          	j	80000024 <rvtest_error>

0000000080005ea8 <inst_345>:
    80005ea8:	00000537          	lui	a0,0x0
    80005eac:	00050513          	mv	a0,a0
    80005eb0:	00b51513          	slli	a0,a0,0xb
    80005eb4:	5a850513          	addi	a0,a0,1448 # 5a8 <offset+0x1b0>
    80005eb8:	00b51513          	slli	a0,a0,0xb
    80005ebc:	13c50513          	addi	a0,a0,316
    80005ec0:	00a51513          	slli	a0,a0,0xa
    80005ec4:	33350513          	addi	a0,a0,819
    80005ec8:	000005b7          	lui	a1,0x0
    80005ecc:	fff58593          	addi	a1,a1,-1
    80005ed0:	00b59593          	slli	a1,a1,0xb
    80005ed4:	25758593          	addi	a1,a1,599
    80005ed8:	00b59593          	slli	a1,a1,0xb
    80005edc:	6c358593          	addi	a1,a1,1731
    80005ee0:	00a59593          	slli	a1,a1,0xa
    80005ee4:	0cd58593          	addi	a1,a1,205
    80005ee8:	40b50633          	sub	a2,a0,a1
    80005eec:	1cc0b823          	sd	a2,464(ra)
    80005ef0:	000b5137          	lui	sp,0xb5
    80005ef4:	04f1011b          	addiw	sp,sp,79 # b504f <offset+0xb4c57>
    80005ef8:	00d11113          	slli	sp,sp,0xd
    80005efc:	66610113          	addi	sp,sp,1638
    80005f00:	00c10463          	beq	sp,a2,80005f08 <inst_346>
    80005f04:	920fa06f          	j	80000024 <rvtest_error>

0000000080005f08 <inst_346>:
    80005f08:	00000537          	lui	a0,0x0
    80005f0c:	00050513          	mv	a0,a0
    80005f10:	00b51513          	slli	a0,a0,0xb
    80005f14:	5a850513          	addi	a0,a0,1448 # 5a8 <offset+0x1b0>
    80005f18:	00b51513          	slli	a0,a0,0xb
    80005f1c:	13c50513          	addi	a0,a0,316
    80005f20:	00a51513          	slli	a0,a0,0xa
    80005f24:	33350513          	addi	a0,a0,819
    80005f28:	000005b7          	lui	a1,0x0
    80005f2c:	00058593          	mv	a1,a1
    80005f30:	00b59593          	slli	a1,a1,0xb
    80005f34:	5a858593          	addi	a1,a1,1448 # 5a8 <offset+0x1b0>
    80005f38:	00b59593          	slli	a1,a1,0xb
    80005f3c:	13c58593          	addi	a1,a1,316
    80005f40:	00a59593          	slli	a1,a1,0xa
    80005f44:	33358593          	addi	a1,a1,819
    80005f48:	40b50633          	sub	a2,a0,a1
    80005f4c:	1cc0bc23          	sd	a2,472(ra)
    80005f50:	00000113          	li	sp,0
    80005f54:	00c10463          	beq	sp,a2,80005f5c <inst_347>
    80005f58:	8ccfa06f          	j	80000024 <rvtest_error>

0000000080005f5c <inst_347>:
    80005f5c:	00000537          	lui	a0,0x0
    80005f60:	00050513          	mv	a0,a0
    80005f64:	00b51513          	slli	a0,a0,0xb
    80005f68:	5a850513          	addi	a0,a0,1448 # 5a8 <offset+0x1b0>
    80005f6c:	00b51513          	slli	a0,a0,0xb
    80005f70:	13c50513          	addi	a0,a0,316
    80005f74:	00a51513          	slli	a0,a0,0xa
    80005f78:	33350513          	addi	a0,a0,819
    80005f7c:	00200593          	li	a1,2
    80005f80:	40b50633          	sub	a2,a0,a1
    80005f84:	1ec0b023          	sd	a2,480(ra)
    80005f88:	000b5137          	lui	sp,0xb5
    80005f8c:	04f1011b          	addiw	sp,sp,79 # b504f <offset+0xb4c57>
    80005f90:	00c11113          	slli	sp,sp,0xc
    80005f94:	33110113          	addi	sp,sp,817
    80005f98:	00c10463          	beq	sp,a2,80005fa0 <inst_348>
    80005f9c:	888fa06f          	j	80000024 <rvtest_error>

0000000080005fa0 <inst_348>:
    80005fa0:	00000537          	lui	a0,0x0
    80005fa4:	00050513          	mv	a0,a0
    80005fa8:	00b51513          	slli	a0,a0,0xb
    80005fac:	5a850513          	addi	a0,a0,1448 # 5a8 <offset+0x1b0>
    80005fb0:	00b51513          	slli	a0,a0,0xb
    80005fb4:	13c50513          	addi	a0,a0,316
    80005fb8:	00a51513          	slli	a0,a0,0xa
    80005fbc:	33350513          	addi	a0,a0,819
    80005fc0:	555555b7          	lui	a1,0x55555
    80005fc4:	55558593          	addi	a1,a1,1365 # 55555555 <absimmsh+0x49a847a8>
    80005fc8:	00b59593          	slli	a1,a1,0xb
    80005fcc:	2aa58593          	addi	a1,a1,682
    80005fd0:	00b59593          	slli	a1,a1,0xb
    80005fd4:	55558593          	addi	a1,a1,1365
    80005fd8:	00a59593          	slli	a1,a1,0xa
    80005fdc:	15458593          	addi	a1,a1,340
    80005fe0:	40b50633          	sub	a2,a0,a1
    80005fe4:	1ec0b423          	sd	a2,488(ra)
    80005fe8:	ffd55137          	lui	sp,0xffd55
    80005fec:	5551011b          	addiw	sp,sp,1365 # ffffffffffd55555 <absimm+0xffffffff45047a85>
    80005ff0:	00c11113          	slli	sp,sp,0xc
    80005ff4:	55b10113          	addi	sp,sp,1371
    80005ff8:	01011113          	slli	sp,sp,0x10
    80005ffc:	d7d10113          	addi	sp,sp,-643
    80006000:	00d11113          	slli	sp,sp,0xd
    80006004:	ddf10113          	addi	sp,sp,-545
    80006008:	00c10463          	beq	sp,a2,80006010 <inst_349>
    8000600c:	818fa06f          	j	80000024 <rvtest_error>

0000000080006010 <inst_349>:
    80006010:	00000537          	lui	a0,0x0
    80006014:	00050513          	mv	a0,a0
    80006018:	00b51513          	slli	a0,a0,0xb
    8000601c:	5a850513          	addi	a0,a0,1448 # 5a8 <offset+0x1b0>
    80006020:	00b51513          	slli	a0,a0,0xb
    80006024:	13c50513          	addi	a0,a0,316
    80006028:	00a51513          	slli	a0,a0,0xa
    8000602c:	33350513          	addi	a0,a0,819
    80006030:	00000593          	li	a1,0
    80006034:	40b50633          	sub	a2,a0,a1
    80006038:	1ec0b823          	sd	a2,496(ra)
    8000603c:	000b5137          	lui	sp,0xb5
    80006040:	04f1011b          	addiw	sp,sp,79 # b504f <offset+0xb4c57>
    80006044:	00c11113          	slli	sp,sp,0xc
    80006048:	33310113          	addi	sp,sp,819
    8000604c:	00c10463          	beq	sp,a2,80006054 <inst_350>
    80006050:	fd5f906f          	j	80000024 <rvtest_error>

0000000080006054 <inst_350>:
    80006054:	00000537          	lui	a0,0x0
    80006058:	00050513          	mv	a0,a0
    8000605c:	00b51513          	slli	a0,a0,0xb
    80006060:	5a850513          	addi	a0,a0,1448 # 5a8 <offset+0x1b0>
    80006064:	00b51513          	slli	a0,a0,0xb
    80006068:	13c50513          	addi	a0,a0,316
    8000606c:	00a51513          	slli	a0,a0,0xa
    80006070:	33350513          	addi	a0,a0,819
    80006074:	00400593          	li	a1,4
    80006078:	40b50633          	sub	a2,a0,a1
    8000607c:	1ec0bc23          	sd	a2,504(ra)
    80006080:	000b5137          	lui	sp,0xb5
    80006084:	04f1011b          	addiw	sp,sp,79 # b504f <offset+0xb4c57>
    80006088:	00c11113          	slli	sp,sp,0xc
    8000608c:	32f10113          	addi	sp,sp,815
    80006090:	00c10463          	beq	sp,a2,80006098 <inst_351>
    80006094:	f91f906f          	j	80000024 <rvtest_error>

0000000080006098 <inst_351>:
    80006098:	00000537          	lui	a0,0x0
    8000609c:	00050513          	mv	a0,a0
    800060a0:	00b51513          	slli	a0,a0,0xb
    800060a4:	5a850513          	addi	a0,a0,1448 # 5a8 <offset+0x1b0>
    800060a8:	00b51513          	slli	a0,a0,0xb
    800060ac:	13c50513          	addi	a0,a0,316
    800060b0:	00a51513          	slli	a0,a0,0xa
    800060b4:	33350513          	addi	a0,a0,819
    800060b8:	333335b7          	lui	a1,0x33333
    800060bc:	33358593          	addi	a1,a1,819 # 33333333 <absimmsh+0x27862586>
    800060c0:	00b59593          	slli	a1,a1,0xb
    800060c4:	19958593          	addi	a1,a1,409
    800060c8:	00b59593          	slli	a1,a1,0xb
    800060cc:	4cc58593          	addi	a1,a1,1228
    800060d0:	00a59593          	slli	a1,a1,0xa
    800060d4:	33258593          	addi	a1,a1,818
    800060d8:	40b50633          	sub	a2,a0,a1
    800060dc:	20c0b023          	sd	a2,512(ra)
    800060e0:	9999a137          	lui	sp,0x9999a
    800060e4:	99b1011b          	addiw	sp,sp,-1637 # ffffffff9999999b <absimm+0xfffffffedec8becb>
    800060e8:	01111113          	slli	sp,sp,0x11
    800060ec:	74710113          	addi	sp,sp,1863
    800060f0:	00e11113          	slli	sp,sp,0xe
    800060f4:	00110113          	addi	sp,sp,1
    800060f8:	00c10463          	beq	sp,a2,80006100 <inst_352>
    800060fc:	f29f906f          	j	80000024 <rvtest_error>

0000000080006100 <inst_352>:
    80006100:	00000537          	lui	a0,0x0
    80006104:	00050513          	mv	a0,a0
    80006108:	00b51513          	slli	a0,a0,0xb
    8000610c:	5a850513          	addi	a0,a0,1448 # 5a8 <offset+0x1b0>
    80006110:	00b51513          	slli	a0,a0,0xb
    80006114:	13c50513          	addi	a0,a0,316
    80006118:	00a51513          	slli	a0,a0,0xa
    8000611c:	33350513          	addi	a0,a0,819
    80006120:	666665b7          	lui	a1,0x66666
    80006124:	66658593          	addi	a1,a1,1638 # 66666666 <absimmsh+0x5ab958b9>
    80006128:	00b59593          	slli	a1,a1,0xb
    8000612c:	33358593          	addi	a1,a1,819
    80006130:	00b59593          	slli	a1,a1,0xb
    80006134:	19958593          	addi	a1,a1,409
    80006138:	00a59593          	slli	a1,a1,0xa
    8000613c:	26558593          	addi	a1,a1,613
    80006140:	40b50633          	sub	a2,a0,a1
    80006144:	20c0b423          	sd	a2,520(ra)
    80006148:	fcccd137          	lui	sp,0xfcccd
    8000614c:	ccd1011b          	addiw	sp,sp,-819 # fffffffffccccccd <absimm+0xffffffff41fbf1fd>
    80006150:	00d11113          	slli	sp,sp,0xd
    80006154:	a4f10113          	addi	sp,sp,-1457
    80006158:	00c11113          	slli	sp,sp,0xc
    8000615c:	9e910113          	addi	sp,sp,-1559
    80006160:	00c11113          	slli	sp,sp,0xc
    80006164:	cce10113          	addi	sp,sp,-818
    80006168:	00c10463          	beq	sp,a2,80006170 <inst_353>
    8000616c:	eb9f906f          	j	80000024 <rvtest_error>

0000000080006170 <inst_353>:
    80006170:	00000537          	lui	a0,0x0
    80006174:	00050513          	mv	a0,a0
    80006178:	00b51513          	slli	a0,a0,0xb
    8000617c:	5a850513          	addi	a0,a0,1448 # 5a8 <offset+0x1b0>
    80006180:	00b51513          	slli	a0,a0,0xb
    80006184:	13c50513          	addi	a0,a0,316
    80006188:	00a51513          	slli	a0,a0,0xa
    8000618c:	33350513          	addi	a0,a0,819
    80006190:	000005b7          	lui	a1,0x0
    80006194:	00058593          	mv	a1,a1
    80006198:	00b59593          	slli	a1,a1,0xb
    8000619c:	5a858593          	addi	a1,a1,1448 # 5a8 <offset+0x1b0>
    800061a0:	00b59593          	slli	a1,a1,0xb
    800061a4:	13c58593          	addi	a1,a1,316
    800061a8:	00a59593          	slli	a1,a1,0xa
    800061ac:	33258593          	addi	a1,a1,818
    800061b0:	40b50633          	sub	a2,a0,a1
    800061b4:	20c0b823          	sd	a2,528(ra)
    800061b8:	00100113          	li	sp,1
    800061bc:	00c10463          	beq	sp,a2,800061c4 <inst_354>
    800061c0:	e65f906f          	j	80000024 <rvtest_error>

00000000800061c4 <inst_354>:
    800061c4:	00000537          	lui	a0,0x0
    800061c8:	00050513          	mv	a0,a0
    800061cc:	00b51513          	slli	a0,a0,0xb
    800061d0:	5a850513          	addi	a0,a0,1448 # 5a8 <offset+0x1b0>
    800061d4:	00b51513          	slli	a0,a0,0xb
    800061d8:	13c50513          	addi	a0,a0,316
    800061dc:	00a51513          	slli	a0,a0,0xa
    800061e0:	33350513          	addi	a0,a0,819
    800061e4:	555555b7          	lui	a1,0x55555
    800061e8:	55558593          	addi	a1,a1,1365 # 55555555 <absimmsh+0x49a847a8>
    800061ec:	00b59593          	slli	a1,a1,0xb
    800061f0:	2aa58593          	addi	a1,a1,682
    800061f4:	00b59593          	slli	a1,a1,0xb
    800061f8:	55558593          	addi	a1,a1,1365
    800061fc:	00a59593          	slli	a1,a1,0xa
    80006200:	15658593          	addi	a1,a1,342
    80006204:	40b50633          	sub	a2,a0,a1
    80006208:	20c0bc23          	sd	a2,536(ra)
    8000620c:	ffd55137          	lui	sp,0xffd55
    80006210:	5551011b          	addiw	sp,sp,1365 # ffffffffffd55555 <absimm+0xffffffff45047a85>
    80006214:	00c11113          	slli	sp,sp,0xc
    80006218:	55b10113          	addi	sp,sp,1371
    8000621c:	01011113          	slli	sp,sp,0x10
    80006220:	d7d10113          	addi	sp,sp,-643
    80006224:	00d11113          	slli	sp,sp,0xd
    80006228:	ddd10113          	addi	sp,sp,-547
    8000622c:	00c10463          	beq	sp,a2,80006234 <inst_355>
    80006230:	df5f906f          	j	80000024 <rvtest_error>

0000000080006234 <inst_355>:
    80006234:	00000537          	lui	a0,0x0
    80006238:	00050513          	mv	a0,a0
    8000623c:	00b51513          	slli	a0,a0,0xb
    80006240:	5a850513          	addi	a0,a0,1448 # 5a8 <offset+0x1b0>
    80006244:	00b51513          	slli	a0,a0,0xb
    80006248:	13c50513          	addi	a0,a0,316
    8000624c:	00a51513          	slli	a0,a0,0xa
    80006250:	33350513          	addi	a0,a0,819
    80006254:	aaaab5b7          	lui	a1,0xaaaab
    80006258:	aaa58593          	addi	a1,a1,-1366 # ffffffffaaaaaaaa <absimm+0xfffffffeefd9cfda>
    8000625c:	00b59593          	slli	a1,a1,0xb
    80006260:	55558593          	addi	a1,a1,1365
    80006264:	00b59593          	slli	a1,a1,0xb
    80006268:	2aa58593          	addi	a1,a1,682
    8000626c:	00a59593          	slli	a1,a1,0xa
    80006270:	2ab58593          	addi	a1,a1,683
    80006274:	40b50633          	sub	a2,a0,a1
    80006278:	22c0b023          	sd	a2,544(ra)
    8000627c:	02aab137          	lui	sp,0x2aab
    80006280:	aab1011b          	addiw	sp,sp,-1365 # 2aaaaab <offset+0x2aaa6b3>
    80006284:	00c11113          	slli	sp,sp,0xc
    80006288:	b0510113          	addi	sp,sp,-1275
    8000628c:	00d11113          	slli	sp,sp,0xd
    80006290:	5a510113          	addi	sp,sp,1445
    80006294:	00c11113          	slli	sp,sp,0xc
    80006298:	88810113          	addi	sp,sp,-1912
    8000629c:	00c10463          	beq	sp,a2,800062a4 <inst_356>
    800062a0:	d85f906f          	j	80000024 <rvtest_error>

00000000800062a4 <inst_356>:
    800062a4:	00000537          	lui	a0,0x0
    800062a8:	00050513          	mv	a0,a0
    800062ac:	00b51513          	slli	a0,a0,0xb
    800062b0:	5a850513          	addi	a0,a0,1448 # 5a8 <offset+0x1b0>
    800062b4:	00b51513          	slli	a0,a0,0xb
    800062b8:	13c50513          	addi	a0,a0,316
    800062bc:	00a51513          	slli	a0,a0,0xa
    800062c0:	33350513          	addi	a0,a0,819
    800062c4:	00600593          	li	a1,6
    800062c8:	40b50633          	sub	a2,a0,a1
    800062cc:	22c0b423          	sd	a2,552(ra)
    800062d0:	000b5137          	lui	sp,0xb5
    800062d4:	04f1011b          	addiw	sp,sp,79 # b504f <offset+0xb4c57>
    800062d8:	00c11113          	slli	sp,sp,0xc
    800062dc:	32d10113          	addi	sp,sp,813
    800062e0:	00c10463          	beq	sp,a2,800062e8 <inst_357>
    800062e4:	d41f906f          	j	80000024 <rvtest_error>

00000000800062e8 <inst_357>:
    800062e8:	00000537          	lui	a0,0x0
    800062ec:	00050513          	mv	a0,a0
    800062f0:	00b51513          	slli	a0,a0,0xb
    800062f4:	5a850513          	addi	a0,a0,1448 # 5a8 <offset+0x1b0>
    800062f8:	00b51513          	slli	a0,a0,0xb
    800062fc:	13c50513          	addi	a0,a0,316
    80006300:	00a51513          	slli	a0,a0,0xa
    80006304:	33350513          	addi	a0,a0,819
    80006308:	333335b7          	lui	a1,0x33333
    8000630c:	33358593          	addi	a1,a1,819 # 33333333 <absimmsh+0x27862586>
    80006310:	00b59593          	slli	a1,a1,0xb
    80006314:	19958593          	addi	a1,a1,409
    80006318:	00b59593          	slli	a1,a1,0xb
    8000631c:	4cc58593          	addi	a1,a1,1228
    80006320:	00a59593          	slli	a1,a1,0xa
    80006324:	33458593          	addi	a1,a1,820
    80006328:	40b50633          	sub	a2,a0,a1
    8000632c:	22c0b823          	sd	a2,560(ra)
    80006330:	9999a137          	lui	sp,0x9999a
    80006334:	99b1011b          	addiw	sp,sp,-1637 # ffffffff9999999b <absimm+0xfffffffedec8becb>
    80006338:	01111113          	slli	sp,sp,0x11
    8000633c:	74710113          	addi	sp,sp,1863
    80006340:	00e11113          	slli	sp,sp,0xe
    80006344:	fff10113          	addi	sp,sp,-1
    80006348:	00c10463          	beq	sp,a2,80006350 <inst_358>
    8000634c:	cd9f906f          	j	80000024 <rvtest_error>

0000000080006350 <inst_358>:
    80006350:	00000537          	lui	a0,0x0
    80006354:	00050513          	mv	a0,a0
    80006358:	00b51513          	slli	a0,a0,0xb
    8000635c:	5a850513          	addi	a0,a0,1448 # 5a8 <offset+0x1b0>
    80006360:	00b51513          	slli	a0,a0,0xb
    80006364:	13c50513          	addi	a0,a0,316
    80006368:	00a51513          	slli	a0,a0,0xa
    8000636c:	33350513          	addi	a0,a0,819
    80006370:	666665b7          	lui	a1,0x66666
    80006374:	66658593          	addi	a1,a1,1638 # 66666666 <absimmsh+0x5ab958b9>
    80006378:	00b59593          	slli	a1,a1,0xb
    8000637c:	33358593          	addi	a1,a1,819
    80006380:	00b59593          	slli	a1,a1,0xb
    80006384:	19958593          	addi	a1,a1,409
    80006388:	00a59593          	slli	a1,a1,0xa
    8000638c:	26758593          	addi	a1,a1,615
    80006390:	40b50633          	sub	a2,a0,a1
    80006394:	22c0bc23          	sd	a2,568(ra)
    80006398:	fcccd137          	lui	sp,0xfcccd
    8000639c:	ccd1011b          	addiw	sp,sp,-819 # fffffffffccccccd <absimm+0xffffffff41fbf1fd>
    800063a0:	00d11113          	slli	sp,sp,0xd
    800063a4:	a4f10113          	addi	sp,sp,-1457
    800063a8:	00c11113          	slli	sp,sp,0xc
    800063ac:	9e910113          	addi	sp,sp,-1559
    800063b0:	00c11113          	slli	sp,sp,0xc
    800063b4:	ccc10113          	addi	sp,sp,-820
    800063b8:	00c10463          	beq	sp,a2,800063c0 <inst_359>
    800063bc:	c69f906f          	j	80000024 <rvtest_error>

00000000800063c0 <inst_359>:
    800063c0:	00000537          	lui	a0,0x0
    800063c4:	00050513          	mv	a0,a0
    800063c8:	00b51513          	slli	a0,a0,0xb
    800063cc:	5a850513          	addi	a0,a0,1448 # 5a8 <offset+0x1b0>
    800063d0:	00b51513          	slli	a0,a0,0xb
    800063d4:	13c50513          	addi	a0,a0,316
    800063d8:	00a51513          	slli	a0,a0,0xa
    800063dc:	33350513          	addi	a0,a0,819
    800063e0:	000005b7          	lui	a1,0x0
    800063e4:	fff58593          	addi	a1,a1,-1
    800063e8:	00b59593          	slli	a1,a1,0xb
    800063ec:	25758593          	addi	a1,a1,599
    800063f0:	00b59593          	slli	a1,a1,0xb
    800063f4:	6c358593          	addi	a1,a1,1731
    800063f8:	00a59593          	slli	a1,a1,0xa
    800063fc:	0ce58593          	addi	a1,a1,206
    80006400:	40b50633          	sub	a2,a0,a1
    80006404:	24c0b023          	sd	a2,576(ra)
    80006408:	000b5137          	lui	sp,0xb5
    8000640c:	04f1011b          	addiw	sp,sp,79 # b504f <offset+0xb4c57>
    80006410:	00d11113          	slli	sp,sp,0xd
    80006414:	66510113          	addi	sp,sp,1637
    80006418:	00c10463          	beq	sp,a2,80006420 <inst_360>
    8000641c:	c09f906f          	j	80000024 <rvtest_error>

0000000080006420 <inst_360>:
    80006420:	00000537          	lui	a0,0x0
    80006424:	00050513          	mv	a0,a0
    80006428:	00b51513          	slli	a0,a0,0xb
    8000642c:	5a850513          	addi	a0,a0,1448 # 5a8 <offset+0x1b0>
    80006430:	00b51513          	slli	a0,a0,0xb
    80006434:	13c50513          	addi	a0,a0,316
    80006438:	00a51513          	slli	a0,a0,0xa
    8000643c:	33350513          	addi	a0,a0,819
    80006440:	000005b7          	lui	a1,0x0
    80006444:	00058593          	mv	a1,a1
    80006448:	00b59593          	slli	a1,a1,0xb
    8000644c:	5a858593          	addi	a1,a1,1448 # 5a8 <offset+0x1b0>
    80006450:	00b59593          	slli	a1,a1,0xb
    80006454:	13c58593          	addi	a1,a1,316
    80006458:	00a59593          	slli	a1,a1,0xa
    8000645c:	33458593          	addi	a1,a1,820
    80006460:	40b50633          	sub	a2,a0,a1
    80006464:	24c0b423          	sd	a2,584(ra)
    80006468:	fff00113          	li	sp,-1
    8000646c:	00c10463          	beq	sp,a2,80006474 <inst_361>
    80006470:	bb5f906f          	j	80000024 <rvtest_error>

0000000080006474 <inst_361>:
    80006474:	00200513          	li	a0,2
    80006478:	00300593          	li	a1,3
    8000647c:	40b50633          	sub	a2,a0,a1
    80006480:	24c0b823          	sd	a2,592(ra)
    80006484:	fff00113          	li	sp,-1
    80006488:	00c10463          	beq	sp,a2,80006490 <inst_362>
    8000648c:	b99f906f          	j	80000024 <rvtest_error>

0000000080006490 <inst_362>:
    80006490:	00200513          	li	a0,2
    80006494:	555555b7          	lui	a1,0x55555
    80006498:	55558593          	addi	a1,a1,1365 # 55555555 <absimmsh+0x49a847a8>
    8000649c:	00b59593          	slli	a1,a1,0xb
    800064a0:	2aa58593          	addi	a1,a1,682
    800064a4:	00b59593          	slli	a1,a1,0xb
    800064a8:	55558593          	addi	a1,a1,1365
    800064ac:	00a59593          	slli	a1,a1,0xa
    800064b0:	15558593          	addi	a1,a1,341
    800064b4:	40b50633          	sub	a2,a0,a1
    800064b8:	24c0bc23          	sd	a2,600(ra)
    800064bc:	faaab137          	lui	sp,0xfaaab
    800064c0:	aab1011b          	addiw	sp,sp,-1365 # fffffffffaaaaaab <absimm+0xffffffff3fd9cfdb>
    800064c4:	00c11113          	slli	sp,sp,0xc
    800064c8:	aab10113          	addi	sp,sp,-1365
    800064cc:	00c11113          	slli	sp,sp,0xc
    800064d0:	aab10113          	addi	sp,sp,-1365
    800064d4:	00c11113          	slli	sp,sp,0xc
    800064d8:	aad10113          	addi	sp,sp,-1363
    800064dc:	00c10463          	beq	sp,a2,800064e4 <inst_363>
    800064e0:	b45f906f          	j	80000024 <rvtest_error>

00000000800064e4 <inst_363>:
    800064e4:	00200513          	li	a0,2
    800064e8:	aaaab5b7          	lui	a1,0xaaaab
    800064ec:	aaa58593          	addi	a1,a1,-1366 # ffffffffaaaaaaaa <absimm+0xfffffffeefd9cfda>
    800064f0:	00b59593          	slli	a1,a1,0xb
    800064f4:	55558593          	addi	a1,a1,1365
    800064f8:	00b59593          	slli	a1,a1,0xb
    800064fc:	2aa58593          	addi	a1,a1,682
    80006500:	00a59593          	slli	a1,a1,0xa
    80006504:	2aa58593          	addi	a1,a1,682
    80006508:	40b50633          	sub	a2,a0,a1
    8000650c:	26c0b023          	sd	a2,608(ra)
    80006510:	05555137          	lui	sp,0x5555
    80006514:	5551011b          	addiw	sp,sp,1365 # 5555555 <offset+0x555515d>
    80006518:	00c11113          	slli	sp,sp,0xc
    8000651c:	55510113          	addi	sp,sp,1365
    80006520:	00c11113          	slli	sp,sp,0xc
    80006524:	55510113          	addi	sp,sp,1365
    80006528:	00c11113          	slli	sp,sp,0xc
    8000652c:	55810113          	addi	sp,sp,1368
    80006530:	00c10463          	beq	sp,a2,80006538 <inst_364>
    80006534:	af1f906f          	j	80000024 <rvtest_error>

0000000080006538 <inst_364>:
    80006538:	00200513          	li	a0,2
    8000653c:	00500593          	li	a1,5
    80006540:	40b50633          	sub	a2,a0,a1
    80006544:	26c0b423          	sd	a2,616(ra)
    80006548:	ffd00113          	li	sp,-3
    8000654c:	00c10463          	beq	sp,a2,80006554 <inst_365>
    80006550:	ad5f906f          	j	80000024 <rvtest_error>

0000000080006554 <inst_365>:
    80006554:	00200513          	li	a0,2
    80006558:	333335b7          	lui	a1,0x33333
    8000655c:	33358593          	addi	a1,a1,819 # 33333333 <absimmsh+0x27862586>
    80006560:	00b59593          	slli	a1,a1,0xb
    80006564:	19958593          	addi	a1,a1,409
    80006568:	00b59593          	slli	a1,a1,0xb
    8000656c:	4cc58593          	addi	a1,a1,1228
    80006570:	00a59593          	slli	a1,a1,0xa
    80006574:	33358593          	addi	a1,a1,819
    80006578:	40b50633          	sub	a2,a0,a1
    8000657c:	26c0b823          	sd	a2,624(ra)
    80006580:	fcccd137          	lui	sp,0xfcccd
    80006584:	ccd1011b          	addiw	sp,sp,-819 # fffffffffccccccd <absimm+0xffffffff41fbf1fd>
    80006588:	00c11113          	slli	sp,sp,0xc
    8000658c:	ccd10113          	addi	sp,sp,-819
    80006590:	00c11113          	slli	sp,sp,0xc
    80006594:	ccd10113          	addi	sp,sp,-819
    80006598:	00c11113          	slli	sp,sp,0xc
    8000659c:	ccf10113          	addi	sp,sp,-817
    800065a0:	00c10463          	beq	sp,a2,800065a8 <inst_366>
    800065a4:	a81f906f          	j	80000024 <rvtest_error>

00000000800065a8 <inst_366>:
    800065a8:	00200513          	li	a0,2
    800065ac:	666665b7          	lui	a1,0x66666
    800065b0:	66658593          	addi	a1,a1,1638 # 66666666 <absimmsh+0x5ab958b9>
    800065b4:	00b59593          	slli	a1,a1,0xb
    800065b8:	33358593          	addi	a1,a1,819
    800065bc:	00b59593          	slli	a1,a1,0xb
    800065c0:	19958593          	addi	a1,a1,409
    800065c4:	00a59593          	slli	a1,a1,0xa
    800065c8:	26658593          	addi	a1,a1,614
    800065cc:	40b50633          	sub	a2,a0,a1
    800065d0:	26c0bc23          	sd	a2,632(ra)
    800065d4:	fcccd137          	lui	sp,0xfcccd
    800065d8:	ccd1011b          	addiw	sp,sp,-819 # fffffffffccccccd <absimm+0xffffffff41fbf1fd>
    800065dc:	00c11113          	slli	sp,sp,0xc
    800065e0:	ccd10113          	addi	sp,sp,-819
    800065e4:	00c11113          	slli	sp,sp,0xc
    800065e8:	ccd10113          	addi	sp,sp,-819
    800065ec:	00d11113          	slli	sp,sp,0xd
    800065f0:	99c10113          	addi	sp,sp,-1636
    800065f4:	00c10463          	beq	sp,a2,800065fc <inst_367>
    800065f8:	a2df906f          	j	80000024 <rvtest_error>

00000000800065fc <inst_367>:
    800065fc:	00200513          	li	a0,2
    80006600:	000005b7          	lui	a1,0x0
    80006604:	fff58593          	addi	a1,a1,-1
    80006608:	00b59593          	slli	a1,a1,0xb
    8000660c:	25758593          	addi	a1,a1,599
    80006610:	00b59593          	slli	a1,a1,0xb
    80006614:	6c358593          	addi	a1,a1,1731
    80006618:	00a59593          	slli	a1,a1,0xa
    8000661c:	0cd58593          	addi	a1,a1,205
    80006620:	40b50633          	sub	a2,a0,a1
    80006624:	28c0b023          	sd	a2,640(ra)
    80006628:	000b5137          	lui	sp,0xb5
    8000662c:	04f1011b          	addiw	sp,sp,79 # b504f <offset+0xb4c57>
    80006630:	00c11113          	slli	sp,sp,0xc
    80006634:	33510113          	addi	sp,sp,821
    80006638:	00c10463          	beq	sp,a2,80006640 <inst_368>
    8000663c:	9e9f906f          	j	80000024 <rvtest_error>

0000000080006640 <inst_368>:
    80006640:	00200513          	li	a0,2
    80006644:	000005b7          	lui	a1,0x0
    80006648:	00058593          	mv	a1,a1
    8000664c:	00b59593          	slli	a1,a1,0xb
    80006650:	5a858593          	addi	a1,a1,1448 # 5a8 <offset+0x1b0>
    80006654:	00b59593          	slli	a1,a1,0xb
    80006658:	13c58593          	addi	a1,a1,316
    8000665c:	00a59593          	slli	a1,a1,0xa
    80006660:	33358593          	addi	a1,a1,819
    80006664:	40b50633          	sub	a2,a0,a1
    80006668:	28c0b423          	sd	a2,648(ra)
    8000666c:	fff4b137          	lui	sp,0xfff4b
    80006670:	fb11011b          	addiw	sp,sp,-79 # fffffffffff4afb1 <absimm+0xffffffff4523d4e1>
    80006674:	00c11113          	slli	sp,sp,0xc
    80006678:	ccf10113          	addi	sp,sp,-817
    8000667c:	00c10463          	beq	sp,a2,80006684 <inst_369>
    80006680:	9a5f906f          	j	80000024 <rvtest_error>

0000000080006684 <inst_369>:
    80006684:	00200513          	li	a0,2
    80006688:	00200593          	li	a1,2
    8000668c:	40b50633          	sub	a2,a0,a1
    80006690:	28c0b823          	sd	a2,656(ra)
    80006694:	00000113          	li	sp,0
    80006698:	00c10463          	beq	sp,a2,800066a0 <inst_370>
    8000669c:	989f906f          	j	80000024 <rvtest_error>

00000000800066a0 <inst_370>:
    800066a0:	00200513          	li	a0,2
    800066a4:	555555b7          	lui	a1,0x55555
    800066a8:	55558593          	addi	a1,a1,1365 # 55555555 <absimmsh+0x49a847a8>
    800066ac:	00b59593          	slli	a1,a1,0xb
    800066b0:	2aa58593          	addi	a1,a1,682
    800066b4:	00b59593          	slli	a1,a1,0xb
    800066b8:	55558593          	addi	a1,a1,1365
    800066bc:	00a59593          	slli	a1,a1,0xa
    800066c0:	15458593          	addi	a1,a1,340
    800066c4:	40b50633          	sub	a2,a0,a1
    800066c8:	28c0bc23          	sd	a2,664(ra)
    800066cc:	faaab137          	lui	sp,0xfaaab
    800066d0:	aab1011b          	addiw	sp,sp,-1365 # fffffffffaaaaaab <absimm+0xffffffff3fd9cfdb>
    800066d4:	00c11113          	slli	sp,sp,0xc
    800066d8:	aab10113          	addi	sp,sp,-1365
    800066dc:	00c11113          	slli	sp,sp,0xc
    800066e0:	aab10113          	addi	sp,sp,-1365
    800066e4:	00c11113          	slli	sp,sp,0xc
    800066e8:	aae10113          	addi	sp,sp,-1362
    800066ec:	00c10463          	beq	sp,a2,800066f4 <inst_371>
    800066f0:	935f906f          	j	80000024 <rvtest_error>

00000000800066f4 <inst_371>:
    800066f4:	00200513          	li	a0,2
    800066f8:	00000593          	li	a1,0
    800066fc:	40b50633          	sub	a2,a0,a1
    80006700:	2ac0b023          	sd	a2,672(ra)
    80006704:	00200113          	li	sp,2
    80006708:	00c10463          	beq	sp,a2,80006710 <inst_372>
    8000670c:	919f906f          	j	80000024 <rvtest_error>

0000000080006710 <inst_372>:
    80006710:	00200513          	li	a0,2
    80006714:	00400593          	li	a1,4
    80006718:	40b50633          	sub	a2,a0,a1
    8000671c:	2ac0b423          	sd	a2,680(ra)
    80006720:	ffe00113          	li	sp,-2
    80006724:	00c10463          	beq	sp,a2,8000672c <inst_373>
    80006728:	8fdf906f          	j	80000024 <rvtest_error>

000000008000672c <inst_373>:
    8000672c:	00200513          	li	a0,2
    80006730:	333335b7          	lui	a1,0x33333
    80006734:	33358593          	addi	a1,a1,819 # 33333333 <absimmsh+0x27862586>
    80006738:	00b59593          	slli	a1,a1,0xb
    8000673c:	19958593          	addi	a1,a1,409
    80006740:	00b59593          	slli	a1,a1,0xb
    80006744:	4cc58593          	addi	a1,a1,1228
    80006748:	00a59593          	slli	a1,a1,0xa
    8000674c:	33258593          	addi	a1,a1,818
    80006750:	40b50633          	sub	a2,a0,a1
    80006754:	2ac0b823          	sd	a2,688(ra)
    80006758:	fcccd137          	lui	sp,0xfcccd
    8000675c:	ccd1011b          	addiw	sp,sp,-819 # fffffffffccccccd <absimm+0xffffffff41fbf1fd>
    80006760:	00c11113          	slli	sp,sp,0xc
    80006764:	ccd10113          	addi	sp,sp,-819
    80006768:	00c11113          	slli	sp,sp,0xc
    8000676c:	ccd10113          	addi	sp,sp,-819
    80006770:	00c11113          	slli	sp,sp,0xc
    80006774:	cd010113          	addi	sp,sp,-816
    80006778:	00c10463          	beq	sp,a2,80006780 <inst_374>
    8000677c:	8a9f906f          	j	80000024 <rvtest_error>

0000000080006780 <inst_374>:
    80006780:	00200513          	li	a0,2
    80006784:	666665b7          	lui	a1,0x66666
    80006788:	66658593          	addi	a1,a1,1638 # 66666666 <absimmsh+0x5ab958b9>
    8000678c:	00b59593          	slli	a1,a1,0xb
    80006790:	33358593          	addi	a1,a1,819
    80006794:	00b59593          	slli	a1,a1,0xb
    80006798:	19958593          	addi	a1,a1,409
    8000679c:	00a59593          	slli	a1,a1,0xa
    800067a0:	26558593          	addi	a1,a1,613
    800067a4:	40b50633          	sub	a2,a0,a1
    800067a8:	2ac0bc23          	sd	a2,696(ra)
    800067ac:	fcccd137          	lui	sp,0xfcccd
    800067b0:	ccd1011b          	addiw	sp,sp,-819 # fffffffffccccccd <absimm+0xffffffff41fbf1fd>
    800067b4:	00c11113          	slli	sp,sp,0xc
    800067b8:	ccd10113          	addi	sp,sp,-819
    800067bc:	00c11113          	slli	sp,sp,0xc
    800067c0:	ccd10113          	addi	sp,sp,-819
    800067c4:	00d11113          	slli	sp,sp,0xd
    800067c8:	99d10113          	addi	sp,sp,-1635
    800067cc:	00c10463          	beq	sp,a2,800067d4 <inst_375>
    800067d0:	855f906f          	j	80000024 <rvtest_error>

00000000800067d4 <inst_375>:
    800067d4:	00200513          	li	a0,2
    800067d8:	000005b7          	lui	a1,0x0
    800067dc:	00058593          	mv	a1,a1
    800067e0:	00b59593          	slli	a1,a1,0xb
    800067e4:	5a858593          	addi	a1,a1,1448 # 5a8 <offset+0x1b0>
    800067e8:	00b59593          	slli	a1,a1,0xb
    800067ec:	13c58593          	addi	a1,a1,316
    800067f0:	00a59593          	slli	a1,a1,0xa
    800067f4:	33258593          	addi	a1,a1,818
    800067f8:	40b50633          	sub	a2,a0,a1
    800067fc:	2cc0b023          	sd	a2,704(ra)
    80006800:	fff4b137          	lui	sp,0xfff4b
    80006804:	fb11011b          	addiw	sp,sp,-79 # fffffffffff4afb1 <absimm+0xffffffff4523d4e1>
    80006808:	00c11113          	slli	sp,sp,0xc
    8000680c:	cd010113          	addi	sp,sp,-816
    80006810:	00c10463          	beq	sp,a2,80006818 <inst_376>
    80006814:	811f906f          	j	80000024 <rvtest_error>

0000000080006818 <inst_376>:
    80006818:	00200513          	li	a0,2
    8000681c:	555555b7          	lui	a1,0x55555
    80006820:	55558593          	addi	a1,a1,1365 # 55555555 <absimmsh+0x49a847a8>
    80006824:	00b59593          	slli	a1,a1,0xb
    80006828:	2aa58593          	addi	a1,a1,682
    8000682c:	00b59593          	slli	a1,a1,0xb
    80006830:	55558593          	addi	a1,a1,1365
    80006834:	00a59593          	slli	a1,a1,0xa
    80006838:	15658593          	addi	a1,a1,342
    8000683c:	40b50633          	sub	a2,a0,a1
    80006840:	2cc0b423          	sd	a2,712(ra)
    80006844:	faaab137          	lui	sp,0xfaaab
    80006848:	aab1011b          	addiw	sp,sp,-1365 # fffffffffaaaaaab <absimm+0xffffffff3fd9cfdb>
    8000684c:	00c11113          	slli	sp,sp,0xc
    80006850:	aab10113          	addi	sp,sp,-1365
    80006854:	00c11113          	slli	sp,sp,0xc
    80006858:	aab10113          	addi	sp,sp,-1365
    8000685c:	00c11113          	slli	sp,sp,0xc
    80006860:	aac10113          	addi	sp,sp,-1364
    80006864:	00c10463          	beq	sp,a2,8000686c <inst_377>
    80006868:	fbcf906f          	j	80000024 <rvtest_error>

000000008000686c <inst_377>:
    8000686c:	00200513          	li	a0,2
    80006870:	aaaab5b7          	lui	a1,0xaaaab
    80006874:	aaa58593          	addi	a1,a1,-1366 # ffffffffaaaaaaaa <absimm+0xfffffffeefd9cfda>
    80006878:	00b59593          	slli	a1,a1,0xb
    8000687c:	55558593          	addi	a1,a1,1365
    80006880:	00b59593          	slli	a1,a1,0xb
    80006884:	2aa58593          	addi	a1,a1,682
    80006888:	00a59593          	slli	a1,a1,0xa
    8000688c:	2ab58593          	addi	a1,a1,683
    80006890:	40b50633          	sub	a2,a0,a1
    80006894:	2cc0b823          	sd	a2,720(ra)
    80006898:	05555137          	lui	sp,0x5555
    8000689c:	5551011b          	addiw	sp,sp,1365 # 5555555 <offset+0x555515d>
    800068a0:	00c11113          	slli	sp,sp,0xc
    800068a4:	55510113          	addi	sp,sp,1365
    800068a8:	00c11113          	slli	sp,sp,0xc
    800068ac:	55510113          	addi	sp,sp,1365
    800068b0:	00c11113          	slli	sp,sp,0xc
    800068b4:	55710113          	addi	sp,sp,1367
    800068b8:	00c10463          	beq	sp,a2,800068c0 <inst_378>
    800068bc:	f68f906f          	j	80000024 <rvtest_error>

00000000800068c0 <inst_378>:
    800068c0:	00200513          	li	a0,2
    800068c4:	00600593          	li	a1,6
    800068c8:	40b50633          	sub	a2,a0,a1
    800068cc:	2cc0bc23          	sd	a2,728(ra)
    800068d0:	ffc00113          	li	sp,-4
    800068d4:	00c10463          	beq	sp,a2,800068dc <inst_379>
    800068d8:	f4cf906f          	j	80000024 <rvtest_error>

00000000800068dc <inst_379>:
    800068dc:	00200513          	li	a0,2
    800068e0:	333335b7          	lui	a1,0x33333
    800068e4:	33358593          	addi	a1,a1,819 # 33333333 <absimmsh+0x27862586>
    800068e8:	00b59593          	slli	a1,a1,0xb
    800068ec:	19958593          	addi	a1,a1,409
    800068f0:	00b59593          	slli	a1,a1,0xb
    800068f4:	4cc58593          	addi	a1,a1,1228
    800068f8:	00a59593          	slli	a1,a1,0xa
    800068fc:	33458593          	addi	a1,a1,820
    80006900:	40b50633          	sub	a2,a0,a1
    80006904:	2ec0b023          	sd	a2,736(ra)
    80006908:	fcccd137          	lui	sp,0xfcccd
    8000690c:	ccd1011b          	addiw	sp,sp,-819 # fffffffffccccccd <absimm+0xffffffff41fbf1fd>
    80006910:	00c11113          	slli	sp,sp,0xc
    80006914:	ccd10113          	addi	sp,sp,-819
    80006918:	00c11113          	slli	sp,sp,0xc
    8000691c:	ccd10113          	addi	sp,sp,-819
    80006920:	00c11113          	slli	sp,sp,0xc
    80006924:	cce10113          	addi	sp,sp,-818
    80006928:	00c10463          	beq	sp,a2,80006930 <inst_380>
    8000692c:	ef8f906f          	j	80000024 <rvtest_error>

0000000080006930 <inst_380>:
    80006930:	00200513          	li	a0,2
    80006934:	666665b7          	lui	a1,0x66666
    80006938:	66658593          	addi	a1,a1,1638 # 66666666 <absimmsh+0x5ab958b9>
    8000693c:	00b59593          	slli	a1,a1,0xb
    80006940:	33358593          	addi	a1,a1,819
    80006944:	00b59593          	slli	a1,a1,0xb
    80006948:	19958593          	addi	a1,a1,409
    8000694c:	00a59593          	slli	a1,a1,0xa
    80006950:	26758593          	addi	a1,a1,615
    80006954:	40b50633          	sub	a2,a0,a1
    80006958:	2ec0b423          	sd	a2,744(ra)
    8000695c:	fcccd137          	lui	sp,0xfcccd
    80006960:	ccd1011b          	addiw	sp,sp,-819 # fffffffffccccccd <absimm+0xffffffff41fbf1fd>
    80006964:	00c11113          	slli	sp,sp,0xc
    80006968:	ccd10113          	addi	sp,sp,-819
    8000696c:	00c11113          	slli	sp,sp,0xc
    80006970:	ccd10113          	addi	sp,sp,-819
    80006974:	00d11113          	slli	sp,sp,0xd
    80006978:	99b10113          	addi	sp,sp,-1637
    8000697c:	00c10463          	beq	sp,a2,80006984 <inst_381>
    80006980:	ea4f906f          	j	80000024 <rvtest_error>

0000000080006984 <inst_381>:
    80006984:	00200513          	li	a0,2
    80006988:	000005b7          	lui	a1,0x0
    8000698c:	fff58593          	addi	a1,a1,-1
    80006990:	00b59593          	slli	a1,a1,0xb
    80006994:	25758593          	addi	a1,a1,599
    80006998:	00b59593          	slli	a1,a1,0xb
    8000699c:	6c358593          	addi	a1,a1,1731
    800069a0:	00a59593          	slli	a1,a1,0xa
    800069a4:	0ce58593          	addi	a1,a1,206
    800069a8:	40b50633          	sub	a2,a0,a1
    800069ac:	2ec0b823          	sd	a2,752(ra)
    800069b0:	000b5137          	lui	sp,0xb5
    800069b4:	04f1011b          	addiw	sp,sp,79 # b504f <offset+0xb4c57>
    800069b8:	00c11113          	slli	sp,sp,0xc
    800069bc:	33410113          	addi	sp,sp,820
    800069c0:	00c10463          	beq	sp,a2,800069c8 <inst_382>
    800069c4:	e60f906f          	j	80000024 <rvtest_error>

00000000800069c8 <inst_382>:
    800069c8:	00200513          	li	a0,2
    800069cc:	000005b7          	lui	a1,0x0
    800069d0:	00058593          	mv	a1,a1
    800069d4:	00b59593          	slli	a1,a1,0xb
    800069d8:	5a858593          	addi	a1,a1,1448 # 5a8 <offset+0x1b0>
    800069dc:	00b59593          	slli	a1,a1,0xb
    800069e0:	13c58593          	addi	a1,a1,316
    800069e4:	00a59593          	slli	a1,a1,0xa
    800069e8:	33458593          	addi	a1,a1,820
    800069ec:	40b50633          	sub	a2,a0,a1
    800069f0:	2ec0bc23          	sd	a2,760(ra)
    800069f4:	fff4b137          	lui	sp,0xfff4b
    800069f8:	fb11011b          	addiw	sp,sp,-79 # fffffffffff4afb1 <absimm+0xffffffff4523d4e1>
    800069fc:	00c11113          	slli	sp,sp,0xc
    80006a00:	cce10113          	addi	sp,sp,-818
    80006a04:	00c10463          	beq	sp,a2,80006a0c <inst_383>
    80006a08:	e1cf906f          	j	80000024 <rvtest_error>

0000000080006a0c <inst_383>:
    80006a0c:	55555537          	lui	a0,0x55555
    80006a10:	55550513          	addi	a0,a0,1365 # 55555555 <absimmsh+0x49a847a8>
    80006a14:	00b51513          	slli	a0,a0,0xb
    80006a18:	2aa50513          	addi	a0,a0,682
    80006a1c:	00b51513          	slli	a0,a0,0xb
    80006a20:	55550513          	addi	a0,a0,1365
    80006a24:	00a51513          	slli	a0,a0,0xa
    80006a28:	15450513          	addi	a0,a0,340
    80006a2c:	00300593          	li	a1,3
    80006a30:	40b50633          	sub	a2,a0,a1
    80006a34:	30c0b023          	sd	a2,768(ra)
    80006a38:	05555137          	lui	sp,0x5555
    80006a3c:	5551011b          	addiw	sp,sp,1365 # 5555555 <offset+0x555515d>
    80006a40:	00c11113          	slli	sp,sp,0xc
    80006a44:	55510113          	addi	sp,sp,1365
    80006a48:	00c11113          	slli	sp,sp,0xc
    80006a4c:	55510113          	addi	sp,sp,1365
    80006a50:	00c11113          	slli	sp,sp,0xc
    80006a54:	55110113          	addi	sp,sp,1361
    80006a58:	00c10463          	beq	sp,a2,80006a60 <inst_384>
    80006a5c:	dc8f906f          	j	80000024 <rvtest_error>

0000000080006a60 <inst_384>:
    80006a60:	55555537          	lui	a0,0x55555
    80006a64:	55550513          	addi	a0,a0,1365 # 55555555 <absimmsh+0x49a847a8>
    80006a68:	00b51513          	slli	a0,a0,0xb
    80006a6c:	2aa50513          	addi	a0,a0,682
    80006a70:	00b51513          	slli	a0,a0,0xb
    80006a74:	55550513          	addi	a0,a0,1365
    80006a78:	00a51513          	slli	a0,a0,0xa
    80006a7c:	15450513          	addi	a0,a0,340
    80006a80:	555555b7          	lui	a1,0x55555
    80006a84:	55558593          	addi	a1,a1,1365 # 55555555 <absimmsh+0x49a847a8>
    80006a88:	00b59593          	slli	a1,a1,0xb
    80006a8c:	2aa58593          	addi	a1,a1,682
    80006a90:	00b59593          	slli	a1,a1,0xb
    80006a94:	55558593          	addi	a1,a1,1365
    80006a98:	00a59593          	slli	a1,a1,0xa
    80006a9c:	15558593          	addi	a1,a1,341
    80006aa0:	40b50633          	sub	a2,a0,a1
    80006aa4:	30c0b423          	sd	a2,776(ra)
    80006aa8:	fff00113          	li	sp,-1
    80006aac:	00c10463          	beq	sp,a2,80006ab4 <inst_385>
    80006ab0:	d74f906f          	j	80000024 <rvtest_error>

0000000080006ab4 <inst_385>:
    80006ab4:	55555537          	lui	a0,0x55555
    80006ab8:	55550513          	addi	a0,a0,1365 # 55555555 <absimmsh+0x49a847a8>
    80006abc:	00b51513          	slli	a0,a0,0xb
    80006ac0:	2aa50513          	addi	a0,a0,682
    80006ac4:	00b51513          	slli	a0,a0,0xb
    80006ac8:	55550513          	addi	a0,a0,1365
    80006acc:	00a51513          	slli	a0,a0,0xa
    80006ad0:	15450513          	addi	a0,a0,340
    80006ad4:	aaaab5b7          	lui	a1,0xaaaab
    80006ad8:	aaa58593          	addi	a1,a1,-1366 # ffffffffaaaaaaaa <absimm+0xfffffffeefd9cfda>
    80006adc:	00b59593          	slli	a1,a1,0xb
    80006ae0:	55558593          	addi	a1,a1,1365
    80006ae4:	00b59593          	slli	a1,a1,0xb
    80006ae8:	2aa58593          	addi	a1,a1,682
    80006aec:	00a59593          	slli	a1,a1,0xa
    80006af0:	2aa58593          	addi	a1,a1,682
    80006af4:	40b50633          	sub	a2,a0,a1
    80006af8:	30c0b823          	sd	a2,784(ra)
    80006afc:	faaab137          	lui	sp,0xfaaab
    80006b00:	aab1011b          	addiw	sp,sp,-1365 # fffffffffaaaaaab <absimm+0xffffffff3fd9cfdb>
    80006b04:	00c11113          	slli	sp,sp,0xc
    80006b08:	aab10113          	addi	sp,sp,-1365
    80006b0c:	00c11113          	slli	sp,sp,0xc
    80006b10:	aab10113          	addi	sp,sp,-1365
    80006b14:	00c11113          	slli	sp,sp,0xc
    80006b18:	aaa10113          	addi	sp,sp,-1366
    80006b1c:	00c10463          	beq	sp,a2,80006b24 <inst_386>
    80006b20:	d04f906f          	j	80000024 <rvtest_error>

0000000080006b24 <inst_386>:
    80006b24:	55555537          	lui	a0,0x55555
    80006b28:	55550513          	addi	a0,a0,1365 # 55555555 <absimmsh+0x49a847a8>
    80006b2c:	00b51513          	slli	a0,a0,0xb
    80006b30:	2aa50513          	addi	a0,a0,682
    80006b34:	00b51513          	slli	a0,a0,0xb
    80006b38:	55550513          	addi	a0,a0,1365
    80006b3c:	00a51513          	slli	a0,a0,0xa
    80006b40:	15450513          	addi	a0,a0,340
    80006b44:	00500593          	li	a1,5
    80006b48:	40b50633          	sub	a2,a0,a1
    80006b4c:	30c0bc23          	sd	a2,792(ra)
    80006b50:	05555137          	lui	sp,0x5555
    80006b54:	5551011b          	addiw	sp,sp,1365 # 5555555 <offset+0x555515d>
    80006b58:	00c11113          	slli	sp,sp,0xc
    80006b5c:	55510113          	addi	sp,sp,1365
    80006b60:	00c11113          	slli	sp,sp,0xc
    80006b64:	55510113          	addi	sp,sp,1365
    80006b68:	00c11113          	slli	sp,sp,0xc
    80006b6c:	54f10113          	addi	sp,sp,1359
    80006b70:	00c10463          	beq	sp,a2,80006b78 <inst_387>
    80006b74:	cb0f906f          	j	80000024 <rvtest_error>

0000000080006b78 <inst_387>:
    80006b78:	55555537          	lui	a0,0x55555
    80006b7c:	55550513          	addi	a0,a0,1365 # 55555555 <absimmsh+0x49a847a8>
    80006b80:	00b51513          	slli	a0,a0,0xb
    80006b84:	2aa50513          	addi	a0,a0,682
    80006b88:	00b51513          	slli	a0,a0,0xb
    80006b8c:	55550513          	addi	a0,a0,1365
    80006b90:	00a51513          	slli	a0,a0,0xa
    80006b94:	15450513          	addi	a0,a0,340
    80006b98:	333335b7          	lui	a1,0x33333
    80006b9c:	33358593          	addi	a1,a1,819 # 33333333 <absimmsh+0x27862586>
    80006ba0:	00b59593          	slli	a1,a1,0xb
    80006ba4:	19958593          	addi	a1,a1,409
    80006ba8:	00b59593          	slli	a1,a1,0xb
    80006bac:	4cc58593          	addi	a1,a1,1228
    80006bb0:	00a59593          	slli	a1,a1,0xa
    80006bb4:	33358593          	addi	a1,a1,819
    80006bb8:	40b50633          	sub	a2,a0,a1
    80006bbc:	32c0b023          	sd	a2,800(ra)
    80006bc0:	01111137          	lui	sp,0x1111
    80006bc4:	1111011b          	addiw	sp,sp,273 # 1111111 <offset+0x1110d19>
    80006bc8:	00c11113          	slli	sp,sp,0xc
    80006bcc:	11110113          	addi	sp,sp,273
    80006bd0:	00c11113          	slli	sp,sp,0xc
    80006bd4:	11110113          	addi	sp,sp,273
    80006bd8:	00d11113          	slli	sp,sp,0xd
    80006bdc:	22110113          	addi	sp,sp,545
    80006be0:	00c10463          	beq	sp,a2,80006be8 <inst_388>
    80006be4:	c40f906f          	j	80000024 <rvtest_error>

0000000080006be8 <inst_388>:
    80006be8:	55555537          	lui	a0,0x55555
    80006bec:	55550513          	addi	a0,a0,1365 # 55555555 <absimmsh+0x49a847a8>
    80006bf0:	00b51513          	slli	a0,a0,0xb
    80006bf4:	2aa50513          	addi	a0,a0,682
    80006bf8:	00b51513          	slli	a0,a0,0xb
    80006bfc:	55550513          	addi	a0,a0,1365
    80006c00:	00a51513          	slli	a0,a0,0xa
    80006c04:	15450513          	addi	a0,a0,340
    80006c08:	666665b7          	lui	a1,0x66666
    80006c0c:	66658593          	addi	a1,a1,1638 # 66666666 <absimmsh+0x5ab958b9>
    80006c10:	00b59593          	slli	a1,a1,0xb
    80006c14:	33358593          	addi	a1,a1,819
    80006c18:	00b59593          	slli	a1,a1,0xb
    80006c1c:	19958593          	addi	a1,a1,409
    80006c20:	00a59593          	slli	a1,a1,0xa
    80006c24:	26658593          	addi	a1,a1,614
    80006c28:	40b50633          	sub	a2,a0,a1
    80006c2c:	32c0b423          	sd	a2,808(ra)
    80006c30:	feeef137          	lui	sp,0xfeeef
    80006c34:	eef1011b          	addiw	sp,sp,-273 # fffffffffeeeeeef <absimm+0xffffffff441e141f>
    80006c38:	00c11113          	slli	sp,sp,0xc
    80006c3c:	eef10113          	addi	sp,sp,-273
    80006c40:	00c11113          	slli	sp,sp,0xc
    80006c44:	eef10113          	addi	sp,sp,-273
    80006c48:	00c11113          	slli	sp,sp,0xc
    80006c4c:	eee10113          	addi	sp,sp,-274
    80006c50:	00c10463          	beq	sp,a2,80006c58 <inst_389>
    80006c54:	bd0f906f          	j	80000024 <rvtest_error>

0000000080006c58 <inst_389>:
    80006c58:	55555537          	lui	a0,0x55555
    80006c5c:	55550513          	addi	a0,a0,1365 # 55555555 <absimmsh+0x49a847a8>
    80006c60:	00b51513          	slli	a0,a0,0xb
    80006c64:	2aa50513          	addi	a0,a0,682
    80006c68:	00b51513          	slli	a0,a0,0xb
    80006c6c:	55550513          	addi	a0,a0,1365
    80006c70:	00a51513          	slli	a0,a0,0xa
    80006c74:	15450513          	addi	a0,a0,340
    80006c78:	000005b7          	lui	a1,0x0
    80006c7c:	fff58593          	addi	a1,a1,-1
    80006c80:	00b59593          	slli	a1,a1,0xb
    80006c84:	25758593          	addi	a1,a1,599
    80006c88:	00b59593          	slli	a1,a1,0xb
    80006c8c:	6c358593          	addi	a1,a1,1731
    80006c90:	00a59593          	slli	a1,a1,0xa
    80006c94:	0cd58593          	addi	a1,a1,205
    80006c98:	40b50633          	sub	a2,a0,a1
    80006c9c:	32c0b823          	sd	a2,816(ra)
    80006ca0:	02aab137          	lui	sp,0x2aab
    80006ca4:	aab1011b          	addiw	sp,sp,-1365 # 2aaaaab <offset+0x2aaa6b3>
    80006ca8:	00c11113          	slli	sp,sp,0xc
    80006cac:	b0510113          	addi	sp,sp,-1275
    80006cb0:	00d11113          	slli	sp,sp,0xd
    80006cb4:	5a510113          	addi	sp,sp,1445
    80006cb8:	00c11113          	slli	sp,sp,0xc
    80006cbc:	88710113          	addi	sp,sp,-1913
    80006cc0:	00c10463          	beq	sp,a2,80006cc8 <inst_390>
    80006cc4:	b60f906f          	j	80000024 <rvtest_error>

0000000080006cc8 <inst_390>:
    80006cc8:	55555537          	lui	a0,0x55555
    80006ccc:	55550513          	addi	a0,a0,1365 # 55555555 <absimmsh+0x49a847a8>
    80006cd0:	00b51513          	slli	a0,a0,0xb
    80006cd4:	2aa50513          	addi	a0,a0,682
    80006cd8:	00b51513          	slli	a0,a0,0xb
    80006cdc:	55550513          	addi	a0,a0,1365
    80006ce0:	00a51513          	slli	a0,a0,0xa
    80006ce4:	15450513          	addi	a0,a0,340
    80006ce8:	000005b7          	lui	a1,0x0
    80006cec:	00058593          	mv	a1,a1
    80006cf0:	00b59593          	slli	a1,a1,0xb
    80006cf4:	5a858593          	addi	a1,a1,1448 # 5a8 <offset+0x1b0>
    80006cf8:	00b59593          	slli	a1,a1,0xb
    80006cfc:	13c58593          	addi	a1,a1,316
    80006d00:	00a59593          	slli	a1,a1,0xa
    80006d04:	33358593          	addi	a1,a1,819
    80006d08:	40b50633          	sub	a2,a0,a1
    80006d0c:	32c0bc23          	sd	a2,824(ra)
    80006d10:	002ab137          	lui	sp,0x2ab
    80006d14:	aab1011b          	addiw	sp,sp,-1365 # 2aaaab <offset+0x2aa6b3>
    80006d18:	00c11113          	slli	sp,sp,0xc
    80006d1c:	aa510113          	addi	sp,sp,-1371
    80006d20:	01011113          	slli	sp,sp,0x10
    80006d24:	28310113          	addi	sp,sp,643
    80006d28:	00d11113          	slli	sp,sp,0xd
    80006d2c:	22110113          	addi	sp,sp,545
    80006d30:	00c10463          	beq	sp,a2,80006d38 <inst_391>
    80006d34:	af0f906f          	j	80000024 <rvtest_error>

0000000080006d38 <inst_391>:
    80006d38:	55555537          	lui	a0,0x55555
    80006d3c:	55550513          	addi	a0,a0,1365 # 55555555 <absimmsh+0x49a847a8>
    80006d40:	00b51513          	slli	a0,a0,0xb
    80006d44:	2aa50513          	addi	a0,a0,682
    80006d48:	00b51513          	slli	a0,a0,0xb
    80006d4c:	55550513          	addi	a0,a0,1365
    80006d50:	00a51513          	slli	a0,a0,0xa
    80006d54:	15450513          	addi	a0,a0,340
    80006d58:	00200593          	li	a1,2
    80006d5c:	40b50633          	sub	a2,a0,a1
    80006d60:	34c0b023          	sd	a2,832(ra)
    80006d64:	05555137          	lui	sp,0x5555
    80006d68:	5551011b          	addiw	sp,sp,1365 # 5555555 <offset+0x555515d>
    80006d6c:	00c11113          	slli	sp,sp,0xc
    80006d70:	55510113          	addi	sp,sp,1365
    80006d74:	00c11113          	slli	sp,sp,0xc
    80006d78:	55510113          	addi	sp,sp,1365
    80006d7c:	00c11113          	slli	sp,sp,0xc
    80006d80:	55210113          	addi	sp,sp,1362
    80006d84:	00c10463          	beq	sp,a2,80006d8c <inst_392>
    80006d88:	a9cf906f          	j	80000024 <rvtest_error>

0000000080006d8c <inst_392>:
    80006d8c:	55555537          	lui	a0,0x55555
    80006d90:	55550513          	addi	a0,a0,1365 # 55555555 <absimmsh+0x49a847a8>
    80006d94:	00b51513          	slli	a0,a0,0xb
    80006d98:	2aa50513          	addi	a0,a0,682
    80006d9c:	00b51513          	slli	a0,a0,0xb
    80006da0:	55550513          	addi	a0,a0,1365
    80006da4:	00a51513          	slli	a0,a0,0xa
    80006da8:	15450513          	addi	a0,a0,340
    80006dac:	555555b7          	lui	a1,0x55555
    80006db0:	55558593          	addi	a1,a1,1365 # 55555555 <absimmsh+0x49a847a8>
    80006db4:	00b59593          	slli	a1,a1,0xb
    80006db8:	2aa58593          	addi	a1,a1,682
    80006dbc:	00b59593          	slli	a1,a1,0xb
    80006dc0:	55558593          	addi	a1,a1,1365
    80006dc4:	00a59593          	slli	a1,a1,0xa
    80006dc8:	15458593          	addi	a1,a1,340
    80006dcc:	40b50633          	sub	a2,a0,a1
    80006dd0:	34c0b423          	sd	a2,840(ra)
    80006dd4:	00000113          	li	sp,0
    80006dd8:	00c10463          	beq	sp,a2,80006de0 <inst_393>
    80006ddc:	a48f906f          	j	80000024 <rvtest_error>

0000000080006de0 <inst_393>:
    80006de0:	55555537          	lui	a0,0x55555
    80006de4:	55550513          	addi	a0,a0,1365 # 55555555 <absimmsh+0x49a847a8>
    80006de8:	00b51513          	slli	a0,a0,0xb
    80006dec:	2aa50513          	addi	a0,a0,682
    80006df0:	00b51513          	slli	a0,a0,0xb
    80006df4:	55550513          	addi	a0,a0,1365
    80006df8:	00a51513          	slli	a0,a0,0xa
    80006dfc:	15450513          	addi	a0,a0,340
    80006e00:	00000593          	li	a1,0
    80006e04:	40b50633          	sub	a2,a0,a1
    80006e08:	34c0b823          	sd	a2,848(ra)
    80006e0c:	05555137          	lui	sp,0x5555
    80006e10:	5551011b          	addiw	sp,sp,1365 # 5555555 <offset+0x555515d>
    80006e14:	00c11113          	slli	sp,sp,0xc
    80006e18:	55510113          	addi	sp,sp,1365
    80006e1c:	00c11113          	slli	sp,sp,0xc
    80006e20:	55510113          	addi	sp,sp,1365
    80006e24:	00c11113          	slli	sp,sp,0xc
    80006e28:	55410113          	addi	sp,sp,1364
    80006e2c:	00c10463          	beq	sp,a2,80006e34 <inst_394>
    80006e30:	9f4f906f          	j	80000024 <rvtest_error>

0000000080006e34 <inst_394>:
    80006e34:	55555537          	lui	a0,0x55555
    80006e38:	55550513          	addi	a0,a0,1365 # 55555555 <absimmsh+0x49a847a8>
    80006e3c:	00b51513          	slli	a0,a0,0xb
    80006e40:	2aa50513          	addi	a0,a0,682
    80006e44:	00b51513          	slli	a0,a0,0xb
    80006e48:	55550513          	addi	a0,a0,1365
    80006e4c:	00a51513          	slli	a0,a0,0xa
    80006e50:	15450513          	addi	a0,a0,340
    80006e54:	00400593          	li	a1,4
    80006e58:	40b50633          	sub	a2,a0,a1
    80006e5c:	34c0bc23          	sd	a2,856(ra)
    80006e60:	05555137          	lui	sp,0x5555
    80006e64:	5551011b          	addiw	sp,sp,1365 # 5555555 <offset+0x555515d>
    80006e68:	00c11113          	slli	sp,sp,0xc
    80006e6c:	55510113          	addi	sp,sp,1365
    80006e70:	00c11113          	slli	sp,sp,0xc
    80006e74:	55510113          	addi	sp,sp,1365
    80006e78:	00c11113          	slli	sp,sp,0xc
    80006e7c:	55010113          	addi	sp,sp,1360
    80006e80:	00c10463          	beq	sp,a2,80006e88 <inst_395>
    80006e84:	9a0f906f          	j	80000024 <rvtest_error>

0000000080006e88 <inst_395>:
    80006e88:	55555537          	lui	a0,0x55555
    80006e8c:	55550513          	addi	a0,a0,1365 # 55555555 <absimmsh+0x49a847a8>
    80006e90:	00b51513          	slli	a0,a0,0xb
    80006e94:	2aa50513          	addi	a0,a0,682
    80006e98:	00b51513          	slli	a0,a0,0xb
    80006e9c:	55550513          	addi	a0,a0,1365
    80006ea0:	00a51513          	slli	a0,a0,0xa
    80006ea4:	15450513          	addi	a0,a0,340
    80006ea8:	333335b7          	lui	a1,0x33333
    80006eac:	33358593          	addi	a1,a1,819 # 33333333 <absimmsh+0x27862586>
    80006eb0:	00b59593          	slli	a1,a1,0xb
    80006eb4:	19958593          	addi	a1,a1,409
    80006eb8:	00b59593          	slli	a1,a1,0xb
    80006ebc:	4cc58593          	addi	a1,a1,1228
    80006ec0:	00a59593          	slli	a1,a1,0xa
    80006ec4:	33258593          	addi	a1,a1,818
    80006ec8:	40b50633          	sub	a2,a0,a1
    80006ecc:	36c0b023          	sd	a2,864(ra)
    80006ed0:	01111137          	lui	sp,0x1111
    80006ed4:	1111011b          	addiw	sp,sp,273 # 1111111 <offset+0x1110d19>
    80006ed8:	00c11113          	slli	sp,sp,0xc
    80006edc:	11110113          	addi	sp,sp,273
    80006ee0:	00c11113          	slli	sp,sp,0xc
    80006ee4:	11110113          	addi	sp,sp,273
    80006ee8:	00d11113          	slli	sp,sp,0xd
    80006eec:	22210113          	addi	sp,sp,546
    80006ef0:	00c10463          	beq	sp,a2,80006ef8 <inst_396>
    80006ef4:	930f906f          	j	80000024 <rvtest_error>

0000000080006ef8 <inst_396>:
    80006ef8:	55555537          	lui	a0,0x55555
    80006efc:	55550513          	addi	a0,a0,1365 # 55555555 <absimmsh+0x49a847a8>
    80006f00:	00b51513          	slli	a0,a0,0xb
    80006f04:	2aa50513          	addi	a0,a0,682
    80006f08:	00b51513          	slli	a0,a0,0xb
    80006f0c:	55550513          	addi	a0,a0,1365
    80006f10:	00a51513          	slli	a0,a0,0xa
    80006f14:	15450513          	addi	a0,a0,340
    80006f18:	666665b7          	lui	a1,0x66666
    80006f1c:	66658593          	addi	a1,a1,1638 # 66666666 <absimmsh+0x5ab958b9>
    80006f20:	00b59593          	slli	a1,a1,0xb
    80006f24:	33358593          	addi	a1,a1,819
    80006f28:	00b59593          	slli	a1,a1,0xb
    80006f2c:	19958593          	addi	a1,a1,409
    80006f30:	00a59593          	slli	a1,a1,0xa
    80006f34:	26558593          	addi	a1,a1,613
    80006f38:	40b50633          	sub	a2,a0,a1
    80006f3c:	36c0b423          	sd	a2,872(ra)
    80006f40:	feeef137          	lui	sp,0xfeeef
    80006f44:	eef1011b          	addiw	sp,sp,-273 # fffffffffeeeeeef <absimm+0xffffffff441e141f>
    80006f48:	00c11113          	slli	sp,sp,0xc
    80006f4c:	eef10113          	addi	sp,sp,-273
    80006f50:	00c11113          	slli	sp,sp,0xc
    80006f54:	eef10113          	addi	sp,sp,-273
    80006f58:	00c11113          	slli	sp,sp,0xc
    80006f5c:	eef10113          	addi	sp,sp,-273
    80006f60:	00c10463          	beq	sp,a2,80006f68 <inst_397>
    80006f64:	8c0f906f          	j	80000024 <rvtest_error>

0000000080006f68 <inst_397>:
    80006f68:	55555537          	lui	a0,0x55555
    80006f6c:	55550513          	addi	a0,a0,1365 # 55555555 <absimmsh+0x49a847a8>
    80006f70:	00b51513          	slli	a0,a0,0xb
    80006f74:	2aa50513          	addi	a0,a0,682
    80006f78:	00b51513          	slli	a0,a0,0xb
    80006f7c:	55550513          	addi	a0,a0,1365
    80006f80:	00a51513          	slli	a0,a0,0xa
    80006f84:	15450513          	addi	a0,a0,340
    80006f88:	000005b7          	lui	a1,0x0
    80006f8c:	00058593          	mv	a1,a1
    80006f90:	00b59593          	slli	a1,a1,0xb
    80006f94:	5a858593          	addi	a1,a1,1448 # 5a8 <offset+0x1b0>
    80006f98:	00b59593          	slli	a1,a1,0xb
    80006f9c:	13c58593          	addi	a1,a1,316
    80006fa0:	00a59593          	slli	a1,a1,0xa
    80006fa4:	33258593          	addi	a1,a1,818
    80006fa8:	40b50633          	sub	a2,a0,a1
    80006fac:	36c0b823          	sd	a2,880(ra)
    80006fb0:	002ab137          	lui	sp,0x2ab
    80006fb4:	aab1011b          	addiw	sp,sp,-1365 # 2aaaab <offset+0x2aa6b3>
    80006fb8:	00c11113          	slli	sp,sp,0xc
    80006fbc:	aa510113          	addi	sp,sp,-1371
    80006fc0:	01011113          	slli	sp,sp,0x10
    80006fc4:	28310113          	addi	sp,sp,643
    80006fc8:	00d11113          	slli	sp,sp,0xd
    80006fcc:	22210113          	addi	sp,sp,546
    80006fd0:	00c10463          	beq	sp,a2,80006fd8 <inst_398>
    80006fd4:	850f906f          	j	80000024 <rvtest_error>

0000000080006fd8 <inst_398>:
    80006fd8:	55555537          	lui	a0,0x55555
    80006fdc:	55550513          	addi	a0,a0,1365 # 55555555 <absimmsh+0x49a847a8>
    80006fe0:	00b51513          	slli	a0,a0,0xb
    80006fe4:	2aa50513          	addi	a0,a0,682
    80006fe8:	00b51513          	slli	a0,a0,0xb
    80006fec:	55550513          	addi	a0,a0,1365
    80006ff0:	00a51513          	slli	a0,a0,0xa
    80006ff4:	15450513          	addi	a0,a0,340
    80006ff8:	555555b7          	lui	a1,0x55555
    80006ffc:	55558593          	addi	a1,a1,1365 # 55555555 <absimmsh+0x49a847a8>
    80007000:	00b59593          	slli	a1,a1,0xb
    80007004:	2aa58593          	addi	a1,a1,682
    80007008:	00b59593          	slli	a1,a1,0xb
    8000700c:	55558593          	addi	a1,a1,1365
    80007010:	00a59593          	slli	a1,a1,0xa
    80007014:	15658593          	addi	a1,a1,342
    80007018:	40b50633          	sub	a2,a0,a1
    8000701c:	36c0bc23          	sd	a2,888(ra)
    80007020:	ffe00113          	li	sp,-2
    80007024:	00c10463          	beq	sp,a2,8000702c <inst_399>
    80007028:	ffdf806f          	j	80000024 <rvtest_error>

000000008000702c <inst_399>:
    8000702c:	55555537          	lui	a0,0x55555
    80007030:	55550513          	addi	a0,a0,1365 # 55555555 <absimmsh+0x49a847a8>
    80007034:	00b51513          	slli	a0,a0,0xb
    80007038:	2aa50513          	addi	a0,a0,682
    8000703c:	00b51513          	slli	a0,a0,0xb
    80007040:	55550513          	addi	a0,a0,1365
    80007044:	00a51513          	slli	a0,a0,0xa
    80007048:	15450513          	addi	a0,a0,340
    8000704c:	aaaab5b7          	lui	a1,0xaaaab
    80007050:	aaa58593          	addi	a1,a1,-1366 # ffffffffaaaaaaaa <absimm+0xfffffffeefd9cfda>
    80007054:	00b59593          	slli	a1,a1,0xb
    80007058:	55558593          	addi	a1,a1,1365
    8000705c:	00b59593          	slli	a1,a1,0xb
    80007060:	2aa58593          	addi	a1,a1,682
    80007064:	00a59593          	slli	a1,a1,0xa
    80007068:	2ab58593          	addi	a1,a1,683
    8000706c:	40b50633          	sub	a2,a0,a1
    80007070:	38c0b023          	sd	a2,896(ra)
    80007074:	faaab137          	lui	sp,0xfaaab
    80007078:	aab1011b          	addiw	sp,sp,-1365 # fffffffffaaaaaab <absimm+0xffffffff3fd9cfdb>
    8000707c:	00c11113          	slli	sp,sp,0xc
    80007080:	aab10113          	addi	sp,sp,-1365
    80007084:	00c11113          	slli	sp,sp,0xc
    80007088:	aab10113          	addi	sp,sp,-1365
    8000708c:	00c11113          	slli	sp,sp,0xc
    80007090:	aa910113          	addi	sp,sp,-1367
    80007094:	00c10463          	beq	sp,a2,8000709c <inst_400>
    80007098:	f8df806f          	j	80000024 <rvtest_error>

000000008000709c <inst_400>:
    8000709c:	55555537          	lui	a0,0x55555
    800070a0:	55550513          	addi	a0,a0,1365 # 55555555 <absimmsh+0x49a847a8>
    800070a4:	00b51513          	slli	a0,a0,0xb
    800070a8:	2aa50513          	addi	a0,a0,682
    800070ac:	00b51513          	slli	a0,a0,0xb
    800070b0:	55550513          	addi	a0,a0,1365
    800070b4:	00a51513          	slli	a0,a0,0xa
    800070b8:	15450513          	addi	a0,a0,340
    800070bc:	00600593          	li	a1,6
    800070c0:	40b50633          	sub	a2,a0,a1
    800070c4:	38c0b423          	sd	a2,904(ra)
    800070c8:	05555137          	lui	sp,0x5555
    800070cc:	5551011b          	addiw	sp,sp,1365 # 5555555 <offset+0x555515d>
    800070d0:	00c11113          	slli	sp,sp,0xc
    800070d4:	55510113          	addi	sp,sp,1365
    800070d8:	00c11113          	slli	sp,sp,0xc
    800070dc:	55510113          	addi	sp,sp,1365
    800070e0:	00c11113          	slli	sp,sp,0xc
    800070e4:	54e10113          	addi	sp,sp,1358
    800070e8:	00c10463          	beq	sp,a2,800070f0 <inst_401>
    800070ec:	f39f806f          	j	80000024 <rvtest_error>

00000000800070f0 <inst_401>:
    800070f0:	55555537          	lui	a0,0x55555
    800070f4:	55550513          	addi	a0,a0,1365 # 55555555 <absimmsh+0x49a847a8>
    800070f8:	00b51513          	slli	a0,a0,0xb
    800070fc:	2aa50513          	addi	a0,a0,682
    80007100:	00b51513          	slli	a0,a0,0xb
    80007104:	55550513          	addi	a0,a0,1365
    80007108:	00a51513          	slli	a0,a0,0xa
    8000710c:	15450513          	addi	a0,a0,340
    80007110:	333335b7          	lui	a1,0x33333
    80007114:	33358593          	addi	a1,a1,819 # 33333333 <absimmsh+0x27862586>
    80007118:	00b59593          	slli	a1,a1,0xb
    8000711c:	19958593          	addi	a1,a1,409
    80007120:	00b59593          	slli	a1,a1,0xb
    80007124:	4cc58593          	addi	a1,a1,1228
    80007128:	00a59593          	slli	a1,a1,0xa
    8000712c:	33458593          	addi	a1,a1,820
    80007130:	40b50633          	sub	a2,a0,a1
    80007134:	38c0b823          	sd	a2,912(ra)
    80007138:	01111137          	lui	sp,0x1111
    8000713c:	1111011b          	addiw	sp,sp,273 # 1111111 <offset+0x1110d19>
    80007140:	00c11113          	slli	sp,sp,0xc
    80007144:	11110113          	addi	sp,sp,273
    80007148:	00c11113          	slli	sp,sp,0xc
    8000714c:	11110113          	addi	sp,sp,273
    80007150:	00d11113          	slli	sp,sp,0xd
    80007154:	22010113          	addi	sp,sp,544
    80007158:	00c10463          	beq	sp,a2,80007160 <inst_402>
    8000715c:	ec9f806f          	j	80000024 <rvtest_error>

0000000080007160 <inst_402>:
    80007160:	55555537          	lui	a0,0x55555
    80007164:	55550513          	addi	a0,a0,1365 # 55555555 <absimmsh+0x49a847a8>
    80007168:	00b51513          	slli	a0,a0,0xb
    8000716c:	2aa50513          	addi	a0,a0,682
    80007170:	00b51513          	slli	a0,a0,0xb
    80007174:	55550513          	addi	a0,a0,1365
    80007178:	00a51513          	slli	a0,a0,0xa
    8000717c:	15450513          	addi	a0,a0,340
    80007180:	666665b7          	lui	a1,0x66666
    80007184:	66658593          	addi	a1,a1,1638 # 66666666 <absimmsh+0x5ab958b9>
    80007188:	00b59593          	slli	a1,a1,0xb
    8000718c:	33358593          	addi	a1,a1,819
    80007190:	00b59593          	slli	a1,a1,0xb
    80007194:	19958593          	addi	a1,a1,409
    80007198:	00a59593          	slli	a1,a1,0xa
    8000719c:	26758593          	addi	a1,a1,615
    800071a0:	40b50633          	sub	a2,a0,a1
    800071a4:	38c0bc23          	sd	a2,920(ra)
    800071a8:	feeef137          	lui	sp,0xfeeef
    800071ac:	eef1011b          	addiw	sp,sp,-273 # fffffffffeeeeeef <absimm+0xffffffff441e141f>
    800071b0:	00c11113          	slli	sp,sp,0xc
    800071b4:	eef10113          	addi	sp,sp,-273
    800071b8:	00c11113          	slli	sp,sp,0xc
    800071bc:	eef10113          	addi	sp,sp,-273
    800071c0:	00c11113          	slli	sp,sp,0xc
    800071c4:	eed10113          	addi	sp,sp,-275
    800071c8:	00c10463          	beq	sp,a2,800071d0 <inst_403>
    800071cc:	e59f806f          	j	80000024 <rvtest_error>

00000000800071d0 <inst_403>:
    800071d0:	55555537          	lui	a0,0x55555
    800071d4:	55550513          	addi	a0,a0,1365 # 55555555 <absimmsh+0x49a847a8>
    800071d8:	00b51513          	slli	a0,a0,0xb
    800071dc:	2aa50513          	addi	a0,a0,682
    800071e0:	00b51513          	slli	a0,a0,0xb
    800071e4:	55550513          	addi	a0,a0,1365
    800071e8:	00a51513          	slli	a0,a0,0xa
    800071ec:	15450513          	addi	a0,a0,340
    800071f0:	000005b7          	lui	a1,0x0
    800071f4:	fff58593          	addi	a1,a1,-1
    800071f8:	00b59593          	slli	a1,a1,0xb
    800071fc:	25758593          	addi	a1,a1,599
    80007200:	00b59593          	slli	a1,a1,0xb
    80007204:	6c358593          	addi	a1,a1,1731
    80007208:	00a59593          	slli	a1,a1,0xa
    8000720c:	0ce58593          	addi	a1,a1,206
    80007210:	40b50633          	sub	a2,a0,a1
    80007214:	3ac0b023          	sd	a2,928(ra)
    80007218:	02aab137          	lui	sp,0x2aab
    8000721c:	aab1011b          	addiw	sp,sp,-1365 # 2aaaaab <offset+0x2aaa6b3>
    80007220:	00c11113          	slli	sp,sp,0xc
    80007224:	b0510113          	addi	sp,sp,-1275
    80007228:	00d11113          	slli	sp,sp,0xd
    8000722c:	5a510113          	addi	sp,sp,1445
    80007230:	00c11113          	slli	sp,sp,0xc
    80007234:	88610113          	addi	sp,sp,-1914
    80007238:	00c10463          	beq	sp,a2,80007240 <inst_404>
    8000723c:	de9f806f          	j	80000024 <rvtest_error>

0000000080007240 <inst_404>:
    80007240:	55555537          	lui	a0,0x55555
    80007244:	55550513          	addi	a0,a0,1365 # 55555555 <absimmsh+0x49a847a8>
    80007248:	00b51513          	slli	a0,a0,0xb
    8000724c:	2aa50513          	addi	a0,a0,682
    80007250:	00b51513          	slli	a0,a0,0xb
    80007254:	55550513          	addi	a0,a0,1365
    80007258:	00a51513          	slli	a0,a0,0xa
    8000725c:	15450513          	addi	a0,a0,340
    80007260:	000005b7          	lui	a1,0x0
    80007264:	00058593          	mv	a1,a1
    80007268:	00b59593          	slli	a1,a1,0xb
    8000726c:	5a858593          	addi	a1,a1,1448 # 5a8 <offset+0x1b0>
    80007270:	00b59593          	slli	a1,a1,0xb
    80007274:	13c58593          	addi	a1,a1,316
    80007278:	00a59593          	slli	a1,a1,0xa
    8000727c:	33458593          	addi	a1,a1,820
    80007280:	40b50633          	sub	a2,a0,a1
    80007284:	3ac0b423          	sd	a2,936(ra)
    80007288:	002ab137          	lui	sp,0x2ab
    8000728c:	aab1011b          	addiw	sp,sp,-1365 # 2aaaab <offset+0x2aa6b3>
    80007290:	00c11113          	slli	sp,sp,0xc
    80007294:	aa510113          	addi	sp,sp,-1371
    80007298:	01011113          	slli	sp,sp,0x10
    8000729c:	28310113          	addi	sp,sp,643
    800072a0:	00d11113          	slli	sp,sp,0xd
    800072a4:	22010113          	addi	sp,sp,544
    800072a8:	00c10463          	beq	sp,a2,800072b0 <inst_405>
    800072ac:	d79f806f          	j	80000024 <rvtest_error>

00000000800072b0 <inst_405>:
    800072b0:	00000513          	li	a0,0
    800072b4:	00300593          	li	a1,3
    800072b8:	40b50633          	sub	a2,a0,a1
    800072bc:	3ac0b823          	sd	a2,944(ra)
    800072c0:	ffd00113          	li	sp,-3
    800072c4:	00c10463          	beq	sp,a2,800072cc <inst_406>
    800072c8:	d5df806f          	j	80000024 <rvtest_error>

00000000800072cc <inst_406>:
    800072cc:	00000513          	li	a0,0
    800072d0:	555555b7          	lui	a1,0x55555
    800072d4:	55558593          	addi	a1,a1,1365 # 55555555 <absimmsh+0x49a847a8>
    800072d8:	00b59593          	slli	a1,a1,0xb
    800072dc:	2aa58593          	addi	a1,a1,682
    800072e0:	00b59593          	slli	a1,a1,0xb
    800072e4:	55558593          	addi	a1,a1,1365
    800072e8:	00a59593          	slli	a1,a1,0xa
    800072ec:	15558593          	addi	a1,a1,341
    800072f0:	40b50633          	sub	a2,a0,a1
    800072f4:	3ac0bc23          	sd	a2,952(ra)
    800072f8:	faaab137          	lui	sp,0xfaaab
    800072fc:	aab1011b          	addiw	sp,sp,-1365 # fffffffffaaaaaab <absimm+0xffffffff3fd9cfdb>
    80007300:	00c11113          	slli	sp,sp,0xc
    80007304:	aab10113          	addi	sp,sp,-1365
    80007308:	00c11113          	slli	sp,sp,0xc
    8000730c:	aab10113          	addi	sp,sp,-1365
    80007310:	00c11113          	slli	sp,sp,0xc
    80007314:	aab10113          	addi	sp,sp,-1365
    80007318:	00c10463          	beq	sp,a2,80007320 <inst_407>
    8000731c:	d09f806f          	j	80000024 <rvtest_error>

0000000080007320 <inst_407>:
    80007320:	00000513          	li	a0,0
    80007324:	aaaab5b7          	lui	a1,0xaaaab
    80007328:	aaa58593          	addi	a1,a1,-1366 # ffffffffaaaaaaaa <absimm+0xfffffffeefd9cfda>
    8000732c:	00b59593          	slli	a1,a1,0xb
    80007330:	55558593          	addi	a1,a1,1365
    80007334:	00b59593          	slli	a1,a1,0xb
    80007338:	2aa58593          	addi	a1,a1,682
    8000733c:	00a59593          	slli	a1,a1,0xa
    80007340:	2aa58593          	addi	a1,a1,682
    80007344:	40b50633          	sub	a2,a0,a1
    80007348:	3cc0b023          	sd	a2,960(ra)
    8000734c:	05555137          	lui	sp,0x5555
    80007350:	5551011b          	addiw	sp,sp,1365 # 5555555 <offset+0x555515d>
    80007354:	00c11113          	slli	sp,sp,0xc
    80007358:	55510113          	addi	sp,sp,1365
    8000735c:	00c11113          	slli	sp,sp,0xc
    80007360:	55510113          	addi	sp,sp,1365
    80007364:	00c11113          	slli	sp,sp,0xc
    80007368:	55610113          	addi	sp,sp,1366
    8000736c:	00c10463          	beq	sp,a2,80007374 <inst_408>
    80007370:	cb5f806f          	j	80000024 <rvtest_error>

0000000080007374 <inst_408>:
    80007374:	00000513          	li	a0,0
    80007378:	00500593          	li	a1,5
    8000737c:	40b50633          	sub	a2,a0,a1
    80007380:	3cc0b423          	sd	a2,968(ra)
    80007384:	ffb00113          	li	sp,-5
    80007388:	00c10463          	beq	sp,a2,80007390 <inst_409>
    8000738c:	c99f806f          	j	80000024 <rvtest_error>

0000000080007390 <inst_409>:
    80007390:	00000513          	li	a0,0
    80007394:	333335b7          	lui	a1,0x33333
    80007398:	33358593          	addi	a1,a1,819 # 33333333 <absimmsh+0x27862586>
    8000739c:	00b59593          	slli	a1,a1,0xb
    800073a0:	19958593          	addi	a1,a1,409
    800073a4:	00b59593          	slli	a1,a1,0xb
    800073a8:	4cc58593          	addi	a1,a1,1228
    800073ac:	00a59593          	slli	a1,a1,0xa
    800073b0:	33358593          	addi	a1,a1,819
    800073b4:	40b50633          	sub	a2,a0,a1
    800073b8:	3cc0b823          	sd	a2,976(ra)
    800073bc:	fcccd137          	lui	sp,0xfcccd
    800073c0:	ccd1011b          	addiw	sp,sp,-819 # fffffffffccccccd <absimm+0xffffffff41fbf1fd>
    800073c4:	00c11113          	slli	sp,sp,0xc
    800073c8:	ccd10113          	addi	sp,sp,-819
    800073cc:	00c11113          	slli	sp,sp,0xc
    800073d0:	ccd10113          	addi	sp,sp,-819
    800073d4:	00c11113          	slli	sp,sp,0xc
    800073d8:	ccd10113          	addi	sp,sp,-819
    800073dc:	00c10463          	beq	sp,a2,800073e4 <inst_410>
    800073e0:	c45f806f          	j	80000024 <rvtest_error>

00000000800073e4 <inst_410>:
    800073e4:	00000513          	li	a0,0
    800073e8:	666665b7          	lui	a1,0x66666
    800073ec:	66658593          	addi	a1,a1,1638 # 66666666 <absimmsh+0x5ab958b9>
    800073f0:	00b59593          	slli	a1,a1,0xb
    800073f4:	33358593          	addi	a1,a1,819
    800073f8:	00b59593          	slli	a1,a1,0xb
    800073fc:	19958593          	addi	a1,a1,409
    80007400:	00a59593          	slli	a1,a1,0xa
    80007404:	26658593          	addi	a1,a1,614
    80007408:	40b50633          	sub	a2,a0,a1
    8000740c:	3cc0bc23          	sd	a2,984(ra)
    80007410:	fcccd137          	lui	sp,0xfcccd
    80007414:	ccd1011b          	addiw	sp,sp,-819 # fffffffffccccccd <absimm+0xffffffff41fbf1fd>
    80007418:	00c11113          	slli	sp,sp,0xc
    8000741c:	ccd10113          	addi	sp,sp,-819
    80007420:	00c11113          	slli	sp,sp,0xc
    80007424:	ccd10113          	addi	sp,sp,-819
    80007428:	00d11113          	slli	sp,sp,0xd
    8000742c:	99a10113          	addi	sp,sp,-1638
    80007430:	00c10463          	beq	sp,a2,80007438 <inst_411>
    80007434:	bf1f806f          	j	80000024 <rvtest_error>

0000000080007438 <inst_411>:
    80007438:	00000513          	li	a0,0
    8000743c:	000005b7          	lui	a1,0x0
    80007440:	fff58593          	addi	a1,a1,-1
    80007444:	00b59593          	slli	a1,a1,0xb
    80007448:	25758593          	addi	a1,a1,599
    8000744c:	00b59593          	slli	a1,a1,0xb
    80007450:	6c358593          	addi	a1,a1,1731
    80007454:	00a59593          	slli	a1,a1,0xa
    80007458:	0cd58593          	addi	a1,a1,205
    8000745c:	40b50633          	sub	a2,a0,a1
    80007460:	3ec0b023          	sd	a2,992(ra)
    80007464:	000b5137          	lui	sp,0xb5
    80007468:	04f1011b          	addiw	sp,sp,79 # b504f <offset+0xb4c57>
    8000746c:	00c11113          	slli	sp,sp,0xc
    80007470:	33310113          	addi	sp,sp,819
    80007474:	00c10463          	beq	sp,a2,8000747c <inst_412>
    80007478:	badf806f          	j	80000024 <rvtest_error>

000000008000747c <inst_412>:
    8000747c:	00000513          	li	a0,0
    80007480:	000005b7          	lui	a1,0x0
    80007484:	fff58593          	addi	a1,a1,-1
    80007488:	00b59593          	slli	a1,a1,0xb
    8000748c:	25758593          	addi	a1,a1,599
    80007490:	00b59593          	slli	a1,a1,0xb
    80007494:	6c358593          	addi	a1,a1,1731
    80007498:	00a59593          	slli	a1,a1,0xa
    8000749c:	0ce58593          	addi	a1,a1,206
    800074a0:	40b50633          	sub	a2,a0,a1
    800074a4:	3ec0b423          	sd	a2,1000(ra)
    800074a8:	000b5137          	lui	sp,0xb5
    800074ac:	04f1011b          	addiw	sp,sp,79 # b504f <offset+0xb4c57>
    800074b0:	00c11113          	slli	sp,sp,0xc
    800074b4:	33210113          	addi	sp,sp,818
    800074b8:	00c10463          	beq	sp,a2,800074c0 <inst_413>
    800074bc:	b69f806f          	j	80000024 <rvtest_error>

00000000800074c0 <inst_413>:
    800074c0:	00000513          	li	a0,0
    800074c4:	000005b7          	lui	a1,0x0
    800074c8:	00058593          	mv	a1,a1
    800074cc:	00b59593          	slli	a1,a1,0xb
    800074d0:	5a858593          	addi	a1,a1,1448 # 5a8 <offset+0x1b0>
    800074d4:	00b59593          	slli	a1,a1,0xb
    800074d8:	13c58593          	addi	a1,a1,316
    800074dc:	00a59593          	slli	a1,a1,0xa
    800074e0:	33458593          	addi	a1,a1,820
    800074e4:	40b50633          	sub	a2,a0,a1
    800074e8:	3ec0b823          	sd	a2,1008(ra)
    800074ec:	fff4b137          	lui	sp,0xfff4b
    800074f0:	fb11011b          	addiw	sp,sp,-79 # fffffffffff4afb1 <absimm+0xffffffff4523d4e1>
    800074f4:	00c11113          	slli	sp,sp,0xc
    800074f8:	ccc10113          	addi	sp,sp,-820
    800074fc:	00c10463          	beq	sp,a2,80007504 <inst_414>
    80007500:	b25f806f          	j	80000024 <rvtest_error>

0000000080007504 <inst_414>:
    80007504:	00400513          	li	a0,4
    80007508:	00300593          	li	a1,3
    8000750c:	40b50633          	sub	a2,a0,a1
    80007510:	3ec0bc23          	sd	a2,1016(ra)
    80007514:	00100113          	li	sp,1
    80007518:	00c10463          	beq	sp,a2,80007520 <inst_415>
    8000751c:	b09f806f          	j	80000024 <rvtest_error>

0000000080007520 <inst_415>:
    80007520:	00400513          	li	a0,4
    80007524:	555555b7          	lui	a1,0x55555
    80007528:	55558593          	addi	a1,a1,1365 # 55555555 <absimmsh+0x49a847a8>
    8000752c:	00b59593          	slli	a1,a1,0xb
    80007530:	2aa58593          	addi	a1,a1,682
    80007534:	00b59593          	slli	a1,a1,0xb
    80007538:	55558593          	addi	a1,a1,1365
    8000753c:	00a59593          	slli	a1,a1,0xa
    80007540:	15558593          	addi	a1,a1,341
    80007544:	40b50633          	sub	a2,a0,a1
    80007548:	40c0b023          	sd	a2,1024(ra)
    8000754c:	faaab137          	lui	sp,0xfaaab
    80007550:	aab1011b          	addiw	sp,sp,-1365 # fffffffffaaaaaab <absimm+0xffffffff3fd9cfdb>
    80007554:	00c11113          	slli	sp,sp,0xc
    80007558:	aab10113          	addi	sp,sp,-1365
    8000755c:	00c11113          	slli	sp,sp,0xc
    80007560:	aab10113          	addi	sp,sp,-1365
    80007564:	00c11113          	slli	sp,sp,0xc
    80007568:	aaf10113          	addi	sp,sp,-1361
    8000756c:	00c10463          	beq	sp,a2,80007574 <inst_416>
    80007570:	ab5f806f          	j	80000024 <rvtest_error>

0000000080007574 <inst_416>:
    80007574:	00400513          	li	a0,4
    80007578:	aaaab5b7          	lui	a1,0xaaaab
    8000757c:	aaa58593          	addi	a1,a1,-1366 # ffffffffaaaaaaaa <absimm+0xfffffffeefd9cfda>
    80007580:	00b59593          	slli	a1,a1,0xb
    80007584:	55558593          	addi	a1,a1,1365
    80007588:	00b59593          	slli	a1,a1,0xb
    8000758c:	2aa58593          	addi	a1,a1,682
    80007590:	00a59593          	slli	a1,a1,0xa
    80007594:	2aa58593          	addi	a1,a1,682
    80007598:	40b50633          	sub	a2,a0,a1
    8000759c:	40c0b423          	sd	a2,1032(ra)
    800075a0:	05555137          	lui	sp,0x5555
    800075a4:	5551011b          	addiw	sp,sp,1365 # 5555555 <offset+0x555515d>
    800075a8:	00c11113          	slli	sp,sp,0xc
    800075ac:	55510113          	addi	sp,sp,1365
    800075b0:	00c11113          	slli	sp,sp,0xc
    800075b4:	55510113          	addi	sp,sp,1365
    800075b8:	00c11113          	slli	sp,sp,0xc
    800075bc:	55a10113          	addi	sp,sp,1370
    800075c0:	00c10463          	beq	sp,a2,800075c8 <inst_417>
    800075c4:	a61f806f          	j	80000024 <rvtest_error>

00000000800075c8 <inst_417>:
    800075c8:	00400513          	li	a0,4
    800075cc:	00500593          	li	a1,5
    800075d0:	40b50633          	sub	a2,a0,a1
    800075d4:	40c0b823          	sd	a2,1040(ra)
    800075d8:	fff00113          	li	sp,-1
    800075dc:	00c10463          	beq	sp,a2,800075e4 <inst_418>
    800075e0:	a45f806f          	j	80000024 <rvtest_error>

00000000800075e4 <inst_418>:
    800075e4:	00400513          	li	a0,4
    800075e8:	333335b7          	lui	a1,0x33333
    800075ec:	33358593          	addi	a1,a1,819 # 33333333 <absimmsh+0x27862586>
    800075f0:	00b59593          	slli	a1,a1,0xb
    800075f4:	19958593          	addi	a1,a1,409
    800075f8:	00b59593          	slli	a1,a1,0xb
    800075fc:	4cc58593          	addi	a1,a1,1228
    80007600:	00a59593          	slli	a1,a1,0xa
    80007604:	33358593          	addi	a1,a1,819
    80007608:	40b50633          	sub	a2,a0,a1
    8000760c:	40c0bc23          	sd	a2,1048(ra)
    80007610:	fcccd137          	lui	sp,0xfcccd
    80007614:	ccd1011b          	addiw	sp,sp,-819 # fffffffffccccccd <absimm+0xffffffff41fbf1fd>
    80007618:	00c11113          	slli	sp,sp,0xc
    8000761c:	ccd10113          	addi	sp,sp,-819
    80007620:	00c11113          	slli	sp,sp,0xc
    80007624:	ccd10113          	addi	sp,sp,-819
    80007628:	00c11113          	slli	sp,sp,0xc
    8000762c:	cd110113          	addi	sp,sp,-815
    80007630:	00c10463          	beq	sp,a2,80007638 <inst_419>
    80007634:	9f1f806f          	j	80000024 <rvtest_error>

0000000080007638 <inst_419>:
    80007638:	00400513          	li	a0,4
    8000763c:	666665b7          	lui	a1,0x66666
    80007640:	66658593          	addi	a1,a1,1638 # 66666666 <absimmsh+0x5ab958b9>
    80007644:	00b59593          	slli	a1,a1,0xb
    80007648:	33358593          	addi	a1,a1,819
    8000764c:	00b59593          	slli	a1,a1,0xb
    80007650:	19958593          	addi	a1,a1,409
    80007654:	00a59593          	slli	a1,a1,0xa
    80007658:	26658593          	addi	a1,a1,614
    8000765c:	40b50633          	sub	a2,a0,a1
    80007660:	42c0b023          	sd	a2,1056(ra)
    80007664:	fcccd137          	lui	sp,0xfcccd
    80007668:	ccd1011b          	addiw	sp,sp,-819 # fffffffffccccccd <absimm+0xffffffff41fbf1fd>
    8000766c:	00c11113          	slli	sp,sp,0xc
    80007670:	ccd10113          	addi	sp,sp,-819
    80007674:	00c11113          	slli	sp,sp,0xc
    80007678:	ccd10113          	addi	sp,sp,-819
    8000767c:	00d11113          	slli	sp,sp,0xd
    80007680:	99e10113          	addi	sp,sp,-1634
    80007684:	00c10463          	beq	sp,a2,8000768c <inst_420>
    80007688:	99df806f          	j	80000024 <rvtest_error>

000000008000768c <inst_420>:
    8000768c:	00400513          	li	a0,4
    80007690:	000005b7          	lui	a1,0x0
    80007694:	fff58593          	addi	a1,a1,-1
    80007698:	00b59593          	slli	a1,a1,0xb
    8000769c:	25758593          	addi	a1,a1,599
    800076a0:	00b59593          	slli	a1,a1,0xb
    800076a4:	6c358593          	addi	a1,a1,1731
    800076a8:	00a59593          	slli	a1,a1,0xa
    800076ac:	0cd58593          	addi	a1,a1,205
    800076b0:	40b50633          	sub	a2,a0,a1
    800076b4:	42c0b423          	sd	a2,1064(ra)
    800076b8:	000b5137          	lui	sp,0xb5
    800076bc:	04f1011b          	addiw	sp,sp,79 # b504f <offset+0xb4c57>
    800076c0:	00c11113          	slli	sp,sp,0xc
    800076c4:	33710113          	addi	sp,sp,823
    800076c8:	00c10463          	beq	sp,a2,800076d0 <inst_421>
    800076cc:	959f806f          	j	80000024 <rvtest_error>

00000000800076d0 <inst_421>:
    800076d0:	00400513          	li	a0,4
    800076d4:	000005b7          	lui	a1,0x0
    800076d8:	00058593          	mv	a1,a1
    800076dc:	00b59593          	slli	a1,a1,0xb
    800076e0:	5a858593          	addi	a1,a1,1448 # 5a8 <offset+0x1b0>
    800076e4:	00b59593          	slli	a1,a1,0xb
    800076e8:	13c58593          	addi	a1,a1,316
    800076ec:	00a59593          	slli	a1,a1,0xa
    800076f0:	33358593          	addi	a1,a1,819
    800076f4:	40b50633          	sub	a2,a0,a1
    800076f8:	42c0b823          	sd	a2,1072(ra)
    800076fc:	fff4b137          	lui	sp,0xfff4b
    80007700:	fb11011b          	addiw	sp,sp,-79 # fffffffffff4afb1 <absimm+0xffffffff4523d4e1>
    80007704:	00c11113          	slli	sp,sp,0xc
    80007708:	cd110113          	addi	sp,sp,-815
    8000770c:	00c10463          	beq	sp,a2,80007714 <inst_422>
    80007710:	915f806f          	j	80000024 <rvtest_error>

0000000080007714 <inst_422>:
    80007714:	00400513          	li	a0,4
    80007718:	00200593          	li	a1,2
    8000771c:	40b50633          	sub	a2,a0,a1
    80007720:	42c0bc23          	sd	a2,1080(ra)
    80007724:	00200113          	li	sp,2
    80007728:	00c10463          	beq	sp,a2,80007730 <inst_423>
    8000772c:	8f9f806f          	j	80000024 <rvtest_error>

0000000080007730 <inst_423>:
    80007730:	00400513          	li	a0,4
    80007734:	555555b7          	lui	a1,0x55555
    80007738:	55558593          	addi	a1,a1,1365 # 55555555 <absimmsh+0x49a847a8>
    8000773c:	00b59593          	slli	a1,a1,0xb
    80007740:	2aa58593          	addi	a1,a1,682
    80007744:	00b59593          	slli	a1,a1,0xb
    80007748:	55558593          	addi	a1,a1,1365
    8000774c:	00a59593          	slli	a1,a1,0xa
    80007750:	15458593          	addi	a1,a1,340
    80007754:	40b50633          	sub	a2,a0,a1
    80007758:	44c0b023          	sd	a2,1088(ra)
    8000775c:	faaab137          	lui	sp,0xfaaab
    80007760:	aab1011b          	addiw	sp,sp,-1365 # fffffffffaaaaaab <absimm+0xffffffff3fd9cfdb>
    80007764:	00c11113          	slli	sp,sp,0xc
    80007768:	aab10113          	addi	sp,sp,-1365
    8000776c:	00c11113          	slli	sp,sp,0xc
    80007770:	aab10113          	addi	sp,sp,-1365
    80007774:	00c11113          	slli	sp,sp,0xc
    80007778:	ab010113          	addi	sp,sp,-1360
    8000777c:	00c10463          	beq	sp,a2,80007784 <inst_424>
    80007780:	8a5f806f          	j	80000024 <rvtest_error>

0000000080007784 <inst_424>:
    80007784:	00400513          	li	a0,4
    80007788:	00000593          	li	a1,0
    8000778c:	40b50633          	sub	a2,a0,a1
    80007790:	44c0b423          	sd	a2,1096(ra)
    80007794:	00400113          	li	sp,4
    80007798:	00c10463          	beq	sp,a2,800077a0 <inst_425>
    8000779c:	889f806f          	j	80000024 <rvtest_error>

00000000800077a0 <inst_425>:
    800077a0:	00400513          	li	a0,4
    800077a4:	333335b7          	lui	a1,0x33333
    800077a8:	33358593          	addi	a1,a1,819 # 33333333 <absimmsh+0x27862586>
    800077ac:	00b59593          	slli	a1,a1,0xb
    800077b0:	19958593          	addi	a1,a1,409
    800077b4:	00b59593          	slli	a1,a1,0xb
    800077b8:	4cc58593          	addi	a1,a1,1228
    800077bc:	00a59593          	slli	a1,a1,0xa
    800077c0:	33258593          	addi	a1,a1,818
    800077c4:	40b50633          	sub	a2,a0,a1
    800077c8:	44c0b823          	sd	a2,1104(ra)
    800077cc:	fcccd137          	lui	sp,0xfcccd
    800077d0:	ccd1011b          	addiw	sp,sp,-819 # fffffffffccccccd <absimm+0xffffffff41fbf1fd>
    800077d4:	00c11113          	slli	sp,sp,0xc
    800077d8:	ccd10113          	addi	sp,sp,-819
    800077dc:	00c11113          	slli	sp,sp,0xc
    800077e0:	ccd10113          	addi	sp,sp,-819
    800077e4:	00c11113          	slli	sp,sp,0xc
    800077e8:	cd210113          	addi	sp,sp,-814
    800077ec:	00c10463          	beq	sp,a2,800077f4 <inst_426>
    800077f0:	835f806f          	j	80000024 <rvtest_error>

00000000800077f4 <inst_426>:
    800077f4:	00400513          	li	a0,4
    800077f8:	666665b7          	lui	a1,0x66666
    800077fc:	66658593          	addi	a1,a1,1638 # 66666666 <absimmsh+0x5ab958b9>
    80007800:	00b59593          	slli	a1,a1,0xb
    80007804:	33358593          	addi	a1,a1,819
    80007808:	00b59593          	slli	a1,a1,0xb
    8000780c:	19958593          	addi	a1,a1,409
    80007810:	00a59593          	slli	a1,a1,0xa
    80007814:	26558593          	addi	a1,a1,613
    80007818:	40b50633          	sub	a2,a0,a1
    8000781c:	44c0bc23          	sd	a2,1112(ra)
    80007820:	fcccd137          	lui	sp,0xfcccd
    80007824:	ccd1011b          	addiw	sp,sp,-819 # fffffffffccccccd <absimm+0xffffffff41fbf1fd>
    80007828:	00c11113          	slli	sp,sp,0xc
    8000782c:	ccd10113          	addi	sp,sp,-819
    80007830:	00c11113          	slli	sp,sp,0xc
    80007834:	ccd10113          	addi	sp,sp,-819
    80007838:	00d11113          	slli	sp,sp,0xd
    8000783c:	99f10113          	addi	sp,sp,-1633
    80007840:	00c10463          	beq	sp,a2,80007848 <inst_427>
    80007844:	fe0f806f          	j	80000024 <rvtest_error>

0000000080007848 <inst_427>:
    80007848:	00400513          	li	a0,4
    8000784c:	000005b7          	lui	a1,0x0
    80007850:	00058593          	mv	a1,a1
    80007854:	00b59593          	slli	a1,a1,0xb
    80007858:	5a858593          	addi	a1,a1,1448 # 5a8 <offset+0x1b0>
    8000785c:	00b59593          	slli	a1,a1,0xb
    80007860:	13c58593          	addi	a1,a1,316
    80007864:	00a59593          	slli	a1,a1,0xa
    80007868:	33258593          	addi	a1,a1,818
    8000786c:	40b50633          	sub	a2,a0,a1
    80007870:	46c0b023          	sd	a2,1120(ra)
    80007874:	fff4b137          	lui	sp,0xfff4b
    80007878:	fb11011b          	addiw	sp,sp,-79 # fffffffffff4afb1 <absimm+0xffffffff4523d4e1>
    8000787c:	00c11113          	slli	sp,sp,0xc
    80007880:	cd210113          	addi	sp,sp,-814
    80007884:	00c10463          	beq	sp,a2,8000788c <inst_428>
    80007888:	f9cf806f          	j	80000024 <rvtest_error>

000000008000788c <inst_428>:
    8000788c:	00400513          	li	a0,4
    80007890:	555555b7          	lui	a1,0x55555
    80007894:	55558593          	addi	a1,a1,1365 # 55555555 <absimmsh+0x49a847a8>
    80007898:	00b59593          	slli	a1,a1,0xb
    8000789c:	2aa58593          	addi	a1,a1,682
    800078a0:	00b59593          	slli	a1,a1,0xb
    800078a4:	55558593          	addi	a1,a1,1365
    800078a8:	00a59593          	slli	a1,a1,0xa
    800078ac:	15658593          	addi	a1,a1,342
    800078b0:	40b50633          	sub	a2,a0,a1
    800078b4:	46c0b423          	sd	a2,1128(ra)
    800078b8:	faaab137          	lui	sp,0xfaaab
    800078bc:	aab1011b          	addiw	sp,sp,-1365 # fffffffffaaaaaab <absimm+0xffffffff3fd9cfdb>
    800078c0:	00c11113          	slli	sp,sp,0xc
    800078c4:	aab10113          	addi	sp,sp,-1365
    800078c8:	00c11113          	slli	sp,sp,0xc
    800078cc:	aab10113          	addi	sp,sp,-1365
    800078d0:	00c11113          	slli	sp,sp,0xc
    800078d4:	aae10113          	addi	sp,sp,-1362
    800078d8:	00c10463          	beq	sp,a2,800078e0 <inst_429>
    800078dc:	f48f806f          	j	80000024 <rvtest_error>

00000000800078e0 <inst_429>:
    800078e0:	00400513          	li	a0,4
    800078e4:	aaaab5b7          	lui	a1,0xaaaab
    800078e8:	aaa58593          	addi	a1,a1,-1366 # ffffffffaaaaaaaa <absimm+0xfffffffeefd9cfda>
    800078ec:	00b59593          	slli	a1,a1,0xb
    800078f0:	55558593          	addi	a1,a1,1365
    800078f4:	00b59593          	slli	a1,a1,0xb
    800078f8:	2aa58593          	addi	a1,a1,682
    800078fc:	00a59593          	slli	a1,a1,0xa
    80007900:	2ab58593          	addi	a1,a1,683
    80007904:	40b50633          	sub	a2,a0,a1
    80007908:	46c0b823          	sd	a2,1136(ra)
    8000790c:	05555137          	lui	sp,0x5555
    80007910:	5551011b          	addiw	sp,sp,1365 # 5555555 <offset+0x555515d>
    80007914:	00c11113          	slli	sp,sp,0xc
    80007918:	55510113          	addi	sp,sp,1365
    8000791c:	00c11113          	slli	sp,sp,0xc
    80007920:	55510113          	addi	sp,sp,1365
    80007924:	00c11113          	slli	sp,sp,0xc
    80007928:	55910113          	addi	sp,sp,1369
    8000792c:	00c10463          	beq	sp,a2,80007934 <inst_430>
    80007930:	ef4f806f          	j	80000024 <rvtest_error>

0000000080007934 <inst_430>:
    80007934:	00400513          	li	a0,4
    80007938:	00600593          	li	a1,6
    8000793c:	40b50633          	sub	a2,a0,a1
    80007940:	46c0bc23          	sd	a2,1144(ra)
    80007944:	ffe00113          	li	sp,-2
    80007948:	00c10463          	beq	sp,a2,80007950 <inst_431>
    8000794c:	ed8f806f          	j	80000024 <rvtest_error>

0000000080007950 <inst_431>:
    80007950:	00400513          	li	a0,4
    80007954:	333335b7          	lui	a1,0x33333
    80007958:	33358593          	addi	a1,a1,819 # 33333333 <absimmsh+0x27862586>
    8000795c:	00b59593          	slli	a1,a1,0xb
    80007960:	19958593          	addi	a1,a1,409
    80007964:	00b59593          	slli	a1,a1,0xb
    80007968:	4cc58593          	addi	a1,a1,1228
    8000796c:	00a59593          	slli	a1,a1,0xa
    80007970:	33458593          	addi	a1,a1,820
    80007974:	40b50633          	sub	a2,a0,a1
    80007978:	48c0b023          	sd	a2,1152(ra)
    8000797c:	fcccd137          	lui	sp,0xfcccd
    80007980:	ccd1011b          	addiw	sp,sp,-819 # fffffffffccccccd <absimm+0xffffffff41fbf1fd>
    80007984:	00c11113          	slli	sp,sp,0xc
    80007988:	ccd10113          	addi	sp,sp,-819
    8000798c:	00c11113          	slli	sp,sp,0xc
    80007990:	ccd10113          	addi	sp,sp,-819
    80007994:	00c11113          	slli	sp,sp,0xc
    80007998:	cd010113          	addi	sp,sp,-816
    8000799c:	00c10463          	beq	sp,a2,800079a4 <inst_432>
    800079a0:	e84f806f          	j	80000024 <rvtest_error>

00000000800079a4 <inst_432>:
    800079a4:	00400513          	li	a0,4
    800079a8:	666665b7          	lui	a1,0x66666
    800079ac:	66658593          	addi	a1,a1,1638 # 66666666 <absimmsh+0x5ab958b9>
    800079b0:	00b59593          	slli	a1,a1,0xb
    800079b4:	33358593          	addi	a1,a1,819
    800079b8:	00b59593          	slli	a1,a1,0xb
    800079bc:	19958593          	addi	a1,a1,409
    800079c0:	00a59593          	slli	a1,a1,0xa
    800079c4:	26758593          	addi	a1,a1,615
    800079c8:	40b50633          	sub	a2,a0,a1
    800079cc:	48c0b423          	sd	a2,1160(ra)
    800079d0:	fcccd137          	lui	sp,0xfcccd
    800079d4:	ccd1011b          	addiw	sp,sp,-819 # fffffffffccccccd <absimm+0xffffffff41fbf1fd>
    800079d8:	00c11113          	slli	sp,sp,0xc
    800079dc:	ccd10113          	addi	sp,sp,-819
    800079e0:	00c11113          	slli	sp,sp,0xc
    800079e4:	ccd10113          	addi	sp,sp,-819
    800079e8:	00d11113          	slli	sp,sp,0xd
    800079ec:	99d10113          	addi	sp,sp,-1635
    800079f0:	00c10463          	beq	sp,a2,800079f8 <inst_433>
    800079f4:	e30f806f          	j	80000024 <rvtest_error>

00000000800079f8 <inst_433>:
    800079f8:	00400513          	li	a0,4
    800079fc:	000005b7          	lui	a1,0x0
    80007a00:	fff58593          	addi	a1,a1,-1
    80007a04:	00b59593          	slli	a1,a1,0xb
    80007a08:	25758593          	addi	a1,a1,599
    80007a0c:	00b59593          	slli	a1,a1,0xb
    80007a10:	6c358593          	addi	a1,a1,1731
    80007a14:	00a59593          	slli	a1,a1,0xa
    80007a18:	0ce58593          	addi	a1,a1,206
    80007a1c:	40b50633          	sub	a2,a0,a1
    80007a20:	48c0b823          	sd	a2,1168(ra)
    80007a24:	000b5137          	lui	sp,0xb5
    80007a28:	04f1011b          	addiw	sp,sp,79 # b504f <offset+0xb4c57>
    80007a2c:	00c11113          	slli	sp,sp,0xc
    80007a30:	33610113          	addi	sp,sp,822
    80007a34:	00c10463          	beq	sp,a2,80007a3c <inst_434>
    80007a38:	decf806f          	j	80000024 <rvtest_error>

0000000080007a3c <inst_434>:
    80007a3c:	00400513          	li	a0,4
    80007a40:	000005b7          	lui	a1,0x0
    80007a44:	00058593          	mv	a1,a1
    80007a48:	00b59593          	slli	a1,a1,0xb
    80007a4c:	5a858593          	addi	a1,a1,1448 # 5a8 <offset+0x1b0>
    80007a50:	00b59593          	slli	a1,a1,0xb
    80007a54:	13c58593          	addi	a1,a1,316
    80007a58:	00a59593          	slli	a1,a1,0xa
    80007a5c:	33458593          	addi	a1,a1,820
    80007a60:	40b50633          	sub	a2,a0,a1
    80007a64:	48c0bc23          	sd	a2,1176(ra)
    80007a68:	fff4b137          	lui	sp,0xfff4b
    80007a6c:	fb11011b          	addiw	sp,sp,-79 # fffffffffff4afb1 <absimm+0xffffffff4523d4e1>
    80007a70:	00c11113          	slli	sp,sp,0xc
    80007a74:	cd010113          	addi	sp,sp,-816
    80007a78:	00c10463          	beq	sp,a2,80007a80 <inst_435>
    80007a7c:	da8f806f          	j	80000024 <rvtest_error>

0000000080007a80 <inst_435>:
    80007a80:	33333537          	lui	a0,0x33333
    80007a84:	33350513          	addi	a0,a0,819 # 33333333 <absimmsh+0x27862586>
    80007a88:	00b51513          	slli	a0,a0,0xb
    80007a8c:	19950513          	addi	a0,a0,409
    80007a90:	00b51513          	slli	a0,a0,0xb
    80007a94:	4cc50513          	addi	a0,a0,1228
    80007a98:	00a51513          	slli	a0,a0,0xa
    80007a9c:	33250513          	addi	a0,a0,818
    80007aa0:	00300593          	li	a1,3
    80007aa4:	40b50633          	sub	a2,a0,a1
    80007aa8:	4ac0b023          	sd	a2,1184(ra)
    80007aac:	03333137          	lui	sp,0x3333
    80007ab0:	3331011b          	addiw	sp,sp,819 # 3333333 <offset+0x3332f3b>
    80007ab4:	00c11113          	slli	sp,sp,0xc
    80007ab8:	33310113          	addi	sp,sp,819
    80007abc:	00c11113          	slli	sp,sp,0xc
    80007ac0:	33310113          	addi	sp,sp,819
    80007ac4:	00c11113          	slli	sp,sp,0xc
    80007ac8:	32f10113          	addi	sp,sp,815
    80007acc:	00c10463          	beq	sp,a2,80007ad4 <inst_436>
    80007ad0:	d54f806f          	j	80000024 <rvtest_error>

0000000080007ad4 <inst_436>:
    80007ad4:	33333537          	lui	a0,0x33333
    80007ad8:	33350513          	addi	a0,a0,819 # 33333333 <absimmsh+0x27862586>
    80007adc:	00b51513          	slli	a0,a0,0xb
    80007ae0:	19950513          	addi	a0,a0,409
    80007ae4:	00b51513          	slli	a0,a0,0xb
    80007ae8:	4cc50513          	addi	a0,a0,1228
    80007aec:	00a51513          	slli	a0,a0,0xa
    80007af0:	33250513          	addi	a0,a0,818
    80007af4:	555555b7          	lui	a1,0x55555
    80007af8:	55558593          	addi	a1,a1,1365 # 55555555 <absimmsh+0x49a847a8>
    80007afc:	00b59593          	slli	a1,a1,0xb
    80007b00:	2aa58593          	addi	a1,a1,682
    80007b04:	00b59593          	slli	a1,a1,0xb
    80007b08:	55558593          	addi	a1,a1,1365
    80007b0c:	00a59593          	slli	a1,a1,0xa
    80007b10:	15558593          	addi	a1,a1,341
    80007b14:	40b50633          	sub	a2,a0,a1
    80007b18:	4ac0b423          	sd	a2,1192(ra)
    80007b1c:	feeef137          	lui	sp,0xfeeef
    80007b20:	eef1011b          	addiw	sp,sp,-273 # fffffffffeeeeeef <absimm+0xffffffff441e141f>
    80007b24:	00c11113          	slli	sp,sp,0xc
    80007b28:	eef10113          	addi	sp,sp,-273
    80007b2c:	00c11113          	slli	sp,sp,0xc
    80007b30:	eef10113          	addi	sp,sp,-273
    80007b34:	00d11113          	slli	sp,sp,0xd
    80007b38:	ddd10113          	addi	sp,sp,-547
    80007b3c:	00c10463          	beq	sp,a2,80007b44 <inst_437>
    80007b40:	ce4f806f          	j	80000024 <rvtest_error>

0000000080007b44 <inst_437>:
    80007b44:	33333537          	lui	a0,0x33333
    80007b48:	33350513          	addi	a0,a0,819 # 33333333 <absimmsh+0x27862586>
    80007b4c:	00b51513          	slli	a0,a0,0xb
    80007b50:	19950513          	addi	a0,a0,409
    80007b54:	00b51513          	slli	a0,a0,0xb
    80007b58:	4cc50513          	addi	a0,a0,1228
    80007b5c:	00a51513          	slli	a0,a0,0xa
    80007b60:	33250513          	addi	a0,a0,818
    80007b64:	aaaab5b7          	lui	a1,0xaaaab
    80007b68:	aaa58593          	addi	a1,a1,-1366 # ffffffffaaaaaaaa <absimm+0xfffffffeefd9cfda>
    80007b6c:	00b59593          	slli	a1,a1,0xb
    80007b70:	55558593          	addi	a1,a1,1365
    80007b74:	00b59593          	slli	a1,a1,0xb
    80007b78:	2aa58593          	addi	a1,a1,682
    80007b7c:	00a59593          	slli	a1,a1,0xa
    80007b80:	2aa58593          	addi	a1,a1,682
    80007b84:	40b50633          	sub	a2,a0,a1
    80007b88:	4ac0b823          	sd	a2,1200(ra)
    80007b8c:	f8889137          	lui	sp,0xf8889
    80007b90:	8891011b          	addiw	sp,sp,-1911 # fffffffff8888889 <absimm+0xffffffff3db7adb9>
    80007b94:	00c11113          	slli	sp,sp,0xc
    80007b98:	88910113          	addi	sp,sp,-1911
    80007b9c:	00c11113          	slli	sp,sp,0xc
    80007ba0:	88910113          	addi	sp,sp,-1911
    80007ba4:	00c11113          	slli	sp,sp,0xc
    80007ba8:	88810113          	addi	sp,sp,-1912
    80007bac:	00c10463          	beq	sp,a2,80007bb4 <inst_438>
    80007bb0:	c74f806f          	j	80000024 <rvtest_error>

0000000080007bb4 <inst_438>:
    80007bb4:	33333537          	lui	a0,0x33333
    80007bb8:	33350513          	addi	a0,a0,819 # 33333333 <absimmsh+0x27862586>
    80007bbc:	00b51513          	slli	a0,a0,0xb
    80007bc0:	19950513          	addi	a0,a0,409
    80007bc4:	00b51513          	slli	a0,a0,0xb
    80007bc8:	4cc50513          	addi	a0,a0,1228
    80007bcc:	00a51513          	slli	a0,a0,0xa
    80007bd0:	33250513          	addi	a0,a0,818
    80007bd4:	00500593          	li	a1,5
    80007bd8:	40b50633          	sub	a2,a0,a1
    80007bdc:	4ac0bc23          	sd	a2,1208(ra)
    80007be0:	03333137          	lui	sp,0x3333
    80007be4:	3331011b          	addiw	sp,sp,819 # 3333333 <offset+0x3332f3b>
    80007be8:	00c11113          	slli	sp,sp,0xc
    80007bec:	33310113          	addi	sp,sp,819
    80007bf0:	00c11113          	slli	sp,sp,0xc
    80007bf4:	33310113          	addi	sp,sp,819
    80007bf8:	00c11113          	slli	sp,sp,0xc
    80007bfc:	32d10113          	addi	sp,sp,813
    80007c00:	00c10463          	beq	sp,a2,80007c08 <inst_439>
    80007c04:	c20f806f          	j	80000024 <rvtest_error>

0000000080007c08 <inst_439>:
    80007c08:	33333537          	lui	a0,0x33333
    80007c0c:	33350513          	addi	a0,a0,819 # 33333333 <absimmsh+0x27862586>
    80007c10:	00b51513          	slli	a0,a0,0xb
    80007c14:	19950513          	addi	a0,a0,409
    80007c18:	00b51513          	slli	a0,a0,0xb
    80007c1c:	4cc50513          	addi	a0,a0,1228
    80007c20:	00a51513          	slli	a0,a0,0xa
    80007c24:	33250513          	addi	a0,a0,818
    80007c28:	333335b7          	lui	a1,0x33333
    80007c2c:	33358593          	addi	a1,a1,819 # 33333333 <absimmsh+0x27862586>
    80007c30:	00b59593          	slli	a1,a1,0xb
    80007c34:	19958593          	addi	a1,a1,409
    80007c38:	00b59593          	slli	a1,a1,0xb
    80007c3c:	4cc58593          	addi	a1,a1,1228
    80007c40:	00a59593          	slli	a1,a1,0xa
    80007c44:	33358593          	addi	a1,a1,819
    80007c48:	40b50633          	sub	a2,a0,a1
    80007c4c:	4cc0b023          	sd	a2,1216(ra)
    80007c50:	fff00113          	li	sp,-1
    80007c54:	00c10463          	beq	sp,a2,80007c5c <inst_440>
    80007c58:	bccf806f          	j	80000024 <rvtest_error>

0000000080007c5c <inst_440>:
    80007c5c:	33333537          	lui	a0,0x33333
    80007c60:	33350513          	addi	a0,a0,819 # 33333333 <absimmsh+0x27862586>
    80007c64:	00b51513          	slli	a0,a0,0xb
    80007c68:	19950513          	addi	a0,a0,409
    80007c6c:	00b51513          	slli	a0,a0,0xb
    80007c70:	4cc50513          	addi	a0,a0,1228
    80007c74:	00a51513          	slli	a0,a0,0xa
    80007c78:	33250513          	addi	a0,a0,818
    80007c7c:	666665b7          	lui	a1,0x66666
    80007c80:	66658593          	addi	a1,a1,1638 # 66666666 <absimmsh+0x5ab958b9>
    80007c84:	00b59593          	slli	a1,a1,0xb
    80007c88:	33358593          	addi	a1,a1,819
    80007c8c:	00b59593          	slli	a1,a1,0xb
    80007c90:	19958593          	addi	a1,a1,409
    80007c94:	00a59593          	slli	a1,a1,0xa
    80007c98:	26658593          	addi	a1,a1,614
    80007c9c:	40b50633          	sub	a2,a0,a1
    80007ca0:	4cc0b423          	sd	a2,1224(ra)
    80007ca4:	fcccd137          	lui	sp,0xfcccd
    80007ca8:	ccd1011b          	addiw	sp,sp,-819 # fffffffffccccccd <absimm+0xffffffff41fbf1fd>
    80007cac:	00c11113          	slli	sp,sp,0xc
    80007cb0:	ccd10113          	addi	sp,sp,-819
    80007cb4:	00c11113          	slli	sp,sp,0xc
    80007cb8:	ccd10113          	addi	sp,sp,-819
    80007cbc:	00c11113          	slli	sp,sp,0xc
    80007cc0:	ccc10113          	addi	sp,sp,-820
    80007cc4:	00c10463          	beq	sp,a2,80007ccc <inst_441>
    80007cc8:	b5cf806f          	j	80000024 <rvtest_error>

0000000080007ccc <inst_441>:
    80007ccc:	33333537          	lui	a0,0x33333
    80007cd0:	33350513          	addi	a0,a0,819 # 33333333 <absimmsh+0x27862586>
    80007cd4:	00b51513          	slli	a0,a0,0xb
    80007cd8:	19950513          	addi	a0,a0,409
    80007cdc:	00b51513          	slli	a0,a0,0xb
    80007ce0:	4cc50513          	addi	a0,a0,1228
    80007ce4:	00a51513          	slli	a0,a0,0xa
    80007ce8:	33250513          	addi	a0,a0,818
    80007cec:	000005b7          	lui	a1,0x0
    80007cf0:	fff58593          	addi	a1,a1,-1
    80007cf4:	00b59593          	slli	a1,a1,0xb
    80007cf8:	25758593          	addi	a1,a1,599
    80007cfc:	00b59593          	slli	a1,a1,0xb
    80007d00:	6c358593          	addi	a1,a1,1731
    80007d04:	00a59593          	slli	a1,a1,0xa
    80007d08:	0cd58593          	addi	a1,a1,205
    80007d0c:	40b50633          	sub	a2,a0,a1
    80007d10:	4cc0b823          	sd	a2,1232(ra)
    80007d14:	00333137          	lui	sp,0x333
    80007d18:	3331011b          	addiw	sp,sp,819 # 333333 <offset+0x332f3b>
    80007d1c:	00d11113          	slli	sp,sp,0xd
    80007d20:	67d10113          	addi	sp,sp,1661
    80007d24:	00e11113          	slli	sp,sp,0xe
    80007d28:	1c110113          	addi	sp,sp,449
    80007d2c:	00d11113          	slli	sp,sp,0xd
    80007d30:	66510113          	addi	sp,sp,1637
    80007d34:	00c10463          	beq	sp,a2,80007d3c <inst_442>
    80007d38:	aecf806f          	j	80000024 <rvtest_error>

0000000080007d3c <inst_442>:
    80007d3c:	33333537          	lui	a0,0x33333
    80007d40:	33350513          	addi	a0,a0,819 # 33333333 <absimmsh+0x27862586>
    80007d44:	00b51513          	slli	a0,a0,0xb
    80007d48:	19950513          	addi	a0,a0,409
    80007d4c:	00b51513          	slli	a0,a0,0xb
    80007d50:	4cc50513          	addi	a0,a0,1228
    80007d54:	00a51513          	slli	a0,a0,0xa
    80007d58:	33250513          	addi	a0,a0,818
    80007d5c:	000005b7          	lui	a1,0x0
    80007d60:	00058593          	mv	a1,a1
    80007d64:	00b59593          	slli	a1,a1,0xb
    80007d68:	5a858593          	addi	a1,a1,1448 # 5a8 <offset+0x1b0>
    80007d6c:	00b59593          	slli	a1,a1,0xb
    80007d70:	13c58593          	addi	a1,a1,316
    80007d74:	00a59593          	slli	a1,a1,0xa
    80007d78:	33358593          	addi	a1,a1,819
    80007d7c:	40b50633          	sub	a2,a0,a1
    80007d80:	4cc0bc23          	sd	a2,1240(ra)
    80007d84:	66666137          	lui	sp,0x66666
    80007d88:	6651011b          	addiw	sp,sp,1637 # 66666665 <absimmsh+0x5ab958b8>
    80007d8c:	01111113          	slli	sp,sp,0x11
    80007d90:	8b910113          	addi	sp,sp,-1863
    80007d94:	00e11113          	slli	sp,sp,0xe
    80007d98:	fff10113          	addi	sp,sp,-1
    80007d9c:	00c10463          	beq	sp,a2,80007da4 <inst_443>
    80007da0:	a84f806f          	j	80000024 <rvtest_error>

0000000080007da4 <inst_443>:
    80007da4:	33333537          	lui	a0,0x33333
    80007da8:	33350513          	addi	a0,a0,819 # 33333333 <absimmsh+0x27862586>
    80007dac:	00b51513          	slli	a0,a0,0xb
    80007db0:	19950513          	addi	a0,a0,409
    80007db4:	00b51513          	slli	a0,a0,0xb
    80007db8:	4cc50513          	addi	a0,a0,1228
    80007dbc:	00a51513          	slli	a0,a0,0xa
    80007dc0:	33250513          	addi	a0,a0,818
    80007dc4:	00200593          	li	a1,2
    80007dc8:	40b50633          	sub	a2,a0,a1
    80007dcc:	4ec0b023          	sd	a2,1248(ra)
    80007dd0:	03333137          	lui	sp,0x3333
    80007dd4:	3331011b          	addiw	sp,sp,819 # 3333333 <offset+0x3332f3b>
    80007dd8:	00c11113          	slli	sp,sp,0xc
    80007ddc:	33310113          	addi	sp,sp,819
    80007de0:	00c11113          	slli	sp,sp,0xc
    80007de4:	33310113          	addi	sp,sp,819
    80007de8:	00c11113          	slli	sp,sp,0xc
    80007dec:	33010113          	addi	sp,sp,816
    80007df0:	00c10463          	beq	sp,a2,80007df8 <inst_444>
    80007df4:	a30f806f          	j	80000024 <rvtest_error>

0000000080007df8 <inst_444>:
    80007df8:	33333537          	lui	a0,0x33333
    80007dfc:	33350513          	addi	a0,a0,819 # 33333333 <absimmsh+0x27862586>
    80007e00:	00b51513          	slli	a0,a0,0xb
    80007e04:	19950513          	addi	a0,a0,409
    80007e08:	00b51513          	slli	a0,a0,0xb
    80007e0c:	4cc50513          	addi	a0,a0,1228
    80007e10:	00a51513          	slli	a0,a0,0xa
    80007e14:	33250513          	addi	a0,a0,818
    80007e18:	555555b7          	lui	a1,0x55555
    80007e1c:	55558593          	addi	a1,a1,1365 # 55555555 <absimmsh+0x49a847a8>
    80007e20:	00b59593          	slli	a1,a1,0xb
    80007e24:	2aa58593          	addi	a1,a1,682
    80007e28:	00b59593          	slli	a1,a1,0xb
    80007e2c:	55558593          	addi	a1,a1,1365
    80007e30:	00a59593          	slli	a1,a1,0xa
    80007e34:	15458593          	addi	a1,a1,340
    80007e38:	40b50633          	sub	a2,a0,a1
    80007e3c:	4ec0b423          	sd	a2,1256(ra)
    80007e40:	feeef137          	lui	sp,0xfeeef
    80007e44:	eef1011b          	addiw	sp,sp,-273 # fffffffffeeeeeef <absimm+0xffffffff441e141f>
    80007e48:	00c11113          	slli	sp,sp,0xc
    80007e4c:	eef10113          	addi	sp,sp,-273
    80007e50:	00c11113          	slli	sp,sp,0xc
    80007e54:	eef10113          	addi	sp,sp,-273
    80007e58:	00d11113          	slli	sp,sp,0xd
    80007e5c:	dde10113          	addi	sp,sp,-546
    80007e60:	00c10463          	beq	sp,a2,80007e68 <inst_445>
    80007e64:	9c0f806f          	j	80000024 <rvtest_error>

0000000080007e68 <inst_445>:
    80007e68:	33333537          	lui	a0,0x33333
    80007e6c:	33350513          	addi	a0,a0,819 # 33333333 <absimmsh+0x27862586>
    80007e70:	00b51513          	slli	a0,a0,0xb
    80007e74:	19950513          	addi	a0,a0,409
    80007e78:	00b51513          	slli	a0,a0,0xb
    80007e7c:	4cc50513          	addi	a0,a0,1228
    80007e80:	00a51513          	slli	a0,a0,0xa
    80007e84:	33250513          	addi	a0,a0,818
    80007e88:	00000593          	li	a1,0
    80007e8c:	40b50633          	sub	a2,a0,a1
    80007e90:	4ec0b823          	sd	a2,1264(ra)
    80007e94:	03333137          	lui	sp,0x3333
    80007e98:	3331011b          	addiw	sp,sp,819 # 3333333 <offset+0x3332f3b>
    80007e9c:	00c11113          	slli	sp,sp,0xc
    80007ea0:	33310113          	addi	sp,sp,819
    80007ea4:	00c11113          	slli	sp,sp,0xc
    80007ea8:	33310113          	addi	sp,sp,819
    80007eac:	00c11113          	slli	sp,sp,0xc
    80007eb0:	33210113          	addi	sp,sp,818
    80007eb4:	00c10463          	beq	sp,a2,80007ebc <inst_446>
    80007eb8:	96cf806f          	j	80000024 <rvtest_error>

0000000080007ebc <inst_446>:
    80007ebc:	33333537          	lui	a0,0x33333
    80007ec0:	33350513          	addi	a0,a0,819 # 33333333 <absimmsh+0x27862586>
    80007ec4:	00b51513          	slli	a0,a0,0xb
    80007ec8:	19950513          	addi	a0,a0,409
    80007ecc:	00b51513          	slli	a0,a0,0xb
    80007ed0:	4cc50513          	addi	a0,a0,1228
    80007ed4:	00a51513          	slli	a0,a0,0xa
    80007ed8:	33250513          	addi	a0,a0,818
    80007edc:	00400593          	li	a1,4
    80007ee0:	40b50633          	sub	a2,a0,a1
    80007ee4:	4ec0bc23          	sd	a2,1272(ra)
    80007ee8:	03333137          	lui	sp,0x3333
    80007eec:	3331011b          	addiw	sp,sp,819 # 3333333 <offset+0x3332f3b>
    80007ef0:	00c11113          	slli	sp,sp,0xc
    80007ef4:	33310113          	addi	sp,sp,819
    80007ef8:	00c11113          	slli	sp,sp,0xc
    80007efc:	33310113          	addi	sp,sp,819
    80007f00:	00c11113          	slli	sp,sp,0xc
    80007f04:	32e10113          	addi	sp,sp,814
    80007f08:	00c10463          	beq	sp,a2,80007f10 <inst_447>
    80007f0c:	918f806f          	j	80000024 <rvtest_error>

0000000080007f10 <inst_447>:
    80007f10:	33333537          	lui	a0,0x33333
    80007f14:	33350513          	addi	a0,a0,819 # 33333333 <absimmsh+0x27862586>
    80007f18:	00b51513          	slli	a0,a0,0xb
    80007f1c:	19950513          	addi	a0,a0,409
    80007f20:	00b51513          	slli	a0,a0,0xb
    80007f24:	4cc50513          	addi	a0,a0,1228
    80007f28:	00a51513          	slli	a0,a0,0xa
    80007f2c:	33250513          	addi	a0,a0,818
    80007f30:	333335b7          	lui	a1,0x33333
    80007f34:	33358593          	addi	a1,a1,819 # 33333333 <absimmsh+0x27862586>
    80007f38:	00b59593          	slli	a1,a1,0xb
    80007f3c:	19958593          	addi	a1,a1,409
    80007f40:	00b59593          	slli	a1,a1,0xb
    80007f44:	4cc58593          	addi	a1,a1,1228
    80007f48:	00a59593          	slli	a1,a1,0xa
    80007f4c:	33258593          	addi	a1,a1,818
    80007f50:	40b50633          	sub	a2,a0,a1
    80007f54:	50c0b023          	sd	a2,1280(ra)
    80007f58:	00000113          	li	sp,0
    80007f5c:	00c10463          	beq	sp,a2,80007f64 <inst_448>
    80007f60:	8c4f806f          	j	80000024 <rvtest_error>

0000000080007f64 <inst_448>:
    80007f64:	33333537          	lui	a0,0x33333
    80007f68:	33350513          	addi	a0,a0,819 # 33333333 <absimmsh+0x27862586>
    80007f6c:	00b51513          	slli	a0,a0,0xb
    80007f70:	19950513          	addi	a0,a0,409
    80007f74:	00b51513          	slli	a0,a0,0xb
    80007f78:	4cc50513          	addi	a0,a0,1228
    80007f7c:	00a51513          	slli	a0,a0,0xa
    80007f80:	33250513          	addi	a0,a0,818
    80007f84:	666665b7          	lui	a1,0x66666
    80007f88:	66658593          	addi	a1,a1,1638 # 66666666 <absimmsh+0x5ab958b9>
    80007f8c:	00b59593          	slli	a1,a1,0xb
    80007f90:	33358593          	addi	a1,a1,819
    80007f94:	00b59593          	slli	a1,a1,0xb
    80007f98:	19958593          	addi	a1,a1,409
    80007f9c:	00a59593          	slli	a1,a1,0xa
    80007fa0:	26558593          	addi	a1,a1,613
    80007fa4:	40b50633          	sub	a2,a0,a1
    80007fa8:	50c0b423          	sd	a2,1288(ra)
    80007fac:	fcccd137          	lui	sp,0xfcccd
    80007fb0:	ccd1011b          	addiw	sp,sp,-819 # fffffffffccccccd <absimm+0xffffffff41fbf1fd>
    80007fb4:	00c11113          	slli	sp,sp,0xc
    80007fb8:	ccd10113          	addi	sp,sp,-819
    80007fbc:	00c11113          	slli	sp,sp,0xc
    80007fc0:	ccd10113          	addi	sp,sp,-819
    80007fc4:	00c11113          	slli	sp,sp,0xc
    80007fc8:	ccd10113          	addi	sp,sp,-819
    80007fcc:	00c10463          	beq	sp,a2,80007fd4 <inst_449>
    80007fd0:	854f806f          	j	80000024 <rvtest_error>

0000000080007fd4 <inst_449>:
    80007fd4:	33333537          	lui	a0,0x33333
    80007fd8:	33350513          	addi	a0,a0,819 # 33333333 <absimmsh+0x27862586>
    80007fdc:	00b51513          	slli	a0,a0,0xb
    80007fe0:	19950513          	addi	a0,a0,409
    80007fe4:	00b51513          	slli	a0,a0,0xb
    80007fe8:	4cc50513          	addi	a0,a0,1228
    80007fec:	00a51513          	slli	a0,a0,0xa
    80007ff0:	33250513          	addi	a0,a0,818
    80007ff4:	000005b7          	lui	a1,0x0
    80007ff8:	00058593          	mv	a1,a1
    80007ffc:	00b59593          	slli	a1,a1,0xb
    80008000:	5a858593          	addi	a1,a1,1448 # 5a8 <offset+0x1b0>
    80008004:	00b59593          	slli	a1,a1,0xb
    80008008:	13c58593          	addi	a1,a1,316
    8000800c:	00a59593          	slli	a1,a1,0xa
    80008010:	33258593          	addi	a1,a1,818
    80008014:	40b50633          	sub	a2,a0,a1
    80008018:	50c0b823          	sd	a2,1296(ra)
    8000801c:	66666137          	lui	sp,0x66666
    80008020:	6651011b          	addiw	sp,sp,1637 # 66666665 <absimmsh+0x5ab958b8>
    80008024:	01111113          	slli	sp,sp,0x11
    80008028:	8b910113          	addi	sp,sp,-1863
    8000802c:	00e11113          	slli	sp,sp,0xe
    80008030:	00c10463          	beq	sp,a2,80008038 <inst_450>
    80008034:	ff1f706f          	j	80000024 <rvtest_error>

0000000080008038 <inst_450>:
    80008038:	33333537          	lui	a0,0x33333
    8000803c:	33350513          	addi	a0,a0,819 # 33333333 <absimmsh+0x27862586>
    80008040:	00b51513          	slli	a0,a0,0xb
    80008044:	19950513          	addi	a0,a0,409
    80008048:	00b51513          	slli	a0,a0,0xb
    8000804c:	4cc50513          	addi	a0,a0,1228
    80008050:	00a51513          	slli	a0,a0,0xa
    80008054:	33250513          	addi	a0,a0,818
    80008058:	555555b7          	lui	a1,0x55555
    8000805c:	55558593          	addi	a1,a1,1365 # 55555555 <absimmsh+0x49a847a8>
    80008060:	00b59593          	slli	a1,a1,0xb
    80008064:	2aa58593          	addi	a1,a1,682
    80008068:	00b59593          	slli	a1,a1,0xb
    8000806c:	55558593          	addi	a1,a1,1365
    80008070:	00a59593          	slli	a1,a1,0xa
    80008074:	15658593          	addi	a1,a1,342
    80008078:	40b50633          	sub	a2,a0,a1
    8000807c:	50c0bc23          	sd	a2,1304(ra)
    80008080:	feeef137          	lui	sp,0xfeeef
    80008084:	eef1011b          	addiw	sp,sp,-273 # fffffffffeeeeeef <absimm+0xffffffff441e141f>
    80008088:	00c11113          	slli	sp,sp,0xc
    8000808c:	eef10113          	addi	sp,sp,-273
    80008090:	00c11113          	slli	sp,sp,0xc
    80008094:	eef10113          	addi	sp,sp,-273
    80008098:	00d11113          	slli	sp,sp,0xd
    8000809c:	ddc10113          	addi	sp,sp,-548
    800080a0:	00c10463          	beq	sp,a2,800080a8 <inst_451>
    800080a4:	f81f706f          	j	80000024 <rvtest_error>

00000000800080a8 <inst_451>:
    800080a8:	33333537          	lui	a0,0x33333
    800080ac:	33350513          	addi	a0,a0,819 # 33333333 <absimmsh+0x27862586>
    800080b0:	00b51513          	slli	a0,a0,0xb
    800080b4:	19950513          	addi	a0,a0,409
    800080b8:	00b51513          	slli	a0,a0,0xb
    800080bc:	4cc50513          	addi	a0,a0,1228
    800080c0:	00a51513          	slli	a0,a0,0xa
    800080c4:	33250513          	addi	a0,a0,818
    800080c8:	aaaab5b7          	lui	a1,0xaaaab
    800080cc:	aaa58593          	addi	a1,a1,-1366 # ffffffffaaaaaaaa <absimm+0xfffffffeefd9cfda>
    800080d0:	00b59593          	slli	a1,a1,0xb
    800080d4:	55558593          	addi	a1,a1,1365
    800080d8:	00b59593          	slli	a1,a1,0xb
    800080dc:	2aa58593          	addi	a1,a1,682
    800080e0:	00a59593          	slli	a1,a1,0xa
    800080e4:	2ab58593          	addi	a1,a1,683
    800080e8:	40b50633          	sub	a2,a0,a1
    800080ec:	52c0b023          	sd	a2,1312(ra)
    800080f0:	f8889137          	lui	sp,0xf8889
    800080f4:	8891011b          	addiw	sp,sp,-1911 # fffffffff8888889 <absimm+0xffffffff3db7adb9>
    800080f8:	00c11113          	slli	sp,sp,0xc
    800080fc:	88910113          	addi	sp,sp,-1911
    80008100:	00c11113          	slli	sp,sp,0xc
    80008104:	88910113          	addi	sp,sp,-1911
    80008108:	00c11113          	slli	sp,sp,0xc
    8000810c:	88710113          	addi	sp,sp,-1913
    80008110:	00c10463          	beq	sp,a2,80008118 <inst_452>
    80008114:	f11f706f          	j	80000024 <rvtest_error>

0000000080008118 <inst_452>:
    80008118:	33333537          	lui	a0,0x33333
    8000811c:	33350513          	addi	a0,a0,819 # 33333333 <absimmsh+0x27862586>
    80008120:	00b51513          	slli	a0,a0,0xb
    80008124:	19950513          	addi	a0,a0,409
    80008128:	00b51513          	slli	a0,a0,0xb
    8000812c:	4cc50513          	addi	a0,a0,1228
    80008130:	00a51513          	slli	a0,a0,0xa
    80008134:	33250513          	addi	a0,a0,818
    80008138:	00600593          	li	a1,6
    8000813c:	40b50633          	sub	a2,a0,a1
    80008140:	52c0b423          	sd	a2,1320(ra)
    80008144:	03333137          	lui	sp,0x3333
    80008148:	3331011b          	addiw	sp,sp,819 # 3333333 <offset+0x3332f3b>
    8000814c:	00c11113          	slli	sp,sp,0xc
    80008150:	33310113          	addi	sp,sp,819
    80008154:	00c11113          	slli	sp,sp,0xc
    80008158:	33310113          	addi	sp,sp,819
    8000815c:	00c11113          	slli	sp,sp,0xc
    80008160:	32c10113          	addi	sp,sp,812
    80008164:	00c10463          	beq	sp,a2,8000816c <inst_453>
    80008168:	ebdf706f          	j	80000024 <rvtest_error>

000000008000816c <inst_453>:
    8000816c:	33333537          	lui	a0,0x33333
    80008170:	33350513          	addi	a0,a0,819 # 33333333 <absimmsh+0x27862586>
    80008174:	00b51513          	slli	a0,a0,0xb
    80008178:	19950513          	addi	a0,a0,409
    8000817c:	00b51513          	slli	a0,a0,0xb
    80008180:	4cc50513          	addi	a0,a0,1228
    80008184:	00a51513          	slli	a0,a0,0xa
    80008188:	33250513          	addi	a0,a0,818
    8000818c:	333335b7          	lui	a1,0x33333
    80008190:	33358593          	addi	a1,a1,819 # 33333333 <absimmsh+0x27862586>
    80008194:	00b59593          	slli	a1,a1,0xb
    80008198:	19958593          	addi	a1,a1,409
    8000819c:	00b59593          	slli	a1,a1,0xb
    800081a0:	4cc58593          	addi	a1,a1,1228
    800081a4:	00a59593          	slli	a1,a1,0xa
    800081a8:	33458593          	addi	a1,a1,820
    800081ac:	40b50633          	sub	a2,a0,a1
    800081b0:	52c0b823          	sd	a2,1328(ra)
    800081b4:	ffe00113          	li	sp,-2
    800081b8:	00c10463          	beq	sp,a2,800081c0 <inst_454>
    800081bc:	e69f706f          	j	80000024 <rvtest_error>

00000000800081c0 <inst_454>:
    800081c0:	33333537          	lui	a0,0x33333
    800081c4:	33350513          	addi	a0,a0,819 # 33333333 <absimmsh+0x27862586>
    800081c8:	00b51513          	slli	a0,a0,0xb
    800081cc:	19950513          	addi	a0,a0,409
    800081d0:	00b51513          	slli	a0,a0,0xb
    800081d4:	4cc50513          	addi	a0,a0,1228
    800081d8:	00a51513          	slli	a0,a0,0xa
    800081dc:	33250513          	addi	a0,a0,818
    800081e0:	666665b7          	lui	a1,0x66666
    800081e4:	66658593          	addi	a1,a1,1638 # 66666666 <absimmsh+0x5ab958b9>
    800081e8:	00b59593          	slli	a1,a1,0xb
    800081ec:	33358593          	addi	a1,a1,819
    800081f0:	00b59593          	slli	a1,a1,0xb
    800081f4:	19958593          	addi	a1,a1,409
    800081f8:	00a59593          	slli	a1,a1,0xa
    800081fc:	26758593          	addi	a1,a1,615
    80008200:	40b50633          	sub	a2,a0,a1
    80008204:	52c0bc23          	sd	a2,1336(ra)
    80008208:	fcccd137          	lui	sp,0xfcccd
    8000820c:	ccd1011b          	addiw	sp,sp,-819 # fffffffffccccccd <absimm+0xffffffff41fbf1fd>
    80008210:	00c11113          	slli	sp,sp,0xc
    80008214:	ccd10113          	addi	sp,sp,-819
    80008218:	00c11113          	slli	sp,sp,0xc
    8000821c:	ccd10113          	addi	sp,sp,-819
    80008220:	00c11113          	slli	sp,sp,0xc
    80008224:	ccb10113          	addi	sp,sp,-821
    80008228:	00c10463          	beq	sp,a2,80008230 <inst_455>
    8000822c:	df9f706f          	j	80000024 <rvtest_error>

0000000080008230 <inst_455>:
    80008230:	33333537          	lui	a0,0x33333
    80008234:	33350513          	addi	a0,a0,819 # 33333333 <absimmsh+0x27862586>
    80008238:	00b51513          	slli	a0,a0,0xb
    8000823c:	19950513          	addi	a0,a0,409
    80008240:	00b51513          	slli	a0,a0,0xb
    80008244:	4cc50513          	addi	a0,a0,1228
    80008248:	00a51513          	slli	a0,a0,0xa
    8000824c:	33250513          	addi	a0,a0,818
    80008250:	000005b7          	lui	a1,0x0
    80008254:	fff58593          	addi	a1,a1,-1
    80008258:	00b59593          	slli	a1,a1,0xb
    8000825c:	25758593          	addi	a1,a1,599
    80008260:	00b59593          	slli	a1,a1,0xb
    80008264:	6c358593          	addi	a1,a1,1731
    80008268:	00a59593          	slli	a1,a1,0xa
    8000826c:	0ce58593          	addi	a1,a1,206
    80008270:	40b50633          	sub	a2,a0,a1
    80008274:	54c0b023          	sd	a2,1344(ra)
    80008278:	00333137          	lui	sp,0x333
    8000827c:	3331011b          	addiw	sp,sp,819 # 333333 <offset+0x332f3b>
    80008280:	00d11113          	slli	sp,sp,0xd
    80008284:	67d10113          	addi	sp,sp,1661
    80008288:	00e11113          	slli	sp,sp,0xe
    8000828c:	1c110113          	addi	sp,sp,449
    80008290:	00d11113          	slli	sp,sp,0xd
    80008294:	66410113          	addi	sp,sp,1636
    80008298:	00c10463          	beq	sp,a2,800082a0 <inst_456>
    8000829c:	d89f706f          	j	80000024 <rvtest_error>

00000000800082a0 <inst_456>:
    800082a0:	33333537          	lui	a0,0x33333
    800082a4:	33350513          	addi	a0,a0,819 # 33333333 <absimmsh+0x27862586>
    800082a8:	00b51513          	slli	a0,a0,0xb
    800082ac:	19950513          	addi	a0,a0,409
    800082b0:	00b51513          	slli	a0,a0,0xb
    800082b4:	4cc50513          	addi	a0,a0,1228
    800082b8:	00a51513          	slli	a0,a0,0xa
    800082bc:	33250513          	addi	a0,a0,818
    800082c0:	000005b7          	lui	a1,0x0
    800082c4:	00058593          	mv	a1,a1
    800082c8:	00b59593          	slli	a1,a1,0xb
    800082cc:	5a858593          	addi	a1,a1,1448 # 5a8 <offset+0x1b0>
    800082d0:	00b59593          	slli	a1,a1,0xb
    800082d4:	13c58593          	addi	a1,a1,316
    800082d8:	00a59593          	slli	a1,a1,0xa
    800082dc:	33458593          	addi	a1,a1,820
    800082e0:	40b50633          	sub	a2,a0,a1
    800082e4:	54c0b423          	sd	a2,1352(ra)
    800082e8:	66666137          	lui	sp,0x66666
    800082ec:	6651011b          	addiw	sp,sp,1637 # 66666665 <absimmsh+0x5ab958b8>
    800082f0:	01111113          	slli	sp,sp,0x11
    800082f4:	8b910113          	addi	sp,sp,-1863
    800082f8:	00e11113          	slli	sp,sp,0xe
    800082fc:	ffe10113          	addi	sp,sp,-2
    80008300:	00c10463          	beq	sp,a2,80008308 <inst_457>
    80008304:	d21f706f          	j	80000024 <rvtest_error>

0000000080008308 <inst_457>:
    80008308:	66666537          	lui	a0,0x66666
    8000830c:	66650513          	addi	a0,a0,1638 # 66666666 <absimmsh+0x5ab958b9>
    80008310:	00b51513          	slli	a0,a0,0xb
    80008314:	33350513          	addi	a0,a0,819
    80008318:	00b51513          	slli	a0,a0,0xb
    8000831c:	19950513          	addi	a0,a0,409
    80008320:	00a51513          	slli	a0,a0,0xa
    80008324:	26550513          	addi	a0,a0,613
    80008328:	00300593          	li	a1,3
    8000832c:	40b50633          	sub	a2,a0,a1
    80008330:	54c0b823          	sd	a2,1360(ra)
    80008334:	03333137          	lui	sp,0x3333
    80008338:	3331011b          	addiw	sp,sp,819 # 3333333 <offset+0x3332f3b>
    8000833c:	00c11113          	slli	sp,sp,0xc
    80008340:	33310113          	addi	sp,sp,819
    80008344:	00c11113          	slli	sp,sp,0xc
    80008348:	33310113          	addi	sp,sp,819
    8000834c:	00d11113          	slli	sp,sp,0xd
    80008350:	66210113          	addi	sp,sp,1634
    80008354:	00c10463          	beq	sp,a2,8000835c <inst_458>
    80008358:	ccdf706f          	j	80000024 <rvtest_error>

000000008000835c <inst_458>:
    8000835c:	66666537          	lui	a0,0x66666
    80008360:	66650513          	addi	a0,a0,1638 # 66666666 <absimmsh+0x5ab958b9>
    80008364:	00b51513          	slli	a0,a0,0xb
    80008368:	33350513          	addi	a0,a0,819
    8000836c:	00b51513          	slli	a0,a0,0xb
    80008370:	19950513          	addi	a0,a0,409
    80008374:	00a51513          	slli	a0,a0,0xa
    80008378:	26550513          	addi	a0,a0,613
    8000837c:	555555b7          	lui	a1,0x55555
    80008380:	55558593          	addi	a1,a1,1365 # 55555555 <absimmsh+0x49a847a8>
    80008384:	00b59593          	slli	a1,a1,0xb
    80008388:	2aa58593          	addi	a1,a1,682
    8000838c:	00b59593          	slli	a1,a1,0xb
    80008390:	55558593          	addi	a1,a1,1365
    80008394:	00a59593          	slli	a1,a1,0xa
    80008398:	15558593          	addi	a1,a1,341
    8000839c:	40b50633          	sub	a2,a0,a1
    800083a0:	54c0bc23          	sd	a2,1368(ra)
    800083a4:	01111137          	lui	sp,0x1111
    800083a8:	1111011b          	addiw	sp,sp,273 # 1111111 <offset+0x1110d19>
    800083ac:	00c11113          	slli	sp,sp,0xc
    800083b0:	11110113          	addi	sp,sp,273
    800083b4:	00c11113          	slli	sp,sp,0xc
    800083b8:	11110113          	addi	sp,sp,273
    800083bc:	00c11113          	slli	sp,sp,0xc
    800083c0:	11010113          	addi	sp,sp,272
    800083c4:	00c10463          	beq	sp,a2,800083cc <inst_459>
    800083c8:	c5df706f          	j	80000024 <rvtest_error>

00000000800083cc <inst_459>:
    800083cc:	66666537          	lui	a0,0x66666
    800083d0:	66650513          	addi	a0,a0,1638 # 66666666 <absimmsh+0x5ab958b9>
    800083d4:	00b51513          	slli	a0,a0,0xb
    800083d8:	33350513          	addi	a0,a0,819
    800083dc:	00b51513          	slli	a0,a0,0xb
    800083e0:	19950513          	addi	a0,a0,409
    800083e4:	00a51513          	slli	a0,a0,0xa
    800083e8:	26550513          	addi	a0,a0,613
    800083ec:	aaaab5b7          	lui	a1,0xaaaab
    800083f0:	aaa58593          	addi	a1,a1,-1366 # ffffffffaaaaaaaa <absimm+0xfffffffeefd9cfda>
    800083f4:	00b59593          	slli	a1,a1,0xb
    800083f8:	55558593          	addi	a1,a1,1365
    800083fc:	00b59593          	slli	a1,a1,0xb
    80008400:	2aa58593          	addi	a1,a1,682
    80008404:	00a59593          	slli	a1,a1,0xa
    80008408:	2aa58593          	addi	a1,a1,682
    8000840c:	40b50633          	sub	a2,a0,a1
    80008410:	56c0b023          	sd	a2,1376(ra)
    80008414:	feeef137          	lui	sp,0xfeeef
    80008418:	eef1011b          	addiw	sp,sp,-273 # fffffffffeeeeeef <absimm+0xffffffff441e141f>
    8000841c:	00c11113          	slli	sp,sp,0xc
    80008420:	eef10113          	addi	sp,sp,-273
    80008424:	00c11113          	slli	sp,sp,0xc
    80008428:	eef10113          	addi	sp,sp,-273
    8000842c:	00e11113          	slli	sp,sp,0xe
    80008430:	bbb10113          	addi	sp,sp,-1093
    80008434:	00c10463          	beq	sp,a2,8000843c <inst_460>
    80008438:	bedf706f          	j	80000024 <rvtest_error>

000000008000843c <inst_460>:
    8000843c:	66666537          	lui	a0,0x66666
    80008440:	66650513          	addi	a0,a0,1638 # 66666666 <absimmsh+0x5ab958b9>
    80008444:	00b51513          	slli	a0,a0,0xb
    80008448:	33350513          	addi	a0,a0,819
    8000844c:	00b51513          	slli	a0,a0,0xb
    80008450:	19950513          	addi	a0,a0,409
    80008454:	00a51513          	slli	a0,a0,0xa
    80008458:	26550513          	addi	a0,a0,613
    8000845c:	00500593          	li	a1,5
    80008460:	40b50633          	sub	a2,a0,a1
    80008464:	56c0b423          	sd	a2,1384(ra)
    80008468:	03333137          	lui	sp,0x3333
    8000846c:	3331011b          	addiw	sp,sp,819 # 3333333 <offset+0x3332f3b>
    80008470:	00c11113          	slli	sp,sp,0xc
    80008474:	33310113          	addi	sp,sp,819
    80008478:	00c11113          	slli	sp,sp,0xc
    8000847c:	33310113          	addi	sp,sp,819
    80008480:	00d11113          	slli	sp,sp,0xd
    80008484:	66010113          	addi	sp,sp,1632
    80008488:	00c10463          	beq	sp,a2,80008490 <inst_461>
    8000848c:	b99f706f          	j	80000024 <rvtest_error>

0000000080008490 <inst_461>:
    80008490:	66666537          	lui	a0,0x66666
    80008494:	66650513          	addi	a0,a0,1638 # 66666666 <absimmsh+0x5ab958b9>
    80008498:	00b51513          	slli	a0,a0,0xb
    8000849c:	33350513          	addi	a0,a0,819
    800084a0:	00b51513          	slli	a0,a0,0xb
    800084a4:	19950513          	addi	a0,a0,409
    800084a8:	00a51513          	slli	a0,a0,0xa
    800084ac:	26550513          	addi	a0,a0,613
    800084b0:	333335b7          	lui	a1,0x33333
    800084b4:	33358593          	addi	a1,a1,819 # 33333333 <absimmsh+0x27862586>
    800084b8:	00b59593          	slli	a1,a1,0xb
    800084bc:	19958593          	addi	a1,a1,409
    800084c0:	00b59593          	slli	a1,a1,0xb
    800084c4:	4cc58593          	addi	a1,a1,1228
    800084c8:	00a59593          	slli	a1,a1,0xa
    800084cc:	33358593          	addi	a1,a1,819
    800084d0:	40b50633          	sub	a2,a0,a1
    800084d4:	56c0b823          	sd	a2,1392(ra)
    800084d8:	03333137          	lui	sp,0x3333
    800084dc:	3331011b          	addiw	sp,sp,819 # 3333333 <offset+0x3332f3b>
    800084e0:	00c11113          	slli	sp,sp,0xc
    800084e4:	33310113          	addi	sp,sp,819
    800084e8:	00c11113          	slli	sp,sp,0xc
    800084ec:	33310113          	addi	sp,sp,819
    800084f0:	00c11113          	slli	sp,sp,0xc
    800084f4:	33210113          	addi	sp,sp,818
    800084f8:	00c10463          	beq	sp,a2,80008500 <inst_462>
    800084fc:	b29f706f          	j	80000024 <rvtest_error>

0000000080008500 <inst_462>:
    80008500:	66666537          	lui	a0,0x66666
    80008504:	66650513          	addi	a0,a0,1638 # 66666666 <absimmsh+0x5ab958b9>
    80008508:	00b51513          	slli	a0,a0,0xb
    8000850c:	33350513          	addi	a0,a0,819
    80008510:	00b51513          	slli	a0,a0,0xb
    80008514:	19950513          	addi	a0,a0,409
    80008518:	00a51513          	slli	a0,a0,0xa
    8000851c:	26550513          	addi	a0,a0,613
    80008520:	666665b7          	lui	a1,0x66666
    80008524:	66658593          	addi	a1,a1,1638 # 66666666 <absimmsh+0x5ab958b9>
    80008528:	00b59593          	slli	a1,a1,0xb
    8000852c:	33358593          	addi	a1,a1,819
    80008530:	00b59593          	slli	a1,a1,0xb
    80008534:	19958593          	addi	a1,a1,409
    80008538:	00a59593          	slli	a1,a1,0xa
    8000853c:	26658593          	addi	a1,a1,614
    80008540:	40b50633          	sub	a2,a0,a1
    80008544:	56c0bc23          	sd	a2,1400(ra)
    80008548:	fff00113          	li	sp,-1
    8000854c:	00c10463          	beq	sp,a2,80008554 <inst_463>
    80008550:	ad5f706f          	j	80000024 <rvtest_error>

0000000080008554 <inst_463>:
    80008554:	66666537          	lui	a0,0x66666
    80008558:	66650513          	addi	a0,a0,1638 # 66666666 <absimmsh+0x5ab958b9>
    8000855c:	00b51513          	slli	a0,a0,0xb
    80008560:	33350513          	addi	a0,a0,819
    80008564:	00b51513          	slli	a0,a0,0xb
    80008568:	19950513          	addi	a0,a0,409
    8000856c:	00a51513          	slli	a0,a0,0xa
    80008570:	26550513          	addi	a0,a0,613
    80008574:	000005b7          	lui	a1,0x0
    80008578:	fff58593          	addi	a1,a1,-1
    8000857c:	00b59593          	slli	a1,a1,0xb
    80008580:	25758593          	addi	a1,a1,599
    80008584:	00b59593          	slli	a1,a1,0xb
    80008588:	6c358593          	addi	a1,a1,1731
    8000858c:	00a59593          	slli	a1,a1,0xa
    80008590:	0cd58593          	addi	a1,a1,205
    80008594:	40b50633          	sub	a2,a0,a1
    80008598:	58c0b023          	sd	a2,1408(ra)
    8000859c:	00ccd137          	lui	sp,0xccd
    800085a0:	ccd1011b          	addiw	sp,sp,-819 # cccccd <offset+0xccc8d5>
    800085a4:	00d11113          	slli	sp,sp,0xd
    800085a8:	9c710113          	addi	sp,sp,-1593
    800085ac:	00d11113          	slli	sp,sp,0xd
    800085b0:	b5b10113          	addi	sp,sp,-1189
    800085b4:	00d11113          	slli	sp,sp,0xd
    800085b8:	99810113          	addi	sp,sp,-1640
    800085bc:	00c10463          	beq	sp,a2,800085c4 <inst_464>
    800085c0:	a65f706f          	j	80000024 <rvtest_error>

00000000800085c4 <inst_464>:
    800085c4:	66666537          	lui	a0,0x66666
    800085c8:	66650513          	addi	a0,a0,1638 # 66666666 <absimmsh+0x5ab958b9>
    800085cc:	00b51513          	slli	a0,a0,0xb
    800085d0:	33350513          	addi	a0,a0,819
    800085d4:	00b51513          	slli	a0,a0,0xb
    800085d8:	19950513          	addi	a0,a0,409
    800085dc:	00a51513          	slli	a0,a0,0xa
    800085e0:	26550513          	addi	a0,a0,613
    800085e4:	000005b7          	lui	a1,0x0
    800085e8:	00058593          	mv	a1,a1
    800085ec:	00b59593          	slli	a1,a1,0xb
    800085f0:	5a858593          	addi	a1,a1,1448 # 5a8 <offset+0x1b0>
    800085f4:	00b59593          	slli	a1,a1,0xb
    800085f8:	13c58593          	addi	a1,a1,316
    800085fc:	00a59593          	slli	a1,a1,0xa
    80008600:	33358593          	addi	a1,a1,819
    80008604:	40b50633          	sub	a2,a0,a1
    80008608:	58c0b423          	sd	a2,1416(ra)
    8000860c:	03333137          	lui	sp,0x3333
    80008610:	3331011b          	addiw	sp,sp,819 # 3333333 <offset+0x3332f3b>
    80008614:	00d11113          	slli	sp,sp,0xd
    80008618:	5b110113          	addi	sp,sp,1457
    8000861c:	00c11113          	slli	sp,sp,0xc
    80008620:	61710113          	addi	sp,sp,1559
    80008624:	00c11113          	slli	sp,sp,0xc
    80008628:	33210113          	addi	sp,sp,818
    8000862c:	00c10463          	beq	sp,a2,80008634 <inst_465>
    80008630:	9f5f706f          	j	80000024 <rvtest_error>

0000000080008634 <inst_465>:
    80008634:	66666537          	lui	a0,0x66666
    80008638:	66650513          	addi	a0,a0,1638 # 66666666 <absimmsh+0x5ab958b9>
    8000863c:	00b51513          	slli	a0,a0,0xb
    80008640:	33350513          	addi	a0,a0,819
    80008644:	00b51513          	slli	a0,a0,0xb
    80008648:	19950513          	addi	a0,a0,409
    8000864c:	00a51513          	slli	a0,a0,0xa
    80008650:	26550513          	addi	a0,a0,613
    80008654:	00200593          	li	a1,2
    80008658:	40b50633          	sub	a2,a0,a1
    8000865c:	58c0b823          	sd	a2,1424(ra)
    80008660:	03333137          	lui	sp,0x3333
    80008664:	3331011b          	addiw	sp,sp,819 # 3333333 <offset+0x3332f3b>
    80008668:	00c11113          	slli	sp,sp,0xc
    8000866c:	33310113          	addi	sp,sp,819
    80008670:	00c11113          	slli	sp,sp,0xc
    80008674:	33310113          	addi	sp,sp,819
    80008678:	00d11113          	slli	sp,sp,0xd
    8000867c:	66310113          	addi	sp,sp,1635
    80008680:	00c10463          	beq	sp,a2,80008688 <inst_466>
    80008684:	9a1f706f          	j	80000024 <rvtest_error>

0000000080008688 <inst_466>:
    80008688:	66666537          	lui	a0,0x66666
    8000868c:	66650513          	addi	a0,a0,1638 # 66666666 <absimmsh+0x5ab958b9>
    80008690:	00b51513          	slli	a0,a0,0xb
    80008694:	33350513          	addi	a0,a0,819
    80008698:	00b51513          	slli	a0,a0,0xb
    8000869c:	19950513          	addi	a0,a0,409
    800086a0:	00a51513          	slli	a0,a0,0xa
    800086a4:	26550513          	addi	a0,a0,613
    800086a8:	555555b7          	lui	a1,0x55555
    800086ac:	55558593          	addi	a1,a1,1365 # 55555555 <absimmsh+0x49a847a8>
    800086b0:	00b59593          	slli	a1,a1,0xb
    800086b4:	2aa58593          	addi	a1,a1,682
    800086b8:	00b59593          	slli	a1,a1,0xb
    800086bc:	55558593          	addi	a1,a1,1365
    800086c0:	00a59593          	slli	a1,a1,0xa
    800086c4:	15458593          	addi	a1,a1,340
    800086c8:	40b50633          	sub	a2,a0,a1
    800086cc:	58c0bc23          	sd	a2,1432(ra)
    800086d0:	01111137          	lui	sp,0x1111
    800086d4:	1111011b          	addiw	sp,sp,273 # 1111111 <offset+0x1110d19>
    800086d8:	00c11113          	slli	sp,sp,0xc
    800086dc:	11110113          	addi	sp,sp,273
    800086e0:	00c11113          	slli	sp,sp,0xc
    800086e4:	11110113          	addi	sp,sp,273
    800086e8:	00c11113          	slli	sp,sp,0xc
    800086ec:	11110113          	addi	sp,sp,273
    800086f0:	00c10463          	beq	sp,a2,800086f8 <inst_467>
    800086f4:	931f706f          	j	80000024 <rvtest_error>

00000000800086f8 <inst_467>:
    800086f8:	66666537          	lui	a0,0x66666
    800086fc:	66650513          	addi	a0,a0,1638 # 66666666 <absimmsh+0x5ab958b9>
    80008700:	00b51513          	slli	a0,a0,0xb
    80008704:	33350513          	addi	a0,a0,819
    80008708:	00b51513          	slli	a0,a0,0xb
    8000870c:	19950513          	addi	a0,a0,409
    80008710:	00a51513          	slli	a0,a0,0xa
    80008714:	26550513          	addi	a0,a0,613
    80008718:	00000593          	li	a1,0
    8000871c:	40b50633          	sub	a2,a0,a1
    80008720:	5ac0b023          	sd	a2,1440(ra)
    80008724:	03333137          	lui	sp,0x3333
    80008728:	3331011b          	addiw	sp,sp,819 # 3333333 <offset+0x3332f3b>
    8000872c:	00c11113          	slli	sp,sp,0xc
    80008730:	33310113          	addi	sp,sp,819
    80008734:	00c11113          	slli	sp,sp,0xc
    80008738:	33310113          	addi	sp,sp,819
    8000873c:	00d11113          	slli	sp,sp,0xd
    80008740:	66510113          	addi	sp,sp,1637
    80008744:	00c10463          	beq	sp,a2,8000874c <inst_468>
    80008748:	8ddf706f          	j	80000024 <rvtest_error>

000000008000874c <inst_468>:
    8000874c:	66666537          	lui	a0,0x66666
    80008750:	66650513          	addi	a0,a0,1638 # 66666666 <absimmsh+0x5ab958b9>
    80008754:	00b51513          	slli	a0,a0,0xb
    80008758:	33350513          	addi	a0,a0,819
    8000875c:	00b51513          	slli	a0,a0,0xb
    80008760:	19950513          	addi	a0,a0,409
    80008764:	00a51513          	slli	a0,a0,0xa
    80008768:	26550513          	addi	a0,a0,613
    8000876c:	00400593          	li	a1,4
    80008770:	40b50633          	sub	a2,a0,a1
    80008774:	5ac0b423          	sd	a2,1448(ra)
    80008778:	03333137          	lui	sp,0x3333
    8000877c:	3331011b          	addiw	sp,sp,819 # 3333333 <offset+0x3332f3b>
    80008780:	00c11113          	slli	sp,sp,0xc
    80008784:	33310113          	addi	sp,sp,819
    80008788:	00c11113          	slli	sp,sp,0xc
    8000878c:	33310113          	addi	sp,sp,819
    80008790:	00d11113          	slli	sp,sp,0xd
    80008794:	66110113          	addi	sp,sp,1633
    80008798:	00c10463          	beq	sp,a2,800087a0 <inst_469>
    8000879c:	889f706f          	j	80000024 <rvtest_error>

00000000800087a0 <inst_469>:
    800087a0:	66666537          	lui	a0,0x66666
    800087a4:	66650513          	addi	a0,a0,1638 # 66666666 <absimmsh+0x5ab958b9>
    800087a8:	00b51513          	slli	a0,a0,0xb
    800087ac:	33350513          	addi	a0,a0,819
    800087b0:	00b51513          	slli	a0,a0,0xb
    800087b4:	19950513          	addi	a0,a0,409
    800087b8:	00a51513          	slli	a0,a0,0xa
    800087bc:	26550513          	addi	a0,a0,613
    800087c0:	333335b7          	lui	a1,0x33333
    800087c4:	33358593          	addi	a1,a1,819 # 33333333 <absimmsh+0x27862586>
    800087c8:	00b59593          	slli	a1,a1,0xb
    800087cc:	19958593          	addi	a1,a1,409
    800087d0:	00b59593          	slli	a1,a1,0xb
    800087d4:	4cc58593          	addi	a1,a1,1228
    800087d8:	00a59593          	slli	a1,a1,0xa
    800087dc:	33258593          	addi	a1,a1,818
    800087e0:	40b50633          	sub	a2,a0,a1
    800087e4:	5ac0b823          	sd	a2,1456(ra)
    800087e8:	03333137          	lui	sp,0x3333
    800087ec:	3331011b          	addiw	sp,sp,819 # 3333333 <offset+0x3332f3b>
    800087f0:	00c11113          	slli	sp,sp,0xc
    800087f4:	33310113          	addi	sp,sp,819
    800087f8:	00c11113          	slli	sp,sp,0xc
    800087fc:	33310113          	addi	sp,sp,819
    80008800:	00c11113          	slli	sp,sp,0xc
    80008804:	33310113          	addi	sp,sp,819
    80008808:	00c10463          	beq	sp,a2,80008810 <inst_470>
    8000880c:	819f706f          	j	80000024 <rvtest_error>

0000000080008810 <inst_470>:
    80008810:	66666537          	lui	a0,0x66666
    80008814:	66650513          	addi	a0,a0,1638 # 66666666 <absimmsh+0x5ab958b9>
    80008818:	00b51513          	slli	a0,a0,0xb
    8000881c:	33350513          	addi	a0,a0,819
    80008820:	00b51513          	slli	a0,a0,0xb
    80008824:	19950513          	addi	a0,a0,409
    80008828:	00a51513          	slli	a0,a0,0xa
    8000882c:	26550513          	addi	a0,a0,613
    80008830:	666665b7          	lui	a1,0x66666
    80008834:	66658593          	addi	a1,a1,1638 # 66666666 <absimmsh+0x5ab958b9>
    80008838:	00b59593          	slli	a1,a1,0xb
    8000883c:	33358593          	addi	a1,a1,819
    80008840:	00b59593          	slli	a1,a1,0xb
    80008844:	19958593          	addi	a1,a1,409
    80008848:	00a59593          	slli	a1,a1,0xa
    8000884c:	26558593          	addi	a1,a1,613
    80008850:	40b50633          	sub	a2,a0,a1
    80008854:	5ac0bc23          	sd	a2,1464(ra)
    80008858:	00000113          	li	sp,0
    8000885c:	00c10463          	beq	sp,a2,80008864 <inst_471>
    80008860:	fc4f706f          	j	80000024 <rvtest_error>

0000000080008864 <inst_471>:
    80008864:	66666537          	lui	a0,0x66666
    80008868:	66650513          	addi	a0,a0,1638 # 66666666 <absimmsh+0x5ab958b9>
    8000886c:	00b51513          	slli	a0,a0,0xb
    80008870:	33350513          	addi	a0,a0,819
    80008874:	00b51513          	slli	a0,a0,0xb
    80008878:	19950513          	addi	a0,a0,409
    8000887c:	00a51513          	slli	a0,a0,0xa
    80008880:	26550513          	addi	a0,a0,613
    80008884:	000005b7          	lui	a1,0x0
    80008888:	00058593          	mv	a1,a1
    8000888c:	00b59593          	slli	a1,a1,0xb
    80008890:	5a858593          	addi	a1,a1,1448 # 5a8 <offset+0x1b0>
    80008894:	00b59593          	slli	a1,a1,0xb
    80008898:	13c58593          	addi	a1,a1,316
    8000889c:	00a59593          	slli	a1,a1,0xa
    800088a0:	33258593          	addi	a1,a1,818
    800088a4:	40b50633          	sub	a2,a0,a1
    800088a8:	5cc0b023          	sd	a2,1472(ra)
    800088ac:	03333137          	lui	sp,0x3333
    800088b0:	3331011b          	addiw	sp,sp,819 # 3333333 <offset+0x3332f3b>
    800088b4:	00d11113          	slli	sp,sp,0xd
    800088b8:	5b110113          	addi	sp,sp,1457
    800088bc:	00c11113          	slli	sp,sp,0xc
    800088c0:	61710113          	addi	sp,sp,1559
    800088c4:	00c11113          	slli	sp,sp,0xc
    800088c8:	33310113          	addi	sp,sp,819
    800088cc:	00c10463          	beq	sp,a2,800088d4 <inst_472>
    800088d0:	f54f706f          	j	80000024 <rvtest_error>

00000000800088d4 <inst_472>:
    800088d4:	66666537          	lui	a0,0x66666
    800088d8:	66650513          	addi	a0,a0,1638 # 66666666 <absimmsh+0x5ab958b9>
    800088dc:	00b51513          	slli	a0,a0,0xb
    800088e0:	33350513          	addi	a0,a0,819
    800088e4:	00b51513          	slli	a0,a0,0xb
    800088e8:	19950513          	addi	a0,a0,409
    800088ec:	00a51513          	slli	a0,a0,0xa
    800088f0:	26550513          	addi	a0,a0,613
    800088f4:	555555b7          	lui	a1,0x55555
    800088f8:	55558593          	addi	a1,a1,1365 # 55555555 <absimmsh+0x49a847a8>
    800088fc:	00b59593          	slli	a1,a1,0xb
    80008900:	2aa58593          	addi	a1,a1,682
    80008904:	00b59593          	slli	a1,a1,0xb
    80008908:	55558593          	addi	a1,a1,1365
    8000890c:	00a59593          	slli	a1,a1,0xa
    80008910:	15658593          	addi	a1,a1,342
    80008914:	40b50633          	sub	a2,a0,a1
    80008918:	5cc0b423          	sd	a2,1480(ra)
    8000891c:	01111137          	lui	sp,0x1111
    80008920:	1111011b          	addiw	sp,sp,273 # 1111111 <offset+0x1110d19>
    80008924:	00c11113          	slli	sp,sp,0xc
    80008928:	11110113          	addi	sp,sp,273
    8000892c:	00c11113          	slli	sp,sp,0xc
    80008930:	11110113          	addi	sp,sp,273
    80008934:	00c11113          	slli	sp,sp,0xc
    80008938:	10f10113          	addi	sp,sp,271
    8000893c:	00c10463          	beq	sp,a2,80008944 <inst_473>
    80008940:	ee4f706f          	j	80000024 <rvtest_error>

0000000080008944 <inst_473>:
    80008944:	66666537          	lui	a0,0x66666
    80008948:	66650513          	addi	a0,a0,1638 # 66666666 <absimmsh+0x5ab958b9>
    8000894c:	00b51513          	slli	a0,a0,0xb
    80008950:	33350513          	addi	a0,a0,819
    80008954:	00b51513          	slli	a0,a0,0xb
    80008958:	19950513          	addi	a0,a0,409
    8000895c:	00a51513          	slli	a0,a0,0xa
    80008960:	26550513          	addi	a0,a0,613
    80008964:	aaaab5b7          	lui	a1,0xaaaab
    80008968:	aaa58593          	addi	a1,a1,-1366 # ffffffffaaaaaaaa <absimm+0xfffffffeefd9cfda>
    8000896c:	00b59593          	slli	a1,a1,0xb
    80008970:	55558593          	addi	a1,a1,1365
    80008974:	00b59593          	slli	a1,a1,0xb
    80008978:	2aa58593          	addi	a1,a1,682
    8000897c:	00a59593          	slli	a1,a1,0xa
    80008980:	2ab58593          	addi	a1,a1,683
    80008984:	40b50633          	sub	a2,a0,a1
    80008988:	5cc0b823          	sd	a2,1488(ra)
    8000898c:	feeef137          	lui	sp,0xfeeef
    80008990:	eef1011b          	addiw	sp,sp,-273 # fffffffffeeeeeef <absimm+0xffffffff441e141f>
    80008994:	00c11113          	slli	sp,sp,0xc
    80008998:	eef10113          	addi	sp,sp,-273
    8000899c:	00c11113          	slli	sp,sp,0xc
    800089a0:	eef10113          	addi	sp,sp,-273
    800089a4:	00e11113          	slli	sp,sp,0xe
    800089a8:	bba10113          	addi	sp,sp,-1094
    800089ac:	00c10463          	beq	sp,a2,800089b4 <inst_474>
    800089b0:	e74f706f          	j	80000024 <rvtest_error>

00000000800089b4 <inst_474>:
    800089b4:	66666537          	lui	a0,0x66666
    800089b8:	66650513          	addi	a0,a0,1638 # 66666666 <absimmsh+0x5ab958b9>
    800089bc:	00b51513          	slli	a0,a0,0xb
    800089c0:	33350513          	addi	a0,a0,819
    800089c4:	00b51513          	slli	a0,a0,0xb
    800089c8:	19950513          	addi	a0,a0,409
    800089cc:	00a51513          	slli	a0,a0,0xa
    800089d0:	26550513          	addi	a0,a0,613
    800089d4:	00600593          	li	a1,6
    800089d8:	40b50633          	sub	a2,a0,a1
    800089dc:	5cc0bc23          	sd	a2,1496(ra)
    800089e0:	03333137          	lui	sp,0x3333
    800089e4:	3331011b          	addiw	sp,sp,819 # 3333333 <offset+0x3332f3b>
    800089e8:	00c11113          	slli	sp,sp,0xc
    800089ec:	33310113          	addi	sp,sp,819
    800089f0:	00c11113          	slli	sp,sp,0xc
    800089f4:	33310113          	addi	sp,sp,819
    800089f8:	00d11113          	slli	sp,sp,0xd
    800089fc:	65f10113          	addi	sp,sp,1631
    80008a00:	00c10463          	beq	sp,a2,80008a08 <inst_475>
    80008a04:	e20f706f          	j	80000024 <rvtest_error>

0000000080008a08 <inst_475>:
    80008a08:	66666537          	lui	a0,0x66666
    80008a0c:	66650513          	addi	a0,a0,1638 # 66666666 <absimmsh+0x5ab958b9>
    80008a10:	00b51513          	slli	a0,a0,0xb
    80008a14:	33350513          	addi	a0,a0,819
    80008a18:	00b51513          	slli	a0,a0,0xb
    80008a1c:	19950513          	addi	a0,a0,409
    80008a20:	00a51513          	slli	a0,a0,0xa
    80008a24:	26550513          	addi	a0,a0,613
    80008a28:	333335b7          	lui	a1,0x33333
    80008a2c:	33358593          	addi	a1,a1,819 # 33333333 <absimmsh+0x27862586>
    80008a30:	00b59593          	slli	a1,a1,0xb
    80008a34:	19958593          	addi	a1,a1,409
    80008a38:	00b59593          	slli	a1,a1,0xb
    80008a3c:	4cc58593          	addi	a1,a1,1228
    80008a40:	00a59593          	slli	a1,a1,0xa
    80008a44:	33458593          	addi	a1,a1,820
    80008a48:	40b50633          	sub	a2,a0,a1
    80008a4c:	5ec0b023          	sd	a2,1504(ra)
    80008a50:	03333137          	lui	sp,0x3333
    80008a54:	3331011b          	addiw	sp,sp,819 # 3333333 <offset+0x3332f3b>
    80008a58:	00c11113          	slli	sp,sp,0xc
    80008a5c:	33310113          	addi	sp,sp,819
    80008a60:	00c11113          	slli	sp,sp,0xc
    80008a64:	33310113          	addi	sp,sp,819
    80008a68:	00c11113          	slli	sp,sp,0xc
    80008a6c:	33110113          	addi	sp,sp,817
    80008a70:	00c10463          	beq	sp,a2,80008a78 <inst_476>
    80008a74:	db0f706f          	j	80000024 <rvtest_error>

0000000080008a78 <inst_476>:
    80008a78:	66666537          	lui	a0,0x66666
    80008a7c:	66650513          	addi	a0,a0,1638 # 66666666 <absimmsh+0x5ab958b9>
    80008a80:	00b51513          	slli	a0,a0,0xb
    80008a84:	33350513          	addi	a0,a0,819
    80008a88:	00b51513          	slli	a0,a0,0xb
    80008a8c:	19950513          	addi	a0,a0,409
    80008a90:	00a51513          	slli	a0,a0,0xa
    80008a94:	26550513          	addi	a0,a0,613
    80008a98:	666665b7          	lui	a1,0x66666
    80008a9c:	66658593          	addi	a1,a1,1638 # 66666666 <absimmsh+0x5ab958b9>
    80008aa0:	00b59593          	slli	a1,a1,0xb
    80008aa4:	33358593          	addi	a1,a1,819
    80008aa8:	00b59593          	slli	a1,a1,0xb
    80008aac:	19958593          	addi	a1,a1,409
    80008ab0:	00a59593          	slli	a1,a1,0xa
    80008ab4:	26758593          	addi	a1,a1,615
    80008ab8:	40b50633          	sub	a2,a0,a1
    80008abc:	5ec0b423          	sd	a2,1512(ra)
    80008ac0:	ffe00113          	li	sp,-2
    80008ac4:	00c10463          	beq	sp,a2,80008acc <inst_477>
    80008ac8:	d5cf706f          	j	80000024 <rvtest_error>

0000000080008acc <inst_477>:
    80008acc:	66666537          	lui	a0,0x66666
    80008ad0:	66650513          	addi	a0,a0,1638 # 66666666 <absimmsh+0x5ab958b9>
    80008ad4:	00b51513          	slli	a0,a0,0xb
    80008ad8:	33350513          	addi	a0,a0,819
    80008adc:	00b51513          	slli	a0,a0,0xb
    80008ae0:	19950513          	addi	a0,a0,409
    80008ae4:	00a51513          	slli	a0,a0,0xa
    80008ae8:	26550513          	addi	a0,a0,613
    80008aec:	000005b7          	lui	a1,0x0
    80008af0:	fff58593          	addi	a1,a1,-1
    80008af4:	00b59593          	slli	a1,a1,0xb
    80008af8:	25758593          	addi	a1,a1,599
    80008afc:	00b59593          	slli	a1,a1,0xb
    80008b00:	6c358593          	addi	a1,a1,1731
    80008b04:	00a59593          	slli	a1,a1,0xa
    80008b08:	0ce58593          	addi	a1,a1,206
    80008b0c:	40b50633          	sub	a2,a0,a1
    80008b10:	5ec0b823          	sd	a2,1520(ra)
    80008b14:	00ccd137          	lui	sp,0xccd
    80008b18:	ccd1011b          	addiw	sp,sp,-819 # cccccd <offset+0xccc8d5>
    80008b1c:	00d11113          	slli	sp,sp,0xd
    80008b20:	9c710113          	addi	sp,sp,-1593
    80008b24:	00d11113          	slli	sp,sp,0xd
    80008b28:	b5b10113          	addi	sp,sp,-1189
    80008b2c:	00d11113          	slli	sp,sp,0xd
    80008b30:	99710113          	addi	sp,sp,-1641
    80008b34:	00c10463          	beq	sp,a2,80008b3c <inst_478>
    80008b38:	cecf706f          	j	80000024 <rvtest_error>

0000000080008b3c <inst_478>:
    80008b3c:	66666537          	lui	a0,0x66666
    80008b40:	66650513          	addi	a0,a0,1638 # 66666666 <absimmsh+0x5ab958b9>
    80008b44:	00b51513          	slli	a0,a0,0xb
    80008b48:	33350513          	addi	a0,a0,819
    80008b4c:	00b51513          	slli	a0,a0,0xb
    80008b50:	19950513          	addi	a0,a0,409
    80008b54:	00a51513          	slli	a0,a0,0xa
    80008b58:	26550513          	addi	a0,a0,613
    80008b5c:	000005b7          	lui	a1,0x0
    80008b60:	00058593          	mv	a1,a1
    80008b64:	00b59593          	slli	a1,a1,0xb
    80008b68:	5a858593          	addi	a1,a1,1448 # 5a8 <offset+0x1b0>
    80008b6c:	00b59593          	slli	a1,a1,0xb
    80008b70:	13c58593          	addi	a1,a1,316
    80008b74:	00a59593          	slli	a1,a1,0xa
    80008b78:	33458593          	addi	a1,a1,820
    80008b7c:	40b50633          	sub	a2,a0,a1
    80008b80:	5ec0bc23          	sd	a2,1528(ra)
    80008b84:	03333137          	lui	sp,0x3333
    80008b88:	3331011b          	addiw	sp,sp,819 # 3333333 <offset+0x3332f3b>
    80008b8c:	00d11113          	slli	sp,sp,0xd
    80008b90:	5b110113          	addi	sp,sp,1457
    80008b94:	00c11113          	slli	sp,sp,0xc
    80008b98:	61710113          	addi	sp,sp,1559
    80008b9c:	00c11113          	slli	sp,sp,0xc
    80008ba0:	33110113          	addi	sp,sp,817
    80008ba4:	00c10463          	beq	sp,a2,80008bac <inst_479>
    80008ba8:	c7cf706f          	j	80000024 <rvtest_error>

0000000080008bac <inst_479>:
    80008bac:	00000537          	lui	a0,0x0
    80008bb0:	00050513          	mv	a0,a0
    80008bb4:	00b51513          	slli	a0,a0,0xb
    80008bb8:	5a850513          	addi	a0,a0,1448 # 5a8 <offset+0x1b0>
    80008bbc:	00b51513          	slli	a0,a0,0xb
    80008bc0:	13c50513          	addi	a0,a0,316
    80008bc4:	00a51513          	slli	a0,a0,0xa
    80008bc8:	33250513          	addi	a0,a0,818
    80008bcc:	00300593          	li	a1,3
    80008bd0:	40b50633          	sub	a2,a0,a1
    80008bd4:	60c0b023          	sd	a2,1536(ra)
    80008bd8:	000b5137          	lui	sp,0xb5
    80008bdc:	04f1011b          	addiw	sp,sp,79 # b504f <offset+0xb4c57>
    80008be0:	00c11113          	slli	sp,sp,0xc
    80008be4:	32f10113          	addi	sp,sp,815
    80008be8:	00c10463          	beq	sp,a2,80008bf0 <inst_480>
    80008bec:	c38f706f          	j	80000024 <rvtest_error>

0000000080008bf0 <inst_480>:
    80008bf0:	00000537          	lui	a0,0x0
    80008bf4:	00050513          	mv	a0,a0
    80008bf8:	00b51513          	slli	a0,a0,0xb
    80008bfc:	5a850513          	addi	a0,a0,1448 # 5a8 <offset+0x1b0>
    80008c00:	00b51513          	slli	a0,a0,0xb
    80008c04:	13c50513          	addi	a0,a0,316
    80008c08:	00a51513          	slli	a0,a0,0xa
    80008c0c:	33250513          	addi	a0,a0,818
    80008c10:	555555b7          	lui	a1,0x55555
    80008c14:	55558593          	addi	a1,a1,1365 # 55555555 <absimmsh+0x49a847a8>
    80008c18:	00b59593          	slli	a1,a1,0xb
    80008c1c:	2aa58593          	addi	a1,a1,682
    80008c20:	00b59593          	slli	a1,a1,0xb
    80008c24:	55558593          	addi	a1,a1,1365
    80008c28:	00a59593          	slli	a1,a1,0xa
    80008c2c:	15558593          	addi	a1,a1,341
    80008c30:	40b50633          	sub	a2,a0,a1
    80008c34:	60c0b423          	sd	a2,1544(ra)
    80008c38:	ffd55137          	lui	sp,0xffd55
    80008c3c:	5551011b          	addiw	sp,sp,1365 # ffffffffffd55555 <absimm+0xffffffff45047a85>
    80008c40:	00c11113          	slli	sp,sp,0xc
    80008c44:	55b10113          	addi	sp,sp,1371
    80008c48:	01011113          	slli	sp,sp,0x10
    80008c4c:	d7d10113          	addi	sp,sp,-643
    80008c50:	00d11113          	slli	sp,sp,0xd
    80008c54:	ddd10113          	addi	sp,sp,-547
    80008c58:	00c10463          	beq	sp,a2,80008c60 <inst_481>
    80008c5c:	bc8f706f          	j	80000024 <rvtest_error>

0000000080008c60 <inst_481>:
    80008c60:	00000537          	lui	a0,0x0
    80008c64:	00050513          	mv	a0,a0
    80008c68:	00b51513          	slli	a0,a0,0xb
    80008c6c:	5a850513          	addi	a0,a0,1448 # 5a8 <offset+0x1b0>
    80008c70:	00b51513          	slli	a0,a0,0xb
    80008c74:	13c50513          	addi	a0,a0,316
    80008c78:	00a51513          	slli	a0,a0,0xa
    80008c7c:	33250513          	addi	a0,a0,818
    80008c80:	aaaab5b7          	lui	a1,0xaaaab
    80008c84:	aaa58593          	addi	a1,a1,-1366 # ffffffffaaaaaaaa <absimm+0xfffffffeefd9cfda>
    80008c88:	00b59593          	slli	a1,a1,0xb
    80008c8c:	55558593          	addi	a1,a1,1365
    80008c90:	00b59593          	slli	a1,a1,0xb
    80008c94:	2aa58593          	addi	a1,a1,682
    80008c98:	00a59593          	slli	a1,a1,0xa
    80008c9c:	2aa58593          	addi	a1,a1,682
    80008ca0:	40b50633          	sub	a2,a0,a1
    80008ca4:	60c0b823          	sd	a2,1552(ra)
    80008ca8:	02aab137          	lui	sp,0x2aab
    80008cac:	aab1011b          	addiw	sp,sp,-1365 # 2aaaaab <offset+0x2aaa6b3>
    80008cb0:	00c11113          	slli	sp,sp,0xc
    80008cb4:	b0510113          	addi	sp,sp,-1275
    80008cb8:	00d11113          	slli	sp,sp,0xd
    80008cbc:	5a510113          	addi	sp,sp,1445
    80008cc0:	00c11113          	slli	sp,sp,0xc
    80008cc4:	88810113          	addi	sp,sp,-1912
    80008cc8:	00c10463          	beq	sp,a2,80008cd0 <inst_482>
    80008ccc:	b58f706f          	j	80000024 <rvtest_error>

0000000080008cd0 <inst_482>:
    80008cd0:	00000537          	lui	a0,0x0
    80008cd4:	00050513          	mv	a0,a0
    80008cd8:	00b51513          	slli	a0,a0,0xb
    80008cdc:	5a850513          	addi	a0,a0,1448 # 5a8 <offset+0x1b0>
    80008ce0:	00b51513          	slli	a0,a0,0xb
    80008ce4:	13c50513          	addi	a0,a0,316
    80008ce8:	00a51513          	slli	a0,a0,0xa
    80008cec:	33250513          	addi	a0,a0,818
    80008cf0:	00500593          	li	a1,5
    80008cf4:	40b50633          	sub	a2,a0,a1
    80008cf8:	60c0bc23          	sd	a2,1560(ra)
    80008cfc:	000b5137          	lui	sp,0xb5
    80008d00:	04f1011b          	addiw	sp,sp,79 # b504f <offset+0xb4c57>
    80008d04:	00c11113          	slli	sp,sp,0xc
    80008d08:	32d10113          	addi	sp,sp,813
    80008d0c:	00c10463          	beq	sp,a2,80008d14 <inst_483>
    80008d10:	b14f706f          	j	80000024 <rvtest_error>

0000000080008d14 <inst_483>:
    80008d14:	00000537          	lui	a0,0x0
    80008d18:	00050513          	mv	a0,a0
    80008d1c:	00b51513          	slli	a0,a0,0xb
    80008d20:	5a850513          	addi	a0,a0,1448 # 5a8 <offset+0x1b0>
    80008d24:	00b51513          	slli	a0,a0,0xb
    80008d28:	13c50513          	addi	a0,a0,316
    80008d2c:	00a51513          	slli	a0,a0,0xa
    80008d30:	33250513          	addi	a0,a0,818
    80008d34:	333335b7          	lui	a1,0x33333
    80008d38:	33358593          	addi	a1,a1,819 # 33333333 <absimmsh+0x27862586>
    80008d3c:	00b59593          	slli	a1,a1,0xb
    80008d40:	19958593          	addi	a1,a1,409
    80008d44:	00b59593          	slli	a1,a1,0xb
    80008d48:	4cc58593          	addi	a1,a1,1228
    80008d4c:	00a59593          	slli	a1,a1,0xa
    80008d50:	33358593          	addi	a1,a1,819
    80008d54:	40b50633          	sub	a2,a0,a1
    80008d58:	62c0b023          	sd	a2,1568(ra)
    80008d5c:	9999a137          	lui	sp,0x9999a
    80008d60:	99b1011b          	addiw	sp,sp,-1637 # ffffffff9999999b <absimm+0xfffffffedec8becb>
    80008d64:	01111113          	slli	sp,sp,0x11
    80008d68:	74710113          	addi	sp,sp,1863
    80008d6c:	00e11113          	slli	sp,sp,0xe
    80008d70:	fff10113          	addi	sp,sp,-1
    80008d74:	00c10463          	beq	sp,a2,80008d7c <inst_484>
    80008d78:	aacf706f          	j	80000024 <rvtest_error>

0000000080008d7c <inst_484>:
    80008d7c:	00000537          	lui	a0,0x0
    80008d80:	00050513          	mv	a0,a0
    80008d84:	00b51513          	slli	a0,a0,0xb
    80008d88:	5a850513          	addi	a0,a0,1448 # 5a8 <offset+0x1b0>
    80008d8c:	00b51513          	slli	a0,a0,0xb
    80008d90:	13c50513          	addi	a0,a0,316
    80008d94:	00a51513          	slli	a0,a0,0xa
    80008d98:	33250513          	addi	a0,a0,818
    80008d9c:	666665b7          	lui	a1,0x66666
    80008da0:	66658593          	addi	a1,a1,1638 # 66666666 <absimmsh+0x5ab958b9>
    80008da4:	00b59593          	slli	a1,a1,0xb
    80008da8:	33358593          	addi	a1,a1,819
    80008dac:	00b59593          	slli	a1,a1,0xb
    80008db0:	19958593          	addi	a1,a1,409
    80008db4:	00a59593          	slli	a1,a1,0xa
    80008db8:	26658593          	addi	a1,a1,614
    80008dbc:	40b50633          	sub	a2,a0,a1
    80008dc0:	62c0b423          	sd	a2,1576(ra)
    80008dc4:	fcccd137          	lui	sp,0xfcccd
    80008dc8:	ccd1011b          	addiw	sp,sp,-819 # fffffffffccccccd <absimm+0xffffffff41fbf1fd>
    80008dcc:	00d11113          	slli	sp,sp,0xd
    80008dd0:	a4f10113          	addi	sp,sp,-1457
    80008dd4:	00c11113          	slli	sp,sp,0xc
    80008dd8:	9e910113          	addi	sp,sp,-1559
    80008ddc:	00c11113          	slli	sp,sp,0xc
    80008de0:	ccc10113          	addi	sp,sp,-820
    80008de4:	00c10463          	beq	sp,a2,80008dec <inst_485>
    80008de8:	a3cf706f          	j	80000024 <rvtest_error>

0000000080008dec <inst_485>:
    80008dec:	00000537          	lui	a0,0x0
    80008df0:	00050513          	mv	a0,a0
    80008df4:	00b51513          	slli	a0,a0,0xb
    80008df8:	5a850513          	addi	a0,a0,1448 # 5a8 <offset+0x1b0>
    80008dfc:	00b51513          	slli	a0,a0,0xb
    80008e00:	13c50513          	addi	a0,a0,316
    80008e04:	00a51513          	slli	a0,a0,0xa
    80008e08:	33250513          	addi	a0,a0,818
    80008e0c:	000005b7          	lui	a1,0x0
    80008e10:	fff58593          	addi	a1,a1,-1
    80008e14:	00b59593          	slli	a1,a1,0xb
    80008e18:	25758593          	addi	a1,a1,599
    80008e1c:	00b59593          	slli	a1,a1,0xb
    80008e20:	6c358593          	addi	a1,a1,1731
    80008e24:	00a59593          	slli	a1,a1,0xa
    80008e28:	0cd58593          	addi	a1,a1,205
    80008e2c:	40b50633          	sub	a2,a0,a1
    80008e30:	62c0b823          	sd	a2,1584(ra)
    80008e34:	000b5137          	lui	sp,0xb5
    80008e38:	04f1011b          	addiw	sp,sp,79 # b504f <offset+0xb4c57>
    80008e3c:	00d11113          	slli	sp,sp,0xd
    80008e40:	66510113          	addi	sp,sp,1637
    80008e44:	00c10463          	beq	sp,a2,80008e4c <inst_486>
    80008e48:	9dcf706f          	j	80000024 <rvtest_error>

0000000080008e4c <inst_486>:
    80008e4c:	00000537          	lui	a0,0x0
    80008e50:	00050513          	mv	a0,a0
    80008e54:	00b51513          	slli	a0,a0,0xb
    80008e58:	5a850513          	addi	a0,a0,1448 # 5a8 <offset+0x1b0>
    80008e5c:	00b51513          	slli	a0,a0,0xb
    80008e60:	13c50513          	addi	a0,a0,316
    80008e64:	00a51513          	slli	a0,a0,0xa
    80008e68:	33250513          	addi	a0,a0,818
    80008e6c:	000005b7          	lui	a1,0x0
    80008e70:	00058593          	mv	a1,a1
    80008e74:	00b59593          	slli	a1,a1,0xb
    80008e78:	5a858593          	addi	a1,a1,1448 # 5a8 <offset+0x1b0>
    80008e7c:	00b59593          	slli	a1,a1,0xb
    80008e80:	13c58593          	addi	a1,a1,316
    80008e84:	00a59593          	slli	a1,a1,0xa
    80008e88:	33358593          	addi	a1,a1,819
    80008e8c:	40b50633          	sub	a2,a0,a1
    80008e90:	62c0bc23          	sd	a2,1592(ra)
    80008e94:	fff00113          	li	sp,-1
    80008e98:	00c10463          	beq	sp,a2,80008ea0 <inst_487>
    80008e9c:	988f706f          	j	80000024 <rvtest_error>

0000000080008ea0 <inst_487>:
    80008ea0:	00000537          	lui	a0,0x0
    80008ea4:	00050513          	mv	a0,a0
    80008ea8:	00b51513          	slli	a0,a0,0xb
    80008eac:	5a850513          	addi	a0,a0,1448 # 5a8 <offset+0x1b0>
    80008eb0:	00b51513          	slli	a0,a0,0xb
    80008eb4:	13c50513          	addi	a0,a0,316
    80008eb8:	00a51513          	slli	a0,a0,0xa
    80008ebc:	33250513          	addi	a0,a0,818
    80008ec0:	00200593          	li	a1,2
    80008ec4:	40b50633          	sub	a2,a0,a1
    80008ec8:	64c0b023          	sd	a2,1600(ra)
    80008ecc:	000b5137          	lui	sp,0xb5
    80008ed0:	04f1011b          	addiw	sp,sp,79 # b504f <offset+0xb4c57>
    80008ed4:	00c11113          	slli	sp,sp,0xc
    80008ed8:	33010113          	addi	sp,sp,816
    80008edc:	00c10463          	beq	sp,a2,80008ee4 <inst_488>
    80008ee0:	944f706f          	j	80000024 <rvtest_error>

0000000080008ee4 <inst_488>:
    80008ee4:	00000537          	lui	a0,0x0
    80008ee8:	00050513          	mv	a0,a0
    80008eec:	00b51513          	slli	a0,a0,0xb
    80008ef0:	5a850513          	addi	a0,a0,1448 # 5a8 <offset+0x1b0>
    80008ef4:	00b51513          	slli	a0,a0,0xb
    80008ef8:	13c50513          	addi	a0,a0,316
    80008efc:	00a51513          	slli	a0,a0,0xa
    80008f00:	33250513          	addi	a0,a0,818
    80008f04:	555555b7          	lui	a1,0x55555
    80008f08:	55558593          	addi	a1,a1,1365 # 55555555 <absimmsh+0x49a847a8>
    80008f0c:	00b59593          	slli	a1,a1,0xb
    80008f10:	2aa58593          	addi	a1,a1,682
    80008f14:	00b59593          	slli	a1,a1,0xb
    80008f18:	55558593          	addi	a1,a1,1365
    80008f1c:	00a59593          	slli	a1,a1,0xa
    80008f20:	15458593          	addi	a1,a1,340
    80008f24:	40b50633          	sub	a2,a0,a1
    80008f28:	64c0b423          	sd	a2,1608(ra)
    80008f2c:	ffd55137          	lui	sp,0xffd55
    80008f30:	5551011b          	addiw	sp,sp,1365 # ffffffffffd55555 <absimm+0xffffffff45047a85>
    80008f34:	00c11113          	slli	sp,sp,0xc
    80008f38:	55b10113          	addi	sp,sp,1371
    80008f3c:	01011113          	slli	sp,sp,0x10
    80008f40:	d7d10113          	addi	sp,sp,-643
    80008f44:	00d11113          	slli	sp,sp,0xd
    80008f48:	dde10113          	addi	sp,sp,-546
    80008f4c:	00c10463          	beq	sp,a2,80008f54 <inst_489>
    80008f50:	8d4f706f          	j	80000024 <rvtest_error>

0000000080008f54 <inst_489>:
    80008f54:	00000537          	lui	a0,0x0
    80008f58:	00050513          	mv	a0,a0
    80008f5c:	00b51513          	slli	a0,a0,0xb
    80008f60:	5a850513          	addi	a0,a0,1448 # 5a8 <offset+0x1b0>
    80008f64:	00b51513          	slli	a0,a0,0xb
    80008f68:	13c50513          	addi	a0,a0,316
    80008f6c:	00a51513          	slli	a0,a0,0xa
    80008f70:	33250513          	addi	a0,a0,818
    80008f74:	00000593          	li	a1,0
    80008f78:	40b50633          	sub	a2,a0,a1
    80008f7c:	64c0b823          	sd	a2,1616(ra)
    80008f80:	000b5137          	lui	sp,0xb5
    80008f84:	04f1011b          	addiw	sp,sp,79 # b504f <offset+0xb4c57>
    80008f88:	00c11113          	slli	sp,sp,0xc
    80008f8c:	33210113          	addi	sp,sp,818
    80008f90:	00c10463          	beq	sp,a2,80008f98 <inst_490>
    80008f94:	890f706f          	j	80000024 <rvtest_error>

0000000080008f98 <inst_490>:
    80008f98:	00000537          	lui	a0,0x0
    80008f9c:	00050513          	mv	a0,a0
    80008fa0:	00b51513          	slli	a0,a0,0xb
    80008fa4:	5a850513          	addi	a0,a0,1448 # 5a8 <offset+0x1b0>
    80008fa8:	00b51513          	slli	a0,a0,0xb
    80008fac:	13c50513          	addi	a0,a0,316
    80008fb0:	00a51513          	slli	a0,a0,0xa
    80008fb4:	33250513          	addi	a0,a0,818
    80008fb8:	00400593          	li	a1,4
    80008fbc:	40b50633          	sub	a2,a0,a1
    80008fc0:	64c0bc23          	sd	a2,1624(ra)
    80008fc4:	000b5137          	lui	sp,0xb5
    80008fc8:	04f1011b          	addiw	sp,sp,79 # b504f <offset+0xb4c57>
    80008fcc:	00c11113          	slli	sp,sp,0xc
    80008fd0:	32e10113          	addi	sp,sp,814
    80008fd4:	00c10463          	beq	sp,a2,80008fdc <inst_491>
    80008fd8:	84cf706f          	j	80000024 <rvtest_error>

0000000080008fdc <inst_491>:
    80008fdc:	00000537          	lui	a0,0x0
    80008fe0:	00050513          	mv	a0,a0
    80008fe4:	00b51513          	slli	a0,a0,0xb
    80008fe8:	5a850513          	addi	a0,a0,1448 # 5a8 <offset+0x1b0>
    80008fec:	00b51513          	slli	a0,a0,0xb
    80008ff0:	13c50513          	addi	a0,a0,316
    80008ff4:	00a51513          	slli	a0,a0,0xa
    80008ff8:	33250513          	addi	a0,a0,818
    80008ffc:	333335b7          	lui	a1,0x33333
    80009000:	33358593          	addi	a1,a1,819 # 33333333 <absimmsh+0x27862586>
    80009004:	00b59593          	slli	a1,a1,0xb
    80009008:	19958593          	addi	a1,a1,409
    8000900c:	00b59593          	slli	a1,a1,0xb
    80009010:	4cc58593          	addi	a1,a1,1228
    80009014:	00a59593          	slli	a1,a1,0xa
    80009018:	33258593          	addi	a1,a1,818
    8000901c:	40b50633          	sub	a2,a0,a1
    80009020:	66c0b023          	sd	a2,1632(ra)
    80009024:	9999a137          	lui	sp,0x9999a
    80009028:	99b1011b          	addiw	sp,sp,-1637 # ffffffff9999999b <absimm+0xfffffffedec8becb>
    8000902c:	01111113          	slli	sp,sp,0x11
    80009030:	74710113          	addi	sp,sp,1863
    80009034:	00e11113          	slli	sp,sp,0xe
    80009038:	00c10463          	beq	sp,a2,80009040 <inst_492>
    8000903c:	fe9f606f          	j	80000024 <rvtest_error>

0000000080009040 <inst_492>:
    80009040:	00000537          	lui	a0,0x0
    80009044:	00050513          	mv	a0,a0
    80009048:	00b51513          	slli	a0,a0,0xb
    8000904c:	5a850513          	addi	a0,a0,1448 # 5a8 <offset+0x1b0>
    80009050:	00b51513          	slli	a0,a0,0xb
    80009054:	13c50513          	addi	a0,a0,316
    80009058:	00a51513          	slli	a0,a0,0xa
    8000905c:	33250513          	addi	a0,a0,818
    80009060:	666665b7          	lui	a1,0x66666
    80009064:	66658593          	addi	a1,a1,1638 # 66666666 <absimmsh+0x5ab958b9>
    80009068:	00b59593          	slli	a1,a1,0xb
    8000906c:	33358593          	addi	a1,a1,819
    80009070:	00b59593          	slli	a1,a1,0xb
    80009074:	19958593          	addi	a1,a1,409
    80009078:	00a59593          	slli	a1,a1,0xa
    8000907c:	26558593          	addi	a1,a1,613
    80009080:	40b50633          	sub	a2,a0,a1
    80009084:	66c0b423          	sd	a2,1640(ra)
    80009088:	fcccd137          	lui	sp,0xfcccd
    8000908c:	ccd1011b          	addiw	sp,sp,-819 # fffffffffccccccd <absimm+0xffffffff41fbf1fd>
    80009090:	00d11113          	slli	sp,sp,0xd
    80009094:	a4f10113          	addi	sp,sp,-1457
    80009098:	00c11113          	slli	sp,sp,0xc
    8000909c:	9e910113          	addi	sp,sp,-1559
    800090a0:	00c11113          	slli	sp,sp,0xc
    800090a4:	ccd10113          	addi	sp,sp,-819
    800090a8:	00c10463          	beq	sp,a2,800090b0 <inst_493>
    800090ac:	f79f606f          	j	80000024 <rvtest_error>

00000000800090b0 <inst_493>:
    800090b0:	00000537          	lui	a0,0x0
    800090b4:	00050513          	mv	a0,a0
    800090b8:	00b51513          	slli	a0,a0,0xb
    800090bc:	5a850513          	addi	a0,a0,1448 # 5a8 <offset+0x1b0>
    800090c0:	00b51513          	slli	a0,a0,0xb
    800090c4:	13c50513          	addi	a0,a0,316
    800090c8:	00a51513          	slli	a0,a0,0xa
    800090cc:	33250513          	addi	a0,a0,818
    800090d0:	000005b7          	lui	a1,0x0
    800090d4:	00058593          	mv	a1,a1
    800090d8:	00b59593          	slli	a1,a1,0xb
    800090dc:	5a858593          	addi	a1,a1,1448 # 5a8 <offset+0x1b0>
    800090e0:	00b59593          	slli	a1,a1,0xb
    800090e4:	13c58593          	addi	a1,a1,316
    800090e8:	00a59593          	slli	a1,a1,0xa
    800090ec:	33258593          	addi	a1,a1,818
    800090f0:	40b50633          	sub	a2,a0,a1
    800090f4:	66c0b823          	sd	a2,1648(ra)
    800090f8:	00000113          	li	sp,0
    800090fc:	00c10463          	beq	sp,a2,80009104 <inst_494>
    80009100:	f25f606f          	j	80000024 <rvtest_error>

0000000080009104 <inst_494>:
    80009104:	00000537          	lui	a0,0x0
    80009108:	00050513          	mv	a0,a0
    8000910c:	00b51513          	slli	a0,a0,0xb
    80009110:	5a850513          	addi	a0,a0,1448 # 5a8 <offset+0x1b0>
    80009114:	00b51513          	slli	a0,a0,0xb
    80009118:	13c50513          	addi	a0,a0,316
    8000911c:	00a51513          	slli	a0,a0,0xa
    80009120:	33250513          	addi	a0,a0,818
    80009124:	555555b7          	lui	a1,0x55555
    80009128:	55558593          	addi	a1,a1,1365 # 55555555 <absimmsh+0x49a847a8>
    8000912c:	00b59593          	slli	a1,a1,0xb
    80009130:	2aa58593          	addi	a1,a1,682
    80009134:	00b59593          	slli	a1,a1,0xb
    80009138:	55558593          	addi	a1,a1,1365
    8000913c:	00a59593          	slli	a1,a1,0xa
    80009140:	15658593          	addi	a1,a1,342
    80009144:	40b50633          	sub	a2,a0,a1
    80009148:	66c0bc23          	sd	a2,1656(ra)
    8000914c:	ffd55137          	lui	sp,0xffd55
    80009150:	5551011b          	addiw	sp,sp,1365 # ffffffffffd55555 <absimm+0xffffffff45047a85>
    80009154:	00c11113          	slli	sp,sp,0xc
    80009158:	55b10113          	addi	sp,sp,1371
    8000915c:	01011113          	slli	sp,sp,0x10
    80009160:	d7d10113          	addi	sp,sp,-643
    80009164:	00d11113          	slli	sp,sp,0xd
    80009168:	ddc10113          	addi	sp,sp,-548
    8000916c:	00c10463          	beq	sp,a2,80009174 <inst_495>
    80009170:	eb5f606f          	j	80000024 <rvtest_error>

0000000080009174 <inst_495>:
    80009174:	00000537          	lui	a0,0x0
    80009178:	00050513          	mv	a0,a0
    8000917c:	00b51513          	slli	a0,a0,0xb
    80009180:	5a850513          	addi	a0,a0,1448 # 5a8 <offset+0x1b0>
    80009184:	00b51513          	slli	a0,a0,0xb
    80009188:	13c50513          	addi	a0,a0,316
    8000918c:	00a51513          	slli	a0,a0,0xa
    80009190:	33250513          	addi	a0,a0,818
    80009194:	aaaab5b7          	lui	a1,0xaaaab
    80009198:	aaa58593          	addi	a1,a1,-1366 # ffffffffaaaaaaaa <absimm+0xfffffffeefd9cfda>
    8000919c:	00b59593          	slli	a1,a1,0xb
    800091a0:	55558593          	addi	a1,a1,1365
    800091a4:	00b59593          	slli	a1,a1,0xb
    800091a8:	2aa58593          	addi	a1,a1,682
    800091ac:	00a59593          	slli	a1,a1,0xa
    800091b0:	2ab58593          	addi	a1,a1,683
    800091b4:	40b50633          	sub	a2,a0,a1
    800091b8:	68c0b023          	sd	a2,1664(ra)
    800091bc:	02aab137          	lui	sp,0x2aab
    800091c0:	aab1011b          	addiw	sp,sp,-1365 # 2aaaaab <offset+0x2aaa6b3>
    800091c4:	00c11113          	slli	sp,sp,0xc
    800091c8:	b0510113          	addi	sp,sp,-1275
    800091cc:	00d11113          	slli	sp,sp,0xd
    800091d0:	5a510113          	addi	sp,sp,1445
    800091d4:	00c11113          	slli	sp,sp,0xc
    800091d8:	88710113          	addi	sp,sp,-1913
    800091dc:	00c10463          	beq	sp,a2,800091e4 <inst_496>
    800091e0:	e45f606f          	j	80000024 <rvtest_error>

00000000800091e4 <inst_496>:
    800091e4:	00000537          	lui	a0,0x0
    800091e8:	00050513          	mv	a0,a0
    800091ec:	00b51513          	slli	a0,a0,0xb
    800091f0:	5a850513          	addi	a0,a0,1448 # 5a8 <offset+0x1b0>
    800091f4:	00b51513          	slli	a0,a0,0xb
    800091f8:	13c50513          	addi	a0,a0,316
    800091fc:	00a51513          	slli	a0,a0,0xa
    80009200:	33250513          	addi	a0,a0,818
    80009204:	00600593          	li	a1,6
    80009208:	40b50633          	sub	a2,a0,a1
    8000920c:	68c0b423          	sd	a2,1672(ra)
    80009210:	000b5137          	lui	sp,0xb5
    80009214:	04f1011b          	addiw	sp,sp,79 # b504f <offset+0xb4c57>
    80009218:	00c11113          	slli	sp,sp,0xc
    8000921c:	32c10113          	addi	sp,sp,812
    80009220:	00c10463          	beq	sp,a2,80009228 <inst_497>
    80009224:	e01f606f          	j	80000024 <rvtest_error>

0000000080009228 <inst_497>:
    80009228:	00000537          	lui	a0,0x0
    8000922c:	00050513          	mv	a0,a0
    80009230:	00b51513          	slli	a0,a0,0xb
    80009234:	5a850513          	addi	a0,a0,1448 # 5a8 <offset+0x1b0>
    80009238:	00b51513          	slli	a0,a0,0xb
    8000923c:	13c50513          	addi	a0,a0,316
    80009240:	00a51513          	slli	a0,a0,0xa
    80009244:	33250513          	addi	a0,a0,818
    80009248:	333335b7          	lui	a1,0x33333
    8000924c:	33358593          	addi	a1,a1,819 # 33333333 <absimmsh+0x27862586>
    80009250:	00b59593          	slli	a1,a1,0xb
    80009254:	19958593          	addi	a1,a1,409
    80009258:	00b59593          	slli	a1,a1,0xb
    8000925c:	4cc58593          	addi	a1,a1,1228
    80009260:	00a59593          	slli	a1,a1,0xa
    80009264:	33458593          	addi	a1,a1,820
    80009268:	40b50633          	sub	a2,a0,a1
    8000926c:	68c0b823          	sd	a2,1680(ra)
    80009270:	9999a137          	lui	sp,0x9999a
    80009274:	99b1011b          	addiw	sp,sp,-1637 # ffffffff9999999b <absimm+0xfffffffedec8becb>
    80009278:	01111113          	slli	sp,sp,0x11
    8000927c:	74710113          	addi	sp,sp,1863
    80009280:	00e11113          	slli	sp,sp,0xe
    80009284:	ffe10113          	addi	sp,sp,-2
    80009288:	00c10463          	beq	sp,a2,80009290 <inst_498>
    8000928c:	d99f606f          	j	80000024 <rvtest_error>

0000000080009290 <inst_498>:
    80009290:	00000537          	lui	a0,0x0
    80009294:	00050513          	mv	a0,a0
    80009298:	00b51513          	slli	a0,a0,0xb
    8000929c:	5a850513          	addi	a0,a0,1448 # 5a8 <offset+0x1b0>
    800092a0:	00b51513          	slli	a0,a0,0xb
    800092a4:	13c50513          	addi	a0,a0,316
    800092a8:	00a51513          	slli	a0,a0,0xa
    800092ac:	33250513          	addi	a0,a0,818
    800092b0:	666665b7          	lui	a1,0x66666
    800092b4:	66658593          	addi	a1,a1,1638 # 66666666 <absimmsh+0x5ab958b9>
    800092b8:	00b59593          	slli	a1,a1,0xb
    800092bc:	33358593          	addi	a1,a1,819
    800092c0:	00b59593          	slli	a1,a1,0xb
    800092c4:	19958593          	addi	a1,a1,409
    800092c8:	00a59593          	slli	a1,a1,0xa
    800092cc:	26758593          	addi	a1,a1,615
    800092d0:	40b50633          	sub	a2,a0,a1
    800092d4:	68c0bc23          	sd	a2,1688(ra)
    800092d8:	fcccd137          	lui	sp,0xfcccd
    800092dc:	ccd1011b          	addiw	sp,sp,-819 # fffffffffccccccd <absimm+0xffffffff41fbf1fd>
    800092e0:	00d11113          	slli	sp,sp,0xd
    800092e4:	a4f10113          	addi	sp,sp,-1457
    800092e8:	00c11113          	slli	sp,sp,0xc
    800092ec:	9e910113          	addi	sp,sp,-1559
    800092f0:	00c11113          	slli	sp,sp,0xc
    800092f4:	ccb10113          	addi	sp,sp,-821
    800092f8:	00c10463          	beq	sp,a2,80009300 <inst_499>
    800092fc:	d29f606f          	j	80000024 <rvtest_error>

0000000080009300 <inst_499>:
    80009300:	00000537          	lui	a0,0x0
    80009304:	00050513          	mv	a0,a0
    80009308:	00b51513          	slli	a0,a0,0xb
    8000930c:	5a850513          	addi	a0,a0,1448 # 5a8 <offset+0x1b0>
    80009310:	00b51513          	slli	a0,a0,0xb
    80009314:	13c50513          	addi	a0,a0,316
    80009318:	00a51513          	slli	a0,a0,0xa
    8000931c:	33250513          	addi	a0,a0,818
    80009320:	000005b7          	lui	a1,0x0
    80009324:	fff58593          	addi	a1,a1,-1
    80009328:	00b59593          	slli	a1,a1,0xb
    8000932c:	25758593          	addi	a1,a1,599
    80009330:	00b59593          	slli	a1,a1,0xb
    80009334:	6c358593          	addi	a1,a1,1731
    80009338:	00a59593          	slli	a1,a1,0xa
    8000933c:	0ce58593          	addi	a1,a1,206
    80009340:	40b50633          	sub	a2,a0,a1
    80009344:	6ac0b023          	sd	a2,1696(ra)
    80009348:	000b5137          	lui	sp,0xb5
    8000934c:	04f1011b          	addiw	sp,sp,79 # b504f <offset+0xb4c57>
    80009350:	00d11113          	slli	sp,sp,0xd
    80009354:	66410113          	addi	sp,sp,1636
    80009358:	00c10463          	beq	sp,a2,80009360 <inst_500>
    8000935c:	cc9f606f          	j	80000024 <rvtest_error>

0000000080009360 <inst_500>:
    80009360:	00000537          	lui	a0,0x0
    80009364:	00050513          	mv	a0,a0
    80009368:	00b51513          	slli	a0,a0,0xb
    8000936c:	5a850513          	addi	a0,a0,1448 # 5a8 <offset+0x1b0>
    80009370:	00b51513          	slli	a0,a0,0xb
    80009374:	13c50513          	addi	a0,a0,316
    80009378:	00a51513          	slli	a0,a0,0xa
    8000937c:	33250513          	addi	a0,a0,818
    80009380:	000005b7          	lui	a1,0x0
    80009384:	00058593          	mv	a1,a1
    80009388:	00b59593          	slli	a1,a1,0xb
    8000938c:	5a858593          	addi	a1,a1,1448 # 5a8 <offset+0x1b0>
    80009390:	00b59593          	slli	a1,a1,0xb
    80009394:	13c58593          	addi	a1,a1,316
    80009398:	00a59593          	slli	a1,a1,0xa
    8000939c:	33458593          	addi	a1,a1,820
    800093a0:	40b50633          	sub	a2,a0,a1
    800093a4:	6ac0b423          	sd	a2,1704(ra)
    800093a8:	ffe00113          	li	sp,-2
    800093ac:	00c10463          	beq	sp,a2,800093b4 <inst_501>
    800093b0:	c75f606f          	j	80000024 <rvtest_error>

00000000800093b4 <inst_501>:
    800093b4:	55555537          	lui	a0,0x55555
    800093b8:	55550513          	addi	a0,a0,1365 # 55555555 <absimmsh+0x49a847a8>
    800093bc:	00b51513          	slli	a0,a0,0xb
    800093c0:	2aa50513          	addi	a0,a0,682
    800093c4:	00b51513          	slli	a0,a0,0xb
    800093c8:	55550513          	addi	a0,a0,1365
    800093cc:	00a51513          	slli	a0,a0,0xa
    800093d0:	15650513          	addi	a0,a0,342
    800093d4:	00300593          	li	a1,3
    800093d8:	40b50633          	sub	a2,a0,a1
    800093dc:	6ac0b823          	sd	a2,1712(ra)
    800093e0:	05555137          	lui	sp,0x5555
    800093e4:	5551011b          	addiw	sp,sp,1365 # 5555555 <offset+0x555515d>
    800093e8:	00c11113          	slli	sp,sp,0xc
    800093ec:	55510113          	addi	sp,sp,1365
    800093f0:	00c11113          	slli	sp,sp,0xc
    800093f4:	55510113          	addi	sp,sp,1365
    800093f8:	00c11113          	slli	sp,sp,0xc
    800093fc:	55310113          	addi	sp,sp,1363
    80009400:	00c10463          	beq	sp,a2,80009408 <inst_502>
    80009404:	c21f606f          	j	80000024 <rvtest_error>

0000000080009408 <inst_502>:
    80009408:	55555537          	lui	a0,0x55555
    8000940c:	55550513          	addi	a0,a0,1365 # 55555555 <absimmsh+0x49a847a8>
    80009410:	00b51513          	slli	a0,a0,0xb
    80009414:	2aa50513          	addi	a0,a0,682
    80009418:	00b51513          	slli	a0,a0,0xb
    8000941c:	55550513          	addi	a0,a0,1365
    80009420:	00a51513          	slli	a0,a0,0xa
    80009424:	15650513          	addi	a0,a0,342
    80009428:	555555b7          	lui	a1,0x55555
    8000942c:	55558593          	addi	a1,a1,1365 # 55555555 <absimmsh+0x49a847a8>
    80009430:	00b59593          	slli	a1,a1,0xb
    80009434:	2aa58593          	addi	a1,a1,682
    80009438:	00b59593          	slli	a1,a1,0xb
    8000943c:	55558593          	addi	a1,a1,1365
    80009440:	00a59593          	slli	a1,a1,0xa
    80009444:	15558593          	addi	a1,a1,341
    80009448:	40b50633          	sub	a2,a0,a1
    8000944c:	6ac0bc23          	sd	a2,1720(ra)
    80009450:	00100113          	li	sp,1
    80009454:	00c10463          	beq	sp,a2,8000945c <inst_503>
    80009458:	bcdf606f          	j	80000024 <rvtest_error>

000000008000945c <inst_503>:
    8000945c:	55555537          	lui	a0,0x55555
    80009460:	55550513          	addi	a0,a0,1365 # 55555555 <absimmsh+0x49a847a8>
    80009464:	00b51513          	slli	a0,a0,0xb
    80009468:	2aa50513          	addi	a0,a0,682
    8000946c:	00b51513          	slli	a0,a0,0xb
    80009470:	55550513          	addi	a0,a0,1365
    80009474:	00a51513          	slli	a0,a0,0xa
    80009478:	15650513          	addi	a0,a0,342
    8000947c:	aaaab5b7          	lui	a1,0xaaaab
    80009480:	aaa58593          	addi	a1,a1,-1366 # ffffffffaaaaaaaa <absimm+0xfffffffeefd9cfda>
    80009484:	00b59593          	slli	a1,a1,0xb
    80009488:	55558593          	addi	a1,a1,1365
    8000948c:	00b59593          	slli	a1,a1,0xb
    80009490:	2aa58593          	addi	a1,a1,682
    80009494:	00a59593          	slli	a1,a1,0xa
    80009498:	2aa58593          	addi	a1,a1,682
    8000949c:	40b50633          	sub	a2,a0,a1
    800094a0:	6cc0b023          	sd	a2,1728(ra)
    800094a4:	faaab137          	lui	sp,0xfaaab
    800094a8:	aab1011b          	addiw	sp,sp,-1365 # fffffffffaaaaaab <absimm+0xffffffff3fd9cfdb>
    800094ac:	00c11113          	slli	sp,sp,0xc
    800094b0:	aab10113          	addi	sp,sp,-1365
    800094b4:	00c11113          	slli	sp,sp,0xc
    800094b8:	aab10113          	addi	sp,sp,-1365
    800094bc:	00c11113          	slli	sp,sp,0xc
    800094c0:	aac10113          	addi	sp,sp,-1364
    800094c4:	00c10463          	beq	sp,a2,800094cc <inst_504>
    800094c8:	b5df606f          	j	80000024 <rvtest_error>

00000000800094cc <inst_504>:
    800094cc:	55555537          	lui	a0,0x55555
    800094d0:	55550513          	addi	a0,a0,1365 # 55555555 <absimmsh+0x49a847a8>
    800094d4:	00b51513          	slli	a0,a0,0xb
    800094d8:	2aa50513          	addi	a0,a0,682
    800094dc:	00b51513          	slli	a0,a0,0xb
    800094e0:	55550513          	addi	a0,a0,1365
    800094e4:	00a51513          	slli	a0,a0,0xa
    800094e8:	15650513          	addi	a0,a0,342
    800094ec:	00500593          	li	a1,5
    800094f0:	40b50633          	sub	a2,a0,a1
    800094f4:	6cc0b423          	sd	a2,1736(ra)
    800094f8:	05555137          	lui	sp,0x5555
    800094fc:	5551011b          	addiw	sp,sp,1365 # 5555555 <offset+0x555515d>
    80009500:	00c11113          	slli	sp,sp,0xc
    80009504:	55510113          	addi	sp,sp,1365
    80009508:	00c11113          	slli	sp,sp,0xc
    8000950c:	55510113          	addi	sp,sp,1365
    80009510:	00c11113          	slli	sp,sp,0xc
    80009514:	55110113          	addi	sp,sp,1361
    80009518:	00c10463          	beq	sp,a2,80009520 <inst_505>
    8000951c:	b09f606f          	j	80000024 <rvtest_error>

0000000080009520 <inst_505>:
    80009520:	55555537          	lui	a0,0x55555
    80009524:	55550513          	addi	a0,a0,1365 # 55555555 <absimmsh+0x49a847a8>
    80009528:	00b51513          	slli	a0,a0,0xb
    8000952c:	2aa50513          	addi	a0,a0,682
    80009530:	00b51513          	slli	a0,a0,0xb
    80009534:	55550513          	addi	a0,a0,1365
    80009538:	00a51513          	slli	a0,a0,0xa
    8000953c:	15650513          	addi	a0,a0,342
    80009540:	333335b7          	lui	a1,0x33333
    80009544:	33358593          	addi	a1,a1,819 # 33333333 <absimmsh+0x27862586>
    80009548:	00b59593          	slli	a1,a1,0xb
    8000954c:	19958593          	addi	a1,a1,409
    80009550:	00b59593          	slli	a1,a1,0xb
    80009554:	4cc58593          	addi	a1,a1,1228
    80009558:	00a59593          	slli	a1,a1,0xa
    8000955c:	33358593          	addi	a1,a1,819
    80009560:	40b50633          	sub	a2,a0,a1
    80009564:	6cc0b823          	sd	a2,1744(ra)
    80009568:	01111137          	lui	sp,0x1111
    8000956c:	1111011b          	addiw	sp,sp,273 # 1111111 <offset+0x1110d19>
    80009570:	00c11113          	slli	sp,sp,0xc
    80009574:	11110113          	addi	sp,sp,273
    80009578:	00c11113          	slli	sp,sp,0xc
    8000957c:	11110113          	addi	sp,sp,273
    80009580:	00d11113          	slli	sp,sp,0xd
    80009584:	22310113          	addi	sp,sp,547
    80009588:	00c10463          	beq	sp,a2,80009590 <inst_506>
    8000958c:	a99f606f          	j	80000024 <rvtest_error>

0000000080009590 <inst_506>:
    80009590:	55555537          	lui	a0,0x55555
    80009594:	55550513          	addi	a0,a0,1365 # 55555555 <absimmsh+0x49a847a8>
    80009598:	00b51513          	slli	a0,a0,0xb
    8000959c:	2aa50513          	addi	a0,a0,682
    800095a0:	00b51513          	slli	a0,a0,0xb
    800095a4:	55550513          	addi	a0,a0,1365
    800095a8:	00a51513          	slli	a0,a0,0xa
    800095ac:	15650513          	addi	a0,a0,342
    800095b0:	666665b7          	lui	a1,0x66666
    800095b4:	66658593          	addi	a1,a1,1638 # 66666666 <absimmsh+0x5ab958b9>
    800095b8:	00b59593          	slli	a1,a1,0xb
    800095bc:	33358593          	addi	a1,a1,819
    800095c0:	00b59593          	slli	a1,a1,0xb
    800095c4:	19958593          	addi	a1,a1,409
    800095c8:	00a59593          	slli	a1,a1,0xa
    800095cc:	26658593          	addi	a1,a1,614
    800095d0:	40b50633          	sub	a2,a0,a1
    800095d4:	6cc0bc23          	sd	a2,1752(ra)
    800095d8:	feeef137          	lui	sp,0xfeeef
    800095dc:	eef1011b          	addiw	sp,sp,-273 # fffffffffeeeeeef <absimm+0xffffffff441e141f>
    800095e0:	00c11113          	slli	sp,sp,0xc
    800095e4:	eef10113          	addi	sp,sp,-273
    800095e8:	00c11113          	slli	sp,sp,0xc
    800095ec:	eef10113          	addi	sp,sp,-273
    800095f0:	00c11113          	slli	sp,sp,0xc
    800095f4:	ef010113          	addi	sp,sp,-272
    800095f8:	00c10463          	beq	sp,a2,80009600 <inst_507>
    800095fc:	a29f606f          	j	80000024 <rvtest_error>

0000000080009600 <inst_507>:
    80009600:	55555537          	lui	a0,0x55555
    80009604:	55550513          	addi	a0,a0,1365 # 55555555 <absimmsh+0x49a847a8>
    80009608:	00b51513          	slli	a0,a0,0xb
    8000960c:	2aa50513          	addi	a0,a0,682
    80009610:	00b51513          	slli	a0,a0,0xb
    80009614:	55550513          	addi	a0,a0,1365
    80009618:	00a51513          	slli	a0,a0,0xa
    8000961c:	15650513          	addi	a0,a0,342
    80009620:	000005b7          	lui	a1,0x0
    80009624:	fff58593          	addi	a1,a1,-1
    80009628:	00b59593          	slli	a1,a1,0xb
    8000962c:	25758593          	addi	a1,a1,599
    80009630:	00b59593          	slli	a1,a1,0xb
    80009634:	6c358593          	addi	a1,a1,1731
    80009638:	00a59593          	slli	a1,a1,0xa
    8000963c:	0cd58593          	addi	a1,a1,205
    80009640:	40b50633          	sub	a2,a0,a1
    80009644:	6ec0b023          	sd	a2,1760(ra)
    80009648:	02aab137          	lui	sp,0x2aab
    8000964c:	aab1011b          	addiw	sp,sp,-1365 # 2aaaaab <offset+0x2aaa6b3>
    80009650:	00c11113          	slli	sp,sp,0xc
    80009654:	b0510113          	addi	sp,sp,-1275
    80009658:	00d11113          	slli	sp,sp,0xd
    8000965c:	5a510113          	addi	sp,sp,1445
    80009660:	00c11113          	slli	sp,sp,0xc
    80009664:	88910113          	addi	sp,sp,-1911
    80009668:	00c10463          	beq	sp,a2,80009670 <inst_508>
    8000966c:	9b9f606f          	j	80000024 <rvtest_error>

0000000080009670 <inst_508>:
    80009670:	55555537          	lui	a0,0x55555
    80009674:	55550513          	addi	a0,a0,1365 # 55555555 <absimmsh+0x49a847a8>
    80009678:	00b51513          	slli	a0,a0,0xb
    8000967c:	2aa50513          	addi	a0,a0,682
    80009680:	00b51513          	slli	a0,a0,0xb
    80009684:	55550513          	addi	a0,a0,1365
    80009688:	00a51513          	slli	a0,a0,0xa
    8000968c:	15650513          	addi	a0,a0,342
    80009690:	000005b7          	lui	a1,0x0
    80009694:	00058593          	mv	a1,a1
    80009698:	00b59593          	slli	a1,a1,0xb
    8000969c:	5a858593          	addi	a1,a1,1448 # 5a8 <offset+0x1b0>
    800096a0:	00b59593          	slli	a1,a1,0xb
    800096a4:	13c58593          	addi	a1,a1,316
    800096a8:	00a59593          	slli	a1,a1,0xa
    800096ac:	33358593          	addi	a1,a1,819
    800096b0:	40b50633          	sub	a2,a0,a1
    800096b4:	6ec0b423          	sd	a2,1768(ra)
    800096b8:	002ab137          	lui	sp,0x2ab
    800096bc:	aab1011b          	addiw	sp,sp,-1365 # 2aaaab <offset+0x2aa6b3>
    800096c0:	00c11113          	slli	sp,sp,0xc
    800096c4:	aa510113          	addi	sp,sp,-1371
    800096c8:	01011113          	slli	sp,sp,0x10
    800096cc:	28310113          	addi	sp,sp,643
    800096d0:	00d11113          	slli	sp,sp,0xd
    800096d4:	22310113          	addi	sp,sp,547
    800096d8:	00c10463          	beq	sp,a2,800096e0 <inst_509>
    800096dc:	949f606f          	j	80000024 <rvtest_error>

00000000800096e0 <inst_509>:
    800096e0:	55555537          	lui	a0,0x55555
    800096e4:	55550513          	addi	a0,a0,1365 # 55555555 <absimmsh+0x49a847a8>
    800096e8:	00b51513          	slli	a0,a0,0xb
    800096ec:	2aa50513          	addi	a0,a0,682
    800096f0:	00b51513          	slli	a0,a0,0xb
    800096f4:	55550513          	addi	a0,a0,1365
    800096f8:	00a51513          	slli	a0,a0,0xa
    800096fc:	15650513          	addi	a0,a0,342
    80009700:	00200593          	li	a1,2
    80009704:	40b50633          	sub	a2,a0,a1
    80009708:	6ec0b823          	sd	a2,1776(ra)
    8000970c:	05555137          	lui	sp,0x5555
    80009710:	5551011b          	addiw	sp,sp,1365 # 5555555 <offset+0x555515d>
    80009714:	00c11113          	slli	sp,sp,0xc
    80009718:	55510113          	addi	sp,sp,1365
    8000971c:	00c11113          	slli	sp,sp,0xc
    80009720:	55510113          	addi	sp,sp,1365
    80009724:	00c11113          	slli	sp,sp,0xc
    80009728:	55410113          	addi	sp,sp,1364
    8000972c:	00c10463          	beq	sp,a2,80009734 <inst_510>
    80009730:	8f5f606f          	j	80000024 <rvtest_error>

0000000080009734 <inst_510>:
    80009734:	55555537          	lui	a0,0x55555
    80009738:	55550513          	addi	a0,a0,1365 # 55555555 <absimmsh+0x49a847a8>
    8000973c:	00b51513          	slli	a0,a0,0xb
    80009740:	2aa50513          	addi	a0,a0,682
    80009744:	00b51513          	slli	a0,a0,0xb
    80009748:	55550513          	addi	a0,a0,1365
    8000974c:	00a51513          	slli	a0,a0,0xa
    80009750:	15650513          	addi	a0,a0,342
    80009754:	555555b7          	lui	a1,0x55555
    80009758:	55558593          	addi	a1,a1,1365 # 55555555 <absimmsh+0x49a847a8>
    8000975c:	00b59593          	slli	a1,a1,0xb
    80009760:	2aa58593          	addi	a1,a1,682
    80009764:	00b59593          	slli	a1,a1,0xb
    80009768:	55558593          	addi	a1,a1,1365
    8000976c:	00a59593          	slli	a1,a1,0xa
    80009770:	15458593          	addi	a1,a1,340
    80009774:	40b50633          	sub	a2,a0,a1
    80009778:	6ec0bc23          	sd	a2,1784(ra)
    8000977c:	00200113          	li	sp,2
    80009780:	00c10463          	beq	sp,a2,80009788 <inst_511>
    80009784:	8a1f606f          	j	80000024 <rvtest_error>

0000000080009788 <inst_511>:
    80009788:	55555537          	lui	a0,0x55555
    8000978c:	55550513          	addi	a0,a0,1365 # 55555555 <absimmsh+0x49a847a8>
    80009790:	00b51513          	slli	a0,a0,0xb
    80009794:	2aa50513          	addi	a0,a0,682
    80009798:	00b51513          	slli	a0,a0,0xb
    8000979c:	55550513          	addi	a0,a0,1365
    800097a0:	00a51513          	slli	a0,a0,0xa
    800097a4:	15650513          	addi	a0,a0,342
    800097a8:	00000593          	li	a1,0
    800097ac:	40b50633          	sub	a2,a0,a1
    800097b0:	70c0b023          	sd	a2,1792(ra)
    800097b4:	05555137          	lui	sp,0x5555
    800097b8:	5551011b          	addiw	sp,sp,1365 # 5555555 <offset+0x555515d>
    800097bc:	00c11113          	slli	sp,sp,0xc
    800097c0:	55510113          	addi	sp,sp,1365
    800097c4:	00c11113          	slli	sp,sp,0xc
    800097c8:	55510113          	addi	sp,sp,1365
    800097cc:	00c11113          	slli	sp,sp,0xc
    800097d0:	55610113          	addi	sp,sp,1366
    800097d4:	00c10463          	beq	sp,a2,800097dc <inst_512>
    800097d8:	84df606f          	j	80000024 <rvtest_error>

00000000800097dc <inst_512>:
    800097dc:	55555537          	lui	a0,0x55555
    800097e0:	55550513          	addi	a0,a0,1365 # 55555555 <absimmsh+0x49a847a8>
    800097e4:	00b51513          	slli	a0,a0,0xb
    800097e8:	2aa50513          	addi	a0,a0,682
    800097ec:	00b51513          	slli	a0,a0,0xb
    800097f0:	55550513          	addi	a0,a0,1365
    800097f4:	00a51513          	slli	a0,a0,0xa
    800097f8:	15650513          	addi	a0,a0,342
    800097fc:	00400593          	li	a1,4
    80009800:	40b50633          	sub	a2,a0,a1
    80009804:	70c0b423          	sd	a2,1800(ra)
    80009808:	05555137          	lui	sp,0x5555
    8000980c:	5551011b          	addiw	sp,sp,1365 # 5555555 <offset+0x555515d>
    80009810:	00c11113          	slli	sp,sp,0xc
    80009814:	55510113          	addi	sp,sp,1365
    80009818:	00c11113          	slli	sp,sp,0xc
    8000981c:	55510113          	addi	sp,sp,1365
    80009820:	00c11113          	slli	sp,sp,0xc
    80009824:	55210113          	addi	sp,sp,1362
    80009828:	00c10463          	beq	sp,a2,80009830 <inst_513>
    8000982c:	ff8f606f          	j	80000024 <rvtest_error>

0000000080009830 <inst_513>:
    80009830:	55555537          	lui	a0,0x55555
    80009834:	55550513          	addi	a0,a0,1365 # 55555555 <absimmsh+0x49a847a8>
    80009838:	00b51513          	slli	a0,a0,0xb
    8000983c:	2aa50513          	addi	a0,a0,682
    80009840:	00b51513          	slli	a0,a0,0xb
    80009844:	55550513          	addi	a0,a0,1365
    80009848:	00a51513          	slli	a0,a0,0xa
    8000984c:	15650513          	addi	a0,a0,342
    80009850:	333335b7          	lui	a1,0x33333
    80009854:	33358593          	addi	a1,a1,819 # 33333333 <absimmsh+0x27862586>
    80009858:	00b59593          	slli	a1,a1,0xb
    8000985c:	19958593          	addi	a1,a1,409
    80009860:	00b59593          	slli	a1,a1,0xb
    80009864:	4cc58593          	addi	a1,a1,1228
    80009868:	00a59593          	slli	a1,a1,0xa
    8000986c:	33258593          	addi	a1,a1,818
    80009870:	40b50633          	sub	a2,a0,a1
    80009874:	70c0b823          	sd	a2,1808(ra)
    80009878:	01111137          	lui	sp,0x1111
    8000987c:	1111011b          	addiw	sp,sp,273 # 1111111 <offset+0x1110d19>
    80009880:	00c11113          	slli	sp,sp,0xc
    80009884:	11110113          	addi	sp,sp,273
    80009888:	00c11113          	slli	sp,sp,0xc
    8000988c:	11110113          	addi	sp,sp,273
    80009890:	00d11113          	slli	sp,sp,0xd
    80009894:	22410113          	addi	sp,sp,548
    80009898:	00c10463          	beq	sp,a2,800098a0 <inst_514>
    8000989c:	f88f606f          	j	80000024 <rvtest_error>

00000000800098a0 <inst_514>:
    800098a0:	55555537          	lui	a0,0x55555
    800098a4:	55550513          	addi	a0,a0,1365 # 55555555 <absimmsh+0x49a847a8>
    800098a8:	00b51513          	slli	a0,a0,0xb
    800098ac:	2aa50513          	addi	a0,a0,682
    800098b0:	00b51513          	slli	a0,a0,0xb
    800098b4:	55550513          	addi	a0,a0,1365
    800098b8:	00a51513          	slli	a0,a0,0xa
    800098bc:	15650513          	addi	a0,a0,342
    800098c0:	666665b7          	lui	a1,0x66666
    800098c4:	66658593          	addi	a1,a1,1638 # 66666666 <absimmsh+0x5ab958b9>
    800098c8:	00b59593          	slli	a1,a1,0xb
    800098cc:	33358593          	addi	a1,a1,819
    800098d0:	00b59593          	slli	a1,a1,0xb
    800098d4:	19958593          	addi	a1,a1,409
    800098d8:	00a59593          	slli	a1,a1,0xa
    800098dc:	26558593          	addi	a1,a1,613
    800098e0:	40b50633          	sub	a2,a0,a1
    800098e4:	70c0bc23          	sd	a2,1816(ra)
    800098e8:	feeef137          	lui	sp,0xfeeef
    800098ec:	eef1011b          	addiw	sp,sp,-273 # fffffffffeeeeeef <absimm+0xffffffff441e141f>
    800098f0:	00c11113          	slli	sp,sp,0xc
    800098f4:	eef10113          	addi	sp,sp,-273
    800098f8:	00c11113          	slli	sp,sp,0xc
    800098fc:	eef10113          	addi	sp,sp,-273
    80009900:	00c11113          	slli	sp,sp,0xc
    80009904:	ef110113          	addi	sp,sp,-271
    80009908:	00c10463          	beq	sp,a2,80009910 <inst_515>
    8000990c:	f18f606f          	j	80000024 <rvtest_error>

0000000080009910 <inst_515>:
    80009910:	55555537          	lui	a0,0x55555
    80009914:	55550513          	addi	a0,a0,1365 # 55555555 <absimmsh+0x49a847a8>
    80009918:	00b51513          	slli	a0,a0,0xb
    8000991c:	2aa50513          	addi	a0,a0,682
    80009920:	00b51513          	slli	a0,a0,0xb
    80009924:	55550513          	addi	a0,a0,1365
    80009928:	00a51513          	slli	a0,a0,0xa
    8000992c:	15650513          	addi	a0,a0,342
    80009930:	000005b7          	lui	a1,0x0
    80009934:	00058593          	mv	a1,a1
    80009938:	00b59593          	slli	a1,a1,0xb
    8000993c:	5a858593          	addi	a1,a1,1448 # 5a8 <offset+0x1b0>
    80009940:	00b59593          	slli	a1,a1,0xb
    80009944:	13c58593          	addi	a1,a1,316
    80009948:	00a59593          	slli	a1,a1,0xa
    8000994c:	33258593          	addi	a1,a1,818
    80009950:	40b50633          	sub	a2,a0,a1
    80009954:	72c0b023          	sd	a2,1824(ra)
    80009958:	002ab137          	lui	sp,0x2ab
    8000995c:	aab1011b          	addiw	sp,sp,-1365 # 2aaaab <offset+0x2aa6b3>
    80009960:	00c11113          	slli	sp,sp,0xc
    80009964:	aa510113          	addi	sp,sp,-1371
    80009968:	01011113          	slli	sp,sp,0x10
    8000996c:	28310113          	addi	sp,sp,643
    80009970:	00d11113          	slli	sp,sp,0xd
    80009974:	22410113          	addi	sp,sp,548
    80009978:	00c10463          	beq	sp,a2,80009980 <inst_516>
    8000997c:	ea8f606f          	j	80000024 <rvtest_error>

0000000080009980 <inst_516>:
    80009980:	55555537          	lui	a0,0x55555
    80009984:	55550513          	addi	a0,a0,1365 # 55555555 <absimmsh+0x49a847a8>
    80009988:	00b51513          	slli	a0,a0,0xb
    8000998c:	2aa50513          	addi	a0,a0,682
    80009990:	00b51513          	slli	a0,a0,0xb
    80009994:	55550513          	addi	a0,a0,1365
    80009998:	00a51513          	slli	a0,a0,0xa
    8000999c:	15650513          	addi	a0,a0,342
    800099a0:	555555b7          	lui	a1,0x55555
    800099a4:	55558593          	addi	a1,a1,1365 # 55555555 <absimmsh+0x49a847a8>
    800099a8:	00b59593          	slli	a1,a1,0xb
    800099ac:	2aa58593          	addi	a1,a1,682
    800099b0:	00b59593          	slli	a1,a1,0xb
    800099b4:	55558593          	addi	a1,a1,1365
    800099b8:	00a59593          	slli	a1,a1,0xa
    800099bc:	15658593          	addi	a1,a1,342
    800099c0:	40b50633          	sub	a2,a0,a1
    800099c4:	72c0b423          	sd	a2,1832(ra)
    800099c8:	00000113          	li	sp,0
    800099cc:	00c10463          	beq	sp,a2,800099d4 <inst_517>
    800099d0:	e54f606f          	j	80000024 <rvtest_error>

00000000800099d4 <inst_517>:
    800099d4:	55555537          	lui	a0,0x55555
    800099d8:	55550513          	addi	a0,a0,1365 # 55555555 <absimmsh+0x49a847a8>
    800099dc:	00b51513          	slli	a0,a0,0xb
    800099e0:	2aa50513          	addi	a0,a0,682
    800099e4:	00b51513          	slli	a0,a0,0xb
    800099e8:	55550513          	addi	a0,a0,1365
    800099ec:	00a51513          	slli	a0,a0,0xa
    800099f0:	15650513          	addi	a0,a0,342
    800099f4:	aaaab5b7          	lui	a1,0xaaaab
    800099f8:	aaa58593          	addi	a1,a1,-1366 # ffffffffaaaaaaaa <absimm+0xfffffffeefd9cfda>
    800099fc:	00b59593          	slli	a1,a1,0xb
    80009a00:	55558593          	addi	a1,a1,1365
    80009a04:	00b59593          	slli	a1,a1,0xb
    80009a08:	2aa58593          	addi	a1,a1,682
    80009a0c:	00a59593          	slli	a1,a1,0xa
    80009a10:	2ab58593          	addi	a1,a1,683
    80009a14:	40b50633          	sub	a2,a0,a1
    80009a18:	72c0b823          	sd	a2,1840(ra)
    80009a1c:	faaab137          	lui	sp,0xfaaab
    80009a20:	aab1011b          	addiw	sp,sp,-1365 # fffffffffaaaaaab <absimm+0xffffffff3fd9cfdb>
    80009a24:	00c11113          	slli	sp,sp,0xc
    80009a28:	aab10113          	addi	sp,sp,-1365
    80009a2c:	00c11113          	slli	sp,sp,0xc
    80009a30:	aab10113          	addi	sp,sp,-1365
    80009a34:	00c11113          	slli	sp,sp,0xc
    80009a38:	aab10113          	addi	sp,sp,-1365
    80009a3c:	00c10463          	beq	sp,a2,80009a44 <inst_518>
    80009a40:	de4f606f          	j	80000024 <rvtest_error>

0000000080009a44 <inst_518>:
    80009a44:	55555537          	lui	a0,0x55555
    80009a48:	55550513          	addi	a0,a0,1365 # 55555555 <absimmsh+0x49a847a8>
    80009a4c:	00b51513          	slli	a0,a0,0xb
    80009a50:	2aa50513          	addi	a0,a0,682
    80009a54:	00b51513          	slli	a0,a0,0xb
    80009a58:	55550513          	addi	a0,a0,1365
    80009a5c:	00a51513          	slli	a0,a0,0xa
    80009a60:	15650513          	addi	a0,a0,342
    80009a64:	00600593          	li	a1,6
    80009a68:	40b50633          	sub	a2,a0,a1
    80009a6c:	72c0bc23          	sd	a2,1848(ra)
    80009a70:	05555137          	lui	sp,0x5555
    80009a74:	5551011b          	addiw	sp,sp,1365 # 5555555 <offset+0x555515d>
    80009a78:	00c11113          	slli	sp,sp,0xc
    80009a7c:	55510113          	addi	sp,sp,1365
    80009a80:	00c11113          	slli	sp,sp,0xc
    80009a84:	55510113          	addi	sp,sp,1365
    80009a88:	00c11113          	slli	sp,sp,0xc
    80009a8c:	55010113          	addi	sp,sp,1360
    80009a90:	00c10463          	beq	sp,a2,80009a98 <inst_519>
    80009a94:	d90f606f          	j	80000024 <rvtest_error>

0000000080009a98 <inst_519>:
    80009a98:	55555537          	lui	a0,0x55555
    80009a9c:	55550513          	addi	a0,a0,1365 # 55555555 <absimmsh+0x49a847a8>
    80009aa0:	00b51513          	slli	a0,a0,0xb
    80009aa4:	2aa50513          	addi	a0,a0,682
    80009aa8:	00b51513          	slli	a0,a0,0xb
    80009aac:	55550513          	addi	a0,a0,1365
    80009ab0:	00a51513          	slli	a0,a0,0xa
    80009ab4:	15650513          	addi	a0,a0,342
    80009ab8:	333335b7          	lui	a1,0x33333
    80009abc:	33358593          	addi	a1,a1,819 # 33333333 <absimmsh+0x27862586>
    80009ac0:	00b59593          	slli	a1,a1,0xb
    80009ac4:	19958593          	addi	a1,a1,409
    80009ac8:	00b59593          	slli	a1,a1,0xb
    80009acc:	4cc58593          	addi	a1,a1,1228
    80009ad0:	00a59593          	slli	a1,a1,0xa
    80009ad4:	33458593          	addi	a1,a1,820
    80009ad8:	40b50633          	sub	a2,a0,a1
    80009adc:	74c0b023          	sd	a2,1856(ra)
    80009ae0:	01111137          	lui	sp,0x1111
    80009ae4:	1111011b          	addiw	sp,sp,273 # 1111111 <offset+0x1110d19>
    80009ae8:	00c11113          	slli	sp,sp,0xc
    80009aec:	11110113          	addi	sp,sp,273
    80009af0:	00c11113          	slli	sp,sp,0xc
    80009af4:	11110113          	addi	sp,sp,273
    80009af8:	00d11113          	slli	sp,sp,0xd
    80009afc:	22210113          	addi	sp,sp,546
    80009b00:	00c10463          	beq	sp,a2,80009b08 <inst_520>
    80009b04:	d20f606f          	j	80000024 <rvtest_error>

0000000080009b08 <inst_520>:
    80009b08:	55555537          	lui	a0,0x55555
    80009b0c:	55550513          	addi	a0,a0,1365 # 55555555 <absimmsh+0x49a847a8>
    80009b10:	00b51513          	slli	a0,a0,0xb
    80009b14:	2aa50513          	addi	a0,a0,682
    80009b18:	00b51513          	slli	a0,a0,0xb
    80009b1c:	55550513          	addi	a0,a0,1365
    80009b20:	00a51513          	slli	a0,a0,0xa
    80009b24:	15650513          	addi	a0,a0,342
    80009b28:	666665b7          	lui	a1,0x66666
    80009b2c:	66658593          	addi	a1,a1,1638 # 66666666 <absimmsh+0x5ab958b9>
    80009b30:	00b59593          	slli	a1,a1,0xb
    80009b34:	33358593          	addi	a1,a1,819
    80009b38:	00b59593          	slli	a1,a1,0xb
    80009b3c:	19958593          	addi	a1,a1,409
    80009b40:	00a59593          	slli	a1,a1,0xa
    80009b44:	26758593          	addi	a1,a1,615
    80009b48:	40b50633          	sub	a2,a0,a1
    80009b4c:	74c0b423          	sd	a2,1864(ra)
    80009b50:	feeef137          	lui	sp,0xfeeef
    80009b54:	eef1011b          	addiw	sp,sp,-273 # fffffffffeeeeeef <absimm+0xffffffff441e141f>
    80009b58:	00c11113          	slli	sp,sp,0xc
    80009b5c:	eef10113          	addi	sp,sp,-273
    80009b60:	00c11113          	slli	sp,sp,0xc
    80009b64:	eef10113          	addi	sp,sp,-273
    80009b68:	00c11113          	slli	sp,sp,0xc
    80009b6c:	eef10113          	addi	sp,sp,-273
    80009b70:	00c10463          	beq	sp,a2,80009b78 <inst_521>
    80009b74:	cb0f606f          	j	80000024 <rvtest_error>

0000000080009b78 <inst_521>:
    80009b78:	55555537          	lui	a0,0x55555
    80009b7c:	55550513          	addi	a0,a0,1365 # 55555555 <absimmsh+0x49a847a8>
    80009b80:	00b51513          	slli	a0,a0,0xb
    80009b84:	2aa50513          	addi	a0,a0,682
    80009b88:	00b51513          	slli	a0,a0,0xb
    80009b8c:	55550513          	addi	a0,a0,1365
    80009b90:	00a51513          	slli	a0,a0,0xa
    80009b94:	15650513          	addi	a0,a0,342
    80009b98:	000005b7          	lui	a1,0x0
    80009b9c:	fff58593          	addi	a1,a1,-1
    80009ba0:	00b59593          	slli	a1,a1,0xb
    80009ba4:	25758593          	addi	a1,a1,599
    80009ba8:	00b59593          	slli	a1,a1,0xb
    80009bac:	6c358593          	addi	a1,a1,1731
    80009bb0:	00a59593          	slli	a1,a1,0xa
    80009bb4:	0ce58593          	addi	a1,a1,206
    80009bb8:	40b50633          	sub	a2,a0,a1
    80009bbc:	74c0b823          	sd	a2,1872(ra)
    80009bc0:	02aab137          	lui	sp,0x2aab
    80009bc4:	aab1011b          	addiw	sp,sp,-1365 # 2aaaaab <offset+0x2aaa6b3>
    80009bc8:	00c11113          	slli	sp,sp,0xc
    80009bcc:	b0510113          	addi	sp,sp,-1275
    80009bd0:	00d11113          	slli	sp,sp,0xd
    80009bd4:	5a510113          	addi	sp,sp,1445
    80009bd8:	00c11113          	slli	sp,sp,0xc
    80009bdc:	88810113          	addi	sp,sp,-1912
    80009be0:	00c10463          	beq	sp,a2,80009be8 <inst_522>
    80009be4:	c40f606f          	j	80000024 <rvtest_error>

0000000080009be8 <inst_522>:
    80009be8:	55555537          	lui	a0,0x55555
    80009bec:	55550513          	addi	a0,a0,1365 # 55555555 <absimmsh+0x49a847a8>
    80009bf0:	00b51513          	slli	a0,a0,0xb
    80009bf4:	2aa50513          	addi	a0,a0,682
    80009bf8:	00b51513          	slli	a0,a0,0xb
    80009bfc:	55550513          	addi	a0,a0,1365
    80009c00:	00a51513          	slli	a0,a0,0xa
    80009c04:	15650513          	addi	a0,a0,342
    80009c08:	000005b7          	lui	a1,0x0
    80009c0c:	00058593          	mv	a1,a1
    80009c10:	00b59593          	slli	a1,a1,0xb
    80009c14:	5a858593          	addi	a1,a1,1448 # 5a8 <offset+0x1b0>
    80009c18:	00b59593          	slli	a1,a1,0xb
    80009c1c:	13c58593          	addi	a1,a1,316
    80009c20:	00a59593          	slli	a1,a1,0xa
    80009c24:	33458593          	addi	a1,a1,820
    80009c28:	40b50633          	sub	a2,a0,a1
    80009c2c:	74c0bc23          	sd	a2,1880(ra)
    80009c30:	002ab137          	lui	sp,0x2ab
    80009c34:	aab1011b          	addiw	sp,sp,-1365 # 2aaaab <offset+0x2aa6b3>
    80009c38:	00c11113          	slli	sp,sp,0xc
    80009c3c:	aa510113          	addi	sp,sp,-1371
    80009c40:	01011113          	slli	sp,sp,0x10
    80009c44:	28310113          	addi	sp,sp,643
    80009c48:	00d11113          	slli	sp,sp,0xd
    80009c4c:	22210113          	addi	sp,sp,546
    80009c50:	00c10463          	beq	sp,a2,80009c58 <inst_523>
    80009c54:	bd0f606f          	j	80000024 <rvtest_error>

0000000080009c58 <inst_523>:
    80009c58:	aaaab537          	lui	a0,0xaaaab
    80009c5c:	aaa50513          	addi	a0,a0,-1366 # ffffffffaaaaaaaa <absimm+0xfffffffeefd9cfda>
    80009c60:	00b51513          	slli	a0,a0,0xb
    80009c64:	55550513          	addi	a0,a0,1365
    80009c68:	00b51513          	slli	a0,a0,0xb
    80009c6c:	2aa50513          	addi	a0,a0,682
    80009c70:	00a51513          	slli	a0,a0,0xa
    80009c74:	2ab50513          	addi	a0,a0,683
    80009c78:	00300593          	li	a1,3
    80009c7c:	40b50633          	sub	a2,a0,a1
    80009c80:	76c0b023          	sd	a2,1888(ra)
    80009c84:	faaab137          	lui	sp,0xfaaab
    80009c88:	aab1011b          	addiw	sp,sp,-1365 # fffffffffaaaaaab <absimm+0xffffffff3fd9cfdb>
    80009c8c:	00c11113          	slli	sp,sp,0xc
    80009c90:	aab10113          	addi	sp,sp,-1365
    80009c94:	00c11113          	slli	sp,sp,0xc
    80009c98:	aab10113          	addi	sp,sp,-1365
    80009c9c:	00c11113          	slli	sp,sp,0xc
    80009ca0:	aa810113          	addi	sp,sp,-1368
    80009ca4:	00c10463          	beq	sp,a2,80009cac <inst_524>
    80009ca8:	b7cf606f          	j	80000024 <rvtest_error>

0000000080009cac <inst_524>:
    80009cac:	aaaab537          	lui	a0,0xaaaab
    80009cb0:	aaa50513          	addi	a0,a0,-1366 # ffffffffaaaaaaaa <absimm+0xfffffffeefd9cfda>
    80009cb4:	00b51513          	slli	a0,a0,0xb
    80009cb8:	55550513          	addi	a0,a0,1365
    80009cbc:	00b51513          	slli	a0,a0,0xb
    80009cc0:	2aa50513          	addi	a0,a0,682
    80009cc4:	00a51513          	slli	a0,a0,0xa
    80009cc8:	2ab50513          	addi	a0,a0,683
    80009ccc:	555555b7          	lui	a1,0x55555
    80009cd0:	55558593          	addi	a1,a1,1365 # 55555555 <absimmsh+0x49a847a8>
    80009cd4:	00b59593          	slli	a1,a1,0xb
    80009cd8:	2aa58593          	addi	a1,a1,682
    80009cdc:	00b59593          	slli	a1,a1,0xb
    80009ce0:	55558593          	addi	a1,a1,1365
    80009ce4:	00a59593          	slli	a1,a1,0xa
    80009ce8:	15558593          	addi	a1,a1,341
    80009cec:	40b50633          	sub	a2,a0,a1
    80009cf0:	76c0b423          	sd	a2,1896(ra)
    80009cf4:	05555137          	lui	sp,0x5555
    80009cf8:	5551011b          	addiw	sp,sp,1365 # 5555555 <offset+0x555515d>
    80009cfc:	00c11113          	slli	sp,sp,0xc
    80009d00:	55510113          	addi	sp,sp,1365
    80009d04:	00c11113          	slli	sp,sp,0xc
    80009d08:	55510113          	addi	sp,sp,1365
    80009d0c:	00c11113          	slli	sp,sp,0xc
    80009d10:	55610113          	addi	sp,sp,1366
    80009d14:	00c10463          	beq	sp,a2,80009d1c <inst_525>
    80009d18:	b0cf606f          	j	80000024 <rvtest_error>

0000000080009d1c <inst_525>:
    80009d1c:	aaaab537          	lui	a0,0xaaaab
    80009d20:	aaa50513          	addi	a0,a0,-1366 # ffffffffaaaaaaaa <absimm+0xfffffffeefd9cfda>
    80009d24:	00b51513          	slli	a0,a0,0xb
    80009d28:	55550513          	addi	a0,a0,1365
    80009d2c:	00b51513          	slli	a0,a0,0xb
    80009d30:	2aa50513          	addi	a0,a0,682
    80009d34:	00a51513          	slli	a0,a0,0xa
    80009d38:	2ab50513          	addi	a0,a0,683
    80009d3c:	aaaab5b7          	lui	a1,0xaaaab
    80009d40:	aaa58593          	addi	a1,a1,-1366 # ffffffffaaaaaaaa <absimm+0xfffffffeefd9cfda>
    80009d44:	00b59593          	slli	a1,a1,0xb
    80009d48:	55558593          	addi	a1,a1,1365
    80009d4c:	00b59593          	slli	a1,a1,0xb
    80009d50:	2aa58593          	addi	a1,a1,682
    80009d54:	00a59593          	slli	a1,a1,0xa
    80009d58:	2aa58593          	addi	a1,a1,682
    80009d5c:	40b50633          	sub	a2,a0,a1
    80009d60:	76c0b823          	sd	a2,1904(ra)
    80009d64:	00100113          	li	sp,1
    80009d68:	00c10463          	beq	sp,a2,80009d70 <inst_526>
    80009d6c:	ab8f606f          	j	80000024 <rvtest_error>

0000000080009d70 <inst_526>:
    80009d70:	aaaab537          	lui	a0,0xaaaab
    80009d74:	aaa50513          	addi	a0,a0,-1366 # ffffffffaaaaaaaa <absimm+0xfffffffeefd9cfda>
    80009d78:	00b51513          	slli	a0,a0,0xb
    80009d7c:	55550513          	addi	a0,a0,1365
    80009d80:	00b51513          	slli	a0,a0,0xb
    80009d84:	2aa50513          	addi	a0,a0,682
    80009d88:	00a51513          	slli	a0,a0,0xa
    80009d8c:	2ab50513          	addi	a0,a0,683
    80009d90:	00500593          	li	a1,5
    80009d94:	40b50633          	sub	a2,a0,a1
    80009d98:	76c0bc23          	sd	a2,1912(ra)
    80009d9c:	faaab137          	lui	sp,0xfaaab
    80009da0:	aab1011b          	addiw	sp,sp,-1365 # fffffffffaaaaaab <absimm+0xffffffff3fd9cfdb>
    80009da4:	00c11113          	slli	sp,sp,0xc
    80009da8:	aab10113          	addi	sp,sp,-1365
    80009dac:	00c11113          	slli	sp,sp,0xc
    80009db0:	aab10113          	addi	sp,sp,-1365
    80009db4:	00c11113          	slli	sp,sp,0xc
    80009db8:	aa610113          	addi	sp,sp,-1370
    80009dbc:	00c10463          	beq	sp,a2,80009dc4 <inst_527>
    80009dc0:	a64f606f          	j	80000024 <rvtest_error>

0000000080009dc4 <inst_527>:
    80009dc4:	aaaab537          	lui	a0,0xaaaab
    80009dc8:	aaa50513          	addi	a0,a0,-1366 # ffffffffaaaaaaaa <absimm+0xfffffffeefd9cfda>
    80009dcc:	00b51513          	slli	a0,a0,0xb
    80009dd0:	55550513          	addi	a0,a0,1365
    80009dd4:	00b51513          	slli	a0,a0,0xb
    80009dd8:	2aa50513          	addi	a0,a0,682
    80009ddc:	00a51513          	slli	a0,a0,0xa
    80009de0:	2ab50513          	addi	a0,a0,683
    80009de4:	333335b7          	lui	a1,0x33333
    80009de8:	33358593          	addi	a1,a1,819 # 33333333 <absimmsh+0x27862586>
    80009dec:	00b59593          	slli	a1,a1,0xb
    80009df0:	19958593          	addi	a1,a1,409
    80009df4:	00b59593          	slli	a1,a1,0xb
    80009df8:	4cc58593          	addi	a1,a1,1228
    80009dfc:	00a59593          	slli	a1,a1,0xa
    80009e00:	33358593          	addi	a1,a1,819
    80009e04:	40b50633          	sub	a2,a0,a1
    80009e08:	78c0b023          	sd	a2,1920(ra)
    80009e0c:	07777137          	lui	sp,0x7777
    80009e10:	7771011b          	addiw	sp,sp,1911 # 7777777 <offset+0x777737f>
    80009e14:	00c11113          	slli	sp,sp,0xc
    80009e18:	77710113          	addi	sp,sp,1911
    80009e1c:	00c11113          	slli	sp,sp,0xc
    80009e20:	77710113          	addi	sp,sp,1911
    80009e24:	00c11113          	slli	sp,sp,0xc
    80009e28:	77810113          	addi	sp,sp,1912
    80009e2c:	00c10463          	beq	sp,a2,80009e34 <inst_528>
    80009e30:	9f4f606f          	j	80000024 <rvtest_error>

0000000080009e34 <inst_528>:
    80009e34:	aaaab537          	lui	a0,0xaaaab
    80009e38:	aaa50513          	addi	a0,a0,-1366 # ffffffffaaaaaaaa <absimm+0xfffffffeefd9cfda>
    80009e3c:	00b51513          	slli	a0,a0,0xb
    80009e40:	55550513          	addi	a0,a0,1365
    80009e44:	00b51513          	slli	a0,a0,0xb
    80009e48:	2aa50513          	addi	a0,a0,682
    80009e4c:	00a51513          	slli	a0,a0,0xa
    80009e50:	2ab50513          	addi	a0,a0,683
    80009e54:	666665b7          	lui	a1,0x66666
    80009e58:	66658593          	addi	a1,a1,1638 # 66666666 <absimmsh+0x5ab958b9>
    80009e5c:	00b59593          	slli	a1,a1,0xb
    80009e60:	33358593          	addi	a1,a1,819
    80009e64:	00b59593          	slli	a1,a1,0xb
    80009e68:	19958593          	addi	a1,a1,409
    80009e6c:	00a59593          	slli	a1,a1,0xa
    80009e70:	26658593          	addi	a1,a1,614
    80009e74:	40b50633          	sub	a2,a0,a1
    80009e78:	78c0b423          	sd	a2,1928(ra)
    80009e7c:	01111137          	lui	sp,0x1111
    80009e80:	1111011b          	addiw	sp,sp,273 # 1111111 <offset+0x1110d19>
    80009e84:	00c11113          	slli	sp,sp,0xc
    80009e88:	11110113          	addi	sp,sp,273
    80009e8c:	00c11113          	slli	sp,sp,0xc
    80009e90:	11110113          	addi	sp,sp,273
    80009e94:	00e11113          	slli	sp,sp,0xe
    80009e98:	44510113          	addi	sp,sp,1093
    80009e9c:	00c10463          	beq	sp,a2,80009ea4 <inst_529>
    80009ea0:	984f606f          	j	80000024 <rvtest_error>

0000000080009ea4 <inst_529>:
    80009ea4:	aaaab537          	lui	a0,0xaaaab
    80009ea8:	aaa50513          	addi	a0,a0,-1366 # ffffffffaaaaaaaa <absimm+0xfffffffeefd9cfda>
    80009eac:	00b51513          	slli	a0,a0,0xb
    80009eb0:	55550513          	addi	a0,a0,1365
    80009eb4:	00b51513          	slli	a0,a0,0xb
    80009eb8:	2aa50513          	addi	a0,a0,682
    80009ebc:	00a51513          	slli	a0,a0,0xa
    80009ec0:	2ab50513          	addi	a0,a0,683
    80009ec4:	000005b7          	lui	a1,0x0
    80009ec8:	fff58593          	addi	a1,a1,-1
    80009ecc:	00b59593          	slli	a1,a1,0xb
    80009ed0:	25758593          	addi	a1,a1,599
    80009ed4:	00b59593          	slli	a1,a1,0xb
    80009ed8:	6c358593          	addi	a1,a1,1731
    80009edc:	00a59593          	slli	a1,a1,0xa
    80009ee0:	0cd58593          	addi	a1,a1,205
    80009ee4:	40b50633          	sub	a2,a0,a1
    80009ee8:	78c0b823          	sd	a2,1936(ra)
    80009eec:	ffd55137          	lui	sp,0xffd55
    80009ef0:	5551011b          	addiw	sp,sp,1365 # ffffffffffd55555 <absimm+0xffffffff45047a85>
    80009ef4:	00c11113          	slli	sp,sp,0xc
    80009ef8:	55b10113          	addi	sp,sp,1371
    80009efc:	01011113          	slli	sp,sp,0x10
    80009f00:	d7d10113          	addi	sp,sp,-643
    80009f04:	00d11113          	slli	sp,sp,0xd
    80009f08:	dde10113          	addi	sp,sp,-546
    80009f0c:	00c10463          	beq	sp,a2,80009f14 <inst_530>
    80009f10:	914f606f          	j	80000024 <rvtest_error>

0000000080009f14 <inst_530>:
    80009f14:	aaaab537          	lui	a0,0xaaaab
    80009f18:	aaa50513          	addi	a0,a0,-1366 # ffffffffaaaaaaaa <absimm+0xfffffffeefd9cfda>
    80009f1c:	00b51513          	slli	a0,a0,0xb
    80009f20:	55550513          	addi	a0,a0,1365
    80009f24:	00b51513          	slli	a0,a0,0xb
    80009f28:	2aa50513          	addi	a0,a0,682
    80009f2c:	00a51513          	slli	a0,a0,0xa
    80009f30:	2ab50513          	addi	a0,a0,683
    80009f34:	000005b7          	lui	a1,0x0
    80009f38:	00058593          	mv	a1,a1
    80009f3c:	00b59593          	slli	a1,a1,0xb
    80009f40:	5a858593          	addi	a1,a1,1448 # 5a8 <offset+0x1b0>
    80009f44:	00b59593          	slli	a1,a1,0xb
    80009f48:	13c58593          	addi	a1,a1,316
    80009f4c:	00a59593          	slli	a1,a1,0xa
    80009f50:	33358593          	addi	a1,a1,819
    80009f54:	40b50633          	sub	a2,a0,a1
    80009f58:	78c0bc23          	sd	a2,1944(ra)
    80009f5c:	fd555137          	lui	sp,0xfd555
    80009f60:	5551011b          	addiw	sp,sp,1365 # fffffffffd555555 <absimm+0xffffffff42847a85>
    80009f64:	00c11113          	slli	sp,sp,0xc
    80009f68:	4fb10113          	addi	sp,sp,1275
    80009f6c:	00d11113          	slli	sp,sp,0xd
    80009f70:	a5b10113          	addi	sp,sp,-1445
    80009f74:	00c11113          	slli	sp,sp,0xc
    80009f78:	77810113          	addi	sp,sp,1912
    80009f7c:	00c10463          	beq	sp,a2,80009f84 <inst_531>
    80009f80:	8a4f606f          	j	80000024 <rvtest_error>

0000000080009f84 <inst_531>:
    80009f84:	aaaab537          	lui	a0,0xaaaab
    80009f88:	aaa50513          	addi	a0,a0,-1366 # ffffffffaaaaaaaa <absimm+0xfffffffeefd9cfda>
    80009f8c:	00b51513          	slli	a0,a0,0xb
    80009f90:	55550513          	addi	a0,a0,1365
    80009f94:	00b51513          	slli	a0,a0,0xb
    80009f98:	2aa50513          	addi	a0,a0,682
    80009f9c:	00a51513          	slli	a0,a0,0xa
    80009fa0:	2ab50513          	addi	a0,a0,683
    80009fa4:	00200593          	li	a1,2
    80009fa8:	40b50633          	sub	a2,a0,a1
    80009fac:	7ac0b023          	sd	a2,1952(ra)
    80009fb0:	faaab137          	lui	sp,0xfaaab
    80009fb4:	aab1011b          	addiw	sp,sp,-1365 # fffffffffaaaaaab <absimm+0xffffffff3fd9cfdb>
    80009fb8:	00c11113          	slli	sp,sp,0xc
    80009fbc:	aab10113          	addi	sp,sp,-1365
    80009fc0:	00c11113          	slli	sp,sp,0xc
    80009fc4:	aab10113          	addi	sp,sp,-1365
    80009fc8:	00c11113          	slli	sp,sp,0xc
    80009fcc:	aa910113          	addi	sp,sp,-1367
    80009fd0:	00c10463          	beq	sp,a2,80009fd8 <inst_532>
    80009fd4:	850f606f          	j	80000024 <rvtest_error>

0000000080009fd8 <inst_532>:
    80009fd8:	aaaab537          	lui	a0,0xaaaab
    80009fdc:	aaa50513          	addi	a0,a0,-1366 # ffffffffaaaaaaaa <absimm+0xfffffffeefd9cfda>
    80009fe0:	00b51513          	slli	a0,a0,0xb
    80009fe4:	55550513          	addi	a0,a0,1365
    80009fe8:	00b51513          	slli	a0,a0,0xb
    80009fec:	2aa50513          	addi	a0,a0,682
    80009ff0:	00a51513          	slli	a0,a0,0xa
    80009ff4:	2ab50513          	addi	a0,a0,683
    80009ff8:	555555b7          	lui	a1,0x55555
    80009ffc:	55558593          	addi	a1,a1,1365 # 55555555 <absimmsh+0x49a847a8>
    8000a000:	00b59593          	slli	a1,a1,0xb
    8000a004:	2aa58593          	addi	a1,a1,682
    8000a008:	00b59593          	slli	a1,a1,0xb
    8000a00c:	55558593          	addi	a1,a1,1365
    8000a010:	00a59593          	slli	a1,a1,0xa
    8000a014:	15458593          	addi	a1,a1,340
    8000a018:	40b50633          	sub	a2,a0,a1
    8000a01c:	7ac0b423          	sd	a2,1960(ra)
    8000a020:	05555137          	lui	sp,0x5555
    8000a024:	5551011b          	addiw	sp,sp,1365 # 5555555 <offset+0x555515d>
    8000a028:	00c11113          	slli	sp,sp,0xc
    8000a02c:	55510113          	addi	sp,sp,1365
    8000a030:	00c11113          	slli	sp,sp,0xc
    8000a034:	55510113          	addi	sp,sp,1365
    8000a038:	00c11113          	slli	sp,sp,0xc
    8000a03c:	55710113          	addi	sp,sp,1367
    8000a040:	00c10463          	beq	sp,a2,8000a048 <inst_533>
    8000a044:	fe1f506f          	j	80000024 <rvtest_error>

000000008000a048 <inst_533>:
    8000a048:	aaaab537          	lui	a0,0xaaaab
    8000a04c:	aaa50513          	addi	a0,a0,-1366 # ffffffffaaaaaaaa <absimm+0xfffffffeefd9cfda>
    8000a050:	00b51513          	slli	a0,a0,0xb
    8000a054:	55550513          	addi	a0,a0,1365
    8000a058:	00b51513          	slli	a0,a0,0xb
    8000a05c:	2aa50513          	addi	a0,a0,682
    8000a060:	00a51513          	slli	a0,a0,0xa
    8000a064:	2ab50513          	addi	a0,a0,683
    8000a068:	00000593          	li	a1,0
    8000a06c:	40b50633          	sub	a2,a0,a1
    8000a070:	7ac0b823          	sd	a2,1968(ra)
    8000a074:	faaab137          	lui	sp,0xfaaab
    8000a078:	aab1011b          	addiw	sp,sp,-1365 # fffffffffaaaaaab <absimm+0xffffffff3fd9cfdb>
    8000a07c:	00c11113          	slli	sp,sp,0xc
    8000a080:	aab10113          	addi	sp,sp,-1365
    8000a084:	00c11113          	slli	sp,sp,0xc
    8000a088:	aab10113          	addi	sp,sp,-1365
    8000a08c:	00c11113          	slli	sp,sp,0xc
    8000a090:	aab10113          	addi	sp,sp,-1365
    8000a094:	00c10463          	beq	sp,a2,8000a09c <inst_534>
    8000a098:	f8df506f          	j	80000024 <rvtest_error>

000000008000a09c <inst_534>:
    8000a09c:	aaaab537          	lui	a0,0xaaaab
    8000a0a0:	aaa50513          	addi	a0,a0,-1366 # ffffffffaaaaaaaa <absimm+0xfffffffeefd9cfda>
    8000a0a4:	00b51513          	slli	a0,a0,0xb
    8000a0a8:	55550513          	addi	a0,a0,1365
    8000a0ac:	00b51513          	slli	a0,a0,0xb
    8000a0b0:	2aa50513          	addi	a0,a0,682
    8000a0b4:	00a51513          	slli	a0,a0,0xa
    8000a0b8:	2ab50513          	addi	a0,a0,683
    8000a0bc:	00400593          	li	a1,4
    8000a0c0:	40b50633          	sub	a2,a0,a1
    8000a0c4:	7ac0bc23          	sd	a2,1976(ra)
    8000a0c8:	faaab137          	lui	sp,0xfaaab
    8000a0cc:	aab1011b          	addiw	sp,sp,-1365 # fffffffffaaaaaab <absimm+0xffffffff3fd9cfdb>
    8000a0d0:	00c11113          	slli	sp,sp,0xc
    8000a0d4:	aab10113          	addi	sp,sp,-1365
    8000a0d8:	00c11113          	slli	sp,sp,0xc
    8000a0dc:	aab10113          	addi	sp,sp,-1365
    8000a0e0:	00c11113          	slli	sp,sp,0xc
    8000a0e4:	aa710113          	addi	sp,sp,-1369
    8000a0e8:	00c10463          	beq	sp,a2,8000a0f0 <inst_535>
    8000a0ec:	f39f506f          	j	80000024 <rvtest_error>

000000008000a0f0 <inst_535>:
    8000a0f0:	aaaab537          	lui	a0,0xaaaab
    8000a0f4:	aaa50513          	addi	a0,a0,-1366 # ffffffffaaaaaaaa <absimm+0xfffffffeefd9cfda>
    8000a0f8:	00b51513          	slli	a0,a0,0xb
    8000a0fc:	55550513          	addi	a0,a0,1365
    8000a100:	00b51513          	slli	a0,a0,0xb
    8000a104:	2aa50513          	addi	a0,a0,682
    8000a108:	00a51513          	slli	a0,a0,0xa
    8000a10c:	2ab50513          	addi	a0,a0,683
    8000a110:	333335b7          	lui	a1,0x33333
    8000a114:	33358593          	addi	a1,a1,819 # 33333333 <absimmsh+0x27862586>
    8000a118:	00b59593          	slli	a1,a1,0xb
    8000a11c:	19958593          	addi	a1,a1,409
    8000a120:	00b59593          	slli	a1,a1,0xb
    8000a124:	4cc58593          	addi	a1,a1,1228
    8000a128:	00a59593          	slli	a1,a1,0xa
    8000a12c:	33258593          	addi	a1,a1,818
    8000a130:	40b50633          	sub	a2,a0,a1
    8000a134:	7cc0b023          	sd	a2,1984(ra)
    8000a138:	07777137          	lui	sp,0x7777
    8000a13c:	7771011b          	addiw	sp,sp,1911 # 7777777 <offset+0x777737f>
    8000a140:	00c11113          	slli	sp,sp,0xc
    8000a144:	77710113          	addi	sp,sp,1911
    8000a148:	00c11113          	slli	sp,sp,0xc
    8000a14c:	77710113          	addi	sp,sp,1911
    8000a150:	00c11113          	slli	sp,sp,0xc
    8000a154:	77910113          	addi	sp,sp,1913
    8000a158:	00c10463          	beq	sp,a2,8000a160 <inst_536>
    8000a15c:	ec9f506f          	j	80000024 <rvtest_error>

000000008000a160 <inst_536>:
    8000a160:	aaaab537          	lui	a0,0xaaaab
    8000a164:	aaa50513          	addi	a0,a0,-1366 # ffffffffaaaaaaaa <absimm+0xfffffffeefd9cfda>
    8000a168:	00b51513          	slli	a0,a0,0xb
    8000a16c:	55550513          	addi	a0,a0,1365
    8000a170:	00b51513          	slli	a0,a0,0xb
    8000a174:	2aa50513          	addi	a0,a0,682
    8000a178:	00a51513          	slli	a0,a0,0xa
    8000a17c:	2ab50513          	addi	a0,a0,683
    8000a180:	666665b7          	lui	a1,0x66666
    8000a184:	66658593          	addi	a1,a1,1638 # 66666666 <absimmsh+0x5ab958b9>
    8000a188:	00b59593          	slli	a1,a1,0xb
    8000a18c:	33358593          	addi	a1,a1,819
    8000a190:	00b59593          	slli	a1,a1,0xb
    8000a194:	19958593          	addi	a1,a1,409
    8000a198:	00a59593          	slli	a1,a1,0xa
    8000a19c:	26558593          	addi	a1,a1,613
    8000a1a0:	40b50633          	sub	a2,a0,a1
    8000a1a4:	7cc0b423          	sd	a2,1992(ra)
    8000a1a8:	01111137          	lui	sp,0x1111
    8000a1ac:	1111011b          	addiw	sp,sp,273 # 1111111 <offset+0x1110d19>
    8000a1b0:	00c11113          	slli	sp,sp,0xc
    8000a1b4:	11110113          	addi	sp,sp,273
    8000a1b8:	00c11113          	slli	sp,sp,0xc
    8000a1bc:	11110113          	addi	sp,sp,273
    8000a1c0:	00e11113          	slli	sp,sp,0xe
    8000a1c4:	44610113          	addi	sp,sp,1094
    8000a1c8:	00c10463          	beq	sp,a2,8000a1d0 <inst_537>
    8000a1cc:	e59f506f          	j	80000024 <rvtest_error>

000000008000a1d0 <inst_537>:
    8000a1d0:	aaaab537          	lui	a0,0xaaaab
    8000a1d4:	aaa50513          	addi	a0,a0,-1366 # ffffffffaaaaaaaa <absimm+0xfffffffeefd9cfda>
    8000a1d8:	00b51513          	slli	a0,a0,0xb
    8000a1dc:	55550513          	addi	a0,a0,1365
    8000a1e0:	00b51513          	slli	a0,a0,0xb
    8000a1e4:	2aa50513          	addi	a0,a0,682
    8000a1e8:	00a51513          	slli	a0,a0,0xa
    8000a1ec:	2ab50513          	addi	a0,a0,683
    8000a1f0:	000005b7          	lui	a1,0x0
    8000a1f4:	00058593          	mv	a1,a1
    8000a1f8:	00b59593          	slli	a1,a1,0xb
    8000a1fc:	5a858593          	addi	a1,a1,1448 # 5a8 <offset+0x1b0>
    8000a200:	00b59593          	slli	a1,a1,0xb
    8000a204:	13c58593          	addi	a1,a1,316
    8000a208:	00a59593          	slli	a1,a1,0xa
    8000a20c:	33258593          	addi	a1,a1,818
    8000a210:	40b50633          	sub	a2,a0,a1
    8000a214:	7cc0b823          	sd	a2,2000(ra)
    8000a218:	fd555137          	lui	sp,0xfd555
    8000a21c:	5551011b          	addiw	sp,sp,1365 # fffffffffd555555 <absimm+0xffffffff42847a85>
    8000a220:	00c11113          	slli	sp,sp,0xc
    8000a224:	4fb10113          	addi	sp,sp,1275
    8000a228:	00d11113          	slli	sp,sp,0xd
    8000a22c:	a5b10113          	addi	sp,sp,-1445
    8000a230:	00c11113          	slli	sp,sp,0xc
    8000a234:	77910113          	addi	sp,sp,1913
    8000a238:	00c10463          	beq	sp,a2,8000a240 <inst_538>
    8000a23c:	de9f506f          	j	80000024 <rvtest_error>

000000008000a240 <inst_538>:
    8000a240:	aaaab537          	lui	a0,0xaaaab
    8000a244:	aaa50513          	addi	a0,a0,-1366 # ffffffffaaaaaaaa <absimm+0xfffffffeefd9cfda>
    8000a248:	00b51513          	slli	a0,a0,0xb
    8000a24c:	55550513          	addi	a0,a0,1365
    8000a250:	00b51513          	slli	a0,a0,0xb
    8000a254:	2aa50513          	addi	a0,a0,682
    8000a258:	00a51513          	slli	a0,a0,0xa
    8000a25c:	2ab50513          	addi	a0,a0,683
    8000a260:	555555b7          	lui	a1,0x55555
    8000a264:	55558593          	addi	a1,a1,1365 # 55555555 <absimmsh+0x49a847a8>
    8000a268:	00b59593          	slli	a1,a1,0xb
    8000a26c:	2aa58593          	addi	a1,a1,682
    8000a270:	00b59593          	slli	a1,a1,0xb
    8000a274:	55558593          	addi	a1,a1,1365
    8000a278:	00a59593          	slli	a1,a1,0xa
    8000a27c:	15658593          	addi	a1,a1,342
    8000a280:	40b50633          	sub	a2,a0,a1
    8000a284:	7cc0bc23          	sd	a2,2008(ra)
    8000a288:	05555137          	lui	sp,0x5555
    8000a28c:	5551011b          	addiw	sp,sp,1365 # 5555555 <offset+0x555515d>
    8000a290:	00c11113          	slli	sp,sp,0xc
    8000a294:	55510113          	addi	sp,sp,1365
    8000a298:	00c11113          	slli	sp,sp,0xc
    8000a29c:	55510113          	addi	sp,sp,1365
    8000a2a0:	00c11113          	slli	sp,sp,0xc
    8000a2a4:	55510113          	addi	sp,sp,1365
    8000a2a8:	00c10463          	beq	sp,a2,8000a2b0 <inst_539>
    8000a2ac:	d79f506f          	j	80000024 <rvtest_error>

000000008000a2b0 <inst_539>:
    8000a2b0:	aaaab537          	lui	a0,0xaaaab
    8000a2b4:	aaa50513          	addi	a0,a0,-1366 # ffffffffaaaaaaaa <absimm+0xfffffffeefd9cfda>
    8000a2b8:	00b51513          	slli	a0,a0,0xb
    8000a2bc:	55550513          	addi	a0,a0,1365
    8000a2c0:	00b51513          	slli	a0,a0,0xb
    8000a2c4:	2aa50513          	addi	a0,a0,682
    8000a2c8:	00a51513          	slli	a0,a0,0xa
    8000a2cc:	2ab50513          	addi	a0,a0,683
    8000a2d0:	aaaab5b7          	lui	a1,0xaaaab
    8000a2d4:	aaa58593          	addi	a1,a1,-1366 # ffffffffaaaaaaaa <absimm+0xfffffffeefd9cfda>
    8000a2d8:	00b59593          	slli	a1,a1,0xb
    8000a2dc:	55558593          	addi	a1,a1,1365
    8000a2e0:	00b59593          	slli	a1,a1,0xb
    8000a2e4:	2aa58593          	addi	a1,a1,682
    8000a2e8:	00a59593          	slli	a1,a1,0xa
    8000a2ec:	2ab58593          	addi	a1,a1,683
    8000a2f0:	40b50633          	sub	a2,a0,a1
    8000a2f4:	7ec0b023          	sd	a2,2016(ra)
    8000a2f8:	00000113          	li	sp,0
    8000a2fc:	00c10463          	beq	sp,a2,8000a304 <inst_540>
    8000a300:	d25f506f          	j	80000024 <rvtest_error>

000000008000a304 <inst_540>:
    8000a304:	aaaab537          	lui	a0,0xaaaab
    8000a308:	aaa50513          	addi	a0,a0,-1366 # ffffffffaaaaaaaa <absimm+0xfffffffeefd9cfda>
    8000a30c:	00b51513          	slli	a0,a0,0xb
    8000a310:	55550513          	addi	a0,a0,1365
    8000a314:	00b51513          	slli	a0,a0,0xb
    8000a318:	2aa50513          	addi	a0,a0,682
    8000a31c:	00a51513          	slli	a0,a0,0xa
    8000a320:	2ab50513          	addi	a0,a0,683
    8000a324:	00600593          	li	a1,6
    8000a328:	40b50633          	sub	a2,a0,a1
    8000a32c:	7ec0b423          	sd	a2,2024(ra)
    8000a330:	faaab137          	lui	sp,0xfaaab
    8000a334:	aab1011b          	addiw	sp,sp,-1365 # fffffffffaaaaaab <absimm+0xffffffff3fd9cfdb>
    8000a338:	00c11113          	slli	sp,sp,0xc
    8000a33c:	aab10113          	addi	sp,sp,-1365
    8000a340:	00c11113          	slli	sp,sp,0xc
    8000a344:	aab10113          	addi	sp,sp,-1365
    8000a348:	00c11113          	slli	sp,sp,0xc
    8000a34c:	aa510113          	addi	sp,sp,-1371
    8000a350:	00c10463          	beq	sp,a2,8000a358 <inst_541>
    8000a354:	cd1f506f          	j	80000024 <rvtest_error>

000000008000a358 <inst_541>:
    8000a358:	aaaab537          	lui	a0,0xaaaab
    8000a35c:	aaa50513          	addi	a0,a0,-1366 # ffffffffaaaaaaaa <absimm+0xfffffffeefd9cfda>
    8000a360:	00b51513          	slli	a0,a0,0xb
    8000a364:	55550513          	addi	a0,a0,1365
    8000a368:	00b51513          	slli	a0,a0,0xb
    8000a36c:	2aa50513          	addi	a0,a0,682
    8000a370:	00a51513          	slli	a0,a0,0xa
    8000a374:	2ab50513          	addi	a0,a0,683
    8000a378:	333335b7          	lui	a1,0x33333
    8000a37c:	33358593          	addi	a1,a1,819 # 33333333 <absimmsh+0x27862586>
    8000a380:	00b59593          	slli	a1,a1,0xb
    8000a384:	19958593          	addi	a1,a1,409
    8000a388:	00b59593          	slli	a1,a1,0xb
    8000a38c:	4cc58593          	addi	a1,a1,1228
    8000a390:	00a59593          	slli	a1,a1,0xa
    8000a394:	33458593          	addi	a1,a1,820
    8000a398:	40b50633          	sub	a2,a0,a1
    8000a39c:	7ec0b823          	sd	a2,2032(ra)
    8000a3a0:	07777137          	lui	sp,0x7777
    8000a3a4:	7771011b          	addiw	sp,sp,1911 # 7777777 <offset+0x777737f>
    8000a3a8:	00c11113          	slli	sp,sp,0xc
    8000a3ac:	77710113          	addi	sp,sp,1911
    8000a3b0:	00c11113          	slli	sp,sp,0xc
    8000a3b4:	77710113          	addi	sp,sp,1911
    8000a3b8:	00c11113          	slli	sp,sp,0xc
    8000a3bc:	77710113          	addi	sp,sp,1911
    8000a3c0:	00c10463          	beq	sp,a2,8000a3c8 <inst_542>
    8000a3c4:	c61f506f          	j	80000024 <rvtest_error>

000000008000a3c8 <inst_542>:
    8000a3c8:	aaaab537          	lui	a0,0xaaaab
    8000a3cc:	aaa50513          	addi	a0,a0,-1366 # ffffffffaaaaaaaa <absimm+0xfffffffeefd9cfda>
    8000a3d0:	00b51513          	slli	a0,a0,0xb
    8000a3d4:	55550513          	addi	a0,a0,1365
    8000a3d8:	00b51513          	slli	a0,a0,0xb
    8000a3dc:	2aa50513          	addi	a0,a0,682
    8000a3e0:	00a51513          	slli	a0,a0,0xa
    8000a3e4:	2ab50513          	addi	a0,a0,683
    8000a3e8:	666665b7          	lui	a1,0x66666
    8000a3ec:	66658593          	addi	a1,a1,1638 # 66666666 <absimmsh+0x5ab958b9>
    8000a3f0:	00b59593          	slli	a1,a1,0xb
    8000a3f4:	33358593          	addi	a1,a1,819
    8000a3f8:	00b59593          	slli	a1,a1,0xb
    8000a3fc:	19958593          	addi	a1,a1,409
    8000a400:	00a59593          	slli	a1,a1,0xa
    8000a404:	26758593          	addi	a1,a1,615
    8000a408:	40b50633          	sub	a2,a0,a1
    8000a40c:	7ec0bc23          	sd	a2,2040(ra)
    8000a410:	01111137          	lui	sp,0x1111
    8000a414:	1111011b          	addiw	sp,sp,273 # 1111111 <offset+0x1110d19>
    8000a418:	00c11113          	slli	sp,sp,0xc
    8000a41c:	11110113          	addi	sp,sp,273
    8000a420:	00c11113          	slli	sp,sp,0xc
    8000a424:	11110113          	addi	sp,sp,273
    8000a428:	00e11113          	slli	sp,sp,0xe
    8000a42c:	44410113          	addi	sp,sp,1092
    8000a430:	00c10463          	beq	sp,a2,8000a438 <inst_542+0x70>
    8000a434:	bf1f506f          	j	80000024 <rvtest_error>
    8000a438:	00000013          	nop
    8000a43c:	00000013          	nop
    8000a440:	00006097          	auipc	ra,0x6
    8000a444:	cc008093          	addi	ra,ra,-832 # 80010100 <signature_x1_2>
    8000a448:	00000013          	nop
    8000a44c:	00000013          	nop
    8000a450:	00000013          	nop
    8000a454:	00000013          	nop
    8000a458:	00000013          	nop
    8000a45c:	00000013          	nop

000000008000a460 <inst_543>:
    8000a460:	aaaab537          	lui	a0,0xaaaab
    8000a464:	aaa50513          	addi	a0,a0,-1366 # ffffffffaaaaaaaa <absimm+0xfffffffeefd9cfda>
    8000a468:	00b51513          	slli	a0,a0,0xb
    8000a46c:	55550513          	addi	a0,a0,1365
    8000a470:	00b51513          	slli	a0,a0,0xb
    8000a474:	2aa50513          	addi	a0,a0,682
    8000a478:	00a51513          	slli	a0,a0,0xa
    8000a47c:	2ab50513          	addi	a0,a0,683
    8000a480:	000005b7          	lui	a1,0x0
    8000a484:	fff58593          	addi	a1,a1,-1
    8000a488:	00b59593          	slli	a1,a1,0xb
    8000a48c:	25758593          	addi	a1,a1,599
    8000a490:	00b59593          	slli	a1,a1,0xb
    8000a494:	6c358593          	addi	a1,a1,1731
    8000a498:	00a59593          	slli	a1,a1,0xa
    8000a49c:	0ce58593          	addi	a1,a1,206
    8000a4a0:	40b50633          	sub	a2,a0,a1
    8000a4a4:	00c0b023          	sd	a2,0(ra)
    8000a4a8:	ffd55137          	lui	sp,0xffd55
    8000a4ac:	5551011b          	addiw	sp,sp,1365 # ffffffffffd55555 <absimm+0xffffffff45047a85>
    8000a4b0:	00c11113          	slli	sp,sp,0xc
    8000a4b4:	55b10113          	addi	sp,sp,1371
    8000a4b8:	01011113          	slli	sp,sp,0x10
    8000a4bc:	d7d10113          	addi	sp,sp,-643
    8000a4c0:	00d11113          	slli	sp,sp,0xd
    8000a4c4:	ddd10113          	addi	sp,sp,-547
    8000a4c8:	00c10463          	beq	sp,a2,8000a4d0 <inst_544>
    8000a4cc:	b59f506f          	j	80000024 <rvtest_error>

000000008000a4d0 <inst_544>:
    8000a4d0:	aaaab537          	lui	a0,0xaaaab
    8000a4d4:	aaa50513          	addi	a0,a0,-1366 # ffffffffaaaaaaaa <absimm+0xfffffffeefd9cfda>
    8000a4d8:	00b51513          	slli	a0,a0,0xb
    8000a4dc:	55550513          	addi	a0,a0,1365
    8000a4e0:	00b51513          	slli	a0,a0,0xb
    8000a4e4:	2aa50513          	addi	a0,a0,682
    8000a4e8:	00a51513          	slli	a0,a0,0xa
    8000a4ec:	2ab50513          	addi	a0,a0,683
    8000a4f0:	000005b7          	lui	a1,0x0
    8000a4f4:	00058593          	mv	a1,a1
    8000a4f8:	00b59593          	slli	a1,a1,0xb
    8000a4fc:	5a858593          	addi	a1,a1,1448 # 5a8 <offset+0x1b0>
    8000a500:	00b59593          	slli	a1,a1,0xb
    8000a504:	13c58593          	addi	a1,a1,316
    8000a508:	00a59593          	slli	a1,a1,0xa
    8000a50c:	33458593          	addi	a1,a1,820
    8000a510:	40b50633          	sub	a2,a0,a1
    8000a514:	00c0b423          	sd	a2,8(ra)
    8000a518:	fd555137          	lui	sp,0xfd555
    8000a51c:	5551011b          	addiw	sp,sp,1365 # fffffffffd555555 <absimm+0xffffffff42847a85>
    8000a520:	00c11113          	slli	sp,sp,0xc
    8000a524:	4fb10113          	addi	sp,sp,1275
    8000a528:	00d11113          	slli	sp,sp,0xd
    8000a52c:	a5b10113          	addi	sp,sp,-1445
    8000a530:	00c11113          	slli	sp,sp,0xc
    8000a534:	77710113          	addi	sp,sp,1911
    8000a538:	00c10463          	beq	sp,a2,8000a540 <inst_545>
    8000a53c:	ae9f506f          	j	80000024 <rvtest_error>

000000008000a540 <inst_545>:
    8000a540:	00600513          	li	a0,6
    8000a544:	00300593          	li	a1,3
    8000a548:	40b50633          	sub	a2,a0,a1
    8000a54c:	00c0b823          	sd	a2,16(ra)
    8000a550:	00300113          	li	sp,3
    8000a554:	00c10463          	beq	sp,a2,8000a55c <inst_546>
    8000a558:	acdf506f          	j	80000024 <rvtest_error>

000000008000a55c <inst_546>:
    8000a55c:	00600513          	li	a0,6
    8000a560:	555555b7          	lui	a1,0x55555
    8000a564:	55558593          	addi	a1,a1,1365 # 55555555 <absimmsh+0x49a847a8>
    8000a568:	00b59593          	slli	a1,a1,0xb
    8000a56c:	2aa58593          	addi	a1,a1,682
    8000a570:	00b59593          	slli	a1,a1,0xb
    8000a574:	55558593          	addi	a1,a1,1365
    8000a578:	00a59593          	slli	a1,a1,0xa
    8000a57c:	15558593          	addi	a1,a1,341
    8000a580:	40b50633          	sub	a2,a0,a1
    8000a584:	00c0bc23          	sd	a2,24(ra)
    8000a588:	faaab137          	lui	sp,0xfaaab
    8000a58c:	aab1011b          	addiw	sp,sp,-1365 # fffffffffaaaaaab <absimm+0xffffffff3fd9cfdb>
    8000a590:	00c11113          	slli	sp,sp,0xc
    8000a594:	aab10113          	addi	sp,sp,-1365
    8000a598:	00c11113          	slli	sp,sp,0xc
    8000a59c:	aab10113          	addi	sp,sp,-1365
    8000a5a0:	00c11113          	slli	sp,sp,0xc
    8000a5a4:	ab110113          	addi	sp,sp,-1359
    8000a5a8:	00c10463          	beq	sp,a2,8000a5b0 <inst_547>
    8000a5ac:	a79f506f          	j	80000024 <rvtest_error>

000000008000a5b0 <inst_547>:
    8000a5b0:	00600513          	li	a0,6
    8000a5b4:	aaaab5b7          	lui	a1,0xaaaab
    8000a5b8:	aaa58593          	addi	a1,a1,-1366 # ffffffffaaaaaaaa <absimm+0xfffffffeefd9cfda>
    8000a5bc:	00b59593          	slli	a1,a1,0xb
    8000a5c0:	55558593          	addi	a1,a1,1365
    8000a5c4:	00b59593          	slli	a1,a1,0xb
    8000a5c8:	2aa58593          	addi	a1,a1,682
    8000a5cc:	00a59593          	slli	a1,a1,0xa
    8000a5d0:	2aa58593          	addi	a1,a1,682
    8000a5d4:	40b50633          	sub	a2,a0,a1
    8000a5d8:	02c0b023          	sd	a2,32(ra)
    8000a5dc:	05555137          	lui	sp,0x5555
    8000a5e0:	5551011b          	addiw	sp,sp,1365 # 5555555 <offset+0x555515d>
    8000a5e4:	00c11113          	slli	sp,sp,0xc
    8000a5e8:	55510113          	addi	sp,sp,1365
    8000a5ec:	00c11113          	slli	sp,sp,0xc
    8000a5f0:	55510113          	addi	sp,sp,1365
    8000a5f4:	00c11113          	slli	sp,sp,0xc
    8000a5f8:	55c10113          	addi	sp,sp,1372
    8000a5fc:	00c10463          	beq	sp,a2,8000a604 <inst_548>
    8000a600:	a25f506f          	j	80000024 <rvtest_error>

000000008000a604 <inst_548>:
    8000a604:	00600513          	li	a0,6
    8000a608:	00500593          	li	a1,5
    8000a60c:	40b50633          	sub	a2,a0,a1
    8000a610:	02c0b423          	sd	a2,40(ra)
    8000a614:	00100113          	li	sp,1
    8000a618:	00c10463          	beq	sp,a2,8000a620 <inst_549>
    8000a61c:	a09f506f          	j	80000024 <rvtest_error>

000000008000a620 <inst_549>:
    8000a620:	00600513          	li	a0,6
    8000a624:	333335b7          	lui	a1,0x33333
    8000a628:	33358593          	addi	a1,a1,819 # 33333333 <absimmsh+0x27862586>
    8000a62c:	00b59593          	slli	a1,a1,0xb
    8000a630:	19958593          	addi	a1,a1,409
    8000a634:	00b59593          	slli	a1,a1,0xb
    8000a638:	4cc58593          	addi	a1,a1,1228
    8000a63c:	00a59593          	slli	a1,a1,0xa
    8000a640:	33358593          	addi	a1,a1,819
    8000a644:	40b50633          	sub	a2,a0,a1
    8000a648:	02c0b823          	sd	a2,48(ra)
    8000a64c:	fcccd137          	lui	sp,0xfcccd
    8000a650:	ccd1011b          	addiw	sp,sp,-819 # fffffffffccccccd <absimm+0xffffffff41fbf1fd>
    8000a654:	00c11113          	slli	sp,sp,0xc
    8000a658:	ccd10113          	addi	sp,sp,-819
    8000a65c:	00c11113          	slli	sp,sp,0xc
    8000a660:	ccd10113          	addi	sp,sp,-819
    8000a664:	00c11113          	slli	sp,sp,0xc
    8000a668:	cd310113          	addi	sp,sp,-813
    8000a66c:	00c10463          	beq	sp,a2,8000a674 <inst_550>
    8000a670:	9b5f506f          	j	80000024 <rvtest_error>

000000008000a674 <inst_550>:
    8000a674:	00600513          	li	a0,6
    8000a678:	666665b7          	lui	a1,0x66666
    8000a67c:	66658593          	addi	a1,a1,1638 # 66666666 <absimmsh+0x5ab958b9>
    8000a680:	00b59593          	slli	a1,a1,0xb
    8000a684:	33358593          	addi	a1,a1,819
    8000a688:	00b59593          	slli	a1,a1,0xb
    8000a68c:	19958593          	addi	a1,a1,409
    8000a690:	00a59593          	slli	a1,a1,0xa
    8000a694:	26658593          	addi	a1,a1,614
    8000a698:	40b50633          	sub	a2,a0,a1
    8000a69c:	02c0bc23          	sd	a2,56(ra)
    8000a6a0:	fcccd137          	lui	sp,0xfcccd
    8000a6a4:	ccd1011b          	addiw	sp,sp,-819 # fffffffffccccccd <absimm+0xffffffff41fbf1fd>
    8000a6a8:	00c11113          	slli	sp,sp,0xc
    8000a6ac:	ccd10113          	addi	sp,sp,-819
    8000a6b0:	00c11113          	slli	sp,sp,0xc
    8000a6b4:	ccd10113          	addi	sp,sp,-819
    8000a6b8:	00d11113          	slli	sp,sp,0xd
    8000a6bc:	9a010113          	addi	sp,sp,-1632
    8000a6c0:	00c10463          	beq	sp,a2,8000a6c8 <inst_551>
    8000a6c4:	961f506f          	j	80000024 <rvtest_error>

000000008000a6c8 <inst_551>:
    8000a6c8:	00600513          	li	a0,6
    8000a6cc:	000005b7          	lui	a1,0x0
    8000a6d0:	fff58593          	addi	a1,a1,-1
    8000a6d4:	00b59593          	slli	a1,a1,0xb
    8000a6d8:	25758593          	addi	a1,a1,599
    8000a6dc:	00b59593          	slli	a1,a1,0xb
    8000a6e0:	6c358593          	addi	a1,a1,1731
    8000a6e4:	00a59593          	slli	a1,a1,0xa
    8000a6e8:	0cd58593          	addi	a1,a1,205
    8000a6ec:	40b50633          	sub	a2,a0,a1
    8000a6f0:	04c0b023          	sd	a2,64(ra)
    8000a6f4:	000b5137          	lui	sp,0xb5
    8000a6f8:	04f1011b          	addiw	sp,sp,79 # b504f <offset+0xb4c57>
    8000a6fc:	00c11113          	slli	sp,sp,0xc
    8000a700:	33910113          	addi	sp,sp,825
    8000a704:	00c10463          	beq	sp,a2,8000a70c <inst_552>
    8000a708:	91df506f          	j	80000024 <rvtest_error>

000000008000a70c <inst_552>:
    8000a70c:	00600513          	li	a0,6
    8000a710:	000005b7          	lui	a1,0x0
    8000a714:	00058593          	mv	a1,a1
    8000a718:	00b59593          	slli	a1,a1,0xb
    8000a71c:	5a858593          	addi	a1,a1,1448 # 5a8 <offset+0x1b0>
    8000a720:	00b59593          	slli	a1,a1,0xb
    8000a724:	13c58593          	addi	a1,a1,316
    8000a728:	00a59593          	slli	a1,a1,0xa
    8000a72c:	33358593          	addi	a1,a1,819
    8000a730:	40b50633          	sub	a2,a0,a1
    8000a734:	04c0b423          	sd	a2,72(ra)
    8000a738:	fff4b137          	lui	sp,0xfff4b
    8000a73c:	fb11011b          	addiw	sp,sp,-79 # fffffffffff4afb1 <absimm+0xffffffff4523d4e1>
    8000a740:	00c11113          	slli	sp,sp,0xc
    8000a744:	cd310113          	addi	sp,sp,-813
    8000a748:	00c10463          	beq	sp,a2,8000a750 <inst_553>
    8000a74c:	8d9f506f          	j	80000024 <rvtest_error>

000000008000a750 <inst_553>:
    8000a750:	00600513          	li	a0,6
    8000a754:	00200593          	li	a1,2
    8000a758:	40b50633          	sub	a2,a0,a1
    8000a75c:	04c0b823          	sd	a2,80(ra)
    8000a760:	00400113          	li	sp,4
    8000a764:	00c10463          	beq	sp,a2,8000a76c <inst_554>
    8000a768:	8bdf506f          	j	80000024 <rvtest_error>

000000008000a76c <inst_554>:
    8000a76c:	00600513          	li	a0,6
    8000a770:	555555b7          	lui	a1,0x55555
    8000a774:	55558593          	addi	a1,a1,1365 # 55555555 <absimmsh+0x49a847a8>
    8000a778:	00b59593          	slli	a1,a1,0xb
    8000a77c:	2aa58593          	addi	a1,a1,682
    8000a780:	00b59593          	slli	a1,a1,0xb
    8000a784:	55558593          	addi	a1,a1,1365
    8000a788:	00a59593          	slli	a1,a1,0xa
    8000a78c:	15458593          	addi	a1,a1,340
    8000a790:	40b50633          	sub	a2,a0,a1
    8000a794:	04c0bc23          	sd	a2,88(ra)
    8000a798:	faaab137          	lui	sp,0xfaaab
    8000a79c:	aab1011b          	addiw	sp,sp,-1365 # fffffffffaaaaaab <absimm+0xffffffff3fd9cfdb>
    8000a7a0:	00c11113          	slli	sp,sp,0xc
    8000a7a4:	aab10113          	addi	sp,sp,-1365
    8000a7a8:	00c11113          	slli	sp,sp,0xc
    8000a7ac:	aab10113          	addi	sp,sp,-1365
    8000a7b0:	00c11113          	slli	sp,sp,0xc
    8000a7b4:	ab210113          	addi	sp,sp,-1358
    8000a7b8:	00c10463          	beq	sp,a2,8000a7c0 <inst_555>
    8000a7bc:	869f506f          	j	80000024 <rvtest_error>

000000008000a7c0 <inst_555>:
    8000a7c0:	00600513          	li	a0,6
    8000a7c4:	00000593          	li	a1,0
    8000a7c8:	40b50633          	sub	a2,a0,a1
    8000a7cc:	06c0b023          	sd	a2,96(ra)
    8000a7d0:	00600113          	li	sp,6
    8000a7d4:	00c10463          	beq	sp,a2,8000a7dc <inst_556>
    8000a7d8:	84df506f          	j	80000024 <rvtest_error>

000000008000a7dc <inst_556>:
    8000a7dc:	00600513          	li	a0,6
    8000a7e0:	00400593          	li	a1,4
    8000a7e4:	40b50633          	sub	a2,a0,a1
    8000a7e8:	06c0b423          	sd	a2,104(ra)
    8000a7ec:	00200113          	li	sp,2
    8000a7f0:	00c10463          	beq	sp,a2,8000a7f8 <inst_557>
    8000a7f4:	831f506f          	j	80000024 <rvtest_error>

000000008000a7f8 <inst_557>:
    8000a7f8:	00600513          	li	a0,6
    8000a7fc:	333335b7          	lui	a1,0x33333
    8000a800:	33358593          	addi	a1,a1,819 # 33333333 <absimmsh+0x27862586>
    8000a804:	00b59593          	slli	a1,a1,0xb
    8000a808:	19958593          	addi	a1,a1,409
    8000a80c:	00b59593          	slli	a1,a1,0xb
    8000a810:	4cc58593          	addi	a1,a1,1228
    8000a814:	00a59593          	slli	a1,a1,0xa
    8000a818:	33258593          	addi	a1,a1,818
    8000a81c:	40b50633          	sub	a2,a0,a1
    8000a820:	06c0b823          	sd	a2,112(ra)
    8000a824:	fcccd137          	lui	sp,0xfcccd
    8000a828:	ccd1011b          	addiw	sp,sp,-819 # fffffffffccccccd <absimm+0xffffffff41fbf1fd>
    8000a82c:	00c11113          	slli	sp,sp,0xc
    8000a830:	ccd10113          	addi	sp,sp,-819
    8000a834:	00c11113          	slli	sp,sp,0xc
    8000a838:	ccd10113          	addi	sp,sp,-819
    8000a83c:	00c11113          	slli	sp,sp,0xc
    8000a840:	cd410113          	addi	sp,sp,-812
    8000a844:	00c10463          	beq	sp,a2,8000a84c <inst_558>
    8000a848:	fdcf506f          	j	80000024 <rvtest_error>

000000008000a84c <inst_558>:
    8000a84c:	00600513          	li	a0,6
    8000a850:	666665b7          	lui	a1,0x66666
    8000a854:	66658593          	addi	a1,a1,1638 # 66666666 <absimmsh+0x5ab958b9>
    8000a858:	00b59593          	slli	a1,a1,0xb
    8000a85c:	33358593          	addi	a1,a1,819
    8000a860:	00b59593          	slli	a1,a1,0xb
    8000a864:	19958593          	addi	a1,a1,409
    8000a868:	00a59593          	slli	a1,a1,0xa
    8000a86c:	26558593          	addi	a1,a1,613
    8000a870:	40b50633          	sub	a2,a0,a1
    8000a874:	06c0bc23          	sd	a2,120(ra)
    8000a878:	fcccd137          	lui	sp,0xfcccd
    8000a87c:	ccd1011b          	addiw	sp,sp,-819 # fffffffffccccccd <absimm+0xffffffff41fbf1fd>
    8000a880:	00c11113          	slli	sp,sp,0xc
    8000a884:	ccd10113          	addi	sp,sp,-819
    8000a888:	00c11113          	slli	sp,sp,0xc
    8000a88c:	ccd10113          	addi	sp,sp,-819
    8000a890:	00d11113          	slli	sp,sp,0xd
    8000a894:	9a110113          	addi	sp,sp,-1631
    8000a898:	00c10463          	beq	sp,a2,8000a8a0 <inst_559>
    8000a89c:	f88f506f          	j	80000024 <rvtest_error>

000000008000a8a0 <inst_559>:
    8000a8a0:	00600513          	li	a0,6
    8000a8a4:	000005b7          	lui	a1,0x0
    8000a8a8:	00058593          	mv	a1,a1
    8000a8ac:	00b59593          	slli	a1,a1,0xb
    8000a8b0:	5a858593          	addi	a1,a1,1448 # 5a8 <offset+0x1b0>
    8000a8b4:	00b59593          	slli	a1,a1,0xb
    8000a8b8:	13c58593          	addi	a1,a1,316
    8000a8bc:	00a59593          	slli	a1,a1,0xa
    8000a8c0:	33258593          	addi	a1,a1,818
    8000a8c4:	40b50633          	sub	a2,a0,a1
    8000a8c8:	08c0b023          	sd	a2,128(ra)
    8000a8cc:	fff4b137          	lui	sp,0xfff4b
    8000a8d0:	fb11011b          	addiw	sp,sp,-79 # fffffffffff4afb1 <absimm+0xffffffff4523d4e1>
    8000a8d4:	00c11113          	slli	sp,sp,0xc
    8000a8d8:	cd410113          	addi	sp,sp,-812
    8000a8dc:	00c10463          	beq	sp,a2,8000a8e4 <inst_560>
    8000a8e0:	f44f506f          	j	80000024 <rvtest_error>

000000008000a8e4 <inst_560>:
    8000a8e4:	00600513          	li	a0,6
    8000a8e8:	555555b7          	lui	a1,0x55555
    8000a8ec:	55558593          	addi	a1,a1,1365 # 55555555 <absimmsh+0x49a847a8>
    8000a8f0:	00b59593          	slli	a1,a1,0xb
    8000a8f4:	2aa58593          	addi	a1,a1,682
    8000a8f8:	00b59593          	slli	a1,a1,0xb
    8000a8fc:	55558593          	addi	a1,a1,1365
    8000a900:	00a59593          	slli	a1,a1,0xa
    8000a904:	15658593          	addi	a1,a1,342
    8000a908:	40b50633          	sub	a2,a0,a1
    8000a90c:	08c0b423          	sd	a2,136(ra)
    8000a910:	faaab137          	lui	sp,0xfaaab
    8000a914:	aab1011b          	addiw	sp,sp,-1365 # fffffffffaaaaaab <absimm+0xffffffff3fd9cfdb>
    8000a918:	00c11113          	slli	sp,sp,0xc
    8000a91c:	aab10113          	addi	sp,sp,-1365
    8000a920:	00c11113          	slli	sp,sp,0xc
    8000a924:	aab10113          	addi	sp,sp,-1365
    8000a928:	00c11113          	slli	sp,sp,0xc
    8000a92c:	ab010113          	addi	sp,sp,-1360
    8000a930:	00c10463          	beq	sp,a2,8000a938 <inst_561>
    8000a934:	ef0f506f          	j	80000024 <rvtest_error>

000000008000a938 <inst_561>:
    8000a938:	00600513          	li	a0,6
    8000a93c:	aaaab5b7          	lui	a1,0xaaaab
    8000a940:	aaa58593          	addi	a1,a1,-1366 # ffffffffaaaaaaaa <absimm+0xfffffffeefd9cfda>
    8000a944:	00b59593          	slli	a1,a1,0xb
    8000a948:	55558593          	addi	a1,a1,1365
    8000a94c:	00b59593          	slli	a1,a1,0xb
    8000a950:	2aa58593          	addi	a1,a1,682
    8000a954:	00a59593          	slli	a1,a1,0xa
    8000a958:	2ab58593          	addi	a1,a1,683
    8000a95c:	40b50633          	sub	a2,a0,a1
    8000a960:	08c0b823          	sd	a2,144(ra)
    8000a964:	05555137          	lui	sp,0x5555
    8000a968:	5551011b          	addiw	sp,sp,1365 # 5555555 <offset+0x555515d>
    8000a96c:	00c11113          	slli	sp,sp,0xc
    8000a970:	55510113          	addi	sp,sp,1365
    8000a974:	00c11113          	slli	sp,sp,0xc
    8000a978:	55510113          	addi	sp,sp,1365
    8000a97c:	00c11113          	slli	sp,sp,0xc
    8000a980:	55b10113          	addi	sp,sp,1371
    8000a984:	00c10463          	beq	sp,a2,8000a98c <inst_562>
    8000a988:	e9cf506f          	j	80000024 <rvtest_error>

000000008000a98c <inst_562>:
    8000a98c:	00600513          	li	a0,6
    8000a990:	00600593          	li	a1,6
    8000a994:	40b50633          	sub	a2,a0,a1
    8000a998:	08c0bc23          	sd	a2,152(ra)
    8000a99c:	00000113          	li	sp,0
    8000a9a0:	00c10463          	beq	sp,a2,8000a9a8 <inst_563>
    8000a9a4:	e80f506f          	j	80000024 <rvtest_error>

000000008000a9a8 <inst_563>:
    8000a9a8:	00600513          	li	a0,6
    8000a9ac:	333335b7          	lui	a1,0x33333
    8000a9b0:	33358593          	addi	a1,a1,819 # 33333333 <absimmsh+0x27862586>
    8000a9b4:	00b59593          	slli	a1,a1,0xb
    8000a9b8:	19958593          	addi	a1,a1,409
    8000a9bc:	00b59593          	slli	a1,a1,0xb
    8000a9c0:	4cc58593          	addi	a1,a1,1228
    8000a9c4:	00a59593          	slli	a1,a1,0xa
    8000a9c8:	33458593          	addi	a1,a1,820
    8000a9cc:	40b50633          	sub	a2,a0,a1
    8000a9d0:	0ac0b023          	sd	a2,160(ra)
    8000a9d4:	fcccd137          	lui	sp,0xfcccd
    8000a9d8:	ccd1011b          	addiw	sp,sp,-819 # fffffffffccccccd <absimm+0xffffffff41fbf1fd>
    8000a9dc:	00c11113          	slli	sp,sp,0xc
    8000a9e0:	ccd10113          	addi	sp,sp,-819
    8000a9e4:	00c11113          	slli	sp,sp,0xc
    8000a9e8:	ccd10113          	addi	sp,sp,-819
    8000a9ec:	00c11113          	slli	sp,sp,0xc
    8000a9f0:	cd210113          	addi	sp,sp,-814
    8000a9f4:	00c10463          	beq	sp,a2,8000a9fc <inst_564>
    8000a9f8:	e2cf506f          	j	80000024 <rvtest_error>

000000008000a9fc <inst_564>:
    8000a9fc:	00600513          	li	a0,6
    8000aa00:	666665b7          	lui	a1,0x66666
    8000aa04:	66658593          	addi	a1,a1,1638 # 66666666 <absimmsh+0x5ab958b9>
    8000aa08:	00b59593          	slli	a1,a1,0xb
    8000aa0c:	33358593          	addi	a1,a1,819
    8000aa10:	00b59593          	slli	a1,a1,0xb
    8000aa14:	19958593          	addi	a1,a1,409
    8000aa18:	00a59593          	slli	a1,a1,0xa
    8000aa1c:	26758593          	addi	a1,a1,615
    8000aa20:	40b50633          	sub	a2,a0,a1
    8000aa24:	0ac0b423          	sd	a2,168(ra)
    8000aa28:	fcccd137          	lui	sp,0xfcccd
    8000aa2c:	ccd1011b          	addiw	sp,sp,-819 # fffffffffccccccd <absimm+0xffffffff41fbf1fd>
    8000aa30:	00c11113          	slli	sp,sp,0xc
    8000aa34:	ccd10113          	addi	sp,sp,-819
    8000aa38:	00c11113          	slli	sp,sp,0xc
    8000aa3c:	ccd10113          	addi	sp,sp,-819
    8000aa40:	00d11113          	slli	sp,sp,0xd
    8000aa44:	99f10113          	addi	sp,sp,-1633
    8000aa48:	00c10463          	beq	sp,a2,8000aa50 <inst_565>
    8000aa4c:	dd8f506f          	j	80000024 <rvtest_error>

000000008000aa50 <inst_565>:
    8000aa50:	00600513          	li	a0,6
    8000aa54:	000005b7          	lui	a1,0x0
    8000aa58:	fff58593          	addi	a1,a1,-1
    8000aa5c:	00b59593          	slli	a1,a1,0xb
    8000aa60:	25758593          	addi	a1,a1,599
    8000aa64:	00b59593          	slli	a1,a1,0xb
    8000aa68:	6c358593          	addi	a1,a1,1731
    8000aa6c:	00a59593          	slli	a1,a1,0xa
    8000aa70:	0ce58593          	addi	a1,a1,206
    8000aa74:	40b50633          	sub	a2,a0,a1
    8000aa78:	0ac0b823          	sd	a2,176(ra)
    8000aa7c:	000b5137          	lui	sp,0xb5
    8000aa80:	04f1011b          	addiw	sp,sp,79 # b504f <offset+0xb4c57>
    8000aa84:	00c11113          	slli	sp,sp,0xc
    8000aa88:	33810113          	addi	sp,sp,824
    8000aa8c:	00c10463          	beq	sp,a2,8000aa94 <inst_566>
    8000aa90:	d94f506f          	j	80000024 <rvtest_error>

000000008000aa94 <inst_566>:
    8000aa94:	00600513          	li	a0,6
    8000aa98:	000005b7          	lui	a1,0x0
    8000aa9c:	00058593          	mv	a1,a1
    8000aaa0:	00b59593          	slli	a1,a1,0xb
    8000aaa4:	5a858593          	addi	a1,a1,1448 # 5a8 <offset+0x1b0>
    8000aaa8:	00b59593          	slli	a1,a1,0xb
    8000aaac:	13c58593          	addi	a1,a1,316
    8000aab0:	00a59593          	slli	a1,a1,0xa
    8000aab4:	33458593          	addi	a1,a1,820
    8000aab8:	40b50633          	sub	a2,a0,a1
    8000aabc:	0ac0bc23          	sd	a2,184(ra)
    8000aac0:	fff4b137          	lui	sp,0xfff4b
    8000aac4:	fb11011b          	addiw	sp,sp,-79 # fffffffffff4afb1 <absimm+0xffffffff4523d4e1>
    8000aac8:	00c11113          	slli	sp,sp,0xc
    8000aacc:	cd210113          	addi	sp,sp,-814
    8000aad0:	00c10463          	beq	sp,a2,8000aad8 <inst_567>
    8000aad4:	d50f506f          	j	80000024 <rvtest_error>

000000008000aad8 <inst_567>:
    8000aad8:	33333537          	lui	a0,0x33333
    8000aadc:	33350513          	addi	a0,a0,819 # 33333333 <absimmsh+0x27862586>
    8000aae0:	00b51513          	slli	a0,a0,0xb
    8000aae4:	19950513          	addi	a0,a0,409
    8000aae8:	00b51513          	slli	a0,a0,0xb
    8000aaec:	4cc50513          	addi	a0,a0,1228
    8000aaf0:	00a51513          	slli	a0,a0,0xa
    8000aaf4:	33450513          	addi	a0,a0,820
    8000aaf8:	00300593          	li	a1,3
    8000aafc:	40b50633          	sub	a2,a0,a1
    8000ab00:	0cc0b023          	sd	a2,192(ra)
    8000ab04:	03333137          	lui	sp,0x3333
    8000ab08:	3331011b          	addiw	sp,sp,819 # 3333333 <offset+0x3332f3b>
    8000ab0c:	00c11113          	slli	sp,sp,0xc
    8000ab10:	33310113          	addi	sp,sp,819
    8000ab14:	00c11113          	slli	sp,sp,0xc
    8000ab18:	33310113          	addi	sp,sp,819
    8000ab1c:	00c11113          	slli	sp,sp,0xc
    8000ab20:	33110113          	addi	sp,sp,817
    8000ab24:	00c10463          	beq	sp,a2,8000ab2c <inst_568>
    8000ab28:	cfcf506f          	j	80000024 <rvtest_error>

000000008000ab2c <inst_568>:
    8000ab2c:	33333537          	lui	a0,0x33333
    8000ab30:	33350513          	addi	a0,a0,819 # 33333333 <absimmsh+0x27862586>
    8000ab34:	00b51513          	slli	a0,a0,0xb
    8000ab38:	19950513          	addi	a0,a0,409
    8000ab3c:	00b51513          	slli	a0,a0,0xb
    8000ab40:	4cc50513          	addi	a0,a0,1228
    8000ab44:	00a51513          	slli	a0,a0,0xa
    8000ab48:	33450513          	addi	a0,a0,820
    8000ab4c:	555555b7          	lui	a1,0x55555
    8000ab50:	55558593          	addi	a1,a1,1365 # 55555555 <absimmsh+0x49a847a8>
    8000ab54:	00b59593          	slli	a1,a1,0xb
    8000ab58:	2aa58593          	addi	a1,a1,682
    8000ab5c:	00b59593          	slli	a1,a1,0xb
    8000ab60:	55558593          	addi	a1,a1,1365
    8000ab64:	00a59593          	slli	a1,a1,0xa
    8000ab68:	15558593          	addi	a1,a1,341
    8000ab6c:	40b50633          	sub	a2,a0,a1
    8000ab70:	0cc0b423          	sd	a2,200(ra)
    8000ab74:	feeef137          	lui	sp,0xfeeef
    8000ab78:	eef1011b          	addiw	sp,sp,-273 # fffffffffeeeeeef <absimm+0xffffffff441e141f>
    8000ab7c:	00c11113          	slli	sp,sp,0xc
    8000ab80:	eef10113          	addi	sp,sp,-273
    8000ab84:	00c11113          	slli	sp,sp,0xc
    8000ab88:	eef10113          	addi	sp,sp,-273
    8000ab8c:	00d11113          	slli	sp,sp,0xd
    8000ab90:	ddf10113          	addi	sp,sp,-545
    8000ab94:	00c10463          	beq	sp,a2,8000ab9c <inst_569>
    8000ab98:	c8cf506f          	j	80000024 <rvtest_error>

000000008000ab9c <inst_569>:
    8000ab9c:	33333537          	lui	a0,0x33333
    8000aba0:	33350513          	addi	a0,a0,819 # 33333333 <absimmsh+0x27862586>
    8000aba4:	00b51513          	slli	a0,a0,0xb
    8000aba8:	19950513          	addi	a0,a0,409
    8000abac:	00b51513          	slli	a0,a0,0xb
    8000abb0:	4cc50513          	addi	a0,a0,1228
    8000abb4:	00a51513          	slli	a0,a0,0xa
    8000abb8:	33450513          	addi	a0,a0,820
    8000abbc:	aaaab5b7          	lui	a1,0xaaaab
    8000abc0:	aaa58593          	addi	a1,a1,-1366 # ffffffffaaaaaaaa <absimm+0xfffffffeefd9cfda>
    8000abc4:	00b59593          	slli	a1,a1,0xb
    8000abc8:	55558593          	addi	a1,a1,1365
    8000abcc:	00b59593          	slli	a1,a1,0xb
    8000abd0:	2aa58593          	addi	a1,a1,682
    8000abd4:	00a59593          	slli	a1,a1,0xa
    8000abd8:	2aa58593          	addi	a1,a1,682
    8000abdc:	40b50633          	sub	a2,a0,a1
    8000abe0:	0cc0b823          	sd	a2,208(ra)
    8000abe4:	f8889137          	lui	sp,0xf8889
    8000abe8:	8891011b          	addiw	sp,sp,-1911 # fffffffff8888889 <absimm+0xffffffff3db7adb9>
    8000abec:	00c11113          	slli	sp,sp,0xc
    8000abf0:	88910113          	addi	sp,sp,-1911
    8000abf4:	00c11113          	slli	sp,sp,0xc
    8000abf8:	88910113          	addi	sp,sp,-1911
    8000abfc:	00c11113          	slli	sp,sp,0xc
    8000ac00:	88a10113          	addi	sp,sp,-1910
    8000ac04:	00c10463          	beq	sp,a2,8000ac0c <inst_570>
    8000ac08:	c1cf506f          	j	80000024 <rvtest_error>

000000008000ac0c <inst_570>:
    8000ac0c:	33333537          	lui	a0,0x33333
    8000ac10:	33350513          	addi	a0,a0,819 # 33333333 <absimmsh+0x27862586>
    8000ac14:	00b51513          	slli	a0,a0,0xb
    8000ac18:	19950513          	addi	a0,a0,409
    8000ac1c:	00b51513          	slli	a0,a0,0xb
    8000ac20:	4cc50513          	addi	a0,a0,1228
    8000ac24:	00a51513          	slli	a0,a0,0xa
    8000ac28:	33450513          	addi	a0,a0,820
    8000ac2c:	00500593          	li	a1,5
    8000ac30:	40b50633          	sub	a2,a0,a1
    8000ac34:	0cc0bc23          	sd	a2,216(ra)
    8000ac38:	03333137          	lui	sp,0x3333
    8000ac3c:	3331011b          	addiw	sp,sp,819 # 3333333 <offset+0x3332f3b>
    8000ac40:	00c11113          	slli	sp,sp,0xc
    8000ac44:	33310113          	addi	sp,sp,819
    8000ac48:	00c11113          	slli	sp,sp,0xc
    8000ac4c:	33310113          	addi	sp,sp,819
    8000ac50:	00c11113          	slli	sp,sp,0xc
    8000ac54:	32f10113          	addi	sp,sp,815
    8000ac58:	00c10463          	beq	sp,a2,8000ac60 <inst_571>
    8000ac5c:	bc8f506f          	j	80000024 <rvtest_error>

000000008000ac60 <inst_571>:
    8000ac60:	33333537          	lui	a0,0x33333
    8000ac64:	33350513          	addi	a0,a0,819 # 33333333 <absimmsh+0x27862586>
    8000ac68:	00b51513          	slli	a0,a0,0xb
    8000ac6c:	19950513          	addi	a0,a0,409
    8000ac70:	00b51513          	slli	a0,a0,0xb
    8000ac74:	4cc50513          	addi	a0,a0,1228
    8000ac78:	00a51513          	slli	a0,a0,0xa
    8000ac7c:	33450513          	addi	a0,a0,820
    8000ac80:	333335b7          	lui	a1,0x33333
    8000ac84:	33358593          	addi	a1,a1,819 # 33333333 <absimmsh+0x27862586>
    8000ac88:	00b59593          	slli	a1,a1,0xb
    8000ac8c:	19958593          	addi	a1,a1,409
    8000ac90:	00b59593          	slli	a1,a1,0xb
    8000ac94:	4cc58593          	addi	a1,a1,1228
    8000ac98:	00a59593          	slli	a1,a1,0xa
    8000ac9c:	33358593          	addi	a1,a1,819
    8000aca0:	40b50633          	sub	a2,a0,a1
    8000aca4:	0ec0b023          	sd	a2,224(ra)
    8000aca8:	00100113          	li	sp,1
    8000acac:	00c10463          	beq	sp,a2,8000acb4 <inst_572>
    8000acb0:	b74f506f          	j	80000024 <rvtest_error>

000000008000acb4 <inst_572>:
    8000acb4:	33333537          	lui	a0,0x33333
    8000acb8:	33350513          	addi	a0,a0,819 # 33333333 <absimmsh+0x27862586>
    8000acbc:	00b51513          	slli	a0,a0,0xb
    8000acc0:	19950513          	addi	a0,a0,409
    8000acc4:	00b51513          	slli	a0,a0,0xb
    8000acc8:	4cc50513          	addi	a0,a0,1228
    8000accc:	00a51513          	slli	a0,a0,0xa
    8000acd0:	33450513          	addi	a0,a0,820
    8000acd4:	666665b7          	lui	a1,0x66666
    8000acd8:	66658593          	addi	a1,a1,1638 # 66666666 <absimmsh+0x5ab958b9>
    8000acdc:	00b59593          	slli	a1,a1,0xb
    8000ace0:	33358593          	addi	a1,a1,819
    8000ace4:	00b59593          	slli	a1,a1,0xb
    8000ace8:	19958593          	addi	a1,a1,409
    8000acec:	00a59593          	slli	a1,a1,0xa
    8000acf0:	26658593          	addi	a1,a1,614
    8000acf4:	40b50633          	sub	a2,a0,a1
    8000acf8:	0ec0b423          	sd	a2,232(ra)
    8000acfc:	fcccd137          	lui	sp,0xfcccd
    8000ad00:	ccd1011b          	addiw	sp,sp,-819 # fffffffffccccccd <absimm+0xffffffff41fbf1fd>
    8000ad04:	00c11113          	slli	sp,sp,0xc
    8000ad08:	ccd10113          	addi	sp,sp,-819
    8000ad0c:	00c11113          	slli	sp,sp,0xc
    8000ad10:	ccd10113          	addi	sp,sp,-819
    8000ad14:	00c11113          	slli	sp,sp,0xc
    8000ad18:	cce10113          	addi	sp,sp,-818
    8000ad1c:	00c10463          	beq	sp,a2,8000ad24 <inst_573>
    8000ad20:	b04f506f          	j	80000024 <rvtest_error>

000000008000ad24 <inst_573>:
    8000ad24:	33333537          	lui	a0,0x33333
    8000ad28:	33350513          	addi	a0,a0,819 # 33333333 <absimmsh+0x27862586>
    8000ad2c:	00b51513          	slli	a0,a0,0xb
    8000ad30:	19950513          	addi	a0,a0,409
    8000ad34:	00b51513          	slli	a0,a0,0xb
    8000ad38:	4cc50513          	addi	a0,a0,1228
    8000ad3c:	00a51513          	slli	a0,a0,0xa
    8000ad40:	33450513          	addi	a0,a0,820
    8000ad44:	000005b7          	lui	a1,0x0
    8000ad48:	fff58593          	addi	a1,a1,-1
    8000ad4c:	00b59593          	slli	a1,a1,0xb
    8000ad50:	25758593          	addi	a1,a1,599
    8000ad54:	00b59593          	slli	a1,a1,0xb
    8000ad58:	6c358593          	addi	a1,a1,1731
    8000ad5c:	00a59593          	slli	a1,a1,0xa
    8000ad60:	0cd58593          	addi	a1,a1,205
    8000ad64:	40b50633          	sub	a2,a0,a1
    8000ad68:	0ec0b823          	sd	a2,240(ra)
    8000ad6c:	00333137          	lui	sp,0x333
    8000ad70:	3331011b          	addiw	sp,sp,819 # 333333 <offset+0x332f3b>
    8000ad74:	00d11113          	slli	sp,sp,0xd
    8000ad78:	67d10113          	addi	sp,sp,1661
    8000ad7c:	00e11113          	slli	sp,sp,0xe
    8000ad80:	1c110113          	addi	sp,sp,449
    8000ad84:	00d11113          	slli	sp,sp,0xd
    8000ad88:	66710113          	addi	sp,sp,1639
    8000ad8c:	00c10463          	beq	sp,a2,8000ad94 <inst_574>
    8000ad90:	a94f506f          	j	80000024 <rvtest_error>

000000008000ad94 <inst_574>:
    8000ad94:	33333537          	lui	a0,0x33333
    8000ad98:	33350513          	addi	a0,a0,819 # 33333333 <absimmsh+0x27862586>
    8000ad9c:	00b51513          	slli	a0,a0,0xb
    8000ada0:	19950513          	addi	a0,a0,409
    8000ada4:	00b51513          	slli	a0,a0,0xb
    8000ada8:	4cc50513          	addi	a0,a0,1228
    8000adac:	00a51513          	slli	a0,a0,0xa
    8000adb0:	33450513          	addi	a0,a0,820
    8000adb4:	000005b7          	lui	a1,0x0
    8000adb8:	00058593          	mv	a1,a1
    8000adbc:	00b59593          	slli	a1,a1,0xb
    8000adc0:	5a858593          	addi	a1,a1,1448 # 5a8 <offset+0x1b0>
    8000adc4:	00b59593          	slli	a1,a1,0xb
    8000adc8:	13c58593          	addi	a1,a1,316
    8000adcc:	00a59593          	slli	a1,a1,0xa
    8000add0:	33358593          	addi	a1,a1,819
    8000add4:	40b50633          	sub	a2,a0,a1
    8000add8:	0ec0bc23          	sd	a2,248(ra)
    8000addc:	66666137          	lui	sp,0x66666
    8000ade0:	6651011b          	addiw	sp,sp,1637 # 66666665 <absimmsh+0x5ab958b8>
    8000ade4:	01111113          	slli	sp,sp,0x11
    8000ade8:	8b910113          	addi	sp,sp,-1863
    8000adec:	00e11113          	slli	sp,sp,0xe
    8000adf0:	00110113          	addi	sp,sp,1
    8000adf4:	00c10463          	beq	sp,a2,8000adfc <inst_575>
    8000adf8:	a2cf506f          	j	80000024 <rvtest_error>

000000008000adfc <inst_575>:
    8000adfc:	33333537          	lui	a0,0x33333
    8000ae00:	33350513          	addi	a0,a0,819 # 33333333 <absimmsh+0x27862586>
    8000ae04:	00b51513          	slli	a0,a0,0xb
    8000ae08:	19950513          	addi	a0,a0,409
    8000ae0c:	00b51513          	slli	a0,a0,0xb
    8000ae10:	4cc50513          	addi	a0,a0,1228
    8000ae14:	00a51513          	slli	a0,a0,0xa
    8000ae18:	33450513          	addi	a0,a0,820
    8000ae1c:	00200593          	li	a1,2
    8000ae20:	40b50633          	sub	a2,a0,a1
    8000ae24:	10c0b023          	sd	a2,256(ra)
    8000ae28:	03333137          	lui	sp,0x3333
    8000ae2c:	3331011b          	addiw	sp,sp,819 # 3333333 <offset+0x3332f3b>
    8000ae30:	00c11113          	slli	sp,sp,0xc
    8000ae34:	33310113          	addi	sp,sp,819
    8000ae38:	00c11113          	slli	sp,sp,0xc
    8000ae3c:	33310113          	addi	sp,sp,819
    8000ae40:	00c11113          	slli	sp,sp,0xc
    8000ae44:	33210113          	addi	sp,sp,818
    8000ae48:	00c10463          	beq	sp,a2,8000ae50 <inst_576>
    8000ae4c:	9d8f506f          	j	80000024 <rvtest_error>

000000008000ae50 <inst_576>:
    8000ae50:	33333537          	lui	a0,0x33333
    8000ae54:	33350513          	addi	a0,a0,819 # 33333333 <absimmsh+0x27862586>
    8000ae58:	00b51513          	slli	a0,a0,0xb
    8000ae5c:	19950513          	addi	a0,a0,409
    8000ae60:	00b51513          	slli	a0,a0,0xb
    8000ae64:	4cc50513          	addi	a0,a0,1228
    8000ae68:	00a51513          	slli	a0,a0,0xa
    8000ae6c:	33450513          	addi	a0,a0,820
    8000ae70:	555555b7          	lui	a1,0x55555
    8000ae74:	55558593          	addi	a1,a1,1365 # 55555555 <absimmsh+0x49a847a8>
    8000ae78:	00b59593          	slli	a1,a1,0xb
    8000ae7c:	2aa58593          	addi	a1,a1,682
    8000ae80:	00b59593          	slli	a1,a1,0xb
    8000ae84:	55558593          	addi	a1,a1,1365
    8000ae88:	00a59593          	slli	a1,a1,0xa
    8000ae8c:	15458593          	addi	a1,a1,340
    8000ae90:	40b50633          	sub	a2,a0,a1
    8000ae94:	10c0b423          	sd	a2,264(ra)
    8000ae98:	feeef137          	lui	sp,0xfeeef
    8000ae9c:	eef1011b          	addiw	sp,sp,-273 # fffffffffeeeeeef <absimm+0xffffffff441e141f>
    8000aea0:	00c11113          	slli	sp,sp,0xc
    8000aea4:	eef10113          	addi	sp,sp,-273
    8000aea8:	00c11113          	slli	sp,sp,0xc
    8000aeac:	eef10113          	addi	sp,sp,-273
    8000aeb0:	00d11113          	slli	sp,sp,0xd
    8000aeb4:	de010113          	addi	sp,sp,-544
    8000aeb8:	00c10463          	beq	sp,a2,8000aec0 <inst_577>
    8000aebc:	968f506f          	j	80000024 <rvtest_error>

000000008000aec0 <inst_577>:
    8000aec0:	33333537          	lui	a0,0x33333
    8000aec4:	33350513          	addi	a0,a0,819 # 33333333 <absimmsh+0x27862586>
    8000aec8:	00b51513          	slli	a0,a0,0xb
    8000aecc:	19950513          	addi	a0,a0,409
    8000aed0:	00b51513          	slli	a0,a0,0xb
    8000aed4:	4cc50513          	addi	a0,a0,1228
    8000aed8:	00a51513          	slli	a0,a0,0xa
    8000aedc:	33450513          	addi	a0,a0,820
    8000aee0:	00000593          	li	a1,0
    8000aee4:	40b50633          	sub	a2,a0,a1
    8000aee8:	10c0b823          	sd	a2,272(ra)
    8000aeec:	03333137          	lui	sp,0x3333
    8000aef0:	3331011b          	addiw	sp,sp,819 # 3333333 <offset+0x3332f3b>
    8000aef4:	00c11113          	slli	sp,sp,0xc
    8000aef8:	33310113          	addi	sp,sp,819
    8000aefc:	00c11113          	slli	sp,sp,0xc
    8000af00:	33310113          	addi	sp,sp,819
    8000af04:	00c11113          	slli	sp,sp,0xc
    8000af08:	33410113          	addi	sp,sp,820
    8000af0c:	00c10463          	beq	sp,a2,8000af14 <inst_578>
    8000af10:	914f506f          	j	80000024 <rvtest_error>

000000008000af14 <inst_578>:
    8000af14:	33333537          	lui	a0,0x33333
    8000af18:	33350513          	addi	a0,a0,819 # 33333333 <absimmsh+0x27862586>
    8000af1c:	00b51513          	slli	a0,a0,0xb
    8000af20:	19950513          	addi	a0,a0,409
    8000af24:	00b51513          	slli	a0,a0,0xb
    8000af28:	4cc50513          	addi	a0,a0,1228
    8000af2c:	00a51513          	slli	a0,a0,0xa
    8000af30:	33450513          	addi	a0,a0,820
    8000af34:	00400593          	li	a1,4
    8000af38:	40b50633          	sub	a2,a0,a1
    8000af3c:	10c0bc23          	sd	a2,280(ra)
    8000af40:	03333137          	lui	sp,0x3333
    8000af44:	3331011b          	addiw	sp,sp,819 # 3333333 <offset+0x3332f3b>
    8000af48:	00c11113          	slli	sp,sp,0xc
    8000af4c:	33310113          	addi	sp,sp,819
    8000af50:	00c11113          	slli	sp,sp,0xc
    8000af54:	33310113          	addi	sp,sp,819
    8000af58:	00c11113          	slli	sp,sp,0xc
    8000af5c:	33010113          	addi	sp,sp,816
    8000af60:	00c10463          	beq	sp,a2,8000af68 <inst_579>
    8000af64:	8c0f506f          	j	80000024 <rvtest_error>

000000008000af68 <inst_579>:
    8000af68:	33333537          	lui	a0,0x33333
    8000af6c:	33350513          	addi	a0,a0,819 # 33333333 <absimmsh+0x27862586>
    8000af70:	00b51513          	slli	a0,a0,0xb
    8000af74:	19950513          	addi	a0,a0,409
    8000af78:	00b51513          	slli	a0,a0,0xb
    8000af7c:	4cc50513          	addi	a0,a0,1228
    8000af80:	00a51513          	slli	a0,a0,0xa
    8000af84:	33450513          	addi	a0,a0,820
    8000af88:	333335b7          	lui	a1,0x33333
    8000af8c:	33358593          	addi	a1,a1,819 # 33333333 <absimmsh+0x27862586>
    8000af90:	00b59593          	slli	a1,a1,0xb
    8000af94:	19958593          	addi	a1,a1,409
    8000af98:	00b59593          	slli	a1,a1,0xb
    8000af9c:	4cc58593          	addi	a1,a1,1228
    8000afa0:	00a59593          	slli	a1,a1,0xa
    8000afa4:	33258593          	addi	a1,a1,818
    8000afa8:	40b50633          	sub	a2,a0,a1
    8000afac:	12c0b023          	sd	a2,288(ra)
    8000afb0:	00200113          	li	sp,2
    8000afb4:	00c10463          	beq	sp,a2,8000afbc <inst_580>
    8000afb8:	86cf506f          	j	80000024 <rvtest_error>

000000008000afbc <inst_580>:
    8000afbc:	33333537          	lui	a0,0x33333
    8000afc0:	33350513          	addi	a0,a0,819 # 33333333 <absimmsh+0x27862586>
    8000afc4:	00b51513          	slli	a0,a0,0xb
    8000afc8:	19950513          	addi	a0,a0,409
    8000afcc:	00b51513          	slli	a0,a0,0xb
    8000afd0:	4cc50513          	addi	a0,a0,1228
    8000afd4:	00a51513          	slli	a0,a0,0xa
    8000afd8:	33450513          	addi	a0,a0,820
    8000afdc:	666665b7          	lui	a1,0x66666
    8000afe0:	66658593          	addi	a1,a1,1638 # 66666666 <absimmsh+0x5ab958b9>
    8000afe4:	00b59593          	slli	a1,a1,0xb
    8000afe8:	33358593          	addi	a1,a1,819
    8000afec:	00b59593          	slli	a1,a1,0xb
    8000aff0:	19958593          	addi	a1,a1,409
    8000aff4:	00a59593          	slli	a1,a1,0xa
    8000aff8:	26558593          	addi	a1,a1,613
    8000affc:	40b50633          	sub	a2,a0,a1
    8000b000:	12c0b423          	sd	a2,296(ra)
    8000b004:	fcccd137          	lui	sp,0xfcccd
    8000b008:	ccd1011b          	addiw	sp,sp,-819 # fffffffffccccccd <absimm+0xffffffff41fbf1fd>
    8000b00c:	00c11113          	slli	sp,sp,0xc
    8000b010:	ccd10113          	addi	sp,sp,-819
    8000b014:	00c11113          	slli	sp,sp,0xc
    8000b018:	ccd10113          	addi	sp,sp,-819
    8000b01c:	00c11113          	slli	sp,sp,0xc
    8000b020:	ccf10113          	addi	sp,sp,-817
    8000b024:	00c10463          	beq	sp,a2,8000b02c <inst_581>
    8000b028:	ffdf406f          	j	80000024 <rvtest_error>

000000008000b02c <inst_581>:
    8000b02c:	33333537          	lui	a0,0x33333
    8000b030:	33350513          	addi	a0,a0,819 # 33333333 <absimmsh+0x27862586>
    8000b034:	00b51513          	slli	a0,a0,0xb
    8000b038:	19950513          	addi	a0,a0,409
    8000b03c:	00b51513          	slli	a0,a0,0xb
    8000b040:	4cc50513          	addi	a0,a0,1228
    8000b044:	00a51513          	slli	a0,a0,0xa
    8000b048:	33450513          	addi	a0,a0,820
    8000b04c:	000005b7          	lui	a1,0x0
    8000b050:	00058593          	mv	a1,a1
    8000b054:	00b59593          	slli	a1,a1,0xb
    8000b058:	5a858593          	addi	a1,a1,1448 # 5a8 <offset+0x1b0>
    8000b05c:	00b59593          	slli	a1,a1,0xb
    8000b060:	13c58593          	addi	a1,a1,316
    8000b064:	00a59593          	slli	a1,a1,0xa
    8000b068:	33258593          	addi	a1,a1,818
    8000b06c:	40b50633          	sub	a2,a0,a1
    8000b070:	12c0b823          	sd	a2,304(ra)
    8000b074:	66666137          	lui	sp,0x66666
    8000b078:	6651011b          	addiw	sp,sp,1637 # 66666665 <absimmsh+0x5ab958b8>
    8000b07c:	01111113          	slli	sp,sp,0x11
    8000b080:	8b910113          	addi	sp,sp,-1863
    8000b084:	00e11113          	slli	sp,sp,0xe
    8000b088:	00210113          	addi	sp,sp,2
    8000b08c:	00c10463          	beq	sp,a2,8000b094 <inst_582>
    8000b090:	f95f406f          	j	80000024 <rvtest_error>

000000008000b094 <inst_582>:
    8000b094:	33333537          	lui	a0,0x33333
    8000b098:	33350513          	addi	a0,a0,819 # 33333333 <absimmsh+0x27862586>
    8000b09c:	00b51513          	slli	a0,a0,0xb
    8000b0a0:	19950513          	addi	a0,a0,409
    8000b0a4:	00b51513          	slli	a0,a0,0xb
    8000b0a8:	4cc50513          	addi	a0,a0,1228
    8000b0ac:	00a51513          	slli	a0,a0,0xa
    8000b0b0:	33450513          	addi	a0,a0,820
    8000b0b4:	555555b7          	lui	a1,0x55555
    8000b0b8:	55558593          	addi	a1,a1,1365 # 55555555 <absimmsh+0x49a847a8>
    8000b0bc:	00b59593          	slli	a1,a1,0xb
    8000b0c0:	2aa58593          	addi	a1,a1,682
    8000b0c4:	00b59593          	slli	a1,a1,0xb
    8000b0c8:	55558593          	addi	a1,a1,1365
    8000b0cc:	00a59593          	slli	a1,a1,0xa
    8000b0d0:	15658593          	addi	a1,a1,342
    8000b0d4:	40b50633          	sub	a2,a0,a1
    8000b0d8:	12c0bc23          	sd	a2,312(ra)
    8000b0dc:	feeef137          	lui	sp,0xfeeef
    8000b0e0:	eef1011b          	addiw	sp,sp,-273 # fffffffffeeeeeef <absimm+0xffffffff441e141f>
    8000b0e4:	00c11113          	slli	sp,sp,0xc
    8000b0e8:	eef10113          	addi	sp,sp,-273
    8000b0ec:	00c11113          	slli	sp,sp,0xc
    8000b0f0:	eef10113          	addi	sp,sp,-273
    8000b0f4:	00d11113          	slli	sp,sp,0xd
    8000b0f8:	dde10113          	addi	sp,sp,-546
    8000b0fc:	00c10463          	beq	sp,a2,8000b104 <inst_583>
    8000b100:	f25f406f          	j	80000024 <rvtest_error>

000000008000b104 <inst_583>:
    8000b104:	33333537          	lui	a0,0x33333
    8000b108:	33350513          	addi	a0,a0,819 # 33333333 <absimmsh+0x27862586>
    8000b10c:	00b51513          	slli	a0,a0,0xb
    8000b110:	19950513          	addi	a0,a0,409
    8000b114:	00b51513          	slli	a0,a0,0xb
    8000b118:	4cc50513          	addi	a0,a0,1228
    8000b11c:	00a51513          	slli	a0,a0,0xa
    8000b120:	33450513          	addi	a0,a0,820
    8000b124:	aaaab5b7          	lui	a1,0xaaaab
    8000b128:	aaa58593          	addi	a1,a1,-1366 # ffffffffaaaaaaaa <absimm+0xfffffffeefd9cfda>
    8000b12c:	00b59593          	slli	a1,a1,0xb
    8000b130:	55558593          	addi	a1,a1,1365
    8000b134:	00b59593          	slli	a1,a1,0xb
    8000b138:	2aa58593          	addi	a1,a1,682
    8000b13c:	00a59593          	slli	a1,a1,0xa
    8000b140:	2ab58593          	addi	a1,a1,683
    8000b144:	40b50633          	sub	a2,a0,a1
    8000b148:	14c0b023          	sd	a2,320(ra)
    8000b14c:	f8889137          	lui	sp,0xf8889
    8000b150:	8891011b          	addiw	sp,sp,-1911 # fffffffff8888889 <absimm+0xffffffff3db7adb9>
    8000b154:	00c11113          	slli	sp,sp,0xc
    8000b158:	88910113          	addi	sp,sp,-1911
    8000b15c:	00c11113          	slli	sp,sp,0xc
    8000b160:	88910113          	addi	sp,sp,-1911
    8000b164:	00c11113          	slli	sp,sp,0xc
    8000b168:	88910113          	addi	sp,sp,-1911
    8000b16c:	00c10463          	beq	sp,a2,8000b174 <inst_584>
    8000b170:	eb5f406f          	j	80000024 <rvtest_error>

000000008000b174 <inst_584>:
    8000b174:	33333537          	lui	a0,0x33333
    8000b178:	33350513          	addi	a0,a0,819 # 33333333 <absimmsh+0x27862586>
    8000b17c:	00b51513          	slli	a0,a0,0xb
    8000b180:	19950513          	addi	a0,a0,409
    8000b184:	00b51513          	slli	a0,a0,0xb
    8000b188:	4cc50513          	addi	a0,a0,1228
    8000b18c:	00a51513          	slli	a0,a0,0xa
    8000b190:	33450513          	addi	a0,a0,820
    8000b194:	00600593          	li	a1,6
    8000b198:	40b50633          	sub	a2,a0,a1
    8000b19c:	14c0b423          	sd	a2,328(ra)
    8000b1a0:	03333137          	lui	sp,0x3333
    8000b1a4:	3331011b          	addiw	sp,sp,819 # 3333333 <offset+0x3332f3b>
    8000b1a8:	00c11113          	slli	sp,sp,0xc
    8000b1ac:	33310113          	addi	sp,sp,819
    8000b1b0:	00c11113          	slli	sp,sp,0xc
    8000b1b4:	33310113          	addi	sp,sp,819
    8000b1b8:	00c11113          	slli	sp,sp,0xc
    8000b1bc:	32e10113          	addi	sp,sp,814
    8000b1c0:	00c10463          	beq	sp,a2,8000b1c8 <inst_585>
    8000b1c4:	e61f406f          	j	80000024 <rvtest_error>

000000008000b1c8 <inst_585>:
    8000b1c8:	33333537          	lui	a0,0x33333
    8000b1cc:	33350513          	addi	a0,a0,819 # 33333333 <absimmsh+0x27862586>
    8000b1d0:	00b51513          	slli	a0,a0,0xb
    8000b1d4:	19950513          	addi	a0,a0,409
    8000b1d8:	00b51513          	slli	a0,a0,0xb
    8000b1dc:	4cc50513          	addi	a0,a0,1228
    8000b1e0:	00a51513          	slli	a0,a0,0xa
    8000b1e4:	33450513          	addi	a0,a0,820
    8000b1e8:	333335b7          	lui	a1,0x33333
    8000b1ec:	33358593          	addi	a1,a1,819 # 33333333 <absimmsh+0x27862586>
    8000b1f0:	00b59593          	slli	a1,a1,0xb
    8000b1f4:	19958593          	addi	a1,a1,409
    8000b1f8:	00b59593          	slli	a1,a1,0xb
    8000b1fc:	4cc58593          	addi	a1,a1,1228
    8000b200:	00a59593          	slli	a1,a1,0xa
    8000b204:	33458593          	addi	a1,a1,820
    8000b208:	40b50633          	sub	a2,a0,a1
    8000b20c:	14c0b823          	sd	a2,336(ra)
    8000b210:	00000113          	li	sp,0
    8000b214:	00c10463          	beq	sp,a2,8000b21c <inst_586>
    8000b218:	e0df406f          	j	80000024 <rvtest_error>

000000008000b21c <inst_586>:
    8000b21c:	33333537          	lui	a0,0x33333
    8000b220:	33350513          	addi	a0,a0,819 # 33333333 <absimmsh+0x27862586>
    8000b224:	00b51513          	slli	a0,a0,0xb
    8000b228:	19950513          	addi	a0,a0,409
    8000b22c:	00b51513          	slli	a0,a0,0xb
    8000b230:	4cc50513          	addi	a0,a0,1228
    8000b234:	00a51513          	slli	a0,a0,0xa
    8000b238:	33450513          	addi	a0,a0,820
    8000b23c:	666665b7          	lui	a1,0x66666
    8000b240:	66658593          	addi	a1,a1,1638 # 66666666 <absimmsh+0x5ab958b9>
    8000b244:	00b59593          	slli	a1,a1,0xb
    8000b248:	33358593          	addi	a1,a1,819
    8000b24c:	00b59593          	slli	a1,a1,0xb
    8000b250:	19958593          	addi	a1,a1,409
    8000b254:	00a59593          	slli	a1,a1,0xa
    8000b258:	26758593          	addi	a1,a1,615
    8000b25c:	40b50633          	sub	a2,a0,a1
    8000b260:	14c0bc23          	sd	a2,344(ra)
    8000b264:	fcccd137          	lui	sp,0xfcccd
    8000b268:	ccd1011b          	addiw	sp,sp,-819 # fffffffffccccccd <absimm+0xffffffff41fbf1fd>
    8000b26c:	00c11113          	slli	sp,sp,0xc
    8000b270:	ccd10113          	addi	sp,sp,-819
    8000b274:	00c11113          	slli	sp,sp,0xc
    8000b278:	ccd10113          	addi	sp,sp,-819
    8000b27c:	00c11113          	slli	sp,sp,0xc
    8000b280:	ccd10113          	addi	sp,sp,-819
    8000b284:	00c10463          	beq	sp,a2,8000b28c <inst_587>
    8000b288:	d9df406f          	j	80000024 <rvtest_error>

000000008000b28c <inst_587>:
    8000b28c:	33333537          	lui	a0,0x33333
    8000b290:	33350513          	addi	a0,a0,819 # 33333333 <absimmsh+0x27862586>
    8000b294:	00b51513          	slli	a0,a0,0xb
    8000b298:	19950513          	addi	a0,a0,409
    8000b29c:	00b51513          	slli	a0,a0,0xb
    8000b2a0:	4cc50513          	addi	a0,a0,1228
    8000b2a4:	00a51513          	slli	a0,a0,0xa
    8000b2a8:	33450513          	addi	a0,a0,820
    8000b2ac:	000005b7          	lui	a1,0x0
    8000b2b0:	fff58593          	addi	a1,a1,-1
    8000b2b4:	00b59593          	slli	a1,a1,0xb
    8000b2b8:	25758593          	addi	a1,a1,599
    8000b2bc:	00b59593          	slli	a1,a1,0xb
    8000b2c0:	6c358593          	addi	a1,a1,1731
    8000b2c4:	00a59593          	slli	a1,a1,0xa
    8000b2c8:	0ce58593          	addi	a1,a1,206
    8000b2cc:	40b50633          	sub	a2,a0,a1
    8000b2d0:	16c0b023          	sd	a2,352(ra)
    8000b2d4:	00333137          	lui	sp,0x333
    8000b2d8:	3331011b          	addiw	sp,sp,819 # 333333 <offset+0x332f3b>
    8000b2dc:	00d11113          	slli	sp,sp,0xd
    8000b2e0:	67d10113          	addi	sp,sp,1661
    8000b2e4:	00e11113          	slli	sp,sp,0xe
    8000b2e8:	1c110113          	addi	sp,sp,449
    8000b2ec:	00d11113          	slli	sp,sp,0xd
    8000b2f0:	66610113          	addi	sp,sp,1638
    8000b2f4:	00c10463          	beq	sp,a2,8000b2fc <inst_588>
    8000b2f8:	d2df406f          	j	80000024 <rvtest_error>

000000008000b2fc <inst_588>:
    8000b2fc:	33333537          	lui	a0,0x33333
    8000b300:	33350513          	addi	a0,a0,819 # 33333333 <absimmsh+0x27862586>
    8000b304:	00b51513          	slli	a0,a0,0xb
    8000b308:	19950513          	addi	a0,a0,409
    8000b30c:	00b51513          	slli	a0,a0,0xb
    8000b310:	4cc50513          	addi	a0,a0,1228
    8000b314:	00a51513          	slli	a0,a0,0xa
    8000b318:	33450513          	addi	a0,a0,820
    8000b31c:	000005b7          	lui	a1,0x0
    8000b320:	00058593          	mv	a1,a1
    8000b324:	00b59593          	slli	a1,a1,0xb
    8000b328:	5a858593          	addi	a1,a1,1448 # 5a8 <offset+0x1b0>
    8000b32c:	00b59593          	slli	a1,a1,0xb
    8000b330:	13c58593          	addi	a1,a1,316
    8000b334:	00a59593          	slli	a1,a1,0xa
    8000b338:	33458593          	addi	a1,a1,820
    8000b33c:	40b50633          	sub	a2,a0,a1
    8000b340:	16c0b423          	sd	a2,360(ra)
    8000b344:	66666137          	lui	sp,0x66666
    8000b348:	6651011b          	addiw	sp,sp,1637 # 66666665 <absimmsh+0x5ab958b8>
    8000b34c:	01111113          	slli	sp,sp,0x11
    8000b350:	8b910113          	addi	sp,sp,-1863
    8000b354:	00e11113          	slli	sp,sp,0xe
    8000b358:	00c10463          	beq	sp,a2,8000b360 <inst_589>
    8000b35c:	cc9f406f          	j	80000024 <rvtest_error>

000000008000b360 <inst_589>:
    8000b360:	66666537          	lui	a0,0x66666
    8000b364:	66650513          	addi	a0,a0,1638 # 66666666 <absimmsh+0x5ab958b9>
    8000b368:	00b51513          	slli	a0,a0,0xb
    8000b36c:	33350513          	addi	a0,a0,819
    8000b370:	00b51513          	slli	a0,a0,0xb
    8000b374:	19950513          	addi	a0,a0,409
    8000b378:	00a51513          	slli	a0,a0,0xa
    8000b37c:	26750513          	addi	a0,a0,615
    8000b380:	00300593          	li	a1,3
    8000b384:	40b50633          	sub	a2,a0,a1
    8000b388:	16c0b823          	sd	a2,368(ra)
    8000b38c:	03333137          	lui	sp,0x3333
    8000b390:	3331011b          	addiw	sp,sp,819 # 3333333 <offset+0x3332f3b>
    8000b394:	00c11113          	slli	sp,sp,0xc
    8000b398:	33310113          	addi	sp,sp,819
    8000b39c:	00c11113          	slli	sp,sp,0xc
    8000b3a0:	33310113          	addi	sp,sp,819
    8000b3a4:	00d11113          	slli	sp,sp,0xd
    8000b3a8:	66410113          	addi	sp,sp,1636
    8000b3ac:	00c10463          	beq	sp,a2,8000b3b4 <inst_590>
    8000b3b0:	c75f406f          	j	80000024 <rvtest_error>

000000008000b3b4 <inst_590>:
    8000b3b4:	66666537          	lui	a0,0x66666
    8000b3b8:	66650513          	addi	a0,a0,1638 # 66666666 <absimmsh+0x5ab958b9>
    8000b3bc:	00b51513          	slli	a0,a0,0xb
    8000b3c0:	33350513          	addi	a0,a0,819
    8000b3c4:	00b51513          	slli	a0,a0,0xb
    8000b3c8:	19950513          	addi	a0,a0,409
    8000b3cc:	00a51513          	slli	a0,a0,0xa
    8000b3d0:	26750513          	addi	a0,a0,615
    8000b3d4:	555555b7          	lui	a1,0x55555
    8000b3d8:	55558593          	addi	a1,a1,1365 # 55555555 <absimmsh+0x49a847a8>
    8000b3dc:	00b59593          	slli	a1,a1,0xb
    8000b3e0:	2aa58593          	addi	a1,a1,682
    8000b3e4:	00b59593          	slli	a1,a1,0xb
    8000b3e8:	55558593          	addi	a1,a1,1365
    8000b3ec:	00a59593          	slli	a1,a1,0xa
    8000b3f0:	15558593          	addi	a1,a1,341
    8000b3f4:	40b50633          	sub	a2,a0,a1
    8000b3f8:	16c0bc23          	sd	a2,376(ra)
    8000b3fc:	01111137          	lui	sp,0x1111
    8000b400:	1111011b          	addiw	sp,sp,273 # 1111111 <offset+0x1110d19>
    8000b404:	00c11113          	slli	sp,sp,0xc
    8000b408:	11110113          	addi	sp,sp,273
    8000b40c:	00c11113          	slli	sp,sp,0xc
    8000b410:	11110113          	addi	sp,sp,273
    8000b414:	00c11113          	slli	sp,sp,0xc
    8000b418:	11210113          	addi	sp,sp,274
    8000b41c:	00c10463          	beq	sp,a2,8000b424 <inst_591>
    8000b420:	c05f406f          	j	80000024 <rvtest_error>

000000008000b424 <inst_591>:
    8000b424:	66666537          	lui	a0,0x66666
    8000b428:	66650513          	addi	a0,a0,1638 # 66666666 <absimmsh+0x5ab958b9>
    8000b42c:	00b51513          	slli	a0,a0,0xb
    8000b430:	33350513          	addi	a0,a0,819
    8000b434:	00b51513          	slli	a0,a0,0xb
    8000b438:	19950513          	addi	a0,a0,409
    8000b43c:	00a51513          	slli	a0,a0,0xa
    8000b440:	26750513          	addi	a0,a0,615
    8000b444:	aaaab5b7          	lui	a1,0xaaaab
    8000b448:	aaa58593          	addi	a1,a1,-1366 # ffffffffaaaaaaaa <absimm+0xfffffffeefd9cfda>
    8000b44c:	00b59593          	slli	a1,a1,0xb
    8000b450:	55558593          	addi	a1,a1,1365
    8000b454:	00b59593          	slli	a1,a1,0xb
    8000b458:	2aa58593          	addi	a1,a1,682
    8000b45c:	00a59593          	slli	a1,a1,0xa
    8000b460:	2aa58593          	addi	a1,a1,682
    8000b464:	40b50633          	sub	a2,a0,a1
    8000b468:	18c0b023          	sd	a2,384(ra)
    8000b46c:	feeef137          	lui	sp,0xfeeef
    8000b470:	eef1011b          	addiw	sp,sp,-273 # fffffffffeeeeeef <absimm+0xffffffff441e141f>
    8000b474:	00c11113          	slli	sp,sp,0xc
    8000b478:	eef10113          	addi	sp,sp,-273
    8000b47c:	00c11113          	slli	sp,sp,0xc
    8000b480:	eef10113          	addi	sp,sp,-273
    8000b484:	00e11113          	slli	sp,sp,0xe
    8000b488:	bbd10113          	addi	sp,sp,-1091
    8000b48c:	00c10463          	beq	sp,a2,8000b494 <inst_592>
    8000b490:	b95f406f          	j	80000024 <rvtest_error>

000000008000b494 <inst_592>:
    8000b494:	66666537          	lui	a0,0x66666
    8000b498:	66650513          	addi	a0,a0,1638 # 66666666 <absimmsh+0x5ab958b9>
    8000b49c:	00b51513          	slli	a0,a0,0xb
    8000b4a0:	33350513          	addi	a0,a0,819
    8000b4a4:	00b51513          	slli	a0,a0,0xb
    8000b4a8:	19950513          	addi	a0,a0,409
    8000b4ac:	00a51513          	slli	a0,a0,0xa
    8000b4b0:	26750513          	addi	a0,a0,615
    8000b4b4:	00500593          	li	a1,5
    8000b4b8:	40b50633          	sub	a2,a0,a1
    8000b4bc:	18c0b423          	sd	a2,392(ra)
    8000b4c0:	03333137          	lui	sp,0x3333
    8000b4c4:	3331011b          	addiw	sp,sp,819 # 3333333 <offset+0x3332f3b>
    8000b4c8:	00c11113          	slli	sp,sp,0xc
    8000b4cc:	33310113          	addi	sp,sp,819
    8000b4d0:	00c11113          	slli	sp,sp,0xc
    8000b4d4:	33310113          	addi	sp,sp,819
    8000b4d8:	00d11113          	slli	sp,sp,0xd
    8000b4dc:	66210113          	addi	sp,sp,1634
    8000b4e0:	00c10463          	beq	sp,a2,8000b4e8 <inst_593>
    8000b4e4:	b41f406f          	j	80000024 <rvtest_error>

000000008000b4e8 <inst_593>:
    8000b4e8:	66666537          	lui	a0,0x66666
    8000b4ec:	66650513          	addi	a0,a0,1638 # 66666666 <absimmsh+0x5ab958b9>
    8000b4f0:	00b51513          	slli	a0,a0,0xb
    8000b4f4:	33350513          	addi	a0,a0,819
    8000b4f8:	00b51513          	slli	a0,a0,0xb
    8000b4fc:	19950513          	addi	a0,a0,409
    8000b500:	00a51513          	slli	a0,a0,0xa
    8000b504:	26750513          	addi	a0,a0,615
    8000b508:	333335b7          	lui	a1,0x33333
    8000b50c:	33358593          	addi	a1,a1,819 # 33333333 <absimmsh+0x27862586>
    8000b510:	00b59593          	slli	a1,a1,0xb
    8000b514:	19958593          	addi	a1,a1,409
    8000b518:	00b59593          	slli	a1,a1,0xb
    8000b51c:	4cc58593          	addi	a1,a1,1228
    8000b520:	00a59593          	slli	a1,a1,0xa
    8000b524:	33358593          	addi	a1,a1,819
    8000b528:	40b50633          	sub	a2,a0,a1
    8000b52c:	18c0b823          	sd	a2,400(ra)
    8000b530:	03333137          	lui	sp,0x3333
    8000b534:	3331011b          	addiw	sp,sp,819 # 3333333 <offset+0x3332f3b>
    8000b538:	00c11113          	slli	sp,sp,0xc
    8000b53c:	33310113          	addi	sp,sp,819
    8000b540:	00c11113          	slli	sp,sp,0xc
    8000b544:	33310113          	addi	sp,sp,819
    8000b548:	00c11113          	slli	sp,sp,0xc
    8000b54c:	33410113          	addi	sp,sp,820
    8000b550:	00c10463          	beq	sp,a2,8000b558 <inst_594>
    8000b554:	ad1f406f          	j	80000024 <rvtest_error>

000000008000b558 <inst_594>:
    8000b558:	66666537          	lui	a0,0x66666
    8000b55c:	66650513          	addi	a0,a0,1638 # 66666666 <absimmsh+0x5ab958b9>
    8000b560:	00b51513          	slli	a0,a0,0xb
    8000b564:	33350513          	addi	a0,a0,819
    8000b568:	00b51513          	slli	a0,a0,0xb
    8000b56c:	19950513          	addi	a0,a0,409
    8000b570:	00a51513          	slli	a0,a0,0xa
    8000b574:	26750513          	addi	a0,a0,615
    8000b578:	666665b7          	lui	a1,0x66666
    8000b57c:	66658593          	addi	a1,a1,1638 # 66666666 <absimmsh+0x5ab958b9>
    8000b580:	00b59593          	slli	a1,a1,0xb
    8000b584:	33358593          	addi	a1,a1,819
    8000b588:	00b59593          	slli	a1,a1,0xb
    8000b58c:	19958593          	addi	a1,a1,409
    8000b590:	00a59593          	slli	a1,a1,0xa
    8000b594:	26658593          	addi	a1,a1,614
    8000b598:	40b50633          	sub	a2,a0,a1
    8000b59c:	18c0bc23          	sd	a2,408(ra)
    8000b5a0:	00100113          	li	sp,1
    8000b5a4:	00c10463          	beq	sp,a2,8000b5ac <inst_595>
    8000b5a8:	a7df406f          	j	80000024 <rvtest_error>

000000008000b5ac <inst_595>:
    8000b5ac:	66666537          	lui	a0,0x66666
    8000b5b0:	66650513          	addi	a0,a0,1638 # 66666666 <absimmsh+0x5ab958b9>
    8000b5b4:	00b51513          	slli	a0,a0,0xb
    8000b5b8:	33350513          	addi	a0,a0,819
    8000b5bc:	00b51513          	slli	a0,a0,0xb
    8000b5c0:	19950513          	addi	a0,a0,409
    8000b5c4:	00a51513          	slli	a0,a0,0xa
    8000b5c8:	26750513          	addi	a0,a0,615
    8000b5cc:	000005b7          	lui	a1,0x0
    8000b5d0:	fff58593          	addi	a1,a1,-1
    8000b5d4:	00b59593          	slli	a1,a1,0xb
    8000b5d8:	25758593          	addi	a1,a1,599
    8000b5dc:	00b59593          	slli	a1,a1,0xb
    8000b5e0:	6c358593          	addi	a1,a1,1731
    8000b5e4:	00a59593          	slli	a1,a1,0xa
    8000b5e8:	0cd58593          	addi	a1,a1,205
    8000b5ec:	40b50633          	sub	a2,a0,a1
    8000b5f0:	1ac0b023          	sd	a2,416(ra)
    8000b5f4:	00ccd137          	lui	sp,0xccd
    8000b5f8:	ccd1011b          	addiw	sp,sp,-819 # cccccd <offset+0xccc8d5>
    8000b5fc:	00d11113          	slli	sp,sp,0xd
    8000b600:	9c710113          	addi	sp,sp,-1593
    8000b604:	00d11113          	slli	sp,sp,0xd
    8000b608:	b5b10113          	addi	sp,sp,-1189
    8000b60c:	00d11113          	slli	sp,sp,0xd
    8000b610:	99a10113          	addi	sp,sp,-1638
    8000b614:	00c10463          	beq	sp,a2,8000b61c <inst_596>
    8000b618:	a0df406f          	j	80000024 <rvtest_error>

000000008000b61c <inst_596>:
    8000b61c:	66666537          	lui	a0,0x66666
    8000b620:	66650513          	addi	a0,a0,1638 # 66666666 <absimmsh+0x5ab958b9>
    8000b624:	00b51513          	slli	a0,a0,0xb
    8000b628:	33350513          	addi	a0,a0,819
    8000b62c:	00b51513          	slli	a0,a0,0xb
    8000b630:	19950513          	addi	a0,a0,409
    8000b634:	00a51513          	slli	a0,a0,0xa
    8000b638:	26750513          	addi	a0,a0,615
    8000b63c:	000005b7          	lui	a1,0x0
    8000b640:	00058593          	mv	a1,a1
    8000b644:	00b59593          	slli	a1,a1,0xb
    8000b648:	5a858593          	addi	a1,a1,1448 # 5a8 <offset+0x1b0>
    8000b64c:	00b59593          	slli	a1,a1,0xb
    8000b650:	13c58593          	addi	a1,a1,316
    8000b654:	00a59593          	slli	a1,a1,0xa
    8000b658:	33358593          	addi	a1,a1,819
    8000b65c:	40b50633          	sub	a2,a0,a1
    8000b660:	1ac0b423          	sd	a2,424(ra)
    8000b664:	03333137          	lui	sp,0x3333
    8000b668:	3331011b          	addiw	sp,sp,819 # 3333333 <offset+0x3332f3b>
    8000b66c:	00d11113          	slli	sp,sp,0xd
    8000b670:	5b110113          	addi	sp,sp,1457
    8000b674:	00c11113          	slli	sp,sp,0xc
    8000b678:	61710113          	addi	sp,sp,1559
    8000b67c:	00c11113          	slli	sp,sp,0xc
    8000b680:	33410113          	addi	sp,sp,820
    8000b684:	00c10463          	beq	sp,a2,8000b68c <inst_597>
    8000b688:	99df406f          	j	80000024 <rvtest_error>

000000008000b68c <inst_597>:
    8000b68c:	66666537          	lui	a0,0x66666
    8000b690:	66650513          	addi	a0,a0,1638 # 66666666 <absimmsh+0x5ab958b9>
    8000b694:	00b51513          	slli	a0,a0,0xb
    8000b698:	33350513          	addi	a0,a0,819
    8000b69c:	00b51513          	slli	a0,a0,0xb
    8000b6a0:	19950513          	addi	a0,a0,409
    8000b6a4:	00a51513          	slli	a0,a0,0xa
    8000b6a8:	26750513          	addi	a0,a0,615
    8000b6ac:	00200593          	li	a1,2
    8000b6b0:	40b50633          	sub	a2,a0,a1
    8000b6b4:	1ac0b823          	sd	a2,432(ra)
    8000b6b8:	03333137          	lui	sp,0x3333
    8000b6bc:	3331011b          	addiw	sp,sp,819 # 3333333 <offset+0x3332f3b>
    8000b6c0:	00c11113          	slli	sp,sp,0xc
    8000b6c4:	33310113          	addi	sp,sp,819
    8000b6c8:	00c11113          	slli	sp,sp,0xc
    8000b6cc:	33310113          	addi	sp,sp,819
    8000b6d0:	00d11113          	slli	sp,sp,0xd
    8000b6d4:	66510113          	addi	sp,sp,1637
    8000b6d8:	00c10463          	beq	sp,a2,8000b6e0 <inst_598>
    8000b6dc:	949f406f          	j	80000024 <rvtest_error>

000000008000b6e0 <inst_598>:
    8000b6e0:	66666537          	lui	a0,0x66666
    8000b6e4:	66650513          	addi	a0,a0,1638 # 66666666 <absimmsh+0x5ab958b9>
    8000b6e8:	00b51513          	slli	a0,a0,0xb
    8000b6ec:	33350513          	addi	a0,a0,819
    8000b6f0:	00b51513          	slli	a0,a0,0xb
    8000b6f4:	19950513          	addi	a0,a0,409
    8000b6f8:	00a51513          	slli	a0,a0,0xa
    8000b6fc:	26750513          	addi	a0,a0,615
    8000b700:	555555b7          	lui	a1,0x55555
    8000b704:	55558593          	addi	a1,a1,1365 # 55555555 <absimmsh+0x49a847a8>
    8000b708:	00b59593          	slli	a1,a1,0xb
    8000b70c:	2aa58593          	addi	a1,a1,682
    8000b710:	00b59593          	slli	a1,a1,0xb
    8000b714:	55558593          	addi	a1,a1,1365
    8000b718:	00a59593          	slli	a1,a1,0xa
    8000b71c:	15458593          	addi	a1,a1,340
    8000b720:	40b50633          	sub	a2,a0,a1
    8000b724:	1ac0bc23          	sd	a2,440(ra)
    8000b728:	01111137          	lui	sp,0x1111
    8000b72c:	1111011b          	addiw	sp,sp,273 # 1111111 <offset+0x1110d19>
    8000b730:	00c11113          	slli	sp,sp,0xc
    8000b734:	11110113          	addi	sp,sp,273
    8000b738:	00c11113          	slli	sp,sp,0xc
    8000b73c:	11110113          	addi	sp,sp,273
    8000b740:	00c11113          	slli	sp,sp,0xc
    8000b744:	11310113          	addi	sp,sp,275
    8000b748:	00c10463          	beq	sp,a2,8000b750 <inst_599>
    8000b74c:	8d9f406f          	j	80000024 <rvtest_error>

000000008000b750 <inst_599>:
    8000b750:	66666537          	lui	a0,0x66666
    8000b754:	66650513          	addi	a0,a0,1638 # 66666666 <absimmsh+0x5ab958b9>
    8000b758:	00b51513          	slli	a0,a0,0xb
    8000b75c:	33350513          	addi	a0,a0,819
    8000b760:	00b51513          	slli	a0,a0,0xb
    8000b764:	19950513          	addi	a0,a0,409
    8000b768:	00a51513          	slli	a0,a0,0xa
    8000b76c:	26750513          	addi	a0,a0,615
    8000b770:	00000593          	li	a1,0
    8000b774:	40b50633          	sub	a2,a0,a1
    8000b778:	1cc0b023          	sd	a2,448(ra)
    8000b77c:	03333137          	lui	sp,0x3333
    8000b780:	3331011b          	addiw	sp,sp,819 # 3333333 <offset+0x3332f3b>
    8000b784:	00c11113          	slli	sp,sp,0xc
    8000b788:	33310113          	addi	sp,sp,819
    8000b78c:	00c11113          	slli	sp,sp,0xc
    8000b790:	33310113          	addi	sp,sp,819
    8000b794:	00d11113          	slli	sp,sp,0xd
    8000b798:	66710113          	addi	sp,sp,1639
    8000b79c:	00c10463          	beq	sp,a2,8000b7a4 <inst_600>
    8000b7a0:	885f406f          	j	80000024 <rvtest_error>

000000008000b7a4 <inst_600>:
    8000b7a4:	66666537          	lui	a0,0x66666
    8000b7a8:	66650513          	addi	a0,a0,1638 # 66666666 <absimmsh+0x5ab958b9>
    8000b7ac:	00b51513          	slli	a0,a0,0xb
    8000b7b0:	33350513          	addi	a0,a0,819
    8000b7b4:	00b51513          	slli	a0,a0,0xb
    8000b7b8:	19950513          	addi	a0,a0,409
    8000b7bc:	00a51513          	slli	a0,a0,0xa
    8000b7c0:	26750513          	addi	a0,a0,615
    8000b7c4:	00400593          	li	a1,4
    8000b7c8:	40b50633          	sub	a2,a0,a1
    8000b7cc:	1cc0b423          	sd	a2,456(ra)
    8000b7d0:	03333137          	lui	sp,0x3333
    8000b7d4:	3331011b          	addiw	sp,sp,819 # 3333333 <offset+0x3332f3b>
    8000b7d8:	00c11113          	slli	sp,sp,0xc
    8000b7dc:	33310113          	addi	sp,sp,819
    8000b7e0:	00c11113          	slli	sp,sp,0xc
    8000b7e4:	33310113          	addi	sp,sp,819
    8000b7e8:	00d11113          	slli	sp,sp,0xd
    8000b7ec:	66310113          	addi	sp,sp,1635
    8000b7f0:	00c10463          	beq	sp,a2,8000b7f8 <inst_601>
    8000b7f4:	831f406f          	j	80000024 <rvtest_error>

000000008000b7f8 <inst_601>:
    8000b7f8:	66666537          	lui	a0,0x66666
    8000b7fc:	66650513          	addi	a0,a0,1638 # 66666666 <absimmsh+0x5ab958b9>
    8000b800:	00b51513          	slli	a0,a0,0xb
    8000b804:	33350513          	addi	a0,a0,819
    8000b808:	00b51513          	slli	a0,a0,0xb
    8000b80c:	19950513          	addi	a0,a0,409
    8000b810:	00a51513          	slli	a0,a0,0xa
    8000b814:	26750513          	addi	a0,a0,615
    8000b818:	333335b7          	lui	a1,0x33333
    8000b81c:	33358593          	addi	a1,a1,819 # 33333333 <absimmsh+0x27862586>
    8000b820:	00b59593          	slli	a1,a1,0xb
    8000b824:	19958593          	addi	a1,a1,409
    8000b828:	00b59593          	slli	a1,a1,0xb
    8000b82c:	4cc58593          	addi	a1,a1,1228
    8000b830:	00a59593          	slli	a1,a1,0xa
    8000b834:	33258593          	addi	a1,a1,818
    8000b838:	40b50633          	sub	a2,a0,a1
    8000b83c:	1cc0b823          	sd	a2,464(ra)
    8000b840:	03333137          	lui	sp,0x3333
    8000b844:	3331011b          	addiw	sp,sp,819 # 3333333 <offset+0x3332f3b>
    8000b848:	00c11113          	slli	sp,sp,0xc
    8000b84c:	33310113          	addi	sp,sp,819
    8000b850:	00c11113          	slli	sp,sp,0xc
    8000b854:	33310113          	addi	sp,sp,819
    8000b858:	00c11113          	slli	sp,sp,0xc
    8000b85c:	33510113          	addi	sp,sp,821
    8000b860:	00c10463          	beq	sp,a2,8000b868 <inst_602>
    8000b864:	fc0f406f          	j	80000024 <rvtest_error>

000000008000b868 <inst_602>:
    8000b868:	66666537          	lui	a0,0x66666
    8000b86c:	66650513          	addi	a0,a0,1638 # 66666666 <absimmsh+0x5ab958b9>
    8000b870:	00b51513          	slli	a0,a0,0xb
    8000b874:	33350513          	addi	a0,a0,819
    8000b878:	00b51513          	slli	a0,a0,0xb
    8000b87c:	19950513          	addi	a0,a0,409
    8000b880:	00a51513          	slli	a0,a0,0xa
    8000b884:	26750513          	addi	a0,a0,615
    8000b888:	666665b7          	lui	a1,0x66666
    8000b88c:	66658593          	addi	a1,a1,1638 # 66666666 <absimmsh+0x5ab958b9>
    8000b890:	00b59593          	slli	a1,a1,0xb
    8000b894:	33358593          	addi	a1,a1,819
    8000b898:	00b59593          	slli	a1,a1,0xb
    8000b89c:	19958593          	addi	a1,a1,409
    8000b8a0:	00a59593          	slli	a1,a1,0xa
    8000b8a4:	26558593          	addi	a1,a1,613
    8000b8a8:	40b50633          	sub	a2,a0,a1
    8000b8ac:	1cc0bc23          	sd	a2,472(ra)
    8000b8b0:	00200113          	li	sp,2
    8000b8b4:	00c10463          	beq	sp,a2,8000b8bc <inst_603>
    8000b8b8:	f6cf406f          	j	80000024 <rvtest_error>

000000008000b8bc <inst_603>:
    8000b8bc:	66666537          	lui	a0,0x66666
    8000b8c0:	66650513          	addi	a0,a0,1638 # 66666666 <absimmsh+0x5ab958b9>
    8000b8c4:	00b51513          	slli	a0,a0,0xb
    8000b8c8:	33350513          	addi	a0,a0,819
    8000b8cc:	00b51513          	slli	a0,a0,0xb
    8000b8d0:	19950513          	addi	a0,a0,409
    8000b8d4:	00a51513          	slli	a0,a0,0xa
    8000b8d8:	26750513          	addi	a0,a0,615
    8000b8dc:	000005b7          	lui	a1,0x0
    8000b8e0:	00058593          	mv	a1,a1
    8000b8e4:	00b59593          	slli	a1,a1,0xb
    8000b8e8:	5a858593          	addi	a1,a1,1448 # 5a8 <offset+0x1b0>
    8000b8ec:	00b59593          	slli	a1,a1,0xb
    8000b8f0:	13c58593          	addi	a1,a1,316
    8000b8f4:	00a59593          	slli	a1,a1,0xa
    8000b8f8:	33258593          	addi	a1,a1,818
    8000b8fc:	40b50633          	sub	a2,a0,a1
    8000b900:	1ec0b023          	sd	a2,480(ra)
    8000b904:	03333137          	lui	sp,0x3333
    8000b908:	3331011b          	addiw	sp,sp,819 # 3333333 <offset+0x3332f3b>
    8000b90c:	00d11113          	slli	sp,sp,0xd
    8000b910:	5b110113          	addi	sp,sp,1457
    8000b914:	00c11113          	slli	sp,sp,0xc
    8000b918:	61710113          	addi	sp,sp,1559
    8000b91c:	00c11113          	slli	sp,sp,0xc
    8000b920:	33510113          	addi	sp,sp,821
    8000b924:	00c10463          	beq	sp,a2,8000b92c <inst_604>
    8000b928:	efcf406f          	j	80000024 <rvtest_error>

000000008000b92c <inst_604>:
    8000b92c:	66666537          	lui	a0,0x66666
    8000b930:	66650513          	addi	a0,a0,1638 # 66666666 <absimmsh+0x5ab958b9>
    8000b934:	00b51513          	slli	a0,a0,0xb
    8000b938:	33350513          	addi	a0,a0,819
    8000b93c:	00b51513          	slli	a0,a0,0xb
    8000b940:	19950513          	addi	a0,a0,409
    8000b944:	00a51513          	slli	a0,a0,0xa
    8000b948:	26750513          	addi	a0,a0,615
    8000b94c:	555555b7          	lui	a1,0x55555
    8000b950:	55558593          	addi	a1,a1,1365 # 55555555 <absimmsh+0x49a847a8>
    8000b954:	00b59593          	slli	a1,a1,0xb
    8000b958:	2aa58593          	addi	a1,a1,682
    8000b95c:	00b59593          	slli	a1,a1,0xb
    8000b960:	55558593          	addi	a1,a1,1365
    8000b964:	00a59593          	slli	a1,a1,0xa
    8000b968:	15658593          	addi	a1,a1,342
    8000b96c:	40b50633          	sub	a2,a0,a1
    8000b970:	1ec0b423          	sd	a2,488(ra)
    8000b974:	01111137          	lui	sp,0x1111
    8000b978:	1111011b          	addiw	sp,sp,273 # 1111111 <offset+0x1110d19>
    8000b97c:	00c11113          	slli	sp,sp,0xc
    8000b980:	11110113          	addi	sp,sp,273
    8000b984:	00c11113          	slli	sp,sp,0xc
    8000b988:	11110113          	addi	sp,sp,273
    8000b98c:	00c11113          	slli	sp,sp,0xc
    8000b990:	11110113          	addi	sp,sp,273
    8000b994:	00c10463          	beq	sp,a2,8000b99c <inst_605>
    8000b998:	e8cf406f          	j	80000024 <rvtest_error>

000000008000b99c <inst_605>:
    8000b99c:	66666537          	lui	a0,0x66666
    8000b9a0:	66650513          	addi	a0,a0,1638 # 66666666 <absimmsh+0x5ab958b9>
    8000b9a4:	00b51513          	slli	a0,a0,0xb
    8000b9a8:	33350513          	addi	a0,a0,819
    8000b9ac:	00b51513          	slli	a0,a0,0xb
    8000b9b0:	19950513          	addi	a0,a0,409
    8000b9b4:	00a51513          	slli	a0,a0,0xa
    8000b9b8:	26750513          	addi	a0,a0,615
    8000b9bc:	aaaab5b7          	lui	a1,0xaaaab
    8000b9c0:	aaa58593          	addi	a1,a1,-1366 # ffffffffaaaaaaaa <absimm+0xfffffffeefd9cfda>
    8000b9c4:	00b59593          	slli	a1,a1,0xb
    8000b9c8:	55558593          	addi	a1,a1,1365
    8000b9cc:	00b59593          	slli	a1,a1,0xb
    8000b9d0:	2aa58593          	addi	a1,a1,682
    8000b9d4:	00a59593          	slli	a1,a1,0xa
    8000b9d8:	2ab58593          	addi	a1,a1,683
    8000b9dc:	40b50633          	sub	a2,a0,a1
    8000b9e0:	1ec0b823          	sd	a2,496(ra)
    8000b9e4:	feeef137          	lui	sp,0xfeeef
    8000b9e8:	eef1011b          	addiw	sp,sp,-273 # fffffffffeeeeeef <absimm+0xffffffff441e141f>
    8000b9ec:	00c11113          	slli	sp,sp,0xc
    8000b9f0:	eef10113          	addi	sp,sp,-273
    8000b9f4:	00c11113          	slli	sp,sp,0xc
    8000b9f8:	eef10113          	addi	sp,sp,-273
    8000b9fc:	00e11113          	slli	sp,sp,0xe
    8000ba00:	bbc10113          	addi	sp,sp,-1092
    8000ba04:	00c10463          	beq	sp,a2,8000ba0c <inst_606>
    8000ba08:	e1cf406f          	j	80000024 <rvtest_error>

000000008000ba0c <inst_606>:
    8000ba0c:	66666537          	lui	a0,0x66666
    8000ba10:	66650513          	addi	a0,a0,1638 # 66666666 <absimmsh+0x5ab958b9>
    8000ba14:	00b51513          	slli	a0,a0,0xb
    8000ba18:	33350513          	addi	a0,a0,819
    8000ba1c:	00b51513          	slli	a0,a0,0xb
    8000ba20:	19950513          	addi	a0,a0,409
    8000ba24:	00a51513          	slli	a0,a0,0xa
    8000ba28:	26750513          	addi	a0,a0,615
    8000ba2c:	00600593          	li	a1,6
    8000ba30:	40b50633          	sub	a2,a0,a1
    8000ba34:	1ec0bc23          	sd	a2,504(ra)
    8000ba38:	03333137          	lui	sp,0x3333
    8000ba3c:	3331011b          	addiw	sp,sp,819 # 3333333 <offset+0x3332f3b>
    8000ba40:	00c11113          	slli	sp,sp,0xc
    8000ba44:	33310113          	addi	sp,sp,819
    8000ba48:	00c11113          	slli	sp,sp,0xc
    8000ba4c:	33310113          	addi	sp,sp,819
    8000ba50:	00d11113          	slli	sp,sp,0xd
    8000ba54:	66110113          	addi	sp,sp,1633
    8000ba58:	00c10463          	beq	sp,a2,8000ba60 <inst_607>
    8000ba5c:	dc8f406f          	j	80000024 <rvtest_error>

000000008000ba60 <inst_607>:
    8000ba60:	66666537          	lui	a0,0x66666
    8000ba64:	66650513          	addi	a0,a0,1638 # 66666666 <absimmsh+0x5ab958b9>
    8000ba68:	00b51513          	slli	a0,a0,0xb
    8000ba6c:	33350513          	addi	a0,a0,819
    8000ba70:	00b51513          	slli	a0,a0,0xb
    8000ba74:	19950513          	addi	a0,a0,409
    8000ba78:	00a51513          	slli	a0,a0,0xa
    8000ba7c:	26750513          	addi	a0,a0,615
    8000ba80:	333335b7          	lui	a1,0x33333
    8000ba84:	33358593          	addi	a1,a1,819 # 33333333 <absimmsh+0x27862586>
    8000ba88:	00b59593          	slli	a1,a1,0xb
    8000ba8c:	19958593          	addi	a1,a1,409
    8000ba90:	00b59593          	slli	a1,a1,0xb
    8000ba94:	4cc58593          	addi	a1,a1,1228
    8000ba98:	00a59593          	slli	a1,a1,0xa
    8000ba9c:	33458593          	addi	a1,a1,820
    8000baa0:	40b50633          	sub	a2,a0,a1
    8000baa4:	20c0b023          	sd	a2,512(ra)
    8000baa8:	03333137          	lui	sp,0x3333
    8000baac:	3331011b          	addiw	sp,sp,819 # 3333333 <offset+0x3332f3b>
    8000bab0:	00c11113          	slli	sp,sp,0xc
    8000bab4:	33310113          	addi	sp,sp,819
    8000bab8:	00c11113          	slli	sp,sp,0xc
    8000babc:	33310113          	addi	sp,sp,819
    8000bac0:	00c11113          	slli	sp,sp,0xc
    8000bac4:	33310113          	addi	sp,sp,819
    8000bac8:	00c10463          	beq	sp,a2,8000bad0 <inst_608>
    8000bacc:	d58f406f          	j	80000024 <rvtest_error>

000000008000bad0 <inst_608>:
    8000bad0:	66666537          	lui	a0,0x66666
    8000bad4:	66650513          	addi	a0,a0,1638 # 66666666 <absimmsh+0x5ab958b9>
    8000bad8:	00b51513          	slli	a0,a0,0xb
    8000badc:	33350513          	addi	a0,a0,819
    8000bae0:	00b51513          	slli	a0,a0,0xb
    8000bae4:	19950513          	addi	a0,a0,409
    8000bae8:	00a51513          	slli	a0,a0,0xa
    8000baec:	26750513          	addi	a0,a0,615
    8000baf0:	666665b7          	lui	a1,0x66666
    8000baf4:	66658593          	addi	a1,a1,1638 # 66666666 <absimmsh+0x5ab958b9>
    8000baf8:	00b59593          	slli	a1,a1,0xb
    8000bafc:	33358593          	addi	a1,a1,819
    8000bb00:	00b59593          	slli	a1,a1,0xb
    8000bb04:	19958593          	addi	a1,a1,409
    8000bb08:	00a59593          	slli	a1,a1,0xa
    8000bb0c:	26758593          	addi	a1,a1,615
    8000bb10:	40b50633          	sub	a2,a0,a1
    8000bb14:	20c0b423          	sd	a2,520(ra)
    8000bb18:	00000113          	li	sp,0
    8000bb1c:	00c10463          	beq	sp,a2,8000bb24 <inst_609>
    8000bb20:	d04f406f          	j	80000024 <rvtest_error>

000000008000bb24 <inst_609>:
    8000bb24:	66666537          	lui	a0,0x66666
    8000bb28:	66650513          	addi	a0,a0,1638 # 66666666 <absimmsh+0x5ab958b9>
    8000bb2c:	00b51513          	slli	a0,a0,0xb
    8000bb30:	33350513          	addi	a0,a0,819
    8000bb34:	00b51513          	slli	a0,a0,0xb
    8000bb38:	19950513          	addi	a0,a0,409
    8000bb3c:	00a51513          	slli	a0,a0,0xa
    8000bb40:	26750513          	addi	a0,a0,615
    8000bb44:	000005b7          	lui	a1,0x0
    8000bb48:	fff58593          	addi	a1,a1,-1
    8000bb4c:	00b59593          	slli	a1,a1,0xb
    8000bb50:	25758593          	addi	a1,a1,599
    8000bb54:	00b59593          	slli	a1,a1,0xb
    8000bb58:	6c358593          	addi	a1,a1,1731
    8000bb5c:	00a59593          	slli	a1,a1,0xa
    8000bb60:	0ce58593          	addi	a1,a1,206
    8000bb64:	40b50633          	sub	a2,a0,a1
    8000bb68:	20c0b823          	sd	a2,528(ra)
    8000bb6c:	00ccd137          	lui	sp,0xccd
    8000bb70:	ccd1011b          	addiw	sp,sp,-819 # cccccd <offset+0xccc8d5>
    8000bb74:	00d11113          	slli	sp,sp,0xd
    8000bb78:	9c710113          	addi	sp,sp,-1593
    8000bb7c:	00d11113          	slli	sp,sp,0xd
    8000bb80:	b5b10113          	addi	sp,sp,-1189
    8000bb84:	00d11113          	slli	sp,sp,0xd
    8000bb88:	99910113          	addi	sp,sp,-1639
    8000bb8c:	00c10463          	beq	sp,a2,8000bb94 <inst_610>
    8000bb90:	c94f406f          	j	80000024 <rvtest_error>

000000008000bb94 <inst_610>:
    8000bb94:	66666537          	lui	a0,0x66666
    8000bb98:	66650513          	addi	a0,a0,1638 # 66666666 <absimmsh+0x5ab958b9>
    8000bb9c:	00b51513          	slli	a0,a0,0xb
    8000bba0:	33350513          	addi	a0,a0,819
    8000bba4:	00b51513          	slli	a0,a0,0xb
    8000bba8:	19950513          	addi	a0,a0,409
    8000bbac:	00a51513          	slli	a0,a0,0xa
    8000bbb0:	26750513          	addi	a0,a0,615
    8000bbb4:	000005b7          	lui	a1,0x0
    8000bbb8:	00058593          	mv	a1,a1
    8000bbbc:	00b59593          	slli	a1,a1,0xb
    8000bbc0:	5a858593          	addi	a1,a1,1448 # 5a8 <offset+0x1b0>
    8000bbc4:	00b59593          	slli	a1,a1,0xb
    8000bbc8:	13c58593          	addi	a1,a1,316
    8000bbcc:	00a59593          	slli	a1,a1,0xa
    8000bbd0:	33458593          	addi	a1,a1,820
    8000bbd4:	40b50633          	sub	a2,a0,a1
    8000bbd8:	20c0bc23          	sd	a2,536(ra)
    8000bbdc:	03333137          	lui	sp,0x3333
    8000bbe0:	3331011b          	addiw	sp,sp,819 # 3333333 <offset+0x3332f3b>
    8000bbe4:	00d11113          	slli	sp,sp,0xd
    8000bbe8:	5b110113          	addi	sp,sp,1457
    8000bbec:	00c11113          	slli	sp,sp,0xc
    8000bbf0:	61710113          	addi	sp,sp,1559
    8000bbf4:	00c11113          	slli	sp,sp,0xc
    8000bbf8:	33310113          	addi	sp,sp,819
    8000bbfc:	00c10463          	beq	sp,a2,8000bc04 <inst_611>
    8000bc00:	c24f406f          	j	80000024 <rvtest_error>

000000008000bc04 <inst_611>:
    8000bc04:	00000537          	lui	a0,0x0
    8000bc08:	fff50513          	addi	a0,a0,-1
    8000bc0c:	00b51513          	slli	a0,a0,0xb
    8000bc10:	25750513          	addi	a0,a0,599
    8000bc14:	00b51513          	slli	a0,a0,0xb
    8000bc18:	6c350513          	addi	a0,a0,1731
    8000bc1c:	00a51513          	slli	a0,a0,0xa
    8000bc20:	0ce50513          	addi	a0,a0,206
    8000bc24:	00300593          	li	a1,3
    8000bc28:	40b50633          	sub	a2,a0,a1
    8000bc2c:	22c0b023          	sd	a2,544(ra)
    8000bc30:	fff4b137          	lui	sp,0xfff4b
    8000bc34:	fb11011b          	addiw	sp,sp,-79 # fffffffffff4afb1 <absimm+0xffffffff4523d4e1>
    8000bc38:	00c11113          	slli	sp,sp,0xc
    8000bc3c:	ccb10113          	addi	sp,sp,-821
    8000bc40:	00c10463          	beq	sp,a2,8000bc48 <inst_612>
    8000bc44:	be0f406f          	j	80000024 <rvtest_error>

000000008000bc48 <inst_612>:
    8000bc48:	00000537          	lui	a0,0x0
    8000bc4c:	fff50513          	addi	a0,a0,-1
    8000bc50:	00b51513          	slli	a0,a0,0xb
    8000bc54:	25750513          	addi	a0,a0,599
    8000bc58:	00b51513          	slli	a0,a0,0xb
    8000bc5c:	6c350513          	addi	a0,a0,1731
    8000bc60:	00a51513          	slli	a0,a0,0xa
    8000bc64:	0ce50513          	addi	a0,a0,206
    8000bc68:	555555b7          	lui	a1,0x55555
    8000bc6c:	55558593          	addi	a1,a1,1365 # 55555555 <absimmsh+0x49a847a8>
    8000bc70:	00b59593          	slli	a1,a1,0xb
    8000bc74:	2aa58593          	addi	a1,a1,682
    8000bc78:	00b59593          	slli	a1,a1,0xb
    8000bc7c:	55558593          	addi	a1,a1,1365
    8000bc80:	00a59593          	slli	a1,a1,0xa
    8000bc84:	15558593          	addi	a1,a1,341
    8000bc88:	40b50633          	sub	a2,a0,a1
    8000bc8c:	22c0b423          	sd	a2,552(ra)
    8000bc90:	fd555137          	lui	sp,0xfd555
    8000bc94:	5551011b          	addiw	sp,sp,1365 # fffffffffd555555 <absimm+0xffffffff42847a85>
    8000bc98:	00c11113          	slli	sp,sp,0xc
    8000bc9c:	4fb10113          	addi	sp,sp,1275
    8000bca0:	00d11113          	slli	sp,sp,0xd
    8000bca4:	a5b10113          	addi	sp,sp,-1445
    8000bca8:	00c11113          	slli	sp,sp,0xc
    8000bcac:	77910113          	addi	sp,sp,1913
    8000bcb0:	00c10463          	beq	sp,a2,8000bcb8 <inst_613>
    8000bcb4:	b70f406f          	j	80000024 <rvtest_error>

000000008000bcb8 <inst_613>:
    8000bcb8:	00000537          	lui	a0,0x0
    8000bcbc:	fff50513          	addi	a0,a0,-1
    8000bcc0:	00b51513          	slli	a0,a0,0xb
    8000bcc4:	25750513          	addi	a0,a0,599
    8000bcc8:	00b51513          	slli	a0,a0,0xb
    8000bccc:	6c350513          	addi	a0,a0,1731
    8000bcd0:	00a51513          	slli	a0,a0,0xa
    8000bcd4:	0ce50513          	addi	a0,a0,206
    8000bcd8:	aaaab5b7          	lui	a1,0xaaaab
    8000bcdc:	aaa58593          	addi	a1,a1,-1366 # ffffffffaaaaaaaa <absimm+0xfffffffeefd9cfda>
    8000bce0:	00b59593          	slli	a1,a1,0xb
    8000bce4:	55558593          	addi	a1,a1,1365
    8000bce8:	00b59593          	slli	a1,a1,0xb
    8000bcec:	2aa58593          	addi	a1,a1,682
    8000bcf0:	00a59593          	slli	a1,a1,0xa
    8000bcf4:	2aa58593          	addi	a1,a1,682
    8000bcf8:	40b50633          	sub	a2,a0,a1
    8000bcfc:	22c0b823          	sd	a2,560(ra)
    8000bd00:	002ab137          	lui	sp,0x2ab
    8000bd04:	aab1011b          	addiw	sp,sp,-1365 # 2aaaab <offset+0x2aa6b3>
    8000bd08:	00c11113          	slli	sp,sp,0xc
    8000bd0c:	aa510113          	addi	sp,sp,-1371
    8000bd10:	01011113          	slli	sp,sp,0x10
    8000bd14:	28310113          	addi	sp,sp,643
    8000bd18:	00d11113          	slli	sp,sp,0xd
    8000bd1c:	22410113          	addi	sp,sp,548
    8000bd20:	00c10463          	beq	sp,a2,8000bd28 <inst_614>
    8000bd24:	b00f406f          	j	80000024 <rvtest_error>

000000008000bd28 <inst_614>:
    8000bd28:	00000537          	lui	a0,0x0
    8000bd2c:	fff50513          	addi	a0,a0,-1
    8000bd30:	00b51513          	slli	a0,a0,0xb
    8000bd34:	25750513          	addi	a0,a0,599
    8000bd38:	00b51513          	slli	a0,a0,0xb
    8000bd3c:	6c350513          	addi	a0,a0,1731
    8000bd40:	00a51513          	slli	a0,a0,0xa
    8000bd44:	0ce50513          	addi	a0,a0,206
    8000bd48:	00500593          	li	a1,5
    8000bd4c:	40b50633          	sub	a2,a0,a1
    8000bd50:	22c0bc23          	sd	a2,568(ra)
    8000bd54:	fff4b137          	lui	sp,0xfff4b
    8000bd58:	fb11011b          	addiw	sp,sp,-79 # fffffffffff4afb1 <absimm+0xffffffff4523d4e1>
    8000bd5c:	00c11113          	slli	sp,sp,0xc
    8000bd60:	cc910113          	addi	sp,sp,-823
    8000bd64:	00c10463          	beq	sp,a2,8000bd6c <inst_615>
    8000bd68:	abcf406f          	j	80000024 <rvtest_error>

000000008000bd6c <inst_615>:
    8000bd6c:	00000537          	lui	a0,0x0
    8000bd70:	fff50513          	addi	a0,a0,-1
    8000bd74:	00b51513          	slli	a0,a0,0xb
    8000bd78:	25750513          	addi	a0,a0,599
    8000bd7c:	00b51513          	slli	a0,a0,0xb
    8000bd80:	6c350513          	addi	a0,a0,1731
    8000bd84:	00a51513          	slli	a0,a0,0xa
    8000bd88:	0ce50513          	addi	a0,a0,206
    8000bd8c:	333335b7          	lui	a1,0x33333
    8000bd90:	33358593          	addi	a1,a1,819 # 33333333 <absimmsh+0x27862586>
    8000bd94:	00b59593          	slli	a1,a1,0xb
    8000bd98:	19958593          	addi	a1,a1,409
    8000bd9c:	00b59593          	slli	a1,a1,0xb
    8000bda0:	4cc58593          	addi	a1,a1,1228
    8000bda4:	00a59593          	slli	a1,a1,0xa
    8000bda8:	33358593          	addi	a1,a1,819
    8000bdac:	40b50633          	sub	a2,a0,a1
    8000bdb0:	24c0b023          	sd	a2,576(ra)
    8000bdb4:	ffccd137          	lui	sp,0xffccd
    8000bdb8:	ccd1011b          	addiw	sp,sp,-819 # ffffffffffcccccd <absimm+0xffffffff44fbf1fd>
    8000bdbc:	00d11113          	slli	sp,sp,0xd
    8000bdc0:	98310113          	addi	sp,sp,-1661
    8000bdc4:	00e11113          	slli	sp,sp,0xe
    8000bdc8:	e3f10113          	addi	sp,sp,-449
    8000bdcc:	00d11113          	slli	sp,sp,0xd
    8000bdd0:	99b10113          	addi	sp,sp,-1637
    8000bdd4:	00c10463          	beq	sp,a2,8000bddc <inst_616>
    8000bdd8:	a4cf406f          	j	80000024 <rvtest_error>

000000008000bddc <inst_616>:
    8000bddc:	00000537          	lui	a0,0x0
    8000bde0:	fff50513          	addi	a0,a0,-1
    8000bde4:	00b51513          	slli	a0,a0,0xb
    8000bde8:	25750513          	addi	a0,a0,599
    8000bdec:	00b51513          	slli	a0,a0,0xb
    8000bdf0:	6c350513          	addi	a0,a0,1731
    8000bdf4:	00a51513          	slli	a0,a0,0xa
    8000bdf8:	0ce50513          	addi	a0,a0,206
    8000bdfc:	666665b7          	lui	a1,0x66666
    8000be00:	66658593          	addi	a1,a1,1638 # 66666666 <absimmsh+0x5ab958b9>
    8000be04:	00b59593          	slli	a1,a1,0xb
    8000be08:	33358593          	addi	a1,a1,819
    8000be0c:	00b59593          	slli	a1,a1,0xb
    8000be10:	19958593          	addi	a1,a1,409
    8000be14:	00a59593          	slli	a1,a1,0xa
    8000be18:	26658593          	addi	a1,a1,614
    8000be1c:	40b50633          	sub	a2,a0,a1
    8000be20:	24c0b423          	sd	a2,584(ra)
    8000be24:	ff333137          	lui	sp,0xff333
    8000be28:	3331011b          	addiw	sp,sp,819 # ffffffffff333333 <absimm+0xffffffff44625863>
    8000be2c:	00d11113          	slli	sp,sp,0xd
    8000be30:	63910113          	addi	sp,sp,1593
    8000be34:	00d11113          	slli	sp,sp,0xd
    8000be38:	4a510113          	addi	sp,sp,1189
    8000be3c:	00d11113          	slli	sp,sp,0xd
    8000be40:	66810113          	addi	sp,sp,1640
    8000be44:	00c10463          	beq	sp,a2,8000be4c <inst_617>
    8000be48:	9dcf406f          	j	80000024 <rvtest_error>

000000008000be4c <inst_617>:
    8000be4c:	00000537          	lui	a0,0x0
    8000be50:	fff50513          	addi	a0,a0,-1
    8000be54:	00b51513          	slli	a0,a0,0xb
    8000be58:	25750513          	addi	a0,a0,599
    8000be5c:	00b51513          	slli	a0,a0,0xb
    8000be60:	6c350513          	addi	a0,a0,1731
    8000be64:	00a51513          	slli	a0,a0,0xa
    8000be68:	0ce50513          	addi	a0,a0,206
    8000be6c:	000005b7          	lui	a1,0x0
    8000be70:	fff58593          	addi	a1,a1,-1
    8000be74:	00b59593          	slli	a1,a1,0xb
    8000be78:	25758593          	addi	a1,a1,599
    8000be7c:	00b59593          	slli	a1,a1,0xb
    8000be80:	6c358593          	addi	a1,a1,1731
    8000be84:	00a59593          	slli	a1,a1,0xa
    8000be88:	0cd58593          	addi	a1,a1,205
    8000be8c:	40b50633          	sub	a2,a0,a1
    8000be90:	24c0b823          	sd	a2,592(ra)
    8000be94:	00100113          	li	sp,1
    8000be98:	00c10463          	beq	sp,a2,8000bea0 <inst_618>
    8000be9c:	988f406f          	j	80000024 <rvtest_error>

000000008000bea0 <inst_618>:
    8000bea0:	00000537          	lui	a0,0x0
    8000bea4:	fff50513          	addi	a0,a0,-1
    8000bea8:	00b51513          	slli	a0,a0,0xb
    8000beac:	25750513          	addi	a0,a0,599
    8000beb0:	00b51513          	slli	a0,a0,0xb
    8000beb4:	6c350513          	addi	a0,a0,1731
    8000beb8:	00a51513          	slli	a0,a0,0xa
    8000bebc:	0ce50513          	addi	a0,a0,206
    8000bec0:	000005b7          	lui	a1,0x0
    8000bec4:	00058593          	mv	a1,a1
    8000bec8:	00b59593          	slli	a1,a1,0xb
    8000becc:	5a858593          	addi	a1,a1,1448 # 5a8 <offset+0x1b0>
    8000bed0:	00b59593          	slli	a1,a1,0xb
    8000bed4:	13c58593          	addi	a1,a1,316
    8000bed8:	00a59593          	slli	a1,a1,0xa
    8000bedc:	33358593          	addi	a1,a1,819
    8000bee0:	40b50633          	sub	a2,a0,a1
    8000bee4:	24c0bc23          	sd	a2,600(ra)
    8000bee8:	fff4b137          	lui	sp,0xfff4b
    8000beec:	fb11011b          	addiw	sp,sp,-79 # fffffffffff4afb1 <absimm+0xffffffff4523d4e1>
    8000bef0:	00d11113          	slli	sp,sp,0xd
    8000bef4:	99b10113          	addi	sp,sp,-1637
    8000bef8:	00c10463          	beq	sp,a2,8000bf00 <inst_619>
    8000befc:	928f406f          	j	80000024 <rvtest_error>

000000008000bf00 <inst_619>:
    8000bf00:	00000537          	lui	a0,0x0
    8000bf04:	fff50513          	addi	a0,a0,-1
    8000bf08:	00b51513          	slli	a0,a0,0xb
    8000bf0c:	25750513          	addi	a0,a0,599
    8000bf10:	00b51513          	slli	a0,a0,0xb
    8000bf14:	6c350513          	addi	a0,a0,1731
    8000bf18:	00a51513          	slli	a0,a0,0xa
    8000bf1c:	0ce50513          	addi	a0,a0,206
    8000bf20:	00200593          	li	a1,2
    8000bf24:	40b50633          	sub	a2,a0,a1
    8000bf28:	26c0b023          	sd	a2,608(ra)
    8000bf2c:	fff4b137          	lui	sp,0xfff4b
    8000bf30:	fb11011b          	addiw	sp,sp,-79 # fffffffffff4afb1 <absimm+0xffffffff4523d4e1>
    8000bf34:	00c11113          	slli	sp,sp,0xc
    8000bf38:	ccc10113          	addi	sp,sp,-820
    8000bf3c:	00c10463          	beq	sp,a2,8000bf44 <inst_620>
    8000bf40:	8e4f406f          	j	80000024 <rvtest_error>

000000008000bf44 <inst_620>:
    8000bf44:	00000537          	lui	a0,0x0
    8000bf48:	fff50513          	addi	a0,a0,-1
    8000bf4c:	00b51513          	slli	a0,a0,0xb
    8000bf50:	25750513          	addi	a0,a0,599
    8000bf54:	00b51513          	slli	a0,a0,0xb
    8000bf58:	6c350513          	addi	a0,a0,1731
    8000bf5c:	00a51513          	slli	a0,a0,0xa
    8000bf60:	0ce50513          	addi	a0,a0,206
    8000bf64:	555555b7          	lui	a1,0x55555
    8000bf68:	55558593          	addi	a1,a1,1365 # 55555555 <absimmsh+0x49a847a8>
    8000bf6c:	00b59593          	slli	a1,a1,0xb
    8000bf70:	2aa58593          	addi	a1,a1,682
    8000bf74:	00b59593          	slli	a1,a1,0xb
    8000bf78:	55558593          	addi	a1,a1,1365
    8000bf7c:	00a59593          	slli	a1,a1,0xa
    8000bf80:	15458593          	addi	a1,a1,340
    8000bf84:	40b50633          	sub	a2,a0,a1
    8000bf88:	26c0b423          	sd	a2,616(ra)
    8000bf8c:	fd555137          	lui	sp,0xfd555
    8000bf90:	5551011b          	addiw	sp,sp,1365 # fffffffffd555555 <absimm+0xffffffff42847a85>
    8000bf94:	00c11113          	slli	sp,sp,0xc
    8000bf98:	4fb10113          	addi	sp,sp,1275
    8000bf9c:	00d11113          	slli	sp,sp,0xd
    8000bfa0:	a5b10113          	addi	sp,sp,-1445
    8000bfa4:	00c11113          	slli	sp,sp,0xc
    8000bfa8:	77a10113          	addi	sp,sp,1914
    8000bfac:	00c10463          	beq	sp,a2,8000bfb4 <inst_621>
    8000bfb0:	874f406f          	j	80000024 <rvtest_error>

000000008000bfb4 <inst_621>:
    8000bfb4:	00000537          	lui	a0,0x0
    8000bfb8:	fff50513          	addi	a0,a0,-1
    8000bfbc:	00b51513          	slli	a0,a0,0xb
    8000bfc0:	25750513          	addi	a0,a0,599
    8000bfc4:	00b51513          	slli	a0,a0,0xb
    8000bfc8:	6c350513          	addi	a0,a0,1731
    8000bfcc:	00a51513          	slli	a0,a0,0xa
    8000bfd0:	0ce50513          	addi	a0,a0,206
    8000bfd4:	00000593          	li	a1,0
    8000bfd8:	40b50633          	sub	a2,a0,a1
    8000bfdc:	26c0b823          	sd	a2,624(ra)
    8000bfe0:	fff4b137          	lui	sp,0xfff4b
    8000bfe4:	fb11011b          	addiw	sp,sp,-79 # fffffffffff4afb1 <absimm+0xffffffff4523d4e1>
    8000bfe8:	00c11113          	slli	sp,sp,0xc
    8000bfec:	cce10113          	addi	sp,sp,-818
    8000bff0:	00c10463          	beq	sp,a2,8000bff8 <inst_622>
    8000bff4:	830f406f          	j	80000024 <rvtest_error>

000000008000bff8 <inst_622>:
    8000bff8:	00000537          	lui	a0,0x0
    8000bffc:	fff50513          	addi	a0,a0,-1
    8000c000:	00b51513          	slli	a0,a0,0xb
    8000c004:	25750513          	addi	a0,a0,599
    8000c008:	00b51513          	slli	a0,a0,0xb
    8000c00c:	6c350513          	addi	a0,a0,1731
    8000c010:	00a51513          	slli	a0,a0,0xa
    8000c014:	0ce50513          	addi	a0,a0,206
    8000c018:	00400593          	li	a1,4
    8000c01c:	40b50633          	sub	a2,a0,a1
    8000c020:	26c0bc23          	sd	a2,632(ra)
    8000c024:	fff4b137          	lui	sp,0xfff4b
    8000c028:	fb11011b          	addiw	sp,sp,-79 # fffffffffff4afb1 <absimm+0xffffffff4523d4e1>
    8000c02c:	00c11113          	slli	sp,sp,0xc
    8000c030:	cca10113          	addi	sp,sp,-822
    8000c034:	00c10463          	beq	sp,a2,8000c03c <inst_623>
    8000c038:	fedf306f          	j	80000024 <rvtest_error>

000000008000c03c <inst_623>:
    8000c03c:	00000537          	lui	a0,0x0
    8000c040:	fff50513          	addi	a0,a0,-1
    8000c044:	00b51513          	slli	a0,a0,0xb
    8000c048:	25750513          	addi	a0,a0,599
    8000c04c:	00b51513          	slli	a0,a0,0xb
    8000c050:	6c350513          	addi	a0,a0,1731
    8000c054:	00a51513          	slli	a0,a0,0xa
    8000c058:	0ce50513          	addi	a0,a0,206
    8000c05c:	333335b7          	lui	a1,0x33333
    8000c060:	33358593          	addi	a1,a1,819 # 33333333 <absimmsh+0x27862586>
    8000c064:	00b59593          	slli	a1,a1,0xb
    8000c068:	19958593          	addi	a1,a1,409
    8000c06c:	00b59593          	slli	a1,a1,0xb
    8000c070:	4cc58593          	addi	a1,a1,1228
    8000c074:	00a59593          	slli	a1,a1,0xa
    8000c078:	33258593          	addi	a1,a1,818
    8000c07c:	40b50633          	sub	a2,a0,a1
    8000c080:	28c0b023          	sd	a2,640(ra)
    8000c084:	ffccd137          	lui	sp,0xffccd
    8000c088:	ccd1011b          	addiw	sp,sp,-819 # ffffffffffcccccd <absimm+0xffffffff44fbf1fd>
    8000c08c:	00d11113          	slli	sp,sp,0xd
    8000c090:	98310113          	addi	sp,sp,-1661
    8000c094:	00e11113          	slli	sp,sp,0xe
    8000c098:	e3f10113          	addi	sp,sp,-449
    8000c09c:	00d11113          	slli	sp,sp,0xd
    8000c0a0:	99c10113          	addi	sp,sp,-1636
    8000c0a4:	00c10463          	beq	sp,a2,8000c0ac <inst_624>
    8000c0a8:	f7df306f          	j	80000024 <rvtest_error>

000000008000c0ac <inst_624>:
    8000c0ac:	00000537          	lui	a0,0x0
    8000c0b0:	fff50513          	addi	a0,a0,-1
    8000c0b4:	00b51513          	slli	a0,a0,0xb
    8000c0b8:	25750513          	addi	a0,a0,599
    8000c0bc:	00b51513          	slli	a0,a0,0xb
    8000c0c0:	6c350513          	addi	a0,a0,1731
    8000c0c4:	00a51513          	slli	a0,a0,0xa
    8000c0c8:	0ce50513          	addi	a0,a0,206
    8000c0cc:	666665b7          	lui	a1,0x66666
    8000c0d0:	66658593          	addi	a1,a1,1638 # 66666666 <absimmsh+0x5ab958b9>
    8000c0d4:	00b59593          	slli	a1,a1,0xb
    8000c0d8:	33358593          	addi	a1,a1,819
    8000c0dc:	00b59593          	slli	a1,a1,0xb
    8000c0e0:	19958593          	addi	a1,a1,409
    8000c0e4:	00a59593          	slli	a1,a1,0xa
    8000c0e8:	26558593          	addi	a1,a1,613
    8000c0ec:	40b50633          	sub	a2,a0,a1
    8000c0f0:	28c0b423          	sd	a2,648(ra)
    8000c0f4:	ff333137          	lui	sp,0xff333
    8000c0f8:	3331011b          	addiw	sp,sp,819 # ffffffffff333333 <absimm+0xffffffff44625863>
    8000c0fc:	00d11113          	slli	sp,sp,0xd
    8000c100:	63910113          	addi	sp,sp,1593
    8000c104:	00d11113          	slli	sp,sp,0xd
    8000c108:	4a510113          	addi	sp,sp,1189
    8000c10c:	00d11113          	slli	sp,sp,0xd
    8000c110:	66910113          	addi	sp,sp,1641
    8000c114:	00c10463          	beq	sp,a2,8000c11c <inst_625>
    8000c118:	f0df306f          	j	80000024 <rvtest_error>

000000008000c11c <inst_625>:
    8000c11c:	00000537          	lui	a0,0x0
    8000c120:	fff50513          	addi	a0,a0,-1
    8000c124:	00b51513          	slli	a0,a0,0xb
    8000c128:	25750513          	addi	a0,a0,599
    8000c12c:	00b51513          	slli	a0,a0,0xb
    8000c130:	6c350513          	addi	a0,a0,1731
    8000c134:	00a51513          	slli	a0,a0,0xa
    8000c138:	0ce50513          	addi	a0,a0,206
    8000c13c:	000005b7          	lui	a1,0x0
    8000c140:	00058593          	mv	a1,a1
    8000c144:	00b59593          	slli	a1,a1,0xb
    8000c148:	5a858593          	addi	a1,a1,1448 # 5a8 <offset+0x1b0>
    8000c14c:	00b59593          	slli	a1,a1,0xb
    8000c150:	13c58593          	addi	a1,a1,316
    8000c154:	00a59593          	slli	a1,a1,0xa
    8000c158:	33258593          	addi	a1,a1,818
    8000c15c:	40b50633          	sub	a2,a0,a1
    8000c160:	28c0b823          	sd	a2,656(ra)
    8000c164:	fff4b137          	lui	sp,0xfff4b
    8000c168:	fb11011b          	addiw	sp,sp,-79 # fffffffffff4afb1 <absimm+0xffffffff4523d4e1>
    8000c16c:	00d11113          	slli	sp,sp,0xd
    8000c170:	99c10113          	addi	sp,sp,-1636
    8000c174:	00c10463          	beq	sp,a2,8000c17c <inst_626>
    8000c178:	eadf306f          	j	80000024 <rvtest_error>

000000008000c17c <inst_626>:
    8000c17c:	00000537          	lui	a0,0x0
    8000c180:	fff50513          	addi	a0,a0,-1
    8000c184:	00b51513          	slli	a0,a0,0xb
    8000c188:	25750513          	addi	a0,a0,599
    8000c18c:	00b51513          	slli	a0,a0,0xb
    8000c190:	6c350513          	addi	a0,a0,1731
    8000c194:	00a51513          	slli	a0,a0,0xa
    8000c198:	0ce50513          	addi	a0,a0,206
    8000c19c:	555555b7          	lui	a1,0x55555
    8000c1a0:	55558593          	addi	a1,a1,1365 # 55555555 <absimmsh+0x49a847a8>
    8000c1a4:	00b59593          	slli	a1,a1,0xb
    8000c1a8:	2aa58593          	addi	a1,a1,682
    8000c1ac:	00b59593          	slli	a1,a1,0xb
    8000c1b0:	55558593          	addi	a1,a1,1365
    8000c1b4:	00a59593          	slli	a1,a1,0xa
    8000c1b8:	15658593          	addi	a1,a1,342
    8000c1bc:	40b50633          	sub	a2,a0,a1
    8000c1c0:	28c0bc23          	sd	a2,664(ra)
    8000c1c4:	fd555137          	lui	sp,0xfd555
    8000c1c8:	5551011b          	addiw	sp,sp,1365 # fffffffffd555555 <absimm+0xffffffff42847a85>
    8000c1cc:	00c11113          	slli	sp,sp,0xc
    8000c1d0:	4fb10113          	addi	sp,sp,1275
    8000c1d4:	00d11113          	slli	sp,sp,0xd
    8000c1d8:	a5b10113          	addi	sp,sp,-1445
    8000c1dc:	00c11113          	slli	sp,sp,0xc
    8000c1e0:	77810113          	addi	sp,sp,1912
    8000c1e4:	00c10463          	beq	sp,a2,8000c1ec <inst_627>
    8000c1e8:	e3df306f          	j	80000024 <rvtest_error>

000000008000c1ec <inst_627>:
    8000c1ec:	00000537          	lui	a0,0x0
    8000c1f0:	fff50513          	addi	a0,a0,-1
    8000c1f4:	00b51513          	slli	a0,a0,0xb
    8000c1f8:	25750513          	addi	a0,a0,599
    8000c1fc:	00b51513          	slli	a0,a0,0xb
    8000c200:	6c350513          	addi	a0,a0,1731
    8000c204:	00a51513          	slli	a0,a0,0xa
    8000c208:	0ce50513          	addi	a0,a0,206
    8000c20c:	aaaab5b7          	lui	a1,0xaaaab
    8000c210:	aaa58593          	addi	a1,a1,-1366 # ffffffffaaaaaaaa <absimm+0xfffffffeefd9cfda>
    8000c214:	00b59593          	slli	a1,a1,0xb
    8000c218:	55558593          	addi	a1,a1,1365
    8000c21c:	00b59593          	slli	a1,a1,0xb
    8000c220:	2aa58593          	addi	a1,a1,682
    8000c224:	00a59593          	slli	a1,a1,0xa
    8000c228:	2ab58593          	addi	a1,a1,683
    8000c22c:	40b50633          	sub	a2,a0,a1
    8000c230:	2ac0b023          	sd	a2,672(ra)
    8000c234:	002ab137          	lui	sp,0x2ab
    8000c238:	aab1011b          	addiw	sp,sp,-1365 # 2aaaab <offset+0x2aa6b3>
    8000c23c:	00c11113          	slli	sp,sp,0xc
    8000c240:	aa510113          	addi	sp,sp,-1371
    8000c244:	01011113          	slli	sp,sp,0x10
    8000c248:	28310113          	addi	sp,sp,643
    8000c24c:	00d11113          	slli	sp,sp,0xd
    8000c250:	22310113          	addi	sp,sp,547
    8000c254:	00c10463          	beq	sp,a2,8000c25c <inst_628>
    8000c258:	dcdf306f          	j	80000024 <rvtest_error>

000000008000c25c <inst_628>:
    8000c25c:	00000537          	lui	a0,0x0
    8000c260:	fff50513          	addi	a0,a0,-1
    8000c264:	00b51513          	slli	a0,a0,0xb
    8000c268:	25750513          	addi	a0,a0,599
    8000c26c:	00b51513          	slli	a0,a0,0xb
    8000c270:	6c350513          	addi	a0,a0,1731
    8000c274:	00a51513          	slli	a0,a0,0xa
    8000c278:	0ce50513          	addi	a0,a0,206
    8000c27c:	00600593          	li	a1,6
    8000c280:	40b50633          	sub	a2,a0,a1
    8000c284:	2ac0b423          	sd	a2,680(ra)
    8000c288:	fff4b137          	lui	sp,0xfff4b
    8000c28c:	fb11011b          	addiw	sp,sp,-79 # fffffffffff4afb1 <absimm+0xffffffff4523d4e1>
    8000c290:	00c11113          	slli	sp,sp,0xc
    8000c294:	cc810113          	addi	sp,sp,-824
    8000c298:	00c10463          	beq	sp,a2,8000c2a0 <inst_629>
    8000c29c:	d89f306f          	j	80000024 <rvtest_error>

000000008000c2a0 <inst_629>:
    8000c2a0:	00000537          	lui	a0,0x0
    8000c2a4:	fff50513          	addi	a0,a0,-1
    8000c2a8:	00b51513          	slli	a0,a0,0xb
    8000c2ac:	25750513          	addi	a0,a0,599
    8000c2b0:	00b51513          	slli	a0,a0,0xb
    8000c2b4:	6c350513          	addi	a0,a0,1731
    8000c2b8:	00a51513          	slli	a0,a0,0xa
    8000c2bc:	0ce50513          	addi	a0,a0,206
    8000c2c0:	333335b7          	lui	a1,0x33333
    8000c2c4:	33358593          	addi	a1,a1,819 # 33333333 <absimmsh+0x27862586>
    8000c2c8:	00b59593          	slli	a1,a1,0xb
    8000c2cc:	19958593          	addi	a1,a1,409
    8000c2d0:	00b59593          	slli	a1,a1,0xb
    8000c2d4:	4cc58593          	addi	a1,a1,1228
    8000c2d8:	00a59593          	slli	a1,a1,0xa
    8000c2dc:	33458593          	addi	a1,a1,820
    8000c2e0:	40b50633          	sub	a2,a0,a1
    8000c2e4:	2ac0b823          	sd	a2,688(ra)
    8000c2e8:	ffccd137          	lui	sp,0xffccd
    8000c2ec:	ccd1011b          	addiw	sp,sp,-819 # ffffffffffcccccd <absimm+0xffffffff44fbf1fd>
    8000c2f0:	00d11113          	slli	sp,sp,0xd
    8000c2f4:	98310113          	addi	sp,sp,-1661
    8000c2f8:	00e11113          	slli	sp,sp,0xe
    8000c2fc:	e3f10113          	addi	sp,sp,-449
    8000c300:	00d11113          	slli	sp,sp,0xd
    8000c304:	99a10113          	addi	sp,sp,-1638
    8000c308:	00c10463          	beq	sp,a2,8000c310 <inst_630>
    8000c30c:	d19f306f          	j	80000024 <rvtest_error>

000000008000c310 <inst_630>:
    8000c310:	00000537          	lui	a0,0x0
    8000c314:	fff50513          	addi	a0,a0,-1
    8000c318:	00b51513          	slli	a0,a0,0xb
    8000c31c:	25750513          	addi	a0,a0,599
    8000c320:	00b51513          	slli	a0,a0,0xb
    8000c324:	6c350513          	addi	a0,a0,1731
    8000c328:	00a51513          	slli	a0,a0,0xa
    8000c32c:	0ce50513          	addi	a0,a0,206
    8000c330:	666665b7          	lui	a1,0x66666
    8000c334:	66658593          	addi	a1,a1,1638 # 66666666 <absimmsh+0x5ab958b9>
    8000c338:	00b59593          	slli	a1,a1,0xb
    8000c33c:	33358593          	addi	a1,a1,819
    8000c340:	00b59593          	slli	a1,a1,0xb
    8000c344:	19958593          	addi	a1,a1,409
    8000c348:	00a59593          	slli	a1,a1,0xa
    8000c34c:	26758593          	addi	a1,a1,615
    8000c350:	40b50633          	sub	a2,a0,a1
    8000c354:	2ac0bc23          	sd	a2,696(ra)
    8000c358:	ff333137          	lui	sp,0xff333
    8000c35c:	3331011b          	addiw	sp,sp,819 # ffffffffff333333 <absimm+0xffffffff44625863>
    8000c360:	00d11113          	slli	sp,sp,0xd
    8000c364:	63910113          	addi	sp,sp,1593
    8000c368:	00d11113          	slli	sp,sp,0xd
    8000c36c:	4a510113          	addi	sp,sp,1189
    8000c370:	00d11113          	slli	sp,sp,0xd
    8000c374:	66710113          	addi	sp,sp,1639
    8000c378:	00c10463          	beq	sp,a2,8000c380 <inst_631>
    8000c37c:	ca9f306f          	j	80000024 <rvtest_error>

000000008000c380 <inst_631>:
    8000c380:	00000537          	lui	a0,0x0
    8000c384:	fff50513          	addi	a0,a0,-1
    8000c388:	00b51513          	slli	a0,a0,0xb
    8000c38c:	25750513          	addi	a0,a0,599
    8000c390:	00b51513          	slli	a0,a0,0xb
    8000c394:	6c350513          	addi	a0,a0,1731
    8000c398:	00a51513          	slli	a0,a0,0xa
    8000c39c:	0ce50513          	addi	a0,a0,206
    8000c3a0:	000005b7          	lui	a1,0x0
    8000c3a4:	fff58593          	addi	a1,a1,-1
    8000c3a8:	00b59593          	slli	a1,a1,0xb
    8000c3ac:	25758593          	addi	a1,a1,599
    8000c3b0:	00b59593          	slli	a1,a1,0xb
    8000c3b4:	6c358593          	addi	a1,a1,1731
    8000c3b8:	00a59593          	slli	a1,a1,0xa
    8000c3bc:	0ce58593          	addi	a1,a1,206
    8000c3c0:	40b50633          	sub	a2,a0,a1
    8000c3c4:	2cc0b023          	sd	a2,704(ra)
    8000c3c8:	00000113          	li	sp,0
    8000c3cc:	00c10463          	beq	sp,a2,8000c3d4 <inst_632>
    8000c3d0:	c55f306f          	j	80000024 <rvtest_error>

000000008000c3d4 <inst_632>:
    8000c3d4:	00000537          	lui	a0,0x0
    8000c3d8:	fff50513          	addi	a0,a0,-1
    8000c3dc:	00b51513          	slli	a0,a0,0xb
    8000c3e0:	25750513          	addi	a0,a0,599
    8000c3e4:	00b51513          	slli	a0,a0,0xb
    8000c3e8:	6c350513          	addi	a0,a0,1731
    8000c3ec:	00a51513          	slli	a0,a0,0xa
    8000c3f0:	0ce50513          	addi	a0,a0,206
    8000c3f4:	000005b7          	lui	a1,0x0
    8000c3f8:	00058593          	mv	a1,a1
    8000c3fc:	00b59593          	slli	a1,a1,0xb
    8000c400:	5a858593          	addi	a1,a1,1448 # 5a8 <offset+0x1b0>
    8000c404:	00b59593          	slli	a1,a1,0xb
    8000c408:	13c58593          	addi	a1,a1,316
    8000c40c:	00a59593          	slli	a1,a1,0xa
    8000c410:	33458593          	addi	a1,a1,820
    8000c414:	40b50633          	sub	a2,a0,a1
    8000c418:	2cc0b423          	sd	a2,712(ra)
    8000c41c:	fff4b137          	lui	sp,0xfff4b
    8000c420:	fb11011b          	addiw	sp,sp,-79 # fffffffffff4afb1 <absimm+0xffffffff4523d4e1>
    8000c424:	00d11113          	slli	sp,sp,0xd
    8000c428:	99a10113          	addi	sp,sp,-1638
    8000c42c:	00c10463          	beq	sp,a2,8000c434 <inst_633>
    8000c430:	bf5f306f          	j	80000024 <rvtest_error>

000000008000c434 <inst_633>:
    8000c434:	00000537          	lui	a0,0x0
    8000c438:	00050513          	mv	a0,a0
    8000c43c:	00b51513          	slli	a0,a0,0xb
    8000c440:	5a850513          	addi	a0,a0,1448 # 5a8 <offset+0x1b0>
    8000c444:	00b51513          	slli	a0,a0,0xb
    8000c448:	13c50513          	addi	a0,a0,316
    8000c44c:	00a51513          	slli	a0,a0,0xa
    8000c450:	33450513          	addi	a0,a0,820
    8000c454:	00300593          	li	a1,3
    8000c458:	40b50633          	sub	a2,a0,a1
    8000c45c:	2cc0b823          	sd	a2,720(ra)
    8000c460:	000b5137          	lui	sp,0xb5
    8000c464:	04f1011b          	addiw	sp,sp,79 # b504f <offset+0xb4c57>
    8000c468:	00c11113          	slli	sp,sp,0xc
    8000c46c:	33110113          	addi	sp,sp,817
    8000c470:	00c10463          	beq	sp,a2,8000c478 <inst_634>
    8000c474:	bb1f306f          	j	80000024 <rvtest_error>

000000008000c478 <inst_634>:
    8000c478:	00000537          	lui	a0,0x0
    8000c47c:	00050513          	mv	a0,a0
    8000c480:	00b51513          	slli	a0,a0,0xb
    8000c484:	5a850513          	addi	a0,a0,1448 # 5a8 <offset+0x1b0>
    8000c488:	00b51513          	slli	a0,a0,0xb
    8000c48c:	13c50513          	addi	a0,a0,316
    8000c490:	00a51513          	slli	a0,a0,0xa
    8000c494:	33450513          	addi	a0,a0,820
    8000c498:	555555b7          	lui	a1,0x55555
    8000c49c:	55558593          	addi	a1,a1,1365 # 55555555 <absimmsh+0x49a847a8>
    8000c4a0:	00b59593          	slli	a1,a1,0xb
    8000c4a4:	2aa58593          	addi	a1,a1,682
    8000c4a8:	00b59593          	slli	a1,a1,0xb
    8000c4ac:	55558593          	addi	a1,a1,1365
    8000c4b0:	00a59593          	slli	a1,a1,0xa
    8000c4b4:	15558593          	addi	a1,a1,341
    8000c4b8:	40b50633          	sub	a2,a0,a1
    8000c4bc:	2cc0bc23          	sd	a2,728(ra)
    8000c4c0:	ffd55137          	lui	sp,0xffd55
    8000c4c4:	5551011b          	addiw	sp,sp,1365 # ffffffffffd55555 <absimm+0xffffffff45047a85>
    8000c4c8:	00c11113          	slli	sp,sp,0xc
    8000c4cc:	55b10113          	addi	sp,sp,1371
    8000c4d0:	01011113          	slli	sp,sp,0x10
    8000c4d4:	d7d10113          	addi	sp,sp,-643
    8000c4d8:	00d11113          	slli	sp,sp,0xd
    8000c4dc:	ddf10113          	addi	sp,sp,-545
    8000c4e0:	00c10463          	beq	sp,a2,8000c4e8 <inst_635>
    8000c4e4:	b41f306f          	j	80000024 <rvtest_error>

000000008000c4e8 <inst_635>:
    8000c4e8:	00000537          	lui	a0,0x0
    8000c4ec:	00050513          	mv	a0,a0
    8000c4f0:	00b51513          	slli	a0,a0,0xb
    8000c4f4:	5a850513          	addi	a0,a0,1448 # 5a8 <offset+0x1b0>
    8000c4f8:	00b51513          	slli	a0,a0,0xb
    8000c4fc:	13c50513          	addi	a0,a0,316
    8000c500:	00a51513          	slli	a0,a0,0xa
    8000c504:	33450513          	addi	a0,a0,820
    8000c508:	aaaab5b7          	lui	a1,0xaaaab
    8000c50c:	aaa58593          	addi	a1,a1,-1366 # ffffffffaaaaaaaa <absimm+0xfffffffeefd9cfda>
    8000c510:	00b59593          	slli	a1,a1,0xb
    8000c514:	55558593          	addi	a1,a1,1365
    8000c518:	00b59593          	slli	a1,a1,0xb
    8000c51c:	2aa58593          	addi	a1,a1,682
    8000c520:	00a59593          	slli	a1,a1,0xa
    8000c524:	2aa58593          	addi	a1,a1,682
    8000c528:	40b50633          	sub	a2,a0,a1
    8000c52c:	2ec0b023          	sd	a2,736(ra)
    8000c530:	02aab137          	lui	sp,0x2aab
    8000c534:	aab1011b          	addiw	sp,sp,-1365 # 2aaaaab <offset+0x2aaa6b3>
    8000c538:	00c11113          	slli	sp,sp,0xc
    8000c53c:	b0510113          	addi	sp,sp,-1275
    8000c540:	00d11113          	slli	sp,sp,0xd
    8000c544:	5a510113          	addi	sp,sp,1445
    8000c548:	00c11113          	slli	sp,sp,0xc
    8000c54c:	88a10113          	addi	sp,sp,-1910
    8000c550:	00c10463          	beq	sp,a2,8000c558 <inst_636>
    8000c554:	ad1f306f          	j	80000024 <rvtest_error>

000000008000c558 <inst_636>:
    8000c558:	00000537          	lui	a0,0x0
    8000c55c:	00050513          	mv	a0,a0
    8000c560:	00b51513          	slli	a0,a0,0xb
    8000c564:	5a850513          	addi	a0,a0,1448 # 5a8 <offset+0x1b0>
    8000c568:	00b51513          	slli	a0,a0,0xb
    8000c56c:	13c50513          	addi	a0,a0,316
    8000c570:	00a51513          	slli	a0,a0,0xa
    8000c574:	33450513          	addi	a0,a0,820
    8000c578:	00500593          	li	a1,5
    8000c57c:	40b50633          	sub	a2,a0,a1
    8000c580:	2ec0b423          	sd	a2,744(ra)
    8000c584:	000b5137          	lui	sp,0xb5
    8000c588:	04f1011b          	addiw	sp,sp,79 # b504f <offset+0xb4c57>
    8000c58c:	00c11113          	slli	sp,sp,0xc
    8000c590:	32f10113          	addi	sp,sp,815
    8000c594:	00c10463          	beq	sp,a2,8000c59c <inst_637>
    8000c598:	a8df306f          	j	80000024 <rvtest_error>

000000008000c59c <inst_637>:
    8000c59c:	00000537          	lui	a0,0x0
    8000c5a0:	00050513          	mv	a0,a0
    8000c5a4:	00b51513          	slli	a0,a0,0xb
    8000c5a8:	5a850513          	addi	a0,a0,1448 # 5a8 <offset+0x1b0>
    8000c5ac:	00b51513          	slli	a0,a0,0xb
    8000c5b0:	13c50513          	addi	a0,a0,316
    8000c5b4:	00a51513          	slli	a0,a0,0xa
    8000c5b8:	33450513          	addi	a0,a0,820
    8000c5bc:	333335b7          	lui	a1,0x33333
    8000c5c0:	33358593          	addi	a1,a1,819 # 33333333 <absimmsh+0x27862586>
    8000c5c4:	00b59593          	slli	a1,a1,0xb
    8000c5c8:	19958593          	addi	a1,a1,409
    8000c5cc:	00b59593          	slli	a1,a1,0xb
    8000c5d0:	4cc58593          	addi	a1,a1,1228
    8000c5d4:	00a59593          	slli	a1,a1,0xa
    8000c5d8:	33358593          	addi	a1,a1,819
    8000c5dc:	40b50633          	sub	a2,a0,a1
    8000c5e0:	2ec0b823          	sd	a2,752(ra)
    8000c5e4:	9999a137          	lui	sp,0x9999a
    8000c5e8:	99b1011b          	addiw	sp,sp,-1637 # ffffffff9999999b <absimm+0xfffffffedec8becb>
    8000c5ec:	01111113          	slli	sp,sp,0x11
    8000c5f0:	74710113          	addi	sp,sp,1863
    8000c5f4:	00e11113          	slli	sp,sp,0xe
    8000c5f8:	00110113          	addi	sp,sp,1
    8000c5fc:	00c10463          	beq	sp,a2,8000c604 <inst_638>
    8000c600:	a25f306f          	j	80000024 <rvtest_error>

000000008000c604 <inst_638>:
    8000c604:	00000537          	lui	a0,0x0
    8000c608:	00050513          	mv	a0,a0
    8000c60c:	00b51513          	slli	a0,a0,0xb
    8000c610:	5a850513          	addi	a0,a0,1448 # 5a8 <offset+0x1b0>
    8000c614:	00b51513          	slli	a0,a0,0xb
    8000c618:	13c50513          	addi	a0,a0,316
    8000c61c:	00a51513          	slli	a0,a0,0xa
    8000c620:	33450513          	addi	a0,a0,820
    8000c624:	666665b7          	lui	a1,0x66666
    8000c628:	66658593          	addi	a1,a1,1638 # 66666666 <absimmsh+0x5ab958b9>
    8000c62c:	00b59593          	slli	a1,a1,0xb
    8000c630:	33358593          	addi	a1,a1,819
    8000c634:	00b59593          	slli	a1,a1,0xb
    8000c638:	19958593          	addi	a1,a1,409
    8000c63c:	00a59593          	slli	a1,a1,0xa
    8000c640:	26658593          	addi	a1,a1,614
    8000c644:	40b50633          	sub	a2,a0,a1
    8000c648:	2ec0bc23          	sd	a2,760(ra)
    8000c64c:	fcccd137          	lui	sp,0xfcccd
    8000c650:	ccd1011b          	addiw	sp,sp,-819 # fffffffffccccccd <absimm+0xffffffff41fbf1fd>
    8000c654:	00d11113          	slli	sp,sp,0xd
    8000c658:	a4f10113          	addi	sp,sp,-1457
    8000c65c:	00c11113          	slli	sp,sp,0xc
    8000c660:	9e910113          	addi	sp,sp,-1559
    8000c664:	00c11113          	slli	sp,sp,0xc
    8000c668:	cce10113          	addi	sp,sp,-818
    8000c66c:	00c10463          	beq	sp,a2,8000c674 <inst_639>
    8000c670:	9b5f306f          	j	80000024 <rvtest_error>

000000008000c674 <inst_639>:
    8000c674:	00000537          	lui	a0,0x0
    8000c678:	00050513          	mv	a0,a0
    8000c67c:	00b51513          	slli	a0,a0,0xb
    8000c680:	5a850513          	addi	a0,a0,1448 # 5a8 <offset+0x1b0>
    8000c684:	00b51513          	slli	a0,a0,0xb
    8000c688:	13c50513          	addi	a0,a0,316
    8000c68c:	00a51513          	slli	a0,a0,0xa
    8000c690:	33450513          	addi	a0,a0,820
    8000c694:	000005b7          	lui	a1,0x0
    8000c698:	fff58593          	addi	a1,a1,-1
    8000c69c:	00b59593          	slli	a1,a1,0xb
    8000c6a0:	25758593          	addi	a1,a1,599
    8000c6a4:	00b59593          	slli	a1,a1,0xb
    8000c6a8:	6c358593          	addi	a1,a1,1731
    8000c6ac:	00a59593          	slli	a1,a1,0xa
    8000c6b0:	0cd58593          	addi	a1,a1,205
    8000c6b4:	40b50633          	sub	a2,a0,a1
    8000c6b8:	30c0b023          	sd	a2,768(ra)
    8000c6bc:	000b5137          	lui	sp,0xb5
    8000c6c0:	04f1011b          	addiw	sp,sp,79 # b504f <offset+0xb4c57>
    8000c6c4:	00d11113          	slli	sp,sp,0xd
    8000c6c8:	66710113          	addi	sp,sp,1639
    8000c6cc:	00c10463          	beq	sp,a2,8000c6d4 <inst_640>
    8000c6d0:	955f306f          	j	80000024 <rvtest_error>

000000008000c6d4 <inst_640>:
    8000c6d4:	00000537          	lui	a0,0x0
    8000c6d8:	00050513          	mv	a0,a0
    8000c6dc:	00b51513          	slli	a0,a0,0xb
    8000c6e0:	5a850513          	addi	a0,a0,1448 # 5a8 <offset+0x1b0>
    8000c6e4:	00b51513          	slli	a0,a0,0xb
    8000c6e8:	13c50513          	addi	a0,a0,316
    8000c6ec:	00a51513          	slli	a0,a0,0xa
    8000c6f0:	33450513          	addi	a0,a0,820
    8000c6f4:	000005b7          	lui	a1,0x0
    8000c6f8:	00058593          	mv	a1,a1
    8000c6fc:	00b59593          	slli	a1,a1,0xb
    8000c700:	5a858593          	addi	a1,a1,1448 # 5a8 <offset+0x1b0>
    8000c704:	00b59593          	slli	a1,a1,0xb
    8000c708:	13c58593          	addi	a1,a1,316
    8000c70c:	00a59593          	slli	a1,a1,0xa
    8000c710:	33358593          	addi	a1,a1,819
    8000c714:	40b50633          	sub	a2,a0,a1
    8000c718:	30c0b423          	sd	a2,776(ra)
    8000c71c:	00100113          	li	sp,1
    8000c720:	00c10463          	beq	sp,a2,8000c728 <inst_641>
    8000c724:	901f306f          	j	80000024 <rvtest_error>

000000008000c728 <inst_641>:
    8000c728:	00000537          	lui	a0,0x0
    8000c72c:	00050513          	mv	a0,a0
    8000c730:	00b51513          	slli	a0,a0,0xb
    8000c734:	5a850513          	addi	a0,a0,1448 # 5a8 <offset+0x1b0>
    8000c738:	00b51513          	slli	a0,a0,0xb
    8000c73c:	13c50513          	addi	a0,a0,316
    8000c740:	00a51513          	slli	a0,a0,0xa
    8000c744:	33450513          	addi	a0,a0,820
    8000c748:	00200593          	li	a1,2
    8000c74c:	40b50633          	sub	a2,a0,a1
    8000c750:	30c0b823          	sd	a2,784(ra)
    8000c754:	000b5137          	lui	sp,0xb5
    8000c758:	04f1011b          	addiw	sp,sp,79 # b504f <offset+0xb4c57>
    8000c75c:	00c11113          	slli	sp,sp,0xc
    8000c760:	33210113          	addi	sp,sp,818
    8000c764:	00c10463          	beq	sp,a2,8000c76c <inst_642>
    8000c768:	8bdf306f          	j	80000024 <rvtest_error>

000000008000c76c <inst_642>:
    8000c76c:	00000537          	lui	a0,0x0
    8000c770:	00050513          	mv	a0,a0
    8000c774:	00b51513          	slli	a0,a0,0xb
    8000c778:	5a850513          	addi	a0,a0,1448 # 5a8 <offset+0x1b0>
    8000c77c:	00b51513          	slli	a0,a0,0xb
    8000c780:	13c50513          	addi	a0,a0,316
    8000c784:	00a51513          	slli	a0,a0,0xa
    8000c788:	33450513          	addi	a0,a0,820
    8000c78c:	555555b7          	lui	a1,0x55555
    8000c790:	55558593          	addi	a1,a1,1365 # 55555555 <absimmsh+0x49a847a8>
    8000c794:	00b59593          	slli	a1,a1,0xb
    8000c798:	2aa58593          	addi	a1,a1,682
    8000c79c:	00b59593          	slli	a1,a1,0xb
    8000c7a0:	55558593          	addi	a1,a1,1365
    8000c7a4:	00a59593          	slli	a1,a1,0xa
    8000c7a8:	15458593          	addi	a1,a1,340
    8000c7ac:	40b50633          	sub	a2,a0,a1
    8000c7b0:	30c0bc23          	sd	a2,792(ra)
    8000c7b4:	ffd55137          	lui	sp,0xffd55
    8000c7b8:	5551011b          	addiw	sp,sp,1365 # ffffffffffd55555 <absimm+0xffffffff45047a85>
    8000c7bc:	00c11113          	slli	sp,sp,0xc
    8000c7c0:	55b10113          	addi	sp,sp,1371
    8000c7c4:	01011113          	slli	sp,sp,0x10
    8000c7c8:	d7d10113          	addi	sp,sp,-643
    8000c7cc:	00d11113          	slli	sp,sp,0xd
    8000c7d0:	de010113          	addi	sp,sp,-544
    8000c7d4:	00c10463          	beq	sp,a2,8000c7dc <inst_643>
    8000c7d8:	84df306f          	j	80000024 <rvtest_error>

000000008000c7dc <inst_643>:
    8000c7dc:	00000537          	lui	a0,0x0
    8000c7e0:	00050513          	mv	a0,a0
    8000c7e4:	00b51513          	slli	a0,a0,0xb
    8000c7e8:	5a850513          	addi	a0,a0,1448 # 5a8 <offset+0x1b0>
    8000c7ec:	00b51513          	slli	a0,a0,0xb
    8000c7f0:	13c50513          	addi	a0,a0,316
    8000c7f4:	00a51513          	slli	a0,a0,0xa
    8000c7f8:	33450513          	addi	a0,a0,820
    8000c7fc:	00000593          	li	a1,0
    8000c800:	40b50633          	sub	a2,a0,a1
    8000c804:	32c0b023          	sd	a2,800(ra)
    8000c808:	000b5137          	lui	sp,0xb5
    8000c80c:	04f1011b          	addiw	sp,sp,79 # b504f <offset+0xb4c57>
    8000c810:	00c11113          	slli	sp,sp,0xc
    8000c814:	33410113          	addi	sp,sp,820
    8000c818:	00c10463          	beq	sp,a2,8000c820 <inst_644>
    8000c81c:	809f306f          	j	80000024 <rvtest_error>

000000008000c820 <inst_644>:
    8000c820:	00000537          	lui	a0,0x0
    8000c824:	00050513          	mv	a0,a0
    8000c828:	00b51513          	slli	a0,a0,0xb
    8000c82c:	5a850513          	addi	a0,a0,1448 # 5a8 <offset+0x1b0>
    8000c830:	00b51513          	slli	a0,a0,0xb
    8000c834:	13c50513          	addi	a0,a0,316
    8000c838:	00a51513          	slli	a0,a0,0xa
    8000c83c:	33450513          	addi	a0,a0,820
    8000c840:	00400593          	li	a1,4
    8000c844:	40b50633          	sub	a2,a0,a1
    8000c848:	32c0b423          	sd	a2,808(ra)
    8000c84c:	000b5137          	lui	sp,0xb5
    8000c850:	04f1011b          	addiw	sp,sp,79 # b504f <offset+0xb4c57>
    8000c854:	00c11113          	slli	sp,sp,0xc
    8000c858:	33010113          	addi	sp,sp,816
    8000c85c:	00c10463          	beq	sp,a2,8000c864 <inst_645>
    8000c860:	fc4f306f          	j	80000024 <rvtest_error>

000000008000c864 <inst_645>:
    8000c864:	00000537          	lui	a0,0x0
    8000c868:	00050513          	mv	a0,a0
    8000c86c:	00b51513          	slli	a0,a0,0xb
    8000c870:	5a850513          	addi	a0,a0,1448 # 5a8 <offset+0x1b0>
    8000c874:	00b51513          	slli	a0,a0,0xb
    8000c878:	13c50513          	addi	a0,a0,316
    8000c87c:	00a51513          	slli	a0,a0,0xa
    8000c880:	33450513          	addi	a0,a0,820
    8000c884:	333335b7          	lui	a1,0x33333
    8000c888:	33358593          	addi	a1,a1,819 # 33333333 <absimmsh+0x27862586>
    8000c88c:	00b59593          	slli	a1,a1,0xb
    8000c890:	19958593          	addi	a1,a1,409
    8000c894:	00b59593          	slli	a1,a1,0xb
    8000c898:	4cc58593          	addi	a1,a1,1228
    8000c89c:	00a59593          	slli	a1,a1,0xa
    8000c8a0:	33258593          	addi	a1,a1,818
    8000c8a4:	40b50633          	sub	a2,a0,a1
    8000c8a8:	32c0b823          	sd	a2,816(ra)
    8000c8ac:	9999a137          	lui	sp,0x9999a
    8000c8b0:	99b1011b          	addiw	sp,sp,-1637 # ffffffff9999999b <absimm+0xfffffffedec8becb>
    8000c8b4:	01111113          	slli	sp,sp,0x11
    8000c8b8:	74710113          	addi	sp,sp,1863
    8000c8bc:	00e11113          	slli	sp,sp,0xe
    8000c8c0:	00210113          	addi	sp,sp,2
    8000c8c4:	00c10463          	beq	sp,a2,8000c8cc <inst_646>
    8000c8c8:	f5cf306f          	j	80000024 <rvtest_error>

000000008000c8cc <inst_646>:
    8000c8cc:	00000537          	lui	a0,0x0
    8000c8d0:	00050513          	mv	a0,a0
    8000c8d4:	00b51513          	slli	a0,a0,0xb
    8000c8d8:	5a850513          	addi	a0,a0,1448 # 5a8 <offset+0x1b0>
    8000c8dc:	00b51513          	slli	a0,a0,0xb
    8000c8e0:	13c50513          	addi	a0,a0,316
    8000c8e4:	00a51513          	slli	a0,a0,0xa
    8000c8e8:	33450513          	addi	a0,a0,820
    8000c8ec:	666665b7          	lui	a1,0x66666
    8000c8f0:	66658593          	addi	a1,a1,1638 # 66666666 <absimmsh+0x5ab958b9>
    8000c8f4:	00b59593          	slli	a1,a1,0xb
    8000c8f8:	33358593          	addi	a1,a1,819
    8000c8fc:	00b59593          	slli	a1,a1,0xb
    8000c900:	19958593          	addi	a1,a1,409
    8000c904:	00a59593          	slli	a1,a1,0xa
    8000c908:	26558593          	addi	a1,a1,613
    8000c90c:	40b50633          	sub	a2,a0,a1
    8000c910:	32c0bc23          	sd	a2,824(ra)
    8000c914:	fcccd137          	lui	sp,0xfcccd
    8000c918:	ccd1011b          	addiw	sp,sp,-819 # fffffffffccccccd <absimm+0xffffffff41fbf1fd>
    8000c91c:	00d11113          	slli	sp,sp,0xd
    8000c920:	a4f10113          	addi	sp,sp,-1457
    8000c924:	00c11113          	slli	sp,sp,0xc
    8000c928:	9e910113          	addi	sp,sp,-1559
    8000c92c:	00c11113          	slli	sp,sp,0xc
    8000c930:	ccf10113          	addi	sp,sp,-817
    8000c934:	00c10463          	beq	sp,a2,8000c93c <inst_647>
    8000c938:	eecf306f          	j	80000024 <rvtest_error>

000000008000c93c <inst_647>:
    8000c93c:	00000537          	lui	a0,0x0
    8000c940:	00050513          	mv	a0,a0
    8000c944:	00b51513          	slli	a0,a0,0xb
    8000c948:	5a850513          	addi	a0,a0,1448 # 5a8 <offset+0x1b0>
    8000c94c:	00b51513          	slli	a0,a0,0xb
    8000c950:	13c50513          	addi	a0,a0,316
    8000c954:	00a51513          	slli	a0,a0,0xa
    8000c958:	33450513          	addi	a0,a0,820
    8000c95c:	000005b7          	lui	a1,0x0
    8000c960:	00058593          	mv	a1,a1
    8000c964:	00b59593          	slli	a1,a1,0xb
    8000c968:	5a858593          	addi	a1,a1,1448 # 5a8 <offset+0x1b0>
    8000c96c:	00b59593          	slli	a1,a1,0xb
    8000c970:	13c58593          	addi	a1,a1,316
    8000c974:	00a59593          	slli	a1,a1,0xa
    8000c978:	33258593          	addi	a1,a1,818
    8000c97c:	40b50633          	sub	a2,a0,a1
    8000c980:	34c0b023          	sd	a2,832(ra)
    8000c984:	00200113          	li	sp,2
    8000c988:	00c10463          	beq	sp,a2,8000c990 <inst_648>
    8000c98c:	e98f306f          	j	80000024 <rvtest_error>

000000008000c990 <inst_648>:
    8000c990:	00000537          	lui	a0,0x0
    8000c994:	00050513          	mv	a0,a0
    8000c998:	00b51513          	slli	a0,a0,0xb
    8000c99c:	5a850513          	addi	a0,a0,1448 # 5a8 <offset+0x1b0>
    8000c9a0:	00b51513          	slli	a0,a0,0xb
    8000c9a4:	13c50513          	addi	a0,a0,316
    8000c9a8:	00a51513          	slli	a0,a0,0xa
    8000c9ac:	33450513          	addi	a0,a0,820
    8000c9b0:	555555b7          	lui	a1,0x55555
    8000c9b4:	55558593          	addi	a1,a1,1365 # 55555555 <absimmsh+0x49a847a8>
    8000c9b8:	00b59593          	slli	a1,a1,0xb
    8000c9bc:	2aa58593          	addi	a1,a1,682
    8000c9c0:	00b59593          	slli	a1,a1,0xb
    8000c9c4:	55558593          	addi	a1,a1,1365
    8000c9c8:	00a59593          	slli	a1,a1,0xa
    8000c9cc:	15658593          	addi	a1,a1,342
    8000c9d0:	40b50633          	sub	a2,a0,a1
    8000c9d4:	34c0b423          	sd	a2,840(ra)
    8000c9d8:	ffd55137          	lui	sp,0xffd55
    8000c9dc:	5551011b          	addiw	sp,sp,1365 # ffffffffffd55555 <absimm+0xffffffff45047a85>
    8000c9e0:	00c11113          	slli	sp,sp,0xc
    8000c9e4:	55b10113          	addi	sp,sp,1371
    8000c9e8:	01011113          	slli	sp,sp,0x10
    8000c9ec:	d7d10113          	addi	sp,sp,-643
    8000c9f0:	00d11113          	slli	sp,sp,0xd
    8000c9f4:	dde10113          	addi	sp,sp,-546
    8000c9f8:	00c10463          	beq	sp,a2,8000ca00 <inst_649>
    8000c9fc:	e28f306f          	j	80000024 <rvtest_error>

000000008000ca00 <inst_649>:
    8000ca00:	00000537          	lui	a0,0x0
    8000ca04:	00050513          	mv	a0,a0
    8000ca08:	00b51513          	slli	a0,a0,0xb
    8000ca0c:	5a850513          	addi	a0,a0,1448 # 5a8 <offset+0x1b0>
    8000ca10:	00b51513          	slli	a0,a0,0xb
    8000ca14:	13c50513          	addi	a0,a0,316
    8000ca18:	00a51513          	slli	a0,a0,0xa
    8000ca1c:	33450513          	addi	a0,a0,820
    8000ca20:	aaaab5b7          	lui	a1,0xaaaab
    8000ca24:	aaa58593          	addi	a1,a1,-1366 # ffffffffaaaaaaaa <absimm+0xfffffffeefd9cfda>
    8000ca28:	00b59593          	slli	a1,a1,0xb
    8000ca2c:	55558593          	addi	a1,a1,1365
    8000ca30:	00b59593          	slli	a1,a1,0xb
    8000ca34:	2aa58593          	addi	a1,a1,682
    8000ca38:	00a59593          	slli	a1,a1,0xa
    8000ca3c:	2ab58593          	addi	a1,a1,683
    8000ca40:	40b50633          	sub	a2,a0,a1
    8000ca44:	34c0b823          	sd	a2,848(ra)
    8000ca48:	02aab137          	lui	sp,0x2aab
    8000ca4c:	aab1011b          	addiw	sp,sp,-1365 # 2aaaaab <offset+0x2aaa6b3>
    8000ca50:	00c11113          	slli	sp,sp,0xc
    8000ca54:	b0510113          	addi	sp,sp,-1275
    8000ca58:	00d11113          	slli	sp,sp,0xd
    8000ca5c:	5a510113          	addi	sp,sp,1445
    8000ca60:	00c11113          	slli	sp,sp,0xc
    8000ca64:	88910113          	addi	sp,sp,-1911
    8000ca68:	00c10463          	beq	sp,a2,8000ca70 <inst_650>
    8000ca6c:	db8f306f          	j	80000024 <rvtest_error>

000000008000ca70 <inst_650>:
    8000ca70:	00000537          	lui	a0,0x0
    8000ca74:	00050513          	mv	a0,a0
    8000ca78:	00b51513          	slli	a0,a0,0xb
    8000ca7c:	5a850513          	addi	a0,a0,1448 # 5a8 <offset+0x1b0>
    8000ca80:	00b51513          	slli	a0,a0,0xb
    8000ca84:	13c50513          	addi	a0,a0,316
    8000ca88:	00a51513          	slli	a0,a0,0xa
    8000ca8c:	33450513          	addi	a0,a0,820
    8000ca90:	00600593          	li	a1,6
    8000ca94:	40b50633          	sub	a2,a0,a1
    8000ca98:	34c0bc23          	sd	a2,856(ra)
    8000ca9c:	000b5137          	lui	sp,0xb5
    8000caa0:	04f1011b          	addiw	sp,sp,79 # b504f <offset+0xb4c57>
    8000caa4:	00c11113          	slli	sp,sp,0xc
    8000caa8:	32e10113          	addi	sp,sp,814
    8000caac:	00c10463          	beq	sp,a2,8000cab4 <inst_651>
    8000cab0:	d74f306f          	j	80000024 <rvtest_error>

000000008000cab4 <inst_651>:
    8000cab4:	00000537          	lui	a0,0x0
    8000cab8:	00050513          	mv	a0,a0
    8000cabc:	00b51513          	slli	a0,a0,0xb
    8000cac0:	5a850513          	addi	a0,a0,1448 # 5a8 <offset+0x1b0>
    8000cac4:	00b51513          	slli	a0,a0,0xb
    8000cac8:	13c50513          	addi	a0,a0,316
    8000cacc:	00a51513          	slli	a0,a0,0xa
    8000cad0:	33450513          	addi	a0,a0,820
    8000cad4:	333335b7          	lui	a1,0x33333
    8000cad8:	33358593          	addi	a1,a1,819 # 33333333 <absimmsh+0x27862586>
    8000cadc:	00b59593          	slli	a1,a1,0xb
    8000cae0:	19958593          	addi	a1,a1,409
    8000cae4:	00b59593          	slli	a1,a1,0xb
    8000cae8:	4cc58593          	addi	a1,a1,1228
    8000caec:	00a59593          	slli	a1,a1,0xa
    8000caf0:	33458593          	addi	a1,a1,820
    8000caf4:	40b50633          	sub	a2,a0,a1
    8000caf8:	36c0b023          	sd	a2,864(ra)
    8000cafc:	9999a137          	lui	sp,0x9999a
    8000cb00:	99b1011b          	addiw	sp,sp,-1637 # ffffffff9999999b <absimm+0xfffffffedec8becb>
    8000cb04:	01111113          	slli	sp,sp,0x11
    8000cb08:	74710113          	addi	sp,sp,1863
    8000cb0c:	00e11113          	slli	sp,sp,0xe
    8000cb10:	00c10463          	beq	sp,a2,8000cb18 <inst_652>
    8000cb14:	d10f306f          	j	80000024 <rvtest_error>

000000008000cb18 <inst_652>:
    8000cb18:	00000537          	lui	a0,0x0
    8000cb1c:	00050513          	mv	a0,a0
    8000cb20:	00b51513          	slli	a0,a0,0xb
    8000cb24:	5a850513          	addi	a0,a0,1448 # 5a8 <offset+0x1b0>
    8000cb28:	00b51513          	slli	a0,a0,0xb
    8000cb2c:	13c50513          	addi	a0,a0,316
    8000cb30:	00a51513          	slli	a0,a0,0xa
    8000cb34:	33450513          	addi	a0,a0,820
    8000cb38:	666665b7          	lui	a1,0x66666
    8000cb3c:	66658593          	addi	a1,a1,1638 # 66666666 <absimmsh+0x5ab958b9>
    8000cb40:	00b59593          	slli	a1,a1,0xb
    8000cb44:	33358593          	addi	a1,a1,819
    8000cb48:	00b59593          	slli	a1,a1,0xb
    8000cb4c:	19958593          	addi	a1,a1,409
    8000cb50:	00a59593          	slli	a1,a1,0xa
    8000cb54:	26758593          	addi	a1,a1,615
    8000cb58:	40b50633          	sub	a2,a0,a1
    8000cb5c:	36c0b423          	sd	a2,872(ra)
    8000cb60:	fcccd137          	lui	sp,0xfcccd
    8000cb64:	ccd1011b          	addiw	sp,sp,-819 # fffffffffccccccd <absimm+0xffffffff41fbf1fd>
    8000cb68:	00d11113          	slli	sp,sp,0xd
    8000cb6c:	a4f10113          	addi	sp,sp,-1457
    8000cb70:	00c11113          	slli	sp,sp,0xc
    8000cb74:	9e910113          	addi	sp,sp,-1559
    8000cb78:	00c11113          	slli	sp,sp,0xc
    8000cb7c:	ccd10113          	addi	sp,sp,-819
    8000cb80:	00c10463          	beq	sp,a2,8000cb88 <inst_653>
    8000cb84:	ca0f306f          	j	80000024 <rvtest_error>

000000008000cb88 <inst_653>:
    8000cb88:	00000537          	lui	a0,0x0
    8000cb8c:	00050513          	mv	a0,a0
    8000cb90:	00b51513          	slli	a0,a0,0xb
    8000cb94:	5a850513          	addi	a0,a0,1448 # 5a8 <offset+0x1b0>
    8000cb98:	00b51513          	slli	a0,a0,0xb
    8000cb9c:	13c50513          	addi	a0,a0,316
    8000cba0:	00a51513          	slli	a0,a0,0xa
    8000cba4:	33450513          	addi	a0,a0,820
    8000cba8:	000005b7          	lui	a1,0x0
    8000cbac:	fff58593          	addi	a1,a1,-1
    8000cbb0:	00b59593          	slli	a1,a1,0xb
    8000cbb4:	25758593          	addi	a1,a1,599
    8000cbb8:	00b59593          	slli	a1,a1,0xb
    8000cbbc:	6c358593          	addi	a1,a1,1731
    8000cbc0:	00a59593          	slli	a1,a1,0xa
    8000cbc4:	0ce58593          	addi	a1,a1,206
    8000cbc8:	40b50633          	sub	a2,a0,a1
    8000cbcc:	36c0b823          	sd	a2,880(ra)
    8000cbd0:	000b5137          	lui	sp,0xb5
    8000cbd4:	04f1011b          	addiw	sp,sp,79 # b504f <offset+0xb4c57>
    8000cbd8:	00d11113          	slli	sp,sp,0xd
    8000cbdc:	66610113          	addi	sp,sp,1638
    8000cbe0:	00c10463          	beq	sp,a2,8000cbe8 <inst_654>
    8000cbe4:	c40f306f          	j	80000024 <rvtest_error>

000000008000cbe8 <inst_654>:
    8000cbe8:	00000537          	lui	a0,0x0
    8000cbec:	00050513          	mv	a0,a0
    8000cbf0:	00b51513          	slli	a0,a0,0xb
    8000cbf4:	5a850513          	addi	a0,a0,1448 # 5a8 <offset+0x1b0>
    8000cbf8:	00b51513          	slli	a0,a0,0xb
    8000cbfc:	13c50513          	addi	a0,a0,316
    8000cc00:	00a51513          	slli	a0,a0,0xa
    8000cc04:	33450513          	addi	a0,a0,820
    8000cc08:	000005b7          	lui	a1,0x0
    8000cc0c:	00058593          	mv	a1,a1
    8000cc10:	00b59593          	slli	a1,a1,0xb
    8000cc14:	5a858593          	addi	a1,a1,1448 # 5a8 <offset+0x1b0>
    8000cc18:	00b59593          	slli	a1,a1,0xb
    8000cc1c:	13c58593          	addi	a1,a1,316
    8000cc20:	00a59593          	slli	a1,a1,0xa
    8000cc24:	33458593          	addi	a1,a1,820
    8000cc28:	40b50633          	sub	a2,a0,a1
    8000cc2c:	36c0bc23          	sd	a2,888(ra)
    8000cc30:	00000113          	li	sp,0
    8000cc34:	00c10463          	beq	sp,a2,8000cc3c <inst_655>
    8000cc38:	becf306f          	j	80000024 <rvtest_error>

000000008000cc3c <inst_655>:
    8000cc3c:	00000513          	li	a0,0
    8000cc40:	000005b7          	lui	a1,0x0
    8000cc44:	00058593          	mv	a1,a1
    8000cc48:	00b59593          	slli	a1,a1,0xb
    8000cc4c:	5a858593          	addi	a1,a1,1448 # 5a8 <offset+0x1b0>
    8000cc50:	00b59593          	slli	a1,a1,0xb
    8000cc54:	13c58593          	addi	a1,a1,316
    8000cc58:	00a59593          	slli	a1,a1,0xa
    8000cc5c:	33358593          	addi	a1,a1,819
    8000cc60:	40b50633          	sub	a2,a0,a1
    8000cc64:	38c0b023          	sd	a2,896(ra)
    8000cc68:	fff4b137          	lui	sp,0xfff4b
    8000cc6c:	fb11011b          	addiw	sp,sp,-79 # fffffffffff4afb1 <absimm+0xffffffff4523d4e1>
    8000cc70:	00c11113          	slli	sp,sp,0xc
    8000cc74:	ccd10113          	addi	sp,sp,-819
    8000cc78:	00c10463          	beq	sp,a2,8000cc80 <inst_656>
    8000cc7c:	ba8f306f          	j	80000024 <rvtest_error>

000000008000cc80 <inst_656>:
    8000cc80:	00000513          	li	a0,0
    8000cc84:	00200593          	li	a1,2
    8000cc88:	40b50633          	sub	a2,a0,a1
    8000cc8c:	38c0b423          	sd	a2,904(ra)
    8000cc90:	ffe00113          	li	sp,-2
    8000cc94:	00c10463          	beq	sp,a2,8000cc9c <inst_657>
    8000cc98:	b8cf306f          	j	80000024 <rvtest_error>

000000008000cc9c <inst_657>:
    8000cc9c:	00000513          	li	a0,0
    8000cca0:	555555b7          	lui	a1,0x55555
    8000cca4:	55558593          	addi	a1,a1,1365 # 55555555 <absimmsh+0x49a847a8>
    8000cca8:	00b59593          	slli	a1,a1,0xb
    8000ccac:	2aa58593          	addi	a1,a1,682
    8000ccb0:	00b59593          	slli	a1,a1,0xb
    8000ccb4:	55558593          	addi	a1,a1,1365
    8000ccb8:	00a59593          	slli	a1,a1,0xa
    8000ccbc:	15458593          	addi	a1,a1,340
    8000ccc0:	40b50633          	sub	a2,a0,a1
    8000ccc4:	38c0b823          	sd	a2,912(ra)
    8000ccc8:	faaab137          	lui	sp,0xfaaab
    8000cccc:	aab1011b          	addiw	sp,sp,-1365 # fffffffffaaaaaab <absimm+0xffffffff3fd9cfdb>
    8000ccd0:	00c11113          	slli	sp,sp,0xc
    8000ccd4:	aab10113          	addi	sp,sp,-1365
    8000ccd8:	00c11113          	slli	sp,sp,0xc
    8000ccdc:	aab10113          	addi	sp,sp,-1365
    8000cce0:	00c11113          	slli	sp,sp,0xc
    8000cce4:	aac10113          	addi	sp,sp,-1364
    8000cce8:	00c10463          	beq	sp,a2,8000ccf0 <inst_658>
    8000ccec:	b38f306f          	j	80000024 <rvtest_error>

000000008000ccf0 <inst_658>:
    8000ccf0:	00000513          	li	a0,0
    8000ccf4:	00400593          	li	a1,4
    8000ccf8:	40b50633          	sub	a2,a0,a1
    8000ccfc:	38c0bc23          	sd	a2,920(ra)
    8000cd00:	ffc00113          	li	sp,-4
    8000cd04:	00c10463          	beq	sp,a2,8000cd0c <inst_659>
    8000cd08:	b1cf306f          	j	80000024 <rvtest_error>

000000008000cd0c <inst_659>:
    8000cd0c:	00000513          	li	a0,0
    8000cd10:	333335b7          	lui	a1,0x33333
    8000cd14:	33358593          	addi	a1,a1,819 # 33333333 <absimmsh+0x27862586>
    8000cd18:	00b59593          	slli	a1,a1,0xb
    8000cd1c:	19958593          	addi	a1,a1,409
    8000cd20:	00b59593          	slli	a1,a1,0xb
    8000cd24:	4cc58593          	addi	a1,a1,1228
    8000cd28:	00a59593          	slli	a1,a1,0xa
    8000cd2c:	33258593          	addi	a1,a1,818
    8000cd30:	40b50633          	sub	a2,a0,a1
    8000cd34:	3ac0b023          	sd	a2,928(ra)
    8000cd38:	fcccd137          	lui	sp,0xfcccd
    8000cd3c:	ccd1011b          	addiw	sp,sp,-819 # fffffffffccccccd <absimm+0xffffffff41fbf1fd>
    8000cd40:	00c11113          	slli	sp,sp,0xc
    8000cd44:	ccd10113          	addi	sp,sp,-819
    8000cd48:	00c11113          	slli	sp,sp,0xc
    8000cd4c:	ccd10113          	addi	sp,sp,-819
    8000cd50:	00c11113          	slli	sp,sp,0xc
    8000cd54:	cce10113          	addi	sp,sp,-818
    8000cd58:	00c10463          	beq	sp,a2,8000cd60 <inst_660>
    8000cd5c:	ac8f306f          	j	80000024 <rvtest_error>

000000008000cd60 <inst_660>:
    8000cd60:	00000513          	li	a0,0
    8000cd64:	666665b7          	lui	a1,0x66666
    8000cd68:	66658593          	addi	a1,a1,1638 # 66666666 <absimmsh+0x5ab958b9>
    8000cd6c:	00b59593          	slli	a1,a1,0xb
    8000cd70:	33358593          	addi	a1,a1,819
    8000cd74:	00b59593          	slli	a1,a1,0xb
    8000cd78:	19958593          	addi	a1,a1,409
    8000cd7c:	00a59593          	slli	a1,a1,0xa
    8000cd80:	26558593          	addi	a1,a1,613
    8000cd84:	40b50633          	sub	a2,a0,a1
    8000cd88:	3ac0b423          	sd	a2,936(ra)
    8000cd8c:	fcccd137          	lui	sp,0xfcccd
    8000cd90:	ccd1011b          	addiw	sp,sp,-819 # fffffffffccccccd <absimm+0xffffffff41fbf1fd>
    8000cd94:	00c11113          	slli	sp,sp,0xc
    8000cd98:	ccd10113          	addi	sp,sp,-819
    8000cd9c:	00c11113          	slli	sp,sp,0xc
    8000cda0:	ccd10113          	addi	sp,sp,-819
    8000cda4:	00d11113          	slli	sp,sp,0xd
    8000cda8:	99b10113          	addi	sp,sp,-1637
    8000cdac:	00c10463          	beq	sp,a2,8000cdb4 <inst_661>
    8000cdb0:	a74f306f          	j	80000024 <rvtest_error>

000000008000cdb4 <inst_661>:
    8000cdb4:	00000513          	li	a0,0
    8000cdb8:	000005b7          	lui	a1,0x0
    8000cdbc:	00058593          	mv	a1,a1
    8000cdc0:	00b59593          	slli	a1,a1,0xb
    8000cdc4:	5a858593          	addi	a1,a1,1448 # 5a8 <offset+0x1b0>
    8000cdc8:	00b59593          	slli	a1,a1,0xb
    8000cdcc:	13c58593          	addi	a1,a1,316
    8000cdd0:	00a59593          	slli	a1,a1,0xa
    8000cdd4:	33258593          	addi	a1,a1,818
    8000cdd8:	40b50633          	sub	a2,a0,a1
    8000cddc:	3ac0b823          	sd	a2,944(ra)
    8000cde0:	fff4b137          	lui	sp,0xfff4b
    8000cde4:	fb11011b          	addiw	sp,sp,-79 # fffffffffff4afb1 <absimm+0xffffffff4523d4e1>
    8000cde8:	00c11113          	slli	sp,sp,0xc
    8000cdec:	cce10113          	addi	sp,sp,-818
    8000cdf0:	00c10463          	beq	sp,a2,8000cdf8 <inst_662>
    8000cdf4:	a30f306f          	j	80000024 <rvtest_error>

000000008000cdf8 <inst_662>:
    8000cdf8:	00000513          	li	a0,0
    8000cdfc:	555555b7          	lui	a1,0x55555
    8000ce00:	55558593          	addi	a1,a1,1365 # 55555555 <absimmsh+0x49a847a8>
    8000ce04:	00b59593          	slli	a1,a1,0xb
    8000ce08:	2aa58593          	addi	a1,a1,682
    8000ce0c:	00b59593          	slli	a1,a1,0xb
    8000ce10:	55558593          	addi	a1,a1,1365
    8000ce14:	00a59593          	slli	a1,a1,0xa
    8000ce18:	15658593          	addi	a1,a1,342
    8000ce1c:	40b50633          	sub	a2,a0,a1
    8000ce20:	3ac0bc23          	sd	a2,952(ra)
    8000ce24:	faaab137          	lui	sp,0xfaaab
    8000ce28:	aab1011b          	addiw	sp,sp,-1365 # fffffffffaaaaaab <absimm+0xffffffff3fd9cfdb>
    8000ce2c:	00c11113          	slli	sp,sp,0xc
    8000ce30:	aab10113          	addi	sp,sp,-1365
    8000ce34:	00c11113          	slli	sp,sp,0xc
    8000ce38:	aab10113          	addi	sp,sp,-1365
    8000ce3c:	00c11113          	slli	sp,sp,0xc
    8000ce40:	aaa10113          	addi	sp,sp,-1366
    8000ce44:	00c10463          	beq	sp,a2,8000ce4c <inst_663>
    8000ce48:	9dcf306f          	j	80000024 <rvtest_error>

000000008000ce4c <inst_663>:
    8000ce4c:	00000513          	li	a0,0
    8000ce50:	aaaab5b7          	lui	a1,0xaaaab
    8000ce54:	aaa58593          	addi	a1,a1,-1366 # ffffffffaaaaaaaa <absimm+0xfffffffeefd9cfda>
    8000ce58:	00b59593          	slli	a1,a1,0xb
    8000ce5c:	55558593          	addi	a1,a1,1365
    8000ce60:	00b59593          	slli	a1,a1,0xb
    8000ce64:	2aa58593          	addi	a1,a1,682
    8000ce68:	00a59593          	slli	a1,a1,0xa
    8000ce6c:	2ab58593          	addi	a1,a1,683
    8000ce70:	40b50633          	sub	a2,a0,a1
    8000ce74:	3cc0b023          	sd	a2,960(ra)
    8000ce78:	05555137          	lui	sp,0x5555
    8000ce7c:	5551011b          	addiw	sp,sp,1365 # 5555555 <offset+0x555515d>
    8000ce80:	00c11113          	slli	sp,sp,0xc
    8000ce84:	55510113          	addi	sp,sp,1365
    8000ce88:	00c11113          	slli	sp,sp,0xc
    8000ce8c:	55510113          	addi	sp,sp,1365
    8000ce90:	00c11113          	slli	sp,sp,0xc
    8000ce94:	55510113          	addi	sp,sp,1365
    8000ce98:	00c10463          	beq	sp,a2,8000cea0 <inst_664>
    8000ce9c:	988f306f          	j	80000024 <rvtest_error>

000000008000cea0 <inst_664>:
    8000cea0:	00000513          	li	a0,0
    8000cea4:	00600593          	li	a1,6
    8000cea8:	40b50633          	sub	a2,a0,a1
    8000ceac:	3cc0b423          	sd	a2,968(ra)
    8000ceb0:	ffa00113          	li	sp,-6
    8000ceb4:	00c10463          	beq	sp,a2,8000cebc <inst_665>
    8000ceb8:	96cf306f          	j	80000024 <rvtest_error>

000000008000cebc <inst_665>:
    8000cebc:	00000513          	li	a0,0
    8000cec0:	333335b7          	lui	a1,0x33333
    8000cec4:	33358593          	addi	a1,a1,819 # 33333333 <absimmsh+0x27862586>
    8000cec8:	00b59593          	slli	a1,a1,0xb
    8000cecc:	19958593          	addi	a1,a1,409
    8000ced0:	00b59593          	slli	a1,a1,0xb
    8000ced4:	4cc58593          	addi	a1,a1,1228
    8000ced8:	00a59593          	slli	a1,a1,0xa
    8000cedc:	33458593          	addi	a1,a1,820
    8000cee0:	40b50633          	sub	a2,a0,a1
    8000cee4:	3cc0b823          	sd	a2,976(ra)
    8000cee8:	fcccd137          	lui	sp,0xfcccd
    8000ceec:	ccd1011b          	addiw	sp,sp,-819 # fffffffffccccccd <absimm+0xffffffff41fbf1fd>
    8000cef0:	00c11113          	slli	sp,sp,0xc
    8000cef4:	ccd10113          	addi	sp,sp,-819
    8000cef8:	00c11113          	slli	sp,sp,0xc
    8000cefc:	ccd10113          	addi	sp,sp,-819
    8000cf00:	00c11113          	slli	sp,sp,0xc
    8000cf04:	ccc10113          	addi	sp,sp,-820
    8000cf08:	00c10463          	beq	sp,a2,8000cf10 <inst_666>
    8000cf0c:	918f306f          	j	80000024 <rvtest_error>

000000008000cf10 <inst_666>:
    8000cf10:	00000513          	li	a0,0
    8000cf14:	666665b7          	lui	a1,0x66666
    8000cf18:	66658593          	addi	a1,a1,1638 # 66666666 <absimmsh+0x5ab958b9>
    8000cf1c:	00b59593          	slli	a1,a1,0xb
    8000cf20:	33358593          	addi	a1,a1,819
    8000cf24:	00b59593          	slli	a1,a1,0xb
    8000cf28:	19958593          	addi	a1,a1,409
    8000cf2c:	00a59593          	slli	a1,a1,0xa
    8000cf30:	26758593          	addi	a1,a1,615
    8000cf34:	40b50633          	sub	a2,a0,a1
    8000cf38:	3cc0bc23          	sd	a2,984(ra)
    8000cf3c:	fcccd137          	lui	sp,0xfcccd
    8000cf40:	ccd1011b          	addiw	sp,sp,-819 # fffffffffccccccd <absimm+0xffffffff41fbf1fd>
    8000cf44:	00c11113          	slli	sp,sp,0xc
    8000cf48:	ccd10113          	addi	sp,sp,-819
    8000cf4c:	00c11113          	slli	sp,sp,0xc
    8000cf50:	ccd10113          	addi	sp,sp,-819
    8000cf54:	00d11113          	slli	sp,sp,0xd
    8000cf58:	99910113          	addi	sp,sp,-1639
    8000cf5c:	00c10463          	beq	sp,a2,8000cf64 <inst_667>
    8000cf60:	8c4f306f          	j	80000024 <rvtest_error>

000000008000cf64 <inst_667>:
    8000cf64:	00100513          	li	a0,1
    8000cf68:	03b51513          	slli	a0,a0,0x3b
    8000cf6c:	fff54513          	not	a0,a0
    8000cf70:	aaaab5b7          	lui	a1,0xaaaab
    8000cf74:	aaa58593          	addi	a1,a1,-1366 # ffffffffaaaaaaaa <absimm+0xfffffffeefd9cfda>
    8000cf78:	00b59593          	slli	a1,a1,0xb
    8000cf7c:	55558593          	addi	a1,a1,1365
    8000cf80:	00b59593          	slli	a1,a1,0xb
    8000cf84:	2aa58593          	addi	a1,a1,682
    8000cf88:	00a59593          	slli	a1,a1,0xa
    8000cf8c:	2ab58593          	addi	a1,a1,683
    8000cf90:	40b50633          	sub	a2,a0,a1
    8000cf94:	3ec0b023          	sd	a2,992(ra)
    8000cf98:	04d55137          	lui	sp,0x4d55
    8000cf9c:	5551011b          	addiw	sp,sp,1365 # 4d55555 <offset+0x4d5515d>
    8000cfa0:	00c11113          	slli	sp,sp,0xc
    8000cfa4:	55510113          	addi	sp,sp,1365
    8000cfa8:	00c11113          	slli	sp,sp,0xc
    8000cfac:	55510113          	addi	sp,sp,1365
    8000cfb0:	00c11113          	slli	sp,sp,0xc
    8000cfb4:	55410113          	addi	sp,sp,1364
    8000cfb8:	00c10463          	beq	sp,a2,8000cfc0 <inst_668>
    8000cfbc:	868f306f          	j	80000024 <rvtest_error>

000000008000cfc0 <inst_668>:
    8000cfc0:	00100513          	li	a0,1
    8000cfc4:	03651513          	slli	a0,a0,0x36
    8000cfc8:	fff54513          	not	a0,a0
    8000cfcc:	00100593          	li	a1,1
    8000cfd0:	00f59593          	slli	a1,a1,0xf
    8000cfd4:	40b50633          	sub	a2,a0,a1
    8000cfd8:	3ec0b423          	sd	a2,1000(ra)
    8000cfdc:	fff0011b          	addiw	sp,zero,-1
    8000cfe0:	02711113          	slli	sp,sp,0x27
    8000cfe4:	fff10113          	addi	sp,sp,-1
    8000cfe8:	00f11113          	slli	sp,sp,0xf
    8000cfec:	fff10113          	addi	sp,sp,-1
    8000cff0:	00c10463          	beq	sp,a2,8000cff8 <inst_669>
    8000cff4:	830f306f          	j	80000024 <rvtest_error>

000000008000cff8 <inst_669>:
    8000cff8:	00100513          	li	a0,1
    8000cffc:	02d51513          	slli	a0,a0,0x2d
    8000d000:	00100593          	li	a1,1
    8000d004:	01659593          	slli	a1,a1,0x16
    8000d008:	40b50633          	sub	a2,a0,a1
    8000d00c:	3ec0b823          	sd	a2,1008(ra)
    8000d010:	00800137          	lui	sp,0x800
    8000d014:	fff1011b          	addiw	sp,sp,-1 # 7fffff <offset+0x7ffc07>
    8000d018:	01611113          	slli	sp,sp,0x16
    8000d01c:	00c10463          	beq	sp,a2,8000d024 <cleanup_epilogs>
    8000d020:	804f306f          	j	80000024 <rvtest_error>

000000008000d024 <cleanup_epilogs>:
    8000d024:	0380006f          	j	8000d05c <exit_cleanup>

000000008000d028 <abort_tests>:
    8000d028:	1f813483          	ld	s1,504(sp)
    8000d02c:	20013303          	ld	t1,512(sp)
    8000d030:	00930333          	add	t1,t1,s1
    8000d034:	00000337          	lui	t1,0x0
    8000d038:	00030313          	mv	t1,t1
    8000d03c:	00b31313          	slli	t1,t1,0xb
    8000d040:	5d630313          	addi	t1,t1,1494 # 5d6 <offset+0x1de>
    8000d044:	00b31313          	slli	t1,t1,0xb
    8000d048:	43630313          	addi	t1,t1,1078
    8000d04c:	00a31313          	slli	t1,t1,0xa
    8000d050:	2d030313          	addi	t1,t1,720
    8000d054:	fe64be23          	sd	t1,-4(s1)
    8000d058:	0040006f          	j	8000d05c <exit_cleanup>

000000008000d05c <exit_cleanup>:
    8000d05c:	00000513          	li	a0,0
    8000d060:	0140006f          	j	8000d074 <halt>
	...

000000008000d074 <halt>:
    8000d074:	00050513          	mv	a0,a0
    8000d078:	00100073          	ebreak
    8000d07c:	0000006f          	j	8000d07c <halt+0x8>

000000008000d080 <_trm_init>:
    8000d080:	ff010113          	addi	sp,sp,-16
    8000d084:	00000517          	auipc	a0,0x0
    8000d088:	01c50513          	addi	a0,a0,28 # 8000d0a0 <_etext>
    8000d08c:	00113423          	sd	ra,8(sp)
    8000d090:	f81f20ef          	jal	ra,80000010 <main>
    8000d094:	00050513          	mv	a0,a0
    8000d098:	00100073          	ebreak
    8000d09c:	0000006f          	j	8000d09c <_trm_init+0x1c>
