
/home/maveric/ics2023/riscv-arch-test-am/build/subw-riscv64-nemu.elf:     file format elf64-littleriscv


Disassembly of section .text:

0000000080000000 <_start>:
    80000000:	00000413          	li	s0,0
    80000004:	00016117          	auipc	sp,0x16
    80000008:	ffc10113          	addi	sp,sp,-4 # 80016000 <_end>
    8000000c:	4fd0a0ef          	jal	ra,8000ad08 <_trm_init>

0000000080000010 <main>:
    80000010:	030000ef          	jal	ra,80000040 <rvtest_entry_point>
    80000014:	00100513          	li	a0,1
    80000018:	4e50a0ef          	jal	ra,8000acfc <halt>
    8000001c:	00000513          	li	a0,0
    80000020:	00008067          	ret

0000000080000024 <rvtest_error>:
    80000024:	00100513          	li	a0,1
    80000028:	4d50a0ef          	jal	ra,8000acfc <halt>
    8000002c:	00008067          	ret
	...

0000000080000040 <rvtest_entry_point>:
    80000040:	feedc0b7          	lui	ra,0xfeedc
    80000044:	ead08093          	addi	ra,ra,-339 # fffffffffeedbead <absimm+0xffffffff441ce3dd>
    80000048:	00b09093          	slli	ra,ra,0xb
    8000004c:	7f708093          	addi	ra,ra,2039
    80000050:	00b09093          	slli	ra,ra,0xb
    80000054:	36f08093          	addi	ra,ra,879
    80000058:	00a09093          	slli	ra,ra,0xa
    8000005c:	2ad08093          	addi	ra,ra,685
    80000060:	ff76e137          	lui	sp,0xff76e
    80000064:	f5610113          	addi	sp,sp,-170 # ffffffffff76df56 <absimm+0xffffffff44a60486>
    80000068:	00b11113          	slli	sp,sp,0xb
    8000006c:	7fb10113          	addi	sp,sp,2043
    80000070:	00b11113          	slli	sp,sp,0xb
    80000074:	5b710113          	addi	sp,sp,1463
    80000078:	00a11113          	slli	sp,sp,0xa
    8000007c:	35610113          	addi	sp,sp,854
    80000080:	7fbb71b7          	lui	gp,0x7fbb7
    80000084:	fab18193          	addi	gp,gp,-85 # 7fbb6fab <absimmsh+0x740e61fe>
    80000088:	00b19193          	slli	gp,gp,0xb
    8000008c:	3fd18193          	addi	gp,gp,1021
    80000090:	00b19193          	slli	gp,gp,0xb
    80000094:	6db18193          	addi	gp,gp,1755
    80000098:	00a19193          	slli	gp,gp,0xa
    8000009c:	3ab18193          	addi	gp,gp,939
    800000a0:	bfddb237          	lui	tp,0xbfddb
    800000a4:	7d520213          	addi	tp,tp,2005 # ffffffffbfddb7d5 <absimm+0xffffffff050cdd05>
    800000a8:	00b21213          	slli	tp,tp,0xb
    800000ac:	5fe20213          	addi	tp,tp,1534 # 5fe <offset+0x15e>
    800000b0:	00b21213          	slli	tp,tp,0xb
    800000b4:	76d20213          	addi	tp,tp,1901 # 76d <offset+0x2cd>
    800000b8:	00a21213          	slli	tp,tp,0xa
    800000bc:	3d520213          	addi	tp,tp,981 # 3d5 <pos+0x395>
    800000c0:	dfeee2b7          	lui	t0,0xdfeee
    800000c4:	bea28293          	addi	t0,t0,-1046 # ffffffffdfeedbea <absimm+0xffffffff251e011a>
    800000c8:	00b29293          	slli	t0,t0,0xb
    800000cc:	6ff28293          	addi	t0,t0,1791
    800000d0:	00b29293          	slli	t0,t0,0xb
    800000d4:	3b628293          	addi	t0,t0,950
    800000d8:	00a29293          	slli	t0,t0,0xa
    800000dc:	3ea28293          	addi	t0,t0,1002
    800000e0:	6ff77337          	lui	t1,0x6ff77
    800000e4:	df530313          	addi	t1,t1,-523 # 6ff76df5 <absimmsh+0x644a6048>
    800000e8:	00b31313          	slli	t1,t1,0xb
    800000ec:	37f30313          	addi	t1,t1,895
    800000f0:	00b31313          	slli	t1,t1,0xb
    800000f4:	5db30313          	addi	t1,t1,1499
    800000f8:	00a31313          	slli	t1,t1,0xa
    800000fc:	1f530313          	addi	t1,t1,501
    80000100:	b7fbb3b7          	lui	t2,0xb7fbb
    80000104:	6fa38393          	addi	t2,t2,1786 # ffffffffb7fbb6fa <absimm+0xfffffffefd2adc2a>
    80000108:	00b39393          	slli	t2,t2,0xb
    8000010c:	5bf38393          	addi	t2,t2,1471
    80000110:	00b39393          	slli	t2,t2,0xb
    80000114:	6ed38393          	addi	t2,t2,1773
    80000118:	00a39393          	slli	t2,t2,0xa
    8000011c:	2fa38393          	addi	t2,t2,762
    80000120:	5bfde437          	lui	s0,0x5bfde
    80000124:	b7d40413          	addi	s0,s0,-1155 # 5bfddb7d <absimmsh+0x5050cdd0>
    80000128:	00b41413          	slli	s0,s0,0xb
    8000012c:	2df40413          	addi	s0,s0,735
    80000130:	00b41413          	slli	s0,s0,0xb
    80000134:	77640413          	addi	s0,s0,1910
    80000138:	00a41413          	slli	s0,s0,0xa
    8000013c:	37d40413          	addi	s0,s0,893
    80000140:	adfef4b7          	lui	s1,0xadfef
    80000144:	dbe48493          	addi	s1,s1,-578 # ffffffffadfeedbe <absimm+0xfffffffef32e12ee>
    80000148:	00b49493          	slli	s1,s1,0xb
    8000014c:	56f48493          	addi	s1,s1,1391
    80000150:	00b49493          	slli	s1,s1,0xb
    80000154:	7bb48493          	addi	s1,s1,1979
    80000158:	00a49493          	slli	s1,s1,0xa
    8000015c:	1be48493          	addi	s1,s1,446
    80000160:	56ff7537          	lui	a0,0x56ff7
    80000164:	6df50513          	addi	a0,a0,1759 # 56ff76df <absimmsh+0x4b526932>
    80000168:	00b51513          	slli	a0,a0,0xb
    8000016c:	2b750513          	addi	a0,a0,695
    80000170:	00b51513          	slli	a0,a0,0xb
    80000174:	7dd50513          	addi	a0,a0,2013
    80000178:	00a51513          	slli	a0,a0,0xa
    8000017c:	2df50513          	addi	a0,a0,735
    80000180:	ab7fc5b7          	lui	a1,0xab7fc
    80000184:	b6f58593          	addi	a1,a1,-1169 # ffffffffab7fbb6f <absimm+0xfffffffef0aee09f>
    80000188:	00b59593          	slli	a1,a1,0xb
    8000018c:	55b58593          	addi	a1,a1,1371
    80000190:	00b59593          	slli	a1,a1,0xb
    80000194:	7ee58593          	addi	a1,a1,2030
    80000198:	00a59593          	slli	a1,a1,0xa
    8000019c:	36f58593          	addi	a1,a1,879
    800001a0:	d5bfe637          	lui	a2,0xd5bfe
    800001a4:	db760613          	addi	a2,a2,-585 # ffffffffd5bfddb7 <absimm+0xffffffff1aef02e7>
    800001a8:	00b61613          	slli	a2,a2,0xb
    800001ac:	6ad60613          	addi	a2,a2,1709
    800001b0:	00b61613          	slli	a2,a2,0xb
    800001b4:	7f760613          	addi	a2,a2,2039
    800001b8:	00a61613          	slli	a2,a2,0xa
    800001bc:	1b760613          	addi	a2,a2,439
    800001c0:	eadff6b7          	lui	a3,0xeadff
    800001c4:	edb68693          	addi	a3,a3,-293 # ffffffffeadfeedb <absimm+0xffffffff300f140b>
    800001c8:	00b69693          	slli	a3,a3,0xb
    800001cc:	75668693          	addi	a3,a3,1878
    800001d0:	00b69693          	slli	a3,a3,0xb
    800001d4:	7fb68693          	addi	a3,a3,2043
    800001d8:	00a69693          	slli	a3,a3,0xa
    800001dc:	2db68693          	addi	a3,a3,731
    800001e0:	f56ff737          	lui	a4,0xf56ff
    800001e4:	76d70713          	addi	a4,a4,1901 # fffffffff56ff76d <absimm+0xffffffff3a9f1c9d>
    800001e8:	00b71713          	slli	a4,a4,0xb
    800001ec:	7ab70713          	addi	a4,a4,1963
    800001f0:	00b71713          	slli	a4,a4,0xb
    800001f4:	3fd70713          	addi	a4,a4,1021
    800001f8:	00a71713          	slli	a4,a4,0xa
    800001fc:	36d70713          	addi	a4,a4,877
    80000200:	fab807b7          	lui	a5,0xfab80
    80000204:	bb678793          	addi	a5,a5,-1098 # fffffffffab7fbb6 <absimm+0xffffffff3fe720e6>
    80000208:	00b79793          	slli	a5,a5,0xb
    8000020c:	7d578793          	addi	a5,a5,2005
    80000210:	00b79793          	slli	a5,a5,0xb
    80000214:	5fe78793          	addi	a5,a5,1534
    80000218:	00a79793          	slli	a5,a5,0xa
    8000021c:	3b678793          	addi	a5,a5,950
    80000220:	7d5c0837          	lui	a6,0x7d5c0
    80000224:	ddb80813          	addi	a6,a6,-549 # 7d5bfddb <absimmsh+0x71aef02e>
    80000228:	00b81813          	slli	a6,a6,0xb
    8000022c:	3ea80813          	addi	a6,a6,1002
    80000230:	00b81813          	slli	a6,a6,0xb
    80000234:	6ff80813          	addi	a6,a6,1791
    80000238:	00a81813          	slli	a6,a6,0xa
    8000023c:	1db80813          	addi	a6,a6,475
    80000240:	beae08b7          	lui	a7,0xbeae0
    80000244:	eed88893          	addi	a7,a7,-275 # ffffffffbeadfeed <absimm+0xffffffff03dd241d>
    80000248:	00b89893          	slli	a7,a7,0xb
    8000024c:	5f588893          	addi	a7,a7,1525
    80000250:	00b89893          	slli	a7,a7,0xb
    80000254:	37f88893          	addi	a7,a7,895
    80000258:	00a89893          	slli	a7,a7,0xa
    8000025c:	2ed88893          	addi	a7,a7,749
    80000260:	df570937          	lui	s2,0xdf570
    80000264:	f7690913          	addi	s2,s2,-138 # ffffffffdf56ff76 <absimm+0xffffffff248624a6>
    80000268:	00b91913          	slli	s2,s2,0xb
    8000026c:	6fa90913          	addi	s2,s2,1786
    80000270:	00b91913          	slli	s2,s2,0xb
    80000274:	5bf90913          	addi	s2,s2,1471
    80000278:	00a91913          	slli	s2,s2,0xa
    8000027c:	37690913          	addi	s2,s2,886
    80000280:	6fab89b7          	lui	s3,0x6fab8
    80000284:	fbb98993          	addi	s3,s3,-69 # 6fab7fbb <absimmsh+0x63fe720e>
    80000288:	00b99993          	slli	s3,s3,0xb
    8000028c:	37d98993          	addi	s3,s3,893
    80000290:	00b99993          	slli	s3,s3,0xb
    80000294:	2df98993          	addi	s3,s3,735
    80000298:	00a99993          	slli	s3,s3,0xa
    8000029c:	3bb98993          	addi	s3,s3,955
    800002a0:	b7d5ca37          	lui	s4,0xb7d5c
    800002a4:	fdda0a13          	addi	s4,s4,-35 # ffffffffb7d5bfdd <absimm+0xfffffffefd04e50d>
    800002a8:	00ba1a13          	slli	s4,s4,0xb
    800002ac:	5bea0a13          	addi	s4,s4,1470
    800002b0:	00ba1a13          	slli	s4,s4,0xb
    800002b4:	56fa0a13          	addi	s4,s4,1391
    800002b8:	00aa1a13          	slli	s4,s4,0xa
    800002bc:	3dda0a13          	addi	s4,s4,989
    800002c0:	dbeaeab7          	lui	s5,0xdbeae
    800002c4:	feea8a93          	addi	s5,s5,-18 # ffffffffdbeadfee <absimm+0xffffffff211a051e>
    800002c8:	00ba9a93          	slli	s5,s5,0xb
    800002cc:	6dfa8a93          	addi	s5,s5,1759
    800002d0:	00ba9a93          	slli	s5,s5,0xb
    800002d4:	2b7a8a93          	addi	s5,s5,695
    800002d8:	00aa9a93          	slli	s5,s5,0xa
    800002dc:	3eea8a93          	addi	s5,s5,1006
    800002e0:	6df57b37          	lui	s6,0x6df57
    800002e4:	ff7b0b13          	addi	s6,s6,-9 # 6df56ff7 <absimmsh+0x6248624a>
    800002e8:	00bb1b13          	slli	s6,s6,0xb
    800002ec:	36fb0b13          	addi	s6,s6,879
    800002f0:	00bb1b13          	slli	s6,s6,0xb
    800002f4:	55bb0b13          	addi	s6,s6,1371
    800002f8:	00ab1b13          	slli	s6,s6,0xa
    800002fc:	3f7b0b13          	addi	s6,s6,1015
    80000300:	b6fabbb7          	lui	s7,0xb6fab
    80000304:	7fbb8b93          	addi	s7,s7,2043 # ffffffffb6fab7fb <absimm+0xfffffffefc29dd2b>
    80000308:	00bb9b93          	slli	s7,s7,0xb
    8000030c:	5b7b8b93          	addi	s7,s7,1463
    80000310:	00bb9b93          	slli	s7,s7,0xb
    80000314:	6adb8b93          	addi	s7,s7,1709
    80000318:	00ab9b93          	slli	s7,s7,0xa
    8000031c:	3fbb8b93          	addi	s7,s7,1019
    80000320:	db7d6c37          	lui	s8,0xdb7d6
    80000324:	bfdc0c13          	addi	s8,s8,-1027 # ffffffffdb7d5bfd <absimm+0xffffffff20ac812d>
    80000328:	00bc1c13          	slli	s8,s8,0xb
    8000032c:	6dbc0c13          	addi	s8,s8,1755
    80000330:	00bc1c13          	slli	s8,s8,0xb
    80000334:	756c0c13          	addi	s8,s8,1878
    80000338:	00ac1c13          	slli	s8,s8,0xa
    8000033c:	3fdc0c13          	addi	s8,s8,1021
    80000340:	edbebcb7          	lui	s9,0xedbeb
    80000344:	dfec8c93          	addi	s9,s9,-514 # ffffffffedbeadfe <absimm+0xffffffff32edd32e>
    80000348:	00bc9c93          	slli	s9,s9,0xb
    8000034c:	76dc8c93          	addi	s9,s9,1901
    80000350:	00bc9c93          	slli	s9,s9,0xb
    80000354:	7abc8c93          	addi	s9,s9,1963
    80000358:	00ac9c93          	slli	s9,s9,0xa
    8000035c:	1fec8c93          	addi	s9,s9,510
    80000360:	76df5d37          	lui	s10,0x76df5
    80000364:	6ffd0d13          	addi	s10,s10,1791 # 76df56ff <absimmsh+0x6b324952>
    80000368:	00bd1d13          	slli	s10,s10,0xb
    8000036c:	3b6d0d13          	addi	s10,s10,950
    80000370:	00bd1d13          	slli	s10,s10,0xb
    80000374:	7d5d0d13          	addi	s10,s10,2005
    80000378:	00ad1d13          	slli	s10,s10,0xa
    8000037c:	2ffd0d13          	addi	s10,s10,767
    80000380:	bb6fbdb7          	lui	s11,0xbb6fb
    80000384:	b7fd8d93          	addi	s11,s11,-1153 # ffffffffbb6fab7f <absimm+0xffffffff009ed0af>
    80000388:	00bd9d93          	slli	s11,s11,0xb
    8000038c:	5dbd8d93          	addi	s11,s11,1499
    80000390:	00bd9d93          	slli	s11,s11,0xb
    80000394:	3ead8d93          	addi	s11,s11,1002
    80000398:	00ad9d93          	slli	s11,s11,0xa
    8000039c:	37fd8d93          	addi	s11,s11,895
    800003a0:	ddb7de37          	lui	t3,0xddb7d
    800003a4:	5bfe0e13          	addi	t3,t3,1471 # ffffffffddb7d5bf <absimm+0xffffffff22e6faef>
    800003a8:	00be1e13          	slli	t3,t3,0xb
    800003ac:	6ede0e13          	addi	t3,t3,1773
    800003b0:	00be1e13          	slli	t3,t3,0xb
    800003b4:	5f5e0e13          	addi	t3,t3,1525
    800003b8:	00ae1e13          	slli	t3,t3,0xa
    800003bc:	1bfe0e13          	addi	t3,t3,447
    800003c0:	eedbfeb7          	lui	t4,0xeedbf
    800003c4:	adfe8e93          	addi	t4,t4,-1313 # ffffffffeedbeadf <absimm+0xffffffff340b100f>
    800003c8:	00be9e93          	slli	t4,t4,0xb
    800003cc:	776e8e93          	addi	t4,t4,1910
    800003d0:	00be9e93          	slli	t4,t4,0xb
    800003d4:	6fae8e93          	addi	t4,t4,1786
    800003d8:	00ae9e93          	slli	t4,t4,0xa
    800003dc:	2dfe8e93          	addi	t4,t4,735
    800003e0:	f76dff37          	lui	t5,0xf76df
    800003e4:	56ff0f13          	addi	t5,t5,1391 # fffffffff76df56f <absimm+0xffffffff3c9d1a9f>
    800003e8:	00bf1f13          	slli	t5,t5,0xb
    800003ec:	7bbf0f13          	addi	t5,t5,1979
    800003f0:	00bf1f13          	slli	t5,t5,0xb
    800003f4:	37df0f13          	addi	t5,t5,893
    800003f8:	00af1f13          	slli	t5,t5,0xa
    800003fc:	16ff0f13          	addi	t5,t5,367
    80000400:	fbb70fb7          	lui	t6,0xfbb70
    80000404:	ab7f8f93          	addi	t6,t6,-1353 # fffffffffbb6fab7 <absimm+0xffffffff40e61fe7>
    80000408:	00bf9f93          	slli	t6,t6,0xb
    8000040c:	7ddf8f93          	addi	t6,t6,2013
    80000410:	00bf9f93          	slli	t6,t6,0xb
    80000414:	5bef8f93          	addi	t6,t6,1470
    80000418:	00af9f93          	slli	t6,t6,0xa
    8000041c:	2b7f8f93          	addi	t6,t6,695

0000000080000420 <rvtest_code_begin>:
    80000420:	0000c117          	auipc	sp,0xc
    80000424:	be810113          	addi	sp,sp,-1048 # 8000c008 <signature_x2_0>
    80000428:	00000013          	nop
    8000042c:	00000013          	nop
    80000430:	00000013          	nop
    80000434:	00000013          	nop
    80000438:	00000013          	nop
    8000043c:	00000013          	nop

0000000080000440 <inst_0>:
    80000440:	00100693          	li	a3,1
    80000444:	02f69693          	slli	a3,a3,0x2f
    80000448:	00100693          	li	a3,1
    8000044c:	02f69693          	slli	a3,a3,0x2f
    80000450:	40d687bb          	subw	a5,a3,a3
    80000454:	00f13023          	sd	a5,0(sp)
    80000458:	00000193          	li	gp,0
    8000045c:	00f18463          	beq	gp,a5,80000464 <inst_1>
    80000460:	bc5ff06f          	j	80000024 <rvtest_error>

0000000080000464 <inst_1>:
    80000464:	00100d93          	li	s11,1
    80000468:	00fd9d93          	slli	s11,s11,0xf
    8000046c:	fef00d13          	li	s10,-17
    80000470:	41ad8d3b          	subw	s10,s11,s10
    80000474:	01a13423          	sd	s10,8(sp)
    80000478:	000081b7          	lui	gp,0x8
    8000047c:	0111819b          	addiw	gp,gp,17 # 8011 <offset+0x7b71>
    80000480:	01a18463          	beq	gp,s10,80000488 <inst_2>
    80000484:	ba1ff06f          	j	80000024 <rvtest_error>

0000000080000488 <inst_2>:
    80000488:	ffc00f13          	li	t5,-4
    8000048c:	ffc00f13          	li	t5,-4
    80000490:	41ef0f3b          	subw	t5,t5,t5
    80000494:	01e13823          	sd	t5,16(sp)
    80000498:	00000193          	li	gp,0
    8000049c:	01e18463          	beq	gp,t5,800004a4 <inst_3>
    800004a0:	b85ff06f          	j	80000024 <rvtest_error>

00000000800004a4 <inst_3>:
    800004a4:	00000cb7          	lui	s9,0x0
    800004a8:	fffc8c93          	addi	s9,s9,-1
    800004ac:	00bc9c93          	slli	s9,s9,0xb
    800004b0:	257c8c93          	addi	s9,s9,599
    800004b4:	00bc9c93          	slli	s9,s9,0xb
    800004b8:	6c3c8c93          	addi	s9,s9,1731
    800004bc:	00ac9c93          	slli	s9,s9,0xa
    800004c0:	0cec8c93          	addi	s9,s9,206
    800004c4:	00100893          	li	a7,1
    800004c8:	03189893          	slli	a7,a7,0x31
    800004cc:	411c86bb          	subw	a3,s9,a7
    800004d0:	00d13c23          	sd	a3,24(sp)
    800004d4:	4afb11b7          	lui	gp,0x4afb1
    800004d8:	cce1819b          	addiw	gp,gp,-818 # 4afb0cce <absimmsh+0x3f4dff21>
    800004dc:	00d18463          	beq	gp,a3,800004e4 <inst_4>
    800004e0:	b45ff06f          	j	80000024 <rvtest_error>

00000000800004e4 <inst_4>:
    800004e4:	00000013          	nop
    800004e8:	fdf00813          	li	a6,-33
    800004ec:	4100003b          	negw	zero,a6
    800004f0:	02013023          	sd	zero,32(sp)
    800004f4:	00000193          	li	gp,0
    800004f8:	00018463          	beqz	gp,80000500 <inst_5>
    800004fc:	b29ff06f          	j	80000024 <rvtest_error>

0000000080000500 <inst_5>:
    80000500:	00100413          	li	s0,1
    80000504:	01941413          	slli	s0,s0,0x19
    80000508:	fff00a93          	li	s5,-1
    8000050c:	03fa9a93          	slli	s5,s5,0x3f
    80000510:	41540fbb          	subw	t6,s0,s5
    80000514:	03f13423          	sd	t6,40(sp)
    80000518:	020001b7          	lui	gp,0x2000
    8000051c:	01f18463          	beq	gp,t6,80000524 <inst_6>
    80000520:	b05ff06f          	j	80000024 <rvtest_error>

0000000080000524 <inst_6>:
    80000524:	00300a93          	li	s5,3
    80000528:	00000593          	li	a1,0
    8000052c:	40ba893b          	subw	s2,s5,a1
    80000530:	03213823          	sd	s2,48(sp)
    80000534:	00300193          	li	gp,3
    80000538:	01218463          	beq	gp,s2,80000540 <inst_7>
    8000053c:	ae9ff06f          	j	80000024 <rvtest_error>

0000000080000540 <inst_7>:
    80000540:	00500b93          	li	s7,5
    80000544:	fff00293          	li	t0,-1
    80000548:	0012d293          	srli	t0,t0,0x1
    8000054c:	405b89bb          	subw	s3,s7,t0
    80000550:	03313c23          	sd	s3,56(sp)
    80000554:	00600193          	li	gp,6
    80000558:	01318463          	beq	gp,s3,80000560 <inst_8>
    8000055c:	ac9ff06f          	j	80000024 <rvtest_error>

0000000080000560 <inst_8>:
    80000560:	00000093          	li	ra,0
    80000564:	00100c13          	li	s8,1
    80000568:	41808a3b          	subw	s4,ra,s8
    8000056c:	05413023          	sd	s4,64(sp)
    80000570:	fff00193          	li	gp,-1
    80000574:	01418463          	beq	gp,s4,8000057c <inst_9>
    80000578:	aadff06f          	j	80000024 <rvtest_error>

000000008000057c <inst_9>:
    8000057c:	fff00d13          	li	s10,-1
    80000580:	03fd1d13          	slli	s10,s10,0x3f
    80000584:	00100213          	li	tp,1
    80000588:	00c21213          	slli	tp,tp,0xc
    8000058c:	404d073b          	subw	a4,s10,tp
    80000590:	04e13423          	sd	a4,72(sp)
    80000594:	fffff1b7          	lui	gp,0xfffff
    80000598:	00e18463          	beq	gp,a4,800005a0 <inst_10>
    8000059c:	a89ff06f          	j	80000024 <rvtest_error>

00000000800005a0 <inst_10>:
    800005a0:	fff00393          	li	t2,-1
    800005a4:	0013d393          	srli	t2,t2,0x1
    800005a8:	eff00493          	li	s1,-257
    800005ac:	4093863b          	subw	a2,t2,s1
    800005b0:	04c13823          	sd	a2,80(sp)
    800005b4:	10000193          	li	gp,256
    800005b8:	00c18463          	beq	gp,a2,800005c0 <inst_11>
    800005bc:	a69ff06f          	j	80000024 <rvtest_error>

00000000800005c0 <inst_11>:
    800005c0:	00100b13          	li	s6,1
    800005c4:	00100613          	li	a2,1
    800005c8:	03461613          	slli	a2,a2,0x34
    800005cc:	40cb0abb          	subw	s5,s6,a2
    800005d0:	05513c23          	sd	s5,88(sp)
    800005d4:	00100193          	li	gp,1
    800005d8:	01518463          	beq	gp,s5,800005e0 <inst_12>
    800005dc:	a49ff06f          	j	80000024 <rvtest_error>

00000000800005e0 <inst_12>:
    800005e0:	00100613          	li	a2,1
    800005e4:	02d61613          	slli	a2,a2,0x2d
    800005e8:	fff64613          	not	a2,a2
    800005ec:	00200313          	li	t1,2
    800005f0:	406605bb          	subw	a1,a2,t1
    800005f4:	06b13023          	sd	a1,96(sp)
    800005f8:	ffd00193          	li	gp,-3
    800005fc:	00b18463          	beq	gp,a1,80000604 <inst_13>
    80000600:	a25ff06f          	j	80000024 <rvtest_error>

0000000080000604 <inst_13>:
    80000604:	08000c13          	li	s8,128
    80000608:	00400d93          	li	s11,4
    8000060c:	41bc033b          	subw	t1,s8,s11
    80000610:	06613423          	sd	t1,104(sp)
    80000614:	07c00193          	li	gp,124
    80000618:	00618463          	beq	gp,t1,80000620 <inst_14>
    8000061c:	a09ff06f          	j	80000024 <rvtest_error>

0000000080000620 <inst_14>:
    80000620:	00100a13          	li	s4,1
    80000624:	02ea1a13          	slli	s4,s4,0x2e
    80000628:	fffa4a13          	not	s4,s4
    8000062c:	00800713          	li	a4,8
    80000630:	40ea02bb          	subw	t0,s4,a4
    80000634:	06513823          	sd	t0,112(sp)
    80000638:	ff700193          	li	gp,-9
    8000063c:	00518463          	beq	gp,t0,80000644 <inst_15>
    80000640:	9e5ff06f          	j	80000024 <rvtest_error>

0000000080000644 <inst_15>:
    80000644:	fff00813          	li	a6,-1
    80000648:	00185813          	srli	a6,a6,0x1
    8000064c:	01000413          	li	s0,16
    80000650:	408800bb          	subw	ra,a6,s0
    80000654:	06113c23          	sd	ra,120(sp)
    80000658:	fef00193          	li	gp,-17
    8000065c:	00118463          	beq	gp,ra,80000664 <inst_16>
    80000660:	9c5ff06f          	j	80000024 <rvtest_error>

0000000080000664 <inst_16>:
    80000664:	00100293          	li	t0,1
    80000668:	03b29293          	slli	t0,t0,0x3b
    8000066c:	fff2c293          	not	t0,t0
    80000670:	02000393          	li	t2,32
    80000674:	4072853b          	subw	a0,t0,t2
    80000678:	08a13023          	sd	a0,128(sp)
    8000067c:	fdf00193          	li	gp,-33
    80000680:	00a18463          	beq	gp,a0,80000688 <inst_17>
    80000684:	9a1ff06f          	j	80000024 <rvtest_error>

0000000080000688 <inst_17>:
    80000688:	000008b7          	lui	a7,0x0
    8000068c:	fff88893          	addi	a7,a7,-1
    80000690:	00b89893          	slli	a7,a7,0xb
    80000694:	25788893          	addi	a7,a7,599
    80000698:	00b89893          	slli	a7,a7,0xb
    8000069c:	6c388893          	addi	a7,a7,1731
    800006a0:	00a89893          	slli	a7,a7,0xa
    800006a4:	0cd88893          	addi	a7,a7,205
    800006a8:	04000e93          	li	t4,64
    800006ac:	41d88cbb          	subw	s9,a7,t4
    800006b0:	09913423          	sd	s9,136(sp)
    800006b4:	4afb16b7          	lui	a3,0x4afb1
    800006b8:	c8d6869b          	addiw	a3,a3,-883 # 4afb0c8d <absimmsh+0x3f4dfee0>
    800006bc:	01968463          	beq	a3,s9,800006c4 <inst_17+0x3c>
    800006c0:	965ff06f          	j	80000024 <rvtest_error>
    800006c4:	00000013          	nop
    800006c8:	00000013          	nop
    800006cc:	00000013          	nop
    800006d0:	00000013          	nop
    800006d4:	00000013          	nop
    800006d8:	00000013          	nop
    800006dc:	00000013          	nop
    800006e0:	0000c297          	auipc	t0,0xc
    800006e4:	9b828293          	addi	t0,t0,-1608 # 8000c098 <signature_x5_0>
    800006e8:	00000013          	nop
    800006ec:	00000013          	nop
    800006f0:	00000013          	nop
    800006f4:	00000013          	nop
    800006f8:	00000013          	nop
    800006fc:	00000013          	nop

0000000080000700 <inst_18>:
    80000700:	00100793          	li	a5,1
    80000704:	01279793          	slli	a5,a5,0x12
    80000708:	fff7c793          	not	a5,a5
    8000070c:	08000093          	li	ra,128
    80000710:	4017843b          	subw	s0,a5,ra
    80000714:	0082b023          	sd	s0,0(t0)
    80000718:	fffc06b7          	lui	a3,0xfffc0
    8000071c:	f7f6869b          	addiw	a3,a3,-129 # fffffffffffbff7f <absimm+0xffffffff452b24af>
    80000720:	00868463          	beq	a3,s0,80000728 <inst_19>
    80000724:	901ff06f          	j	80000024 <rvtest_error>

0000000080000728 <inst_19>:
    80000728:	00100913          	li	s2,1
    8000072c:	02491913          	slli	s2,s2,0x24
    80000730:	fff94913          	not	s2,s2
    80000734:	10000b93          	li	s7,256
    80000738:	417903bb          	subw	t2,s2,s7
    8000073c:	0072b423          	sd	t2,8(t0)
    80000740:	eff00693          	li	a3,-257
    80000744:	00768463          	beq	a3,t2,8000074c <inst_20>
    80000748:	8ddff06f          	j	80000024 <rvtest_error>

000000008000074c <inst_20>:
    8000074c:	00100513          	li	a0,1
    80000750:	01951513          	slli	a0,a0,0x19
    80000754:	fff54513          	not	a0,a0
    80000758:	20000193          	li	gp,512
    8000075c:	4035083b          	subw	a6,a0,gp
    80000760:	0102b823          	sd	a6,16(t0)
    80000764:	fe0006b7          	lui	a3,0xfe000
    80000768:	dff6869b          	addiw	a3,a3,-513 # fffffffffdfffdff <absimm+0xffffffff432f232f>
    8000076c:	01068463          	beq	a3,a6,80000774 <inst_21>
    80000770:	8b5ff06f          	j	80000024 <rvtest_error>

0000000080000774 <inst_21>:
    80000774:	00100e93          	li	t4,1
    80000778:	00ce9e93          	slli	t4,t4,0xc
    8000077c:	40000b13          	li	s6,1024
    80000780:	416e823b          	subw	tp,t4,s6
    80000784:	0042bc23          	sd	tp,24(t0)
    80000788:	000016b7          	lui	a3,0x1
    8000078c:	c006869b          	addiw	a3,a3,-1024 # c00 <offset+0x760>
    80000790:	00468463          	beq	a3,tp,80000798 <inst_22>
    80000794:	891ff06f          	j	80000024 <rvtest_error>

0000000080000798 <inst_22>:
    80000798:	00100593          	li	a1,1
    8000079c:	01c59593          	slli	a1,a1,0x1c
    800007a0:	fff5c593          	not	a1,a1
    800007a4:	00100513          	li	a0,1
    800007a8:	00b51513          	slli	a0,a0,0xb
    800007ac:	40a588bb          	subw	a7,a1,a0
    800007b0:	0312b023          	sd	a7,32(t0)
    800007b4:	effff6b7          	lui	a3,0xeffff
    800007b8:	7ff6869b          	addiw	a3,a3,2047 # ffffffffeffff7ff <absimm+0xffffffff352f1d2f>
    800007bc:	01168463          	beq	a3,a7,800007c4 <inst_23>
    800007c0:	865ff06f          	j	80000024 <rvtest_error>

00000000800007c4 <inst_23>:
    800007c4:	00100f93          	li	t6,1
    800007c8:	02bf9f93          	slli	t6,t6,0x2b
    800007cc:	00100913          	li	s2,1
    800007d0:	00d91913          	slli	s2,s2,0xd
    800007d4:	412f813b          	subw	sp,t6,s2
    800007d8:	0222b423          	sd	sp,40(t0)
    800007dc:	ffffe6b7          	lui	a3,0xffffe
    800007e0:	00268463          	beq	a3,sp,800007e8 <inst_24>
    800007e4:	841ff06f          	j	80000024 <rvtest_error>

00000000800007e8 <inst_24>:
    800007e8:	00200993          	li	s3,2
    800007ec:	00100793          	li	a5,1
    800007f0:	00e79793          	slli	a5,a5,0xe
    800007f4:	40f981bb          	subw	gp,s3,a5
    800007f8:	0232b823          	sd	gp,48(t0)
    800007fc:	ffffc6b7          	lui	a3,0xffffc
    80000800:	0026869b          	addiw	a3,a3,2 # ffffffffffffc002 <absimm+0xffffffff452ee532>
    80000804:	00368463          	beq	a3,gp,8000080c <inst_25>
    80000808:	81dff06f          	j	80000024 <rvtest_error>

000000008000080c <inst_25>:
    8000080c:	00100313          	li	t1,1
    80000810:	03a31313          	slli	t1,t1,0x3a
    80000814:	fff34313          	not	t1,t1
    80000818:	00100c93          	li	s9,1
    8000081c:	00fc9c93          	slli	s9,s9,0xf
    80000820:	41930e3b          	subw	t3,t1,s9
    80000824:	03c2bc23          	sd	t3,56(t0)
    80000828:	ffff86b7          	lui	a3,0xffff8
    8000082c:	fff6869b          	addiw	a3,a3,-1 # ffffffffffff7fff <absimm+0xffffffff452ea52f>
    80000830:	01c68463          	beq	a3,t3,80000838 <inst_26>
    80000834:	ff0ff06f          	j	80000024 <rvtest_error>

0000000080000838 <inst_26>:
    80000838:	00100193          	li	gp,1
    8000083c:	03519193          	slli	gp,gp,0x35
    80000840:	fff1c193          	not	gp,gp
    80000844:	00100e13          	li	t3,1
    80000848:	010e1e13          	slli	t3,t3,0x10
    8000084c:	41c184bb          	subw	s1,gp,t3
    80000850:	0492b023          	sd	s1,64(t0)
    80000854:	ffff06b7          	lui	a3,0xffff0
    80000858:	fff6869b          	addiw	a3,a3,-1 # fffffffffffeffff <absimm+0xffffffff452e252f>
    8000085c:	00968463          	beq	a3,s1,80000864 <inst_27>
    80000860:	fc4ff06f          	j	80000024 <rvtest_error>

0000000080000864 <inst_27>:
    80000864:	33333137          	lui	sp,0x33333
    80000868:	33310113          	addi	sp,sp,819 # 33333333 <absimmsh+0x27862586>
    8000086c:	00b11113          	slli	sp,sp,0xb
    80000870:	19910113          	addi	sp,sp,409
    80000874:	00b11113          	slli	sp,sp,0xb
    80000878:	4cc10113          	addi	sp,sp,1228
    8000087c:	00a11113          	slli	sp,sp,0xa
    80000880:	33210113          	addi	sp,sp,818
    80000884:	00000013          	nop
    80000888:	40010b3b          	subw	s6,sp,zero
    8000088c:	0562b423          	sd	s6,72(t0)
    80000890:	333336b7          	lui	a3,0x33333
    80000894:	3326869b          	addiw	a3,a3,818 # 33333332 <absimmsh+0x27862585>
    80000898:	01668463          	beq	a3,s6,800008a0 <inst_28>
    8000089c:	f88ff06f          	j	80000024 <rvtest_error>

00000000800008a0 <inst_28>:
    800008a0:	00100713          	li	a4,1
    800008a4:	01f71713          	slli	a4,a4,0x1f
    800008a8:	00100a13          	li	s4,1
    800008ac:	012a1a13          	slli	s4,s4,0x12
    800008b0:	41470ebb          	subw	t4,a4,s4
    800008b4:	05d2b823          	sd	t4,80(t0)
    800008b8:	7ffc06b7          	lui	a3,0x7ffc0
    800008bc:	01d68463          	beq	a3,t4,800008c4 <inst_29>
    800008c0:	f64ff06f          	j	80000024 <rvtest_error>

00000000800008c4 <inst_29>:
    800008c4:	00100e13          	li	t3,1
    800008c8:	01ce1e13          	slli	t3,t3,0x1c
    800008cc:	00100f93          	li	t6,1
    800008d0:	013f9f93          	slli	t6,t6,0x13
    800008d4:	41fe0bbb          	subw	s7,t3,t6
    800008d8:	0572bc23          	sd	s7,88(t0)
    800008dc:	0ff806b7          	lui	a3,0xff80
    800008e0:	01768463          	beq	a3,s7,800008e8 <inst_30>
    800008e4:	f40ff06f          	j	80000024 <rvtest_error>

00000000800008e8 <inst_30>:
    800008e8:	00100493          	li	s1,1
    800008ec:	00100993          	li	s3,1
    800008f0:	01499993          	slli	s3,s3,0x14
    800008f4:	41348c3b          	subw	s8,s1,s3
    800008f8:	0782b023          	sd	s8,96(t0)
    800008fc:	fff006b7          	lui	a3,0xfff00
    80000900:	0016869b          	addiw	a3,a3,1 # fffffffffff00001 <absimm+0xffffffff451f2531>
    80000904:	01868463          	beq	a3,s8,8000090c <inst_31>
    80000908:	f1cff06f          	j	80000024 <rvtest_error>

000000008000090c <inst_31>:
    8000090c:	00100213          	li	tp,1
    80000910:	02c21213          	slli	tp,tp,0x2c
    80000914:	00100113          	li	sp,1
    80000918:	01511113          	slli	sp,sp,0x15
    8000091c:	40220dbb          	subw	s11,tp,sp
    80000920:	07b2b423          	sd	s11,104(t0)
    80000924:	ffe006b7          	lui	a3,0xffe00
    80000928:	01b68463          	beq	a3,s11,80000930 <inst_32>
    8000092c:	ef8ff06f          	j	80000024 <rvtest_error>

0000000080000930 <inst_32>:
    80000930:	00100513          	li	a0,1
    80000934:	01251513          	slli	a0,a0,0x12
    80000938:	00100593          	li	a1,1
    8000093c:	01659593          	slli	a1,a1,0x16
    80000940:	40b5063b          	subw	a2,a0,a1
    80000944:	06c2b823          	sd	a2,112(t0)
    80000948:	ffc406b7          	lui	a3,0xffc40
    8000094c:	00c68463          	beq	a3,a2,80000954 <inst_33>
    80000950:	ed4ff06f          	j	80000024 <rvtest_error>

0000000080000954 <inst_33>:
    80000954:	dff00513          	li	a0,-513
    80000958:	00100593          	li	a1,1
    8000095c:	01759593          	slli	a1,a1,0x17
    80000960:	40b5063b          	subw	a2,a0,a1
    80000964:	06c2bc23          	sd	a2,120(t0)
    80000968:	ff8006b7          	lui	a3,0xff800
    8000096c:	dff6869b          	addiw	a3,a3,-513 # ffffffffff7ffdff <absimm+0xffffffff44af232f>
    80000970:	00c68463          	beq	a3,a2,80000978 <inst_34>
    80000974:	eb0ff06f          	j	80000024 <rvtest_error>

0000000080000978 <inst_34>:
    80000978:	00100513          	li	a0,1
    8000097c:	02f51513          	slli	a0,a0,0x2f
    80000980:	00100593          	li	a1,1
    80000984:	01859593          	slli	a1,a1,0x18
    80000988:	40b5063b          	subw	a2,a0,a1
    8000098c:	08c2b023          	sd	a2,128(t0)
    80000990:	ff0006b7          	lui	a3,0xff000
    80000994:	00c68463          	beq	a3,a2,8000099c <inst_35>
    80000998:	e8cff06f          	j	80000024 <rvtest_error>

000000008000099c <inst_35>:
    8000099c:	00100513          	li	a0,1
    800009a0:	01f51513          	slli	a0,a0,0x1f
    800009a4:	fff54513          	not	a0,a0
    800009a8:	00100593          	li	a1,1
    800009ac:	01959593          	slli	a1,a1,0x19
    800009b0:	40b5063b          	subw	a2,a0,a1
    800009b4:	08c2b423          	sd	a2,136(t0)
    800009b8:	7e0006b7          	lui	a3,0x7e000
    800009bc:	fff6869b          	addiw	a3,a3,-1 # 7dffffff <absimmsh+0x7252f252>
    800009c0:	00c68463          	beq	a3,a2,800009c8 <inst_36>
    800009c4:	e60ff06f          	j	80000024 <rvtest_error>

00000000800009c8 <inst_36>:
    800009c8:	ff600513          	li	a0,-10
    800009cc:	00100593          	li	a1,1
    800009d0:	01a59593          	slli	a1,a1,0x1a
    800009d4:	40b5063b          	subw	a2,a0,a1
    800009d8:	08c2b823          	sd	a2,144(t0)
    800009dc:	fc0006b7          	lui	a3,0xfc000
    800009e0:	ff66869b          	addiw	a3,a3,-10 # fffffffffbfffff6 <absimm+0xffffffff412f2526>
    800009e4:	00c68463          	beq	a3,a2,800009ec <inst_37>
    800009e8:	e3cff06f          	j	80000024 <rvtest_error>

00000000800009ec <inst_37>:
    800009ec:	00100513          	li	a0,1
    800009f0:	02551513          	slli	a0,a0,0x25
    800009f4:	fff54513          	not	a0,a0
    800009f8:	00100593          	li	a1,1
    800009fc:	01b59593          	slli	a1,a1,0x1b
    80000a00:	40b5063b          	subw	a2,a0,a1
    80000a04:	08c2bc23          	sd	a2,152(t0)
    80000a08:	f80006b7          	lui	a3,0xf8000
    80000a0c:	fff6869b          	addiw	a3,a3,-1 # fffffffff7ffffff <absimm+0xffffffff3d2f252f>
    80000a10:	00c68463          	beq	a3,a2,80000a18 <inst_38>
    80000a14:	e10ff06f          	j	80000024 <rvtest_error>

0000000080000a18 <inst_38>:
    80000a18:	00100513          	li	a0,1
    80000a1c:	02251513          	slli	a0,a0,0x22
    80000a20:	fff54513          	not	a0,a0
    80000a24:	00100593          	li	a1,1
    80000a28:	01c59593          	slli	a1,a1,0x1c
    80000a2c:	40b5063b          	subw	a2,a0,a1
    80000a30:	0ac2b023          	sd	a2,160(t0)
    80000a34:	f00006b7          	lui	a3,0xf0000
    80000a38:	fff6869b          	addiw	a3,a3,-1 # ffffffffefffffff <absimm+0xffffffff352f252f>
    80000a3c:	00c68463          	beq	a3,a2,80000a44 <inst_39>
    80000a40:	de4ff06f          	j	80000024 <rvtest_error>

0000000080000a44 <inst_39>:
    80000a44:	00100513          	li	a0,1
    80000a48:	01851513          	slli	a0,a0,0x18
    80000a4c:	00100593          	li	a1,1
    80000a50:	01d59593          	slli	a1,a1,0x1d
    80000a54:	40b5063b          	subw	a2,a0,a1
    80000a58:	0ac2b423          	sd	a2,168(t0)
    80000a5c:	e10006b7          	lui	a3,0xe1000
    80000a60:	00c68463          	beq	a3,a2,80000a68 <inst_40>
    80000a64:	dc0ff06f          	j	80000024 <rvtest_error>

0000000080000a68 <inst_40>:
    80000a68:	00000513          	li	a0,0
    80000a6c:	00100593          	li	a1,1
    80000a70:	01e59593          	slli	a1,a1,0x1e
    80000a74:	40b5063b          	subw	a2,a0,a1
    80000a78:	0ac2b823          	sd	a2,176(t0)
    80000a7c:	c00006b7          	lui	a3,0xc0000
    80000a80:	00c68463          	beq	a3,a2,80000a88 <inst_41>
    80000a84:	da0ff06f          	j	80000024 <rvtest_error>

0000000080000a88 <inst_41>:
    80000a88:	00100513          	li	a0,1
    80000a8c:	01351513          	slli	a0,a0,0x13
    80000a90:	fff54513          	not	a0,a0
    80000a94:	00100593          	li	a1,1
    80000a98:	01f59593          	slli	a1,a1,0x1f
    80000a9c:	40b5063b          	subw	a2,a0,a1
    80000aa0:	0ac2bc23          	sd	a2,184(t0)
    80000aa4:	7ff806b7          	lui	a3,0x7ff80
    80000aa8:	fff6869b          	addiw	a3,a3,-1 # 7ff7ffff <absimmsh+0x744af252>
    80000aac:	00c68463          	beq	a3,a2,80000ab4 <inst_42>
    80000ab0:	d74ff06f          	j	80000024 <rvtest_error>

0000000080000ab4 <inst_42>:
    80000ab4:	00000537          	lui	a0,0x0
    80000ab8:	fff50513          	addi	a0,a0,-1
    80000abc:	00b51513          	slli	a0,a0,0xb
    80000ac0:	25750513          	addi	a0,a0,599
    80000ac4:	00b51513          	slli	a0,a0,0xb
    80000ac8:	6c350513          	addi	a0,a0,1731
    80000acc:	00a51513          	slli	a0,a0,0xa
    80000ad0:	0cd50513          	addi	a0,a0,205
    80000ad4:	00100593          	li	a1,1
    80000ad8:	02059593          	slli	a1,a1,0x20
    80000adc:	40b5063b          	subw	a2,a0,a1
    80000ae0:	0cc2b023          	sd	a2,192(t0)
    80000ae4:	4afb16b7          	lui	a3,0x4afb1
    80000ae8:	ccd6869b          	addiw	a3,a3,-819 # 4afb0ccd <absimmsh+0x3f4dff20>
    80000aec:	00c68463          	beq	a3,a2,80000af4 <inst_43>
    80000af0:	d34ff06f          	j	80000024 <rvtest_error>

0000000080000af4 <inst_43>:
    80000af4:	00100513          	li	a0,1
    80000af8:	02251513          	slli	a0,a0,0x22
    80000afc:	00100593          	li	a1,1
    80000b00:	02159593          	slli	a1,a1,0x21
    80000b04:	40b5063b          	subw	a2,a0,a1
    80000b08:	0cc2b423          	sd	a2,200(t0)
    80000b0c:	00000693          	li	a3,0
    80000b10:	00c68463          	beq	a3,a2,80000b18 <inst_44>
    80000b14:	d10ff06f          	j	80000024 <rvtest_error>

0000000080000b18 <inst_44>:
    80000b18:	00100513          	li	a0,1
    80000b1c:	02e51513          	slli	a0,a0,0x2e
    80000b20:	00100593          	li	a1,1
    80000b24:	02259593          	slli	a1,a1,0x22
    80000b28:	40b5063b          	subw	a2,a0,a1
    80000b2c:	0cc2b823          	sd	a2,208(t0)
    80000b30:	00000693          	li	a3,0
    80000b34:	00c68463          	beq	a3,a2,80000b3c <inst_45>
    80000b38:	cecff06f          	j	80000024 <rvtest_error>

0000000080000b3c <inst_45>:
    80000b3c:	00100513          	li	a0,1
    80000b40:	02551513          	slli	a0,a0,0x25
    80000b44:	fff54513          	not	a0,a0
    80000b48:	00100593          	li	a1,1
    80000b4c:	02359593          	slli	a1,a1,0x23
    80000b50:	40b5063b          	subw	a2,a0,a1
    80000b54:	0cc2bc23          	sd	a2,216(t0)
    80000b58:	fff00693          	li	a3,-1
    80000b5c:	00c68463          	beq	a3,a2,80000b64 <inst_46>
    80000b60:	cc4ff06f          	j	80000024 <rvtest_error>

0000000080000b64 <inst_46>:
    80000b64:	00100513          	li	a0,1
    80000b68:	03951513          	slli	a0,a0,0x39
    80000b6c:	fff54513          	not	a0,a0
    80000b70:	00100593          	li	a1,1
    80000b74:	02459593          	slli	a1,a1,0x24
    80000b78:	40b5063b          	subw	a2,a0,a1
    80000b7c:	0ec2b023          	sd	a2,224(t0)
    80000b80:	fff00693          	li	a3,-1
    80000b84:	00c68463          	beq	a3,a2,80000b8c <inst_47>
    80000b88:	c9cff06f          	j	80000024 <rvtest_error>

0000000080000b8c <inst_47>:
    80000b8c:	08000513          	li	a0,128
    80000b90:	00100593          	li	a1,1
    80000b94:	02559593          	slli	a1,a1,0x25
    80000b98:	40b5063b          	subw	a2,a0,a1
    80000b9c:	0ec2b423          	sd	a2,232(t0)
    80000ba0:	08000693          	li	a3,128
    80000ba4:	00c68463          	beq	a3,a2,80000bac <inst_48>
    80000ba8:	c7cff06f          	j	80000024 <rvtest_error>

0000000080000bac <inst_48>:
    80000bac:	00100513          	li	a0,1
    80000bb0:	02751513          	slli	a0,a0,0x27
    80000bb4:	00100593          	li	a1,1
    80000bb8:	02659593          	slli	a1,a1,0x26
    80000bbc:	40b5063b          	subw	a2,a0,a1
    80000bc0:	0ec2b823          	sd	a2,240(t0)
    80000bc4:	00000693          	li	a3,0
    80000bc8:	00c68463          	beq	a3,a2,80000bd0 <inst_49>
    80000bcc:	c58ff06f          	j	80000024 <rvtest_error>

0000000080000bd0 <inst_49>:
    80000bd0:	00100513          	li	a0,1
    80000bd4:	02c51513          	slli	a0,a0,0x2c
    80000bd8:	00100593          	li	a1,1
    80000bdc:	02759593          	slli	a1,a1,0x27
    80000be0:	40b5063b          	subw	a2,a0,a1
    80000be4:	0ec2bc23          	sd	a2,248(t0)
    80000be8:	00000693          	li	a3,0
    80000bec:	00c68463          	beq	a3,a2,80000bf4 <inst_50>
    80000bf0:	c34ff06f          	j	80000024 <rvtest_error>

0000000080000bf4 <inst_50>:
    80000bf4:	00100513          	li	a0,1
    80000bf8:	02c51513          	slli	a0,a0,0x2c
    80000bfc:	fff54513          	not	a0,a0
    80000c00:	00100593          	li	a1,1
    80000c04:	02859593          	slli	a1,a1,0x28
    80000c08:	40b5063b          	subw	a2,a0,a1
    80000c0c:	10c2b023          	sd	a2,256(t0)
    80000c10:	fff00693          	li	a3,-1
    80000c14:	00c68463          	beq	a3,a2,80000c1c <inst_51>
    80000c18:	c0cff06f          	j	80000024 <rvtest_error>

0000000080000c1c <inst_51>:
    80000c1c:	66666537          	lui	a0,0x66666
    80000c20:	66650513          	addi	a0,a0,1638 # 66666666 <absimmsh+0x5ab958b9>
    80000c24:	00b51513          	slli	a0,a0,0xb
    80000c28:	33350513          	addi	a0,a0,819
    80000c2c:	00b51513          	slli	a0,a0,0xb
    80000c30:	19950513          	addi	a0,a0,409
    80000c34:	00a51513          	slli	a0,a0,0xa
    80000c38:	26650513          	addi	a0,a0,614
    80000c3c:	00100593          	li	a1,1
    80000c40:	02959593          	slli	a1,a1,0x29
    80000c44:	40b5063b          	subw	a2,a0,a1
    80000c48:	10c2b423          	sd	a2,264(t0)
    80000c4c:	666666b7          	lui	a3,0x66666
    80000c50:	6666869b          	addiw	a3,a3,1638 # 66666666 <absimmsh+0x5ab958b9>
    80000c54:	00c68463          	beq	a3,a2,80000c5c <inst_52>
    80000c58:	bccff06f          	j	80000024 <rvtest_error>

0000000080000c5c <inst_52>:
    80000c5c:	00100513          	li	a0,1
    80000c60:	01f51513          	slli	a0,a0,0x1f
    80000c64:	00100593          	li	a1,1
    80000c68:	02a59593          	slli	a1,a1,0x2a
    80000c6c:	40b5063b          	subw	a2,a0,a1
    80000c70:	10c2b823          	sd	a2,272(t0)
    80000c74:	800006b7          	lui	a3,0x80000
    80000c78:	00c68463          	beq	a3,a2,80000c80 <inst_53>
    80000c7c:	ba8ff06f          	j	80000024 <rvtest_error>

0000000080000c80 <inst_53>:
    80000c80:	00200513          	li	a0,2
    80000c84:	00100593          	li	a1,1
    80000c88:	02b59593          	slli	a1,a1,0x2b
    80000c8c:	40b5063b          	subw	a2,a0,a1
    80000c90:	10c2bc23          	sd	a2,280(t0)
    80000c94:	00200693          	li	a3,2
    80000c98:	00c68463          	beq	a3,a2,80000ca0 <inst_54>
    80000c9c:	b88ff06f          	j	80000024 <rvtest_error>

0000000080000ca0 <inst_54>:
    80000ca0:	00100513          	li	a0,1
    80000ca4:	00b51513          	slli	a0,a0,0xb
    80000ca8:	fff54513          	not	a0,a0
    80000cac:	00100593          	li	a1,1
    80000cb0:	02c59593          	slli	a1,a1,0x2c
    80000cb4:	40b5063b          	subw	a2,a0,a1
    80000cb8:	12c2b023          	sd	a2,288(t0)
    80000cbc:	fffff6b7          	lui	a3,0xfffff
    80000cc0:	7ff6869b          	addiw	a3,a3,2047 # fffffffffffff7ff <absimm+0xffffffff452f1d2f>
    80000cc4:	00c68463          	beq	a3,a2,80000ccc <inst_55>
    80000cc8:	b5cff06f          	j	80000024 <rvtest_error>

0000000080000ccc <inst_55>:
    80000ccc:	00400513          	li	a0,4
    80000cd0:	00100593          	li	a1,1
    80000cd4:	02d59593          	slli	a1,a1,0x2d
    80000cd8:	40b5063b          	subw	a2,a0,a1
    80000cdc:	12c2b423          	sd	a2,296(t0)
    80000ce0:	00400693          	li	a3,4
    80000ce4:	00c68463          	beq	a3,a2,80000cec <inst_56>
    80000ce8:	b3cff06f          	j	80000024 <rvtest_error>

0000000080000cec <inst_56>:
    80000cec:	00000537          	lui	a0,0x0
    80000cf0:	00050513          	mv	a0,a0
    80000cf4:	00b51513          	slli	a0,a0,0xb
    80000cf8:	5a850513          	addi	a0,a0,1448 # 5a8 <offset+0x108>
    80000cfc:	00b51513          	slli	a0,a0,0xb
    80000d00:	13c50513          	addi	a0,a0,316
    80000d04:	00a51513          	slli	a0,a0,0xa
    80000d08:	33250513          	addi	a0,a0,818
    80000d0c:	00100593          	li	a1,1
    80000d10:	02e59593          	slli	a1,a1,0x2e
    80000d14:	40b5063b          	subw	a2,a0,a1
    80000d18:	12c2b823          	sd	a2,304(t0)
    80000d1c:	b504f6b7          	lui	a3,0xb504f
    80000d20:	3326869b          	addiw	a3,a3,818 # ffffffffb504f332 <absimm+0xfffffffefa341862>
    80000d24:	00c68463          	beq	a3,a2,80000d2c <inst_57>
    80000d28:	afcff06f          	j	80000024 <rvtest_error>

0000000080000d2c <inst_57>:
    80000d2c:	dff00513          	li	a0,-513
    80000d30:	00100593          	li	a1,1
    80000d34:	02f59593          	slli	a1,a1,0x2f
    80000d38:	40b5063b          	subw	a2,a0,a1
    80000d3c:	12c2bc23          	sd	a2,312(t0)
    80000d40:	dff00693          	li	a3,-513
    80000d44:	00c68463          	beq	a3,a2,80000d4c <inst_58>
    80000d48:	adcff06f          	j	80000024 <rvtest_error>

0000000080000d4c <inst_58>:
    80000d4c:	00100513          	li	a0,1
    80000d50:	02951513          	slli	a0,a0,0x29
    80000d54:	00100593          	li	a1,1
    80000d58:	03059593          	slli	a1,a1,0x30
    80000d5c:	40b5063b          	subw	a2,a0,a1
    80000d60:	14c2b023          	sd	a2,320(t0)
    80000d64:	00000693          	li	a3,0
    80000d68:	00c68463          	beq	a3,a2,80000d70 <inst_59>
    80000d6c:	ab8ff06f          	j	80000024 <rvtest_error>

0000000080000d70 <inst_59>:
    80000d70:	00100513          	li	a0,1
    80000d74:	03251513          	slli	a0,a0,0x32
    80000d78:	fff54513          	not	a0,a0
    80000d7c:	00100593          	li	a1,1
    80000d80:	03259593          	slli	a1,a1,0x32
    80000d84:	40b5063b          	subw	a2,a0,a1
    80000d88:	14c2b423          	sd	a2,328(t0)
    80000d8c:	fff00693          	li	a3,-1
    80000d90:	00c68463          	beq	a3,a2,80000d98 <inst_60>
    80000d94:	a90ff06f          	j	80000024 <rvtest_error>

0000000080000d98 <inst_60>:
    80000d98:	20000513          	li	a0,512
    80000d9c:	00100593          	li	a1,1
    80000da0:	03359593          	slli	a1,a1,0x33
    80000da4:	40b5063b          	subw	a2,a0,a1
    80000da8:	14c2b823          	sd	a2,336(t0)
    80000dac:	20000693          	li	a3,512
    80000db0:	00c68463          	beq	a3,a2,80000db8 <inst_61>
    80000db4:	a70ff06f          	j	80000024 <rvtest_error>

0000000080000db8 <inst_61>:
    80000db8:	00100513          	li	a0,1
    80000dbc:	02051513          	slli	a0,a0,0x20
    80000dc0:	00100593          	li	a1,1
    80000dc4:	03559593          	slli	a1,a1,0x35
    80000dc8:	40b5063b          	subw	a2,a0,a1
    80000dcc:	14c2bc23          	sd	a2,344(t0)
    80000dd0:	00000693          	li	a3,0
    80000dd4:	00c68463          	beq	a3,a2,80000ddc <inst_62>
    80000dd8:	a4cff06f          	j	80000024 <rvtest_error>

0000000080000ddc <inst_62>:
    80000ddc:	00800513          	li	a0,8
    80000de0:	00100593          	li	a1,1
    80000de4:	03659593          	slli	a1,a1,0x36
    80000de8:	40b5063b          	subw	a2,a0,a1
    80000dec:	16c2b023          	sd	a2,352(t0)
    80000df0:	00800693          	li	a3,8
    80000df4:	00c68463          	beq	a3,a2,80000dfc <inst_63>
    80000df8:	a2cff06f          	j	80000024 <rvtest_error>

0000000080000dfc <inst_63>:
    80000dfc:	00000537          	lui	a0,0x0
    80000e00:	fff50513          	addi	a0,a0,-1
    80000e04:	00b51513          	slli	a0,a0,0xb
    80000e08:	25750513          	addi	a0,a0,599
    80000e0c:	00b51513          	slli	a0,a0,0xb
    80000e10:	6c350513          	addi	a0,a0,1731
    80000e14:	00a51513          	slli	a0,a0,0xa
    80000e18:	0cd50513          	addi	a0,a0,205
    80000e1c:	00100593          	li	a1,1
    80000e20:	03759593          	slli	a1,a1,0x37
    80000e24:	40b5063b          	subw	a2,a0,a1
    80000e28:	16c2b423          	sd	a2,360(t0)
    80000e2c:	4afb16b7          	lui	a3,0x4afb1
    80000e30:	ccd6869b          	addiw	a3,a3,-819 # 4afb0ccd <absimmsh+0x3f4dff20>
    80000e34:	00c68463          	beq	a3,a2,80000e3c <inst_64>
    80000e38:	9ecff06f          	j	80000024 <rvtest_error>

0000000080000e3c <inst_64>:
    80000e3c:	00100513          	li	a0,1
    80000e40:	03e51513          	slli	a0,a0,0x3e
    80000e44:	00100593          	li	a1,1
    80000e48:	03859593          	slli	a1,a1,0x38
    80000e4c:	40b5063b          	subw	a2,a0,a1
    80000e50:	16c2b823          	sd	a2,368(t0)
    80000e54:	00000693          	li	a3,0
    80000e58:	00c68463          	beq	a3,a2,80000e60 <inst_65>
    80000e5c:	9c8ff06f          	j	80000024 <rvtest_error>

0000000080000e60 <inst_65>:
    80000e60:	55555537          	lui	a0,0x55555
    80000e64:	55550513          	addi	a0,a0,1365 # 55555555 <absimmsh+0x49a847a8>
    80000e68:	00b51513          	slli	a0,a0,0xb
    80000e6c:	2aa50513          	addi	a0,a0,682
    80000e70:	00b51513          	slli	a0,a0,0xb
    80000e74:	55550513          	addi	a0,a0,1365
    80000e78:	00a51513          	slli	a0,a0,0xa
    80000e7c:	15550513          	addi	a0,a0,341
    80000e80:	00100593          	li	a1,1
    80000e84:	03959593          	slli	a1,a1,0x39
    80000e88:	40b5063b          	subw	a2,a0,a1
    80000e8c:	16c2bc23          	sd	a2,376(t0)
    80000e90:	555556b7          	lui	a3,0x55555
    80000e94:	5556869b          	addiw	a3,a3,1365 # 55555555 <absimmsh+0x49a847a8>
    80000e98:	00c68463          	beq	a3,a2,80000ea0 <inst_66>
    80000e9c:	988ff06f          	j	80000024 <rvtest_error>

0000000080000ea0 <inst_66>:
    80000ea0:	00600513          	li	a0,6
    80000ea4:	00100593          	li	a1,1
    80000ea8:	03a59593          	slli	a1,a1,0x3a
    80000eac:	40b5063b          	subw	a2,a0,a1
    80000eb0:	18c2b023          	sd	a2,384(t0)
    80000eb4:	00600693          	li	a3,6
    80000eb8:	00c68463          	beq	a3,a2,80000ec0 <inst_67>
    80000ebc:	968ff06f          	j	80000024 <rvtest_error>

0000000080000ec0 <inst_67>:
    80000ec0:	00100513          	li	a0,1
    80000ec4:	01951513          	slli	a0,a0,0x19
    80000ec8:	00100593          	li	a1,1
    80000ecc:	03b59593          	slli	a1,a1,0x3b
    80000ed0:	40b5063b          	subw	a2,a0,a1
    80000ed4:	18c2b423          	sd	a2,392(t0)
    80000ed8:	020006b7          	lui	a3,0x2000
    80000edc:	00c68463          	beq	a3,a2,80000ee4 <inst_68>
    80000ee0:	944ff06f          	j	80000024 <rvtest_error>

0000000080000ee4 <inst_68>:
    80000ee4:	01000513          	li	a0,16
    80000ee8:	00100593          	li	a1,1
    80000eec:	03c59593          	slli	a1,a1,0x3c
    80000ef0:	40b5063b          	subw	a2,a0,a1
    80000ef4:	18c2b823          	sd	a2,400(t0)
    80000ef8:	01000693          	li	a3,16
    80000efc:	00c68463          	beq	a3,a2,80000f04 <inst_69>
    80000f00:	924ff06f          	j	80000024 <rvtest_error>

0000000080000f04 <inst_69>:
    80000f04:	00100513          	li	a0,1
    80000f08:	02f51513          	slli	a0,a0,0x2f
    80000f0c:	fff54513          	not	a0,a0
    80000f10:	00100593          	li	a1,1
    80000f14:	03d59593          	slli	a1,a1,0x3d
    80000f18:	40b5063b          	subw	a2,a0,a1
    80000f1c:	18c2bc23          	sd	a2,408(t0)
    80000f20:	fff00693          	li	a3,-1
    80000f24:	00c68463          	beq	a3,a2,80000f2c <inst_70>
    80000f28:	8fcff06f          	j	80000024 <rvtest_error>

0000000080000f2c <inst_70>:
    80000f2c:	00300513          	li	a0,3
    80000f30:	00100593          	li	a1,1
    80000f34:	03e59593          	slli	a1,a1,0x3e
    80000f38:	40b5063b          	subw	a2,a0,a1
    80000f3c:	1ac2b023          	sd	a2,416(t0)
    80000f40:	00300693          	li	a3,3
    80000f44:	00c68463          	beq	a3,a2,80000f4c <inst_71>
    80000f48:	8dcff06f          	j	80000024 <rvtest_error>

0000000080000f4c <inst_71>:
    80000f4c:	fff00513          	li	a0,-1
    80000f50:	03f51513          	slli	a0,a0,0x3f
    80000f54:	ffe00593          	li	a1,-2
    80000f58:	40b5063b          	subw	a2,a0,a1
    80000f5c:	1ac2b423          	sd	a2,424(t0)
    80000f60:	00200693          	li	a3,2
    80000f64:	00c68463          	beq	a3,a2,80000f6c <inst_72>
    80000f68:	8bcff06f          	j	80000024 <rvtest_error>

0000000080000f6c <inst_72>:
    80000f6c:	fff00513          	li	a0,-1
    80000f70:	00155513          	srli	a0,a0,0x1
    80000f74:	ffd00593          	li	a1,-3
    80000f78:	40b5063b          	subw	a2,a0,a1
    80000f7c:	1ac2b823          	sd	a2,432(t0)
    80000f80:	00200693          	li	a3,2
    80000f84:	00c68463          	beq	a3,a2,80000f8c <inst_73>
    80000f88:	89cff06f          	j	80000024 <rvtest_error>

0000000080000f8c <inst_73>:
    80000f8c:	00100513          	li	a0,1
    80000f90:	01351513          	slli	a0,a0,0x13
    80000f94:	fff54513          	not	a0,a0
    80000f98:	ffb00593          	li	a1,-5
    80000f9c:	40b5063b          	subw	a2,a0,a1
    80000fa0:	1ac2bc23          	sd	a2,440(t0)
    80000fa4:	fff806b7          	lui	a3,0xfff80
    80000fa8:	0046869b          	addiw	a3,a3,4 # fffffffffff80004 <absimm+0xffffffff45272534>
    80000fac:	00c68463          	beq	a3,a2,80000fb4 <inst_74>
    80000fb0:	874ff06f          	j	80000024 <rvtest_error>

0000000080000fb4 <inst_74>:
    80000fb4:	33333537          	lui	a0,0x33333
    80000fb8:	33350513          	addi	a0,a0,819 # 33333333 <absimmsh+0x27862586>
    80000fbc:	00b51513          	slli	a0,a0,0xb
    80000fc0:	19950513          	addi	a0,a0,409
    80000fc4:	00b51513          	slli	a0,a0,0xb
    80000fc8:	4cc50513          	addi	a0,a0,1228
    80000fcc:	00a51513          	slli	a0,a0,0xa
    80000fd0:	33450513          	addi	a0,a0,820
    80000fd4:	ff700593          	li	a1,-9
    80000fd8:	40b5063b          	subw	a2,a0,a1
    80000fdc:	1cc2b023          	sd	a2,448(t0)
    80000fe0:	333336b7          	lui	a3,0x33333
    80000fe4:	33d6869b          	addiw	a3,a3,829 # 3333333d <absimmsh+0x27862590>
    80000fe8:	00c68463          	beq	a3,a2,80000ff0 <inst_75>
    80000fec:	838ff06f          	j	80000024 <rvtest_error>

0000000080000ff0 <inst_75>:
    80000ff0:	66666537          	lui	a0,0x66666
    80000ff4:	66650513          	addi	a0,a0,1638 # 66666666 <absimmsh+0x5ab958b9>
    80000ff8:	00b51513          	slli	a0,a0,0xb
    80000ffc:	33350513          	addi	a0,a0,819
    80001000:	00b51513          	slli	a0,a0,0xb
    80001004:	19950513          	addi	a0,a0,409
    80001008:	00a51513          	slli	a0,a0,0xa
    8000100c:	26750513          	addi	a0,a0,615
    80001010:	fbf00593          	li	a1,-65
    80001014:	40b5063b          	subw	a2,a0,a1
    80001018:	1cc2b423          	sd	a2,456(t0)
    8000101c:	666666b7          	lui	a3,0x66666
    80001020:	6a86869b          	addiw	a3,a3,1704 # 666666a8 <absimmsh+0x5ab958fb>
    80001024:	00c68463          	beq	a3,a2,8000102c <inst_76>
    80001028:	ffdfe06f          	j	80000024 <rvtest_error>

000000008000102c <inst_76>:
    8000102c:	ff900513          	li	a0,-7
    80001030:	f7f00593          	li	a1,-129
    80001034:	40b5063b          	subw	a2,a0,a1
    80001038:	1cc2b823          	sd	a2,464(t0)
    8000103c:	07a00693          	li	a3,122
    80001040:	00c68463          	beq	a3,a2,80001048 <inst_77>
    80001044:	fe1fe06f          	j	80000024 <rvtest_error>

0000000080001048 <inst_77>:
    80001048:	00100513          	li	a0,1
    8000104c:	01051513          	slli	a0,a0,0x10
    80001050:	dff00593          	li	a1,-513
    80001054:	40b5063b          	subw	a2,a0,a1
    80001058:	1cc2bc23          	sd	a2,472(t0)
    8000105c:	000106b7          	lui	a3,0x10
    80001060:	2016869b          	addiw	a3,a3,513 # 10201 <offset+0xfd61>
    80001064:	00c68463          	beq	a3,a2,8000106c <inst_78>
    80001068:	fbdfe06f          	j	80000024 <rvtest_error>

000000008000106c <inst_78>:
    8000106c:	00100513          	li	a0,1
    80001070:	01651513          	slli	a0,a0,0x16
    80001074:	fff54513          	not	a0,a0
    80001078:	bff00593          	li	a1,-1025
    8000107c:	40b5063b          	subw	a2,a0,a1
    80001080:	1ec2b023          	sd	a2,480(t0)
    80001084:	ffc006b7          	lui	a3,0xffc00
    80001088:	4006869b          	addiw	a3,a3,1024 # ffffffffffc00400 <absimm+0xffffffff44ef2930>
    8000108c:	00c68463          	beq	a3,a2,80001094 <inst_79>
    80001090:	f95fe06f          	j	80000024 <rvtest_error>

0000000080001094 <inst_79>:
    80001094:	00100513          	li	a0,1
    80001098:	03c51513          	slli	a0,a0,0x3c
    8000109c:	00100593          	li	a1,1
    800010a0:	00b59593          	slli	a1,a1,0xb
    800010a4:	fff5c593          	not	a1,a1
    800010a8:	40b5063b          	subw	a2,a0,a1
    800010ac:	1ec2b423          	sd	a2,488(t0)
    800010b0:	000016b7          	lui	a3,0x1
    800010b4:	8016869b          	addiw	a3,a3,-2047 # 801 <offset+0x361>
    800010b8:	00c68463          	beq	a3,a2,800010c0 <inst_80>
    800010bc:	f69fe06f          	j	80000024 <rvtest_error>

00000000800010c0 <inst_80>:
    800010c0:	10000513          	li	a0,256
    800010c4:	00100593          	li	a1,1
    800010c8:	00c59593          	slli	a1,a1,0xc
    800010cc:	fff5c593          	not	a1,a1
    800010d0:	40b5063b          	subw	a2,a0,a1
    800010d4:	1ec2b823          	sd	a2,496(t0)
    800010d8:	000016b7          	lui	a3,0x1
    800010dc:	1016869b          	addiw	a3,a3,257 # 1101 <offset+0xc61>
    800010e0:	00c68463          	beq	a3,a2,800010e8 <inst_81>
    800010e4:	f41fe06f          	j	80000024 <rvtest_error>

00000000800010e8 <inst_81>:
    800010e8:	00100513          	li	a0,1
    800010ec:	00f51513          	slli	a0,a0,0xf
    800010f0:	00100593          	li	a1,1
    800010f4:	00d59593          	slli	a1,a1,0xd
    800010f8:	fff5c593          	not	a1,a1
    800010fc:	40b5063b          	subw	a2,a0,a1
    80001100:	1ec2bc23          	sd	a2,504(t0)
    80001104:	0000a6b7          	lui	a3,0xa
    80001108:	0016869b          	addiw	a3,a3,1 # a001 <offset+0x9b61>
    8000110c:	00c68463          	beq	a3,a2,80001114 <inst_82>
    80001110:	f15fe06f          	j	80000024 <rvtest_error>

0000000080001114 <inst_82>:
    80001114:	f7f00513          	li	a0,-129
    80001118:	00100593          	li	a1,1
    8000111c:	00e59593          	slli	a1,a1,0xe
    80001120:	fff5c593          	not	a1,a1
    80001124:	40b5063b          	subw	a2,a0,a1
    80001128:	20c2b023          	sd	a2,512(t0)
    8000112c:	000046b7          	lui	a3,0x4
    80001130:	f806869b          	addiw	a3,a3,-128 # 3f80 <offset+0x3ae0>
    80001134:	00c68463          	beq	a3,a2,8000113c <inst_83>
    80001138:	eedfe06f          	j	80000024 <rvtest_error>

000000008000113c <inst_83>:
    8000113c:	00100513          	li	a0,1
    80001140:	01151513          	slli	a0,a0,0x11
    80001144:	00100593          	li	a1,1
    80001148:	00f59593          	slli	a1,a1,0xf
    8000114c:	fff5c593          	not	a1,a1
    80001150:	40b5063b          	subw	a2,a0,a1
    80001154:	20c2b423          	sd	a2,520(t0)
    80001158:	000286b7          	lui	a3,0x28
    8000115c:	0016869b          	addiw	a3,a3,1 # 28001 <offset+0x27b61>
    80001160:	00c68463          	beq	a3,a2,80001168 <inst_84>
    80001164:	ec1fe06f          	j	80000024 <rvtest_error>

0000000080001168 <inst_84>:
    80001168:	00100513          	li	a0,1
    8000116c:	01151513          	slli	a0,a0,0x11
    80001170:	fff54513          	not	a0,a0
    80001174:	00100593          	li	a1,1
    80001178:	01159593          	slli	a1,a1,0x11
    8000117c:	fff5c593          	not	a1,a1
    80001180:	40b5063b          	subw	a2,a0,a1
    80001184:	20c2b823          	sd	a2,528(t0)
    80001188:	00000693          	li	a3,0
    8000118c:	00c68463          	beq	a3,a2,80001194 <inst_85>
    80001190:	e95fe06f          	j	80000024 <rvtest_error>

0000000080001194 <inst_85>:
    80001194:	00300513          	li	a0,3
    80001198:	00100593          	li	a1,1
    8000119c:	01259593          	slli	a1,a1,0x12
    800011a0:	fff5c593          	not	a1,a1
    800011a4:	40b5063b          	subw	a2,a0,a1
    800011a8:	20c2bc23          	sd	a2,536(t0)
    800011ac:	000406b7          	lui	a3,0x40
    800011b0:	0046869b          	addiw	a3,a3,4 # 40004 <offset+0x3fb64>
    800011b4:	00c68463          	beq	a3,a2,800011bc <inst_86>
    800011b8:	e6dfe06f          	j	80000024 <rvtest_error>

00000000800011bc <inst_86>:
    800011bc:	ffb00513          	li	a0,-5
    800011c0:	00100593          	li	a1,1
    800011c4:	01359593          	slli	a1,a1,0x13
    800011c8:	fff5c593          	not	a1,a1
    800011cc:	40b5063b          	subw	a2,a0,a1
    800011d0:	22c2b023          	sd	a2,544(t0)
    800011d4:	000806b7          	lui	a3,0x80
    800011d8:	ffc6869b          	addiw	a3,a3,-4 # 7fffc <offset+0x7fb5c>
    800011dc:	00c68463          	beq	a3,a2,800011e4 <inst_87>
    800011e0:	e45fe06f          	j	80000024 <rvtest_error>

00000000800011e4 <inst_87>:
    800011e4:	00100513          	li	a0,1
    800011e8:	00b51513          	slli	a0,a0,0xb
    800011ec:	00100593          	li	a1,1
    800011f0:	01459593          	slli	a1,a1,0x14
    800011f4:	fff5c593          	not	a1,a1
    800011f8:	40b5063b          	subw	a2,a0,a1
    800011fc:	22c2b423          	sd	a2,552(t0)
    80001200:	001016b7          	lui	a3,0x101
    80001204:	8016869b          	addiw	a3,a3,-2047 # 100801 <offset+0x100361>
    80001208:	00c68463          	beq	a3,a2,80001210 <inst_88>
    8000120c:	e19fe06f          	j	80000024 <rvtest_error>

0000000080001210 <inst_88>:
    80001210:	00300513          	li	a0,3
    80001214:	00100593          	li	a1,1
    80001218:	01559593          	slli	a1,a1,0x15
    8000121c:	fff5c593          	not	a1,a1
    80001220:	40b5063b          	subw	a2,a0,a1
    80001224:	22c2b823          	sd	a2,560(t0)
    80001228:	002006b7          	lui	a3,0x200
    8000122c:	0046869b          	addiw	a3,a3,4 # 200004 <offset+0x1ffb64>
    80001230:	00c68463          	beq	a3,a2,80001238 <inst_89>
    80001234:	df1fe06f          	j	80000024 <rvtest_error>

0000000080001238 <inst_89>:
    80001238:	f7f00513          	li	a0,-129
    8000123c:	00100593          	li	a1,1
    80001240:	01659593          	slli	a1,a1,0x16
    80001244:	fff5c593          	not	a1,a1
    80001248:	40b5063b          	subw	a2,a0,a1
    8000124c:	22c2bc23          	sd	a2,568(t0)
    80001250:	004006b7          	lui	a3,0x400
    80001254:	f806869b          	addiw	a3,a3,-128 # 3fff80 <offset+0x3ffae0>
    80001258:	00c68463          	beq	a3,a2,80001260 <inst_90>
    8000125c:	dc9fe06f          	j	80000024 <rvtest_error>

0000000080001260 <inst_90>:
    80001260:	bff00513          	li	a0,-1025
    80001264:	00100593          	li	a1,1
    80001268:	01759593          	slli	a1,a1,0x17
    8000126c:	fff5c593          	not	a1,a1
    80001270:	40b5063b          	subw	a2,a0,a1
    80001274:	24c2b023          	sd	a2,576(t0)
    80001278:	008006b7          	lui	a3,0x800
    8000127c:	c006869b          	addiw	a3,a3,-1024 # 7ffc00 <offset+0x7ff760>
    80001280:	00c68463          	beq	a3,a2,80001288 <inst_91>
    80001284:	da1fe06f          	j	80000024 <rvtest_error>

0000000080001288 <inst_91>:
    80001288:	33333537          	lui	a0,0x33333
    8000128c:	33350513          	addi	a0,a0,819 # 33333333 <absimmsh+0x27862586>
    80001290:	00b51513          	slli	a0,a0,0xb
    80001294:	19950513          	addi	a0,a0,409
    80001298:	00b51513          	slli	a0,a0,0xb
    8000129c:	4cc50513          	addi	a0,a0,1228
    800012a0:	00a51513          	slli	a0,a0,0xa
    800012a4:	33250513          	addi	a0,a0,818
    800012a8:	00100593          	li	a1,1
    800012ac:	01859593          	slli	a1,a1,0x18
    800012b0:	fff5c593          	not	a1,a1
    800012b4:	40b5063b          	subw	a2,a0,a1
    800012b8:	24c2b423          	sd	a2,584(t0)
    800012bc:	343336b7          	lui	a3,0x34333
    800012c0:	3336869b          	addiw	a3,a3,819 # 34333333 <absimmsh+0x28862586>
    800012c4:	00c68463          	beq	a3,a2,800012cc <inst_92>
    800012c8:	d5dfe06f          	j	80000024 <rvtest_error>

00000000800012cc <inst_92>:
    800012cc:	00100513          	li	a0,1
    800012d0:	01451513          	slli	a0,a0,0x14
    800012d4:	fff54513          	not	a0,a0
    800012d8:	00100593          	li	a1,1
    800012dc:	01959593          	slli	a1,a1,0x19
    800012e0:	fff5c593          	not	a1,a1
    800012e4:	40b5063b          	subw	a2,a0,a1
    800012e8:	24c2b823          	sd	a2,592(t0)
    800012ec:	01f006b7          	lui	a3,0x1f00
    800012f0:	00c68463          	beq	a3,a2,800012f8 <inst_93>
    800012f4:	d31fe06f          	j	80000024 <rvtest_error>

00000000800012f8 <inst_93>:
    800012f8:	00100513          	li	a0,1
    800012fc:	00100593          	li	a1,1
    80001300:	01a59593          	slli	a1,a1,0x1a
    80001304:	fff5c593          	not	a1,a1
    80001308:	40b5063b          	subw	a2,a0,a1
    8000130c:	24c2bc23          	sd	a2,600(t0)
    80001310:	040006b7          	lui	a3,0x4000
    80001314:	0026869b          	addiw	a3,a3,2 # 4000002 <offset+0x3fffb62>
    80001318:	00c68463          	beq	a3,a2,80001320 <inst_94>
    8000131c:	d09fe06f          	j	80000024 <rvtest_error>

0000000080001320 <inst_94>:
    80001320:	00100513          	li	a0,1
    80001324:	03e51513          	slli	a0,a0,0x3e
    80001328:	00100593          	li	a1,1
    8000132c:	01b59593          	slli	a1,a1,0x1b
    80001330:	fff5c593          	not	a1,a1
    80001334:	40b5063b          	subw	a2,a0,a1
    80001338:	26c2b023          	sd	a2,608(t0)
    8000133c:	080006b7          	lui	a3,0x8000
    80001340:	0016869b          	addiw	a3,a3,1 # 8000001 <offset+0x7fffb61>
    80001344:	00c68463          	beq	a3,a2,8000134c <inst_95>
    80001348:	cddfe06f          	j	80000024 <rvtest_error>

000000008000134c <inst_95>:
    8000134c:	f7f00513          	li	a0,-129
    80001350:	00100593          	li	a1,1
    80001354:	01c59593          	slli	a1,a1,0x1c
    80001358:	fff5c593          	not	a1,a1
    8000135c:	40b5063b          	subw	a2,a0,a1
    80001360:	26c2b423          	sd	a2,616(t0)
    80001364:	100006b7          	lui	a3,0x10000
    80001368:	f806869b          	addiw	a3,a3,-128 # fffff80 <absimmsh+0x452f1d3>
    8000136c:	00c68463          	beq	a3,a2,80001374 <inst_96>
    80001370:	cb5fe06f          	j	80000024 <rvtest_error>

0000000080001374 <inst_96>:
    80001374:	ffe00513          	li	a0,-2
    80001378:	00100593          	li	a1,1
    8000137c:	01d59593          	slli	a1,a1,0x1d
    80001380:	fff5c593          	not	a1,a1
    80001384:	40b5063b          	subw	a2,a0,a1
    80001388:	26c2b823          	sd	a2,624(t0)
    8000138c:	200006b7          	lui	a3,0x20000
    80001390:	fff6869b          	addiw	a3,a3,-1 # 1fffffff <absimmsh+0x1452f252>
    80001394:	00c68463          	beq	a3,a2,8000139c <inst_97>
    80001398:	c8dfe06f          	j	80000024 <rvtest_error>

000000008000139c <inst_97>:
    8000139c:	00100513          	li	a0,1
    800013a0:	00f51513          	slli	a0,a0,0xf
    800013a4:	00100593          	li	a1,1
    800013a8:	01e59593          	slli	a1,a1,0x1e
    800013ac:	fff5c593          	not	a1,a1
    800013b0:	40b5063b          	subw	a2,a0,a1
    800013b4:	26c2bc23          	sd	a2,632(t0)
    800013b8:	400086b7          	lui	a3,0x40008
    800013bc:	0016869b          	addiw	a3,a3,1 # 40008001 <absimmsh+0x34537254>
    800013c0:	00c68463          	beq	a3,a2,800013c8 <inst_98>
    800013c4:	c61fe06f          	j	80000024 <rvtest_error>

00000000800013c8 <inst_98>:
    800013c8:	00000537          	lui	a0,0x0
    800013cc:	00050513          	mv	a0,a0
    800013d0:	00b51513          	slli	a0,a0,0xb
    800013d4:	5a850513          	addi	a0,a0,1448 # 5a8 <offset+0x108>
    800013d8:	00b51513          	slli	a0,a0,0xb
    800013dc:	13c50513          	addi	a0,a0,316
    800013e0:	00a51513          	slli	a0,a0,0xa
    800013e4:	33350513          	addi	a0,a0,819
    800013e8:	00100593          	li	a1,1
    800013ec:	01f59593          	slli	a1,a1,0x1f
    800013f0:	fff5c593          	not	a1,a1
    800013f4:	40b5063b          	subw	a2,a0,a1
    800013f8:	28c2b023          	sd	a2,640(t0)
    800013fc:	3504f6b7          	lui	a3,0x3504f
    80001400:	3346869b          	addiw	a3,a3,820 # 3504f334 <absimmsh+0x2957e587>
    80001404:	00c68463          	beq	a3,a2,8000140c <inst_99>
    80001408:	c1dfe06f          	j	80000024 <rvtest_error>

000000008000140c <inst_99>:
    8000140c:	00100513          	li	a0,1
    80001410:	03351513          	slli	a0,a0,0x33
    80001414:	fff54513          	not	a0,a0
    80001418:	00100593          	li	a1,1
    8000141c:	02059593          	slli	a1,a1,0x20
    80001420:	fff5c593          	not	a1,a1
    80001424:	40b5063b          	subw	a2,a0,a1
    80001428:	28c2b423          	sd	a2,648(t0)
    8000142c:	00000693          	li	a3,0
    80001430:	00c68463          	beq	a3,a2,80001438 <inst_100>
    80001434:	bf1fe06f          	j	80000024 <rvtest_error>

0000000080001438 <inst_100>:
    80001438:	00100513          	li	a0,1
    8000143c:	02251513          	slli	a0,a0,0x22
    80001440:	00100593          	li	a1,1
    80001444:	02159593          	slli	a1,a1,0x21
    80001448:	fff5c593          	not	a1,a1
    8000144c:	40b5063b          	subw	a2,a0,a1
    80001450:	28c2b823          	sd	a2,656(t0)
    80001454:	00100693          	li	a3,1
    80001458:	00c68463          	beq	a3,a2,80001460 <inst_101>
    8000145c:	bc9fe06f          	j	80000024 <rvtest_error>

0000000080001460 <inst_101>:
    80001460:	00100513          	li	a0,1
    80001464:	01d51513          	slli	a0,a0,0x1d
    80001468:	00100593          	li	a1,1
    8000146c:	02259593          	slli	a1,a1,0x22
    80001470:	fff5c593          	not	a1,a1
    80001474:	40b5063b          	subw	a2,a0,a1
    80001478:	28c2bc23          	sd	a2,664(t0)
    8000147c:	200006b7          	lui	a3,0x20000
    80001480:	0016869b          	addiw	a3,a3,1 # 20000001 <absimmsh+0x1452f254>
    80001484:	00c68463          	beq	a3,a2,8000148c <inst_102>
    80001488:	b9dfe06f          	j	80000024 <rvtest_error>

000000008000148c <inst_102>:
    8000148c:	33333537          	lui	a0,0x33333
    80001490:	33350513          	addi	a0,a0,819 # 33333333 <absimmsh+0x27862586>
    80001494:	00b51513          	slli	a0,a0,0xb
    80001498:	19950513          	addi	a0,a0,409
    8000149c:	00b51513          	slli	a0,a0,0xb
    800014a0:	4cc50513          	addi	a0,a0,1228
    800014a4:	00a51513          	slli	a0,a0,0xa
    800014a8:	33350513          	addi	a0,a0,819
    800014ac:	00100593          	li	a1,1
    800014b0:	02359593          	slli	a1,a1,0x23
    800014b4:	fff5c593          	not	a1,a1
    800014b8:	40b5063b          	subw	a2,a0,a1
    800014bc:	2ac2b023          	sd	a2,672(t0)
    800014c0:	333336b7          	lui	a3,0x33333
    800014c4:	3346869b          	addiw	a3,a3,820 # 33333334 <absimmsh+0x27862587>
    800014c8:	00c68463          	beq	a3,a2,800014d0 <inst_103>
    800014cc:	b59fe06f          	j	80000024 <rvtest_error>

00000000800014d0 <inst_103>:
    800014d0:	00100513          	li	a0,1
    800014d4:	03151513          	slli	a0,a0,0x31
    800014d8:	fff54513          	not	a0,a0
    800014dc:	00100593          	li	a1,1
    800014e0:	02459593          	slli	a1,a1,0x24
    800014e4:	fff5c593          	not	a1,a1
    800014e8:	40b5063b          	subw	a2,a0,a1
    800014ec:	2ac2b423          	sd	a2,680(t0)
    800014f0:	00000693          	li	a3,0
    800014f4:	00c68463          	beq	a3,a2,800014fc <inst_104>
    800014f8:	b2dfe06f          	j	80000024 <rvtest_error>

00000000800014fc <inst_104>:
    800014fc:	00100513          	li	a0,1
    80001500:	01051513          	slli	a0,a0,0x10
    80001504:	fff54513          	not	a0,a0
    80001508:	00100593          	li	a1,1
    8000150c:	02559593          	slli	a1,a1,0x25
    80001510:	fff5c593          	not	a1,a1
    80001514:	40b5063b          	subw	a2,a0,a1
    80001518:	2ac2b823          	sd	a2,688(t0)
    8000151c:	ffff06b7          	lui	a3,0xffff0
    80001520:	00c68463          	beq	a3,a2,80001528 <inst_105>
    80001524:	b01fe06f          	j	80000024 <rvtest_error>

0000000080001528 <inst_105>:
    80001528:	00100513          	li	a0,1
    8000152c:	02351513          	slli	a0,a0,0x23
    80001530:	fff54513          	not	a0,a0
    80001534:	00100593          	li	a1,1
    80001538:	02659593          	slli	a1,a1,0x26
    8000153c:	fff5c593          	not	a1,a1
    80001540:	40b5063b          	subw	a2,a0,a1
    80001544:	2ac2bc23          	sd	a2,696(t0)
    80001548:	00000693          	li	a3,0
    8000154c:	00c68463          	beq	a3,a2,80001554 <inst_106>
    80001550:	ad5fe06f          	j	80000024 <rvtest_error>

0000000080001554 <inst_106>:
    80001554:	00900513          	li	a0,9
    80001558:	00100593          	li	a1,1
    8000155c:	02759593          	slli	a1,a1,0x27
    80001560:	fff5c593          	not	a1,a1
    80001564:	40b5063b          	subw	a2,a0,a1
    80001568:	2cc2b023          	sd	a2,704(t0)
    8000156c:	00a00693          	li	a3,10
    80001570:	00c68463          	beq	a3,a2,80001578 <inst_107>
    80001574:	ab1fe06f          	j	80000024 <rvtest_error>

0000000080001578 <inst_107>:
    80001578:	ff600513          	li	a0,-10
    8000157c:	00100593          	li	a1,1
    80001580:	02859593          	slli	a1,a1,0x28
    80001584:	fff5c593          	not	a1,a1
    80001588:	40b5063b          	subw	a2,a0,a1
    8000158c:	2cc2b423          	sd	a2,712(t0)
    80001590:	ff700693          	li	a3,-9
    80001594:	00c68463          	beq	a3,a2,8000159c <inst_108>
    80001598:	a8dfe06f          	j	80000024 <rvtest_error>

000000008000159c <inst_108>:
    8000159c:	00100513          	li	a0,1
    800015a0:	03b51513          	slli	a0,a0,0x3b
    800015a4:	00100593          	li	a1,1
    800015a8:	02959593          	slli	a1,a1,0x29
    800015ac:	fff5c593          	not	a1,a1
    800015b0:	40b5063b          	subw	a2,a0,a1
    800015b4:	2cc2b823          	sd	a2,720(t0)
    800015b8:	00100693          	li	a3,1
    800015bc:	00c68463          	beq	a3,a2,800015c4 <inst_109>
    800015c0:	a65fe06f          	j	80000024 <rvtest_error>

00000000800015c4 <inst_109>:
    800015c4:	00100513          	li	a0,1
    800015c8:	01651513          	slli	a0,a0,0x16
    800015cc:	fff54513          	not	a0,a0
    800015d0:	00100593          	li	a1,1
    800015d4:	02a59593          	slli	a1,a1,0x2a
    800015d8:	fff5c593          	not	a1,a1
    800015dc:	40b5063b          	subw	a2,a0,a1
    800015e0:	2cc2bc23          	sd	a2,728(t0)
    800015e4:	ffc006b7          	lui	a3,0xffc00
    800015e8:	00c68463          	beq	a3,a2,800015f0 <inst_110>
    800015ec:	a39fe06f          	j	80000024 <rvtest_error>

00000000800015f0 <inst_110>:
    800015f0:	00200513          	li	a0,2
    800015f4:	00100593          	li	a1,1
    800015f8:	02b59593          	slli	a1,a1,0x2b
    800015fc:	fff5c593          	not	a1,a1
    80001600:	40b5063b          	subw	a2,a0,a1
    80001604:	2ec2b023          	sd	a2,736(t0)
    80001608:	00300693          	li	a3,3
    8000160c:	00c68463          	beq	a3,a2,80001614 <inst_111>
    80001610:	a15fe06f          	j	80000024 <rvtest_error>

0000000080001614 <inst_111>:
    80001614:	00100513          	li	a0,1
    80001618:	02c51513          	slli	a0,a0,0x2c
    8000161c:	00100593          	li	a1,1
    80001620:	02c59593          	slli	a1,a1,0x2c
    80001624:	fff5c593          	not	a1,a1
    80001628:	40b5063b          	subw	a2,a0,a1
    8000162c:	2ec2b423          	sd	a2,744(t0)
    80001630:	00100693          	li	a3,1
    80001634:	00c68463          	beq	a3,a2,8000163c <inst_112>
    80001638:	9edfe06f          	j	80000024 <rvtest_error>

000000008000163c <inst_112>:
    8000163c:	00100513          	li	a0,1
    80001640:	01751513          	slli	a0,a0,0x17
    80001644:	00100593          	li	a1,1
    80001648:	02d59593          	slli	a1,a1,0x2d
    8000164c:	fff5c593          	not	a1,a1
    80001650:	40b5063b          	subw	a2,a0,a1
    80001654:	2ec2b823          	sd	a2,752(t0)
    80001658:	008006b7          	lui	a3,0x800
    8000165c:	0016869b          	addiw	a3,a3,1 # 800001 <offset+0x7ffb61>
    80001660:	00c68463          	beq	a3,a2,80001668 <inst_113>
    80001664:	9c1fe06f          	j	80000024 <rvtest_error>

0000000080001668 <inst_113>:
    80001668:	00000513          	li	a0,0
    8000166c:	00100593          	li	a1,1
    80001670:	02e59593          	slli	a1,a1,0x2e
    80001674:	fff5c593          	not	a1,a1
    80001678:	40b5063b          	subw	a2,a0,a1
    8000167c:	2ec2bc23          	sd	a2,760(t0)
    80001680:	00100693          	li	a3,1
    80001684:	00c68463          	beq	a3,a2,8000168c <inst_114>
    80001688:	99dfe06f          	j	80000024 <rvtest_error>

000000008000168c <inst_114>:
    8000168c:	00100513          	li	a0,1
    80001690:	03551513          	slli	a0,a0,0x35
    80001694:	fff54513          	not	a0,a0
    80001698:	00100593          	li	a1,1
    8000169c:	02f59593          	slli	a1,a1,0x2f
    800016a0:	fff5c593          	not	a1,a1
    800016a4:	40b5063b          	subw	a2,a0,a1
    800016a8:	30c2b023          	sd	a2,768(t0)
    800016ac:	00000693          	li	a3,0
    800016b0:	00c68463          	beq	a3,a2,800016b8 <inst_115>
    800016b4:	971fe06f          	j	80000024 <rvtest_error>

00000000800016b8 <inst_115>:
    800016b8:	fff00513          	li	a0,-1
    800016bc:	00100593          	li	a1,1
    800016c0:	03059593          	slli	a1,a1,0x30
    800016c4:	fff5c593          	not	a1,a1
    800016c8:	40b5063b          	subw	a2,a0,a1
    800016cc:	30c2b423          	sd	a2,776(t0)
    800016d0:	00000693          	li	a3,0
    800016d4:	00c68463          	beq	a3,a2,800016dc <inst_116>
    800016d8:	94dfe06f          	j	80000024 <rvtest_error>

00000000800016dc <inst_116>:
    800016dc:	55555537          	lui	a0,0x55555
    800016e0:	55550513          	addi	a0,a0,1365 # 55555555 <absimmsh+0x49a847a8>
    800016e4:	00b51513          	slli	a0,a0,0xb
    800016e8:	2aa50513          	addi	a0,a0,682
    800016ec:	00b51513          	slli	a0,a0,0xb
    800016f0:	55550513          	addi	a0,a0,1365
    800016f4:	00a51513          	slli	a0,a0,0xa
    800016f8:	15450513          	addi	a0,a0,340
    800016fc:	00100593          	li	a1,1
    80001700:	03159593          	slli	a1,a1,0x31
    80001704:	fff5c593          	not	a1,a1
    80001708:	40b5063b          	subw	a2,a0,a1
    8000170c:	30c2b823          	sd	a2,784(t0)
    80001710:	555556b7          	lui	a3,0x55555
    80001714:	5556869b          	addiw	a3,a3,1365 # 55555555 <absimmsh+0x49a847a8>
    80001718:	00c68463          	beq	a3,a2,80001720 <inst_117>
    8000171c:	909fe06f          	j	80000024 <rvtest_error>

0000000080001720 <inst_117>:
    80001720:	33333537          	lui	a0,0x33333
    80001724:	33350513          	addi	a0,a0,819 # 33333333 <absimmsh+0x27862586>
    80001728:	00b51513          	slli	a0,a0,0xb
    8000172c:	19950513          	addi	a0,a0,409
    80001730:	00b51513          	slli	a0,a0,0xb
    80001734:	4cc50513          	addi	a0,a0,1228
    80001738:	00a51513          	slli	a0,a0,0xa
    8000173c:	33450513          	addi	a0,a0,820
    80001740:	00100593          	li	a1,1
    80001744:	03259593          	slli	a1,a1,0x32
    80001748:	fff5c593          	not	a1,a1
    8000174c:	40b5063b          	subw	a2,a0,a1
    80001750:	30c2bc23          	sd	a2,792(t0)
    80001754:	333336b7          	lui	a3,0x33333
    80001758:	3356869b          	addiw	a3,a3,821 # 33333335 <absimmsh+0x27862588>
    8000175c:	00c68463          	beq	a3,a2,80001764 <inst_118>
    80001760:	8c5fe06f          	j	80000024 <rvtest_error>

0000000080001764 <inst_118>:
    80001764:	00100513          	li	a0,1
    80001768:	02e51513          	slli	a0,a0,0x2e
    8000176c:	00100593          	li	a1,1
    80001770:	03359593          	slli	a1,a1,0x33
    80001774:	fff5c593          	not	a1,a1
    80001778:	40b5063b          	subw	a2,a0,a1
    8000177c:	32c2b023          	sd	a2,800(t0)
    80001780:	00100693          	li	a3,1
    80001784:	00c68463          	beq	a3,a2,8000178c <inst_119>
    80001788:	89dfe06f          	j	80000024 <rvtest_error>

000000008000178c <inst_119>:
    8000178c:	00000537          	lui	a0,0x0
    80001790:	fff50513          	addi	a0,a0,-1
    80001794:	00b51513          	slli	a0,a0,0xb
    80001798:	25750513          	addi	a0,a0,599
    8000179c:	00b51513          	slli	a0,a0,0xb
    800017a0:	6c350513          	addi	a0,a0,1731
    800017a4:	00a51513          	slli	a0,a0,0xa
    800017a8:	0cd50513          	addi	a0,a0,205
    800017ac:	00100593          	li	a1,1
    800017b0:	03459593          	slli	a1,a1,0x34
    800017b4:	fff5c593          	not	a1,a1
    800017b8:	40b5063b          	subw	a2,a0,a1
    800017bc:	32c2b423          	sd	a2,808(t0)
    800017c0:	4afb16b7          	lui	a3,0x4afb1
    800017c4:	cce6869b          	addiw	a3,a3,-818 # 4afb0cce <absimmsh+0x3f4dff21>
    800017c8:	00c68463          	beq	a3,a2,800017d0 <inst_120>
    800017cc:	859fe06f          	j	80000024 <rvtest_error>

00000000800017d0 <inst_120>:
    800017d0:	00100513          	li	a0,1
    800017d4:	01751513          	slli	a0,a0,0x17
    800017d8:	00100593          	li	a1,1
    800017dc:	03559593          	slli	a1,a1,0x35
    800017e0:	fff5c593          	not	a1,a1
    800017e4:	40b5063b          	subw	a2,a0,a1
    800017e8:	32c2b823          	sd	a2,816(t0)
    800017ec:	008006b7          	lui	a3,0x800
    800017f0:	0016869b          	addiw	a3,a3,1 # 800001 <offset+0x7ffb61>
    800017f4:	00c68463          	beq	a3,a2,800017fc <inst_121>
    800017f8:	82dfe06f          	j	80000024 <rvtest_error>

00000000800017fc <inst_121>:
    800017fc:	00400513          	li	a0,4
    80001800:	00100593          	li	a1,1
    80001804:	03659593          	slli	a1,a1,0x36
    80001808:	fff5c593          	not	a1,a1
    8000180c:	40b5063b          	subw	a2,a0,a1
    80001810:	32c2bc23          	sd	a2,824(t0)
    80001814:	00500693          	li	a3,5
    80001818:	00c68463          	beq	a3,a2,80001820 <inst_122>
    8000181c:	809fe06f          	j	80000024 <rvtest_error>

0000000080001820 <inst_122>:
    80001820:	00100513          	li	a0,1
    80001824:	01c51513          	slli	a0,a0,0x1c
    80001828:	fff54513          	not	a0,a0
    8000182c:	00100593          	li	a1,1
    80001830:	03759593          	slli	a1,a1,0x37
    80001834:	fff5c593          	not	a1,a1
    80001838:	40b5063b          	subw	a2,a0,a1
    8000183c:	34c2b023          	sd	a2,832(t0)
    80001840:	f00006b7          	lui	a3,0xf0000
    80001844:	00c68463          	beq	a3,a2,8000184c <inst_123>
    80001848:	fdcfe06f          	j	80000024 <rvtest_error>

000000008000184c <inst_123>:
    8000184c:	00100513          	li	a0,1
    80001850:	02e51513          	slli	a0,a0,0x2e
    80001854:	00100593          	li	a1,1
    80001858:	03859593          	slli	a1,a1,0x38
    8000185c:	fff5c593          	not	a1,a1
    80001860:	40b5063b          	subw	a2,a0,a1
    80001864:	34c2b423          	sd	a2,840(t0)
    80001868:	00100693          	li	a3,1
    8000186c:	00c68463          	beq	a3,a2,80001874 <inst_124>
    80001870:	fb4fe06f          	j	80000024 <rvtest_error>

0000000080001874 <inst_124>:
    80001874:	00100513          	li	a0,1
    80001878:	01551513          	slli	a0,a0,0x15
    8000187c:	fff54513          	not	a0,a0
    80001880:	00100593          	li	a1,1
    80001884:	03959593          	slli	a1,a1,0x39
    80001888:	fff5c593          	not	a1,a1
    8000188c:	40b5063b          	subw	a2,a0,a1
    80001890:	34c2b823          	sd	a2,848(t0)
    80001894:	ffe006b7          	lui	a3,0xffe00
    80001898:	00c68463          	beq	a3,a2,800018a0 <inst_125>
    8000189c:	f88fe06f          	j	80000024 <rvtest_error>

00000000800018a0 <inst_125>:
    800018a0:	00000537          	lui	a0,0x0
    800018a4:	fff50513          	addi	a0,a0,-1
    800018a8:	00b51513          	slli	a0,a0,0xb
    800018ac:	25750513          	addi	a0,a0,599
    800018b0:	00b51513          	slli	a0,a0,0xb
    800018b4:	6c350513          	addi	a0,a0,1731
    800018b8:	00a51513          	slli	a0,a0,0xa
    800018bc:	0ce50513          	addi	a0,a0,206
    800018c0:	00100593          	li	a1,1
    800018c4:	03a59593          	slli	a1,a1,0x3a
    800018c8:	fff5c593          	not	a1,a1
    800018cc:	40b5063b          	subw	a2,a0,a1
    800018d0:	34c2bc23          	sd	a2,856(t0)
    800018d4:	4afb16b7          	lui	a3,0x4afb1
    800018d8:	ccf6869b          	addiw	a3,a3,-817 # 4afb0ccf <absimmsh+0x3f4dff22>
    800018dc:	00c68463          	beq	a3,a2,800018e4 <inst_126>
    800018e0:	f44fe06f          	j	80000024 <rvtest_error>

00000000800018e4 <inst_126>:
    800018e4:	00100513          	li	a0,1
    800018e8:	03451513          	slli	a0,a0,0x34
    800018ec:	fff54513          	not	a0,a0
    800018f0:	00100593          	li	a1,1
    800018f4:	03b59593          	slli	a1,a1,0x3b
    800018f8:	fff5c593          	not	a1,a1
    800018fc:	40b5063b          	subw	a2,a0,a1
    80001900:	36c2b023          	sd	a2,864(t0)
    80001904:	00000693          	li	a3,0
    80001908:	00c68463          	beq	a3,a2,80001910 <inst_127>
    8000190c:	f18fe06f          	j	80000024 <rvtest_error>

0000000080001910 <inst_127>:
    80001910:	ff600513          	li	a0,-10
    80001914:	00100593          	li	a1,1
    80001918:	03c59593          	slli	a1,a1,0x3c
    8000191c:	fff5c593          	not	a1,a1
    80001920:	40b5063b          	subw	a2,a0,a1
    80001924:	36c2b423          	sd	a2,872(t0)
    80001928:	ff700693          	li	a3,-9
    8000192c:	00c68463          	beq	a3,a2,80001934 <inst_128>
    80001930:	ef4fe06f          	j	80000024 <rvtest_error>

0000000080001934 <inst_128>:
    80001934:	00100513          	li	a0,1
    80001938:	02051513          	slli	a0,a0,0x20
    8000193c:	00100593          	li	a1,1
    80001940:	03d59593          	slli	a1,a1,0x3d
    80001944:	fff5c593          	not	a1,a1
    80001948:	40b5063b          	subw	a2,a0,a1
    8000194c:	36c2b823          	sd	a2,880(t0)
    80001950:	00100693          	li	a3,1
    80001954:	00c68463          	beq	a3,a2,8000195c <inst_129>
    80001958:	eccfe06f          	j	80000024 <rvtest_error>

000000008000195c <inst_129>:
    8000195c:	ffe00513          	li	a0,-2
    80001960:	00100593          	li	a1,1
    80001964:	03e59593          	slli	a1,a1,0x3e
    80001968:	fff5c593          	not	a1,a1
    8000196c:	40b5063b          	subw	a2,a0,a1
    80001970:	36c2bc23          	sd	a2,888(t0)
    80001974:	fff00693          	li	a3,-1
    80001978:	00c68463          	beq	a3,a2,80001980 <inst_130>
    8000197c:	ea8fe06f          	j	80000024 <rvtest_error>

0000000080001980 <inst_130>:
    80001980:	00100513          	li	a0,1
    80001984:	01d51513          	slli	a0,a0,0x1d
    80001988:	fff54513          	not	a0,a0
    8000198c:	555555b7          	lui	a1,0x55555
    80001990:	55558593          	addi	a1,a1,1365 # 55555555 <absimmsh+0x49a847a8>
    80001994:	00b59593          	slli	a1,a1,0xb
    80001998:	2aa58593          	addi	a1,a1,682
    8000199c:	00b59593          	slli	a1,a1,0xb
    800019a0:	55558593          	addi	a1,a1,1365
    800019a4:	00a59593          	slli	a1,a1,0xa
    800019a8:	15558593          	addi	a1,a1,341
    800019ac:	40b5063b          	subw	a2,a0,a1
    800019b0:	38c2b023          	sd	a2,896(t0)
    800019b4:	8aaab6b7          	lui	a3,0x8aaab
    800019b8:	aaa6869b          	addiw	a3,a3,-1366 # ffffffff8aaaaaaa <absimm+0xfffffffecfd9cfda>
    800019bc:	00c68463          	beq	a3,a2,800019c4 <inst_131>
    800019c0:	e64fe06f          	j	80000024 <rvtest_error>

00000000800019c4 <inst_131>:
    800019c4:	00100513          	li	a0,1
    800019c8:	03e51513          	slli	a0,a0,0x3e
    800019cc:	aaaab5b7          	lui	a1,0xaaaab
    800019d0:	aaa58593          	addi	a1,a1,-1366 # ffffffffaaaaaaaa <absimm+0xfffffffeefd9cfda>
    800019d4:	00b59593          	slli	a1,a1,0xb
    800019d8:	55558593          	addi	a1,a1,1365
    800019dc:	00b59593          	slli	a1,a1,0xb
    800019e0:	2aa58593          	addi	a1,a1,682
    800019e4:	00a59593          	slli	a1,a1,0xa
    800019e8:	2aa58593          	addi	a1,a1,682
    800019ec:	40b5063b          	subw	a2,a0,a1
    800019f0:	38c2b423          	sd	a2,904(t0)
    800019f4:	555556b7          	lui	a3,0x55555
    800019f8:	5566869b          	addiw	a3,a3,1366 # 55555556 <absimmsh+0x49a847a9>
    800019fc:	00c68463          	beq	a3,a2,80001a04 <inst_132>
    80001a00:	e24fe06f          	j	80000024 <rvtest_error>

0000000080001a04 <inst_132>:
    80001a04:	02000513          	li	a0,32
    80001a08:	ffa00593          	li	a1,-6
    80001a0c:	40b5063b          	subw	a2,a0,a1
    80001a10:	38c2b823          	sd	a2,912(t0)
    80001a14:	02600693          	li	a3,38
    80001a18:	00c68463          	beq	a3,a2,80001a20 <inst_133>
    80001a1c:	e08fe06f          	j	80000024 <rvtest_error>

0000000080001a20 <inst_133>:
    80001a20:	04000513          	li	a0,64
    80001a24:	00100593          	li	a1,1
    80001a28:	03059593          	slli	a1,a1,0x30
    80001a2c:	40b5063b          	subw	a2,a0,a1
    80001a30:	38c2bc23          	sd	a2,920(t0)
    80001a34:	04000693          	li	a3,64
    80001a38:	00c68463          	beq	a3,a2,80001a40 <inst_134>
    80001a3c:	de8fe06f          	j	80000024 <rvtest_error>

0000000080001a40 <inst_134>:
    80001a40:	40000513          	li	a0,1024
    80001a44:	ffd00593          	li	a1,-3
    80001a48:	40b5063b          	subw	a2,a0,a1
    80001a4c:	3ac2b023          	sd	a2,928(t0)
    80001a50:	40300693          	li	a3,1027
    80001a54:	00c68463          	beq	a3,a2,80001a5c <inst_135>
    80001a58:	dccfe06f          	j	80000024 <rvtest_error>

0000000080001a5c <inst_135>:
    80001a5c:	00100513          	li	a0,1
    80001a60:	00d51513          	slli	a0,a0,0xd
    80001a64:	f7f00593          	li	a1,-129
    80001a68:	40b5063b          	subw	a2,a0,a1
    80001a6c:	3ac2b423          	sd	a2,936(t0)
    80001a70:	000026b7          	lui	a3,0x2
    80001a74:	0816869b          	addiw	a3,a3,129 # 2081 <offset+0x1be1>
    80001a78:	00c68463          	beq	a3,a2,80001a80 <inst_136>
    80001a7c:	da8fe06f          	j	80000024 <rvtest_error>

0000000080001a80 <inst_136>:
    80001a80:	00100513          	li	a0,1
    80001a84:	00e51513          	slli	a0,a0,0xe
    80001a88:	00100593          	li	a1,1
    80001a8c:	02959593          	slli	a1,a1,0x29
    80001a90:	fff5c593          	not	a1,a1
    80001a94:	40b5063b          	subw	a2,a0,a1
    80001a98:	3ac2b823          	sd	a2,944(t0)
    80001a9c:	000046b7          	lui	a3,0x4
    80001aa0:	0016869b          	addiw	a3,a3,1 # 4001 <offset+0x3b61>
    80001aa4:	00c68463          	beq	a3,a2,80001aac <inst_137>
    80001aa8:	d7cfe06f          	j	80000024 <rvtest_error>

0000000080001aac <inst_137>:
    80001aac:	00100513          	li	a0,1
    80001ab0:	01351513          	slli	a0,a0,0x13
    80001ab4:	666665b7          	lui	a1,0x66666
    80001ab8:	66658593          	addi	a1,a1,1638 # 66666666 <absimmsh+0x5ab958b9>
    80001abc:	00b59593          	slli	a1,a1,0xb
    80001ac0:	33358593          	addi	a1,a1,819
    80001ac4:	00b59593          	slli	a1,a1,0xb
    80001ac8:	19958593          	addi	a1,a1,409
    80001acc:	00a59593          	slli	a1,a1,0xa
    80001ad0:	26758593          	addi	a1,a1,615
    80001ad4:	40b5063b          	subw	a2,a0,a1
    80001ad8:	3ac2bc23          	sd	a2,952(t0)
    80001adc:	99a1a6b7          	lui	a3,0x99a1a
    80001ae0:	9996869b          	addiw	a3,a3,-1639 # ffffffff99a19999 <absimm+0xfffffffeded0bec9>
    80001ae4:	00c68463          	beq	a3,a2,80001aec <inst_138>
    80001ae8:	d3cfe06f          	j	80000024 <rvtest_error>

0000000080001aec <inst_138>:
    80001aec:	00100513          	li	a0,1
    80001af0:	01451513          	slli	a0,a0,0x14
    80001af4:	00100593          	li	a1,1
    80001af8:	02d59593          	slli	a1,a1,0x2d
    80001afc:	40b5063b          	subw	a2,a0,a1
    80001b00:	3cc2b023          	sd	a2,960(t0)
    80001b04:	001006b7          	lui	a3,0x100
    80001b08:	00c68463          	beq	a3,a2,80001b10 <inst_139>
    80001b0c:	d18fe06f          	j	80000024 <rvtest_error>

0000000080001b10 <inst_139>:
    80001b10:	00100513          	li	a0,1
    80001b14:	01551513          	slli	a0,a0,0x15
    80001b18:	00100593          	li	a1,1
    80001b1c:	40b5063b          	subw	a2,a0,a1
    80001b20:	3cc2b423          	sd	a2,968(t0)
    80001b24:	002006b7          	lui	a3,0x200
    80001b28:	fff6869b          	addiw	a3,a3,-1 # 1fffff <offset+0x1ffb5f>
    80001b2c:	00c68463          	beq	a3,a2,80001b34 <inst_140>
    80001b30:	cf4fe06f          	j	80000024 <rvtest_error>

0000000080001b34 <inst_140>:
    80001b34:	00100513          	li	a0,1
    80001b38:	01651513          	slli	a0,a0,0x16
    80001b3c:	555555b7          	lui	a1,0x55555
    80001b40:	55558593          	addi	a1,a1,1365 # 55555555 <absimmsh+0x49a847a8>
    80001b44:	00b59593          	slli	a1,a1,0xb
    80001b48:	2aa58593          	addi	a1,a1,682
    80001b4c:	00b59593          	slli	a1,a1,0xb
    80001b50:	55558593          	addi	a1,a1,1365
    80001b54:	00a59593          	slli	a1,a1,0xa
    80001b58:	15558593          	addi	a1,a1,341
    80001b5c:	40b5063b          	subw	a2,a0,a1
    80001b60:	3cc2b823          	sd	a2,976(t0)
    80001b64:	aaeab6b7          	lui	a3,0xaaeab
    80001b68:	aab6869b          	addiw	a3,a3,-1365 # ffffffffaaeaaaab <absimm+0xfffffffef019cfdb>
    80001b6c:	00c68463          	beq	a3,a2,80001b74 <inst_141>
    80001b70:	cb4fe06f          	j	80000024 <rvtest_error>

0000000080001b74 <inst_141>:
    80001b74:	00100513          	li	a0,1
    80001b78:	01a51513          	slli	a0,a0,0x1a
    80001b7c:	00100593          	li	a1,1
    80001b80:	02659593          	slli	a1,a1,0x26
    80001b84:	40b5063b          	subw	a2,a0,a1
    80001b88:	3cc2bc23          	sd	a2,984(t0)
    80001b8c:	040006b7          	lui	a3,0x4000
    80001b90:	00c68463          	beq	a3,a2,80001b98 <inst_142>
    80001b94:	c90fe06f          	j	80000024 <rvtest_error>

0000000080001b98 <inst_142>:
    80001b98:	00100513          	li	a0,1
    80001b9c:	01b51513          	slli	a0,a0,0x1b
    80001ba0:	ff700593          	li	a1,-9
    80001ba4:	40b5063b          	subw	a2,a0,a1
    80001ba8:	3ec2b023          	sd	a2,992(t0)
    80001bac:	080006b7          	lui	a3,0x8000
    80001bb0:	0096869b          	addiw	a3,a3,9 # 8000009 <offset+0x7fffb69>
    80001bb4:	00c68463          	beq	a3,a2,80001bbc <inst_143>
    80001bb8:	c6cfe06f          	j	80000024 <rvtest_error>

0000000080001bbc <inst_143>:
    80001bbc:	00100513          	li	a0,1
    80001bc0:	01e51513          	slli	a0,a0,0x1e
    80001bc4:	20000593          	li	a1,512
    80001bc8:	40b5063b          	subw	a2,a0,a1
    80001bcc:	3ec2b423          	sd	a2,1000(t0)
    80001bd0:	400006b7          	lui	a3,0x40000
    80001bd4:	e006869b          	addiw	a3,a3,-512 # 3ffffe00 <absimmsh+0x3452f053>
    80001bd8:	00c68463          	beq	a3,a2,80001be0 <inst_144>
    80001bdc:	c48fe06f          	j	80000024 <rvtest_error>

0000000080001be0 <inst_144>:
    80001be0:	00100513          	li	a0,1
    80001be4:	02151513          	slli	a0,a0,0x21
    80001be8:	00700593          	li	a1,7
    80001bec:	40b5063b          	subw	a2,a0,a1
    80001bf0:	3ec2b823          	sd	a2,1008(t0)
    80001bf4:	ff900693          	li	a3,-7
    80001bf8:	00c68463          	beq	a3,a2,80001c00 <inst_145>
    80001bfc:	c28fe06f          	j	80000024 <rvtest_error>

0000000080001c00 <inst_145>:
    80001c00:	00100513          	li	a0,1
    80001c04:	02351513          	slli	a0,a0,0x23
    80001c08:	00100593          	li	a1,1
    80001c0c:	03459593          	slli	a1,a1,0x34
    80001c10:	40b5063b          	subw	a2,a0,a1
    80001c14:	3ec2bc23          	sd	a2,1016(t0)
    80001c18:	00000693          	li	a3,0
    80001c1c:	00c68463          	beq	a3,a2,80001c24 <inst_146>
    80001c20:	c04fe06f          	j	80000024 <rvtest_error>

0000000080001c24 <inst_146>:
    80001c24:	00100513          	li	a0,1
    80001c28:	02451513          	slli	a0,a0,0x24
    80001c2c:	aaaab5b7          	lui	a1,0xaaaab
    80001c30:	aaa58593          	addi	a1,a1,-1366 # ffffffffaaaaaaaa <absimm+0xfffffffeefd9cfda>
    80001c34:	00b59593          	slli	a1,a1,0xb
    80001c38:	55558593          	addi	a1,a1,1365
    80001c3c:	00b59593          	slli	a1,a1,0xb
    80001c40:	2aa58593          	addi	a1,a1,682
    80001c44:	00a59593          	slli	a1,a1,0xa
    80001c48:	2ab58593          	addi	a1,a1,683
    80001c4c:	40b5063b          	subw	a2,a0,a1
    80001c50:	40c2b023          	sd	a2,1024(t0)
    80001c54:	555556b7          	lui	a3,0x55555
    80001c58:	5556869b          	addiw	a3,a3,1365 # 55555555 <absimmsh+0x49a847a8>
    80001c5c:	00c68463          	beq	a3,a2,80001c64 <inst_147>
    80001c60:	bc4fe06f          	j	80000024 <rvtest_error>

0000000080001c64 <inst_147>:
    80001c64:	00100513          	li	a0,1
    80001c68:	02551513          	slli	a0,a0,0x25
    80001c6c:	00700593          	li	a1,7
    80001c70:	40b5063b          	subw	a2,a0,a1
    80001c74:	40c2b423          	sd	a2,1032(t0)
    80001c78:	ff900693          	li	a3,-7
    80001c7c:	00c68463          	beq	a3,a2,80001c84 <inst_148>
    80001c80:	ba4fe06f          	j	80000024 <rvtest_error>

0000000080001c84 <inst_148>:
    80001c84:	00100513          	li	a0,1
    80001c88:	02651513          	slli	a0,a0,0x26
    80001c8c:	40000593          	li	a1,1024
    80001c90:	40b5063b          	subw	a2,a0,a1
    80001c94:	40c2b823          	sd	a2,1040(t0)
    80001c98:	c0000693          	li	a3,-1024
    80001c9c:	00c68463          	beq	a3,a2,80001ca4 <inst_149>
    80001ca0:	b84fe06f          	j	80000024 <rvtest_error>

0000000080001ca4 <inst_149>:
    80001ca4:	00100513          	li	a0,1
    80001ca8:	02851513          	slli	a0,a0,0x28
    80001cac:	02000593          	li	a1,32
    80001cb0:	40b5063b          	subw	a2,a0,a1
    80001cb4:	40c2bc23          	sd	a2,1048(t0)
    80001cb8:	fe000693          	li	a3,-32
    80001cbc:	00c68463          	beq	a3,a2,80001cc4 <inst_150>
    80001cc0:	b64fe06f          	j	80000024 <rvtest_error>

0000000080001cc4 <inst_150>:
    80001cc4:	00100513          	li	a0,1
    80001cc8:	02a51513          	slli	a0,a0,0x2a
    80001ccc:	00100593          	li	a1,1
    80001cd0:	01d59593          	slli	a1,a1,0x1d
    80001cd4:	fff5c593          	not	a1,a1
    80001cd8:	40b5063b          	subw	a2,a0,a1
    80001cdc:	42c2b023          	sd	a2,1056(t0)
    80001ce0:	200006b7          	lui	a3,0x20000
    80001ce4:	0016869b          	addiw	a3,a3,1 # 20000001 <absimmsh+0x1452f254>
    80001ce8:	00c68463          	beq	a3,a2,80001cf0 <inst_151>
    80001cec:	b38fe06f          	j	80000024 <rvtest_error>

0000000080001cf0 <inst_151>:
    80001cf0:	00100513          	li	a0,1
    80001cf4:	02d51513          	slli	a0,a0,0x2d
    80001cf8:	fbf00593          	li	a1,-65
    80001cfc:	40b5063b          	subw	a2,a0,a1
    80001d00:	42c2b423          	sd	a2,1064(t0)
    80001d04:	04100693          	li	a3,65
    80001d08:	00c68463          	beq	a3,a2,80001d10 <inst_152>
    80001d0c:	b18fe06f          	j	80000024 <rvtest_error>

0000000080001d10 <inst_152>:
    80001d10:	00100513          	li	a0,1
    80001d14:	03051513          	slli	a0,a0,0x30
    80001d18:	00100593          	li	a1,1
    80001d1c:	03e59593          	slli	a1,a1,0x3e
    80001d20:	fff5c593          	not	a1,a1
    80001d24:	40b5063b          	subw	a2,a0,a1
    80001d28:	42c2b823          	sd	a2,1072(t0)
    80001d2c:	00100693          	li	a3,1
    80001d30:	00c68463          	beq	a3,a2,80001d38 <inst_153>
    80001d34:	af0fe06f          	j	80000024 <rvtest_error>

0000000080001d38 <inst_153>:
    80001d38:	00100513          	li	a0,1
    80001d3c:	03151513          	slli	a0,a0,0x31
    80001d40:	bff00593          	li	a1,-1025
    80001d44:	40b5063b          	subw	a2,a0,a1
    80001d48:	42c2bc23          	sd	a2,1080(t0)
    80001d4c:	40100693          	li	a3,1025
    80001d50:	00c68463          	beq	a3,a2,80001d58 <inst_154>
    80001d54:	ad0fe06f          	j	80000024 <rvtest_error>

0000000080001d58 <inst_154>:
    80001d58:	00100513          	li	a0,1
    80001d5c:	03251513          	slli	a0,a0,0x32
    80001d60:	00100593          	li	a1,1
    80001d64:	02a59593          	slli	a1,a1,0x2a
    80001d68:	fff5c593          	not	a1,a1
    80001d6c:	40b5063b          	subw	a2,a0,a1
    80001d70:	44c2b023          	sd	a2,1088(t0)
    80001d74:	00100693          	li	a3,1
    80001d78:	00c68463          	beq	a3,a2,80001d80 <inst_155>
    80001d7c:	aa8fe06f          	j	80000024 <rvtest_error>

0000000080001d80 <inst_155>:
    80001d80:	00100513          	li	a0,1
    80001d84:	03351513          	slli	a0,a0,0x33
    80001d88:	666665b7          	lui	a1,0x66666
    80001d8c:	66658593          	addi	a1,a1,1638 # 66666666 <absimmsh+0x5ab958b9>
    80001d90:	00b59593          	slli	a1,a1,0xb
    80001d94:	33358593          	addi	a1,a1,819
    80001d98:	00b59593          	slli	a1,a1,0xb
    80001d9c:	19958593          	addi	a1,a1,409
    80001da0:	00a59593          	slli	a1,a1,0xa
    80001da4:	26758593          	addi	a1,a1,615
    80001da8:	40b5063b          	subw	a2,a0,a1
    80001dac:	44c2b423          	sd	a2,1096(t0)
    80001db0:	9999a6b7          	lui	a3,0x9999a
    80001db4:	9996869b          	addiw	a3,a3,-1639 # ffffffff99999999 <absimm+0xfffffffedec8bec9>
    80001db8:	00c68463          	beq	a3,a2,80001dc0 <inst_156>
    80001dbc:	a68fe06f          	j	80000024 <rvtest_error>

0000000080001dc0 <inst_156>:
    80001dc0:	00100513          	li	a0,1
    80001dc4:	03451513          	slli	a0,a0,0x34
    80001dc8:	00100593          	li	a1,1
    80001dcc:	01e59593          	slli	a1,a1,0x1e
    80001dd0:	40b5063b          	subw	a2,a0,a1
    80001dd4:	44c2b823          	sd	a2,1104(t0)
    80001dd8:	c00006b7          	lui	a3,0xc0000
    80001ddc:	00c68463          	beq	a3,a2,80001de4 <inst_157>
    80001de0:	a44fe06f          	j	80000024 <rvtest_error>

0000000080001de4 <inst_157>:
    80001de4:	00100513          	li	a0,1
    80001de8:	03551513          	slli	a0,a0,0x35
    80001dec:	ff700593          	li	a1,-9
    80001df0:	40b5063b          	subw	a2,a0,a1
    80001df4:	44c2bc23          	sd	a2,1112(t0)
    80001df8:	00900693          	li	a3,9
    80001dfc:	00c68463          	beq	a3,a2,80001e04 <inst_158>
    80001e00:	a24fe06f          	j	80000024 <rvtest_error>

0000000080001e04 <inst_158>:
    80001e04:	00100513          	li	a0,1
    80001e08:	03651513          	slli	a0,a0,0x36
    80001e0c:	00100593          	li	a1,1
    80001e10:	02a59593          	slli	a1,a1,0x2a
    80001e14:	40b5063b          	subw	a2,a0,a1
    80001e18:	46c2b023          	sd	a2,1120(t0)
    80001e1c:	00000693          	li	a3,0
    80001e20:	00c68463          	beq	a3,a2,80001e28 <inst_159>
    80001e24:	a00fe06f          	j	80000024 <rvtest_error>

0000000080001e28 <inst_159>:
    80001e28:	00100513          	li	a0,1
    80001e2c:	03751513          	slli	a0,a0,0x37
    80001e30:	00100593          	li	a1,1
    80001e34:	03a59593          	slli	a1,a1,0x3a
    80001e38:	fff5c593          	not	a1,a1
    80001e3c:	40b5063b          	subw	a2,a0,a1
    80001e40:	46c2b423          	sd	a2,1128(t0)
    80001e44:	00100693          	li	a3,1
    80001e48:	00c68463          	beq	a3,a2,80001e50 <inst_160>
    80001e4c:	9d8fe06f          	j	80000024 <rvtest_error>

0000000080001e50 <inst_160>:
    80001e50:	00100513          	li	a0,1
    80001e54:	03851513          	slli	a0,a0,0x38
    80001e58:	04000593          	li	a1,64
    80001e5c:	40b5063b          	subw	a2,a0,a1
    80001e60:	46c2b823          	sd	a2,1136(t0)
    80001e64:	fc000693          	li	a3,-64
    80001e68:	00c68463          	beq	a3,a2,80001e70 <inst_161>
    80001e6c:	9b8fe06f          	j	80000024 <rvtest_error>

0000000080001e70 <inst_161>:
    80001e70:	00100513          	li	a0,1
    80001e74:	03951513          	slli	a0,a0,0x39
    80001e78:	00100593          	li	a1,1
    80001e7c:	01459593          	slli	a1,a1,0x14
    80001e80:	fff5c593          	not	a1,a1
    80001e84:	40b5063b          	subw	a2,a0,a1
    80001e88:	46c2bc23          	sd	a2,1144(t0)
    80001e8c:	001006b7          	lui	a3,0x100
    80001e90:	0016869b          	addiw	a3,a3,1 # 100001 <offset+0xffb61>
    80001e94:	00c68463          	beq	a3,a2,80001e9c <inst_162>
    80001e98:	98cfe06f          	j	80000024 <rvtest_error>

0000000080001e9c <inst_162>:
    80001e9c:	00100513          	li	a0,1
    80001ea0:	03a51513          	slli	a0,a0,0x3a
    80001ea4:	666665b7          	lui	a1,0x66666
    80001ea8:	66658593          	addi	a1,a1,1638 # 66666666 <absimmsh+0x5ab958b9>
    80001eac:	00b59593          	slli	a1,a1,0xb
    80001eb0:	33358593          	addi	a1,a1,819
    80001eb4:	00b59593          	slli	a1,a1,0xb
    80001eb8:	19958593          	addi	a1,a1,409
    80001ebc:	00a59593          	slli	a1,a1,0xa
    80001ec0:	26558593          	addi	a1,a1,613
    80001ec4:	40b5063b          	subw	a2,a0,a1
    80001ec8:	48c2b023          	sd	a2,1152(t0)
    80001ecc:	9999a6b7          	lui	a3,0x9999a
    80001ed0:	99b6869b          	addiw	a3,a3,-1637 # ffffffff9999999b <absimm+0xfffffffedec8becb>
    80001ed4:	00c68463          	beq	a3,a2,80001edc <inst_163>
    80001ed8:	94cfe06f          	j	80000024 <rvtest_error>

0000000080001edc <inst_163>:
    80001edc:	00100513          	li	a0,1
    80001ee0:	03d51513          	slli	a0,a0,0x3d
    80001ee4:	ff900593          	li	a1,-7
    80001ee8:	40b5063b          	subw	a2,a0,a1
    80001eec:	48c2b423          	sd	a2,1160(t0)
    80001ef0:	00700693          	li	a3,7
    80001ef4:	00c68463          	beq	a3,a2,80001efc <inst_164>
    80001ef8:	92cfe06f          	j	80000024 <rvtest_error>

0000000080001efc <inst_164>:
    80001efc:	ffd00513          	li	a0,-3
    80001f00:	00100593          	li	a1,1
    80001f04:	02c59593          	slli	a1,a1,0x2c
    80001f08:	fff5c593          	not	a1,a1
    80001f0c:	40b5063b          	subw	a2,a0,a1
    80001f10:	48c2b823          	sd	a2,1168(t0)
    80001f14:	ffe00693          	li	a3,-2
    80001f18:	00c68463          	beq	a3,a2,80001f20 <inst_165>
    80001f1c:	908fe06f          	j	80000024 <rvtest_error>

0000000080001f20 <inst_165>:
    80001f20:	ff700513          	li	a0,-9
    80001f24:	00100593          	li	a1,1
    80001f28:	01459593          	slli	a1,a1,0x14
    80001f2c:	40b5063b          	subw	a2,a0,a1
    80001f30:	48c2bc23          	sd	a2,1176(t0)
    80001f34:	fff006b7          	lui	a3,0xfff00
    80001f38:	ff76869b          	addiw	a3,a3,-9 # ffffffffffeffff7 <absimm+0xffffffff451f2527>
    80001f3c:	00c68463          	beq	a3,a2,80001f44 <inst_166>
    80001f40:	8e4fe06f          	j	80000024 <rvtest_error>

0000000080001f44 <inst_166>:
    80001f44:	fef00513          	li	a0,-17
    80001f48:	00100593          	li	a1,1
    80001f4c:	01259593          	slli	a1,a1,0x12
    80001f50:	40b5063b          	subw	a2,a0,a1
    80001f54:	4ac2b023          	sd	a2,1184(t0)
    80001f58:	fffc06b7          	lui	a3,0xfffc0
    80001f5c:	fef6869b          	addiw	a3,a3,-17 # fffffffffffbffef <absimm+0xffffffff452b251f>
    80001f60:	00c68463          	beq	a3,a2,80001f68 <inst_167>
    80001f64:	8c0fe06f          	j	80000024 <rvtest_error>

0000000080001f68 <inst_167>:
    80001f68:	fbf00513          	li	a0,-65
    80001f6c:	00100593          	li	a1,1
    80001f70:	00f59593          	slli	a1,a1,0xf
    80001f74:	fff5c593          	not	a1,a1
    80001f78:	40b5063b          	subw	a2,a0,a1
    80001f7c:	4ac2b423          	sd	a2,1192(t0)
    80001f80:	000086b7          	lui	a3,0x8
    80001f84:	fc06869b          	addiw	a3,a3,-64 # 7fc0 <offset+0x7b20>
    80001f88:	00c68463          	beq	a3,a2,80001f90 <inst_168>
    80001f8c:	898fe06f          	j	80000024 <rvtest_error>

0000000080001f90 <inst_168>:
    80001f90:	eff00513          	li	a0,-257
    80001f94:	00100593          	li	a1,1
    80001f98:	03d59593          	slli	a1,a1,0x3d
    80001f9c:	fff5c593          	not	a1,a1
    80001fa0:	40b5063b          	subw	a2,a0,a1
    80001fa4:	4ac2b823          	sd	a2,1200(t0)
    80001fa8:	f0000693          	li	a3,-256
    80001fac:	00c68463          	beq	a3,a2,80001fb4 <inst_169>
    80001fb0:	874fe06f          	j	80000024 <rvtest_error>

0000000080001fb4 <inst_169>:
    80001fb4:	00100513          	li	a0,1
    80001fb8:	00c51513          	slli	a0,a0,0xc
    80001fbc:	fff54513          	not	a0,a0
    80001fc0:	02000593          	li	a1,32
    80001fc4:	40b5063b          	subw	a2,a0,a1
    80001fc8:	4ac2bc23          	sd	a2,1208(t0)
    80001fcc:	fffff6b7          	lui	a3,0xfffff
    80001fd0:	fdf6869b          	addiw	a3,a3,-33 # ffffffffffffefdf <absimm+0xffffffff452f150f>
    80001fd4:	00c68463          	beq	a3,a2,80001fdc <inst_170>
    80001fd8:	84cfe06f          	j	80000024 <rvtest_error>

0000000080001fdc <inst_170>:
    80001fdc:	00100513          	li	a0,1
    80001fe0:	00d51513          	slli	a0,a0,0xd
    80001fe4:	fff54513          	not	a0,a0
    80001fe8:	00100593          	li	a1,1
    80001fec:	01859593          	slli	a1,a1,0x18
    80001ff0:	40b5063b          	subw	a2,a0,a1
    80001ff4:	4cc2b023          	sd	a2,1216(t0)
    80001ff8:	feffe6b7          	lui	a3,0xfeffe
    80001ffc:	fff6869b          	addiw	a3,a3,-1 # fffffffffeffdfff <absimm+0xffffffff442f052f>
    80002000:	00c68463          	beq	a3,a2,80002008 <inst_171>
    80002004:	820fe06f          	j	80000024 <rvtest_error>

0000000080002008 <inst_171>:
    80002008:	00100513          	li	a0,1
    8000200c:	00e51513          	slli	a0,a0,0xe
    80002010:	fff54513          	not	a0,a0
    80002014:	00100593          	li	a1,1
    80002018:	01059593          	slli	a1,a1,0x10
    8000201c:	fff5c593          	not	a1,a1
    80002020:	40b5063b          	subw	a2,a0,a1
    80002024:	4cc2b423          	sd	a2,1224(t0)
    80002028:	0000c6b7          	lui	a3,0xc
    8000202c:	00c68463          	beq	a3,a2,80002034 <inst_172>
    80002030:	ff5fd06f          	j	80000024 <rvtest_error>

0000000080002034 <inst_172>:
    80002034:	00100513          	li	a0,1
    80002038:	00f51513          	slli	a0,a0,0xf
    8000203c:	fff54513          	not	a0,a0
    80002040:	00100593          	li	a1,1
    80002044:	01959593          	slli	a1,a1,0x19
    80002048:	40b5063b          	subw	a2,a0,a1
    8000204c:	4cc2b823          	sd	a2,1232(t0)
    80002050:	fdff86b7          	lui	a3,0xfdff8
    80002054:	fff6869b          	addiw	a3,a3,-1 # fffffffffdff7fff <absimm+0xffffffff432ea52f>
    80002058:	00c68463          	beq	a3,a2,80002060 <inst_173>
    8000205c:	fc9fd06f          	j	80000024 <rvtest_error>

0000000080002060 <inst_173>:
    80002060:	00100513          	li	a0,1
    80002064:	01751513          	slli	a0,a0,0x17
    80002068:	fff54513          	not	a0,a0
    8000206c:	00100593          	li	a1,1
    80002070:	02359593          	slli	a1,a1,0x23
    80002074:	fff5c593          	not	a1,a1
    80002078:	40b5063b          	subw	a2,a0,a1
    8000207c:	4cc2bc23          	sd	a2,1240(t0)
    80002080:	ff8006b7          	lui	a3,0xff800
    80002084:	00c68463          	beq	a3,a2,8000208c <inst_174>
    80002088:	f9dfd06f          	j	80000024 <rvtest_error>

000000008000208c <inst_174>:
    8000208c:	00100513          	li	a0,1
    80002090:	01851513          	slli	a0,a0,0x18
    80002094:	fff54513          	not	a0,a0
    80002098:	00100593          	li	a1,1
    8000209c:	03159593          	slli	a1,a1,0x31
    800020a0:	fff5c593          	not	a1,a1
    800020a4:	40b5063b          	subw	a2,a0,a1
    800020a8:	4ec2b023          	sd	a2,1248(t0)
    800020ac:	ff0006b7          	lui	a3,0xff000
    800020b0:	00c68463          	beq	a3,a2,800020b8 <inst_175>
    800020b4:	f71fd06f          	j	80000024 <rvtest_error>

00000000800020b8 <inst_175>:
    800020b8:	00100513          	li	a0,1
    800020bc:	01a51513          	slli	a0,a0,0x1a
    800020c0:	fff54513          	not	a0,a0
    800020c4:	00100593          	li	a1,1
    800020c8:	01459593          	slli	a1,a1,0x14
    800020cc:	fff5c593          	not	a1,a1
    800020d0:	40b5063b          	subw	a2,a0,a1
    800020d4:	4ec2b423          	sd	a2,1256(t0)
    800020d8:	fc1006b7          	lui	a3,0xfc100
    800020dc:	00c68463          	beq	a3,a2,800020e4 <inst_176>
    800020e0:	f45fd06f          	j	80000024 <rvtest_error>

00000000800020e4 <inst_176>:
    800020e4:	00100513          	li	a0,1
    800020e8:	01b51513          	slli	a0,a0,0x1b
    800020ec:	fff54513          	not	a0,a0
    800020f0:	00100593          	li	a1,1
    800020f4:	03359593          	slli	a1,a1,0x33
    800020f8:	40b5063b          	subw	a2,a0,a1
    800020fc:	4ec2b823          	sd	a2,1264(t0)
    80002100:	f80006b7          	lui	a3,0xf8000
    80002104:	fff6869b          	addiw	a3,a3,-1 # fffffffff7ffffff <absimm+0xffffffff3d2f252f>
    80002108:	00c68463          	beq	a3,a2,80002110 <inst_177>
    8000210c:	f19fd06f          	j	80000024 <rvtest_error>

0000000080002110 <inst_177>:
    80002110:	00100513          	li	a0,1
    80002114:	01e51513          	slli	a0,a0,0x1e
    80002118:	fff54513          	not	a0,a0
    8000211c:	00100593          	li	a1,1
    80002120:	02359593          	slli	a1,a1,0x23
    80002124:	fff5c593          	not	a1,a1
    80002128:	40b5063b          	subw	a2,a0,a1
    8000212c:	4ec2bc23          	sd	a2,1272(t0)
    80002130:	c00006b7          	lui	a3,0xc0000
    80002134:	00c68463          	beq	a3,a2,8000213c <inst_178>
    80002138:	eedfd06f          	j	80000024 <rvtest_error>

000000008000213c <inst_178>:
    8000213c:	00100513          	li	a0,1
    80002140:	02051513          	slli	a0,a0,0x20
    80002144:	fff54513          	not	a0,a0
    80002148:	ffc00593          	li	a1,-4
    8000214c:	40b5063b          	subw	a2,a0,a1
    80002150:	50c2b023          	sd	a2,1280(t0)
    80002154:	00300693          	li	a3,3
    80002158:	00c68463          	beq	a3,a2,80002160 <inst_179>
    8000215c:	ec9fd06f          	j	80000024 <rvtest_error>

0000000080002160 <inst_179>:
    80002160:	00100513          	li	a0,1
    80002164:	02151513          	slli	a0,a0,0x21
    80002168:	fff54513          	not	a0,a0
    8000216c:	00100593          	li	a1,1
    80002170:	02659593          	slli	a1,a1,0x26
    80002174:	fff5c593          	not	a1,a1
    80002178:	40b5063b          	subw	a2,a0,a1
    8000217c:	50c2b423          	sd	a2,1288(t0)
    80002180:	00000693          	li	a3,0
    80002184:	00c68463          	beq	a3,a2,8000218c <inst_180>
    80002188:	e9dfd06f          	j	80000024 <rvtest_error>

000000008000218c <inst_180>:
    8000218c:	00100513          	li	a0,1
    80002190:	02651513          	slli	a0,a0,0x26
    80002194:	fff54513          	not	a0,a0
    80002198:	00400593          	li	a1,4
    8000219c:	40b5063b          	subw	a2,a0,a1
    800021a0:	50c2b823          	sd	a2,1296(t0)
    800021a4:	ffb00693          	li	a3,-5
    800021a8:	00c68463          	beq	a3,a2,800021b0 <inst_181>
    800021ac:	e79fd06f          	j	80000024 <rvtest_error>

00000000800021b0 <inst_181>:
    800021b0:	00100513          	li	a0,1
    800021b4:	02751513          	slli	a0,a0,0x27
    800021b8:	fff54513          	not	a0,a0
    800021bc:	000005b7          	lui	a1,0x0
    800021c0:	00058593          	mv	a1,a1
    800021c4:	00b59593          	slli	a1,a1,0xb
    800021c8:	5a858593          	addi	a1,a1,1448 # 5a8 <offset+0x108>
    800021cc:	00b59593          	slli	a1,a1,0xb
    800021d0:	13c58593          	addi	a1,a1,316
    800021d4:	00a59593          	slli	a1,a1,0xa
    800021d8:	33458593          	addi	a1,a1,820
    800021dc:	40b5063b          	subw	a2,a0,a1
    800021e0:	50c2bc23          	sd	a2,1304(t0)
    800021e4:	4afb16b7          	lui	a3,0x4afb1
    800021e8:	ccb6869b          	addiw	a3,a3,-821 # 4afb0ccb <absimmsh+0x3f4dff1e>
    800021ec:	00c68463          	beq	a3,a2,800021f4 <inst_182>
    800021f0:	e35fd06f          	j	80000024 <rvtest_error>

00000000800021f4 <inst_182>:
    800021f4:	00100513          	li	a0,1
    800021f8:	02851513          	slli	a0,a0,0x28
    800021fc:	fff54513          	not	a0,a0
    80002200:	00100593          	li	a1,1
    80002204:	02959593          	slli	a1,a1,0x29
    80002208:	fff5c593          	not	a1,a1
    8000220c:	40b5063b          	subw	a2,a0,a1
    80002210:	52c2b023          	sd	a2,1312(t0)
    80002214:	00000693          	li	a3,0
    80002218:	00c68463          	beq	a3,a2,80002220 <inst_183>
    8000221c:	e09fd06f          	j	80000024 <rvtest_error>

0000000080002220 <inst_183>:
    80002220:	00100513          	li	a0,1
    80002224:	02951513          	slli	a0,a0,0x29
    80002228:	fff54513          	not	a0,a0
    8000222c:	00100593          	li	a1,1
    80002230:	02b59593          	slli	a1,a1,0x2b
    80002234:	40b5063b          	subw	a2,a0,a1
    80002238:	52c2b423          	sd	a2,1320(t0)
    8000223c:	fff00693          	li	a3,-1
    80002240:	00c68463          	beq	a3,a2,80002248 <inst_184>
    80002244:	de1fd06f          	j	80000024 <rvtest_error>

0000000080002248 <inst_184>:
    80002248:	00100513          	li	a0,1
    8000224c:	02a51513          	slli	a0,a0,0x2a
    80002250:	fff54513          	not	a0,a0
    80002254:	000005b7          	lui	a1,0x0
    80002258:	00058593          	mv	a1,a1
    8000225c:	00b59593          	slli	a1,a1,0xb
    80002260:	5a858593          	addi	a1,a1,1448 # 5a8 <offset+0x108>
    80002264:	00b59593          	slli	a1,a1,0xb
    80002268:	13c58593          	addi	a1,a1,316
    8000226c:	00a59593          	slli	a1,a1,0xa
    80002270:	33458593          	addi	a1,a1,820
    80002274:	40b5063b          	subw	a2,a0,a1
    80002278:	52c2b823          	sd	a2,1328(t0)
    8000227c:	4afb16b7          	lui	a3,0x4afb1
    80002280:	ccb6869b          	addiw	a3,a3,-821 # 4afb0ccb <absimmsh+0x3f4dff1e>
    80002284:	00c68463          	beq	a3,a2,8000228c <inst_185>
    80002288:	d9dfd06f          	j	80000024 <rvtest_error>

000000008000228c <inst_185>:
    8000228c:	00100513          	li	a0,1
    80002290:	02b51513          	slli	a0,a0,0x2b
    80002294:	fff54513          	not	a0,a0
    80002298:	00100593          	li	a1,1
    8000229c:	02559593          	slli	a1,a1,0x25
    800022a0:	40b5063b          	subw	a2,a0,a1
    800022a4:	52c2bc23          	sd	a2,1336(t0)
    800022a8:	fff00693          	li	a3,-1
    800022ac:	00c68463          	beq	a3,a2,800022b4 <inst_186>
    800022b0:	d75fd06f          	j	80000024 <rvtest_error>

00000000800022b4 <inst_186>:
    800022b4:	00100513          	li	a0,1
    800022b8:	03051513          	slli	a0,a0,0x30
    800022bc:	fff54513          	not	a0,a0
    800022c0:	aaaab5b7          	lui	a1,0xaaaab
    800022c4:	aaa58593          	addi	a1,a1,-1366 # ffffffffaaaaaaaa <absimm+0xfffffffeefd9cfda>
    800022c8:	00b59593          	slli	a1,a1,0xb
    800022cc:	55558593          	addi	a1,a1,1365
    800022d0:	00b59593          	slli	a1,a1,0xb
    800022d4:	2aa58593          	addi	a1,a1,682
    800022d8:	00a59593          	slli	a1,a1,0xa
    800022dc:	2ab58593          	addi	a1,a1,683
    800022e0:	40b5063b          	subw	a2,a0,a1
    800022e4:	54c2b023          	sd	a2,1344(t0)
    800022e8:	555556b7          	lui	a3,0x55555
    800022ec:	5546869b          	addiw	a3,a3,1364 # 55555554 <absimmsh+0x49a847a7>
    800022f0:	00c68463          	beq	a3,a2,800022f8 <inst_187>
    800022f4:	d31fd06f          	j	80000024 <rvtest_error>

00000000800022f8 <inst_187>:
    800022f8:	00100513          	li	a0,1
    800022fc:	03651513          	slli	a0,a0,0x36
    80002300:	fff54513          	not	a0,a0
    80002304:	00100593          	li	a1,1
    80002308:	03759593          	slli	a1,a1,0x37
    8000230c:	40b5063b          	subw	a2,a0,a1
    80002310:	54c2b423          	sd	a2,1352(t0)
    80002314:	fff00693          	li	a3,-1
    80002318:	00c68463          	beq	a3,a2,80002320 <inst_188>
    8000231c:	d09fd06f          	j	80000024 <rvtest_error>

0000000080002320 <inst_188>:
    80002320:	00100513          	li	a0,1
    80002324:	03751513          	slli	a0,a0,0x37
    80002328:	fff54513          	not	a0,a0
    8000232c:	fff00593          	li	a1,-1
    80002330:	03e59593          	slli	a1,a1,0x3e
    80002334:	40b5063b          	subw	a2,a0,a1
    80002338:	54c2b823          	sd	a2,1360(t0)
    8000233c:	fff00693          	li	a3,-1
    80002340:	00c68463          	beq	a3,a2,80002348 <inst_189>
    80002344:	ce1fd06f          	j	80000024 <rvtest_error>

0000000080002348 <inst_189>:
    80002348:	00100513          	li	a0,1
    8000234c:	03851513          	slli	a0,a0,0x38
    80002350:	fff54513          	not	a0,a0
    80002354:	00500593          	li	a1,5
    80002358:	40b5063b          	subw	a2,a0,a1
    8000235c:	54c2bc23          	sd	a2,1368(t0)
    80002360:	ffa00693          	li	a3,-6
    80002364:	00c68463          	beq	a3,a2,8000236c <inst_190>
    80002368:	cbdfd06f          	j	80000024 <rvtest_error>

000000008000236c <inst_190>:
    8000236c:	00100513          	li	a0,1
    80002370:	03c51513          	slli	a0,a0,0x3c
    80002374:	fff54513          	not	a0,a0
    80002378:	ffb00593          	li	a1,-5
    8000237c:	40b5063b          	subw	a2,a0,a1
    80002380:	56c2b023          	sd	a2,1376(t0)
    80002384:	00400693          	li	a3,4
    80002388:	00c68463          	beq	a3,a2,80002390 <inst_191>
    8000238c:	c99fd06f          	j	80000024 <rvtest_error>

0000000080002390 <inst_191>:
    80002390:	00100513          	li	a0,1
    80002394:	03d51513          	slli	a0,a0,0x3d
    80002398:	fff54513          	not	a0,a0
    8000239c:	ffa00593          	li	a1,-6
    800023a0:	40b5063b          	subw	a2,a0,a1
    800023a4:	56c2b423          	sd	a2,1384(t0)
    800023a8:	00500693          	li	a3,5
    800023ac:	00c68463          	beq	a3,a2,800023b4 <inst_192>
    800023b0:	c75fd06f          	j	80000024 <rvtest_error>

00000000800023b4 <inst_192>:
    800023b4:	00100513          	li	a0,1
    800023b8:	03e51513          	slli	a0,a0,0x3e
    800023bc:	fff54513          	not	a0,a0
    800023c0:	00100593          	li	a1,1
    800023c4:	00e59593          	slli	a1,a1,0xe
    800023c8:	fff5c593          	not	a1,a1
    800023cc:	40b5063b          	subw	a2,a0,a1
    800023d0:	56c2b823          	sd	a2,1392(t0)
    800023d4:	000046b7          	lui	a3,0x4
    800023d8:	00c68463          	beq	a3,a2,800023e0 <inst_193>
    800023dc:	c49fd06f          	j	80000024 <rvtest_error>

00000000800023e0 <inst_193>:
    800023e0:	aaaab537          	lui	a0,0xaaaab
    800023e4:	aaa50513          	addi	a0,a0,-1366 # ffffffffaaaaaaaa <absimm+0xfffffffeefd9cfda>
    800023e8:	00b51513          	slli	a0,a0,0xb
    800023ec:	55550513          	addi	a0,a0,1365
    800023f0:	00b51513          	slli	a0,a0,0xb
    800023f4:	2aa50513          	addi	a0,a0,682
    800023f8:	00a51513          	slli	a0,a0,0xa
    800023fc:	2aa50513          	addi	a0,a0,682
    80002400:	00000593          	li	a1,0
    80002404:	40b5063b          	subw	a2,a0,a1
    80002408:	56c2bc23          	sd	a2,1400(t0)
    8000240c:	aaaab6b7          	lui	a3,0xaaaab
    80002410:	aaa6869b          	addiw	a3,a3,-1366 # ffffffffaaaaaaaa <absimm+0xfffffffeefd9cfda>
    80002414:	00c68463          	beq	a3,a2,8000241c <inst_194>
    80002418:	c0dfd06f          	j	80000024 <rvtest_error>

000000008000241c <inst_194>:
    8000241c:	00300513          	li	a0,3
    80002420:	00300593          	li	a1,3
    80002424:	40b5063b          	subw	a2,a0,a1
    80002428:	58c2b023          	sd	a2,1408(t0)
    8000242c:	00000693          	li	a3,0
    80002430:	00c68463          	beq	a3,a2,80002438 <inst_195>
    80002434:	bf1fd06f          	j	80000024 <rvtest_error>

0000000080002438 <inst_195>:
    80002438:	00300513          	li	a0,3
    8000243c:	555555b7          	lui	a1,0x55555
    80002440:	55558593          	addi	a1,a1,1365 # 55555555 <absimmsh+0x49a847a8>
    80002444:	00b59593          	slli	a1,a1,0xb
    80002448:	2aa58593          	addi	a1,a1,682
    8000244c:	00b59593          	slli	a1,a1,0xb
    80002450:	55558593          	addi	a1,a1,1365
    80002454:	00a59593          	slli	a1,a1,0xa
    80002458:	15558593          	addi	a1,a1,341
    8000245c:	40b5063b          	subw	a2,a0,a1
    80002460:	58c2b423          	sd	a2,1416(t0)
    80002464:	aaaab6b7          	lui	a3,0xaaaab
    80002468:	aae6869b          	addiw	a3,a3,-1362 # ffffffffaaaaaaae <absimm+0xfffffffeefd9cfde>
    8000246c:	00c68463          	beq	a3,a2,80002474 <inst_196>
    80002470:	bb5fd06f          	j	80000024 <rvtest_error>

0000000080002474 <inst_196>:
    80002474:	00300513          	li	a0,3
    80002478:	aaaab5b7          	lui	a1,0xaaaab
    8000247c:	aaa58593          	addi	a1,a1,-1366 # ffffffffaaaaaaaa <absimm+0xfffffffeefd9cfda>
    80002480:	00b59593          	slli	a1,a1,0xb
    80002484:	55558593          	addi	a1,a1,1365
    80002488:	00b59593          	slli	a1,a1,0xb
    8000248c:	2aa58593          	addi	a1,a1,682
    80002490:	00a59593          	slli	a1,a1,0xa
    80002494:	2aa58593          	addi	a1,a1,682
    80002498:	40b5063b          	subw	a2,a0,a1
    8000249c:	58c2b823          	sd	a2,1424(t0)
    800024a0:	555556b7          	lui	a3,0x55555
    800024a4:	5596869b          	addiw	a3,a3,1369 # 55555559 <absimmsh+0x49a847ac>
    800024a8:	00c68463          	beq	a3,a2,800024b0 <inst_197>
    800024ac:	b79fd06f          	j	80000024 <rvtest_error>

00000000800024b0 <inst_197>:
    800024b0:	00300513          	li	a0,3
    800024b4:	00500593          	li	a1,5
    800024b8:	40b5063b          	subw	a2,a0,a1
    800024bc:	58c2bc23          	sd	a2,1432(t0)
    800024c0:	ffe00693          	li	a3,-2
    800024c4:	00c68463          	beq	a3,a2,800024cc <inst_198>
    800024c8:	b5dfd06f          	j	80000024 <rvtest_error>

00000000800024cc <inst_198>:
    800024cc:	00300513          	li	a0,3
    800024d0:	333335b7          	lui	a1,0x33333
    800024d4:	33358593          	addi	a1,a1,819 # 33333333 <absimmsh+0x27862586>
    800024d8:	00b59593          	slli	a1,a1,0xb
    800024dc:	19958593          	addi	a1,a1,409
    800024e0:	00b59593          	slli	a1,a1,0xb
    800024e4:	4cc58593          	addi	a1,a1,1228
    800024e8:	00a59593          	slli	a1,a1,0xa
    800024ec:	33358593          	addi	a1,a1,819
    800024f0:	40b5063b          	subw	a2,a0,a1
    800024f4:	5ac2b023          	sd	a2,1440(t0)
    800024f8:	ccccd6b7          	lui	a3,0xccccd
    800024fc:	cd06869b          	addiw	a3,a3,-816 # ffffffffccccccd0 <absimm+0xffffffff11fbf200>
    80002500:	00c68463          	beq	a3,a2,80002508 <inst_199>
    80002504:	b21fd06f          	j	80000024 <rvtest_error>

0000000080002508 <inst_199>:
    80002508:	00300513          	li	a0,3
    8000250c:	666665b7          	lui	a1,0x66666
    80002510:	66658593          	addi	a1,a1,1638 # 66666666 <absimmsh+0x5ab958b9>
    80002514:	00b59593          	slli	a1,a1,0xb
    80002518:	33358593          	addi	a1,a1,819
    8000251c:	00b59593          	slli	a1,a1,0xb
    80002520:	19958593          	addi	a1,a1,409
    80002524:	00a59593          	slli	a1,a1,0xa
    80002528:	26658593          	addi	a1,a1,614
    8000252c:	40b5063b          	subw	a2,a0,a1
    80002530:	5ac2b423          	sd	a2,1448(t0)
    80002534:	9999a6b7          	lui	a3,0x9999a
    80002538:	99d6869b          	addiw	a3,a3,-1635 # ffffffff9999999d <absimm+0xfffffffedec8becd>
    8000253c:	00c68463          	beq	a3,a2,80002544 <inst_200>
    80002540:	ae5fd06f          	j	80000024 <rvtest_error>

0000000080002544 <inst_200>:
    80002544:	00300513          	li	a0,3
    80002548:	000005b7          	lui	a1,0x0
    8000254c:	fff58593          	addi	a1,a1,-1
    80002550:	00b59593          	slli	a1,a1,0xb
    80002554:	25758593          	addi	a1,a1,599
    80002558:	00b59593          	slli	a1,a1,0xb
    8000255c:	6c358593          	addi	a1,a1,1731
    80002560:	00a59593          	slli	a1,a1,0xa
    80002564:	0cd58593          	addi	a1,a1,205
    80002568:	40b5063b          	subw	a2,a0,a1
    8000256c:	5ac2b823          	sd	a2,1456(t0)
    80002570:	b504f6b7          	lui	a3,0xb504f
    80002574:	3366869b          	addiw	a3,a3,822 # ffffffffb504f336 <absimm+0xfffffffefa341866>
    80002578:	00c68463          	beq	a3,a2,80002580 <inst_201>
    8000257c:	aa9fd06f          	j	80000024 <rvtest_error>

0000000080002580 <inst_201>:
    80002580:	00300513          	li	a0,3
    80002584:	000005b7          	lui	a1,0x0
    80002588:	00058593          	mv	a1,a1
    8000258c:	00b59593          	slli	a1,a1,0xb
    80002590:	5a858593          	addi	a1,a1,1448 # 5a8 <offset+0x108>
    80002594:	00b59593          	slli	a1,a1,0xb
    80002598:	13c58593          	addi	a1,a1,316
    8000259c:	00a59593          	slli	a1,a1,0xa
    800025a0:	33358593          	addi	a1,a1,819
    800025a4:	40b5063b          	subw	a2,a0,a1
    800025a8:	5ac2bc23          	sd	a2,1464(t0)
    800025ac:	4afb16b7          	lui	a3,0x4afb1
    800025b0:	cd06869b          	addiw	a3,a3,-816 # 4afb0cd0 <absimmsh+0x3f4dff23>
    800025b4:	00c68463          	beq	a3,a2,800025bc <inst_202>
    800025b8:	a6dfd06f          	j	80000024 <rvtest_error>

00000000800025bc <inst_202>:
    800025bc:	00300513          	li	a0,3
    800025c0:	00200593          	li	a1,2
    800025c4:	40b5063b          	subw	a2,a0,a1
    800025c8:	5cc2b023          	sd	a2,1472(t0)
    800025cc:	00100693          	li	a3,1
    800025d0:	00c68463          	beq	a3,a2,800025d8 <inst_203>
    800025d4:	a51fd06f          	j	80000024 <rvtest_error>

00000000800025d8 <inst_203>:
    800025d8:	00300513          	li	a0,3
    800025dc:	555555b7          	lui	a1,0x55555
    800025e0:	55558593          	addi	a1,a1,1365 # 55555555 <absimmsh+0x49a847a8>
    800025e4:	00b59593          	slli	a1,a1,0xb
    800025e8:	2aa58593          	addi	a1,a1,682
    800025ec:	00b59593          	slli	a1,a1,0xb
    800025f0:	55558593          	addi	a1,a1,1365
    800025f4:	00a59593          	slli	a1,a1,0xa
    800025f8:	15458593          	addi	a1,a1,340
    800025fc:	40b5063b          	subw	a2,a0,a1
    80002600:	5cc2b423          	sd	a2,1480(t0)
    80002604:	aaaab6b7          	lui	a3,0xaaaab
    80002608:	aaf6869b          	addiw	a3,a3,-1361 # ffffffffaaaaaaaf <absimm+0xfffffffeefd9cfdf>
    8000260c:	00c68463          	beq	a3,a2,80002614 <inst_204>
    80002610:	a15fd06f          	j	80000024 <rvtest_error>

0000000080002614 <inst_204>:
    80002614:	00300513          	li	a0,3
    80002618:	00400593          	li	a1,4
    8000261c:	40b5063b          	subw	a2,a0,a1
    80002620:	5cc2b823          	sd	a2,1488(t0)
    80002624:	fff00693          	li	a3,-1
    80002628:	00c68463          	beq	a3,a2,80002630 <inst_205>
    8000262c:	9f9fd06f          	j	80000024 <rvtest_error>

0000000080002630 <inst_205>:
    80002630:	00300513          	li	a0,3
    80002634:	333335b7          	lui	a1,0x33333
    80002638:	33358593          	addi	a1,a1,819 # 33333333 <absimmsh+0x27862586>
    8000263c:	00b59593          	slli	a1,a1,0xb
    80002640:	19958593          	addi	a1,a1,409
    80002644:	00b59593          	slli	a1,a1,0xb
    80002648:	4cc58593          	addi	a1,a1,1228
    8000264c:	00a59593          	slli	a1,a1,0xa
    80002650:	33258593          	addi	a1,a1,818
    80002654:	40b5063b          	subw	a2,a0,a1
    80002658:	5cc2bc23          	sd	a2,1496(t0)
    8000265c:	ccccd6b7          	lui	a3,0xccccd
    80002660:	cd16869b          	addiw	a3,a3,-815 # ffffffffccccccd1 <absimm+0xffffffff11fbf201>
    80002664:	00c68463          	beq	a3,a2,8000266c <inst_206>
    80002668:	9bdfd06f          	j	80000024 <rvtest_error>

000000008000266c <inst_206>:
    8000266c:	00300513          	li	a0,3
    80002670:	666665b7          	lui	a1,0x66666
    80002674:	66658593          	addi	a1,a1,1638 # 66666666 <absimmsh+0x5ab958b9>
    80002678:	00b59593          	slli	a1,a1,0xb
    8000267c:	33358593          	addi	a1,a1,819
    80002680:	00b59593          	slli	a1,a1,0xb
    80002684:	19958593          	addi	a1,a1,409
    80002688:	00a59593          	slli	a1,a1,0xa
    8000268c:	26558593          	addi	a1,a1,613
    80002690:	40b5063b          	subw	a2,a0,a1
    80002694:	5ec2b023          	sd	a2,1504(t0)
    80002698:	9999a6b7          	lui	a3,0x9999a
    8000269c:	99e6869b          	addiw	a3,a3,-1634 # ffffffff9999999e <absimm+0xfffffffedec8bece>
    800026a0:	00c68463          	beq	a3,a2,800026a8 <inst_207>
    800026a4:	981fd06f          	j	80000024 <rvtest_error>

00000000800026a8 <inst_207>:
    800026a8:	00300513          	li	a0,3
    800026ac:	000005b7          	lui	a1,0x0
    800026b0:	00058593          	mv	a1,a1
    800026b4:	00b59593          	slli	a1,a1,0xb
    800026b8:	5a858593          	addi	a1,a1,1448 # 5a8 <offset+0x108>
    800026bc:	00b59593          	slli	a1,a1,0xb
    800026c0:	13c58593          	addi	a1,a1,316
    800026c4:	00a59593          	slli	a1,a1,0xa
    800026c8:	33258593          	addi	a1,a1,818
    800026cc:	40b5063b          	subw	a2,a0,a1
    800026d0:	5ec2b423          	sd	a2,1512(t0)
    800026d4:	4afb16b7          	lui	a3,0x4afb1
    800026d8:	cd16869b          	addiw	a3,a3,-815 # 4afb0cd1 <absimmsh+0x3f4dff24>
    800026dc:	00c68463          	beq	a3,a2,800026e4 <inst_208>
    800026e0:	945fd06f          	j	80000024 <rvtest_error>

00000000800026e4 <inst_208>:
    800026e4:	00300513          	li	a0,3
    800026e8:	555555b7          	lui	a1,0x55555
    800026ec:	55558593          	addi	a1,a1,1365 # 55555555 <absimmsh+0x49a847a8>
    800026f0:	00b59593          	slli	a1,a1,0xb
    800026f4:	2aa58593          	addi	a1,a1,682
    800026f8:	00b59593          	slli	a1,a1,0xb
    800026fc:	55558593          	addi	a1,a1,1365
    80002700:	00a59593          	slli	a1,a1,0xa
    80002704:	15658593          	addi	a1,a1,342
    80002708:	40b5063b          	subw	a2,a0,a1
    8000270c:	5ec2b823          	sd	a2,1520(t0)
    80002710:	aaaab6b7          	lui	a3,0xaaaab
    80002714:	aad6869b          	addiw	a3,a3,-1363 # ffffffffaaaaaaad <absimm+0xfffffffeefd9cfdd>
    80002718:	00c68463          	beq	a3,a2,80002720 <inst_209>
    8000271c:	909fd06f          	j	80000024 <rvtest_error>

0000000080002720 <inst_209>:
    80002720:	00300513          	li	a0,3
    80002724:	aaaab5b7          	lui	a1,0xaaaab
    80002728:	aaa58593          	addi	a1,a1,-1366 # ffffffffaaaaaaaa <absimm+0xfffffffeefd9cfda>
    8000272c:	00b59593          	slli	a1,a1,0xb
    80002730:	55558593          	addi	a1,a1,1365
    80002734:	00b59593          	slli	a1,a1,0xb
    80002738:	2aa58593          	addi	a1,a1,682
    8000273c:	00a59593          	slli	a1,a1,0xa
    80002740:	2ab58593          	addi	a1,a1,683
    80002744:	40b5063b          	subw	a2,a0,a1
    80002748:	5ec2bc23          	sd	a2,1528(t0)
    8000274c:	555556b7          	lui	a3,0x55555
    80002750:	5586869b          	addiw	a3,a3,1368 # 55555558 <absimmsh+0x49a847ab>
    80002754:	00c68463          	beq	a3,a2,8000275c <inst_210>
    80002758:	8cdfd06f          	j	80000024 <rvtest_error>

000000008000275c <inst_210>:
    8000275c:	00300513          	li	a0,3
    80002760:	00600593          	li	a1,6
    80002764:	40b5063b          	subw	a2,a0,a1
    80002768:	60c2b023          	sd	a2,1536(t0)
    8000276c:	ffd00693          	li	a3,-3
    80002770:	00c68463          	beq	a3,a2,80002778 <inst_211>
    80002774:	8b1fd06f          	j	80000024 <rvtest_error>

0000000080002778 <inst_211>:
    80002778:	00300513          	li	a0,3
    8000277c:	333335b7          	lui	a1,0x33333
    80002780:	33358593          	addi	a1,a1,819 # 33333333 <absimmsh+0x27862586>
    80002784:	00b59593          	slli	a1,a1,0xb
    80002788:	19958593          	addi	a1,a1,409
    8000278c:	00b59593          	slli	a1,a1,0xb
    80002790:	4cc58593          	addi	a1,a1,1228
    80002794:	00a59593          	slli	a1,a1,0xa
    80002798:	33458593          	addi	a1,a1,820
    8000279c:	40b5063b          	subw	a2,a0,a1
    800027a0:	60c2b423          	sd	a2,1544(t0)
    800027a4:	ccccd6b7          	lui	a3,0xccccd
    800027a8:	ccf6869b          	addiw	a3,a3,-817 # ffffffffcccccccf <absimm+0xffffffff11fbf1ff>
    800027ac:	00c68463          	beq	a3,a2,800027b4 <inst_212>
    800027b0:	875fd06f          	j	80000024 <rvtest_error>

00000000800027b4 <inst_212>:
    800027b4:	00300513          	li	a0,3
    800027b8:	666665b7          	lui	a1,0x66666
    800027bc:	66658593          	addi	a1,a1,1638 # 66666666 <absimmsh+0x5ab958b9>
    800027c0:	00b59593          	slli	a1,a1,0xb
    800027c4:	33358593          	addi	a1,a1,819
    800027c8:	00b59593          	slli	a1,a1,0xb
    800027cc:	19958593          	addi	a1,a1,409
    800027d0:	00a59593          	slli	a1,a1,0xa
    800027d4:	26758593          	addi	a1,a1,615
    800027d8:	40b5063b          	subw	a2,a0,a1
    800027dc:	60c2b823          	sd	a2,1552(t0)
    800027e0:	9999a6b7          	lui	a3,0x9999a
    800027e4:	99c6869b          	addiw	a3,a3,-1636 # ffffffff9999999c <absimm+0xfffffffedec8becc>
    800027e8:	00c68463          	beq	a3,a2,800027f0 <inst_213>
    800027ec:	839fd06f          	j	80000024 <rvtest_error>

00000000800027f0 <inst_213>:
    800027f0:	00300513          	li	a0,3
    800027f4:	000005b7          	lui	a1,0x0
    800027f8:	fff58593          	addi	a1,a1,-1
    800027fc:	00b59593          	slli	a1,a1,0xb
    80002800:	25758593          	addi	a1,a1,599
    80002804:	00b59593          	slli	a1,a1,0xb
    80002808:	6c358593          	addi	a1,a1,1731
    8000280c:	00a59593          	slli	a1,a1,0xa
    80002810:	0ce58593          	addi	a1,a1,206
    80002814:	40b5063b          	subw	a2,a0,a1
    80002818:	60c2bc23          	sd	a2,1560(t0)
    8000281c:	b504f6b7          	lui	a3,0xb504f
    80002820:	3356869b          	addiw	a3,a3,821 # ffffffffb504f335 <absimm+0xfffffffefa341865>
    80002824:	00c68463          	beq	a3,a2,8000282c <inst_214>
    80002828:	ffcfd06f          	j	80000024 <rvtest_error>

000000008000282c <inst_214>:
    8000282c:	00300513          	li	a0,3
    80002830:	000005b7          	lui	a1,0x0
    80002834:	00058593          	mv	a1,a1
    80002838:	00b59593          	slli	a1,a1,0xb
    8000283c:	5a858593          	addi	a1,a1,1448 # 5a8 <offset+0x108>
    80002840:	00b59593          	slli	a1,a1,0xb
    80002844:	13c58593          	addi	a1,a1,316
    80002848:	00a59593          	slli	a1,a1,0xa
    8000284c:	33458593          	addi	a1,a1,820
    80002850:	40b5063b          	subw	a2,a0,a1
    80002854:	62c2b023          	sd	a2,1568(t0)
    80002858:	4afb16b7          	lui	a3,0x4afb1
    8000285c:	ccf6869b          	addiw	a3,a3,-817 # 4afb0ccf <absimmsh+0x3f4dff22>
    80002860:	00c68463          	beq	a3,a2,80002868 <inst_215>
    80002864:	fc0fd06f          	j	80000024 <rvtest_error>

0000000080002868 <inst_215>:
    80002868:	55555537          	lui	a0,0x55555
    8000286c:	55550513          	addi	a0,a0,1365 # 55555555 <absimmsh+0x49a847a8>
    80002870:	00b51513          	slli	a0,a0,0xb
    80002874:	2aa50513          	addi	a0,a0,682
    80002878:	00b51513          	slli	a0,a0,0xb
    8000287c:	55550513          	addi	a0,a0,1365
    80002880:	00a51513          	slli	a0,a0,0xa
    80002884:	15550513          	addi	a0,a0,341
    80002888:	00300593          	li	a1,3
    8000288c:	40b5063b          	subw	a2,a0,a1
    80002890:	62c2b423          	sd	a2,1576(t0)
    80002894:	555556b7          	lui	a3,0x55555
    80002898:	5526869b          	addiw	a3,a3,1362 # 55555552 <absimmsh+0x49a847a5>
    8000289c:	00c68463          	beq	a3,a2,800028a4 <inst_216>
    800028a0:	f84fd06f          	j	80000024 <rvtest_error>

00000000800028a4 <inst_216>:
    800028a4:	55555537          	lui	a0,0x55555
    800028a8:	55550513          	addi	a0,a0,1365 # 55555555 <absimmsh+0x49a847a8>
    800028ac:	00b51513          	slli	a0,a0,0xb
    800028b0:	2aa50513          	addi	a0,a0,682
    800028b4:	00b51513          	slli	a0,a0,0xb
    800028b8:	55550513          	addi	a0,a0,1365
    800028bc:	00a51513          	slli	a0,a0,0xa
    800028c0:	15550513          	addi	a0,a0,341
    800028c4:	555555b7          	lui	a1,0x55555
    800028c8:	55558593          	addi	a1,a1,1365 # 55555555 <absimmsh+0x49a847a8>
    800028cc:	00b59593          	slli	a1,a1,0xb
    800028d0:	2aa58593          	addi	a1,a1,682
    800028d4:	00b59593          	slli	a1,a1,0xb
    800028d8:	55558593          	addi	a1,a1,1365
    800028dc:	00a59593          	slli	a1,a1,0xa
    800028e0:	15558593          	addi	a1,a1,341
    800028e4:	40b5063b          	subw	a2,a0,a1
    800028e8:	62c2b823          	sd	a2,1584(t0)
    800028ec:	00000693          	li	a3,0
    800028f0:	00c68463          	beq	a3,a2,800028f8 <inst_217>
    800028f4:	f30fd06f          	j	80000024 <rvtest_error>

00000000800028f8 <inst_217>:
    800028f8:	55555537          	lui	a0,0x55555
    800028fc:	55550513          	addi	a0,a0,1365 # 55555555 <absimmsh+0x49a847a8>
    80002900:	00b51513          	slli	a0,a0,0xb
    80002904:	2aa50513          	addi	a0,a0,682
    80002908:	00b51513          	slli	a0,a0,0xb
    8000290c:	55550513          	addi	a0,a0,1365
    80002910:	00a51513          	slli	a0,a0,0xa
    80002914:	15550513          	addi	a0,a0,341
    80002918:	aaaab5b7          	lui	a1,0xaaaab
    8000291c:	aaa58593          	addi	a1,a1,-1366 # ffffffffaaaaaaaa <absimm+0xfffffffeefd9cfda>
    80002920:	00b59593          	slli	a1,a1,0xb
    80002924:	55558593          	addi	a1,a1,1365
    80002928:	00b59593          	slli	a1,a1,0xb
    8000292c:	2aa58593          	addi	a1,a1,682
    80002930:	00a59593          	slli	a1,a1,0xa
    80002934:	2aa58593          	addi	a1,a1,682
    80002938:	40b5063b          	subw	a2,a0,a1
    8000293c:	62c2bc23          	sd	a2,1592(t0)
    80002940:	aaaab6b7          	lui	a3,0xaaaab
    80002944:	aab6869b          	addiw	a3,a3,-1365 # ffffffffaaaaaaab <absimm+0xfffffffeefd9cfdb>
    80002948:	00c68463          	beq	a3,a2,80002950 <inst_218>
    8000294c:	ed8fd06f          	j	80000024 <rvtest_error>

0000000080002950 <inst_218>:
    80002950:	55555537          	lui	a0,0x55555
    80002954:	55550513          	addi	a0,a0,1365 # 55555555 <absimmsh+0x49a847a8>
    80002958:	00b51513          	slli	a0,a0,0xb
    8000295c:	2aa50513          	addi	a0,a0,682
    80002960:	00b51513          	slli	a0,a0,0xb
    80002964:	55550513          	addi	a0,a0,1365
    80002968:	00a51513          	slli	a0,a0,0xa
    8000296c:	15550513          	addi	a0,a0,341
    80002970:	00500593          	li	a1,5
    80002974:	40b5063b          	subw	a2,a0,a1
    80002978:	64c2b023          	sd	a2,1600(t0)
    8000297c:	555556b7          	lui	a3,0x55555
    80002980:	5506869b          	addiw	a3,a3,1360 # 55555550 <absimmsh+0x49a847a3>
    80002984:	00c68463          	beq	a3,a2,8000298c <inst_219>
    80002988:	e9cfd06f          	j	80000024 <rvtest_error>

000000008000298c <inst_219>:
    8000298c:	55555537          	lui	a0,0x55555
    80002990:	55550513          	addi	a0,a0,1365 # 55555555 <absimmsh+0x49a847a8>
    80002994:	00b51513          	slli	a0,a0,0xb
    80002998:	2aa50513          	addi	a0,a0,682
    8000299c:	00b51513          	slli	a0,a0,0xb
    800029a0:	55550513          	addi	a0,a0,1365
    800029a4:	00a51513          	slli	a0,a0,0xa
    800029a8:	15550513          	addi	a0,a0,341
    800029ac:	333335b7          	lui	a1,0x33333
    800029b0:	33358593          	addi	a1,a1,819 # 33333333 <absimmsh+0x27862586>
    800029b4:	00b59593          	slli	a1,a1,0xb
    800029b8:	19958593          	addi	a1,a1,409
    800029bc:	00b59593          	slli	a1,a1,0xb
    800029c0:	4cc58593          	addi	a1,a1,1228
    800029c4:	00a59593          	slli	a1,a1,0xa
    800029c8:	33358593          	addi	a1,a1,819
    800029cc:	40b5063b          	subw	a2,a0,a1
    800029d0:	64c2b423          	sd	a2,1608(t0)
    800029d4:	222226b7          	lui	a3,0x22222
    800029d8:	2226869b          	addiw	a3,a3,546 # 22222222 <absimmsh+0x16751475>
    800029dc:	00c68463          	beq	a3,a2,800029e4 <inst_220>
    800029e0:	e44fd06f          	j	80000024 <rvtest_error>

00000000800029e4 <inst_220>:
    800029e4:	55555537          	lui	a0,0x55555
    800029e8:	55550513          	addi	a0,a0,1365 # 55555555 <absimmsh+0x49a847a8>
    800029ec:	00b51513          	slli	a0,a0,0xb
    800029f0:	2aa50513          	addi	a0,a0,682
    800029f4:	00b51513          	slli	a0,a0,0xb
    800029f8:	55550513          	addi	a0,a0,1365
    800029fc:	00a51513          	slli	a0,a0,0xa
    80002a00:	15550513          	addi	a0,a0,341
    80002a04:	666665b7          	lui	a1,0x66666
    80002a08:	66658593          	addi	a1,a1,1638 # 66666666 <absimmsh+0x5ab958b9>
    80002a0c:	00b59593          	slli	a1,a1,0xb
    80002a10:	33358593          	addi	a1,a1,819
    80002a14:	00b59593          	slli	a1,a1,0xb
    80002a18:	19958593          	addi	a1,a1,409
    80002a1c:	00a59593          	slli	a1,a1,0xa
    80002a20:	26658593          	addi	a1,a1,614
    80002a24:	40b5063b          	subw	a2,a0,a1
    80002a28:	64c2b823          	sd	a2,1616(t0)
    80002a2c:	eeeef6b7          	lui	a3,0xeeeef
    80002a30:	eef6869b          	addiw	a3,a3,-273 # ffffffffeeeeeeef <absimm+0xffffffff341e141f>
    80002a34:	00c68463          	beq	a3,a2,80002a3c <inst_221>
    80002a38:	decfd06f          	j	80000024 <rvtest_error>

0000000080002a3c <inst_221>:
    80002a3c:	55555537          	lui	a0,0x55555
    80002a40:	55550513          	addi	a0,a0,1365 # 55555555 <absimmsh+0x49a847a8>
    80002a44:	00b51513          	slli	a0,a0,0xb
    80002a48:	2aa50513          	addi	a0,a0,682
    80002a4c:	00b51513          	slli	a0,a0,0xb
    80002a50:	55550513          	addi	a0,a0,1365
    80002a54:	00a51513          	slli	a0,a0,0xa
    80002a58:	15550513          	addi	a0,a0,341
    80002a5c:	000005b7          	lui	a1,0x0
    80002a60:	fff58593          	addi	a1,a1,-1
    80002a64:	00b59593          	slli	a1,a1,0xb
    80002a68:	25758593          	addi	a1,a1,599
    80002a6c:	00b59593          	slli	a1,a1,0xb
    80002a70:	6c358593          	addi	a1,a1,1731
    80002a74:	00a59593          	slli	a1,a1,0xa
    80002a78:	0cd58593          	addi	a1,a1,205
    80002a7c:	40b5063b          	subw	a2,a0,a1
    80002a80:	64c2bc23          	sd	a2,1624(t0)
    80002a84:	0a5a56b7          	lui	a3,0xa5a5
    80002a88:	8886869b          	addiw	a3,a3,-1912 # a5a4888 <offset+0xa5a43e8>
    80002a8c:	00c68463          	beq	a3,a2,80002a94 <inst_222>
    80002a90:	d94fd06f          	j	80000024 <rvtest_error>

0000000080002a94 <inst_222>:
    80002a94:	55555537          	lui	a0,0x55555
    80002a98:	55550513          	addi	a0,a0,1365 # 55555555 <absimmsh+0x49a847a8>
    80002a9c:	00b51513          	slli	a0,a0,0xb
    80002aa0:	2aa50513          	addi	a0,a0,682
    80002aa4:	00b51513          	slli	a0,a0,0xb
    80002aa8:	55550513          	addi	a0,a0,1365
    80002aac:	00a51513          	slli	a0,a0,0xa
    80002ab0:	15550513          	addi	a0,a0,341
    80002ab4:	000005b7          	lui	a1,0x0
    80002ab8:	00058593          	mv	a1,a1
    80002abc:	00b59593          	slli	a1,a1,0xb
    80002ac0:	5a858593          	addi	a1,a1,1448 # 5a8 <offset+0x108>
    80002ac4:	00b59593          	slli	a1,a1,0xb
    80002ac8:	13c58593          	addi	a1,a1,316
    80002acc:	00a59593          	slli	a1,a1,0xa
    80002ad0:	33358593          	addi	a1,a1,819
    80002ad4:	40b5063b          	subw	a2,a0,a1
    80002ad8:	66c2b023          	sd	a2,1632(t0)
    80002adc:	a05066b7          	lui	a3,0xa0506
    80002ae0:	2226869b          	addiw	a3,a3,546 # ffffffffa0506222 <absimm+0xfffffffee57f8752>
    80002ae4:	00c68463          	beq	a3,a2,80002aec <inst_223>
    80002ae8:	d3cfd06f          	j	80000024 <rvtest_error>

0000000080002aec <inst_223>:
    80002aec:	55555537          	lui	a0,0x55555
    80002af0:	55550513          	addi	a0,a0,1365 # 55555555 <absimmsh+0x49a847a8>
    80002af4:	00b51513          	slli	a0,a0,0xb
    80002af8:	2aa50513          	addi	a0,a0,682
    80002afc:	00b51513          	slli	a0,a0,0xb
    80002b00:	55550513          	addi	a0,a0,1365
    80002b04:	00a51513          	slli	a0,a0,0xa
    80002b08:	15550513          	addi	a0,a0,341
    80002b0c:	00200593          	li	a1,2
    80002b10:	40b5063b          	subw	a2,a0,a1
    80002b14:	66c2b423          	sd	a2,1640(t0)
    80002b18:	555556b7          	lui	a3,0x55555
    80002b1c:	5536869b          	addiw	a3,a3,1363 # 55555553 <absimmsh+0x49a847a6>
    80002b20:	00c68463          	beq	a3,a2,80002b28 <inst_224>
    80002b24:	d00fd06f          	j	80000024 <rvtest_error>

0000000080002b28 <inst_224>:
    80002b28:	55555537          	lui	a0,0x55555
    80002b2c:	55550513          	addi	a0,a0,1365 # 55555555 <absimmsh+0x49a847a8>
    80002b30:	00b51513          	slli	a0,a0,0xb
    80002b34:	2aa50513          	addi	a0,a0,682
    80002b38:	00b51513          	slli	a0,a0,0xb
    80002b3c:	55550513          	addi	a0,a0,1365
    80002b40:	00a51513          	slli	a0,a0,0xa
    80002b44:	15550513          	addi	a0,a0,341
    80002b48:	555555b7          	lui	a1,0x55555
    80002b4c:	55558593          	addi	a1,a1,1365 # 55555555 <absimmsh+0x49a847a8>
    80002b50:	00b59593          	slli	a1,a1,0xb
    80002b54:	2aa58593          	addi	a1,a1,682
    80002b58:	00b59593          	slli	a1,a1,0xb
    80002b5c:	55558593          	addi	a1,a1,1365
    80002b60:	00a59593          	slli	a1,a1,0xa
    80002b64:	15458593          	addi	a1,a1,340
    80002b68:	40b5063b          	subw	a2,a0,a1
    80002b6c:	66c2b823          	sd	a2,1648(t0)
    80002b70:	00100693          	li	a3,1
    80002b74:	00c68463          	beq	a3,a2,80002b7c <inst_225>
    80002b78:	cacfd06f          	j	80000024 <rvtest_error>

0000000080002b7c <inst_225>:
    80002b7c:	55555537          	lui	a0,0x55555
    80002b80:	55550513          	addi	a0,a0,1365 # 55555555 <absimmsh+0x49a847a8>
    80002b84:	00b51513          	slli	a0,a0,0xb
    80002b88:	2aa50513          	addi	a0,a0,682
    80002b8c:	00b51513          	slli	a0,a0,0xb
    80002b90:	55550513          	addi	a0,a0,1365
    80002b94:	00a51513          	slli	a0,a0,0xa
    80002b98:	15550513          	addi	a0,a0,341
    80002b9c:	00000593          	li	a1,0
    80002ba0:	40b5063b          	subw	a2,a0,a1
    80002ba4:	66c2bc23          	sd	a2,1656(t0)
    80002ba8:	555556b7          	lui	a3,0x55555
    80002bac:	5556869b          	addiw	a3,a3,1365 # 55555555 <absimmsh+0x49a847a8>
    80002bb0:	00c68463          	beq	a3,a2,80002bb8 <inst_226>
    80002bb4:	c70fd06f          	j	80000024 <rvtest_error>

0000000080002bb8 <inst_226>:
    80002bb8:	55555537          	lui	a0,0x55555
    80002bbc:	55550513          	addi	a0,a0,1365 # 55555555 <absimmsh+0x49a847a8>
    80002bc0:	00b51513          	slli	a0,a0,0xb
    80002bc4:	2aa50513          	addi	a0,a0,682
    80002bc8:	00b51513          	slli	a0,a0,0xb
    80002bcc:	55550513          	addi	a0,a0,1365
    80002bd0:	00a51513          	slli	a0,a0,0xa
    80002bd4:	15550513          	addi	a0,a0,341
    80002bd8:	00400593          	li	a1,4
    80002bdc:	40b5063b          	subw	a2,a0,a1
    80002be0:	68c2b023          	sd	a2,1664(t0)
    80002be4:	555556b7          	lui	a3,0x55555
    80002be8:	5516869b          	addiw	a3,a3,1361 # 55555551 <absimmsh+0x49a847a4>
    80002bec:	00c68463          	beq	a3,a2,80002bf4 <inst_227>
    80002bf0:	c34fd06f          	j	80000024 <rvtest_error>

0000000080002bf4 <inst_227>:
    80002bf4:	55555537          	lui	a0,0x55555
    80002bf8:	55550513          	addi	a0,a0,1365 # 55555555 <absimmsh+0x49a847a8>
    80002bfc:	00b51513          	slli	a0,a0,0xb
    80002c00:	2aa50513          	addi	a0,a0,682
    80002c04:	00b51513          	slli	a0,a0,0xb
    80002c08:	55550513          	addi	a0,a0,1365
    80002c0c:	00a51513          	slli	a0,a0,0xa
    80002c10:	15550513          	addi	a0,a0,341
    80002c14:	333335b7          	lui	a1,0x33333
    80002c18:	33358593          	addi	a1,a1,819 # 33333333 <absimmsh+0x27862586>
    80002c1c:	00b59593          	slli	a1,a1,0xb
    80002c20:	19958593          	addi	a1,a1,409
    80002c24:	00b59593          	slli	a1,a1,0xb
    80002c28:	4cc58593          	addi	a1,a1,1228
    80002c2c:	00a59593          	slli	a1,a1,0xa
    80002c30:	33258593          	addi	a1,a1,818
    80002c34:	40b5063b          	subw	a2,a0,a1
    80002c38:	68c2b423          	sd	a2,1672(t0)
    80002c3c:	222226b7          	lui	a3,0x22222
    80002c40:	2236869b          	addiw	a3,a3,547 # 22222223 <absimmsh+0x16751476>
    80002c44:	00c68463          	beq	a3,a2,80002c4c <inst_228>
    80002c48:	bdcfd06f          	j	80000024 <rvtest_error>

0000000080002c4c <inst_228>:
    80002c4c:	55555537          	lui	a0,0x55555
    80002c50:	55550513          	addi	a0,a0,1365 # 55555555 <absimmsh+0x49a847a8>
    80002c54:	00b51513          	slli	a0,a0,0xb
    80002c58:	2aa50513          	addi	a0,a0,682
    80002c5c:	00b51513          	slli	a0,a0,0xb
    80002c60:	55550513          	addi	a0,a0,1365
    80002c64:	00a51513          	slli	a0,a0,0xa
    80002c68:	15550513          	addi	a0,a0,341
    80002c6c:	666665b7          	lui	a1,0x66666
    80002c70:	66658593          	addi	a1,a1,1638 # 66666666 <absimmsh+0x5ab958b9>
    80002c74:	00b59593          	slli	a1,a1,0xb
    80002c78:	33358593          	addi	a1,a1,819
    80002c7c:	00b59593          	slli	a1,a1,0xb
    80002c80:	19958593          	addi	a1,a1,409
    80002c84:	00a59593          	slli	a1,a1,0xa
    80002c88:	26558593          	addi	a1,a1,613
    80002c8c:	40b5063b          	subw	a2,a0,a1
    80002c90:	68c2b823          	sd	a2,1680(t0)
    80002c94:	eeeef6b7          	lui	a3,0xeeeef
    80002c98:	ef06869b          	addiw	a3,a3,-272 # ffffffffeeeeeef0 <absimm+0xffffffff341e1420>
    80002c9c:	00c68463          	beq	a3,a2,80002ca4 <inst_229>
    80002ca0:	b84fd06f          	j	80000024 <rvtest_error>

0000000080002ca4 <inst_229>:
    80002ca4:	55555537          	lui	a0,0x55555
    80002ca8:	55550513          	addi	a0,a0,1365 # 55555555 <absimmsh+0x49a847a8>
    80002cac:	00b51513          	slli	a0,a0,0xb
    80002cb0:	2aa50513          	addi	a0,a0,682
    80002cb4:	00b51513          	slli	a0,a0,0xb
    80002cb8:	55550513          	addi	a0,a0,1365
    80002cbc:	00a51513          	slli	a0,a0,0xa
    80002cc0:	15550513          	addi	a0,a0,341
    80002cc4:	000005b7          	lui	a1,0x0
    80002cc8:	00058593          	mv	a1,a1
    80002ccc:	00b59593          	slli	a1,a1,0xb
    80002cd0:	5a858593          	addi	a1,a1,1448 # 5a8 <offset+0x108>
    80002cd4:	00b59593          	slli	a1,a1,0xb
    80002cd8:	13c58593          	addi	a1,a1,316
    80002cdc:	00a59593          	slli	a1,a1,0xa
    80002ce0:	33258593          	addi	a1,a1,818
    80002ce4:	40b5063b          	subw	a2,a0,a1
    80002ce8:	68c2bc23          	sd	a2,1688(t0)
    80002cec:	a05066b7          	lui	a3,0xa0506
    80002cf0:	2236869b          	addiw	a3,a3,547 # ffffffffa0506223 <absimm+0xfffffffee57f8753>
    80002cf4:	00c68463          	beq	a3,a2,80002cfc <inst_230>
    80002cf8:	b2cfd06f          	j	80000024 <rvtest_error>

0000000080002cfc <inst_230>:
    80002cfc:	55555537          	lui	a0,0x55555
    80002d00:	55550513          	addi	a0,a0,1365 # 55555555 <absimmsh+0x49a847a8>
    80002d04:	00b51513          	slli	a0,a0,0xb
    80002d08:	2aa50513          	addi	a0,a0,682
    80002d0c:	00b51513          	slli	a0,a0,0xb
    80002d10:	55550513          	addi	a0,a0,1365
    80002d14:	00a51513          	slli	a0,a0,0xa
    80002d18:	15550513          	addi	a0,a0,341
    80002d1c:	555555b7          	lui	a1,0x55555
    80002d20:	55558593          	addi	a1,a1,1365 # 55555555 <absimmsh+0x49a847a8>
    80002d24:	00b59593          	slli	a1,a1,0xb
    80002d28:	2aa58593          	addi	a1,a1,682
    80002d2c:	00b59593          	slli	a1,a1,0xb
    80002d30:	55558593          	addi	a1,a1,1365
    80002d34:	00a59593          	slli	a1,a1,0xa
    80002d38:	15658593          	addi	a1,a1,342
    80002d3c:	40b5063b          	subw	a2,a0,a1
    80002d40:	6ac2b023          	sd	a2,1696(t0)
    80002d44:	fff00693          	li	a3,-1
    80002d48:	00c68463          	beq	a3,a2,80002d50 <inst_231>
    80002d4c:	ad8fd06f          	j	80000024 <rvtest_error>

0000000080002d50 <inst_231>:
    80002d50:	55555537          	lui	a0,0x55555
    80002d54:	55550513          	addi	a0,a0,1365 # 55555555 <absimmsh+0x49a847a8>
    80002d58:	00b51513          	slli	a0,a0,0xb
    80002d5c:	2aa50513          	addi	a0,a0,682
    80002d60:	00b51513          	slli	a0,a0,0xb
    80002d64:	55550513          	addi	a0,a0,1365
    80002d68:	00a51513          	slli	a0,a0,0xa
    80002d6c:	15550513          	addi	a0,a0,341
    80002d70:	aaaab5b7          	lui	a1,0xaaaab
    80002d74:	aaa58593          	addi	a1,a1,-1366 # ffffffffaaaaaaaa <absimm+0xfffffffeefd9cfda>
    80002d78:	00b59593          	slli	a1,a1,0xb
    80002d7c:	55558593          	addi	a1,a1,1365
    80002d80:	00b59593          	slli	a1,a1,0xb
    80002d84:	2aa58593          	addi	a1,a1,682
    80002d88:	00a59593          	slli	a1,a1,0xa
    80002d8c:	2ab58593          	addi	a1,a1,683
    80002d90:	40b5063b          	subw	a2,a0,a1
    80002d94:	6ac2b423          	sd	a2,1704(t0)
    80002d98:	aaaab6b7          	lui	a3,0xaaaab
    80002d9c:	aaa6869b          	addiw	a3,a3,-1366 # ffffffffaaaaaaaa <absimm+0xfffffffeefd9cfda>
    80002da0:	00c68463          	beq	a3,a2,80002da8 <inst_232>
    80002da4:	a80fd06f          	j	80000024 <rvtest_error>

0000000080002da8 <inst_232>:
    80002da8:	55555537          	lui	a0,0x55555
    80002dac:	55550513          	addi	a0,a0,1365 # 55555555 <absimmsh+0x49a847a8>
    80002db0:	00b51513          	slli	a0,a0,0xb
    80002db4:	2aa50513          	addi	a0,a0,682
    80002db8:	00b51513          	slli	a0,a0,0xb
    80002dbc:	55550513          	addi	a0,a0,1365
    80002dc0:	00a51513          	slli	a0,a0,0xa
    80002dc4:	15550513          	addi	a0,a0,341
    80002dc8:	00600593          	li	a1,6
    80002dcc:	40b5063b          	subw	a2,a0,a1
    80002dd0:	6ac2b823          	sd	a2,1712(t0)
    80002dd4:	555556b7          	lui	a3,0x55555
    80002dd8:	54f6869b          	addiw	a3,a3,1359 # 5555554f <absimmsh+0x49a847a2>
    80002ddc:	00c68463          	beq	a3,a2,80002de4 <inst_233>
    80002de0:	a44fd06f          	j	80000024 <rvtest_error>

0000000080002de4 <inst_233>:
    80002de4:	55555537          	lui	a0,0x55555
    80002de8:	55550513          	addi	a0,a0,1365 # 55555555 <absimmsh+0x49a847a8>
    80002dec:	00b51513          	slli	a0,a0,0xb
    80002df0:	2aa50513          	addi	a0,a0,682
    80002df4:	00b51513          	slli	a0,a0,0xb
    80002df8:	55550513          	addi	a0,a0,1365
    80002dfc:	00a51513          	slli	a0,a0,0xa
    80002e00:	15550513          	addi	a0,a0,341
    80002e04:	333335b7          	lui	a1,0x33333
    80002e08:	33358593          	addi	a1,a1,819 # 33333333 <absimmsh+0x27862586>
    80002e0c:	00b59593          	slli	a1,a1,0xb
    80002e10:	19958593          	addi	a1,a1,409
    80002e14:	00b59593          	slli	a1,a1,0xb
    80002e18:	4cc58593          	addi	a1,a1,1228
    80002e1c:	00a59593          	slli	a1,a1,0xa
    80002e20:	33458593          	addi	a1,a1,820
    80002e24:	40b5063b          	subw	a2,a0,a1
    80002e28:	6ac2bc23          	sd	a2,1720(t0)
    80002e2c:	222226b7          	lui	a3,0x22222
    80002e30:	2216869b          	addiw	a3,a3,545 # 22222221 <absimmsh+0x16751474>
    80002e34:	00c68463          	beq	a3,a2,80002e3c <inst_234>
    80002e38:	9ecfd06f          	j	80000024 <rvtest_error>

0000000080002e3c <inst_234>:
    80002e3c:	55555537          	lui	a0,0x55555
    80002e40:	55550513          	addi	a0,a0,1365 # 55555555 <absimmsh+0x49a847a8>
    80002e44:	00b51513          	slli	a0,a0,0xb
    80002e48:	2aa50513          	addi	a0,a0,682
    80002e4c:	00b51513          	slli	a0,a0,0xb
    80002e50:	55550513          	addi	a0,a0,1365
    80002e54:	00a51513          	slli	a0,a0,0xa
    80002e58:	15550513          	addi	a0,a0,341
    80002e5c:	666665b7          	lui	a1,0x66666
    80002e60:	66658593          	addi	a1,a1,1638 # 66666666 <absimmsh+0x5ab958b9>
    80002e64:	00b59593          	slli	a1,a1,0xb
    80002e68:	33358593          	addi	a1,a1,819
    80002e6c:	00b59593          	slli	a1,a1,0xb
    80002e70:	19958593          	addi	a1,a1,409
    80002e74:	00a59593          	slli	a1,a1,0xa
    80002e78:	26758593          	addi	a1,a1,615
    80002e7c:	40b5063b          	subw	a2,a0,a1
    80002e80:	6cc2b023          	sd	a2,1728(t0)
    80002e84:	eeeef6b7          	lui	a3,0xeeeef
    80002e88:	eee6869b          	addiw	a3,a3,-274 # ffffffffeeeeeeee <absimm+0xffffffff341e141e>
    80002e8c:	00c68463          	beq	a3,a2,80002e94 <inst_235>
    80002e90:	994fd06f          	j	80000024 <rvtest_error>

0000000080002e94 <inst_235>:
    80002e94:	55555537          	lui	a0,0x55555
    80002e98:	55550513          	addi	a0,a0,1365 # 55555555 <absimmsh+0x49a847a8>
    80002e9c:	00b51513          	slli	a0,a0,0xb
    80002ea0:	2aa50513          	addi	a0,a0,682
    80002ea4:	00b51513          	slli	a0,a0,0xb
    80002ea8:	55550513          	addi	a0,a0,1365
    80002eac:	00a51513          	slli	a0,a0,0xa
    80002eb0:	15550513          	addi	a0,a0,341
    80002eb4:	000005b7          	lui	a1,0x0
    80002eb8:	fff58593          	addi	a1,a1,-1
    80002ebc:	00b59593          	slli	a1,a1,0xb
    80002ec0:	25758593          	addi	a1,a1,599
    80002ec4:	00b59593          	slli	a1,a1,0xb
    80002ec8:	6c358593          	addi	a1,a1,1731
    80002ecc:	00a59593          	slli	a1,a1,0xa
    80002ed0:	0ce58593          	addi	a1,a1,206
    80002ed4:	40b5063b          	subw	a2,a0,a1
    80002ed8:	6cc2b423          	sd	a2,1736(t0)
    80002edc:	0a5a56b7          	lui	a3,0xa5a5
    80002ee0:	8876869b          	addiw	a3,a3,-1913 # a5a4887 <offset+0xa5a43e7>
    80002ee4:	00c68463          	beq	a3,a2,80002eec <inst_236>
    80002ee8:	93cfd06f          	j	80000024 <rvtest_error>

0000000080002eec <inst_236>:
    80002eec:	55555537          	lui	a0,0x55555
    80002ef0:	55550513          	addi	a0,a0,1365 # 55555555 <absimmsh+0x49a847a8>
    80002ef4:	00b51513          	slli	a0,a0,0xb
    80002ef8:	2aa50513          	addi	a0,a0,682
    80002efc:	00b51513          	slli	a0,a0,0xb
    80002f00:	55550513          	addi	a0,a0,1365
    80002f04:	00a51513          	slli	a0,a0,0xa
    80002f08:	15550513          	addi	a0,a0,341
    80002f0c:	000005b7          	lui	a1,0x0
    80002f10:	00058593          	mv	a1,a1
    80002f14:	00b59593          	slli	a1,a1,0xb
    80002f18:	5a858593          	addi	a1,a1,1448 # 5a8 <offset+0x108>
    80002f1c:	00b59593          	slli	a1,a1,0xb
    80002f20:	13c58593          	addi	a1,a1,316
    80002f24:	00a59593          	slli	a1,a1,0xa
    80002f28:	33458593          	addi	a1,a1,820
    80002f2c:	40b5063b          	subw	a2,a0,a1
    80002f30:	6cc2b823          	sd	a2,1744(t0)
    80002f34:	a05066b7          	lui	a3,0xa0506
    80002f38:	2216869b          	addiw	a3,a3,545 # ffffffffa0506221 <absimm+0xfffffffee57f8751>
    80002f3c:	00c68463          	beq	a3,a2,80002f44 <inst_237>
    80002f40:	8e4fd06f          	j	80000024 <rvtest_error>

0000000080002f44 <inst_237>:
    80002f44:	aaaab537          	lui	a0,0xaaaab
    80002f48:	aaa50513          	addi	a0,a0,-1366 # ffffffffaaaaaaaa <absimm+0xfffffffeefd9cfda>
    80002f4c:	00b51513          	slli	a0,a0,0xb
    80002f50:	55550513          	addi	a0,a0,1365
    80002f54:	00b51513          	slli	a0,a0,0xb
    80002f58:	2aa50513          	addi	a0,a0,682
    80002f5c:	00a51513          	slli	a0,a0,0xa
    80002f60:	2aa50513          	addi	a0,a0,682
    80002f64:	00300593          	li	a1,3
    80002f68:	40b5063b          	subw	a2,a0,a1
    80002f6c:	6cc2bc23          	sd	a2,1752(t0)
    80002f70:	aaaab6b7          	lui	a3,0xaaaab
    80002f74:	aa76869b          	addiw	a3,a3,-1369 # ffffffffaaaaaaa7 <absimm+0xfffffffeefd9cfd7>
    80002f78:	00c68463          	beq	a3,a2,80002f80 <inst_238>
    80002f7c:	8a8fd06f          	j	80000024 <rvtest_error>

0000000080002f80 <inst_238>:
    80002f80:	aaaab537          	lui	a0,0xaaaab
    80002f84:	aaa50513          	addi	a0,a0,-1366 # ffffffffaaaaaaaa <absimm+0xfffffffeefd9cfda>
    80002f88:	00b51513          	slli	a0,a0,0xb
    80002f8c:	55550513          	addi	a0,a0,1365
    80002f90:	00b51513          	slli	a0,a0,0xb
    80002f94:	2aa50513          	addi	a0,a0,682
    80002f98:	00a51513          	slli	a0,a0,0xa
    80002f9c:	2aa50513          	addi	a0,a0,682
    80002fa0:	555555b7          	lui	a1,0x55555
    80002fa4:	55558593          	addi	a1,a1,1365 # 55555555 <absimmsh+0x49a847a8>
    80002fa8:	00b59593          	slli	a1,a1,0xb
    80002fac:	2aa58593          	addi	a1,a1,682
    80002fb0:	00b59593          	slli	a1,a1,0xb
    80002fb4:	55558593          	addi	a1,a1,1365
    80002fb8:	00a59593          	slli	a1,a1,0xa
    80002fbc:	15558593          	addi	a1,a1,341
    80002fc0:	40b5063b          	subw	a2,a0,a1
    80002fc4:	6ec2b023          	sd	a2,1760(t0)
    80002fc8:	555556b7          	lui	a3,0x55555
    80002fcc:	5556869b          	addiw	a3,a3,1365 # 55555555 <absimmsh+0x49a847a8>
    80002fd0:	00c68463          	beq	a3,a2,80002fd8 <inst_239>
    80002fd4:	850fd06f          	j	80000024 <rvtest_error>

0000000080002fd8 <inst_239>:
    80002fd8:	aaaab537          	lui	a0,0xaaaab
    80002fdc:	aaa50513          	addi	a0,a0,-1366 # ffffffffaaaaaaaa <absimm+0xfffffffeefd9cfda>
    80002fe0:	00b51513          	slli	a0,a0,0xb
    80002fe4:	55550513          	addi	a0,a0,1365
    80002fe8:	00b51513          	slli	a0,a0,0xb
    80002fec:	2aa50513          	addi	a0,a0,682
    80002ff0:	00a51513          	slli	a0,a0,0xa
    80002ff4:	2aa50513          	addi	a0,a0,682
    80002ff8:	aaaab5b7          	lui	a1,0xaaaab
    80002ffc:	aaa58593          	addi	a1,a1,-1366 # ffffffffaaaaaaaa <absimm+0xfffffffeefd9cfda>
    80003000:	00b59593          	slli	a1,a1,0xb
    80003004:	55558593          	addi	a1,a1,1365
    80003008:	00b59593          	slli	a1,a1,0xb
    8000300c:	2aa58593          	addi	a1,a1,682
    80003010:	00a59593          	slli	a1,a1,0xa
    80003014:	2aa58593          	addi	a1,a1,682
    80003018:	40b5063b          	subw	a2,a0,a1
    8000301c:	6ec2b423          	sd	a2,1768(t0)
    80003020:	00000693          	li	a3,0
    80003024:	00c68463          	beq	a3,a2,8000302c <inst_240>
    80003028:	ffdfc06f          	j	80000024 <rvtest_error>

000000008000302c <inst_240>:
    8000302c:	aaaab537          	lui	a0,0xaaaab
    80003030:	aaa50513          	addi	a0,a0,-1366 # ffffffffaaaaaaaa <absimm+0xfffffffeefd9cfda>
    80003034:	00b51513          	slli	a0,a0,0xb
    80003038:	55550513          	addi	a0,a0,1365
    8000303c:	00b51513          	slli	a0,a0,0xb
    80003040:	2aa50513          	addi	a0,a0,682
    80003044:	00a51513          	slli	a0,a0,0xa
    80003048:	2aa50513          	addi	a0,a0,682
    8000304c:	00500593          	li	a1,5
    80003050:	40b5063b          	subw	a2,a0,a1
    80003054:	6ec2b823          	sd	a2,1776(t0)
    80003058:	aaaab6b7          	lui	a3,0xaaaab
    8000305c:	aa56869b          	addiw	a3,a3,-1371 # ffffffffaaaaaaa5 <absimm+0xfffffffeefd9cfd5>
    80003060:	00c68463          	beq	a3,a2,80003068 <inst_241>
    80003064:	fc1fc06f          	j	80000024 <rvtest_error>

0000000080003068 <inst_241>:
    80003068:	aaaab537          	lui	a0,0xaaaab
    8000306c:	aaa50513          	addi	a0,a0,-1366 # ffffffffaaaaaaaa <absimm+0xfffffffeefd9cfda>
    80003070:	00b51513          	slli	a0,a0,0xb
    80003074:	55550513          	addi	a0,a0,1365
    80003078:	00b51513          	slli	a0,a0,0xb
    8000307c:	2aa50513          	addi	a0,a0,682
    80003080:	00a51513          	slli	a0,a0,0xa
    80003084:	2aa50513          	addi	a0,a0,682
    80003088:	333335b7          	lui	a1,0x33333
    8000308c:	33358593          	addi	a1,a1,819 # 33333333 <absimmsh+0x27862586>
    80003090:	00b59593          	slli	a1,a1,0xb
    80003094:	19958593          	addi	a1,a1,409
    80003098:	00b59593          	slli	a1,a1,0xb
    8000309c:	4cc58593          	addi	a1,a1,1228
    800030a0:	00a59593          	slli	a1,a1,0xa
    800030a4:	33358593          	addi	a1,a1,819
    800030a8:	40b5063b          	subw	a2,a0,a1
    800030ac:	6ec2bc23          	sd	a2,1784(t0)
    800030b0:	777776b7          	lui	a3,0x77777
    800030b4:	7776869b          	addiw	a3,a3,1911 # 77777777 <absimmsh+0x6bca69ca>
    800030b8:	00c68463          	beq	a3,a2,800030c0 <inst_242>
    800030bc:	f69fc06f          	j	80000024 <rvtest_error>

00000000800030c0 <inst_242>:
    800030c0:	aaaab537          	lui	a0,0xaaaab
    800030c4:	aaa50513          	addi	a0,a0,-1366 # ffffffffaaaaaaaa <absimm+0xfffffffeefd9cfda>
    800030c8:	00b51513          	slli	a0,a0,0xb
    800030cc:	55550513          	addi	a0,a0,1365
    800030d0:	00b51513          	slli	a0,a0,0xb
    800030d4:	2aa50513          	addi	a0,a0,682
    800030d8:	00a51513          	slli	a0,a0,0xa
    800030dc:	2aa50513          	addi	a0,a0,682
    800030e0:	666665b7          	lui	a1,0x66666
    800030e4:	66658593          	addi	a1,a1,1638 # 66666666 <absimmsh+0x5ab958b9>
    800030e8:	00b59593          	slli	a1,a1,0xb
    800030ec:	33358593          	addi	a1,a1,819
    800030f0:	00b59593          	slli	a1,a1,0xb
    800030f4:	19958593          	addi	a1,a1,409
    800030f8:	00a59593          	slli	a1,a1,0xa
    800030fc:	26658593          	addi	a1,a1,614
    80003100:	40b5063b          	subw	a2,a0,a1
    80003104:	70c2b023          	sd	a2,1792(t0)
    80003108:	444446b7          	lui	a3,0x44444
    8000310c:	4446869b          	addiw	a3,a3,1092 # 44444444 <absimmsh+0x38973697>
    80003110:	00c68463          	beq	a3,a2,80003118 <inst_243>
    80003114:	f11fc06f          	j	80000024 <rvtest_error>

0000000080003118 <inst_243>:
    80003118:	aaaab537          	lui	a0,0xaaaab
    8000311c:	aaa50513          	addi	a0,a0,-1366 # ffffffffaaaaaaaa <absimm+0xfffffffeefd9cfda>
    80003120:	00b51513          	slli	a0,a0,0xb
    80003124:	55550513          	addi	a0,a0,1365
    80003128:	00b51513          	slli	a0,a0,0xb
    8000312c:	2aa50513          	addi	a0,a0,682
    80003130:	00a51513          	slli	a0,a0,0xa
    80003134:	2aa50513          	addi	a0,a0,682
    80003138:	000005b7          	lui	a1,0x0
    8000313c:	fff58593          	addi	a1,a1,-1
    80003140:	00b59593          	slli	a1,a1,0xb
    80003144:	25758593          	addi	a1,a1,599
    80003148:	00b59593          	slli	a1,a1,0xb
    8000314c:	6c358593          	addi	a1,a1,1731
    80003150:	00a59593          	slli	a1,a1,0xa
    80003154:	0cd58593          	addi	a1,a1,205
    80003158:	40b5063b          	subw	a2,a0,a1
    8000315c:	70c2b423          	sd	a2,1800(t0)
    80003160:	5fafa6b7          	lui	a3,0x5fafa
    80003164:	ddd6869b          	addiw	a3,a3,-547 # 5faf9ddd <absimmsh+0x54029030>
    80003168:	00c68463          	beq	a3,a2,80003170 <inst_244>
    8000316c:	eb9fc06f          	j	80000024 <rvtest_error>

0000000080003170 <inst_244>:
    80003170:	aaaab537          	lui	a0,0xaaaab
    80003174:	aaa50513          	addi	a0,a0,-1366 # ffffffffaaaaaaaa <absimm+0xfffffffeefd9cfda>
    80003178:	00b51513          	slli	a0,a0,0xb
    8000317c:	55550513          	addi	a0,a0,1365
    80003180:	00b51513          	slli	a0,a0,0xb
    80003184:	2aa50513          	addi	a0,a0,682
    80003188:	00a51513          	slli	a0,a0,0xa
    8000318c:	2aa50513          	addi	a0,a0,682
    80003190:	000005b7          	lui	a1,0x0
    80003194:	00058593          	mv	a1,a1
    80003198:	00b59593          	slli	a1,a1,0xb
    8000319c:	5a858593          	addi	a1,a1,1448 # 5a8 <offset+0x108>
    800031a0:	00b59593          	slli	a1,a1,0xb
    800031a4:	13c58593          	addi	a1,a1,316
    800031a8:	00a59593          	slli	a1,a1,0xa
    800031ac:	33358593          	addi	a1,a1,819
    800031b0:	40b5063b          	subw	a2,a0,a1
    800031b4:	70c2b823          	sd	a2,1808(t0)
    800031b8:	f5a5b6b7          	lui	a3,0xf5a5b
    800031bc:	7776869b          	addiw	a3,a3,1911 # fffffffff5a5b777 <absimm+0xffffffff3ad4dca7>
    800031c0:	00c68463          	beq	a3,a2,800031c8 <inst_245>
    800031c4:	e61fc06f          	j	80000024 <rvtest_error>

00000000800031c8 <inst_245>:
    800031c8:	aaaab537          	lui	a0,0xaaaab
    800031cc:	aaa50513          	addi	a0,a0,-1366 # ffffffffaaaaaaaa <absimm+0xfffffffeefd9cfda>
    800031d0:	00b51513          	slli	a0,a0,0xb
    800031d4:	55550513          	addi	a0,a0,1365
    800031d8:	00b51513          	slli	a0,a0,0xb
    800031dc:	2aa50513          	addi	a0,a0,682
    800031e0:	00a51513          	slli	a0,a0,0xa
    800031e4:	2aa50513          	addi	a0,a0,682
    800031e8:	00200593          	li	a1,2
    800031ec:	40b5063b          	subw	a2,a0,a1
    800031f0:	70c2bc23          	sd	a2,1816(t0)
    800031f4:	aaaab6b7          	lui	a3,0xaaaab
    800031f8:	aa86869b          	addiw	a3,a3,-1368 # ffffffffaaaaaaa8 <absimm+0xfffffffeefd9cfd8>
    800031fc:	00c68463          	beq	a3,a2,80003204 <inst_246>
    80003200:	e25fc06f          	j	80000024 <rvtest_error>

0000000080003204 <inst_246>:
    80003204:	aaaab537          	lui	a0,0xaaaab
    80003208:	aaa50513          	addi	a0,a0,-1366 # ffffffffaaaaaaaa <absimm+0xfffffffeefd9cfda>
    8000320c:	00b51513          	slli	a0,a0,0xb
    80003210:	55550513          	addi	a0,a0,1365
    80003214:	00b51513          	slli	a0,a0,0xb
    80003218:	2aa50513          	addi	a0,a0,682
    8000321c:	00a51513          	slli	a0,a0,0xa
    80003220:	2aa50513          	addi	a0,a0,682
    80003224:	555555b7          	lui	a1,0x55555
    80003228:	55558593          	addi	a1,a1,1365 # 55555555 <absimmsh+0x49a847a8>
    8000322c:	00b59593          	slli	a1,a1,0xb
    80003230:	2aa58593          	addi	a1,a1,682
    80003234:	00b59593          	slli	a1,a1,0xb
    80003238:	55558593          	addi	a1,a1,1365
    8000323c:	00a59593          	slli	a1,a1,0xa
    80003240:	15458593          	addi	a1,a1,340
    80003244:	40b5063b          	subw	a2,a0,a1
    80003248:	72c2b023          	sd	a2,1824(t0)
    8000324c:	555556b7          	lui	a3,0x55555
    80003250:	5566869b          	addiw	a3,a3,1366 # 55555556 <absimmsh+0x49a847a9>
    80003254:	00c68463          	beq	a3,a2,8000325c <inst_247>
    80003258:	dcdfc06f          	j	80000024 <rvtest_error>

000000008000325c <inst_247>:
    8000325c:	aaaab537          	lui	a0,0xaaaab
    80003260:	aaa50513          	addi	a0,a0,-1366 # ffffffffaaaaaaaa <absimm+0xfffffffeefd9cfda>
    80003264:	00b51513          	slli	a0,a0,0xb
    80003268:	55550513          	addi	a0,a0,1365
    8000326c:	00b51513          	slli	a0,a0,0xb
    80003270:	2aa50513          	addi	a0,a0,682
    80003274:	00a51513          	slli	a0,a0,0xa
    80003278:	2aa50513          	addi	a0,a0,682
    8000327c:	00400593          	li	a1,4
    80003280:	40b5063b          	subw	a2,a0,a1
    80003284:	72c2b423          	sd	a2,1832(t0)
    80003288:	aaaab6b7          	lui	a3,0xaaaab
    8000328c:	aa66869b          	addiw	a3,a3,-1370 # ffffffffaaaaaaa6 <absimm+0xfffffffeefd9cfd6>
    80003290:	00c68463          	beq	a3,a2,80003298 <inst_248>
    80003294:	d91fc06f          	j	80000024 <rvtest_error>

0000000080003298 <inst_248>:
    80003298:	aaaab537          	lui	a0,0xaaaab
    8000329c:	aaa50513          	addi	a0,a0,-1366 # ffffffffaaaaaaaa <absimm+0xfffffffeefd9cfda>
    800032a0:	00b51513          	slli	a0,a0,0xb
    800032a4:	55550513          	addi	a0,a0,1365
    800032a8:	00b51513          	slli	a0,a0,0xb
    800032ac:	2aa50513          	addi	a0,a0,682
    800032b0:	00a51513          	slli	a0,a0,0xa
    800032b4:	2aa50513          	addi	a0,a0,682
    800032b8:	333335b7          	lui	a1,0x33333
    800032bc:	33358593          	addi	a1,a1,819 # 33333333 <absimmsh+0x27862586>
    800032c0:	00b59593          	slli	a1,a1,0xb
    800032c4:	19958593          	addi	a1,a1,409
    800032c8:	00b59593          	slli	a1,a1,0xb
    800032cc:	4cc58593          	addi	a1,a1,1228
    800032d0:	00a59593          	slli	a1,a1,0xa
    800032d4:	33258593          	addi	a1,a1,818
    800032d8:	40b5063b          	subw	a2,a0,a1
    800032dc:	72c2b823          	sd	a2,1840(t0)
    800032e0:	777776b7          	lui	a3,0x77777
    800032e4:	7786869b          	addiw	a3,a3,1912 # 77777778 <absimmsh+0x6bca69cb>
    800032e8:	00c68463          	beq	a3,a2,800032f0 <inst_249>
    800032ec:	d39fc06f          	j	80000024 <rvtest_error>

00000000800032f0 <inst_249>:
    800032f0:	aaaab537          	lui	a0,0xaaaab
    800032f4:	aaa50513          	addi	a0,a0,-1366 # ffffffffaaaaaaaa <absimm+0xfffffffeefd9cfda>
    800032f8:	00b51513          	slli	a0,a0,0xb
    800032fc:	55550513          	addi	a0,a0,1365
    80003300:	00b51513          	slli	a0,a0,0xb
    80003304:	2aa50513          	addi	a0,a0,682
    80003308:	00a51513          	slli	a0,a0,0xa
    8000330c:	2aa50513          	addi	a0,a0,682
    80003310:	666665b7          	lui	a1,0x66666
    80003314:	66658593          	addi	a1,a1,1638 # 66666666 <absimmsh+0x5ab958b9>
    80003318:	00b59593          	slli	a1,a1,0xb
    8000331c:	33358593          	addi	a1,a1,819
    80003320:	00b59593          	slli	a1,a1,0xb
    80003324:	19958593          	addi	a1,a1,409
    80003328:	00a59593          	slli	a1,a1,0xa
    8000332c:	26558593          	addi	a1,a1,613
    80003330:	40b5063b          	subw	a2,a0,a1
    80003334:	72c2bc23          	sd	a2,1848(t0)
    80003338:	444446b7          	lui	a3,0x44444
    8000333c:	4456869b          	addiw	a3,a3,1093 # 44444445 <absimmsh+0x38973698>
    80003340:	00c68463          	beq	a3,a2,80003348 <inst_250>
    80003344:	ce1fc06f          	j	80000024 <rvtest_error>

0000000080003348 <inst_250>:
    80003348:	aaaab537          	lui	a0,0xaaaab
    8000334c:	aaa50513          	addi	a0,a0,-1366 # ffffffffaaaaaaaa <absimm+0xfffffffeefd9cfda>
    80003350:	00b51513          	slli	a0,a0,0xb
    80003354:	55550513          	addi	a0,a0,1365
    80003358:	00b51513          	slli	a0,a0,0xb
    8000335c:	2aa50513          	addi	a0,a0,682
    80003360:	00a51513          	slli	a0,a0,0xa
    80003364:	2aa50513          	addi	a0,a0,682
    80003368:	000005b7          	lui	a1,0x0
    8000336c:	00058593          	mv	a1,a1
    80003370:	00b59593          	slli	a1,a1,0xb
    80003374:	5a858593          	addi	a1,a1,1448 # 5a8 <offset+0x108>
    80003378:	00b59593          	slli	a1,a1,0xb
    8000337c:	13c58593          	addi	a1,a1,316
    80003380:	00a59593          	slli	a1,a1,0xa
    80003384:	33258593          	addi	a1,a1,818
    80003388:	40b5063b          	subw	a2,a0,a1
    8000338c:	74c2b023          	sd	a2,1856(t0)
    80003390:	f5a5b6b7          	lui	a3,0xf5a5b
    80003394:	7786869b          	addiw	a3,a3,1912 # fffffffff5a5b778 <absimm+0xffffffff3ad4dca8>
    80003398:	00c68463          	beq	a3,a2,800033a0 <inst_251>
    8000339c:	c89fc06f          	j	80000024 <rvtest_error>

00000000800033a0 <inst_251>:
    800033a0:	aaaab537          	lui	a0,0xaaaab
    800033a4:	aaa50513          	addi	a0,a0,-1366 # ffffffffaaaaaaaa <absimm+0xfffffffeefd9cfda>
    800033a8:	00b51513          	slli	a0,a0,0xb
    800033ac:	55550513          	addi	a0,a0,1365
    800033b0:	00b51513          	slli	a0,a0,0xb
    800033b4:	2aa50513          	addi	a0,a0,682
    800033b8:	00a51513          	slli	a0,a0,0xa
    800033bc:	2aa50513          	addi	a0,a0,682
    800033c0:	555555b7          	lui	a1,0x55555
    800033c4:	55558593          	addi	a1,a1,1365 # 55555555 <absimmsh+0x49a847a8>
    800033c8:	00b59593          	slli	a1,a1,0xb
    800033cc:	2aa58593          	addi	a1,a1,682
    800033d0:	00b59593          	slli	a1,a1,0xb
    800033d4:	55558593          	addi	a1,a1,1365
    800033d8:	00a59593          	slli	a1,a1,0xa
    800033dc:	15658593          	addi	a1,a1,342
    800033e0:	40b5063b          	subw	a2,a0,a1
    800033e4:	74c2b423          	sd	a2,1864(t0)
    800033e8:	555556b7          	lui	a3,0x55555
    800033ec:	5546869b          	addiw	a3,a3,1364 # 55555554 <absimmsh+0x49a847a7>
    800033f0:	00c68463          	beq	a3,a2,800033f8 <inst_252>
    800033f4:	c31fc06f          	j	80000024 <rvtest_error>

00000000800033f8 <inst_252>:
    800033f8:	aaaab537          	lui	a0,0xaaaab
    800033fc:	aaa50513          	addi	a0,a0,-1366 # ffffffffaaaaaaaa <absimm+0xfffffffeefd9cfda>
    80003400:	00b51513          	slli	a0,a0,0xb
    80003404:	55550513          	addi	a0,a0,1365
    80003408:	00b51513          	slli	a0,a0,0xb
    8000340c:	2aa50513          	addi	a0,a0,682
    80003410:	00a51513          	slli	a0,a0,0xa
    80003414:	2aa50513          	addi	a0,a0,682
    80003418:	aaaab5b7          	lui	a1,0xaaaab
    8000341c:	aaa58593          	addi	a1,a1,-1366 # ffffffffaaaaaaaa <absimm+0xfffffffeefd9cfda>
    80003420:	00b59593          	slli	a1,a1,0xb
    80003424:	55558593          	addi	a1,a1,1365
    80003428:	00b59593          	slli	a1,a1,0xb
    8000342c:	2aa58593          	addi	a1,a1,682
    80003430:	00a59593          	slli	a1,a1,0xa
    80003434:	2ab58593          	addi	a1,a1,683
    80003438:	40b5063b          	subw	a2,a0,a1
    8000343c:	74c2b823          	sd	a2,1872(t0)
    80003440:	fff00693          	li	a3,-1
    80003444:	00c68463          	beq	a3,a2,8000344c <inst_253>
    80003448:	bddfc06f          	j	80000024 <rvtest_error>

000000008000344c <inst_253>:
    8000344c:	aaaab537          	lui	a0,0xaaaab
    80003450:	aaa50513          	addi	a0,a0,-1366 # ffffffffaaaaaaaa <absimm+0xfffffffeefd9cfda>
    80003454:	00b51513          	slli	a0,a0,0xb
    80003458:	55550513          	addi	a0,a0,1365
    8000345c:	00b51513          	slli	a0,a0,0xb
    80003460:	2aa50513          	addi	a0,a0,682
    80003464:	00a51513          	slli	a0,a0,0xa
    80003468:	2aa50513          	addi	a0,a0,682
    8000346c:	00600593          	li	a1,6
    80003470:	40b5063b          	subw	a2,a0,a1
    80003474:	74c2bc23          	sd	a2,1880(t0)
    80003478:	aaaab6b7          	lui	a3,0xaaaab
    8000347c:	aa46869b          	addiw	a3,a3,-1372 # ffffffffaaaaaaa4 <absimm+0xfffffffeefd9cfd4>
    80003480:	00c68463          	beq	a3,a2,80003488 <inst_254>
    80003484:	ba1fc06f          	j	80000024 <rvtest_error>

0000000080003488 <inst_254>:
    80003488:	aaaab537          	lui	a0,0xaaaab
    8000348c:	aaa50513          	addi	a0,a0,-1366 # ffffffffaaaaaaaa <absimm+0xfffffffeefd9cfda>
    80003490:	00b51513          	slli	a0,a0,0xb
    80003494:	55550513          	addi	a0,a0,1365
    80003498:	00b51513          	slli	a0,a0,0xb
    8000349c:	2aa50513          	addi	a0,a0,682
    800034a0:	00a51513          	slli	a0,a0,0xa
    800034a4:	2aa50513          	addi	a0,a0,682
    800034a8:	333335b7          	lui	a1,0x33333
    800034ac:	33358593          	addi	a1,a1,819 # 33333333 <absimmsh+0x27862586>
    800034b0:	00b59593          	slli	a1,a1,0xb
    800034b4:	19958593          	addi	a1,a1,409
    800034b8:	00b59593          	slli	a1,a1,0xb
    800034bc:	4cc58593          	addi	a1,a1,1228
    800034c0:	00a59593          	slli	a1,a1,0xa
    800034c4:	33458593          	addi	a1,a1,820
    800034c8:	40b5063b          	subw	a2,a0,a1
    800034cc:	76c2b023          	sd	a2,1888(t0)
    800034d0:	777776b7          	lui	a3,0x77777
    800034d4:	7766869b          	addiw	a3,a3,1910 # 77777776 <absimmsh+0x6bca69c9>
    800034d8:	00c68463          	beq	a3,a2,800034e0 <inst_255>
    800034dc:	b49fc06f          	j	80000024 <rvtest_error>

00000000800034e0 <inst_255>:
    800034e0:	aaaab537          	lui	a0,0xaaaab
    800034e4:	aaa50513          	addi	a0,a0,-1366 # ffffffffaaaaaaaa <absimm+0xfffffffeefd9cfda>
    800034e8:	00b51513          	slli	a0,a0,0xb
    800034ec:	55550513          	addi	a0,a0,1365
    800034f0:	00b51513          	slli	a0,a0,0xb
    800034f4:	2aa50513          	addi	a0,a0,682
    800034f8:	00a51513          	slli	a0,a0,0xa
    800034fc:	2aa50513          	addi	a0,a0,682
    80003500:	666665b7          	lui	a1,0x66666
    80003504:	66658593          	addi	a1,a1,1638 # 66666666 <absimmsh+0x5ab958b9>
    80003508:	00b59593          	slli	a1,a1,0xb
    8000350c:	33358593          	addi	a1,a1,819
    80003510:	00b59593          	slli	a1,a1,0xb
    80003514:	19958593          	addi	a1,a1,409
    80003518:	00a59593          	slli	a1,a1,0xa
    8000351c:	26758593          	addi	a1,a1,615
    80003520:	40b5063b          	subw	a2,a0,a1
    80003524:	76c2b423          	sd	a2,1896(t0)
    80003528:	444446b7          	lui	a3,0x44444
    8000352c:	4436869b          	addiw	a3,a3,1091 # 44444443 <absimmsh+0x38973696>
    80003530:	00c68463          	beq	a3,a2,80003538 <inst_256>
    80003534:	af1fc06f          	j	80000024 <rvtest_error>

0000000080003538 <inst_256>:
    80003538:	aaaab537          	lui	a0,0xaaaab
    8000353c:	aaa50513          	addi	a0,a0,-1366 # ffffffffaaaaaaaa <absimm+0xfffffffeefd9cfda>
    80003540:	00b51513          	slli	a0,a0,0xb
    80003544:	55550513          	addi	a0,a0,1365
    80003548:	00b51513          	slli	a0,a0,0xb
    8000354c:	2aa50513          	addi	a0,a0,682
    80003550:	00a51513          	slli	a0,a0,0xa
    80003554:	2aa50513          	addi	a0,a0,682
    80003558:	000005b7          	lui	a1,0x0
    8000355c:	fff58593          	addi	a1,a1,-1
    80003560:	00b59593          	slli	a1,a1,0xb
    80003564:	25758593          	addi	a1,a1,599
    80003568:	00b59593          	slli	a1,a1,0xb
    8000356c:	6c358593          	addi	a1,a1,1731
    80003570:	00a59593          	slli	a1,a1,0xa
    80003574:	0ce58593          	addi	a1,a1,206
    80003578:	40b5063b          	subw	a2,a0,a1
    8000357c:	76c2b823          	sd	a2,1904(t0)
    80003580:	5fafa6b7          	lui	a3,0x5fafa
    80003584:	ddc6869b          	addiw	a3,a3,-548 # 5faf9ddc <absimmsh+0x5402902f>
    80003588:	00c68463          	beq	a3,a2,80003590 <inst_257>
    8000358c:	a99fc06f          	j	80000024 <rvtest_error>

0000000080003590 <inst_257>:
    80003590:	aaaab537          	lui	a0,0xaaaab
    80003594:	aaa50513          	addi	a0,a0,-1366 # ffffffffaaaaaaaa <absimm+0xfffffffeefd9cfda>
    80003598:	00b51513          	slli	a0,a0,0xb
    8000359c:	55550513          	addi	a0,a0,1365
    800035a0:	00b51513          	slli	a0,a0,0xb
    800035a4:	2aa50513          	addi	a0,a0,682
    800035a8:	00a51513          	slli	a0,a0,0xa
    800035ac:	2aa50513          	addi	a0,a0,682
    800035b0:	000005b7          	lui	a1,0x0
    800035b4:	00058593          	mv	a1,a1
    800035b8:	00b59593          	slli	a1,a1,0xb
    800035bc:	5a858593          	addi	a1,a1,1448 # 5a8 <offset+0x108>
    800035c0:	00b59593          	slli	a1,a1,0xb
    800035c4:	13c58593          	addi	a1,a1,316
    800035c8:	00a59593          	slli	a1,a1,0xa
    800035cc:	33458593          	addi	a1,a1,820
    800035d0:	40b5063b          	subw	a2,a0,a1
    800035d4:	76c2bc23          	sd	a2,1912(t0)
    800035d8:	f5a5b6b7          	lui	a3,0xf5a5b
    800035dc:	7766869b          	addiw	a3,a3,1910 # fffffffff5a5b776 <absimm+0xffffffff3ad4dca6>
    800035e0:	00c68463          	beq	a3,a2,800035e8 <inst_258>
    800035e4:	a41fc06f          	j	80000024 <rvtest_error>

00000000800035e8 <inst_258>:
    800035e8:	00500513          	li	a0,5
    800035ec:	00300593          	li	a1,3
    800035f0:	40b5063b          	subw	a2,a0,a1
    800035f4:	78c2b023          	sd	a2,1920(t0)
    800035f8:	00200693          	li	a3,2
    800035fc:	00c68463          	beq	a3,a2,80003604 <inst_259>
    80003600:	a25fc06f          	j	80000024 <rvtest_error>

0000000080003604 <inst_259>:
    80003604:	00500513          	li	a0,5
    80003608:	555555b7          	lui	a1,0x55555
    8000360c:	55558593          	addi	a1,a1,1365 # 55555555 <absimmsh+0x49a847a8>
    80003610:	00b59593          	slli	a1,a1,0xb
    80003614:	2aa58593          	addi	a1,a1,682
    80003618:	00b59593          	slli	a1,a1,0xb
    8000361c:	55558593          	addi	a1,a1,1365
    80003620:	00a59593          	slli	a1,a1,0xa
    80003624:	15558593          	addi	a1,a1,341
    80003628:	40b5063b          	subw	a2,a0,a1
    8000362c:	78c2b423          	sd	a2,1928(t0)
    80003630:	aaaab6b7          	lui	a3,0xaaaab
    80003634:	ab06869b          	addiw	a3,a3,-1360 # ffffffffaaaaaab0 <absimm+0xfffffffeefd9cfe0>
    80003638:	00c68463          	beq	a3,a2,80003640 <inst_260>
    8000363c:	9e9fc06f          	j	80000024 <rvtest_error>

0000000080003640 <inst_260>:
    80003640:	00500513          	li	a0,5
    80003644:	aaaab5b7          	lui	a1,0xaaaab
    80003648:	aaa58593          	addi	a1,a1,-1366 # ffffffffaaaaaaaa <absimm+0xfffffffeefd9cfda>
    8000364c:	00b59593          	slli	a1,a1,0xb
    80003650:	55558593          	addi	a1,a1,1365
    80003654:	00b59593          	slli	a1,a1,0xb
    80003658:	2aa58593          	addi	a1,a1,682
    8000365c:	00a59593          	slli	a1,a1,0xa
    80003660:	2aa58593          	addi	a1,a1,682
    80003664:	40b5063b          	subw	a2,a0,a1
    80003668:	78c2b823          	sd	a2,1936(t0)
    8000366c:	555556b7          	lui	a3,0x55555
    80003670:	55b6869b          	addiw	a3,a3,1371 # 5555555b <absimmsh+0x49a847ae>
    80003674:	00c68463          	beq	a3,a2,8000367c <inst_261>
    80003678:	9adfc06f          	j	80000024 <rvtest_error>

000000008000367c <inst_261>:
    8000367c:	00500513          	li	a0,5
    80003680:	00500593          	li	a1,5
    80003684:	40b5063b          	subw	a2,a0,a1
    80003688:	78c2bc23          	sd	a2,1944(t0)
    8000368c:	00000693          	li	a3,0
    80003690:	00c68463          	beq	a3,a2,80003698 <inst_262>
    80003694:	991fc06f          	j	80000024 <rvtest_error>

0000000080003698 <inst_262>:
    80003698:	00500513          	li	a0,5
    8000369c:	333335b7          	lui	a1,0x33333
    800036a0:	33358593          	addi	a1,a1,819 # 33333333 <absimmsh+0x27862586>
    800036a4:	00b59593          	slli	a1,a1,0xb
    800036a8:	19958593          	addi	a1,a1,409
    800036ac:	00b59593          	slli	a1,a1,0xb
    800036b0:	4cc58593          	addi	a1,a1,1228
    800036b4:	00a59593          	slli	a1,a1,0xa
    800036b8:	33358593          	addi	a1,a1,819
    800036bc:	40b5063b          	subw	a2,a0,a1
    800036c0:	7ac2b023          	sd	a2,1952(t0)
    800036c4:	ccccd6b7          	lui	a3,0xccccd
    800036c8:	cd26869b          	addiw	a3,a3,-814 # ffffffffccccccd2 <absimm+0xffffffff11fbf202>
    800036cc:	00c68463          	beq	a3,a2,800036d4 <inst_263>
    800036d0:	955fc06f          	j	80000024 <rvtest_error>

00000000800036d4 <inst_263>:
    800036d4:	00500513          	li	a0,5
    800036d8:	666665b7          	lui	a1,0x66666
    800036dc:	66658593          	addi	a1,a1,1638 # 66666666 <absimmsh+0x5ab958b9>
    800036e0:	00b59593          	slli	a1,a1,0xb
    800036e4:	33358593          	addi	a1,a1,819
    800036e8:	00b59593          	slli	a1,a1,0xb
    800036ec:	19958593          	addi	a1,a1,409
    800036f0:	00a59593          	slli	a1,a1,0xa
    800036f4:	26658593          	addi	a1,a1,614
    800036f8:	40b5063b          	subw	a2,a0,a1
    800036fc:	7ac2b423          	sd	a2,1960(t0)
    80003700:	9999a6b7          	lui	a3,0x9999a
    80003704:	99f6869b          	addiw	a3,a3,-1633 # ffffffff9999999f <absimm+0xfffffffedec8becf>
    80003708:	00c68463          	beq	a3,a2,80003710 <inst_264>
    8000370c:	919fc06f          	j	80000024 <rvtest_error>

0000000080003710 <inst_264>:
    80003710:	00500513          	li	a0,5
    80003714:	000005b7          	lui	a1,0x0
    80003718:	fff58593          	addi	a1,a1,-1
    8000371c:	00b59593          	slli	a1,a1,0xb
    80003720:	25758593          	addi	a1,a1,599
    80003724:	00b59593          	slli	a1,a1,0xb
    80003728:	6c358593          	addi	a1,a1,1731
    8000372c:	00a59593          	slli	a1,a1,0xa
    80003730:	0cd58593          	addi	a1,a1,205
    80003734:	40b5063b          	subw	a2,a0,a1
    80003738:	7ac2b823          	sd	a2,1968(t0)
    8000373c:	b504f6b7          	lui	a3,0xb504f
    80003740:	3386869b          	addiw	a3,a3,824 # ffffffffb504f338 <absimm+0xfffffffefa341868>
    80003744:	00c68463          	beq	a3,a2,8000374c <inst_265>
    80003748:	8ddfc06f          	j	80000024 <rvtest_error>

000000008000374c <inst_265>:
    8000374c:	00500513          	li	a0,5
    80003750:	000005b7          	lui	a1,0x0
    80003754:	00058593          	mv	a1,a1
    80003758:	00b59593          	slli	a1,a1,0xb
    8000375c:	5a858593          	addi	a1,a1,1448 # 5a8 <offset+0x108>
    80003760:	00b59593          	slli	a1,a1,0xb
    80003764:	13c58593          	addi	a1,a1,316
    80003768:	00a59593          	slli	a1,a1,0xa
    8000376c:	33358593          	addi	a1,a1,819
    80003770:	40b5063b          	subw	a2,a0,a1
    80003774:	7ac2bc23          	sd	a2,1976(t0)
    80003778:	4afb16b7          	lui	a3,0x4afb1
    8000377c:	cd26869b          	addiw	a3,a3,-814 # 4afb0cd2 <absimmsh+0x3f4dff25>
    80003780:	00c68463          	beq	a3,a2,80003788 <inst_266>
    80003784:	8a1fc06f          	j	80000024 <rvtest_error>

0000000080003788 <inst_266>:
    80003788:	00500513          	li	a0,5
    8000378c:	00200593          	li	a1,2
    80003790:	40b5063b          	subw	a2,a0,a1
    80003794:	7cc2b023          	sd	a2,1984(t0)
    80003798:	00300693          	li	a3,3
    8000379c:	00c68463          	beq	a3,a2,800037a4 <inst_267>
    800037a0:	885fc06f          	j	80000024 <rvtest_error>

00000000800037a4 <inst_267>:
    800037a4:	00500513          	li	a0,5
    800037a8:	555555b7          	lui	a1,0x55555
    800037ac:	55558593          	addi	a1,a1,1365 # 55555555 <absimmsh+0x49a847a8>
    800037b0:	00b59593          	slli	a1,a1,0xb
    800037b4:	2aa58593          	addi	a1,a1,682
    800037b8:	00b59593          	slli	a1,a1,0xb
    800037bc:	55558593          	addi	a1,a1,1365
    800037c0:	00a59593          	slli	a1,a1,0xa
    800037c4:	15458593          	addi	a1,a1,340
    800037c8:	40b5063b          	subw	a2,a0,a1
    800037cc:	7cc2b423          	sd	a2,1992(t0)
    800037d0:	aaaab6b7          	lui	a3,0xaaaab
    800037d4:	ab16869b          	addiw	a3,a3,-1359 # ffffffffaaaaaab1 <absimm+0xfffffffeefd9cfe1>
    800037d8:	00c68463          	beq	a3,a2,800037e0 <inst_268>
    800037dc:	849fc06f          	j	80000024 <rvtest_error>

00000000800037e0 <inst_268>:
    800037e0:	00500513          	li	a0,5
    800037e4:	00000593          	li	a1,0
    800037e8:	40b5063b          	subw	a2,a0,a1
    800037ec:	7cc2b823          	sd	a2,2000(t0)
    800037f0:	00500693          	li	a3,5
    800037f4:	00c68463          	beq	a3,a2,800037fc <inst_269>
    800037f8:	82dfc06f          	j	80000024 <rvtest_error>

00000000800037fc <inst_269>:
    800037fc:	00500513          	li	a0,5
    80003800:	00400593          	li	a1,4
    80003804:	40b5063b          	subw	a2,a0,a1
    80003808:	7cc2bc23          	sd	a2,2008(t0)
    8000380c:	00100693          	li	a3,1
    80003810:	00c68463          	beq	a3,a2,80003818 <inst_270>
    80003814:	811fc06f          	j	80000024 <rvtest_error>

0000000080003818 <inst_270>:
    80003818:	00500513          	li	a0,5
    8000381c:	333335b7          	lui	a1,0x33333
    80003820:	33358593          	addi	a1,a1,819 # 33333333 <absimmsh+0x27862586>
    80003824:	00b59593          	slli	a1,a1,0xb
    80003828:	19958593          	addi	a1,a1,409
    8000382c:	00b59593          	slli	a1,a1,0xb
    80003830:	4cc58593          	addi	a1,a1,1228
    80003834:	00a59593          	slli	a1,a1,0xa
    80003838:	33258593          	addi	a1,a1,818
    8000383c:	40b5063b          	subw	a2,a0,a1
    80003840:	7ec2b023          	sd	a2,2016(t0)
    80003844:	ccccd6b7          	lui	a3,0xccccd
    80003848:	cd36869b          	addiw	a3,a3,-813 # ffffffffccccccd3 <absimm+0xffffffff11fbf203>
    8000384c:	00c68463          	beq	a3,a2,80003854 <inst_271>
    80003850:	fd4fc06f          	j	80000024 <rvtest_error>

0000000080003854 <inst_271>:
    80003854:	00500513          	li	a0,5
    80003858:	666665b7          	lui	a1,0x66666
    8000385c:	66658593          	addi	a1,a1,1638 # 66666666 <absimmsh+0x5ab958b9>
    80003860:	00b59593          	slli	a1,a1,0xb
    80003864:	33358593          	addi	a1,a1,819
    80003868:	00b59593          	slli	a1,a1,0xb
    8000386c:	19958593          	addi	a1,a1,409
    80003870:	00a59593          	slli	a1,a1,0xa
    80003874:	26558593          	addi	a1,a1,613
    80003878:	40b5063b          	subw	a2,a0,a1
    8000387c:	7ec2b423          	sd	a2,2024(t0)
    80003880:	9999a6b7          	lui	a3,0x9999a
    80003884:	9a06869b          	addiw	a3,a3,-1632 # ffffffff999999a0 <absimm+0xfffffffedec8bed0>
    80003888:	00c68463          	beq	a3,a2,80003890 <inst_272>
    8000388c:	f98fc06f          	j	80000024 <rvtest_error>

0000000080003890 <inst_272>:
    80003890:	00500513          	li	a0,5
    80003894:	000005b7          	lui	a1,0x0
    80003898:	00058593          	mv	a1,a1
    8000389c:	00b59593          	slli	a1,a1,0xb
    800038a0:	5a858593          	addi	a1,a1,1448 # 5a8 <offset+0x108>
    800038a4:	00b59593          	slli	a1,a1,0xb
    800038a8:	13c58593          	addi	a1,a1,316
    800038ac:	00a59593          	slli	a1,a1,0xa
    800038b0:	33258593          	addi	a1,a1,818
    800038b4:	40b5063b          	subw	a2,a0,a1
    800038b8:	7ec2b823          	sd	a2,2032(t0)
    800038bc:	4afb16b7          	lui	a3,0x4afb1
    800038c0:	cd36869b          	addiw	a3,a3,-813 # 4afb0cd3 <absimmsh+0x3f4dff26>
    800038c4:	00c68463          	beq	a3,a2,800038cc <inst_273>
    800038c8:	f5cfc06f          	j	80000024 <rvtest_error>

00000000800038cc <inst_273>:
    800038cc:	00500513          	li	a0,5
    800038d0:	555555b7          	lui	a1,0x55555
    800038d4:	55558593          	addi	a1,a1,1365 # 55555555 <absimmsh+0x49a847a8>
    800038d8:	00b59593          	slli	a1,a1,0xb
    800038dc:	2aa58593          	addi	a1,a1,682
    800038e0:	00b59593          	slli	a1,a1,0xb
    800038e4:	55558593          	addi	a1,a1,1365
    800038e8:	00a59593          	slli	a1,a1,0xa
    800038ec:	15658593          	addi	a1,a1,342
    800038f0:	40b5063b          	subw	a2,a0,a1
    800038f4:	7ec2bc23          	sd	a2,2040(t0)
    800038f8:	aaaab6b7          	lui	a3,0xaaaab
    800038fc:	aaf6869b          	addiw	a3,a3,-1361 # ffffffffaaaaaaaf <absimm+0xfffffffeefd9cfdf>
    80003900:	00c68463          	beq	a3,a2,80003908 <inst_273+0x3c>
    80003904:	f20fc06f          	j	80000024 <rvtest_error>
    80003908:	00000013          	nop
    8000390c:	00000013          	nop
    80003910:	00000013          	nop
    80003914:	00000013          	nop
    80003918:	00000013          	nop
    8000391c:	00000013          	nop
    80003920:	00009297          	auipc	t0,0x9
    80003924:	f7828293          	addi	t0,t0,-136 # 8000c898 <signature_x5_1>
    80003928:	00000013          	nop
    8000392c:	00000013          	nop
    80003930:	00000013          	nop
    80003934:	00000013          	nop
    80003938:	00000013          	nop
    8000393c:	00000013          	nop

0000000080003940 <inst_274>:
    80003940:	00500513          	li	a0,5
    80003944:	aaaab5b7          	lui	a1,0xaaaab
    80003948:	aaa58593          	addi	a1,a1,-1366 # ffffffffaaaaaaaa <absimm+0xfffffffeefd9cfda>
    8000394c:	00b59593          	slli	a1,a1,0xb
    80003950:	55558593          	addi	a1,a1,1365
    80003954:	00b59593          	slli	a1,a1,0xb
    80003958:	2aa58593          	addi	a1,a1,682
    8000395c:	00a59593          	slli	a1,a1,0xa
    80003960:	2ab58593          	addi	a1,a1,683
    80003964:	40b5063b          	subw	a2,a0,a1
    80003968:	00c2b023          	sd	a2,0(t0)
    8000396c:	555556b7          	lui	a3,0x55555
    80003970:	55a6869b          	addiw	a3,a3,1370 # 5555555a <absimmsh+0x49a847ad>
    80003974:	00c68463          	beq	a3,a2,8000397c <inst_275>
    80003978:	eacfc06f          	j	80000024 <rvtest_error>

000000008000397c <inst_275>:
    8000397c:	00500513          	li	a0,5
    80003980:	00600593          	li	a1,6
    80003984:	40b5063b          	subw	a2,a0,a1
    80003988:	00c2b423          	sd	a2,8(t0)
    8000398c:	fff00693          	li	a3,-1
    80003990:	00c68463          	beq	a3,a2,80003998 <inst_276>
    80003994:	e90fc06f          	j	80000024 <rvtest_error>

0000000080003998 <inst_276>:
    80003998:	00500513          	li	a0,5
    8000399c:	333335b7          	lui	a1,0x33333
    800039a0:	33358593          	addi	a1,a1,819 # 33333333 <absimmsh+0x27862586>
    800039a4:	00b59593          	slli	a1,a1,0xb
    800039a8:	19958593          	addi	a1,a1,409
    800039ac:	00b59593          	slli	a1,a1,0xb
    800039b0:	4cc58593          	addi	a1,a1,1228
    800039b4:	00a59593          	slli	a1,a1,0xa
    800039b8:	33458593          	addi	a1,a1,820
    800039bc:	40b5063b          	subw	a2,a0,a1
    800039c0:	00c2b823          	sd	a2,16(t0)
    800039c4:	ccccd6b7          	lui	a3,0xccccd
    800039c8:	cd16869b          	addiw	a3,a3,-815 # ffffffffccccccd1 <absimm+0xffffffff11fbf201>
    800039cc:	00c68463          	beq	a3,a2,800039d4 <inst_277>
    800039d0:	e54fc06f          	j	80000024 <rvtest_error>

00000000800039d4 <inst_277>:
    800039d4:	00500513          	li	a0,5
    800039d8:	666665b7          	lui	a1,0x66666
    800039dc:	66658593          	addi	a1,a1,1638 # 66666666 <absimmsh+0x5ab958b9>
    800039e0:	00b59593          	slli	a1,a1,0xb
    800039e4:	33358593          	addi	a1,a1,819
    800039e8:	00b59593          	slli	a1,a1,0xb
    800039ec:	19958593          	addi	a1,a1,409
    800039f0:	00a59593          	slli	a1,a1,0xa
    800039f4:	26758593          	addi	a1,a1,615
    800039f8:	40b5063b          	subw	a2,a0,a1
    800039fc:	00c2bc23          	sd	a2,24(t0)
    80003a00:	9999a6b7          	lui	a3,0x9999a
    80003a04:	99e6869b          	addiw	a3,a3,-1634 # ffffffff9999999e <absimm+0xfffffffedec8bece>
    80003a08:	00c68463          	beq	a3,a2,80003a10 <inst_278>
    80003a0c:	e18fc06f          	j	80000024 <rvtest_error>

0000000080003a10 <inst_278>:
    80003a10:	00500513          	li	a0,5
    80003a14:	000005b7          	lui	a1,0x0
    80003a18:	fff58593          	addi	a1,a1,-1
    80003a1c:	00b59593          	slli	a1,a1,0xb
    80003a20:	25758593          	addi	a1,a1,599
    80003a24:	00b59593          	slli	a1,a1,0xb
    80003a28:	6c358593          	addi	a1,a1,1731
    80003a2c:	00a59593          	slli	a1,a1,0xa
    80003a30:	0ce58593          	addi	a1,a1,206
    80003a34:	40b5063b          	subw	a2,a0,a1
    80003a38:	02c2b023          	sd	a2,32(t0)
    80003a3c:	b504f6b7          	lui	a3,0xb504f
    80003a40:	3376869b          	addiw	a3,a3,823 # ffffffffb504f337 <absimm+0xfffffffefa341867>
    80003a44:	00c68463          	beq	a3,a2,80003a4c <inst_279>
    80003a48:	ddcfc06f          	j	80000024 <rvtest_error>

0000000080003a4c <inst_279>:
    80003a4c:	00500513          	li	a0,5
    80003a50:	000005b7          	lui	a1,0x0
    80003a54:	00058593          	mv	a1,a1
    80003a58:	00b59593          	slli	a1,a1,0xb
    80003a5c:	5a858593          	addi	a1,a1,1448 # 5a8 <offset+0x108>
    80003a60:	00b59593          	slli	a1,a1,0xb
    80003a64:	13c58593          	addi	a1,a1,316
    80003a68:	00a59593          	slli	a1,a1,0xa
    80003a6c:	33458593          	addi	a1,a1,820
    80003a70:	40b5063b          	subw	a2,a0,a1
    80003a74:	02c2b423          	sd	a2,40(t0)
    80003a78:	4afb16b7          	lui	a3,0x4afb1
    80003a7c:	cd16869b          	addiw	a3,a3,-815 # 4afb0cd1 <absimmsh+0x3f4dff24>
    80003a80:	00c68463          	beq	a3,a2,80003a88 <inst_280>
    80003a84:	da0fc06f          	j	80000024 <rvtest_error>

0000000080003a88 <inst_280>:
    80003a88:	33333537          	lui	a0,0x33333
    80003a8c:	33350513          	addi	a0,a0,819 # 33333333 <absimmsh+0x27862586>
    80003a90:	00b51513          	slli	a0,a0,0xb
    80003a94:	19950513          	addi	a0,a0,409
    80003a98:	00b51513          	slli	a0,a0,0xb
    80003a9c:	4cc50513          	addi	a0,a0,1228
    80003aa0:	00a51513          	slli	a0,a0,0xa
    80003aa4:	33350513          	addi	a0,a0,819
    80003aa8:	00300593          	li	a1,3
    80003aac:	40b5063b          	subw	a2,a0,a1
    80003ab0:	02c2b823          	sd	a2,48(t0)
    80003ab4:	333336b7          	lui	a3,0x33333
    80003ab8:	3306869b          	addiw	a3,a3,816 # 33333330 <absimmsh+0x27862583>
    80003abc:	00c68463          	beq	a3,a2,80003ac4 <inst_281>
    80003ac0:	d64fc06f          	j	80000024 <rvtest_error>

0000000080003ac4 <inst_281>:
    80003ac4:	33333537          	lui	a0,0x33333
    80003ac8:	33350513          	addi	a0,a0,819 # 33333333 <absimmsh+0x27862586>
    80003acc:	00b51513          	slli	a0,a0,0xb
    80003ad0:	19950513          	addi	a0,a0,409
    80003ad4:	00b51513          	slli	a0,a0,0xb
    80003ad8:	4cc50513          	addi	a0,a0,1228
    80003adc:	00a51513          	slli	a0,a0,0xa
    80003ae0:	33350513          	addi	a0,a0,819
    80003ae4:	555555b7          	lui	a1,0x55555
    80003ae8:	55558593          	addi	a1,a1,1365 # 55555555 <absimmsh+0x49a847a8>
    80003aec:	00b59593          	slli	a1,a1,0xb
    80003af0:	2aa58593          	addi	a1,a1,682
    80003af4:	00b59593          	slli	a1,a1,0xb
    80003af8:	55558593          	addi	a1,a1,1365
    80003afc:	00a59593          	slli	a1,a1,0xa
    80003b00:	15558593          	addi	a1,a1,341
    80003b04:	40b5063b          	subw	a2,a0,a1
    80003b08:	02c2bc23          	sd	a2,56(t0)
    80003b0c:	dddde6b7          	lui	a3,0xdddde
    80003b10:	dde6869b          	addiw	a3,a3,-546 # ffffffffddddddde <absimm+0xffffffff230d030e>
    80003b14:	00c68463          	beq	a3,a2,80003b1c <inst_282>
    80003b18:	d0cfc06f          	j	80000024 <rvtest_error>

0000000080003b1c <inst_282>:
    80003b1c:	33333537          	lui	a0,0x33333
    80003b20:	33350513          	addi	a0,a0,819 # 33333333 <absimmsh+0x27862586>
    80003b24:	00b51513          	slli	a0,a0,0xb
    80003b28:	19950513          	addi	a0,a0,409
    80003b2c:	00b51513          	slli	a0,a0,0xb
    80003b30:	4cc50513          	addi	a0,a0,1228
    80003b34:	00a51513          	slli	a0,a0,0xa
    80003b38:	33350513          	addi	a0,a0,819
    80003b3c:	aaaab5b7          	lui	a1,0xaaaab
    80003b40:	aaa58593          	addi	a1,a1,-1366 # ffffffffaaaaaaaa <absimm+0xfffffffeefd9cfda>
    80003b44:	00b59593          	slli	a1,a1,0xb
    80003b48:	55558593          	addi	a1,a1,1365
    80003b4c:	00b59593          	slli	a1,a1,0xb
    80003b50:	2aa58593          	addi	a1,a1,682
    80003b54:	00a59593          	slli	a1,a1,0xa
    80003b58:	2aa58593          	addi	a1,a1,682
    80003b5c:	40b5063b          	subw	a2,a0,a1
    80003b60:	04c2b023          	sd	a2,64(t0)
    80003b64:	888896b7          	lui	a3,0x88889
    80003b68:	8896869b          	addiw	a3,a3,-1911 # ffffffff88888889 <absimm+0xfffffffecdb7adb9>
    80003b6c:	00c68463          	beq	a3,a2,80003b74 <inst_283>
    80003b70:	cb4fc06f          	j	80000024 <rvtest_error>

0000000080003b74 <inst_283>:
    80003b74:	33333537          	lui	a0,0x33333
    80003b78:	33350513          	addi	a0,a0,819 # 33333333 <absimmsh+0x27862586>
    80003b7c:	00b51513          	slli	a0,a0,0xb
    80003b80:	19950513          	addi	a0,a0,409
    80003b84:	00b51513          	slli	a0,a0,0xb
    80003b88:	4cc50513          	addi	a0,a0,1228
    80003b8c:	00a51513          	slli	a0,a0,0xa
    80003b90:	33350513          	addi	a0,a0,819
    80003b94:	00500593          	li	a1,5
    80003b98:	40b5063b          	subw	a2,a0,a1
    80003b9c:	04c2b423          	sd	a2,72(t0)
    80003ba0:	333336b7          	lui	a3,0x33333
    80003ba4:	32e6869b          	addiw	a3,a3,814 # 3333332e <absimmsh+0x27862581>
    80003ba8:	00c68463          	beq	a3,a2,80003bb0 <inst_284>
    80003bac:	c78fc06f          	j	80000024 <rvtest_error>

0000000080003bb0 <inst_284>:
    80003bb0:	33333537          	lui	a0,0x33333
    80003bb4:	33350513          	addi	a0,a0,819 # 33333333 <absimmsh+0x27862586>
    80003bb8:	00b51513          	slli	a0,a0,0xb
    80003bbc:	19950513          	addi	a0,a0,409
    80003bc0:	00b51513          	slli	a0,a0,0xb
    80003bc4:	4cc50513          	addi	a0,a0,1228
    80003bc8:	00a51513          	slli	a0,a0,0xa
    80003bcc:	33350513          	addi	a0,a0,819
    80003bd0:	333335b7          	lui	a1,0x33333
    80003bd4:	33358593          	addi	a1,a1,819 # 33333333 <absimmsh+0x27862586>
    80003bd8:	00b59593          	slli	a1,a1,0xb
    80003bdc:	19958593          	addi	a1,a1,409
    80003be0:	00b59593          	slli	a1,a1,0xb
    80003be4:	4cc58593          	addi	a1,a1,1228
    80003be8:	00a59593          	slli	a1,a1,0xa
    80003bec:	33358593          	addi	a1,a1,819
    80003bf0:	40b5063b          	subw	a2,a0,a1
    80003bf4:	04c2b823          	sd	a2,80(t0)
    80003bf8:	00000693          	li	a3,0
    80003bfc:	00c68463          	beq	a3,a2,80003c04 <inst_285>
    80003c00:	c24fc06f          	j	80000024 <rvtest_error>

0000000080003c04 <inst_285>:
    80003c04:	33333537          	lui	a0,0x33333
    80003c08:	33350513          	addi	a0,a0,819 # 33333333 <absimmsh+0x27862586>
    80003c0c:	00b51513          	slli	a0,a0,0xb
    80003c10:	19950513          	addi	a0,a0,409
    80003c14:	00b51513          	slli	a0,a0,0xb
    80003c18:	4cc50513          	addi	a0,a0,1228
    80003c1c:	00a51513          	slli	a0,a0,0xa
    80003c20:	33350513          	addi	a0,a0,819
    80003c24:	666665b7          	lui	a1,0x66666
    80003c28:	66658593          	addi	a1,a1,1638 # 66666666 <absimmsh+0x5ab958b9>
    80003c2c:	00b59593          	slli	a1,a1,0xb
    80003c30:	33358593          	addi	a1,a1,819
    80003c34:	00b59593          	slli	a1,a1,0xb
    80003c38:	19958593          	addi	a1,a1,409
    80003c3c:	00a59593          	slli	a1,a1,0xa
    80003c40:	26658593          	addi	a1,a1,614
    80003c44:	40b5063b          	subw	a2,a0,a1
    80003c48:	04c2bc23          	sd	a2,88(t0)
    80003c4c:	ccccd6b7          	lui	a3,0xccccd
    80003c50:	ccd6869b          	addiw	a3,a3,-819 # ffffffffcccccccd <absimm+0xffffffff11fbf1fd>
    80003c54:	00c68463          	beq	a3,a2,80003c5c <inst_286>
    80003c58:	bccfc06f          	j	80000024 <rvtest_error>

0000000080003c5c <inst_286>:
    80003c5c:	33333537          	lui	a0,0x33333
    80003c60:	33350513          	addi	a0,a0,819 # 33333333 <absimmsh+0x27862586>
    80003c64:	00b51513          	slli	a0,a0,0xb
    80003c68:	19950513          	addi	a0,a0,409
    80003c6c:	00b51513          	slli	a0,a0,0xb
    80003c70:	4cc50513          	addi	a0,a0,1228
    80003c74:	00a51513          	slli	a0,a0,0xa
    80003c78:	33350513          	addi	a0,a0,819
    80003c7c:	000005b7          	lui	a1,0x0
    80003c80:	fff58593          	addi	a1,a1,-1
    80003c84:	00b59593          	slli	a1,a1,0xb
    80003c88:	25758593          	addi	a1,a1,599
    80003c8c:	00b59593          	slli	a1,a1,0xb
    80003c90:	6c358593          	addi	a1,a1,1731
    80003c94:	00a59593          	slli	a1,a1,0xa
    80003c98:	0cd58593          	addi	a1,a1,205
    80003c9c:	40b5063b          	subw	a2,a0,a1
    80003ca0:	06c2b023          	sd	a2,96(t0)
    80003ca4:	e83826b7          	lui	a3,0xe8382
    80003ca8:	6666869b          	addiw	a3,a3,1638 # ffffffffe8382666 <absimm+0xffffffff2d674b96>
    80003cac:	00c68463          	beq	a3,a2,80003cb4 <inst_287>
    80003cb0:	b74fc06f          	j	80000024 <rvtest_error>

0000000080003cb4 <inst_287>:
    80003cb4:	33333537          	lui	a0,0x33333
    80003cb8:	33350513          	addi	a0,a0,819 # 33333333 <absimmsh+0x27862586>
    80003cbc:	00b51513          	slli	a0,a0,0xb
    80003cc0:	19950513          	addi	a0,a0,409
    80003cc4:	00b51513          	slli	a0,a0,0xb
    80003cc8:	4cc50513          	addi	a0,a0,1228
    80003ccc:	00a51513          	slli	a0,a0,0xa
    80003cd0:	33350513          	addi	a0,a0,819
    80003cd4:	000005b7          	lui	a1,0x0
    80003cd8:	00058593          	mv	a1,a1
    80003cdc:	00b59593          	slli	a1,a1,0xb
    80003ce0:	5a858593          	addi	a1,a1,1448 # 5a8 <offset+0x108>
    80003ce4:	00b59593          	slli	a1,a1,0xb
    80003ce8:	13c58593          	addi	a1,a1,316
    80003cec:	00a59593          	slli	a1,a1,0xa
    80003cf0:	33358593          	addi	a1,a1,819
    80003cf4:	40b5063b          	subw	a2,a0,a1
    80003cf8:	06c2b423          	sd	a2,104(t0)
    80003cfc:	7e2e46b7          	lui	a3,0x7e2e4
    80003d00:	00c68463          	beq	a3,a2,80003d08 <inst_288>
    80003d04:	b20fc06f          	j	80000024 <rvtest_error>

0000000080003d08 <inst_288>:
    80003d08:	33333537          	lui	a0,0x33333
    80003d0c:	33350513          	addi	a0,a0,819 # 33333333 <absimmsh+0x27862586>
    80003d10:	00b51513          	slli	a0,a0,0xb
    80003d14:	19950513          	addi	a0,a0,409
    80003d18:	00b51513          	slli	a0,a0,0xb
    80003d1c:	4cc50513          	addi	a0,a0,1228
    80003d20:	00a51513          	slli	a0,a0,0xa
    80003d24:	33350513          	addi	a0,a0,819
    80003d28:	00200593          	li	a1,2
    80003d2c:	40b5063b          	subw	a2,a0,a1
    80003d30:	06c2b823          	sd	a2,112(t0)
    80003d34:	333336b7          	lui	a3,0x33333
    80003d38:	3316869b          	addiw	a3,a3,817 # 33333331 <absimmsh+0x27862584>
    80003d3c:	00c68463          	beq	a3,a2,80003d44 <inst_289>
    80003d40:	ae4fc06f          	j	80000024 <rvtest_error>

0000000080003d44 <inst_289>:
    80003d44:	33333537          	lui	a0,0x33333
    80003d48:	33350513          	addi	a0,a0,819 # 33333333 <absimmsh+0x27862586>
    80003d4c:	00b51513          	slli	a0,a0,0xb
    80003d50:	19950513          	addi	a0,a0,409
    80003d54:	00b51513          	slli	a0,a0,0xb
    80003d58:	4cc50513          	addi	a0,a0,1228
    80003d5c:	00a51513          	slli	a0,a0,0xa
    80003d60:	33350513          	addi	a0,a0,819
    80003d64:	555555b7          	lui	a1,0x55555
    80003d68:	55558593          	addi	a1,a1,1365 # 55555555 <absimmsh+0x49a847a8>
    80003d6c:	00b59593          	slli	a1,a1,0xb
    80003d70:	2aa58593          	addi	a1,a1,682
    80003d74:	00b59593          	slli	a1,a1,0xb
    80003d78:	55558593          	addi	a1,a1,1365
    80003d7c:	00a59593          	slli	a1,a1,0xa
    80003d80:	15458593          	addi	a1,a1,340
    80003d84:	40b5063b          	subw	a2,a0,a1
    80003d88:	06c2bc23          	sd	a2,120(t0)
    80003d8c:	dddde6b7          	lui	a3,0xdddde
    80003d90:	ddf6869b          	addiw	a3,a3,-545 # ffffffffdddddddf <absimm+0xffffffff230d030f>
    80003d94:	00c68463          	beq	a3,a2,80003d9c <inst_290>
    80003d98:	a8cfc06f          	j	80000024 <rvtest_error>

0000000080003d9c <inst_290>:
    80003d9c:	33333537          	lui	a0,0x33333
    80003da0:	33350513          	addi	a0,a0,819 # 33333333 <absimmsh+0x27862586>
    80003da4:	00b51513          	slli	a0,a0,0xb
    80003da8:	19950513          	addi	a0,a0,409
    80003dac:	00b51513          	slli	a0,a0,0xb
    80003db0:	4cc50513          	addi	a0,a0,1228
    80003db4:	00a51513          	slli	a0,a0,0xa
    80003db8:	33350513          	addi	a0,a0,819
    80003dbc:	00000593          	li	a1,0
    80003dc0:	40b5063b          	subw	a2,a0,a1
    80003dc4:	08c2b023          	sd	a2,128(t0)
    80003dc8:	333336b7          	lui	a3,0x33333
    80003dcc:	3336869b          	addiw	a3,a3,819 # 33333333 <absimmsh+0x27862586>
    80003dd0:	00c68463          	beq	a3,a2,80003dd8 <inst_291>
    80003dd4:	a50fc06f          	j	80000024 <rvtest_error>

0000000080003dd8 <inst_291>:
    80003dd8:	33333537          	lui	a0,0x33333
    80003ddc:	33350513          	addi	a0,a0,819 # 33333333 <absimmsh+0x27862586>
    80003de0:	00b51513          	slli	a0,a0,0xb
    80003de4:	19950513          	addi	a0,a0,409
    80003de8:	00b51513          	slli	a0,a0,0xb
    80003dec:	4cc50513          	addi	a0,a0,1228
    80003df0:	00a51513          	slli	a0,a0,0xa
    80003df4:	33350513          	addi	a0,a0,819
    80003df8:	00400593          	li	a1,4
    80003dfc:	40b5063b          	subw	a2,a0,a1
    80003e00:	08c2b423          	sd	a2,136(t0)
    80003e04:	333336b7          	lui	a3,0x33333
    80003e08:	32f6869b          	addiw	a3,a3,815 # 3333332f <absimmsh+0x27862582>
    80003e0c:	00c68463          	beq	a3,a2,80003e14 <inst_292>
    80003e10:	a14fc06f          	j	80000024 <rvtest_error>

0000000080003e14 <inst_292>:
    80003e14:	33333537          	lui	a0,0x33333
    80003e18:	33350513          	addi	a0,a0,819 # 33333333 <absimmsh+0x27862586>
    80003e1c:	00b51513          	slli	a0,a0,0xb
    80003e20:	19950513          	addi	a0,a0,409
    80003e24:	00b51513          	slli	a0,a0,0xb
    80003e28:	4cc50513          	addi	a0,a0,1228
    80003e2c:	00a51513          	slli	a0,a0,0xa
    80003e30:	33350513          	addi	a0,a0,819
    80003e34:	333335b7          	lui	a1,0x33333
    80003e38:	33358593          	addi	a1,a1,819 # 33333333 <absimmsh+0x27862586>
    80003e3c:	00b59593          	slli	a1,a1,0xb
    80003e40:	19958593          	addi	a1,a1,409
    80003e44:	00b59593          	slli	a1,a1,0xb
    80003e48:	4cc58593          	addi	a1,a1,1228
    80003e4c:	00a59593          	slli	a1,a1,0xa
    80003e50:	33258593          	addi	a1,a1,818
    80003e54:	40b5063b          	subw	a2,a0,a1
    80003e58:	08c2b823          	sd	a2,144(t0)
    80003e5c:	00100693          	li	a3,1
    80003e60:	00c68463          	beq	a3,a2,80003e68 <inst_293>
    80003e64:	9c0fc06f          	j	80000024 <rvtest_error>

0000000080003e68 <inst_293>:
    80003e68:	33333537          	lui	a0,0x33333
    80003e6c:	33350513          	addi	a0,a0,819 # 33333333 <absimmsh+0x27862586>
    80003e70:	00b51513          	slli	a0,a0,0xb
    80003e74:	19950513          	addi	a0,a0,409
    80003e78:	00b51513          	slli	a0,a0,0xb
    80003e7c:	4cc50513          	addi	a0,a0,1228
    80003e80:	00a51513          	slli	a0,a0,0xa
    80003e84:	33350513          	addi	a0,a0,819
    80003e88:	666665b7          	lui	a1,0x66666
    80003e8c:	66658593          	addi	a1,a1,1638 # 66666666 <absimmsh+0x5ab958b9>
    80003e90:	00b59593          	slli	a1,a1,0xb
    80003e94:	33358593          	addi	a1,a1,819
    80003e98:	00b59593          	slli	a1,a1,0xb
    80003e9c:	19958593          	addi	a1,a1,409
    80003ea0:	00a59593          	slli	a1,a1,0xa
    80003ea4:	26558593          	addi	a1,a1,613
    80003ea8:	40b5063b          	subw	a2,a0,a1
    80003eac:	08c2bc23          	sd	a2,152(t0)
    80003eb0:	ccccd6b7          	lui	a3,0xccccd
    80003eb4:	cce6869b          	addiw	a3,a3,-818 # ffffffffccccccce <absimm+0xffffffff11fbf1fe>
    80003eb8:	00c68463          	beq	a3,a2,80003ec0 <inst_294>
    80003ebc:	968fc06f          	j	80000024 <rvtest_error>

0000000080003ec0 <inst_294>:
    80003ec0:	33333537          	lui	a0,0x33333
    80003ec4:	33350513          	addi	a0,a0,819 # 33333333 <absimmsh+0x27862586>
    80003ec8:	00b51513          	slli	a0,a0,0xb
    80003ecc:	19950513          	addi	a0,a0,409
    80003ed0:	00b51513          	slli	a0,a0,0xb
    80003ed4:	4cc50513          	addi	a0,a0,1228
    80003ed8:	00a51513          	slli	a0,a0,0xa
    80003edc:	33350513          	addi	a0,a0,819
    80003ee0:	000005b7          	lui	a1,0x0
    80003ee4:	00058593          	mv	a1,a1
    80003ee8:	00b59593          	slli	a1,a1,0xb
    80003eec:	5a858593          	addi	a1,a1,1448 # 5a8 <offset+0x108>
    80003ef0:	00b59593          	slli	a1,a1,0xb
    80003ef4:	13c58593          	addi	a1,a1,316
    80003ef8:	00a59593          	slli	a1,a1,0xa
    80003efc:	33258593          	addi	a1,a1,818
    80003f00:	40b5063b          	subw	a2,a0,a1
    80003f04:	0ac2b023          	sd	a2,160(t0)
    80003f08:	7e2e46b7          	lui	a3,0x7e2e4
    80003f0c:	0016869b          	addiw	a3,a3,1 # 7e2e4001 <absimmsh+0x72813254>
    80003f10:	00c68463          	beq	a3,a2,80003f18 <inst_295>
    80003f14:	910fc06f          	j	80000024 <rvtest_error>

0000000080003f18 <inst_295>:
    80003f18:	33333537          	lui	a0,0x33333
    80003f1c:	33350513          	addi	a0,a0,819 # 33333333 <absimmsh+0x27862586>
    80003f20:	00b51513          	slli	a0,a0,0xb
    80003f24:	19950513          	addi	a0,a0,409
    80003f28:	00b51513          	slli	a0,a0,0xb
    80003f2c:	4cc50513          	addi	a0,a0,1228
    80003f30:	00a51513          	slli	a0,a0,0xa
    80003f34:	33350513          	addi	a0,a0,819
    80003f38:	555555b7          	lui	a1,0x55555
    80003f3c:	55558593          	addi	a1,a1,1365 # 55555555 <absimmsh+0x49a847a8>
    80003f40:	00b59593          	slli	a1,a1,0xb
    80003f44:	2aa58593          	addi	a1,a1,682
    80003f48:	00b59593          	slli	a1,a1,0xb
    80003f4c:	55558593          	addi	a1,a1,1365
    80003f50:	00a59593          	slli	a1,a1,0xa
    80003f54:	15658593          	addi	a1,a1,342
    80003f58:	40b5063b          	subw	a2,a0,a1
    80003f5c:	0ac2b423          	sd	a2,168(t0)
    80003f60:	dddde6b7          	lui	a3,0xdddde
    80003f64:	ddd6869b          	addiw	a3,a3,-547 # ffffffffdddddddd <absimm+0xffffffff230d030d>
    80003f68:	00c68463          	beq	a3,a2,80003f70 <inst_296>
    80003f6c:	8b8fc06f          	j	80000024 <rvtest_error>

0000000080003f70 <inst_296>:
    80003f70:	33333537          	lui	a0,0x33333
    80003f74:	33350513          	addi	a0,a0,819 # 33333333 <absimmsh+0x27862586>
    80003f78:	00b51513          	slli	a0,a0,0xb
    80003f7c:	19950513          	addi	a0,a0,409
    80003f80:	00b51513          	slli	a0,a0,0xb
    80003f84:	4cc50513          	addi	a0,a0,1228
    80003f88:	00a51513          	slli	a0,a0,0xa
    80003f8c:	33350513          	addi	a0,a0,819
    80003f90:	aaaab5b7          	lui	a1,0xaaaab
    80003f94:	aaa58593          	addi	a1,a1,-1366 # ffffffffaaaaaaaa <absimm+0xfffffffeefd9cfda>
    80003f98:	00b59593          	slli	a1,a1,0xb
    80003f9c:	55558593          	addi	a1,a1,1365
    80003fa0:	00b59593          	slli	a1,a1,0xb
    80003fa4:	2aa58593          	addi	a1,a1,682
    80003fa8:	00a59593          	slli	a1,a1,0xa
    80003fac:	2ab58593          	addi	a1,a1,683
    80003fb0:	40b5063b          	subw	a2,a0,a1
    80003fb4:	0ac2b823          	sd	a2,176(t0)
    80003fb8:	888896b7          	lui	a3,0x88889
    80003fbc:	8886869b          	addiw	a3,a3,-1912 # ffffffff88888888 <absimm+0xfffffffecdb7adb8>
    80003fc0:	00c68463          	beq	a3,a2,80003fc8 <inst_297>
    80003fc4:	860fc06f          	j	80000024 <rvtest_error>

0000000080003fc8 <inst_297>:
    80003fc8:	33333537          	lui	a0,0x33333
    80003fcc:	33350513          	addi	a0,a0,819 # 33333333 <absimmsh+0x27862586>
    80003fd0:	00b51513          	slli	a0,a0,0xb
    80003fd4:	19950513          	addi	a0,a0,409
    80003fd8:	00b51513          	slli	a0,a0,0xb
    80003fdc:	4cc50513          	addi	a0,a0,1228
    80003fe0:	00a51513          	slli	a0,a0,0xa
    80003fe4:	33350513          	addi	a0,a0,819
    80003fe8:	00600593          	li	a1,6
    80003fec:	40b5063b          	subw	a2,a0,a1
    80003ff0:	0ac2bc23          	sd	a2,184(t0)
    80003ff4:	333336b7          	lui	a3,0x33333
    80003ff8:	32d6869b          	addiw	a3,a3,813 # 3333332d <absimmsh+0x27862580>
    80003ffc:	00c68463          	beq	a3,a2,80004004 <inst_298>
    80004000:	824fc06f          	j	80000024 <rvtest_error>

0000000080004004 <inst_298>:
    80004004:	33333537          	lui	a0,0x33333
    80004008:	33350513          	addi	a0,a0,819 # 33333333 <absimmsh+0x27862586>
    8000400c:	00b51513          	slli	a0,a0,0xb
    80004010:	19950513          	addi	a0,a0,409
    80004014:	00b51513          	slli	a0,a0,0xb
    80004018:	4cc50513          	addi	a0,a0,1228
    8000401c:	00a51513          	slli	a0,a0,0xa
    80004020:	33350513          	addi	a0,a0,819
    80004024:	333335b7          	lui	a1,0x33333
    80004028:	33358593          	addi	a1,a1,819 # 33333333 <absimmsh+0x27862586>
    8000402c:	00b59593          	slli	a1,a1,0xb
    80004030:	19958593          	addi	a1,a1,409
    80004034:	00b59593          	slli	a1,a1,0xb
    80004038:	4cc58593          	addi	a1,a1,1228
    8000403c:	00a59593          	slli	a1,a1,0xa
    80004040:	33458593          	addi	a1,a1,820
    80004044:	40b5063b          	subw	a2,a0,a1
    80004048:	0cc2b023          	sd	a2,192(t0)
    8000404c:	fff00693          	li	a3,-1
    80004050:	00c68463          	beq	a3,a2,80004058 <inst_299>
    80004054:	fd1fb06f          	j	80000024 <rvtest_error>

0000000080004058 <inst_299>:
    80004058:	33333537          	lui	a0,0x33333
    8000405c:	33350513          	addi	a0,a0,819 # 33333333 <absimmsh+0x27862586>
    80004060:	00b51513          	slli	a0,a0,0xb
    80004064:	19950513          	addi	a0,a0,409
    80004068:	00b51513          	slli	a0,a0,0xb
    8000406c:	4cc50513          	addi	a0,a0,1228
    80004070:	00a51513          	slli	a0,a0,0xa
    80004074:	33350513          	addi	a0,a0,819
    80004078:	666665b7          	lui	a1,0x66666
    8000407c:	66658593          	addi	a1,a1,1638 # 66666666 <absimmsh+0x5ab958b9>
    80004080:	00b59593          	slli	a1,a1,0xb
    80004084:	33358593          	addi	a1,a1,819
    80004088:	00b59593          	slli	a1,a1,0xb
    8000408c:	19958593          	addi	a1,a1,409
    80004090:	00a59593          	slli	a1,a1,0xa
    80004094:	26758593          	addi	a1,a1,615
    80004098:	40b5063b          	subw	a2,a0,a1
    8000409c:	0cc2b423          	sd	a2,200(t0)
    800040a0:	ccccd6b7          	lui	a3,0xccccd
    800040a4:	ccc6869b          	addiw	a3,a3,-820 # ffffffffcccccccc <absimm+0xffffffff11fbf1fc>
    800040a8:	00c68463          	beq	a3,a2,800040b0 <inst_300>
    800040ac:	f79fb06f          	j	80000024 <rvtest_error>

00000000800040b0 <inst_300>:
    800040b0:	33333537          	lui	a0,0x33333
    800040b4:	33350513          	addi	a0,a0,819 # 33333333 <absimmsh+0x27862586>
    800040b8:	00b51513          	slli	a0,a0,0xb
    800040bc:	19950513          	addi	a0,a0,409
    800040c0:	00b51513          	slli	a0,a0,0xb
    800040c4:	4cc50513          	addi	a0,a0,1228
    800040c8:	00a51513          	slli	a0,a0,0xa
    800040cc:	33350513          	addi	a0,a0,819
    800040d0:	000005b7          	lui	a1,0x0
    800040d4:	fff58593          	addi	a1,a1,-1
    800040d8:	00b59593          	slli	a1,a1,0xb
    800040dc:	25758593          	addi	a1,a1,599
    800040e0:	00b59593          	slli	a1,a1,0xb
    800040e4:	6c358593          	addi	a1,a1,1731
    800040e8:	00a59593          	slli	a1,a1,0xa
    800040ec:	0ce58593          	addi	a1,a1,206
    800040f0:	40b5063b          	subw	a2,a0,a1
    800040f4:	0cc2b823          	sd	a2,208(t0)
    800040f8:	e83826b7          	lui	a3,0xe8382
    800040fc:	6656869b          	addiw	a3,a3,1637 # ffffffffe8382665 <absimm+0xffffffff2d674b95>
    80004100:	00c68463          	beq	a3,a2,80004108 <inst_301>
    80004104:	f21fb06f          	j	80000024 <rvtest_error>

0000000080004108 <inst_301>:
    80004108:	33333537          	lui	a0,0x33333
    8000410c:	33350513          	addi	a0,a0,819 # 33333333 <absimmsh+0x27862586>
    80004110:	00b51513          	slli	a0,a0,0xb
    80004114:	19950513          	addi	a0,a0,409
    80004118:	00b51513          	slli	a0,a0,0xb
    8000411c:	4cc50513          	addi	a0,a0,1228
    80004120:	00a51513          	slli	a0,a0,0xa
    80004124:	33350513          	addi	a0,a0,819
    80004128:	000005b7          	lui	a1,0x0
    8000412c:	00058593          	mv	a1,a1
    80004130:	00b59593          	slli	a1,a1,0xb
    80004134:	5a858593          	addi	a1,a1,1448 # 5a8 <offset+0x108>
    80004138:	00b59593          	slli	a1,a1,0xb
    8000413c:	13c58593          	addi	a1,a1,316
    80004140:	00a59593          	slli	a1,a1,0xa
    80004144:	33458593          	addi	a1,a1,820
    80004148:	40b5063b          	subw	a2,a0,a1
    8000414c:	0cc2bc23          	sd	a2,216(t0)
    80004150:	7e2e46b7          	lui	a3,0x7e2e4
    80004154:	fff6869b          	addiw	a3,a3,-1 # 7e2e3fff <absimmsh+0x72813252>
    80004158:	00c68463          	beq	a3,a2,80004160 <inst_302>
    8000415c:	ec9fb06f          	j	80000024 <rvtest_error>

0000000080004160 <inst_302>:
    80004160:	66666537          	lui	a0,0x66666
    80004164:	66650513          	addi	a0,a0,1638 # 66666666 <absimmsh+0x5ab958b9>
    80004168:	00b51513          	slli	a0,a0,0xb
    8000416c:	33350513          	addi	a0,a0,819
    80004170:	00b51513          	slli	a0,a0,0xb
    80004174:	19950513          	addi	a0,a0,409
    80004178:	00a51513          	slli	a0,a0,0xa
    8000417c:	26650513          	addi	a0,a0,614
    80004180:	00300593          	li	a1,3
    80004184:	40b5063b          	subw	a2,a0,a1
    80004188:	0ec2b023          	sd	a2,224(t0)
    8000418c:	666666b7          	lui	a3,0x66666
    80004190:	6636869b          	addiw	a3,a3,1635 # 66666663 <absimmsh+0x5ab958b6>
    80004194:	00c68463          	beq	a3,a2,8000419c <inst_303>
    80004198:	e8dfb06f          	j	80000024 <rvtest_error>

000000008000419c <inst_303>:
    8000419c:	66666537          	lui	a0,0x66666
    800041a0:	66650513          	addi	a0,a0,1638 # 66666666 <absimmsh+0x5ab958b9>
    800041a4:	00b51513          	slli	a0,a0,0xb
    800041a8:	33350513          	addi	a0,a0,819
    800041ac:	00b51513          	slli	a0,a0,0xb
    800041b0:	19950513          	addi	a0,a0,409
    800041b4:	00a51513          	slli	a0,a0,0xa
    800041b8:	26650513          	addi	a0,a0,614
    800041bc:	555555b7          	lui	a1,0x55555
    800041c0:	55558593          	addi	a1,a1,1365 # 55555555 <absimmsh+0x49a847a8>
    800041c4:	00b59593          	slli	a1,a1,0xb
    800041c8:	2aa58593          	addi	a1,a1,682
    800041cc:	00b59593          	slli	a1,a1,0xb
    800041d0:	55558593          	addi	a1,a1,1365
    800041d4:	00a59593          	slli	a1,a1,0xa
    800041d8:	15558593          	addi	a1,a1,341
    800041dc:	40b5063b          	subw	a2,a0,a1
    800041e0:	0ec2b423          	sd	a2,232(t0)
    800041e4:	111116b7          	lui	a3,0x11111
    800041e8:	1116869b          	addiw	a3,a3,273 # 11111111 <absimmsh+0x5640364>
    800041ec:	00c68463          	beq	a3,a2,800041f4 <inst_304>
    800041f0:	e35fb06f          	j	80000024 <rvtest_error>

00000000800041f4 <inst_304>:
    800041f4:	66666537          	lui	a0,0x66666
    800041f8:	66650513          	addi	a0,a0,1638 # 66666666 <absimmsh+0x5ab958b9>
    800041fc:	00b51513          	slli	a0,a0,0xb
    80004200:	33350513          	addi	a0,a0,819
    80004204:	00b51513          	slli	a0,a0,0xb
    80004208:	19950513          	addi	a0,a0,409
    8000420c:	00a51513          	slli	a0,a0,0xa
    80004210:	26650513          	addi	a0,a0,614
    80004214:	aaaab5b7          	lui	a1,0xaaaab
    80004218:	aaa58593          	addi	a1,a1,-1366 # ffffffffaaaaaaaa <absimm+0xfffffffeefd9cfda>
    8000421c:	00b59593          	slli	a1,a1,0xb
    80004220:	55558593          	addi	a1,a1,1365
    80004224:	00b59593          	slli	a1,a1,0xb
    80004228:	2aa58593          	addi	a1,a1,682
    8000422c:	00a59593          	slli	a1,a1,0xa
    80004230:	2aa58593          	addi	a1,a1,682
    80004234:	40b5063b          	subw	a2,a0,a1
    80004238:	0ec2b823          	sd	a2,240(t0)
    8000423c:	bbbbc6b7          	lui	a3,0xbbbbc
    80004240:	bbc6869b          	addiw	a3,a3,-1092 # ffffffffbbbbbbbc <absimm+0xffffffff00eae0ec>
    80004244:	00c68463          	beq	a3,a2,8000424c <inst_305>
    80004248:	dddfb06f          	j	80000024 <rvtest_error>

000000008000424c <inst_305>:
    8000424c:	66666537          	lui	a0,0x66666
    80004250:	66650513          	addi	a0,a0,1638 # 66666666 <absimmsh+0x5ab958b9>
    80004254:	00b51513          	slli	a0,a0,0xb
    80004258:	33350513          	addi	a0,a0,819
    8000425c:	00b51513          	slli	a0,a0,0xb
    80004260:	19950513          	addi	a0,a0,409
    80004264:	00a51513          	slli	a0,a0,0xa
    80004268:	26650513          	addi	a0,a0,614
    8000426c:	00500593          	li	a1,5
    80004270:	40b5063b          	subw	a2,a0,a1
    80004274:	0ec2bc23          	sd	a2,248(t0)
    80004278:	666666b7          	lui	a3,0x66666
    8000427c:	6616869b          	addiw	a3,a3,1633 # 66666661 <absimmsh+0x5ab958b4>
    80004280:	00c68463          	beq	a3,a2,80004288 <inst_306>
    80004284:	da1fb06f          	j	80000024 <rvtest_error>

0000000080004288 <inst_306>:
    80004288:	66666537          	lui	a0,0x66666
    8000428c:	66650513          	addi	a0,a0,1638 # 66666666 <absimmsh+0x5ab958b9>
    80004290:	00b51513          	slli	a0,a0,0xb
    80004294:	33350513          	addi	a0,a0,819
    80004298:	00b51513          	slli	a0,a0,0xb
    8000429c:	19950513          	addi	a0,a0,409
    800042a0:	00a51513          	slli	a0,a0,0xa
    800042a4:	26650513          	addi	a0,a0,614
    800042a8:	333335b7          	lui	a1,0x33333
    800042ac:	33358593          	addi	a1,a1,819 # 33333333 <absimmsh+0x27862586>
    800042b0:	00b59593          	slli	a1,a1,0xb
    800042b4:	19958593          	addi	a1,a1,409
    800042b8:	00b59593          	slli	a1,a1,0xb
    800042bc:	4cc58593          	addi	a1,a1,1228
    800042c0:	00a59593          	slli	a1,a1,0xa
    800042c4:	33358593          	addi	a1,a1,819
    800042c8:	40b5063b          	subw	a2,a0,a1
    800042cc:	10c2b023          	sd	a2,256(t0)
    800042d0:	333336b7          	lui	a3,0x33333
    800042d4:	3336869b          	addiw	a3,a3,819 # 33333333 <absimmsh+0x27862586>
    800042d8:	00c68463          	beq	a3,a2,800042e0 <inst_307>
    800042dc:	d49fb06f          	j	80000024 <rvtest_error>

00000000800042e0 <inst_307>:
    800042e0:	66666537          	lui	a0,0x66666
    800042e4:	66650513          	addi	a0,a0,1638 # 66666666 <absimmsh+0x5ab958b9>
    800042e8:	00b51513          	slli	a0,a0,0xb
    800042ec:	33350513          	addi	a0,a0,819
    800042f0:	00b51513          	slli	a0,a0,0xb
    800042f4:	19950513          	addi	a0,a0,409
    800042f8:	00a51513          	slli	a0,a0,0xa
    800042fc:	26650513          	addi	a0,a0,614
    80004300:	666665b7          	lui	a1,0x66666
    80004304:	66658593          	addi	a1,a1,1638 # 66666666 <absimmsh+0x5ab958b9>
    80004308:	00b59593          	slli	a1,a1,0xb
    8000430c:	33358593          	addi	a1,a1,819
    80004310:	00b59593          	slli	a1,a1,0xb
    80004314:	19958593          	addi	a1,a1,409
    80004318:	00a59593          	slli	a1,a1,0xa
    8000431c:	26658593          	addi	a1,a1,614
    80004320:	40b5063b          	subw	a2,a0,a1
    80004324:	10c2b423          	sd	a2,264(t0)
    80004328:	00000693          	li	a3,0
    8000432c:	00c68463          	beq	a3,a2,80004334 <inst_308>
    80004330:	cf5fb06f          	j	80000024 <rvtest_error>

0000000080004334 <inst_308>:
    80004334:	66666537          	lui	a0,0x66666
    80004338:	66650513          	addi	a0,a0,1638 # 66666666 <absimmsh+0x5ab958b9>
    8000433c:	00b51513          	slli	a0,a0,0xb
    80004340:	33350513          	addi	a0,a0,819
    80004344:	00b51513          	slli	a0,a0,0xb
    80004348:	19950513          	addi	a0,a0,409
    8000434c:	00a51513          	slli	a0,a0,0xa
    80004350:	26650513          	addi	a0,a0,614
    80004354:	000005b7          	lui	a1,0x0
    80004358:	fff58593          	addi	a1,a1,-1
    8000435c:	00b59593          	slli	a1,a1,0xb
    80004360:	25758593          	addi	a1,a1,599
    80004364:	00b59593          	slli	a1,a1,0xb
    80004368:	6c358593          	addi	a1,a1,1731
    8000436c:	00a59593          	slli	a1,a1,0xa
    80004370:	0cd58593          	addi	a1,a1,205
    80004374:	40b5063b          	subw	a2,a0,a1
    80004378:	10c2b823          	sd	a2,272(t0)
    8000437c:	1b6b66b7          	lui	a3,0x1b6b6
    80004380:	9996869b          	addiw	a3,a3,-1639 # 1b6b5999 <absimmsh+0xfbe4bec>
    80004384:	00c68463          	beq	a3,a2,8000438c <inst_309>
    80004388:	c9dfb06f          	j	80000024 <rvtest_error>

000000008000438c <inst_309>:
    8000438c:	66666537          	lui	a0,0x66666
    80004390:	66650513          	addi	a0,a0,1638 # 66666666 <absimmsh+0x5ab958b9>
    80004394:	00b51513          	slli	a0,a0,0xb
    80004398:	33350513          	addi	a0,a0,819
    8000439c:	00b51513          	slli	a0,a0,0xb
    800043a0:	19950513          	addi	a0,a0,409
    800043a4:	00a51513          	slli	a0,a0,0xa
    800043a8:	26650513          	addi	a0,a0,614
    800043ac:	000005b7          	lui	a1,0x0
    800043b0:	00058593          	mv	a1,a1
    800043b4:	00b59593          	slli	a1,a1,0xb
    800043b8:	5a858593          	addi	a1,a1,1448 # 5a8 <offset+0x108>
    800043bc:	00b59593          	slli	a1,a1,0xb
    800043c0:	13c58593          	addi	a1,a1,316
    800043c4:	00a59593          	slli	a1,a1,0xa
    800043c8:	33358593          	addi	a1,a1,819
    800043cc:	40b5063b          	subw	a2,a0,a1
    800043d0:	10c2bc23          	sd	a2,280(t0)
    800043d4:	b16176b7          	lui	a3,0xb1617
    800043d8:	3336869b          	addiw	a3,a3,819 # ffffffffb1617333 <absimm+0xfffffffef6909863>
    800043dc:	00c68463          	beq	a3,a2,800043e4 <inst_310>
    800043e0:	c45fb06f          	j	80000024 <rvtest_error>

00000000800043e4 <inst_310>:
    800043e4:	66666537          	lui	a0,0x66666
    800043e8:	66650513          	addi	a0,a0,1638 # 66666666 <absimmsh+0x5ab958b9>
    800043ec:	00b51513          	slli	a0,a0,0xb
    800043f0:	33350513          	addi	a0,a0,819
    800043f4:	00b51513          	slli	a0,a0,0xb
    800043f8:	19950513          	addi	a0,a0,409
    800043fc:	00a51513          	slli	a0,a0,0xa
    80004400:	26650513          	addi	a0,a0,614
    80004404:	00200593          	li	a1,2
    80004408:	40b5063b          	subw	a2,a0,a1
    8000440c:	12c2b023          	sd	a2,288(t0)
    80004410:	666666b7          	lui	a3,0x66666
    80004414:	6646869b          	addiw	a3,a3,1636 # 66666664 <absimmsh+0x5ab958b7>
    80004418:	00c68463          	beq	a3,a2,80004420 <inst_311>
    8000441c:	c09fb06f          	j	80000024 <rvtest_error>

0000000080004420 <inst_311>:
    80004420:	66666537          	lui	a0,0x66666
    80004424:	66650513          	addi	a0,a0,1638 # 66666666 <absimmsh+0x5ab958b9>
    80004428:	00b51513          	slli	a0,a0,0xb
    8000442c:	33350513          	addi	a0,a0,819
    80004430:	00b51513          	slli	a0,a0,0xb
    80004434:	19950513          	addi	a0,a0,409
    80004438:	00a51513          	slli	a0,a0,0xa
    8000443c:	26650513          	addi	a0,a0,614
    80004440:	555555b7          	lui	a1,0x55555
    80004444:	55558593          	addi	a1,a1,1365 # 55555555 <absimmsh+0x49a847a8>
    80004448:	00b59593          	slli	a1,a1,0xb
    8000444c:	2aa58593          	addi	a1,a1,682
    80004450:	00b59593          	slli	a1,a1,0xb
    80004454:	55558593          	addi	a1,a1,1365
    80004458:	00a59593          	slli	a1,a1,0xa
    8000445c:	15458593          	addi	a1,a1,340
    80004460:	40b5063b          	subw	a2,a0,a1
    80004464:	12c2b423          	sd	a2,296(t0)
    80004468:	111116b7          	lui	a3,0x11111
    8000446c:	1126869b          	addiw	a3,a3,274 # 11111112 <absimmsh+0x5640365>
    80004470:	00c68463          	beq	a3,a2,80004478 <inst_312>
    80004474:	bb1fb06f          	j	80000024 <rvtest_error>

0000000080004478 <inst_312>:
    80004478:	66666537          	lui	a0,0x66666
    8000447c:	66650513          	addi	a0,a0,1638 # 66666666 <absimmsh+0x5ab958b9>
    80004480:	00b51513          	slli	a0,a0,0xb
    80004484:	33350513          	addi	a0,a0,819
    80004488:	00b51513          	slli	a0,a0,0xb
    8000448c:	19950513          	addi	a0,a0,409
    80004490:	00a51513          	slli	a0,a0,0xa
    80004494:	26650513          	addi	a0,a0,614
    80004498:	00000593          	li	a1,0
    8000449c:	40b5063b          	subw	a2,a0,a1
    800044a0:	12c2b823          	sd	a2,304(t0)
    800044a4:	666666b7          	lui	a3,0x66666
    800044a8:	6666869b          	addiw	a3,a3,1638 # 66666666 <absimmsh+0x5ab958b9>
    800044ac:	00c68463          	beq	a3,a2,800044b4 <inst_313>
    800044b0:	b75fb06f          	j	80000024 <rvtest_error>

00000000800044b4 <inst_313>:
    800044b4:	66666537          	lui	a0,0x66666
    800044b8:	66650513          	addi	a0,a0,1638 # 66666666 <absimmsh+0x5ab958b9>
    800044bc:	00b51513          	slli	a0,a0,0xb
    800044c0:	33350513          	addi	a0,a0,819
    800044c4:	00b51513          	slli	a0,a0,0xb
    800044c8:	19950513          	addi	a0,a0,409
    800044cc:	00a51513          	slli	a0,a0,0xa
    800044d0:	26650513          	addi	a0,a0,614
    800044d4:	00400593          	li	a1,4
    800044d8:	40b5063b          	subw	a2,a0,a1
    800044dc:	12c2bc23          	sd	a2,312(t0)
    800044e0:	666666b7          	lui	a3,0x66666
    800044e4:	6626869b          	addiw	a3,a3,1634 # 66666662 <absimmsh+0x5ab958b5>
    800044e8:	00c68463          	beq	a3,a2,800044f0 <inst_314>
    800044ec:	b39fb06f          	j	80000024 <rvtest_error>

00000000800044f0 <inst_314>:
    800044f0:	66666537          	lui	a0,0x66666
    800044f4:	66650513          	addi	a0,a0,1638 # 66666666 <absimmsh+0x5ab958b9>
    800044f8:	00b51513          	slli	a0,a0,0xb
    800044fc:	33350513          	addi	a0,a0,819
    80004500:	00b51513          	slli	a0,a0,0xb
    80004504:	19950513          	addi	a0,a0,409
    80004508:	00a51513          	slli	a0,a0,0xa
    8000450c:	26650513          	addi	a0,a0,614
    80004510:	333335b7          	lui	a1,0x33333
    80004514:	33358593          	addi	a1,a1,819 # 33333333 <absimmsh+0x27862586>
    80004518:	00b59593          	slli	a1,a1,0xb
    8000451c:	19958593          	addi	a1,a1,409
    80004520:	00b59593          	slli	a1,a1,0xb
    80004524:	4cc58593          	addi	a1,a1,1228
    80004528:	00a59593          	slli	a1,a1,0xa
    8000452c:	33258593          	addi	a1,a1,818
    80004530:	40b5063b          	subw	a2,a0,a1
    80004534:	14c2b023          	sd	a2,320(t0)
    80004538:	333336b7          	lui	a3,0x33333
    8000453c:	3346869b          	addiw	a3,a3,820 # 33333334 <absimmsh+0x27862587>
    80004540:	00c68463          	beq	a3,a2,80004548 <inst_315>
    80004544:	ae1fb06f          	j	80000024 <rvtest_error>

0000000080004548 <inst_315>:
    80004548:	66666537          	lui	a0,0x66666
    8000454c:	66650513          	addi	a0,a0,1638 # 66666666 <absimmsh+0x5ab958b9>
    80004550:	00b51513          	slli	a0,a0,0xb
    80004554:	33350513          	addi	a0,a0,819
    80004558:	00b51513          	slli	a0,a0,0xb
    8000455c:	19950513          	addi	a0,a0,409
    80004560:	00a51513          	slli	a0,a0,0xa
    80004564:	26650513          	addi	a0,a0,614
    80004568:	666665b7          	lui	a1,0x66666
    8000456c:	66658593          	addi	a1,a1,1638 # 66666666 <absimmsh+0x5ab958b9>
    80004570:	00b59593          	slli	a1,a1,0xb
    80004574:	33358593          	addi	a1,a1,819
    80004578:	00b59593          	slli	a1,a1,0xb
    8000457c:	19958593          	addi	a1,a1,409
    80004580:	00a59593          	slli	a1,a1,0xa
    80004584:	26558593          	addi	a1,a1,613
    80004588:	40b5063b          	subw	a2,a0,a1
    8000458c:	14c2b423          	sd	a2,328(t0)
    80004590:	00100693          	li	a3,1
    80004594:	00c68463          	beq	a3,a2,8000459c <inst_316>
    80004598:	a8dfb06f          	j	80000024 <rvtest_error>

000000008000459c <inst_316>:
    8000459c:	66666537          	lui	a0,0x66666
    800045a0:	66650513          	addi	a0,a0,1638 # 66666666 <absimmsh+0x5ab958b9>
    800045a4:	00b51513          	slli	a0,a0,0xb
    800045a8:	33350513          	addi	a0,a0,819
    800045ac:	00b51513          	slli	a0,a0,0xb
    800045b0:	19950513          	addi	a0,a0,409
    800045b4:	00a51513          	slli	a0,a0,0xa
    800045b8:	26650513          	addi	a0,a0,614
    800045bc:	000005b7          	lui	a1,0x0
    800045c0:	00058593          	mv	a1,a1
    800045c4:	00b59593          	slli	a1,a1,0xb
    800045c8:	5a858593          	addi	a1,a1,1448 # 5a8 <offset+0x108>
    800045cc:	00b59593          	slli	a1,a1,0xb
    800045d0:	13c58593          	addi	a1,a1,316
    800045d4:	00a59593          	slli	a1,a1,0xa
    800045d8:	33258593          	addi	a1,a1,818
    800045dc:	40b5063b          	subw	a2,a0,a1
    800045e0:	14c2b823          	sd	a2,336(t0)
    800045e4:	b16176b7          	lui	a3,0xb1617
    800045e8:	3346869b          	addiw	a3,a3,820 # ffffffffb1617334 <absimm+0xfffffffef6909864>
    800045ec:	00c68463          	beq	a3,a2,800045f4 <inst_317>
    800045f0:	a35fb06f          	j	80000024 <rvtest_error>

00000000800045f4 <inst_317>:
    800045f4:	66666537          	lui	a0,0x66666
    800045f8:	66650513          	addi	a0,a0,1638 # 66666666 <absimmsh+0x5ab958b9>
    800045fc:	00b51513          	slli	a0,a0,0xb
    80004600:	33350513          	addi	a0,a0,819
    80004604:	00b51513          	slli	a0,a0,0xb
    80004608:	19950513          	addi	a0,a0,409
    8000460c:	00a51513          	slli	a0,a0,0xa
    80004610:	26650513          	addi	a0,a0,614
    80004614:	555555b7          	lui	a1,0x55555
    80004618:	55558593          	addi	a1,a1,1365 # 55555555 <absimmsh+0x49a847a8>
    8000461c:	00b59593          	slli	a1,a1,0xb
    80004620:	2aa58593          	addi	a1,a1,682
    80004624:	00b59593          	slli	a1,a1,0xb
    80004628:	55558593          	addi	a1,a1,1365
    8000462c:	00a59593          	slli	a1,a1,0xa
    80004630:	15658593          	addi	a1,a1,342
    80004634:	40b5063b          	subw	a2,a0,a1
    80004638:	14c2bc23          	sd	a2,344(t0)
    8000463c:	111116b7          	lui	a3,0x11111
    80004640:	1106869b          	addiw	a3,a3,272 # 11111110 <absimmsh+0x5640363>
    80004644:	00c68463          	beq	a3,a2,8000464c <inst_318>
    80004648:	9ddfb06f          	j	80000024 <rvtest_error>

000000008000464c <inst_318>:
    8000464c:	66666537          	lui	a0,0x66666
    80004650:	66650513          	addi	a0,a0,1638 # 66666666 <absimmsh+0x5ab958b9>
    80004654:	00b51513          	slli	a0,a0,0xb
    80004658:	33350513          	addi	a0,a0,819
    8000465c:	00b51513          	slli	a0,a0,0xb
    80004660:	19950513          	addi	a0,a0,409
    80004664:	00a51513          	slli	a0,a0,0xa
    80004668:	26650513          	addi	a0,a0,614
    8000466c:	aaaab5b7          	lui	a1,0xaaaab
    80004670:	aaa58593          	addi	a1,a1,-1366 # ffffffffaaaaaaaa <absimm+0xfffffffeefd9cfda>
    80004674:	00b59593          	slli	a1,a1,0xb
    80004678:	55558593          	addi	a1,a1,1365
    8000467c:	00b59593          	slli	a1,a1,0xb
    80004680:	2aa58593          	addi	a1,a1,682
    80004684:	00a59593          	slli	a1,a1,0xa
    80004688:	2ab58593          	addi	a1,a1,683
    8000468c:	40b5063b          	subw	a2,a0,a1
    80004690:	16c2b023          	sd	a2,352(t0)
    80004694:	bbbbc6b7          	lui	a3,0xbbbbc
    80004698:	bbb6869b          	addiw	a3,a3,-1093 # ffffffffbbbbbbbb <absimm+0xffffffff00eae0eb>
    8000469c:	00c68463          	beq	a3,a2,800046a4 <inst_319>
    800046a0:	985fb06f          	j	80000024 <rvtest_error>

00000000800046a4 <inst_319>:
    800046a4:	66666537          	lui	a0,0x66666
    800046a8:	66650513          	addi	a0,a0,1638 # 66666666 <absimmsh+0x5ab958b9>
    800046ac:	00b51513          	slli	a0,a0,0xb
    800046b0:	33350513          	addi	a0,a0,819
    800046b4:	00b51513          	slli	a0,a0,0xb
    800046b8:	19950513          	addi	a0,a0,409
    800046bc:	00a51513          	slli	a0,a0,0xa
    800046c0:	26650513          	addi	a0,a0,614
    800046c4:	00600593          	li	a1,6
    800046c8:	40b5063b          	subw	a2,a0,a1
    800046cc:	16c2b423          	sd	a2,360(t0)
    800046d0:	666666b7          	lui	a3,0x66666
    800046d4:	6606869b          	addiw	a3,a3,1632 # 66666660 <absimmsh+0x5ab958b3>
    800046d8:	00c68463          	beq	a3,a2,800046e0 <inst_320>
    800046dc:	949fb06f          	j	80000024 <rvtest_error>

00000000800046e0 <inst_320>:
    800046e0:	66666537          	lui	a0,0x66666
    800046e4:	66650513          	addi	a0,a0,1638 # 66666666 <absimmsh+0x5ab958b9>
    800046e8:	00b51513          	slli	a0,a0,0xb
    800046ec:	33350513          	addi	a0,a0,819
    800046f0:	00b51513          	slli	a0,a0,0xb
    800046f4:	19950513          	addi	a0,a0,409
    800046f8:	00a51513          	slli	a0,a0,0xa
    800046fc:	26650513          	addi	a0,a0,614
    80004700:	333335b7          	lui	a1,0x33333
    80004704:	33358593          	addi	a1,a1,819 # 33333333 <absimmsh+0x27862586>
    80004708:	00b59593          	slli	a1,a1,0xb
    8000470c:	19958593          	addi	a1,a1,409
    80004710:	00b59593          	slli	a1,a1,0xb
    80004714:	4cc58593          	addi	a1,a1,1228
    80004718:	00a59593          	slli	a1,a1,0xa
    8000471c:	33458593          	addi	a1,a1,820
    80004720:	40b5063b          	subw	a2,a0,a1
    80004724:	16c2b823          	sd	a2,368(t0)
    80004728:	333336b7          	lui	a3,0x33333
    8000472c:	3326869b          	addiw	a3,a3,818 # 33333332 <absimmsh+0x27862585>
    80004730:	00c68463          	beq	a3,a2,80004738 <inst_321>
    80004734:	8f1fb06f          	j	80000024 <rvtest_error>

0000000080004738 <inst_321>:
    80004738:	66666537          	lui	a0,0x66666
    8000473c:	66650513          	addi	a0,a0,1638 # 66666666 <absimmsh+0x5ab958b9>
    80004740:	00b51513          	slli	a0,a0,0xb
    80004744:	33350513          	addi	a0,a0,819
    80004748:	00b51513          	slli	a0,a0,0xb
    8000474c:	19950513          	addi	a0,a0,409
    80004750:	00a51513          	slli	a0,a0,0xa
    80004754:	26650513          	addi	a0,a0,614
    80004758:	666665b7          	lui	a1,0x66666
    8000475c:	66658593          	addi	a1,a1,1638 # 66666666 <absimmsh+0x5ab958b9>
    80004760:	00b59593          	slli	a1,a1,0xb
    80004764:	33358593          	addi	a1,a1,819
    80004768:	00b59593          	slli	a1,a1,0xb
    8000476c:	19958593          	addi	a1,a1,409
    80004770:	00a59593          	slli	a1,a1,0xa
    80004774:	26758593          	addi	a1,a1,615
    80004778:	40b5063b          	subw	a2,a0,a1
    8000477c:	16c2bc23          	sd	a2,376(t0)
    80004780:	fff00693          	li	a3,-1
    80004784:	00c68463          	beq	a3,a2,8000478c <inst_322>
    80004788:	89dfb06f          	j	80000024 <rvtest_error>

000000008000478c <inst_322>:
    8000478c:	66666537          	lui	a0,0x66666
    80004790:	66650513          	addi	a0,a0,1638 # 66666666 <absimmsh+0x5ab958b9>
    80004794:	00b51513          	slli	a0,a0,0xb
    80004798:	33350513          	addi	a0,a0,819
    8000479c:	00b51513          	slli	a0,a0,0xb
    800047a0:	19950513          	addi	a0,a0,409
    800047a4:	00a51513          	slli	a0,a0,0xa
    800047a8:	26650513          	addi	a0,a0,614
    800047ac:	000005b7          	lui	a1,0x0
    800047b0:	fff58593          	addi	a1,a1,-1
    800047b4:	00b59593          	slli	a1,a1,0xb
    800047b8:	25758593          	addi	a1,a1,599
    800047bc:	00b59593          	slli	a1,a1,0xb
    800047c0:	6c358593          	addi	a1,a1,1731
    800047c4:	00a59593          	slli	a1,a1,0xa
    800047c8:	0ce58593          	addi	a1,a1,206
    800047cc:	40b5063b          	subw	a2,a0,a1
    800047d0:	18c2b023          	sd	a2,384(t0)
    800047d4:	1b6b66b7          	lui	a3,0x1b6b6
    800047d8:	9986869b          	addiw	a3,a3,-1640 # 1b6b5998 <absimmsh+0xfbe4beb>
    800047dc:	00c68463          	beq	a3,a2,800047e4 <inst_323>
    800047e0:	845fb06f          	j	80000024 <rvtest_error>

00000000800047e4 <inst_323>:
    800047e4:	66666537          	lui	a0,0x66666
    800047e8:	66650513          	addi	a0,a0,1638 # 66666666 <absimmsh+0x5ab958b9>
    800047ec:	00b51513          	slli	a0,a0,0xb
    800047f0:	33350513          	addi	a0,a0,819
    800047f4:	00b51513          	slli	a0,a0,0xb
    800047f8:	19950513          	addi	a0,a0,409
    800047fc:	00a51513          	slli	a0,a0,0xa
    80004800:	26650513          	addi	a0,a0,614
    80004804:	000005b7          	lui	a1,0x0
    80004808:	00058593          	mv	a1,a1
    8000480c:	00b59593          	slli	a1,a1,0xb
    80004810:	5a858593          	addi	a1,a1,1448 # 5a8 <offset+0x108>
    80004814:	00b59593          	slli	a1,a1,0xb
    80004818:	13c58593          	addi	a1,a1,316
    8000481c:	00a59593          	slli	a1,a1,0xa
    80004820:	33458593          	addi	a1,a1,820
    80004824:	40b5063b          	subw	a2,a0,a1
    80004828:	18c2b423          	sd	a2,392(t0)
    8000482c:	b16176b7          	lui	a3,0xb1617
    80004830:	3326869b          	addiw	a3,a3,818 # ffffffffb1617332 <absimm+0xfffffffef6909862>
    80004834:	00c68463          	beq	a3,a2,8000483c <inst_324>
    80004838:	fecfb06f          	j	80000024 <rvtest_error>

000000008000483c <inst_324>:
    8000483c:	00000537          	lui	a0,0x0
    80004840:	fff50513          	addi	a0,a0,-1
    80004844:	00b51513          	slli	a0,a0,0xb
    80004848:	25750513          	addi	a0,a0,599
    8000484c:	00b51513          	slli	a0,a0,0xb
    80004850:	6c350513          	addi	a0,a0,1731
    80004854:	00a51513          	slli	a0,a0,0xa
    80004858:	0cd50513          	addi	a0,a0,205
    8000485c:	00300593          	li	a1,3
    80004860:	40b5063b          	subw	a2,a0,a1
    80004864:	18c2b823          	sd	a2,400(t0)
    80004868:	4afb16b7          	lui	a3,0x4afb1
    8000486c:	cca6869b          	addiw	a3,a3,-822 # 4afb0cca <absimmsh+0x3f4dff1d>
    80004870:	00c68463          	beq	a3,a2,80004878 <inst_325>
    80004874:	fb0fb06f          	j	80000024 <rvtest_error>

0000000080004878 <inst_325>:
    80004878:	00000537          	lui	a0,0x0
    8000487c:	fff50513          	addi	a0,a0,-1
    80004880:	00b51513          	slli	a0,a0,0xb
    80004884:	25750513          	addi	a0,a0,599
    80004888:	00b51513          	slli	a0,a0,0xb
    8000488c:	6c350513          	addi	a0,a0,1731
    80004890:	00a51513          	slli	a0,a0,0xa
    80004894:	0cd50513          	addi	a0,a0,205
    80004898:	555555b7          	lui	a1,0x55555
    8000489c:	55558593          	addi	a1,a1,1365 # 55555555 <absimmsh+0x49a847a8>
    800048a0:	00b59593          	slli	a1,a1,0xb
    800048a4:	2aa58593          	addi	a1,a1,682
    800048a8:	00b59593          	slli	a1,a1,0xb
    800048ac:	55558593          	addi	a1,a1,1365
    800048b0:	00a59593          	slli	a1,a1,0xa
    800048b4:	15558593          	addi	a1,a1,341
    800048b8:	40b5063b          	subw	a2,a0,a1
    800048bc:	18c2bc23          	sd	a2,408(t0)
    800048c0:	f5a5b6b7          	lui	a3,0xf5a5b
    800048c4:	7786869b          	addiw	a3,a3,1912 # fffffffff5a5b778 <absimm+0xffffffff3ad4dca8>
    800048c8:	00c68463          	beq	a3,a2,800048d0 <inst_326>
    800048cc:	f58fb06f          	j	80000024 <rvtest_error>

00000000800048d0 <inst_326>:
    800048d0:	00000537          	lui	a0,0x0
    800048d4:	fff50513          	addi	a0,a0,-1
    800048d8:	00b51513          	slli	a0,a0,0xb
    800048dc:	25750513          	addi	a0,a0,599
    800048e0:	00b51513          	slli	a0,a0,0xb
    800048e4:	6c350513          	addi	a0,a0,1731
    800048e8:	00a51513          	slli	a0,a0,0xa
    800048ec:	0cd50513          	addi	a0,a0,205
    800048f0:	aaaab5b7          	lui	a1,0xaaaab
    800048f4:	aaa58593          	addi	a1,a1,-1366 # ffffffffaaaaaaaa <absimm+0xfffffffeefd9cfda>
    800048f8:	00b59593          	slli	a1,a1,0xb
    800048fc:	55558593          	addi	a1,a1,1365
    80004900:	00b59593          	slli	a1,a1,0xb
    80004904:	2aa58593          	addi	a1,a1,682
    80004908:	00a59593          	slli	a1,a1,0xa
    8000490c:	2aa58593          	addi	a1,a1,682
    80004910:	40b5063b          	subw	a2,a0,a1
    80004914:	1ac2b023          	sd	a2,416(t0)
    80004918:	a05066b7          	lui	a3,0xa0506
    8000491c:	2236869b          	addiw	a3,a3,547 # ffffffffa0506223 <absimm+0xfffffffee57f8753>
    80004920:	00c68463          	beq	a3,a2,80004928 <inst_327>
    80004924:	f00fb06f          	j	80000024 <rvtest_error>

0000000080004928 <inst_327>:
    80004928:	00000537          	lui	a0,0x0
    8000492c:	fff50513          	addi	a0,a0,-1
    80004930:	00b51513          	slli	a0,a0,0xb
    80004934:	25750513          	addi	a0,a0,599
    80004938:	00b51513          	slli	a0,a0,0xb
    8000493c:	6c350513          	addi	a0,a0,1731
    80004940:	00a51513          	slli	a0,a0,0xa
    80004944:	0cd50513          	addi	a0,a0,205
    80004948:	00500593          	li	a1,5
    8000494c:	40b5063b          	subw	a2,a0,a1
    80004950:	1ac2b423          	sd	a2,424(t0)
    80004954:	4afb16b7          	lui	a3,0x4afb1
    80004958:	cc86869b          	addiw	a3,a3,-824 # 4afb0cc8 <absimmsh+0x3f4dff1b>
    8000495c:	00c68463          	beq	a3,a2,80004964 <inst_328>
    80004960:	ec4fb06f          	j	80000024 <rvtest_error>

0000000080004964 <inst_328>:
    80004964:	00000537          	lui	a0,0x0
    80004968:	fff50513          	addi	a0,a0,-1
    8000496c:	00b51513          	slli	a0,a0,0xb
    80004970:	25750513          	addi	a0,a0,599
    80004974:	00b51513          	slli	a0,a0,0xb
    80004978:	6c350513          	addi	a0,a0,1731
    8000497c:	00a51513          	slli	a0,a0,0xa
    80004980:	0cd50513          	addi	a0,a0,205
    80004984:	333335b7          	lui	a1,0x33333
    80004988:	33358593          	addi	a1,a1,819 # 33333333 <absimmsh+0x27862586>
    8000498c:	00b59593          	slli	a1,a1,0xb
    80004990:	19958593          	addi	a1,a1,409
    80004994:	00b59593          	slli	a1,a1,0xb
    80004998:	4cc58593          	addi	a1,a1,1228
    8000499c:	00a59593          	slli	a1,a1,0xa
    800049a0:	33358593          	addi	a1,a1,819
    800049a4:	40b5063b          	subw	a2,a0,a1
    800049a8:	1ac2b823          	sd	a2,432(t0)
    800049ac:	17c7e6b7          	lui	a3,0x17c7e
    800049b0:	99a6869b          	addiw	a3,a3,-1638 # 17c7d99a <absimmsh+0xc1acbed>
    800049b4:	00c68463          	beq	a3,a2,800049bc <inst_329>
    800049b8:	e6cfb06f          	j	80000024 <rvtest_error>

00000000800049bc <inst_329>:
    800049bc:	00000537          	lui	a0,0x0
    800049c0:	fff50513          	addi	a0,a0,-1
    800049c4:	00b51513          	slli	a0,a0,0xb
    800049c8:	25750513          	addi	a0,a0,599
    800049cc:	00b51513          	slli	a0,a0,0xb
    800049d0:	6c350513          	addi	a0,a0,1731
    800049d4:	00a51513          	slli	a0,a0,0xa
    800049d8:	0cd50513          	addi	a0,a0,205
    800049dc:	666665b7          	lui	a1,0x66666
    800049e0:	66658593          	addi	a1,a1,1638 # 66666666 <absimmsh+0x5ab958b9>
    800049e4:	00b59593          	slli	a1,a1,0xb
    800049e8:	33358593          	addi	a1,a1,819
    800049ec:	00b59593          	slli	a1,a1,0xb
    800049f0:	19958593          	addi	a1,a1,409
    800049f4:	00a59593          	slli	a1,a1,0xa
    800049f8:	26658593          	addi	a1,a1,614
    800049fc:	40b5063b          	subw	a2,a0,a1
    80004a00:	1ac2bc23          	sd	a2,440(t0)
    80004a04:	e494a6b7          	lui	a3,0xe494a
    80004a08:	6676869b          	addiw	a3,a3,1639 # ffffffffe494a667 <absimm+0xffffffff29c3cb97>
    80004a0c:	00c68463          	beq	a3,a2,80004a14 <inst_330>
    80004a10:	e14fb06f          	j	80000024 <rvtest_error>

0000000080004a14 <inst_330>:
    80004a14:	00000537          	lui	a0,0x0
    80004a18:	fff50513          	addi	a0,a0,-1
    80004a1c:	00b51513          	slli	a0,a0,0xb
    80004a20:	25750513          	addi	a0,a0,599
    80004a24:	00b51513          	slli	a0,a0,0xb
    80004a28:	6c350513          	addi	a0,a0,1731
    80004a2c:	00a51513          	slli	a0,a0,0xa
    80004a30:	0cd50513          	addi	a0,a0,205
    80004a34:	000005b7          	lui	a1,0x0
    80004a38:	fff58593          	addi	a1,a1,-1
    80004a3c:	00b59593          	slli	a1,a1,0xb
    80004a40:	25758593          	addi	a1,a1,599
    80004a44:	00b59593          	slli	a1,a1,0xb
    80004a48:	6c358593          	addi	a1,a1,1731
    80004a4c:	00a59593          	slli	a1,a1,0xa
    80004a50:	0cd58593          	addi	a1,a1,205
    80004a54:	40b5063b          	subw	a2,a0,a1
    80004a58:	1cc2b023          	sd	a2,448(t0)
    80004a5c:	00000693          	li	a3,0
    80004a60:	00c68463          	beq	a3,a2,80004a68 <inst_331>
    80004a64:	dc0fb06f          	j	80000024 <rvtest_error>

0000000080004a68 <inst_331>:
    80004a68:	00000537          	lui	a0,0x0
    80004a6c:	fff50513          	addi	a0,a0,-1
    80004a70:	00b51513          	slli	a0,a0,0xb
    80004a74:	25750513          	addi	a0,a0,599
    80004a78:	00b51513          	slli	a0,a0,0xb
    80004a7c:	6c350513          	addi	a0,a0,1731
    80004a80:	00a51513          	slli	a0,a0,0xa
    80004a84:	0cd50513          	addi	a0,a0,205
    80004a88:	000005b7          	lui	a1,0x0
    80004a8c:	00058593          	mv	a1,a1
    80004a90:	00b59593          	slli	a1,a1,0xb
    80004a94:	5a858593          	addi	a1,a1,1448 # 5a8 <offset+0x108>
    80004a98:	00b59593          	slli	a1,a1,0xb
    80004a9c:	13c58593          	addi	a1,a1,316
    80004aa0:	00a59593          	slli	a1,a1,0xa
    80004aa4:	33358593          	addi	a1,a1,819
    80004aa8:	40b5063b          	subw	a2,a0,a1
    80004aac:	1cc2b423          	sd	a2,456(t0)
    80004ab0:	95f626b7          	lui	a3,0x95f62
    80004ab4:	99a6869b          	addiw	a3,a3,-1638 # ffffffff95f6199a <absimm+0xfffffffedb253eca>
    80004ab8:	00c68463          	beq	a3,a2,80004ac0 <inst_332>
    80004abc:	d68fb06f          	j	80000024 <rvtest_error>

0000000080004ac0 <inst_332>:
    80004ac0:	00000537          	lui	a0,0x0
    80004ac4:	fff50513          	addi	a0,a0,-1
    80004ac8:	00b51513          	slli	a0,a0,0xb
    80004acc:	25750513          	addi	a0,a0,599
    80004ad0:	00b51513          	slli	a0,a0,0xb
    80004ad4:	6c350513          	addi	a0,a0,1731
    80004ad8:	00a51513          	slli	a0,a0,0xa
    80004adc:	0cd50513          	addi	a0,a0,205
    80004ae0:	00200593          	li	a1,2
    80004ae4:	40b5063b          	subw	a2,a0,a1
    80004ae8:	1cc2b823          	sd	a2,464(t0)
    80004aec:	4afb16b7          	lui	a3,0x4afb1
    80004af0:	ccb6869b          	addiw	a3,a3,-821 # 4afb0ccb <absimmsh+0x3f4dff1e>
    80004af4:	00c68463          	beq	a3,a2,80004afc <inst_333>
    80004af8:	d2cfb06f          	j	80000024 <rvtest_error>

0000000080004afc <inst_333>:
    80004afc:	00000537          	lui	a0,0x0
    80004b00:	fff50513          	addi	a0,a0,-1
    80004b04:	00b51513          	slli	a0,a0,0xb
    80004b08:	25750513          	addi	a0,a0,599
    80004b0c:	00b51513          	slli	a0,a0,0xb
    80004b10:	6c350513          	addi	a0,a0,1731
    80004b14:	00a51513          	slli	a0,a0,0xa
    80004b18:	0cd50513          	addi	a0,a0,205
    80004b1c:	555555b7          	lui	a1,0x55555
    80004b20:	55558593          	addi	a1,a1,1365 # 55555555 <absimmsh+0x49a847a8>
    80004b24:	00b59593          	slli	a1,a1,0xb
    80004b28:	2aa58593          	addi	a1,a1,682
    80004b2c:	00b59593          	slli	a1,a1,0xb
    80004b30:	55558593          	addi	a1,a1,1365
    80004b34:	00a59593          	slli	a1,a1,0xa
    80004b38:	15458593          	addi	a1,a1,340
    80004b3c:	40b5063b          	subw	a2,a0,a1
    80004b40:	1cc2bc23          	sd	a2,472(t0)
    80004b44:	f5a5b6b7          	lui	a3,0xf5a5b
    80004b48:	7796869b          	addiw	a3,a3,1913 # fffffffff5a5b779 <absimm+0xffffffff3ad4dca9>
    80004b4c:	00c68463          	beq	a3,a2,80004b54 <inst_334>
    80004b50:	cd4fb06f          	j	80000024 <rvtest_error>

0000000080004b54 <inst_334>:
    80004b54:	00000537          	lui	a0,0x0
    80004b58:	fff50513          	addi	a0,a0,-1
    80004b5c:	00b51513          	slli	a0,a0,0xb
    80004b60:	25750513          	addi	a0,a0,599
    80004b64:	00b51513          	slli	a0,a0,0xb
    80004b68:	6c350513          	addi	a0,a0,1731
    80004b6c:	00a51513          	slli	a0,a0,0xa
    80004b70:	0cd50513          	addi	a0,a0,205
    80004b74:	00000593          	li	a1,0
    80004b78:	40b5063b          	subw	a2,a0,a1
    80004b7c:	1ec2b023          	sd	a2,480(t0)
    80004b80:	4afb16b7          	lui	a3,0x4afb1
    80004b84:	ccd6869b          	addiw	a3,a3,-819 # 4afb0ccd <absimmsh+0x3f4dff20>
    80004b88:	00c68463          	beq	a3,a2,80004b90 <inst_335>
    80004b8c:	c98fb06f          	j	80000024 <rvtest_error>

0000000080004b90 <inst_335>:
    80004b90:	00000537          	lui	a0,0x0
    80004b94:	fff50513          	addi	a0,a0,-1
    80004b98:	00b51513          	slli	a0,a0,0xb
    80004b9c:	25750513          	addi	a0,a0,599
    80004ba0:	00b51513          	slli	a0,a0,0xb
    80004ba4:	6c350513          	addi	a0,a0,1731
    80004ba8:	00a51513          	slli	a0,a0,0xa
    80004bac:	0cd50513          	addi	a0,a0,205
    80004bb0:	00400593          	li	a1,4
    80004bb4:	40b5063b          	subw	a2,a0,a1
    80004bb8:	1ec2b423          	sd	a2,488(t0)
    80004bbc:	4afb16b7          	lui	a3,0x4afb1
    80004bc0:	cc96869b          	addiw	a3,a3,-823 # 4afb0cc9 <absimmsh+0x3f4dff1c>
    80004bc4:	00c68463          	beq	a3,a2,80004bcc <inst_336>
    80004bc8:	c5cfb06f          	j	80000024 <rvtest_error>

0000000080004bcc <inst_336>:
    80004bcc:	00000537          	lui	a0,0x0
    80004bd0:	fff50513          	addi	a0,a0,-1
    80004bd4:	00b51513          	slli	a0,a0,0xb
    80004bd8:	25750513          	addi	a0,a0,599
    80004bdc:	00b51513          	slli	a0,a0,0xb
    80004be0:	6c350513          	addi	a0,a0,1731
    80004be4:	00a51513          	slli	a0,a0,0xa
    80004be8:	0cd50513          	addi	a0,a0,205
    80004bec:	333335b7          	lui	a1,0x33333
    80004bf0:	33358593          	addi	a1,a1,819 # 33333333 <absimmsh+0x27862586>
    80004bf4:	00b59593          	slli	a1,a1,0xb
    80004bf8:	19958593          	addi	a1,a1,409
    80004bfc:	00b59593          	slli	a1,a1,0xb
    80004c00:	4cc58593          	addi	a1,a1,1228
    80004c04:	00a59593          	slli	a1,a1,0xa
    80004c08:	33258593          	addi	a1,a1,818
    80004c0c:	40b5063b          	subw	a2,a0,a1
    80004c10:	1ec2b823          	sd	a2,496(t0)
    80004c14:	17c7e6b7          	lui	a3,0x17c7e
    80004c18:	99b6869b          	addiw	a3,a3,-1637 # 17c7d99b <absimmsh+0xc1acbee>
    80004c1c:	00c68463          	beq	a3,a2,80004c24 <inst_337>
    80004c20:	c04fb06f          	j	80000024 <rvtest_error>

0000000080004c24 <inst_337>:
    80004c24:	00000537          	lui	a0,0x0
    80004c28:	fff50513          	addi	a0,a0,-1
    80004c2c:	00b51513          	slli	a0,a0,0xb
    80004c30:	25750513          	addi	a0,a0,599
    80004c34:	00b51513          	slli	a0,a0,0xb
    80004c38:	6c350513          	addi	a0,a0,1731
    80004c3c:	00a51513          	slli	a0,a0,0xa
    80004c40:	0cd50513          	addi	a0,a0,205
    80004c44:	666665b7          	lui	a1,0x66666
    80004c48:	66658593          	addi	a1,a1,1638 # 66666666 <absimmsh+0x5ab958b9>
    80004c4c:	00b59593          	slli	a1,a1,0xb
    80004c50:	33358593          	addi	a1,a1,819
    80004c54:	00b59593          	slli	a1,a1,0xb
    80004c58:	19958593          	addi	a1,a1,409
    80004c5c:	00a59593          	slli	a1,a1,0xa
    80004c60:	26558593          	addi	a1,a1,613
    80004c64:	40b5063b          	subw	a2,a0,a1
    80004c68:	1ec2bc23          	sd	a2,504(t0)
    80004c6c:	e494a6b7          	lui	a3,0xe494a
    80004c70:	6686869b          	addiw	a3,a3,1640 # ffffffffe494a668 <absimm+0xffffffff29c3cb98>
    80004c74:	00c68463          	beq	a3,a2,80004c7c <inst_338>
    80004c78:	bacfb06f          	j	80000024 <rvtest_error>

0000000080004c7c <inst_338>:
    80004c7c:	00000537          	lui	a0,0x0
    80004c80:	fff50513          	addi	a0,a0,-1
    80004c84:	00b51513          	slli	a0,a0,0xb
    80004c88:	25750513          	addi	a0,a0,599
    80004c8c:	00b51513          	slli	a0,a0,0xb
    80004c90:	6c350513          	addi	a0,a0,1731
    80004c94:	00a51513          	slli	a0,a0,0xa
    80004c98:	0cd50513          	addi	a0,a0,205
    80004c9c:	000005b7          	lui	a1,0x0
    80004ca0:	00058593          	mv	a1,a1
    80004ca4:	00b59593          	slli	a1,a1,0xb
    80004ca8:	5a858593          	addi	a1,a1,1448 # 5a8 <offset+0x108>
    80004cac:	00b59593          	slli	a1,a1,0xb
    80004cb0:	13c58593          	addi	a1,a1,316
    80004cb4:	00a59593          	slli	a1,a1,0xa
    80004cb8:	33258593          	addi	a1,a1,818
    80004cbc:	40b5063b          	subw	a2,a0,a1
    80004cc0:	20c2b023          	sd	a2,512(t0)
    80004cc4:	95f626b7          	lui	a3,0x95f62
    80004cc8:	99b6869b          	addiw	a3,a3,-1637 # ffffffff95f6199b <absimm+0xfffffffedb253ecb>
    80004ccc:	00c68463          	beq	a3,a2,80004cd4 <inst_339>
    80004cd0:	b54fb06f          	j	80000024 <rvtest_error>

0000000080004cd4 <inst_339>:
    80004cd4:	00000537          	lui	a0,0x0
    80004cd8:	fff50513          	addi	a0,a0,-1
    80004cdc:	00b51513          	slli	a0,a0,0xb
    80004ce0:	25750513          	addi	a0,a0,599
    80004ce4:	00b51513          	slli	a0,a0,0xb
    80004ce8:	6c350513          	addi	a0,a0,1731
    80004cec:	00a51513          	slli	a0,a0,0xa
    80004cf0:	0cd50513          	addi	a0,a0,205
    80004cf4:	555555b7          	lui	a1,0x55555
    80004cf8:	55558593          	addi	a1,a1,1365 # 55555555 <absimmsh+0x49a847a8>
    80004cfc:	00b59593          	slli	a1,a1,0xb
    80004d00:	2aa58593          	addi	a1,a1,682
    80004d04:	00b59593          	slli	a1,a1,0xb
    80004d08:	55558593          	addi	a1,a1,1365
    80004d0c:	00a59593          	slli	a1,a1,0xa
    80004d10:	15658593          	addi	a1,a1,342
    80004d14:	40b5063b          	subw	a2,a0,a1
    80004d18:	20c2b423          	sd	a2,520(t0)
    80004d1c:	f5a5b6b7          	lui	a3,0xf5a5b
    80004d20:	7776869b          	addiw	a3,a3,1911 # fffffffff5a5b777 <absimm+0xffffffff3ad4dca7>
    80004d24:	00c68463          	beq	a3,a2,80004d2c <inst_340>
    80004d28:	afcfb06f          	j	80000024 <rvtest_error>

0000000080004d2c <inst_340>:
    80004d2c:	00000537          	lui	a0,0x0
    80004d30:	fff50513          	addi	a0,a0,-1
    80004d34:	00b51513          	slli	a0,a0,0xb
    80004d38:	25750513          	addi	a0,a0,599
    80004d3c:	00b51513          	slli	a0,a0,0xb
    80004d40:	6c350513          	addi	a0,a0,1731
    80004d44:	00a51513          	slli	a0,a0,0xa
    80004d48:	0cd50513          	addi	a0,a0,205
    80004d4c:	aaaab5b7          	lui	a1,0xaaaab
    80004d50:	aaa58593          	addi	a1,a1,-1366 # ffffffffaaaaaaaa <absimm+0xfffffffeefd9cfda>
    80004d54:	00b59593          	slli	a1,a1,0xb
    80004d58:	55558593          	addi	a1,a1,1365
    80004d5c:	00b59593          	slli	a1,a1,0xb
    80004d60:	2aa58593          	addi	a1,a1,682
    80004d64:	00a59593          	slli	a1,a1,0xa
    80004d68:	2ab58593          	addi	a1,a1,683
    80004d6c:	40b5063b          	subw	a2,a0,a1
    80004d70:	20c2b823          	sd	a2,528(t0)
    80004d74:	a05066b7          	lui	a3,0xa0506
    80004d78:	2226869b          	addiw	a3,a3,546 # ffffffffa0506222 <absimm+0xfffffffee57f8752>
    80004d7c:	00c68463          	beq	a3,a2,80004d84 <inst_341>
    80004d80:	aa4fb06f          	j	80000024 <rvtest_error>

0000000080004d84 <inst_341>:
    80004d84:	00000537          	lui	a0,0x0
    80004d88:	fff50513          	addi	a0,a0,-1
    80004d8c:	00b51513          	slli	a0,a0,0xb
    80004d90:	25750513          	addi	a0,a0,599
    80004d94:	00b51513          	slli	a0,a0,0xb
    80004d98:	6c350513          	addi	a0,a0,1731
    80004d9c:	00a51513          	slli	a0,a0,0xa
    80004da0:	0cd50513          	addi	a0,a0,205
    80004da4:	00600593          	li	a1,6
    80004da8:	40b5063b          	subw	a2,a0,a1
    80004dac:	20c2bc23          	sd	a2,536(t0)
    80004db0:	4afb16b7          	lui	a3,0x4afb1
    80004db4:	cc76869b          	addiw	a3,a3,-825 # 4afb0cc7 <absimmsh+0x3f4dff1a>
    80004db8:	00c68463          	beq	a3,a2,80004dc0 <inst_342>
    80004dbc:	a68fb06f          	j	80000024 <rvtest_error>

0000000080004dc0 <inst_342>:
    80004dc0:	00000537          	lui	a0,0x0
    80004dc4:	fff50513          	addi	a0,a0,-1
    80004dc8:	00b51513          	slli	a0,a0,0xb
    80004dcc:	25750513          	addi	a0,a0,599
    80004dd0:	00b51513          	slli	a0,a0,0xb
    80004dd4:	6c350513          	addi	a0,a0,1731
    80004dd8:	00a51513          	slli	a0,a0,0xa
    80004ddc:	0cd50513          	addi	a0,a0,205
    80004de0:	333335b7          	lui	a1,0x33333
    80004de4:	33358593          	addi	a1,a1,819 # 33333333 <absimmsh+0x27862586>
    80004de8:	00b59593          	slli	a1,a1,0xb
    80004dec:	19958593          	addi	a1,a1,409
    80004df0:	00b59593          	slli	a1,a1,0xb
    80004df4:	4cc58593          	addi	a1,a1,1228
    80004df8:	00a59593          	slli	a1,a1,0xa
    80004dfc:	33458593          	addi	a1,a1,820
    80004e00:	40b5063b          	subw	a2,a0,a1
    80004e04:	22c2b023          	sd	a2,544(t0)
    80004e08:	17c7e6b7          	lui	a3,0x17c7e
    80004e0c:	9996869b          	addiw	a3,a3,-1639 # 17c7d999 <absimmsh+0xc1acbec>
    80004e10:	00c68463          	beq	a3,a2,80004e18 <inst_343>
    80004e14:	a10fb06f          	j	80000024 <rvtest_error>

0000000080004e18 <inst_343>:
    80004e18:	00000537          	lui	a0,0x0
    80004e1c:	fff50513          	addi	a0,a0,-1
    80004e20:	00b51513          	slli	a0,a0,0xb
    80004e24:	25750513          	addi	a0,a0,599
    80004e28:	00b51513          	slli	a0,a0,0xb
    80004e2c:	6c350513          	addi	a0,a0,1731
    80004e30:	00a51513          	slli	a0,a0,0xa
    80004e34:	0cd50513          	addi	a0,a0,205
    80004e38:	666665b7          	lui	a1,0x66666
    80004e3c:	66658593          	addi	a1,a1,1638 # 66666666 <absimmsh+0x5ab958b9>
    80004e40:	00b59593          	slli	a1,a1,0xb
    80004e44:	33358593          	addi	a1,a1,819
    80004e48:	00b59593          	slli	a1,a1,0xb
    80004e4c:	19958593          	addi	a1,a1,409
    80004e50:	00a59593          	slli	a1,a1,0xa
    80004e54:	26758593          	addi	a1,a1,615
    80004e58:	40b5063b          	subw	a2,a0,a1
    80004e5c:	22c2b423          	sd	a2,552(t0)
    80004e60:	e494a6b7          	lui	a3,0xe494a
    80004e64:	6666869b          	addiw	a3,a3,1638 # ffffffffe494a666 <absimm+0xffffffff29c3cb96>
    80004e68:	00c68463          	beq	a3,a2,80004e70 <inst_344>
    80004e6c:	9b8fb06f          	j	80000024 <rvtest_error>

0000000080004e70 <inst_344>:
    80004e70:	00000537          	lui	a0,0x0
    80004e74:	fff50513          	addi	a0,a0,-1
    80004e78:	00b51513          	slli	a0,a0,0xb
    80004e7c:	25750513          	addi	a0,a0,599
    80004e80:	00b51513          	slli	a0,a0,0xb
    80004e84:	6c350513          	addi	a0,a0,1731
    80004e88:	00a51513          	slli	a0,a0,0xa
    80004e8c:	0cd50513          	addi	a0,a0,205
    80004e90:	000005b7          	lui	a1,0x0
    80004e94:	fff58593          	addi	a1,a1,-1
    80004e98:	00b59593          	slli	a1,a1,0xb
    80004e9c:	25758593          	addi	a1,a1,599
    80004ea0:	00b59593          	slli	a1,a1,0xb
    80004ea4:	6c358593          	addi	a1,a1,1731
    80004ea8:	00a59593          	slli	a1,a1,0xa
    80004eac:	0ce58593          	addi	a1,a1,206
    80004eb0:	40b5063b          	subw	a2,a0,a1
    80004eb4:	22c2b823          	sd	a2,560(t0)
    80004eb8:	fff00693          	li	a3,-1
    80004ebc:	00c68463          	beq	a3,a2,80004ec4 <inst_345>
    80004ec0:	964fb06f          	j	80000024 <rvtest_error>

0000000080004ec4 <inst_345>:
    80004ec4:	00000537          	lui	a0,0x0
    80004ec8:	fff50513          	addi	a0,a0,-1
    80004ecc:	00b51513          	slli	a0,a0,0xb
    80004ed0:	25750513          	addi	a0,a0,599
    80004ed4:	00b51513          	slli	a0,a0,0xb
    80004ed8:	6c350513          	addi	a0,a0,1731
    80004edc:	00a51513          	slli	a0,a0,0xa
    80004ee0:	0cd50513          	addi	a0,a0,205
    80004ee4:	000005b7          	lui	a1,0x0
    80004ee8:	00058593          	mv	a1,a1
    80004eec:	00b59593          	slli	a1,a1,0xb
    80004ef0:	5a858593          	addi	a1,a1,1448 # 5a8 <offset+0x108>
    80004ef4:	00b59593          	slli	a1,a1,0xb
    80004ef8:	13c58593          	addi	a1,a1,316
    80004efc:	00a59593          	slli	a1,a1,0xa
    80004f00:	33458593          	addi	a1,a1,820
    80004f04:	40b5063b          	subw	a2,a0,a1
    80004f08:	22c2bc23          	sd	a2,568(t0)
    80004f0c:	95f626b7          	lui	a3,0x95f62
    80004f10:	9996869b          	addiw	a3,a3,-1639 # ffffffff95f61999 <absimm+0xfffffffedb253ec9>
    80004f14:	00c68463          	beq	a3,a2,80004f1c <inst_346>
    80004f18:	90cfb06f          	j	80000024 <rvtest_error>

0000000080004f1c <inst_346>:
    80004f1c:	00000537          	lui	a0,0x0
    80004f20:	00050513          	mv	a0,a0
    80004f24:	00b51513          	slli	a0,a0,0xb
    80004f28:	5a850513          	addi	a0,a0,1448 # 5a8 <offset+0x108>
    80004f2c:	00b51513          	slli	a0,a0,0xb
    80004f30:	13c50513          	addi	a0,a0,316
    80004f34:	00a51513          	slli	a0,a0,0xa
    80004f38:	33350513          	addi	a0,a0,819
    80004f3c:	00300593          	li	a1,3
    80004f40:	40b5063b          	subw	a2,a0,a1
    80004f44:	24c2b023          	sd	a2,576(t0)
    80004f48:	b504f6b7          	lui	a3,0xb504f
    80004f4c:	3306869b          	addiw	a3,a3,816 # ffffffffb504f330 <absimm+0xfffffffefa341860>
    80004f50:	00c68463          	beq	a3,a2,80004f58 <inst_347>
    80004f54:	8d0fb06f          	j	80000024 <rvtest_error>

0000000080004f58 <inst_347>:
    80004f58:	00000537          	lui	a0,0x0
    80004f5c:	00050513          	mv	a0,a0
    80004f60:	00b51513          	slli	a0,a0,0xb
    80004f64:	5a850513          	addi	a0,a0,1448 # 5a8 <offset+0x108>
    80004f68:	00b51513          	slli	a0,a0,0xb
    80004f6c:	13c50513          	addi	a0,a0,316
    80004f70:	00a51513          	slli	a0,a0,0xa
    80004f74:	33350513          	addi	a0,a0,819
    80004f78:	555555b7          	lui	a1,0x55555
    80004f7c:	55558593          	addi	a1,a1,1365 # 55555555 <absimmsh+0x49a847a8>
    80004f80:	00b59593          	slli	a1,a1,0xb
    80004f84:	2aa58593          	addi	a1,a1,682
    80004f88:	00b59593          	slli	a1,a1,0xb
    80004f8c:	55558593          	addi	a1,a1,1365
    80004f90:	00a59593          	slli	a1,a1,0xa
    80004f94:	15558593          	addi	a1,a1,341
    80004f98:	40b5063b          	subw	a2,a0,a1
    80004f9c:	24c2b423          	sd	a2,584(t0)
    80004fa0:	5fafa6b7          	lui	a3,0x5fafa
    80004fa4:	dde6869b          	addiw	a3,a3,-546 # 5faf9dde <absimmsh+0x54029031>
    80004fa8:	00c68463          	beq	a3,a2,80004fb0 <inst_348>
    80004fac:	878fb06f          	j	80000024 <rvtest_error>

0000000080004fb0 <inst_348>:
    80004fb0:	00000537          	lui	a0,0x0
    80004fb4:	00050513          	mv	a0,a0
    80004fb8:	00b51513          	slli	a0,a0,0xb
    80004fbc:	5a850513          	addi	a0,a0,1448 # 5a8 <offset+0x108>
    80004fc0:	00b51513          	slli	a0,a0,0xb
    80004fc4:	13c50513          	addi	a0,a0,316
    80004fc8:	00a51513          	slli	a0,a0,0xa
    80004fcc:	33350513          	addi	a0,a0,819
    80004fd0:	aaaab5b7          	lui	a1,0xaaaab
    80004fd4:	aaa58593          	addi	a1,a1,-1366 # ffffffffaaaaaaaa <absimm+0xfffffffeefd9cfda>
    80004fd8:	00b59593          	slli	a1,a1,0xb
    80004fdc:	55558593          	addi	a1,a1,1365
    80004fe0:	00b59593          	slli	a1,a1,0xb
    80004fe4:	2aa58593          	addi	a1,a1,682
    80004fe8:	00a59593          	slli	a1,a1,0xa
    80004fec:	2aa58593          	addi	a1,a1,682
    80004ff0:	40b5063b          	subw	a2,a0,a1
    80004ff4:	24c2b823          	sd	a2,592(t0)
    80004ff8:	0a5a56b7          	lui	a3,0xa5a5
    80004ffc:	8896869b          	addiw	a3,a3,-1911 # a5a4889 <offset+0xa5a43e9>
    80005000:	00c68463          	beq	a3,a2,80005008 <inst_349>
    80005004:	820fb06f          	j	80000024 <rvtest_error>

0000000080005008 <inst_349>:
    80005008:	00000537          	lui	a0,0x0
    8000500c:	00050513          	mv	a0,a0
    80005010:	00b51513          	slli	a0,a0,0xb
    80005014:	5a850513          	addi	a0,a0,1448 # 5a8 <offset+0x108>
    80005018:	00b51513          	slli	a0,a0,0xb
    8000501c:	13c50513          	addi	a0,a0,316
    80005020:	00a51513          	slli	a0,a0,0xa
    80005024:	33350513          	addi	a0,a0,819
    80005028:	00500593          	li	a1,5
    8000502c:	40b5063b          	subw	a2,a0,a1
    80005030:	24c2bc23          	sd	a2,600(t0)
    80005034:	b504f6b7          	lui	a3,0xb504f
    80005038:	32e6869b          	addiw	a3,a3,814 # ffffffffb504f32e <absimm+0xfffffffefa34185e>
    8000503c:	00c68463          	beq	a3,a2,80005044 <inst_350>
    80005040:	fe5fa06f          	j	80000024 <rvtest_error>

0000000080005044 <inst_350>:
    80005044:	00000537          	lui	a0,0x0
    80005048:	00050513          	mv	a0,a0
    8000504c:	00b51513          	slli	a0,a0,0xb
    80005050:	5a850513          	addi	a0,a0,1448 # 5a8 <offset+0x108>
    80005054:	00b51513          	slli	a0,a0,0xb
    80005058:	13c50513          	addi	a0,a0,316
    8000505c:	00a51513          	slli	a0,a0,0xa
    80005060:	33350513          	addi	a0,a0,819
    80005064:	333335b7          	lui	a1,0x33333
    80005068:	33358593          	addi	a1,a1,819 # 33333333 <absimmsh+0x27862586>
    8000506c:	00b59593          	slli	a1,a1,0xb
    80005070:	19958593          	addi	a1,a1,409
    80005074:	00b59593          	slli	a1,a1,0xb
    80005078:	4cc58593          	addi	a1,a1,1228
    8000507c:	00a59593          	slli	a1,a1,0xa
    80005080:	33358593          	addi	a1,a1,819
    80005084:	40b5063b          	subw	a2,a0,a1
    80005088:	26c2b023          	sd	a2,608(t0)
    8000508c:	81d1c6b7          	lui	a3,0x81d1c
    80005090:	00c68463          	beq	a3,a2,80005098 <inst_351>
    80005094:	f91fa06f          	j	80000024 <rvtest_error>

0000000080005098 <inst_351>:
    80005098:	00000537          	lui	a0,0x0
    8000509c:	00050513          	mv	a0,a0
    800050a0:	00b51513          	slli	a0,a0,0xb
    800050a4:	5a850513          	addi	a0,a0,1448 # 5a8 <offset+0x108>
    800050a8:	00b51513          	slli	a0,a0,0xb
    800050ac:	13c50513          	addi	a0,a0,316
    800050b0:	00a51513          	slli	a0,a0,0xa
    800050b4:	33350513          	addi	a0,a0,819
    800050b8:	666665b7          	lui	a1,0x66666
    800050bc:	66658593          	addi	a1,a1,1638 # 66666666 <absimmsh+0x5ab958b9>
    800050c0:	00b59593          	slli	a1,a1,0xb
    800050c4:	33358593          	addi	a1,a1,819
    800050c8:	00b59593          	slli	a1,a1,0xb
    800050cc:	19958593          	addi	a1,a1,409
    800050d0:	00a59593          	slli	a1,a1,0xa
    800050d4:	26658593          	addi	a1,a1,614
    800050d8:	40b5063b          	subw	a2,a0,a1
    800050dc:	26c2b423          	sd	a2,616(t0)
    800050e0:	4e9e96b7          	lui	a3,0x4e9e9
    800050e4:	ccd6869b          	addiw	a3,a3,-819 # 4e9e8ccd <absimmsh+0x42f17f20>
    800050e8:	00c68463          	beq	a3,a2,800050f0 <inst_352>
    800050ec:	f39fa06f          	j	80000024 <rvtest_error>

00000000800050f0 <inst_352>:
    800050f0:	00000537          	lui	a0,0x0
    800050f4:	00050513          	mv	a0,a0
    800050f8:	00b51513          	slli	a0,a0,0xb
    800050fc:	5a850513          	addi	a0,a0,1448 # 5a8 <offset+0x108>
    80005100:	00b51513          	slli	a0,a0,0xb
    80005104:	13c50513          	addi	a0,a0,316
    80005108:	00a51513          	slli	a0,a0,0xa
    8000510c:	33350513          	addi	a0,a0,819
    80005110:	000005b7          	lui	a1,0x0
    80005114:	fff58593          	addi	a1,a1,-1
    80005118:	00b59593          	slli	a1,a1,0xb
    8000511c:	25758593          	addi	a1,a1,599
    80005120:	00b59593          	slli	a1,a1,0xb
    80005124:	6c358593          	addi	a1,a1,1731
    80005128:	00a59593          	slli	a1,a1,0xa
    8000512c:	0cd58593          	addi	a1,a1,205
    80005130:	40b5063b          	subw	a2,a0,a1
    80005134:	26c2b823          	sd	a2,624(t0)
    80005138:	6a09e6b7          	lui	a3,0x6a09e
    8000513c:	6666869b          	addiw	a3,a3,1638 # 6a09e666 <absimmsh+0x5e5cd8b9>
    80005140:	00c68463          	beq	a3,a2,80005148 <inst_353>
    80005144:	ee1fa06f          	j	80000024 <rvtest_error>

0000000080005148 <inst_353>:
    80005148:	00000537          	lui	a0,0x0
    8000514c:	00050513          	mv	a0,a0
    80005150:	00b51513          	slli	a0,a0,0xb
    80005154:	5a850513          	addi	a0,a0,1448 # 5a8 <offset+0x108>
    80005158:	00b51513          	slli	a0,a0,0xb
    8000515c:	13c50513          	addi	a0,a0,316
    80005160:	00a51513          	slli	a0,a0,0xa
    80005164:	33350513          	addi	a0,a0,819
    80005168:	000005b7          	lui	a1,0x0
    8000516c:	00058593          	mv	a1,a1
    80005170:	00b59593          	slli	a1,a1,0xb
    80005174:	5a858593          	addi	a1,a1,1448 # 5a8 <offset+0x108>
    80005178:	00b59593          	slli	a1,a1,0xb
    8000517c:	13c58593          	addi	a1,a1,316
    80005180:	00a59593          	slli	a1,a1,0xa
    80005184:	33358593          	addi	a1,a1,819
    80005188:	40b5063b          	subw	a2,a0,a1
    8000518c:	26c2bc23          	sd	a2,632(t0)
    80005190:	00000693          	li	a3,0
    80005194:	00c68463          	beq	a3,a2,8000519c <inst_354>
    80005198:	e8dfa06f          	j	80000024 <rvtest_error>

000000008000519c <inst_354>:
    8000519c:	00000537          	lui	a0,0x0
    800051a0:	00050513          	mv	a0,a0
    800051a4:	00b51513          	slli	a0,a0,0xb
    800051a8:	5a850513          	addi	a0,a0,1448 # 5a8 <offset+0x108>
    800051ac:	00b51513          	slli	a0,a0,0xb
    800051b0:	13c50513          	addi	a0,a0,316
    800051b4:	00a51513          	slli	a0,a0,0xa
    800051b8:	33350513          	addi	a0,a0,819
    800051bc:	00200593          	li	a1,2
    800051c0:	40b5063b          	subw	a2,a0,a1
    800051c4:	28c2b023          	sd	a2,640(t0)
    800051c8:	b504f6b7          	lui	a3,0xb504f
    800051cc:	3316869b          	addiw	a3,a3,817 # ffffffffb504f331 <absimm+0xfffffffefa341861>
    800051d0:	00c68463          	beq	a3,a2,800051d8 <inst_355>
    800051d4:	e51fa06f          	j	80000024 <rvtest_error>

00000000800051d8 <inst_355>:
    800051d8:	00000537          	lui	a0,0x0
    800051dc:	00050513          	mv	a0,a0
    800051e0:	00b51513          	slli	a0,a0,0xb
    800051e4:	5a850513          	addi	a0,a0,1448 # 5a8 <offset+0x108>
    800051e8:	00b51513          	slli	a0,a0,0xb
    800051ec:	13c50513          	addi	a0,a0,316
    800051f0:	00a51513          	slli	a0,a0,0xa
    800051f4:	33350513          	addi	a0,a0,819
    800051f8:	555555b7          	lui	a1,0x55555
    800051fc:	55558593          	addi	a1,a1,1365 # 55555555 <absimmsh+0x49a847a8>
    80005200:	00b59593          	slli	a1,a1,0xb
    80005204:	2aa58593          	addi	a1,a1,682
    80005208:	00b59593          	slli	a1,a1,0xb
    8000520c:	55558593          	addi	a1,a1,1365
    80005210:	00a59593          	slli	a1,a1,0xa
    80005214:	15458593          	addi	a1,a1,340
    80005218:	40b5063b          	subw	a2,a0,a1
    8000521c:	28c2b423          	sd	a2,648(t0)
    80005220:	5fafa6b7          	lui	a3,0x5fafa
    80005224:	ddf6869b          	addiw	a3,a3,-545 # 5faf9ddf <absimmsh+0x54029032>
    80005228:	00c68463          	beq	a3,a2,80005230 <inst_356>
    8000522c:	df9fa06f          	j	80000024 <rvtest_error>

0000000080005230 <inst_356>:
    80005230:	00000537          	lui	a0,0x0
    80005234:	00050513          	mv	a0,a0
    80005238:	00b51513          	slli	a0,a0,0xb
    8000523c:	5a850513          	addi	a0,a0,1448 # 5a8 <offset+0x108>
    80005240:	00b51513          	slli	a0,a0,0xb
    80005244:	13c50513          	addi	a0,a0,316
    80005248:	00a51513          	slli	a0,a0,0xa
    8000524c:	33350513          	addi	a0,a0,819
    80005250:	00000593          	li	a1,0
    80005254:	40b5063b          	subw	a2,a0,a1
    80005258:	28c2b823          	sd	a2,656(t0)
    8000525c:	b504f6b7          	lui	a3,0xb504f
    80005260:	3336869b          	addiw	a3,a3,819 # ffffffffb504f333 <absimm+0xfffffffefa341863>
    80005264:	00c68463          	beq	a3,a2,8000526c <inst_357>
    80005268:	dbdfa06f          	j	80000024 <rvtest_error>

000000008000526c <inst_357>:
    8000526c:	00000537          	lui	a0,0x0
    80005270:	00050513          	mv	a0,a0
    80005274:	00b51513          	slli	a0,a0,0xb
    80005278:	5a850513          	addi	a0,a0,1448 # 5a8 <offset+0x108>
    8000527c:	00b51513          	slli	a0,a0,0xb
    80005280:	13c50513          	addi	a0,a0,316
    80005284:	00a51513          	slli	a0,a0,0xa
    80005288:	33350513          	addi	a0,a0,819
    8000528c:	00400593          	li	a1,4
    80005290:	40b5063b          	subw	a2,a0,a1
    80005294:	28c2bc23          	sd	a2,664(t0)
    80005298:	b504f6b7          	lui	a3,0xb504f
    8000529c:	32f6869b          	addiw	a3,a3,815 # ffffffffb504f32f <absimm+0xfffffffefa34185f>
    800052a0:	00c68463          	beq	a3,a2,800052a8 <inst_358>
    800052a4:	d81fa06f          	j	80000024 <rvtest_error>

00000000800052a8 <inst_358>:
    800052a8:	00000537          	lui	a0,0x0
    800052ac:	00050513          	mv	a0,a0
    800052b0:	00b51513          	slli	a0,a0,0xb
    800052b4:	5a850513          	addi	a0,a0,1448 # 5a8 <offset+0x108>
    800052b8:	00b51513          	slli	a0,a0,0xb
    800052bc:	13c50513          	addi	a0,a0,316
    800052c0:	00a51513          	slli	a0,a0,0xa
    800052c4:	33350513          	addi	a0,a0,819
    800052c8:	333335b7          	lui	a1,0x33333
    800052cc:	33358593          	addi	a1,a1,819 # 33333333 <absimmsh+0x27862586>
    800052d0:	00b59593          	slli	a1,a1,0xb
    800052d4:	19958593          	addi	a1,a1,409
    800052d8:	00b59593          	slli	a1,a1,0xb
    800052dc:	4cc58593          	addi	a1,a1,1228
    800052e0:	00a59593          	slli	a1,a1,0xa
    800052e4:	33258593          	addi	a1,a1,818
    800052e8:	40b5063b          	subw	a2,a0,a1
    800052ec:	2ac2b023          	sd	a2,672(t0)
    800052f0:	81d1c6b7          	lui	a3,0x81d1c
    800052f4:	0016869b          	addiw	a3,a3,1 # ffffffff81d1c001 <absimm+0xfffffffec700e531>
    800052f8:	00c68463          	beq	a3,a2,80005300 <inst_359>
    800052fc:	d29fa06f          	j	80000024 <rvtest_error>

0000000080005300 <inst_359>:
    80005300:	00000537          	lui	a0,0x0
    80005304:	00050513          	mv	a0,a0
    80005308:	00b51513          	slli	a0,a0,0xb
    8000530c:	5a850513          	addi	a0,a0,1448 # 5a8 <offset+0x108>
    80005310:	00b51513          	slli	a0,a0,0xb
    80005314:	13c50513          	addi	a0,a0,316
    80005318:	00a51513          	slli	a0,a0,0xa
    8000531c:	33350513          	addi	a0,a0,819
    80005320:	666665b7          	lui	a1,0x66666
    80005324:	66658593          	addi	a1,a1,1638 # 66666666 <absimmsh+0x5ab958b9>
    80005328:	00b59593          	slli	a1,a1,0xb
    8000532c:	33358593          	addi	a1,a1,819
    80005330:	00b59593          	slli	a1,a1,0xb
    80005334:	19958593          	addi	a1,a1,409
    80005338:	00a59593          	slli	a1,a1,0xa
    8000533c:	26558593          	addi	a1,a1,613
    80005340:	40b5063b          	subw	a2,a0,a1
    80005344:	2ac2b423          	sd	a2,680(t0)
    80005348:	4e9e96b7          	lui	a3,0x4e9e9
    8000534c:	cce6869b          	addiw	a3,a3,-818 # 4e9e8cce <absimmsh+0x42f17f21>
    80005350:	00c68463          	beq	a3,a2,80005358 <inst_360>
    80005354:	cd1fa06f          	j	80000024 <rvtest_error>

0000000080005358 <inst_360>:
    80005358:	00000537          	lui	a0,0x0
    8000535c:	00050513          	mv	a0,a0
    80005360:	00b51513          	slli	a0,a0,0xb
    80005364:	5a850513          	addi	a0,a0,1448 # 5a8 <offset+0x108>
    80005368:	00b51513          	slli	a0,a0,0xb
    8000536c:	13c50513          	addi	a0,a0,316
    80005370:	00a51513          	slli	a0,a0,0xa
    80005374:	33350513          	addi	a0,a0,819
    80005378:	000005b7          	lui	a1,0x0
    8000537c:	00058593          	mv	a1,a1
    80005380:	00b59593          	slli	a1,a1,0xb
    80005384:	5a858593          	addi	a1,a1,1448 # 5a8 <offset+0x108>
    80005388:	00b59593          	slli	a1,a1,0xb
    8000538c:	13c58593          	addi	a1,a1,316
    80005390:	00a59593          	slli	a1,a1,0xa
    80005394:	33258593          	addi	a1,a1,818
    80005398:	40b5063b          	subw	a2,a0,a1
    8000539c:	2ac2b823          	sd	a2,688(t0)
    800053a0:	00100693          	li	a3,1
    800053a4:	00c68463          	beq	a3,a2,800053ac <inst_361>
    800053a8:	c7dfa06f          	j	80000024 <rvtest_error>

00000000800053ac <inst_361>:
    800053ac:	00000537          	lui	a0,0x0
    800053b0:	00050513          	mv	a0,a0
    800053b4:	00b51513          	slli	a0,a0,0xb
    800053b8:	5a850513          	addi	a0,a0,1448 # 5a8 <offset+0x108>
    800053bc:	00b51513          	slli	a0,a0,0xb
    800053c0:	13c50513          	addi	a0,a0,316
    800053c4:	00a51513          	slli	a0,a0,0xa
    800053c8:	33350513          	addi	a0,a0,819
    800053cc:	555555b7          	lui	a1,0x55555
    800053d0:	55558593          	addi	a1,a1,1365 # 55555555 <absimmsh+0x49a847a8>
    800053d4:	00b59593          	slli	a1,a1,0xb
    800053d8:	2aa58593          	addi	a1,a1,682
    800053dc:	00b59593          	slli	a1,a1,0xb
    800053e0:	55558593          	addi	a1,a1,1365
    800053e4:	00a59593          	slli	a1,a1,0xa
    800053e8:	15658593          	addi	a1,a1,342
    800053ec:	40b5063b          	subw	a2,a0,a1
    800053f0:	2ac2bc23          	sd	a2,696(t0)
    800053f4:	5fafa6b7          	lui	a3,0x5fafa
    800053f8:	ddd6869b          	addiw	a3,a3,-547 # 5faf9ddd <absimmsh+0x54029030>
    800053fc:	00c68463          	beq	a3,a2,80005404 <inst_362>
    80005400:	c25fa06f          	j	80000024 <rvtest_error>

0000000080005404 <inst_362>:
    80005404:	00000537          	lui	a0,0x0
    80005408:	00050513          	mv	a0,a0
    8000540c:	00b51513          	slli	a0,a0,0xb
    80005410:	5a850513          	addi	a0,a0,1448 # 5a8 <offset+0x108>
    80005414:	00b51513          	slli	a0,a0,0xb
    80005418:	13c50513          	addi	a0,a0,316
    8000541c:	00a51513          	slli	a0,a0,0xa
    80005420:	33350513          	addi	a0,a0,819
    80005424:	aaaab5b7          	lui	a1,0xaaaab
    80005428:	aaa58593          	addi	a1,a1,-1366 # ffffffffaaaaaaaa <absimm+0xfffffffeefd9cfda>
    8000542c:	00b59593          	slli	a1,a1,0xb
    80005430:	55558593          	addi	a1,a1,1365
    80005434:	00b59593          	slli	a1,a1,0xb
    80005438:	2aa58593          	addi	a1,a1,682
    8000543c:	00a59593          	slli	a1,a1,0xa
    80005440:	2ab58593          	addi	a1,a1,683
    80005444:	40b5063b          	subw	a2,a0,a1
    80005448:	2cc2b023          	sd	a2,704(t0)
    8000544c:	0a5a56b7          	lui	a3,0xa5a5
    80005450:	8886869b          	addiw	a3,a3,-1912 # a5a4888 <offset+0xa5a43e8>
    80005454:	00c68463          	beq	a3,a2,8000545c <inst_363>
    80005458:	bcdfa06f          	j	80000024 <rvtest_error>

000000008000545c <inst_363>:
    8000545c:	00000537          	lui	a0,0x0
    80005460:	00050513          	mv	a0,a0
    80005464:	00b51513          	slli	a0,a0,0xb
    80005468:	5a850513          	addi	a0,a0,1448 # 5a8 <offset+0x108>
    8000546c:	00b51513          	slli	a0,a0,0xb
    80005470:	13c50513          	addi	a0,a0,316
    80005474:	00a51513          	slli	a0,a0,0xa
    80005478:	33350513          	addi	a0,a0,819
    8000547c:	00600593          	li	a1,6
    80005480:	40b5063b          	subw	a2,a0,a1
    80005484:	2cc2b423          	sd	a2,712(t0)
    80005488:	b504f6b7          	lui	a3,0xb504f
    8000548c:	32d6869b          	addiw	a3,a3,813 # ffffffffb504f32d <absimm+0xfffffffefa34185d>
    80005490:	00c68463          	beq	a3,a2,80005498 <inst_364>
    80005494:	b91fa06f          	j	80000024 <rvtest_error>

0000000080005498 <inst_364>:
    80005498:	00000537          	lui	a0,0x0
    8000549c:	00050513          	mv	a0,a0
    800054a0:	00b51513          	slli	a0,a0,0xb
    800054a4:	5a850513          	addi	a0,a0,1448 # 5a8 <offset+0x108>
    800054a8:	00b51513          	slli	a0,a0,0xb
    800054ac:	13c50513          	addi	a0,a0,316
    800054b0:	00a51513          	slli	a0,a0,0xa
    800054b4:	33350513          	addi	a0,a0,819
    800054b8:	333335b7          	lui	a1,0x33333
    800054bc:	33358593          	addi	a1,a1,819 # 33333333 <absimmsh+0x27862586>
    800054c0:	00b59593          	slli	a1,a1,0xb
    800054c4:	19958593          	addi	a1,a1,409
    800054c8:	00b59593          	slli	a1,a1,0xb
    800054cc:	4cc58593          	addi	a1,a1,1228
    800054d0:	00a59593          	slli	a1,a1,0xa
    800054d4:	33458593          	addi	a1,a1,820
    800054d8:	40b5063b          	subw	a2,a0,a1
    800054dc:	2cc2b823          	sd	a2,720(t0)
    800054e0:	81d1c6b7          	lui	a3,0x81d1c
    800054e4:	fff6869b          	addiw	a3,a3,-1 # ffffffff81d1bfff <absimm+0xfffffffec700e52f>
    800054e8:	00c68463          	beq	a3,a2,800054f0 <inst_365>
    800054ec:	b39fa06f          	j	80000024 <rvtest_error>

00000000800054f0 <inst_365>:
    800054f0:	00000537          	lui	a0,0x0
    800054f4:	00050513          	mv	a0,a0
    800054f8:	00b51513          	slli	a0,a0,0xb
    800054fc:	5a850513          	addi	a0,a0,1448 # 5a8 <offset+0x108>
    80005500:	00b51513          	slli	a0,a0,0xb
    80005504:	13c50513          	addi	a0,a0,316
    80005508:	00a51513          	slli	a0,a0,0xa
    8000550c:	33350513          	addi	a0,a0,819
    80005510:	666665b7          	lui	a1,0x66666
    80005514:	66658593          	addi	a1,a1,1638 # 66666666 <absimmsh+0x5ab958b9>
    80005518:	00b59593          	slli	a1,a1,0xb
    8000551c:	33358593          	addi	a1,a1,819
    80005520:	00b59593          	slli	a1,a1,0xb
    80005524:	19958593          	addi	a1,a1,409
    80005528:	00a59593          	slli	a1,a1,0xa
    8000552c:	26758593          	addi	a1,a1,615
    80005530:	40b5063b          	subw	a2,a0,a1
    80005534:	2cc2bc23          	sd	a2,728(t0)
    80005538:	4e9e96b7          	lui	a3,0x4e9e9
    8000553c:	ccc6869b          	addiw	a3,a3,-820 # 4e9e8ccc <absimmsh+0x42f17f1f>
    80005540:	00c68463          	beq	a3,a2,80005548 <inst_366>
    80005544:	ae1fa06f          	j	80000024 <rvtest_error>

0000000080005548 <inst_366>:
    80005548:	00000537          	lui	a0,0x0
    8000554c:	00050513          	mv	a0,a0
    80005550:	00b51513          	slli	a0,a0,0xb
    80005554:	5a850513          	addi	a0,a0,1448 # 5a8 <offset+0x108>
    80005558:	00b51513          	slli	a0,a0,0xb
    8000555c:	13c50513          	addi	a0,a0,316
    80005560:	00a51513          	slli	a0,a0,0xa
    80005564:	33350513          	addi	a0,a0,819
    80005568:	000005b7          	lui	a1,0x0
    8000556c:	fff58593          	addi	a1,a1,-1
    80005570:	00b59593          	slli	a1,a1,0xb
    80005574:	25758593          	addi	a1,a1,599
    80005578:	00b59593          	slli	a1,a1,0xb
    8000557c:	6c358593          	addi	a1,a1,1731
    80005580:	00a59593          	slli	a1,a1,0xa
    80005584:	0ce58593          	addi	a1,a1,206
    80005588:	40b5063b          	subw	a2,a0,a1
    8000558c:	2ec2b023          	sd	a2,736(t0)
    80005590:	6a09e6b7          	lui	a3,0x6a09e
    80005594:	6656869b          	addiw	a3,a3,1637 # 6a09e665 <absimmsh+0x5e5cd8b8>
    80005598:	00c68463          	beq	a3,a2,800055a0 <inst_367>
    8000559c:	a89fa06f          	j	80000024 <rvtest_error>

00000000800055a0 <inst_367>:
    800055a0:	00000537          	lui	a0,0x0
    800055a4:	00050513          	mv	a0,a0
    800055a8:	00b51513          	slli	a0,a0,0xb
    800055ac:	5a850513          	addi	a0,a0,1448 # 5a8 <offset+0x108>
    800055b0:	00b51513          	slli	a0,a0,0xb
    800055b4:	13c50513          	addi	a0,a0,316
    800055b8:	00a51513          	slli	a0,a0,0xa
    800055bc:	33350513          	addi	a0,a0,819
    800055c0:	000005b7          	lui	a1,0x0
    800055c4:	00058593          	mv	a1,a1
    800055c8:	00b59593          	slli	a1,a1,0xb
    800055cc:	5a858593          	addi	a1,a1,1448 # 5a8 <offset+0x108>
    800055d0:	00b59593          	slli	a1,a1,0xb
    800055d4:	13c58593          	addi	a1,a1,316
    800055d8:	00a59593          	slli	a1,a1,0xa
    800055dc:	33458593          	addi	a1,a1,820
    800055e0:	40b5063b          	subw	a2,a0,a1
    800055e4:	2ec2b423          	sd	a2,744(t0)
    800055e8:	fff00693          	li	a3,-1
    800055ec:	00c68463          	beq	a3,a2,800055f4 <inst_368>
    800055f0:	a35fa06f          	j	80000024 <rvtest_error>

00000000800055f4 <inst_368>:
    800055f4:	00200513          	li	a0,2
    800055f8:	00300593          	li	a1,3
    800055fc:	40b5063b          	subw	a2,a0,a1
    80005600:	2ec2b823          	sd	a2,752(t0)
    80005604:	fff00693          	li	a3,-1
    80005608:	00c68463          	beq	a3,a2,80005610 <inst_369>
    8000560c:	a19fa06f          	j	80000024 <rvtest_error>

0000000080005610 <inst_369>:
    80005610:	00200513          	li	a0,2
    80005614:	555555b7          	lui	a1,0x55555
    80005618:	55558593          	addi	a1,a1,1365 # 55555555 <absimmsh+0x49a847a8>
    8000561c:	00b59593          	slli	a1,a1,0xb
    80005620:	2aa58593          	addi	a1,a1,682
    80005624:	00b59593          	slli	a1,a1,0xb
    80005628:	55558593          	addi	a1,a1,1365
    8000562c:	00a59593          	slli	a1,a1,0xa
    80005630:	15558593          	addi	a1,a1,341
    80005634:	40b5063b          	subw	a2,a0,a1
    80005638:	2ec2bc23          	sd	a2,760(t0)
    8000563c:	aaaab6b7          	lui	a3,0xaaaab
    80005640:	aad6869b          	addiw	a3,a3,-1363 # ffffffffaaaaaaad <absimm+0xfffffffeefd9cfdd>
    80005644:	00c68463          	beq	a3,a2,8000564c <inst_370>
    80005648:	9ddfa06f          	j	80000024 <rvtest_error>

000000008000564c <inst_370>:
    8000564c:	00200513          	li	a0,2
    80005650:	aaaab5b7          	lui	a1,0xaaaab
    80005654:	aaa58593          	addi	a1,a1,-1366 # ffffffffaaaaaaaa <absimm+0xfffffffeefd9cfda>
    80005658:	00b59593          	slli	a1,a1,0xb
    8000565c:	55558593          	addi	a1,a1,1365
    80005660:	00b59593          	slli	a1,a1,0xb
    80005664:	2aa58593          	addi	a1,a1,682
    80005668:	00a59593          	slli	a1,a1,0xa
    8000566c:	2aa58593          	addi	a1,a1,682
    80005670:	40b5063b          	subw	a2,a0,a1
    80005674:	30c2b023          	sd	a2,768(t0)
    80005678:	555556b7          	lui	a3,0x55555
    8000567c:	5586869b          	addiw	a3,a3,1368 # 55555558 <absimmsh+0x49a847ab>
    80005680:	00c68463          	beq	a3,a2,80005688 <inst_371>
    80005684:	9a1fa06f          	j	80000024 <rvtest_error>

0000000080005688 <inst_371>:
    80005688:	00200513          	li	a0,2
    8000568c:	00500593          	li	a1,5
    80005690:	40b5063b          	subw	a2,a0,a1
    80005694:	30c2b423          	sd	a2,776(t0)
    80005698:	ffd00693          	li	a3,-3
    8000569c:	00c68463          	beq	a3,a2,800056a4 <inst_372>
    800056a0:	985fa06f          	j	80000024 <rvtest_error>

00000000800056a4 <inst_372>:
    800056a4:	00200513          	li	a0,2
    800056a8:	333335b7          	lui	a1,0x33333
    800056ac:	33358593          	addi	a1,a1,819 # 33333333 <absimmsh+0x27862586>
    800056b0:	00b59593          	slli	a1,a1,0xb
    800056b4:	19958593          	addi	a1,a1,409
    800056b8:	00b59593          	slli	a1,a1,0xb
    800056bc:	4cc58593          	addi	a1,a1,1228
    800056c0:	00a59593          	slli	a1,a1,0xa
    800056c4:	33358593          	addi	a1,a1,819
    800056c8:	40b5063b          	subw	a2,a0,a1
    800056cc:	30c2b823          	sd	a2,784(t0)
    800056d0:	ccccd6b7          	lui	a3,0xccccd
    800056d4:	ccf6869b          	addiw	a3,a3,-817 # ffffffffcccccccf <absimm+0xffffffff11fbf1ff>
    800056d8:	00c68463          	beq	a3,a2,800056e0 <inst_373>
    800056dc:	949fa06f          	j	80000024 <rvtest_error>

00000000800056e0 <inst_373>:
    800056e0:	00200513          	li	a0,2
    800056e4:	666665b7          	lui	a1,0x66666
    800056e8:	66658593          	addi	a1,a1,1638 # 66666666 <absimmsh+0x5ab958b9>
    800056ec:	00b59593          	slli	a1,a1,0xb
    800056f0:	33358593          	addi	a1,a1,819
    800056f4:	00b59593          	slli	a1,a1,0xb
    800056f8:	19958593          	addi	a1,a1,409
    800056fc:	00a59593          	slli	a1,a1,0xa
    80005700:	26658593          	addi	a1,a1,614
    80005704:	40b5063b          	subw	a2,a0,a1
    80005708:	30c2bc23          	sd	a2,792(t0)
    8000570c:	9999a6b7          	lui	a3,0x9999a
    80005710:	99c6869b          	addiw	a3,a3,-1636 # ffffffff9999999c <absimm+0xfffffffedec8becc>
    80005714:	00c68463          	beq	a3,a2,8000571c <inst_374>
    80005718:	90dfa06f          	j	80000024 <rvtest_error>

000000008000571c <inst_374>:
    8000571c:	00200513          	li	a0,2
    80005720:	000005b7          	lui	a1,0x0
    80005724:	fff58593          	addi	a1,a1,-1
    80005728:	00b59593          	slli	a1,a1,0xb
    8000572c:	25758593          	addi	a1,a1,599
    80005730:	00b59593          	slli	a1,a1,0xb
    80005734:	6c358593          	addi	a1,a1,1731
    80005738:	00a59593          	slli	a1,a1,0xa
    8000573c:	0cd58593          	addi	a1,a1,205
    80005740:	40b5063b          	subw	a2,a0,a1
    80005744:	32c2b023          	sd	a2,800(t0)
    80005748:	b504f6b7          	lui	a3,0xb504f
    8000574c:	3356869b          	addiw	a3,a3,821 # ffffffffb504f335 <absimm+0xfffffffefa341865>
    80005750:	00c68463          	beq	a3,a2,80005758 <inst_375>
    80005754:	8d1fa06f          	j	80000024 <rvtest_error>

0000000080005758 <inst_375>:
    80005758:	00200513          	li	a0,2
    8000575c:	000005b7          	lui	a1,0x0
    80005760:	00058593          	mv	a1,a1
    80005764:	00b59593          	slli	a1,a1,0xb
    80005768:	5a858593          	addi	a1,a1,1448 # 5a8 <offset+0x108>
    8000576c:	00b59593          	slli	a1,a1,0xb
    80005770:	13c58593          	addi	a1,a1,316
    80005774:	00a59593          	slli	a1,a1,0xa
    80005778:	33358593          	addi	a1,a1,819
    8000577c:	40b5063b          	subw	a2,a0,a1
    80005780:	32c2b423          	sd	a2,808(t0)
    80005784:	4afb16b7          	lui	a3,0x4afb1
    80005788:	ccf6869b          	addiw	a3,a3,-817 # 4afb0ccf <absimmsh+0x3f4dff22>
    8000578c:	00c68463          	beq	a3,a2,80005794 <inst_376>
    80005790:	895fa06f          	j	80000024 <rvtest_error>

0000000080005794 <inst_376>:
    80005794:	00200513          	li	a0,2
    80005798:	00200593          	li	a1,2
    8000579c:	40b5063b          	subw	a2,a0,a1
    800057a0:	32c2b823          	sd	a2,816(t0)
    800057a4:	00000693          	li	a3,0
    800057a8:	00c68463          	beq	a3,a2,800057b0 <inst_377>
    800057ac:	879fa06f          	j	80000024 <rvtest_error>

00000000800057b0 <inst_377>:
    800057b0:	00200513          	li	a0,2
    800057b4:	555555b7          	lui	a1,0x55555
    800057b8:	55558593          	addi	a1,a1,1365 # 55555555 <absimmsh+0x49a847a8>
    800057bc:	00b59593          	slli	a1,a1,0xb
    800057c0:	2aa58593          	addi	a1,a1,682
    800057c4:	00b59593          	slli	a1,a1,0xb
    800057c8:	55558593          	addi	a1,a1,1365
    800057cc:	00a59593          	slli	a1,a1,0xa
    800057d0:	15458593          	addi	a1,a1,340
    800057d4:	40b5063b          	subw	a2,a0,a1
    800057d8:	32c2bc23          	sd	a2,824(t0)
    800057dc:	aaaab6b7          	lui	a3,0xaaaab
    800057e0:	aae6869b          	addiw	a3,a3,-1362 # ffffffffaaaaaaae <absimm+0xfffffffeefd9cfde>
    800057e4:	00c68463          	beq	a3,a2,800057ec <inst_378>
    800057e8:	83dfa06f          	j	80000024 <rvtest_error>

00000000800057ec <inst_378>:
    800057ec:	00200513          	li	a0,2
    800057f0:	00000593          	li	a1,0
    800057f4:	40b5063b          	subw	a2,a0,a1
    800057f8:	34c2b023          	sd	a2,832(t0)
    800057fc:	00200693          	li	a3,2
    80005800:	00c68463          	beq	a3,a2,80005808 <inst_379>
    80005804:	821fa06f          	j	80000024 <rvtest_error>

0000000080005808 <inst_379>:
    80005808:	00200513          	li	a0,2
    8000580c:	00400593          	li	a1,4
    80005810:	40b5063b          	subw	a2,a0,a1
    80005814:	34c2b423          	sd	a2,840(t0)
    80005818:	ffe00693          	li	a3,-2
    8000581c:	00c68463          	beq	a3,a2,80005824 <inst_380>
    80005820:	805fa06f          	j	80000024 <rvtest_error>

0000000080005824 <inst_380>:
    80005824:	00200513          	li	a0,2
    80005828:	333335b7          	lui	a1,0x33333
    8000582c:	33358593          	addi	a1,a1,819 # 33333333 <absimmsh+0x27862586>
    80005830:	00b59593          	slli	a1,a1,0xb
    80005834:	19958593          	addi	a1,a1,409
    80005838:	00b59593          	slli	a1,a1,0xb
    8000583c:	4cc58593          	addi	a1,a1,1228
    80005840:	00a59593          	slli	a1,a1,0xa
    80005844:	33258593          	addi	a1,a1,818
    80005848:	40b5063b          	subw	a2,a0,a1
    8000584c:	34c2b823          	sd	a2,848(t0)
    80005850:	ccccd6b7          	lui	a3,0xccccd
    80005854:	cd06869b          	addiw	a3,a3,-816 # ffffffffccccccd0 <absimm+0xffffffff11fbf200>
    80005858:	00c68463          	beq	a3,a2,80005860 <inst_381>
    8000585c:	fc8fa06f          	j	80000024 <rvtest_error>

0000000080005860 <inst_381>:
    80005860:	00200513          	li	a0,2
    80005864:	666665b7          	lui	a1,0x66666
    80005868:	66658593          	addi	a1,a1,1638 # 66666666 <absimmsh+0x5ab958b9>
    8000586c:	00b59593          	slli	a1,a1,0xb
    80005870:	33358593          	addi	a1,a1,819
    80005874:	00b59593          	slli	a1,a1,0xb
    80005878:	19958593          	addi	a1,a1,409
    8000587c:	00a59593          	slli	a1,a1,0xa
    80005880:	26558593          	addi	a1,a1,613
    80005884:	40b5063b          	subw	a2,a0,a1
    80005888:	34c2bc23          	sd	a2,856(t0)
    8000588c:	9999a6b7          	lui	a3,0x9999a
    80005890:	99d6869b          	addiw	a3,a3,-1635 # ffffffff9999999d <absimm+0xfffffffedec8becd>
    80005894:	00c68463          	beq	a3,a2,8000589c <inst_382>
    80005898:	f8cfa06f          	j	80000024 <rvtest_error>

000000008000589c <inst_382>:
    8000589c:	00200513          	li	a0,2
    800058a0:	000005b7          	lui	a1,0x0
    800058a4:	00058593          	mv	a1,a1
    800058a8:	00b59593          	slli	a1,a1,0xb
    800058ac:	5a858593          	addi	a1,a1,1448 # 5a8 <offset+0x108>
    800058b0:	00b59593          	slli	a1,a1,0xb
    800058b4:	13c58593          	addi	a1,a1,316
    800058b8:	00a59593          	slli	a1,a1,0xa
    800058bc:	33258593          	addi	a1,a1,818
    800058c0:	40b5063b          	subw	a2,a0,a1
    800058c4:	36c2b023          	sd	a2,864(t0)
    800058c8:	4afb16b7          	lui	a3,0x4afb1
    800058cc:	cd06869b          	addiw	a3,a3,-816 # 4afb0cd0 <absimmsh+0x3f4dff23>
    800058d0:	00c68463          	beq	a3,a2,800058d8 <inst_383>
    800058d4:	f50fa06f          	j	80000024 <rvtest_error>

00000000800058d8 <inst_383>:
    800058d8:	00200513          	li	a0,2
    800058dc:	555555b7          	lui	a1,0x55555
    800058e0:	55558593          	addi	a1,a1,1365 # 55555555 <absimmsh+0x49a847a8>
    800058e4:	00b59593          	slli	a1,a1,0xb
    800058e8:	2aa58593          	addi	a1,a1,682
    800058ec:	00b59593          	slli	a1,a1,0xb
    800058f0:	55558593          	addi	a1,a1,1365
    800058f4:	00a59593          	slli	a1,a1,0xa
    800058f8:	15658593          	addi	a1,a1,342
    800058fc:	40b5063b          	subw	a2,a0,a1
    80005900:	36c2b423          	sd	a2,872(t0)
    80005904:	aaaab6b7          	lui	a3,0xaaaab
    80005908:	aac6869b          	addiw	a3,a3,-1364 # ffffffffaaaaaaac <absimm+0xfffffffeefd9cfdc>
    8000590c:	00c68463          	beq	a3,a2,80005914 <inst_384>
    80005910:	f14fa06f          	j	80000024 <rvtest_error>

0000000080005914 <inst_384>:
    80005914:	00200513          	li	a0,2
    80005918:	aaaab5b7          	lui	a1,0xaaaab
    8000591c:	aaa58593          	addi	a1,a1,-1366 # ffffffffaaaaaaaa <absimm+0xfffffffeefd9cfda>
    80005920:	00b59593          	slli	a1,a1,0xb
    80005924:	55558593          	addi	a1,a1,1365
    80005928:	00b59593          	slli	a1,a1,0xb
    8000592c:	2aa58593          	addi	a1,a1,682
    80005930:	00a59593          	slli	a1,a1,0xa
    80005934:	2ab58593          	addi	a1,a1,683
    80005938:	40b5063b          	subw	a2,a0,a1
    8000593c:	36c2b823          	sd	a2,880(t0)
    80005940:	555556b7          	lui	a3,0x55555
    80005944:	5576869b          	addiw	a3,a3,1367 # 55555557 <absimmsh+0x49a847aa>
    80005948:	00c68463          	beq	a3,a2,80005950 <inst_385>
    8000594c:	ed8fa06f          	j	80000024 <rvtest_error>

0000000080005950 <inst_385>:
    80005950:	00200513          	li	a0,2
    80005954:	00600593          	li	a1,6
    80005958:	40b5063b          	subw	a2,a0,a1
    8000595c:	36c2bc23          	sd	a2,888(t0)
    80005960:	ffc00693          	li	a3,-4
    80005964:	00c68463          	beq	a3,a2,8000596c <inst_386>
    80005968:	ebcfa06f          	j	80000024 <rvtest_error>

000000008000596c <inst_386>:
    8000596c:	00200513          	li	a0,2
    80005970:	333335b7          	lui	a1,0x33333
    80005974:	33358593          	addi	a1,a1,819 # 33333333 <absimmsh+0x27862586>
    80005978:	00b59593          	slli	a1,a1,0xb
    8000597c:	19958593          	addi	a1,a1,409
    80005980:	00b59593          	slli	a1,a1,0xb
    80005984:	4cc58593          	addi	a1,a1,1228
    80005988:	00a59593          	slli	a1,a1,0xa
    8000598c:	33458593          	addi	a1,a1,820
    80005990:	40b5063b          	subw	a2,a0,a1
    80005994:	38c2b023          	sd	a2,896(t0)
    80005998:	ccccd6b7          	lui	a3,0xccccd
    8000599c:	cce6869b          	addiw	a3,a3,-818 # ffffffffccccccce <absimm+0xffffffff11fbf1fe>
    800059a0:	00c68463          	beq	a3,a2,800059a8 <inst_387>
    800059a4:	e80fa06f          	j	80000024 <rvtest_error>

00000000800059a8 <inst_387>:
    800059a8:	00200513          	li	a0,2
    800059ac:	666665b7          	lui	a1,0x66666
    800059b0:	66658593          	addi	a1,a1,1638 # 66666666 <absimmsh+0x5ab958b9>
    800059b4:	00b59593          	slli	a1,a1,0xb
    800059b8:	33358593          	addi	a1,a1,819
    800059bc:	00b59593          	slli	a1,a1,0xb
    800059c0:	19958593          	addi	a1,a1,409
    800059c4:	00a59593          	slli	a1,a1,0xa
    800059c8:	26758593          	addi	a1,a1,615
    800059cc:	40b5063b          	subw	a2,a0,a1
    800059d0:	38c2b423          	sd	a2,904(t0)
    800059d4:	9999a6b7          	lui	a3,0x9999a
    800059d8:	99b6869b          	addiw	a3,a3,-1637 # ffffffff9999999b <absimm+0xfffffffedec8becb>
    800059dc:	00c68463          	beq	a3,a2,800059e4 <inst_388>
    800059e0:	e44fa06f          	j	80000024 <rvtest_error>

00000000800059e4 <inst_388>:
    800059e4:	00200513          	li	a0,2
    800059e8:	000005b7          	lui	a1,0x0
    800059ec:	fff58593          	addi	a1,a1,-1
    800059f0:	00b59593          	slli	a1,a1,0xb
    800059f4:	25758593          	addi	a1,a1,599
    800059f8:	00b59593          	slli	a1,a1,0xb
    800059fc:	6c358593          	addi	a1,a1,1731
    80005a00:	00a59593          	slli	a1,a1,0xa
    80005a04:	0ce58593          	addi	a1,a1,206
    80005a08:	40b5063b          	subw	a2,a0,a1
    80005a0c:	38c2b823          	sd	a2,912(t0)
    80005a10:	b504f6b7          	lui	a3,0xb504f
    80005a14:	3346869b          	addiw	a3,a3,820 # ffffffffb504f334 <absimm+0xfffffffefa341864>
    80005a18:	00c68463          	beq	a3,a2,80005a20 <inst_389>
    80005a1c:	e08fa06f          	j	80000024 <rvtest_error>

0000000080005a20 <inst_389>:
    80005a20:	00200513          	li	a0,2
    80005a24:	000005b7          	lui	a1,0x0
    80005a28:	00058593          	mv	a1,a1
    80005a2c:	00b59593          	slli	a1,a1,0xb
    80005a30:	5a858593          	addi	a1,a1,1448 # 5a8 <offset+0x108>
    80005a34:	00b59593          	slli	a1,a1,0xb
    80005a38:	13c58593          	addi	a1,a1,316
    80005a3c:	00a59593          	slli	a1,a1,0xa
    80005a40:	33458593          	addi	a1,a1,820
    80005a44:	40b5063b          	subw	a2,a0,a1
    80005a48:	38c2bc23          	sd	a2,920(t0)
    80005a4c:	4afb16b7          	lui	a3,0x4afb1
    80005a50:	cce6869b          	addiw	a3,a3,-818 # 4afb0cce <absimmsh+0x3f4dff21>
    80005a54:	00c68463          	beq	a3,a2,80005a5c <inst_390>
    80005a58:	dccfa06f          	j	80000024 <rvtest_error>

0000000080005a5c <inst_390>:
    80005a5c:	55555537          	lui	a0,0x55555
    80005a60:	55550513          	addi	a0,a0,1365 # 55555555 <absimmsh+0x49a847a8>
    80005a64:	00b51513          	slli	a0,a0,0xb
    80005a68:	2aa50513          	addi	a0,a0,682
    80005a6c:	00b51513          	slli	a0,a0,0xb
    80005a70:	55550513          	addi	a0,a0,1365
    80005a74:	00a51513          	slli	a0,a0,0xa
    80005a78:	15450513          	addi	a0,a0,340
    80005a7c:	00300593          	li	a1,3
    80005a80:	40b5063b          	subw	a2,a0,a1
    80005a84:	3ac2b023          	sd	a2,928(t0)
    80005a88:	555556b7          	lui	a3,0x55555
    80005a8c:	5516869b          	addiw	a3,a3,1361 # 55555551 <absimmsh+0x49a847a4>
    80005a90:	00c68463          	beq	a3,a2,80005a98 <inst_391>
    80005a94:	d90fa06f          	j	80000024 <rvtest_error>

0000000080005a98 <inst_391>:
    80005a98:	55555537          	lui	a0,0x55555
    80005a9c:	55550513          	addi	a0,a0,1365 # 55555555 <absimmsh+0x49a847a8>
    80005aa0:	00b51513          	slli	a0,a0,0xb
    80005aa4:	2aa50513          	addi	a0,a0,682
    80005aa8:	00b51513          	slli	a0,a0,0xb
    80005aac:	55550513          	addi	a0,a0,1365
    80005ab0:	00a51513          	slli	a0,a0,0xa
    80005ab4:	15450513          	addi	a0,a0,340
    80005ab8:	555555b7          	lui	a1,0x55555
    80005abc:	55558593          	addi	a1,a1,1365 # 55555555 <absimmsh+0x49a847a8>
    80005ac0:	00b59593          	slli	a1,a1,0xb
    80005ac4:	2aa58593          	addi	a1,a1,682
    80005ac8:	00b59593          	slli	a1,a1,0xb
    80005acc:	55558593          	addi	a1,a1,1365
    80005ad0:	00a59593          	slli	a1,a1,0xa
    80005ad4:	15558593          	addi	a1,a1,341
    80005ad8:	40b5063b          	subw	a2,a0,a1
    80005adc:	3ac2b423          	sd	a2,936(t0)
    80005ae0:	fff00693          	li	a3,-1
    80005ae4:	00c68463          	beq	a3,a2,80005aec <inst_392>
    80005ae8:	d3cfa06f          	j	80000024 <rvtest_error>

0000000080005aec <inst_392>:
    80005aec:	55555537          	lui	a0,0x55555
    80005af0:	55550513          	addi	a0,a0,1365 # 55555555 <absimmsh+0x49a847a8>
    80005af4:	00b51513          	slli	a0,a0,0xb
    80005af8:	2aa50513          	addi	a0,a0,682
    80005afc:	00b51513          	slli	a0,a0,0xb
    80005b00:	55550513          	addi	a0,a0,1365
    80005b04:	00a51513          	slli	a0,a0,0xa
    80005b08:	15450513          	addi	a0,a0,340
    80005b0c:	aaaab5b7          	lui	a1,0xaaaab
    80005b10:	aaa58593          	addi	a1,a1,-1366 # ffffffffaaaaaaaa <absimm+0xfffffffeefd9cfda>
    80005b14:	00b59593          	slli	a1,a1,0xb
    80005b18:	55558593          	addi	a1,a1,1365
    80005b1c:	00b59593          	slli	a1,a1,0xb
    80005b20:	2aa58593          	addi	a1,a1,682
    80005b24:	00a59593          	slli	a1,a1,0xa
    80005b28:	2aa58593          	addi	a1,a1,682
    80005b2c:	40b5063b          	subw	a2,a0,a1
    80005b30:	3ac2b823          	sd	a2,944(t0)
    80005b34:	aaaab6b7          	lui	a3,0xaaaab
    80005b38:	aaa6869b          	addiw	a3,a3,-1366 # ffffffffaaaaaaaa <absimm+0xfffffffeefd9cfda>
    80005b3c:	00c68463          	beq	a3,a2,80005b44 <inst_393>
    80005b40:	ce4fa06f          	j	80000024 <rvtest_error>

0000000080005b44 <inst_393>:
    80005b44:	55555537          	lui	a0,0x55555
    80005b48:	55550513          	addi	a0,a0,1365 # 55555555 <absimmsh+0x49a847a8>
    80005b4c:	00b51513          	slli	a0,a0,0xb
    80005b50:	2aa50513          	addi	a0,a0,682
    80005b54:	00b51513          	slli	a0,a0,0xb
    80005b58:	55550513          	addi	a0,a0,1365
    80005b5c:	00a51513          	slli	a0,a0,0xa
    80005b60:	15450513          	addi	a0,a0,340
    80005b64:	00500593          	li	a1,5
    80005b68:	40b5063b          	subw	a2,a0,a1
    80005b6c:	3ac2bc23          	sd	a2,952(t0)
    80005b70:	555556b7          	lui	a3,0x55555
    80005b74:	54f6869b          	addiw	a3,a3,1359 # 5555554f <absimmsh+0x49a847a2>
    80005b78:	00c68463          	beq	a3,a2,80005b80 <inst_394>
    80005b7c:	ca8fa06f          	j	80000024 <rvtest_error>

0000000080005b80 <inst_394>:
    80005b80:	55555537          	lui	a0,0x55555
    80005b84:	55550513          	addi	a0,a0,1365 # 55555555 <absimmsh+0x49a847a8>
    80005b88:	00b51513          	slli	a0,a0,0xb
    80005b8c:	2aa50513          	addi	a0,a0,682
    80005b90:	00b51513          	slli	a0,a0,0xb
    80005b94:	55550513          	addi	a0,a0,1365
    80005b98:	00a51513          	slli	a0,a0,0xa
    80005b9c:	15450513          	addi	a0,a0,340
    80005ba0:	333335b7          	lui	a1,0x33333
    80005ba4:	33358593          	addi	a1,a1,819 # 33333333 <absimmsh+0x27862586>
    80005ba8:	00b59593          	slli	a1,a1,0xb
    80005bac:	19958593          	addi	a1,a1,409
    80005bb0:	00b59593          	slli	a1,a1,0xb
    80005bb4:	4cc58593          	addi	a1,a1,1228
    80005bb8:	00a59593          	slli	a1,a1,0xa
    80005bbc:	33358593          	addi	a1,a1,819
    80005bc0:	40b5063b          	subw	a2,a0,a1
    80005bc4:	3cc2b023          	sd	a2,960(t0)
    80005bc8:	222226b7          	lui	a3,0x22222
    80005bcc:	2216869b          	addiw	a3,a3,545 # 22222221 <absimmsh+0x16751474>
    80005bd0:	00c68463          	beq	a3,a2,80005bd8 <inst_395>
    80005bd4:	c50fa06f          	j	80000024 <rvtest_error>

0000000080005bd8 <inst_395>:
    80005bd8:	55555537          	lui	a0,0x55555
    80005bdc:	55550513          	addi	a0,a0,1365 # 55555555 <absimmsh+0x49a847a8>
    80005be0:	00b51513          	slli	a0,a0,0xb
    80005be4:	2aa50513          	addi	a0,a0,682
    80005be8:	00b51513          	slli	a0,a0,0xb
    80005bec:	55550513          	addi	a0,a0,1365
    80005bf0:	00a51513          	slli	a0,a0,0xa
    80005bf4:	15450513          	addi	a0,a0,340
    80005bf8:	666665b7          	lui	a1,0x66666
    80005bfc:	66658593          	addi	a1,a1,1638 # 66666666 <absimmsh+0x5ab958b9>
    80005c00:	00b59593          	slli	a1,a1,0xb
    80005c04:	33358593          	addi	a1,a1,819
    80005c08:	00b59593          	slli	a1,a1,0xb
    80005c0c:	19958593          	addi	a1,a1,409
    80005c10:	00a59593          	slli	a1,a1,0xa
    80005c14:	26658593          	addi	a1,a1,614
    80005c18:	40b5063b          	subw	a2,a0,a1
    80005c1c:	3cc2b423          	sd	a2,968(t0)
    80005c20:	eeeef6b7          	lui	a3,0xeeeef
    80005c24:	eee6869b          	addiw	a3,a3,-274 # ffffffffeeeeeeee <absimm+0xffffffff341e141e>
    80005c28:	00c68463          	beq	a3,a2,80005c30 <inst_396>
    80005c2c:	bf8fa06f          	j	80000024 <rvtest_error>

0000000080005c30 <inst_396>:
    80005c30:	55555537          	lui	a0,0x55555
    80005c34:	55550513          	addi	a0,a0,1365 # 55555555 <absimmsh+0x49a847a8>
    80005c38:	00b51513          	slli	a0,a0,0xb
    80005c3c:	2aa50513          	addi	a0,a0,682
    80005c40:	00b51513          	slli	a0,a0,0xb
    80005c44:	55550513          	addi	a0,a0,1365
    80005c48:	00a51513          	slli	a0,a0,0xa
    80005c4c:	15450513          	addi	a0,a0,340
    80005c50:	000005b7          	lui	a1,0x0
    80005c54:	fff58593          	addi	a1,a1,-1
    80005c58:	00b59593          	slli	a1,a1,0xb
    80005c5c:	25758593          	addi	a1,a1,599
    80005c60:	00b59593          	slli	a1,a1,0xb
    80005c64:	6c358593          	addi	a1,a1,1731
    80005c68:	00a59593          	slli	a1,a1,0xa
    80005c6c:	0cd58593          	addi	a1,a1,205
    80005c70:	40b5063b          	subw	a2,a0,a1
    80005c74:	3cc2b823          	sd	a2,976(t0)
    80005c78:	0a5a56b7          	lui	a3,0xa5a5
    80005c7c:	8876869b          	addiw	a3,a3,-1913 # a5a4887 <offset+0xa5a43e7>
    80005c80:	00c68463          	beq	a3,a2,80005c88 <inst_397>
    80005c84:	ba0fa06f          	j	80000024 <rvtest_error>

0000000080005c88 <inst_397>:
    80005c88:	55555537          	lui	a0,0x55555
    80005c8c:	55550513          	addi	a0,a0,1365 # 55555555 <absimmsh+0x49a847a8>
    80005c90:	00b51513          	slli	a0,a0,0xb
    80005c94:	2aa50513          	addi	a0,a0,682
    80005c98:	00b51513          	slli	a0,a0,0xb
    80005c9c:	55550513          	addi	a0,a0,1365
    80005ca0:	00a51513          	slli	a0,a0,0xa
    80005ca4:	15450513          	addi	a0,a0,340
    80005ca8:	000005b7          	lui	a1,0x0
    80005cac:	00058593          	mv	a1,a1
    80005cb0:	00b59593          	slli	a1,a1,0xb
    80005cb4:	5a858593          	addi	a1,a1,1448 # 5a8 <offset+0x108>
    80005cb8:	00b59593          	slli	a1,a1,0xb
    80005cbc:	13c58593          	addi	a1,a1,316
    80005cc0:	00a59593          	slli	a1,a1,0xa
    80005cc4:	33358593          	addi	a1,a1,819
    80005cc8:	40b5063b          	subw	a2,a0,a1
    80005ccc:	3cc2bc23          	sd	a2,984(t0)
    80005cd0:	a05066b7          	lui	a3,0xa0506
    80005cd4:	2216869b          	addiw	a3,a3,545 # ffffffffa0506221 <absimm+0xfffffffee57f8751>
    80005cd8:	00c68463          	beq	a3,a2,80005ce0 <inst_398>
    80005cdc:	b48fa06f          	j	80000024 <rvtest_error>

0000000080005ce0 <inst_398>:
    80005ce0:	55555537          	lui	a0,0x55555
    80005ce4:	55550513          	addi	a0,a0,1365 # 55555555 <absimmsh+0x49a847a8>
    80005ce8:	00b51513          	slli	a0,a0,0xb
    80005cec:	2aa50513          	addi	a0,a0,682
    80005cf0:	00b51513          	slli	a0,a0,0xb
    80005cf4:	55550513          	addi	a0,a0,1365
    80005cf8:	00a51513          	slli	a0,a0,0xa
    80005cfc:	15450513          	addi	a0,a0,340
    80005d00:	00200593          	li	a1,2
    80005d04:	40b5063b          	subw	a2,a0,a1
    80005d08:	3ec2b023          	sd	a2,992(t0)
    80005d0c:	555556b7          	lui	a3,0x55555
    80005d10:	5526869b          	addiw	a3,a3,1362 # 55555552 <absimmsh+0x49a847a5>
    80005d14:	00c68463          	beq	a3,a2,80005d1c <inst_399>
    80005d18:	b0cfa06f          	j	80000024 <rvtest_error>

0000000080005d1c <inst_399>:
    80005d1c:	55555537          	lui	a0,0x55555
    80005d20:	55550513          	addi	a0,a0,1365 # 55555555 <absimmsh+0x49a847a8>
    80005d24:	00b51513          	slli	a0,a0,0xb
    80005d28:	2aa50513          	addi	a0,a0,682
    80005d2c:	00b51513          	slli	a0,a0,0xb
    80005d30:	55550513          	addi	a0,a0,1365
    80005d34:	00a51513          	slli	a0,a0,0xa
    80005d38:	15450513          	addi	a0,a0,340
    80005d3c:	555555b7          	lui	a1,0x55555
    80005d40:	55558593          	addi	a1,a1,1365 # 55555555 <absimmsh+0x49a847a8>
    80005d44:	00b59593          	slli	a1,a1,0xb
    80005d48:	2aa58593          	addi	a1,a1,682
    80005d4c:	00b59593          	slli	a1,a1,0xb
    80005d50:	55558593          	addi	a1,a1,1365
    80005d54:	00a59593          	slli	a1,a1,0xa
    80005d58:	15458593          	addi	a1,a1,340
    80005d5c:	40b5063b          	subw	a2,a0,a1
    80005d60:	3ec2b423          	sd	a2,1000(t0)
    80005d64:	00000693          	li	a3,0
    80005d68:	00c68463          	beq	a3,a2,80005d70 <inst_400>
    80005d6c:	ab8fa06f          	j	80000024 <rvtest_error>

0000000080005d70 <inst_400>:
    80005d70:	55555537          	lui	a0,0x55555
    80005d74:	55550513          	addi	a0,a0,1365 # 55555555 <absimmsh+0x49a847a8>
    80005d78:	00b51513          	slli	a0,a0,0xb
    80005d7c:	2aa50513          	addi	a0,a0,682
    80005d80:	00b51513          	slli	a0,a0,0xb
    80005d84:	55550513          	addi	a0,a0,1365
    80005d88:	00a51513          	slli	a0,a0,0xa
    80005d8c:	15450513          	addi	a0,a0,340
    80005d90:	00000593          	li	a1,0
    80005d94:	40b5063b          	subw	a2,a0,a1
    80005d98:	3ec2b823          	sd	a2,1008(t0)
    80005d9c:	555556b7          	lui	a3,0x55555
    80005da0:	5546869b          	addiw	a3,a3,1364 # 55555554 <absimmsh+0x49a847a7>
    80005da4:	00c68463          	beq	a3,a2,80005dac <inst_401>
    80005da8:	a7cfa06f          	j	80000024 <rvtest_error>

0000000080005dac <inst_401>:
    80005dac:	55555537          	lui	a0,0x55555
    80005db0:	55550513          	addi	a0,a0,1365 # 55555555 <absimmsh+0x49a847a8>
    80005db4:	00b51513          	slli	a0,a0,0xb
    80005db8:	2aa50513          	addi	a0,a0,682
    80005dbc:	00b51513          	slli	a0,a0,0xb
    80005dc0:	55550513          	addi	a0,a0,1365
    80005dc4:	00a51513          	slli	a0,a0,0xa
    80005dc8:	15450513          	addi	a0,a0,340
    80005dcc:	00400593          	li	a1,4
    80005dd0:	40b5063b          	subw	a2,a0,a1
    80005dd4:	3ec2bc23          	sd	a2,1016(t0)
    80005dd8:	555556b7          	lui	a3,0x55555
    80005ddc:	5506869b          	addiw	a3,a3,1360 # 55555550 <absimmsh+0x49a847a3>
    80005de0:	00c68463          	beq	a3,a2,80005de8 <inst_402>
    80005de4:	a40fa06f          	j	80000024 <rvtest_error>

0000000080005de8 <inst_402>:
    80005de8:	55555537          	lui	a0,0x55555
    80005dec:	55550513          	addi	a0,a0,1365 # 55555555 <absimmsh+0x49a847a8>
    80005df0:	00b51513          	slli	a0,a0,0xb
    80005df4:	2aa50513          	addi	a0,a0,682
    80005df8:	00b51513          	slli	a0,a0,0xb
    80005dfc:	55550513          	addi	a0,a0,1365
    80005e00:	00a51513          	slli	a0,a0,0xa
    80005e04:	15450513          	addi	a0,a0,340
    80005e08:	333335b7          	lui	a1,0x33333
    80005e0c:	33358593          	addi	a1,a1,819 # 33333333 <absimmsh+0x27862586>
    80005e10:	00b59593          	slli	a1,a1,0xb
    80005e14:	19958593          	addi	a1,a1,409
    80005e18:	00b59593          	slli	a1,a1,0xb
    80005e1c:	4cc58593          	addi	a1,a1,1228
    80005e20:	00a59593          	slli	a1,a1,0xa
    80005e24:	33258593          	addi	a1,a1,818
    80005e28:	40b5063b          	subw	a2,a0,a1
    80005e2c:	40c2b023          	sd	a2,1024(t0)
    80005e30:	222226b7          	lui	a3,0x22222
    80005e34:	2226869b          	addiw	a3,a3,546 # 22222222 <absimmsh+0x16751475>
    80005e38:	00c68463          	beq	a3,a2,80005e40 <inst_403>
    80005e3c:	9e8fa06f          	j	80000024 <rvtest_error>

0000000080005e40 <inst_403>:
    80005e40:	55555537          	lui	a0,0x55555
    80005e44:	55550513          	addi	a0,a0,1365 # 55555555 <absimmsh+0x49a847a8>
    80005e48:	00b51513          	slli	a0,a0,0xb
    80005e4c:	2aa50513          	addi	a0,a0,682
    80005e50:	00b51513          	slli	a0,a0,0xb
    80005e54:	55550513          	addi	a0,a0,1365
    80005e58:	00a51513          	slli	a0,a0,0xa
    80005e5c:	15450513          	addi	a0,a0,340
    80005e60:	666665b7          	lui	a1,0x66666
    80005e64:	66658593          	addi	a1,a1,1638 # 66666666 <absimmsh+0x5ab958b9>
    80005e68:	00b59593          	slli	a1,a1,0xb
    80005e6c:	33358593          	addi	a1,a1,819
    80005e70:	00b59593          	slli	a1,a1,0xb
    80005e74:	19958593          	addi	a1,a1,409
    80005e78:	00a59593          	slli	a1,a1,0xa
    80005e7c:	26558593          	addi	a1,a1,613
    80005e80:	40b5063b          	subw	a2,a0,a1
    80005e84:	40c2b423          	sd	a2,1032(t0)
    80005e88:	eeeef6b7          	lui	a3,0xeeeef
    80005e8c:	eef6869b          	addiw	a3,a3,-273 # ffffffffeeeeeeef <absimm+0xffffffff341e141f>
    80005e90:	00c68463          	beq	a3,a2,80005e98 <inst_404>
    80005e94:	990fa06f          	j	80000024 <rvtest_error>

0000000080005e98 <inst_404>:
    80005e98:	55555537          	lui	a0,0x55555
    80005e9c:	55550513          	addi	a0,a0,1365 # 55555555 <absimmsh+0x49a847a8>
    80005ea0:	00b51513          	slli	a0,a0,0xb
    80005ea4:	2aa50513          	addi	a0,a0,682
    80005ea8:	00b51513          	slli	a0,a0,0xb
    80005eac:	55550513          	addi	a0,a0,1365
    80005eb0:	00a51513          	slli	a0,a0,0xa
    80005eb4:	15450513          	addi	a0,a0,340
    80005eb8:	000005b7          	lui	a1,0x0
    80005ebc:	00058593          	mv	a1,a1
    80005ec0:	00b59593          	slli	a1,a1,0xb
    80005ec4:	5a858593          	addi	a1,a1,1448 # 5a8 <offset+0x108>
    80005ec8:	00b59593          	slli	a1,a1,0xb
    80005ecc:	13c58593          	addi	a1,a1,316
    80005ed0:	00a59593          	slli	a1,a1,0xa
    80005ed4:	33258593          	addi	a1,a1,818
    80005ed8:	40b5063b          	subw	a2,a0,a1
    80005edc:	40c2b823          	sd	a2,1040(t0)
    80005ee0:	a05066b7          	lui	a3,0xa0506
    80005ee4:	2226869b          	addiw	a3,a3,546 # ffffffffa0506222 <absimm+0xfffffffee57f8752>
    80005ee8:	00c68463          	beq	a3,a2,80005ef0 <inst_405>
    80005eec:	938fa06f          	j	80000024 <rvtest_error>

0000000080005ef0 <inst_405>:
    80005ef0:	55555537          	lui	a0,0x55555
    80005ef4:	55550513          	addi	a0,a0,1365 # 55555555 <absimmsh+0x49a847a8>
    80005ef8:	00b51513          	slli	a0,a0,0xb
    80005efc:	2aa50513          	addi	a0,a0,682
    80005f00:	00b51513          	slli	a0,a0,0xb
    80005f04:	55550513          	addi	a0,a0,1365
    80005f08:	00a51513          	slli	a0,a0,0xa
    80005f0c:	15450513          	addi	a0,a0,340
    80005f10:	555555b7          	lui	a1,0x55555
    80005f14:	55558593          	addi	a1,a1,1365 # 55555555 <absimmsh+0x49a847a8>
    80005f18:	00b59593          	slli	a1,a1,0xb
    80005f1c:	2aa58593          	addi	a1,a1,682
    80005f20:	00b59593          	slli	a1,a1,0xb
    80005f24:	55558593          	addi	a1,a1,1365
    80005f28:	00a59593          	slli	a1,a1,0xa
    80005f2c:	15658593          	addi	a1,a1,342
    80005f30:	40b5063b          	subw	a2,a0,a1
    80005f34:	40c2bc23          	sd	a2,1048(t0)
    80005f38:	ffe00693          	li	a3,-2
    80005f3c:	00c68463          	beq	a3,a2,80005f44 <inst_406>
    80005f40:	8e4fa06f          	j	80000024 <rvtest_error>

0000000080005f44 <inst_406>:
    80005f44:	55555537          	lui	a0,0x55555
    80005f48:	55550513          	addi	a0,a0,1365 # 55555555 <absimmsh+0x49a847a8>
    80005f4c:	00b51513          	slli	a0,a0,0xb
    80005f50:	2aa50513          	addi	a0,a0,682
    80005f54:	00b51513          	slli	a0,a0,0xb
    80005f58:	55550513          	addi	a0,a0,1365
    80005f5c:	00a51513          	slli	a0,a0,0xa
    80005f60:	15450513          	addi	a0,a0,340
    80005f64:	aaaab5b7          	lui	a1,0xaaaab
    80005f68:	aaa58593          	addi	a1,a1,-1366 # ffffffffaaaaaaaa <absimm+0xfffffffeefd9cfda>
    80005f6c:	00b59593          	slli	a1,a1,0xb
    80005f70:	55558593          	addi	a1,a1,1365
    80005f74:	00b59593          	slli	a1,a1,0xb
    80005f78:	2aa58593          	addi	a1,a1,682
    80005f7c:	00a59593          	slli	a1,a1,0xa
    80005f80:	2ab58593          	addi	a1,a1,683
    80005f84:	40b5063b          	subw	a2,a0,a1
    80005f88:	42c2b023          	sd	a2,1056(t0)
    80005f8c:	aaaab6b7          	lui	a3,0xaaaab
    80005f90:	aa96869b          	addiw	a3,a3,-1367 # ffffffffaaaaaaa9 <absimm+0xfffffffeefd9cfd9>
    80005f94:	00c68463          	beq	a3,a2,80005f9c <inst_407>
    80005f98:	88cfa06f          	j	80000024 <rvtest_error>

0000000080005f9c <inst_407>:
    80005f9c:	55555537          	lui	a0,0x55555
    80005fa0:	55550513          	addi	a0,a0,1365 # 55555555 <absimmsh+0x49a847a8>
    80005fa4:	00b51513          	slli	a0,a0,0xb
    80005fa8:	2aa50513          	addi	a0,a0,682
    80005fac:	00b51513          	slli	a0,a0,0xb
    80005fb0:	55550513          	addi	a0,a0,1365
    80005fb4:	00a51513          	slli	a0,a0,0xa
    80005fb8:	15450513          	addi	a0,a0,340
    80005fbc:	00600593          	li	a1,6
    80005fc0:	40b5063b          	subw	a2,a0,a1
    80005fc4:	42c2b423          	sd	a2,1064(t0)
    80005fc8:	555556b7          	lui	a3,0x55555
    80005fcc:	54e6869b          	addiw	a3,a3,1358 # 5555554e <absimmsh+0x49a847a1>
    80005fd0:	00c68463          	beq	a3,a2,80005fd8 <inst_408>
    80005fd4:	850fa06f          	j	80000024 <rvtest_error>

0000000080005fd8 <inst_408>:
    80005fd8:	55555537          	lui	a0,0x55555
    80005fdc:	55550513          	addi	a0,a0,1365 # 55555555 <absimmsh+0x49a847a8>
    80005fe0:	00b51513          	slli	a0,a0,0xb
    80005fe4:	2aa50513          	addi	a0,a0,682
    80005fe8:	00b51513          	slli	a0,a0,0xb
    80005fec:	55550513          	addi	a0,a0,1365
    80005ff0:	00a51513          	slli	a0,a0,0xa
    80005ff4:	15450513          	addi	a0,a0,340
    80005ff8:	333335b7          	lui	a1,0x33333
    80005ffc:	33358593          	addi	a1,a1,819 # 33333333 <absimmsh+0x27862586>
    80006000:	00b59593          	slli	a1,a1,0xb
    80006004:	19958593          	addi	a1,a1,409
    80006008:	00b59593          	slli	a1,a1,0xb
    8000600c:	4cc58593          	addi	a1,a1,1228
    80006010:	00a59593          	slli	a1,a1,0xa
    80006014:	33458593          	addi	a1,a1,820
    80006018:	40b5063b          	subw	a2,a0,a1
    8000601c:	42c2b823          	sd	a2,1072(t0)
    80006020:	222226b7          	lui	a3,0x22222
    80006024:	2206869b          	addiw	a3,a3,544 # 22222220 <absimmsh+0x16751473>
    80006028:	00c68463          	beq	a3,a2,80006030 <inst_409>
    8000602c:	ff9f906f          	j	80000024 <rvtest_error>

0000000080006030 <inst_409>:
    80006030:	55555537          	lui	a0,0x55555
    80006034:	55550513          	addi	a0,a0,1365 # 55555555 <absimmsh+0x49a847a8>
    80006038:	00b51513          	slli	a0,a0,0xb
    8000603c:	2aa50513          	addi	a0,a0,682
    80006040:	00b51513          	slli	a0,a0,0xb
    80006044:	55550513          	addi	a0,a0,1365
    80006048:	00a51513          	slli	a0,a0,0xa
    8000604c:	15450513          	addi	a0,a0,340
    80006050:	666665b7          	lui	a1,0x66666
    80006054:	66658593          	addi	a1,a1,1638 # 66666666 <absimmsh+0x5ab958b9>
    80006058:	00b59593          	slli	a1,a1,0xb
    8000605c:	33358593          	addi	a1,a1,819
    80006060:	00b59593          	slli	a1,a1,0xb
    80006064:	19958593          	addi	a1,a1,409
    80006068:	00a59593          	slli	a1,a1,0xa
    8000606c:	26758593          	addi	a1,a1,615
    80006070:	40b5063b          	subw	a2,a0,a1
    80006074:	42c2bc23          	sd	a2,1080(t0)
    80006078:	eeeef6b7          	lui	a3,0xeeeef
    8000607c:	eed6869b          	addiw	a3,a3,-275 # ffffffffeeeeeeed <absimm+0xffffffff341e141d>
    80006080:	00c68463          	beq	a3,a2,80006088 <inst_410>
    80006084:	fa1f906f          	j	80000024 <rvtest_error>

0000000080006088 <inst_410>:
    80006088:	55555537          	lui	a0,0x55555
    8000608c:	55550513          	addi	a0,a0,1365 # 55555555 <absimmsh+0x49a847a8>
    80006090:	00b51513          	slli	a0,a0,0xb
    80006094:	2aa50513          	addi	a0,a0,682
    80006098:	00b51513          	slli	a0,a0,0xb
    8000609c:	55550513          	addi	a0,a0,1365
    800060a0:	00a51513          	slli	a0,a0,0xa
    800060a4:	15450513          	addi	a0,a0,340
    800060a8:	000005b7          	lui	a1,0x0
    800060ac:	fff58593          	addi	a1,a1,-1
    800060b0:	00b59593          	slli	a1,a1,0xb
    800060b4:	25758593          	addi	a1,a1,599
    800060b8:	00b59593          	slli	a1,a1,0xb
    800060bc:	6c358593          	addi	a1,a1,1731
    800060c0:	00a59593          	slli	a1,a1,0xa
    800060c4:	0ce58593          	addi	a1,a1,206
    800060c8:	40b5063b          	subw	a2,a0,a1
    800060cc:	44c2b023          	sd	a2,1088(t0)
    800060d0:	0a5a56b7          	lui	a3,0xa5a5
    800060d4:	8866869b          	addiw	a3,a3,-1914 # a5a4886 <offset+0xa5a43e6>
    800060d8:	00c68463          	beq	a3,a2,800060e0 <inst_411>
    800060dc:	f49f906f          	j	80000024 <rvtest_error>

00000000800060e0 <inst_411>:
    800060e0:	55555537          	lui	a0,0x55555
    800060e4:	55550513          	addi	a0,a0,1365 # 55555555 <absimmsh+0x49a847a8>
    800060e8:	00b51513          	slli	a0,a0,0xb
    800060ec:	2aa50513          	addi	a0,a0,682
    800060f0:	00b51513          	slli	a0,a0,0xb
    800060f4:	55550513          	addi	a0,a0,1365
    800060f8:	00a51513          	slli	a0,a0,0xa
    800060fc:	15450513          	addi	a0,a0,340
    80006100:	000005b7          	lui	a1,0x0
    80006104:	00058593          	mv	a1,a1
    80006108:	00b59593          	slli	a1,a1,0xb
    8000610c:	5a858593          	addi	a1,a1,1448 # 5a8 <offset+0x108>
    80006110:	00b59593          	slli	a1,a1,0xb
    80006114:	13c58593          	addi	a1,a1,316
    80006118:	00a59593          	slli	a1,a1,0xa
    8000611c:	33458593          	addi	a1,a1,820
    80006120:	40b5063b          	subw	a2,a0,a1
    80006124:	44c2b423          	sd	a2,1096(t0)
    80006128:	a05066b7          	lui	a3,0xa0506
    8000612c:	2206869b          	addiw	a3,a3,544 # ffffffffa0506220 <absimm+0xfffffffee57f8750>
    80006130:	00c68463          	beq	a3,a2,80006138 <inst_412>
    80006134:	ef1f906f          	j	80000024 <rvtest_error>

0000000080006138 <inst_412>:
    80006138:	00000513          	li	a0,0
    8000613c:	00300593          	li	a1,3
    80006140:	40b5063b          	subw	a2,a0,a1
    80006144:	44c2b823          	sd	a2,1104(t0)
    80006148:	ffd00693          	li	a3,-3
    8000614c:	00c68463          	beq	a3,a2,80006154 <inst_413>
    80006150:	ed5f906f          	j	80000024 <rvtest_error>

0000000080006154 <inst_413>:
    80006154:	00000513          	li	a0,0
    80006158:	555555b7          	lui	a1,0x55555
    8000615c:	55558593          	addi	a1,a1,1365 # 55555555 <absimmsh+0x49a847a8>
    80006160:	00b59593          	slli	a1,a1,0xb
    80006164:	2aa58593          	addi	a1,a1,682
    80006168:	00b59593          	slli	a1,a1,0xb
    8000616c:	55558593          	addi	a1,a1,1365
    80006170:	00a59593          	slli	a1,a1,0xa
    80006174:	15558593          	addi	a1,a1,341
    80006178:	40b5063b          	subw	a2,a0,a1
    8000617c:	44c2bc23          	sd	a2,1112(t0)
    80006180:	aaaab6b7          	lui	a3,0xaaaab
    80006184:	aab6869b          	addiw	a3,a3,-1365 # ffffffffaaaaaaab <absimm+0xfffffffeefd9cfdb>
    80006188:	00c68463          	beq	a3,a2,80006190 <inst_414>
    8000618c:	e99f906f          	j	80000024 <rvtest_error>

0000000080006190 <inst_414>:
    80006190:	00000513          	li	a0,0
    80006194:	aaaab5b7          	lui	a1,0xaaaab
    80006198:	aaa58593          	addi	a1,a1,-1366 # ffffffffaaaaaaaa <absimm+0xfffffffeefd9cfda>
    8000619c:	00b59593          	slli	a1,a1,0xb
    800061a0:	55558593          	addi	a1,a1,1365
    800061a4:	00b59593          	slli	a1,a1,0xb
    800061a8:	2aa58593          	addi	a1,a1,682
    800061ac:	00a59593          	slli	a1,a1,0xa
    800061b0:	2aa58593          	addi	a1,a1,682
    800061b4:	40b5063b          	subw	a2,a0,a1
    800061b8:	46c2b023          	sd	a2,1120(t0)
    800061bc:	555556b7          	lui	a3,0x55555
    800061c0:	5566869b          	addiw	a3,a3,1366 # 55555556 <absimmsh+0x49a847a9>
    800061c4:	00c68463          	beq	a3,a2,800061cc <inst_415>
    800061c8:	e5df906f          	j	80000024 <rvtest_error>

00000000800061cc <inst_415>:
    800061cc:	00000513          	li	a0,0
    800061d0:	00500593          	li	a1,5
    800061d4:	40b5063b          	subw	a2,a0,a1
    800061d8:	46c2b423          	sd	a2,1128(t0)
    800061dc:	ffb00693          	li	a3,-5
    800061e0:	00c68463          	beq	a3,a2,800061e8 <inst_416>
    800061e4:	e41f906f          	j	80000024 <rvtest_error>

00000000800061e8 <inst_416>:
    800061e8:	00000513          	li	a0,0
    800061ec:	333335b7          	lui	a1,0x33333
    800061f0:	33358593          	addi	a1,a1,819 # 33333333 <absimmsh+0x27862586>
    800061f4:	00b59593          	slli	a1,a1,0xb
    800061f8:	19958593          	addi	a1,a1,409
    800061fc:	00b59593          	slli	a1,a1,0xb
    80006200:	4cc58593          	addi	a1,a1,1228
    80006204:	00a59593          	slli	a1,a1,0xa
    80006208:	33358593          	addi	a1,a1,819
    8000620c:	40b5063b          	subw	a2,a0,a1
    80006210:	46c2b823          	sd	a2,1136(t0)
    80006214:	ccccd6b7          	lui	a3,0xccccd
    80006218:	ccd6869b          	addiw	a3,a3,-819 # ffffffffcccccccd <absimm+0xffffffff11fbf1fd>
    8000621c:	00c68463          	beq	a3,a2,80006224 <inst_417>
    80006220:	e05f906f          	j	80000024 <rvtest_error>

0000000080006224 <inst_417>:
    80006224:	00000513          	li	a0,0
    80006228:	666665b7          	lui	a1,0x66666
    8000622c:	66658593          	addi	a1,a1,1638 # 66666666 <absimmsh+0x5ab958b9>
    80006230:	00b59593          	slli	a1,a1,0xb
    80006234:	33358593          	addi	a1,a1,819
    80006238:	00b59593          	slli	a1,a1,0xb
    8000623c:	19958593          	addi	a1,a1,409
    80006240:	00a59593          	slli	a1,a1,0xa
    80006244:	26658593          	addi	a1,a1,614
    80006248:	40b5063b          	subw	a2,a0,a1
    8000624c:	46c2bc23          	sd	a2,1144(t0)
    80006250:	9999a6b7          	lui	a3,0x9999a
    80006254:	99a6869b          	addiw	a3,a3,-1638 # ffffffff9999999a <absimm+0xfffffffedec8beca>
    80006258:	00c68463          	beq	a3,a2,80006260 <inst_418>
    8000625c:	dc9f906f          	j	80000024 <rvtest_error>

0000000080006260 <inst_418>:
    80006260:	00000513          	li	a0,0
    80006264:	000005b7          	lui	a1,0x0
    80006268:	fff58593          	addi	a1,a1,-1
    8000626c:	00b59593          	slli	a1,a1,0xb
    80006270:	25758593          	addi	a1,a1,599
    80006274:	00b59593          	slli	a1,a1,0xb
    80006278:	6c358593          	addi	a1,a1,1731
    8000627c:	00a59593          	slli	a1,a1,0xa
    80006280:	0cd58593          	addi	a1,a1,205
    80006284:	40b5063b          	subw	a2,a0,a1
    80006288:	48c2b023          	sd	a2,1152(t0)
    8000628c:	b504f6b7          	lui	a3,0xb504f
    80006290:	3336869b          	addiw	a3,a3,819 # ffffffffb504f333 <absimm+0xfffffffefa341863>
    80006294:	00c68463          	beq	a3,a2,8000629c <inst_419>
    80006298:	d8df906f          	j	80000024 <rvtest_error>

000000008000629c <inst_419>:
    8000629c:	00000513          	li	a0,0
    800062a0:	000005b7          	lui	a1,0x0
    800062a4:	00058593          	mv	a1,a1
    800062a8:	00b59593          	slli	a1,a1,0xb
    800062ac:	5a858593          	addi	a1,a1,1448 # 5a8 <offset+0x108>
    800062b0:	00b59593          	slli	a1,a1,0xb
    800062b4:	13c58593          	addi	a1,a1,316
    800062b8:	00a59593          	slli	a1,a1,0xa
    800062bc:	33358593          	addi	a1,a1,819
    800062c0:	40b5063b          	subw	a2,a0,a1
    800062c4:	48c2b423          	sd	a2,1160(t0)
    800062c8:	4afb16b7          	lui	a3,0x4afb1
    800062cc:	ccd6869b          	addiw	a3,a3,-819 # 4afb0ccd <absimmsh+0x3f4dff20>
    800062d0:	00c68463          	beq	a3,a2,800062d8 <inst_420>
    800062d4:	d51f906f          	j	80000024 <rvtest_error>

00000000800062d8 <inst_420>:
    800062d8:	00000513          	li	a0,0
    800062dc:	00200593          	li	a1,2
    800062e0:	40b5063b          	subw	a2,a0,a1
    800062e4:	48c2b823          	sd	a2,1168(t0)
    800062e8:	ffe00693          	li	a3,-2
    800062ec:	00c68463          	beq	a3,a2,800062f4 <inst_421>
    800062f0:	d35f906f          	j	80000024 <rvtest_error>

00000000800062f4 <inst_421>:
    800062f4:	00000513          	li	a0,0
    800062f8:	000005b7          	lui	a1,0x0
    800062fc:	fff58593          	addi	a1,a1,-1
    80006300:	00b59593          	slli	a1,a1,0xb
    80006304:	25758593          	addi	a1,a1,599
    80006308:	00b59593          	slli	a1,a1,0xb
    8000630c:	6c358593          	addi	a1,a1,1731
    80006310:	00a59593          	slli	a1,a1,0xa
    80006314:	0ce58593          	addi	a1,a1,206
    80006318:	40b5063b          	subw	a2,a0,a1
    8000631c:	48c2bc23          	sd	a2,1176(t0)
    80006320:	b504f6b7          	lui	a3,0xb504f
    80006324:	3326869b          	addiw	a3,a3,818 # ffffffffb504f332 <absimm+0xfffffffefa341862>
    80006328:	00c68463          	beq	a3,a2,80006330 <inst_422>
    8000632c:	cf9f906f          	j	80000024 <rvtest_error>

0000000080006330 <inst_422>:
    80006330:	00000513          	li	a0,0
    80006334:	000005b7          	lui	a1,0x0
    80006338:	00058593          	mv	a1,a1
    8000633c:	00b59593          	slli	a1,a1,0xb
    80006340:	5a858593          	addi	a1,a1,1448 # 5a8 <offset+0x108>
    80006344:	00b59593          	slli	a1,a1,0xb
    80006348:	13c58593          	addi	a1,a1,316
    8000634c:	00a59593          	slli	a1,a1,0xa
    80006350:	33458593          	addi	a1,a1,820
    80006354:	40b5063b          	subw	a2,a0,a1
    80006358:	4ac2b023          	sd	a2,1184(t0)
    8000635c:	4afb16b7          	lui	a3,0x4afb1
    80006360:	ccc6869b          	addiw	a3,a3,-820 # 4afb0ccc <absimmsh+0x3f4dff1f>
    80006364:	00c68463          	beq	a3,a2,8000636c <inst_423>
    80006368:	cbdf906f          	j	80000024 <rvtest_error>

000000008000636c <inst_423>:
    8000636c:	00400513          	li	a0,4
    80006370:	00300593          	li	a1,3
    80006374:	40b5063b          	subw	a2,a0,a1
    80006378:	4ac2b423          	sd	a2,1192(t0)
    8000637c:	00100693          	li	a3,1
    80006380:	00c68463          	beq	a3,a2,80006388 <inst_424>
    80006384:	ca1f906f          	j	80000024 <rvtest_error>

0000000080006388 <inst_424>:
    80006388:	00400513          	li	a0,4
    8000638c:	555555b7          	lui	a1,0x55555
    80006390:	55558593          	addi	a1,a1,1365 # 55555555 <absimmsh+0x49a847a8>
    80006394:	00b59593          	slli	a1,a1,0xb
    80006398:	2aa58593          	addi	a1,a1,682
    8000639c:	00b59593          	slli	a1,a1,0xb
    800063a0:	55558593          	addi	a1,a1,1365
    800063a4:	00a59593          	slli	a1,a1,0xa
    800063a8:	15558593          	addi	a1,a1,341
    800063ac:	40b5063b          	subw	a2,a0,a1
    800063b0:	4ac2b823          	sd	a2,1200(t0)
    800063b4:	aaaab6b7          	lui	a3,0xaaaab
    800063b8:	aaf6869b          	addiw	a3,a3,-1361 # ffffffffaaaaaaaf <absimm+0xfffffffeefd9cfdf>
    800063bc:	00c68463          	beq	a3,a2,800063c4 <inst_425>
    800063c0:	c65f906f          	j	80000024 <rvtest_error>

00000000800063c4 <inst_425>:
    800063c4:	00400513          	li	a0,4
    800063c8:	aaaab5b7          	lui	a1,0xaaaab
    800063cc:	aaa58593          	addi	a1,a1,-1366 # ffffffffaaaaaaaa <absimm+0xfffffffeefd9cfda>
    800063d0:	00b59593          	slli	a1,a1,0xb
    800063d4:	55558593          	addi	a1,a1,1365
    800063d8:	00b59593          	slli	a1,a1,0xb
    800063dc:	2aa58593          	addi	a1,a1,682
    800063e0:	00a59593          	slli	a1,a1,0xa
    800063e4:	2aa58593          	addi	a1,a1,682
    800063e8:	40b5063b          	subw	a2,a0,a1
    800063ec:	4ac2bc23          	sd	a2,1208(t0)
    800063f0:	555556b7          	lui	a3,0x55555
    800063f4:	55a6869b          	addiw	a3,a3,1370 # 5555555a <absimmsh+0x49a847ad>
    800063f8:	00c68463          	beq	a3,a2,80006400 <inst_426>
    800063fc:	c29f906f          	j	80000024 <rvtest_error>

0000000080006400 <inst_426>:
    80006400:	00400513          	li	a0,4
    80006404:	00500593          	li	a1,5
    80006408:	40b5063b          	subw	a2,a0,a1
    8000640c:	4cc2b023          	sd	a2,1216(t0)
    80006410:	fff00693          	li	a3,-1
    80006414:	00c68463          	beq	a3,a2,8000641c <inst_427>
    80006418:	c0df906f          	j	80000024 <rvtest_error>

000000008000641c <inst_427>:
    8000641c:	00400513          	li	a0,4
    80006420:	333335b7          	lui	a1,0x33333
    80006424:	33358593          	addi	a1,a1,819 # 33333333 <absimmsh+0x27862586>
    80006428:	00b59593          	slli	a1,a1,0xb
    8000642c:	19958593          	addi	a1,a1,409
    80006430:	00b59593          	slli	a1,a1,0xb
    80006434:	4cc58593          	addi	a1,a1,1228
    80006438:	00a59593          	slli	a1,a1,0xa
    8000643c:	33358593          	addi	a1,a1,819
    80006440:	40b5063b          	subw	a2,a0,a1
    80006444:	4cc2b423          	sd	a2,1224(t0)
    80006448:	ccccd6b7          	lui	a3,0xccccd
    8000644c:	cd16869b          	addiw	a3,a3,-815 # ffffffffccccccd1 <absimm+0xffffffff11fbf201>
    80006450:	00c68463          	beq	a3,a2,80006458 <inst_428>
    80006454:	bd1f906f          	j	80000024 <rvtest_error>

0000000080006458 <inst_428>:
    80006458:	00400513          	li	a0,4
    8000645c:	666665b7          	lui	a1,0x66666
    80006460:	66658593          	addi	a1,a1,1638 # 66666666 <absimmsh+0x5ab958b9>
    80006464:	00b59593          	slli	a1,a1,0xb
    80006468:	33358593          	addi	a1,a1,819
    8000646c:	00b59593          	slli	a1,a1,0xb
    80006470:	19958593          	addi	a1,a1,409
    80006474:	00a59593          	slli	a1,a1,0xa
    80006478:	26658593          	addi	a1,a1,614
    8000647c:	40b5063b          	subw	a2,a0,a1
    80006480:	4cc2b823          	sd	a2,1232(t0)
    80006484:	9999a6b7          	lui	a3,0x9999a
    80006488:	99e6869b          	addiw	a3,a3,-1634 # ffffffff9999999e <absimm+0xfffffffedec8bece>
    8000648c:	00c68463          	beq	a3,a2,80006494 <inst_429>
    80006490:	b95f906f          	j	80000024 <rvtest_error>

0000000080006494 <inst_429>:
    80006494:	00400513          	li	a0,4
    80006498:	000005b7          	lui	a1,0x0
    8000649c:	fff58593          	addi	a1,a1,-1
    800064a0:	00b59593          	slli	a1,a1,0xb
    800064a4:	25758593          	addi	a1,a1,599
    800064a8:	00b59593          	slli	a1,a1,0xb
    800064ac:	6c358593          	addi	a1,a1,1731
    800064b0:	00a59593          	slli	a1,a1,0xa
    800064b4:	0cd58593          	addi	a1,a1,205
    800064b8:	40b5063b          	subw	a2,a0,a1
    800064bc:	4cc2bc23          	sd	a2,1240(t0)
    800064c0:	b504f6b7          	lui	a3,0xb504f
    800064c4:	3376869b          	addiw	a3,a3,823 # ffffffffb504f337 <absimm+0xfffffffefa341867>
    800064c8:	00c68463          	beq	a3,a2,800064d0 <inst_430>
    800064cc:	b59f906f          	j	80000024 <rvtest_error>

00000000800064d0 <inst_430>:
    800064d0:	00400513          	li	a0,4
    800064d4:	000005b7          	lui	a1,0x0
    800064d8:	00058593          	mv	a1,a1
    800064dc:	00b59593          	slli	a1,a1,0xb
    800064e0:	5a858593          	addi	a1,a1,1448 # 5a8 <offset+0x108>
    800064e4:	00b59593          	slli	a1,a1,0xb
    800064e8:	13c58593          	addi	a1,a1,316
    800064ec:	00a59593          	slli	a1,a1,0xa
    800064f0:	33358593          	addi	a1,a1,819
    800064f4:	40b5063b          	subw	a2,a0,a1
    800064f8:	4ec2b023          	sd	a2,1248(t0)
    800064fc:	4afb16b7          	lui	a3,0x4afb1
    80006500:	cd16869b          	addiw	a3,a3,-815 # 4afb0cd1 <absimmsh+0x3f4dff24>
    80006504:	00c68463          	beq	a3,a2,8000650c <inst_431>
    80006508:	b1df906f          	j	80000024 <rvtest_error>

000000008000650c <inst_431>:
    8000650c:	00400513          	li	a0,4
    80006510:	00200593          	li	a1,2
    80006514:	40b5063b          	subw	a2,a0,a1
    80006518:	4ec2b423          	sd	a2,1256(t0)
    8000651c:	00200693          	li	a3,2
    80006520:	00c68463          	beq	a3,a2,80006528 <inst_432>
    80006524:	b01f906f          	j	80000024 <rvtest_error>

0000000080006528 <inst_432>:
    80006528:	00400513          	li	a0,4
    8000652c:	555555b7          	lui	a1,0x55555
    80006530:	55558593          	addi	a1,a1,1365 # 55555555 <absimmsh+0x49a847a8>
    80006534:	00b59593          	slli	a1,a1,0xb
    80006538:	2aa58593          	addi	a1,a1,682
    8000653c:	00b59593          	slli	a1,a1,0xb
    80006540:	55558593          	addi	a1,a1,1365
    80006544:	00a59593          	slli	a1,a1,0xa
    80006548:	15458593          	addi	a1,a1,340
    8000654c:	40b5063b          	subw	a2,a0,a1
    80006550:	4ec2b823          	sd	a2,1264(t0)
    80006554:	aaaab6b7          	lui	a3,0xaaaab
    80006558:	ab06869b          	addiw	a3,a3,-1360 # ffffffffaaaaaab0 <absimm+0xfffffffeefd9cfe0>
    8000655c:	00c68463          	beq	a3,a2,80006564 <inst_433>
    80006560:	ac5f906f          	j	80000024 <rvtest_error>

0000000080006564 <inst_433>:
    80006564:	00400513          	li	a0,4
    80006568:	00000593          	li	a1,0
    8000656c:	40b5063b          	subw	a2,a0,a1
    80006570:	4ec2bc23          	sd	a2,1272(t0)
    80006574:	00400693          	li	a3,4
    80006578:	00c68463          	beq	a3,a2,80006580 <inst_434>
    8000657c:	aa9f906f          	j	80000024 <rvtest_error>

0000000080006580 <inst_434>:
    80006580:	00400513          	li	a0,4
    80006584:	00400593          	li	a1,4
    80006588:	40b5063b          	subw	a2,a0,a1
    8000658c:	50c2b023          	sd	a2,1280(t0)
    80006590:	00000693          	li	a3,0
    80006594:	00c68463          	beq	a3,a2,8000659c <inst_435>
    80006598:	a8df906f          	j	80000024 <rvtest_error>

000000008000659c <inst_435>:
    8000659c:	00400513          	li	a0,4
    800065a0:	333335b7          	lui	a1,0x33333
    800065a4:	33358593          	addi	a1,a1,819 # 33333333 <absimmsh+0x27862586>
    800065a8:	00b59593          	slli	a1,a1,0xb
    800065ac:	19958593          	addi	a1,a1,409
    800065b0:	00b59593          	slli	a1,a1,0xb
    800065b4:	4cc58593          	addi	a1,a1,1228
    800065b8:	00a59593          	slli	a1,a1,0xa
    800065bc:	33258593          	addi	a1,a1,818
    800065c0:	40b5063b          	subw	a2,a0,a1
    800065c4:	50c2b423          	sd	a2,1288(t0)
    800065c8:	ccccd6b7          	lui	a3,0xccccd
    800065cc:	cd26869b          	addiw	a3,a3,-814 # ffffffffccccccd2 <absimm+0xffffffff11fbf202>
    800065d0:	00c68463          	beq	a3,a2,800065d8 <inst_436>
    800065d4:	a51f906f          	j	80000024 <rvtest_error>

00000000800065d8 <inst_436>:
    800065d8:	00400513          	li	a0,4
    800065dc:	666665b7          	lui	a1,0x66666
    800065e0:	66658593          	addi	a1,a1,1638 # 66666666 <absimmsh+0x5ab958b9>
    800065e4:	00b59593          	slli	a1,a1,0xb
    800065e8:	33358593          	addi	a1,a1,819
    800065ec:	00b59593          	slli	a1,a1,0xb
    800065f0:	19958593          	addi	a1,a1,409
    800065f4:	00a59593          	slli	a1,a1,0xa
    800065f8:	26558593          	addi	a1,a1,613
    800065fc:	40b5063b          	subw	a2,a0,a1
    80006600:	50c2b823          	sd	a2,1296(t0)
    80006604:	9999a6b7          	lui	a3,0x9999a
    80006608:	99f6869b          	addiw	a3,a3,-1633 # ffffffff9999999f <absimm+0xfffffffedec8becf>
    8000660c:	00c68463          	beq	a3,a2,80006614 <inst_437>
    80006610:	a15f906f          	j	80000024 <rvtest_error>

0000000080006614 <inst_437>:
    80006614:	00400513          	li	a0,4
    80006618:	000005b7          	lui	a1,0x0
    8000661c:	00058593          	mv	a1,a1
    80006620:	00b59593          	slli	a1,a1,0xb
    80006624:	5a858593          	addi	a1,a1,1448 # 5a8 <offset+0x108>
    80006628:	00b59593          	slli	a1,a1,0xb
    8000662c:	13c58593          	addi	a1,a1,316
    80006630:	00a59593          	slli	a1,a1,0xa
    80006634:	33258593          	addi	a1,a1,818
    80006638:	40b5063b          	subw	a2,a0,a1
    8000663c:	50c2bc23          	sd	a2,1304(t0)
    80006640:	4afb16b7          	lui	a3,0x4afb1
    80006644:	cd26869b          	addiw	a3,a3,-814 # 4afb0cd2 <absimmsh+0x3f4dff25>
    80006648:	00c68463          	beq	a3,a2,80006650 <inst_438>
    8000664c:	9d9f906f          	j	80000024 <rvtest_error>

0000000080006650 <inst_438>:
    80006650:	00400513          	li	a0,4
    80006654:	555555b7          	lui	a1,0x55555
    80006658:	55558593          	addi	a1,a1,1365 # 55555555 <absimmsh+0x49a847a8>
    8000665c:	00b59593          	slli	a1,a1,0xb
    80006660:	2aa58593          	addi	a1,a1,682
    80006664:	00b59593          	slli	a1,a1,0xb
    80006668:	55558593          	addi	a1,a1,1365
    8000666c:	00a59593          	slli	a1,a1,0xa
    80006670:	15658593          	addi	a1,a1,342
    80006674:	40b5063b          	subw	a2,a0,a1
    80006678:	52c2b023          	sd	a2,1312(t0)
    8000667c:	aaaab6b7          	lui	a3,0xaaaab
    80006680:	aae6869b          	addiw	a3,a3,-1362 # ffffffffaaaaaaae <absimm+0xfffffffeefd9cfde>
    80006684:	00c68463          	beq	a3,a2,8000668c <inst_439>
    80006688:	99df906f          	j	80000024 <rvtest_error>

000000008000668c <inst_439>:
    8000668c:	00400513          	li	a0,4
    80006690:	aaaab5b7          	lui	a1,0xaaaab
    80006694:	aaa58593          	addi	a1,a1,-1366 # ffffffffaaaaaaaa <absimm+0xfffffffeefd9cfda>
    80006698:	00b59593          	slli	a1,a1,0xb
    8000669c:	55558593          	addi	a1,a1,1365
    800066a0:	00b59593          	slli	a1,a1,0xb
    800066a4:	2aa58593          	addi	a1,a1,682
    800066a8:	00a59593          	slli	a1,a1,0xa
    800066ac:	2ab58593          	addi	a1,a1,683
    800066b0:	40b5063b          	subw	a2,a0,a1
    800066b4:	52c2b423          	sd	a2,1320(t0)
    800066b8:	555556b7          	lui	a3,0x55555
    800066bc:	5596869b          	addiw	a3,a3,1369 # 55555559 <absimmsh+0x49a847ac>
    800066c0:	00c68463          	beq	a3,a2,800066c8 <inst_440>
    800066c4:	961f906f          	j	80000024 <rvtest_error>

00000000800066c8 <inst_440>:
    800066c8:	00400513          	li	a0,4
    800066cc:	00600593          	li	a1,6
    800066d0:	40b5063b          	subw	a2,a0,a1
    800066d4:	52c2b823          	sd	a2,1328(t0)
    800066d8:	ffe00693          	li	a3,-2
    800066dc:	00c68463          	beq	a3,a2,800066e4 <inst_441>
    800066e0:	945f906f          	j	80000024 <rvtest_error>

00000000800066e4 <inst_441>:
    800066e4:	00400513          	li	a0,4
    800066e8:	333335b7          	lui	a1,0x33333
    800066ec:	33358593          	addi	a1,a1,819 # 33333333 <absimmsh+0x27862586>
    800066f0:	00b59593          	slli	a1,a1,0xb
    800066f4:	19958593          	addi	a1,a1,409
    800066f8:	00b59593          	slli	a1,a1,0xb
    800066fc:	4cc58593          	addi	a1,a1,1228
    80006700:	00a59593          	slli	a1,a1,0xa
    80006704:	33458593          	addi	a1,a1,820
    80006708:	40b5063b          	subw	a2,a0,a1
    8000670c:	52c2bc23          	sd	a2,1336(t0)
    80006710:	ccccd6b7          	lui	a3,0xccccd
    80006714:	cd06869b          	addiw	a3,a3,-816 # ffffffffccccccd0 <absimm+0xffffffff11fbf200>
    80006718:	00c68463          	beq	a3,a2,80006720 <inst_442>
    8000671c:	909f906f          	j	80000024 <rvtest_error>

0000000080006720 <inst_442>:
    80006720:	00400513          	li	a0,4
    80006724:	666665b7          	lui	a1,0x66666
    80006728:	66658593          	addi	a1,a1,1638 # 66666666 <absimmsh+0x5ab958b9>
    8000672c:	00b59593          	slli	a1,a1,0xb
    80006730:	33358593          	addi	a1,a1,819
    80006734:	00b59593          	slli	a1,a1,0xb
    80006738:	19958593          	addi	a1,a1,409
    8000673c:	00a59593          	slli	a1,a1,0xa
    80006740:	26758593          	addi	a1,a1,615
    80006744:	40b5063b          	subw	a2,a0,a1
    80006748:	54c2b023          	sd	a2,1344(t0)
    8000674c:	9999a6b7          	lui	a3,0x9999a
    80006750:	99d6869b          	addiw	a3,a3,-1635 # ffffffff9999999d <absimm+0xfffffffedec8becd>
    80006754:	00c68463          	beq	a3,a2,8000675c <inst_443>
    80006758:	8cdf906f          	j	80000024 <rvtest_error>

000000008000675c <inst_443>:
    8000675c:	00400513          	li	a0,4
    80006760:	000005b7          	lui	a1,0x0
    80006764:	fff58593          	addi	a1,a1,-1
    80006768:	00b59593          	slli	a1,a1,0xb
    8000676c:	25758593          	addi	a1,a1,599
    80006770:	00b59593          	slli	a1,a1,0xb
    80006774:	6c358593          	addi	a1,a1,1731
    80006778:	00a59593          	slli	a1,a1,0xa
    8000677c:	0ce58593          	addi	a1,a1,206
    80006780:	40b5063b          	subw	a2,a0,a1
    80006784:	54c2b423          	sd	a2,1352(t0)
    80006788:	b504f6b7          	lui	a3,0xb504f
    8000678c:	3366869b          	addiw	a3,a3,822 # ffffffffb504f336 <absimm+0xfffffffefa341866>
    80006790:	00c68463          	beq	a3,a2,80006798 <inst_444>
    80006794:	891f906f          	j	80000024 <rvtest_error>

0000000080006798 <inst_444>:
    80006798:	00400513          	li	a0,4
    8000679c:	000005b7          	lui	a1,0x0
    800067a0:	00058593          	mv	a1,a1
    800067a4:	00b59593          	slli	a1,a1,0xb
    800067a8:	5a858593          	addi	a1,a1,1448 # 5a8 <offset+0x108>
    800067ac:	00b59593          	slli	a1,a1,0xb
    800067b0:	13c58593          	addi	a1,a1,316
    800067b4:	00a59593          	slli	a1,a1,0xa
    800067b8:	33458593          	addi	a1,a1,820
    800067bc:	40b5063b          	subw	a2,a0,a1
    800067c0:	54c2b823          	sd	a2,1360(t0)
    800067c4:	4afb16b7          	lui	a3,0x4afb1
    800067c8:	cd06869b          	addiw	a3,a3,-816 # 4afb0cd0 <absimmsh+0x3f4dff23>
    800067cc:	00c68463          	beq	a3,a2,800067d4 <inst_445>
    800067d0:	855f906f          	j	80000024 <rvtest_error>

00000000800067d4 <inst_445>:
    800067d4:	33333537          	lui	a0,0x33333
    800067d8:	33350513          	addi	a0,a0,819 # 33333333 <absimmsh+0x27862586>
    800067dc:	00b51513          	slli	a0,a0,0xb
    800067e0:	19950513          	addi	a0,a0,409
    800067e4:	00b51513          	slli	a0,a0,0xb
    800067e8:	4cc50513          	addi	a0,a0,1228
    800067ec:	00a51513          	slli	a0,a0,0xa
    800067f0:	33250513          	addi	a0,a0,818
    800067f4:	00300593          	li	a1,3
    800067f8:	40b5063b          	subw	a2,a0,a1
    800067fc:	54c2bc23          	sd	a2,1368(t0)
    80006800:	333336b7          	lui	a3,0x33333
    80006804:	32f6869b          	addiw	a3,a3,815 # 3333332f <absimmsh+0x27862582>
    80006808:	00c68463          	beq	a3,a2,80006810 <inst_446>
    8000680c:	819f906f          	j	80000024 <rvtest_error>

0000000080006810 <inst_446>:
    80006810:	33333537          	lui	a0,0x33333
    80006814:	33350513          	addi	a0,a0,819 # 33333333 <absimmsh+0x27862586>
    80006818:	00b51513          	slli	a0,a0,0xb
    8000681c:	19950513          	addi	a0,a0,409
    80006820:	00b51513          	slli	a0,a0,0xb
    80006824:	4cc50513          	addi	a0,a0,1228
    80006828:	00a51513          	slli	a0,a0,0xa
    8000682c:	33250513          	addi	a0,a0,818
    80006830:	555555b7          	lui	a1,0x55555
    80006834:	55558593          	addi	a1,a1,1365 # 55555555 <absimmsh+0x49a847a8>
    80006838:	00b59593          	slli	a1,a1,0xb
    8000683c:	2aa58593          	addi	a1,a1,682
    80006840:	00b59593          	slli	a1,a1,0xb
    80006844:	55558593          	addi	a1,a1,1365
    80006848:	00a59593          	slli	a1,a1,0xa
    8000684c:	15558593          	addi	a1,a1,341
    80006850:	40b5063b          	subw	a2,a0,a1
    80006854:	56c2b023          	sd	a2,1376(t0)
    80006858:	dddde6b7          	lui	a3,0xdddde
    8000685c:	ddd6869b          	addiw	a3,a3,-547 # ffffffffdddddddd <absimm+0xffffffff230d030d>
    80006860:	00c68463          	beq	a3,a2,80006868 <inst_447>
    80006864:	fc0f906f          	j	80000024 <rvtest_error>

0000000080006868 <inst_447>:
    80006868:	33333537          	lui	a0,0x33333
    8000686c:	33350513          	addi	a0,a0,819 # 33333333 <absimmsh+0x27862586>
    80006870:	00b51513          	slli	a0,a0,0xb
    80006874:	19950513          	addi	a0,a0,409
    80006878:	00b51513          	slli	a0,a0,0xb
    8000687c:	4cc50513          	addi	a0,a0,1228
    80006880:	00a51513          	slli	a0,a0,0xa
    80006884:	33250513          	addi	a0,a0,818
    80006888:	aaaab5b7          	lui	a1,0xaaaab
    8000688c:	aaa58593          	addi	a1,a1,-1366 # ffffffffaaaaaaaa <absimm+0xfffffffeefd9cfda>
    80006890:	00b59593          	slli	a1,a1,0xb
    80006894:	55558593          	addi	a1,a1,1365
    80006898:	00b59593          	slli	a1,a1,0xb
    8000689c:	2aa58593          	addi	a1,a1,682
    800068a0:	00a59593          	slli	a1,a1,0xa
    800068a4:	2aa58593          	addi	a1,a1,682
    800068a8:	40b5063b          	subw	a2,a0,a1
    800068ac:	56c2b423          	sd	a2,1384(t0)
    800068b0:	888896b7          	lui	a3,0x88889
    800068b4:	8886869b          	addiw	a3,a3,-1912 # ffffffff88888888 <absimm+0xfffffffecdb7adb8>
    800068b8:	00c68463          	beq	a3,a2,800068c0 <inst_448>
    800068bc:	f68f906f          	j	80000024 <rvtest_error>

00000000800068c0 <inst_448>:
    800068c0:	33333537          	lui	a0,0x33333
    800068c4:	33350513          	addi	a0,a0,819 # 33333333 <absimmsh+0x27862586>
    800068c8:	00b51513          	slli	a0,a0,0xb
    800068cc:	19950513          	addi	a0,a0,409
    800068d0:	00b51513          	slli	a0,a0,0xb
    800068d4:	4cc50513          	addi	a0,a0,1228
    800068d8:	00a51513          	slli	a0,a0,0xa
    800068dc:	33250513          	addi	a0,a0,818
    800068e0:	00500593          	li	a1,5
    800068e4:	40b5063b          	subw	a2,a0,a1
    800068e8:	56c2b823          	sd	a2,1392(t0)
    800068ec:	333336b7          	lui	a3,0x33333
    800068f0:	32d6869b          	addiw	a3,a3,813 # 3333332d <absimmsh+0x27862580>
    800068f4:	00c68463          	beq	a3,a2,800068fc <inst_449>
    800068f8:	f2cf906f          	j	80000024 <rvtest_error>

00000000800068fc <inst_449>:
    800068fc:	33333537          	lui	a0,0x33333
    80006900:	33350513          	addi	a0,a0,819 # 33333333 <absimmsh+0x27862586>
    80006904:	00b51513          	slli	a0,a0,0xb
    80006908:	19950513          	addi	a0,a0,409
    8000690c:	00b51513          	slli	a0,a0,0xb
    80006910:	4cc50513          	addi	a0,a0,1228
    80006914:	00a51513          	slli	a0,a0,0xa
    80006918:	33250513          	addi	a0,a0,818
    8000691c:	333335b7          	lui	a1,0x33333
    80006920:	33358593          	addi	a1,a1,819 # 33333333 <absimmsh+0x27862586>
    80006924:	00b59593          	slli	a1,a1,0xb
    80006928:	19958593          	addi	a1,a1,409
    8000692c:	00b59593          	slli	a1,a1,0xb
    80006930:	4cc58593          	addi	a1,a1,1228
    80006934:	00a59593          	slli	a1,a1,0xa
    80006938:	33358593          	addi	a1,a1,819
    8000693c:	40b5063b          	subw	a2,a0,a1
    80006940:	56c2bc23          	sd	a2,1400(t0)
    80006944:	fff00693          	li	a3,-1
    80006948:	00c68463          	beq	a3,a2,80006950 <inst_450>
    8000694c:	ed8f906f          	j	80000024 <rvtest_error>

0000000080006950 <inst_450>:
    80006950:	33333537          	lui	a0,0x33333
    80006954:	33350513          	addi	a0,a0,819 # 33333333 <absimmsh+0x27862586>
    80006958:	00b51513          	slli	a0,a0,0xb
    8000695c:	19950513          	addi	a0,a0,409
    80006960:	00b51513          	slli	a0,a0,0xb
    80006964:	4cc50513          	addi	a0,a0,1228
    80006968:	00a51513          	slli	a0,a0,0xa
    8000696c:	33250513          	addi	a0,a0,818
    80006970:	666665b7          	lui	a1,0x66666
    80006974:	66658593          	addi	a1,a1,1638 # 66666666 <absimmsh+0x5ab958b9>
    80006978:	00b59593          	slli	a1,a1,0xb
    8000697c:	33358593          	addi	a1,a1,819
    80006980:	00b59593          	slli	a1,a1,0xb
    80006984:	19958593          	addi	a1,a1,409
    80006988:	00a59593          	slli	a1,a1,0xa
    8000698c:	26658593          	addi	a1,a1,614
    80006990:	40b5063b          	subw	a2,a0,a1
    80006994:	58c2b023          	sd	a2,1408(t0)
    80006998:	ccccd6b7          	lui	a3,0xccccd
    8000699c:	ccc6869b          	addiw	a3,a3,-820 # ffffffffcccccccc <absimm+0xffffffff11fbf1fc>
    800069a0:	00c68463          	beq	a3,a2,800069a8 <inst_451>
    800069a4:	e80f906f          	j	80000024 <rvtest_error>

00000000800069a8 <inst_451>:
    800069a8:	33333537          	lui	a0,0x33333
    800069ac:	33350513          	addi	a0,a0,819 # 33333333 <absimmsh+0x27862586>
    800069b0:	00b51513          	slli	a0,a0,0xb
    800069b4:	19950513          	addi	a0,a0,409
    800069b8:	00b51513          	slli	a0,a0,0xb
    800069bc:	4cc50513          	addi	a0,a0,1228
    800069c0:	00a51513          	slli	a0,a0,0xa
    800069c4:	33250513          	addi	a0,a0,818
    800069c8:	000005b7          	lui	a1,0x0
    800069cc:	fff58593          	addi	a1,a1,-1
    800069d0:	00b59593          	slli	a1,a1,0xb
    800069d4:	25758593          	addi	a1,a1,599
    800069d8:	00b59593          	slli	a1,a1,0xb
    800069dc:	6c358593          	addi	a1,a1,1731
    800069e0:	00a59593          	slli	a1,a1,0xa
    800069e4:	0cd58593          	addi	a1,a1,205
    800069e8:	40b5063b          	subw	a2,a0,a1
    800069ec:	58c2b423          	sd	a2,1416(t0)
    800069f0:	e83826b7          	lui	a3,0xe8382
    800069f4:	6656869b          	addiw	a3,a3,1637 # ffffffffe8382665 <absimm+0xffffffff2d674b95>
    800069f8:	00c68463          	beq	a3,a2,80006a00 <inst_452>
    800069fc:	e28f906f          	j	80000024 <rvtest_error>

0000000080006a00 <inst_452>:
    80006a00:	33333537          	lui	a0,0x33333
    80006a04:	33350513          	addi	a0,a0,819 # 33333333 <absimmsh+0x27862586>
    80006a08:	00b51513          	slli	a0,a0,0xb
    80006a0c:	19950513          	addi	a0,a0,409
    80006a10:	00b51513          	slli	a0,a0,0xb
    80006a14:	4cc50513          	addi	a0,a0,1228
    80006a18:	00a51513          	slli	a0,a0,0xa
    80006a1c:	33250513          	addi	a0,a0,818
    80006a20:	000005b7          	lui	a1,0x0
    80006a24:	00058593          	mv	a1,a1
    80006a28:	00b59593          	slli	a1,a1,0xb
    80006a2c:	5a858593          	addi	a1,a1,1448 # 5a8 <offset+0x108>
    80006a30:	00b59593          	slli	a1,a1,0xb
    80006a34:	13c58593          	addi	a1,a1,316
    80006a38:	00a59593          	slli	a1,a1,0xa
    80006a3c:	33358593          	addi	a1,a1,819
    80006a40:	40b5063b          	subw	a2,a0,a1
    80006a44:	58c2b823          	sd	a2,1424(t0)
    80006a48:	7e2e46b7          	lui	a3,0x7e2e4
    80006a4c:	fff6869b          	addiw	a3,a3,-1 # 7e2e3fff <absimmsh+0x72813252>
    80006a50:	00c68463          	beq	a3,a2,80006a58 <inst_453>
    80006a54:	dd0f906f          	j	80000024 <rvtest_error>

0000000080006a58 <inst_453>:
    80006a58:	33333537          	lui	a0,0x33333
    80006a5c:	33350513          	addi	a0,a0,819 # 33333333 <absimmsh+0x27862586>
    80006a60:	00b51513          	slli	a0,a0,0xb
    80006a64:	19950513          	addi	a0,a0,409
    80006a68:	00b51513          	slli	a0,a0,0xb
    80006a6c:	4cc50513          	addi	a0,a0,1228
    80006a70:	00a51513          	slli	a0,a0,0xa
    80006a74:	33250513          	addi	a0,a0,818
    80006a78:	00200593          	li	a1,2
    80006a7c:	40b5063b          	subw	a2,a0,a1
    80006a80:	58c2bc23          	sd	a2,1432(t0)
    80006a84:	333336b7          	lui	a3,0x33333
    80006a88:	3306869b          	addiw	a3,a3,816 # 33333330 <absimmsh+0x27862583>
    80006a8c:	00c68463          	beq	a3,a2,80006a94 <inst_454>
    80006a90:	d94f906f          	j	80000024 <rvtest_error>

0000000080006a94 <inst_454>:
    80006a94:	33333537          	lui	a0,0x33333
    80006a98:	33350513          	addi	a0,a0,819 # 33333333 <absimmsh+0x27862586>
    80006a9c:	00b51513          	slli	a0,a0,0xb
    80006aa0:	19950513          	addi	a0,a0,409
    80006aa4:	00b51513          	slli	a0,a0,0xb
    80006aa8:	4cc50513          	addi	a0,a0,1228
    80006aac:	00a51513          	slli	a0,a0,0xa
    80006ab0:	33250513          	addi	a0,a0,818
    80006ab4:	555555b7          	lui	a1,0x55555
    80006ab8:	55558593          	addi	a1,a1,1365 # 55555555 <absimmsh+0x49a847a8>
    80006abc:	00b59593          	slli	a1,a1,0xb
    80006ac0:	2aa58593          	addi	a1,a1,682
    80006ac4:	00b59593          	slli	a1,a1,0xb
    80006ac8:	55558593          	addi	a1,a1,1365
    80006acc:	00a59593          	slli	a1,a1,0xa
    80006ad0:	15458593          	addi	a1,a1,340
    80006ad4:	40b5063b          	subw	a2,a0,a1
    80006ad8:	5ac2b023          	sd	a2,1440(t0)
    80006adc:	dddde6b7          	lui	a3,0xdddde
    80006ae0:	dde6869b          	addiw	a3,a3,-546 # ffffffffddddddde <absimm+0xffffffff230d030e>
    80006ae4:	00c68463          	beq	a3,a2,80006aec <inst_455>
    80006ae8:	d3cf906f          	j	80000024 <rvtest_error>

0000000080006aec <inst_455>:
    80006aec:	33333537          	lui	a0,0x33333
    80006af0:	33350513          	addi	a0,a0,819 # 33333333 <absimmsh+0x27862586>
    80006af4:	00b51513          	slli	a0,a0,0xb
    80006af8:	19950513          	addi	a0,a0,409
    80006afc:	00b51513          	slli	a0,a0,0xb
    80006b00:	4cc50513          	addi	a0,a0,1228
    80006b04:	00a51513          	slli	a0,a0,0xa
    80006b08:	33250513          	addi	a0,a0,818
    80006b0c:	00000593          	li	a1,0
    80006b10:	40b5063b          	subw	a2,a0,a1
    80006b14:	5ac2b423          	sd	a2,1448(t0)
    80006b18:	333336b7          	lui	a3,0x33333
    80006b1c:	3326869b          	addiw	a3,a3,818 # 33333332 <absimmsh+0x27862585>
    80006b20:	00c68463          	beq	a3,a2,80006b28 <inst_456>
    80006b24:	d00f906f          	j	80000024 <rvtest_error>

0000000080006b28 <inst_456>:
    80006b28:	33333537          	lui	a0,0x33333
    80006b2c:	33350513          	addi	a0,a0,819 # 33333333 <absimmsh+0x27862586>
    80006b30:	00b51513          	slli	a0,a0,0xb
    80006b34:	19950513          	addi	a0,a0,409
    80006b38:	00b51513          	slli	a0,a0,0xb
    80006b3c:	4cc50513          	addi	a0,a0,1228
    80006b40:	00a51513          	slli	a0,a0,0xa
    80006b44:	33250513          	addi	a0,a0,818
    80006b48:	00400593          	li	a1,4
    80006b4c:	40b5063b          	subw	a2,a0,a1
    80006b50:	5ac2b823          	sd	a2,1456(t0)
    80006b54:	333336b7          	lui	a3,0x33333
    80006b58:	32e6869b          	addiw	a3,a3,814 # 3333332e <absimmsh+0x27862581>
    80006b5c:	00c68463          	beq	a3,a2,80006b64 <inst_457>
    80006b60:	cc4f906f          	j	80000024 <rvtest_error>

0000000080006b64 <inst_457>:
    80006b64:	33333537          	lui	a0,0x33333
    80006b68:	33350513          	addi	a0,a0,819 # 33333333 <absimmsh+0x27862586>
    80006b6c:	00b51513          	slli	a0,a0,0xb
    80006b70:	19950513          	addi	a0,a0,409
    80006b74:	00b51513          	slli	a0,a0,0xb
    80006b78:	4cc50513          	addi	a0,a0,1228
    80006b7c:	00a51513          	slli	a0,a0,0xa
    80006b80:	33250513          	addi	a0,a0,818
    80006b84:	333335b7          	lui	a1,0x33333
    80006b88:	33358593          	addi	a1,a1,819 # 33333333 <absimmsh+0x27862586>
    80006b8c:	00b59593          	slli	a1,a1,0xb
    80006b90:	19958593          	addi	a1,a1,409
    80006b94:	00b59593          	slli	a1,a1,0xb
    80006b98:	4cc58593          	addi	a1,a1,1228
    80006b9c:	00a59593          	slli	a1,a1,0xa
    80006ba0:	33258593          	addi	a1,a1,818
    80006ba4:	40b5063b          	subw	a2,a0,a1
    80006ba8:	5ac2bc23          	sd	a2,1464(t0)
    80006bac:	00000693          	li	a3,0
    80006bb0:	00c68463          	beq	a3,a2,80006bb8 <inst_458>
    80006bb4:	c70f906f          	j	80000024 <rvtest_error>

0000000080006bb8 <inst_458>:
    80006bb8:	33333537          	lui	a0,0x33333
    80006bbc:	33350513          	addi	a0,a0,819 # 33333333 <absimmsh+0x27862586>
    80006bc0:	00b51513          	slli	a0,a0,0xb
    80006bc4:	19950513          	addi	a0,a0,409
    80006bc8:	00b51513          	slli	a0,a0,0xb
    80006bcc:	4cc50513          	addi	a0,a0,1228
    80006bd0:	00a51513          	slli	a0,a0,0xa
    80006bd4:	33250513          	addi	a0,a0,818
    80006bd8:	666665b7          	lui	a1,0x66666
    80006bdc:	66658593          	addi	a1,a1,1638 # 66666666 <absimmsh+0x5ab958b9>
    80006be0:	00b59593          	slli	a1,a1,0xb
    80006be4:	33358593          	addi	a1,a1,819
    80006be8:	00b59593          	slli	a1,a1,0xb
    80006bec:	19958593          	addi	a1,a1,409
    80006bf0:	00a59593          	slli	a1,a1,0xa
    80006bf4:	26558593          	addi	a1,a1,613
    80006bf8:	40b5063b          	subw	a2,a0,a1
    80006bfc:	5cc2b023          	sd	a2,1472(t0)
    80006c00:	ccccd6b7          	lui	a3,0xccccd
    80006c04:	ccd6869b          	addiw	a3,a3,-819 # ffffffffcccccccd <absimm+0xffffffff11fbf1fd>
    80006c08:	00c68463          	beq	a3,a2,80006c10 <inst_459>
    80006c0c:	c18f906f          	j	80000024 <rvtest_error>

0000000080006c10 <inst_459>:
    80006c10:	33333537          	lui	a0,0x33333
    80006c14:	33350513          	addi	a0,a0,819 # 33333333 <absimmsh+0x27862586>
    80006c18:	00b51513          	slli	a0,a0,0xb
    80006c1c:	19950513          	addi	a0,a0,409
    80006c20:	00b51513          	slli	a0,a0,0xb
    80006c24:	4cc50513          	addi	a0,a0,1228
    80006c28:	00a51513          	slli	a0,a0,0xa
    80006c2c:	33250513          	addi	a0,a0,818
    80006c30:	000005b7          	lui	a1,0x0
    80006c34:	00058593          	mv	a1,a1
    80006c38:	00b59593          	slli	a1,a1,0xb
    80006c3c:	5a858593          	addi	a1,a1,1448 # 5a8 <offset+0x108>
    80006c40:	00b59593          	slli	a1,a1,0xb
    80006c44:	13c58593          	addi	a1,a1,316
    80006c48:	00a59593          	slli	a1,a1,0xa
    80006c4c:	33258593          	addi	a1,a1,818
    80006c50:	40b5063b          	subw	a2,a0,a1
    80006c54:	5cc2b423          	sd	a2,1480(t0)
    80006c58:	7e2e46b7          	lui	a3,0x7e2e4
    80006c5c:	00c68463          	beq	a3,a2,80006c64 <inst_460>
    80006c60:	bc4f906f          	j	80000024 <rvtest_error>

0000000080006c64 <inst_460>:
    80006c64:	33333537          	lui	a0,0x33333
    80006c68:	33350513          	addi	a0,a0,819 # 33333333 <absimmsh+0x27862586>
    80006c6c:	00b51513          	slli	a0,a0,0xb
    80006c70:	19950513          	addi	a0,a0,409
    80006c74:	00b51513          	slli	a0,a0,0xb
    80006c78:	4cc50513          	addi	a0,a0,1228
    80006c7c:	00a51513          	slli	a0,a0,0xa
    80006c80:	33250513          	addi	a0,a0,818
    80006c84:	555555b7          	lui	a1,0x55555
    80006c88:	55558593          	addi	a1,a1,1365 # 55555555 <absimmsh+0x49a847a8>
    80006c8c:	00b59593          	slli	a1,a1,0xb
    80006c90:	2aa58593          	addi	a1,a1,682
    80006c94:	00b59593          	slli	a1,a1,0xb
    80006c98:	55558593          	addi	a1,a1,1365
    80006c9c:	00a59593          	slli	a1,a1,0xa
    80006ca0:	15658593          	addi	a1,a1,342
    80006ca4:	40b5063b          	subw	a2,a0,a1
    80006ca8:	5cc2b823          	sd	a2,1488(t0)
    80006cac:	dddde6b7          	lui	a3,0xdddde
    80006cb0:	ddc6869b          	addiw	a3,a3,-548 # ffffffffdddddddc <absimm+0xffffffff230d030c>
    80006cb4:	00c68463          	beq	a3,a2,80006cbc <inst_461>
    80006cb8:	b6cf906f          	j	80000024 <rvtest_error>

0000000080006cbc <inst_461>:
    80006cbc:	33333537          	lui	a0,0x33333
    80006cc0:	33350513          	addi	a0,a0,819 # 33333333 <absimmsh+0x27862586>
    80006cc4:	00b51513          	slli	a0,a0,0xb
    80006cc8:	19950513          	addi	a0,a0,409
    80006ccc:	00b51513          	slli	a0,a0,0xb
    80006cd0:	4cc50513          	addi	a0,a0,1228
    80006cd4:	00a51513          	slli	a0,a0,0xa
    80006cd8:	33250513          	addi	a0,a0,818
    80006cdc:	aaaab5b7          	lui	a1,0xaaaab
    80006ce0:	aaa58593          	addi	a1,a1,-1366 # ffffffffaaaaaaaa <absimm+0xfffffffeefd9cfda>
    80006ce4:	00b59593          	slli	a1,a1,0xb
    80006ce8:	55558593          	addi	a1,a1,1365
    80006cec:	00b59593          	slli	a1,a1,0xb
    80006cf0:	2aa58593          	addi	a1,a1,682
    80006cf4:	00a59593          	slli	a1,a1,0xa
    80006cf8:	2ab58593          	addi	a1,a1,683
    80006cfc:	40b5063b          	subw	a2,a0,a1
    80006d00:	5cc2bc23          	sd	a2,1496(t0)
    80006d04:	888896b7          	lui	a3,0x88889
    80006d08:	8876869b          	addiw	a3,a3,-1913 # ffffffff88888887 <absimm+0xfffffffecdb7adb7>
    80006d0c:	00c68463          	beq	a3,a2,80006d14 <inst_462>
    80006d10:	b14f906f          	j	80000024 <rvtest_error>

0000000080006d14 <inst_462>:
    80006d14:	33333537          	lui	a0,0x33333
    80006d18:	33350513          	addi	a0,a0,819 # 33333333 <absimmsh+0x27862586>
    80006d1c:	00b51513          	slli	a0,a0,0xb
    80006d20:	19950513          	addi	a0,a0,409
    80006d24:	00b51513          	slli	a0,a0,0xb
    80006d28:	4cc50513          	addi	a0,a0,1228
    80006d2c:	00a51513          	slli	a0,a0,0xa
    80006d30:	33250513          	addi	a0,a0,818
    80006d34:	00600593          	li	a1,6
    80006d38:	40b5063b          	subw	a2,a0,a1
    80006d3c:	5ec2b023          	sd	a2,1504(t0)
    80006d40:	333336b7          	lui	a3,0x33333
    80006d44:	32c6869b          	addiw	a3,a3,812 # 3333332c <absimmsh+0x2786257f>
    80006d48:	00c68463          	beq	a3,a2,80006d50 <inst_463>
    80006d4c:	ad8f906f          	j	80000024 <rvtest_error>

0000000080006d50 <inst_463>:
    80006d50:	33333537          	lui	a0,0x33333
    80006d54:	33350513          	addi	a0,a0,819 # 33333333 <absimmsh+0x27862586>
    80006d58:	00b51513          	slli	a0,a0,0xb
    80006d5c:	19950513          	addi	a0,a0,409
    80006d60:	00b51513          	slli	a0,a0,0xb
    80006d64:	4cc50513          	addi	a0,a0,1228
    80006d68:	00a51513          	slli	a0,a0,0xa
    80006d6c:	33250513          	addi	a0,a0,818
    80006d70:	333335b7          	lui	a1,0x33333
    80006d74:	33358593          	addi	a1,a1,819 # 33333333 <absimmsh+0x27862586>
    80006d78:	00b59593          	slli	a1,a1,0xb
    80006d7c:	19958593          	addi	a1,a1,409
    80006d80:	00b59593          	slli	a1,a1,0xb
    80006d84:	4cc58593          	addi	a1,a1,1228
    80006d88:	00a59593          	slli	a1,a1,0xa
    80006d8c:	33458593          	addi	a1,a1,820
    80006d90:	40b5063b          	subw	a2,a0,a1
    80006d94:	5ec2b423          	sd	a2,1512(t0)
    80006d98:	ffe00693          	li	a3,-2
    80006d9c:	00c68463          	beq	a3,a2,80006da4 <inst_464>
    80006da0:	a84f906f          	j	80000024 <rvtest_error>

0000000080006da4 <inst_464>:
    80006da4:	33333537          	lui	a0,0x33333
    80006da8:	33350513          	addi	a0,a0,819 # 33333333 <absimmsh+0x27862586>
    80006dac:	00b51513          	slli	a0,a0,0xb
    80006db0:	19950513          	addi	a0,a0,409
    80006db4:	00b51513          	slli	a0,a0,0xb
    80006db8:	4cc50513          	addi	a0,a0,1228
    80006dbc:	00a51513          	slli	a0,a0,0xa
    80006dc0:	33250513          	addi	a0,a0,818
    80006dc4:	666665b7          	lui	a1,0x66666
    80006dc8:	66658593          	addi	a1,a1,1638 # 66666666 <absimmsh+0x5ab958b9>
    80006dcc:	00b59593          	slli	a1,a1,0xb
    80006dd0:	33358593          	addi	a1,a1,819
    80006dd4:	00b59593          	slli	a1,a1,0xb
    80006dd8:	19958593          	addi	a1,a1,409
    80006ddc:	00a59593          	slli	a1,a1,0xa
    80006de0:	26758593          	addi	a1,a1,615
    80006de4:	40b5063b          	subw	a2,a0,a1
    80006de8:	5ec2b823          	sd	a2,1520(t0)
    80006dec:	ccccd6b7          	lui	a3,0xccccd
    80006df0:	ccb6869b          	addiw	a3,a3,-821 # ffffffffcccccccb <absimm+0xffffffff11fbf1fb>
    80006df4:	00c68463          	beq	a3,a2,80006dfc <inst_465>
    80006df8:	a2cf906f          	j	80000024 <rvtest_error>

0000000080006dfc <inst_465>:
    80006dfc:	33333537          	lui	a0,0x33333
    80006e00:	33350513          	addi	a0,a0,819 # 33333333 <absimmsh+0x27862586>
    80006e04:	00b51513          	slli	a0,a0,0xb
    80006e08:	19950513          	addi	a0,a0,409
    80006e0c:	00b51513          	slli	a0,a0,0xb
    80006e10:	4cc50513          	addi	a0,a0,1228
    80006e14:	00a51513          	slli	a0,a0,0xa
    80006e18:	33250513          	addi	a0,a0,818
    80006e1c:	000005b7          	lui	a1,0x0
    80006e20:	fff58593          	addi	a1,a1,-1
    80006e24:	00b59593          	slli	a1,a1,0xb
    80006e28:	25758593          	addi	a1,a1,599
    80006e2c:	00b59593          	slli	a1,a1,0xb
    80006e30:	6c358593          	addi	a1,a1,1731
    80006e34:	00a59593          	slli	a1,a1,0xa
    80006e38:	0ce58593          	addi	a1,a1,206
    80006e3c:	40b5063b          	subw	a2,a0,a1
    80006e40:	5ec2bc23          	sd	a2,1528(t0)
    80006e44:	e83826b7          	lui	a3,0xe8382
    80006e48:	6646869b          	addiw	a3,a3,1636 # ffffffffe8382664 <absimm+0xffffffff2d674b94>
    80006e4c:	00c68463          	beq	a3,a2,80006e54 <inst_466>
    80006e50:	9d4f906f          	j	80000024 <rvtest_error>

0000000080006e54 <inst_466>:
    80006e54:	33333537          	lui	a0,0x33333
    80006e58:	33350513          	addi	a0,a0,819 # 33333333 <absimmsh+0x27862586>
    80006e5c:	00b51513          	slli	a0,a0,0xb
    80006e60:	19950513          	addi	a0,a0,409
    80006e64:	00b51513          	slli	a0,a0,0xb
    80006e68:	4cc50513          	addi	a0,a0,1228
    80006e6c:	00a51513          	slli	a0,a0,0xa
    80006e70:	33250513          	addi	a0,a0,818
    80006e74:	000005b7          	lui	a1,0x0
    80006e78:	00058593          	mv	a1,a1
    80006e7c:	00b59593          	slli	a1,a1,0xb
    80006e80:	5a858593          	addi	a1,a1,1448 # 5a8 <offset+0x108>
    80006e84:	00b59593          	slli	a1,a1,0xb
    80006e88:	13c58593          	addi	a1,a1,316
    80006e8c:	00a59593          	slli	a1,a1,0xa
    80006e90:	33458593          	addi	a1,a1,820
    80006e94:	40b5063b          	subw	a2,a0,a1
    80006e98:	60c2b023          	sd	a2,1536(t0)
    80006e9c:	7e2e46b7          	lui	a3,0x7e2e4
    80006ea0:	ffe6869b          	addiw	a3,a3,-2 # 7e2e3ffe <absimmsh+0x72813251>
    80006ea4:	00c68463          	beq	a3,a2,80006eac <inst_467>
    80006ea8:	97cf906f          	j	80000024 <rvtest_error>

0000000080006eac <inst_467>:
    80006eac:	66666537          	lui	a0,0x66666
    80006eb0:	66650513          	addi	a0,a0,1638 # 66666666 <absimmsh+0x5ab958b9>
    80006eb4:	00b51513          	slli	a0,a0,0xb
    80006eb8:	33350513          	addi	a0,a0,819
    80006ebc:	00b51513          	slli	a0,a0,0xb
    80006ec0:	19950513          	addi	a0,a0,409
    80006ec4:	00a51513          	slli	a0,a0,0xa
    80006ec8:	26550513          	addi	a0,a0,613
    80006ecc:	00300593          	li	a1,3
    80006ed0:	40b5063b          	subw	a2,a0,a1
    80006ed4:	60c2b423          	sd	a2,1544(t0)
    80006ed8:	666666b7          	lui	a3,0x66666
    80006edc:	6626869b          	addiw	a3,a3,1634 # 66666662 <absimmsh+0x5ab958b5>
    80006ee0:	00c68463          	beq	a3,a2,80006ee8 <inst_468>
    80006ee4:	940f906f          	j	80000024 <rvtest_error>

0000000080006ee8 <inst_468>:
    80006ee8:	66666537          	lui	a0,0x66666
    80006eec:	66650513          	addi	a0,a0,1638 # 66666666 <absimmsh+0x5ab958b9>
    80006ef0:	00b51513          	slli	a0,a0,0xb
    80006ef4:	33350513          	addi	a0,a0,819
    80006ef8:	00b51513          	slli	a0,a0,0xb
    80006efc:	19950513          	addi	a0,a0,409
    80006f00:	00a51513          	slli	a0,a0,0xa
    80006f04:	26550513          	addi	a0,a0,613
    80006f08:	555555b7          	lui	a1,0x55555
    80006f0c:	55558593          	addi	a1,a1,1365 # 55555555 <absimmsh+0x49a847a8>
    80006f10:	00b59593          	slli	a1,a1,0xb
    80006f14:	2aa58593          	addi	a1,a1,682
    80006f18:	00b59593          	slli	a1,a1,0xb
    80006f1c:	55558593          	addi	a1,a1,1365
    80006f20:	00a59593          	slli	a1,a1,0xa
    80006f24:	15558593          	addi	a1,a1,341
    80006f28:	40b5063b          	subw	a2,a0,a1
    80006f2c:	60c2b823          	sd	a2,1552(t0)
    80006f30:	111116b7          	lui	a3,0x11111
    80006f34:	1106869b          	addiw	a3,a3,272 # 11111110 <absimmsh+0x5640363>
    80006f38:	00c68463          	beq	a3,a2,80006f40 <inst_469>
    80006f3c:	8e8f906f          	j	80000024 <rvtest_error>

0000000080006f40 <inst_469>:
    80006f40:	66666537          	lui	a0,0x66666
    80006f44:	66650513          	addi	a0,a0,1638 # 66666666 <absimmsh+0x5ab958b9>
    80006f48:	00b51513          	slli	a0,a0,0xb
    80006f4c:	33350513          	addi	a0,a0,819
    80006f50:	00b51513          	slli	a0,a0,0xb
    80006f54:	19950513          	addi	a0,a0,409
    80006f58:	00a51513          	slli	a0,a0,0xa
    80006f5c:	26550513          	addi	a0,a0,613
    80006f60:	aaaab5b7          	lui	a1,0xaaaab
    80006f64:	aaa58593          	addi	a1,a1,-1366 # ffffffffaaaaaaaa <absimm+0xfffffffeefd9cfda>
    80006f68:	00b59593          	slli	a1,a1,0xb
    80006f6c:	55558593          	addi	a1,a1,1365
    80006f70:	00b59593          	slli	a1,a1,0xb
    80006f74:	2aa58593          	addi	a1,a1,682
    80006f78:	00a59593          	slli	a1,a1,0xa
    80006f7c:	2aa58593          	addi	a1,a1,682
    80006f80:	40b5063b          	subw	a2,a0,a1
    80006f84:	60c2bc23          	sd	a2,1560(t0)
    80006f88:	bbbbc6b7          	lui	a3,0xbbbbc
    80006f8c:	bbb6869b          	addiw	a3,a3,-1093 # ffffffffbbbbbbbb <absimm+0xffffffff00eae0eb>
    80006f90:	00c68463          	beq	a3,a2,80006f98 <inst_470>
    80006f94:	890f906f          	j	80000024 <rvtest_error>

0000000080006f98 <inst_470>:
    80006f98:	66666537          	lui	a0,0x66666
    80006f9c:	66650513          	addi	a0,a0,1638 # 66666666 <absimmsh+0x5ab958b9>
    80006fa0:	00b51513          	slli	a0,a0,0xb
    80006fa4:	33350513          	addi	a0,a0,819
    80006fa8:	00b51513          	slli	a0,a0,0xb
    80006fac:	19950513          	addi	a0,a0,409
    80006fb0:	00a51513          	slli	a0,a0,0xa
    80006fb4:	26550513          	addi	a0,a0,613
    80006fb8:	00500593          	li	a1,5
    80006fbc:	40b5063b          	subw	a2,a0,a1
    80006fc0:	62c2b023          	sd	a2,1568(t0)
    80006fc4:	666666b7          	lui	a3,0x66666
    80006fc8:	6606869b          	addiw	a3,a3,1632 # 66666660 <absimmsh+0x5ab958b3>
    80006fcc:	00c68463          	beq	a3,a2,80006fd4 <inst_471>
    80006fd0:	854f906f          	j	80000024 <rvtest_error>

0000000080006fd4 <inst_471>:
    80006fd4:	66666537          	lui	a0,0x66666
    80006fd8:	66650513          	addi	a0,a0,1638 # 66666666 <absimmsh+0x5ab958b9>
    80006fdc:	00b51513          	slli	a0,a0,0xb
    80006fe0:	33350513          	addi	a0,a0,819
    80006fe4:	00b51513          	slli	a0,a0,0xb
    80006fe8:	19950513          	addi	a0,a0,409
    80006fec:	00a51513          	slli	a0,a0,0xa
    80006ff0:	26550513          	addi	a0,a0,613
    80006ff4:	333335b7          	lui	a1,0x33333
    80006ff8:	33358593          	addi	a1,a1,819 # 33333333 <absimmsh+0x27862586>
    80006ffc:	00b59593          	slli	a1,a1,0xb
    80007000:	19958593          	addi	a1,a1,409
    80007004:	00b59593          	slli	a1,a1,0xb
    80007008:	4cc58593          	addi	a1,a1,1228
    8000700c:	00a59593          	slli	a1,a1,0xa
    80007010:	33358593          	addi	a1,a1,819
    80007014:	40b5063b          	subw	a2,a0,a1
    80007018:	62c2b423          	sd	a2,1576(t0)
    8000701c:	333336b7          	lui	a3,0x33333
    80007020:	3326869b          	addiw	a3,a3,818 # 33333332 <absimmsh+0x27862585>
    80007024:	00c68463          	beq	a3,a2,8000702c <inst_472>
    80007028:	ffdf806f          	j	80000024 <rvtest_error>

000000008000702c <inst_472>:
    8000702c:	66666537          	lui	a0,0x66666
    80007030:	66650513          	addi	a0,a0,1638 # 66666666 <absimmsh+0x5ab958b9>
    80007034:	00b51513          	slli	a0,a0,0xb
    80007038:	33350513          	addi	a0,a0,819
    8000703c:	00b51513          	slli	a0,a0,0xb
    80007040:	19950513          	addi	a0,a0,409
    80007044:	00a51513          	slli	a0,a0,0xa
    80007048:	26550513          	addi	a0,a0,613
    8000704c:	666665b7          	lui	a1,0x66666
    80007050:	66658593          	addi	a1,a1,1638 # 66666666 <absimmsh+0x5ab958b9>
    80007054:	00b59593          	slli	a1,a1,0xb
    80007058:	33358593          	addi	a1,a1,819
    8000705c:	00b59593          	slli	a1,a1,0xb
    80007060:	19958593          	addi	a1,a1,409
    80007064:	00a59593          	slli	a1,a1,0xa
    80007068:	26658593          	addi	a1,a1,614
    8000706c:	40b5063b          	subw	a2,a0,a1
    80007070:	62c2b823          	sd	a2,1584(t0)
    80007074:	fff00693          	li	a3,-1
    80007078:	00c68463          	beq	a3,a2,80007080 <inst_473>
    8000707c:	fa9f806f          	j	80000024 <rvtest_error>

0000000080007080 <inst_473>:
    80007080:	66666537          	lui	a0,0x66666
    80007084:	66650513          	addi	a0,a0,1638 # 66666666 <absimmsh+0x5ab958b9>
    80007088:	00b51513          	slli	a0,a0,0xb
    8000708c:	33350513          	addi	a0,a0,819
    80007090:	00b51513          	slli	a0,a0,0xb
    80007094:	19950513          	addi	a0,a0,409
    80007098:	00a51513          	slli	a0,a0,0xa
    8000709c:	26550513          	addi	a0,a0,613
    800070a0:	000005b7          	lui	a1,0x0
    800070a4:	fff58593          	addi	a1,a1,-1
    800070a8:	00b59593          	slli	a1,a1,0xb
    800070ac:	25758593          	addi	a1,a1,599
    800070b0:	00b59593          	slli	a1,a1,0xb
    800070b4:	6c358593          	addi	a1,a1,1731
    800070b8:	00a59593          	slli	a1,a1,0xa
    800070bc:	0cd58593          	addi	a1,a1,205
    800070c0:	40b5063b          	subw	a2,a0,a1
    800070c4:	62c2bc23          	sd	a2,1592(t0)
    800070c8:	1b6b66b7          	lui	a3,0x1b6b6
    800070cc:	9986869b          	addiw	a3,a3,-1640 # 1b6b5998 <absimmsh+0xfbe4beb>
    800070d0:	00c68463          	beq	a3,a2,800070d8 <inst_474>
    800070d4:	f51f806f          	j	80000024 <rvtest_error>

00000000800070d8 <inst_474>:
    800070d8:	66666537          	lui	a0,0x66666
    800070dc:	66650513          	addi	a0,a0,1638 # 66666666 <absimmsh+0x5ab958b9>
    800070e0:	00b51513          	slli	a0,a0,0xb
    800070e4:	33350513          	addi	a0,a0,819
    800070e8:	00b51513          	slli	a0,a0,0xb
    800070ec:	19950513          	addi	a0,a0,409
    800070f0:	00a51513          	slli	a0,a0,0xa
    800070f4:	26550513          	addi	a0,a0,613
    800070f8:	000005b7          	lui	a1,0x0
    800070fc:	00058593          	mv	a1,a1
    80007100:	00b59593          	slli	a1,a1,0xb
    80007104:	5a858593          	addi	a1,a1,1448 # 5a8 <offset+0x108>
    80007108:	00b59593          	slli	a1,a1,0xb
    8000710c:	13c58593          	addi	a1,a1,316
    80007110:	00a59593          	slli	a1,a1,0xa
    80007114:	33358593          	addi	a1,a1,819
    80007118:	40b5063b          	subw	a2,a0,a1
    8000711c:	64c2b023          	sd	a2,1600(t0)
    80007120:	b16176b7          	lui	a3,0xb1617
    80007124:	3326869b          	addiw	a3,a3,818 # ffffffffb1617332 <absimm+0xfffffffef6909862>
    80007128:	00c68463          	beq	a3,a2,80007130 <inst_475>
    8000712c:	ef9f806f          	j	80000024 <rvtest_error>

0000000080007130 <inst_475>:
    80007130:	66666537          	lui	a0,0x66666
    80007134:	66650513          	addi	a0,a0,1638 # 66666666 <absimmsh+0x5ab958b9>
    80007138:	00b51513          	slli	a0,a0,0xb
    8000713c:	33350513          	addi	a0,a0,819
    80007140:	00b51513          	slli	a0,a0,0xb
    80007144:	19950513          	addi	a0,a0,409
    80007148:	00a51513          	slli	a0,a0,0xa
    8000714c:	26550513          	addi	a0,a0,613
    80007150:	00200593          	li	a1,2
    80007154:	40b5063b          	subw	a2,a0,a1
    80007158:	64c2b423          	sd	a2,1608(t0)
    8000715c:	666666b7          	lui	a3,0x66666
    80007160:	6636869b          	addiw	a3,a3,1635 # 66666663 <absimmsh+0x5ab958b6>
    80007164:	00c68463          	beq	a3,a2,8000716c <inst_476>
    80007168:	ebdf806f          	j	80000024 <rvtest_error>

000000008000716c <inst_476>:
    8000716c:	66666537          	lui	a0,0x66666
    80007170:	66650513          	addi	a0,a0,1638 # 66666666 <absimmsh+0x5ab958b9>
    80007174:	00b51513          	slli	a0,a0,0xb
    80007178:	33350513          	addi	a0,a0,819
    8000717c:	00b51513          	slli	a0,a0,0xb
    80007180:	19950513          	addi	a0,a0,409
    80007184:	00a51513          	slli	a0,a0,0xa
    80007188:	26550513          	addi	a0,a0,613
    8000718c:	555555b7          	lui	a1,0x55555
    80007190:	55558593          	addi	a1,a1,1365 # 55555555 <absimmsh+0x49a847a8>
    80007194:	00b59593          	slli	a1,a1,0xb
    80007198:	2aa58593          	addi	a1,a1,682
    8000719c:	00b59593          	slli	a1,a1,0xb
    800071a0:	55558593          	addi	a1,a1,1365
    800071a4:	00a59593          	slli	a1,a1,0xa
    800071a8:	15458593          	addi	a1,a1,340
    800071ac:	40b5063b          	subw	a2,a0,a1
    800071b0:	64c2b823          	sd	a2,1616(t0)
    800071b4:	111116b7          	lui	a3,0x11111
    800071b8:	1116869b          	addiw	a3,a3,273 # 11111111 <absimmsh+0x5640364>
    800071bc:	00c68463          	beq	a3,a2,800071c4 <inst_477>
    800071c0:	e65f806f          	j	80000024 <rvtest_error>

00000000800071c4 <inst_477>:
    800071c4:	66666537          	lui	a0,0x66666
    800071c8:	66650513          	addi	a0,a0,1638 # 66666666 <absimmsh+0x5ab958b9>
    800071cc:	00b51513          	slli	a0,a0,0xb
    800071d0:	33350513          	addi	a0,a0,819
    800071d4:	00b51513          	slli	a0,a0,0xb
    800071d8:	19950513          	addi	a0,a0,409
    800071dc:	00a51513          	slli	a0,a0,0xa
    800071e0:	26550513          	addi	a0,a0,613
    800071e4:	00000593          	li	a1,0
    800071e8:	40b5063b          	subw	a2,a0,a1
    800071ec:	64c2bc23          	sd	a2,1624(t0)
    800071f0:	666666b7          	lui	a3,0x66666
    800071f4:	6656869b          	addiw	a3,a3,1637 # 66666665 <absimmsh+0x5ab958b8>
    800071f8:	00c68463          	beq	a3,a2,80007200 <inst_478>
    800071fc:	e29f806f          	j	80000024 <rvtest_error>

0000000080007200 <inst_478>:
    80007200:	66666537          	lui	a0,0x66666
    80007204:	66650513          	addi	a0,a0,1638 # 66666666 <absimmsh+0x5ab958b9>
    80007208:	00b51513          	slli	a0,a0,0xb
    8000720c:	33350513          	addi	a0,a0,819
    80007210:	00b51513          	slli	a0,a0,0xb
    80007214:	19950513          	addi	a0,a0,409
    80007218:	00a51513          	slli	a0,a0,0xa
    8000721c:	26550513          	addi	a0,a0,613
    80007220:	00400593          	li	a1,4
    80007224:	40b5063b          	subw	a2,a0,a1
    80007228:	66c2b023          	sd	a2,1632(t0)
    8000722c:	666666b7          	lui	a3,0x66666
    80007230:	6616869b          	addiw	a3,a3,1633 # 66666661 <absimmsh+0x5ab958b4>
    80007234:	00c68463          	beq	a3,a2,8000723c <inst_479>
    80007238:	dedf806f          	j	80000024 <rvtest_error>

000000008000723c <inst_479>:
    8000723c:	66666537          	lui	a0,0x66666
    80007240:	66650513          	addi	a0,a0,1638 # 66666666 <absimmsh+0x5ab958b9>
    80007244:	00b51513          	slli	a0,a0,0xb
    80007248:	33350513          	addi	a0,a0,819
    8000724c:	00b51513          	slli	a0,a0,0xb
    80007250:	19950513          	addi	a0,a0,409
    80007254:	00a51513          	slli	a0,a0,0xa
    80007258:	26550513          	addi	a0,a0,613
    8000725c:	333335b7          	lui	a1,0x33333
    80007260:	33358593          	addi	a1,a1,819 # 33333333 <absimmsh+0x27862586>
    80007264:	00b59593          	slli	a1,a1,0xb
    80007268:	19958593          	addi	a1,a1,409
    8000726c:	00b59593          	slli	a1,a1,0xb
    80007270:	4cc58593          	addi	a1,a1,1228
    80007274:	00a59593          	slli	a1,a1,0xa
    80007278:	33258593          	addi	a1,a1,818
    8000727c:	40b5063b          	subw	a2,a0,a1
    80007280:	66c2b423          	sd	a2,1640(t0)
    80007284:	333336b7          	lui	a3,0x33333
    80007288:	3336869b          	addiw	a3,a3,819 # 33333333 <absimmsh+0x27862586>
    8000728c:	00c68463          	beq	a3,a2,80007294 <inst_480>
    80007290:	d95f806f          	j	80000024 <rvtest_error>

0000000080007294 <inst_480>:
    80007294:	66666537          	lui	a0,0x66666
    80007298:	66650513          	addi	a0,a0,1638 # 66666666 <absimmsh+0x5ab958b9>
    8000729c:	00b51513          	slli	a0,a0,0xb
    800072a0:	33350513          	addi	a0,a0,819
    800072a4:	00b51513          	slli	a0,a0,0xb
    800072a8:	19950513          	addi	a0,a0,409
    800072ac:	00a51513          	slli	a0,a0,0xa
    800072b0:	26550513          	addi	a0,a0,613
    800072b4:	666665b7          	lui	a1,0x66666
    800072b8:	66658593          	addi	a1,a1,1638 # 66666666 <absimmsh+0x5ab958b9>
    800072bc:	00b59593          	slli	a1,a1,0xb
    800072c0:	33358593          	addi	a1,a1,819
    800072c4:	00b59593          	slli	a1,a1,0xb
    800072c8:	19958593          	addi	a1,a1,409
    800072cc:	00a59593          	slli	a1,a1,0xa
    800072d0:	26558593          	addi	a1,a1,613
    800072d4:	40b5063b          	subw	a2,a0,a1
    800072d8:	66c2b823          	sd	a2,1648(t0)
    800072dc:	00000693          	li	a3,0
    800072e0:	00c68463          	beq	a3,a2,800072e8 <inst_481>
    800072e4:	d41f806f          	j	80000024 <rvtest_error>

00000000800072e8 <inst_481>:
    800072e8:	66666537          	lui	a0,0x66666
    800072ec:	66650513          	addi	a0,a0,1638 # 66666666 <absimmsh+0x5ab958b9>
    800072f0:	00b51513          	slli	a0,a0,0xb
    800072f4:	33350513          	addi	a0,a0,819
    800072f8:	00b51513          	slli	a0,a0,0xb
    800072fc:	19950513          	addi	a0,a0,409
    80007300:	00a51513          	slli	a0,a0,0xa
    80007304:	26550513          	addi	a0,a0,613
    80007308:	000005b7          	lui	a1,0x0
    8000730c:	00058593          	mv	a1,a1
    80007310:	00b59593          	slli	a1,a1,0xb
    80007314:	5a858593          	addi	a1,a1,1448 # 5a8 <offset+0x108>
    80007318:	00b59593          	slli	a1,a1,0xb
    8000731c:	13c58593          	addi	a1,a1,316
    80007320:	00a59593          	slli	a1,a1,0xa
    80007324:	33258593          	addi	a1,a1,818
    80007328:	40b5063b          	subw	a2,a0,a1
    8000732c:	66c2bc23          	sd	a2,1656(t0)
    80007330:	b16176b7          	lui	a3,0xb1617
    80007334:	3336869b          	addiw	a3,a3,819 # ffffffffb1617333 <absimm+0xfffffffef6909863>
    80007338:	00c68463          	beq	a3,a2,80007340 <inst_482>
    8000733c:	ce9f806f          	j	80000024 <rvtest_error>

0000000080007340 <inst_482>:
    80007340:	66666537          	lui	a0,0x66666
    80007344:	66650513          	addi	a0,a0,1638 # 66666666 <absimmsh+0x5ab958b9>
    80007348:	00b51513          	slli	a0,a0,0xb
    8000734c:	33350513          	addi	a0,a0,819
    80007350:	00b51513          	slli	a0,a0,0xb
    80007354:	19950513          	addi	a0,a0,409
    80007358:	00a51513          	slli	a0,a0,0xa
    8000735c:	26550513          	addi	a0,a0,613
    80007360:	555555b7          	lui	a1,0x55555
    80007364:	55558593          	addi	a1,a1,1365 # 55555555 <absimmsh+0x49a847a8>
    80007368:	00b59593          	slli	a1,a1,0xb
    8000736c:	2aa58593          	addi	a1,a1,682
    80007370:	00b59593          	slli	a1,a1,0xb
    80007374:	55558593          	addi	a1,a1,1365
    80007378:	00a59593          	slli	a1,a1,0xa
    8000737c:	15658593          	addi	a1,a1,342
    80007380:	40b5063b          	subw	a2,a0,a1
    80007384:	68c2b023          	sd	a2,1664(t0)
    80007388:	111116b7          	lui	a3,0x11111
    8000738c:	10f6869b          	addiw	a3,a3,271 # 1111110f <absimmsh+0x5640362>
    80007390:	00c68463          	beq	a3,a2,80007398 <inst_483>
    80007394:	c91f806f          	j	80000024 <rvtest_error>

0000000080007398 <inst_483>:
    80007398:	66666537          	lui	a0,0x66666
    8000739c:	66650513          	addi	a0,a0,1638 # 66666666 <absimmsh+0x5ab958b9>
    800073a0:	00b51513          	slli	a0,a0,0xb
    800073a4:	33350513          	addi	a0,a0,819
    800073a8:	00b51513          	slli	a0,a0,0xb
    800073ac:	19950513          	addi	a0,a0,409
    800073b0:	00a51513          	slli	a0,a0,0xa
    800073b4:	26550513          	addi	a0,a0,613
    800073b8:	aaaab5b7          	lui	a1,0xaaaab
    800073bc:	aaa58593          	addi	a1,a1,-1366 # ffffffffaaaaaaaa <absimm+0xfffffffeefd9cfda>
    800073c0:	00b59593          	slli	a1,a1,0xb
    800073c4:	55558593          	addi	a1,a1,1365
    800073c8:	00b59593          	slli	a1,a1,0xb
    800073cc:	2aa58593          	addi	a1,a1,682
    800073d0:	00a59593          	slli	a1,a1,0xa
    800073d4:	2ab58593          	addi	a1,a1,683
    800073d8:	40b5063b          	subw	a2,a0,a1
    800073dc:	68c2b423          	sd	a2,1672(t0)
    800073e0:	bbbbc6b7          	lui	a3,0xbbbbc
    800073e4:	bba6869b          	addiw	a3,a3,-1094 # ffffffffbbbbbbba <absimm+0xffffffff00eae0ea>
    800073e8:	00c68463          	beq	a3,a2,800073f0 <inst_484>
    800073ec:	c39f806f          	j	80000024 <rvtest_error>

00000000800073f0 <inst_484>:
    800073f0:	66666537          	lui	a0,0x66666
    800073f4:	66650513          	addi	a0,a0,1638 # 66666666 <absimmsh+0x5ab958b9>
    800073f8:	00b51513          	slli	a0,a0,0xb
    800073fc:	33350513          	addi	a0,a0,819
    80007400:	00b51513          	slli	a0,a0,0xb
    80007404:	19950513          	addi	a0,a0,409
    80007408:	00a51513          	slli	a0,a0,0xa
    8000740c:	26550513          	addi	a0,a0,613
    80007410:	00600593          	li	a1,6
    80007414:	40b5063b          	subw	a2,a0,a1
    80007418:	68c2b823          	sd	a2,1680(t0)
    8000741c:	666666b7          	lui	a3,0x66666
    80007420:	65f6869b          	addiw	a3,a3,1631 # 6666665f <absimmsh+0x5ab958b2>
    80007424:	00c68463          	beq	a3,a2,8000742c <inst_485>
    80007428:	bfdf806f          	j	80000024 <rvtest_error>

000000008000742c <inst_485>:
    8000742c:	66666537          	lui	a0,0x66666
    80007430:	66650513          	addi	a0,a0,1638 # 66666666 <absimmsh+0x5ab958b9>
    80007434:	00b51513          	slli	a0,a0,0xb
    80007438:	33350513          	addi	a0,a0,819
    8000743c:	00b51513          	slli	a0,a0,0xb
    80007440:	19950513          	addi	a0,a0,409
    80007444:	00a51513          	slli	a0,a0,0xa
    80007448:	26550513          	addi	a0,a0,613
    8000744c:	333335b7          	lui	a1,0x33333
    80007450:	33358593          	addi	a1,a1,819 # 33333333 <absimmsh+0x27862586>
    80007454:	00b59593          	slli	a1,a1,0xb
    80007458:	19958593          	addi	a1,a1,409
    8000745c:	00b59593          	slli	a1,a1,0xb
    80007460:	4cc58593          	addi	a1,a1,1228
    80007464:	00a59593          	slli	a1,a1,0xa
    80007468:	33458593          	addi	a1,a1,820
    8000746c:	40b5063b          	subw	a2,a0,a1
    80007470:	68c2bc23          	sd	a2,1688(t0)
    80007474:	333336b7          	lui	a3,0x33333
    80007478:	3316869b          	addiw	a3,a3,817 # 33333331 <absimmsh+0x27862584>
    8000747c:	00c68463          	beq	a3,a2,80007484 <inst_486>
    80007480:	ba5f806f          	j	80000024 <rvtest_error>

0000000080007484 <inst_486>:
    80007484:	66666537          	lui	a0,0x66666
    80007488:	66650513          	addi	a0,a0,1638 # 66666666 <absimmsh+0x5ab958b9>
    8000748c:	00b51513          	slli	a0,a0,0xb
    80007490:	33350513          	addi	a0,a0,819
    80007494:	00b51513          	slli	a0,a0,0xb
    80007498:	19950513          	addi	a0,a0,409
    8000749c:	00a51513          	slli	a0,a0,0xa
    800074a0:	26550513          	addi	a0,a0,613
    800074a4:	666665b7          	lui	a1,0x66666
    800074a8:	66658593          	addi	a1,a1,1638 # 66666666 <absimmsh+0x5ab958b9>
    800074ac:	00b59593          	slli	a1,a1,0xb
    800074b0:	33358593          	addi	a1,a1,819
    800074b4:	00b59593          	slli	a1,a1,0xb
    800074b8:	19958593          	addi	a1,a1,409
    800074bc:	00a59593          	slli	a1,a1,0xa
    800074c0:	26758593          	addi	a1,a1,615
    800074c4:	40b5063b          	subw	a2,a0,a1
    800074c8:	6ac2b023          	sd	a2,1696(t0)
    800074cc:	ffe00693          	li	a3,-2
    800074d0:	00c68463          	beq	a3,a2,800074d8 <inst_487>
    800074d4:	b51f806f          	j	80000024 <rvtest_error>

00000000800074d8 <inst_487>:
    800074d8:	66666537          	lui	a0,0x66666
    800074dc:	66650513          	addi	a0,a0,1638 # 66666666 <absimmsh+0x5ab958b9>
    800074e0:	00b51513          	slli	a0,a0,0xb
    800074e4:	33350513          	addi	a0,a0,819
    800074e8:	00b51513          	slli	a0,a0,0xb
    800074ec:	19950513          	addi	a0,a0,409
    800074f0:	00a51513          	slli	a0,a0,0xa
    800074f4:	26550513          	addi	a0,a0,613
    800074f8:	000005b7          	lui	a1,0x0
    800074fc:	fff58593          	addi	a1,a1,-1
    80007500:	00b59593          	slli	a1,a1,0xb
    80007504:	25758593          	addi	a1,a1,599
    80007508:	00b59593          	slli	a1,a1,0xb
    8000750c:	6c358593          	addi	a1,a1,1731
    80007510:	00a59593          	slli	a1,a1,0xa
    80007514:	0ce58593          	addi	a1,a1,206
    80007518:	40b5063b          	subw	a2,a0,a1
    8000751c:	6ac2b423          	sd	a2,1704(t0)
    80007520:	1b6b66b7          	lui	a3,0x1b6b6
    80007524:	9976869b          	addiw	a3,a3,-1641 # 1b6b5997 <absimmsh+0xfbe4bea>
    80007528:	00c68463          	beq	a3,a2,80007530 <inst_488>
    8000752c:	af9f806f          	j	80000024 <rvtest_error>

0000000080007530 <inst_488>:
    80007530:	66666537          	lui	a0,0x66666
    80007534:	66650513          	addi	a0,a0,1638 # 66666666 <absimmsh+0x5ab958b9>
    80007538:	00b51513          	slli	a0,a0,0xb
    8000753c:	33350513          	addi	a0,a0,819
    80007540:	00b51513          	slli	a0,a0,0xb
    80007544:	19950513          	addi	a0,a0,409
    80007548:	00a51513          	slli	a0,a0,0xa
    8000754c:	26550513          	addi	a0,a0,613
    80007550:	000005b7          	lui	a1,0x0
    80007554:	00058593          	mv	a1,a1
    80007558:	00b59593          	slli	a1,a1,0xb
    8000755c:	5a858593          	addi	a1,a1,1448 # 5a8 <offset+0x108>
    80007560:	00b59593          	slli	a1,a1,0xb
    80007564:	13c58593          	addi	a1,a1,316
    80007568:	00a59593          	slli	a1,a1,0xa
    8000756c:	33458593          	addi	a1,a1,820
    80007570:	40b5063b          	subw	a2,a0,a1
    80007574:	6ac2b823          	sd	a2,1712(t0)
    80007578:	b16176b7          	lui	a3,0xb1617
    8000757c:	3316869b          	addiw	a3,a3,817 # ffffffffb1617331 <absimm+0xfffffffef6909861>
    80007580:	00c68463          	beq	a3,a2,80007588 <inst_489>
    80007584:	aa1f806f          	j	80000024 <rvtest_error>

0000000080007588 <inst_489>:
    80007588:	00000537          	lui	a0,0x0
    8000758c:	00050513          	mv	a0,a0
    80007590:	00b51513          	slli	a0,a0,0xb
    80007594:	5a850513          	addi	a0,a0,1448 # 5a8 <offset+0x108>
    80007598:	00b51513          	slli	a0,a0,0xb
    8000759c:	13c50513          	addi	a0,a0,316
    800075a0:	00a51513          	slli	a0,a0,0xa
    800075a4:	33250513          	addi	a0,a0,818
    800075a8:	00300593          	li	a1,3
    800075ac:	40b5063b          	subw	a2,a0,a1
    800075b0:	6ac2bc23          	sd	a2,1720(t0)
    800075b4:	b504f6b7          	lui	a3,0xb504f
    800075b8:	32f6869b          	addiw	a3,a3,815 # ffffffffb504f32f <absimm+0xfffffffefa34185f>
    800075bc:	00c68463          	beq	a3,a2,800075c4 <inst_490>
    800075c0:	a65f806f          	j	80000024 <rvtest_error>

00000000800075c4 <inst_490>:
    800075c4:	00000537          	lui	a0,0x0
    800075c8:	00050513          	mv	a0,a0
    800075cc:	00b51513          	slli	a0,a0,0xb
    800075d0:	5a850513          	addi	a0,a0,1448 # 5a8 <offset+0x108>
    800075d4:	00b51513          	slli	a0,a0,0xb
    800075d8:	13c50513          	addi	a0,a0,316
    800075dc:	00a51513          	slli	a0,a0,0xa
    800075e0:	33250513          	addi	a0,a0,818
    800075e4:	555555b7          	lui	a1,0x55555
    800075e8:	55558593          	addi	a1,a1,1365 # 55555555 <absimmsh+0x49a847a8>
    800075ec:	00b59593          	slli	a1,a1,0xb
    800075f0:	2aa58593          	addi	a1,a1,682
    800075f4:	00b59593          	slli	a1,a1,0xb
    800075f8:	55558593          	addi	a1,a1,1365
    800075fc:	00a59593          	slli	a1,a1,0xa
    80007600:	15558593          	addi	a1,a1,341
    80007604:	40b5063b          	subw	a2,a0,a1
    80007608:	6cc2b023          	sd	a2,1728(t0)
    8000760c:	5fafa6b7          	lui	a3,0x5fafa
    80007610:	ddd6869b          	addiw	a3,a3,-547 # 5faf9ddd <absimmsh+0x54029030>
    80007614:	00c68463          	beq	a3,a2,8000761c <inst_491>
    80007618:	a0df806f          	j	80000024 <rvtest_error>

000000008000761c <inst_491>:
    8000761c:	00000537          	lui	a0,0x0
    80007620:	00050513          	mv	a0,a0
    80007624:	00b51513          	slli	a0,a0,0xb
    80007628:	5a850513          	addi	a0,a0,1448 # 5a8 <offset+0x108>
    8000762c:	00b51513          	slli	a0,a0,0xb
    80007630:	13c50513          	addi	a0,a0,316
    80007634:	00a51513          	slli	a0,a0,0xa
    80007638:	33250513          	addi	a0,a0,818
    8000763c:	aaaab5b7          	lui	a1,0xaaaab
    80007640:	aaa58593          	addi	a1,a1,-1366 # ffffffffaaaaaaaa <absimm+0xfffffffeefd9cfda>
    80007644:	00b59593          	slli	a1,a1,0xb
    80007648:	55558593          	addi	a1,a1,1365
    8000764c:	00b59593          	slli	a1,a1,0xb
    80007650:	2aa58593          	addi	a1,a1,682
    80007654:	00a59593          	slli	a1,a1,0xa
    80007658:	2aa58593          	addi	a1,a1,682
    8000765c:	40b5063b          	subw	a2,a0,a1
    80007660:	6cc2b423          	sd	a2,1736(t0)
    80007664:	0a5a56b7          	lui	a3,0xa5a5
    80007668:	8886869b          	addiw	a3,a3,-1912 # a5a4888 <offset+0xa5a43e8>
    8000766c:	00c68463          	beq	a3,a2,80007674 <inst_492>
    80007670:	9b5f806f          	j	80000024 <rvtest_error>

0000000080007674 <inst_492>:
    80007674:	00000537          	lui	a0,0x0
    80007678:	00050513          	mv	a0,a0
    8000767c:	00b51513          	slli	a0,a0,0xb
    80007680:	5a850513          	addi	a0,a0,1448 # 5a8 <offset+0x108>
    80007684:	00b51513          	slli	a0,a0,0xb
    80007688:	13c50513          	addi	a0,a0,316
    8000768c:	00a51513          	slli	a0,a0,0xa
    80007690:	33250513          	addi	a0,a0,818
    80007694:	00500593          	li	a1,5
    80007698:	40b5063b          	subw	a2,a0,a1
    8000769c:	6cc2b823          	sd	a2,1744(t0)
    800076a0:	b504f6b7          	lui	a3,0xb504f
    800076a4:	32d6869b          	addiw	a3,a3,813 # ffffffffb504f32d <absimm+0xfffffffefa34185d>
    800076a8:	00c68463          	beq	a3,a2,800076b0 <inst_493>
    800076ac:	979f806f          	j	80000024 <rvtest_error>

00000000800076b0 <inst_493>:
    800076b0:	00000537          	lui	a0,0x0
    800076b4:	00050513          	mv	a0,a0
    800076b8:	00b51513          	slli	a0,a0,0xb
    800076bc:	5a850513          	addi	a0,a0,1448 # 5a8 <offset+0x108>
    800076c0:	00b51513          	slli	a0,a0,0xb
    800076c4:	13c50513          	addi	a0,a0,316
    800076c8:	00a51513          	slli	a0,a0,0xa
    800076cc:	33250513          	addi	a0,a0,818
    800076d0:	333335b7          	lui	a1,0x33333
    800076d4:	33358593          	addi	a1,a1,819 # 33333333 <absimmsh+0x27862586>
    800076d8:	00b59593          	slli	a1,a1,0xb
    800076dc:	19958593          	addi	a1,a1,409
    800076e0:	00b59593          	slli	a1,a1,0xb
    800076e4:	4cc58593          	addi	a1,a1,1228
    800076e8:	00a59593          	slli	a1,a1,0xa
    800076ec:	33358593          	addi	a1,a1,819
    800076f0:	40b5063b          	subw	a2,a0,a1
    800076f4:	6cc2bc23          	sd	a2,1752(t0)
    800076f8:	81d1c6b7          	lui	a3,0x81d1c
    800076fc:	fff6869b          	addiw	a3,a3,-1 # ffffffff81d1bfff <absimm+0xfffffffec700e52f>
    80007700:	00c68463          	beq	a3,a2,80007708 <inst_494>
    80007704:	921f806f          	j	80000024 <rvtest_error>

0000000080007708 <inst_494>:
    80007708:	00000537          	lui	a0,0x0
    8000770c:	00050513          	mv	a0,a0
    80007710:	00b51513          	slli	a0,a0,0xb
    80007714:	5a850513          	addi	a0,a0,1448 # 5a8 <offset+0x108>
    80007718:	00b51513          	slli	a0,a0,0xb
    8000771c:	13c50513          	addi	a0,a0,316
    80007720:	00a51513          	slli	a0,a0,0xa
    80007724:	33250513          	addi	a0,a0,818
    80007728:	666665b7          	lui	a1,0x66666
    8000772c:	66658593          	addi	a1,a1,1638 # 66666666 <absimmsh+0x5ab958b9>
    80007730:	00b59593          	slli	a1,a1,0xb
    80007734:	33358593          	addi	a1,a1,819
    80007738:	00b59593          	slli	a1,a1,0xb
    8000773c:	19958593          	addi	a1,a1,409
    80007740:	00a59593          	slli	a1,a1,0xa
    80007744:	26658593          	addi	a1,a1,614
    80007748:	40b5063b          	subw	a2,a0,a1
    8000774c:	6ec2b023          	sd	a2,1760(t0)
    80007750:	4e9e96b7          	lui	a3,0x4e9e9
    80007754:	ccc6869b          	addiw	a3,a3,-820 # 4e9e8ccc <absimmsh+0x42f17f1f>
    80007758:	00c68463          	beq	a3,a2,80007760 <inst_495>
    8000775c:	8c9f806f          	j	80000024 <rvtest_error>

0000000080007760 <inst_495>:
    80007760:	00000537          	lui	a0,0x0
    80007764:	00050513          	mv	a0,a0
    80007768:	00b51513          	slli	a0,a0,0xb
    8000776c:	5a850513          	addi	a0,a0,1448 # 5a8 <offset+0x108>
    80007770:	00b51513          	slli	a0,a0,0xb
    80007774:	13c50513          	addi	a0,a0,316
    80007778:	00a51513          	slli	a0,a0,0xa
    8000777c:	33250513          	addi	a0,a0,818
    80007780:	000005b7          	lui	a1,0x0
    80007784:	fff58593          	addi	a1,a1,-1
    80007788:	00b59593          	slli	a1,a1,0xb
    8000778c:	25758593          	addi	a1,a1,599
    80007790:	00b59593          	slli	a1,a1,0xb
    80007794:	6c358593          	addi	a1,a1,1731
    80007798:	00a59593          	slli	a1,a1,0xa
    8000779c:	0cd58593          	addi	a1,a1,205
    800077a0:	40b5063b          	subw	a2,a0,a1
    800077a4:	6ec2b423          	sd	a2,1768(t0)
    800077a8:	6a09e6b7          	lui	a3,0x6a09e
    800077ac:	6656869b          	addiw	a3,a3,1637 # 6a09e665 <absimmsh+0x5e5cd8b8>
    800077b0:	00c68463          	beq	a3,a2,800077b8 <inst_496>
    800077b4:	871f806f          	j	80000024 <rvtest_error>

00000000800077b8 <inst_496>:
    800077b8:	00000537          	lui	a0,0x0
    800077bc:	00050513          	mv	a0,a0
    800077c0:	00b51513          	slli	a0,a0,0xb
    800077c4:	5a850513          	addi	a0,a0,1448 # 5a8 <offset+0x108>
    800077c8:	00b51513          	slli	a0,a0,0xb
    800077cc:	13c50513          	addi	a0,a0,316
    800077d0:	00a51513          	slli	a0,a0,0xa
    800077d4:	33250513          	addi	a0,a0,818
    800077d8:	000005b7          	lui	a1,0x0
    800077dc:	00058593          	mv	a1,a1
    800077e0:	00b59593          	slli	a1,a1,0xb
    800077e4:	5a858593          	addi	a1,a1,1448 # 5a8 <offset+0x108>
    800077e8:	00b59593          	slli	a1,a1,0xb
    800077ec:	13c58593          	addi	a1,a1,316
    800077f0:	00a59593          	slli	a1,a1,0xa
    800077f4:	33358593          	addi	a1,a1,819
    800077f8:	40b5063b          	subw	a2,a0,a1
    800077fc:	6ec2b823          	sd	a2,1776(t0)
    80007800:	fff00693          	li	a3,-1
    80007804:	00c68463          	beq	a3,a2,8000780c <inst_497>
    80007808:	81df806f          	j	80000024 <rvtest_error>

000000008000780c <inst_497>:
    8000780c:	00000537          	lui	a0,0x0
    80007810:	00050513          	mv	a0,a0
    80007814:	00b51513          	slli	a0,a0,0xb
    80007818:	5a850513          	addi	a0,a0,1448 # 5a8 <offset+0x108>
    8000781c:	00b51513          	slli	a0,a0,0xb
    80007820:	13c50513          	addi	a0,a0,316
    80007824:	00a51513          	slli	a0,a0,0xa
    80007828:	33250513          	addi	a0,a0,818
    8000782c:	00200593          	li	a1,2
    80007830:	40b5063b          	subw	a2,a0,a1
    80007834:	6ec2bc23          	sd	a2,1784(t0)
    80007838:	b504f6b7          	lui	a3,0xb504f
    8000783c:	3306869b          	addiw	a3,a3,816 # ffffffffb504f330 <absimm+0xfffffffefa341860>
    80007840:	00c68463          	beq	a3,a2,80007848 <inst_498>
    80007844:	fe0f806f          	j	80000024 <rvtest_error>

0000000080007848 <inst_498>:
    80007848:	00000537          	lui	a0,0x0
    8000784c:	00050513          	mv	a0,a0
    80007850:	00b51513          	slli	a0,a0,0xb
    80007854:	5a850513          	addi	a0,a0,1448 # 5a8 <offset+0x108>
    80007858:	00b51513          	slli	a0,a0,0xb
    8000785c:	13c50513          	addi	a0,a0,316
    80007860:	00a51513          	slli	a0,a0,0xa
    80007864:	33250513          	addi	a0,a0,818
    80007868:	555555b7          	lui	a1,0x55555
    8000786c:	55558593          	addi	a1,a1,1365 # 55555555 <absimmsh+0x49a847a8>
    80007870:	00b59593          	slli	a1,a1,0xb
    80007874:	2aa58593          	addi	a1,a1,682
    80007878:	00b59593          	slli	a1,a1,0xb
    8000787c:	55558593          	addi	a1,a1,1365
    80007880:	00a59593          	slli	a1,a1,0xa
    80007884:	15458593          	addi	a1,a1,340
    80007888:	40b5063b          	subw	a2,a0,a1
    8000788c:	70c2b023          	sd	a2,1792(t0)
    80007890:	5fafa6b7          	lui	a3,0x5fafa
    80007894:	dde6869b          	addiw	a3,a3,-546 # 5faf9dde <absimmsh+0x54029031>
    80007898:	00c68463          	beq	a3,a2,800078a0 <inst_499>
    8000789c:	f88f806f          	j	80000024 <rvtest_error>

00000000800078a0 <inst_499>:
    800078a0:	00000537          	lui	a0,0x0
    800078a4:	00050513          	mv	a0,a0
    800078a8:	00b51513          	slli	a0,a0,0xb
    800078ac:	5a850513          	addi	a0,a0,1448 # 5a8 <offset+0x108>
    800078b0:	00b51513          	slli	a0,a0,0xb
    800078b4:	13c50513          	addi	a0,a0,316
    800078b8:	00a51513          	slli	a0,a0,0xa
    800078bc:	33250513          	addi	a0,a0,818
    800078c0:	00000593          	li	a1,0
    800078c4:	40b5063b          	subw	a2,a0,a1
    800078c8:	70c2b423          	sd	a2,1800(t0)
    800078cc:	b504f6b7          	lui	a3,0xb504f
    800078d0:	3326869b          	addiw	a3,a3,818 # ffffffffb504f332 <absimm+0xfffffffefa341862>
    800078d4:	00c68463          	beq	a3,a2,800078dc <inst_500>
    800078d8:	f4cf806f          	j	80000024 <rvtest_error>

00000000800078dc <inst_500>:
    800078dc:	00000537          	lui	a0,0x0
    800078e0:	00050513          	mv	a0,a0
    800078e4:	00b51513          	slli	a0,a0,0xb
    800078e8:	5a850513          	addi	a0,a0,1448 # 5a8 <offset+0x108>
    800078ec:	00b51513          	slli	a0,a0,0xb
    800078f0:	13c50513          	addi	a0,a0,316
    800078f4:	00a51513          	slli	a0,a0,0xa
    800078f8:	33250513          	addi	a0,a0,818
    800078fc:	00400593          	li	a1,4
    80007900:	40b5063b          	subw	a2,a0,a1
    80007904:	70c2b823          	sd	a2,1808(t0)
    80007908:	b504f6b7          	lui	a3,0xb504f
    8000790c:	32e6869b          	addiw	a3,a3,814 # ffffffffb504f32e <absimm+0xfffffffefa34185e>
    80007910:	00c68463          	beq	a3,a2,80007918 <inst_501>
    80007914:	f10f806f          	j	80000024 <rvtest_error>

0000000080007918 <inst_501>:
    80007918:	00000537          	lui	a0,0x0
    8000791c:	00050513          	mv	a0,a0
    80007920:	00b51513          	slli	a0,a0,0xb
    80007924:	5a850513          	addi	a0,a0,1448 # 5a8 <offset+0x108>
    80007928:	00b51513          	slli	a0,a0,0xb
    8000792c:	13c50513          	addi	a0,a0,316
    80007930:	00a51513          	slli	a0,a0,0xa
    80007934:	33250513          	addi	a0,a0,818
    80007938:	333335b7          	lui	a1,0x33333
    8000793c:	33358593          	addi	a1,a1,819 # 33333333 <absimmsh+0x27862586>
    80007940:	00b59593          	slli	a1,a1,0xb
    80007944:	19958593          	addi	a1,a1,409
    80007948:	00b59593          	slli	a1,a1,0xb
    8000794c:	4cc58593          	addi	a1,a1,1228
    80007950:	00a59593          	slli	a1,a1,0xa
    80007954:	33258593          	addi	a1,a1,818
    80007958:	40b5063b          	subw	a2,a0,a1
    8000795c:	70c2bc23          	sd	a2,1816(t0)
    80007960:	81d1c6b7          	lui	a3,0x81d1c
    80007964:	00c68463          	beq	a3,a2,8000796c <inst_502>
    80007968:	ebcf806f          	j	80000024 <rvtest_error>

000000008000796c <inst_502>:
    8000796c:	00000537          	lui	a0,0x0
    80007970:	00050513          	mv	a0,a0
    80007974:	00b51513          	slli	a0,a0,0xb
    80007978:	5a850513          	addi	a0,a0,1448 # 5a8 <offset+0x108>
    8000797c:	00b51513          	slli	a0,a0,0xb
    80007980:	13c50513          	addi	a0,a0,316
    80007984:	00a51513          	slli	a0,a0,0xa
    80007988:	33250513          	addi	a0,a0,818
    8000798c:	666665b7          	lui	a1,0x66666
    80007990:	66658593          	addi	a1,a1,1638 # 66666666 <absimmsh+0x5ab958b9>
    80007994:	00b59593          	slli	a1,a1,0xb
    80007998:	33358593          	addi	a1,a1,819
    8000799c:	00b59593          	slli	a1,a1,0xb
    800079a0:	19958593          	addi	a1,a1,409
    800079a4:	00a59593          	slli	a1,a1,0xa
    800079a8:	26558593          	addi	a1,a1,613
    800079ac:	40b5063b          	subw	a2,a0,a1
    800079b0:	72c2b023          	sd	a2,1824(t0)
    800079b4:	4e9e96b7          	lui	a3,0x4e9e9
    800079b8:	ccd6869b          	addiw	a3,a3,-819 # 4e9e8ccd <absimmsh+0x42f17f20>
    800079bc:	00c68463          	beq	a3,a2,800079c4 <inst_503>
    800079c0:	e64f806f          	j	80000024 <rvtest_error>

00000000800079c4 <inst_503>:
    800079c4:	00000537          	lui	a0,0x0
    800079c8:	00050513          	mv	a0,a0
    800079cc:	00b51513          	slli	a0,a0,0xb
    800079d0:	5a850513          	addi	a0,a0,1448 # 5a8 <offset+0x108>
    800079d4:	00b51513          	slli	a0,a0,0xb
    800079d8:	13c50513          	addi	a0,a0,316
    800079dc:	00a51513          	slli	a0,a0,0xa
    800079e0:	33250513          	addi	a0,a0,818
    800079e4:	000005b7          	lui	a1,0x0
    800079e8:	00058593          	mv	a1,a1
    800079ec:	00b59593          	slli	a1,a1,0xb
    800079f0:	5a858593          	addi	a1,a1,1448 # 5a8 <offset+0x108>
    800079f4:	00b59593          	slli	a1,a1,0xb
    800079f8:	13c58593          	addi	a1,a1,316
    800079fc:	00a59593          	slli	a1,a1,0xa
    80007a00:	33258593          	addi	a1,a1,818
    80007a04:	40b5063b          	subw	a2,a0,a1
    80007a08:	72c2b423          	sd	a2,1832(t0)
    80007a0c:	00000693          	li	a3,0
    80007a10:	00c68463          	beq	a3,a2,80007a18 <inst_504>
    80007a14:	e10f806f          	j	80000024 <rvtest_error>

0000000080007a18 <inst_504>:
    80007a18:	00000537          	lui	a0,0x0
    80007a1c:	00050513          	mv	a0,a0
    80007a20:	00b51513          	slli	a0,a0,0xb
    80007a24:	5a850513          	addi	a0,a0,1448 # 5a8 <offset+0x108>
    80007a28:	00b51513          	slli	a0,a0,0xb
    80007a2c:	13c50513          	addi	a0,a0,316
    80007a30:	00a51513          	slli	a0,a0,0xa
    80007a34:	33250513          	addi	a0,a0,818
    80007a38:	555555b7          	lui	a1,0x55555
    80007a3c:	55558593          	addi	a1,a1,1365 # 55555555 <absimmsh+0x49a847a8>
    80007a40:	00b59593          	slli	a1,a1,0xb
    80007a44:	2aa58593          	addi	a1,a1,682
    80007a48:	00b59593          	slli	a1,a1,0xb
    80007a4c:	55558593          	addi	a1,a1,1365
    80007a50:	00a59593          	slli	a1,a1,0xa
    80007a54:	15658593          	addi	a1,a1,342
    80007a58:	40b5063b          	subw	a2,a0,a1
    80007a5c:	72c2b823          	sd	a2,1840(t0)
    80007a60:	5fafa6b7          	lui	a3,0x5fafa
    80007a64:	ddc6869b          	addiw	a3,a3,-548 # 5faf9ddc <absimmsh+0x5402902f>
    80007a68:	00c68463          	beq	a3,a2,80007a70 <inst_505>
    80007a6c:	db8f806f          	j	80000024 <rvtest_error>

0000000080007a70 <inst_505>:
    80007a70:	00000537          	lui	a0,0x0
    80007a74:	00050513          	mv	a0,a0
    80007a78:	00b51513          	slli	a0,a0,0xb
    80007a7c:	5a850513          	addi	a0,a0,1448 # 5a8 <offset+0x108>
    80007a80:	00b51513          	slli	a0,a0,0xb
    80007a84:	13c50513          	addi	a0,a0,316
    80007a88:	00a51513          	slli	a0,a0,0xa
    80007a8c:	33250513          	addi	a0,a0,818
    80007a90:	aaaab5b7          	lui	a1,0xaaaab
    80007a94:	aaa58593          	addi	a1,a1,-1366 # ffffffffaaaaaaaa <absimm+0xfffffffeefd9cfda>
    80007a98:	00b59593          	slli	a1,a1,0xb
    80007a9c:	55558593          	addi	a1,a1,1365
    80007aa0:	00b59593          	slli	a1,a1,0xb
    80007aa4:	2aa58593          	addi	a1,a1,682
    80007aa8:	00a59593          	slli	a1,a1,0xa
    80007aac:	2ab58593          	addi	a1,a1,683
    80007ab0:	40b5063b          	subw	a2,a0,a1
    80007ab4:	72c2bc23          	sd	a2,1848(t0)
    80007ab8:	0a5a56b7          	lui	a3,0xa5a5
    80007abc:	8876869b          	addiw	a3,a3,-1913 # a5a4887 <offset+0xa5a43e7>
    80007ac0:	00c68463          	beq	a3,a2,80007ac8 <inst_506>
    80007ac4:	d60f806f          	j	80000024 <rvtest_error>

0000000080007ac8 <inst_506>:
    80007ac8:	00000537          	lui	a0,0x0
    80007acc:	00050513          	mv	a0,a0
    80007ad0:	00b51513          	slli	a0,a0,0xb
    80007ad4:	5a850513          	addi	a0,a0,1448 # 5a8 <offset+0x108>
    80007ad8:	00b51513          	slli	a0,a0,0xb
    80007adc:	13c50513          	addi	a0,a0,316
    80007ae0:	00a51513          	slli	a0,a0,0xa
    80007ae4:	33250513          	addi	a0,a0,818
    80007ae8:	00600593          	li	a1,6
    80007aec:	40b5063b          	subw	a2,a0,a1
    80007af0:	74c2b023          	sd	a2,1856(t0)
    80007af4:	b504f6b7          	lui	a3,0xb504f
    80007af8:	32c6869b          	addiw	a3,a3,812 # ffffffffb504f32c <absimm+0xfffffffefa34185c>
    80007afc:	00c68463          	beq	a3,a2,80007b04 <inst_507>
    80007b00:	d24f806f          	j	80000024 <rvtest_error>

0000000080007b04 <inst_507>:
    80007b04:	00000537          	lui	a0,0x0
    80007b08:	00050513          	mv	a0,a0
    80007b0c:	00b51513          	slli	a0,a0,0xb
    80007b10:	5a850513          	addi	a0,a0,1448 # 5a8 <offset+0x108>
    80007b14:	00b51513          	slli	a0,a0,0xb
    80007b18:	13c50513          	addi	a0,a0,316
    80007b1c:	00a51513          	slli	a0,a0,0xa
    80007b20:	33250513          	addi	a0,a0,818
    80007b24:	333335b7          	lui	a1,0x33333
    80007b28:	33358593          	addi	a1,a1,819 # 33333333 <absimmsh+0x27862586>
    80007b2c:	00b59593          	slli	a1,a1,0xb
    80007b30:	19958593          	addi	a1,a1,409
    80007b34:	00b59593          	slli	a1,a1,0xb
    80007b38:	4cc58593          	addi	a1,a1,1228
    80007b3c:	00a59593          	slli	a1,a1,0xa
    80007b40:	33458593          	addi	a1,a1,820
    80007b44:	40b5063b          	subw	a2,a0,a1
    80007b48:	74c2b423          	sd	a2,1864(t0)
    80007b4c:	81d1c6b7          	lui	a3,0x81d1c
    80007b50:	ffe6869b          	addiw	a3,a3,-2 # ffffffff81d1bffe <absimm+0xfffffffec700e52e>
    80007b54:	00c68463          	beq	a3,a2,80007b5c <inst_508>
    80007b58:	cccf806f          	j	80000024 <rvtest_error>

0000000080007b5c <inst_508>:
    80007b5c:	00000537          	lui	a0,0x0
    80007b60:	00050513          	mv	a0,a0
    80007b64:	00b51513          	slli	a0,a0,0xb
    80007b68:	5a850513          	addi	a0,a0,1448 # 5a8 <offset+0x108>
    80007b6c:	00b51513          	slli	a0,a0,0xb
    80007b70:	13c50513          	addi	a0,a0,316
    80007b74:	00a51513          	slli	a0,a0,0xa
    80007b78:	33250513          	addi	a0,a0,818
    80007b7c:	666665b7          	lui	a1,0x66666
    80007b80:	66658593          	addi	a1,a1,1638 # 66666666 <absimmsh+0x5ab958b9>
    80007b84:	00b59593          	slli	a1,a1,0xb
    80007b88:	33358593          	addi	a1,a1,819
    80007b8c:	00b59593          	slli	a1,a1,0xb
    80007b90:	19958593          	addi	a1,a1,409
    80007b94:	00a59593          	slli	a1,a1,0xa
    80007b98:	26758593          	addi	a1,a1,615
    80007b9c:	40b5063b          	subw	a2,a0,a1
    80007ba0:	74c2b823          	sd	a2,1872(t0)
    80007ba4:	4e9e96b7          	lui	a3,0x4e9e9
    80007ba8:	ccb6869b          	addiw	a3,a3,-821 # 4e9e8ccb <absimmsh+0x42f17f1e>
    80007bac:	00c68463          	beq	a3,a2,80007bb4 <inst_509>
    80007bb0:	c74f806f          	j	80000024 <rvtest_error>

0000000080007bb4 <inst_509>:
    80007bb4:	00000537          	lui	a0,0x0
    80007bb8:	00050513          	mv	a0,a0
    80007bbc:	00b51513          	slli	a0,a0,0xb
    80007bc0:	5a850513          	addi	a0,a0,1448 # 5a8 <offset+0x108>
    80007bc4:	00b51513          	slli	a0,a0,0xb
    80007bc8:	13c50513          	addi	a0,a0,316
    80007bcc:	00a51513          	slli	a0,a0,0xa
    80007bd0:	33250513          	addi	a0,a0,818
    80007bd4:	000005b7          	lui	a1,0x0
    80007bd8:	fff58593          	addi	a1,a1,-1
    80007bdc:	00b59593          	slli	a1,a1,0xb
    80007be0:	25758593          	addi	a1,a1,599
    80007be4:	00b59593          	slli	a1,a1,0xb
    80007be8:	6c358593          	addi	a1,a1,1731
    80007bec:	00a59593          	slli	a1,a1,0xa
    80007bf0:	0ce58593          	addi	a1,a1,206
    80007bf4:	40b5063b          	subw	a2,a0,a1
    80007bf8:	74c2bc23          	sd	a2,1880(t0)
    80007bfc:	6a09e6b7          	lui	a3,0x6a09e
    80007c00:	6646869b          	addiw	a3,a3,1636 # 6a09e664 <absimmsh+0x5e5cd8b7>
    80007c04:	00c68463          	beq	a3,a2,80007c0c <inst_510>
    80007c08:	c1cf806f          	j	80000024 <rvtest_error>

0000000080007c0c <inst_510>:
    80007c0c:	00000537          	lui	a0,0x0
    80007c10:	00050513          	mv	a0,a0
    80007c14:	00b51513          	slli	a0,a0,0xb
    80007c18:	5a850513          	addi	a0,a0,1448 # 5a8 <offset+0x108>
    80007c1c:	00b51513          	slli	a0,a0,0xb
    80007c20:	13c50513          	addi	a0,a0,316
    80007c24:	00a51513          	slli	a0,a0,0xa
    80007c28:	33250513          	addi	a0,a0,818
    80007c2c:	000005b7          	lui	a1,0x0
    80007c30:	00058593          	mv	a1,a1
    80007c34:	00b59593          	slli	a1,a1,0xb
    80007c38:	5a858593          	addi	a1,a1,1448 # 5a8 <offset+0x108>
    80007c3c:	00b59593          	slli	a1,a1,0xb
    80007c40:	13c58593          	addi	a1,a1,316
    80007c44:	00a59593          	slli	a1,a1,0xa
    80007c48:	33458593          	addi	a1,a1,820
    80007c4c:	40b5063b          	subw	a2,a0,a1
    80007c50:	76c2b023          	sd	a2,1888(t0)
    80007c54:	ffe00693          	li	a3,-2
    80007c58:	00c68463          	beq	a3,a2,80007c60 <inst_511>
    80007c5c:	bc8f806f          	j	80000024 <rvtest_error>

0000000080007c60 <inst_511>:
    80007c60:	55555537          	lui	a0,0x55555
    80007c64:	55550513          	addi	a0,a0,1365 # 55555555 <absimmsh+0x49a847a8>
    80007c68:	00b51513          	slli	a0,a0,0xb
    80007c6c:	2aa50513          	addi	a0,a0,682
    80007c70:	00b51513          	slli	a0,a0,0xb
    80007c74:	55550513          	addi	a0,a0,1365
    80007c78:	00a51513          	slli	a0,a0,0xa
    80007c7c:	15650513          	addi	a0,a0,342
    80007c80:	00300593          	li	a1,3
    80007c84:	40b5063b          	subw	a2,a0,a1
    80007c88:	76c2b423          	sd	a2,1896(t0)
    80007c8c:	555556b7          	lui	a3,0x55555
    80007c90:	5536869b          	addiw	a3,a3,1363 # 55555553 <absimmsh+0x49a847a6>
    80007c94:	00c68463          	beq	a3,a2,80007c9c <inst_512>
    80007c98:	b8cf806f          	j	80000024 <rvtest_error>

0000000080007c9c <inst_512>:
    80007c9c:	55555537          	lui	a0,0x55555
    80007ca0:	55550513          	addi	a0,a0,1365 # 55555555 <absimmsh+0x49a847a8>
    80007ca4:	00b51513          	slli	a0,a0,0xb
    80007ca8:	2aa50513          	addi	a0,a0,682
    80007cac:	00b51513          	slli	a0,a0,0xb
    80007cb0:	55550513          	addi	a0,a0,1365
    80007cb4:	00a51513          	slli	a0,a0,0xa
    80007cb8:	15650513          	addi	a0,a0,342
    80007cbc:	555555b7          	lui	a1,0x55555
    80007cc0:	55558593          	addi	a1,a1,1365 # 55555555 <absimmsh+0x49a847a8>
    80007cc4:	00b59593          	slli	a1,a1,0xb
    80007cc8:	2aa58593          	addi	a1,a1,682
    80007ccc:	00b59593          	slli	a1,a1,0xb
    80007cd0:	55558593          	addi	a1,a1,1365
    80007cd4:	00a59593          	slli	a1,a1,0xa
    80007cd8:	15558593          	addi	a1,a1,341
    80007cdc:	40b5063b          	subw	a2,a0,a1
    80007ce0:	76c2b823          	sd	a2,1904(t0)
    80007ce4:	00100693          	li	a3,1
    80007ce8:	00c68463          	beq	a3,a2,80007cf0 <inst_513>
    80007cec:	b38f806f          	j	80000024 <rvtest_error>

0000000080007cf0 <inst_513>:
    80007cf0:	55555537          	lui	a0,0x55555
    80007cf4:	55550513          	addi	a0,a0,1365 # 55555555 <absimmsh+0x49a847a8>
    80007cf8:	00b51513          	slli	a0,a0,0xb
    80007cfc:	2aa50513          	addi	a0,a0,682
    80007d00:	00b51513          	slli	a0,a0,0xb
    80007d04:	55550513          	addi	a0,a0,1365
    80007d08:	00a51513          	slli	a0,a0,0xa
    80007d0c:	15650513          	addi	a0,a0,342
    80007d10:	aaaab5b7          	lui	a1,0xaaaab
    80007d14:	aaa58593          	addi	a1,a1,-1366 # ffffffffaaaaaaaa <absimm+0xfffffffeefd9cfda>
    80007d18:	00b59593          	slli	a1,a1,0xb
    80007d1c:	55558593          	addi	a1,a1,1365
    80007d20:	00b59593          	slli	a1,a1,0xb
    80007d24:	2aa58593          	addi	a1,a1,682
    80007d28:	00a59593          	slli	a1,a1,0xa
    80007d2c:	2aa58593          	addi	a1,a1,682
    80007d30:	40b5063b          	subw	a2,a0,a1
    80007d34:	76c2bc23          	sd	a2,1912(t0)
    80007d38:	aaaab6b7          	lui	a3,0xaaaab
    80007d3c:	aac6869b          	addiw	a3,a3,-1364 # ffffffffaaaaaaac <absimm+0xfffffffeefd9cfdc>
    80007d40:	00c68463          	beq	a3,a2,80007d48 <inst_514>
    80007d44:	ae0f806f          	j	80000024 <rvtest_error>

0000000080007d48 <inst_514>:
    80007d48:	55555537          	lui	a0,0x55555
    80007d4c:	55550513          	addi	a0,a0,1365 # 55555555 <absimmsh+0x49a847a8>
    80007d50:	00b51513          	slli	a0,a0,0xb
    80007d54:	2aa50513          	addi	a0,a0,682
    80007d58:	00b51513          	slli	a0,a0,0xb
    80007d5c:	55550513          	addi	a0,a0,1365
    80007d60:	00a51513          	slli	a0,a0,0xa
    80007d64:	15650513          	addi	a0,a0,342
    80007d68:	00500593          	li	a1,5
    80007d6c:	40b5063b          	subw	a2,a0,a1
    80007d70:	78c2b023          	sd	a2,1920(t0)
    80007d74:	555556b7          	lui	a3,0x55555
    80007d78:	5516869b          	addiw	a3,a3,1361 # 55555551 <absimmsh+0x49a847a4>
    80007d7c:	00c68463          	beq	a3,a2,80007d84 <inst_515>
    80007d80:	aa4f806f          	j	80000024 <rvtest_error>

0000000080007d84 <inst_515>:
    80007d84:	55555537          	lui	a0,0x55555
    80007d88:	55550513          	addi	a0,a0,1365 # 55555555 <absimmsh+0x49a847a8>
    80007d8c:	00b51513          	slli	a0,a0,0xb
    80007d90:	2aa50513          	addi	a0,a0,682
    80007d94:	00b51513          	slli	a0,a0,0xb
    80007d98:	55550513          	addi	a0,a0,1365
    80007d9c:	00a51513          	slli	a0,a0,0xa
    80007da0:	15650513          	addi	a0,a0,342
    80007da4:	333335b7          	lui	a1,0x33333
    80007da8:	33358593          	addi	a1,a1,819 # 33333333 <absimmsh+0x27862586>
    80007dac:	00b59593          	slli	a1,a1,0xb
    80007db0:	19958593          	addi	a1,a1,409
    80007db4:	00b59593          	slli	a1,a1,0xb
    80007db8:	4cc58593          	addi	a1,a1,1228
    80007dbc:	00a59593          	slli	a1,a1,0xa
    80007dc0:	33358593          	addi	a1,a1,819
    80007dc4:	40b5063b          	subw	a2,a0,a1
    80007dc8:	78c2b423          	sd	a2,1928(t0)
    80007dcc:	222226b7          	lui	a3,0x22222
    80007dd0:	2236869b          	addiw	a3,a3,547 # 22222223 <absimmsh+0x16751476>
    80007dd4:	00c68463          	beq	a3,a2,80007ddc <inst_516>
    80007dd8:	a4cf806f          	j	80000024 <rvtest_error>

0000000080007ddc <inst_516>:
    80007ddc:	55555537          	lui	a0,0x55555
    80007de0:	55550513          	addi	a0,a0,1365 # 55555555 <absimmsh+0x49a847a8>
    80007de4:	00b51513          	slli	a0,a0,0xb
    80007de8:	2aa50513          	addi	a0,a0,682
    80007dec:	00b51513          	slli	a0,a0,0xb
    80007df0:	55550513          	addi	a0,a0,1365
    80007df4:	00a51513          	slli	a0,a0,0xa
    80007df8:	15650513          	addi	a0,a0,342
    80007dfc:	666665b7          	lui	a1,0x66666
    80007e00:	66658593          	addi	a1,a1,1638 # 66666666 <absimmsh+0x5ab958b9>
    80007e04:	00b59593          	slli	a1,a1,0xb
    80007e08:	33358593          	addi	a1,a1,819
    80007e0c:	00b59593          	slli	a1,a1,0xb
    80007e10:	19958593          	addi	a1,a1,409
    80007e14:	00a59593          	slli	a1,a1,0xa
    80007e18:	26658593          	addi	a1,a1,614
    80007e1c:	40b5063b          	subw	a2,a0,a1
    80007e20:	78c2b823          	sd	a2,1936(t0)
    80007e24:	eeeef6b7          	lui	a3,0xeeeef
    80007e28:	ef06869b          	addiw	a3,a3,-272 # ffffffffeeeeeef0 <absimm+0xffffffff341e1420>
    80007e2c:	00c68463          	beq	a3,a2,80007e34 <inst_517>
    80007e30:	9f4f806f          	j	80000024 <rvtest_error>

0000000080007e34 <inst_517>:
    80007e34:	55555537          	lui	a0,0x55555
    80007e38:	55550513          	addi	a0,a0,1365 # 55555555 <absimmsh+0x49a847a8>
    80007e3c:	00b51513          	slli	a0,a0,0xb
    80007e40:	2aa50513          	addi	a0,a0,682
    80007e44:	00b51513          	slli	a0,a0,0xb
    80007e48:	55550513          	addi	a0,a0,1365
    80007e4c:	00a51513          	slli	a0,a0,0xa
    80007e50:	15650513          	addi	a0,a0,342
    80007e54:	000005b7          	lui	a1,0x0
    80007e58:	fff58593          	addi	a1,a1,-1
    80007e5c:	00b59593          	slli	a1,a1,0xb
    80007e60:	25758593          	addi	a1,a1,599
    80007e64:	00b59593          	slli	a1,a1,0xb
    80007e68:	6c358593          	addi	a1,a1,1731
    80007e6c:	00a59593          	slli	a1,a1,0xa
    80007e70:	0cd58593          	addi	a1,a1,205
    80007e74:	40b5063b          	subw	a2,a0,a1
    80007e78:	78c2bc23          	sd	a2,1944(t0)
    80007e7c:	0a5a56b7          	lui	a3,0xa5a5
    80007e80:	8896869b          	addiw	a3,a3,-1911 # a5a4889 <offset+0xa5a43e9>
    80007e84:	00c68463          	beq	a3,a2,80007e8c <inst_518>
    80007e88:	99cf806f          	j	80000024 <rvtest_error>

0000000080007e8c <inst_518>:
    80007e8c:	55555537          	lui	a0,0x55555
    80007e90:	55550513          	addi	a0,a0,1365 # 55555555 <absimmsh+0x49a847a8>
    80007e94:	00b51513          	slli	a0,a0,0xb
    80007e98:	2aa50513          	addi	a0,a0,682
    80007e9c:	00b51513          	slli	a0,a0,0xb
    80007ea0:	55550513          	addi	a0,a0,1365
    80007ea4:	00a51513          	slli	a0,a0,0xa
    80007ea8:	15650513          	addi	a0,a0,342
    80007eac:	000005b7          	lui	a1,0x0
    80007eb0:	00058593          	mv	a1,a1
    80007eb4:	00b59593          	slli	a1,a1,0xb
    80007eb8:	5a858593          	addi	a1,a1,1448 # 5a8 <offset+0x108>
    80007ebc:	00b59593          	slli	a1,a1,0xb
    80007ec0:	13c58593          	addi	a1,a1,316
    80007ec4:	00a59593          	slli	a1,a1,0xa
    80007ec8:	33358593          	addi	a1,a1,819
    80007ecc:	40b5063b          	subw	a2,a0,a1
    80007ed0:	7ac2b023          	sd	a2,1952(t0)
    80007ed4:	a05066b7          	lui	a3,0xa0506
    80007ed8:	2236869b          	addiw	a3,a3,547 # ffffffffa0506223 <absimm+0xfffffffee57f8753>
    80007edc:	00c68463          	beq	a3,a2,80007ee4 <inst_519>
    80007ee0:	944f806f          	j	80000024 <rvtest_error>

0000000080007ee4 <inst_519>:
    80007ee4:	55555537          	lui	a0,0x55555
    80007ee8:	55550513          	addi	a0,a0,1365 # 55555555 <absimmsh+0x49a847a8>
    80007eec:	00b51513          	slli	a0,a0,0xb
    80007ef0:	2aa50513          	addi	a0,a0,682
    80007ef4:	00b51513          	slli	a0,a0,0xb
    80007ef8:	55550513          	addi	a0,a0,1365
    80007efc:	00a51513          	slli	a0,a0,0xa
    80007f00:	15650513          	addi	a0,a0,342
    80007f04:	00200593          	li	a1,2
    80007f08:	40b5063b          	subw	a2,a0,a1
    80007f0c:	7ac2b423          	sd	a2,1960(t0)
    80007f10:	555556b7          	lui	a3,0x55555
    80007f14:	5546869b          	addiw	a3,a3,1364 # 55555554 <absimmsh+0x49a847a7>
    80007f18:	00c68463          	beq	a3,a2,80007f20 <inst_520>
    80007f1c:	908f806f          	j	80000024 <rvtest_error>

0000000080007f20 <inst_520>:
    80007f20:	55555537          	lui	a0,0x55555
    80007f24:	55550513          	addi	a0,a0,1365 # 55555555 <absimmsh+0x49a847a8>
    80007f28:	00b51513          	slli	a0,a0,0xb
    80007f2c:	2aa50513          	addi	a0,a0,682
    80007f30:	00b51513          	slli	a0,a0,0xb
    80007f34:	55550513          	addi	a0,a0,1365
    80007f38:	00a51513          	slli	a0,a0,0xa
    80007f3c:	15650513          	addi	a0,a0,342
    80007f40:	555555b7          	lui	a1,0x55555
    80007f44:	55558593          	addi	a1,a1,1365 # 55555555 <absimmsh+0x49a847a8>
    80007f48:	00b59593          	slli	a1,a1,0xb
    80007f4c:	2aa58593          	addi	a1,a1,682
    80007f50:	00b59593          	slli	a1,a1,0xb
    80007f54:	55558593          	addi	a1,a1,1365
    80007f58:	00a59593          	slli	a1,a1,0xa
    80007f5c:	15458593          	addi	a1,a1,340
    80007f60:	40b5063b          	subw	a2,a0,a1
    80007f64:	7ac2b823          	sd	a2,1968(t0)
    80007f68:	00200693          	li	a3,2
    80007f6c:	00c68463          	beq	a3,a2,80007f74 <inst_521>
    80007f70:	8b4f806f          	j	80000024 <rvtest_error>

0000000080007f74 <inst_521>:
    80007f74:	55555537          	lui	a0,0x55555
    80007f78:	55550513          	addi	a0,a0,1365 # 55555555 <absimmsh+0x49a847a8>
    80007f7c:	00b51513          	slli	a0,a0,0xb
    80007f80:	2aa50513          	addi	a0,a0,682
    80007f84:	00b51513          	slli	a0,a0,0xb
    80007f88:	55550513          	addi	a0,a0,1365
    80007f8c:	00a51513          	slli	a0,a0,0xa
    80007f90:	15650513          	addi	a0,a0,342
    80007f94:	00000593          	li	a1,0
    80007f98:	40b5063b          	subw	a2,a0,a1
    80007f9c:	7ac2bc23          	sd	a2,1976(t0)
    80007fa0:	555556b7          	lui	a3,0x55555
    80007fa4:	5566869b          	addiw	a3,a3,1366 # 55555556 <absimmsh+0x49a847a9>
    80007fa8:	00c68463          	beq	a3,a2,80007fb0 <inst_522>
    80007fac:	878f806f          	j	80000024 <rvtest_error>

0000000080007fb0 <inst_522>:
    80007fb0:	55555537          	lui	a0,0x55555
    80007fb4:	55550513          	addi	a0,a0,1365 # 55555555 <absimmsh+0x49a847a8>
    80007fb8:	00b51513          	slli	a0,a0,0xb
    80007fbc:	2aa50513          	addi	a0,a0,682
    80007fc0:	00b51513          	slli	a0,a0,0xb
    80007fc4:	55550513          	addi	a0,a0,1365
    80007fc8:	00a51513          	slli	a0,a0,0xa
    80007fcc:	15650513          	addi	a0,a0,342
    80007fd0:	00400593          	li	a1,4
    80007fd4:	40b5063b          	subw	a2,a0,a1
    80007fd8:	7cc2b023          	sd	a2,1984(t0)
    80007fdc:	555556b7          	lui	a3,0x55555
    80007fe0:	5526869b          	addiw	a3,a3,1362 # 55555552 <absimmsh+0x49a847a5>
    80007fe4:	00c68463          	beq	a3,a2,80007fec <inst_523>
    80007fe8:	83cf806f          	j	80000024 <rvtest_error>

0000000080007fec <inst_523>:
    80007fec:	55555537          	lui	a0,0x55555
    80007ff0:	55550513          	addi	a0,a0,1365 # 55555555 <absimmsh+0x49a847a8>
    80007ff4:	00b51513          	slli	a0,a0,0xb
    80007ff8:	2aa50513          	addi	a0,a0,682
    80007ffc:	00b51513          	slli	a0,a0,0xb
    80008000:	55550513          	addi	a0,a0,1365
    80008004:	00a51513          	slli	a0,a0,0xa
    80008008:	15650513          	addi	a0,a0,342
    8000800c:	333335b7          	lui	a1,0x33333
    80008010:	33358593          	addi	a1,a1,819 # 33333333 <absimmsh+0x27862586>
    80008014:	00b59593          	slli	a1,a1,0xb
    80008018:	19958593          	addi	a1,a1,409
    8000801c:	00b59593          	slli	a1,a1,0xb
    80008020:	4cc58593          	addi	a1,a1,1228
    80008024:	00a59593          	slli	a1,a1,0xa
    80008028:	33258593          	addi	a1,a1,818
    8000802c:	40b5063b          	subw	a2,a0,a1
    80008030:	7cc2b423          	sd	a2,1992(t0)
    80008034:	222226b7          	lui	a3,0x22222
    80008038:	2246869b          	addiw	a3,a3,548 # 22222224 <absimmsh+0x16751477>
    8000803c:	00c68463          	beq	a3,a2,80008044 <inst_524>
    80008040:	fe5f706f          	j	80000024 <rvtest_error>

0000000080008044 <inst_524>:
    80008044:	55555537          	lui	a0,0x55555
    80008048:	55550513          	addi	a0,a0,1365 # 55555555 <absimmsh+0x49a847a8>
    8000804c:	00b51513          	slli	a0,a0,0xb
    80008050:	2aa50513          	addi	a0,a0,682
    80008054:	00b51513          	slli	a0,a0,0xb
    80008058:	55550513          	addi	a0,a0,1365
    8000805c:	00a51513          	slli	a0,a0,0xa
    80008060:	15650513          	addi	a0,a0,342
    80008064:	666665b7          	lui	a1,0x66666
    80008068:	66658593          	addi	a1,a1,1638 # 66666666 <absimmsh+0x5ab958b9>
    8000806c:	00b59593          	slli	a1,a1,0xb
    80008070:	33358593          	addi	a1,a1,819
    80008074:	00b59593          	slli	a1,a1,0xb
    80008078:	19958593          	addi	a1,a1,409
    8000807c:	00a59593          	slli	a1,a1,0xa
    80008080:	26558593          	addi	a1,a1,613
    80008084:	40b5063b          	subw	a2,a0,a1
    80008088:	7cc2b823          	sd	a2,2000(t0)
    8000808c:	eeeef6b7          	lui	a3,0xeeeef
    80008090:	ef16869b          	addiw	a3,a3,-271 # ffffffffeeeeeef1 <absimm+0xffffffff341e1421>
    80008094:	00c68463          	beq	a3,a2,8000809c <inst_525>
    80008098:	f8df706f          	j	80000024 <rvtest_error>

000000008000809c <inst_525>:
    8000809c:	55555537          	lui	a0,0x55555
    800080a0:	55550513          	addi	a0,a0,1365 # 55555555 <absimmsh+0x49a847a8>
    800080a4:	00b51513          	slli	a0,a0,0xb
    800080a8:	2aa50513          	addi	a0,a0,682
    800080ac:	00b51513          	slli	a0,a0,0xb
    800080b0:	55550513          	addi	a0,a0,1365
    800080b4:	00a51513          	slli	a0,a0,0xa
    800080b8:	15650513          	addi	a0,a0,342
    800080bc:	000005b7          	lui	a1,0x0
    800080c0:	00058593          	mv	a1,a1
    800080c4:	00b59593          	slli	a1,a1,0xb
    800080c8:	5a858593          	addi	a1,a1,1448 # 5a8 <offset+0x108>
    800080cc:	00b59593          	slli	a1,a1,0xb
    800080d0:	13c58593          	addi	a1,a1,316
    800080d4:	00a59593          	slli	a1,a1,0xa
    800080d8:	33258593          	addi	a1,a1,818
    800080dc:	40b5063b          	subw	a2,a0,a1
    800080e0:	7cc2bc23          	sd	a2,2008(t0)
    800080e4:	a05066b7          	lui	a3,0xa0506
    800080e8:	2246869b          	addiw	a3,a3,548 # ffffffffa0506224 <absimm+0xfffffffee57f8754>
    800080ec:	00c68463          	beq	a3,a2,800080f4 <inst_526>
    800080f0:	f35f706f          	j	80000024 <rvtest_error>

00000000800080f4 <inst_526>:
    800080f4:	55555537          	lui	a0,0x55555
    800080f8:	55550513          	addi	a0,a0,1365 # 55555555 <absimmsh+0x49a847a8>
    800080fc:	00b51513          	slli	a0,a0,0xb
    80008100:	2aa50513          	addi	a0,a0,682
    80008104:	00b51513          	slli	a0,a0,0xb
    80008108:	55550513          	addi	a0,a0,1365
    8000810c:	00a51513          	slli	a0,a0,0xa
    80008110:	15650513          	addi	a0,a0,342
    80008114:	555555b7          	lui	a1,0x55555
    80008118:	55558593          	addi	a1,a1,1365 # 55555555 <absimmsh+0x49a847a8>
    8000811c:	00b59593          	slli	a1,a1,0xb
    80008120:	2aa58593          	addi	a1,a1,682
    80008124:	00b59593          	slli	a1,a1,0xb
    80008128:	55558593          	addi	a1,a1,1365
    8000812c:	00a59593          	slli	a1,a1,0xa
    80008130:	15658593          	addi	a1,a1,342
    80008134:	40b5063b          	subw	a2,a0,a1
    80008138:	7ec2b023          	sd	a2,2016(t0)
    8000813c:	00000693          	li	a3,0
    80008140:	00c68463          	beq	a3,a2,80008148 <inst_527>
    80008144:	ee1f706f          	j	80000024 <rvtest_error>

0000000080008148 <inst_527>:
    80008148:	55555537          	lui	a0,0x55555
    8000814c:	55550513          	addi	a0,a0,1365 # 55555555 <absimmsh+0x49a847a8>
    80008150:	00b51513          	slli	a0,a0,0xb
    80008154:	2aa50513          	addi	a0,a0,682
    80008158:	00b51513          	slli	a0,a0,0xb
    8000815c:	55550513          	addi	a0,a0,1365
    80008160:	00a51513          	slli	a0,a0,0xa
    80008164:	15650513          	addi	a0,a0,342
    80008168:	aaaab5b7          	lui	a1,0xaaaab
    8000816c:	aaa58593          	addi	a1,a1,-1366 # ffffffffaaaaaaaa <absimm+0xfffffffeefd9cfda>
    80008170:	00b59593          	slli	a1,a1,0xb
    80008174:	55558593          	addi	a1,a1,1365
    80008178:	00b59593          	slli	a1,a1,0xb
    8000817c:	2aa58593          	addi	a1,a1,682
    80008180:	00a59593          	slli	a1,a1,0xa
    80008184:	2ab58593          	addi	a1,a1,683
    80008188:	40b5063b          	subw	a2,a0,a1
    8000818c:	7ec2b423          	sd	a2,2024(t0)
    80008190:	aaaab6b7          	lui	a3,0xaaaab
    80008194:	aab6869b          	addiw	a3,a3,-1365 # ffffffffaaaaaaab <absimm+0xfffffffeefd9cfdb>
    80008198:	00c68463          	beq	a3,a2,800081a0 <inst_528>
    8000819c:	e89f706f          	j	80000024 <rvtest_error>

00000000800081a0 <inst_528>:
    800081a0:	55555537          	lui	a0,0x55555
    800081a4:	55550513          	addi	a0,a0,1365 # 55555555 <absimmsh+0x49a847a8>
    800081a8:	00b51513          	slli	a0,a0,0xb
    800081ac:	2aa50513          	addi	a0,a0,682
    800081b0:	00b51513          	slli	a0,a0,0xb
    800081b4:	55550513          	addi	a0,a0,1365
    800081b8:	00a51513          	slli	a0,a0,0xa
    800081bc:	15650513          	addi	a0,a0,342
    800081c0:	00600593          	li	a1,6
    800081c4:	40b5063b          	subw	a2,a0,a1
    800081c8:	7ec2b823          	sd	a2,2032(t0)
    800081cc:	555556b7          	lui	a3,0x55555
    800081d0:	5506869b          	addiw	a3,a3,1360 # 55555550 <absimmsh+0x49a847a3>
    800081d4:	00c68463          	beq	a3,a2,800081dc <inst_529>
    800081d8:	e4df706f          	j	80000024 <rvtest_error>

00000000800081dc <inst_529>:
    800081dc:	55555537          	lui	a0,0x55555
    800081e0:	55550513          	addi	a0,a0,1365 # 55555555 <absimmsh+0x49a847a8>
    800081e4:	00b51513          	slli	a0,a0,0xb
    800081e8:	2aa50513          	addi	a0,a0,682
    800081ec:	00b51513          	slli	a0,a0,0xb
    800081f0:	55550513          	addi	a0,a0,1365
    800081f4:	00a51513          	slli	a0,a0,0xa
    800081f8:	15650513          	addi	a0,a0,342
    800081fc:	333335b7          	lui	a1,0x33333
    80008200:	33358593          	addi	a1,a1,819 # 33333333 <absimmsh+0x27862586>
    80008204:	00b59593          	slli	a1,a1,0xb
    80008208:	19958593          	addi	a1,a1,409
    8000820c:	00b59593          	slli	a1,a1,0xb
    80008210:	4cc58593          	addi	a1,a1,1228
    80008214:	00a59593          	slli	a1,a1,0xa
    80008218:	33458593          	addi	a1,a1,820
    8000821c:	40b5063b          	subw	a2,a0,a1
    80008220:	7ec2bc23          	sd	a2,2040(t0)
    80008224:	222226b7          	lui	a3,0x22222
    80008228:	2226869b          	addiw	a3,a3,546 # 22222222 <absimmsh+0x16751475>
    8000822c:	00c68463          	beq	a3,a2,80008234 <inst_529+0x58>
    80008230:	df5f706f          	j	80000024 <rvtest_error>
    80008234:	00000013          	nop
    80008238:	00000013          	nop
    8000823c:	00000013          	nop
    80008240:	00005297          	auipc	t0,0x5
    80008244:	e5828293          	addi	t0,t0,-424 # 8000d098 <signature_x5_2>
    80008248:	00000013          	nop
    8000824c:	00000013          	nop
    80008250:	00000013          	nop
    80008254:	00000013          	nop
    80008258:	00000013          	nop
    8000825c:	00000013          	nop

0000000080008260 <inst_530>:
    80008260:	55555537          	lui	a0,0x55555
    80008264:	55550513          	addi	a0,a0,1365 # 55555555 <absimmsh+0x49a847a8>
    80008268:	00b51513          	slli	a0,a0,0xb
    8000826c:	2aa50513          	addi	a0,a0,682
    80008270:	00b51513          	slli	a0,a0,0xb
    80008274:	55550513          	addi	a0,a0,1365
    80008278:	00a51513          	slli	a0,a0,0xa
    8000827c:	15650513          	addi	a0,a0,342
    80008280:	666665b7          	lui	a1,0x66666
    80008284:	66658593          	addi	a1,a1,1638 # 66666666 <absimmsh+0x5ab958b9>
    80008288:	00b59593          	slli	a1,a1,0xb
    8000828c:	33358593          	addi	a1,a1,819
    80008290:	00b59593          	slli	a1,a1,0xb
    80008294:	19958593          	addi	a1,a1,409
    80008298:	00a59593          	slli	a1,a1,0xa
    8000829c:	26758593          	addi	a1,a1,615
    800082a0:	40b5063b          	subw	a2,a0,a1
    800082a4:	00c2b023          	sd	a2,0(t0)
    800082a8:	eeeef6b7          	lui	a3,0xeeeef
    800082ac:	eef6869b          	addiw	a3,a3,-273 # ffffffffeeeeeeef <absimm+0xffffffff341e141f>
    800082b0:	00c68463          	beq	a3,a2,800082b8 <inst_531>
    800082b4:	d71f706f          	j	80000024 <rvtest_error>

00000000800082b8 <inst_531>:
    800082b8:	55555537          	lui	a0,0x55555
    800082bc:	55550513          	addi	a0,a0,1365 # 55555555 <absimmsh+0x49a847a8>
    800082c0:	00b51513          	slli	a0,a0,0xb
    800082c4:	2aa50513          	addi	a0,a0,682
    800082c8:	00b51513          	slli	a0,a0,0xb
    800082cc:	55550513          	addi	a0,a0,1365
    800082d0:	00a51513          	slli	a0,a0,0xa
    800082d4:	15650513          	addi	a0,a0,342
    800082d8:	000005b7          	lui	a1,0x0
    800082dc:	fff58593          	addi	a1,a1,-1
    800082e0:	00b59593          	slli	a1,a1,0xb
    800082e4:	25758593          	addi	a1,a1,599
    800082e8:	00b59593          	slli	a1,a1,0xb
    800082ec:	6c358593          	addi	a1,a1,1731
    800082f0:	00a59593          	slli	a1,a1,0xa
    800082f4:	0ce58593          	addi	a1,a1,206
    800082f8:	40b5063b          	subw	a2,a0,a1
    800082fc:	00c2b423          	sd	a2,8(t0)
    80008300:	0a5a56b7          	lui	a3,0xa5a5
    80008304:	8886869b          	addiw	a3,a3,-1912 # a5a4888 <offset+0xa5a43e8>
    80008308:	00c68463          	beq	a3,a2,80008310 <inst_532>
    8000830c:	d19f706f          	j	80000024 <rvtest_error>

0000000080008310 <inst_532>:
    80008310:	55555537          	lui	a0,0x55555
    80008314:	55550513          	addi	a0,a0,1365 # 55555555 <absimmsh+0x49a847a8>
    80008318:	00b51513          	slli	a0,a0,0xb
    8000831c:	2aa50513          	addi	a0,a0,682
    80008320:	00b51513          	slli	a0,a0,0xb
    80008324:	55550513          	addi	a0,a0,1365
    80008328:	00a51513          	slli	a0,a0,0xa
    8000832c:	15650513          	addi	a0,a0,342
    80008330:	000005b7          	lui	a1,0x0
    80008334:	00058593          	mv	a1,a1
    80008338:	00b59593          	slli	a1,a1,0xb
    8000833c:	5a858593          	addi	a1,a1,1448 # 5a8 <offset+0x108>
    80008340:	00b59593          	slli	a1,a1,0xb
    80008344:	13c58593          	addi	a1,a1,316
    80008348:	00a59593          	slli	a1,a1,0xa
    8000834c:	33458593          	addi	a1,a1,820
    80008350:	40b5063b          	subw	a2,a0,a1
    80008354:	00c2b823          	sd	a2,16(t0)
    80008358:	a05066b7          	lui	a3,0xa0506
    8000835c:	2226869b          	addiw	a3,a3,546 # ffffffffa0506222 <absimm+0xfffffffee57f8752>
    80008360:	00c68463          	beq	a3,a2,80008368 <inst_533>
    80008364:	cc1f706f          	j	80000024 <rvtest_error>

0000000080008368 <inst_533>:
    80008368:	aaaab537          	lui	a0,0xaaaab
    8000836c:	aaa50513          	addi	a0,a0,-1366 # ffffffffaaaaaaaa <absimm+0xfffffffeefd9cfda>
    80008370:	00b51513          	slli	a0,a0,0xb
    80008374:	55550513          	addi	a0,a0,1365
    80008378:	00b51513          	slli	a0,a0,0xb
    8000837c:	2aa50513          	addi	a0,a0,682
    80008380:	00a51513          	slli	a0,a0,0xa
    80008384:	2ab50513          	addi	a0,a0,683
    80008388:	00300593          	li	a1,3
    8000838c:	40b5063b          	subw	a2,a0,a1
    80008390:	00c2bc23          	sd	a2,24(t0)
    80008394:	aaaab6b7          	lui	a3,0xaaaab
    80008398:	aa86869b          	addiw	a3,a3,-1368 # ffffffffaaaaaaa8 <absimm+0xfffffffeefd9cfd8>
    8000839c:	00c68463          	beq	a3,a2,800083a4 <inst_534>
    800083a0:	c85f706f          	j	80000024 <rvtest_error>

00000000800083a4 <inst_534>:
    800083a4:	aaaab537          	lui	a0,0xaaaab
    800083a8:	aaa50513          	addi	a0,a0,-1366 # ffffffffaaaaaaaa <absimm+0xfffffffeefd9cfda>
    800083ac:	00b51513          	slli	a0,a0,0xb
    800083b0:	55550513          	addi	a0,a0,1365
    800083b4:	00b51513          	slli	a0,a0,0xb
    800083b8:	2aa50513          	addi	a0,a0,682
    800083bc:	00a51513          	slli	a0,a0,0xa
    800083c0:	2ab50513          	addi	a0,a0,683
    800083c4:	555555b7          	lui	a1,0x55555
    800083c8:	55558593          	addi	a1,a1,1365 # 55555555 <absimmsh+0x49a847a8>
    800083cc:	00b59593          	slli	a1,a1,0xb
    800083d0:	2aa58593          	addi	a1,a1,682
    800083d4:	00b59593          	slli	a1,a1,0xb
    800083d8:	55558593          	addi	a1,a1,1365
    800083dc:	00a59593          	slli	a1,a1,0xa
    800083e0:	15558593          	addi	a1,a1,341
    800083e4:	40b5063b          	subw	a2,a0,a1
    800083e8:	02c2b023          	sd	a2,32(t0)
    800083ec:	555556b7          	lui	a3,0x55555
    800083f0:	5566869b          	addiw	a3,a3,1366 # 55555556 <absimmsh+0x49a847a9>
    800083f4:	00c68463          	beq	a3,a2,800083fc <inst_535>
    800083f8:	c2df706f          	j	80000024 <rvtest_error>

00000000800083fc <inst_535>:
    800083fc:	aaaab537          	lui	a0,0xaaaab
    80008400:	aaa50513          	addi	a0,a0,-1366 # ffffffffaaaaaaaa <absimm+0xfffffffeefd9cfda>
    80008404:	00b51513          	slli	a0,a0,0xb
    80008408:	55550513          	addi	a0,a0,1365
    8000840c:	00b51513          	slli	a0,a0,0xb
    80008410:	2aa50513          	addi	a0,a0,682
    80008414:	00a51513          	slli	a0,a0,0xa
    80008418:	2ab50513          	addi	a0,a0,683
    8000841c:	aaaab5b7          	lui	a1,0xaaaab
    80008420:	aaa58593          	addi	a1,a1,-1366 # ffffffffaaaaaaaa <absimm+0xfffffffeefd9cfda>
    80008424:	00b59593          	slli	a1,a1,0xb
    80008428:	55558593          	addi	a1,a1,1365
    8000842c:	00b59593          	slli	a1,a1,0xb
    80008430:	2aa58593          	addi	a1,a1,682
    80008434:	00a59593          	slli	a1,a1,0xa
    80008438:	2aa58593          	addi	a1,a1,682
    8000843c:	40b5063b          	subw	a2,a0,a1
    80008440:	02c2b423          	sd	a2,40(t0)
    80008444:	00100693          	li	a3,1
    80008448:	00c68463          	beq	a3,a2,80008450 <inst_536>
    8000844c:	bd9f706f          	j	80000024 <rvtest_error>

0000000080008450 <inst_536>:
    80008450:	aaaab537          	lui	a0,0xaaaab
    80008454:	aaa50513          	addi	a0,a0,-1366 # ffffffffaaaaaaaa <absimm+0xfffffffeefd9cfda>
    80008458:	00b51513          	slli	a0,a0,0xb
    8000845c:	55550513          	addi	a0,a0,1365
    80008460:	00b51513          	slli	a0,a0,0xb
    80008464:	2aa50513          	addi	a0,a0,682
    80008468:	00a51513          	slli	a0,a0,0xa
    8000846c:	2ab50513          	addi	a0,a0,683
    80008470:	00500593          	li	a1,5
    80008474:	40b5063b          	subw	a2,a0,a1
    80008478:	02c2b823          	sd	a2,48(t0)
    8000847c:	aaaab6b7          	lui	a3,0xaaaab
    80008480:	aa66869b          	addiw	a3,a3,-1370 # ffffffffaaaaaaa6 <absimm+0xfffffffeefd9cfd6>
    80008484:	00c68463          	beq	a3,a2,8000848c <inst_537>
    80008488:	b9df706f          	j	80000024 <rvtest_error>

000000008000848c <inst_537>:
    8000848c:	aaaab537          	lui	a0,0xaaaab
    80008490:	aaa50513          	addi	a0,a0,-1366 # ffffffffaaaaaaaa <absimm+0xfffffffeefd9cfda>
    80008494:	00b51513          	slli	a0,a0,0xb
    80008498:	55550513          	addi	a0,a0,1365
    8000849c:	00b51513          	slli	a0,a0,0xb
    800084a0:	2aa50513          	addi	a0,a0,682
    800084a4:	00a51513          	slli	a0,a0,0xa
    800084a8:	2ab50513          	addi	a0,a0,683
    800084ac:	333335b7          	lui	a1,0x33333
    800084b0:	33358593          	addi	a1,a1,819 # 33333333 <absimmsh+0x27862586>
    800084b4:	00b59593          	slli	a1,a1,0xb
    800084b8:	19958593          	addi	a1,a1,409
    800084bc:	00b59593          	slli	a1,a1,0xb
    800084c0:	4cc58593          	addi	a1,a1,1228
    800084c4:	00a59593          	slli	a1,a1,0xa
    800084c8:	33358593          	addi	a1,a1,819
    800084cc:	40b5063b          	subw	a2,a0,a1
    800084d0:	02c2bc23          	sd	a2,56(t0)
    800084d4:	777776b7          	lui	a3,0x77777
    800084d8:	7786869b          	addiw	a3,a3,1912 # 77777778 <absimmsh+0x6bca69cb>
    800084dc:	00c68463          	beq	a3,a2,800084e4 <inst_538>
    800084e0:	b45f706f          	j	80000024 <rvtest_error>

00000000800084e4 <inst_538>:
    800084e4:	aaaab537          	lui	a0,0xaaaab
    800084e8:	aaa50513          	addi	a0,a0,-1366 # ffffffffaaaaaaaa <absimm+0xfffffffeefd9cfda>
    800084ec:	00b51513          	slli	a0,a0,0xb
    800084f0:	55550513          	addi	a0,a0,1365
    800084f4:	00b51513          	slli	a0,a0,0xb
    800084f8:	2aa50513          	addi	a0,a0,682
    800084fc:	00a51513          	slli	a0,a0,0xa
    80008500:	2ab50513          	addi	a0,a0,683
    80008504:	666665b7          	lui	a1,0x66666
    80008508:	66658593          	addi	a1,a1,1638 # 66666666 <absimmsh+0x5ab958b9>
    8000850c:	00b59593          	slli	a1,a1,0xb
    80008510:	33358593          	addi	a1,a1,819
    80008514:	00b59593          	slli	a1,a1,0xb
    80008518:	19958593          	addi	a1,a1,409
    8000851c:	00a59593          	slli	a1,a1,0xa
    80008520:	26658593          	addi	a1,a1,614
    80008524:	40b5063b          	subw	a2,a0,a1
    80008528:	04c2b023          	sd	a2,64(t0)
    8000852c:	444446b7          	lui	a3,0x44444
    80008530:	4456869b          	addiw	a3,a3,1093 # 44444445 <absimmsh+0x38973698>
    80008534:	00c68463          	beq	a3,a2,8000853c <inst_539>
    80008538:	aedf706f          	j	80000024 <rvtest_error>

000000008000853c <inst_539>:
    8000853c:	aaaab537          	lui	a0,0xaaaab
    80008540:	aaa50513          	addi	a0,a0,-1366 # ffffffffaaaaaaaa <absimm+0xfffffffeefd9cfda>
    80008544:	00b51513          	slli	a0,a0,0xb
    80008548:	55550513          	addi	a0,a0,1365
    8000854c:	00b51513          	slli	a0,a0,0xb
    80008550:	2aa50513          	addi	a0,a0,682
    80008554:	00a51513          	slli	a0,a0,0xa
    80008558:	2ab50513          	addi	a0,a0,683
    8000855c:	000005b7          	lui	a1,0x0
    80008560:	fff58593          	addi	a1,a1,-1
    80008564:	00b59593          	slli	a1,a1,0xb
    80008568:	25758593          	addi	a1,a1,599
    8000856c:	00b59593          	slli	a1,a1,0xb
    80008570:	6c358593          	addi	a1,a1,1731
    80008574:	00a59593          	slli	a1,a1,0xa
    80008578:	0cd58593          	addi	a1,a1,205
    8000857c:	40b5063b          	subw	a2,a0,a1
    80008580:	04c2b423          	sd	a2,72(t0)
    80008584:	5fafa6b7          	lui	a3,0x5fafa
    80008588:	dde6869b          	addiw	a3,a3,-546 # 5faf9dde <absimmsh+0x54029031>
    8000858c:	00c68463          	beq	a3,a2,80008594 <inst_540>
    80008590:	a95f706f          	j	80000024 <rvtest_error>

0000000080008594 <inst_540>:
    80008594:	aaaab537          	lui	a0,0xaaaab
    80008598:	aaa50513          	addi	a0,a0,-1366 # ffffffffaaaaaaaa <absimm+0xfffffffeefd9cfda>
    8000859c:	00b51513          	slli	a0,a0,0xb
    800085a0:	55550513          	addi	a0,a0,1365
    800085a4:	00b51513          	slli	a0,a0,0xb
    800085a8:	2aa50513          	addi	a0,a0,682
    800085ac:	00a51513          	slli	a0,a0,0xa
    800085b0:	2ab50513          	addi	a0,a0,683
    800085b4:	000005b7          	lui	a1,0x0
    800085b8:	00058593          	mv	a1,a1
    800085bc:	00b59593          	slli	a1,a1,0xb
    800085c0:	5a858593          	addi	a1,a1,1448 # 5a8 <offset+0x108>
    800085c4:	00b59593          	slli	a1,a1,0xb
    800085c8:	13c58593          	addi	a1,a1,316
    800085cc:	00a59593          	slli	a1,a1,0xa
    800085d0:	33358593          	addi	a1,a1,819
    800085d4:	40b5063b          	subw	a2,a0,a1
    800085d8:	04c2b823          	sd	a2,80(t0)
    800085dc:	f5a5b6b7          	lui	a3,0xf5a5b
    800085e0:	7786869b          	addiw	a3,a3,1912 # fffffffff5a5b778 <absimm+0xffffffff3ad4dca8>
    800085e4:	00c68463          	beq	a3,a2,800085ec <inst_541>
    800085e8:	a3df706f          	j	80000024 <rvtest_error>

00000000800085ec <inst_541>:
    800085ec:	aaaab537          	lui	a0,0xaaaab
    800085f0:	aaa50513          	addi	a0,a0,-1366 # ffffffffaaaaaaaa <absimm+0xfffffffeefd9cfda>
    800085f4:	00b51513          	slli	a0,a0,0xb
    800085f8:	55550513          	addi	a0,a0,1365
    800085fc:	00b51513          	slli	a0,a0,0xb
    80008600:	2aa50513          	addi	a0,a0,682
    80008604:	00a51513          	slli	a0,a0,0xa
    80008608:	2ab50513          	addi	a0,a0,683
    8000860c:	00200593          	li	a1,2
    80008610:	40b5063b          	subw	a2,a0,a1
    80008614:	04c2bc23          	sd	a2,88(t0)
    80008618:	aaaab6b7          	lui	a3,0xaaaab
    8000861c:	aa96869b          	addiw	a3,a3,-1367 # ffffffffaaaaaaa9 <absimm+0xfffffffeefd9cfd9>
    80008620:	00c68463          	beq	a3,a2,80008628 <inst_542>
    80008624:	a01f706f          	j	80000024 <rvtest_error>

0000000080008628 <inst_542>:
    80008628:	aaaab537          	lui	a0,0xaaaab
    8000862c:	aaa50513          	addi	a0,a0,-1366 # ffffffffaaaaaaaa <absimm+0xfffffffeefd9cfda>
    80008630:	00b51513          	slli	a0,a0,0xb
    80008634:	55550513          	addi	a0,a0,1365
    80008638:	00b51513          	slli	a0,a0,0xb
    8000863c:	2aa50513          	addi	a0,a0,682
    80008640:	00a51513          	slli	a0,a0,0xa
    80008644:	2ab50513          	addi	a0,a0,683
    80008648:	555555b7          	lui	a1,0x55555
    8000864c:	55558593          	addi	a1,a1,1365 # 55555555 <absimmsh+0x49a847a8>
    80008650:	00b59593          	slli	a1,a1,0xb
    80008654:	2aa58593          	addi	a1,a1,682
    80008658:	00b59593          	slli	a1,a1,0xb
    8000865c:	55558593          	addi	a1,a1,1365
    80008660:	00a59593          	slli	a1,a1,0xa
    80008664:	15458593          	addi	a1,a1,340
    80008668:	40b5063b          	subw	a2,a0,a1
    8000866c:	06c2b023          	sd	a2,96(t0)
    80008670:	555556b7          	lui	a3,0x55555
    80008674:	5576869b          	addiw	a3,a3,1367 # 55555557 <absimmsh+0x49a847aa>
    80008678:	00c68463          	beq	a3,a2,80008680 <inst_543>
    8000867c:	9a9f706f          	j	80000024 <rvtest_error>

0000000080008680 <inst_543>:
    80008680:	aaaab537          	lui	a0,0xaaaab
    80008684:	aaa50513          	addi	a0,a0,-1366 # ffffffffaaaaaaaa <absimm+0xfffffffeefd9cfda>
    80008688:	00b51513          	slli	a0,a0,0xb
    8000868c:	55550513          	addi	a0,a0,1365
    80008690:	00b51513          	slli	a0,a0,0xb
    80008694:	2aa50513          	addi	a0,a0,682
    80008698:	00a51513          	slli	a0,a0,0xa
    8000869c:	2ab50513          	addi	a0,a0,683
    800086a0:	00000593          	li	a1,0
    800086a4:	40b5063b          	subw	a2,a0,a1
    800086a8:	06c2b423          	sd	a2,104(t0)
    800086ac:	aaaab6b7          	lui	a3,0xaaaab
    800086b0:	aab6869b          	addiw	a3,a3,-1365 # ffffffffaaaaaaab <absimm+0xfffffffeefd9cfdb>
    800086b4:	00c68463          	beq	a3,a2,800086bc <inst_544>
    800086b8:	96df706f          	j	80000024 <rvtest_error>

00000000800086bc <inst_544>:
    800086bc:	aaaab537          	lui	a0,0xaaaab
    800086c0:	aaa50513          	addi	a0,a0,-1366 # ffffffffaaaaaaaa <absimm+0xfffffffeefd9cfda>
    800086c4:	00b51513          	slli	a0,a0,0xb
    800086c8:	55550513          	addi	a0,a0,1365
    800086cc:	00b51513          	slli	a0,a0,0xb
    800086d0:	2aa50513          	addi	a0,a0,682
    800086d4:	00a51513          	slli	a0,a0,0xa
    800086d8:	2ab50513          	addi	a0,a0,683
    800086dc:	00400593          	li	a1,4
    800086e0:	40b5063b          	subw	a2,a0,a1
    800086e4:	06c2b823          	sd	a2,112(t0)
    800086e8:	aaaab6b7          	lui	a3,0xaaaab
    800086ec:	aa76869b          	addiw	a3,a3,-1369 # ffffffffaaaaaaa7 <absimm+0xfffffffeefd9cfd7>
    800086f0:	00c68463          	beq	a3,a2,800086f8 <inst_545>
    800086f4:	931f706f          	j	80000024 <rvtest_error>

00000000800086f8 <inst_545>:
    800086f8:	aaaab537          	lui	a0,0xaaaab
    800086fc:	aaa50513          	addi	a0,a0,-1366 # ffffffffaaaaaaaa <absimm+0xfffffffeefd9cfda>
    80008700:	00b51513          	slli	a0,a0,0xb
    80008704:	55550513          	addi	a0,a0,1365
    80008708:	00b51513          	slli	a0,a0,0xb
    8000870c:	2aa50513          	addi	a0,a0,682
    80008710:	00a51513          	slli	a0,a0,0xa
    80008714:	2ab50513          	addi	a0,a0,683
    80008718:	333335b7          	lui	a1,0x33333
    8000871c:	33358593          	addi	a1,a1,819 # 33333333 <absimmsh+0x27862586>
    80008720:	00b59593          	slli	a1,a1,0xb
    80008724:	19958593          	addi	a1,a1,409
    80008728:	00b59593          	slli	a1,a1,0xb
    8000872c:	4cc58593          	addi	a1,a1,1228
    80008730:	00a59593          	slli	a1,a1,0xa
    80008734:	33258593          	addi	a1,a1,818
    80008738:	40b5063b          	subw	a2,a0,a1
    8000873c:	06c2bc23          	sd	a2,120(t0)
    80008740:	777776b7          	lui	a3,0x77777
    80008744:	7796869b          	addiw	a3,a3,1913 # 77777779 <absimmsh+0x6bca69cc>
    80008748:	00c68463          	beq	a3,a2,80008750 <inst_546>
    8000874c:	8d9f706f          	j	80000024 <rvtest_error>

0000000080008750 <inst_546>:
    80008750:	aaaab537          	lui	a0,0xaaaab
    80008754:	aaa50513          	addi	a0,a0,-1366 # ffffffffaaaaaaaa <absimm+0xfffffffeefd9cfda>
    80008758:	00b51513          	slli	a0,a0,0xb
    8000875c:	55550513          	addi	a0,a0,1365
    80008760:	00b51513          	slli	a0,a0,0xb
    80008764:	2aa50513          	addi	a0,a0,682
    80008768:	00a51513          	slli	a0,a0,0xa
    8000876c:	2ab50513          	addi	a0,a0,683
    80008770:	666665b7          	lui	a1,0x66666
    80008774:	66658593          	addi	a1,a1,1638 # 66666666 <absimmsh+0x5ab958b9>
    80008778:	00b59593          	slli	a1,a1,0xb
    8000877c:	33358593          	addi	a1,a1,819
    80008780:	00b59593          	slli	a1,a1,0xb
    80008784:	19958593          	addi	a1,a1,409
    80008788:	00a59593          	slli	a1,a1,0xa
    8000878c:	26558593          	addi	a1,a1,613
    80008790:	40b5063b          	subw	a2,a0,a1
    80008794:	08c2b023          	sd	a2,128(t0)
    80008798:	444446b7          	lui	a3,0x44444
    8000879c:	4466869b          	addiw	a3,a3,1094 # 44444446 <absimmsh+0x38973699>
    800087a0:	00c68463          	beq	a3,a2,800087a8 <inst_547>
    800087a4:	881f706f          	j	80000024 <rvtest_error>

00000000800087a8 <inst_547>:
    800087a8:	aaaab537          	lui	a0,0xaaaab
    800087ac:	aaa50513          	addi	a0,a0,-1366 # ffffffffaaaaaaaa <absimm+0xfffffffeefd9cfda>
    800087b0:	00b51513          	slli	a0,a0,0xb
    800087b4:	55550513          	addi	a0,a0,1365
    800087b8:	00b51513          	slli	a0,a0,0xb
    800087bc:	2aa50513          	addi	a0,a0,682
    800087c0:	00a51513          	slli	a0,a0,0xa
    800087c4:	2ab50513          	addi	a0,a0,683
    800087c8:	000005b7          	lui	a1,0x0
    800087cc:	00058593          	mv	a1,a1
    800087d0:	00b59593          	slli	a1,a1,0xb
    800087d4:	5a858593          	addi	a1,a1,1448 # 5a8 <offset+0x108>
    800087d8:	00b59593          	slli	a1,a1,0xb
    800087dc:	13c58593          	addi	a1,a1,316
    800087e0:	00a59593          	slli	a1,a1,0xa
    800087e4:	33258593          	addi	a1,a1,818
    800087e8:	40b5063b          	subw	a2,a0,a1
    800087ec:	08c2b423          	sd	a2,136(t0)
    800087f0:	f5a5b6b7          	lui	a3,0xf5a5b
    800087f4:	7796869b          	addiw	a3,a3,1913 # fffffffff5a5b779 <absimm+0xffffffff3ad4dca9>
    800087f8:	00c68463          	beq	a3,a2,80008800 <inst_548>
    800087fc:	829f706f          	j	80000024 <rvtest_error>

0000000080008800 <inst_548>:
    80008800:	aaaab537          	lui	a0,0xaaaab
    80008804:	aaa50513          	addi	a0,a0,-1366 # ffffffffaaaaaaaa <absimm+0xfffffffeefd9cfda>
    80008808:	00b51513          	slli	a0,a0,0xb
    8000880c:	55550513          	addi	a0,a0,1365
    80008810:	00b51513          	slli	a0,a0,0xb
    80008814:	2aa50513          	addi	a0,a0,682
    80008818:	00a51513          	slli	a0,a0,0xa
    8000881c:	2ab50513          	addi	a0,a0,683
    80008820:	555555b7          	lui	a1,0x55555
    80008824:	55558593          	addi	a1,a1,1365 # 55555555 <absimmsh+0x49a847a8>
    80008828:	00b59593          	slli	a1,a1,0xb
    8000882c:	2aa58593          	addi	a1,a1,682
    80008830:	00b59593          	slli	a1,a1,0xb
    80008834:	55558593          	addi	a1,a1,1365
    80008838:	00a59593          	slli	a1,a1,0xa
    8000883c:	15658593          	addi	a1,a1,342
    80008840:	40b5063b          	subw	a2,a0,a1
    80008844:	08c2b823          	sd	a2,144(t0)
    80008848:	555556b7          	lui	a3,0x55555
    8000884c:	5556869b          	addiw	a3,a3,1365 # 55555555 <absimmsh+0x49a847a8>
    80008850:	00c68463          	beq	a3,a2,80008858 <inst_549>
    80008854:	fd0f706f          	j	80000024 <rvtest_error>

0000000080008858 <inst_549>:
    80008858:	aaaab537          	lui	a0,0xaaaab
    8000885c:	aaa50513          	addi	a0,a0,-1366 # ffffffffaaaaaaaa <absimm+0xfffffffeefd9cfda>
    80008860:	00b51513          	slli	a0,a0,0xb
    80008864:	55550513          	addi	a0,a0,1365
    80008868:	00b51513          	slli	a0,a0,0xb
    8000886c:	2aa50513          	addi	a0,a0,682
    80008870:	00a51513          	slli	a0,a0,0xa
    80008874:	2ab50513          	addi	a0,a0,683
    80008878:	aaaab5b7          	lui	a1,0xaaaab
    8000887c:	aaa58593          	addi	a1,a1,-1366 # ffffffffaaaaaaaa <absimm+0xfffffffeefd9cfda>
    80008880:	00b59593          	slli	a1,a1,0xb
    80008884:	55558593          	addi	a1,a1,1365
    80008888:	00b59593          	slli	a1,a1,0xb
    8000888c:	2aa58593          	addi	a1,a1,682
    80008890:	00a59593          	slli	a1,a1,0xa
    80008894:	2ab58593          	addi	a1,a1,683
    80008898:	40b5063b          	subw	a2,a0,a1
    8000889c:	08c2bc23          	sd	a2,152(t0)
    800088a0:	00000693          	li	a3,0
    800088a4:	00c68463          	beq	a3,a2,800088ac <inst_550>
    800088a8:	f7cf706f          	j	80000024 <rvtest_error>

00000000800088ac <inst_550>:
    800088ac:	aaaab537          	lui	a0,0xaaaab
    800088b0:	aaa50513          	addi	a0,a0,-1366 # ffffffffaaaaaaaa <absimm+0xfffffffeefd9cfda>
    800088b4:	00b51513          	slli	a0,a0,0xb
    800088b8:	55550513          	addi	a0,a0,1365
    800088bc:	00b51513          	slli	a0,a0,0xb
    800088c0:	2aa50513          	addi	a0,a0,682
    800088c4:	00a51513          	slli	a0,a0,0xa
    800088c8:	2ab50513          	addi	a0,a0,683
    800088cc:	00600593          	li	a1,6
    800088d0:	40b5063b          	subw	a2,a0,a1
    800088d4:	0ac2b023          	sd	a2,160(t0)
    800088d8:	aaaab6b7          	lui	a3,0xaaaab
    800088dc:	aa56869b          	addiw	a3,a3,-1371 # ffffffffaaaaaaa5 <absimm+0xfffffffeefd9cfd5>
    800088e0:	00c68463          	beq	a3,a2,800088e8 <inst_551>
    800088e4:	f40f706f          	j	80000024 <rvtest_error>

00000000800088e8 <inst_551>:
    800088e8:	aaaab537          	lui	a0,0xaaaab
    800088ec:	aaa50513          	addi	a0,a0,-1366 # ffffffffaaaaaaaa <absimm+0xfffffffeefd9cfda>
    800088f0:	00b51513          	slli	a0,a0,0xb
    800088f4:	55550513          	addi	a0,a0,1365
    800088f8:	00b51513          	slli	a0,a0,0xb
    800088fc:	2aa50513          	addi	a0,a0,682
    80008900:	00a51513          	slli	a0,a0,0xa
    80008904:	2ab50513          	addi	a0,a0,683
    80008908:	333335b7          	lui	a1,0x33333
    8000890c:	33358593          	addi	a1,a1,819 # 33333333 <absimmsh+0x27862586>
    80008910:	00b59593          	slli	a1,a1,0xb
    80008914:	19958593          	addi	a1,a1,409
    80008918:	00b59593          	slli	a1,a1,0xb
    8000891c:	4cc58593          	addi	a1,a1,1228
    80008920:	00a59593          	slli	a1,a1,0xa
    80008924:	33458593          	addi	a1,a1,820
    80008928:	40b5063b          	subw	a2,a0,a1
    8000892c:	0ac2b423          	sd	a2,168(t0)
    80008930:	777776b7          	lui	a3,0x77777
    80008934:	7776869b          	addiw	a3,a3,1911 # 77777777 <absimmsh+0x6bca69ca>
    80008938:	00c68463          	beq	a3,a2,80008940 <inst_552>
    8000893c:	ee8f706f          	j	80000024 <rvtest_error>

0000000080008940 <inst_552>:
    80008940:	aaaab537          	lui	a0,0xaaaab
    80008944:	aaa50513          	addi	a0,a0,-1366 # ffffffffaaaaaaaa <absimm+0xfffffffeefd9cfda>
    80008948:	00b51513          	slli	a0,a0,0xb
    8000894c:	55550513          	addi	a0,a0,1365
    80008950:	00b51513          	slli	a0,a0,0xb
    80008954:	2aa50513          	addi	a0,a0,682
    80008958:	00a51513          	slli	a0,a0,0xa
    8000895c:	2ab50513          	addi	a0,a0,683
    80008960:	666665b7          	lui	a1,0x66666
    80008964:	66658593          	addi	a1,a1,1638 # 66666666 <absimmsh+0x5ab958b9>
    80008968:	00b59593          	slli	a1,a1,0xb
    8000896c:	33358593          	addi	a1,a1,819
    80008970:	00b59593          	slli	a1,a1,0xb
    80008974:	19958593          	addi	a1,a1,409
    80008978:	00a59593          	slli	a1,a1,0xa
    8000897c:	26758593          	addi	a1,a1,615
    80008980:	40b5063b          	subw	a2,a0,a1
    80008984:	0ac2b823          	sd	a2,176(t0)
    80008988:	444446b7          	lui	a3,0x44444
    8000898c:	4446869b          	addiw	a3,a3,1092 # 44444444 <absimmsh+0x38973697>
    80008990:	00c68463          	beq	a3,a2,80008998 <inst_553>
    80008994:	e90f706f          	j	80000024 <rvtest_error>

0000000080008998 <inst_553>:
    80008998:	aaaab537          	lui	a0,0xaaaab
    8000899c:	aaa50513          	addi	a0,a0,-1366 # ffffffffaaaaaaaa <absimm+0xfffffffeefd9cfda>
    800089a0:	00b51513          	slli	a0,a0,0xb
    800089a4:	55550513          	addi	a0,a0,1365
    800089a8:	00b51513          	slli	a0,a0,0xb
    800089ac:	2aa50513          	addi	a0,a0,682
    800089b0:	00a51513          	slli	a0,a0,0xa
    800089b4:	2ab50513          	addi	a0,a0,683
    800089b8:	000005b7          	lui	a1,0x0
    800089bc:	fff58593          	addi	a1,a1,-1
    800089c0:	00b59593          	slli	a1,a1,0xb
    800089c4:	25758593          	addi	a1,a1,599
    800089c8:	00b59593          	slli	a1,a1,0xb
    800089cc:	6c358593          	addi	a1,a1,1731
    800089d0:	00a59593          	slli	a1,a1,0xa
    800089d4:	0ce58593          	addi	a1,a1,206
    800089d8:	40b5063b          	subw	a2,a0,a1
    800089dc:	0ac2bc23          	sd	a2,184(t0)
    800089e0:	5fafa6b7          	lui	a3,0x5fafa
    800089e4:	ddd6869b          	addiw	a3,a3,-547 # 5faf9ddd <absimmsh+0x54029030>
    800089e8:	00c68463          	beq	a3,a2,800089f0 <inst_554>
    800089ec:	e38f706f          	j	80000024 <rvtest_error>

00000000800089f0 <inst_554>:
    800089f0:	aaaab537          	lui	a0,0xaaaab
    800089f4:	aaa50513          	addi	a0,a0,-1366 # ffffffffaaaaaaaa <absimm+0xfffffffeefd9cfda>
    800089f8:	00b51513          	slli	a0,a0,0xb
    800089fc:	55550513          	addi	a0,a0,1365
    80008a00:	00b51513          	slli	a0,a0,0xb
    80008a04:	2aa50513          	addi	a0,a0,682
    80008a08:	00a51513          	slli	a0,a0,0xa
    80008a0c:	2ab50513          	addi	a0,a0,683
    80008a10:	000005b7          	lui	a1,0x0
    80008a14:	00058593          	mv	a1,a1
    80008a18:	00b59593          	slli	a1,a1,0xb
    80008a1c:	5a858593          	addi	a1,a1,1448 # 5a8 <offset+0x108>
    80008a20:	00b59593          	slli	a1,a1,0xb
    80008a24:	13c58593          	addi	a1,a1,316
    80008a28:	00a59593          	slli	a1,a1,0xa
    80008a2c:	33458593          	addi	a1,a1,820
    80008a30:	40b5063b          	subw	a2,a0,a1
    80008a34:	0cc2b023          	sd	a2,192(t0)
    80008a38:	f5a5b6b7          	lui	a3,0xf5a5b
    80008a3c:	7776869b          	addiw	a3,a3,1911 # fffffffff5a5b777 <absimm+0xffffffff3ad4dca7>
    80008a40:	00c68463          	beq	a3,a2,80008a48 <inst_555>
    80008a44:	de0f706f          	j	80000024 <rvtest_error>

0000000080008a48 <inst_555>:
    80008a48:	00600513          	li	a0,6
    80008a4c:	00300593          	li	a1,3
    80008a50:	40b5063b          	subw	a2,a0,a1
    80008a54:	0cc2b423          	sd	a2,200(t0)
    80008a58:	00300693          	li	a3,3
    80008a5c:	00c68463          	beq	a3,a2,80008a64 <inst_556>
    80008a60:	dc4f706f          	j	80000024 <rvtest_error>

0000000080008a64 <inst_556>:
    80008a64:	00600513          	li	a0,6
    80008a68:	555555b7          	lui	a1,0x55555
    80008a6c:	55558593          	addi	a1,a1,1365 # 55555555 <absimmsh+0x49a847a8>
    80008a70:	00b59593          	slli	a1,a1,0xb
    80008a74:	2aa58593          	addi	a1,a1,682
    80008a78:	00b59593          	slli	a1,a1,0xb
    80008a7c:	55558593          	addi	a1,a1,1365
    80008a80:	00a59593          	slli	a1,a1,0xa
    80008a84:	15558593          	addi	a1,a1,341
    80008a88:	40b5063b          	subw	a2,a0,a1
    80008a8c:	0cc2b823          	sd	a2,208(t0)
    80008a90:	aaaab6b7          	lui	a3,0xaaaab
    80008a94:	ab16869b          	addiw	a3,a3,-1359 # ffffffffaaaaaab1 <absimm+0xfffffffeefd9cfe1>
    80008a98:	00c68463          	beq	a3,a2,80008aa0 <inst_557>
    80008a9c:	d88f706f          	j	80000024 <rvtest_error>

0000000080008aa0 <inst_557>:
    80008aa0:	00600513          	li	a0,6
    80008aa4:	aaaab5b7          	lui	a1,0xaaaab
    80008aa8:	aaa58593          	addi	a1,a1,-1366 # ffffffffaaaaaaaa <absimm+0xfffffffeefd9cfda>
    80008aac:	00b59593          	slli	a1,a1,0xb
    80008ab0:	55558593          	addi	a1,a1,1365
    80008ab4:	00b59593          	slli	a1,a1,0xb
    80008ab8:	2aa58593          	addi	a1,a1,682
    80008abc:	00a59593          	slli	a1,a1,0xa
    80008ac0:	2aa58593          	addi	a1,a1,682
    80008ac4:	40b5063b          	subw	a2,a0,a1
    80008ac8:	0cc2bc23          	sd	a2,216(t0)
    80008acc:	555556b7          	lui	a3,0x55555
    80008ad0:	55c6869b          	addiw	a3,a3,1372 # 5555555c <absimmsh+0x49a847af>
    80008ad4:	00c68463          	beq	a3,a2,80008adc <inst_558>
    80008ad8:	d4cf706f          	j	80000024 <rvtest_error>

0000000080008adc <inst_558>:
    80008adc:	00600513          	li	a0,6
    80008ae0:	00500593          	li	a1,5
    80008ae4:	40b5063b          	subw	a2,a0,a1
    80008ae8:	0ec2b023          	sd	a2,224(t0)
    80008aec:	00100693          	li	a3,1
    80008af0:	00c68463          	beq	a3,a2,80008af8 <inst_559>
    80008af4:	d30f706f          	j	80000024 <rvtest_error>

0000000080008af8 <inst_559>:
    80008af8:	00600513          	li	a0,6
    80008afc:	333335b7          	lui	a1,0x33333
    80008b00:	33358593          	addi	a1,a1,819 # 33333333 <absimmsh+0x27862586>
    80008b04:	00b59593          	slli	a1,a1,0xb
    80008b08:	19958593          	addi	a1,a1,409
    80008b0c:	00b59593          	slli	a1,a1,0xb
    80008b10:	4cc58593          	addi	a1,a1,1228
    80008b14:	00a59593          	slli	a1,a1,0xa
    80008b18:	33358593          	addi	a1,a1,819
    80008b1c:	40b5063b          	subw	a2,a0,a1
    80008b20:	0ec2b423          	sd	a2,232(t0)
    80008b24:	ccccd6b7          	lui	a3,0xccccd
    80008b28:	cd36869b          	addiw	a3,a3,-813 # ffffffffccccccd3 <absimm+0xffffffff11fbf203>
    80008b2c:	00c68463          	beq	a3,a2,80008b34 <inst_560>
    80008b30:	cf4f706f          	j	80000024 <rvtest_error>

0000000080008b34 <inst_560>:
    80008b34:	00600513          	li	a0,6
    80008b38:	666665b7          	lui	a1,0x66666
    80008b3c:	66658593          	addi	a1,a1,1638 # 66666666 <absimmsh+0x5ab958b9>
    80008b40:	00b59593          	slli	a1,a1,0xb
    80008b44:	33358593          	addi	a1,a1,819
    80008b48:	00b59593          	slli	a1,a1,0xb
    80008b4c:	19958593          	addi	a1,a1,409
    80008b50:	00a59593          	slli	a1,a1,0xa
    80008b54:	26658593          	addi	a1,a1,614
    80008b58:	40b5063b          	subw	a2,a0,a1
    80008b5c:	0ec2b823          	sd	a2,240(t0)
    80008b60:	9999a6b7          	lui	a3,0x9999a
    80008b64:	9a06869b          	addiw	a3,a3,-1632 # ffffffff999999a0 <absimm+0xfffffffedec8bed0>
    80008b68:	00c68463          	beq	a3,a2,80008b70 <inst_561>
    80008b6c:	cb8f706f          	j	80000024 <rvtest_error>

0000000080008b70 <inst_561>:
    80008b70:	00600513          	li	a0,6
    80008b74:	000005b7          	lui	a1,0x0
    80008b78:	fff58593          	addi	a1,a1,-1
    80008b7c:	00b59593          	slli	a1,a1,0xb
    80008b80:	25758593          	addi	a1,a1,599
    80008b84:	00b59593          	slli	a1,a1,0xb
    80008b88:	6c358593          	addi	a1,a1,1731
    80008b8c:	00a59593          	slli	a1,a1,0xa
    80008b90:	0cd58593          	addi	a1,a1,205
    80008b94:	40b5063b          	subw	a2,a0,a1
    80008b98:	0ec2bc23          	sd	a2,248(t0)
    80008b9c:	b504f6b7          	lui	a3,0xb504f
    80008ba0:	3396869b          	addiw	a3,a3,825 # ffffffffb504f339 <absimm+0xfffffffefa341869>
    80008ba4:	00c68463          	beq	a3,a2,80008bac <inst_562>
    80008ba8:	c7cf706f          	j	80000024 <rvtest_error>

0000000080008bac <inst_562>:
    80008bac:	00600513          	li	a0,6
    80008bb0:	000005b7          	lui	a1,0x0
    80008bb4:	00058593          	mv	a1,a1
    80008bb8:	00b59593          	slli	a1,a1,0xb
    80008bbc:	5a858593          	addi	a1,a1,1448 # 5a8 <offset+0x108>
    80008bc0:	00b59593          	slli	a1,a1,0xb
    80008bc4:	13c58593          	addi	a1,a1,316
    80008bc8:	00a59593          	slli	a1,a1,0xa
    80008bcc:	33358593          	addi	a1,a1,819
    80008bd0:	40b5063b          	subw	a2,a0,a1
    80008bd4:	10c2b023          	sd	a2,256(t0)
    80008bd8:	4afb16b7          	lui	a3,0x4afb1
    80008bdc:	cd36869b          	addiw	a3,a3,-813 # 4afb0cd3 <absimmsh+0x3f4dff26>
    80008be0:	00c68463          	beq	a3,a2,80008be8 <inst_563>
    80008be4:	c40f706f          	j	80000024 <rvtest_error>

0000000080008be8 <inst_563>:
    80008be8:	00600513          	li	a0,6
    80008bec:	00200593          	li	a1,2
    80008bf0:	40b5063b          	subw	a2,a0,a1
    80008bf4:	10c2b423          	sd	a2,264(t0)
    80008bf8:	00400693          	li	a3,4
    80008bfc:	00c68463          	beq	a3,a2,80008c04 <inst_564>
    80008c00:	c24f706f          	j	80000024 <rvtest_error>

0000000080008c04 <inst_564>:
    80008c04:	00600513          	li	a0,6
    80008c08:	555555b7          	lui	a1,0x55555
    80008c0c:	55558593          	addi	a1,a1,1365 # 55555555 <absimmsh+0x49a847a8>
    80008c10:	00b59593          	slli	a1,a1,0xb
    80008c14:	2aa58593          	addi	a1,a1,682
    80008c18:	00b59593          	slli	a1,a1,0xb
    80008c1c:	55558593          	addi	a1,a1,1365
    80008c20:	00a59593          	slli	a1,a1,0xa
    80008c24:	15458593          	addi	a1,a1,340
    80008c28:	40b5063b          	subw	a2,a0,a1
    80008c2c:	10c2b823          	sd	a2,272(t0)
    80008c30:	aaaab6b7          	lui	a3,0xaaaab
    80008c34:	ab26869b          	addiw	a3,a3,-1358 # ffffffffaaaaaab2 <absimm+0xfffffffeefd9cfe2>
    80008c38:	00c68463          	beq	a3,a2,80008c40 <inst_565>
    80008c3c:	be8f706f          	j	80000024 <rvtest_error>

0000000080008c40 <inst_565>:
    80008c40:	00600513          	li	a0,6
    80008c44:	00000593          	li	a1,0
    80008c48:	40b5063b          	subw	a2,a0,a1
    80008c4c:	10c2bc23          	sd	a2,280(t0)
    80008c50:	00600693          	li	a3,6
    80008c54:	00c68463          	beq	a3,a2,80008c5c <inst_566>
    80008c58:	bccf706f          	j	80000024 <rvtest_error>

0000000080008c5c <inst_566>:
    80008c5c:	00600513          	li	a0,6
    80008c60:	00400593          	li	a1,4
    80008c64:	40b5063b          	subw	a2,a0,a1
    80008c68:	12c2b023          	sd	a2,288(t0)
    80008c6c:	00200693          	li	a3,2
    80008c70:	00c68463          	beq	a3,a2,80008c78 <inst_567>
    80008c74:	bb0f706f          	j	80000024 <rvtest_error>

0000000080008c78 <inst_567>:
    80008c78:	00600513          	li	a0,6
    80008c7c:	333335b7          	lui	a1,0x33333
    80008c80:	33358593          	addi	a1,a1,819 # 33333333 <absimmsh+0x27862586>
    80008c84:	00b59593          	slli	a1,a1,0xb
    80008c88:	19958593          	addi	a1,a1,409
    80008c8c:	00b59593          	slli	a1,a1,0xb
    80008c90:	4cc58593          	addi	a1,a1,1228
    80008c94:	00a59593          	slli	a1,a1,0xa
    80008c98:	33258593          	addi	a1,a1,818
    80008c9c:	40b5063b          	subw	a2,a0,a1
    80008ca0:	12c2b423          	sd	a2,296(t0)
    80008ca4:	ccccd6b7          	lui	a3,0xccccd
    80008ca8:	cd46869b          	addiw	a3,a3,-812 # ffffffffccccccd4 <absimm+0xffffffff11fbf204>
    80008cac:	00c68463          	beq	a3,a2,80008cb4 <inst_568>
    80008cb0:	b74f706f          	j	80000024 <rvtest_error>

0000000080008cb4 <inst_568>:
    80008cb4:	00600513          	li	a0,6
    80008cb8:	666665b7          	lui	a1,0x66666
    80008cbc:	66658593          	addi	a1,a1,1638 # 66666666 <absimmsh+0x5ab958b9>
    80008cc0:	00b59593          	slli	a1,a1,0xb
    80008cc4:	33358593          	addi	a1,a1,819
    80008cc8:	00b59593          	slli	a1,a1,0xb
    80008ccc:	19958593          	addi	a1,a1,409
    80008cd0:	00a59593          	slli	a1,a1,0xa
    80008cd4:	26558593          	addi	a1,a1,613
    80008cd8:	40b5063b          	subw	a2,a0,a1
    80008cdc:	12c2b823          	sd	a2,304(t0)
    80008ce0:	9999a6b7          	lui	a3,0x9999a
    80008ce4:	9a16869b          	addiw	a3,a3,-1631 # ffffffff999999a1 <absimm+0xfffffffedec8bed1>
    80008ce8:	00c68463          	beq	a3,a2,80008cf0 <inst_569>
    80008cec:	b38f706f          	j	80000024 <rvtest_error>

0000000080008cf0 <inst_569>:
    80008cf0:	00600513          	li	a0,6
    80008cf4:	000005b7          	lui	a1,0x0
    80008cf8:	00058593          	mv	a1,a1
    80008cfc:	00b59593          	slli	a1,a1,0xb
    80008d00:	5a858593          	addi	a1,a1,1448 # 5a8 <offset+0x108>
    80008d04:	00b59593          	slli	a1,a1,0xb
    80008d08:	13c58593          	addi	a1,a1,316
    80008d0c:	00a59593          	slli	a1,a1,0xa
    80008d10:	33258593          	addi	a1,a1,818
    80008d14:	40b5063b          	subw	a2,a0,a1
    80008d18:	12c2bc23          	sd	a2,312(t0)
    80008d1c:	4afb16b7          	lui	a3,0x4afb1
    80008d20:	cd46869b          	addiw	a3,a3,-812 # 4afb0cd4 <absimmsh+0x3f4dff27>
    80008d24:	00c68463          	beq	a3,a2,80008d2c <inst_570>
    80008d28:	afcf706f          	j	80000024 <rvtest_error>

0000000080008d2c <inst_570>:
    80008d2c:	00600513          	li	a0,6
    80008d30:	555555b7          	lui	a1,0x55555
    80008d34:	55558593          	addi	a1,a1,1365 # 55555555 <absimmsh+0x49a847a8>
    80008d38:	00b59593          	slli	a1,a1,0xb
    80008d3c:	2aa58593          	addi	a1,a1,682
    80008d40:	00b59593          	slli	a1,a1,0xb
    80008d44:	55558593          	addi	a1,a1,1365
    80008d48:	00a59593          	slli	a1,a1,0xa
    80008d4c:	15658593          	addi	a1,a1,342
    80008d50:	40b5063b          	subw	a2,a0,a1
    80008d54:	14c2b023          	sd	a2,320(t0)
    80008d58:	aaaab6b7          	lui	a3,0xaaaab
    80008d5c:	ab06869b          	addiw	a3,a3,-1360 # ffffffffaaaaaab0 <absimm+0xfffffffeefd9cfe0>
    80008d60:	00c68463          	beq	a3,a2,80008d68 <inst_571>
    80008d64:	ac0f706f          	j	80000024 <rvtest_error>

0000000080008d68 <inst_571>:
    80008d68:	00600513          	li	a0,6
    80008d6c:	aaaab5b7          	lui	a1,0xaaaab
    80008d70:	aaa58593          	addi	a1,a1,-1366 # ffffffffaaaaaaaa <absimm+0xfffffffeefd9cfda>
    80008d74:	00b59593          	slli	a1,a1,0xb
    80008d78:	55558593          	addi	a1,a1,1365
    80008d7c:	00b59593          	slli	a1,a1,0xb
    80008d80:	2aa58593          	addi	a1,a1,682
    80008d84:	00a59593          	slli	a1,a1,0xa
    80008d88:	2ab58593          	addi	a1,a1,683
    80008d8c:	40b5063b          	subw	a2,a0,a1
    80008d90:	14c2b423          	sd	a2,328(t0)
    80008d94:	555556b7          	lui	a3,0x55555
    80008d98:	55b6869b          	addiw	a3,a3,1371 # 5555555b <absimmsh+0x49a847ae>
    80008d9c:	00c68463          	beq	a3,a2,80008da4 <inst_572>
    80008da0:	a84f706f          	j	80000024 <rvtest_error>

0000000080008da4 <inst_572>:
    80008da4:	00600513          	li	a0,6
    80008da8:	00600593          	li	a1,6
    80008dac:	40b5063b          	subw	a2,a0,a1
    80008db0:	14c2b823          	sd	a2,336(t0)
    80008db4:	00000693          	li	a3,0
    80008db8:	00c68463          	beq	a3,a2,80008dc0 <inst_573>
    80008dbc:	a68f706f          	j	80000024 <rvtest_error>

0000000080008dc0 <inst_573>:
    80008dc0:	00600513          	li	a0,6
    80008dc4:	333335b7          	lui	a1,0x33333
    80008dc8:	33358593          	addi	a1,a1,819 # 33333333 <absimmsh+0x27862586>
    80008dcc:	00b59593          	slli	a1,a1,0xb
    80008dd0:	19958593          	addi	a1,a1,409
    80008dd4:	00b59593          	slli	a1,a1,0xb
    80008dd8:	4cc58593          	addi	a1,a1,1228
    80008ddc:	00a59593          	slli	a1,a1,0xa
    80008de0:	33458593          	addi	a1,a1,820
    80008de4:	40b5063b          	subw	a2,a0,a1
    80008de8:	14c2bc23          	sd	a2,344(t0)
    80008dec:	ccccd6b7          	lui	a3,0xccccd
    80008df0:	cd26869b          	addiw	a3,a3,-814 # ffffffffccccccd2 <absimm+0xffffffff11fbf202>
    80008df4:	00c68463          	beq	a3,a2,80008dfc <inst_574>
    80008df8:	a2cf706f          	j	80000024 <rvtest_error>

0000000080008dfc <inst_574>:
    80008dfc:	00600513          	li	a0,6
    80008e00:	666665b7          	lui	a1,0x66666
    80008e04:	66658593          	addi	a1,a1,1638 # 66666666 <absimmsh+0x5ab958b9>
    80008e08:	00b59593          	slli	a1,a1,0xb
    80008e0c:	33358593          	addi	a1,a1,819
    80008e10:	00b59593          	slli	a1,a1,0xb
    80008e14:	19958593          	addi	a1,a1,409
    80008e18:	00a59593          	slli	a1,a1,0xa
    80008e1c:	26758593          	addi	a1,a1,615
    80008e20:	40b5063b          	subw	a2,a0,a1
    80008e24:	16c2b023          	sd	a2,352(t0)
    80008e28:	9999a6b7          	lui	a3,0x9999a
    80008e2c:	99f6869b          	addiw	a3,a3,-1633 # ffffffff9999999f <absimm+0xfffffffedec8becf>
    80008e30:	00c68463          	beq	a3,a2,80008e38 <inst_575>
    80008e34:	9f0f706f          	j	80000024 <rvtest_error>

0000000080008e38 <inst_575>:
    80008e38:	00600513          	li	a0,6
    80008e3c:	000005b7          	lui	a1,0x0
    80008e40:	fff58593          	addi	a1,a1,-1
    80008e44:	00b59593          	slli	a1,a1,0xb
    80008e48:	25758593          	addi	a1,a1,599
    80008e4c:	00b59593          	slli	a1,a1,0xb
    80008e50:	6c358593          	addi	a1,a1,1731
    80008e54:	00a59593          	slli	a1,a1,0xa
    80008e58:	0ce58593          	addi	a1,a1,206
    80008e5c:	40b5063b          	subw	a2,a0,a1
    80008e60:	16c2b423          	sd	a2,360(t0)
    80008e64:	b504f6b7          	lui	a3,0xb504f
    80008e68:	3386869b          	addiw	a3,a3,824 # ffffffffb504f338 <absimm+0xfffffffefa341868>
    80008e6c:	00c68463          	beq	a3,a2,80008e74 <inst_576>
    80008e70:	9b4f706f          	j	80000024 <rvtest_error>

0000000080008e74 <inst_576>:
    80008e74:	00600513          	li	a0,6
    80008e78:	000005b7          	lui	a1,0x0
    80008e7c:	00058593          	mv	a1,a1
    80008e80:	00b59593          	slli	a1,a1,0xb
    80008e84:	5a858593          	addi	a1,a1,1448 # 5a8 <offset+0x108>
    80008e88:	00b59593          	slli	a1,a1,0xb
    80008e8c:	13c58593          	addi	a1,a1,316
    80008e90:	00a59593          	slli	a1,a1,0xa
    80008e94:	33458593          	addi	a1,a1,820
    80008e98:	40b5063b          	subw	a2,a0,a1
    80008e9c:	16c2b823          	sd	a2,368(t0)
    80008ea0:	4afb16b7          	lui	a3,0x4afb1
    80008ea4:	cd26869b          	addiw	a3,a3,-814 # 4afb0cd2 <absimmsh+0x3f4dff25>
    80008ea8:	00c68463          	beq	a3,a2,80008eb0 <inst_577>
    80008eac:	978f706f          	j	80000024 <rvtest_error>

0000000080008eb0 <inst_577>:
    80008eb0:	33333537          	lui	a0,0x33333
    80008eb4:	33350513          	addi	a0,a0,819 # 33333333 <absimmsh+0x27862586>
    80008eb8:	00b51513          	slli	a0,a0,0xb
    80008ebc:	19950513          	addi	a0,a0,409
    80008ec0:	00b51513          	slli	a0,a0,0xb
    80008ec4:	4cc50513          	addi	a0,a0,1228
    80008ec8:	00a51513          	slli	a0,a0,0xa
    80008ecc:	33450513          	addi	a0,a0,820
    80008ed0:	00300593          	li	a1,3
    80008ed4:	40b5063b          	subw	a2,a0,a1
    80008ed8:	16c2bc23          	sd	a2,376(t0)
    80008edc:	333336b7          	lui	a3,0x33333
    80008ee0:	3316869b          	addiw	a3,a3,817 # 33333331 <absimmsh+0x27862584>
    80008ee4:	00c68463          	beq	a3,a2,80008eec <inst_578>
    80008ee8:	93cf706f          	j	80000024 <rvtest_error>

0000000080008eec <inst_578>:
    80008eec:	33333537          	lui	a0,0x33333
    80008ef0:	33350513          	addi	a0,a0,819 # 33333333 <absimmsh+0x27862586>
    80008ef4:	00b51513          	slli	a0,a0,0xb
    80008ef8:	19950513          	addi	a0,a0,409
    80008efc:	00b51513          	slli	a0,a0,0xb
    80008f00:	4cc50513          	addi	a0,a0,1228
    80008f04:	00a51513          	slli	a0,a0,0xa
    80008f08:	33450513          	addi	a0,a0,820
    80008f0c:	555555b7          	lui	a1,0x55555
    80008f10:	55558593          	addi	a1,a1,1365 # 55555555 <absimmsh+0x49a847a8>
    80008f14:	00b59593          	slli	a1,a1,0xb
    80008f18:	2aa58593          	addi	a1,a1,682
    80008f1c:	00b59593          	slli	a1,a1,0xb
    80008f20:	55558593          	addi	a1,a1,1365
    80008f24:	00a59593          	slli	a1,a1,0xa
    80008f28:	15558593          	addi	a1,a1,341
    80008f2c:	40b5063b          	subw	a2,a0,a1
    80008f30:	18c2b023          	sd	a2,384(t0)
    80008f34:	dddde6b7          	lui	a3,0xdddde
    80008f38:	ddf6869b          	addiw	a3,a3,-545 # ffffffffdddddddf <absimm+0xffffffff230d030f>
    80008f3c:	00c68463          	beq	a3,a2,80008f44 <inst_579>
    80008f40:	8e4f706f          	j	80000024 <rvtest_error>

0000000080008f44 <inst_579>:
    80008f44:	33333537          	lui	a0,0x33333
    80008f48:	33350513          	addi	a0,a0,819 # 33333333 <absimmsh+0x27862586>
    80008f4c:	00b51513          	slli	a0,a0,0xb
    80008f50:	19950513          	addi	a0,a0,409
    80008f54:	00b51513          	slli	a0,a0,0xb
    80008f58:	4cc50513          	addi	a0,a0,1228
    80008f5c:	00a51513          	slli	a0,a0,0xa
    80008f60:	33450513          	addi	a0,a0,820
    80008f64:	aaaab5b7          	lui	a1,0xaaaab
    80008f68:	aaa58593          	addi	a1,a1,-1366 # ffffffffaaaaaaaa <absimm+0xfffffffeefd9cfda>
    80008f6c:	00b59593          	slli	a1,a1,0xb
    80008f70:	55558593          	addi	a1,a1,1365
    80008f74:	00b59593          	slli	a1,a1,0xb
    80008f78:	2aa58593          	addi	a1,a1,682
    80008f7c:	00a59593          	slli	a1,a1,0xa
    80008f80:	2aa58593          	addi	a1,a1,682
    80008f84:	40b5063b          	subw	a2,a0,a1
    80008f88:	18c2b423          	sd	a2,392(t0)
    80008f8c:	888896b7          	lui	a3,0x88889
    80008f90:	88a6869b          	addiw	a3,a3,-1910 # ffffffff8888888a <absimm+0xfffffffecdb7adba>
    80008f94:	00c68463          	beq	a3,a2,80008f9c <inst_580>
    80008f98:	88cf706f          	j	80000024 <rvtest_error>

0000000080008f9c <inst_580>:
    80008f9c:	33333537          	lui	a0,0x33333
    80008fa0:	33350513          	addi	a0,a0,819 # 33333333 <absimmsh+0x27862586>
    80008fa4:	00b51513          	slli	a0,a0,0xb
    80008fa8:	19950513          	addi	a0,a0,409
    80008fac:	00b51513          	slli	a0,a0,0xb
    80008fb0:	4cc50513          	addi	a0,a0,1228
    80008fb4:	00a51513          	slli	a0,a0,0xa
    80008fb8:	33450513          	addi	a0,a0,820
    80008fbc:	00500593          	li	a1,5
    80008fc0:	40b5063b          	subw	a2,a0,a1
    80008fc4:	18c2b823          	sd	a2,400(t0)
    80008fc8:	333336b7          	lui	a3,0x33333
    80008fcc:	32f6869b          	addiw	a3,a3,815 # 3333332f <absimmsh+0x27862582>
    80008fd0:	00c68463          	beq	a3,a2,80008fd8 <inst_581>
    80008fd4:	850f706f          	j	80000024 <rvtest_error>

0000000080008fd8 <inst_581>:
    80008fd8:	33333537          	lui	a0,0x33333
    80008fdc:	33350513          	addi	a0,a0,819 # 33333333 <absimmsh+0x27862586>
    80008fe0:	00b51513          	slli	a0,a0,0xb
    80008fe4:	19950513          	addi	a0,a0,409
    80008fe8:	00b51513          	slli	a0,a0,0xb
    80008fec:	4cc50513          	addi	a0,a0,1228
    80008ff0:	00a51513          	slli	a0,a0,0xa
    80008ff4:	33450513          	addi	a0,a0,820
    80008ff8:	333335b7          	lui	a1,0x33333
    80008ffc:	33358593          	addi	a1,a1,819 # 33333333 <absimmsh+0x27862586>
    80009000:	00b59593          	slli	a1,a1,0xb
    80009004:	19958593          	addi	a1,a1,409
    80009008:	00b59593          	slli	a1,a1,0xb
    8000900c:	4cc58593          	addi	a1,a1,1228
    80009010:	00a59593          	slli	a1,a1,0xa
    80009014:	33358593          	addi	a1,a1,819
    80009018:	40b5063b          	subw	a2,a0,a1
    8000901c:	18c2bc23          	sd	a2,408(t0)
    80009020:	00100693          	li	a3,1
    80009024:	00c68463          	beq	a3,a2,8000902c <inst_582>
    80009028:	ffdf606f          	j	80000024 <rvtest_error>

000000008000902c <inst_582>:
    8000902c:	33333537          	lui	a0,0x33333
    80009030:	33350513          	addi	a0,a0,819 # 33333333 <absimmsh+0x27862586>
    80009034:	00b51513          	slli	a0,a0,0xb
    80009038:	19950513          	addi	a0,a0,409
    8000903c:	00b51513          	slli	a0,a0,0xb
    80009040:	4cc50513          	addi	a0,a0,1228
    80009044:	00a51513          	slli	a0,a0,0xa
    80009048:	33450513          	addi	a0,a0,820
    8000904c:	666665b7          	lui	a1,0x66666
    80009050:	66658593          	addi	a1,a1,1638 # 66666666 <absimmsh+0x5ab958b9>
    80009054:	00b59593          	slli	a1,a1,0xb
    80009058:	33358593          	addi	a1,a1,819
    8000905c:	00b59593          	slli	a1,a1,0xb
    80009060:	19958593          	addi	a1,a1,409
    80009064:	00a59593          	slli	a1,a1,0xa
    80009068:	26658593          	addi	a1,a1,614
    8000906c:	40b5063b          	subw	a2,a0,a1
    80009070:	1ac2b023          	sd	a2,416(t0)
    80009074:	ccccd6b7          	lui	a3,0xccccd
    80009078:	cce6869b          	addiw	a3,a3,-818 # ffffffffccccccce <absimm+0xffffffff11fbf1fe>
    8000907c:	00c68463          	beq	a3,a2,80009084 <inst_583>
    80009080:	fa5f606f          	j	80000024 <rvtest_error>

0000000080009084 <inst_583>:
    80009084:	33333537          	lui	a0,0x33333
    80009088:	33350513          	addi	a0,a0,819 # 33333333 <absimmsh+0x27862586>
    8000908c:	00b51513          	slli	a0,a0,0xb
    80009090:	19950513          	addi	a0,a0,409
    80009094:	00b51513          	slli	a0,a0,0xb
    80009098:	4cc50513          	addi	a0,a0,1228
    8000909c:	00a51513          	slli	a0,a0,0xa
    800090a0:	33450513          	addi	a0,a0,820
    800090a4:	000005b7          	lui	a1,0x0
    800090a8:	fff58593          	addi	a1,a1,-1
    800090ac:	00b59593          	slli	a1,a1,0xb
    800090b0:	25758593          	addi	a1,a1,599
    800090b4:	00b59593          	slli	a1,a1,0xb
    800090b8:	6c358593          	addi	a1,a1,1731
    800090bc:	00a59593          	slli	a1,a1,0xa
    800090c0:	0cd58593          	addi	a1,a1,205
    800090c4:	40b5063b          	subw	a2,a0,a1
    800090c8:	1ac2b423          	sd	a2,424(t0)
    800090cc:	e83826b7          	lui	a3,0xe8382
    800090d0:	6676869b          	addiw	a3,a3,1639 # ffffffffe8382667 <absimm+0xffffffff2d674b97>
    800090d4:	00c68463          	beq	a3,a2,800090dc <inst_584>
    800090d8:	f4df606f          	j	80000024 <rvtest_error>

00000000800090dc <inst_584>:
    800090dc:	33333537          	lui	a0,0x33333
    800090e0:	33350513          	addi	a0,a0,819 # 33333333 <absimmsh+0x27862586>
    800090e4:	00b51513          	slli	a0,a0,0xb
    800090e8:	19950513          	addi	a0,a0,409
    800090ec:	00b51513          	slli	a0,a0,0xb
    800090f0:	4cc50513          	addi	a0,a0,1228
    800090f4:	00a51513          	slli	a0,a0,0xa
    800090f8:	33450513          	addi	a0,a0,820
    800090fc:	000005b7          	lui	a1,0x0
    80009100:	00058593          	mv	a1,a1
    80009104:	00b59593          	slli	a1,a1,0xb
    80009108:	5a858593          	addi	a1,a1,1448 # 5a8 <offset+0x108>
    8000910c:	00b59593          	slli	a1,a1,0xb
    80009110:	13c58593          	addi	a1,a1,316
    80009114:	00a59593          	slli	a1,a1,0xa
    80009118:	33358593          	addi	a1,a1,819
    8000911c:	40b5063b          	subw	a2,a0,a1
    80009120:	1ac2b823          	sd	a2,432(t0)
    80009124:	7e2e46b7          	lui	a3,0x7e2e4
    80009128:	0016869b          	addiw	a3,a3,1 # 7e2e4001 <absimmsh+0x72813254>
    8000912c:	00c68463          	beq	a3,a2,80009134 <inst_585>
    80009130:	ef5f606f          	j	80000024 <rvtest_error>

0000000080009134 <inst_585>:
    80009134:	33333537          	lui	a0,0x33333
    80009138:	33350513          	addi	a0,a0,819 # 33333333 <absimmsh+0x27862586>
    8000913c:	00b51513          	slli	a0,a0,0xb
    80009140:	19950513          	addi	a0,a0,409
    80009144:	00b51513          	slli	a0,a0,0xb
    80009148:	4cc50513          	addi	a0,a0,1228
    8000914c:	00a51513          	slli	a0,a0,0xa
    80009150:	33450513          	addi	a0,a0,820
    80009154:	00200593          	li	a1,2
    80009158:	40b5063b          	subw	a2,a0,a1
    8000915c:	1ac2bc23          	sd	a2,440(t0)
    80009160:	333336b7          	lui	a3,0x33333
    80009164:	3326869b          	addiw	a3,a3,818 # 33333332 <absimmsh+0x27862585>
    80009168:	00c68463          	beq	a3,a2,80009170 <inst_586>
    8000916c:	eb9f606f          	j	80000024 <rvtest_error>

0000000080009170 <inst_586>:
    80009170:	33333537          	lui	a0,0x33333
    80009174:	33350513          	addi	a0,a0,819 # 33333333 <absimmsh+0x27862586>
    80009178:	00b51513          	slli	a0,a0,0xb
    8000917c:	19950513          	addi	a0,a0,409
    80009180:	00b51513          	slli	a0,a0,0xb
    80009184:	4cc50513          	addi	a0,a0,1228
    80009188:	00a51513          	slli	a0,a0,0xa
    8000918c:	33450513          	addi	a0,a0,820
    80009190:	555555b7          	lui	a1,0x55555
    80009194:	55558593          	addi	a1,a1,1365 # 55555555 <absimmsh+0x49a847a8>
    80009198:	00b59593          	slli	a1,a1,0xb
    8000919c:	2aa58593          	addi	a1,a1,682
    800091a0:	00b59593          	slli	a1,a1,0xb
    800091a4:	55558593          	addi	a1,a1,1365
    800091a8:	00a59593          	slli	a1,a1,0xa
    800091ac:	15458593          	addi	a1,a1,340
    800091b0:	40b5063b          	subw	a2,a0,a1
    800091b4:	1cc2b023          	sd	a2,448(t0)
    800091b8:	dddde6b7          	lui	a3,0xdddde
    800091bc:	de06869b          	addiw	a3,a3,-544 # ffffffffdddddde0 <absimm+0xffffffff230d0310>
    800091c0:	00c68463          	beq	a3,a2,800091c8 <inst_587>
    800091c4:	e61f606f          	j	80000024 <rvtest_error>

00000000800091c8 <inst_587>:
    800091c8:	33333537          	lui	a0,0x33333
    800091cc:	33350513          	addi	a0,a0,819 # 33333333 <absimmsh+0x27862586>
    800091d0:	00b51513          	slli	a0,a0,0xb
    800091d4:	19950513          	addi	a0,a0,409
    800091d8:	00b51513          	slli	a0,a0,0xb
    800091dc:	4cc50513          	addi	a0,a0,1228
    800091e0:	00a51513          	slli	a0,a0,0xa
    800091e4:	33450513          	addi	a0,a0,820
    800091e8:	00000593          	li	a1,0
    800091ec:	40b5063b          	subw	a2,a0,a1
    800091f0:	1cc2b423          	sd	a2,456(t0)
    800091f4:	333336b7          	lui	a3,0x33333
    800091f8:	3346869b          	addiw	a3,a3,820 # 33333334 <absimmsh+0x27862587>
    800091fc:	00c68463          	beq	a3,a2,80009204 <inst_588>
    80009200:	e25f606f          	j	80000024 <rvtest_error>

0000000080009204 <inst_588>:
    80009204:	33333537          	lui	a0,0x33333
    80009208:	33350513          	addi	a0,a0,819 # 33333333 <absimmsh+0x27862586>
    8000920c:	00b51513          	slli	a0,a0,0xb
    80009210:	19950513          	addi	a0,a0,409
    80009214:	00b51513          	slli	a0,a0,0xb
    80009218:	4cc50513          	addi	a0,a0,1228
    8000921c:	00a51513          	slli	a0,a0,0xa
    80009220:	33450513          	addi	a0,a0,820
    80009224:	00400593          	li	a1,4
    80009228:	40b5063b          	subw	a2,a0,a1
    8000922c:	1cc2b823          	sd	a2,464(t0)
    80009230:	333336b7          	lui	a3,0x33333
    80009234:	3306869b          	addiw	a3,a3,816 # 33333330 <absimmsh+0x27862583>
    80009238:	00c68463          	beq	a3,a2,80009240 <inst_589>
    8000923c:	de9f606f          	j	80000024 <rvtest_error>

0000000080009240 <inst_589>:
    80009240:	33333537          	lui	a0,0x33333
    80009244:	33350513          	addi	a0,a0,819 # 33333333 <absimmsh+0x27862586>
    80009248:	00b51513          	slli	a0,a0,0xb
    8000924c:	19950513          	addi	a0,a0,409
    80009250:	00b51513          	slli	a0,a0,0xb
    80009254:	4cc50513          	addi	a0,a0,1228
    80009258:	00a51513          	slli	a0,a0,0xa
    8000925c:	33450513          	addi	a0,a0,820
    80009260:	333335b7          	lui	a1,0x33333
    80009264:	33358593          	addi	a1,a1,819 # 33333333 <absimmsh+0x27862586>
    80009268:	00b59593          	slli	a1,a1,0xb
    8000926c:	19958593          	addi	a1,a1,409
    80009270:	00b59593          	slli	a1,a1,0xb
    80009274:	4cc58593          	addi	a1,a1,1228
    80009278:	00a59593          	slli	a1,a1,0xa
    8000927c:	33258593          	addi	a1,a1,818
    80009280:	40b5063b          	subw	a2,a0,a1
    80009284:	1cc2bc23          	sd	a2,472(t0)
    80009288:	00200693          	li	a3,2
    8000928c:	00c68463          	beq	a3,a2,80009294 <inst_590>
    80009290:	d95f606f          	j	80000024 <rvtest_error>

0000000080009294 <inst_590>:
    80009294:	33333537          	lui	a0,0x33333
    80009298:	33350513          	addi	a0,a0,819 # 33333333 <absimmsh+0x27862586>
    8000929c:	00b51513          	slli	a0,a0,0xb
    800092a0:	19950513          	addi	a0,a0,409
    800092a4:	00b51513          	slli	a0,a0,0xb
    800092a8:	4cc50513          	addi	a0,a0,1228
    800092ac:	00a51513          	slli	a0,a0,0xa
    800092b0:	33450513          	addi	a0,a0,820
    800092b4:	666665b7          	lui	a1,0x66666
    800092b8:	66658593          	addi	a1,a1,1638 # 66666666 <absimmsh+0x5ab958b9>
    800092bc:	00b59593          	slli	a1,a1,0xb
    800092c0:	33358593          	addi	a1,a1,819
    800092c4:	00b59593          	slli	a1,a1,0xb
    800092c8:	19958593          	addi	a1,a1,409
    800092cc:	00a59593          	slli	a1,a1,0xa
    800092d0:	26558593          	addi	a1,a1,613
    800092d4:	40b5063b          	subw	a2,a0,a1
    800092d8:	1ec2b023          	sd	a2,480(t0)
    800092dc:	ccccd6b7          	lui	a3,0xccccd
    800092e0:	ccf6869b          	addiw	a3,a3,-817 # ffffffffcccccccf <absimm+0xffffffff11fbf1ff>
    800092e4:	00c68463          	beq	a3,a2,800092ec <inst_591>
    800092e8:	d3df606f          	j	80000024 <rvtest_error>

00000000800092ec <inst_591>:
    800092ec:	33333537          	lui	a0,0x33333
    800092f0:	33350513          	addi	a0,a0,819 # 33333333 <absimmsh+0x27862586>
    800092f4:	00b51513          	slli	a0,a0,0xb
    800092f8:	19950513          	addi	a0,a0,409
    800092fc:	00b51513          	slli	a0,a0,0xb
    80009300:	4cc50513          	addi	a0,a0,1228
    80009304:	00a51513          	slli	a0,a0,0xa
    80009308:	33450513          	addi	a0,a0,820
    8000930c:	000005b7          	lui	a1,0x0
    80009310:	00058593          	mv	a1,a1
    80009314:	00b59593          	slli	a1,a1,0xb
    80009318:	5a858593          	addi	a1,a1,1448 # 5a8 <offset+0x108>
    8000931c:	00b59593          	slli	a1,a1,0xb
    80009320:	13c58593          	addi	a1,a1,316
    80009324:	00a59593          	slli	a1,a1,0xa
    80009328:	33258593          	addi	a1,a1,818
    8000932c:	40b5063b          	subw	a2,a0,a1
    80009330:	1ec2b423          	sd	a2,488(t0)
    80009334:	7e2e46b7          	lui	a3,0x7e2e4
    80009338:	0026869b          	addiw	a3,a3,2 # 7e2e4002 <absimmsh+0x72813255>
    8000933c:	00c68463          	beq	a3,a2,80009344 <inst_592>
    80009340:	ce5f606f          	j	80000024 <rvtest_error>

0000000080009344 <inst_592>:
    80009344:	33333537          	lui	a0,0x33333
    80009348:	33350513          	addi	a0,a0,819 # 33333333 <absimmsh+0x27862586>
    8000934c:	00b51513          	slli	a0,a0,0xb
    80009350:	19950513          	addi	a0,a0,409
    80009354:	00b51513          	slli	a0,a0,0xb
    80009358:	4cc50513          	addi	a0,a0,1228
    8000935c:	00a51513          	slli	a0,a0,0xa
    80009360:	33450513          	addi	a0,a0,820
    80009364:	555555b7          	lui	a1,0x55555
    80009368:	55558593          	addi	a1,a1,1365 # 55555555 <absimmsh+0x49a847a8>
    8000936c:	00b59593          	slli	a1,a1,0xb
    80009370:	2aa58593          	addi	a1,a1,682
    80009374:	00b59593          	slli	a1,a1,0xb
    80009378:	55558593          	addi	a1,a1,1365
    8000937c:	00a59593          	slli	a1,a1,0xa
    80009380:	15658593          	addi	a1,a1,342
    80009384:	40b5063b          	subw	a2,a0,a1
    80009388:	1ec2b823          	sd	a2,496(t0)
    8000938c:	dddde6b7          	lui	a3,0xdddde
    80009390:	dde6869b          	addiw	a3,a3,-546 # ffffffffddddddde <absimm+0xffffffff230d030e>
    80009394:	00c68463          	beq	a3,a2,8000939c <inst_593>
    80009398:	c8df606f          	j	80000024 <rvtest_error>

000000008000939c <inst_593>:
    8000939c:	33333537          	lui	a0,0x33333
    800093a0:	33350513          	addi	a0,a0,819 # 33333333 <absimmsh+0x27862586>
    800093a4:	00b51513          	slli	a0,a0,0xb
    800093a8:	19950513          	addi	a0,a0,409
    800093ac:	00b51513          	slli	a0,a0,0xb
    800093b0:	4cc50513          	addi	a0,a0,1228
    800093b4:	00a51513          	slli	a0,a0,0xa
    800093b8:	33450513          	addi	a0,a0,820
    800093bc:	aaaab5b7          	lui	a1,0xaaaab
    800093c0:	aaa58593          	addi	a1,a1,-1366 # ffffffffaaaaaaaa <absimm+0xfffffffeefd9cfda>
    800093c4:	00b59593          	slli	a1,a1,0xb
    800093c8:	55558593          	addi	a1,a1,1365
    800093cc:	00b59593          	slli	a1,a1,0xb
    800093d0:	2aa58593          	addi	a1,a1,682
    800093d4:	00a59593          	slli	a1,a1,0xa
    800093d8:	2ab58593          	addi	a1,a1,683
    800093dc:	40b5063b          	subw	a2,a0,a1
    800093e0:	1ec2bc23          	sd	a2,504(t0)
    800093e4:	888896b7          	lui	a3,0x88889
    800093e8:	8896869b          	addiw	a3,a3,-1911 # ffffffff88888889 <absimm+0xfffffffecdb7adb9>
    800093ec:	00c68463          	beq	a3,a2,800093f4 <inst_594>
    800093f0:	c35f606f          	j	80000024 <rvtest_error>

00000000800093f4 <inst_594>:
    800093f4:	33333537          	lui	a0,0x33333
    800093f8:	33350513          	addi	a0,a0,819 # 33333333 <absimmsh+0x27862586>
    800093fc:	00b51513          	slli	a0,a0,0xb
    80009400:	19950513          	addi	a0,a0,409
    80009404:	00b51513          	slli	a0,a0,0xb
    80009408:	4cc50513          	addi	a0,a0,1228
    8000940c:	00a51513          	slli	a0,a0,0xa
    80009410:	33450513          	addi	a0,a0,820
    80009414:	00600593          	li	a1,6
    80009418:	40b5063b          	subw	a2,a0,a1
    8000941c:	20c2b023          	sd	a2,512(t0)
    80009420:	333336b7          	lui	a3,0x33333
    80009424:	32e6869b          	addiw	a3,a3,814 # 3333332e <absimmsh+0x27862581>
    80009428:	00c68463          	beq	a3,a2,80009430 <inst_595>
    8000942c:	bf9f606f          	j	80000024 <rvtest_error>

0000000080009430 <inst_595>:
    80009430:	33333537          	lui	a0,0x33333
    80009434:	33350513          	addi	a0,a0,819 # 33333333 <absimmsh+0x27862586>
    80009438:	00b51513          	slli	a0,a0,0xb
    8000943c:	19950513          	addi	a0,a0,409
    80009440:	00b51513          	slli	a0,a0,0xb
    80009444:	4cc50513          	addi	a0,a0,1228
    80009448:	00a51513          	slli	a0,a0,0xa
    8000944c:	33450513          	addi	a0,a0,820
    80009450:	333335b7          	lui	a1,0x33333
    80009454:	33358593          	addi	a1,a1,819 # 33333333 <absimmsh+0x27862586>
    80009458:	00b59593          	slli	a1,a1,0xb
    8000945c:	19958593          	addi	a1,a1,409
    80009460:	00b59593          	slli	a1,a1,0xb
    80009464:	4cc58593          	addi	a1,a1,1228
    80009468:	00a59593          	slli	a1,a1,0xa
    8000946c:	33458593          	addi	a1,a1,820
    80009470:	40b5063b          	subw	a2,a0,a1
    80009474:	20c2b423          	sd	a2,520(t0)
    80009478:	00000693          	li	a3,0
    8000947c:	00c68463          	beq	a3,a2,80009484 <inst_596>
    80009480:	ba5f606f          	j	80000024 <rvtest_error>

0000000080009484 <inst_596>:
    80009484:	33333537          	lui	a0,0x33333
    80009488:	33350513          	addi	a0,a0,819 # 33333333 <absimmsh+0x27862586>
    8000948c:	00b51513          	slli	a0,a0,0xb
    80009490:	19950513          	addi	a0,a0,409
    80009494:	00b51513          	slli	a0,a0,0xb
    80009498:	4cc50513          	addi	a0,a0,1228
    8000949c:	00a51513          	slli	a0,a0,0xa
    800094a0:	33450513          	addi	a0,a0,820
    800094a4:	666665b7          	lui	a1,0x66666
    800094a8:	66658593          	addi	a1,a1,1638 # 66666666 <absimmsh+0x5ab958b9>
    800094ac:	00b59593          	slli	a1,a1,0xb
    800094b0:	33358593          	addi	a1,a1,819
    800094b4:	00b59593          	slli	a1,a1,0xb
    800094b8:	19958593          	addi	a1,a1,409
    800094bc:	00a59593          	slli	a1,a1,0xa
    800094c0:	26758593          	addi	a1,a1,615
    800094c4:	40b5063b          	subw	a2,a0,a1
    800094c8:	20c2b823          	sd	a2,528(t0)
    800094cc:	ccccd6b7          	lui	a3,0xccccd
    800094d0:	ccd6869b          	addiw	a3,a3,-819 # ffffffffcccccccd <absimm+0xffffffff11fbf1fd>
    800094d4:	00c68463          	beq	a3,a2,800094dc <inst_597>
    800094d8:	b4df606f          	j	80000024 <rvtest_error>

00000000800094dc <inst_597>:
    800094dc:	33333537          	lui	a0,0x33333
    800094e0:	33350513          	addi	a0,a0,819 # 33333333 <absimmsh+0x27862586>
    800094e4:	00b51513          	slli	a0,a0,0xb
    800094e8:	19950513          	addi	a0,a0,409
    800094ec:	00b51513          	slli	a0,a0,0xb
    800094f0:	4cc50513          	addi	a0,a0,1228
    800094f4:	00a51513          	slli	a0,a0,0xa
    800094f8:	33450513          	addi	a0,a0,820
    800094fc:	000005b7          	lui	a1,0x0
    80009500:	fff58593          	addi	a1,a1,-1
    80009504:	00b59593          	slli	a1,a1,0xb
    80009508:	25758593          	addi	a1,a1,599
    8000950c:	00b59593          	slli	a1,a1,0xb
    80009510:	6c358593          	addi	a1,a1,1731
    80009514:	00a59593          	slli	a1,a1,0xa
    80009518:	0ce58593          	addi	a1,a1,206
    8000951c:	40b5063b          	subw	a2,a0,a1
    80009520:	20c2bc23          	sd	a2,536(t0)
    80009524:	e83826b7          	lui	a3,0xe8382
    80009528:	6666869b          	addiw	a3,a3,1638 # ffffffffe8382666 <absimm+0xffffffff2d674b96>
    8000952c:	00c68463          	beq	a3,a2,80009534 <inst_598>
    80009530:	af5f606f          	j	80000024 <rvtest_error>

0000000080009534 <inst_598>:
    80009534:	33333537          	lui	a0,0x33333
    80009538:	33350513          	addi	a0,a0,819 # 33333333 <absimmsh+0x27862586>
    8000953c:	00b51513          	slli	a0,a0,0xb
    80009540:	19950513          	addi	a0,a0,409
    80009544:	00b51513          	slli	a0,a0,0xb
    80009548:	4cc50513          	addi	a0,a0,1228
    8000954c:	00a51513          	slli	a0,a0,0xa
    80009550:	33450513          	addi	a0,a0,820
    80009554:	000005b7          	lui	a1,0x0
    80009558:	00058593          	mv	a1,a1
    8000955c:	00b59593          	slli	a1,a1,0xb
    80009560:	5a858593          	addi	a1,a1,1448 # 5a8 <offset+0x108>
    80009564:	00b59593          	slli	a1,a1,0xb
    80009568:	13c58593          	addi	a1,a1,316
    8000956c:	00a59593          	slli	a1,a1,0xa
    80009570:	33458593          	addi	a1,a1,820
    80009574:	40b5063b          	subw	a2,a0,a1
    80009578:	22c2b023          	sd	a2,544(t0)
    8000957c:	7e2e46b7          	lui	a3,0x7e2e4
    80009580:	00c68463          	beq	a3,a2,80009588 <inst_599>
    80009584:	aa1f606f          	j	80000024 <rvtest_error>

0000000080009588 <inst_599>:
    80009588:	66666537          	lui	a0,0x66666
    8000958c:	66650513          	addi	a0,a0,1638 # 66666666 <absimmsh+0x5ab958b9>
    80009590:	00b51513          	slli	a0,a0,0xb
    80009594:	33350513          	addi	a0,a0,819
    80009598:	00b51513          	slli	a0,a0,0xb
    8000959c:	19950513          	addi	a0,a0,409
    800095a0:	00a51513          	slli	a0,a0,0xa
    800095a4:	26750513          	addi	a0,a0,615
    800095a8:	00300593          	li	a1,3
    800095ac:	40b5063b          	subw	a2,a0,a1
    800095b0:	22c2b423          	sd	a2,552(t0)
    800095b4:	666666b7          	lui	a3,0x66666
    800095b8:	6646869b          	addiw	a3,a3,1636 # 66666664 <absimmsh+0x5ab958b7>
    800095bc:	00c68463          	beq	a3,a2,800095c4 <inst_600>
    800095c0:	a65f606f          	j	80000024 <rvtest_error>

00000000800095c4 <inst_600>:
    800095c4:	66666537          	lui	a0,0x66666
    800095c8:	66650513          	addi	a0,a0,1638 # 66666666 <absimmsh+0x5ab958b9>
    800095cc:	00b51513          	slli	a0,a0,0xb
    800095d0:	33350513          	addi	a0,a0,819
    800095d4:	00b51513          	slli	a0,a0,0xb
    800095d8:	19950513          	addi	a0,a0,409
    800095dc:	00a51513          	slli	a0,a0,0xa
    800095e0:	26750513          	addi	a0,a0,615
    800095e4:	555555b7          	lui	a1,0x55555
    800095e8:	55558593          	addi	a1,a1,1365 # 55555555 <absimmsh+0x49a847a8>
    800095ec:	00b59593          	slli	a1,a1,0xb
    800095f0:	2aa58593          	addi	a1,a1,682
    800095f4:	00b59593          	slli	a1,a1,0xb
    800095f8:	55558593          	addi	a1,a1,1365
    800095fc:	00a59593          	slli	a1,a1,0xa
    80009600:	15558593          	addi	a1,a1,341
    80009604:	40b5063b          	subw	a2,a0,a1
    80009608:	22c2b823          	sd	a2,560(t0)
    8000960c:	111116b7          	lui	a3,0x11111
    80009610:	1126869b          	addiw	a3,a3,274 # 11111112 <absimmsh+0x5640365>
    80009614:	00c68463          	beq	a3,a2,8000961c <inst_601>
    80009618:	a0df606f          	j	80000024 <rvtest_error>

000000008000961c <inst_601>:
    8000961c:	66666537          	lui	a0,0x66666
    80009620:	66650513          	addi	a0,a0,1638 # 66666666 <absimmsh+0x5ab958b9>
    80009624:	00b51513          	slli	a0,a0,0xb
    80009628:	33350513          	addi	a0,a0,819
    8000962c:	00b51513          	slli	a0,a0,0xb
    80009630:	19950513          	addi	a0,a0,409
    80009634:	00a51513          	slli	a0,a0,0xa
    80009638:	26750513          	addi	a0,a0,615
    8000963c:	aaaab5b7          	lui	a1,0xaaaab
    80009640:	aaa58593          	addi	a1,a1,-1366 # ffffffffaaaaaaaa <absimm+0xfffffffeefd9cfda>
    80009644:	00b59593          	slli	a1,a1,0xb
    80009648:	55558593          	addi	a1,a1,1365
    8000964c:	00b59593          	slli	a1,a1,0xb
    80009650:	2aa58593          	addi	a1,a1,682
    80009654:	00a59593          	slli	a1,a1,0xa
    80009658:	2aa58593          	addi	a1,a1,682
    8000965c:	40b5063b          	subw	a2,a0,a1
    80009660:	22c2bc23          	sd	a2,568(t0)
    80009664:	bbbbc6b7          	lui	a3,0xbbbbc
    80009668:	bbd6869b          	addiw	a3,a3,-1091 # ffffffffbbbbbbbd <absimm+0xffffffff00eae0ed>
    8000966c:	00c68463          	beq	a3,a2,80009674 <inst_602>
    80009670:	9b5f606f          	j	80000024 <rvtest_error>

0000000080009674 <inst_602>:
    80009674:	66666537          	lui	a0,0x66666
    80009678:	66650513          	addi	a0,a0,1638 # 66666666 <absimmsh+0x5ab958b9>
    8000967c:	00b51513          	slli	a0,a0,0xb
    80009680:	33350513          	addi	a0,a0,819
    80009684:	00b51513          	slli	a0,a0,0xb
    80009688:	19950513          	addi	a0,a0,409
    8000968c:	00a51513          	slli	a0,a0,0xa
    80009690:	26750513          	addi	a0,a0,615
    80009694:	00500593          	li	a1,5
    80009698:	40b5063b          	subw	a2,a0,a1
    8000969c:	24c2b023          	sd	a2,576(t0)
    800096a0:	666666b7          	lui	a3,0x66666
    800096a4:	6626869b          	addiw	a3,a3,1634 # 66666662 <absimmsh+0x5ab958b5>
    800096a8:	00c68463          	beq	a3,a2,800096b0 <inst_603>
    800096ac:	979f606f          	j	80000024 <rvtest_error>

00000000800096b0 <inst_603>:
    800096b0:	66666537          	lui	a0,0x66666
    800096b4:	66650513          	addi	a0,a0,1638 # 66666666 <absimmsh+0x5ab958b9>
    800096b8:	00b51513          	slli	a0,a0,0xb
    800096bc:	33350513          	addi	a0,a0,819
    800096c0:	00b51513          	slli	a0,a0,0xb
    800096c4:	19950513          	addi	a0,a0,409
    800096c8:	00a51513          	slli	a0,a0,0xa
    800096cc:	26750513          	addi	a0,a0,615
    800096d0:	333335b7          	lui	a1,0x33333
    800096d4:	33358593          	addi	a1,a1,819 # 33333333 <absimmsh+0x27862586>
    800096d8:	00b59593          	slli	a1,a1,0xb
    800096dc:	19958593          	addi	a1,a1,409
    800096e0:	00b59593          	slli	a1,a1,0xb
    800096e4:	4cc58593          	addi	a1,a1,1228
    800096e8:	00a59593          	slli	a1,a1,0xa
    800096ec:	33358593          	addi	a1,a1,819
    800096f0:	40b5063b          	subw	a2,a0,a1
    800096f4:	24c2b423          	sd	a2,584(t0)
    800096f8:	333336b7          	lui	a3,0x33333
    800096fc:	3346869b          	addiw	a3,a3,820 # 33333334 <absimmsh+0x27862587>
    80009700:	00c68463          	beq	a3,a2,80009708 <inst_604>
    80009704:	921f606f          	j	80000024 <rvtest_error>

0000000080009708 <inst_604>:
    80009708:	66666537          	lui	a0,0x66666
    8000970c:	66650513          	addi	a0,a0,1638 # 66666666 <absimmsh+0x5ab958b9>
    80009710:	00b51513          	slli	a0,a0,0xb
    80009714:	33350513          	addi	a0,a0,819
    80009718:	00b51513          	slli	a0,a0,0xb
    8000971c:	19950513          	addi	a0,a0,409
    80009720:	00a51513          	slli	a0,a0,0xa
    80009724:	26750513          	addi	a0,a0,615
    80009728:	666665b7          	lui	a1,0x66666
    8000972c:	66658593          	addi	a1,a1,1638 # 66666666 <absimmsh+0x5ab958b9>
    80009730:	00b59593          	slli	a1,a1,0xb
    80009734:	33358593          	addi	a1,a1,819
    80009738:	00b59593          	slli	a1,a1,0xb
    8000973c:	19958593          	addi	a1,a1,409
    80009740:	00a59593          	slli	a1,a1,0xa
    80009744:	26658593          	addi	a1,a1,614
    80009748:	40b5063b          	subw	a2,a0,a1
    8000974c:	24c2b823          	sd	a2,592(t0)
    80009750:	00100693          	li	a3,1
    80009754:	00c68463          	beq	a3,a2,8000975c <inst_605>
    80009758:	8cdf606f          	j	80000024 <rvtest_error>

000000008000975c <inst_605>:
    8000975c:	66666537          	lui	a0,0x66666
    80009760:	66650513          	addi	a0,a0,1638 # 66666666 <absimmsh+0x5ab958b9>
    80009764:	00b51513          	slli	a0,a0,0xb
    80009768:	33350513          	addi	a0,a0,819
    8000976c:	00b51513          	slli	a0,a0,0xb
    80009770:	19950513          	addi	a0,a0,409
    80009774:	00a51513          	slli	a0,a0,0xa
    80009778:	26750513          	addi	a0,a0,615
    8000977c:	000005b7          	lui	a1,0x0
    80009780:	fff58593          	addi	a1,a1,-1
    80009784:	00b59593          	slli	a1,a1,0xb
    80009788:	25758593          	addi	a1,a1,599
    8000978c:	00b59593          	slli	a1,a1,0xb
    80009790:	6c358593          	addi	a1,a1,1731
    80009794:	00a59593          	slli	a1,a1,0xa
    80009798:	0cd58593          	addi	a1,a1,205
    8000979c:	40b5063b          	subw	a2,a0,a1
    800097a0:	24c2bc23          	sd	a2,600(t0)
    800097a4:	1b6b66b7          	lui	a3,0x1b6b6
    800097a8:	99a6869b          	addiw	a3,a3,-1638 # 1b6b599a <absimmsh+0xfbe4bed>
    800097ac:	00c68463          	beq	a3,a2,800097b4 <inst_606>
    800097b0:	875f606f          	j	80000024 <rvtest_error>

00000000800097b4 <inst_606>:
    800097b4:	66666537          	lui	a0,0x66666
    800097b8:	66650513          	addi	a0,a0,1638 # 66666666 <absimmsh+0x5ab958b9>
    800097bc:	00b51513          	slli	a0,a0,0xb
    800097c0:	33350513          	addi	a0,a0,819
    800097c4:	00b51513          	slli	a0,a0,0xb
    800097c8:	19950513          	addi	a0,a0,409
    800097cc:	00a51513          	slli	a0,a0,0xa
    800097d0:	26750513          	addi	a0,a0,615
    800097d4:	000005b7          	lui	a1,0x0
    800097d8:	00058593          	mv	a1,a1
    800097dc:	00b59593          	slli	a1,a1,0xb
    800097e0:	5a858593          	addi	a1,a1,1448 # 5a8 <offset+0x108>
    800097e4:	00b59593          	slli	a1,a1,0xb
    800097e8:	13c58593          	addi	a1,a1,316
    800097ec:	00a59593          	slli	a1,a1,0xa
    800097f0:	33358593          	addi	a1,a1,819
    800097f4:	40b5063b          	subw	a2,a0,a1
    800097f8:	26c2b023          	sd	a2,608(t0)
    800097fc:	b16176b7          	lui	a3,0xb1617
    80009800:	3346869b          	addiw	a3,a3,820 # ffffffffb1617334 <absimm+0xfffffffef6909864>
    80009804:	00c68463          	beq	a3,a2,8000980c <inst_607>
    80009808:	81df606f          	j	80000024 <rvtest_error>

000000008000980c <inst_607>:
    8000980c:	66666537          	lui	a0,0x66666
    80009810:	66650513          	addi	a0,a0,1638 # 66666666 <absimmsh+0x5ab958b9>
    80009814:	00b51513          	slli	a0,a0,0xb
    80009818:	33350513          	addi	a0,a0,819
    8000981c:	00b51513          	slli	a0,a0,0xb
    80009820:	19950513          	addi	a0,a0,409
    80009824:	00a51513          	slli	a0,a0,0xa
    80009828:	26750513          	addi	a0,a0,615
    8000982c:	00200593          	li	a1,2
    80009830:	40b5063b          	subw	a2,a0,a1
    80009834:	26c2b423          	sd	a2,616(t0)
    80009838:	666666b7          	lui	a3,0x66666
    8000983c:	6656869b          	addiw	a3,a3,1637 # 66666665 <absimmsh+0x5ab958b8>
    80009840:	00c68463          	beq	a3,a2,80009848 <inst_608>
    80009844:	fe0f606f          	j	80000024 <rvtest_error>

0000000080009848 <inst_608>:
    80009848:	66666537          	lui	a0,0x66666
    8000984c:	66650513          	addi	a0,a0,1638 # 66666666 <absimmsh+0x5ab958b9>
    80009850:	00b51513          	slli	a0,a0,0xb
    80009854:	33350513          	addi	a0,a0,819
    80009858:	00b51513          	slli	a0,a0,0xb
    8000985c:	19950513          	addi	a0,a0,409
    80009860:	00a51513          	slli	a0,a0,0xa
    80009864:	26750513          	addi	a0,a0,615
    80009868:	555555b7          	lui	a1,0x55555
    8000986c:	55558593          	addi	a1,a1,1365 # 55555555 <absimmsh+0x49a847a8>
    80009870:	00b59593          	slli	a1,a1,0xb
    80009874:	2aa58593          	addi	a1,a1,682
    80009878:	00b59593          	slli	a1,a1,0xb
    8000987c:	55558593          	addi	a1,a1,1365
    80009880:	00a59593          	slli	a1,a1,0xa
    80009884:	15458593          	addi	a1,a1,340
    80009888:	40b5063b          	subw	a2,a0,a1
    8000988c:	26c2b823          	sd	a2,624(t0)
    80009890:	111116b7          	lui	a3,0x11111
    80009894:	1136869b          	addiw	a3,a3,275 # 11111113 <absimmsh+0x5640366>
    80009898:	00c68463          	beq	a3,a2,800098a0 <inst_609>
    8000989c:	f88f606f          	j	80000024 <rvtest_error>

00000000800098a0 <inst_609>:
    800098a0:	66666537          	lui	a0,0x66666
    800098a4:	66650513          	addi	a0,a0,1638 # 66666666 <absimmsh+0x5ab958b9>
    800098a8:	00b51513          	slli	a0,a0,0xb
    800098ac:	33350513          	addi	a0,a0,819
    800098b0:	00b51513          	slli	a0,a0,0xb
    800098b4:	19950513          	addi	a0,a0,409
    800098b8:	00a51513          	slli	a0,a0,0xa
    800098bc:	26750513          	addi	a0,a0,615
    800098c0:	00000593          	li	a1,0
    800098c4:	40b5063b          	subw	a2,a0,a1
    800098c8:	26c2bc23          	sd	a2,632(t0)
    800098cc:	666666b7          	lui	a3,0x66666
    800098d0:	6676869b          	addiw	a3,a3,1639 # 66666667 <absimmsh+0x5ab958ba>
    800098d4:	00c68463          	beq	a3,a2,800098dc <inst_610>
    800098d8:	f4cf606f          	j	80000024 <rvtest_error>

00000000800098dc <inst_610>:
    800098dc:	66666537          	lui	a0,0x66666
    800098e0:	66650513          	addi	a0,a0,1638 # 66666666 <absimmsh+0x5ab958b9>
    800098e4:	00b51513          	slli	a0,a0,0xb
    800098e8:	33350513          	addi	a0,a0,819
    800098ec:	00b51513          	slli	a0,a0,0xb
    800098f0:	19950513          	addi	a0,a0,409
    800098f4:	00a51513          	slli	a0,a0,0xa
    800098f8:	26750513          	addi	a0,a0,615
    800098fc:	00400593          	li	a1,4
    80009900:	40b5063b          	subw	a2,a0,a1
    80009904:	28c2b023          	sd	a2,640(t0)
    80009908:	666666b7          	lui	a3,0x66666
    8000990c:	6636869b          	addiw	a3,a3,1635 # 66666663 <absimmsh+0x5ab958b6>
    80009910:	00c68463          	beq	a3,a2,80009918 <inst_611>
    80009914:	f10f606f          	j	80000024 <rvtest_error>

0000000080009918 <inst_611>:
    80009918:	66666537          	lui	a0,0x66666
    8000991c:	66650513          	addi	a0,a0,1638 # 66666666 <absimmsh+0x5ab958b9>
    80009920:	00b51513          	slli	a0,a0,0xb
    80009924:	33350513          	addi	a0,a0,819
    80009928:	00b51513          	slli	a0,a0,0xb
    8000992c:	19950513          	addi	a0,a0,409
    80009930:	00a51513          	slli	a0,a0,0xa
    80009934:	26750513          	addi	a0,a0,615
    80009938:	333335b7          	lui	a1,0x33333
    8000993c:	33358593          	addi	a1,a1,819 # 33333333 <absimmsh+0x27862586>
    80009940:	00b59593          	slli	a1,a1,0xb
    80009944:	19958593          	addi	a1,a1,409
    80009948:	00b59593          	slli	a1,a1,0xb
    8000994c:	4cc58593          	addi	a1,a1,1228
    80009950:	00a59593          	slli	a1,a1,0xa
    80009954:	33258593          	addi	a1,a1,818
    80009958:	40b5063b          	subw	a2,a0,a1
    8000995c:	28c2b423          	sd	a2,648(t0)
    80009960:	333336b7          	lui	a3,0x33333
    80009964:	3356869b          	addiw	a3,a3,821 # 33333335 <absimmsh+0x27862588>
    80009968:	00c68463          	beq	a3,a2,80009970 <inst_612>
    8000996c:	eb8f606f          	j	80000024 <rvtest_error>

0000000080009970 <inst_612>:
    80009970:	66666537          	lui	a0,0x66666
    80009974:	66650513          	addi	a0,a0,1638 # 66666666 <absimmsh+0x5ab958b9>
    80009978:	00b51513          	slli	a0,a0,0xb
    8000997c:	33350513          	addi	a0,a0,819
    80009980:	00b51513          	slli	a0,a0,0xb
    80009984:	19950513          	addi	a0,a0,409
    80009988:	00a51513          	slli	a0,a0,0xa
    8000998c:	26750513          	addi	a0,a0,615
    80009990:	666665b7          	lui	a1,0x66666
    80009994:	66658593          	addi	a1,a1,1638 # 66666666 <absimmsh+0x5ab958b9>
    80009998:	00b59593          	slli	a1,a1,0xb
    8000999c:	33358593          	addi	a1,a1,819
    800099a0:	00b59593          	slli	a1,a1,0xb
    800099a4:	19958593          	addi	a1,a1,409
    800099a8:	00a59593          	slli	a1,a1,0xa
    800099ac:	26558593          	addi	a1,a1,613
    800099b0:	40b5063b          	subw	a2,a0,a1
    800099b4:	28c2b823          	sd	a2,656(t0)
    800099b8:	00200693          	li	a3,2
    800099bc:	00c68463          	beq	a3,a2,800099c4 <inst_613>
    800099c0:	e64f606f          	j	80000024 <rvtest_error>

00000000800099c4 <inst_613>:
    800099c4:	66666537          	lui	a0,0x66666
    800099c8:	66650513          	addi	a0,a0,1638 # 66666666 <absimmsh+0x5ab958b9>
    800099cc:	00b51513          	slli	a0,a0,0xb
    800099d0:	33350513          	addi	a0,a0,819
    800099d4:	00b51513          	slli	a0,a0,0xb
    800099d8:	19950513          	addi	a0,a0,409
    800099dc:	00a51513          	slli	a0,a0,0xa
    800099e0:	26750513          	addi	a0,a0,615
    800099e4:	000005b7          	lui	a1,0x0
    800099e8:	00058593          	mv	a1,a1
    800099ec:	00b59593          	slli	a1,a1,0xb
    800099f0:	5a858593          	addi	a1,a1,1448 # 5a8 <offset+0x108>
    800099f4:	00b59593          	slli	a1,a1,0xb
    800099f8:	13c58593          	addi	a1,a1,316
    800099fc:	00a59593          	slli	a1,a1,0xa
    80009a00:	33258593          	addi	a1,a1,818
    80009a04:	40b5063b          	subw	a2,a0,a1
    80009a08:	28c2bc23          	sd	a2,664(t0)
    80009a0c:	b16176b7          	lui	a3,0xb1617
    80009a10:	3356869b          	addiw	a3,a3,821 # ffffffffb1617335 <absimm+0xfffffffef6909865>
    80009a14:	00c68463          	beq	a3,a2,80009a1c <inst_614>
    80009a18:	e0cf606f          	j	80000024 <rvtest_error>

0000000080009a1c <inst_614>:
    80009a1c:	66666537          	lui	a0,0x66666
    80009a20:	66650513          	addi	a0,a0,1638 # 66666666 <absimmsh+0x5ab958b9>
    80009a24:	00b51513          	slli	a0,a0,0xb
    80009a28:	33350513          	addi	a0,a0,819
    80009a2c:	00b51513          	slli	a0,a0,0xb
    80009a30:	19950513          	addi	a0,a0,409
    80009a34:	00a51513          	slli	a0,a0,0xa
    80009a38:	26750513          	addi	a0,a0,615
    80009a3c:	555555b7          	lui	a1,0x55555
    80009a40:	55558593          	addi	a1,a1,1365 # 55555555 <absimmsh+0x49a847a8>
    80009a44:	00b59593          	slli	a1,a1,0xb
    80009a48:	2aa58593          	addi	a1,a1,682
    80009a4c:	00b59593          	slli	a1,a1,0xb
    80009a50:	55558593          	addi	a1,a1,1365
    80009a54:	00a59593          	slli	a1,a1,0xa
    80009a58:	15658593          	addi	a1,a1,342
    80009a5c:	40b5063b          	subw	a2,a0,a1
    80009a60:	2ac2b023          	sd	a2,672(t0)
    80009a64:	111116b7          	lui	a3,0x11111
    80009a68:	1116869b          	addiw	a3,a3,273 # 11111111 <absimmsh+0x5640364>
    80009a6c:	00c68463          	beq	a3,a2,80009a74 <inst_615>
    80009a70:	db4f606f          	j	80000024 <rvtest_error>

0000000080009a74 <inst_615>:
    80009a74:	66666537          	lui	a0,0x66666
    80009a78:	66650513          	addi	a0,a0,1638 # 66666666 <absimmsh+0x5ab958b9>
    80009a7c:	00b51513          	slli	a0,a0,0xb
    80009a80:	33350513          	addi	a0,a0,819
    80009a84:	00b51513          	slli	a0,a0,0xb
    80009a88:	19950513          	addi	a0,a0,409
    80009a8c:	00a51513          	slli	a0,a0,0xa
    80009a90:	26750513          	addi	a0,a0,615
    80009a94:	aaaab5b7          	lui	a1,0xaaaab
    80009a98:	aaa58593          	addi	a1,a1,-1366 # ffffffffaaaaaaaa <absimm+0xfffffffeefd9cfda>
    80009a9c:	00b59593          	slli	a1,a1,0xb
    80009aa0:	55558593          	addi	a1,a1,1365
    80009aa4:	00b59593          	slli	a1,a1,0xb
    80009aa8:	2aa58593          	addi	a1,a1,682
    80009aac:	00a59593          	slli	a1,a1,0xa
    80009ab0:	2ab58593          	addi	a1,a1,683
    80009ab4:	40b5063b          	subw	a2,a0,a1
    80009ab8:	2ac2b423          	sd	a2,680(t0)
    80009abc:	bbbbc6b7          	lui	a3,0xbbbbc
    80009ac0:	bbc6869b          	addiw	a3,a3,-1092 # ffffffffbbbbbbbc <absimm+0xffffffff00eae0ec>
    80009ac4:	00c68463          	beq	a3,a2,80009acc <inst_616>
    80009ac8:	d5cf606f          	j	80000024 <rvtest_error>

0000000080009acc <inst_616>:
    80009acc:	66666537          	lui	a0,0x66666
    80009ad0:	66650513          	addi	a0,a0,1638 # 66666666 <absimmsh+0x5ab958b9>
    80009ad4:	00b51513          	slli	a0,a0,0xb
    80009ad8:	33350513          	addi	a0,a0,819
    80009adc:	00b51513          	slli	a0,a0,0xb
    80009ae0:	19950513          	addi	a0,a0,409
    80009ae4:	00a51513          	slli	a0,a0,0xa
    80009ae8:	26750513          	addi	a0,a0,615
    80009aec:	00600593          	li	a1,6
    80009af0:	40b5063b          	subw	a2,a0,a1
    80009af4:	2ac2b823          	sd	a2,688(t0)
    80009af8:	666666b7          	lui	a3,0x66666
    80009afc:	6616869b          	addiw	a3,a3,1633 # 66666661 <absimmsh+0x5ab958b4>
    80009b00:	00c68463          	beq	a3,a2,80009b08 <inst_617>
    80009b04:	d20f606f          	j	80000024 <rvtest_error>

0000000080009b08 <inst_617>:
    80009b08:	66666537          	lui	a0,0x66666
    80009b0c:	66650513          	addi	a0,a0,1638 # 66666666 <absimmsh+0x5ab958b9>
    80009b10:	00b51513          	slli	a0,a0,0xb
    80009b14:	33350513          	addi	a0,a0,819
    80009b18:	00b51513          	slli	a0,a0,0xb
    80009b1c:	19950513          	addi	a0,a0,409
    80009b20:	00a51513          	slli	a0,a0,0xa
    80009b24:	26750513          	addi	a0,a0,615
    80009b28:	333335b7          	lui	a1,0x33333
    80009b2c:	33358593          	addi	a1,a1,819 # 33333333 <absimmsh+0x27862586>
    80009b30:	00b59593          	slli	a1,a1,0xb
    80009b34:	19958593          	addi	a1,a1,409
    80009b38:	00b59593          	slli	a1,a1,0xb
    80009b3c:	4cc58593          	addi	a1,a1,1228
    80009b40:	00a59593          	slli	a1,a1,0xa
    80009b44:	33458593          	addi	a1,a1,820
    80009b48:	40b5063b          	subw	a2,a0,a1
    80009b4c:	2ac2bc23          	sd	a2,696(t0)
    80009b50:	333336b7          	lui	a3,0x33333
    80009b54:	3336869b          	addiw	a3,a3,819 # 33333333 <absimmsh+0x27862586>
    80009b58:	00c68463          	beq	a3,a2,80009b60 <inst_618>
    80009b5c:	cc8f606f          	j	80000024 <rvtest_error>

0000000080009b60 <inst_618>:
    80009b60:	66666537          	lui	a0,0x66666
    80009b64:	66650513          	addi	a0,a0,1638 # 66666666 <absimmsh+0x5ab958b9>
    80009b68:	00b51513          	slli	a0,a0,0xb
    80009b6c:	33350513          	addi	a0,a0,819
    80009b70:	00b51513          	slli	a0,a0,0xb
    80009b74:	19950513          	addi	a0,a0,409
    80009b78:	00a51513          	slli	a0,a0,0xa
    80009b7c:	26750513          	addi	a0,a0,615
    80009b80:	666665b7          	lui	a1,0x66666
    80009b84:	66658593          	addi	a1,a1,1638 # 66666666 <absimmsh+0x5ab958b9>
    80009b88:	00b59593          	slli	a1,a1,0xb
    80009b8c:	33358593          	addi	a1,a1,819
    80009b90:	00b59593          	slli	a1,a1,0xb
    80009b94:	19958593          	addi	a1,a1,409
    80009b98:	00a59593          	slli	a1,a1,0xa
    80009b9c:	26758593          	addi	a1,a1,615
    80009ba0:	40b5063b          	subw	a2,a0,a1
    80009ba4:	2cc2b023          	sd	a2,704(t0)
    80009ba8:	00000693          	li	a3,0
    80009bac:	00c68463          	beq	a3,a2,80009bb4 <inst_619>
    80009bb0:	c74f606f          	j	80000024 <rvtest_error>

0000000080009bb4 <inst_619>:
    80009bb4:	66666537          	lui	a0,0x66666
    80009bb8:	66650513          	addi	a0,a0,1638 # 66666666 <absimmsh+0x5ab958b9>
    80009bbc:	00b51513          	slli	a0,a0,0xb
    80009bc0:	33350513          	addi	a0,a0,819
    80009bc4:	00b51513          	slli	a0,a0,0xb
    80009bc8:	19950513          	addi	a0,a0,409
    80009bcc:	00a51513          	slli	a0,a0,0xa
    80009bd0:	26750513          	addi	a0,a0,615
    80009bd4:	000005b7          	lui	a1,0x0
    80009bd8:	fff58593          	addi	a1,a1,-1
    80009bdc:	00b59593          	slli	a1,a1,0xb
    80009be0:	25758593          	addi	a1,a1,599
    80009be4:	00b59593          	slli	a1,a1,0xb
    80009be8:	6c358593          	addi	a1,a1,1731
    80009bec:	00a59593          	slli	a1,a1,0xa
    80009bf0:	0ce58593          	addi	a1,a1,206
    80009bf4:	40b5063b          	subw	a2,a0,a1
    80009bf8:	2cc2b423          	sd	a2,712(t0)
    80009bfc:	1b6b66b7          	lui	a3,0x1b6b6
    80009c00:	9996869b          	addiw	a3,a3,-1639 # 1b6b5999 <absimmsh+0xfbe4bec>
    80009c04:	00c68463          	beq	a3,a2,80009c0c <inst_620>
    80009c08:	c1cf606f          	j	80000024 <rvtest_error>

0000000080009c0c <inst_620>:
    80009c0c:	66666537          	lui	a0,0x66666
    80009c10:	66650513          	addi	a0,a0,1638 # 66666666 <absimmsh+0x5ab958b9>
    80009c14:	00b51513          	slli	a0,a0,0xb
    80009c18:	33350513          	addi	a0,a0,819
    80009c1c:	00b51513          	slli	a0,a0,0xb
    80009c20:	19950513          	addi	a0,a0,409
    80009c24:	00a51513          	slli	a0,a0,0xa
    80009c28:	26750513          	addi	a0,a0,615
    80009c2c:	000005b7          	lui	a1,0x0
    80009c30:	00058593          	mv	a1,a1
    80009c34:	00b59593          	slli	a1,a1,0xb
    80009c38:	5a858593          	addi	a1,a1,1448 # 5a8 <offset+0x108>
    80009c3c:	00b59593          	slli	a1,a1,0xb
    80009c40:	13c58593          	addi	a1,a1,316
    80009c44:	00a59593          	slli	a1,a1,0xa
    80009c48:	33458593          	addi	a1,a1,820
    80009c4c:	40b5063b          	subw	a2,a0,a1
    80009c50:	2cc2b823          	sd	a2,720(t0)
    80009c54:	b16176b7          	lui	a3,0xb1617
    80009c58:	3336869b          	addiw	a3,a3,819 # ffffffffb1617333 <absimm+0xfffffffef6909863>
    80009c5c:	00c68463          	beq	a3,a2,80009c64 <inst_621>
    80009c60:	bc4f606f          	j	80000024 <rvtest_error>

0000000080009c64 <inst_621>:
    80009c64:	00000537          	lui	a0,0x0
    80009c68:	fff50513          	addi	a0,a0,-1
    80009c6c:	00b51513          	slli	a0,a0,0xb
    80009c70:	25750513          	addi	a0,a0,599
    80009c74:	00b51513          	slli	a0,a0,0xb
    80009c78:	6c350513          	addi	a0,a0,1731
    80009c7c:	00a51513          	slli	a0,a0,0xa
    80009c80:	0ce50513          	addi	a0,a0,206
    80009c84:	00300593          	li	a1,3
    80009c88:	40b5063b          	subw	a2,a0,a1
    80009c8c:	2cc2bc23          	sd	a2,728(t0)
    80009c90:	4afb16b7          	lui	a3,0x4afb1
    80009c94:	ccb6869b          	addiw	a3,a3,-821 # 4afb0ccb <absimmsh+0x3f4dff1e>
    80009c98:	00c68463          	beq	a3,a2,80009ca0 <inst_622>
    80009c9c:	b88f606f          	j	80000024 <rvtest_error>

0000000080009ca0 <inst_622>:
    80009ca0:	00000537          	lui	a0,0x0
    80009ca4:	fff50513          	addi	a0,a0,-1
    80009ca8:	00b51513          	slli	a0,a0,0xb
    80009cac:	25750513          	addi	a0,a0,599
    80009cb0:	00b51513          	slli	a0,a0,0xb
    80009cb4:	6c350513          	addi	a0,a0,1731
    80009cb8:	00a51513          	slli	a0,a0,0xa
    80009cbc:	0ce50513          	addi	a0,a0,206
    80009cc0:	555555b7          	lui	a1,0x55555
    80009cc4:	55558593          	addi	a1,a1,1365 # 55555555 <absimmsh+0x49a847a8>
    80009cc8:	00b59593          	slli	a1,a1,0xb
    80009ccc:	2aa58593          	addi	a1,a1,682
    80009cd0:	00b59593          	slli	a1,a1,0xb
    80009cd4:	55558593          	addi	a1,a1,1365
    80009cd8:	00a59593          	slli	a1,a1,0xa
    80009cdc:	15558593          	addi	a1,a1,341
    80009ce0:	40b5063b          	subw	a2,a0,a1
    80009ce4:	2ec2b023          	sd	a2,736(t0)
    80009ce8:	f5a5b6b7          	lui	a3,0xf5a5b
    80009cec:	7796869b          	addiw	a3,a3,1913 # fffffffff5a5b779 <absimm+0xffffffff3ad4dca9>
    80009cf0:	00c68463          	beq	a3,a2,80009cf8 <inst_623>
    80009cf4:	b30f606f          	j	80000024 <rvtest_error>

0000000080009cf8 <inst_623>:
    80009cf8:	00000537          	lui	a0,0x0
    80009cfc:	fff50513          	addi	a0,a0,-1
    80009d00:	00b51513          	slli	a0,a0,0xb
    80009d04:	25750513          	addi	a0,a0,599
    80009d08:	00b51513          	slli	a0,a0,0xb
    80009d0c:	6c350513          	addi	a0,a0,1731
    80009d10:	00a51513          	slli	a0,a0,0xa
    80009d14:	0ce50513          	addi	a0,a0,206
    80009d18:	aaaab5b7          	lui	a1,0xaaaab
    80009d1c:	aaa58593          	addi	a1,a1,-1366 # ffffffffaaaaaaaa <absimm+0xfffffffeefd9cfda>
    80009d20:	00b59593          	slli	a1,a1,0xb
    80009d24:	55558593          	addi	a1,a1,1365
    80009d28:	00b59593          	slli	a1,a1,0xb
    80009d2c:	2aa58593          	addi	a1,a1,682
    80009d30:	00a59593          	slli	a1,a1,0xa
    80009d34:	2aa58593          	addi	a1,a1,682
    80009d38:	40b5063b          	subw	a2,a0,a1
    80009d3c:	2ec2b423          	sd	a2,744(t0)
    80009d40:	a05066b7          	lui	a3,0xa0506
    80009d44:	2246869b          	addiw	a3,a3,548 # ffffffffa0506224 <absimm+0xfffffffee57f8754>
    80009d48:	00c68463          	beq	a3,a2,80009d50 <inst_624>
    80009d4c:	ad8f606f          	j	80000024 <rvtest_error>

0000000080009d50 <inst_624>:
    80009d50:	00000537          	lui	a0,0x0
    80009d54:	fff50513          	addi	a0,a0,-1
    80009d58:	00b51513          	slli	a0,a0,0xb
    80009d5c:	25750513          	addi	a0,a0,599
    80009d60:	00b51513          	slli	a0,a0,0xb
    80009d64:	6c350513          	addi	a0,a0,1731
    80009d68:	00a51513          	slli	a0,a0,0xa
    80009d6c:	0ce50513          	addi	a0,a0,206
    80009d70:	00500593          	li	a1,5
    80009d74:	40b5063b          	subw	a2,a0,a1
    80009d78:	2ec2b823          	sd	a2,752(t0)
    80009d7c:	4afb16b7          	lui	a3,0x4afb1
    80009d80:	cc96869b          	addiw	a3,a3,-823 # 4afb0cc9 <absimmsh+0x3f4dff1c>
    80009d84:	00c68463          	beq	a3,a2,80009d8c <inst_625>
    80009d88:	a9cf606f          	j	80000024 <rvtest_error>

0000000080009d8c <inst_625>:
    80009d8c:	00000537          	lui	a0,0x0
    80009d90:	fff50513          	addi	a0,a0,-1
    80009d94:	00b51513          	slli	a0,a0,0xb
    80009d98:	25750513          	addi	a0,a0,599
    80009d9c:	00b51513          	slli	a0,a0,0xb
    80009da0:	6c350513          	addi	a0,a0,1731
    80009da4:	00a51513          	slli	a0,a0,0xa
    80009da8:	0ce50513          	addi	a0,a0,206
    80009dac:	333335b7          	lui	a1,0x33333
    80009db0:	33358593          	addi	a1,a1,819 # 33333333 <absimmsh+0x27862586>
    80009db4:	00b59593          	slli	a1,a1,0xb
    80009db8:	19958593          	addi	a1,a1,409
    80009dbc:	00b59593          	slli	a1,a1,0xb
    80009dc0:	4cc58593          	addi	a1,a1,1228
    80009dc4:	00a59593          	slli	a1,a1,0xa
    80009dc8:	33358593          	addi	a1,a1,819
    80009dcc:	40b5063b          	subw	a2,a0,a1
    80009dd0:	2ec2bc23          	sd	a2,760(t0)
    80009dd4:	17c7e6b7          	lui	a3,0x17c7e
    80009dd8:	99b6869b          	addiw	a3,a3,-1637 # 17c7d99b <absimmsh+0xc1acbee>
    80009ddc:	00c68463          	beq	a3,a2,80009de4 <inst_626>
    80009de0:	a44f606f          	j	80000024 <rvtest_error>

0000000080009de4 <inst_626>:
    80009de4:	00000537          	lui	a0,0x0
    80009de8:	fff50513          	addi	a0,a0,-1
    80009dec:	00b51513          	slli	a0,a0,0xb
    80009df0:	25750513          	addi	a0,a0,599
    80009df4:	00b51513          	slli	a0,a0,0xb
    80009df8:	6c350513          	addi	a0,a0,1731
    80009dfc:	00a51513          	slli	a0,a0,0xa
    80009e00:	0ce50513          	addi	a0,a0,206
    80009e04:	666665b7          	lui	a1,0x66666
    80009e08:	66658593          	addi	a1,a1,1638 # 66666666 <absimmsh+0x5ab958b9>
    80009e0c:	00b59593          	slli	a1,a1,0xb
    80009e10:	33358593          	addi	a1,a1,819
    80009e14:	00b59593          	slli	a1,a1,0xb
    80009e18:	19958593          	addi	a1,a1,409
    80009e1c:	00a59593          	slli	a1,a1,0xa
    80009e20:	26658593          	addi	a1,a1,614
    80009e24:	40b5063b          	subw	a2,a0,a1
    80009e28:	30c2b023          	sd	a2,768(t0)
    80009e2c:	e494a6b7          	lui	a3,0xe494a
    80009e30:	6686869b          	addiw	a3,a3,1640 # ffffffffe494a668 <absimm+0xffffffff29c3cb98>
    80009e34:	00c68463          	beq	a3,a2,80009e3c <inst_627>
    80009e38:	9ecf606f          	j	80000024 <rvtest_error>

0000000080009e3c <inst_627>:
    80009e3c:	00000537          	lui	a0,0x0
    80009e40:	fff50513          	addi	a0,a0,-1
    80009e44:	00b51513          	slli	a0,a0,0xb
    80009e48:	25750513          	addi	a0,a0,599
    80009e4c:	00b51513          	slli	a0,a0,0xb
    80009e50:	6c350513          	addi	a0,a0,1731
    80009e54:	00a51513          	slli	a0,a0,0xa
    80009e58:	0ce50513          	addi	a0,a0,206
    80009e5c:	000005b7          	lui	a1,0x0
    80009e60:	fff58593          	addi	a1,a1,-1
    80009e64:	00b59593          	slli	a1,a1,0xb
    80009e68:	25758593          	addi	a1,a1,599
    80009e6c:	00b59593          	slli	a1,a1,0xb
    80009e70:	6c358593          	addi	a1,a1,1731
    80009e74:	00a59593          	slli	a1,a1,0xa
    80009e78:	0cd58593          	addi	a1,a1,205
    80009e7c:	40b5063b          	subw	a2,a0,a1
    80009e80:	30c2b423          	sd	a2,776(t0)
    80009e84:	00100693          	li	a3,1
    80009e88:	00c68463          	beq	a3,a2,80009e90 <inst_628>
    80009e8c:	998f606f          	j	80000024 <rvtest_error>

0000000080009e90 <inst_628>:
    80009e90:	00000537          	lui	a0,0x0
    80009e94:	fff50513          	addi	a0,a0,-1
    80009e98:	00b51513          	slli	a0,a0,0xb
    80009e9c:	25750513          	addi	a0,a0,599
    80009ea0:	00b51513          	slli	a0,a0,0xb
    80009ea4:	6c350513          	addi	a0,a0,1731
    80009ea8:	00a51513          	slli	a0,a0,0xa
    80009eac:	0ce50513          	addi	a0,a0,206
    80009eb0:	000005b7          	lui	a1,0x0
    80009eb4:	00058593          	mv	a1,a1
    80009eb8:	00b59593          	slli	a1,a1,0xb
    80009ebc:	5a858593          	addi	a1,a1,1448 # 5a8 <offset+0x108>
    80009ec0:	00b59593          	slli	a1,a1,0xb
    80009ec4:	13c58593          	addi	a1,a1,316
    80009ec8:	00a59593          	slli	a1,a1,0xa
    80009ecc:	33358593          	addi	a1,a1,819
    80009ed0:	40b5063b          	subw	a2,a0,a1
    80009ed4:	30c2b823          	sd	a2,784(t0)
    80009ed8:	95f626b7          	lui	a3,0x95f62
    80009edc:	99b6869b          	addiw	a3,a3,-1637 # ffffffff95f6199b <absimm+0xfffffffedb253ecb>
    80009ee0:	00c68463          	beq	a3,a2,80009ee8 <inst_629>
    80009ee4:	940f606f          	j	80000024 <rvtest_error>

0000000080009ee8 <inst_629>:
    80009ee8:	00000537          	lui	a0,0x0
    80009eec:	fff50513          	addi	a0,a0,-1
    80009ef0:	00b51513          	slli	a0,a0,0xb
    80009ef4:	25750513          	addi	a0,a0,599
    80009ef8:	00b51513          	slli	a0,a0,0xb
    80009efc:	6c350513          	addi	a0,a0,1731
    80009f00:	00a51513          	slli	a0,a0,0xa
    80009f04:	0ce50513          	addi	a0,a0,206
    80009f08:	00200593          	li	a1,2
    80009f0c:	40b5063b          	subw	a2,a0,a1
    80009f10:	30c2bc23          	sd	a2,792(t0)
    80009f14:	4afb16b7          	lui	a3,0x4afb1
    80009f18:	ccc6869b          	addiw	a3,a3,-820 # 4afb0ccc <absimmsh+0x3f4dff1f>
    80009f1c:	00c68463          	beq	a3,a2,80009f24 <inst_630>
    80009f20:	904f606f          	j	80000024 <rvtest_error>

0000000080009f24 <inst_630>:
    80009f24:	00000537          	lui	a0,0x0
    80009f28:	fff50513          	addi	a0,a0,-1
    80009f2c:	00b51513          	slli	a0,a0,0xb
    80009f30:	25750513          	addi	a0,a0,599
    80009f34:	00b51513          	slli	a0,a0,0xb
    80009f38:	6c350513          	addi	a0,a0,1731
    80009f3c:	00a51513          	slli	a0,a0,0xa
    80009f40:	0ce50513          	addi	a0,a0,206
    80009f44:	555555b7          	lui	a1,0x55555
    80009f48:	55558593          	addi	a1,a1,1365 # 55555555 <absimmsh+0x49a847a8>
    80009f4c:	00b59593          	slli	a1,a1,0xb
    80009f50:	2aa58593          	addi	a1,a1,682
    80009f54:	00b59593          	slli	a1,a1,0xb
    80009f58:	55558593          	addi	a1,a1,1365
    80009f5c:	00a59593          	slli	a1,a1,0xa
    80009f60:	15458593          	addi	a1,a1,340
    80009f64:	40b5063b          	subw	a2,a0,a1
    80009f68:	32c2b023          	sd	a2,800(t0)
    80009f6c:	f5a5b6b7          	lui	a3,0xf5a5b
    80009f70:	77a6869b          	addiw	a3,a3,1914 # fffffffff5a5b77a <absimm+0xffffffff3ad4dcaa>
    80009f74:	00c68463          	beq	a3,a2,80009f7c <inst_631>
    80009f78:	8acf606f          	j	80000024 <rvtest_error>

0000000080009f7c <inst_631>:
    80009f7c:	00000537          	lui	a0,0x0
    80009f80:	fff50513          	addi	a0,a0,-1
    80009f84:	00b51513          	slli	a0,a0,0xb
    80009f88:	25750513          	addi	a0,a0,599
    80009f8c:	00b51513          	slli	a0,a0,0xb
    80009f90:	6c350513          	addi	a0,a0,1731
    80009f94:	00a51513          	slli	a0,a0,0xa
    80009f98:	0ce50513          	addi	a0,a0,206
    80009f9c:	00000593          	li	a1,0
    80009fa0:	40b5063b          	subw	a2,a0,a1
    80009fa4:	32c2b423          	sd	a2,808(t0)
    80009fa8:	4afb16b7          	lui	a3,0x4afb1
    80009fac:	cce6869b          	addiw	a3,a3,-818 # 4afb0cce <absimmsh+0x3f4dff21>
    80009fb0:	00c68463          	beq	a3,a2,80009fb8 <inst_632>
    80009fb4:	870f606f          	j	80000024 <rvtest_error>

0000000080009fb8 <inst_632>:
    80009fb8:	00000537          	lui	a0,0x0
    80009fbc:	fff50513          	addi	a0,a0,-1
    80009fc0:	00b51513          	slli	a0,a0,0xb
    80009fc4:	25750513          	addi	a0,a0,599
    80009fc8:	00b51513          	slli	a0,a0,0xb
    80009fcc:	6c350513          	addi	a0,a0,1731
    80009fd0:	00a51513          	slli	a0,a0,0xa
    80009fd4:	0ce50513          	addi	a0,a0,206
    80009fd8:	00400593          	li	a1,4
    80009fdc:	40b5063b          	subw	a2,a0,a1
    80009fe0:	32c2b823          	sd	a2,816(t0)
    80009fe4:	4afb16b7          	lui	a3,0x4afb1
    80009fe8:	cca6869b          	addiw	a3,a3,-822 # 4afb0cca <absimmsh+0x3f4dff1d>
    80009fec:	00c68463          	beq	a3,a2,80009ff4 <inst_633>
    80009ff0:	834f606f          	j	80000024 <rvtest_error>

0000000080009ff4 <inst_633>:
    80009ff4:	00000537          	lui	a0,0x0
    80009ff8:	fff50513          	addi	a0,a0,-1
    80009ffc:	00b51513          	slli	a0,a0,0xb
    8000a000:	25750513          	addi	a0,a0,599
    8000a004:	00b51513          	slli	a0,a0,0xb
    8000a008:	6c350513          	addi	a0,a0,1731
    8000a00c:	00a51513          	slli	a0,a0,0xa
    8000a010:	0ce50513          	addi	a0,a0,206
    8000a014:	333335b7          	lui	a1,0x33333
    8000a018:	33358593          	addi	a1,a1,819 # 33333333 <absimmsh+0x27862586>
    8000a01c:	00b59593          	slli	a1,a1,0xb
    8000a020:	19958593          	addi	a1,a1,409
    8000a024:	00b59593          	slli	a1,a1,0xb
    8000a028:	4cc58593          	addi	a1,a1,1228
    8000a02c:	00a59593          	slli	a1,a1,0xa
    8000a030:	33258593          	addi	a1,a1,818
    8000a034:	40b5063b          	subw	a2,a0,a1
    8000a038:	32c2bc23          	sd	a2,824(t0)
    8000a03c:	17c7e6b7          	lui	a3,0x17c7e
    8000a040:	99c6869b          	addiw	a3,a3,-1636 # 17c7d99c <absimmsh+0xc1acbef>
    8000a044:	00c68463          	beq	a3,a2,8000a04c <inst_634>
    8000a048:	fddf506f          	j	80000024 <rvtest_error>

000000008000a04c <inst_634>:
    8000a04c:	00000537          	lui	a0,0x0
    8000a050:	fff50513          	addi	a0,a0,-1
    8000a054:	00b51513          	slli	a0,a0,0xb
    8000a058:	25750513          	addi	a0,a0,599
    8000a05c:	00b51513          	slli	a0,a0,0xb
    8000a060:	6c350513          	addi	a0,a0,1731
    8000a064:	00a51513          	slli	a0,a0,0xa
    8000a068:	0ce50513          	addi	a0,a0,206
    8000a06c:	666665b7          	lui	a1,0x66666
    8000a070:	66658593          	addi	a1,a1,1638 # 66666666 <absimmsh+0x5ab958b9>
    8000a074:	00b59593          	slli	a1,a1,0xb
    8000a078:	33358593          	addi	a1,a1,819
    8000a07c:	00b59593          	slli	a1,a1,0xb
    8000a080:	19958593          	addi	a1,a1,409
    8000a084:	00a59593          	slli	a1,a1,0xa
    8000a088:	26558593          	addi	a1,a1,613
    8000a08c:	40b5063b          	subw	a2,a0,a1
    8000a090:	34c2b023          	sd	a2,832(t0)
    8000a094:	e494a6b7          	lui	a3,0xe494a
    8000a098:	6696869b          	addiw	a3,a3,1641 # ffffffffe494a669 <absimm+0xffffffff29c3cb99>
    8000a09c:	00c68463          	beq	a3,a2,8000a0a4 <inst_635>
    8000a0a0:	f85f506f          	j	80000024 <rvtest_error>

000000008000a0a4 <inst_635>:
    8000a0a4:	00000537          	lui	a0,0x0
    8000a0a8:	fff50513          	addi	a0,a0,-1
    8000a0ac:	00b51513          	slli	a0,a0,0xb
    8000a0b0:	25750513          	addi	a0,a0,599
    8000a0b4:	00b51513          	slli	a0,a0,0xb
    8000a0b8:	6c350513          	addi	a0,a0,1731
    8000a0bc:	00a51513          	slli	a0,a0,0xa
    8000a0c0:	0ce50513          	addi	a0,a0,206
    8000a0c4:	000005b7          	lui	a1,0x0
    8000a0c8:	00058593          	mv	a1,a1
    8000a0cc:	00b59593          	slli	a1,a1,0xb
    8000a0d0:	5a858593          	addi	a1,a1,1448 # 5a8 <offset+0x108>
    8000a0d4:	00b59593          	slli	a1,a1,0xb
    8000a0d8:	13c58593          	addi	a1,a1,316
    8000a0dc:	00a59593          	slli	a1,a1,0xa
    8000a0e0:	33258593          	addi	a1,a1,818
    8000a0e4:	40b5063b          	subw	a2,a0,a1
    8000a0e8:	34c2b423          	sd	a2,840(t0)
    8000a0ec:	95f626b7          	lui	a3,0x95f62
    8000a0f0:	99c6869b          	addiw	a3,a3,-1636 # ffffffff95f6199c <absimm+0xfffffffedb253ecc>
    8000a0f4:	00c68463          	beq	a3,a2,8000a0fc <inst_636>
    8000a0f8:	f2df506f          	j	80000024 <rvtest_error>

000000008000a0fc <inst_636>:
    8000a0fc:	00000537          	lui	a0,0x0
    8000a100:	fff50513          	addi	a0,a0,-1
    8000a104:	00b51513          	slli	a0,a0,0xb
    8000a108:	25750513          	addi	a0,a0,599
    8000a10c:	00b51513          	slli	a0,a0,0xb
    8000a110:	6c350513          	addi	a0,a0,1731
    8000a114:	00a51513          	slli	a0,a0,0xa
    8000a118:	0ce50513          	addi	a0,a0,206
    8000a11c:	555555b7          	lui	a1,0x55555
    8000a120:	55558593          	addi	a1,a1,1365 # 55555555 <absimmsh+0x49a847a8>
    8000a124:	00b59593          	slli	a1,a1,0xb
    8000a128:	2aa58593          	addi	a1,a1,682
    8000a12c:	00b59593          	slli	a1,a1,0xb
    8000a130:	55558593          	addi	a1,a1,1365
    8000a134:	00a59593          	slli	a1,a1,0xa
    8000a138:	15658593          	addi	a1,a1,342
    8000a13c:	40b5063b          	subw	a2,a0,a1
    8000a140:	34c2b823          	sd	a2,848(t0)
    8000a144:	f5a5b6b7          	lui	a3,0xf5a5b
    8000a148:	7786869b          	addiw	a3,a3,1912 # fffffffff5a5b778 <absimm+0xffffffff3ad4dca8>
    8000a14c:	00c68463          	beq	a3,a2,8000a154 <inst_637>
    8000a150:	ed5f506f          	j	80000024 <rvtest_error>

000000008000a154 <inst_637>:
    8000a154:	00000537          	lui	a0,0x0
    8000a158:	fff50513          	addi	a0,a0,-1
    8000a15c:	00b51513          	slli	a0,a0,0xb
    8000a160:	25750513          	addi	a0,a0,599
    8000a164:	00b51513          	slli	a0,a0,0xb
    8000a168:	6c350513          	addi	a0,a0,1731
    8000a16c:	00a51513          	slli	a0,a0,0xa
    8000a170:	0ce50513          	addi	a0,a0,206
    8000a174:	aaaab5b7          	lui	a1,0xaaaab
    8000a178:	aaa58593          	addi	a1,a1,-1366 # ffffffffaaaaaaaa <absimm+0xfffffffeefd9cfda>
    8000a17c:	00b59593          	slli	a1,a1,0xb
    8000a180:	55558593          	addi	a1,a1,1365
    8000a184:	00b59593          	slli	a1,a1,0xb
    8000a188:	2aa58593          	addi	a1,a1,682
    8000a18c:	00a59593          	slli	a1,a1,0xa
    8000a190:	2ab58593          	addi	a1,a1,683
    8000a194:	40b5063b          	subw	a2,a0,a1
    8000a198:	34c2bc23          	sd	a2,856(t0)
    8000a19c:	a05066b7          	lui	a3,0xa0506
    8000a1a0:	2236869b          	addiw	a3,a3,547 # ffffffffa0506223 <absimm+0xfffffffee57f8753>
    8000a1a4:	00c68463          	beq	a3,a2,8000a1ac <inst_638>
    8000a1a8:	e7df506f          	j	80000024 <rvtest_error>

000000008000a1ac <inst_638>:
    8000a1ac:	00000537          	lui	a0,0x0
    8000a1b0:	fff50513          	addi	a0,a0,-1
    8000a1b4:	00b51513          	slli	a0,a0,0xb
    8000a1b8:	25750513          	addi	a0,a0,599
    8000a1bc:	00b51513          	slli	a0,a0,0xb
    8000a1c0:	6c350513          	addi	a0,a0,1731
    8000a1c4:	00a51513          	slli	a0,a0,0xa
    8000a1c8:	0ce50513          	addi	a0,a0,206
    8000a1cc:	00600593          	li	a1,6
    8000a1d0:	40b5063b          	subw	a2,a0,a1
    8000a1d4:	36c2b023          	sd	a2,864(t0)
    8000a1d8:	4afb16b7          	lui	a3,0x4afb1
    8000a1dc:	cc86869b          	addiw	a3,a3,-824 # 4afb0cc8 <absimmsh+0x3f4dff1b>
    8000a1e0:	00c68463          	beq	a3,a2,8000a1e8 <inst_639>
    8000a1e4:	e41f506f          	j	80000024 <rvtest_error>

000000008000a1e8 <inst_639>:
    8000a1e8:	00000537          	lui	a0,0x0
    8000a1ec:	fff50513          	addi	a0,a0,-1
    8000a1f0:	00b51513          	slli	a0,a0,0xb
    8000a1f4:	25750513          	addi	a0,a0,599
    8000a1f8:	00b51513          	slli	a0,a0,0xb
    8000a1fc:	6c350513          	addi	a0,a0,1731
    8000a200:	00a51513          	slli	a0,a0,0xa
    8000a204:	0ce50513          	addi	a0,a0,206
    8000a208:	333335b7          	lui	a1,0x33333
    8000a20c:	33358593          	addi	a1,a1,819 # 33333333 <absimmsh+0x27862586>
    8000a210:	00b59593          	slli	a1,a1,0xb
    8000a214:	19958593          	addi	a1,a1,409
    8000a218:	00b59593          	slli	a1,a1,0xb
    8000a21c:	4cc58593          	addi	a1,a1,1228
    8000a220:	00a59593          	slli	a1,a1,0xa
    8000a224:	33458593          	addi	a1,a1,820
    8000a228:	40b5063b          	subw	a2,a0,a1
    8000a22c:	36c2b423          	sd	a2,872(t0)
    8000a230:	17c7e6b7          	lui	a3,0x17c7e
    8000a234:	99a6869b          	addiw	a3,a3,-1638 # 17c7d99a <absimmsh+0xc1acbed>
    8000a238:	00c68463          	beq	a3,a2,8000a240 <inst_640>
    8000a23c:	de9f506f          	j	80000024 <rvtest_error>

000000008000a240 <inst_640>:
    8000a240:	00000537          	lui	a0,0x0
    8000a244:	fff50513          	addi	a0,a0,-1
    8000a248:	00b51513          	slli	a0,a0,0xb
    8000a24c:	25750513          	addi	a0,a0,599
    8000a250:	00b51513          	slli	a0,a0,0xb
    8000a254:	6c350513          	addi	a0,a0,1731
    8000a258:	00a51513          	slli	a0,a0,0xa
    8000a25c:	0ce50513          	addi	a0,a0,206
    8000a260:	666665b7          	lui	a1,0x66666
    8000a264:	66658593          	addi	a1,a1,1638 # 66666666 <absimmsh+0x5ab958b9>
    8000a268:	00b59593          	slli	a1,a1,0xb
    8000a26c:	33358593          	addi	a1,a1,819
    8000a270:	00b59593          	slli	a1,a1,0xb
    8000a274:	19958593          	addi	a1,a1,409
    8000a278:	00a59593          	slli	a1,a1,0xa
    8000a27c:	26758593          	addi	a1,a1,615
    8000a280:	40b5063b          	subw	a2,a0,a1
    8000a284:	36c2b823          	sd	a2,880(t0)
    8000a288:	e494a6b7          	lui	a3,0xe494a
    8000a28c:	6676869b          	addiw	a3,a3,1639 # ffffffffe494a667 <absimm+0xffffffff29c3cb97>
    8000a290:	00c68463          	beq	a3,a2,8000a298 <inst_641>
    8000a294:	d91f506f          	j	80000024 <rvtest_error>

000000008000a298 <inst_641>:
    8000a298:	00000537          	lui	a0,0x0
    8000a29c:	fff50513          	addi	a0,a0,-1
    8000a2a0:	00b51513          	slli	a0,a0,0xb
    8000a2a4:	25750513          	addi	a0,a0,599
    8000a2a8:	00b51513          	slli	a0,a0,0xb
    8000a2ac:	6c350513          	addi	a0,a0,1731
    8000a2b0:	00a51513          	slli	a0,a0,0xa
    8000a2b4:	0ce50513          	addi	a0,a0,206
    8000a2b8:	000005b7          	lui	a1,0x0
    8000a2bc:	fff58593          	addi	a1,a1,-1
    8000a2c0:	00b59593          	slli	a1,a1,0xb
    8000a2c4:	25758593          	addi	a1,a1,599
    8000a2c8:	00b59593          	slli	a1,a1,0xb
    8000a2cc:	6c358593          	addi	a1,a1,1731
    8000a2d0:	00a59593          	slli	a1,a1,0xa
    8000a2d4:	0ce58593          	addi	a1,a1,206
    8000a2d8:	40b5063b          	subw	a2,a0,a1
    8000a2dc:	36c2bc23          	sd	a2,888(t0)
    8000a2e0:	00000693          	li	a3,0
    8000a2e4:	00c68463          	beq	a3,a2,8000a2ec <inst_642>
    8000a2e8:	d3df506f          	j	80000024 <rvtest_error>

000000008000a2ec <inst_642>:
    8000a2ec:	00000537          	lui	a0,0x0
    8000a2f0:	fff50513          	addi	a0,a0,-1
    8000a2f4:	00b51513          	slli	a0,a0,0xb
    8000a2f8:	25750513          	addi	a0,a0,599
    8000a2fc:	00b51513          	slli	a0,a0,0xb
    8000a300:	6c350513          	addi	a0,a0,1731
    8000a304:	00a51513          	slli	a0,a0,0xa
    8000a308:	0ce50513          	addi	a0,a0,206
    8000a30c:	000005b7          	lui	a1,0x0
    8000a310:	00058593          	mv	a1,a1
    8000a314:	00b59593          	slli	a1,a1,0xb
    8000a318:	5a858593          	addi	a1,a1,1448 # 5a8 <offset+0x108>
    8000a31c:	00b59593          	slli	a1,a1,0xb
    8000a320:	13c58593          	addi	a1,a1,316
    8000a324:	00a59593          	slli	a1,a1,0xa
    8000a328:	33458593          	addi	a1,a1,820
    8000a32c:	40b5063b          	subw	a2,a0,a1
    8000a330:	38c2b023          	sd	a2,896(t0)
    8000a334:	95f626b7          	lui	a3,0x95f62
    8000a338:	99a6869b          	addiw	a3,a3,-1638 # ffffffff95f6199a <absimm+0xfffffffedb253eca>
    8000a33c:	00c68463          	beq	a3,a2,8000a344 <inst_643>
    8000a340:	ce5f506f          	j	80000024 <rvtest_error>

000000008000a344 <inst_643>:
    8000a344:	00000537          	lui	a0,0x0
    8000a348:	00050513          	mv	a0,a0
    8000a34c:	00b51513          	slli	a0,a0,0xb
    8000a350:	5a850513          	addi	a0,a0,1448 # 5a8 <offset+0x108>
    8000a354:	00b51513          	slli	a0,a0,0xb
    8000a358:	13c50513          	addi	a0,a0,316
    8000a35c:	00a51513          	slli	a0,a0,0xa
    8000a360:	33450513          	addi	a0,a0,820
    8000a364:	00300593          	li	a1,3
    8000a368:	40b5063b          	subw	a2,a0,a1
    8000a36c:	38c2b423          	sd	a2,904(t0)
    8000a370:	b504f6b7          	lui	a3,0xb504f
    8000a374:	3316869b          	addiw	a3,a3,817 # ffffffffb504f331 <absimm+0xfffffffefa341861>
    8000a378:	00c68463          	beq	a3,a2,8000a380 <inst_644>
    8000a37c:	ca9f506f          	j	80000024 <rvtest_error>

000000008000a380 <inst_644>:
    8000a380:	00000537          	lui	a0,0x0
    8000a384:	00050513          	mv	a0,a0
    8000a388:	00b51513          	slli	a0,a0,0xb
    8000a38c:	5a850513          	addi	a0,a0,1448 # 5a8 <offset+0x108>
    8000a390:	00b51513          	slli	a0,a0,0xb
    8000a394:	13c50513          	addi	a0,a0,316
    8000a398:	00a51513          	slli	a0,a0,0xa
    8000a39c:	33450513          	addi	a0,a0,820
    8000a3a0:	555555b7          	lui	a1,0x55555
    8000a3a4:	55558593          	addi	a1,a1,1365 # 55555555 <absimmsh+0x49a847a8>
    8000a3a8:	00b59593          	slli	a1,a1,0xb
    8000a3ac:	2aa58593          	addi	a1,a1,682
    8000a3b0:	00b59593          	slli	a1,a1,0xb
    8000a3b4:	55558593          	addi	a1,a1,1365
    8000a3b8:	00a59593          	slli	a1,a1,0xa
    8000a3bc:	15558593          	addi	a1,a1,341
    8000a3c0:	40b5063b          	subw	a2,a0,a1
    8000a3c4:	38c2b823          	sd	a2,912(t0)
    8000a3c8:	5fafa6b7          	lui	a3,0x5fafa
    8000a3cc:	ddf6869b          	addiw	a3,a3,-545 # 5faf9ddf <absimmsh+0x54029032>
    8000a3d0:	00c68463          	beq	a3,a2,8000a3d8 <inst_645>
    8000a3d4:	c51f506f          	j	80000024 <rvtest_error>

000000008000a3d8 <inst_645>:
    8000a3d8:	00000537          	lui	a0,0x0
    8000a3dc:	00050513          	mv	a0,a0
    8000a3e0:	00b51513          	slli	a0,a0,0xb
    8000a3e4:	5a850513          	addi	a0,a0,1448 # 5a8 <offset+0x108>
    8000a3e8:	00b51513          	slli	a0,a0,0xb
    8000a3ec:	13c50513          	addi	a0,a0,316
    8000a3f0:	00a51513          	slli	a0,a0,0xa
    8000a3f4:	33450513          	addi	a0,a0,820
    8000a3f8:	aaaab5b7          	lui	a1,0xaaaab
    8000a3fc:	aaa58593          	addi	a1,a1,-1366 # ffffffffaaaaaaaa <absimm+0xfffffffeefd9cfda>
    8000a400:	00b59593          	slli	a1,a1,0xb
    8000a404:	55558593          	addi	a1,a1,1365
    8000a408:	00b59593          	slli	a1,a1,0xb
    8000a40c:	2aa58593          	addi	a1,a1,682
    8000a410:	00a59593          	slli	a1,a1,0xa
    8000a414:	2aa58593          	addi	a1,a1,682
    8000a418:	40b5063b          	subw	a2,a0,a1
    8000a41c:	38c2bc23          	sd	a2,920(t0)
    8000a420:	0a5a56b7          	lui	a3,0xa5a5
    8000a424:	88a6869b          	addiw	a3,a3,-1910 # a5a488a <offset+0xa5a43ea>
    8000a428:	00c68463          	beq	a3,a2,8000a430 <inst_646>
    8000a42c:	bf9f506f          	j	80000024 <rvtest_error>

000000008000a430 <inst_646>:
    8000a430:	00000537          	lui	a0,0x0
    8000a434:	00050513          	mv	a0,a0
    8000a438:	00b51513          	slli	a0,a0,0xb
    8000a43c:	5a850513          	addi	a0,a0,1448 # 5a8 <offset+0x108>
    8000a440:	00b51513          	slli	a0,a0,0xb
    8000a444:	13c50513          	addi	a0,a0,316
    8000a448:	00a51513          	slli	a0,a0,0xa
    8000a44c:	33450513          	addi	a0,a0,820
    8000a450:	00500593          	li	a1,5
    8000a454:	40b5063b          	subw	a2,a0,a1
    8000a458:	3ac2b023          	sd	a2,928(t0)
    8000a45c:	b504f6b7          	lui	a3,0xb504f
    8000a460:	32f6869b          	addiw	a3,a3,815 # ffffffffb504f32f <absimm+0xfffffffefa34185f>
    8000a464:	00c68463          	beq	a3,a2,8000a46c <inst_647>
    8000a468:	bbdf506f          	j	80000024 <rvtest_error>

000000008000a46c <inst_647>:
    8000a46c:	00000537          	lui	a0,0x0
    8000a470:	00050513          	mv	a0,a0
    8000a474:	00b51513          	slli	a0,a0,0xb
    8000a478:	5a850513          	addi	a0,a0,1448 # 5a8 <offset+0x108>
    8000a47c:	00b51513          	slli	a0,a0,0xb
    8000a480:	13c50513          	addi	a0,a0,316
    8000a484:	00a51513          	slli	a0,a0,0xa
    8000a488:	33450513          	addi	a0,a0,820
    8000a48c:	333335b7          	lui	a1,0x33333
    8000a490:	33358593          	addi	a1,a1,819 # 33333333 <absimmsh+0x27862586>
    8000a494:	00b59593          	slli	a1,a1,0xb
    8000a498:	19958593          	addi	a1,a1,409
    8000a49c:	00b59593          	slli	a1,a1,0xb
    8000a4a0:	4cc58593          	addi	a1,a1,1228
    8000a4a4:	00a59593          	slli	a1,a1,0xa
    8000a4a8:	33358593          	addi	a1,a1,819
    8000a4ac:	40b5063b          	subw	a2,a0,a1
    8000a4b0:	3ac2b423          	sd	a2,936(t0)
    8000a4b4:	81d1c6b7          	lui	a3,0x81d1c
    8000a4b8:	0016869b          	addiw	a3,a3,1 # ffffffff81d1c001 <absimm+0xfffffffec700e531>
    8000a4bc:	00c68463          	beq	a3,a2,8000a4c4 <inst_648>
    8000a4c0:	b65f506f          	j	80000024 <rvtest_error>

000000008000a4c4 <inst_648>:
    8000a4c4:	00000537          	lui	a0,0x0
    8000a4c8:	00050513          	mv	a0,a0
    8000a4cc:	00b51513          	slli	a0,a0,0xb
    8000a4d0:	5a850513          	addi	a0,a0,1448 # 5a8 <offset+0x108>
    8000a4d4:	00b51513          	slli	a0,a0,0xb
    8000a4d8:	13c50513          	addi	a0,a0,316
    8000a4dc:	00a51513          	slli	a0,a0,0xa
    8000a4e0:	33450513          	addi	a0,a0,820
    8000a4e4:	666665b7          	lui	a1,0x66666
    8000a4e8:	66658593          	addi	a1,a1,1638 # 66666666 <absimmsh+0x5ab958b9>
    8000a4ec:	00b59593          	slli	a1,a1,0xb
    8000a4f0:	33358593          	addi	a1,a1,819
    8000a4f4:	00b59593          	slli	a1,a1,0xb
    8000a4f8:	19958593          	addi	a1,a1,409
    8000a4fc:	00a59593          	slli	a1,a1,0xa
    8000a500:	26658593          	addi	a1,a1,614
    8000a504:	40b5063b          	subw	a2,a0,a1
    8000a508:	3ac2b823          	sd	a2,944(t0)
    8000a50c:	4e9e96b7          	lui	a3,0x4e9e9
    8000a510:	cce6869b          	addiw	a3,a3,-818 # 4e9e8cce <absimmsh+0x42f17f21>
    8000a514:	00c68463          	beq	a3,a2,8000a51c <inst_649>
    8000a518:	b0df506f          	j	80000024 <rvtest_error>

000000008000a51c <inst_649>:
    8000a51c:	00000537          	lui	a0,0x0
    8000a520:	00050513          	mv	a0,a0
    8000a524:	00b51513          	slli	a0,a0,0xb
    8000a528:	5a850513          	addi	a0,a0,1448 # 5a8 <offset+0x108>
    8000a52c:	00b51513          	slli	a0,a0,0xb
    8000a530:	13c50513          	addi	a0,a0,316
    8000a534:	00a51513          	slli	a0,a0,0xa
    8000a538:	33450513          	addi	a0,a0,820
    8000a53c:	000005b7          	lui	a1,0x0
    8000a540:	fff58593          	addi	a1,a1,-1
    8000a544:	00b59593          	slli	a1,a1,0xb
    8000a548:	25758593          	addi	a1,a1,599
    8000a54c:	00b59593          	slli	a1,a1,0xb
    8000a550:	6c358593          	addi	a1,a1,1731
    8000a554:	00a59593          	slli	a1,a1,0xa
    8000a558:	0cd58593          	addi	a1,a1,205
    8000a55c:	40b5063b          	subw	a2,a0,a1
    8000a560:	3ac2bc23          	sd	a2,952(t0)
    8000a564:	6a09e6b7          	lui	a3,0x6a09e
    8000a568:	6676869b          	addiw	a3,a3,1639 # 6a09e667 <absimmsh+0x5e5cd8ba>
    8000a56c:	00c68463          	beq	a3,a2,8000a574 <inst_650>
    8000a570:	ab5f506f          	j	80000024 <rvtest_error>

000000008000a574 <inst_650>:
    8000a574:	00000537          	lui	a0,0x0
    8000a578:	00050513          	mv	a0,a0
    8000a57c:	00b51513          	slli	a0,a0,0xb
    8000a580:	5a850513          	addi	a0,a0,1448 # 5a8 <offset+0x108>
    8000a584:	00b51513          	slli	a0,a0,0xb
    8000a588:	13c50513          	addi	a0,a0,316
    8000a58c:	00a51513          	slli	a0,a0,0xa
    8000a590:	33450513          	addi	a0,a0,820
    8000a594:	000005b7          	lui	a1,0x0
    8000a598:	00058593          	mv	a1,a1
    8000a59c:	00b59593          	slli	a1,a1,0xb
    8000a5a0:	5a858593          	addi	a1,a1,1448 # 5a8 <offset+0x108>
    8000a5a4:	00b59593          	slli	a1,a1,0xb
    8000a5a8:	13c58593          	addi	a1,a1,316
    8000a5ac:	00a59593          	slli	a1,a1,0xa
    8000a5b0:	33358593          	addi	a1,a1,819
    8000a5b4:	40b5063b          	subw	a2,a0,a1
    8000a5b8:	3cc2b023          	sd	a2,960(t0)
    8000a5bc:	00100693          	li	a3,1
    8000a5c0:	00c68463          	beq	a3,a2,8000a5c8 <inst_651>
    8000a5c4:	a61f506f          	j	80000024 <rvtest_error>

000000008000a5c8 <inst_651>:
    8000a5c8:	00000537          	lui	a0,0x0
    8000a5cc:	00050513          	mv	a0,a0
    8000a5d0:	00b51513          	slli	a0,a0,0xb
    8000a5d4:	5a850513          	addi	a0,a0,1448 # 5a8 <offset+0x108>
    8000a5d8:	00b51513          	slli	a0,a0,0xb
    8000a5dc:	13c50513          	addi	a0,a0,316
    8000a5e0:	00a51513          	slli	a0,a0,0xa
    8000a5e4:	33450513          	addi	a0,a0,820
    8000a5e8:	00200593          	li	a1,2
    8000a5ec:	40b5063b          	subw	a2,a0,a1
    8000a5f0:	3cc2b423          	sd	a2,968(t0)
    8000a5f4:	b504f6b7          	lui	a3,0xb504f
    8000a5f8:	3326869b          	addiw	a3,a3,818 # ffffffffb504f332 <absimm+0xfffffffefa341862>
    8000a5fc:	00c68463          	beq	a3,a2,8000a604 <inst_652>
    8000a600:	a25f506f          	j	80000024 <rvtest_error>

000000008000a604 <inst_652>:
    8000a604:	00000537          	lui	a0,0x0
    8000a608:	00050513          	mv	a0,a0
    8000a60c:	00b51513          	slli	a0,a0,0xb
    8000a610:	5a850513          	addi	a0,a0,1448 # 5a8 <offset+0x108>
    8000a614:	00b51513          	slli	a0,a0,0xb
    8000a618:	13c50513          	addi	a0,a0,316
    8000a61c:	00a51513          	slli	a0,a0,0xa
    8000a620:	33450513          	addi	a0,a0,820
    8000a624:	555555b7          	lui	a1,0x55555
    8000a628:	55558593          	addi	a1,a1,1365 # 55555555 <absimmsh+0x49a847a8>
    8000a62c:	00b59593          	slli	a1,a1,0xb
    8000a630:	2aa58593          	addi	a1,a1,682
    8000a634:	00b59593          	slli	a1,a1,0xb
    8000a638:	55558593          	addi	a1,a1,1365
    8000a63c:	00a59593          	slli	a1,a1,0xa
    8000a640:	15458593          	addi	a1,a1,340
    8000a644:	40b5063b          	subw	a2,a0,a1
    8000a648:	3cc2b823          	sd	a2,976(t0)
    8000a64c:	5fafa6b7          	lui	a3,0x5fafa
    8000a650:	de06869b          	addiw	a3,a3,-544 # 5faf9de0 <absimmsh+0x54029033>
    8000a654:	00c68463          	beq	a3,a2,8000a65c <inst_653>
    8000a658:	9cdf506f          	j	80000024 <rvtest_error>

000000008000a65c <inst_653>:
    8000a65c:	00000537          	lui	a0,0x0
    8000a660:	00050513          	mv	a0,a0
    8000a664:	00b51513          	slli	a0,a0,0xb
    8000a668:	5a850513          	addi	a0,a0,1448 # 5a8 <offset+0x108>
    8000a66c:	00b51513          	slli	a0,a0,0xb
    8000a670:	13c50513          	addi	a0,a0,316
    8000a674:	00a51513          	slli	a0,a0,0xa
    8000a678:	33450513          	addi	a0,a0,820
    8000a67c:	00000593          	li	a1,0
    8000a680:	40b5063b          	subw	a2,a0,a1
    8000a684:	3cc2bc23          	sd	a2,984(t0)
    8000a688:	b504f6b7          	lui	a3,0xb504f
    8000a68c:	3346869b          	addiw	a3,a3,820 # ffffffffb504f334 <absimm+0xfffffffefa341864>
    8000a690:	00c68463          	beq	a3,a2,8000a698 <inst_654>
    8000a694:	991f506f          	j	80000024 <rvtest_error>

000000008000a698 <inst_654>:
    8000a698:	00000537          	lui	a0,0x0
    8000a69c:	00050513          	mv	a0,a0
    8000a6a0:	00b51513          	slli	a0,a0,0xb
    8000a6a4:	5a850513          	addi	a0,a0,1448 # 5a8 <offset+0x108>
    8000a6a8:	00b51513          	slli	a0,a0,0xb
    8000a6ac:	13c50513          	addi	a0,a0,316
    8000a6b0:	00a51513          	slli	a0,a0,0xa
    8000a6b4:	33450513          	addi	a0,a0,820
    8000a6b8:	00400593          	li	a1,4
    8000a6bc:	40b5063b          	subw	a2,a0,a1
    8000a6c0:	3ec2b023          	sd	a2,992(t0)
    8000a6c4:	b504f6b7          	lui	a3,0xb504f
    8000a6c8:	3306869b          	addiw	a3,a3,816 # ffffffffb504f330 <absimm+0xfffffffefa341860>
    8000a6cc:	00c68463          	beq	a3,a2,8000a6d4 <inst_655>
    8000a6d0:	955f506f          	j	80000024 <rvtest_error>

000000008000a6d4 <inst_655>:
    8000a6d4:	00000537          	lui	a0,0x0
    8000a6d8:	00050513          	mv	a0,a0
    8000a6dc:	00b51513          	slli	a0,a0,0xb
    8000a6e0:	5a850513          	addi	a0,a0,1448 # 5a8 <offset+0x108>
    8000a6e4:	00b51513          	slli	a0,a0,0xb
    8000a6e8:	13c50513          	addi	a0,a0,316
    8000a6ec:	00a51513          	slli	a0,a0,0xa
    8000a6f0:	33450513          	addi	a0,a0,820
    8000a6f4:	333335b7          	lui	a1,0x33333
    8000a6f8:	33358593          	addi	a1,a1,819 # 33333333 <absimmsh+0x27862586>
    8000a6fc:	00b59593          	slli	a1,a1,0xb
    8000a700:	19958593          	addi	a1,a1,409
    8000a704:	00b59593          	slli	a1,a1,0xb
    8000a708:	4cc58593          	addi	a1,a1,1228
    8000a70c:	00a59593          	slli	a1,a1,0xa
    8000a710:	33258593          	addi	a1,a1,818
    8000a714:	40b5063b          	subw	a2,a0,a1
    8000a718:	3ec2b423          	sd	a2,1000(t0)
    8000a71c:	81d1c6b7          	lui	a3,0x81d1c
    8000a720:	0026869b          	addiw	a3,a3,2 # ffffffff81d1c002 <absimm+0xfffffffec700e532>
    8000a724:	00c68463          	beq	a3,a2,8000a72c <inst_656>
    8000a728:	8fdf506f          	j	80000024 <rvtest_error>

000000008000a72c <inst_656>:
    8000a72c:	00000537          	lui	a0,0x0
    8000a730:	00050513          	mv	a0,a0
    8000a734:	00b51513          	slli	a0,a0,0xb
    8000a738:	5a850513          	addi	a0,a0,1448 # 5a8 <offset+0x108>
    8000a73c:	00b51513          	slli	a0,a0,0xb
    8000a740:	13c50513          	addi	a0,a0,316
    8000a744:	00a51513          	slli	a0,a0,0xa
    8000a748:	33450513          	addi	a0,a0,820
    8000a74c:	666665b7          	lui	a1,0x66666
    8000a750:	66658593          	addi	a1,a1,1638 # 66666666 <absimmsh+0x5ab958b9>
    8000a754:	00b59593          	slli	a1,a1,0xb
    8000a758:	33358593          	addi	a1,a1,819
    8000a75c:	00b59593          	slli	a1,a1,0xb
    8000a760:	19958593          	addi	a1,a1,409
    8000a764:	00a59593          	slli	a1,a1,0xa
    8000a768:	26558593          	addi	a1,a1,613
    8000a76c:	40b5063b          	subw	a2,a0,a1
    8000a770:	3ec2b823          	sd	a2,1008(t0)
    8000a774:	4e9e96b7          	lui	a3,0x4e9e9
    8000a778:	ccf6869b          	addiw	a3,a3,-817 # 4e9e8ccf <absimmsh+0x42f17f22>
    8000a77c:	00c68463          	beq	a3,a2,8000a784 <inst_657>
    8000a780:	8a5f506f          	j	80000024 <rvtest_error>

000000008000a784 <inst_657>:
    8000a784:	00000537          	lui	a0,0x0
    8000a788:	00050513          	mv	a0,a0
    8000a78c:	00b51513          	slli	a0,a0,0xb
    8000a790:	5a850513          	addi	a0,a0,1448 # 5a8 <offset+0x108>
    8000a794:	00b51513          	slli	a0,a0,0xb
    8000a798:	13c50513          	addi	a0,a0,316
    8000a79c:	00a51513          	slli	a0,a0,0xa
    8000a7a0:	33450513          	addi	a0,a0,820
    8000a7a4:	000005b7          	lui	a1,0x0
    8000a7a8:	00058593          	mv	a1,a1
    8000a7ac:	00b59593          	slli	a1,a1,0xb
    8000a7b0:	5a858593          	addi	a1,a1,1448 # 5a8 <offset+0x108>
    8000a7b4:	00b59593          	slli	a1,a1,0xb
    8000a7b8:	13c58593          	addi	a1,a1,316
    8000a7bc:	00a59593          	slli	a1,a1,0xa
    8000a7c0:	33258593          	addi	a1,a1,818
    8000a7c4:	40b5063b          	subw	a2,a0,a1
    8000a7c8:	3ec2bc23          	sd	a2,1016(t0)
    8000a7cc:	00200693          	li	a3,2
    8000a7d0:	00c68463          	beq	a3,a2,8000a7d8 <inst_658>
    8000a7d4:	851f506f          	j	80000024 <rvtest_error>

000000008000a7d8 <inst_658>:
    8000a7d8:	00000537          	lui	a0,0x0
    8000a7dc:	00050513          	mv	a0,a0
    8000a7e0:	00b51513          	slli	a0,a0,0xb
    8000a7e4:	5a850513          	addi	a0,a0,1448 # 5a8 <offset+0x108>
    8000a7e8:	00b51513          	slli	a0,a0,0xb
    8000a7ec:	13c50513          	addi	a0,a0,316
    8000a7f0:	00a51513          	slli	a0,a0,0xa
    8000a7f4:	33450513          	addi	a0,a0,820
    8000a7f8:	555555b7          	lui	a1,0x55555
    8000a7fc:	55558593          	addi	a1,a1,1365 # 55555555 <absimmsh+0x49a847a8>
    8000a800:	00b59593          	slli	a1,a1,0xb
    8000a804:	2aa58593          	addi	a1,a1,682
    8000a808:	00b59593          	slli	a1,a1,0xb
    8000a80c:	55558593          	addi	a1,a1,1365
    8000a810:	00a59593          	slli	a1,a1,0xa
    8000a814:	15658593          	addi	a1,a1,342
    8000a818:	40b5063b          	subw	a2,a0,a1
    8000a81c:	40c2b023          	sd	a2,1024(t0)
    8000a820:	5fafa6b7          	lui	a3,0x5fafa
    8000a824:	dde6869b          	addiw	a3,a3,-546 # 5faf9dde <absimmsh+0x54029031>
    8000a828:	00c68463          	beq	a3,a2,8000a830 <inst_659>
    8000a82c:	ff8f506f          	j	80000024 <rvtest_error>

000000008000a830 <inst_659>:
    8000a830:	00000537          	lui	a0,0x0
    8000a834:	00050513          	mv	a0,a0
    8000a838:	00b51513          	slli	a0,a0,0xb
    8000a83c:	5a850513          	addi	a0,a0,1448 # 5a8 <offset+0x108>
    8000a840:	00b51513          	slli	a0,a0,0xb
    8000a844:	13c50513          	addi	a0,a0,316
    8000a848:	00a51513          	slli	a0,a0,0xa
    8000a84c:	33450513          	addi	a0,a0,820
    8000a850:	aaaab5b7          	lui	a1,0xaaaab
    8000a854:	aaa58593          	addi	a1,a1,-1366 # ffffffffaaaaaaaa <absimm+0xfffffffeefd9cfda>
    8000a858:	00b59593          	slli	a1,a1,0xb
    8000a85c:	55558593          	addi	a1,a1,1365
    8000a860:	00b59593          	slli	a1,a1,0xb
    8000a864:	2aa58593          	addi	a1,a1,682
    8000a868:	00a59593          	slli	a1,a1,0xa
    8000a86c:	2ab58593          	addi	a1,a1,683
    8000a870:	40b5063b          	subw	a2,a0,a1
    8000a874:	40c2b423          	sd	a2,1032(t0)
    8000a878:	0a5a56b7          	lui	a3,0xa5a5
    8000a87c:	8896869b          	addiw	a3,a3,-1911 # a5a4889 <offset+0xa5a43e9>
    8000a880:	00c68463          	beq	a3,a2,8000a888 <inst_660>
    8000a884:	fa0f506f          	j	80000024 <rvtest_error>

000000008000a888 <inst_660>:
    8000a888:	00000537          	lui	a0,0x0
    8000a88c:	00050513          	mv	a0,a0
    8000a890:	00b51513          	slli	a0,a0,0xb
    8000a894:	5a850513          	addi	a0,a0,1448 # 5a8 <offset+0x108>
    8000a898:	00b51513          	slli	a0,a0,0xb
    8000a89c:	13c50513          	addi	a0,a0,316
    8000a8a0:	00a51513          	slli	a0,a0,0xa
    8000a8a4:	33450513          	addi	a0,a0,820
    8000a8a8:	00600593          	li	a1,6
    8000a8ac:	40b5063b          	subw	a2,a0,a1
    8000a8b0:	40c2b823          	sd	a2,1040(t0)
    8000a8b4:	b504f6b7          	lui	a3,0xb504f
    8000a8b8:	32e6869b          	addiw	a3,a3,814 # ffffffffb504f32e <absimm+0xfffffffefa34185e>
    8000a8bc:	00c68463          	beq	a3,a2,8000a8c4 <inst_661>
    8000a8c0:	f64f506f          	j	80000024 <rvtest_error>

000000008000a8c4 <inst_661>:
    8000a8c4:	00000537          	lui	a0,0x0
    8000a8c8:	00050513          	mv	a0,a0
    8000a8cc:	00b51513          	slli	a0,a0,0xb
    8000a8d0:	5a850513          	addi	a0,a0,1448 # 5a8 <offset+0x108>
    8000a8d4:	00b51513          	slli	a0,a0,0xb
    8000a8d8:	13c50513          	addi	a0,a0,316
    8000a8dc:	00a51513          	slli	a0,a0,0xa
    8000a8e0:	33450513          	addi	a0,a0,820
    8000a8e4:	333335b7          	lui	a1,0x33333
    8000a8e8:	33358593          	addi	a1,a1,819 # 33333333 <absimmsh+0x27862586>
    8000a8ec:	00b59593          	slli	a1,a1,0xb
    8000a8f0:	19958593          	addi	a1,a1,409
    8000a8f4:	00b59593          	slli	a1,a1,0xb
    8000a8f8:	4cc58593          	addi	a1,a1,1228
    8000a8fc:	00a59593          	slli	a1,a1,0xa
    8000a900:	33458593          	addi	a1,a1,820
    8000a904:	40b5063b          	subw	a2,a0,a1
    8000a908:	40c2bc23          	sd	a2,1048(t0)
    8000a90c:	81d1c6b7          	lui	a3,0x81d1c
    8000a910:	00c68463          	beq	a3,a2,8000a918 <inst_662>
    8000a914:	f10f506f          	j	80000024 <rvtest_error>

000000008000a918 <inst_662>:
    8000a918:	00000537          	lui	a0,0x0
    8000a91c:	00050513          	mv	a0,a0
    8000a920:	00b51513          	slli	a0,a0,0xb
    8000a924:	5a850513          	addi	a0,a0,1448 # 5a8 <offset+0x108>
    8000a928:	00b51513          	slli	a0,a0,0xb
    8000a92c:	13c50513          	addi	a0,a0,316
    8000a930:	00a51513          	slli	a0,a0,0xa
    8000a934:	33450513          	addi	a0,a0,820
    8000a938:	666665b7          	lui	a1,0x66666
    8000a93c:	66658593          	addi	a1,a1,1638 # 66666666 <absimmsh+0x5ab958b9>
    8000a940:	00b59593          	slli	a1,a1,0xb
    8000a944:	33358593          	addi	a1,a1,819
    8000a948:	00b59593          	slli	a1,a1,0xb
    8000a94c:	19958593          	addi	a1,a1,409
    8000a950:	00a59593          	slli	a1,a1,0xa
    8000a954:	26758593          	addi	a1,a1,615
    8000a958:	40b5063b          	subw	a2,a0,a1
    8000a95c:	42c2b023          	sd	a2,1056(t0)
    8000a960:	4e9e96b7          	lui	a3,0x4e9e9
    8000a964:	ccd6869b          	addiw	a3,a3,-819 # 4e9e8ccd <absimmsh+0x42f17f20>
    8000a968:	00c68463          	beq	a3,a2,8000a970 <inst_663>
    8000a96c:	eb8f506f          	j	80000024 <rvtest_error>

000000008000a970 <inst_663>:
    8000a970:	00000537          	lui	a0,0x0
    8000a974:	00050513          	mv	a0,a0
    8000a978:	00b51513          	slli	a0,a0,0xb
    8000a97c:	5a850513          	addi	a0,a0,1448 # 5a8 <offset+0x108>
    8000a980:	00b51513          	slli	a0,a0,0xb
    8000a984:	13c50513          	addi	a0,a0,316
    8000a988:	00a51513          	slli	a0,a0,0xa
    8000a98c:	33450513          	addi	a0,a0,820
    8000a990:	000005b7          	lui	a1,0x0
    8000a994:	fff58593          	addi	a1,a1,-1
    8000a998:	00b59593          	slli	a1,a1,0xb
    8000a99c:	25758593          	addi	a1,a1,599
    8000a9a0:	00b59593          	slli	a1,a1,0xb
    8000a9a4:	6c358593          	addi	a1,a1,1731
    8000a9a8:	00a59593          	slli	a1,a1,0xa
    8000a9ac:	0ce58593          	addi	a1,a1,206
    8000a9b0:	40b5063b          	subw	a2,a0,a1
    8000a9b4:	42c2b423          	sd	a2,1064(t0)
    8000a9b8:	6a09e6b7          	lui	a3,0x6a09e
    8000a9bc:	6666869b          	addiw	a3,a3,1638 # 6a09e666 <absimmsh+0x5e5cd8b9>
    8000a9c0:	00c68463          	beq	a3,a2,8000a9c8 <inst_664>
    8000a9c4:	e60f506f          	j	80000024 <rvtest_error>

000000008000a9c8 <inst_664>:
    8000a9c8:	00000537          	lui	a0,0x0
    8000a9cc:	00050513          	mv	a0,a0
    8000a9d0:	00b51513          	slli	a0,a0,0xb
    8000a9d4:	5a850513          	addi	a0,a0,1448 # 5a8 <offset+0x108>
    8000a9d8:	00b51513          	slli	a0,a0,0xb
    8000a9dc:	13c50513          	addi	a0,a0,316
    8000a9e0:	00a51513          	slli	a0,a0,0xa
    8000a9e4:	33450513          	addi	a0,a0,820
    8000a9e8:	000005b7          	lui	a1,0x0
    8000a9ec:	00058593          	mv	a1,a1
    8000a9f0:	00b59593          	slli	a1,a1,0xb
    8000a9f4:	5a858593          	addi	a1,a1,1448 # 5a8 <offset+0x108>
    8000a9f8:	00b59593          	slli	a1,a1,0xb
    8000a9fc:	13c58593          	addi	a1,a1,316
    8000aa00:	00a59593          	slli	a1,a1,0xa
    8000aa04:	33458593          	addi	a1,a1,820
    8000aa08:	40b5063b          	subw	a2,a0,a1
    8000aa0c:	42c2b823          	sd	a2,1072(t0)
    8000aa10:	00000693          	li	a3,0
    8000aa14:	00c68463          	beq	a3,a2,8000aa1c <inst_665>
    8000aa18:	e0cf506f          	j	80000024 <rvtest_error>

000000008000aa1c <inst_665>:
    8000aa1c:	00000513          	li	a0,0
    8000aa20:	555555b7          	lui	a1,0x55555
    8000aa24:	55558593          	addi	a1,a1,1365 # 55555555 <absimmsh+0x49a847a8>
    8000aa28:	00b59593          	slli	a1,a1,0xb
    8000aa2c:	2aa58593          	addi	a1,a1,682
    8000aa30:	00b59593          	slli	a1,a1,0xb
    8000aa34:	55558593          	addi	a1,a1,1365
    8000aa38:	00a59593          	slli	a1,a1,0xa
    8000aa3c:	15458593          	addi	a1,a1,340
    8000aa40:	40b5063b          	subw	a2,a0,a1
    8000aa44:	42c2bc23          	sd	a2,1080(t0)
    8000aa48:	aaaab6b7          	lui	a3,0xaaaab
    8000aa4c:	aac6869b          	addiw	a3,a3,-1364 # ffffffffaaaaaaac <absimm+0xfffffffeefd9cfdc>
    8000aa50:	00c68463          	beq	a3,a2,8000aa58 <inst_666>
    8000aa54:	dd0f506f          	j	80000024 <rvtest_error>

000000008000aa58 <inst_666>:
    8000aa58:	00000513          	li	a0,0
    8000aa5c:	00000593          	li	a1,0
    8000aa60:	40b5063b          	subw	a2,a0,a1
    8000aa64:	44c2b023          	sd	a2,1088(t0)
    8000aa68:	00000693          	li	a3,0
    8000aa6c:	00c68463          	beq	a3,a2,8000aa74 <inst_667>
    8000aa70:	db4f506f          	j	80000024 <rvtest_error>

000000008000aa74 <inst_667>:
    8000aa74:	00000513          	li	a0,0
    8000aa78:	00400593          	li	a1,4
    8000aa7c:	40b5063b          	subw	a2,a0,a1
    8000aa80:	44c2b423          	sd	a2,1096(t0)
    8000aa84:	ffc00693          	li	a3,-4
    8000aa88:	00c68463          	beq	a3,a2,8000aa90 <inst_668>
    8000aa8c:	d98f506f          	j	80000024 <rvtest_error>

000000008000aa90 <inst_668>:
    8000aa90:	00000513          	li	a0,0
    8000aa94:	333335b7          	lui	a1,0x33333
    8000aa98:	33358593          	addi	a1,a1,819 # 33333333 <absimmsh+0x27862586>
    8000aa9c:	00b59593          	slli	a1,a1,0xb
    8000aaa0:	19958593          	addi	a1,a1,409
    8000aaa4:	00b59593          	slli	a1,a1,0xb
    8000aaa8:	4cc58593          	addi	a1,a1,1228
    8000aaac:	00a59593          	slli	a1,a1,0xa
    8000aab0:	33258593          	addi	a1,a1,818
    8000aab4:	40b5063b          	subw	a2,a0,a1
    8000aab8:	44c2b823          	sd	a2,1104(t0)
    8000aabc:	ccccd6b7          	lui	a3,0xccccd
    8000aac0:	cce6869b          	addiw	a3,a3,-818 # ffffffffccccccce <absimm+0xffffffff11fbf1fe>
    8000aac4:	00c68463          	beq	a3,a2,8000aacc <inst_669>
    8000aac8:	d5cf506f          	j	80000024 <rvtest_error>

000000008000aacc <inst_669>:
    8000aacc:	00000513          	li	a0,0
    8000aad0:	666665b7          	lui	a1,0x66666
    8000aad4:	66658593          	addi	a1,a1,1638 # 66666666 <absimmsh+0x5ab958b9>
    8000aad8:	00b59593          	slli	a1,a1,0xb
    8000aadc:	33358593          	addi	a1,a1,819
    8000aae0:	00b59593          	slli	a1,a1,0xb
    8000aae4:	19958593          	addi	a1,a1,409
    8000aae8:	00a59593          	slli	a1,a1,0xa
    8000aaec:	26558593          	addi	a1,a1,613
    8000aaf0:	40b5063b          	subw	a2,a0,a1
    8000aaf4:	44c2bc23          	sd	a2,1112(t0)
    8000aaf8:	9999a6b7          	lui	a3,0x9999a
    8000aafc:	99b6869b          	addiw	a3,a3,-1637 # ffffffff9999999b <absimm+0xfffffffedec8becb>
    8000ab00:	00c68463          	beq	a3,a2,8000ab08 <inst_670>
    8000ab04:	d20f506f          	j	80000024 <rvtest_error>

000000008000ab08 <inst_670>:
    8000ab08:	00000513          	li	a0,0
    8000ab0c:	000005b7          	lui	a1,0x0
    8000ab10:	00058593          	mv	a1,a1
    8000ab14:	00b59593          	slli	a1,a1,0xb
    8000ab18:	5a858593          	addi	a1,a1,1448 # 5a8 <offset+0x108>
    8000ab1c:	00b59593          	slli	a1,a1,0xb
    8000ab20:	13c58593          	addi	a1,a1,316
    8000ab24:	00a59593          	slli	a1,a1,0xa
    8000ab28:	33258593          	addi	a1,a1,818
    8000ab2c:	40b5063b          	subw	a2,a0,a1
    8000ab30:	46c2b023          	sd	a2,1120(t0)
    8000ab34:	4afb16b7          	lui	a3,0x4afb1
    8000ab38:	cce6869b          	addiw	a3,a3,-818 # 4afb0cce <absimmsh+0x3f4dff21>
    8000ab3c:	00c68463          	beq	a3,a2,8000ab44 <inst_671>
    8000ab40:	ce4f506f          	j	80000024 <rvtest_error>

000000008000ab44 <inst_671>:
    8000ab44:	00000513          	li	a0,0
    8000ab48:	555555b7          	lui	a1,0x55555
    8000ab4c:	55558593          	addi	a1,a1,1365 # 55555555 <absimmsh+0x49a847a8>
    8000ab50:	00b59593          	slli	a1,a1,0xb
    8000ab54:	2aa58593          	addi	a1,a1,682
    8000ab58:	00b59593          	slli	a1,a1,0xb
    8000ab5c:	55558593          	addi	a1,a1,1365
    8000ab60:	00a59593          	slli	a1,a1,0xa
    8000ab64:	15658593          	addi	a1,a1,342
    8000ab68:	40b5063b          	subw	a2,a0,a1
    8000ab6c:	46c2b423          	sd	a2,1128(t0)
    8000ab70:	aaaab6b7          	lui	a3,0xaaaab
    8000ab74:	aaa6869b          	addiw	a3,a3,-1366 # ffffffffaaaaaaaa <absimm+0xfffffffeefd9cfda>
    8000ab78:	00c68463          	beq	a3,a2,8000ab80 <inst_672>
    8000ab7c:	ca8f506f          	j	80000024 <rvtest_error>

000000008000ab80 <inst_672>:
    8000ab80:	00000513          	li	a0,0
    8000ab84:	aaaab5b7          	lui	a1,0xaaaab
    8000ab88:	aaa58593          	addi	a1,a1,-1366 # ffffffffaaaaaaaa <absimm+0xfffffffeefd9cfda>
    8000ab8c:	00b59593          	slli	a1,a1,0xb
    8000ab90:	55558593          	addi	a1,a1,1365
    8000ab94:	00b59593          	slli	a1,a1,0xb
    8000ab98:	2aa58593          	addi	a1,a1,682
    8000ab9c:	00a59593          	slli	a1,a1,0xa
    8000aba0:	2ab58593          	addi	a1,a1,683
    8000aba4:	40b5063b          	subw	a2,a0,a1
    8000aba8:	46c2b823          	sd	a2,1136(t0)
    8000abac:	555556b7          	lui	a3,0x55555
    8000abb0:	5556869b          	addiw	a3,a3,1365 # 55555555 <absimmsh+0x49a847a8>
    8000abb4:	00c68463          	beq	a3,a2,8000abbc <inst_673>
    8000abb8:	c6cf506f          	j	80000024 <rvtest_error>

000000008000abbc <inst_673>:
    8000abbc:	00000513          	li	a0,0
    8000abc0:	00600593          	li	a1,6
    8000abc4:	40b5063b          	subw	a2,a0,a1
    8000abc8:	46c2bc23          	sd	a2,1144(t0)
    8000abcc:	ffa00693          	li	a3,-6
    8000abd0:	00c68463          	beq	a3,a2,8000abd8 <inst_674>
    8000abd4:	c50f506f          	j	80000024 <rvtest_error>

000000008000abd8 <inst_674>:
    8000abd8:	00000513          	li	a0,0
    8000abdc:	333335b7          	lui	a1,0x33333
    8000abe0:	33358593          	addi	a1,a1,819 # 33333333 <absimmsh+0x27862586>
    8000abe4:	00b59593          	slli	a1,a1,0xb
    8000abe8:	19958593          	addi	a1,a1,409
    8000abec:	00b59593          	slli	a1,a1,0xb
    8000abf0:	4cc58593          	addi	a1,a1,1228
    8000abf4:	00a59593          	slli	a1,a1,0xa
    8000abf8:	33458593          	addi	a1,a1,820
    8000abfc:	40b5063b          	subw	a2,a0,a1
    8000ac00:	48c2b023          	sd	a2,1152(t0)
    8000ac04:	ccccd6b7          	lui	a3,0xccccd
    8000ac08:	ccc6869b          	addiw	a3,a3,-820 # ffffffffcccccccc <absimm+0xffffffff11fbf1fc>
    8000ac0c:	00c68463          	beq	a3,a2,8000ac14 <inst_675>
    8000ac10:	c14f506f          	j	80000024 <rvtest_error>

000000008000ac14 <inst_675>:
    8000ac14:	00000513          	li	a0,0
    8000ac18:	666665b7          	lui	a1,0x66666
    8000ac1c:	66658593          	addi	a1,a1,1638 # 66666666 <absimmsh+0x5ab958b9>
    8000ac20:	00b59593          	slli	a1,a1,0xb
    8000ac24:	33358593          	addi	a1,a1,819
    8000ac28:	00b59593          	slli	a1,a1,0xb
    8000ac2c:	19958593          	addi	a1,a1,409
    8000ac30:	00a59593          	slli	a1,a1,0xa
    8000ac34:	26758593          	addi	a1,a1,615
    8000ac38:	40b5063b          	subw	a2,a0,a1
    8000ac3c:	48c2b423          	sd	a2,1160(t0)
    8000ac40:	9999a6b7          	lui	a3,0x9999a
    8000ac44:	9996869b          	addiw	a3,a3,-1639 # ffffffff99999999 <absimm+0xfffffffedec8bec9>
    8000ac48:	00c68463          	beq	a3,a2,8000ac50 <inst_676>
    8000ac4c:	bd8f506f          	j	80000024 <rvtest_error>

000000008000ac50 <inst_676>:
    8000ac50:	fdf00513          	li	a0,-33
    8000ac54:	fdf00593          	li	a1,-33
    8000ac58:	40b5063b          	subw	a2,a0,a1
    8000ac5c:	48c2b823          	sd	a2,1168(t0)
    8000ac60:	00000693          	li	a3,0
    8000ac64:	00c68463          	beq	a3,a2,8000ac6c <inst_677>
    8000ac68:	bbcf506f          	j	80000024 <rvtest_error>

000000008000ac6c <inst_677>:
    8000ac6c:	33333537          	lui	a0,0x33333
    8000ac70:	33350513          	addi	a0,a0,819 # 33333333 <absimmsh+0x27862586>
    8000ac74:	00b51513          	slli	a0,a0,0xb
    8000ac78:	19950513          	addi	a0,a0,409
    8000ac7c:	00b51513          	slli	a0,a0,0xb
    8000ac80:	4cc50513          	addi	a0,a0,1228
    8000ac84:	00a51513          	slli	a0,a0,0xa
    8000ac88:	33250513          	addi	a0,a0,818
    8000ac8c:	00100593          	li	a1,1
    8000ac90:	01159593          	slli	a1,a1,0x11
    8000ac94:	40b5063b          	subw	a2,a0,a1
    8000ac98:	48c2bc23          	sd	a2,1176(t0)
    8000ac9c:	333136b7          	lui	a3,0x33313
    8000aca0:	3326869b          	addiw	a3,a3,818 # 33313332 <absimmsh+0x27842585>
    8000aca4:	00c68463          	beq	a3,a2,8000acac <cleanup_epilogs>
    8000aca8:	b7cf506f          	j	80000024 <rvtest_error>

000000008000acac <cleanup_epilogs>:
    8000acac:	0380006f          	j	8000ace4 <exit_cleanup>

000000008000acb0 <abort_tests>:
    8000acb0:	1f813483          	ld	s1,504(sp)
    8000acb4:	20013303          	ld	t1,512(sp)
    8000acb8:	00930333          	add	t1,t1,s1
    8000acbc:	00000337          	lui	t1,0x0
    8000acc0:	00030313          	mv	t1,t1
    8000acc4:	00b31313          	slli	t1,t1,0xb
    8000acc8:	5d630313          	addi	t1,t1,1494 # 5d6 <offset+0x136>
    8000accc:	00b31313          	slli	t1,t1,0xb
    8000acd0:	43630313          	addi	t1,t1,1078
    8000acd4:	00a31313          	slli	t1,t1,0xa
    8000acd8:	2d030313          	addi	t1,t1,720
    8000acdc:	fe64be23          	sd	t1,-4(s1)
    8000ace0:	0040006f          	j	8000ace4 <exit_cleanup>

000000008000ace4 <exit_cleanup>:
    8000ace4:	00000513          	li	a0,0
    8000ace8:	0140006f          	j	8000acfc <halt>
	...

000000008000acfc <halt>:
    8000acfc:	00050513          	mv	a0,a0
    8000ad00:	00100073          	ebreak
    8000ad04:	0000006f          	j	8000ad04 <halt+0x8>

000000008000ad08 <_trm_init>:
    8000ad08:	ff010113          	addi	sp,sp,-16
    8000ad0c:	00000517          	auipc	a0,0x0
    8000ad10:	01c50513          	addi	a0,a0,28 # 8000ad28 <_etext>
    8000ad14:	00113423          	sd	ra,8(sp)
    8000ad18:	af8f50ef          	jal	ra,80000010 <main>
    8000ad1c:	00050513          	mv	a0,a0
    8000ad20:	00100073          	ebreak
    8000ad24:	0000006f          	j	8000ad24 <_trm_init+0x1c>
