
/home/maveric/ics2023/riscv-arch-test-am/build/xor-riscv64-nemu.elf:     file format elf64-littleriscv


Disassembly of section .text:

0000000080000000 <_start>:
    80000000:	00000413          	li	s0,0
    80000004:	00019117          	auipc	sp,0x19
    80000008:	ffc10113          	addi	sp,sp,-4 # 80019000 <_end>
    8000000c:	1740d0ef          	jal	ra,8000d180 <_trm_init>

0000000080000010 <main>:
    80000010:	030000ef          	jal	ra,80000040 <rvtest_entry_point>
    80000014:	00100513          	li	a0,1
    80000018:	15c0d0ef          	jal	ra,8000d174 <halt>
    8000001c:	00000513          	li	a0,0
    80000020:	00008067          	ret

0000000080000024 <rvtest_error>:
    80000024:	00100513          	li	a0,1
    80000028:	14c0d0ef          	jal	ra,8000d174 <halt>
    8000002c:	00008067          	ret
	...

0000000080000040 <rvtest_entry_point>:
    80000040:	feedc0b7          	lui	ra,0xfeedc
    80000044:	ead08093          	addi	ra,ra,-339 # fffffffffeedbead <absimm+0xffffffff441ce3dd>
    80000048:	00b09093          	slli	ra,ra,0xb
    8000004c:	7f708093          	addi	ra,ra,2039
    80000050:	00b09093          	slli	ra,ra,0xb
    80000054:	36f08093          	addi	ra,ra,879
    80000058:	00a09093          	slli	ra,ra,0xa
    8000005c:	2ad08093          	addi	ra,ra,685
    80000060:	ff76e137          	lui	sp,0xff76e
    80000064:	f5610113          	addi	sp,sp,-170 # ffffffffff76df56 <absimm+0xffffffff44a60486>
    80000068:	00b11113          	slli	sp,sp,0xb
    8000006c:	7fb10113          	addi	sp,sp,2043
    80000070:	00b11113          	slli	sp,sp,0xb
    80000074:	5b710113          	addi	sp,sp,1463
    80000078:	00a11113          	slli	sp,sp,0xa
    8000007c:	35610113          	addi	sp,sp,854
    80000080:	7fbb71b7          	lui	gp,0x7fbb7
    80000084:	fab18193          	addi	gp,gp,-85 # 7fbb6fab <absimmsh+0x740e61fe>
    80000088:	00b19193          	slli	gp,gp,0xb
    8000008c:	3fd18193          	addi	gp,gp,1021
    80000090:	00b19193          	slli	gp,gp,0xb
    80000094:	6db18193          	addi	gp,gp,1755
    80000098:	00a19193          	slli	gp,gp,0xa
    8000009c:	3ab18193          	addi	gp,gp,939
    800000a0:	bfddb237          	lui	tp,0xbfddb
    800000a4:	7d520213          	addi	tp,tp,2005 # ffffffffbfddb7d5 <absimm+0xffffffff050cdd05>
    800000a8:	00b21213          	slli	tp,tp,0xb
    800000ac:	5fe20213          	addi	tp,tp,1534 # 5fe <offset+0x1e6>
    800000b0:	00b21213          	slli	tp,tp,0xb
    800000b4:	76d20213          	addi	tp,tp,1901 # 76d <offset+0x355>
    800000b8:	00a21213          	slli	tp,tp,0xa
    800000bc:	3d520213          	addi	tp,tp,981 # 3d5 <pos+0x395>
    800000c0:	dfeee2b7          	lui	t0,0xdfeee
    800000c4:	bea28293          	addi	t0,t0,-1046 # ffffffffdfeedbea <absimm+0xffffffff251e011a>
    800000c8:	00b29293          	slli	t0,t0,0xb
    800000cc:	6ff28293          	addi	t0,t0,1791
    800000d0:	00b29293          	slli	t0,t0,0xb
    800000d4:	3b628293          	addi	t0,t0,950
    800000d8:	00a29293          	slli	t0,t0,0xa
    800000dc:	3ea28293          	addi	t0,t0,1002
    800000e0:	6ff77337          	lui	t1,0x6ff77
    800000e4:	df530313          	addi	t1,t1,-523 # 6ff76df5 <absimmsh+0x644a6048>
    800000e8:	00b31313          	slli	t1,t1,0xb
    800000ec:	37f30313          	addi	t1,t1,895
    800000f0:	00b31313          	slli	t1,t1,0xb
    800000f4:	5db30313          	addi	t1,t1,1499
    800000f8:	00a31313          	slli	t1,t1,0xa
    800000fc:	1f530313          	addi	t1,t1,501
    80000100:	b7fbb3b7          	lui	t2,0xb7fbb
    80000104:	6fa38393          	addi	t2,t2,1786 # ffffffffb7fbb6fa <absimm+0xfffffffefd2adc2a>
    80000108:	00b39393          	slli	t2,t2,0xb
    8000010c:	5bf38393          	addi	t2,t2,1471
    80000110:	00b39393          	slli	t2,t2,0xb
    80000114:	6ed38393          	addi	t2,t2,1773
    80000118:	00a39393          	slli	t2,t2,0xa
    8000011c:	2fa38393          	addi	t2,t2,762
    80000120:	5bfde437          	lui	s0,0x5bfde
    80000124:	b7d40413          	addi	s0,s0,-1155 # 5bfddb7d <absimmsh+0x5050cdd0>
    80000128:	00b41413          	slli	s0,s0,0xb
    8000012c:	2df40413          	addi	s0,s0,735
    80000130:	00b41413          	slli	s0,s0,0xb
    80000134:	77640413          	addi	s0,s0,1910
    80000138:	00a41413          	slli	s0,s0,0xa
    8000013c:	37d40413          	addi	s0,s0,893
    80000140:	adfef4b7          	lui	s1,0xadfef
    80000144:	dbe48493          	addi	s1,s1,-578 # ffffffffadfeedbe <absimm+0xfffffffef32e12ee>
    80000148:	00b49493          	slli	s1,s1,0xb
    8000014c:	56f48493          	addi	s1,s1,1391
    80000150:	00b49493          	slli	s1,s1,0xb
    80000154:	7bb48493          	addi	s1,s1,1979
    80000158:	00a49493          	slli	s1,s1,0xa
    8000015c:	1be48493          	addi	s1,s1,446
    80000160:	56ff7537          	lui	a0,0x56ff7
    80000164:	6df50513          	addi	a0,a0,1759 # 56ff76df <absimmsh+0x4b526932>
    80000168:	00b51513          	slli	a0,a0,0xb
    8000016c:	2b750513          	addi	a0,a0,695
    80000170:	00b51513          	slli	a0,a0,0xb
    80000174:	7dd50513          	addi	a0,a0,2013
    80000178:	00a51513          	slli	a0,a0,0xa
    8000017c:	2df50513          	addi	a0,a0,735
    80000180:	ab7fc5b7          	lui	a1,0xab7fc
    80000184:	b6f58593          	addi	a1,a1,-1169 # ffffffffab7fbb6f <absimm+0xfffffffef0aee09f>
    80000188:	00b59593          	slli	a1,a1,0xb
    8000018c:	55b58593          	addi	a1,a1,1371
    80000190:	00b59593          	slli	a1,a1,0xb
    80000194:	7ee58593          	addi	a1,a1,2030
    80000198:	00a59593          	slli	a1,a1,0xa
    8000019c:	36f58593          	addi	a1,a1,879
    800001a0:	d5bfe637          	lui	a2,0xd5bfe
    800001a4:	db760613          	addi	a2,a2,-585 # ffffffffd5bfddb7 <absimm+0xffffffff1aef02e7>
    800001a8:	00b61613          	slli	a2,a2,0xb
    800001ac:	6ad60613          	addi	a2,a2,1709
    800001b0:	00b61613          	slli	a2,a2,0xb
    800001b4:	7f760613          	addi	a2,a2,2039
    800001b8:	00a61613          	slli	a2,a2,0xa
    800001bc:	1b760613          	addi	a2,a2,439
    800001c0:	eadff6b7          	lui	a3,0xeadff
    800001c4:	edb68693          	addi	a3,a3,-293 # ffffffffeadfeedb <absimm+0xffffffff300f140b>
    800001c8:	00b69693          	slli	a3,a3,0xb
    800001cc:	75668693          	addi	a3,a3,1878
    800001d0:	00b69693          	slli	a3,a3,0xb
    800001d4:	7fb68693          	addi	a3,a3,2043
    800001d8:	00a69693          	slli	a3,a3,0xa
    800001dc:	2db68693          	addi	a3,a3,731
    800001e0:	f56ff737          	lui	a4,0xf56ff
    800001e4:	76d70713          	addi	a4,a4,1901 # fffffffff56ff76d <absimm+0xffffffff3a9f1c9d>
    800001e8:	00b71713          	slli	a4,a4,0xb
    800001ec:	7ab70713          	addi	a4,a4,1963
    800001f0:	00b71713          	slli	a4,a4,0xb
    800001f4:	3fd70713          	addi	a4,a4,1021
    800001f8:	00a71713          	slli	a4,a4,0xa
    800001fc:	36d70713          	addi	a4,a4,877
    80000200:	fab807b7          	lui	a5,0xfab80
    80000204:	bb678793          	addi	a5,a5,-1098 # fffffffffab7fbb6 <absimm+0xffffffff3fe720e6>
    80000208:	00b79793          	slli	a5,a5,0xb
    8000020c:	7d578793          	addi	a5,a5,2005
    80000210:	00b79793          	slli	a5,a5,0xb
    80000214:	5fe78793          	addi	a5,a5,1534
    80000218:	00a79793          	slli	a5,a5,0xa
    8000021c:	3b678793          	addi	a5,a5,950
    80000220:	7d5c0837          	lui	a6,0x7d5c0
    80000224:	ddb80813          	addi	a6,a6,-549 # 7d5bfddb <absimmsh+0x71aef02e>
    80000228:	00b81813          	slli	a6,a6,0xb
    8000022c:	3ea80813          	addi	a6,a6,1002
    80000230:	00b81813          	slli	a6,a6,0xb
    80000234:	6ff80813          	addi	a6,a6,1791
    80000238:	00a81813          	slli	a6,a6,0xa
    8000023c:	1db80813          	addi	a6,a6,475
    80000240:	beae08b7          	lui	a7,0xbeae0
    80000244:	eed88893          	addi	a7,a7,-275 # ffffffffbeadfeed <absimm+0xffffffff03dd241d>
    80000248:	00b89893          	slli	a7,a7,0xb
    8000024c:	5f588893          	addi	a7,a7,1525
    80000250:	00b89893          	slli	a7,a7,0xb
    80000254:	37f88893          	addi	a7,a7,895
    80000258:	00a89893          	slli	a7,a7,0xa
    8000025c:	2ed88893          	addi	a7,a7,749
    80000260:	df570937          	lui	s2,0xdf570
    80000264:	f7690913          	addi	s2,s2,-138 # ffffffffdf56ff76 <absimm+0xffffffff248624a6>
    80000268:	00b91913          	slli	s2,s2,0xb
    8000026c:	6fa90913          	addi	s2,s2,1786
    80000270:	00b91913          	slli	s2,s2,0xb
    80000274:	5bf90913          	addi	s2,s2,1471
    80000278:	00a91913          	slli	s2,s2,0xa
    8000027c:	37690913          	addi	s2,s2,886
    80000280:	6fab89b7          	lui	s3,0x6fab8
    80000284:	fbb98993          	addi	s3,s3,-69 # 6fab7fbb <absimmsh+0x63fe720e>
    80000288:	00b99993          	slli	s3,s3,0xb
    8000028c:	37d98993          	addi	s3,s3,893
    80000290:	00b99993          	slli	s3,s3,0xb
    80000294:	2df98993          	addi	s3,s3,735
    80000298:	00a99993          	slli	s3,s3,0xa
    8000029c:	3bb98993          	addi	s3,s3,955
    800002a0:	b7d5ca37          	lui	s4,0xb7d5c
    800002a4:	fdda0a13          	addi	s4,s4,-35 # ffffffffb7d5bfdd <absimm+0xfffffffefd04e50d>
    800002a8:	00ba1a13          	slli	s4,s4,0xb
    800002ac:	5bea0a13          	addi	s4,s4,1470
    800002b0:	00ba1a13          	slli	s4,s4,0xb
    800002b4:	56fa0a13          	addi	s4,s4,1391
    800002b8:	00aa1a13          	slli	s4,s4,0xa
    800002bc:	3dda0a13          	addi	s4,s4,989
    800002c0:	dbeaeab7          	lui	s5,0xdbeae
    800002c4:	feea8a93          	addi	s5,s5,-18 # ffffffffdbeadfee <absimm+0xffffffff211a051e>
    800002c8:	00ba9a93          	slli	s5,s5,0xb
    800002cc:	6dfa8a93          	addi	s5,s5,1759
    800002d0:	00ba9a93          	slli	s5,s5,0xb
    800002d4:	2b7a8a93          	addi	s5,s5,695
    800002d8:	00aa9a93          	slli	s5,s5,0xa
    800002dc:	3eea8a93          	addi	s5,s5,1006
    800002e0:	6df57b37          	lui	s6,0x6df57
    800002e4:	ff7b0b13          	addi	s6,s6,-9 # 6df56ff7 <absimmsh+0x6248624a>
    800002e8:	00bb1b13          	slli	s6,s6,0xb
    800002ec:	36fb0b13          	addi	s6,s6,879
    800002f0:	00bb1b13          	slli	s6,s6,0xb
    800002f4:	55bb0b13          	addi	s6,s6,1371
    800002f8:	00ab1b13          	slli	s6,s6,0xa
    800002fc:	3f7b0b13          	addi	s6,s6,1015
    80000300:	b6fabbb7          	lui	s7,0xb6fab
    80000304:	7fbb8b93          	addi	s7,s7,2043 # ffffffffb6fab7fb <absimm+0xfffffffefc29dd2b>
    80000308:	00bb9b93          	slli	s7,s7,0xb
    8000030c:	5b7b8b93          	addi	s7,s7,1463
    80000310:	00bb9b93          	slli	s7,s7,0xb
    80000314:	6adb8b93          	addi	s7,s7,1709
    80000318:	00ab9b93          	slli	s7,s7,0xa
    8000031c:	3fbb8b93          	addi	s7,s7,1019
    80000320:	db7d6c37          	lui	s8,0xdb7d6
    80000324:	bfdc0c13          	addi	s8,s8,-1027 # ffffffffdb7d5bfd <absimm+0xffffffff20ac812d>
    80000328:	00bc1c13          	slli	s8,s8,0xb
    8000032c:	6dbc0c13          	addi	s8,s8,1755
    80000330:	00bc1c13          	slli	s8,s8,0xb
    80000334:	756c0c13          	addi	s8,s8,1878
    80000338:	00ac1c13          	slli	s8,s8,0xa
    8000033c:	3fdc0c13          	addi	s8,s8,1021
    80000340:	edbebcb7          	lui	s9,0xedbeb
    80000344:	dfec8c93          	addi	s9,s9,-514 # ffffffffedbeadfe <absimm+0xffffffff32edd32e>
    80000348:	00bc9c93          	slli	s9,s9,0xb
    8000034c:	76dc8c93          	addi	s9,s9,1901
    80000350:	00bc9c93          	slli	s9,s9,0xb
    80000354:	7abc8c93          	addi	s9,s9,1963
    80000358:	00ac9c93          	slli	s9,s9,0xa
    8000035c:	1fec8c93          	addi	s9,s9,510
    80000360:	76df5d37          	lui	s10,0x76df5
    80000364:	6ffd0d13          	addi	s10,s10,1791 # 76df56ff <absimmsh+0x6b324952>
    80000368:	00bd1d13          	slli	s10,s10,0xb
    8000036c:	3b6d0d13          	addi	s10,s10,950
    80000370:	00bd1d13          	slli	s10,s10,0xb
    80000374:	7d5d0d13          	addi	s10,s10,2005
    80000378:	00ad1d13          	slli	s10,s10,0xa
    8000037c:	2ffd0d13          	addi	s10,s10,767
    80000380:	bb6fbdb7          	lui	s11,0xbb6fb
    80000384:	b7fd8d93          	addi	s11,s11,-1153 # ffffffffbb6fab7f <absimm+0xffffffff009ed0af>
    80000388:	00bd9d93          	slli	s11,s11,0xb
    8000038c:	5dbd8d93          	addi	s11,s11,1499
    80000390:	00bd9d93          	slli	s11,s11,0xb
    80000394:	3ead8d93          	addi	s11,s11,1002
    80000398:	00ad9d93          	slli	s11,s11,0xa
    8000039c:	37fd8d93          	addi	s11,s11,895
    800003a0:	ddb7de37          	lui	t3,0xddb7d
    800003a4:	5bfe0e13          	addi	t3,t3,1471 # ffffffffddb7d5bf <absimm+0xffffffff22e6faef>
    800003a8:	00be1e13          	slli	t3,t3,0xb
    800003ac:	6ede0e13          	addi	t3,t3,1773
    800003b0:	00be1e13          	slli	t3,t3,0xb
    800003b4:	5f5e0e13          	addi	t3,t3,1525
    800003b8:	00ae1e13          	slli	t3,t3,0xa
    800003bc:	1bfe0e13          	addi	t3,t3,447
    800003c0:	eedbfeb7          	lui	t4,0xeedbf
    800003c4:	adfe8e93          	addi	t4,t4,-1313 # ffffffffeedbeadf <absimm+0xffffffff340b100f>
    800003c8:	00be9e93          	slli	t4,t4,0xb
    800003cc:	776e8e93          	addi	t4,t4,1910
    800003d0:	00be9e93          	slli	t4,t4,0xb
    800003d4:	6fae8e93          	addi	t4,t4,1786
    800003d8:	00ae9e93          	slli	t4,t4,0xa
    800003dc:	2dfe8e93          	addi	t4,t4,735
    800003e0:	f76dff37          	lui	t5,0xf76df
    800003e4:	56ff0f13          	addi	t5,t5,1391 # fffffffff76df56f <absimm+0xffffffff3c9d1a9f>
    800003e8:	00bf1f13          	slli	t5,t5,0xb
    800003ec:	7bbf0f13          	addi	t5,t5,1979
    800003f0:	00bf1f13          	slli	t5,t5,0xb
    800003f4:	37df0f13          	addi	t5,t5,893
    800003f8:	00af1f13          	slli	t5,t5,0xa
    800003fc:	16ff0f13          	addi	t5,t5,367
    80000400:	fbb70fb7          	lui	t6,0xfbb70
    80000404:	ab7f8f93          	addi	t6,t6,-1353 # fffffffffbb6fab7 <absimm+0xffffffff40e61fe7>
    80000408:	00bf9f93          	slli	t6,t6,0xb
    8000040c:	7ddf8f93          	addi	t6,t6,2013
    80000410:	00bf9f93          	slli	t6,t6,0xb
    80000414:	5bef8f93          	addi	t6,t6,1470
    80000418:	00af9f93          	slli	t6,t6,0xa
    8000041c:	2b7f8f93          	addi	t6,t6,695

0000000080000420 <rvtest_code_begin>:
    80000420:	0000f497          	auipc	s1,0xf
    80000424:	be848493          	addi	s1,s1,-1048 # 8000f008 <signature_x9_0>
    80000428:	00000013          	nop
    8000042c:	00000013          	nop
    80000430:	00000013          	nop
    80000434:	00000013          	nop
    80000438:	00000013          	nop
    8000043c:	00000013          	nop

0000000080000440 <inst_0>:
    80000440:	00100993          	li	s3,1
    80000444:	03699993          	slli	s3,s3,0x36
    80000448:	00100993          	li	s3,1
    8000044c:	03699993          	slli	s3,s3,0x36
    80000450:	0139c633          	xor	a2,s3,s3
    80000454:	00c4b023          	sd	a2,0(s1)
    80000458:	00000293          	li	t0,0
    8000045c:	00c28463          	beq	t0,a2,80000464 <inst_1>
    80000460:	bc5ff06f          	j	80000024 <rvtest_error>

0000000080000464 <inst_1>:
    80000464:	00500e13          	li	t3,5
    80000468:	00100113          	li	sp,1
    8000046c:	02911113          	slli	sp,sp,0x29
    80000470:	fff14113          	not	sp,sp
    80000474:	002e4133          	xor	sp,t3,sp
    80000478:	0024b423          	sd	sp,8(s1)
    8000047c:	fff0029b          	addiw	t0,zero,-1
    80000480:	02929293          	slli	t0,t0,0x29
    80000484:	ffa28293          	addi	t0,t0,-6
    80000488:	00228463          	beq	t0,sp,80000490 <inst_2>
    8000048c:	b99ff06f          	j	80000024 <rvtest_error>

0000000080000490 <inst_2>:
    80000490:	00100f93          	li	t6,1
    80000494:	022f9f93          	slli	t6,t6,0x22
    80000498:	ffffcf93          	not	t6,t6
    8000049c:	00100f93          	li	t6,1
    800004a0:	022f9f93          	slli	t6,t6,0x22
    800004a4:	ffffcf93          	not	t6,t6
    800004a8:	01ffcfb3          	xor	t6,t6,t6
    800004ac:	01f4b823          	sd	t6,16(s1)
    800004b0:	00000293          	li	t0,0
    800004b4:	01f28463          	beq	t0,t6,800004bc <inst_3>
    800004b8:	b6dff06f          	j	80000024 <rvtest_error>

00000000800004bc <inst_3>:
    800004bc:	00100593          	li	a1,1
    800004c0:	01459593          	slli	a1,a1,0x14
    800004c4:	fff5c593          	not	a1,a1
    800004c8:	00100c93          	li	s9,1
    800004cc:	037c9c93          	slli	s9,s9,0x37
    800004d0:	0195c533          	xor	a0,a1,s9
    800004d4:	00a4bc23          	sd	a0,24(s1)
    800004d8:	fff0029b          	addiw	t0,zero,-1
    800004dc:	02329293          	slli	t0,t0,0x23
    800004e0:	fff28293          	addi	t0,t0,-1
    800004e4:	01429293          	slli	t0,t0,0x14
    800004e8:	fff28293          	addi	t0,t0,-1
    800004ec:	00a28463          	beq	t0,a0,800004f4 <inst_4>
    800004f0:	b35ff06f          	j	80000024 <rvtest_error>

00000000800004f4 <inst_4>:
    800004f4:	00100893          	li	a7,1
    800004f8:	01b89893          	slli	a7,a7,0x1b
    800004fc:	00100a13          	li	s4,1
    80000500:	01ba1a13          	slli	s4,s4,0x1b
    80000504:	0148c8b3          	xor	a7,a7,s4
    80000508:	0314b023          	sd	a7,32(s1)
    8000050c:	00000293          	li	t0,0
    80000510:	01128463          	beq	t0,a7,80000518 <inst_5>
    80000514:	b11ff06f          	j	80000024 <rvtest_error>

0000000080000518 <inst_5>:
    80000518:	00500c13          	li	s8,5
    8000051c:	fff00b13          	li	s6,-1
    80000520:	03fb1b13          	slli	s6,s6,0x3f
    80000524:	016c41b3          	xor	gp,s8,s6
    80000528:	0234b423          	sd	gp,40(s1)
    8000052c:	fff0029b          	addiw	t0,zero,-1
    80000530:	03f29293          	slli	t0,t0,0x3f
    80000534:	00528293          	addi	t0,t0,5
    80000538:	00328463          	beq	t0,gp,80000540 <inst_6>
    8000053c:	ae9ff06f          	j	80000024 <rvtest_error>

0000000080000540 <inst_6>:
    80000540:	00200413          	li	s0,2
    80000544:	00000193          	li	gp,0
    80000548:	00344b33          	xor	s6,s0,gp
    8000054c:	0364b823          	sd	s6,48(s1)
    80000550:	00200293          	li	t0,2
    80000554:	01628463          	beq	t0,s6,8000055c <inst_7>
    80000558:	acdff06f          	j	80000024 <rvtest_error>

000000008000055c <inst_7>:
    8000055c:	00100513          	li	a0,1
    80000560:	03851513          	slli	a0,a0,0x38
    80000564:	fff54513          	not	a0,a0
    80000568:	fff00713          	li	a4,-1
    8000056c:	00175713          	srli	a4,a4,0x1
    80000570:	00e54c33          	xor	s8,a0,a4
    80000574:	0384bc23          	sd	s8,56(s1)
    80000578:	f810029b          	addiw	t0,zero,-127
    8000057c:	03829293          	slli	t0,t0,0x38
    80000580:	01828463          	beq	t0,s8,80000588 <inst_8>
    80000584:	aa1ff06f          	j	80000024 <rvtest_error>

0000000080000588 <inst_8>:
    80000588:	00100113          	li	sp,1
    8000058c:	03011113          	slli	sp,sp,0x30
    80000590:	fff14113          	not	sp,sp
    80000594:	00100213          	li	tp,1
    80000598:	004147b3          	xor	a5,sp,tp
    8000059c:	04f4b023          	sd	a5,64(s1)
    800005a0:	fff0029b          	addiw	t0,zero,-1
    800005a4:	03029293          	slli	t0,t0,0x30
    800005a8:	ffe28293          	addi	t0,t0,-2
    800005ac:	00f28463          	beq	t0,a5,800005b4 <inst_9>
    800005b0:	a75ff06f          	j	80000024 <rvtest_error>

00000000800005b4 <inst_9>:
    800005b4:	fff00a93          	li	s5,-1
    800005b8:	03fa9a93          	slli	s5,s5,0x3f
    800005bc:	00400e93          	li	t4,4
    800005c0:	01dacbb3          	xor	s7,s5,t4
    800005c4:	0574b423          	sd	s7,72(s1)
    800005c8:	fff0029b          	addiw	t0,zero,-1
    800005cc:	03f29293          	slli	t0,t0,0x3f
    800005d0:	00428293          	addi	t0,t0,4
    800005d4:	01728463          	beq	t0,s7,800005dc <inst_10>
    800005d8:	a4dff06f          	j	80000024 <rvtest_error>

00000000800005dc <inst_10>:
    800005dc:	00000013          	nop
    800005e0:	00100393          	li	t2,1
    800005e4:	00e39393          	slli	t2,t2,0xe
    800005e8:	fff3c393          	not	t2,t2
    800005ec:	007045b3          	xor	a1,zero,t2
    800005f0:	04b4b823          	sd	a1,80(s1)
    800005f4:	ffffc2b7          	lui	t0,0xffffc
    800005f8:	fff2829b          	addiw	t0,t0,-1 # ffffffffffffbfff <absimm+0xffffffff452ee52f>
    800005fc:	00b28463          	beq	t0,a1,80000604 <inst_11>
    80000600:	a25ff06f          	j	80000024 <rvtest_error>

0000000080000604 <inst_11>:
    80000604:	fff00913          	li	s2,-1
    80000608:	00195913          	srli	s2,s2,0x1
    8000060c:	00700813          	li	a6,7
    80000610:	01094033          	xor	zero,s2,a6
    80000614:	0404bc23          	sd	zero,88(s1)
    80000618:	00000293          	li	t0,0
    8000061c:	00028463          	beqz	t0,80000624 <inst_12>
    80000620:	a05ff06f          	j	80000024 <rvtest_error>

0000000080000624 <inst_12>:
    80000624:	00100c93          	li	s9,1
    80000628:	00100d93          	li	s11,1
    8000062c:	017d9d93          	slli	s11,s11,0x17
    80000630:	01bcc733          	xor	a4,s9,s11
    80000634:	06e4b023          	sd	a4,96(s1)
    80000638:	008002b7          	lui	t0,0x800
    8000063c:	0012829b          	addiw	t0,t0,1 # 800001 <offset+0x7ffbe9>
    80000640:	00e28463          	beq	t0,a4,80000648 <inst_13>
    80000644:	9e1ff06f          	j	80000024 <rvtest_error>

0000000080000648 <inst_13>:
    80000648:	00100f13          	li	t5,1
    8000064c:	025f1f13          	slli	t5,t5,0x25
    80000650:	00200b93          	li	s7,2
    80000654:	017f4eb3          	xor	t4,t5,s7
    80000658:	07d4b423          	sd	t4,104(s1)
    8000065c:	0010029b          	addiw	t0,zero,1
    80000660:	02529293          	slli	t0,t0,0x25
    80000664:	00228293          	addi	t0,t0,2
    80000668:	01d28463          	beq	t0,t4,80000670 <inst_14>
    8000066c:	9b9ff06f          	j	80000024 <rvtest_error>

0000000080000670 <inst_14>:
    80000670:	00600313          	li	t1,6
    80000674:	00800093          	li	ra,8
    80000678:	00134e33          	xor	t3,t1,ra
    8000067c:	07c4b823          	sd	t3,112(s1)
    80000680:	00e00293          	li	t0,14
    80000684:	01c28463          	beq	t0,t3,8000068c <inst_15>
    80000688:	99dff06f          	j	80000024 <rvtest_error>

000000008000068c <inst_15>:
    8000068c:	00100613          	li	a2,1
    80000690:	03261613          	slli	a2,a2,0x32
    80000694:	01000293          	li	t0,16
    80000698:	005649b3          	xor	s3,a2,t0
    8000069c:	0734bc23          	sd	s3,120(s1)
    800006a0:	0010059b          	addiw	a1,zero,1
    800006a4:	03259593          	slli	a1,a1,0x32
    800006a8:	01058593          	addi	a1,a1,16
    800006ac:	01358463          	beq	a1,s3,800006b4 <inst_15+0x28>
    800006b0:	975ff06f          	j	80000024 <rvtest_error>
    800006b4:	00000013          	nop
    800006b8:	00000013          	nop
    800006bc:	00000013          	nop
    800006c0:	0000f117          	auipc	sp,0xf
    800006c4:	9c810113          	addi	sp,sp,-1592 # 8000f088 <signature_x2_0>
    800006c8:	00000013          	nop
    800006cc:	00000013          	nop
    800006d0:	00000013          	nop
    800006d4:	00000013          	nop
    800006d8:	00000013          	nop
    800006dc:	00000013          	nop

00000000800006e0 <inst_16>:
    800006e0:	ffb00a13          	li	s4,-5
    800006e4:	02000413          	li	s0,32
    800006e8:	008a40b3          	xor	ra,s4,s0
    800006ec:	00113023          	sd	ra,0(sp)
    800006f0:	fdb00593          	li	a1,-37
    800006f4:	00158463          	beq	a1,ra,800006fc <inst_17>
    800006f8:	92dff06f          	j	80000024 <rvtest_error>

00000000800006fc <inst_17>:
    800006fc:	00100093          	li	ra,1
    80000700:	02609093          	slli	ra,ra,0x26
    80000704:	04000893          	li	a7,64
    80000708:	0110c6b3          	xor	a3,ra,a7
    8000070c:	00d13423          	sd	a3,8(sp)
    80000710:	0010059b          	addiw	a1,zero,1
    80000714:	02659593          	slli	a1,a1,0x26
    80000718:	04058593          	addi	a1,a1,64
    8000071c:	00d58463          	beq	a1,a3,80000724 <inst_18>
    80000720:	905ff06f          	j	80000024 <rvtest_error>

0000000080000724 <inst_18>:
    80000724:	00100393          	li	t2,1
    80000728:	01839393          	slli	t2,t2,0x18
    8000072c:	fff3c393          	not	t2,t2
    80000730:	08000e13          	li	t3,128
    80000734:	01c3cab3          	xor	s5,t2,t3
    80000738:	01513823          	sd	s5,16(sp)
    8000073c:	ff0005b7          	lui	a1,0xff000
    80000740:	f7f5859b          	addiw	a1,a1,-129 # fffffffffeffff7f <absimm+0xffffffff442f24af>
    80000744:	01558463          	beq	a1,s5,8000074c <inst_19>
    80000748:	8ddff06f          	j	80000024 <rvtest_error>

000000008000074c <inst_19>:
    8000074c:	00100713          	li	a4,1
    80000750:	03771713          	slli	a4,a4,0x37
    80000754:	fff74713          	not	a4,a4
    80000758:	10000493          	li	s1,256
    8000075c:	009743b3          	xor	t2,a4,s1
    80000760:	00713c23          	sd	t2,24(sp)
    80000764:	fff0059b          	addiw	a1,zero,-1
    80000768:	03759593          	slli	a1,a1,0x37
    8000076c:	eff58593          	addi	a1,a1,-257
    80000770:	00758463          	beq	a1,t2,80000778 <inst_20>
    80000774:	8b1ff06f          	j	80000024 <rvtest_error>

0000000080000778 <inst_20>:
    80000778:	00100213          	li	tp,1
    8000077c:	02621213          	slli	tp,tp,0x26
    80000780:	20000a93          	li	s5,512
    80000784:	01524cb3          	xor	s9,tp,s5
    80000788:	03913023          	sd	s9,32(sp)
    8000078c:	0010059b          	addiw	a1,zero,1
    80000790:	02659593          	slli	a1,a1,0x26
    80000794:	20058593          	addi	a1,a1,512
    80000798:	01958463          	beq	a1,s9,800007a0 <inst_21>
    8000079c:	889ff06f          	j	80000024 <rvtest_error>

00000000800007a0 <inst_21>:
    800007a0:	00100b13          	li	s6,1
    800007a4:	013b1b13          	slli	s6,s6,0x13
    800007a8:	00000013          	nop
    800007ac:	000b42b3          	xor	t0,s6,zero
    800007b0:	02513423          	sd	t0,40(sp)
    800007b4:	000805b7          	lui	a1,0x80
    800007b8:	00558463          	beq	a1,t0,800007c0 <inst_22>
    800007bc:	869ff06f          	j	80000024 <rvtest_error>

00000000800007c0 <inst_22>:
    800007c0:	20000293          	li	t0,512
    800007c4:	00100f13          	li	t5,1
    800007c8:	00bf1f13          	slli	t5,t5,0xb
    800007cc:	01e2c233          	xor	tp,t0,t5
    800007d0:	02413823          	sd	tp,48(sp)
    800007d4:	000015b7          	lui	a1,0x1
    800007d8:	a005859b          	addiw	a1,a1,-1536 # a00 <offset+0x5e8>
    800007dc:	00458463          	beq	a1,tp,800007e4 <inst_23>
    800007e0:	845ff06f          	j	80000024 <rvtest_error>

00000000800007e4 <inst_23>:
    800007e4:	00700813          	li	a6,7
    800007e8:	00100793          	li	a5,1
    800007ec:	00c79793          	slli	a5,a5,0xc
    800007f0:	00f84f33          	xor	t5,a6,a5
    800007f4:	03e13c23          	sd	t5,56(sp)
    800007f8:	000015b7          	lui	a1,0x1
    800007fc:	0075859b          	addiw	a1,a1,7 # 1007 <offset+0xbef>
    80000800:	01e58463          	beq	a1,t5,80000808 <inst_24>
    80000804:	821ff06f          	j	80000024 <rvtest_error>

0000000080000808 <inst_24>:
    80000808:	00100693          	li	a3,1
    8000080c:	01c69693          	slli	a3,a3,0x1c
    80000810:	00100613          	li	a2,1
    80000814:	00d61613          	slli	a2,a2,0xd
    80000818:	00c6c833          	xor	a6,a3,a2
    8000081c:	05013023          	sd	a6,64(sp)
    80000820:	100025b7          	lui	a1,0x10002
    80000824:	01058463          	beq	a1,a6,8000082c <inst_25>
    80000828:	ffcff06f          	j	80000024 <rvtest_error>

000000008000082c <inst_25>:
    8000082c:	ff800793          	li	a5,-8
    80000830:	00100513          	li	a0,1
    80000834:	00e51513          	slli	a0,a0,0xe
    80000838:	00a7c4b3          	xor	s1,a5,a0
    8000083c:	04913423          	sd	s1,72(sp)
    80000840:	ffffc5b7          	lui	a1,0xffffc
    80000844:	ff85859b          	addiw	a1,a1,-8 # ffffffffffffbff8 <absimm+0xffffffff452ee528>
    80000848:	00958463          	beq	a1,s1,80000850 <inst_26>
    8000084c:	fd8ff06f          	j	80000024 <rvtest_error>

0000000080000850 <inst_26>:
    80000850:	00100e93          	li	t4,1
    80000854:	018e9e93          	slli	t4,t4,0x18
    80000858:	00100313          	li	t1,1
    8000085c:	00f31313          	slli	t1,t1,0xf
    80000860:	006ec933          	xor	s2,t4,t1
    80000864:	05213823          	sd	s2,80(sp)
    80000868:	010085b7          	lui	a1,0x1008
    8000086c:	01258463          	beq	a1,s2,80000874 <inst_27>
    80000870:	fb4ff06f          	j	80000024 <rvtest_error>

0000000080000874 <inst_27>:
    80000874:	00600d93          	li	s11,6
    80000878:	00100c13          	li	s8,1
    8000087c:	010c1c13          	slli	s8,s8,0x10
    80000880:	018dc333          	xor	t1,s11,s8
    80000884:	04613c23          	sd	t1,88(sp)
    80000888:	000105b7          	lui	a1,0x10
    8000088c:	0065859b          	addiw	a1,a1,6 # 10006 <offset+0xfbee>
    80000890:	00658463          	beq	a1,t1,80000898 <inst_28>
    80000894:	f90ff06f          	j	80000024 <rvtest_error>

0000000080000898 <inst_28>:
    80000898:	666661b7          	lui	gp,0x66666
    8000089c:	66618193          	addi	gp,gp,1638 # 66666666 <absimmsh+0x5ab958b9>
    800008a0:	00b19193          	slli	gp,gp,0xb
    800008a4:	33318193          	addi	gp,gp,819
    800008a8:	00b19193          	slli	gp,gp,0xb
    800008ac:	19918193          	addi	gp,gp,409
    800008b0:	00a19193          	slli	gp,gp,0xa
    800008b4:	26518193          	addi	gp,gp,613
    800008b8:	00100d13          	li	s10,1
    800008bc:	011d1d13          	slli	s10,s10,0x11
    800008c0:	01a1c433          	xor	s0,gp,s10
    800008c4:	06813023          	sd	s0,96(sp)
    800008c8:	033335b7          	lui	a1,0x3333
    800008cc:	3335859b          	addiw	a1,a1,819 # 3333333 <offset+0x3332f1b>
    800008d0:	00c59593          	slli	a1,a1,0xc
    800008d4:	33358593          	addi	a1,a1,819
    800008d8:	00c59593          	slli	a1,a1,0xc
    800008dc:	32358593          	addi	a1,a1,803
    800008e0:	00d59593          	slli	a1,a1,0xd
    800008e4:	66558593          	addi	a1,a1,1637
    800008e8:	00858463          	beq	a1,s0,800008f0 <inst_29>
    800008ec:	f38ff06f          	j	80000024 <rvtest_error>

00000000800008f0 <inst_29>:
    800008f0:	00100d13          	li	s10,1
    800008f4:	01ad1d13          	slli	s10,s10,0x1a
    800008f8:	fffd4d13          	not	s10,s10
    800008fc:	00100913          	li	s2,1
    80000900:	01291913          	slli	s2,s2,0x12
    80000904:	012d4db3          	xor	s11,s10,s2
    80000908:	07b13423          	sd	s11,104(sp)
    8000090c:	fbfc01b7          	lui	gp,0xfbfc0
    80000910:	fff1819b          	addiw	gp,gp,-1 # fffffffffbfbffff <absimm+0xffffffff412b252f>
    80000914:	01b18463          	beq	gp,s11,8000091c <inst_30>
    80000918:	f0cff06f          	j	80000024 <rvtest_error>

000000008000091c <inst_30>:
    8000091c:	00100493          	li	s1,1
    80000920:	01149493          	slli	s1,s1,0x11
    80000924:	fff4c493          	not	s1,s1
    80000928:	00100593          	li	a1,1
    8000092c:	01359593          	slli	a1,a1,0x13
    80000930:	00b4cd33          	xor	s10,s1,a1
    80000934:	07a13823          	sd	s10,112(sp)
    80000938:	fff601b7          	lui	gp,0xfff60
    8000093c:	fff1819b          	addiw	gp,gp,-1 # fffffffffff5ffff <absimm+0xffffffff4525252f>
    80000940:	01a18463          	beq	gp,s10,80000948 <inst_31>
    80000944:	ee0ff06f          	j	80000024 <rvtest_error>

0000000080000948 <inst_31>:
    80000948:	00100b93          	li	s7,1
    8000094c:	015b9b93          	slli	s7,s7,0x15
    80000950:	fffbcb93          	not	s7,s7
    80000954:	00100693          	li	a3,1
    80000958:	01469693          	slli	a3,a3,0x14
    8000095c:	00dbca33          	xor	s4,s7,a3
    80000960:	07413c23          	sd	s4,120(sp)
    80000964:	ffd001b7          	lui	gp,0xffd00
    80000968:	fff1819b          	addiw	gp,gp,-1 # ffffffffffcfffff <absimm+0xffffffff44ff252f>
    8000096c:	01418463          	beq	gp,s4,80000974 <inst_31+0x2c>
    80000970:	eb4ff06f          	j	80000024 <rvtest_error>
    80000974:	00000013          	nop
    80000978:	00000013          	nop
    8000097c:	00000013          	nop
    80000980:	0000e097          	auipc	ra,0xe
    80000984:	78808093          	addi	ra,ra,1928 # 8000f108 <signature_x1_0>
    80000988:	00000013          	nop
    8000098c:	00000013          	nop
    80000990:	00000013          	nop
    80000994:	00000013          	nop
    80000998:	00000013          	nop
    8000099c:	00000013          	nop

00000000800009a0 <inst_32>:
    800009a0:	00100513          	li	a0,1
    800009a4:	03c51513          	slli	a0,a0,0x3c
    800009a8:	00100593          	li	a1,1
    800009ac:	01559593          	slli	a1,a1,0x15
    800009b0:	00b54633          	xor	a2,a0,a1
    800009b4:	00c0b023          	sd	a2,0(ra)
    800009b8:	0010019b          	addiw	gp,zero,1
    800009bc:	02719193          	slli	gp,gp,0x27
    800009c0:	00118193          	addi	gp,gp,1
    800009c4:	01519193          	slli	gp,gp,0x15
    800009c8:	00c18463          	beq	gp,a2,800009d0 <inst_33>
    800009cc:	e58ff06f          	j	80000024 <rvtest_error>

00000000800009d0 <inst_33>:
    800009d0:	00100513          	li	a0,1
    800009d4:	02a51513          	slli	a0,a0,0x2a
    800009d8:	fff54513          	not	a0,a0
    800009dc:	00100593          	li	a1,1
    800009e0:	01659593          	slli	a1,a1,0x16
    800009e4:	00b54633          	xor	a2,a0,a1
    800009e8:	00c0b423          	sd	a2,8(ra)
    800009ec:	fff001b7          	lui	gp,0xfff00
    800009f0:	fff1819b          	addiw	gp,gp,-1 # ffffffffffefffff <absimm+0xffffffff451f252f>
    800009f4:	01619193          	slli	gp,gp,0x16
    800009f8:	fff18193          	addi	gp,gp,-1
    800009fc:	00c18463          	beq	gp,a2,80000a04 <inst_34>
    80000a00:	e24ff06f          	j	80000024 <rvtest_error>

0000000080000a04 <inst_34>:
    80000a04:	00000513          	li	a0,0
    80000a08:	00100593          	li	a1,1
    80000a0c:	01859593          	slli	a1,a1,0x18
    80000a10:	00b54633          	xor	a2,a0,a1
    80000a14:	00c0b823          	sd	a2,16(ra)
    80000a18:	010001b7          	lui	gp,0x1000
    80000a1c:	00c18463          	beq	gp,a2,80000a24 <inst_35>
    80000a20:	e04ff06f          	j	80000024 <rvtest_error>

0000000080000a24 <inst_35>:
    80000a24:	00100513          	li	a0,1
    80000a28:	00c51513          	slli	a0,a0,0xc
    80000a2c:	00100593          	li	a1,1
    80000a30:	01959593          	slli	a1,a1,0x19
    80000a34:	00b54633          	xor	a2,a0,a1
    80000a38:	00c0bc23          	sd	a2,24(ra)
    80000a3c:	020011b7          	lui	gp,0x2001
    80000a40:	00c18463          	beq	gp,a2,80000a48 <inst_36>
    80000a44:	de0ff06f          	j	80000024 <rvtest_error>

0000000080000a48 <inst_36>:
    80000a48:	00100513          	li	a0,1
    80000a4c:	03851513          	slli	a0,a0,0x38
    80000a50:	00100593          	li	a1,1
    80000a54:	01a59593          	slli	a1,a1,0x1a
    80000a58:	00b54633          	xor	a2,a0,a1
    80000a5c:	02c0b023          	sd	a2,32(ra)
    80000a60:	400001b7          	lui	gp,0x40000
    80000a64:	0011819b          	addiw	gp,gp,1 # 40000001 <absimmsh+0x3452f254>
    80000a68:	01a19193          	slli	gp,gp,0x1a
    80000a6c:	00c18463          	beq	gp,a2,80000a74 <inst_37>
    80000a70:	db4ff06f          	j	80000024 <rvtest_error>

0000000080000a74 <inst_37>:
    80000a74:	00100513          	li	a0,1
    80000a78:	01951513          	slli	a0,a0,0x19
    80000a7c:	00100593          	li	a1,1
    80000a80:	01c59593          	slli	a1,a1,0x1c
    80000a84:	00b54633          	xor	a2,a0,a1
    80000a88:	02c0b423          	sd	a2,40(ra)
    80000a8c:	120001b7          	lui	gp,0x12000
    80000a90:	00c18463          	beq	gp,a2,80000a98 <inst_38>
    80000a94:	d90ff06f          	j	80000024 <rvtest_error>

0000000080000a98 <inst_38>:
    80000a98:	00100513          	li	a0,1
    80000a9c:	00d51513          	slli	a0,a0,0xd
    80000aa0:	fff54513          	not	a0,a0
    80000aa4:	00100593          	li	a1,1
    80000aa8:	01d59593          	slli	a1,a1,0x1d
    80000aac:	00b54633          	xor	a2,a0,a1
    80000ab0:	02c0b823          	sd	a2,48(ra)
    80000ab4:	dfffe1b7          	lui	gp,0xdfffe
    80000ab8:	fff1819b          	addiw	gp,gp,-1 # ffffffffdfffdfff <absimm+0xffffffff252f052f>
    80000abc:	00c18463          	beq	gp,a2,80000ac4 <inst_39>
    80000ac0:	d64ff06f          	j	80000024 <rvtest_error>

0000000080000ac4 <inst_39>:
    80000ac4:	00100513          	li	a0,1
    80000ac8:	02351513          	slli	a0,a0,0x23
    80000acc:	00100593          	li	a1,1
    80000ad0:	01e59593          	slli	a1,a1,0x1e
    80000ad4:	00b54633          	xor	a2,a0,a1
    80000ad8:	02c0bc23          	sd	a2,56(ra)
    80000adc:	0210019b          	addiw	gp,zero,33
    80000ae0:	01e19193          	slli	gp,gp,0x1e
    80000ae4:	00c18463          	beq	gp,a2,80000aec <inst_40>
    80000ae8:	d3cff06f          	j	80000024 <rvtest_error>

0000000080000aec <inst_40>:
    80000aec:	00100513          	li	a0,1
    80000af0:	02751513          	slli	a0,a0,0x27
    80000af4:	fff54513          	not	a0,a0
    80000af8:	00100593          	li	a1,1
    80000afc:	01f59593          	slli	a1,a1,0x1f
    80000b00:	00b54633          	xor	a2,a0,a1
    80000b04:	04c0b023          	sd	a2,64(ra)
    80000b08:	eff0019b          	addiw	gp,zero,-257
    80000b0c:	01f19193          	slli	gp,gp,0x1f
    80000b10:	fff18193          	addi	gp,gp,-1
    80000b14:	00c18463          	beq	gp,a2,80000b1c <inst_41>
    80000b18:	d0cff06f          	j	80000024 <rvtest_error>

0000000080000b1c <inst_41>:
    80000b1c:	00100513          	li	a0,1
    80000b20:	03a51513          	slli	a0,a0,0x3a
    80000b24:	00100593          	li	a1,1
    80000b28:	02059593          	slli	a1,a1,0x20
    80000b2c:	00b54633          	xor	a2,a0,a1
    80000b30:	04c0b423          	sd	a2,72(ra)
    80000b34:	040001b7          	lui	gp,0x4000
    80000b38:	0011819b          	addiw	gp,gp,1 # 4000001 <offset+0x3fffbe9>
    80000b3c:	02019193          	slli	gp,gp,0x20
    80000b40:	00c18463          	beq	gp,a2,80000b48 <inst_42>
    80000b44:	ce0ff06f          	j	80000024 <rvtest_error>

0000000080000b48 <inst_42>:
    80000b48:	02000513          	li	a0,32
    80000b4c:	00100593          	li	a1,1
    80000b50:	02159593          	slli	a1,a1,0x21
    80000b54:	00b54633          	xor	a2,a0,a1
    80000b58:	04c0b823          	sd	a2,80(ra)
    80000b5c:	0010019b          	addiw	gp,zero,1
    80000b60:	02119193          	slli	gp,gp,0x21
    80000b64:	02018193          	addi	gp,gp,32
    80000b68:	00c18463          	beq	gp,a2,80000b70 <inst_43>
    80000b6c:	cb8ff06f          	j	80000024 <rvtest_error>

0000000080000b70 <inst_43>:
    80000b70:	dff00513          	li	a0,-513
    80000b74:	00100593          	li	a1,1
    80000b78:	02259593          	slli	a1,a1,0x22
    80000b7c:	00b54633          	xor	a2,a0,a1
    80000b80:	04c0bc23          	sd	a2,88(ra)
    80000b84:	fff0019b          	addiw	gp,zero,-1
    80000b88:	02219193          	slli	gp,gp,0x22
    80000b8c:	dff18193          	addi	gp,gp,-513
    80000b90:	00c18463          	beq	gp,a2,80000b98 <inst_44>
    80000b94:	c90ff06f          	j	80000024 <rvtest_error>

0000000080000b98 <inst_44>:
    80000b98:	00100513          	li	a0,1
    80000b9c:	02651513          	slli	a0,a0,0x26
    80000ba0:	fff54513          	not	a0,a0
    80000ba4:	00100593          	li	a1,1
    80000ba8:	02359593          	slli	a1,a1,0x23
    80000bac:	00b54633          	xor	a2,a0,a1
    80000bb0:	06c0b023          	sd	a2,96(ra)
    80000bb4:	ff70019b          	addiw	gp,zero,-9
    80000bb8:	02319193          	slli	gp,gp,0x23
    80000bbc:	fff18193          	addi	gp,gp,-1
    80000bc0:	00c18463          	beq	gp,a2,80000bc8 <inst_45>
    80000bc4:	c60ff06f          	j	80000024 <rvtest_error>

0000000080000bc8 <inst_45>:
    80000bc8:	00100513          	li	a0,1
    80000bcc:	02651513          	slli	a0,a0,0x26
    80000bd0:	fff54513          	not	a0,a0
    80000bd4:	00100593          	li	a1,1
    80000bd8:	02459593          	slli	a1,a1,0x24
    80000bdc:	00b54633          	xor	a2,a0,a1
    80000be0:	06c0b423          	sd	a2,104(ra)
    80000be4:	ffb0019b          	addiw	gp,zero,-5
    80000be8:	02419193          	slli	gp,gp,0x24
    80000bec:	fff18193          	addi	gp,gp,-1
    80000bf0:	00c18463          	beq	gp,a2,80000bf8 <inst_46>
    80000bf4:	c30ff06f          	j	80000024 <rvtest_error>

0000000080000bf8 <inst_46>:
    80000bf8:	fbf00513          	li	a0,-65
    80000bfc:	00100593          	li	a1,1
    80000c00:	02559593          	slli	a1,a1,0x25
    80000c04:	00b54633          	xor	a2,a0,a1
    80000c08:	06c0b823          	sd	a2,112(ra)
    80000c0c:	fff0019b          	addiw	gp,zero,-1
    80000c10:	02519193          	slli	gp,gp,0x25
    80000c14:	fbf18193          	addi	gp,gp,-65
    80000c18:	00c18463          	beq	gp,a2,80000c20 <inst_47>
    80000c1c:	c08ff06f          	j	80000024 <rvtest_error>

0000000080000c20 <inst_47>:
    80000c20:	00100513          	li	a0,1
    80000c24:	02551513          	slli	a0,a0,0x25
    80000c28:	fff54513          	not	a0,a0
    80000c2c:	00100593          	li	a1,1
    80000c30:	02659593          	slli	a1,a1,0x26
    80000c34:	00b54633          	xor	a2,a0,a1
    80000c38:	06c0bc23          	sd	a2,120(ra)
    80000c3c:	ffd0019b          	addiw	gp,zero,-3
    80000c40:	02519193          	slli	gp,gp,0x25
    80000c44:	fff18193          	addi	gp,gp,-1
    80000c48:	00c18463          	beq	gp,a2,80000c50 <inst_48>
    80000c4c:	bd8ff06f          	j	80000024 <rvtest_error>

0000000080000c50 <inst_48>:
    80000c50:	fdf00513          	li	a0,-33
    80000c54:	00100593          	li	a1,1
    80000c58:	02759593          	slli	a1,a1,0x27
    80000c5c:	00b54633          	xor	a2,a0,a1
    80000c60:	08c0b023          	sd	a2,128(ra)
    80000c64:	fff0019b          	addiw	gp,zero,-1
    80000c68:	02719193          	slli	gp,gp,0x27
    80000c6c:	fdf18193          	addi	gp,gp,-33
    80000c70:	00c18463          	beq	gp,a2,80000c78 <inst_49>
    80000c74:	bb0ff06f          	j	80000024 <rvtest_error>

0000000080000c78 <inst_49>:
    80000c78:	00100513          	li	a0,1
    80000c7c:	02c51513          	slli	a0,a0,0x2c
    80000c80:	fff54513          	not	a0,a0
    80000c84:	00100593          	li	a1,1
    80000c88:	02859593          	slli	a1,a1,0x28
    80000c8c:	00b54633          	xor	a2,a0,a1
    80000c90:	08c0b423          	sd	a2,136(ra)
    80000c94:	fef0019b          	addiw	gp,zero,-17
    80000c98:	02819193          	slli	gp,gp,0x28
    80000c9c:	fff18193          	addi	gp,gp,-1
    80000ca0:	00c18463          	beq	gp,a2,80000ca8 <inst_50>
    80000ca4:	b80ff06f          	j	80000024 <rvtest_error>

0000000080000ca8 <inst_50>:
    80000ca8:	00100513          	li	a0,1
    80000cac:	01151513          	slli	a0,a0,0x11
    80000cb0:	00100593          	li	a1,1
    80000cb4:	02959593          	slli	a1,a1,0x29
    80000cb8:	00b54633          	xor	a2,a0,a1
    80000cbc:	08c0b823          	sd	a2,144(ra)
    80000cc0:	010001b7          	lui	gp,0x1000
    80000cc4:	0011819b          	addiw	gp,gp,1 # 1000001 <offset+0xfffbe9>
    80000cc8:	01119193          	slli	gp,gp,0x11
    80000ccc:	00c18463          	beq	gp,a2,80000cd4 <inst_51>
    80000cd0:	b54ff06f          	j	80000024 <rvtest_error>

0000000080000cd4 <inst_51>:
    80000cd4:	00100513          	li	a0,1
    80000cd8:	00d51513          	slli	a0,a0,0xd
    80000cdc:	00100593          	li	a1,1
    80000ce0:	02a59593          	slli	a1,a1,0x2a
    80000ce4:	00b54633          	xor	a2,a0,a1
    80000ce8:	08c0bc23          	sd	a2,152(ra)
    80000cec:	200001b7          	lui	gp,0x20000
    80000cf0:	0011819b          	addiw	gp,gp,1 # 20000001 <absimmsh+0x1452f254>
    80000cf4:	00d19193          	slli	gp,gp,0xd
    80000cf8:	00c18463          	beq	gp,a2,80000d00 <inst_52>
    80000cfc:	b28ff06f          	j	80000024 <rvtest_error>

0000000080000d00 <inst_52>:
    80000d00:	00100513          	li	a0,1
    80000d04:	03051513          	slli	a0,a0,0x30
    80000d08:	00100593          	li	a1,1
    80000d0c:	02b59593          	slli	a1,a1,0x2b
    80000d10:	00b54633          	xor	a2,a0,a1
    80000d14:	0ac0b023          	sd	a2,160(ra)
    80000d18:	0210019b          	addiw	gp,zero,33
    80000d1c:	02b19193          	slli	gp,gp,0x2b
    80000d20:	00c18463          	beq	gp,a2,80000d28 <inst_53>
    80000d24:	b00ff06f          	j	80000024 <rvtest_error>

0000000080000d28 <inst_53>:
    80000d28:	f7f00513          	li	a0,-129
    80000d2c:	00100593          	li	a1,1
    80000d30:	02c59593          	slli	a1,a1,0x2c
    80000d34:	00b54633          	xor	a2,a0,a1
    80000d38:	0ac0b423          	sd	a2,168(ra)
    80000d3c:	fff0019b          	addiw	gp,zero,-1
    80000d40:	02c19193          	slli	gp,gp,0x2c
    80000d44:	f7f18193          	addi	gp,gp,-129
    80000d48:	00c18463          	beq	gp,a2,80000d50 <inst_54>
    80000d4c:	ad8ff06f          	j	80000024 <rvtest_error>

0000000080000d50 <inst_54>:
    80000d50:	f7f00513          	li	a0,-129
    80000d54:	00100593          	li	a1,1
    80000d58:	02d59593          	slli	a1,a1,0x2d
    80000d5c:	00b54633          	xor	a2,a0,a1
    80000d60:	0ac0b823          	sd	a2,176(ra)
    80000d64:	fff0019b          	addiw	gp,zero,-1
    80000d68:	02d19193          	slli	gp,gp,0x2d
    80000d6c:	f7f18193          	addi	gp,gp,-129
    80000d70:	00c18463          	beq	gp,a2,80000d78 <inst_55>
    80000d74:	ab0ff06f          	j	80000024 <rvtest_error>

0000000080000d78 <inst_55>:
    80000d78:	00100513          	li	a0,1
    80000d7c:	00d51513          	slli	a0,a0,0xd
    80000d80:	fff54513          	not	a0,a0
    80000d84:	00100593          	li	a1,1
    80000d88:	02e59593          	slli	a1,a1,0x2e
    80000d8c:	00b54633          	xor	a2,a0,a1
    80000d90:	0ac0bc23          	sd	a2,184(ra)
    80000d94:	fff0019b          	addiw	gp,zero,-1
    80000d98:	02119193          	slli	gp,gp,0x21
    80000d9c:	fff18193          	addi	gp,gp,-1
    80000da0:	00d19193          	slli	gp,gp,0xd
    80000da4:	fff18193          	addi	gp,gp,-1
    80000da8:	00c18463          	beq	gp,a2,80000db0 <inst_56>
    80000dac:	a78ff06f          	j	80000024 <rvtest_error>

0000000080000db0 <inst_56>:
    80000db0:	00100513          	li	a0,1
    80000db4:	01451513          	slli	a0,a0,0x14
    80000db8:	fff54513          	not	a0,a0
    80000dbc:	00100593          	li	a1,1
    80000dc0:	02f59593          	slli	a1,a1,0x2f
    80000dc4:	00b54633          	xor	a2,a0,a1
    80000dc8:	0cc0b023          	sd	a2,192(ra)
    80000dcc:	f80001b7          	lui	gp,0xf8000
    80000dd0:	fff1819b          	addiw	gp,gp,-1 # fffffffff7ffffff <absimm+0xffffffff3d2f252f>
    80000dd4:	01419193          	slli	gp,gp,0x14
    80000dd8:	fff18193          	addi	gp,gp,-1
    80000ddc:	00c18463          	beq	gp,a2,80000de4 <inst_57>
    80000de0:	a44ff06f          	j	80000024 <rvtest_error>

0000000080000de4 <inst_57>:
    80000de4:	00100513          	li	a0,1
    80000de8:	02051513          	slli	a0,a0,0x20
    80000dec:	fff54513          	not	a0,a0
    80000df0:	00100593          	li	a1,1
    80000df4:	03059593          	slli	a1,a1,0x30
    80000df8:	00b54633          	xor	a2,a0,a1
    80000dfc:	0cc0b423          	sd	a2,200(ra)
    80000e00:	ffff01b7          	lui	gp,0xffff0
    80000e04:	fff1819b          	addiw	gp,gp,-1 # fffffffffffeffff <absimm+0xffffffff452e252f>
    80000e08:	02019193          	slli	gp,gp,0x20
    80000e0c:	fff18193          	addi	gp,gp,-1
    80000e10:	00c18463          	beq	gp,a2,80000e18 <inst_58>
    80000e14:	a10ff06f          	j	80000024 <rvtest_error>

0000000080000e18 <inst_58>:
    80000e18:	10000513          	li	a0,256
    80000e1c:	00100593          	li	a1,1
    80000e20:	03159593          	slli	a1,a1,0x31
    80000e24:	00b54633          	xor	a2,a0,a1
    80000e28:	0cc0b823          	sd	a2,208(ra)
    80000e2c:	0010019b          	addiw	gp,zero,1
    80000e30:	03119193          	slli	gp,gp,0x31
    80000e34:	10018193          	addi	gp,gp,256
    80000e38:	00c18463          	beq	gp,a2,80000e40 <inst_59>
    80000e3c:	9e8ff06f          	j	80000024 <rvtest_error>

0000000080000e40 <inst_59>:
    80000e40:	00000537          	lui	a0,0x0
    80000e44:	fff50513          	addi	a0,a0,-1
    80000e48:	00b51513          	slli	a0,a0,0xb
    80000e4c:	25750513          	addi	a0,a0,599
    80000e50:	00b51513          	slli	a0,a0,0xb
    80000e54:	6c350513          	addi	a0,a0,1731
    80000e58:	00a51513          	slli	a0,a0,0xa
    80000e5c:	0cd50513          	addi	a0,a0,205
    80000e60:	00100593          	li	a1,1
    80000e64:	03259593          	slli	a1,a1,0x32
    80000e68:	00b54633          	xor	a2,a0,a1
    80000e6c:	0cc0bc23          	sd	a2,216(ra)
    80000e70:	fc0001b7          	lui	gp,0xfc000
    80000e74:	f4b1819b          	addiw	gp,gp,-181 # fffffffffbffff4b <absimm+0xffffffff412f247b>
    80000e78:	00c19193          	slli	gp,gp,0xc
    80000e7c:	fb118193          	addi	gp,gp,-79
    80000e80:	00c19193          	slli	gp,gp,0xc
    80000e84:	ccd18193          	addi	gp,gp,-819
    80000e88:	00c18463          	beq	gp,a2,80000e90 <inst_60>
    80000e8c:	998ff06f          	j	80000024 <rvtest_error>

0000000080000e90 <inst_60>:
    80000e90:	00100513          	li	a0,1
    80000e94:	01651513          	slli	a0,a0,0x16
    80000e98:	fff54513          	not	a0,a0
    80000e9c:	00100593          	li	a1,1
    80000ea0:	03359593          	slli	a1,a1,0x33
    80000ea4:	00b54633          	xor	a2,a0,a1
    80000ea8:	0ec0b023          	sd	a2,224(ra)
    80000eac:	e00001b7          	lui	gp,0xe0000
    80000eb0:	fff1819b          	addiw	gp,gp,-1 # ffffffffdfffffff <absimm+0xffffffff252f252f>
    80000eb4:	01619193          	slli	gp,gp,0x16
    80000eb8:	fff18193          	addi	gp,gp,-1
    80000ebc:	00c18463          	beq	gp,a2,80000ec4 <inst_61>
    80000ec0:	964ff06f          	j	80000024 <rvtest_error>

0000000080000ec4 <inst_61>:
    80000ec4:	00400513          	li	a0,4
    80000ec8:	00100593          	li	a1,1
    80000ecc:	03459593          	slli	a1,a1,0x34
    80000ed0:	00b54633          	xor	a2,a0,a1
    80000ed4:	0ec0b423          	sd	a2,232(ra)
    80000ed8:	0010019b          	addiw	gp,zero,1
    80000edc:	03419193          	slli	gp,gp,0x34
    80000ee0:	00418193          	addi	gp,gp,4
    80000ee4:	00c18463          	beq	gp,a2,80000eec <inst_62>
    80000ee8:	93cff06f          	j	80000024 <rvtest_error>

0000000080000eec <inst_62>:
    80000eec:	00100513          	li	a0,1
    80000ef0:	02551513          	slli	a0,a0,0x25
    80000ef4:	00100593          	li	a1,1
    80000ef8:	03559593          	slli	a1,a1,0x35
    80000efc:	00b54633          	xor	a2,a0,a1
    80000f00:	0ec0b823          	sd	a2,240(ra)
    80000f04:	000101b7          	lui	gp,0x10
    80000f08:	0011819b          	addiw	gp,gp,1 # 10001 <offset+0xfbe9>
    80000f0c:	02519193          	slli	gp,gp,0x25
    80000f10:	00c18463          	beq	gp,a2,80000f18 <inst_63>
    80000f14:	910ff06f          	j	80000024 <rvtest_error>

0000000080000f18 <inst_63>:
    80000f18:	55555537          	lui	a0,0x55555
    80000f1c:	55550513          	addi	a0,a0,1365 # 55555555 <absimmsh+0x49a847a8>
    80000f20:	00b51513          	slli	a0,a0,0xb
    80000f24:	2aa50513          	addi	a0,a0,682
    80000f28:	00b51513          	slli	a0,a0,0xb
    80000f2c:	55550513          	addi	a0,a0,1365
    80000f30:	00a51513          	slli	a0,a0,0xa
    80000f34:	15450513          	addi	a0,a0,340
    80000f38:	00100593          	li	a1,1
    80000f3c:	03659593          	slli	a1,a1,0x36
    80000f40:	00b54633          	xor	a2,a0,a1
    80000f44:	0ec0bc23          	sd	a2,248(ra)
    80000f48:	055151b7          	lui	gp,0x5515
    80000f4c:	5551819b          	addiw	gp,gp,1365 # 5515555 <offset+0x551513d>
    80000f50:	00c19193          	slli	gp,gp,0xc
    80000f54:	55518193          	addi	gp,gp,1365
    80000f58:	00c19193          	slli	gp,gp,0xc
    80000f5c:	55518193          	addi	gp,gp,1365
    80000f60:	00c19193          	slli	gp,gp,0xc
    80000f64:	55418193          	addi	gp,gp,1364
    80000f68:	00c18463          	beq	gp,a2,80000f70 <inst_64>
    80000f6c:	8b8ff06f          	j	80000024 <rvtest_error>

0000000080000f70 <inst_64>:
    80000f70:	00100513          	li	a0,1
    80000f74:	01e51513          	slli	a0,a0,0x1e
    80000f78:	fff54513          	not	a0,a0
    80000f7c:	00100593          	li	a1,1
    80000f80:	03859593          	slli	a1,a1,0x38
    80000f84:	00b54633          	xor	a2,a0,a1
    80000f88:	10c0b023          	sd	a2,256(ra)
    80000f8c:	fc0001b7          	lui	gp,0xfc000
    80000f90:	fff1819b          	addiw	gp,gp,-1 # fffffffffbffffff <absimm+0xffffffff412f252f>
    80000f94:	01e19193          	slli	gp,gp,0x1e
    80000f98:	fff18193          	addi	gp,gp,-1
    80000f9c:	00c18463          	beq	gp,a2,80000fa4 <inst_65>
    80000fa0:	884ff06f          	j	80000024 <rvtest_error>

0000000080000fa4 <inst_65>:
    80000fa4:	ffe00513          	li	a0,-2
    80000fa8:	00100593          	li	a1,1
    80000fac:	03959593          	slli	a1,a1,0x39
    80000fb0:	00b54633          	xor	a2,a0,a1
    80000fb4:	10c0b423          	sd	a2,264(ra)
    80000fb8:	fff0019b          	addiw	gp,zero,-1
    80000fbc:	03919193          	slli	gp,gp,0x39
    80000fc0:	ffe18193          	addi	gp,gp,-2
    80000fc4:	00c18463          	beq	gp,a2,80000fcc <inst_66>
    80000fc8:	85cff06f          	j	80000024 <rvtest_error>

0000000080000fcc <inst_66>:
    80000fcc:	00400513          	li	a0,4
    80000fd0:	00100593          	li	a1,1
    80000fd4:	03a59593          	slli	a1,a1,0x3a
    80000fd8:	00b54633          	xor	a2,a0,a1
    80000fdc:	10c0b823          	sd	a2,272(ra)
    80000fe0:	0010019b          	addiw	gp,zero,1
    80000fe4:	03a19193          	slli	gp,gp,0x3a
    80000fe8:	00418193          	addi	gp,gp,4
    80000fec:	00c18463          	beq	gp,a2,80000ff4 <inst_67>
    80000ff0:	834ff06f          	j	80000024 <rvtest_error>

0000000080000ff4 <inst_67>:
    80000ff4:	00300513          	li	a0,3
    80000ff8:	00100593          	li	a1,1
    80000ffc:	03c59593          	slli	a1,a1,0x3c
    80001000:	00b54633          	xor	a2,a0,a1
    80001004:	10c0bc23          	sd	a2,280(ra)
    80001008:	0010019b          	addiw	gp,zero,1
    8000100c:	03c19193          	slli	gp,gp,0x3c
    80001010:	00318193          	addi	gp,gp,3
    80001014:	00c18463          	beq	gp,a2,8000101c <inst_68>
    80001018:	80cff06f          	j	80000024 <rvtest_error>

000000008000101c <inst_68>:
    8000101c:	00000537          	lui	a0,0x0
    80001020:	fff50513          	addi	a0,a0,-1
    80001024:	00b51513          	slli	a0,a0,0xb
    80001028:	25750513          	addi	a0,a0,599
    8000102c:	00b51513          	slli	a0,a0,0xb
    80001030:	6c350513          	addi	a0,a0,1731
    80001034:	00a51513          	slli	a0,a0,0xa
    80001038:	0cd50513          	addi	a0,a0,205
    8000103c:	00100593          	li	a1,1
    80001040:	03d59593          	slli	a1,a1,0x3d
    80001044:	00b54633          	xor	a2,a0,a1
    80001048:	12c0b023          	sd	a2,288(ra)
    8000104c:	fff0019b          	addiw	gp,zero,-1
    80001050:	02519193          	slli	gp,gp,0x25
    80001054:	f4b18193          	addi	gp,gp,-181
    80001058:	00c19193          	slli	gp,gp,0xc
    8000105c:	fb118193          	addi	gp,gp,-79
    80001060:	00c19193          	slli	gp,gp,0xc
    80001064:	ccd18193          	addi	gp,gp,-819
    80001068:	00c18463          	beq	gp,a2,80001070 <inst_69>
    8000106c:	fb9fe06f          	j	80000024 <rvtest_error>

0000000080001070 <inst_69>:
    80001070:	fdf00513          	li	a0,-33
    80001074:	00100593          	li	a1,1
    80001078:	03e59593          	slli	a1,a1,0x3e
    8000107c:	00b54633          	xor	a2,a0,a1
    80001080:	12c0b423          	sd	a2,296(ra)
    80001084:	fff0019b          	addiw	gp,zero,-1
    80001088:	03e19193          	slli	gp,gp,0x3e
    8000108c:	fdf18193          	addi	gp,gp,-33
    80001090:	00c18463          	beq	gp,a2,80001098 <inst_70>
    80001094:	f91fe06f          	j	80000024 <rvtest_error>

0000000080001098 <inst_70>:
    80001098:	20000513          	li	a0,512
    8000109c:	ffe00593          	li	a1,-2
    800010a0:	00b54633          	xor	a2,a0,a1
    800010a4:	12c0b823          	sd	a2,304(ra)
    800010a8:	dfe00193          	li	gp,-514
    800010ac:	00c18463          	beq	gp,a2,800010b4 <inst_71>
    800010b0:	f75fe06f          	j	80000024 <rvtest_error>

00000000800010b4 <inst_71>:
    800010b4:	55555537          	lui	a0,0x55555
    800010b8:	55550513          	addi	a0,a0,1365 # 55555555 <absimmsh+0x49a847a8>
    800010bc:	00b51513          	slli	a0,a0,0xb
    800010c0:	2aa50513          	addi	a0,a0,682
    800010c4:	00b51513          	slli	a0,a0,0xb
    800010c8:	55550513          	addi	a0,a0,1365
    800010cc:	00a51513          	slli	a0,a0,0xa
    800010d0:	15550513          	addi	a0,a0,341
    800010d4:	ffd00593          	li	a1,-3
    800010d8:	00b54633          	xor	a2,a0,a1
    800010dc:	12c0bc23          	sd	a2,312(ra)
    800010e0:	faaab1b7          	lui	gp,0xfaaab
    800010e4:	aab1819b          	addiw	gp,gp,-1365 # fffffffffaaaaaab <absimm+0xffffffff3fd9cfdb>
    800010e8:	00c19193          	slli	gp,gp,0xc
    800010ec:	aab18193          	addi	gp,gp,-1365
    800010f0:	00c19193          	slli	gp,gp,0xc
    800010f4:	aab18193          	addi	gp,gp,-1365
    800010f8:	00c19193          	slli	gp,gp,0xc
    800010fc:	aa818193          	addi	gp,gp,-1368
    80001100:	00c18463          	beq	gp,a2,80001108 <inst_72>
    80001104:	f21fe06f          	j	80000024 <rvtest_error>

0000000080001108 <inst_72>:
    80001108:	00100513          	li	a0,1
    8000110c:	02451513          	slli	a0,a0,0x24
    80001110:	fff54513          	not	a0,a0
    80001114:	ffb00593          	li	a1,-5
    80001118:	00b54633          	xor	a2,a0,a1
    8000111c:	14c0b023          	sd	a2,320(ra)
    80001120:	0010019b          	addiw	gp,zero,1
    80001124:	02419193          	slli	gp,gp,0x24
    80001128:	00418193          	addi	gp,gp,4
    8000112c:	00c18463          	beq	gp,a2,80001134 <inst_73>
    80001130:	ef5fe06f          	j	80000024 <rvtest_error>

0000000080001134 <inst_73>:
    80001134:	00400513          	li	a0,4
    80001138:	ff700593          	li	a1,-9
    8000113c:	00b54633          	xor	a2,a0,a1
    80001140:	14c0b423          	sd	a2,328(ra)
    80001144:	ff300193          	li	gp,-13
    80001148:	00c18463          	beq	gp,a2,80001150 <inst_74>
    8000114c:	ed9fe06f          	j	80000024 <rvtest_error>

0000000080001150 <inst_74>:
    80001150:	00100513          	li	a0,1
    80001154:	03951513          	slli	a0,a0,0x39
    80001158:	fef00593          	li	a1,-17
    8000115c:	00b54633          	xor	a2,a0,a1
    80001160:	14c0b823          	sd	a2,336(ra)
    80001164:	fff0019b          	addiw	gp,zero,-1
    80001168:	03919193          	slli	gp,gp,0x39
    8000116c:	fef18193          	addi	gp,gp,-17
    80001170:	00c18463          	beq	gp,a2,80001178 <inst_75>
    80001174:	eb1fe06f          	j	80000024 <rvtest_error>

0000000080001178 <inst_75>:
    80001178:	00100513          	li	a0,1
    8000117c:	03051513          	slli	a0,a0,0x30
    80001180:	fff54513          	not	a0,a0
    80001184:	fdf00593          	li	a1,-33
    80001188:	00b54633          	xor	a2,a0,a1
    8000118c:	14c0bc23          	sd	a2,344(ra)
    80001190:	0010019b          	addiw	gp,zero,1
    80001194:	03019193          	slli	gp,gp,0x30
    80001198:	02018193          	addi	gp,gp,32
    8000119c:	00c18463          	beq	gp,a2,800011a4 <inst_76>
    800011a0:	e85fe06f          	j	80000024 <rvtest_error>

00000000800011a4 <inst_76>:
    800011a4:	00100513          	li	a0,1
    800011a8:	03551513          	slli	a0,a0,0x35
    800011ac:	fbf00593          	li	a1,-65
    800011b0:	00b54633          	xor	a2,a0,a1
    800011b4:	16c0b023          	sd	a2,352(ra)
    800011b8:	fff0019b          	addiw	gp,zero,-1
    800011bc:	03519193          	slli	gp,gp,0x35
    800011c0:	fbf18193          	addi	gp,gp,-65
    800011c4:	00c18463          	beq	gp,a2,800011cc <inst_77>
    800011c8:	e5dfe06f          	j	80000024 <rvtest_error>

00000000800011cc <inst_77>:
    800011cc:	aaaab537          	lui	a0,0xaaaab
    800011d0:	aaa50513          	addi	a0,a0,-1366 # ffffffffaaaaaaaa <absimm+0xfffffffeefd9cfda>
    800011d4:	00b51513          	slli	a0,a0,0xb
    800011d8:	55550513          	addi	a0,a0,1365
    800011dc:	00b51513          	slli	a0,a0,0xb
    800011e0:	2aa50513          	addi	a0,a0,682
    800011e4:	00a51513          	slli	a0,a0,0xa
    800011e8:	2aa50513          	addi	a0,a0,682
    800011ec:	f7f00593          	li	a1,-129
    800011f0:	00b54633          	xor	a2,a0,a1
    800011f4:	16c0b423          	sd	a2,360(ra)
    800011f8:	055551b7          	lui	gp,0x5555
    800011fc:	5551819b          	addiw	gp,gp,1365 # 5555555 <offset+0x555513d>
    80001200:	00c19193          	slli	gp,gp,0xc
    80001204:	55518193          	addi	gp,gp,1365
    80001208:	00c19193          	slli	gp,gp,0xc
    8000120c:	55518193          	addi	gp,gp,1365
    80001210:	00c19193          	slli	gp,gp,0xc
    80001214:	5d518193          	addi	gp,gp,1493
    80001218:	00c18463          	beq	gp,a2,80001220 <inst_78>
    8000121c:	e09fe06f          	j	80000024 <rvtest_error>

0000000080001220 <inst_78>:
    80001220:	00100513          	li	a0,1
    80001224:	01e51513          	slli	a0,a0,0x1e
    80001228:	eff00593          	li	a1,-257
    8000122c:	00b54633          	xor	a2,a0,a1
    80001230:	16c0b823          	sd	a2,368(ra)
    80001234:	c00001b7          	lui	gp,0xc0000
    80001238:	eff1819b          	addiw	gp,gp,-257 # ffffffffbffffeff <absimm+0xffffffff052f242f>
    8000123c:	00c18463          	beq	gp,a2,80001244 <inst_79>
    80001240:	de5fe06f          	j	80000024 <rvtest_error>

0000000080001244 <inst_79>:
    80001244:	55555537          	lui	a0,0x55555
    80001248:	55550513          	addi	a0,a0,1365 # 55555555 <absimmsh+0x49a847a8>
    8000124c:	00b51513          	slli	a0,a0,0xb
    80001250:	2aa50513          	addi	a0,a0,682
    80001254:	00b51513          	slli	a0,a0,0xb
    80001258:	55550513          	addi	a0,a0,1365
    8000125c:	00a51513          	slli	a0,a0,0xa
    80001260:	15550513          	addi	a0,a0,341
    80001264:	dff00593          	li	a1,-513
    80001268:	00b54633          	xor	a2,a0,a1
    8000126c:	16c0bc23          	sd	a2,376(ra)
    80001270:	faaab1b7          	lui	gp,0xfaaab
    80001274:	aab1819b          	addiw	gp,gp,-1365 # fffffffffaaaaaab <absimm+0xffffffff3fd9cfdb>
    80001278:	00c19193          	slli	gp,gp,0xc
    8000127c:	aab18193          	addi	gp,gp,-1365
    80001280:	00c19193          	slli	gp,gp,0xc
    80001284:	aab18193          	addi	gp,gp,-1365
    80001288:	00c19193          	slli	gp,gp,0xc
    8000128c:	8aa18193          	addi	gp,gp,-1878
    80001290:	00c18463          	beq	gp,a2,80001298 <inst_80>
    80001294:	d91fe06f          	j	80000024 <rvtest_error>

0000000080001298 <inst_80>:
    80001298:	00400513          	li	a0,4
    8000129c:	00100593          	li	a1,1
    800012a0:	00b59593          	slli	a1,a1,0xb
    800012a4:	fff5c593          	not	a1,a1
    800012a8:	00b54633          	xor	a2,a0,a1
    800012ac:	18c0b023          	sd	a2,384(ra)
    800012b0:	fffff1b7          	lui	gp,0xfffff
    800012b4:	7fb1819b          	addiw	gp,gp,2043 # fffffffffffff7fb <absimm+0xffffffff452f1d2b>
    800012b8:	00c18463          	beq	gp,a2,800012c0 <inst_81>
    800012bc:	d69fe06f          	j	80000024 <rvtest_error>

00000000800012c0 <inst_81>:
    800012c0:	aaaab537          	lui	a0,0xaaaab
    800012c4:	aaa50513          	addi	a0,a0,-1366 # ffffffffaaaaaaaa <absimm+0xfffffffeefd9cfda>
    800012c8:	00b51513          	slli	a0,a0,0xb
    800012cc:	55550513          	addi	a0,a0,1365
    800012d0:	00b51513          	slli	a0,a0,0xb
    800012d4:	2aa50513          	addi	a0,a0,682
    800012d8:	00a51513          	slli	a0,a0,0xa
    800012dc:	2ab50513          	addi	a0,a0,683
    800012e0:	00100593          	li	a1,1
    800012e4:	00c59593          	slli	a1,a1,0xc
    800012e8:	fff5c593          	not	a1,a1
    800012ec:	00b54633          	xor	a2,a0,a1
    800012f0:	18c0b423          	sd	a2,392(ra)
    800012f4:	015551b7          	lui	gp,0x1555
    800012f8:	5551819b          	addiw	gp,gp,1365 # 1555555 <offset+0x155513d>
    800012fc:	00c19193          	slli	gp,gp,0xc
    80001300:	55518193          	addi	gp,gp,1365
    80001304:	00c19193          	slli	gp,gp,0xc
    80001308:	55518193          	addi	gp,gp,1365
    8000130c:	00e19193          	slli	gp,gp,0xe
    80001310:	55418193          	addi	gp,gp,1364
    80001314:	00c18463          	beq	gp,a2,8000131c <inst_82>
    80001318:	d0dfe06f          	j	80000024 <rvtest_error>

000000008000131c <inst_82>:
    8000131c:	00200513          	li	a0,2
    80001320:	00100593          	li	a1,1
    80001324:	00d59593          	slli	a1,a1,0xd
    80001328:	fff5c593          	not	a1,a1
    8000132c:	00b54633          	xor	a2,a0,a1
    80001330:	18c0b823          	sd	a2,400(ra)
    80001334:	ffffe1b7          	lui	gp,0xffffe
    80001338:	ffd1819b          	addiw	gp,gp,-3 # ffffffffffffdffd <absimm+0xffffffff452f052d>
    8000133c:	00c18463          	beq	gp,a2,80001344 <inst_83>
    80001340:	ce5fe06f          	j	80000024 <rvtest_error>

0000000080001344 <inst_83>:
    80001344:	aaaab537          	lui	a0,0xaaaab
    80001348:	aaa50513          	addi	a0,a0,-1366 # ffffffffaaaaaaaa <absimm+0xfffffffeefd9cfda>
    8000134c:	00b51513          	slli	a0,a0,0xb
    80001350:	55550513          	addi	a0,a0,1365
    80001354:	00b51513          	slli	a0,a0,0xb
    80001358:	2aa50513          	addi	a0,a0,682
    8000135c:	00a51513          	slli	a0,a0,0xa
    80001360:	2aa50513          	addi	a0,a0,682
    80001364:	00100593          	li	a1,1
    80001368:	00f59593          	slli	a1,a1,0xf
    8000136c:	fff5c593          	not	a1,a1
    80001370:	00b54633          	xor	a2,a0,a1
    80001374:	18c0bc23          	sd	a2,408(ra)
    80001378:	055551b7          	lui	gp,0x5555
    8000137c:	5551819b          	addiw	gp,gp,1365 # 5555555 <offset+0x555513d>
    80001380:	00c19193          	slli	gp,gp,0xc
    80001384:	55518193          	addi	gp,gp,1365
    80001388:	00c19193          	slli	gp,gp,0xc
    8000138c:	55d18193          	addi	gp,gp,1373
    80001390:	00c19193          	slli	gp,gp,0xc
    80001394:	55518193          	addi	gp,gp,1365
    80001398:	00c18463          	beq	gp,a2,800013a0 <inst_84>
    8000139c:	c89fe06f          	j	80000024 <rvtest_error>

00000000800013a0 <inst_84>:
    800013a0:	00100513          	li	a0,1
    800013a4:	03e51513          	slli	a0,a0,0x3e
    800013a8:	00100593          	li	a1,1
    800013ac:	01059593          	slli	a1,a1,0x10
    800013b0:	fff5c593          	not	a1,a1
    800013b4:	00b54633          	xor	a2,a0,a1
    800013b8:	1ac0b023          	sd	a2,416(ra)
    800013bc:	fff0019b          	addiw	gp,zero,-1
    800013c0:	02e19193          	slli	gp,gp,0x2e
    800013c4:	fff18193          	addi	gp,gp,-1
    800013c8:	01019193          	slli	gp,gp,0x10
    800013cc:	fff18193          	addi	gp,gp,-1
    800013d0:	00c18463          	beq	gp,a2,800013d8 <inst_85>
    800013d4:	c51fe06f          	j	80000024 <rvtest_error>

00000000800013d8 <inst_85>:
    800013d8:	00100513          	li	a0,1
    800013dc:	01551513          	slli	a0,a0,0x15
    800013e0:	00100593          	li	a1,1
    800013e4:	01159593          	slli	a1,a1,0x11
    800013e8:	fff5c593          	not	a1,a1
    800013ec:	00b54633          	xor	a2,a0,a1
    800013f0:	1ac0b423          	sd	a2,424(ra)
    800013f4:	ffde01b7          	lui	gp,0xffde0
    800013f8:	fff1819b          	addiw	gp,gp,-1 # ffffffffffddffff <absimm+0xffffffff450d252f>
    800013fc:	00c18463          	beq	gp,a2,80001404 <inst_86>
    80001400:	c25fe06f          	j	80000024 <rvtest_error>

0000000080001404 <inst_86>:
    80001404:	00100513          	li	a0,1
    80001408:	01651513          	slli	a0,a0,0x16
    8000140c:	fff54513          	not	a0,a0
    80001410:	00100593          	li	a1,1
    80001414:	01259593          	slli	a1,a1,0x12
    80001418:	fff5c593          	not	a1,a1
    8000141c:	00b54633          	xor	a2,a0,a1
    80001420:	1ac0b823          	sd	a2,432(ra)
    80001424:	004401b7          	lui	gp,0x440
    80001428:	00c18463          	beq	gp,a2,80001430 <inst_87>
    8000142c:	bf9fe06f          	j	80000024 <rvtest_error>

0000000080001430 <inst_87>:
    80001430:	00000537          	lui	a0,0x0
    80001434:	00050513          	mv	a0,a0
    80001438:	00b51513          	slli	a0,a0,0xb
    8000143c:	5a850513          	addi	a0,a0,1448 # 5a8 <offset+0x190>
    80001440:	00b51513          	slli	a0,a0,0xb
    80001444:	13c50513          	addi	a0,a0,316
    80001448:	00a51513          	slli	a0,a0,0xa
    8000144c:	33350513          	addi	a0,a0,819
    80001450:	00100593          	li	a1,1
    80001454:	01359593          	slli	a1,a1,0x13
    80001458:	fff5c593          	not	a1,a1
    8000145c:	00b54633          	xor	a2,a0,a1
    80001460:	1ac0bc23          	sd	a2,440(ra)
    80001464:	fff4b1b7          	lui	gp,0xfff4b
    80001468:	f311819b          	addiw	gp,gp,-207 # fffffffffff4af31 <absimm+0xffffffff4523d461>
    8000146c:	00c19193          	slli	gp,gp,0xc
    80001470:	ccc18193          	addi	gp,gp,-820
    80001474:	00c18463          	beq	gp,a2,8000147c <inst_88>
    80001478:	badfe06f          	j	80000024 <rvtest_error>

000000008000147c <inst_88>:
    8000147c:	00100513          	li	a0,1
    80001480:	03651513          	slli	a0,a0,0x36
    80001484:	fff54513          	not	a0,a0
    80001488:	00100593          	li	a1,1
    8000148c:	01459593          	slli	a1,a1,0x14
    80001490:	fff5c593          	not	a1,a1
    80001494:	00b54633          	xor	a2,a0,a1
    80001498:	1cc0b023          	sd	a2,448(ra)
    8000149c:	0010019b          	addiw	gp,zero,1
    800014a0:	02219193          	slli	gp,gp,0x22
    800014a4:	00118193          	addi	gp,gp,1
    800014a8:	01419193          	slli	gp,gp,0x14
    800014ac:	00c18463          	beq	gp,a2,800014b4 <inst_89>
    800014b0:	b75fe06f          	j	80000024 <rvtest_error>

00000000800014b4 <inst_89>:
    800014b4:	00100513          	li	a0,1
    800014b8:	01d51513          	slli	a0,a0,0x1d
    800014bc:	fff54513          	not	a0,a0
    800014c0:	00100593          	li	a1,1
    800014c4:	01559593          	slli	a1,a1,0x15
    800014c8:	fff5c593          	not	a1,a1
    800014cc:	00b54633          	xor	a2,a0,a1
    800014d0:	1cc0b423          	sd	a2,456(ra)
    800014d4:	202001b7          	lui	gp,0x20200
    800014d8:	00c18463          	beq	gp,a2,800014e0 <inst_90>
    800014dc:	b49fe06f          	j	80000024 <rvtest_error>

00000000800014e0 <inst_90>:
    800014e0:	00100513          	li	a0,1
    800014e4:	02751513          	slli	a0,a0,0x27
    800014e8:	00100593          	li	a1,1
    800014ec:	01659593          	slli	a1,a1,0x16
    800014f0:	fff5c593          	not	a1,a1
    800014f4:	00b54633          	xor	a2,a0,a1
    800014f8:	1cc0b823          	sd	a2,464(ra)
    800014fc:	fffe01b7          	lui	gp,0xfffe0
    80001500:	fff1819b          	addiw	gp,gp,-1 # fffffffffffdffff <absimm+0xffffffff452d252f>
    80001504:	01619193          	slli	gp,gp,0x16
    80001508:	fff18193          	addi	gp,gp,-1
    8000150c:	00c18463          	beq	gp,a2,80001514 <inst_91>
    80001510:	b15fe06f          	j	80000024 <rvtest_error>

0000000080001514 <inst_91>:
    80001514:	00100513          	li	a0,1
    80001518:	01e51513          	slli	a0,a0,0x1e
    8000151c:	fff54513          	not	a0,a0
    80001520:	00100593          	li	a1,1
    80001524:	01759593          	slli	a1,a1,0x17
    80001528:	fff5c593          	not	a1,a1
    8000152c:	00b54633          	xor	a2,a0,a1
    80001530:	1cc0bc23          	sd	a2,472(ra)
    80001534:	408001b7          	lui	gp,0x40800
    80001538:	00c18463          	beq	gp,a2,80001540 <inst_92>
    8000153c:	ae9fe06f          	j	80000024 <rvtest_error>

0000000080001540 <inst_92>:
    80001540:	00100513          	li	a0,1
    80001544:	02051513          	slli	a0,a0,0x20
    80001548:	00100593          	li	a1,1
    8000154c:	01859593          	slli	a1,a1,0x18
    80001550:	fff5c593          	not	a1,a1
    80001554:	00b54633          	xor	a2,a0,a1
    80001558:	1ec0b023          	sd	a2,480(ra)
    8000155c:	eff0019b          	addiw	gp,zero,-257
    80001560:	01819193          	slli	gp,gp,0x18
    80001564:	fff18193          	addi	gp,gp,-1 # 407fffff <absimmsh+0x34d2f252>
    80001568:	00c18463          	beq	gp,a2,80001570 <inst_93>
    8000156c:	ab9fe06f          	j	80000024 <rvtest_error>

0000000080001570 <inst_93>:
    80001570:	00100513          	li	a0,1
    80001574:	00100593          	li	a1,1
    80001578:	01959593          	slli	a1,a1,0x19
    8000157c:	fff5c593          	not	a1,a1
    80001580:	00b54633          	xor	a2,a0,a1
    80001584:	1ec0b423          	sd	a2,488(ra)
    80001588:	fe0001b7          	lui	gp,0xfe000
    8000158c:	ffe1819b          	addiw	gp,gp,-2 # fffffffffdfffffe <absimm+0xffffffff432f252e>
    80001590:	00c18463          	beq	gp,a2,80001598 <inst_94>
    80001594:	a91fe06f          	j	80000024 <rvtest_error>

0000000080001598 <inst_94>:
    80001598:	00300513          	li	a0,3
    8000159c:	00100593          	li	a1,1
    800015a0:	01a59593          	slli	a1,a1,0x1a
    800015a4:	fff5c593          	not	a1,a1
    800015a8:	00b54633          	xor	a2,a0,a1
    800015ac:	1ec0b823          	sd	a2,496(ra)
    800015b0:	fc0001b7          	lui	gp,0xfc000
    800015b4:	ffc1819b          	addiw	gp,gp,-4 # fffffffffbfffffc <absimm+0xffffffff412f252c>
    800015b8:	00c18463          	beq	gp,a2,800015c0 <inst_95>
    800015bc:	a69fe06f          	j	80000024 <rvtest_error>

00000000800015c0 <inst_95>:
    800015c0:	00000537          	lui	a0,0x0
    800015c4:	fff50513          	addi	a0,a0,-1
    800015c8:	00b51513          	slli	a0,a0,0xb
    800015cc:	25750513          	addi	a0,a0,599
    800015d0:	00b51513          	slli	a0,a0,0xb
    800015d4:	6c350513          	addi	a0,a0,1731
    800015d8:	00a51513          	slli	a0,a0,0xa
    800015dc:	0cd50513          	addi	a0,a0,205
    800015e0:	00100593          	li	a1,1
    800015e4:	01b59593          	slli	a1,a1,0x1b
    800015e8:	fff5c593          	not	a1,a1
    800015ec:	00b54633          	xor	a2,a0,a1
    800015f0:	1ec0bc23          	sd	a2,504(ra)
    800015f4:	000bd1b7          	lui	gp,0xbd
    800015f8:	04f1819b          	addiw	gp,gp,79 # bd04f <offset+0xbcc37>
    800015fc:	00c19193          	slli	gp,gp,0xc
    80001600:	33218193          	addi	gp,gp,818
    80001604:	00c18463          	beq	gp,a2,8000160c <inst_96>
    80001608:	a1dfe06f          	j	80000024 <rvtest_error>

000000008000160c <inst_96>:
    8000160c:	00100513          	li	a0,1
    80001610:	02f51513          	slli	a0,a0,0x2f
    80001614:	00100593          	li	a1,1
    80001618:	01c59593          	slli	a1,a1,0x1c
    8000161c:	fff5c593          	not	a1,a1
    80001620:	00b54633          	xor	a2,a0,a1
    80001624:	20c0b023          	sd	a2,512(ra)
    80001628:	fff801b7          	lui	gp,0xfff80
    8000162c:	fff1819b          	addiw	gp,gp,-1 # fffffffffff7ffff <absimm+0xffffffff4527252f>
    80001630:	01c19193          	slli	gp,gp,0x1c
    80001634:	fff18193          	addi	gp,gp,-1
    80001638:	00c18463          	beq	gp,a2,80001640 <inst_97>
    8000163c:	9e9fe06f          	j	80000024 <rvtest_error>

0000000080001640 <inst_97>:
    80001640:	00100513          	li	a0,1
    80001644:	00f51513          	slli	a0,a0,0xf
    80001648:	00100593          	li	a1,1
    8000164c:	01d59593          	slli	a1,a1,0x1d
    80001650:	fff5c593          	not	a1,a1
    80001654:	00b54633          	xor	a2,a0,a1
    80001658:	20c0b423          	sd	a2,520(ra)
    8000165c:	dfff81b7          	lui	gp,0xdfff8
    80001660:	fff1819b          	addiw	gp,gp,-1 # ffffffffdfff7fff <absimm+0xffffffff252ea52f>
    80001664:	00c18463          	beq	gp,a2,8000166c <inst_98>
    80001668:	9bdfe06f          	j	80000024 <rvtest_error>

000000008000166c <inst_98>:
    8000166c:	00100513          	li	a0,1
    80001670:	01351513          	slli	a0,a0,0x13
    80001674:	00100593          	li	a1,1
    80001678:	01e59593          	slli	a1,a1,0x1e
    8000167c:	fff5c593          	not	a1,a1
    80001680:	00b54633          	xor	a2,a0,a1
    80001684:	20c0b823          	sd	a2,528(ra)
    80001688:	bff801b7          	lui	gp,0xbff80
    8000168c:	fff1819b          	addiw	gp,gp,-1 # ffffffffbff7ffff <absimm+0xffffffff0527252f>
    80001690:	00c18463          	beq	gp,a2,80001698 <inst_99>
    80001694:	991fe06f          	j	80000024 <rvtest_error>

0000000080001698 <inst_99>:
    80001698:	aaaab537          	lui	a0,0xaaaab
    8000169c:	aaa50513          	addi	a0,a0,-1366 # ffffffffaaaaaaaa <absimm+0xfffffffeefd9cfda>
    800016a0:	00b51513          	slli	a0,a0,0xb
    800016a4:	55550513          	addi	a0,a0,1365
    800016a8:	00b51513          	slli	a0,a0,0xb
    800016ac:	2aa50513          	addi	a0,a0,682
    800016b0:	00a51513          	slli	a0,a0,0xa
    800016b4:	2aa50513          	addi	a0,a0,682
    800016b8:	00100593          	li	a1,1
    800016bc:	01f59593          	slli	a1,a1,0x1f
    800016c0:	fff5c593          	not	a1,a1
    800016c4:	00b54633          	xor	a2,a0,a1
    800016c8:	20c0bc23          	sd	a2,536(ra)
    800016cc:	055551b7          	lui	gp,0x5555
    800016d0:	5551819b          	addiw	gp,gp,1365 # 5555555 <offset+0x555513d>
    800016d4:	00c19193          	slli	gp,gp,0xc
    800016d8:	5d518193          	addi	gp,gp,1493
    800016dc:	00c19193          	slli	gp,gp,0xc
    800016e0:	55518193          	addi	gp,gp,1365
    800016e4:	00c19193          	slli	gp,gp,0xc
    800016e8:	55518193          	addi	gp,gp,1365
    800016ec:	00c18463          	beq	gp,a2,800016f4 <inst_100>
    800016f0:	935fe06f          	j	80000024 <rvtest_error>

00000000800016f4 <inst_100>:
    800016f4:	00100513          	li	a0,1
    800016f8:	03051513          	slli	a0,a0,0x30
    800016fc:	00100593          	li	a1,1
    80001700:	02059593          	slli	a1,a1,0x20
    80001704:	fff5c593          	not	a1,a1
    80001708:	00b54633          	xor	a2,a0,a1
    8000170c:	22c0b023          	sd	a2,544(ra)
    80001710:	ffff01b7          	lui	gp,0xffff0
    80001714:	fff1819b          	addiw	gp,gp,-1 # fffffffffffeffff <absimm+0xffffffff452e252f>
    80001718:	02019193          	slli	gp,gp,0x20
    8000171c:	fff18193          	addi	gp,gp,-1
    80001720:	00c18463          	beq	gp,a2,80001728 <inst_101>
    80001724:	901fe06f          	j	80000024 <rvtest_error>

0000000080001728 <inst_101>:
    80001728:	00100513          	li	a0,1
    8000172c:	02151513          	slli	a0,a0,0x21
    80001730:	00100593          	li	a1,1
    80001734:	02159593          	slli	a1,a1,0x21
    80001738:	fff5c593          	not	a1,a1
    8000173c:	00b54633          	xor	a2,a0,a1
    80001740:	22c0b423          	sd	a2,552(ra)
    80001744:	fff00193          	li	gp,-1
    80001748:	00c18463          	beq	gp,a2,80001750 <inst_102>
    8000174c:	8d9fe06f          	j	80000024 <rvtest_error>

0000000080001750 <inst_102>:
    80001750:	00100513          	li	a0,1
    80001754:	02751513          	slli	a0,a0,0x27
    80001758:	fff54513          	not	a0,a0
    8000175c:	00100593          	li	a1,1
    80001760:	02259593          	slli	a1,a1,0x22
    80001764:	fff5c593          	not	a1,a1
    80001768:	00b54633          	xor	a2,a0,a1
    8000176c:	22c0b823          	sd	a2,560(ra)
    80001770:	0210019b          	addiw	gp,zero,33
    80001774:	02219193          	slli	gp,gp,0x22
    80001778:	00c18463          	beq	gp,a2,80001780 <inst_103>
    8000177c:	8a9fe06f          	j	80000024 <rvtest_error>

0000000080001780 <inst_103>:
    80001780:	fff00513          	li	a0,-1
    80001784:	03f51513          	slli	a0,a0,0x3f
    80001788:	00100593          	li	a1,1
    8000178c:	02359593          	slli	a1,a1,0x23
    80001790:	fff5c593          	not	a1,a1
    80001794:	00b54633          	xor	a2,a0,a1
    80001798:	22c0bc23          	sd	a2,568(ra)
    8000179c:	100001b7          	lui	gp,0x10000
    800017a0:	fff1819b          	addiw	gp,gp,-1 # fffffff <absimmsh+0x452f252>
    800017a4:	02319193          	slli	gp,gp,0x23
    800017a8:	fff18193          	addi	gp,gp,-1
    800017ac:	00c18463          	beq	gp,a2,800017b4 <inst_104>
    800017b0:	875fe06f          	j	80000024 <rvtest_error>

00000000800017b4 <inst_104>:
    800017b4:	00100513          	li	a0,1
    800017b8:	03951513          	slli	a0,a0,0x39
    800017bc:	fff54513          	not	a0,a0
    800017c0:	00100593          	li	a1,1
    800017c4:	02459593          	slli	a1,a1,0x24
    800017c8:	fff5c593          	not	a1,a1
    800017cc:	00b54633          	xor	a2,a0,a1
    800017d0:	24c0b023          	sd	a2,576(ra)
    800017d4:	002001b7          	lui	gp,0x200
    800017d8:	0011819b          	addiw	gp,gp,1 # 200001 <offset+0x1ffbe9>
    800017dc:	02419193          	slli	gp,gp,0x24
    800017e0:	00c18463          	beq	gp,a2,800017e8 <inst_105>
    800017e4:	841fe06f          	j	80000024 <rvtest_error>

00000000800017e8 <inst_105>:
    800017e8:	00800513          	li	a0,8
    800017ec:	00100593          	li	a1,1
    800017f0:	02559593          	slli	a1,a1,0x25
    800017f4:	fff5c593          	not	a1,a1
    800017f8:	00b54633          	xor	a2,a0,a1
    800017fc:	24c0b423          	sd	a2,584(ra)
    80001800:	fff0019b          	addiw	gp,zero,-1
    80001804:	02519193          	slli	gp,gp,0x25
    80001808:	ff718193          	addi	gp,gp,-9
    8000180c:	00c18463          	beq	gp,a2,80001814 <inst_106>
    80001810:	815fe06f          	j	80000024 <rvtest_error>

0000000080001814 <inst_106>:
    80001814:	00100513          	li	a0,1
    80001818:	00f51513          	slli	a0,a0,0xf
    8000181c:	fff54513          	not	a0,a0
    80001820:	00100593          	li	a1,1
    80001824:	02659593          	slli	a1,a1,0x26
    80001828:	fff5c593          	not	a1,a1
    8000182c:	00b54633          	xor	a2,a0,a1
    80001830:	24c0b823          	sd	a2,592(ra)
    80001834:	008001b7          	lui	gp,0x800
    80001838:	0011819b          	addiw	gp,gp,1 # 800001 <offset+0x7ffbe9>
    8000183c:	00f19193          	slli	gp,gp,0xf
    80001840:	00c18463          	beq	gp,a2,80001848 <inst_107>
    80001844:	fe0fe06f          	j	80000024 <rvtest_error>

0000000080001848 <inst_107>:
    80001848:	00100513          	li	a0,1
    8000184c:	00e51513          	slli	a0,a0,0xe
    80001850:	fff54513          	not	a0,a0
    80001854:	00100593          	li	a1,1
    80001858:	02759593          	slli	a1,a1,0x27
    8000185c:	fff5c593          	not	a1,a1
    80001860:	00b54633          	xor	a2,a0,a1
    80001864:	24c0bc23          	sd	a2,600(ra)
    80001868:	020001b7          	lui	gp,0x2000
    8000186c:	0011819b          	addiw	gp,gp,1 # 2000001 <offset+0x1fffbe9>
    80001870:	00e19193          	slli	gp,gp,0xe
    80001874:	00c18463          	beq	gp,a2,8000187c <inst_108>
    80001878:	facfe06f          	j	80000024 <rvtest_error>

000000008000187c <inst_108>:
    8000187c:	fff00513          	li	a0,-1
    80001880:	03f51513          	slli	a0,a0,0x3f
    80001884:	00100593          	li	a1,1
    80001888:	02859593          	slli	a1,a1,0x28
    8000188c:	fff5c593          	not	a1,a1
    80001890:	00b54633          	xor	a2,a0,a1
    80001894:	26c0b023          	sd	a2,608(ra)
    80001898:	008001b7          	lui	gp,0x800
    8000189c:	fff1819b          	addiw	gp,gp,-1 # 7fffff <offset+0x7ffbe7>
    800018a0:	02819193          	slli	gp,gp,0x28
    800018a4:	fff18193          	addi	gp,gp,-1
    800018a8:	00c18463          	beq	gp,a2,800018b0 <inst_109>
    800018ac:	f78fe06f          	j	80000024 <rvtest_error>

00000000800018b0 <inst_109>:
    800018b0:	00100513          	li	a0,1
    800018b4:	01951513          	slli	a0,a0,0x19
    800018b8:	00100593          	li	a1,1
    800018bc:	02a59593          	slli	a1,a1,0x2a
    800018c0:	fff5c593          	not	a1,a1
    800018c4:	00b54633          	xor	a2,a0,a1
    800018c8:	26c0b423          	sd	a2,616(ra)
    800018cc:	fffe01b7          	lui	gp,0xfffe0
    800018d0:	fff1819b          	addiw	gp,gp,-1 # fffffffffffdffff <absimm+0xffffffff452d252f>
    800018d4:	01919193          	slli	gp,gp,0x19
    800018d8:	fff18193          	addi	gp,gp,-1
    800018dc:	00c18463          	beq	gp,a2,800018e4 <inst_110>
    800018e0:	f44fe06f          	j	80000024 <rvtest_error>

00000000800018e4 <inst_110>:
    800018e4:	00300513          	li	a0,3
    800018e8:	00100593          	li	a1,1
    800018ec:	02b59593          	slli	a1,a1,0x2b
    800018f0:	fff5c593          	not	a1,a1
    800018f4:	00b54633          	xor	a2,a0,a1
    800018f8:	26c0b823          	sd	a2,624(ra)
    800018fc:	fff0019b          	addiw	gp,zero,-1
    80001900:	02b19193          	slli	gp,gp,0x2b
    80001904:	ffc18193          	addi	gp,gp,-4
    80001908:	00c18463          	beq	gp,a2,80001910 <inst_111>
    8000190c:	f18fe06f          	j	80000024 <rvtest_error>

0000000080001910 <inst_111>:
    80001910:	00100513          	li	a0,1
    80001914:	03951513          	slli	a0,a0,0x39
    80001918:	fff54513          	not	a0,a0
    8000191c:	00100593          	li	a1,1
    80001920:	02c59593          	slli	a1,a1,0x2c
    80001924:	fff5c593          	not	a1,a1
    80001928:	00b54633          	xor	a2,a0,a1
    8000192c:	26c0bc23          	sd	a2,632(ra)
    80001930:	000021b7          	lui	gp,0x2
    80001934:	0011819b          	addiw	gp,gp,1 # 2001 <offset+0x1be9>
    80001938:	02c19193          	slli	gp,gp,0x2c
    8000193c:	00c18463          	beq	gp,a2,80001944 <inst_112>
    80001940:	ee4fe06f          	j	80000024 <rvtest_error>

0000000080001944 <inst_112>:
    80001944:	00000513          	li	a0,0
    80001948:	00100593          	li	a1,1
    8000194c:	02d59593          	slli	a1,a1,0x2d
    80001950:	fff5c593          	not	a1,a1
    80001954:	00b54633          	xor	a2,a0,a1
    80001958:	28c0b023          	sd	a2,640(ra)
    8000195c:	fff0019b          	addiw	gp,zero,-1
    80001960:	02d19193          	slli	gp,gp,0x2d
    80001964:	fff18193          	addi	gp,gp,-1
    80001968:	00c18463          	beq	gp,a2,80001970 <inst_113>
    8000196c:	eb8fe06f          	j	80000024 <rvtest_error>

0000000080001970 <inst_113>:
    80001970:	eff00513          	li	a0,-257
    80001974:	00100593          	li	a1,1
    80001978:	02e59593          	slli	a1,a1,0x2e
    8000197c:	fff5c593          	not	a1,a1
    80001980:	00b54633          	xor	a2,a0,a1
    80001984:	28c0b423          	sd	a2,648(ra)
    80001988:	0010019b          	addiw	gp,zero,1
    8000198c:	02e19193          	slli	gp,gp,0x2e
    80001990:	10018193          	addi	gp,gp,256
    80001994:	00c18463          	beq	gp,a2,8000199c <inst_114>
    80001998:	e8cfe06f          	j	80000024 <rvtest_error>

000000008000199c <inst_114>:
    8000199c:	33333537          	lui	a0,0x33333
    800019a0:	33350513          	addi	a0,a0,819 # 33333333 <absimmsh+0x27862586>
    800019a4:	00b51513          	slli	a0,a0,0xb
    800019a8:	19950513          	addi	a0,a0,409
    800019ac:	00b51513          	slli	a0,a0,0xb
    800019b0:	4cc50513          	addi	a0,a0,1228
    800019b4:	00a51513          	slli	a0,a0,0xa
    800019b8:	33450513          	addi	a0,a0,820
    800019bc:	00100593          	li	a1,1
    800019c0:	02f59593          	slli	a1,a1,0x2f
    800019c4:	fff5c593          	not	a1,a1
    800019c8:	00b54633          	xor	a2,a0,a1
    800019cc:	28c0b823          	sd	a2,656(ra)
    800019d0:	fcccc1b7          	lui	gp,0xfcccc
    800019d4:	4cd1819b          	addiw	gp,gp,1229 # fffffffffcccc4cd <absimm+0xffffffff41fbe9fd>
    800019d8:	00c19193          	slli	gp,gp,0xc
    800019dc:	ccd18193          	addi	gp,gp,-819
    800019e0:	00c19193          	slli	gp,gp,0xc
    800019e4:	ccd18193          	addi	gp,gp,-819
    800019e8:	00c19193          	slli	gp,gp,0xc
    800019ec:	ccb18193          	addi	gp,gp,-821
    800019f0:	00c18463          	beq	gp,a2,800019f8 <inst_115>
    800019f4:	e30fe06f          	j	80000024 <rvtest_error>

00000000800019f8 <inst_115>:
    800019f8:	00100513          	li	a0,1
    800019fc:	01151513          	slli	a0,a0,0x11
    80001a00:	00100593          	li	a1,1
    80001a04:	03059593          	slli	a1,a1,0x30
    80001a08:	fff5c593          	not	a1,a1
    80001a0c:	00b54633          	xor	a2,a0,a1
    80001a10:	28c0bc23          	sd	a2,664(ra)
    80001a14:	fff0019b          	addiw	gp,zero,-1
    80001a18:	01f19193          	slli	gp,gp,0x1f
    80001a1c:	fff18193          	addi	gp,gp,-1
    80001a20:	01119193          	slli	gp,gp,0x11
    80001a24:	fff18193          	addi	gp,gp,-1
    80001a28:	00c18463          	beq	gp,a2,80001a30 <inst_116>
    80001a2c:	df8fe06f          	j	80000024 <rvtest_error>

0000000080001a30 <inst_116>:
    80001a30:	00100513          	li	a0,1
    80001a34:	02a51513          	slli	a0,a0,0x2a
    80001a38:	fff54513          	not	a0,a0
    80001a3c:	00100593          	li	a1,1
    80001a40:	03159593          	slli	a1,a1,0x31
    80001a44:	fff5c593          	not	a1,a1
    80001a48:	00b54633          	xor	a2,a0,a1
    80001a4c:	2ac0b023          	sd	a2,672(ra)
    80001a50:	0810019b          	addiw	gp,zero,129
    80001a54:	02a19193          	slli	gp,gp,0x2a
    80001a58:	00c18463          	beq	gp,a2,80001a60 <inst_117>
    80001a5c:	dc8fe06f          	j	80000024 <rvtest_error>

0000000080001a60 <inst_117>:
    80001a60:	dff00513          	li	a0,-513
    80001a64:	00100593          	li	a1,1
    80001a68:	03259593          	slli	a1,a1,0x32
    80001a6c:	fff5c593          	not	a1,a1
    80001a70:	00b54633          	xor	a2,a0,a1
    80001a74:	2ac0b423          	sd	a2,680(ra)
    80001a78:	0010019b          	addiw	gp,zero,1
    80001a7c:	03219193          	slli	gp,gp,0x32
    80001a80:	20018193          	addi	gp,gp,512
    80001a84:	00c18463          	beq	gp,a2,80001a8c <inst_118>
    80001a88:	d9cfe06f          	j	80000024 <rvtest_error>

0000000080001a8c <inst_118>:
    80001a8c:	55555537          	lui	a0,0x55555
    80001a90:	55550513          	addi	a0,a0,1365 # 55555555 <absimmsh+0x49a847a8>
    80001a94:	00b51513          	slli	a0,a0,0xb
    80001a98:	2aa50513          	addi	a0,a0,682
    80001a9c:	00b51513          	slli	a0,a0,0xb
    80001aa0:	55550513          	addi	a0,a0,1365
    80001aa4:	00a51513          	slli	a0,a0,0xa
    80001aa8:	15550513          	addi	a0,a0,341
    80001aac:	00100593          	li	a1,1
    80001ab0:	03359593          	slli	a1,a1,0x33
    80001ab4:	fff5c593          	not	a1,a1
    80001ab8:	00b54633          	xor	a2,a0,a1
    80001abc:	2ac0b823          	sd	a2,688(ra)
    80001ac0:	faaa31b7          	lui	gp,0xfaaa3
    80001ac4:	aab1819b          	addiw	gp,gp,-1365 # fffffffffaaa2aab <absimm+0xffffffff3fd94fdb>
    80001ac8:	00c19193          	slli	gp,gp,0xc
    80001acc:	aab18193          	addi	gp,gp,-1365
    80001ad0:	00c19193          	slli	gp,gp,0xc
    80001ad4:	aab18193          	addi	gp,gp,-1365
    80001ad8:	00c19193          	slli	gp,gp,0xc
    80001adc:	aaa18193          	addi	gp,gp,-1366
    80001ae0:	00c18463          	beq	gp,a2,80001ae8 <inst_119>
    80001ae4:	d40fe06f          	j	80000024 <rvtest_error>

0000000080001ae8 <inst_119>:
    80001ae8:	00100513          	li	a0,1
    80001aec:	02951513          	slli	a0,a0,0x29
    80001af0:	00100593          	li	a1,1
    80001af4:	03459593          	slli	a1,a1,0x34
    80001af8:	fff5c593          	not	a1,a1
    80001afc:	00b54633          	xor	a2,a0,a1
    80001b00:	2ac0bc23          	sd	a2,696(ra)
    80001b04:	fffff1b7          	lui	gp,0xfffff
    80001b08:	7ff1819b          	addiw	gp,gp,2047 # fffffffffffff7ff <absimm+0xffffffff452f1d2f>
    80001b0c:	02919193          	slli	gp,gp,0x29
    80001b10:	fff18193          	addi	gp,gp,-1
    80001b14:	00c18463          	beq	gp,a2,80001b1c <inst_120>
    80001b18:	d0cfe06f          	j	80000024 <rvtest_error>

0000000080001b1c <inst_120>:
    80001b1c:	00100513          	li	a0,1
    80001b20:	01251513          	slli	a0,a0,0x12
    80001b24:	00100593          	li	a1,1
    80001b28:	03559593          	slli	a1,a1,0x35
    80001b2c:	fff5c593          	not	a1,a1
    80001b30:	00b54633          	xor	a2,a0,a1
    80001b34:	2cc0b023          	sd	a2,704(ra)
    80001b38:	fff0019b          	addiw	gp,zero,-1
    80001b3c:	02319193          	slli	gp,gp,0x23
    80001b40:	fff18193          	addi	gp,gp,-1
    80001b44:	01219193          	slli	gp,gp,0x12
    80001b48:	fff18193          	addi	gp,gp,-1
    80001b4c:	00c18463          	beq	gp,a2,80001b54 <inst_121>
    80001b50:	cd4fe06f          	j	80000024 <rvtest_error>

0000000080001b54 <inst_121>:
    80001b54:	00100513          	li	a0,1
    80001b58:	00b51513          	slli	a0,a0,0xb
    80001b5c:	fff54513          	not	a0,a0
    80001b60:	00100593          	li	a1,1
    80001b64:	03659593          	slli	a1,a1,0x36
    80001b68:	fff5c593          	not	a1,a1
    80001b6c:	00b54633          	xor	a2,a0,a1
    80001b70:	2cc0b423          	sd	a2,712(ra)
    80001b74:	0010019b          	addiw	gp,zero,1
    80001b78:	02a19193          	slli	gp,gp,0x2a
    80001b7c:	00118193          	addi	gp,gp,1
    80001b80:	00c19193          	slli	gp,gp,0xc
    80001b84:	80018193          	addi	gp,gp,-2048
    80001b88:	00c18463          	beq	gp,a2,80001b90 <inst_122>
    80001b8c:	c98fe06f          	j	80000024 <rvtest_error>

0000000080001b90 <inst_122>:
    80001b90:	00100513          	li	a0,1
    80001b94:	00100593          	li	a1,1
    80001b98:	03759593          	slli	a1,a1,0x37
    80001b9c:	fff5c593          	not	a1,a1
    80001ba0:	00b54633          	xor	a2,a0,a1
    80001ba4:	2cc0b823          	sd	a2,720(ra)
    80001ba8:	fff0019b          	addiw	gp,zero,-1
    80001bac:	03719193          	slli	gp,gp,0x37
    80001bb0:	ffe18193          	addi	gp,gp,-2
    80001bb4:	00c18463          	beq	gp,a2,80001bbc <inst_123>
    80001bb8:	c6cfe06f          	j	80000024 <rvtest_error>

0000000080001bbc <inst_123>:
    80001bbc:	00100513          	li	a0,1
    80001bc0:	01e51513          	slli	a0,a0,0x1e
    80001bc4:	fff54513          	not	a0,a0
    80001bc8:	00100593          	li	a1,1
    80001bcc:	03859593          	slli	a1,a1,0x38
    80001bd0:	fff5c593          	not	a1,a1
    80001bd4:	00b54633          	xor	a2,a0,a1
    80001bd8:	2cc0bc23          	sd	a2,728(ra)
    80001bdc:	040001b7          	lui	gp,0x4000
    80001be0:	0011819b          	addiw	gp,gp,1 # 4000001 <offset+0x3fffbe9>
    80001be4:	01e19193          	slli	gp,gp,0x1e
    80001be8:	00c18463          	beq	gp,a2,80001bf0 <inst_124>
    80001bec:	c38fe06f          	j	80000024 <rvtest_error>

0000000080001bf0 <inst_124>:
    80001bf0:	ff900513          	li	a0,-7
    80001bf4:	00100593          	li	a1,1
    80001bf8:	03959593          	slli	a1,a1,0x39
    80001bfc:	fff5c593          	not	a1,a1
    80001c00:	00b54633          	xor	a2,a0,a1
    80001c04:	2ec0b023          	sd	a2,736(ra)
    80001c08:	0010019b          	addiw	gp,zero,1
    80001c0c:	03919193          	slli	gp,gp,0x39
    80001c10:	00618193          	addi	gp,gp,6
    80001c14:	00c18463          	beq	gp,a2,80001c1c <inst_125>
    80001c18:	c0cfe06f          	j	80000024 <rvtest_error>

0000000080001c1c <inst_125>:
    80001c1c:	00400513          	li	a0,4
    80001c20:	00100593          	li	a1,1
    80001c24:	03a59593          	slli	a1,a1,0x3a
    80001c28:	fff5c593          	not	a1,a1
    80001c2c:	00b54633          	xor	a2,a0,a1
    80001c30:	2ec0b423          	sd	a2,744(ra)
    80001c34:	fff0019b          	addiw	gp,zero,-1
    80001c38:	03a19193          	slli	gp,gp,0x3a
    80001c3c:	ffb18193          	addi	gp,gp,-5
    80001c40:	00c18463          	beq	gp,a2,80001c48 <inst_126>
    80001c44:	be0fe06f          	j	80000024 <rvtest_error>

0000000080001c48 <inst_126>:
    80001c48:	ffa00513          	li	a0,-6
    80001c4c:	00100593          	li	a1,1
    80001c50:	03b59593          	slli	a1,a1,0x3b
    80001c54:	fff5c593          	not	a1,a1
    80001c58:	00b54633          	xor	a2,a0,a1
    80001c5c:	2ec0b823          	sd	a2,752(ra)
    80001c60:	0010019b          	addiw	gp,zero,1
    80001c64:	03b19193          	slli	gp,gp,0x3b
    80001c68:	00518193          	addi	gp,gp,5
    80001c6c:	00c18463          	beq	gp,a2,80001c74 <inst_127>
    80001c70:	bb4fe06f          	j	80000024 <rvtest_error>

0000000080001c74 <inst_127>:
    80001c74:	00100513          	li	a0,1
    80001c78:	03751513          	slli	a0,a0,0x37
    80001c7c:	00100593          	li	a1,1
    80001c80:	03c59593          	slli	a1,a1,0x3c
    80001c84:	fff5c593          	not	a1,a1
    80001c88:	00b54633          	xor	a2,a0,a1
    80001c8c:	2ec0bc23          	sd	a2,760(ra)
    80001c90:	fdf0019b          	addiw	gp,zero,-33
    80001c94:	03719193          	slli	gp,gp,0x37
    80001c98:	fff18193          	addi	gp,gp,-1
    80001c9c:	00c18463          	beq	gp,a2,80001ca4 <inst_128>
    80001ca0:	b84fe06f          	j	80000024 <rvtest_error>

0000000080001ca4 <inst_128>:
    80001ca4:	00100513          	li	a0,1
    80001ca8:	02451513          	slli	a0,a0,0x24
    80001cac:	fff54513          	not	a0,a0
    80001cb0:	00100593          	li	a1,1
    80001cb4:	03d59593          	slli	a1,a1,0x3d
    80001cb8:	fff5c593          	not	a1,a1
    80001cbc:	00b54633          	xor	a2,a0,a1
    80001cc0:	30c0b023          	sd	a2,768(ra)
    80001cc4:	020001b7          	lui	gp,0x2000
    80001cc8:	0011819b          	addiw	gp,gp,1 # 2000001 <offset+0x1fffbe9>
    80001ccc:	02419193          	slli	gp,gp,0x24
    80001cd0:	00c18463          	beq	gp,a2,80001cd8 <inst_129>
    80001cd4:	b50fe06f          	j	80000024 <rvtest_error>

0000000080001cd8 <inst_129>:
    80001cd8:	00000537          	lui	a0,0x0
    80001cdc:	fff50513          	addi	a0,a0,-1
    80001ce0:	00b51513          	slli	a0,a0,0xb
    80001ce4:	25750513          	addi	a0,a0,599
    80001ce8:	00b51513          	slli	a0,a0,0xb
    80001cec:	6c350513          	addi	a0,a0,1731
    80001cf0:	00a51513          	slli	a0,a0,0xa
    80001cf4:	0cd50513          	addi	a0,a0,205
    80001cf8:	00100593          	li	a1,1
    80001cfc:	03e59593          	slli	a1,a1,0x3e
    80001d00:	fff5c593          	not	a1,a1
    80001d04:	00b54633          	xor	a2,a0,a1
    80001d08:	30c0b423          	sd	a2,776(ra)
    80001d0c:	0010019b          	addiw	gp,zero,1
    80001d10:	02619193          	slli	gp,gp,0x26
    80001d14:	0b518193          	addi	gp,gp,181
    80001d18:	00c19193          	slli	gp,gp,0xc
    80001d1c:	04f18193          	addi	gp,gp,79
    80001d20:	00c19193          	slli	gp,gp,0xc
    80001d24:	33218193          	addi	gp,gp,818
    80001d28:	00c18463          	beq	gp,a2,80001d30 <inst_130>
    80001d2c:	af8fe06f          	j	80000024 <rvtest_error>

0000000080001d30 <inst_130>:
    80001d30:	00300513          	li	a0,3
    80001d34:	555555b7          	lui	a1,0x55555
    80001d38:	55558593          	addi	a1,a1,1365 # 55555555 <absimmsh+0x49a847a8>
    80001d3c:	00b59593          	slli	a1,a1,0xb
    80001d40:	2aa58593          	addi	a1,a1,682
    80001d44:	00b59593          	slli	a1,a1,0xb
    80001d48:	55558593          	addi	a1,a1,1365
    80001d4c:	00a59593          	slli	a1,a1,0xa
    80001d50:	15558593          	addi	a1,a1,341
    80001d54:	00b54633          	xor	a2,a0,a1
    80001d58:	30c0b823          	sd	a2,784(ra)
    80001d5c:	055551b7          	lui	gp,0x5555
    80001d60:	5551819b          	addiw	gp,gp,1365 # 5555555 <offset+0x555513d>
    80001d64:	00c19193          	slli	gp,gp,0xc
    80001d68:	55518193          	addi	gp,gp,1365
    80001d6c:	00c19193          	slli	gp,gp,0xc
    80001d70:	55518193          	addi	gp,gp,1365
    80001d74:	00c19193          	slli	gp,gp,0xc
    80001d78:	55618193          	addi	gp,gp,1366
    80001d7c:	00c18463          	beq	gp,a2,80001d84 <inst_131>
    80001d80:	aa4fe06f          	j	80000024 <rvtest_error>

0000000080001d84 <inst_131>:
    80001d84:	00400513          	li	a0,4
    80001d88:	aaaab5b7          	lui	a1,0xaaaab
    80001d8c:	aaa58593          	addi	a1,a1,-1366 # ffffffffaaaaaaaa <absimm+0xfffffffeefd9cfda>
    80001d90:	00b59593          	slli	a1,a1,0xb
    80001d94:	55558593          	addi	a1,a1,1365
    80001d98:	00b59593          	slli	a1,a1,0xb
    80001d9c:	2aa58593          	addi	a1,a1,682
    80001da0:	00a59593          	slli	a1,a1,0xa
    80001da4:	2aa58593          	addi	a1,a1,682
    80001da8:	00b54633          	xor	a2,a0,a1
    80001dac:	30c0bc23          	sd	a2,792(ra)
    80001db0:	faaab1b7          	lui	gp,0xfaaab
    80001db4:	aab1819b          	addiw	gp,gp,-1365 # fffffffffaaaaaab <absimm+0xffffffff3fd9cfdb>
    80001db8:	00c19193          	slli	gp,gp,0xc
    80001dbc:	aab18193          	addi	gp,gp,-1365
    80001dc0:	00c19193          	slli	gp,gp,0xc
    80001dc4:	aab18193          	addi	gp,gp,-1365
    80001dc8:	00c19193          	slli	gp,gp,0xc
    80001dcc:	aae18193          	addi	gp,gp,-1362
    80001dd0:	00c18463          	beq	gp,a2,80001dd8 <inst_132>
    80001dd4:	a50fe06f          	j	80000024 <rvtest_error>

0000000080001dd8 <inst_132>:
    80001dd8:	01000513          	li	a0,16
    80001ddc:	00100593          	li	a1,1
    80001de0:	02059593          	slli	a1,a1,0x20
    80001de4:	00b54633          	xor	a2,a0,a1
    80001de8:	32c0b023          	sd	a2,800(ra)
    80001dec:	0010019b          	addiw	gp,zero,1
    80001df0:	02019193          	slli	gp,gp,0x20
    80001df4:	01018193          	addi	gp,gp,16
    80001df8:	00c18463          	beq	gp,a2,80001e00 <inst_133>
    80001dfc:	a28fe06f          	j	80000024 <rvtest_error>

0000000080001e00 <inst_133>:
    80001e00:	04000513          	li	a0,64
    80001e04:	00700593          	li	a1,7
    80001e08:	00b54633          	xor	a2,a0,a1
    80001e0c:	32c0b423          	sd	a2,808(ra)
    80001e10:	04700193          	li	gp,71
    80001e14:	00c18463          	beq	gp,a2,80001e1c <inst_134>
    80001e18:	a0cfe06f          	j	80000024 <rvtest_error>

0000000080001e1c <inst_134>:
    80001e1c:	08000513          	li	a0,128
    80001e20:	00100593          	li	a1,1
    80001e24:	02159593          	slli	a1,a1,0x21
    80001e28:	fff5c593          	not	a1,a1
    80001e2c:	00b54633          	xor	a2,a0,a1
    80001e30:	32c0b823          	sd	a2,816(ra)
    80001e34:	fff0019b          	addiw	gp,zero,-1
    80001e38:	02119193          	slli	gp,gp,0x21
    80001e3c:	f7f18193          	addi	gp,gp,-129
    80001e40:	00c18463          	beq	gp,a2,80001e48 <inst_135>
    80001e44:	9e0fe06f          	j	80000024 <rvtest_error>

0000000080001e48 <inst_135>:
    80001e48:	40000513          	li	a0,1024
    80001e4c:	00100593          	li	a1,1
    80001e50:	01259593          	slli	a1,a1,0x12
    80001e54:	00b54633          	xor	a2,a0,a1
    80001e58:	32c0bc23          	sd	a2,824(ra)
    80001e5c:	000401b7          	lui	gp,0x40
    80001e60:	4001819b          	addiw	gp,gp,1024 # 40400 <offset+0x3ffe8>
    80001e64:	00c18463          	beq	gp,a2,80001e6c <inst_136>
    80001e68:	9bcfe06f          	j	80000024 <rvtest_error>

0000000080001e6c <inst_136>:
    80001e6c:	00100513          	li	a0,1
    80001e70:	00b51513          	slli	a0,a0,0xb
    80001e74:	333335b7          	lui	a1,0x33333
    80001e78:	33358593          	addi	a1,a1,819 # 33333333 <absimmsh+0x27862586>
    80001e7c:	00b59593          	slli	a1,a1,0xb
    80001e80:	19958593          	addi	a1,a1,409
    80001e84:	00b59593          	slli	a1,a1,0xb
    80001e88:	4cc58593          	addi	a1,a1,1228
    80001e8c:	00a59593          	slli	a1,a1,0xa
    80001e90:	33458593          	addi	a1,a1,820
    80001e94:	00b54633          	xor	a2,a0,a1
    80001e98:	34c0b023          	sd	a2,832(ra)
    80001e9c:	00ccd1b7          	lui	gp,0xccd
    80001ea0:	ccd1819b          	addiw	gp,gp,-819 # cccccd <offset+0xccc8b5>
    80001ea4:	00c19193          	slli	gp,gp,0xc
    80001ea8:	ccd18193          	addi	gp,gp,-819
    80001eac:	00c19193          	slli	gp,gp,0xc
    80001eb0:	ccd18193          	addi	gp,gp,-819
    80001eb4:	00e19193          	slli	gp,gp,0xe
    80001eb8:	b3418193          	addi	gp,gp,-1228
    80001ebc:	00c18463          	beq	gp,a2,80001ec4 <inst_137>
    80001ec0:	964fe06f          	j	80000024 <rvtest_error>

0000000080001ec4 <inst_137>:
    80001ec4:	00100513          	li	a0,1
    80001ec8:	00e51513          	slli	a0,a0,0xe
    80001ecc:	00100593          	li	a1,1
    80001ed0:	01259593          	slli	a1,a1,0x12
    80001ed4:	fff5c593          	not	a1,a1
    80001ed8:	00b54633          	xor	a2,a0,a1
    80001edc:	34c0b423          	sd	a2,840(ra)
    80001ee0:	fffbc1b7          	lui	gp,0xfffbc
    80001ee4:	fff1819b          	addiw	gp,gp,-1 # fffffffffffbbfff <absimm+0xffffffff452ae52f>
    80001ee8:	00c18463          	beq	gp,a2,80001ef0 <inst_138>
    80001eec:	938fe06f          	j	80000024 <rvtest_error>

0000000080001ef0 <inst_138>:
    80001ef0:	00100513          	li	a0,1
    80001ef4:	01051513          	slli	a0,a0,0x10
    80001ef8:	00100593          	li	a1,1
    80001efc:	00f59593          	slli	a1,a1,0xf
    80001f00:	fff5c593          	not	a1,a1
    80001f04:	00b54633          	xor	a2,a0,a1
    80001f08:	34c0b823          	sd	a2,848(ra)
    80001f0c:	fffe81b7          	lui	gp,0xfffe8
    80001f10:	fff1819b          	addiw	gp,gp,-1 # fffffffffffe7fff <absimm+0xffffffff452da52f>
    80001f14:	00c18463          	beq	gp,a2,80001f1c <inst_139>
    80001f18:	90cfe06f          	j	80000024 <rvtest_error>

0000000080001f1c <inst_139>:
    80001f1c:	00100513          	li	a0,1
    80001f20:	01451513          	slli	a0,a0,0x14
    80001f24:	bff00593          	li	a1,-1025
    80001f28:	00b54633          	xor	a2,a0,a1
    80001f2c:	34c0bc23          	sd	a2,856(ra)
    80001f30:	fff001b7          	lui	gp,0xfff00
    80001f34:	bff1819b          	addiw	gp,gp,-1025 # ffffffffffeffbff <absimm+0xffffffff451f212f>
    80001f38:	00c18463          	beq	gp,a2,80001f40 <inst_140>
    80001f3c:	8e8fe06f          	j	80000024 <rvtest_error>

0000000080001f40 <inst_140>:
    80001f40:	00100513          	li	a0,1
    80001f44:	01651513          	slli	a0,a0,0x16
    80001f48:	00100593          	li	a1,1
    80001f4c:	03059593          	slli	a1,a1,0x30
    80001f50:	fff5c593          	not	a1,a1
    80001f54:	00b54633          	xor	a2,a0,a1
    80001f58:	36c0b023          	sd	a2,864(ra)
    80001f5c:	fc0001b7          	lui	gp,0xfc000
    80001f60:	fff1819b          	addiw	gp,gp,-1 # fffffffffbffffff <absimm+0xffffffff412f252f>
    80001f64:	01619193          	slli	gp,gp,0x16
    80001f68:	fff18193          	addi	gp,gp,-1
    80001f6c:	00c18463          	beq	gp,a2,80001f74 <inst_141>
    80001f70:	8b4fe06f          	j	80000024 <rvtest_error>

0000000080001f74 <inst_141>:
    80001f74:	00100513          	li	a0,1
    80001f78:	01751513          	slli	a0,a0,0x17
    80001f7c:	00100593          	li	a1,1
    80001f80:	00d59593          	slli	a1,a1,0xd
    80001f84:	fff5c593          	not	a1,a1
    80001f88:	00b54633          	xor	a2,a0,a1
    80001f8c:	36c0b423          	sd	a2,872(ra)
    80001f90:	ff7fe1b7          	lui	gp,0xff7fe
    80001f94:	fff1819b          	addiw	gp,gp,-1 # ffffffffff7fdfff <absimm+0xffffffff44af052f>
    80001f98:	00c18463          	beq	gp,a2,80001fa0 <inst_142>
    80001f9c:	888fe06f          	j	80000024 <rvtest_error>

0000000080001fa0 <inst_142>:
    80001fa0:	00100513          	li	a0,1
    80001fa4:	01a51513          	slli	a0,a0,0x1a
    80001fa8:	00100593          	li	a1,1
    80001fac:	03b59593          	slli	a1,a1,0x3b
    80001fb0:	00b54633          	xor	a2,a0,a1
    80001fb4:	36c0b823          	sd	a2,880(ra)
    80001fb8:	0010019b          	addiw	gp,zero,1
    80001fbc:	02119193          	slli	gp,gp,0x21
    80001fc0:	00118193          	addi	gp,gp,1
    80001fc4:	01a19193          	slli	gp,gp,0x1a
    80001fc8:	00c18463          	beq	gp,a2,80001fd0 <inst_143>
    80001fcc:	858fe06f          	j	80000024 <rvtest_error>

0000000080001fd0 <inst_143>:
    80001fd0:	00100513          	li	a0,1
    80001fd4:	01d51513          	slli	a0,a0,0x1d
    80001fd8:	555555b7          	lui	a1,0x55555
    80001fdc:	55558593          	addi	a1,a1,1365 # 55555555 <absimmsh+0x49a847a8>
    80001fe0:	00b59593          	slli	a1,a1,0xb
    80001fe4:	2aa58593          	addi	a1,a1,682
    80001fe8:	00b59593          	slli	a1,a1,0xb
    80001fec:	55558593          	addi	a1,a1,1365
    80001ff0:	00a59593          	slli	a1,a1,0xa
    80001ff4:	15558593          	addi	a1,a1,341
    80001ff8:	00b54633          	xor	a2,a0,a1
    80001ffc:	36c0bc23          	sd	a2,888(ra)
    80002000:	055551b7          	lui	gp,0x5555
    80002004:	5551819b          	addiw	gp,gp,1365 # 5555555 <offset+0x555513d>
    80002008:	00c19193          	slli	gp,gp,0xc
    8000200c:	57518193          	addi	gp,gp,1397
    80002010:	00c19193          	slli	gp,gp,0xc
    80002014:	55518193          	addi	gp,gp,1365
    80002018:	00c19193          	slli	gp,gp,0xc
    8000201c:	55518193          	addi	gp,gp,1365
    80002020:	00c18463          	beq	gp,a2,80002028 <inst_144>
    80002024:	800fe06f          	j	80000024 <rvtest_error>

0000000080002028 <inst_144>:
    80002028:	00100513          	li	a0,1
    8000202c:	01f51513          	slli	a0,a0,0x1f
    80002030:	00100593          	li	a1,1
    80002034:	01259593          	slli	a1,a1,0x12
    80002038:	00b54633          	xor	a2,a0,a1
    8000203c:	38c0b023          	sd	a2,896(ra)
    80002040:	000021b7          	lui	gp,0x2
    80002044:	0011819b          	addiw	gp,gp,1 # 2001 <offset+0x1be9>
    80002048:	01219193          	slli	gp,gp,0x12
    8000204c:	00c18463          	beq	gp,a2,80002054 <inst_145>
    80002050:	fd5fd06f          	j	80000024 <rvtest_error>

0000000080002054 <inst_145>:
    80002054:	00100513          	li	a0,1
    80002058:	02251513          	slli	a0,a0,0x22
    8000205c:	fbf00593          	li	a1,-65
    80002060:	00b54633          	xor	a2,a0,a1
    80002064:	38c0b423          	sd	a2,904(ra)
    80002068:	fff0019b          	addiw	gp,zero,-1
    8000206c:	02219193          	slli	gp,gp,0x22
    80002070:	fbf18193          	addi	gp,gp,-65
    80002074:	00c18463          	beq	gp,a2,8000207c <inst_146>
    80002078:	fadfd06f          	j	80000024 <rvtest_error>

000000008000207c <inst_146>:
    8000207c:	00100513          	li	a0,1
    80002080:	02451513          	slli	a0,a0,0x24
    80002084:	000005b7          	lui	a1,0x0
    80002088:	fff58593          	addi	a1,a1,-1
    8000208c:	00b59593          	slli	a1,a1,0xb
    80002090:	25758593          	addi	a1,a1,599
    80002094:	00b59593          	slli	a1,a1,0xb
    80002098:	6c358593          	addi	a1,a1,1731
    8000209c:	00a59593          	slli	a1,a1,0xa
    800020a0:	0cd58593          	addi	a1,a1,205
    800020a4:	00b54633          	xor	a2,a0,a1
    800020a8:	38c0b823          	sd	a2,912(ra)
    800020ac:	fef4b1b7          	lui	gp,0xfef4b
    800020b0:	fb11819b          	addiw	gp,gp,-79 # fffffffffef4afb1 <absimm+0xffffffff4423d4e1>
    800020b4:	00c19193          	slli	gp,gp,0xc
    800020b8:	ccd18193          	addi	gp,gp,-819
    800020bc:	00c18463          	beq	gp,a2,800020c4 <inst_147>
    800020c0:	f65fd06f          	j	80000024 <rvtest_error>

00000000800020c4 <inst_147>:
    800020c4:	00100513          	li	a0,1
    800020c8:	02851513          	slli	a0,a0,0x28
    800020cc:	00100593          	li	a1,1
    800020d0:	02c59593          	slli	a1,a1,0x2c
    800020d4:	00b54633          	xor	a2,a0,a1
    800020d8:	38c0bc23          	sd	a2,920(ra)
    800020dc:	0110019b          	addiw	gp,zero,17
    800020e0:	02819193          	slli	gp,gp,0x28
    800020e4:	00c18463          	beq	gp,a2,800020ec <inst_148>
    800020e8:	f3dfd06f          	j	80000024 <rvtest_error>

00000000800020ec <inst_148>:
    800020ec:	00100513          	li	a0,1
    800020f0:	02a51513          	slli	a0,a0,0x2a
    800020f4:	00100593          	li	a1,1
    800020f8:	01c59593          	slli	a1,a1,0x1c
    800020fc:	00b54633          	xor	a2,a0,a1
    80002100:	3ac0b023          	sd	a2,928(ra)
    80002104:	000041b7          	lui	gp,0x4
    80002108:	0011819b          	addiw	gp,gp,1 # 4001 <offset+0x3be9>
    8000210c:	01c19193          	slli	gp,gp,0x1c
    80002110:	00c18463          	beq	gp,a2,80002118 <inst_149>
    80002114:	f11fd06f          	j	80000024 <rvtest_error>

0000000080002118 <inst_149>:
    80002118:	00100513          	li	a0,1
    8000211c:	02b51513          	slli	a0,a0,0x2b
    80002120:	00100593          	li	a1,1
    80002124:	02959593          	slli	a1,a1,0x29
    80002128:	00b54633          	xor	a2,a0,a1
    8000212c:	3ac0b423          	sd	a2,936(ra)
    80002130:	0050019b          	addiw	gp,zero,5
    80002134:	02919193          	slli	gp,gp,0x29
    80002138:	00c18463          	beq	gp,a2,80002140 <inst_150>
    8000213c:	ee9fd06f          	j	80000024 <rvtest_error>

0000000080002140 <inst_150>:
    80002140:	00100513          	li	a0,1
    80002144:	02c51513          	slli	a0,a0,0x2c
    80002148:	00100593          	li	a1,1
    8000214c:	01659593          	slli	a1,a1,0x16
    80002150:	fff5c593          	not	a1,a1
    80002154:	00b54633          	xor	a2,a0,a1
    80002158:	3ac0b823          	sd	a2,944(ra)
    8000215c:	ffc001b7          	lui	gp,0xffc00
    80002160:	fff1819b          	addiw	gp,gp,-1 # ffffffffffbfffff <absimm+0xffffffff44ef252f>
    80002164:	01619193          	slli	gp,gp,0x16
    80002168:	fff18193          	addi	gp,gp,-1
    8000216c:	00c18463          	beq	gp,a2,80002174 <inst_151>
    80002170:	eb5fd06f          	j	80000024 <rvtest_error>

0000000080002174 <inst_151>:
    80002174:	00100513          	li	a0,1
    80002178:	02d51513          	slli	a0,a0,0x2d
    8000217c:	00100593          	li	a1,1
    80002180:	01e59593          	slli	a1,a1,0x1e
    80002184:	fff5c593          	not	a1,a1
    80002188:	00b54633          	xor	a2,a0,a1
    8000218c:	3ac0bc23          	sd	a2,952(ra)
    80002190:	ffff81b7          	lui	gp,0xffff8
    80002194:	fff1819b          	addiw	gp,gp,-1 # ffffffffffff7fff <absimm+0xffffffff452ea52f>
    80002198:	01e19193          	slli	gp,gp,0x1e
    8000219c:	fff18193          	addi	gp,gp,-1
    800021a0:	00c18463          	beq	gp,a2,800021a8 <inst_152>
    800021a4:	e81fd06f          	j	80000024 <rvtest_error>

00000000800021a8 <inst_152>:
    800021a8:	00100513          	li	a0,1
    800021ac:	02e51513          	slli	a0,a0,0x2e
    800021b0:	00100593          	li	a1,1
    800021b4:	03559593          	slli	a1,a1,0x35
    800021b8:	00b54633          	xor	a2,a0,a1
    800021bc:	3cc0b023          	sd	a2,960(ra)
    800021c0:	0810019b          	addiw	gp,zero,129
    800021c4:	02e19193          	slli	gp,gp,0x2e
    800021c8:	00c18463          	beq	gp,a2,800021d0 <inst_153>
    800021cc:	e59fd06f          	j	80000024 <rvtest_error>

00000000800021d0 <inst_153>:
    800021d0:	00100513          	li	a0,1
    800021d4:	03151513          	slli	a0,a0,0x31
    800021d8:	00100593          	li	a1,1
    800021dc:	03e59593          	slli	a1,a1,0x3e
    800021e0:	00b54633          	xor	a2,a0,a1
    800021e4:	3cc0b423          	sd	a2,968(ra)
    800021e8:	000021b7          	lui	gp,0x2
    800021ec:	0011819b          	addiw	gp,gp,1 # 2001 <offset+0x1be9>
    800021f0:	03119193          	slli	gp,gp,0x31
    800021f4:	00c18463          	beq	gp,a2,800021fc <inst_154>
    800021f8:	e2dfd06f          	j	80000024 <rvtest_error>

00000000800021fc <inst_154>:
    800021fc:	00100513          	li	a0,1
    80002200:	03351513          	slli	a0,a0,0x33
    80002204:	00100593          	li	a1,1
    80002208:	03759593          	slli	a1,a1,0x37
    8000220c:	00b54633          	xor	a2,a0,a1
    80002210:	3cc0b823          	sd	a2,976(ra)
    80002214:	0110019b          	addiw	gp,zero,17
    80002218:	03319193          	slli	gp,gp,0x33
    8000221c:	00c18463          	beq	gp,a2,80002224 <inst_155>
    80002220:	e05fd06f          	j	80000024 <rvtest_error>

0000000080002224 <inst_155>:
    80002224:	00100513          	li	a0,1
    80002228:	03451513          	slli	a0,a0,0x34
    8000222c:	00100593          	li	a1,1
    80002230:	02d59593          	slli	a1,a1,0x2d
    80002234:	00b54633          	xor	a2,a0,a1
    80002238:	3cc0bc23          	sd	a2,984(ra)
    8000223c:	0810019b          	addiw	gp,zero,129
    80002240:	02d19193          	slli	gp,gp,0x2d
    80002244:	00c18463          	beq	gp,a2,8000224c <inst_156>
    80002248:	dddfd06f          	j	80000024 <rvtest_error>

000000008000224c <inst_156>:
    8000224c:	00100513          	li	a0,1
    80002250:	03b51513          	slli	a0,a0,0x3b
    80002254:	00100593          	li	a1,1
    80002258:	01259593          	slli	a1,a1,0x12
    8000225c:	fff5c593          	not	a1,a1
    80002260:	00b54633          	xor	a2,a0,a1
    80002264:	3ec0b023          	sd	a2,992(ra)
    80002268:	fff0019b          	addiw	gp,zero,-1
    8000226c:	02919193          	slli	gp,gp,0x29
    80002270:	fff18193          	addi	gp,gp,-1
    80002274:	01219193          	slli	gp,gp,0x12
    80002278:	fff18193          	addi	gp,gp,-1
    8000227c:	00c18463          	beq	gp,a2,80002284 <inst_157>
    80002280:	da5fd06f          	j	80000024 <rvtest_error>

0000000080002284 <inst_157>:
    80002284:	00100513          	li	a0,1
    80002288:	03d51513          	slli	a0,a0,0x3d
    8000228c:	00100593          	li	a1,1
    80002290:	00f59593          	slli	a1,a1,0xf
    80002294:	00b54633          	xor	a2,a0,a1
    80002298:	3ec0b423          	sd	a2,1000(ra)
    8000229c:	0010019b          	addiw	gp,zero,1
    800022a0:	02e19193          	slli	gp,gp,0x2e
    800022a4:	00118193          	addi	gp,gp,1
    800022a8:	00f19193          	slli	gp,gp,0xf
    800022ac:	00c18463          	beq	gp,a2,800022b4 <inst_158>
    800022b0:	d75fd06f          	j	80000024 <rvtest_error>

00000000800022b4 <inst_158>:
    800022b4:	ffd00513          	li	a0,-3
    800022b8:	01000593          	li	a1,16
    800022bc:	00b54633          	xor	a2,a0,a1
    800022c0:	3ec0b823          	sd	a2,1008(ra)
    800022c4:	fed00193          	li	gp,-19
    800022c8:	00c18463          	beq	gp,a2,800022d0 <inst_159>
    800022cc:	d59fd06f          	j	80000024 <rvtest_error>

00000000800022d0 <inst_159>:
    800022d0:	ff700513          	li	a0,-9
    800022d4:	00100593          	li	a1,1
    800022d8:	01859593          	slli	a1,a1,0x18
    800022dc:	fff5c593          	not	a1,a1
    800022e0:	00b54633          	xor	a2,a0,a1
    800022e4:	3ec0bc23          	sd	a2,1016(ra)
    800022e8:	010001b7          	lui	gp,0x1000
    800022ec:	0081819b          	addiw	gp,gp,8 # 1000008 <offset+0xfffbf0>
    800022f0:	00c18463          	beq	gp,a2,800022f8 <inst_160>
    800022f4:	d31fd06f          	j	80000024 <rvtest_error>

00000000800022f8 <inst_160>:
    800022f8:	fef00513          	li	a0,-17
    800022fc:	00100593          	li	a1,1
    80002300:	01459593          	slli	a1,a1,0x14
    80002304:	00b54633          	xor	a2,a0,a1
    80002308:	40c0b023          	sd	a2,1024(ra)
    8000230c:	fff001b7          	lui	gp,0xfff00
    80002310:	fef1819b          	addiw	gp,gp,-17 # ffffffffffefffef <absimm+0xffffffff451f251f>
    80002314:	00c18463          	beq	gp,a2,8000231c <inst_161>
    80002318:	d0dfd06f          	j	80000024 <rvtest_error>

000000008000231c <inst_161>:
    8000231c:	bff00513          	li	a0,-1025
    80002320:	00100593          	li	a1,1
    80002324:	02659593          	slli	a1,a1,0x26
    80002328:	00b54633          	xor	a2,a0,a1
    8000232c:	40c0b423          	sd	a2,1032(ra)
    80002330:	fff0019b          	addiw	gp,zero,-1
    80002334:	02619193          	slli	gp,gp,0x26
    80002338:	bff18193          	addi	gp,gp,-1025
    8000233c:	00c18463          	beq	gp,a2,80002344 <inst_162>
    80002340:	ce5fd06f          	j	80000024 <rvtest_error>

0000000080002344 <inst_162>:
    80002344:	00100513          	li	a0,1
    80002348:	00c51513          	slli	a0,a0,0xc
    8000234c:	fff54513          	not	a0,a0
    80002350:	00400593          	li	a1,4
    80002354:	00b54633          	xor	a2,a0,a1
    80002358:	40c0b823          	sd	a2,1040(ra)
    8000235c:	fffff1b7          	lui	gp,0xfffff
    80002360:	ffb1819b          	addiw	gp,gp,-5 # ffffffffffffeffb <absimm+0xffffffff452f152b>
    80002364:	00c18463          	beq	gp,a2,8000236c <inst_163>
    80002368:	cbdfd06f          	j	80000024 <rvtest_error>

000000008000236c <inst_163>:
    8000236c:	00100513          	li	a0,1
    80002370:	01051513          	slli	a0,a0,0x10
    80002374:	fff54513          	not	a0,a0
    80002378:	000005b7          	lui	a1,0x0
    8000237c:	00058593          	mv	a1,a1
    80002380:	00b59593          	slli	a1,a1,0xb
    80002384:	5a858593          	addi	a1,a1,1448 # 5a8 <offset+0x190>
    80002388:	00b59593          	slli	a1,a1,0xb
    8000238c:	13c58593          	addi	a1,a1,316
    80002390:	00a59593          	slli	a1,a1,0xa
    80002394:	33258593          	addi	a1,a1,818
    80002398:	00b54633          	xor	a2,a0,a1
    8000239c:	40c0bc23          	sd	a2,1048(ra)
    800023a0:	fff4b1b7          	lui	gp,0xfff4b
    800023a4:	fa11819b          	addiw	gp,gp,-95 # fffffffffff4afa1 <absimm+0xffffffff4523d4d1>
    800023a8:	00c19193          	slli	gp,gp,0xc
    800023ac:	ccd18193          	addi	gp,gp,-819
    800023b0:	00c18463          	beq	gp,a2,800023b8 <inst_164>
    800023b4:	c71fd06f          	j	80000024 <rvtest_error>

00000000800023b8 <inst_164>:
    800023b8:	00100513          	li	a0,1
    800023bc:	01251513          	slli	a0,a0,0x12
    800023c0:	fff54513          	not	a0,a0
    800023c4:	00100593          	li	a1,1
    800023c8:	00b54633          	xor	a2,a0,a1
    800023cc:	42c0b023          	sd	a2,1056(ra)
    800023d0:	fffc01b7          	lui	gp,0xfffc0
    800023d4:	ffe1819b          	addiw	gp,gp,-2 # fffffffffffbfffe <absimm+0xffffffff452b252e>
    800023d8:	00c18463          	beq	gp,a2,800023e0 <inst_165>
    800023dc:	c49fd06f          	j	80000024 <rvtest_error>

00000000800023e0 <inst_165>:
    800023e0:	00100513          	li	a0,1
    800023e4:	01351513          	slli	a0,a0,0x13
    800023e8:	fff54513          	not	a0,a0
    800023ec:	00100593          	li	a1,1
    800023f0:	03159593          	slli	a1,a1,0x31
    800023f4:	00b54633          	xor	a2,a0,a1
    800023f8:	42c0b423          	sd	a2,1064(ra)
    800023fc:	c00001b7          	lui	gp,0xc0000
    80002400:	fff1819b          	addiw	gp,gp,-1 # ffffffffbfffffff <absimm+0xffffffff052f252f>
    80002404:	01319193          	slli	gp,gp,0x13
    80002408:	fff18193          	addi	gp,gp,-1
    8000240c:	00c18463          	beq	gp,a2,80002414 <inst_166>
    80002410:	c15fd06f          	j	80000024 <rvtest_error>

0000000080002414 <inst_166>:
    80002414:	00100513          	li	a0,1
    80002418:	01751513          	slli	a0,a0,0x17
    8000241c:	fff54513          	not	a0,a0
    80002420:	00100593          	li	a1,1
    80002424:	01559593          	slli	a1,a1,0x15
    80002428:	00b54633          	xor	a2,a0,a1
    8000242c:	42c0b823          	sd	a2,1072(ra)
    80002430:	ff6001b7          	lui	gp,0xff600
    80002434:	fff1819b          	addiw	gp,gp,-1 # ffffffffff5fffff <absimm+0xffffffff448f252f>
    80002438:	00c18463          	beq	gp,a2,80002440 <inst_167>
    8000243c:	be9fd06f          	j	80000024 <rvtest_error>

0000000080002440 <inst_167>:
    80002440:	00100513          	li	a0,1
    80002444:	01951513          	slli	a0,a0,0x19
    80002448:	fff54513          	not	a0,a0
    8000244c:	00100593          	li	a1,1
    80002450:	03559593          	slli	a1,a1,0x35
    80002454:	00b54633          	xor	a2,a0,a1
    80002458:	42c0bc23          	sd	a2,1080(ra)
    8000245c:	f00001b7          	lui	gp,0xf0000
    80002460:	fff1819b          	addiw	gp,gp,-1 # ffffffffefffffff <absimm+0xffffffff352f252f>
    80002464:	01919193          	slli	gp,gp,0x19
    80002468:	fff18193          	addi	gp,gp,-1
    8000246c:	00c18463          	beq	gp,a2,80002474 <inst_168>
    80002470:	bb5fd06f          	j	80000024 <rvtest_error>

0000000080002474 <inst_168>:
    80002474:	00100513          	li	a0,1
    80002478:	01b51513          	slli	a0,a0,0x1b
    8000247c:	fff54513          	not	a0,a0
    80002480:	00100593          	li	a1,1
    80002484:	02359593          	slli	a1,a1,0x23
    80002488:	00b54633          	xor	a2,a0,a1
    8000248c:	44c0b023          	sd	a2,1088(ra)
    80002490:	eff0019b          	addiw	gp,zero,-257
    80002494:	01b19193          	slli	gp,gp,0x1b
    80002498:	fff18193          	addi	gp,gp,-1
    8000249c:	00c18463          	beq	gp,a2,800024a4 <inst_169>
    800024a0:	b85fd06f          	j	80000024 <rvtest_error>

00000000800024a4 <inst_169>:
    800024a4:	00100513          	li	a0,1
    800024a8:	01c51513          	slli	a0,a0,0x1c
    800024ac:	fff54513          	not	a0,a0
    800024b0:	fff00593          	li	a1,-1
    800024b4:	0015d593          	srli	a1,a1,0x1
    800024b8:	00b54633          	xor	a2,a0,a1
    800024bc:	44c0b423          	sd	a2,1096(ra)
    800024c0:	fff0019b          	addiw	gp,zero,-1
    800024c4:	02319193          	slli	gp,gp,0x23
    800024c8:	00118193          	addi	gp,gp,1
    800024cc:	01c19193          	slli	gp,gp,0x1c
    800024d0:	00c18463          	beq	gp,a2,800024d8 <inst_170>
    800024d4:	b51fd06f          	j	80000024 <rvtest_error>

00000000800024d8 <inst_170>:
    800024d8:	00100513          	li	a0,1
    800024dc:	01f51513          	slli	a0,a0,0x1f
    800024e0:	fff54513          	not	a0,a0
    800024e4:	00100593          	li	a1,1
    800024e8:	00f59593          	slli	a1,a1,0xf
    800024ec:	00b54633          	xor	a2,a0,a1
    800024f0:	44c0b823          	sd	a2,1104(ra)
    800024f4:	ffff01b7          	lui	gp,0xffff0
    800024f8:	fff1819b          	addiw	gp,gp,-1 # fffffffffffeffff <absimm+0xffffffff452e252f>
    800024fc:	00f19193          	slli	gp,gp,0xf
    80002500:	fff18193          	addi	gp,gp,-1
    80002504:	00c18463          	beq	gp,a2,8000250c <inst_171>
    80002508:	b1dfd06f          	j	80000024 <rvtest_error>

000000008000250c <inst_171>:
    8000250c:	00100513          	li	a0,1
    80002510:	02151513          	slli	a0,a0,0x21
    80002514:	fff54513          	not	a0,a0
    80002518:	fff00593          	li	a1,-1
    8000251c:	03e59593          	slli	a1,a1,0x3e
    80002520:	00b54633          	xor	a2,a0,a1
    80002524:	44c0bc23          	sd	a2,1112(ra)
    80002528:	200001b7          	lui	gp,0x20000
    8000252c:	fff1819b          	addiw	gp,gp,-1 # 1fffffff <absimmsh+0x1452f252>
    80002530:	02119193          	slli	gp,gp,0x21
    80002534:	fff18193          	addi	gp,gp,-1
    80002538:	00c18463          	beq	gp,a2,80002540 <inst_172>
    8000253c:	ae9fd06f          	j	80000024 <rvtest_error>

0000000080002540 <inst_172>:
    80002540:	00100513          	li	a0,1
    80002544:	02351513          	slli	a0,a0,0x23
    80002548:	fff54513          	not	a0,a0
    8000254c:	00000593          	li	a1,0
    80002550:	00b54633          	xor	a2,a0,a1
    80002554:	46c0b023          	sd	a2,1120(ra)
    80002558:	fff0019b          	addiw	gp,zero,-1
    8000255c:	02319193          	slli	gp,gp,0x23
    80002560:	fff18193          	addi	gp,gp,-1
    80002564:	00c18463          	beq	gp,a2,8000256c <inst_173>
    80002568:	abdfd06f          	j	80000024 <rvtest_error>

000000008000256c <inst_173>:
    8000256c:	00100513          	li	a0,1
    80002570:	02851513          	slli	a0,a0,0x28
    80002574:	fff54513          	not	a0,a0
    80002578:	00100593          	li	a1,1
    8000257c:	02759593          	slli	a1,a1,0x27
    80002580:	fff5c593          	not	a1,a1
    80002584:	00b54633          	xor	a2,a0,a1
    80002588:	46c0b423          	sd	a2,1128(ra)
    8000258c:	0030019b          	addiw	gp,zero,3
    80002590:	02719193          	slli	gp,gp,0x27
    80002594:	00c18463          	beq	gp,a2,8000259c <inst_174>
    80002598:	a8dfd06f          	j	80000024 <rvtest_error>

000000008000259c <inst_174>:
    8000259c:	00100513          	li	a0,1
    800025a0:	02951513          	slli	a0,a0,0x29
    800025a4:	fff54513          	not	a0,a0
    800025a8:	04000593          	li	a1,64
    800025ac:	00b54633          	xor	a2,a0,a1
    800025b0:	46c0b823          	sd	a2,1136(ra)
    800025b4:	fff0019b          	addiw	gp,zero,-1
    800025b8:	02919193          	slli	gp,gp,0x29
    800025bc:	fbf18193          	addi	gp,gp,-65
    800025c0:	00c18463          	beq	gp,a2,800025c8 <inst_175>
    800025c4:	a61fd06f          	j	80000024 <rvtest_error>

00000000800025c8 <inst_175>:
    800025c8:	00100513          	li	a0,1
    800025cc:	02b51513          	slli	a0,a0,0x2b
    800025d0:	fff54513          	not	a0,a0
    800025d4:	000005b7          	lui	a1,0x0
    800025d8:	fff58593          	addi	a1,a1,-1
    800025dc:	00b59593          	slli	a1,a1,0xb
    800025e0:	25758593          	addi	a1,a1,599
    800025e4:	00b59593          	slli	a1,a1,0xb
    800025e8:	6c358593          	addi	a1,a1,1731
    800025ec:	00a59593          	slli	a1,a1,0xa
    800025f0:	0cd58593          	addi	a1,a1,205
    800025f4:	00b54633          	xor	a2,a0,a1
    800025f8:	46c0bc23          	sd	a2,1144(ra)
    800025fc:	000801b7          	lui	gp,0x80
    80002600:	0b51819b          	addiw	gp,gp,181 # 800b5 <offset+0x7fc9d>
    80002604:	00c19193          	slli	gp,gp,0xc
    80002608:	04f18193          	addi	gp,gp,79
    8000260c:	00c19193          	slli	gp,gp,0xc
    80002610:	33218193          	addi	gp,gp,818
    80002614:	00c18463          	beq	gp,a2,8000261c <inst_176>
    80002618:	a0dfd06f          	j	80000024 <rvtest_error>

000000008000261c <inst_176>:
    8000261c:	00100513          	li	a0,1
    80002620:	02d51513          	slli	a0,a0,0x2d
    80002624:	fff54513          	not	a0,a0
    80002628:	00100593          	li	a1,1
    8000262c:	03759593          	slli	a1,a1,0x37
    80002630:	fff5c593          	not	a1,a1
    80002634:	00b54633          	xor	a2,a0,a1
    80002638:	48c0b023          	sd	a2,1152(ra)
    8000263c:	4010019b          	addiw	gp,zero,1025
    80002640:	02d19193          	slli	gp,gp,0x2d
    80002644:	00c18463          	beq	gp,a2,8000264c <inst_177>
    80002648:	9ddfd06f          	j	80000024 <rvtest_error>

000000008000264c <inst_177>:
    8000264c:	00100513          	li	a0,1
    80002650:	02e51513          	slli	a0,a0,0x2e
    80002654:	fff54513          	not	a0,a0
    80002658:	555555b7          	lui	a1,0x55555
    8000265c:	55558593          	addi	a1,a1,1365 # 55555555 <absimmsh+0x49a847a8>
    80002660:	00b59593          	slli	a1,a1,0xb
    80002664:	2aa58593          	addi	a1,a1,682
    80002668:	00b59593          	slli	a1,a1,0xb
    8000266c:	55558593          	addi	a1,a1,1365
    80002670:	00a59593          	slli	a1,a1,0xa
    80002674:	15458593          	addi	a1,a1,340
    80002678:	00b54633          	xor	a2,a0,a1
    8000267c:	48c0b423          	sd	a2,1160(ra)
    80002680:	faaab1b7          	lui	gp,0xfaaab
    80002684:	eab1819b          	addiw	gp,gp,-341 # fffffffffaaaaeab <absimm+0xffffffff3fd9d3db>
    80002688:	00c19193          	slli	gp,gp,0xc
    8000268c:	aab18193          	addi	gp,gp,-1365
    80002690:	00c19193          	slli	gp,gp,0xc
    80002694:	aab18193          	addi	gp,gp,-1365
    80002698:	00c19193          	slli	gp,gp,0xc
    8000269c:	aab18193          	addi	gp,gp,-1365
    800026a0:	00c18463          	beq	gp,a2,800026a8 <inst_178>
    800026a4:	981fd06f          	j	80000024 <rvtest_error>

00000000800026a8 <inst_178>:
    800026a8:	00100513          	li	a0,1
    800026ac:	02f51513          	slli	a0,a0,0x2f
    800026b0:	fff54513          	not	a0,a0
    800026b4:	666665b7          	lui	a1,0x66666
    800026b8:	66658593          	addi	a1,a1,1638 # 66666666 <absimmsh+0x5ab958b9>
    800026bc:	00b59593          	slli	a1,a1,0xb
    800026c0:	33358593          	addi	a1,a1,819
    800026c4:	00b59593          	slli	a1,a1,0xb
    800026c8:	19958593          	addi	a1,a1,409
    800026cc:	00a59593          	slli	a1,a1,0xa
    800026d0:	26558593          	addi	a1,a1,613
    800026d4:	00b54633          	xor	a2,a0,a1
    800026d8:	48c0b823          	sd	a2,1168(ra)
    800026dc:	fcccd1b7          	lui	gp,0xfcccd
    800026e0:	8cd1819b          	addiw	gp,gp,-1843 # fffffffffcccc8cd <absimm+0xffffffff41fbedfd>
    800026e4:	00c19193          	slli	gp,gp,0xc
    800026e8:	ccd18193          	addi	gp,gp,-819
    800026ec:	00c19193          	slli	gp,gp,0xc
    800026f0:	ccd18193          	addi	gp,gp,-819
    800026f4:	00d19193          	slli	gp,gp,0xd
    800026f8:	99a18193          	addi	gp,gp,-1638
    800026fc:	00c18463          	beq	gp,a2,80002704 <inst_179>
    80002700:	925fd06f          	j	80000024 <rvtest_error>

0000000080002704 <inst_179>:
    80002704:	00100513          	li	a0,1
    80002708:	03151513          	slli	a0,a0,0x31
    8000270c:	fff54513          	not	a0,a0
    80002710:	00100593          	li	a1,1
    80002714:	03159593          	slli	a1,a1,0x31
    80002718:	00b54633          	xor	a2,a0,a1
    8000271c:	48c0bc23          	sd	a2,1176(ra)
    80002720:	fff00193          	li	gp,-1
    80002724:	00c18463          	beq	gp,a2,8000272c <inst_180>
    80002728:	8fdfd06f          	j	80000024 <rvtest_error>

000000008000272c <inst_180>:
    8000272c:	00100513          	li	a0,1
    80002730:	03251513          	slli	a0,a0,0x32
    80002734:	fff54513          	not	a0,a0
    80002738:	bff00593          	li	a1,-1025
    8000273c:	00b54633          	xor	a2,a0,a1
    80002740:	4ac0b023          	sd	a2,1184(ra)
    80002744:	0010019b          	addiw	gp,zero,1
    80002748:	03219193          	slli	gp,gp,0x32
    8000274c:	40018193          	addi	gp,gp,1024
    80002750:	00c18463          	beq	gp,a2,80002758 <inst_181>
    80002754:	8d1fd06f          	j	80000024 <rvtest_error>

0000000080002758 <inst_181>:
    80002758:	00100513          	li	a0,1
    8000275c:	03351513          	slli	a0,a0,0x33
    80002760:	fff54513          	not	a0,a0
    80002764:	00100593          	li	a1,1
    80002768:	02f59593          	slli	a1,a1,0x2f
    8000276c:	00b54633          	xor	a2,a0,a1
    80002770:	4ac0b423          	sd	a2,1192(ra)
    80002774:	fef0019b          	addiw	gp,zero,-17
    80002778:	02f19193          	slli	gp,gp,0x2f
    8000277c:	fff18193          	addi	gp,gp,-1
    80002780:	00c18463          	beq	gp,a2,80002788 <inst_182>
    80002784:	8a1fd06f          	j	80000024 <rvtest_error>

0000000080002788 <inst_182>:
    80002788:	00100513          	li	a0,1
    8000278c:	03451513          	slli	a0,a0,0x34
    80002790:	fff54513          	not	a0,a0
    80002794:	00000593          	li	a1,0
    80002798:	00b54633          	xor	a2,a0,a1
    8000279c:	4ac0b823          	sd	a2,1200(ra)
    800027a0:	fff0019b          	addiw	gp,zero,-1
    800027a4:	03419193          	slli	gp,gp,0x34
    800027a8:	fff18193          	addi	gp,gp,-1
    800027ac:	00c18463          	beq	gp,a2,800027b4 <inst_183>
    800027b0:	875fd06f          	j	80000024 <rvtest_error>

00000000800027b4 <inst_183>:
    800027b4:	00100513          	li	a0,1
    800027b8:	03551513          	slli	a0,a0,0x35
    800027bc:	fff54513          	not	a0,a0
    800027c0:	00100593          	li	a1,1
    800027c4:	01359593          	slli	a1,a1,0x13
    800027c8:	fff5c593          	not	a1,a1
    800027cc:	00b54633          	xor	a2,a0,a1
    800027d0:	4ac0bc23          	sd	a2,1208(ra)
    800027d4:	0010019b          	addiw	gp,zero,1
    800027d8:	02219193          	slli	gp,gp,0x22
    800027dc:	00118193          	addi	gp,gp,1
    800027e0:	01319193          	slli	gp,gp,0x13
    800027e4:	00c18463          	beq	gp,a2,800027ec <inst_184>
    800027e8:	83dfd06f          	j	80000024 <rvtest_error>

00000000800027ec <inst_184>:
    800027ec:	00100513          	li	a0,1
    800027f0:	03a51513          	slli	a0,a0,0x3a
    800027f4:	fff54513          	not	a0,a0
    800027f8:	00100593          	li	a1,1
    800027fc:	03159593          	slli	a1,a1,0x31
    80002800:	fff5c593          	not	a1,a1
    80002804:	00b54633          	xor	a2,a0,a1
    80002808:	4cc0b023          	sd	a2,1216(ra)
    8000280c:	2010019b          	addiw	gp,zero,513
    80002810:	03119193          	slli	gp,gp,0x31
    80002814:	00c18463          	beq	gp,a2,8000281c <inst_185>
    80002818:	80dfd06f          	j	80000024 <rvtest_error>

000000008000281c <inst_185>:
    8000281c:	00100513          	li	a0,1
    80002820:	03b51513          	slli	a0,a0,0x3b
    80002824:	fff54513          	not	a0,a0
    80002828:	00100593          	li	a1,1
    8000282c:	01159593          	slli	a1,a1,0x11
    80002830:	fff5c593          	not	a1,a1
    80002834:	00b54633          	xor	a2,a0,a1
    80002838:	4cc0b423          	sd	a2,1224(ra)
    8000283c:	0010019b          	addiw	gp,zero,1
    80002840:	02a19193          	slli	gp,gp,0x2a
    80002844:	00118193          	addi	gp,gp,1
    80002848:	01119193          	slli	gp,gp,0x11
    8000284c:	00c18463          	beq	gp,a2,80002854 <inst_186>
    80002850:	fd4fd06f          	j	80000024 <rvtest_error>

0000000080002854 <inst_186>:
    80002854:	00100513          	li	a0,1
    80002858:	03c51513          	slli	a0,a0,0x3c
    8000285c:	fff54513          	not	a0,a0
    80002860:	00000593          	li	a1,0
    80002864:	00b54633          	xor	a2,a0,a1
    80002868:	4cc0b823          	sd	a2,1232(ra)
    8000286c:	fff0019b          	addiw	gp,zero,-1
    80002870:	03c19193          	slli	gp,gp,0x3c
    80002874:	fff18193          	addi	gp,gp,-1
    80002878:	00c18463          	beq	gp,a2,80002880 <inst_187>
    8000287c:	fa8fd06f          	j	80000024 <rvtest_error>

0000000080002880 <inst_187>:
    80002880:	00100513          	li	a0,1
    80002884:	03d51513          	slli	a0,a0,0x3d
    80002888:	fff54513          	not	a0,a0
    8000288c:	333335b7          	lui	a1,0x33333
    80002890:	33358593          	addi	a1,a1,819 # 33333333 <absimmsh+0x27862586>
    80002894:	00b59593          	slli	a1,a1,0xb
    80002898:	19958593          	addi	a1,a1,409
    8000289c:	00b59593          	slli	a1,a1,0xb
    800028a0:	4cc58593          	addi	a1,a1,1228
    800028a4:	00a59593          	slli	a1,a1,0xa
    800028a8:	33458593          	addi	a1,a1,820
    800028ac:	00b54633          	xor	a2,a0,a1
    800028b0:	4cc0bc23          	sd	a2,1240(ra)
    800028b4:	feccd1b7          	lui	gp,0xfeccd
    800028b8:	ccd1819b          	addiw	gp,gp,-819 # fffffffffecccccd <absimm+0xffffffff43fbf1fd>
    800028bc:	00c19193          	slli	gp,gp,0xc
    800028c0:	ccd18193          	addi	gp,gp,-819
    800028c4:	00c19193          	slli	gp,gp,0xc
    800028c8:	ccd18193          	addi	gp,gp,-819
    800028cc:	00c19193          	slli	gp,gp,0xc
    800028d0:	ccb18193          	addi	gp,gp,-821
    800028d4:	00c18463          	beq	gp,a2,800028dc <inst_188>
    800028d8:	f4cfd06f          	j	80000024 <rvtest_error>

00000000800028dc <inst_188>:
    800028dc:	00100513          	li	a0,1
    800028e0:	03e51513          	slli	a0,a0,0x3e
    800028e4:	fff54513          	not	a0,a0
    800028e8:	02000593          	li	a1,32
    800028ec:	00b54633          	xor	a2,a0,a1
    800028f0:	4ec0b023          	sd	a2,1248(ra)
    800028f4:	fff0019b          	addiw	gp,zero,-1
    800028f8:	03e19193          	slli	gp,gp,0x3e
    800028fc:	fdf18193          	addi	gp,gp,-33
    80002900:	00c18463          	beq	gp,a2,80002908 <inst_189>
    80002904:	f20fd06f          	j	80000024 <rvtest_error>

0000000080002908 <inst_189>:
    80002908:	00300513          	li	a0,3
    8000290c:	00300593          	li	a1,3
    80002910:	00b54633          	xor	a2,a0,a1
    80002914:	4ec0b423          	sd	a2,1256(ra)
    80002918:	00000193          	li	gp,0
    8000291c:	00c18463          	beq	gp,a2,80002924 <inst_190>
    80002920:	f04fd06f          	j	80000024 <rvtest_error>

0000000080002924 <inst_190>:
    80002924:	00300513          	li	a0,3
    80002928:	aaaab5b7          	lui	a1,0xaaaab
    8000292c:	aaa58593          	addi	a1,a1,-1366 # ffffffffaaaaaaaa <absimm+0xfffffffeefd9cfda>
    80002930:	00b59593          	slli	a1,a1,0xb
    80002934:	55558593          	addi	a1,a1,1365
    80002938:	00b59593          	slli	a1,a1,0xb
    8000293c:	2aa58593          	addi	a1,a1,682
    80002940:	00a59593          	slli	a1,a1,0xa
    80002944:	2aa58593          	addi	a1,a1,682
    80002948:	00b54633          	xor	a2,a0,a1
    8000294c:	4ec0b823          	sd	a2,1264(ra)
    80002950:	faaab1b7          	lui	gp,0xfaaab
    80002954:	aab1819b          	addiw	gp,gp,-1365 # fffffffffaaaaaab <absimm+0xffffffff3fd9cfdb>
    80002958:	00c19193          	slli	gp,gp,0xc
    8000295c:	aab18193          	addi	gp,gp,-1365
    80002960:	00c19193          	slli	gp,gp,0xc
    80002964:	aab18193          	addi	gp,gp,-1365
    80002968:	00c19193          	slli	gp,gp,0xc
    8000296c:	aa918193          	addi	gp,gp,-1367
    80002970:	00c18463          	beq	gp,a2,80002978 <inst_191>
    80002974:	eb0fd06f          	j	80000024 <rvtest_error>

0000000080002978 <inst_191>:
    80002978:	00300513          	li	a0,3
    8000297c:	00500593          	li	a1,5
    80002980:	00b54633          	xor	a2,a0,a1
    80002984:	4ec0bc23          	sd	a2,1272(ra)
    80002988:	00600193          	li	gp,6
    8000298c:	00c18463          	beq	gp,a2,80002994 <inst_192>
    80002990:	e94fd06f          	j	80000024 <rvtest_error>

0000000080002994 <inst_192>:
    80002994:	00300513          	li	a0,3
    80002998:	333335b7          	lui	a1,0x33333
    8000299c:	33358593          	addi	a1,a1,819 # 33333333 <absimmsh+0x27862586>
    800029a0:	00b59593          	slli	a1,a1,0xb
    800029a4:	19958593          	addi	a1,a1,409
    800029a8:	00b59593          	slli	a1,a1,0xb
    800029ac:	4cc58593          	addi	a1,a1,1228
    800029b0:	00a59593          	slli	a1,a1,0xa
    800029b4:	33358593          	addi	a1,a1,819
    800029b8:	00b54633          	xor	a2,a0,a1
    800029bc:	50c0b023          	sd	a2,1280(ra)
    800029c0:	033331b7          	lui	gp,0x3333
    800029c4:	3331819b          	addiw	gp,gp,819 # 3333333 <offset+0x3332f1b>
    800029c8:	00c19193          	slli	gp,gp,0xc
    800029cc:	33318193          	addi	gp,gp,819
    800029d0:	00c19193          	slli	gp,gp,0xc
    800029d4:	33318193          	addi	gp,gp,819
    800029d8:	00c19193          	slli	gp,gp,0xc
    800029dc:	33018193          	addi	gp,gp,816
    800029e0:	00c18463          	beq	gp,a2,800029e8 <inst_193>
    800029e4:	e40fd06f          	j	80000024 <rvtest_error>

00000000800029e8 <inst_193>:
    800029e8:	00300513          	li	a0,3
    800029ec:	666665b7          	lui	a1,0x66666
    800029f0:	66658593          	addi	a1,a1,1638 # 66666666 <absimmsh+0x5ab958b9>
    800029f4:	00b59593          	slli	a1,a1,0xb
    800029f8:	33358593          	addi	a1,a1,819
    800029fc:	00b59593          	slli	a1,a1,0xb
    80002a00:	19958593          	addi	a1,a1,409
    80002a04:	00a59593          	slli	a1,a1,0xa
    80002a08:	26658593          	addi	a1,a1,614
    80002a0c:	00b54633          	xor	a2,a0,a1
    80002a10:	50c0b423          	sd	a2,1288(ra)
    80002a14:	033331b7          	lui	gp,0x3333
    80002a18:	3331819b          	addiw	gp,gp,819 # 3333333 <offset+0x3332f1b>
    80002a1c:	00c19193          	slli	gp,gp,0xc
    80002a20:	33318193          	addi	gp,gp,819
    80002a24:	00c19193          	slli	gp,gp,0xc
    80002a28:	33318193          	addi	gp,gp,819
    80002a2c:	00d19193          	slli	gp,gp,0xd
    80002a30:	66518193          	addi	gp,gp,1637
    80002a34:	00c18463          	beq	gp,a2,80002a3c <inst_194>
    80002a38:	decfd06f          	j	80000024 <rvtest_error>

0000000080002a3c <inst_194>:
    80002a3c:	00300513          	li	a0,3
    80002a40:	000005b7          	lui	a1,0x0
    80002a44:	fff58593          	addi	a1,a1,-1
    80002a48:	00b59593          	slli	a1,a1,0xb
    80002a4c:	25758593          	addi	a1,a1,599
    80002a50:	00b59593          	slli	a1,a1,0xb
    80002a54:	6c358593          	addi	a1,a1,1731
    80002a58:	00a59593          	slli	a1,a1,0xa
    80002a5c:	0cd58593          	addi	a1,a1,205
    80002a60:	00b54633          	xor	a2,a0,a1
    80002a64:	50c0b823          	sd	a2,1296(ra)
    80002a68:	fff4b1b7          	lui	gp,0xfff4b
    80002a6c:	fb11819b          	addiw	gp,gp,-79 # fffffffffff4afb1 <absimm+0xffffffff4523d4e1>
    80002a70:	00c19193          	slli	gp,gp,0xc
    80002a74:	cce18193          	addi	gp,gp,-818
    80002a78:	00c18463          	beq	gp,a2,80002a80 <inst_195>
    80002a7c:	da8fd06f          	j	80000024 <rvtest_error>

0000000080002a80 <inst_195>:
    80002a80:	00300513          	li	a0,3
    80002a84:	000005b7          	lui	a1,0x0
    80002a88:	00058593          	mv	a1,a1
    80002a8c:	00b59593          	slli	a1,a1,0xb
    80002a90:	5a858593          	addi	a1,a1,1448 # 5a8 <offset+0x190>
    80002a94:	00b59593          	slli	a1,a1,0xb
    80002a98:	13c58593          	addi	a1,a1,316
    80002a9c:	00a59593          	slli	a1,a1,0xa
    80002aa0:	33358593          	addi	a1,a1,819
    80002aa4:	00b54633          	xor	a2,a0,a1
    80002aa8:	50c0bc23          	sd	a2,1304(ra)
    80002aac:	000b51b7          	lui	gp,0xb5
    80002ab0:	04f1819b          	addiw	gp,gp,79 # b504f <offset+0xb4c37>
    80002ab4:	00c19193          	slli	gp,gp,0xc
    80002ab8:	33018193          	addi	gp,gp,816
    80002abc:	00c18463          	beq	gp,a2,80002ac4 <inst_196>
    80002ac0:	d64fd06f          	j	80000024 <rvtest_error>

0000000080002ac4 <inst_196>:
    80002ac4:	00300513          	li	a0,3
    80002ac8:	00200593          	li	a1,2
    80002acc:	00b54633          	xor	a2,a0,a1
    80002ad0:	52c0b023          	sd	a2,1312(ra)
    80002ad4:	00100193          	li	gp,1
    80002ad8:	00c18463          	beq	gp,a2,80002ae0 <inst_197>
    80002adc:	d48fd06f          	j	80000024 <rvtest_error>

0000000080002ae0 <inst_197>:
    80002ae0:	00300513          	li	a0,3
    80002ae4:	555555b7          	lui	a1,0x55555
    80002ae8:	55558593          	addi	a1,a1,1365 # 55555555 <absimmsh+0x49a847a8>
    80002aec:	00b59593          	slli	a1,a1,0xb
    80002af0:	2aa58593          	addi	a1,a1,682
    80002af4:	00b59593          	slli	a1,a1,0xb
    80002af8:	55558593          	addi	a1,a1,1365
    80002afc:	00a59593          	slli	a1,a1,0xa
    80002b00:	15458593          	addi	a1,a1,340
    80002b04:	00b54633          	xor	a2,a0,a1
    80002b08:	52c0b423          	sd	a2,1320(ra)
    80002b0c:	055551b7          	lui	gp,0x5555
    80002b10:	5551819b          	addiw	gp,gp,1365 # 5555555 <offset+0x555513d>
    80002b14:	00c19193          	slli	gp,gp,0xc
    80002b18:	55518193          	addi	gp,gp,1365
    80002b1c:	00c19193          	slli	gp,gp,0xc
    80002b20:	55518193          	addi	gp,gp,1365
    80002b24:	00c19193          	slli	gp,gp,0xc
    80002b28:	55718193          	addi	gp,gp,1367
    80002b2c:	00c18463          	beq	gp,a2,80002b34 <inst_198>
    80002b30:	cf4fd06f          	j	80000024 <rvtest_error>

0000000080002b34 <inst_198>:
    80002b34:	00300513          	li	a0,3
    80002b38:	00000593          	li	a1,0
    80002b3c:	00b54633          	xor	a2,a0,a1
    80002b40:	52c0b823          	sd	a2,1328(ra)
    80002b44:	00300193          	li	gp,3
    80002b48:	00c18463          	beq	gp,a2,80002b50 <inst_199>
    80002b4c:	cd8fd06f          	j	80000024 <rvtest_error>

0000000080002b50 <inst_199>:
    80002b50:	00300513          	li	a0,3
    80002b54:	00400593          	li	a1,4
    80002b58:	00b54633          	xor	a2,a0,a1
    80002b5c:	52c0bc23          	sd	a2,1336(ra)
    80002b60:	00700193          	li	gp,7
    80002b64:	00c18463          	beq	gp,a2,80002b6c <inst_200>
    80002b68:	cbcfd06f          	j	80000024 <rvtest_error>

0000000080002b6c <inst_200>:
    80002b6c:	00300513          	li	a0,3
    80002b70:	333335b7          	lui	a1,0x33333
    80002b74:	33358593          	addi	a1,a1,819 # 33333333 <absimmsh+0x27862586>
    80002b78:	00b59593          	slli	a1,a1,0xb
    80002b7c:	19958593          	addi	a1,a1,409
    80002b80:	00b59593          	slli	a1,a1,0xb
    80002b84:	4cc58593          	addi	a1,a1,1228
    80002b88:	00a59593          	slli	a1,a1,0xa
    80002b8c:	33258593          	addi	a1,a1,818
    80002b90:	00b54633          	xor	a2,a0,a1
    80002b94:	54c0b023          	sd	a2,1344(ra)
    80002b98:	033331b7          	lui	gp,0x3333
    80002b9c:	3331819b          	addiw	gp,gp,819 # 3333333 <offset+0x3332f1b>
    80002ba0:	00c19193          	slli	gp,gp,0xc
    80002ba4:	33318193          	addi	gp,gp,819
    80002ba8:	00c19193          	slli	gp,gp,0xc
    80002bac:	33318193          	addi	gp,gp,819
    80002bb0:	00c19193          	slli	gp,gp,0xc
    80002bb4:	33118193          	addi	gp,gp,817
    80002bb8:	00c18463          	beq	gp,a2,80002bc0 <inst_201>
    80002bbc:	c68fd06f          	j	80000024 <rvtest_error>

0000000080002bc0 <inst_201>:
    80002bc0:	00300513          	li	a0,3
    80002bc4:	666665b7          	lui	a1,0x66666
    80002bc8:	66658593          	addi	a1,a1,1638 # 66666666 <absimmsh+0x5ab958b9>
    80002bcc:	00b59593          	slli	a1,a1,0xb
    80002bd0:	33358593          	addi	a1,a1,819
    80002bd4:	00b59593          	slli	a1,a1,0xb
    80002bd8:	19958593          	addi	a1,a1,409
    80002bdc:	00a59593          	slli	a1,a1,0xa
    80002be0:	26558593          	addi	a1,a1,613
    80002be4:	00b54633          	xor	a2,a0,a1
    80002be8:	54c0b423          	sd	a2,1352(ra)
    80002bec:	033331b7          	lui	gp,0x3333
    80002bf0:	3331819b          	addiw	gp,gp,819 # 3333333 <offset+0x3332f1b>
    80002bf4:	00c19193          	slli	gp,gp,0xc
    80002bf8:	33318193          	addi	gp,gp,819
    80002bfc:	00c19193          	slli	gp,gp,0xc
    80002c00:	33318193          	addi	gp,gp,819
    80002c04:	00d19193          	slli	gp,gp,0xd
    80002c08:	66618193          	addi	gp,gp,1638
    80002c0c:	00c18463          	beq	gp,a2,80002c14 <inst_202>
    80002c10:	c14fd06f          	j	80000024 <rvtest_error>

0000000080002c14 <inst_202>:
    80002c14:	00300513          	li	a0,3
    80002c18:	000005b7          	lui	a1,0x0
    80002c1c:	00058593          	mv	a1,a1
    80002c20:	00b59593          	slli	a1,a1,0xb
    80002c24:	5a858593          	addi	a1,a1,1448 # 5a8 <offset+0x190>
    80002c28:	00b59593          	slli	a1,a1,0xb
    80002c2c:	13c58593          	addi	a1,a1,316
    80002c30:	00a59593          	slli	a1,a1,0xa
    80002c34:	33258593          	addi	a1,a1,818
    80002c38:	00b54633          	xor	a2,a0,a1
    80002c3c:	54c0b823          	sd	a2,1360(ra)
    80002c40:	000b51b7          	lui	gp,0xb5
    80002c44:	04f1819b          	addiw	gp,gp,79 # b504f <offset+0xb4c37>
    80002c48:	00c19193          	slli	gp,gp,0xc
    80002c4c:	33118193          	addi	gp,gp,817
    80002c50:	00c18463          	beq	gp,a2,80002c58 <inst_203>
    80002c54:	bd0fd06f          	j	80000024 <rvtest_error>

0000000080002c58 <inst_203>:
    80002c58:	00300513          	li	a0,3
    80002c5c:	555555b7          	lui	a1,0x55555
    80002c60:	55558593          	addi	a1,a1,1365 # 55555555 <absimmsh+0x49a847a8>
    80002c64:	00b59593          	slli	a1,a1,0xb
    80002c68:	2aa58593          	addi	a1,a1,682
    80002c6c:	00b59593          	slli	a1,a1,0xb
    80002c70:	55558593          	addi	a1,a1,1365
    80002c74:	00a59593          	slli	a1,a1,0xa
    80002c78:	15658593          	addi	a1,a1,342
    80002c7c:	00b54633          	xor	a2,a0,a1
    80002c80:	54c0bc23          	sd	a2,1368(ra)
    80002c84:	055551b7          	lui	gp,0x5555
    80002c88:	5551819b          	addiw	gp,gp,1365 # 5555555 <offset+0x555513d>
    80002c8c:	00c19193          	slli	gp,gp,0xc
    80002c90:	55518193          	addi	gp,gp,1365
    80002c94:	00c19193          	slli	gp,gp,0xc
    80002c98:	55518193          	addi	gp,gp,1365
    80002c9c:	00c19193          	slli	gp,gp,0xc
    80002ca0:	55518193          	addi	gp,gp,1365
    80002ca4:	00c18463          	beq	gp,a2,80002cac <inst_204>
    80002ca8:	b7cfd06f          	j	80000024 <rvtest_error>

0000000080002cac <inst_204>:
    80002cac:	00300513          	li	a0,3
    80002cb0:	aaaab5b7          	lui	a1,0xaaaab
    80002cb4:	aaa58593          	addi	a1,a1,-1366 # ffffffffaaaaaaaa <absimm+0xfffffffeefd9cfda>
    80002cb8:	00b59593          	slli	a1,a1,0xb
    80002cbc:	55558593          	addi	a1,a1,1365
    80002cc0:	00b59593          	slli	a1,a1,0xb
    80002cc4:	2aa58593          	addi	a1,a1,682
    80002cc8:	00a59593          	slli	a1,a1,0xa
    80002ccc:	2ab58593          	addi	a1,a1,683
    80002cd0:	00b54633          	xor	a2,a0,a1
    80002cd4:	56c0b023          	sd	a2,1376(ra)
    80002cd8:	faaab1b7          	lui	gp,0xfaaab
    80002cdc:	aab1819b          	addiw	gp,gp,-1365 # fffffffffaaaaaab <absimm+0xffffffff3fd9cfdb>
    80002ce0:	00c19193          	slli	gp,gp,0xc
    80002ce4:	aab18193          	addi	gp,gp,-1365
    80002ce8:	00c19193          	slli	gp,gp,0xc
    80002cec:	aab18193          	addi	gp,gp,-1365
    80002cf0:	00c19193          	slli	gp,gp,0xc
    80002cf4:	aa818193          	addi	gp,gp,-1368
    80002cf8:	00c18463          	beq	gp,a2,80002d00 <inst_205>
    80002cfc:	b28fd06f          	j	80000024 <rvtest_error>

0000000080002d00 <inst_205>:
    80002d00:	00300513          	li	a0,3
    80002d04:	00600593          	li	a1,6
    80002d08:	00b54633          	xor	a2,a0,a1
    80002d0c:	56c0b423          	sd	a2,1384(ra)
    80002d10:	00500193          	li	gp,5
    80002d14:	00c18463          	beq	gp,a2,80002d1c <inst_206>
    80002d18:	b0cfd06f          	j	80000024 <rvtest_error>

0000000080002d1c <inst_206>:
    80002d1c:	00300513          	li	a0,3
    80002d20:	333335b7          	lui	a1,0x33333
    80002d24:	33358593          	addi	a1,a1,819 # 33333333 <absimmsh+0x27862586>
    80002d28:	00b59593          	slli	a1,a1,0xb
    80002d2c:	19958593          	addi	a1,a1,409
    80002d30:	00b59593          	slli	a1,a1,0xb
    80002d34:	4cc58593          	addi	a1,a1,1228
    80002d38:	00a59593          	slli	a1,a1,0xa
    80002d3c:	33458593          	addi	a1,a1,820
    80002d40:	00b54633          	xor	a2,a0,a1
    80002d44:	56c0b823          	sd	a2,1392(ra)
    80002d48:	033331b7          	lui	gp,0x3333
    80002d4c:	3331819b          	addiw	gp,gp,819 # 3333333 <offset+0x3332f1b>
    80002d50:	00c19193          	slli	gp,gp,0xc
    80002d54:	33318193          	addi	gp,gp,819
    80002d58:	00c19193          	slli	gp,gp,0xc
    80002d5c:	33318193          	addi	gp,gp,819
    80002d60:	00c19193          	slli	gp,gp,0xc
    80002d64:	33718193          	addi	gp,gp,823
    80002d68:	00c18463          	beq	gp,a2,80002d70 <inst_207>
    80002d6c:	ab8fd06f          	j	80000024 <rvtest_error>

0000000080002d70 <inst_207>:
    80002d70:	00300513          	li	a0,3
    80002d74:	666665b7          	lui	a1,0x66666
    80002d78:	66658593          	addi	a1,a1,1638 # 66666666 <absimmsh+0x5ab958b9>
    80002d7c:	00b59593          	slli	a1,a1,0xb
    80002d80:	33358593          	addi	a1,a1,819
    80002d84:	00b59593          	slli	a1,a1,0xb
    80002d88:	19958593          	addi	a1,a1,409
    80002d8c:	00a59593          	slli	a1,a1,0xa
    80002d90:	26758593          	addi	a1,a1,615
    80002d94:	00b54633          	xor	a2,a0,a1
    80002d98:	56c0bc23          	sd	a2,1400(ra)
    80002d9c:	033331b7          	lui	gp,0x3333
    80002da0:	3331819b          	addiw	gp,gp,819 # 3333333 <offset+0x3332f1b>
    80002da4:	00c19193          	slli	gp,gp,0xc
    80002da8:	33318193          	addi	gp,gp,819
    80002dac:	00c19193          	slli	gp,gp,0xc
    80002db0:	33318193          	addi	gp,gp,819
    80002db4:	00d19193          	slli	gp,gp,0xd
    80002db8:	66418193          	addi	gp,gp,1636
    80002dbc:	00c18463          	beq	gp,a2,80002dc4 <inst_208>
    80002dc0:	a64fd06f          	j	80000024 <rvtest_error>

0000000080002dc4 <inst_208>:
    80002dc4:	00300513          	li	a0,3
    80002dc8:	000005b7          	lui	a1,0x0
    80002dcc:	fff58593          	addi	a1,a1,-1
    80002dd0:	00b59593          	slli	a1,a1,0xb
    80002dd4:	25758593          	addi	a1,a1,599
    80002dd8:	00b59593          	slli	a1,a1,0xb
    80002ddc:	6c358593          	addi	a1,a1,1731
    80002de0:	00a59593          	slli	a1,a1,0xa
    80002de4:	0ce58593          	addi	a1,a1,206
    80002de8:	00b54633          	xor	a2,a0,a1
    80002dec:	58c0b023          	sd	a2,1408(ra)
    80002df0:	fff4b1b7          	lui	gp,0xfff4b
    80002df4:	fb11819b          	addiw	gp,gp,-79 # fffffffffff4afb1 <absimm+0xffffffff4523d4e1>
    80002df8:	00c19193          	slli	gp,gp,0xc
    80002dfc:	ccd18193          	addi	gp,gp,-819
    80002e00:	00c18463          	beq	gp,a2,80002e08 <inst_209>
    80002e04:	a20fd06f          	j	80000024 <rvtest_error>

0000000080002e08 <inst_209>:
    80002e08:	00300513          	li	a0,3
    80002e0c:	000005b7          	lui	a1,0x0
    80002e10:	00058593          	mv	a1,a1
    80002e14:	00b59593          	slli	a1,a1,0xb
    80002e18:	5a858593          	addi	a1,a1,1448 # 5a8 <offset+0x190>
    80002e1c:	00b59593          	slli	a1,a1,0xb
    80002e20:	13c58593          	addi	a1,a1,316
    80002e24:	00a59593          	slli	a1,a1,0xa
    80002e28:	33458593          	addi	a1,a1,820
    80002e2c:	00b54633          	xor	a2,a0,a1
    80002e30:	58c0b423          	sd	a2,1416(ra)
    80002e34:	000b51b7          	lui	gp,0xb5
    80002e38:	04f1819b          	addiw	gp,gp,79 # b504f <offset+0xb4c37>
    80002e3c:	00c19193          	slli	gp,gp,0xc
    80002e40:	33718193          	addi	gp,gp,823
    80002e44:	00c18463          	beq	gp,a2,80002e4c <inst_210>
    80002e48:	9dcfd06f          	j	80000024 <rvtest_error>

0000000080002e4c <inst_210>:
    80002e4c:	55555537          	lui	a0,0x55555
    80002e50:	55550513          	addi	a0,a0,1365 # 55555555 <absimmsh+0x49a847a8>
    80002e54:	00b51513          	slli	a0,a0,0xb
    80002e58:	2aa50513          	addi	a0,a0,682
    80002e5c:	00b51513          	slli	a0,a0,0xb
    80002e60:	55550513          	addi	a0,a0,1365
    80002e64:	00a51513          	slli	a0,a0,0xa
    80002e68:	15550513          	addi	a0,a0,341
    80002e6c:	00300593          	li	a1,3
    80002e70:	00b54633          	xor	a2,a0,a1
    80002e74:	58c0b823          	sd	a2,1424(ra)
    80002e78:	055551b7          	lui	gp,0x5555
    80002e7c:	5551819b          	addiw	gp,gp,1365 # 5555555 <offset+0x555513d>
    80002e80:	00c19193          	slli	gp,gp,0xc
    80002e84:	55518193          	addi	gp,gp,1365
    80002e88:	00c19193          	slli	gp,gp,0xc
    80002e8c:	55518193          	addi	gp,gp,1365
    80002e90:	00c19193          	slli	gp,gp,0xc
    80002e94:	55618193          	addi	gp,gp,1366
    80002e98:	00c18463          	beq	gp,a2,80002ea0 <inst_211>
    80002e9c:	988fd06f          	j	80000024 <rvtest_error>

0000000080002ea0 <inst_211>:
    80002ea0:	55555537          	lui	a0,0x55555
    80002ea4:	55550513          	addi	a0,a0,1365 # 55555555 <absimmsh+0x49a847a8>
    80002ea8:	00b51513          	slli	a0,a0,0xb
    80002eac:	2aa50513          	addi	a0,a0,682
    80002eb0:	00b51513          	slli	a0,a0,0xb
    80002eb4:	55550513          	addi	a0,a0,1365
    80002eb8:	00a51513          	slli	a0,a0,0xa
    80002ebc:	15550513          	addi	a0,a0,341
    80002ec0:	555555b7          	lui	a1,0x55555
    80002ec4:	55558593          	addi	a1,a1,1365 # 55555555 <absimmsh+0x49a847a8>
    80002ec8:	00b59593          	slli	a1,a1,0xb
    80002ecc:	2aa58593          	addi	a1,a1,682
    80002ed0:	00b59593          	slli	a1,a1,0xb
    80002ed4:	55558593          	addi	a1,a1,1365
    80002ed8:	00a59593          	slli	a1,a1,0xa
    80002edc:	15558593          	addi	a1,a1,341
    80002ee0:	00b54633          	xor	a2,a0,a1
    80002ee4:	58c0bc23          	sd	a2,1432(ra)
    80002ee8:	00000193          	li	gp,0
    80002eec:	00c18463          	beq	gp,a2,80002ef4 <inst_212>
    80002ef0:	934fd06f          	j	80000024 <rvtest_error>

0000000080002ef4 <inst_212>:
    80002ef4:	55555537          	lui	a0,0x55555
    80002ef8:	55550513          	addi	a0,a0,1365 # 55555555 <absimmsh+0x49a847a8>
    80002efc:	00b51513          	slli	a0,a0,0xb
    80002f00:	2aa50513          	addi	a0,a0,682
    80002f04:	00b51513          	slli	a0,a0,0xb
    80002f08:	55550513          	addi	a0,a0,1365
    80002f0c:	00a51513          	slli	a0,a0,0xa
    80002f10:	15550513          	addi	a0,a0,341
    80002f14:	aaaab5b7          	lui	a1,0xaaaab
    80002f18:	aaa58593          	addi	a1,a1,-1366 # ffffffffaaaaaaaa <absimm+0xfffffffeefd9cfda>
    80002f1c:	00b59593          	slli	a1,a1,0xb
    80002f20:	55558593          	addi	a1,a1,1365
    80002f24:	00b59593          	slli	a1,a1,0xb
    80002f28:	2aa58593          	addi	a1,a1,682
    80002f2c:	00a59593          	slli	a1,a1,0xa
    80002f30:	2aa58593          	addi	a1,a1,682
    80002f34:	00b54633          	xor	a2,a0,a1
    80002f38:	5ac0b023          	sd	a2,1440(ra)
    80002f3c:	fff00193          	li	gp,-1
    80002f40:	00c18463          	beq	gp,a2,80002f48 <inst_213>
    80002f44:	8e0fd06f          	j	80000024 <rvtest_error>

0000000080002f48 <inst_213>:
    80002f48:	55555537          	lui	a0,0x55555
    80002f4c:	55550513          	addi	a0,a0,1365 # 55555555 <absimmsh+0x49a847a8>
    80002f50:	00b51513          	slli	a0,a0,0xb
    80002f54:	2aa50513          	addi	a0,a0,682
    80002f58:	00b51513          	slli	a0,a0,0xb
    80002f5c:	55550513          	addi	a0,a0,1365
    80002f60:	00a51513          	slli	a0,a0,0xa
    80002f64:	15550513          	addi	a0,a0,341
    80002f68:	00500593          	li	a1,5
    80002f6c:	00b54633          	xor	a2,a0,a1
    80002f70:	5ac0b423          	sd	a2,1448(ra)
    80002f74:	055551b7          	lui	gp,0x5555
    80002f78:	5551819b          	addiw	gp,gp,1365 # 5555555 <offset+0x555513d>
    80002f7c:	00c19193          	slli	gp,gp,0xc
    80002f80:	55518193          	addi	gp,gp,1365
    80002f84:	00c19193          	slli	gp,gp,0xc
    80002f88:	55518193          	addi	gp,gp,1365
    80002f8c:	00c19193          	slli	gp,gp,0xc
    80002f90:	55018193          	addi	gp,gp,1360
    80002f94:	00c18463          	beq	gp,a2,80002f9c <inst_214>
    80002f98:	88cfd06f          	j	80000024 <rvtest_error>

0000000080002f9c <inst_214>:
    80002f9c:	55555537          	lui	a0,0x55555
    80002fa0:	55550513          	addi	a0,a0,1365 # 55555555 <absimmsh+0x49a847a8>
    80002fa4:	00b51513          	slli	a0,a0,0xb
    80002fa8:	2aa50513          	addi	a0,a0,682
    80002fac:	00b51513          	slli	a0,a0,0xb
    80002fb0:	55550513          	addi	a0,a0,1365
    80002fb4:	00a51513          	slli	a0,a0,0xa
    80002fb8:	15550513          	addi	a0,a0,341
    80002fbc:	333335b7          	lui	a1,0x33333
    80002fc0:	33358593          	addi	a1,a1,819 # 33333333 <absimmsh+0x27862586>
    80002fc4:	00b59593          	slli	a1,a1,0xb
    80002fc8:	19958593          	addi	a1,a1,409
    80002fcc:	00b59593          	slli	a1,a1,0xb
    80002fd0:	4cc58593          	addi	a1,a1,1228
    80002fd4:	00a59593          	slli	a1,a1,0xa
    80002fd8:	33358593          	addi	a1,a1,819
    80002fdc:	00b54633          	xor	a2,a0,a1
    80002fe0:	5ac0b823          	sd	a2,1456(ra)
    80002fe4:	033331b7          	lui	gp,0x3333
    80002fe8:	3331819b          	addiw	gp,gp,819 # 3333333 <offset+0x3332f1b>
    80002fec:	00c19193          	slli	gp,gp,0xc
    80002ff0:	33318193          	addi	gp,gp,819
    80002ff4:	00c19193          	slli	gp,gp,0xc
    80002ff8:	33318193          	addi	gp,gp,819
    80002ffc:	00d19193          	slli	gp,gp,0xd
    80003000:	66618193          	addi	gp,gp,1638
    80003004:	00c18463          	beq	gp,a2,8000300c <inst_215>
    80003008:	81cfd06f          	j	80000024 <rvtest_error>

000000008000300c <inst_215>:
    8000300c:	55555537          	lui	a0,0x55555
    80003010:	55550513          	addi	a0,a0,1365 # 55555555 <absimmsh+0x49a847a8>
    80003014:	00b51513          	slli	a0,a0,0xb
    80003018:	2aa50513          	addi	a0,a0,682
    8000301c:	00b51513          	slli	a0,a0,0xb
    80003020:	55550513          	addi	a0,a0,1365
    80003024:	00a51513          	slli	a0,a0,0xa
    80003028:	15550513          	addi	a0,a0,341
    8000302c:	666665b7          	lui	a1,0x66666
    80003030:	66658593          	addi	a1,a1,1638 # 66666666 <absimmsh+0x5ab958b9>
    80003034:	00b59593          	slli	a1,a1,0xb
    80003038:	33358593          	addi	a1,a1,819
    8000303c:	00b59593          	slli	a1,a1,0xb
    80003040:	19958593          	addi	a1,a1,409
    80003044:	00a59593          	slli	a1,a1,0xa
    80003048:	26658593          	addi	a1,a1,614
    8000304c:	00b54633          	xor	a2,a0,a1
    80003050:	5ac0bc23          	sd	a2,1464(ra)
    80003054:	033331b7          	lui	gp,0x3333
    80003058:	3331819b          	addiw	gp,gp,819 # 3333333 <offset+0x3332f1b>
    8000305c:	00c19193          	slli	gp,gp,0xc
    80003060:	33318193          	addi	gp,gp,819
    80003064:	00c19193          	slli	gp,gp,0xc
    80003068:	33318193          	addi	gp,gp,819
    8000306c:	00c19193          	slli	gp,gp,0xc
    80003070:	33318193          	addi	gp,gp,819
    80003074:	00c18463          	beq	gp,a2,8000307c <inst_216>
    80003078:	fadfc06f          	j	80000024 <rvtest_error>

000000008000307c <inst_216>:
    8000307c:	55555537          	lui	a0,0x55555
    80003080:	55550513          	addi	a0,a0,1365 # 55555555 <absimmsh+0x49a847a8>
    80003084:	00b51513          	slli	a0,a0,0xb
    80003088:	2aa50513          	addi	a0,a0,682
    8000308c:	00b51513          	slli	a0,a0,0xb
    80003090:	55550513          	addi	a0,a0,1365
    80003094:	00a51513          	slli	a0,a0,0xa
    80003098:	15550513          	addi	a0,a0,341
    8000309c:	000005b7          	lui	a1,0x0
    800030a0:	fff58593          	addi	a1,a1,-1
    800030a4:	00b59593          	slli	a1,a1,0xb
    800030a8:	25758593          	addi	a1,a1,599
    800030ac:	00b59593          	slli	a1,a1,0xb
    800030b0:	6c358593          	addi	a1,a1,1731
    800030b4:	00a59593          	slli	a1,a1,0xa
    800030b8:	0cd58593          	addi	a1,a1,205
    800030bc:	00b54633          	xor	a2,a0,a1
    800030c0:	5cc0b023          	sd	a2,1472(ra)
    800030c4:	ffd551b7          	lui	gp,0xffd55
    800030c8:	5551819b          	addiw	gp,gp,1365 # ffffffffffd55555 <absimm+0xffffffff45047a85>
    800030cc:	00c19193          	slli	gp,gp,0xc
    800030d0:	55118193          	addi	gp,gp,1361
    800030d4:	01019193          	slli	gp,gp,0x10
    800030d8:	d7318193          	addi	gp,gp,-653
    800030dc:	00d19193          	slli	gp,gp,0xd
    800030e0:	99818193          	addi	gp,gp,-1640
    800030e4:	00c18463          	beq	gp,a2,800030ec <inst_217>
    800030e8:	f3dfc06f          	j	80000024 <rvtest_error>

00000000800030ec <inst_217>:
    800030ec:	55555537          	lui	a0,0x55555
    800030f0:	55550513          	addi	a0,a0,1365 # 55555555 <absimmsh+0x49a847a8>
    800030f4:	00b51513          	slli	a0,a0,0xb
    800030f8:	2aa50513          	addi	a0,a0,682
    800030fc:	00b51513          	slli	a0,a0,0xb
    80003100:	55550513          	addi	a0,a0,1365
    80003104:	00a51513          	slli	a0,a0,0xa
    80003108:	15550513          	addi	a0,a0,341
    8000310c:	000005b7          	lui	a1,0x0
    80003110:	00058593          	mv	a1,a1
    80003114:	00b59593          	slli	a1,a1,0xb
    80003118:	5a858593          	addi	a1,a1,1448 # 5a8 <offset+0x190>
    8000311c:	00b59593          	slli	a1,a1,0xb
    80003120:	13c58593          	addi	a1,a1,316
    80003124:	00a59593          	slli	a1,a1,0xa
    80003128:	33358593          	addi	a1,a1,819
    8000312c:	00b54633          	xor	a2,a0,a1
    80003130:	5cc0b423          	sd	a2,1480(ra)
    80003134:	002ab1b7          	lui	gp,0x2ab
    80003138:	aab1819b          	addiw	gp,gp,-1365 # 2aaaab <offset+0x2aa693>
    8000313c:	00c19193          	slli	gp,gp,0xc
    80003140:	aaf18193          	addi	gp,gp,-1361
    80003144:	01019193          	slli	gp,gp,0x10
    80003148:	28d18193          	addi	gp,gp,653
    8000314c:	00d19193          	slli	gp,gp,0xd
    80003150:	66618193          	addi	gp,gp,1638
    80003154:	00c18463          	beq	gp,a2,8000315c <inst_218>
    80003158:	ecdfc06f          	j	80000024 <rvtest_error>

000000008000315c <inst_218>:
    8000315c:	55555537          	lui	a0,0x55555
    80003160:	55550513          	addi	a0,a0,1365 # 55555555 <absimmsh+0x49a847a8>
    80003164:	00b51513          	slli	a0,a0,0xb
    80003168:	2aa50513          	addi	a0,a0,682
    8000316c:	00b51513          	slli	a0,a0,0xb
    80003170:	55550513          	addi	a0,a0,1365
    80003174:	00a51513          	slli	a0,a0,0xa
    80003178:	15550513          	addi	a0,a0,341
    8000317c:	00200593          	li	a1,2
    80003180:	00b54633          	xor	a2,a0,a1
    80003184:	5cc0b823          	sd	a2,1488(ra)
    80003188:	055551b7          	lui	gp,0x5555
    8000318c:	5551819b          	addiw	gp,gp,1365 # 5555555 <offset+0x555513d>
    80003190:	00c19193          	slli	gp,gp,0xc
    80003194:	55518193          	addi	gp,gp,1365
    80003198:	00c19193          	slli	gp,gp,0xc
    8000319c:	55518193          	addi	gp,gp,1365
    800031a0:	00c19193          	slli	gp,gp,0xc
    800031a4:	55718193          	addi	gp,gp,1367
    800031a8:	00c18463          	beq	gp,a2,800031b0 <inst_219>
    800031ac:	e79fc06f          	j	80000024 <rvtest_error>

00000000800031b0 <inst_219>:
    800031b0:	55555537          	lui	a0,0x55555
    800031b4:	55550513          	addi	a0,a0,1365 # 55555555 <absimmsh+0x49a847a8>
    800031b8:	00b51513          	slli	a0,a0,0xb
    800031bc:	2aa50513          	addi	a0,a0,682
    800031c0:	00b51513          	slli	a0,a0,0xb
    800031c4:	55550513          	addi	a0,a0,1365
    800031c8:	00a51513          	slli	a0,a0,0xa
    800031cc:	15550513          	addi	a0,a0,341
    800031d0:	555555b7          	lui	a1,0x55555
    800031d4:	55558593          	addi	a1,a1,1365 # 55555555 <absimmsh+0x49a847a8>
    800031d8:	00b59593          	slli	a1,a1,0xb
    800031dc:	2aa58593          	addi	a1,a1,682
    800031e0:	00b59593          	slli	a1,a1,0xb
    800031e4:	55558593          	addi	a1,a1,1365
    800031e8:	00a59593          	slli	a1,a1,0xa
    800031ec:	15458593          	addi	a1,a1,340
    800031f0:	00b54633          	xor	a2,a0,a1
    800031f4:	5cc0bc23          	sd	a2,1496(ra)
    800031f8:	00100193          	li	gp,1
    800031fc:	00c18463          	beq	gp,a2,80003204 <inst_220>
    80003200:	e25fc06f          	j	80000024 <rvtest_error>

0000000080003204 <inst_220>:
    80003204:	55555537          	lui	a0,0x55555
    80003208:	55550513          	addi	a0,a0,1365 # 55555555 <absimmsh+0x49a847a8>
    8000320c:	00b51513          	slli	a0,a0,0xb
    80003210:	2aa50513          	addi	a0,a0,682
    80003214:	00b51513          	slli	a0,a0,0xb
    80003218:	55550513          	addi	a0,a0,1365
    8000321c:	00a51513          	slli	a0,a0,0xa
    80003220:	15550513          	addi	a0,a0,341
    80003224:	00000593          	li	a1,0
    80003228:	00b54633          	xor	a2,a0,a1
    8000322c:	5ec0b023          	sd	a2,1504(ra)
    80003230:	055551b7          	lui	gp,0x5555
    80003234:	5551819b          	addiw	gp,gp,1365 # 5555555 <offset+0x555513d>
    80003238:	00c19193          	slli	gp,gp,0xc
    8000323c:	55518193          	addi	gp,gp,1365
    80003240:	00c19193          	slli	gp,gp,0xc
    80003244:	55518193          	addi	gp,gp,1365
    80003248:	00c19193          	slli	gp,gp,0xc
    8000324c:	55518193          	addi	gp,gp,1365
    80003250:	00c18463          	beq	gp,a2,80003258 <inst_221>
    80003254:	dd1fc06f          	j	80000024 <rvtest_error>

0000000080003258 <inst_221>:
    80003258:	55555537          	lui	a0,0x55555
    8000325c:	55550513          	addi	a0,a0,1365 # 55555555 <absimmsh+0x49a847a8>
    80003260:	00b51513          	slli	a0,a0,0xb
    80003264:	2aa50513          	addi	a0,a0,682
    80003268:	00b51513          	slli	a0,a0,0xb
    8000326c:	55550513          	addi	a0,a0,1365
    80003270:	00a51513          	slli	a0,a0,0xa
    80003274:	15550513          	addi	a0,a0,341
    80003278:	00400593          	li	a1,4
    8000327c:	00b54633          	xor	a2,a0,a1
    80003280:	5ec0b423          	sd	a2,1512(ra)
    80003284:	055551b7          	lui	gp,0x5555
    80003288:	5551819b          	addiw	gp,gp,1365 # 5555555 <offset+0x555513d>
    8000328c:	00c19193          	slli	gp,gp,0xc
    80003290:	55518193          	addi	gp,gp,1365
    80003294:	00c19193          	slli	gp,gp,0xc
    80003298:	55518193          	addi	gp,gp,1365
    8000329c:	00c19193          	slli	gp,gp,0xc
    800032a0:	55118193          	addi	gp,gp,1361
    800032a4:	00c18463          	beq	gp,a2,800032ac <inst_222>
    800032a8:	d7dfc06f          	j	80000024 <rvtest_error>

00000000800032ac <inst_222>:
    800032ac:	55555537          	lui	a0,0x55555
    800032b0:	55550513          	addi	a0,a0,1365 # 55555555 <absimmsh+0x49a847a8>
    800032b4:	00b51513          	slli	a0,a0,0xb
    800032b8:	2aa50513          	addi	a0,a0,682
    800032bc:	00b51513          	slli	a0,a0,0xb
    800032c0:	55550513          	addi	a0,a0,1365
    800032c4:	00a51513          	slli	a0,a0,0xa
    800032c8:	15550513          	addi	a0,a0,341
    800032cc:	333335b7          	lui	a1,0x33333
    800032d0:	33358593          	addi	a1,a1,819 # 33333333 <absimmsh+0x27862586>
    800032d4:	00b59593          	slli	a1,a1,0xb
    800032d8:	19958593          	addi	a1,a1,409
    800032dc:	00b59593          	slli	a1,a1,0xb
    800032e0:	4cc58593          	addi	a1,a1,1228
    800032e4:	00a59593          	slli	a1,a1,0xa
    800032e8:	33258593          	addi	a1,a1,818
    800032ec:	00b54633          	xor	a2,a0,a1
    800032f0:	5ec0b823          	sd	a2,1520(ra)
    800032f4:	033331b7          	lui	gp,0x3333
    800032f8:	3331819b          	addiw	gp,gp,819 # 3333333 <offset+0x3332f1b>
    800032fc:	00c19193          	slli	gp,gp,0xc
    80003300:	33318193          	addi	gp,gp,819
    80003304:	00c19193          	slli	gp,gp,0xc
    80003308:	33318193          	addi	gp,gp,819
    8000330c:	00d19193          	slli	gp,gp,0xd
    80003310:	66718193          	addi	gp,gp,1639
    80003314:	00c18463          	beq	gp,a2,8000331c <inst_223>
    80003318:	d0dfc06f          	j	80000024 <rvtest_error>

000000008000331c <inst_223>:
    8000331c:	55555537          	lui	a0,0x55555
    80003320:	55550513          	addi	a0,a0,1365 # 55555555 <absimmsh+0x49a847a8>
    80003324:	00b51513          	slli	a0,a0,0xb
    80003328:	2aa50513          	addi	a0,a0,682
    8000332c:	00b51513          	slli	a0,a0,0xb
    80003330:	55550513          	addi	a0,a0,1365
    80003334:	00a51513          	slli	a0,a0,0xa
    80003338:	15550513          	addi	a0,a0,341
    8000333c:	666665b7          	lui	a1,0x66666
    80003340:	66658593          	addi	a1,a1,1638 # 66666666 <absimmsh+0x5ab958b9>
    80003344:	00b59593          	slli	a1,a1,0xb
    80003348:	33358593          	addi	a1,a1,819
    8000334c:	00b59593          	slli	a1,a1,0xb
    80003350:	19958593          	addi	a1,a1,409
    80003354:	00a59593          	slli	a1,a1,0xa
    80003358:	26558593          	addi	a1,a1,613
    8000335c:	00b54633          	xor	a2,a0,a1
    80003360:	5ec0bc23          	sd	a2,1528(ra)
    80003364:	033331b7          	lui	gp,0x3333
    80003368:	3331819b          	addiw	gp,gp,819 # 3333333 <offset+0x3332f1b>
    8000336c:	00c19193          	slli	gp,gp,0xc
    80003370:	33318193          	addi	gp,gp,819
    80003374:	00c19193          	slli	gp,gp,0xc
    80003378:	33318193          	addi	gp,gp,819
    8000337c:	00c19193          	slli	gp,gp,0xc
    80003380:	33018193          	addi	gp,gp,816
    80003384:	00c18463          	beq	gp,a2,8000338c <inst_224>
    80003388:	c9dfc06f          	j	80000024 <rvtest_error>

000000008000338c <inst_224>:
    8000338c:	55555537          	lui	a0,0x55555
    80003390:	55550513          	addi	a0,a0,1365 # 55555555 <absimmsh+0x49a847a8>
    80003394:	00b51513          	slli	a0,a0,0xb
    80003398:	2aa50513          	addi	a0,a0,682
    8000339c:	00b51513          	slli	a0,a0,0xb
    800033a0:	55550513          	addi	a0,a0,1365
    800033a4:	00a51513          	slli	a0,a0,0xa
    800033a8:	15550513          	addi	a0,a0,341
    800033ac:	000005b7          	lui	a1,0x0
    800033b0:	00058593          	mv	a1,a1
    800033b4:	00b59593          	slli	a1,a1,0xb
    800033b8:	5a858593          	addi	a1,a1,1448 # 5a8 <offset+0x190>
    800033bc:	00b59593          	slli	a1,a1,0xb
    800033c0:	13c58593          	addi	a1,a1,316
    800033c4:	00a59593          	slli	a1,a1,0xa
    800033c8:	33258593          	addi	a1,a1,818
    800033cc:	00b54633          	xor	a2,a0,a1
    800033d0:	60c0b023          	sd	a2,1536(ra)
    800033d4:	002ab1b7          	lui	gp,0x2ab
    800033d8:	aab1819b          	addiw	gp,gp,-1365 # 2aaaab <offset+0x2aa693>
    800033dc:	00c19193          	slli	gp,gp,0xc
    800033e0:	aaf18193          	addi	gp,gp,-1361
    800033e4:	01019193          	slli	gp,gp,0x10
    800033e8:	28d18193          	addi	gp,gp,653
    800033ec:	00d19193          	slli	gp,gp,0xd
    800033f0:	66718193          	addi	gp,gp,1639
    800033f4:	00c18463          	beq	gp,a2,800033fc <inst_225>
    800033f8:	c2dfc06f          	j	80000024 <rvtest_error>

00000000800033fc <inst_225>:
    800033fc:	55555537          	lui	a0,0x55555
    80003400:	55550513          	addi	a0,a0,1365 # 55555555 <absimmsh+0x49a847a8>
    80003404:	00b51513          	slli	a0,a0,0xb
    80003408:	2aa50513          	addi	a0,a0,682
    8000340c:	00b51513          	slli	a0,a0,0xb
    80003410:	55550513          	addi	a0,a0,1365
    80003414:	00a51513          	slli	a0,a0,0xa
    80003418:	15550513          	addi	a0,a0,341
    8000341c:	555555b7          	lui	a1,0x55555
    80003420:	55558593          	addi	a1,a1,1365 # 55555555 <absimmsh+0x49a847a8>
    80003424:	00b59593          	slli	a1,a1,0xb
    80003428:	2aa58593          	addi	a1,a1,682
    8000342c:	00b59593          	slli	a1,a1,0xb
    80003430:	55558593          	addi	a1,a1,1365
    80003434:	00a59593          	slli	a1,a1,0xa
    80003438:	15658593          	addi	a1,a1,342
    8000343c:	00b54633          	xor	a2,a0,a1
    80003440:	60c0b423          	sd	a2,1544(ra)
    80003444:	00300193          	li	gp,3
    80003448:	00c18463          	beq	gp,a2,80003450 <inst_226>
    8000344c:	bd9fc06f          	j	80000024 <rvtest_error>

0000000080003450 <inst_226>:
    80003450:	55555537          	lui	a0,0x55555
    80003454:	55550513          	addi	a0,a0,1365 # 55555555 <absimmsh+0x49a847a8>
    80003458:	00b51513          	slli	a0,a0,0xb
    8000345c:	2aa50513          	addi	a0,a0,682
    80003460:	00b51513          	slli	a0,a0,0xb
    80003464:	55550513          	addi	a0,a0,1365
    80003468:	00a51513          	slli	a0,a0,0xa
    8000346c:	15550513          	addi	a0,a0,341
    80003470:	aaaab5b7          	lui	a1,0xaaaab
    80003474:	aaa58593          	addi	a1,a1,-1366 # ffffffffaaaaaaaa <absimm+0xfffffffeefd9cfda>
    80003478:	00b59593          	slli	a1,a1,0xb
    8000347c:	55558593          	addi	a1,a1,1365
    80003480:	00b59593          	slli	a1,a1,0xb
    80003484:	2aa58593          	addi	a1,a1,682
    80003488:	00a59593          	slli	a1,a1,0xa
    8000348c:	2ab58593          	addi	a1,a1,683
    80003490:	00b54633          	xor	a2,a0,a1
    80003494:	60c0b823          	sd	a2,1552(ra)
    80003498:	ffe00193          	li	gp,-2
    8000349c:	00c18463          	beq	gp,a2,800034a4 <inst_227>
    800034a0:	b85fc06f          	j	80000024 <rvtest_error>

00000000800034a4 <inst_227>:
    800034a4:	55555537          	lui	a0,0x55555
    800034a8:	55550513          	addi	a0,a0,1365 # 55555555 <absimmsh+0x49a847a8>
    800034ac:	00b51513          	slli	a0,a0,0xb
    800034b0:	2aa50513          	addi	a0,a0,682
    800034b4:	00b51513          	slli	a0,a0,0xb
    800034b8:	55550513          	addi	a0,a0,1365
    800034bc:	00a51513          	slli	a0,a0,0xa
    800034c0:	15550513          	addi	a0,a0,341
    800034c4:	00600593          	li	a1,6
    800034c8:	00b54633          	xor	a2,a0,a1
    800034cc:	60c0bc23          	sd	a2,1560(ra)
    800034d0:	055551b7          	lui	gp,0x5555
    800034d4:	5551819b          	addiw	gp,gp,1365 # 5555555 <offset+0x555513d>
    800034d8:	00c19193          	slli	gp,gp,0xc
    800034dc:	55518193          	addi	gp,gp,1365
    800034e0:	00c19193          	slli	gp,gp,0xc
    800034e4:	55518193          	addi	gp,gp,1365
    800034e8:	00c19193          	slli	gp,gp,0xc
    800034ec:	55318193          	addi	gp,gp,1363
    800034f0:	00c18463          	beq	gp,a2,800034f8 <inst_228>
    800034f4:	b31fc06f          	j	80000024 <rvtest_error>

00000000800034f8 <inst_228>:
    800034f8:	55555537          	lui	a0,0x55555
    800034fc:	55550513          	addi	a0,a0,1365 # 55555555 <absimmsh+0x49a847a8>
    80003500:	00b51513          	slli	a0,a0,0xb
    80003504:	2aa50513          	addi	a0,a0,682
    80003508:	00b51513          	slli	a0,a0,0xb
    8000350c:	55550513          	addi	a0,a0,1365
    80003510:	00a51513          	slli	a0,a0,0xa
    80003514:	15550513          	addi	a0,a0,341
    80003518:	333335b7          	lui	a1,0x33333
    8000351c:	33358593          	addi	a1,a1,819 # 33333333 <absimmsh+0x27862586>
    80003520:	00b59593          	slli	a1,a1,0xb
    80003524:	19958593          	addi	a1,a1,409
    80003528:	00b59593          	slli	a1,a1,0xb
    8000352c:	4cc58593          	addi	a1,a1,1228
    80003530:	00a59593          	slli	a1,a1,0xa
    80003534:	33458593          	addi	a1,a1,820
    80003538:	00b54633          	xor	a2,a0,a1
    8000353c:	62c0b023          	sd	a2,1568(ra)
    80003540:	033331b7          	lui	gp,0x3333
    80003544:	3331819b          	addiw	gp,gp,819 # 3333333 <offset+0x3332f1b>
    80003548:	00c19193          	slli	gp,gp,0xc
    8000354c:	33318193          	addi	gp,gp,819
    80003550:	00c19193          	slli	gp,gp,0xc
    80003554:	33318193          	addi	gp,gp,819
    80003558:	00d19193          	slli	gp,gp,0xd
    8000355c:	66118193          	addi	gp,gp,1633
    80003560:	00c18463          	beq	gp,a2,80003568 <inst_229>
    80003564:	ac1fc06f          	j	80000024 <rvtest_error>

0000000080003568 <inst_229>:
    80003568:	55555537          	lui	a0,0x55555
    8000356c:	55550513          	addi	a0,a0,1365 # 55555555 <absimmsh+0x49a847a8>
    80003570:	00b51513          	slli	a0,a0,0xb
    80003574:	2aa50513          	addi	a0,a0,682
    80003578:	00b51513          	slli	a0,a0,0xb
    8000357c:	55550513          	addi	a0,a0,1365
    80003580:	00a51513          	slli	a0,a0,0xa
    80003584:	15550513          	addi	a0,a0,341
    80003588:	666665b7          	lui	a1,0x66666
    8000358c:	66658593          	addi	a1,a1,1638 # 66666666 <absimmsh+0x5ab958b9>
    80003590:	00b59593          	slli	a1,a1,0xb
    80003594:	33358593          	addi	a1,a1,819
    80003598:	00b59593          	slli	a1,a1,0xb
    8000359c:	19958593          	addi	a1,a1,409
    800035a0:	00a59593          	slli	a1,a1,0xa
    800035a4:	26758593          	addi	a1,a1,615
    800035a8:	00b54633          	xor	a2,a0,a1
    800035ac:	62c0b423          	sd	a2,1576(ra)
    800035b0:	033331b7          	lui	gp,0x3333
    800035b4:	3331819b          	addiw	gp,gp,819 # 3333333 <offset+0x3332f1b>
    800035b8:	00c19193          	slli	gp,gp,0xc
    800035bc:	33318193          	addi	gp,gp,819
    800035c0:	00c19193          	slli	gp,gp,0xc
    800035c4:	33318193          	addi	gp,gp,819
    800035c8:	00c19193          	slli	gp,gp,0xc
    800035cc:	33218193          	addi	gp,gp,818
    800035d0:	00c18463          	beq	gp,a2,800035d8 <inst_230>
    800035d4:	a51fc06f          	j	80000024 <rvtest_error>

00000000800035d8 <inst_230>:
    800035d8:	55555537          	lui	a0,0x55555
    800035dc:	55550513          	addi	a0,a0,1365 # 55555555 <absimmsh+0x49a847a8>
    800035e0:	00b51513          	slli	a0,a0,0xb
    800035e4:	2aa50513          	addi	a0,a0,682
    800035e8:	00b51513          	slli	a0,a0,0xb
    800035ec:	55550513          	addi	a0,a0,1365
    800035f0:	00a51513          	slli	a0,a0,0xa
    800035f4:	15550513          	addi	a0,a0,341
    800035f8:	000005b7          	lui	a1,0x0
    800035fc:	fff58593          	addi	a1,a1,-1
    80003600:	00b59593          	slli	a1,a1,0xb
    80003604:	25758593          	addi	a1,a1,599
    80003608:	00b59593          	slli	a1,a1,0xb
    8000360c:	6c358593          	addi	a1,a1,1731
    80003610:	00a59593          	slli	a1,a1,0xa
    80003614:	0ce58593          	addi	a1,a1,206
    80003618:	00b54633          	xor	a2,a0,a1
    8000361c:	62c0b823          	sd	a2,1584(ra)
    80003620:	ffd551b7          	lui	gp,0xffd55
    80003624:	5551819b          	addiw	gp,gp,1365 # ffffffffffd55555 <absimm+0xffffffff45047a85>
    80003628:	00c19193          	slli	gp,gp,0xc
    8000362c:	55118193          	addi	gp,gp,1361
    80003630:	01019193          	slli	gp,gp,0x10
    80003634:	d7318193          	addi	gp,gp,-653
    80003638:	00d19193          	slli	gp,gp,0xd
    8000363c:	99b18193          	addi	gp,gp,-1637
    80003640:	00c18463          	beq	gp,a2,80003648 <inst_231>
    80003644:	9e1fc06f          	j	80000024 <rvtest_error>

0000000080003648 <inst_231>:
    80003648:	55555537          	lui	a0,0x55555
    8000364c:	55550513          	addi	a0,a0,1365 # 55555555 <absimmsh+0x49a847a8>
    80003650:	00b51513          	slli	a0,a0,0xb
    80003654:	2aa50513          	addi	a0,a0,682
    80003658:	00b51513          	slli	a0,a0,0xb
    8000365c:	55550513          	addi	a0,a0,1365
    80003660:	00a51513          	slli	a0,a0,0xa
    80003664:	15550513          	addi	a0,a0,341
    80003668:	000005b7          	lui	a1,0x0
    8000366c:	00058593          	mv	a1,a1
    80003670:	00b59593          	slli	a1,a1,0xb
    80003674:	5a858593          	addi	a1,a1,1448 # 5a8 <offset+0x190>
    80003678:	00b59593          	slli	a1,a1,0xb
    8000367c:	13c58593          	addi	a1,a1,316
    80003680:	00a59593          	slli	a1,a1,0xa
    80003684:	33458593          	addi	a1,a1,820
    80003688:	00b54633          	xor	a2,a0,a1
    8000368c:	62c0bc23          	sd	a2,1592(ra)
    80003690:	002ab1b7          	lui	gp,0x2ab
    80003694:	aab1819b          	addiw	gp,gp,-1365 # 2aaaab <offset+0x2aa693>
    80003698:	00c19193          	slli	gp,gp,0xc
    8000369c:	aaf18193          	addi	gp,gp,-1361
    800036a0:	01019193          	slli	gp,gp,0x10
    800036a4:	28d18193          	addi	gp,gp,653
    800036a8:	00d19193          	slli	gp,gp,0xd
    800036ac:	66118193          	addi	gp,gp,1633
    800036b0:	00c18463          	beq	gp,a2,800036b8 <inst_232>
    800036b4:	971fc06f          	j	80000024 <rvtest_error>

00000000800036b8 <inst_232>:
    800036b8:	aaaab537          	lui	a0,0xaaaab
    800036bc:	aaa50513          	addi	a0,a0,-1366 # ffffffffaaaaaaaa <absimm+0xfffffffeefd9cfda>
    800036c0:	00b51513          	slli	a0,a0,0xb
    800036c4:	55550513          	addi	a0,a0,1365
    800036c8:	00b51513          	slli	a0,a0,0xb
    800036cc:	2aa50513          	addi	a0,a0,682
    800036d0:	00a51513          	slli	a0,a0,0xa
    800036d4:	2aa50513          	addi	a0,a0,682
    800036d8:	00300593          	li	a1,3
    800036dc:	00b54633          	xor	a2,a0,a1
    800036e0:	64c0b023          	sd	a2,1600(ra)
    800036e4:	faaab1b7          	lui	gp,0xfaaab
    800036e8:	aab1819b          	addiw	gp,gp,-1365 # fffffffffaaaaaab <absimm+0xffffffff3fd9cfdb>
    800036ec:	00c19193          	slli	gp,gp,0xc
    800036f0:	aab18193          	addi	gp,gp,-1365
    800036f4:	00c19193          	slli	gp,gp,0xc
    800036f8:	aab18193          	addi	gp,gp,-1365
    800036fc:	00c19193          	slli	gp,gp,0xc
    80003700:	aa918193          	addi	gp,gp,-1367
    80003704:	00c18463          	beq	gp,a2,8000370c <inst_233>
    80003708:	91dfc06f          	j	80000024 <rvtest_error>

000000008000370c <inst_233>:
    8000370c:	aaaab537          	lui	a0,0xaaaab
    80003710:	aaa50513          	addi	a0,a0,-1366 # ffffffffaaaaaaaa <absimm+0xfffffffeefd9cfda>
    80003714:	00b51513          	slli	a0,a0,0xb
    80003718:	55550513          	addi	a0,a0,1365
    8000371c:	00b51513          	slli	a0,a0,0xb
    80003720:	2aa50513          	addi	a0,a0,682
    80003724:	00a51513          	slli	a0,a0,0xa
    80003728:	2aa50513          	addi	a0,a0,682
    8000372c:	555555b7          	lui	a1,0x55555
    80003730:	55558593          	addi	a1,a1,1365 # 55555555 <absimmsh+0x49a847a8>
    80003734:	00b59593          	slli	a1,a1,0xb
    80003738:	2aa58593          	addi	a1,a1,682
    8000373c:	00b59593          	slli	a1,a1,0xb
    80003740:	55558593          	addi	a1,a1,1365
    80003744:	00a59593          	slli	a1,a1,0xa
    80003748:	15558593          	addi	a1,a1,341
    8000374c:	00b54633          	xor	a2,a0,a1
    80003750:	64c0b423          	sd	a2,1608(ra)
    80003754:	fff00193          	li	gp,-1
    80003758:	00c18463          	beq	gp,a2,80003760 <inst_234>
    8000375c:	8c9fc06f          	j	80000024 <rvtest_error>

0000000080003760 <inst_234>:
    80003760:	aaaab537          	lui	a0,0xaaaab
    80003764:	aaa50513          	addi	a0,a0,-1366 # ffffffffaaaaaaaa <absimm+0xfffffffeefd9cfda>
    80003768:	00b51513          	slli	a0,a0,0xb
    8000376c:	55550513          	addi	a0,a0,1365
    80003770:	00b51513          	slli	a0,a0,0xb
    80003774:	2aa50513          	addi	a0,a0,682
    80003778:	00a51513          	slli	a0,a0,0xa
    8000377c:	2aa50513          	addi	a0,a0,682
    80003780:	aaaab5b7          	lui	a1,0xaaaab
    80003784:	aaa58593          	addi	a1,a1,-1366 # ffffffffaaaaaaaa <absimm+0xfffffffeefd9cfda>
    80003788:	00b59593          	slli	a1,a1,0xb
    8000378c:	55558593          	addi	a1,a1,1365
    80003790:	00b59593          	slli	a1,a1,0xb
    80003794:	2aa58593          	addi	a1,a1,682
    80003798:	00a59593          	slli	a1,a1,0xa
    8000379c:	2aa58593          	addi	a1,a1,682
    800037a0:	00b54633          	xor	a2,a0,a1
    800037a4:	64c0b823          	sd	a2,1616(ra)
    800037a8:	00000193          	li	gp,0
    800037ac:	00c18463          	beq	gp,a2,800037b4 <inst_235>
    800037b0:	875fc06f          	j	80000024 <rvtest_error>

00000000800037b4 <inst_235>:
    800037b4:	aaaab537          	lui	a0,0xaaaab
    800037b8:	aaa50513          	addi	a0,a0,-1366 # ffffffffaaaaaaaa <absimm+0xfffffffeefd9cfda>
    800037bc:	00b51513          	slli	a0,a0,0xb
    800037c0:	55550513          	addi	a0,a0,1365
    800037c4:	00b51513          	slli	a0,a0,0xb
    800037c8:	2aa50513          	addi	a0,a0,682
    800037cc:	00a51513          	slli	a0,a0,0xa
    800037d0:	2aa50513          	addi	a0,a0,682
    800037d4:	00500593          	li	a1,5
    800037d8:	00b54633          	xor	a2,a0,a1
    800037dc:	64c0bc23          	sd	a2,1624(ra)
    800037e0:	faaab1b7          	lui	gp,0xfaaab
    800037e4:	aab1819b          	addiw	gp,gp,-1365 # fffffffffaaaaaab <absimm+0xffffffff3fd9cfdb>
    800037e8:	00c19193          	slli	gp,gp,0xc
    800037ec:	aab18193          	addi	gp,gp,-1365
    800037f0:	00c19193          	slli	gp,gp,0xc
    800037f4:	aab18193          	addi	gp,gp,-1365
    800037f8:	00c19193          	slli	gp,gp,0xc
    800037fc:	aaf18193          	addi	gp,gp,-1361
    80003800:	00c18463          	beq	gp,a2,80003808 <inst_236>
    80003804:	821fc06f          	j	80000024 <rvtest_error>

0000000080003808 <inst_236>:
    80003808:	aaaab537          	lui	a0,0xaaaab
    8000380c:	aaa50513          	addi	a0,a0,-1366 # ffffffffaaaaaaaa <absimm+0xfffffffeefd9cfda>
    80003810:	00b51513          	slli	a0,a0,0xb
    80003814:	55550513          	addi	a0,a0,1365
    80003818:	00b51513          	slli	a0,a0,0xb
    8000381c:	2aa50513          	addi	a0,a0,682
    80003820:	00a51513          	slli	a0,a0,0xa
    80003824:	2aa50513          	addi	a0,a0,682
    80003828:	333335b7          	lui	a1,0x33333
    8000382c:	33358593          	addi	a1,a1,819 # 33333333 <absimmsh+0x27862586>
    80003830:	00b59593          	slli	a1,a1,0xb
    80003834:	19958593          	addi	a1,a1,409
    80003838:	00b59593          	slli	a1,a1,0xb
    8000383c:	4cc58593          	addi	a1,a1,1228
    80003840:	00a59593          	slli	a1,a1,0xa
    80003844:	33358593          	addi	a1,a1,819
    80003848:	00b54633          	xor	a2,a0,a1
    8000384c:	66c0b023          	sd	a2,1632(ra)
    80003850:	fcccd1b7          	lui	gp,0xfcccd
    80003854:	ccd1819b          	addiw	gp,gp,-819 # fffffffffccccccd <absimm+0xffffffff41fbf1fd>
    80003858:	00c19193          	slli	gp,gp,0xc
    8000385c:	ccd18193          	addi	gp,gp,-819
    80003860:	00c19193          	slli	gp,gp,0xc
    80003864:	ccd18193          	addi	gp,gp,-819
    80003868:	00d19193          	slli	gp,gp,0xd
    8000386c:	99918193          	addi	gp,gp,-1639
    80003870:	00c18463          	beq	gp,a2,80003878 <inst_237>
    80003874:	fb0fc06f          	j	80000024 <rvtest_error>

0000000080003878 <inst_237>:
    80003878:	aaaab537          	lui	a0,0xaaaab
    8000387c:	aaa50513          	addi	a0,a0,-1366 # ffffffffaaaaaaaa <absimm+0xfffffffeefd9cfda>
    80003880:	00b51513          	slli	a0,a0,0xb
    80003884:	55550513          	addi	a0,a0,1365
    80003888:	00b51513          	slli	a0,a0,0xb
    8000388c:	2aa50513          	addi	a0,a0,682
    80003890:	00a51513          	slli	a0,a0,0xa
    80003894:	2aa50513          	addi	a0,a0,682
    80003898:	666665b7          	lui	a1,0x66666
    8000389c:	66658593          	addi	a1,a1,1638 # 66666666 <absimmsh+0x5ab958b9>
    800038a0:	00b59593          	slli	a1,a1,0xb
    800038a4:	33358593          	addi	a1,a1,819
    800038a8:	00b59593          	slli	a1,a1,0xb
    800038ac:	19958593          	addi	a1,a1,409
    800038b0:	00a59593          	slli	a1,a1,0xa
    800038b4:	26658593          	addi	a1,a1,614
    800038b8:	00b54633          	xor	a2,a0,a1
    800038bc:	66c0b423          	sd	a2,1640(ra)
    800038c0:	fcccd1b7          	lui	gp,0xfcccd
    800038c4:	ccd1819b          	addiw	gp,gp,-819 # fffffffffccccccd <absimm+0xffffffff41fbf1fd>
    800038c8:	00c19193          	slli	gp,gp,0xc
    800038cc:	ccd18193          	addi	gp,gp,-819
    800038d0:	00c19193          	slli	gp,gp,0xc
    800038d4:	ccd18193          	addi	gp,gp,-819
    800038d8:	00c19193          	slli	gp,gp,0xc
    800038dc:	ccc18193          	addi	gp,gp,-820
    800038e0:	00c18463          	beq	gp,a2,800038e8 <inst_238>
    800038e4:	f40fc06f          	j	80000024 <rvtest_error>

00000000800038e8 <inst_238>:
    800038e8:	aaaab537          	lui	a0,0xaaaab
    800038ec:	aaa50513          	addi	a0,a0,-1366 # ffffffffaaaaaaaa <absimm+0xfffffffeefd9cfda>
    800038f0:	00b51513          	slli	a0,a0,0xb
    800038f4:	55550513          	addi	a0,a0,1365
    800038f8:	00b51513          	slli	a0,a0,0xb
    800038fc:	2aa50513          	addi	a0,a0,682
    80003900:	00a51513          	slli	a0,a0,0xa
    80003904:	2aa50513          	addi	a0,a0,682
    80003908:	000005b7          	lui	a1,0x0
    8000390c:	fff58593          	addi	a1,a1,-1
    80003910:	00b59593          	slli	a1,a1,0xb
    80003914:	25758593          	addi	a1,a1,599
    80003918:	00b59593          	slli	a1,a1,0xb
    8000391c:	6c358593          	addi	a1,a1,1731
    80003920:	00a59593          	slli	a1,a1,0xa
    80003924:	0cd58593          	addi	a1,a1,205
    80003928:	00b54633          	xor	a2,a0,a1
    8000392c:	66c0b823          	sd	a2,1648(ra)
    80003930:	002ab1b7          	lui	gp,0x2ab
    80003934:	aab1819b          	addiw	gp,gp,-1365 # 2aaaab <offset+0x2aa693>
    80003938:	00c19193          	slli	gp,gp,0xc
    8000393c:	aaf18193          	addi	gp,gp,-1361
    80003940:	01019193          	slli	gp,gp,0x10
    80003944:	28d18193          	addi	gp,gp,653
    80003948:	00d19193          	slli	gp,gp,0xd
    8000394c:	66718193          	addi	gp,gp,1639
    80003950:	00c18463          	beq	gp,a2,80003958 <inst_239>
    80003954:	ed0fc06f          	j	80000024 <rvtest_error>

0000000080003958 <inst_239>:
    80003958:	aaaab537          	lui	a0,0xaaaab
    8000395c:	aaa50513          	addi	a0,a0,-1366 # ffffffffaaaaaaaa <absimm+0xfffffffeefd9cfda>
    80003960:	00b51513          	slli	a0,a0,0xb
    80003964:	55550513          	addi	a0,a0,1365
    80003968:	00b51513          	slli	a0,a0,0xb
    8000396c:	2aa50513          	addi	a0,a0,682
    80003970:	00a51513          	slli	a0,a0,0xa
    80003974:	2aa50513          	addi	a0,a0,682
    80003978:	000005b7          	lui	a1,0x0
    8000397c:	00058593          	mv	a1,a1
    80003980:	00b59593          	slli	a1,a1,0xb
    80003984:	5a858593          	addi	a1,a1,1448 # 5a8 <offset+0x190>
    80003988:	00b59593          	slli	a1,a1,0xb
    8000398c:	13c58593          	addi	a1,a1,316
    80003990:	00a59593          	slli	a1,a1,0xa
    80003994:	33358593          	addi	a1,a1,819
    80003998:	00b54633          	xor	a2,a0,a1
    8000399c:	66c0bc23          	sd	a2,1656(ra)
    800039a0:	ffd551b7          	lui	gp,0xffd55
    800039a4:	5551819b          	addiw	gp,gp,1365 # ffffffffffd55555 <absimm+0xffffffff45047a85>
    800039a8:	00c19193          	slli	gp,gp,0xc
    800039ac:	55118193          	addi	gp,gp,1361
    800039b0:	01019193          	slli	gp,gp,0x10
    800039b4:	d7318193          	addi	gp,gp,-653
    800039b8:	00d19193          	slli	gp,gp,0xd
    800039bc:	99918193          	addi	gp,gp,-1639
    800039c0:	00c18463          	beq	gp,a2,800039c8 <inst_240>
    800039c4:	e60fc06f          	j	80000024 <rvtest_error>

00000000800039c8 <inst_240>:
    800039c8:	aaaab537          	lui	a0,0xaaaab
    800039cc:	aaa50513          	addi	a0,a0,-1366 # ffffffffaaaaaaaa <absimm+0xfffffffeefd9cfda>
    800039d0:	00b51513          	slli	a0,a0,0xb
    800039d4:	55550513          	addi	a0,a0,1365
    800039d8:	00b51513          	slli	a0,a0,0xb
    800039dc:	2aa50513          	addi	a0,a0,682
    800039e0:	00a51513          	slli	a0,a0,0xa
    800039e4:	2aa50513          	addi	a0,a0,682
    800039e8:	00200593          	li	a1,2
    800039ec:	00b54633          	xor	a2,a0,a1
    800039f0:	68c0b023          	sd	a2,1664(ra)
    800039f4:	faaab1b7          	lui	gp,0xfaaab
    800039f8:	aab1819b          	addiw	gp,gp,-1365 # fffffffffaaaaaab <absimm+0xffffffff3fd9cfdb>
    800039fc:	00c19193          	slli	gp,gp,0xc
    80003a00:	aab18193          	addi	gp,gp,-1365
    80003a04:	00c19193          	slli	gp,gp,0xc
    80003a08:	aab18193          	addi	gp,gp,-1365
    80003a0c:	00c19193          	slli	gp,gp,0xc
    80003a10:	aa818193          	addi	gp,gp,-1368
    80003a14:	00c18463          	beq	gp,a2,80003a1c <inst_241>
    80003a18:	e0cfc06f          	j	80000024 <rvtest_error>

0000000080003a1c <inst_241>:
    80003a1c:	aaaab537          	lui	a0,0xaaaab
    80003a20:	aaa50513          	addi	a0,a0,-1366 # ffffffffaaaaaaaa <absimm+0xfffffffeefd9cfda>
    80003a24:	00b51513          	slli	a0,a0,0xb
    80003a28:	55550513          	addi	a0,a0,1365
    80003a2c:	00b51513          	slli	a0,a0,0xb
    80003a30:	2aa50513          	addi	a0,a0,682
    80003a34:	00a51513          	slli	a0,a0,0xa
    80003a38:	2aa50513          	addi	a0,a0,682
    80003a3c:	555555b7          	lui	a1,0x55555
    80003a40:	55558593          	addi	a1,a1,1365 # 55555555 <absimmsh+0x49a847a8>
    80003a44:	00b59593          	slli	a1,a1,0xb
    80003a48:	2aa58593          	addi	a1,a1,682
    80003a4c:	00b59593          	slli	a1,a1,0xb
    80003a50:	55558593          	addi	a1,a1,1365
    80003a54:	00a59593          	slli	a1,a1,0xa
    80003a58:	15458593          	addi	a1,a1,340
    80003a5c:	00b54633          	xor	a2,a0,a1
    80003a60:	68c0b423          	sd	a2,1672(ra)
    80003a64:	ffe00193          	li	gp,-2
    80003a68:	00c18463          	beq	gp,a2,80003a70 <inst_242>
    80003a6c:	db8fc06f          	j	80000024 <rvtest_error>

0000000080003a70 <inst_242>:
    80003a70:	aaaab537          	lui	a0,0xaaaab
    80003a74:	aaa50513          	addi	a0,a0,-1366 # ffffffffaaaaaaaa <absimm+0xfffffffeefd9cfda>
    80003a78:	00b51513          	slli	a0,a0,0xb
    80003a7c:	55550513          	addi	a0,a0,1365
    80003a80:	00b51513          	slli	a0,a0,0xb
    80003a84:	2aa50513          	addi	a0,a0,682
    80003a88:	00a51513          	slli	a0,a0,0xa
    80003a8c:	2aa50513          	addi	a0,a0,682
    80003a90:	00000593          	li	a1,0
    80003a94:	00b54633          	xor	a2,a0,a1
    80003a98:	68c0b823          	sd	a2,1680(ra)
    80003a9c:	faaab1b7          	lui	gp,0xfaaab
    80003aa0:	aab1819b          	addiw	gp,gp,-1365 # fffffffffaaaaaab <absimm+0xffffffff3fd9cfdb>
    80003aa4:	00c19193          	slli	gp,gp,0xc
    80003aa8:	aab18193          	addi	gp,gp,-1365
    80003aac:	00c19193          	slli	gp,gp,0xc
    80003ab0:	aab18193          	addi	gp,gp,-1365
    80003ab4:	00c19193          	slli	gp,gp,0xc
    80003ab8:	aaa18193          	addi	gp,gp,-1366
    80003abc:	00c18463          	beq	gp,a2,80003ac4 <inst_243>
    80003ac0:	d64fc06f          	j	80000024 <rvtest_error>

0000000080003ac4 <inst_243>:
    80003ac4:	aaaab537          	lui	a0,0xaaaab
    80003ac8:	aaa50513          	addi	a0,a0,-1366 # ffffffffaaaaaaaa <absimm+0xfffffffeefd9cfda>
    80003acc:	00b51513          	slli	a0,a0,0xb
    80003ad0:	55550513          	addi	a0,a0,1365
    80003ad4:	00b51513          	slli	a0,a0,0xb
    80003ad8:	2aa50513          	addi	a0,a0,682
    80003adc:	00a51513          	slli	a0,a0,0xa
    80003ae0:	2aa50513          	addi	a0,a0,682
    80003ae4:	00400593          	li	a1,4
    80003ae8:	00b54633          	xor	a2,a0,a1
    80003aec:	68c0bc23          	sd	a2,1688(ra)
    80003af0:	faaab1b7          	lui	gp,0xfaaab
    80003af4:	aab1819b          	addiw	gp,gp,-1365 # fffffffffaaaaaab <absimm+0xffffffff3fd9cfdb>
    80003af8:	00c19193          	slli	gp,gp,0xc
    80003afc:	aab18193          	addi	gp,gp,-1365
    80003b00:	00c19193          	slli	gp,gp,0xc
    80003b04:	aab18193          	addi	gp,gp,-1365
    80003b08:	00c19193          	slli	gp,gp,0xc
    80003b0c:	aae18193          	addi	gp,gp,-1362
    80003b10:	00c18463          	beq	gp,a2,80003b18 <inst_244>
    80003b14:	d10fc06f          	j	80000024 <rvtest_error>

0000000080003b18 <inst_244>:
    80003b18:	aaaab537          	lui	a0,0xaaaab
    80003b1c:	aaa50513          	addi	a0,a0,-1366 # ffffffffaaaaaaaa <absimm+0xfffffffeefd9cfda>
    80003b20:	00b51513          	slli	a0,a0,0xb
    80003b24:	55550513          	addi	a0,a0,1365
    80003b28:	00b51513          	slli	a0,a0,0xb
    80003b2c:	2aa50513          	addi	a0,a0,682
    80003b30:	00a51513          	slli	a0,a0,0xa
    80003b34:	2aa50513          	addi	a0,a0,682
    80003b38:	333335b7          	lui	a1,0x33333
    80003b3c:	33358593          	addi	a1,a1,819 # 33333333 <absimmsh+0x27862586>
    80003b40:	00b59593          	slli	a1,a1,0xb
    80003b44:	19958593          	addi	a1,a1,409
    80003b48:	00b59593          	slli	a1,a1,0xb
    80003b4c:	4cc58593          	addi	a1,a1,1228
    80003b50:	00a59593          	slli	a1,a1,0xa
    80003b54:	33258593          	addi	a1,a1,818
    80003b58:	00b54633          	xor	a2,a0,a1
    80003b5c:	6ac0b023          	sd	a2,1696(ra)
    80003b60:	fcccd1b7          	lui	gp,0xfcccd
    80003b64:	ccd1819b          	addiw	gp,gp,-819 # fffffffffccccccd <absimm+0xffffffff41fbf1fd>
    80003b68:	00c19193          	slli	gp,gp,0xc
    80003b6c:	ccd18193          	addi	gp,gp,-819
    80003b70:	00c19193          	slli	gp,gp,0xc
    80003b74:	ccd18193          	addi	gp,gp,-819
    80003b78:	00d19193          	slli	gp,gp,0xd
    80003b7c:	99818193          	addi	gp,gp,-1640
    80003b80:	00c18463          	beq	gp,a2,80003b88 <inst_245>
    80003b84:	ca0fc06f          	j	80000024 <rvtest_error>

0000000080003b88 <inst_245>:
    80003b88:	aaaab537          	lui	a0,0xaaaab
    80003b8c:	aaa50513          	addi	a0,a0,-1366 # ffffffffaaaaaaaa <absimm+0xfffffffeefd9cfda>
    80003b90:	00b51513          	slli	a0,a0,0xb
    80003b94:	55550513          	addi	a0,a0,1365
    80003b98:	00b51513          	slli	a0,a0,0xb
    80003b9c:	2aa50513          	addi	a0,a0,682
    80003ba0:	00a51513          	slli	a0,a0,0xa
    80003ba4:	2aa50513          	addi	a0,a0,682
    80003ba8:	666665b7          	lui	a1,0x66666
    80003bac:	66658593          	addi	a1,a1,1638 # 66666666 <absimmsh+0x5ab958b9>
    80003bb0:	00b59593          	slli	a1,a1,0xb
    80003bb4:	33358593          	addi	a1,a1,819
    80003bb8:	00b59593          	slli	a1,a1,0xb
    80003bbc:	19958593          	addi	a1,a1,409
    80003bc0:	00a59593          	slli	a1,a1,0xa
    80003bc4:	26558593          	addi	a1,a1,613
    80003bc8:	00b54633          	xor	a2,a0,a1
    80003bcc:	6ac0b423          	sd	a2,1704(ra)
    80003bd0:	fcccd1b7          	lui	gp,0xfcccd
    80003bd4:	ccd1819b          	addiw	gp,gp,-819 # fffffffffccccccd <absimm+0xffffffff41fbf1fd>
    80003bd8:	00c19193          	slli	gp,gp,0xc
    80003bdc:	ccd18193          	addi	gp,gp,-819
    80003be0:	00c19193          	slli	gp,gp,0xc
    80003be4:	ccd18193          	addi	gp,gp,-819
    80003be8:	00c19193          	slli	gp,gp,0xc
    80003bec:	ccf18193          	addi	gp,gp,-817
    80003bf0:	00c18463          	beq	gp,a2,80003bf8 <inst_246>
    80003bf4:	c30fc06f          	j	80000024 <rvtest_error>

0000000080003bf8 <inst_246>:
    80003bf8:	aaaab537          	lui	a0,0xaaaab
    80003bfc:	aaa50513          	addi	a0,a0,-1366 # ffffffffaaaaaaaa <absimm+0xfffffffeefd9cfda>
    80003c00:	00b51513          	slli	a0,a0,0xb
    80003c04:	55550513          	addi	a0,a0,1365
    80003c08:	00b51513          	slli	a0,a0,0xb
    80003c0c:	2aa50513          	addi	a0,a0,682
    80003c10:	00a51513          	slli	a0,a0,0xa
    80003c14:	2aa50513          	addi	a0,a0,682
    80003c18:	000005b7          	lui	a1,0x0
    80003c1c:	00058593          	mv	a1,a1
    80003c20:	00b59593          	slli	a1,a1,0xb
    80003c24:	5a858593          	addi	a1,a1,1448 # 5a8 <offset+0x190>
    80003c28:	00b59593          	slli	a1,a1,0xb
    80003c2c:	13c58593          	addi	a1,a1,316
    80003c30:	00a59593          	slli	a1,a1,0xa
    80003c34:	33258593          	addi	a1,a1,818
    80003c38:	00b54633          	xor	a2,a0,a1
    80003c3c:	6ac0b823          	sd	a2,1712(ra)
    80003c40:	ffd551b7          	lui	gp,0xffd55
    80003c44:	5551819b          	addiw	gp,gp,1365 # ffffffffffd55555 <absimm+0xffffffff45047a85>
    80003c48:	00c19193          	slli	gp,gp,0xc
    80003c4c:	55118193          	addi	gp,gp,1361
    80003c50:	01019193          	slli	gp,gp,0x10
    80003c54:	d7318193          	addi	gp,gp,-653
    80003c58:	00d19193          	slli	gp,gp,0xd
    80003c5c:	99818193          	addi	gp,gp,-1640
    80003c60:	00c18463          	beq	gp,a2,80003c68 <inst_247>
    80003c64:	bc0fc06f          	j	80000024 <rvtest_error>

0000000080003c68 <inst_247>:
    80003c68:	aaaab537          	lui	a0,0xaaaab
    80003c6c:	aaa50513          	addi	a0,a0,-1366 # ffffffffaaaaaaaa <absimm+0xfffffffeefd9cfda>
    80003c70:	00b51513          	slli	a0,a0,0xb
    80003c74:	55550513          	addi	a0,a0,1365
    80003c78:	00b51513          	slli	a0,a0,0xb
    80003c7c:	2aa50513          	addi	a0,a0,682
    80003c80:	00a51513          	slli	a0,a0,0xa
    80003c84:	2aa50513          	addi	a0,a0,682
    80003c88:	555555b7          	lui	a1,0x55555
    80003c8c:	55558593          	addi	a1,a1,1365 # 55555555 <absimmsh+0x49a847a8>
    80003c90:	00b59593          	slli	a1,a1,0xb
    80003c94:	2aa58593          	addi	a1,a1,682
    80003c98:	00b59593          	slli	a1,a1,0xb
    80003c9c:	55558593          	addi	a1,a1,1365
    80003ca0:	00a59593          	slli	a1,a1,0xa
    80003ca4:	15658593          	addi	a1,a1,342
    80003ca8:	00b54633          	xor	a2,a0,a1
    80003cac:	6ac0bc23          	sd	a2,1720(ra)
    80003cb0:	ffc00193          	li	gp,-4
    80003cb4:	00c18463          	beq	gp,a2,80003cbc <inst_248>
    80003cb8:	b6cfc06f          	j	80000024 <rvtest_error>

0000000080003cbc <inst_248>:
    80003cbc:	aaaab537          	lui	a0,0xaaaab
    80003cc0:	aaa50513          	addi	a0,a0,-1366 # ffffffffaaaaaaaa <absimm+0xfffffffeefd9cfda>
    80003cc4:	00b51513          	slli	a0,a0,0xb
    80003cc8:	55550513          	addi	a0,a0,1365
    80003ccc:	00b51513          	slli	a0,a0,0xb
    80003cd0:	2aa50513          	addi	a0,a0,682
    80003cd4:	00a51513          	slli	a0,a0,0xa
    80003cd8:	2aa50513          	addi	a0,a0,682
    80003cdc:	aaaab5b7          	lui	a1,0xaaaab
    80003ce0:	aaa58593          	addi	a1,a1,-1366 # ffffffffaaaaaaaa <absimm+0xfffffffeefd9cfda>
    80003ce4:	00b59593          	slli	a1,a1,0xb
    80003ce8:	55558593          	addi	a1,a1,1365
    80003cec:	00b59593          	slli	a1,a1,0xb
    80003cf0:	2aa58593          	addi	a1,a1,682
    80003cf4:	00a59593          	slli	a1,a1,0xa
    80003cf8:	2ab58593          	addi	a1,a1,683
    80003cfc:	00b54633          	xor	a2,a0,a1
    80003d00:	6cc0b023          	sd	a2,1728(ra)
    80003d04:	00100193          	li	gp,1
    80003d08:	00c18463          	beq	gp,a2,80003d10 <inst_249>
    80003d0c:	b18fc06f          	j	80000024 <rvtest_error>

0000000080003d10 <inst_249>:
    80003d10:	aaaab537          	lui	a0,0xaaaab
    80003d14:	aaa50513          	addi	a0,a0,-1366 # ffffffffaaaaaaaa <absimm+0xfffffffeefd9cfda>
    80003d18:	00b51513          	slli	a0,a0,0xb
    80003d1c:	55550513          	addi	a0,a0,1365
    80003d20:	00b51513          	slli	a0,a0,0xb
    80003d24:	2aa50513          	addi	a0,a0,682
    80003d28:	00a51513          	slli	a0,a0,0xa
    80003d2c:	2aa50513          	addi	a0,a0,682
    80003d30:	00600593          	li	a1,6
    80003d34:	00b54633          	xor	a2,a0,a1
    80003d38:	6cc0b423          	sd	a2,1736(ra)
    80003d3c:	faaab1b7          	lui	gp,0xfaaab
    80003d40:	aab1819b          	addiw	gp,gp,-1365 # fffffffffaaaaaab <absimm+0xffffffff3fd9cfdb>
    80003d44:	00c19193          	slli	gp,gp,0xc
    80003d48:	aab18193          	addi	gp,gp,-1365
    80003d4c:	00c19193          	slli	gp,gp,0xc
    80003d50:	aab18193          	addi	gp,gp,-1365
    80003d54:	00c19193          	slli	gp,gp,0xc
    80003d58:	aac18193          	addi	gp,gp,-1364
    80003d5c:	00c18463          	beq	gp,a2,80003d64 <inst_250>
    80003d60:	ac4fc06f          	j	80000024 <rvtest_error>

0000000080003d64 <inst_250>:
    80003d64:	aaaab537          	lui	a0,0xaaaab
    80003d68:	aaa50513          	addi	a0,a0,-1366 # ffffffffaaaaaaaa <absimm+0xfffffffeefd9cfda>
    80003d6c:	00b51513          	slli	a0,a0,0xb
    80003d70:	55550513          	addi	a0,a0,1365
    80003d74:	00b51513          	slli	a0,a0,0xb
    80003d78:	2aa50513          	addi	a0,a0,682
    80003d7c:	00a51513          	slli	a0,a0,0xa
    80003d80:	2aa50513          	addi	a0,a0,682
    80003d84:	333335b7          	lui	a1,0x33333
    80003d88:	33358593          	addi	a1,a1,819 # 33333333 <absimmsh+0x27862586>
    80003d8c:	00b59593          	slli	a1,a1,0xb
    80003d90:	19958593          	addi	a1,a1,409
    80003d94:	00b59593          	slli	a1,a1,0xb
    80003d98:	4cc58593          	addi	a1,a1,1228
    80003d9c:	00a59593          	slli	a1,a1,0xa
    80003da0:	33458593          	addi	a1,a1,820
    80003da4:	00b54633          	xor	a2,a0,a1
    80003da8:	6cc0b823          	sd	a2,1744(ra)
    80003dac:	fcccd1b7          	lui	gp,0xfcccd
    80003db0:	ccd1819b          	addiw	gp,gp,-819 # fffffffffccccccd <absimm+0xffffffff41fbf1fd>
    80003db4:	00c19193          	slli	gp,gp,0xc
    80003db8:	ccd18193          	addi	gp,gp,-819
    80003dbc:	00c19193          	slli	gp,gp,0xc
    80003dc0:	ccd18193          	addi	gp,gp,-819
    80003dc4:	00d19193          	slli	gp,gp,0xd
    80003dc8:	99e18193          	addi	gp,gp,-1634
    80003dcc:	00c18463          	beq	gp,a2,80003dd4 <inst_251>
    80003dd0:	a54fc06f          	j	80000024 <rvtest_error>

0000000080003dd4 <inst_251>:
    80003dd4:	aaaab537          	lui	a0,0xaaaab
    80003dd8:	aaa50513          	addi	a0,a0,-1366 # ffffffffaaaaaaaa <absimm+0xfffffffeefd9cfda>
    80003ddc:	00b51513          	slli	a0,a0,0xb
    80003de0:	55550513          	addi	a0,a0,1365
    80003de4:	00b51513          	slli	a0,a0,0xb
    80003de8:	2aa50513          	addi	a0,a0,682
    80003dec:	00a51513          	slli	a0,a0,0xa
    80003df0:	2aa50513          	addi	a0,a0,682
    80003df4:	666665b7          	lui	a1,0x66666
    80003df8:	66658593          	addi	a1,a1,1638 # 66666666 <absimmsh+0x5ab958b9>
    80003dfc:	00b59593          	slli	a1,a1,0xb
    80003e00:	33358593          	addi	a1,a1,819
    80003e04:	00b59593          	slli	a1,a1,0xb
    80003e08:	19958593          	addi	a1,a1,409
    80003e0c:	00a59593          	slli	a1,a1,0xa
    80003e10:	26758593          	addi	a1,a1,615
    80003e14:	00b54633          	xor	a2,a0,a1
    80003e18:	6cc0bc23          	sd	a2,1752(ra)
    80003e1c:	fcccd1b7          	lui	gp,0xfcccd
    80003e20:	ccd1819b          	addiw	gp,gp,-819 # fffffffffccccccd <absimm+0xffffffff41fbf1fd>
    80003e24:	00c19193          	slli	gp,gp,0xc
    80003e28:	ccd18193          	addi	gp,gp,-819
    80003e2c:	00c19193          	slli	gp,gp,0xc
    80003e30:	ccd18193          	addi	gp,gp,-819
    80003e34:	00c19193          	slli	gp,gp,0xc
    80003e38:	ccd18193          	addi	gp,gp,-819
    80003e3c:	00c18463          	beq	gp,a2,80003e44 <inst_252>
    80003e40:	9e4fc06f          	j	80000024 <rvtest_error>

0000000080003e44 <inst_252>:
    80003e44:	aaaab537          	lui	a0,0xaaaab
    80003e48:	aaa50513          	addi	a0,a0,-1366 # ffffffffaaaaaaaa <absimm+0xfffffffeefd9cfda>
    80003e4c:	00b51513          	slli	a0,a0,0xb
    80003e50:	55550513          	addi	a0,a0,1365
    80003e54:	00b51513          	slli	a0,a0,0xb
    80003e58:	2aa50513          	addi	a0,a0,682
    80003e5c:	00a51513          	slli	a0,a0,0xa
    80003e60:	2aa50513          	addi	a0,a0,682
    80003e64:	000005b7          	lui	a1,0x0
    80003e68:	fff58593          	addi	a1,a1,-1
    80003e6c:	00b59593          	slli	a1,a1,0xb
    80003e70:	25758593          	addi	a1,a1,599
    80003e74:	00b59593          	slli	a1,a1,0xb
    80003e78:	6c358593          	addi	a1,a1,1731
    80003e7c:	00a59593          	slli	a1,a1,0xa
    80003e80:	0ce58593          	addi	a1,a1,206
    80003e84:	00b54633          	xor	a2,a0,a1
    80003e88:	6ec0b023          	sd	a2,1760(ra)
    80003e8c:	002ab1b7          	lui	gp,0x2ab
    80003e90:	aab1819b          	addiw	gp,gp,-1365 # 2aaaab <offset+0x2aa693>
    80003e94:	00c19193          	slli	gp,gp,0xc
    80003e98:	aaf18193          	addi	gp,gp,-1361
    80003e9c:	01019193          	slli	gp,gp,0x10
    80003ea0:	28d18193          	addi	gp,gp,653
    80003ea4:	00d19193          	slli	gp,gp,0xd
    80003ea8:	66418193          	addi	gp,gp,1636
    80003eac:	00c18463          	beq	gp,a2,80003eb4 <inst_253>
    80003eb0:	974fc06f          	j	80000024 <rvtest_error>

0000000080003eb4 <inst_253>:
    80003eb4:	aaaab537          	lui	a0,0xaaaab
    80003eb8:	aaa50513          	addi	a0,a0,-1366 # ffffffffaaaaaaaa <absimm+0xfffffffeefd9cfda>
    80003ebc:	00b51513          	slli	a0,a0,0xb
    80003ec0:	55550513          	addi	a0,a0,1365
    80003ec4:	00b51513          	slli	a0,a0,0xb
    80003ec8:	2aa50513          	addi	a0,a0,682
    80003ecc:	00a51513          	slli	a0,a0,0xa
    80003ed0:	2aa50513          	addi	a0,a0,682
    80003ed4:	000005b7          	lui	a1,0x0
    80003ed8:	00058593          	mv	a1,a1
    80003edc:	00b59593          	slli	a1,a1,0xb
    80003ee0:	5a858593          	addi	a1,a1,1448 # 5a8 <offset+0x190>
    80003ee4:	00b59593          	slli	a1,a1,0xb
    80003ee8:	13c58593          	addi	a1,a1,316
    80003eec:	00a59593          	slli	a1,a1,0xa
    80003ef0:	33458593          	addi	a1,a1,820
    80003ef4:	00b54633          	xor	a2,a0,a1
    80003ef8:	6ec0b423          	sd	a2,1768(ra)
    80003efc:	ffd551b7          	lui	gp,0xffd55
    80003f00:	5551819b          	addiw	gp,gp,1365 # ffffffffffd55555 <absimm+0xffffffff45047a85>
    80003f04:	00c19193          	slli	gp,gp,0xc
    80003f08:	55118193          	addi	gp,gp,1361
    80003f0c:	01019193          	slli	gp,gp,0x10
    80003f10:	d7318193          	addi	gp,gp,-653
    80003f14:	00d19193          	slli	gp,gp,0xd
    80003f18:	99e18193          	addi	gp,gp,-1634
    80003f1c:	00c18463          	beq	gp,a2,80003f24 <inst_254>
    80003f20:	904fc06f          	j	80000024 <rvtest_error>

0000000080003f24 <inst_254>:
    80003f24:	00500513          	li	a0,5
    80003f28:	00300593          	li	a1,3
    80003f2c:	00b54633          	xor	a2,a0,a1
    80003f30:	6ec0b823          	sd	a2,1776(ra)
    80003f34:	00600193          	li	gp,6
    80003f38:	00c18463          	beq	gp,a2,80003f40 <inst_255>
    80003f3c:	8e8fc06f          	j	80000024 <rvtest_error>

0000000080003f40 <inst_255>:
    80003f40:	00500513          	li	a0,5
    80003f44:	555555b7          	lui	a1,0x55555
    80003f48:	55558593          	addi	a1,a1,1365 # 55555555 <absimmsh+0x49a847a8>
    80003f4c:	00b59593          	slli	a1,a1,0xb
    80003f50:	2aa58593          	addi	a1,a1,682
    80003f54:	00b59593          	slli	a1,a1,0xb
    80003f58:	55558593          	addi	a1,a1,1365
    80003f5c:	00a59593          	slli	a1,a1,0xa
    80003f60:	15558593          	addi	a1,a1,341
    80003f64:	00b54633          	xor	a2,a0,a1
    80003f68:	6ec0bc23          	sd	a2,1784(ra)
    80003f6c:	055551b7          	lui	gp,0x5555
    80003f70:	5551819b          	addiw	gp,gp,1365 # 5555555 <offset+0x555513d>
    80003f74:	00c19193          	slli	gp,gp,0xc
    80003f78:	55518193          	addi	gp,gp,1365
    80003f7c:	00c19193          	slli	gp,gp,0xc
    80003f80:	55518193          	addi	gp,gp,1365
    80003f84:	00c19193          	slli	gp,gp,0xc
    80003f88:	55018193          	addi	gp,gp,1360
    80003f8c:	00c18463          	beq	gp,a2,80003f94 <inst_256>
    80003f90:	894fc06f          	j	80000024 <rvtest_error>

0000000080003f94 <inst_256>:
    80003f94:	00500513          	li	a0,5
    80003f98:	aaaab5b7          	lui	a1,0xaaaab
    80003f9c:	aaa58593          	addi	a1,a1,-1366 # ffffffffaaaaaaaa <absimm+0xfffffffeefd9cfda>
    80003fa0:	00b59593          	slli	a1,a1,0xb
    80003fa4:	55558593          	addi	a1,a1,1365
    80003fa8:	00b59593          	slli	a1,a1,0xb
    80003fac:	2aa58593          	addi	a1,a1,682
    80003fb0:	00a59593          	slli	a1,a1,0xa
    80003fb4:	2aa58593          	addi	a1,a1,682
    80003fb8:	00b54633          	xor	a2,a0,a1
    80003fbc:	70c0b023          	sd	a2,1792(ra)
    80003fc0:	faaab1b7          	lui	gp,0xfaaab
    80003fc4:	aab1819b          	addiw	gp,gp,-1365 # fffffffffaaaaaab <absimm+0xffffffff3fd9cfdb>
    80003fc8:	00c19193          	slli	gp,gp,0xc
    80003fcc:	aab18193          	addi	gp,gp,-1365
    80003fd0:	00c19193          	slli	gp,gp,0xc
    80003fd4:	aab18193          	addi	gp,gp,-1365
    80003fd8:	00c19193          	slli	gp,gp,0xc
    80003fdc:	aaf18193          	addi	gp,gp,-1361
    80003fe0:	00c18463          	beq	gp,a2,80003fe8 <inst_257>
    80003fe4:	840fc06f          	j	80000024 <rvtest_error>

0000000080003fe8 <inst_257>:
    80003fe8:	00500513          	li	a0,5
    80003fec:	00500593          	li	a1,5
    80003ff0:	00b54633          	xor	a2,a0,a1
    80003ff4:	70c0b423          	sd	a2,1800(ra)
    80003ff8:	00000193          	li	gp,0
    80003ffc:	00c18463          	beq	gp,a2,80004004 <inst_258>
    80004000:	824fc06f          	j	80000024 <rvtest_error>

0000000080004004 <inst_258>:
    80004004:	00500513          	li	a0,5
    80004008:	333335b7          	lui	a1,0x33333
    8000400c:	33358593          	addi	a1,a1,819 # 33333333 <absimmsh+0x27862586>
    80004010:	00b59593          	slli	a1,a1,0xb
    80004014:	19958593          	addi	a1,a1,409
    80004018:	00b59593          	slli	a1,a1,0xb
    8000401c:	4cc58593          	addi	a1,a1,1228
    80004020:	00a59593          	slli	a1,a1,0xa
    80004024:	33358593          	addi	a1,a1,819
    80004028:	00b54633          	xor	a2,a0,a1
    8000402c:	70c0b823          	sd	a2,1808(ra)
    80004030:	033331b7          	lui	gp,0x3333
    80004034:	3331819b          	addiw	gp,gp,819 # 3333333 <offset+0x3332f1b>
    80004038:	00c19193          	slli	gp,gp,0xc
    8000403c:	33318193          	addi	gp,gp,819
    80004040:	00c19193          	slli	gp,gp,0xc
    80004044:	33318193          	addi	gp,gp,819
    80004048:	00c19193          	slli	gp,gp,0xc
    8000404c:	33618193          	addi	gp,gp,822
    80004050:	00c18463          	beq	gp,a2,80004058 <inst_259>
    80004054:	fd1fb06f          	j	80000024 <rvtest_error>

0000000080004058 <inst_259>:
    80004058:	00500513          	li	a0,5
    8000405c:	666665b7          	lui	a1,0x66666
    80004060:	66658593          	addi	a1,a1,1638 # 66666666 <absimmsh+0x5ab958b9>
    80004064:	00b59593          	slli	a1,a1,0xb
    80004068:	33358593          	addi	a1,a1,819
    8000406c:	00b59593          	slli	a1,a1,0xb
    80004070:	19958593          	addi	a1,a1,409
    80004074:	00a59593          	slli	a1,a1,0xa
    80004078:	26658593          	addi	a1,a1,614
    8000407c:	00b54633          	xor	a2,a0,a1
    80004080:	70c0bc23          	sd	a2,1816(ra)
    80004084:	033331b7          	lui	gp,0x3333
    80004088:	3331819b          	addiw	gp,gp,819 # 3333333 <offset+0x3332f1b>
    8000408c:	00c19193          	slli	gp,gp,0xc
    80004090:	33318193          	addi	gp,gp,819
    80004094:	00c19193          	slli	gp,gp,0xc
    80004098:	33318193          	addi	gp,gp,819
    8000409c:	00d19193          	slli	gp,gp,0xd
    800040a0:	66318193          	addi	gp,gp,1635
    800040a4:	00c18463          	beq	gp,a2,800040ac <inst_260>
    800040a8:	f7dfb06f          	j	80000024 <rvtest_error>

00000000800040ac <inst_260>:
    800040ac:	00500513          	li	a0,5
    800040b0:	000005b7          	lui	a1,0x0
    800040b4:	fff58593          	addi	a1,a1,-1
    800040b8:	00b59593          	slli	a1,a1,0xb
    800040bc:	25758593          	addi	a1,a1,599
    800040c0:	00b59593          	slli	a1,a1,0xb
    800040c4:	6c358593          	addi	a1,a1,1731
    800040c8:	00a59593          	slli	a1,a1,0xa
    800040cc:	0cd58593          	addi	a1,a1,205
    800040d0:	00b54633          	xor	a2,a0,a1
    800040d4:	72c0b023          	sd	a2,1824(ra)
    800040d8:	fff4b1b7          	lui	gp,0xfff4b
    800040dc:	fb11819b          	addiw	gp,gp,-79 # fffffffffff4afb1 <absimm+0xffffffff4523d4e1>
    800040e0:	00c19193          	slli	gp,gp,0xc
    800040e4:	cc818193          	addi	gp,gp,-824
    800040e8:	00c18463          	beq	gp,a2,800040f0 <inst_261>
    800040ec:	f39fb06f          	j	80000024 <rvtest_error>

00000000800040f0 <inst_261>:
    800040f0:	00500513          	li	a0,5
    800040f4:	000005b7          	lui	a1,0x0
    800040f8:	00058593          	mv	a1,a1
    800040fc:	00b59593          	slli	a1,a1,0xb
    80004100:	5a858593          	addi	a1,a1,1448 # 5a8 <offset+0x190>
    80004104:	00b59593          	slli	a1,a1,0xb
    80004108:	13c58593          	addi	a1,a1,316
    8000410c:	00a59593          	slli	a1,a1,0xa
    80004110:	33358593          	addi	a1,a1,819
    80004114:	00b54633          	xor	a2,a0,a1
    80004118:	72c0b423          	sd	a2,1832(ra)
    8000411c:	000b51b7          	lui	gp,0xb5
    80004120:	04f1819b          	addiw	gp,gp,79 # b504f <offset+0xb4c37>
    80004124:	00c19193          	slli	gp,gp,0xc
    80004128:	33618193          	addi	gp,gp,822
    8000412c:	00c18463          	beq	gp,a2,80004134 <inst_262>
    80004130:	ef5fb06f          	j	80000024 <rvtest_error>

0000000080004134 <inst_262>:
    80004134:	00500513          	li	a0,5
    80004138:	00200593          	li	a1,2
    8000413c:	00b54633          	xor	a2,a0,a1
    80004140:	72c0b823          	sd	a2,1840(ra)
    80004144:	00700193          	li	gp,7
    80004148:	00c18463          	beq	gp,a2,80004150 <inst_263>
    8000414c:	ed9fb06f          	j	80000024 <rvtest_error>

0000000080004150 <inst_263>:
    80004150:	00500513          	li	a0,5
    80004154:	555555b7          	lui	a1,0x55555
    80004158:	55558593          	addi	a1,a1,1365 # 55555555 <absimmsh+0x49a847a8>
    8000415c:	00b59593          	slli	a1,a1,0xb
    80004160:	2aa58593          	addi	a1,a1,682
    80004164:	00b59593          	slli	a1,a1,0xb
    80004168:	55558593          	addi	a1,a1,1365
    8000416c:	00a59593          	slli	a1,a1,0xa
    80004170:	15458593          	addi	a1,a1,340
    80004174:	00b54633          	xor	a2,a0,a1
    80004178:	72c0bc23          	sd	a2,1848(ra)
    8000417c:	055551b7          	lui	gp,0x5555
    80004180:	5551819b          	addiw	gp,gp,1365 # 5555555 <offset+0x555513d>
    80004184:	00c19193          	slli	gp,gp,0xc
    80004188:	55518193          	addi	gp,gp,1365
    8000418c:	00c19193          	slli	gp,gp,0xc
    80004190:	55518193          	addi	gp,gp,1365
    80004194:	00c19193          	slli	gp,gp,0xc
    80004198:	55118193          	addi	gp,gp,1361
    8000419c:	00c18463          	beq	gp,a2,800041a4 <inst_264>
    800041a0:	e85fb06f          	j	80000024 <rvtest_error>

00000000800041a4 <inst_264>:
    800041a4:	00500513          	li	a0,5
    800041a8:	00000593          	li	a1,0
    800041ac:	00b54633          	xor	a2,a0,a1
    800041b0:	74c0b023          	sd	a2,1856(ra)
    800041b4:	00500193          	li	gp,5
    800041b8:	00c18463          	beq	gp,a2,800041c0 <inst_265>
    800041bc:	e69fb06f          	j	80000024 <rvtest_error>

00000000800041c0 <inst_265>:
    800041c0:	00500513          	li	a0,5
    800041c4:	00400593          	li	a1,4
    800041c8:	00b54633          	xor	a2,a0,a1
    800041cc:	74c0b423          	sd	a2,1864(ra)
    800041d0:	00100193          	li	gp,1
    800041d4:	00c18463          	beq	gp,a2,800041dc <inst_266>
    800041d8:	e4dfb06f          	j	80000024 <rvtest_error>

00000000800041dc <inst_266>:
    800041dc:	00500513          	li	a0,5
    800041e0:	333335b7          	lui	a1,0x33333
    800041e4:	33358593          	addi	a1,a1,819 # 33333333 <absimmsh+0x27862586>
    800041e8:	00b59593          	slli	a1,a1,0xb
    800041ec:	19958593          	addi	a1,a1,409
    800041f0:	00b59593          	slli	a1,a1,0xb
    800041f4:	4cc58593          	addi	a1,a1,1228
    800041f8:	00a59593          	slli	a1,a1,0xa
    800041fc:	33258593          	addi	a1,a1,818
    80004200:	00b54633          	xor	a2,a0,a1
    80004204:	74c0b823          	sd	a2,1872(ra)
    80004208:	033331b7          	lui	gp,0x3333
    8000420c:	3331819b          	addiw	gp,gp,819 # 3333333 <offset+0x3332f1b>
    80004210:	00c19193          	slli	gp,gp,0xc
    80004214:	33318193          	addi	gp,gp,819
    80004218:	00c19193          	slli	gp,gp,0xc
    8000421c:	33318193          	addi	gp,gp,819
    80004220:	00c19193          	slli	gp,gp,0xc
    80004224:	33718193          	addi	gp,gp,823
    80004228:	00c18463          	beq	gp,a2,80004230 <inst_267>
    8000422c:	df9fb06f          	j	80000024 <rvtest_error>

0000000080004230 <inst_267>:
    80004230:	00500513          	li	a0,5
    80004234:	666665b7          	lui	a1,0x66666
    80004238:	66658593          	addi	a1,a1,1638 # 66666666 <absimmsh+0x5ab958b9>
    8000423c:	00b59593          	slli	a1,a1,0xb
    80004240:	33358593          	addi	a1,a1,819
    80004244:	00b59593          	slli	a1,a1,0xb
    80004248:	19958593          	addi	a1,a1,409
    8000424c:	00a59593          	slli	a1,a1,0xa
    80004250:	26558593          	addi	a1,a1,613
    80004254:	00b54633          	xor	a2,a0,a1
    80004258:	74c0bc23          	sd	a2,1880(ra)
    8000425c:	033331b7          	lui	gp,0x3333
    80004260:	3331819b          	addiw	gp,gp,819 # 3333333 <offset+0x3332f1b>
    80004264:	00c19193          	slli	gp,gp,0xc
    80004268:	33318193          	addi	gp,gp,819
    8000426c:	00c19193          	slli	gp,gp,0xc
    80004270:	33318193          	addi	gp,gp,819
    80004274:	00d19193          	slli	gp,gp,0xd
    80004278:	66018193          	addi	gp,gp,1632
    8000427c:	00c18463          	beq	gp,a2,80004284 <inst_268>
    80004280:	da5fb06f          	j	80000024 <rvtest_error>

0000000080004284 <inst_268>:
    80004284:	00500513          	li	a0,5
    80004288:	000005b7          	lui	a1,0x0
    8000428c:	00058593          	mv	a1,a1
    80004290:	00b59593          	slli	a1,a1,0xb
    80004294:	5a858593          	addi	a1,a1,1448 # 5a8 <offset+0x190>
    80004298:	00b59593          	slli	a1,a1,0xb
    8000429c:	13c58593          	addi	a1,a1,316
    800042a0:	00a59593          	slli	a1,a1,0xa
    800042a4:	33258593          	addi	a1,a1,818
    800042a8:	00b54633          	xor	a2,a0,a1
    800042ac:	76c0b023          	sd	a2,1888(ra)
    800042b0:	000b51b7          	lui	gp,0xb5
    800042b4:	04f1819b          	addiw	gp,gp,79 # b504f <offset+0xb4c37>
    800042b8:	00c19193          	slli	gp,gp,0xc
    800042bc:	33718193          	addi	gp,gp,823
    800042c0:	00c18463          	beq	gp,a2,800042c8 <inst_269>
    800042c4:	d61fb06f          	j	80000024 <rvtest_error>

00000000800042c8 <inst_269>:
    800042c8:	00500513          	li	a0,5
    800042cc:	555555b7          	lui	a1,0x55555
    800042d0:	55558593          	addi	a1,a1,1365 # 55555555 <absimmsh+0x49a847a8>
    800042d4:	00b59593          	slli	a1,a1,0xb
    800042d8:	2aa58593          	addi	a1,a1,682
    800042dc:	00b59593          	slli	a1,a1,0xb
    800042e0:	55558593          	addi	a1,a1,1365
    800042e4:	00a59593          	slli	a1,a1,0xa
    800042e8:	15658593          	addi	a1,a1,342
    800042ec:	00b54633          	xor	a2,a0,a1
    800042f0:	76c0b423          	sd	a2,1896(ra)
    800042f4:	055551b7          	lui	gp,0x5555
    800042f8:	5551819b          	addiw	gp,gp,1365 # 5555555 <offset+0x555513d>
    800042fc:	00c19193          	slli	gp,gp,0xc
    80004300:	55518193          	addi	gp,gp,1365
    80004304:	00c19193          	slli	gp,gp,0xc
    80004308:	55518193          	addi	gp,gp,1365
    8000430c:	00c19193          	slli	gp,gp,0xc
    80004310:	55318193          	addi	gp,gp,1363
    80004314:	00c18463          	beq	gp,a2,8000431c <inst_270>
    80004318:	d0dfb06f          	j	80000024 <rvtest_error>

000000008000431c <inst_270>:
    8000431c:	00500513          	li	a0,5
    80004320:	aaaab5b7          	lui	a1,0xaaaab
    80004324:	aaa58593          	addi	a1,a1,-1366 # ffffffffaaaaaaaa <absimm+0xfffffffeefd9cfda>
    80004328:	00b59593          	slli	a1,a1,0xb
    8000432c:	55558593          	addi	a1,a1,1365
    80004330:	00b59593          	slli	a1,a1,0xb
    80004334:	2aa58593          	addi	a1,a1,682
    80004338:	00a59593          	slli	a1,a1,0xa
    8000433c:	2ab58593          	addi	a1,a1,683
    80004340:	00b54633          	xor	a2,a0,a1
    80004344:	76c0b823          	sd	a2,1904(ra)
    80004348:	faaab1b7          	lui	gp,0xfaaab
    8000434c:	aab1819b          	addiw	gp,gp,-1365 # fffffffffaaaaaab <absimm+0xffffffff3fd9cfdb>
    80004350:	00c19193          	slli	gp,gp,0xc
    80004354:	aab18193          	addi	gp,gp,-1365
    80004358:	00c19193          	slli	gp,gp,0xc
    8000435c:	aab18193          	addi	gp,gp,-1365
    80004360:	00c19193          	slli	gp,gp,0xc
    80004364:	aae18193          	addi	gp,gp,-1362
    80004368:	00c18463          	beq	gp,a2,80004370 <inst_271>
    8000436c:	cb9fb06f          	j	80000024 <rvtest_error>

0000000080004370 <inst_271>:
    80004370:	00500513          	li	a0,5
    80004374:	00600593          	li	a1,6
    80004378:	00b54633          	xor	a2,a0,a1
    8000437c:	76c0bc23          	sd	a2,1912(ra)
    80004380:	00300193          	li	gp,3
    80004384:	00c18463          	beq	gp,a2,8000438c <inst_272>
    80004388:	c9dfb06f          	j	80000024 <rvtest_error>

000000008000438c <inst_272>:
    8000438c:	00500513          	li	a0,5
    80004390:	333335b7          	lui	a1,0x33333
    80004394:	33358593          	addi	a1,a1,819 # 33333333 <absimmsh+0x27862586>
    80004398:	00b59593          	slli	a1,a1,0xb
    8000439c:	19958593          	addi	a1,a1,409
    800043a0:	00b59593          	slli	a1,a1,0xb
    800043a4:	4cc58593          	addi	a1,a1,1228
    800043a8:	00a59593          	slli	a1,a1,0xa
    800043ac:	33458593          	addi	a1,a1,820
    800043b0:	00b54633          	xor	a2,a0,a1
    800043b4:	78c0b023          	sd	a2,1920(ra)
    800043b8:	033331b7          	lui	gp,0x3333
    800043bc:	3331819b          	addiw	gp,gp,819 # 3333333 <offset+0x3332f1b>
    800043c0:	00c19193          	slli	gp,gp,0xc
    800043c4:	33318193          	addi	gp,gp,819
    800043c8:	00c19193          	slli	gp,gp,0xc
    800043cc:	33318193          	addi	gp,gp,819
    800043d0:	00c19193          	slli	gp,gp,0xc
    800043d4:	33118193          	addi	gp,gp,817
    800043d8:	00c18463          	beq	gp,a2,800043e0 <inst_273>
    800043dc:	c49fb06f          	j	80000024 <rvtest_error>

00000000800043e0 <inst_273>:
    800043e0:	00500513          	li	a0,5
    800043e4:	666665b7          	lui	a1,0x66666
    800043e8:	66658593          	addi	a1,a1,1638 # 66666666 <absimmsh+0x5ab958b9>
    800043ec:	00b59593          	slli	a1,a1,0xb
    800043f0:	33358593          	addi	a1,a1,819
    800043f4:	00b59593          	slli	a1,a1,0xb
    800043f8:	19958593          	addi	a1,a1,409
    800043fc:	00a59593          	slli	a1,a1,0xa
    80004400:	26758593          	addi	a1,a1,615
    80004404:	00b54633          	xor	a2,a0,a1
    80004408:	78c0b423          	sd	a2,1928(ra)
    8000440c:	033331b7          	lui	gp,0x3333
    80004410:	3331819b          	addiw	gp,gp,819 # 3333333 <offset+0x3332f1b>
    80004414:	00c19193          	slli	gp,gp,0xc
    80004418:	33318193          	addi	gp,gp,819
    8000441c:	00c19193          	slli	gp,gp,0xc
    80004420:	33318193          	addi	gp,gp,819
    80004424:	00d19193          	slli	gp,gp,0xd
    80004428:	66218193          	addi	gp,gp,1634
    8000442c:	00c18463          	beq	gp,a2,80004434 <inst_274>
    80004430:	bf5fb06f          	j	80000024 <rvtest_error>

0000000080004434 <inst_274>:
    80004434:	00500513          	li	a0,5
    80004438:	000005b7          	lui	a1,0x0
    8000443c:	fff58593          	addi	a1,a1,-1
    80004440:	00b59593          	slli	a1,a1,0xb
    80004444:	25758593          	addi	a1,a1,599
    80004448:	00b59593          	slli	a1,a1,0xb
    8000444c:	6c358593          	addi	a1,a1,1731
    80004450:	00a59593          	slli	a1,a1,0xa
    80004454:	0ce58593          	addi	a1,a1,206
    80004458:	00b54633          	xor	a2,a0,a1
    8000445c:	78c0b823          	sd	a2,1936(ra)
    80004460:	fff4b1b7          	lui	gp,0xfff4b
    80004464:	fb11819b          	addiw	gp,gp,-79 # fffffffffff4afb1 <absimm+0xffffffff4523d4e1>
    80004468:	00c19193          	slli	gp,gp,0xc
    8000446c:	ccb18193          	addi	gp,gp,-821
    80004470:	00c18463          	beq	gp,a2,80004478 <inst_275>
    80004474:	bb1fb06f          	j	80000024 <rvtest_error>

0000000080004478 <inst_275>:
    80004478:	00500513          	li	a0,5
    8000447c:	000005b7          	lui	a1,0x0
    80004480:	00058593          	mv	a1,a1
    80004484:	00b59593          	slli	a1,a1,0xb
    80004488:	5a858593          	addi	a1,a1,1448 # 5a8 <offset+0x190>
    8000448c:	00b59593          	slli	a1,a1,0xb
    80004490:	13c58593          	addi	a1,a1,316
    80004494:	00a59593          	slli	a1,a1,0xa
    80004498:	33458593          	addi	a1,a1,820
    8000449c:	00b54633          	xor	a2,a0,a1
    800044a0:	78c0bc23          	sd	a2,1944(ra)
    800044a4:	000b51b7          	lui	gp,0xb5
    800044a8:	04f1819b          	addiw	gp,gp,79 # b504f <offset+0xb4c37>
    800044ac:	00c19193          	slli	gp,gp,0xc
    800044b0:	33118193          	addi	gp,gp,817
    800044b4:	00c18463          	beq	gp,a2,800044bc <inst_276>
    800044b8:	b6dfb06f          	j	80000024 <rvtest_error>

00000000800044bc <inst_276>:
    800044bc:	33333537          	lui	a0,0x33333
    800044c0:	33350513          	addi	a0,a0,819 # 33333333 <absimmsh+0x27862586>
    800044c4:	00b51513          	slli	a0,a0,0xb
    800044c8:	19950513          	addi	a0,a0,409
    800044cc:	00b51513          	slli	a0,a0,0xb
    800044d0:	4cc50513          	addi	a0,a0,1228
    800044d4:	00a51513          	slli	a0,a0,0xa
    800044d8:	33350513          	addi	a0,a0,819
    800044dc:	00300593          	li	a1,3
    800044e0:	00b54633          	xor	a2,a0,a1
    800044e4:	7ac0b023          	sd	a2,1952(ra)
    800044e8:	033331b7          	lui	gp,0x3333
    800044ec:	3331819b          	addiw	gp,gp,819 # 3333333 <offset+0x3332f1b>
    800044f0:	00c19193          	slli	gp,gp,0xc
    800044f4:	33318193          	addi	gp,gp,819
    800044f8:	00c19193          	slli	gp,gp,0xc
    800044fc:	33318193          	addi	gp,gp,819
    80004500:	00c19193          	slli	gp,gp,0xc
    80004504:	33018193          	addi	gp,gp,816
    80004508:	00c18463          	beq	gp,a2,80004510 <inst_277>
    8000450c:	b19fb06f          	j	80000024 <rvtest_error>

0000000080004510 <inst_277>:
    80004510:	33333537          	lui	a0,0x33333
    80004514:	33350513          	addi	a0,a0,819 # 33333333 <absimmsh+0x27862586>
    80004518:	00b51513          	slli	a0,a0,0xb
    8000451c:	19950513          	addi	a0,a0,409
    80004520:	00b51513          	slli	a0,a0,0xb
    80004524:	4cc50513          	addi	a0,a0,1228
    80004528:	00a51513          	slli	a0,a0,0xa
    8000452c:	33350513          	addi	a0,a0,819
    80004530:	555555b7          	lui	a1,0x55555
    80004534:	55558593          	addi	a1,a1,1365 # 55555555 <absimmsh+0x49a847a8>
    80004538:	00b59593          	slli	a1,a1,0xb
    8000453c:	2aa58593          	addi	a1,a1,682
    80004540:	00b59593          	slli	a1,a1,0xb
    80004544:	55558593          	addi	a1,a1,1365
    80004548:	00a59593          	slli	a1,a1,0xa
    8000454c:	15558593          	addi	a1,a1,341
    80004550:	00b54633          	xor	a2,a0,a1
    80004554:	7ac0b423          	sd	a2,1960(ra)
    80004558:	033331b7          	lui	gp,0x3333
    8000455c:	3331819b          	addiw	gp,gp,819 # 3333333 <offset+0x3332f1b>
    80004560:	00c19193          	slli	gp,gp,0xc
    80004564:	33318193          	addi	gp,gp,819
    80004568:	00c19193          	slli	gp,gp,0xc
    8000456c:	33318193          	addi	gp,gp,819
    80004570:	00d19193          	slli	gp,gp,0xd
    80004574:	66618193          	addi	gp,gp,1638
    80004578:	00c18463          	beq	gp,a2,80004580 <inst_278>
    8000457c:	aa9fb06f          	j	80000024 <rvtest_error>

0000000080004580 <inst_278>:
    80004580:	33333537          	lui	a0,0x33333
    80004584:	33350513          	addi	a0,a0,819 # 33333333 <absimmsh+0x27862586>
    80004588:	00b51513          	slli	a0,a0,0xb
    8000458c:	19950513          	addi	a0,a0,409
    80004590:	00b51513          	slli	a0,a0,0xb
    80004594:	4cc50513          	addi	a0,a0,1228
    80004598:	00a51513          	slli	a0,a0,0xa
    8000459c:	33350513          	addi	a0,a0,819
    800045a0:	aaaab5b7          	lui	a1,0xaaaab
    800045a4:	aaa58593          	addi	a1,a1,-1366 # ffffffffaaaaaaaa <absimm+0xfffffffeefd9cfda>
    800045a8:	00b59593          	slli	a1,a1,0xb
    800045ac:	55558593          	addi	a1,a1,1365
    800045b0:	00b59593          	slli	a1,a1,0xb
    800045b4:	2aa58593          	addi	a1,a1,682
    800045b8:	00a59593          	slli	a1,a1,0xa
    800045bc:	2aa58593          	addi	a1,a1,682
    800045c0:	00b54633          	xor	a2,a0,a1
    800045c4:	7ac0b823          	sd	a2,1968(ra)
    800045c8:	fcccd1b7          	lui	gp,0xfcccd
    800045cc:	ccd1819b          	addiw	gp,gp,-819 # fffffffffccccccd <absimm+0xffffffff41fbf1fd>
    800045d0:	00c19193          	slli	gp,gp,0xc
    800045d4:	ccd18193          	addi	gp,gp,-819
    800045d8:	00c19193          	slli	gp,gp,0xc
    800045dc:	ccd18193          	addi	gp,gp,-819
    800045e0:	00d19193          	slli	gp,gp,0xd
    800045e4:	99918193          	addi	gp,gp,-1639
    800045e8:	00c18463          	beq	gp,a2,800045f0 <inst_279>
    800045ec:	a39fb06f          	j	80000024 <rvtest_error>

00000000800045f0 <inst_279>:
    800045f0:	33333537          	lui	a0,0x33333
    800045f4:	33350513          	addi	a0,a0,819 # 33333333 <absimmsh+0x27862586>
    800045f8:	00b51513          	slli	a0,a0,0xb
    800045fc:	19950513          	addi	a0,a0,409
    80004600:	00b51513          	slli	a0,a0,0xb
    80004604:	4cc50513          	addi	a0,a0,1228
    80004608:	00a51513          	slli	a0,a0,0xa
    8000460c:	33350513          	addi	a0,a0,819
    80004610:	00500593          	li	a1,5
    80004614:	00b54633          	xor	a2,a0,a1
    80004618:	7ac0bc23          	sd	a2,1976(ra)
    8000461c:	033331b7          	lui	gp,0x3333
    80004620:	3331819b          	addiw	gp,gp,819 # 3333333 <offset+0x3332f1b>
    80004624:	00c19193          	slli	gp,gp,0xc
    80004628:	33318193          	addi	gp,gp,819
    8000462c:	00c19193          	slli	gp,gp,0xc
    80004630:	33318193          	addi	gp,gp,819
    80004634:	00c19193          	slli	gp,gp,0xc
    80004638:	33618193          	addi	gp,gp,822
    8000463c:	00c18463          	beq	gp,a2,80004644 <inst_280>
    80004640:	9e5fb06f          	j	80000024 <rvtest_error>

0000000080004644 <inst_280>:
    80004644:	33333537          	lui	a0,0x33333
    80004648:	33350513          	addi	a0,a0,819 # 33333333 <absimmsh+0x27862586>
    8000464c:	00b51513          	slli	a0,a0,0xb
    80004650:	19950513          	addi	a0,a0,409
    80004654:	00b51513          	slli	a0,a0,0xb
    80004658:	4cc50513          	addi	a0,a0,1228
    8000465c:	00a51513          	slli	a0,a0,0xa
    80004660:	33350513          	addi	a0,a0,819
    80004664:	333335b7          	lui	a1,0x33333
    80004668:	33358593          	addi	a1,a1,819 # 33333333 <absimmsh+0x27862586>
    8000466c:	00b59593          	slli	a1,a1,0xb
    80004670:	19958593          	addi	a1,a1,409
    80004674:	00b59593          	slli	a1,a1,0xb
    80004678:	4cc58593          	addi	a1,a1,1228
    8000467c:	00a59593          	slli	a1,a1,0xa
    80004680:	33358593          	addi	a1,a1,819
    80004684:	00b54633          	xor	a2,a0,a1
    80004688:	7cc0b023          	sd	a2,1984(ra)
    8000468c:	00000193          	li	gp,0
    80004690:	00c18463          	beq	gp,a2,80004698 <inst_281>
    80004694:	991fb06f          	j	80000024 <rvtest_error>

0000000080004698 <inst_281>:
    80004698:	33333537          	lui	a0,0x33333
    8000469c:	33350513          	addi	a0,a0,819 # 33333333 <absimmsh+0x27862586>
    800046a0:	00b51513          	slli	a0,a0,0xb
    800046a4:	19950513          	addi	a0,a0,409
    800046a8:	00b51513          	slli	a0,a0,0xb
    800046ac:	4cc50513          	addi	a0,a0,1228
    800046b0:	00a51513          	slli	a0,a0,0xa
    800046b4:	33350513          	addi	a0,a0,819
    800046b8:	666665b7          	lui	a1,0x66666
    800046bc:	66658593          	addi	a1,a1,1638 # 66666666 <absimmsh+0x5ab958b9>
    800046c0:	00b59593          	slli	a1,a1,0xb
    800046c4:	33358593          	addi	a1,a1,819
    800046c8:	00b59593          	slli	a1,a1,0xb
    800046cc:	19958593          	addi	a1,a1,409
    800046d0:	00a59593          	slli	a1,a1,0xa
    800046d4:	26658593          	addi	a1,a1,614
    800046d8:	00b54633          	xor	a2,a0,a1
    800046dc:	7cc0b423          	sd	a2,1992(ra)
    800046e0:	055551b7          	lui	gp,0x5555
    800046e4:	5551819b          	addiw	gp,gp,1365 # 5555555 <offset+0x555513d>
    800046e8:	00c19193          	slli	gp,gp,0xc
    800046ec:	55518193          	addi	gp,gp,1365
    800046f0:	00c19193          	slli	gp,gp,0xc
    800046f4:	55518193          	addi	gp,gp,1365
    800046f8:	00c19193          	slli	gp,gp,0xc
    800046fc:	55518193          	addi	gp,gp,1365
    80004700:	00c18463          	beq	gp,a2,80004708 <inst_282>
    80004704:	921fb06f          	j	80000024 <rvtest_error>

0000000080004708 <inst_282>:
    80004708:	33333537          	lui	a0,0x33333
    8000470c:	33350513          	addi	a0,a0,819 # 33333333 <absimmsh+0x27862586>
    80004710:	00b51513          	slli	a0,a0,0xb
    80004714:	19950513          	addi	a0,a0,409
    80004718:	00b51513          	slli	a0,a0,0xb
    8000471c:	4cc50513          	addi	a0,a0,1228
    80004720:	00a51513          	slli	a0,a0,0xa
    80004724:	33350513          	addi	a0,a0,819
    80004728:	000005b7          	lui	a1,0x0
    8000472c:	fff58593          	addi	a1,a1,-1
    80004730:	00b59593          	slli	a1,a1,0xb
    80004734:	25758593          	addi	a1,a1,599
    80004738:	00b59593          	slli	a1,a1,0xb
    8000473c:	6c358593          	addi	a1,a1,1731
    80004740:	00a59593          	slli	a1,a1,0xa
    80004744:	0cd58593          	addi	a1,a1,205
    80004748:	00b54633          	xor	a2,a0,a1
    8000474c:	7cc0b823          	sd	a2,2000(ra)
    80004750:	ffccd1b7          	lui	gp,0xffccd
    80004754:	ccd1819b          	addiw	gp,gp,-819 # ffffffffffcccccd <absimm+0xffffffff44fbf1fd>
    80004758:	00d19193          	slli	gp,gp,0xd
    8000475c:	98f18193          	addi	gp,gp,-1649
    80004760:	00d19193          	slli	gp,gp,0xd
    80004764:	72118193          	addi	gp,gp,1825
    80004768:	00e19193          	slli	gp,gp,0xe
    8000476c:	ffe18193          	addi	gp,gp,-2
    80004770:	00c18463          	beq	gp,a2,80004778 <inst_283>
    80004774:	8b1fb06f          	j	80000024 <rvtest_error>

0000000080004778 <inst_283>:
    80004778:	33333537          	lui	a0,0x33333
    8000477c:	33350513          	addi	a0,a0,819 # 33333333 <absimmsh+0x27862586>
    80004780:	00b51513          	slli	a0,a0,0xb
    80004784:	19950513          	addi	a0,a0,409
    80004788:	00b51513          	slli	a0,a0,0xb
    8000478c:	4cc50513          	addi	a0,a0,1228
    80004790:	00a51513          	slli	a0,a0,0xa
    80004794:	33350513          	addi	a0,a0,819
    80004798:	000005b7          	lui	a1,0x0
    8000479c:	00058593          	mv	a1,a1
    800047a0:	00b59593          	slli	a1,a1,0xb
    800047a4:	5a858593          	addi	a1,a1,1448 # 5a8 <offset+0x190>
    800047a8:	00b59593          	slli	a1,a1,0xb
    800047ac:	13c58593          	addi	a1,a1,316
    800047b0:	00a59593          	slli	a1,a1,0xa
    800047b4:	33358593          	addi	a1,a1,819
    800047b8:	00b54633          	xor	a2,a0,a1
    800047bc:	7cc0bc23          	sd	a2,2008(ra)
    800047c0:	003331b7          	lui	gp,0x333
    800047c4:	3331819b          	addiw	gp,gp,819 # 333333 <offset+0x332f1b>
    800047c8:	00d19193          	slli	gp,gp,0xd
    800047cc:	67118193          	addi	gp,gp,1649
    800047d0:	00d19193          	slli	gp,gp,0xd
    800047d4:	8df18193          	addi	gp,gp,-1825
    800047d8:	00e19193          	slli	gp,gp,0xe
    800047dc:	00c18463          	beq	gp,a2,800047e4 <inst_284>
    800047e0:	845fb06f          	j	80000024 <rvtest_error>

00000000800047e4 <inst_284>:
    800047e4:	33333537          	lui	a0,0x33333
    800047e8:	33350513          	addi	a0,a0,819 # 33333333 <absimmsh+0x27862586>
    800047ec:	00b51513          	slli	a0,a0,0xb
    800047f0:	19950513          	addi	a0,a0,409
    800047f4:	00b51513          	slli	a0,a0,0xb
    800047f8:	4cc50513          	addi	a0,a0,1228
    800047fc:	00a51513          	slli	a0,a0,0xa
    80004800:	33350513          	addi	a0,a0,819
    80004804:	00200593          	li	a1,2
    80004808:	00b54633          	xor	a2,a0,a1
    8000480c:	7ec0b023          	sd	a2,2016(ra)
    80004810:	033331b7          	lui	gp,0x3333
    80004814:	3331819b          	addiw	gp,gp,819 # 3333333 <offset+0x3332f1b>
    80004818:	00c19193          	slli	gp,gp,0xc
    8000481c:	33318193          	addi	gp,gp,819
    80004820:	00c19193          	slli	gp,gp,0xc
    80004824:	33318193          	addi	gp,gp,819
    80004828:	00c19193          	slli	gp,gp,0xc
    8000482c:	33118193          	addi	gp,gp,817
    80004830:	00c18463          	beq	gp,a2,80004838 <inst_285>
    80004834:	ff0fb06f          	j	80000024 <rvtest_error>

0000000080004838 <inst_285>:
    80004838:	33333537          	lui	a0,0x33333
    8000483c:	33350513          	addi	a0,a0,819 # 33333333 <absimmsh+0x27862586>
    80004840:	00b51513          	slli	a0,a0,0xb
    80004844:	19950513          	addi	a0,a0,409
    80004848:	00b51513          	slli	a0,a0,0xb
    8000484c:	4cc50513          	addi	a0,a0,1228
    80004850:	00a51513          	slli	a0,a0,0xa
    80004854:	33350513          	addi	a0,a0,819
    80004858:	555555b7          	lui	a1,0x55555
    8000485c:	55558593          	addi	a1,a1,1365 # 55555555 <absimmsh+0x49a847a8>
    80004860:	00b59593          	slli	a1,a1,0xb
    80004864:	2aa58593          	addi	a1,a1,682
    80004868:	00b59593          	slli	a1,a1,0xb
    8000486c:	55558593          	addi	a1,a1,1365
    80004870:	00a59593          	slli	a1,a1,0xa
    80004874:	15458593          	addi	a1,a1,340
    80004878:	00b54633          	xor	a2,a0,a1
    8000487c:	7ec0b423          	sd	a2,2024(ra)
    80004880:	033331b7          	lui	gp,0x3333
    80004884:	3331819b          	addiw	gp,gp,819 # 3333333 <offset+0x3332f1b>
    80004888:	00c19193          	slli	gp,gp,0xc
    8000488c:	33318193          	addi	gp,gp,819
    80004890:	00c19193          	slli	gp,gp,0xc
    80004894:	33318193          	addi	gp,gp,819
    80004898:	00d19193          	slli	gp,gp,0xd
    8000489c:	66718193          	addi	gp,gp,1639
    800048a0:	00c18463          	beq	gp,a2,800048a8 <inst_286>
    800048a4:	f80fb06f          	j	80000024 <rvtest_error>

00000000800048a8 <inst_286>:
    800048a8:	33333537          	lui	a0,0x33333
    800048ac:	33350513          	addi	a0,a0,819 # 33333333 <absimmsh+0x27862586>
    800048b0:	00b51513          	slli	a0,a0,0xb
    800048b4:	19950513          	addi	a0,a0,409
    800048b8:	00b51513          	slli	a0,a0,0xb
    800048bc:	4cc50513          	addi	a0,a0,1228
    800048c0:	00a51513          	slli	a0,a0,0xa
    800048c4:	33350513          	addi	a0,a0,819
    800048c8:	00000593          	li	a1,0
    800048cc:	00b54633          	xor	a2,a0,a1
    800048d0:	7ec0b823          	sd	a2,2032(ra)
    800048d4:	033331b7          	lui	gp,0x3333
    800048d8:	3331819b          	addiw	gp,gp,819 # 3333333 <offset+0x3332f1b>
    800048dc:	00c19193          	slli	gp,gp,0xc
    800048e0:	33318193          	addi	gp,gp,819
    800048e4:	00c19193          	slli	gp,gp,0xc
    800048e8:	33318193          	addi	gp,gp,819
    800048ec:	00c19193          	slli	gp,gp,0xc
    800048f0:	33318193          	addi	gp,gp,819
    800048f4:	00c18463          	beq	gp,a2,800048fc <inst_287>
    800048f8:	f2cfb06f          	j	80000024 <rvtest_error>

00000000800048fc <inst_287>:
    800048fc:	33333537          	lui	a0,0x33333
    80004900:	33350513          	addi	a0,a0,819 # 33333333 <absimmsh+0x27862586>
    80004904:	00b51513          	slli	a0,a0,0xb
    80004908:	19950513          	addi	a0,a0,409
    8000490c:	00b51513          	slli	a0,a0,0xb
    80004910:	4cc50513          	addi	a0,a0,1228
    80004914:	00a51513          	slli	a0,a0,0xa
    80004918:	33350513          	addi	a0,a0,819
    8000491c:	00400593          	li	a1,4
    80004920:	00b54633          	xor	a2,a0,a1
    80004924:	7ec0bc23          	sd	a2,2040(ra)
    80004928:	033331b7          	lui	gp,0x3333
    8000492c:	3331819b          	addiw	gp,gp,819 # 3333333 <offset+0x3332f1b>
    80004930:	00c19193          	slli	gp,gp,0xc
    80004934:	33318193          	addi	gp,gp,819
    80004938:	00c19193          	slli	gp,gp,0xc
    8000493c:	33318193          	addi	gp,gp,819
    80004940:	00c19193          	slli	gp,gp,0xc
    80004944:	33718193          	addi	gp,gp,823
    80004948:	00c18463          	beq	gp,a2,80004950 <inst_287+0x54>
    8000494c:	ed8fb06f          	j	80000024 <rvtest_error>
    80004950:	00000013          	nop
    80004954:	00000013          	nop
    80004958:	00000013          	nop
    8000495c:	00000013          	nop
    80004960:	0000b097          	auipc	ra,0xb
    80004964:	fa808093          	addi	ra,ra,-88 # 8000f908 <signature_x1_1>
    80004968:	00000013          	nop
    8000496c:	00000013          	nop
    80004970:	00000013          	nop
    80004974:	00000013          	nop
    80004978:	00000013          	nop
    8000497c:	00000013          	nop

0000000080004980 <inst_288>:
    80004980:	33333537          	lui	a0,0x33333
    80004984:	33350513          	addi	a0,a0,819 # 33333333 <absimmsh+0x27862586>
    80004988:	00b51513          	slli	a0,a0,0xb
    8000498c:	19950513          	addi	a0,a0,409
    80004990:	00b51513          	slli	a0,a0,0xb
    80004994:	4cc50513          	addi	a0,a0,1228
    80004998:	00a51513          	slli	a0,a0,0xa
    8000499c:	33350513          	addi	a0,a0,819
    800049a0:	333335b7          	lui	a1,0x33333
    800049a4:	33358593          	addi	a1,a1,819 # 33333333 <absimmsh+0x27862586>
    800049a8:	00b59593          	slli	a1,a1,0xb
    800049ac:	19958593          	addi	a1,a1,409
    800049b0:	00b59593          	slli	a1,a1,0xb
    800049b4:	4cc58593          	addi	a1,a1,1228
    800049b8:	00a59593          	slli	a1,a1,0xa
    800049bc:	33258593          	addi	a1,a1,818
    800049c0:	00b54633          	xor	a2,a0,a1
    800049c4:	00c0b023          	sd	a2,0(ra)
    800049c8:	00100193          	li	gp,1
    800049cc:	00c18463          	beq	gp,a2,800049d4 <inst_289>
    800049d0:	e54fb06f          	j	80000024 <rvtest_error>

00000000800049d4 <inst_289>:
    800049d4:	33333537          	lui	a0,0x33333
    800049d8:	33350513          	addi	a0,a0,819 # 33333333 <absimmsh+0x27862586>
    800049dc:	00b51513          	slli	a0,a0,0xb
    800049e0:	19950513          	addi	a0,a0,409
    800049e4:	00b51513          	slli	a0,a0,0xb
    800049e8:	4cc50513          	addi	a0,a0,1228
    800049ec:	00a51513          	slli	a0,a0,0xa
    800049f0:	33350513          	addi	a0,a0,819
    800049f4:	666665b7          	lui	a1,0x66666
    800049f8:	66658593          	addi	a1,a1,1638 # 66666666 <absimmsh+0x5ab958b9>
    800049fc:	00b59593          	slli	a1,a1,0xb
    80004a00:	33358593          	addi	a1,a1,819
    80004a04:	00b59593          	slli	a1,a1,0xb
    80004a08:	19958593          	addi	a1,a1,409
    80004a0c:	00a59593          	slli	a1,a1,0xa
    80004a10:	26558593          	addi	a1,a1,613
    80004a14:	00b54633          	xor	a2,a0,a1
    80004a18:	00c0b423          	sd	a2,8(ra)
    80004a1c:	055551b7          	lui	gp,0x5555
    80004a20:	5551819b          	addiw	gp,gp,1365 # 5555555 <offset+0x555513d>
    80004a24:	00c19193          	slli	gp,gp,0xc
    80004a28:	55518193          	addi	gp,gp,1365
    80004a2c:	00c19193          	slli	gp,gp,0xc
    80004a30:	55518193          	addi	gp,gp,1365
    80004a34:	00c19193          	slli	gp,gp,0xc
    80004a38:	55618193          	addi	gp,gp,1366
    80004a3c:	00c18463          	beq	gp,a2,80004a44 <inst_290>
    80004a40:	de4fb06f          	j	80000024 <rvtest_error>

0000000080004a44 <inst_290>:
    80004a44:	33333537          	lui	a0,0x33333
    80004a48:	33350513          	addi	a0,a0,819 # 33333333 <absimmsh+0x27862586>
    80004a4c:	00b51513          	slli	a0,a0,0xb
    80004a50:	19950513          	addi	a0,a0,409
    80004a54:	00b51513          	slli	a0,a0,0xb
    80004a58:	4cc50513          	addi	a0,a0,1228
    80004a5c:	00a51513          	slli	a0,a0,0xa
    80004a60:	33350513          	addi	a0,a0,819
    80004a64:	000005b7          	lui	a1,0x0
    80004a68:	00058593          	mv	a1,a1
    80004a6c:	00b59593          	slli	a1,a1,0xb
    80004a70:	5a858593          	addi	a1,a1,1448 # 5a8 <offset+0x190>
    80004a74:	00b59593          	slli	a1,a1,0xb
    80004a78:	13c58593          	addi	a1,a1,316
    80004a7c:	00a59593          	slli	a1,a1,0xa
    80004a80:	33258593          	addi	a1,a1,818
    80004a84:	00b54633          	xor	a2,a0,a1
    80004a88:	00c0b823          	sd	a2,16(ra)
    80004a8c:	003331b7          	lui	gp,0x333
    80004a90:	3331819b          	addiw	gp,gp,819 # 333333 <offset+0x332f1b>
    80004a94:	00d19193          	slli	gp,gp,0xd
    80004a98:	67118193          	addi	gp,gp,1649
    80004a9c:	00d19193          	slli	gp,gp,0xd
    80004aa0:	8df18193          	addi	gp,gp,-1825
    80004aa4:	00e19193          	slli	gp,gp,0xe
    80004aa8:	00118193          	addi	gp,gp,1
    80004aac:	00c18463          	beq	gp,a2,80004ab4 <inst_291>
    80004ab0:	d74fb06f          	j	80000024 <rvtest_error>

0000000080004ab4 <inst_291>:
    80004ab4:	33333537          	lui	a0,0x33333
    80004ab8:	33350513          	addi	a0,a0,819 # 33333333 <absimmsh+0x27862586>
    80004abc:	00b51513          	slli	a0,a0,0xb
    80004ac0:	19950513          	addi	a0,a0,409
    80004ac4:	00b51513          	slli	a0,a0,0xb
    80004ac8:	4cc50513          	addi	a0,a0,1228
    80004acc:	00a51513          	slli	a0,a0,0xa
    80004ad0:	33350513          	addi	a0,a0,819
    80004ad4:	555555b7          	lui	a1,0x55555
    80004ad8:	55558593          	addi	a1,a1,1365 # 55555555 <absimmsh+0x49a847a8>
    80004adc:	00b59593          	slli	a1,a1,0xb
    80004ae0:	2aa58593          	addi	a1,a1,682
    80004ae4:	00b59593          	slli	a1,a1,0xb
    80004ae8:	55558593          	addi	a1,a1,1365
    80004aec:	00a59593          	slli	a1,a1,0xa
    80004af0:	15658593          	addi	a1,a1,342
    80004af4:	00b54633          	xor	a2,a0,a1
    80004af8:	00c0bc23          	sd	a2,24(ra)
    80004afc:	033331b7          	lui	gp,0x3333
    80004b00:	3331819b          	addiw	gp,gp,819 # 3333333 <offset+0x3332f1b>
    80004b04:	00c19193          	slli	gp,gp,0xc
    80004b08:	33318193          	addi	gp,gp,819
    80004b0c:	00c19193          	slli	gp,gp,0xc
    80004b10:	33318193          	addi	gp,gp,819
    80004b14:	00d19193          	slli	gp,gp,0xd
    80004b18:	66518193          	addi	gp,gp,1637
    80004b1c:	00c18463          	beq	gp,a2,80004b24 <inst_292>
    80004b20:	d04fb06f          	j	80000024 <rvtest_error>

0000000080004b24 <inst_292>:
    80004b24:	33333537          	lui	a0,0x33333
    80004b28:	33350513          	addi	a0,a0,819 # 33333333 <absimmsh+0x27862586>
    80004b2c:	00b51513          	slli	a0,a0,0xb
    80004b30:	19950513          	addi	a0,a0,409
    80004b34:	00b51513          	slli	a0,a0,0xb
    80004b38:	4cc50513          	addi	a0,a0,1228
    80004b3c:	00a51513          	slli	a0,a0,0xa
    80004b40:	33350513          	addi	a0,a0,819
    80004b44:	aaaab5b7          	lui	a1,0xaaaab
    80004b48:	aaa58593          	addi	a1,a1,-1366 # ffffffffaaaaaaaa <absimm+0xfffffffeefd9cfda>
    80004b4c:	00b59593          	slli	a1,a1,0xb
    80004b50:	55558593          	addi	a1,a1,1365
    80004b54:	00b59593          	slli	a1,a1,0xb
    80004b58:	2aa58593          	addi	a1,a1,682
    80004b5c:	00a59593          	slli	a1,a1,0xa
    80004b60:	2ab58593          	addi	a1,a1,683
    80004b64:	00b54633          	xor	a2,a0,a1
    80004b68:	02c0b023          	sd	a2,32(ra)
    80004b6c:	fcccd1b7          	lui	gp,0xfcccd
    80004b70:	ccd1819b          	addiw	gp,gp,-819 # fffffffffccccccd <absimm+0xffffffff41fbf1fd>
    80004b74:	00c19193          	slli	gp,gp,0xc
    80004b78:	ccd18193          	addi	gp,gp,-819
    80004b7c:	00c19193          	slli	gp,gp,0xc
    80004b80:	ccd18193          	addi	gp,gp,-819
    80004b84:	00d19193          	slli	gp,gp,0xd
    80004b88:	99818193          	addi	gp,gp,-1640
    80004b8c:	00c18463          	beq	gp,a2,80004b94 <inst_293>
    80004b90:	c94fb06f          	j	80000024 <rvtest_error>

0000000080004b94 <inst_293>:
    80004b94:	33333537          	lui	a0,0x33333
    80004b98:	33350513          	addi	a0,a0,819 # 33333333 <absimmsh+0x27862586>
    80004b9c:	00b51513          	slli	a0,a0,0xb
    80004ba0:	19950513          	addi	a0,a0,409
    80004ba4:	00b51513          	slli	a0,a0,0xb
    80004ba8:	4cc50513          	addi	a0,a0,1228
    80004bac:	00a51513          	slli	a0,a0,0xa
    80004bb0:	33350513          	addi	a0,a0,819
    80004bb4:	00600593          	li	a1,6
    80004bb8:	00b54633          	xor	a2,a0,a1
    80004bbc:	02c0b423          	sd	a2,40(ra)
    80004bc0:	033331b7          	lui	gp,0x3333
    80004bc4:	3331819b          	addiw	gp,gp,819 # 3333333 <offset+0x3332f1b>
    80004bc8:	00c19193          	slli	gp,gp,0xc
    80004bcc:	33318193          	addi	gp,gp,819
    80004bd0:	00c19193          	slli	gp,gp,0xc
    80004bd4:	33318193          	addi	gp,gp,819
    80004bd8:	00c19193          	slli	gp,gp,0xc
    80004bdc:	33518193          	addi	gp,gp,821
    80004be0:	00c18463          	beq	gp,a2,80004be8 <inst_294>
    80004be4:	c40fb06f          	j	80000024 <rvtest_error>

0000000080004be8 <inst_294>:
    80004be8:	33333537          	lui	a0,0x33333
    80004bec:	33350513          	addi	a0,a0,819 # 33333333 <absimmsh+0x27862586>
    80004bf0:	00b51513          	slli	a0,a0,0xb
    80004bf4:	19950513          	addi	a0,a0,409
    80004bf8:	00b51513          	slli	a0,a0,0xb
    80004bfc:	4cc50513          	addi	a0,a0,1228
    80004c00:	00a51513          	slli	a0,a0,0xa
    80004c04:	33350513          	addi	a0,a0,819
    80004c08:	333335b7          	lui	a1,0x33333
    80004c0c:	33358593          	addi	a1,a1,819 # 33333333 <absimmsh+0x27862586>
    80004c10:	00b59593          	slli	a1,a1,0xb
    80004c14:	19958593          	addi	a1,a1,409
    80004c18:	00b59593          	slli	a1,a1,0xb
    80004c1c:	4cc58593          	addi	a1,a1,1228
    80004c20:	00a59593          	slli	a1,a1,0xa
    80004c24:	33458593          	addi	a1,a1,820
    80004c28:	00b54633          	xor	a2,a0,a1
    80004c2c:	02c0b823          	sd	a2,48(ra)
    80004c30:	00700193          	li	gp,7
    80004c34:	00c18463          	beq	gp,a2,80004c3c <inst_295>
    80004c38:	becfb06f          	j	80000024 <rvtest_error>

0000000080004c3c <inst_295>:
    80004c3c:	33333537          	lui	a0,0x33333
    80004c40:	33350513          	addi	a0,a0,819 # 33333333 <absimmsh+0x27862586>
    80004c44:	00b51513          	slli	a0,a0,0xb
    80004c48:	19950513          	addi	a0,a0,409
    80004c4c:	00b51513          	slli	a0,a0,0xb
    80004c50:	4cc50513          	addi	a0,a0,1228
    80004c54:	00a51513          	slli	a0,a0,0xa
    80004c58:	33350513          	addi	a0,a0,819
    80004c5c:	666665b7          	lui	a1,0x66666
    80004c60:	66658593          	addi	a1,a1,1638 # 66666666 <absimmsh+0x5ab958b9>
    80004c64:	00b59593          	slli	a1,a1,0xb
    80004c68:	33358593          	addi	a1,a1,819
    80004c6c:	00b59593          	slli	a1,a1,0xb
    80004c70:	19958593          	addi	a1,a1,409
    80004c74:	00a59593          	slli	a1,a1,0xa
    80004c78:	26758593          	addi	a1,a1,615
    80004c7c:	00b54633          	xor	a2,a0,a1
    80004c80:	02c0bc23          	sd	a2,56(ra)
    80004c84:	055551b7          	lui	gp,0x5555
    80004c88:	5551819b          	addiw	gp,gp,1365 # 5555555 <offset+0x555513d>
    80004c8c:	00c19193          	slli	gp,gp,0xc
    80004c90:	55518193          	addi	gp,gp,1365
    80004c94:	00c19193          	slli	gp,gp,0xc
    80004c98:	55518193          	addi	gp,gp,1365
    80004c9c:	00c19193          	slli	gp,gp,0xc
    80004ca0:	55418193          	addi	gp,gp,1364
    80004ca4:	00c18463          	beq	gp,a2,80004cac <inst_296>
    80004ca8:	b7cfb06f          	j	80000024 <rvtest_error>

0000000080004cac <inst_296>:
    80004cac:	33333537          	lui	a0,0x33333
    80004cb0:	33350513          	addi	a0,a0,819 # 33333333 <absimmsh+0x27862586>
    80004cb4:	00b51513          	slli	a0,a0,0xb
    80004cb8:	19950513          	addi	a0,a0,409
    80004cbc:	00b51513          	slli	a0,a0,0xb
    80004cc0:	4cc50513          	addi	a0,a0,1228
    80004cc4:	00a51513          	slli	a0,a0,0xa
    80004cc8:	33350513          	addi	a0,a0,819
    80004ccc:	000005b7          	lui	a1,0x0
    80004cd0:	fff58593          	addi	a1,a1,-1
    80004cd4:	00b59593          	slli	a1,a1,0xb
    80004cd8:	25758593          	addi	a1,a1,599
    80004cdc:	00b59593          	slli	a1,a1,0xb
    80004ce0:	6c358593          	addi	a1,a1,1731
    80004ce4:	00a59593          	slli	a1,a1,0xa
    80004ce8:	0ce58593          	addi	a1,a1,206
    80004cec:	00b54633          	xor	a2,a0,a1
    80004cf0:	04c0b023          	sd	a2,64(ra)
    80004cf4:	ffccd1b7          	lui	gp,0xffccd
    80004cf8:	ccd1819b          	addiw	gp,gp,-819 # ffffffffffcccccd <absimm+0xffffffff44fbf1fd>
    80004cfc:	00d19193          	slli	gp,gp,0xd
    80004d00:	98f18193          	addi	gp,gp,-1649
    80004d04:	00d19193          	slli	gp,gp,0xd
    80004d08:	72118193          	addi	gp,gp,1825
    80004d0c:	00e19193          	slli	gp,gp,0xe
    80004d10:	ffd18193          	addi	gp,gp,-3
    80004d14:	00c18463          	beq	gp,a2,80004d1c <inst_297>
    80004d18:	b0cfb06f          	j	80000024 <rvtest_error>

0000000080004d1c <inst_297>:
    80004d1c:	33333537          	lui	a0,0x33333
    80004d20:	33350513          	addi	a0,a0,819 # 33333333 <absimmsh+0x27862586>
    80004d24:	00b51513          	slli	a0,a0,0xb
    80004d28:	19950513          	addi	a0,a0,409
    80004d2c:	00b51513          	slli	a0,a0,0xb
    80004d30:	4cc50513          	addi	a0,a0,1228
    80004d34:	00a51513          	slli	a0,a0,0xa
    80004d38:	33350513          	addi	a0,a0,819
    80004d3c:	000005b7          	lui	a1,0x0
    80004d40:	00058593          	mv	a1,a1
    80004d44:	00b59593          	slli	a1,a1,0xb
    80004d48:	5a858593          	addi	a1,a1,1448 # 5a8 <offset+0x190>
    80004d4c:	00b59593          	slli	a1,a1,0xb
    80004d50:	13c58593          	addi	a1,a1,316
    80004d54:	00a59593          	slli	a1,a1,0xa
    80004d58:	33458593          	addi	a1,a1,820
    80004d5c:	00b54633          	xor	a2,a0,a1
    80004d60:	04c0b423          	sd	a2,72(ra)
    80004d64:	003331b7          	lui	gp,0x333
    80004d68:	3331819b          	addiw	gp,gp,819 # 333333 <offset+0x332f1b>
    80004d6c:	00d19193          	slli	gp,gp,0xd
    80004d70:	67118193          	addi	gp,gp,1649
    80004d74:	00d19193          	slli	gp,gp,0xd
    80004d78:	8df18193          	addi	gp,gp,-1825
    80004d7c:	00e19193          	slli	gp,gp,0xe
    80004d80:	00718193          	addi	gp,gp,7
    80004d84:	00c18463          	beq	gp,a2,80004d8c <inst_298>
    80004d88:	a9cfb06f          	j	80000024 <rvtest_error>

0000000080004d8c <inst_298>:
    80004d8c:	66666537          	lui	a0,0x66666
    80004d90:	66650513          	addi	a0,a0,1638 # 66666666 <absimmsh+0x5ab958b9>
    80004d94:	00b51513          	slli	a0,a0,0xb
    80004d98:	33350513          	addi	a0,a0,819
    80004d9c:	00b51513          	slli	a0,a0,0xb
    80004da0:	19950513          	addi	a0,a0,409
    80004da4:	00a51513          	slli	a0,a0,0xa
    80004da8:	26650513          	addi	a0,a0,614
    80004dac:	00300593          	li	a1,3
    80004db0:	00b54633          	xor	a2,a0,a1
    80004db4:	04c0b823          	sd	a2,80(ra)
    80004db8:	033331b7          	lui	gp,0x3333
    80004dbc:	3331819b          	addiw	gp,gp,819 # 3333333 <offset+0x3332f1b>
    80004dc0:	00c19193          	slli	gp,gp,0xc
    80004dc4:	33318193          	addi	gp,gp,819
    80004dc8:	00c19193          	slli	gp,gp,0xc
    80004dcc:	33318193          	addi	gp,gp,819
    80004dd0:	00d19193          	slli	gp,gp,0xd
    80004dd4:	66518193          	addi	gp,gp,1637
    80004dd8:	00c18463          	beq	gp,a2,80004de0 <inst_299>
    80004ddc:	a48fb06f          	j	80000024 <rvtest_error>

0000000080004de0 <inst_299>:
    80004de0:	66666537          	lui	a0,0x66666
    80004de4:	66650513          	addi	a0,a0,1638 # 66666666 <absimmsh+0x5ab958b9>
    80004de8:	00b51513          	slli	a0,a0,0xb
    80004dec:	33350513          	addi	a0,a0,819
    80004df0:	00b51513          	slli	a0,a0,0xb
    80004df4:	19950513          	addi	a0,a0,409
    80004df8:	00a51513          	slli	a0,a0,0xa
    80004dfc:	26650513          	addi	a0,a0,614
    80004e00:	555555b7          	lui	a1,0x55555
    80004e04:	55558593          	addi	a1,a1,1365 # 55555555 <absimmsh+0x49a847a8>
    80004e08:	00b59593          	slli	a1,a1,0xb
    80004e0c:	2aa58593          	addi	a1,a1,682
    80004e10:	00b59593          	slli	a1,a1,0xb
    80004e14:	55558593          	addi	a1,a1,1365
    80004e18:	00a59593          	slli	a1,a1,0xa
    80004e1c:	15558593          	addi	a1,a1,341
    80004e20:	00b54633          	xor	a2,a0,a1
    80004e24:	04c0bc23          	sd	a2,88(ra)
    80004e28:	033331b7          	lui	gp,0x3333
    80004e2c:	3331819b          	addiw	gp,gp,819 # 3333333 <offset+0x3332f1b>
    80004e30:	00c19193          	slli	gp,gp,0xc
    80004e34:	33318193          	addi	gp,gp,819
    80004e38:	00c19193          	slli	gp,gp,0xc
    80004e3c:	33318193          	addi	gp,gp,819
    80004e40:	00c19193          	slli	gp,gp,0xc
    80004e44:	33318193          	addi	gp,gp,819
    80004e48:	00c18463          	beq	gp,a2,80004e50 <inst_300>
    80004e4c:	9d8fb06f          	j	80000024 <rvtest_error>

0000000080004e50 <inst_300>:
    80004e50:	66666537          	lui	a0,0x66666
    80004e54:	66650513          	addi	a0,a0,1638 # 66666666 <absimmsh+0x5ab958b9>
    80004e58:	00b51513          	slli	a0,a0,0xb
    80004e5c:	33350513          	addi	a0,a0,819
    80004e60:	00b51513          	slli	a0,a0,0xb
    80004e64:	19950513          	addi	a0,a0,409
    80004e68:	00a51513          	slli	a0,a0,0xa
    80004e6c:	26650513          	addi	a0,a0,614
    80004e70:	aaaab5b7          	lui	a1,0xaaaab
    80004e74:	aaa58593          	addi	a1,a1,-1366 # ffffffffaaaaaaaa <absimm+0xfffffffeefd9cfda>
    80004e78:	00b59593          	slli	a1,a1,0xb
    80004e7c:	55558593          	addi	a1,a1,1365
    80004e80:	00b59593          	slli	a1,a1,0xb
    80004e84:	2aa58593          	addi	a1,a1,682
    80004e88:	00a59593          	slli	a1,a1,0xa
    80004e8c:	2aa58593          	addi	a1,a1,682
    80004e90:	00b54633          	xor	a2,a0,a1
    80004e94:	06c0b023          	sd	a2,96(ra)
    80004e98:	fcccd1b7          	lui	gp,0xfcccd
    80004e9c:	ccd1819b          	addiw	gp,gp,-819 # fffffffffccccccd <absimm+0xffffffff41fbf1fd>
    80004ea0:	00c19193          	slli	gp,gp,0xc
    80004ea4:	ccd18193          	addi	gp,gp,-819
    80004ea8:	00c19193          	slli	gp,gp,0xc
    80004eac:	ccd18193          	addi	gp,gp,-819
    80004eb0:	00c19193          	slli	gp,gp,0xc
    80004eb4:	ccc18193          	addi	gp,gp,-820
    80004eb8:	00c18463          	beq	gp,a2,80004ec0 <inst_301>
    80004ebc:	968fb06f          	j	80000024 <rvtest_error>

0000000080004ec0 <inst_301>:
    80004ec0:	66666537          	lui	a0,0x66666
    80004ec4:	66650513          	addi	a0,a0,1638 # 66666666 <absimmsh+0x5ab958b9>
    80004ec8:	00b51513          	slli	a0,a0,0xb
    80004ecc:	33350513          	addi	a0,a0,819
    80004ed0:	00b51513          	slli	a0,a0,0xb
    80004ed4:	19950513          	addi	a0,a0,409
    80004ed8:	00a51513          	slli	a0,a0,0xa
    80004edc:	26650513          	addi	a0,a0,614
    80004ee0:	00500593          	li	a1,5
    80004ee4:	00b54633          	xor	a2,a0,a1
    80004ee8:	06c0b423          	sd	a2,104(ra)
    80004eec:	033331b7          	lui	gp,0x3333
    80004ef0:	3331819b          	addiw	gp,gp,819 # 3333333 <offset+0x3332f1b>
    80004ef4:	00c19193          	slli	gp,gp,0xc
    80004ef8:	33318193          	addi	gp,gp,819
    80004efc:	00c19193          	slli	gp,gp,0xc
    80004f00:	33318193          	addi	gp,gp,819
    80004f04:	00d19193          	slli	gp,gp,0xd
    80004f08:	66318193          	addi	gp,gp,1635
    80004f0c:	00c18463          	beq	gp,a2,80004f14 <inst_302>
    80004f10:	914fb06f          	j	80000024 <rvtest_error>

0000000080004f14 <inst_302>:
    80004f14:	66666537          	lui	a0,0x66666
    80004f18:	66650513          	addi	a0,a0,1638 # 66666666 <absimmsh+0x5ab958b9>
    80004f1c:	00b51513          	slli	a0,a0,0xb
    80004f20:	33350513          	addi	a0,a0,819
    80004f24:	00b51513          	slli	a0,a0,0xb
    80004f28:	19950513          	addi	a0,a0,409
    80004f2c:	00a51513          	slli	a0,a0,0xa
    80004f30:	26650513          	addi	a0,a0,614
    80004f34:	333335b7          	lui	a1,0x33333
    80004f38:	33358593          	addi	a1,a1,819 # 33333333 <absimmsh+0x27862586>
    80004f3c:	00b59593          	slli	a1,a1,0xb
    80004f40:	19958593          	addi	a1,a1,409
    80004f44:	00b59593          	slli	a1,a1,0xb
    80004f48:	4cc58593          	addi	a1,a1,1228
    80004f4c:	00a59593          	slli	a1,a1,0xa
    80004f50:	33358593          	addi	a1,a1,819
    80004f54:	00b54633          	xor	a2,a0,a1
    80004f58:	06c0b823          	sd	a2,112(ra)
    80004f5c:	055551b7          	lui	gp,0x5555
    80004f60:	5551819b          	addiw	gp,gp,1365 # 5555555 <offset+0x555513d>
    80004f64:	00c19193          	slli	gp,gp,0xc
    80004f68:	55518193          	addi	gp,gp,1365
    80004f6c:	00c19193          	slli	gp,gp,0xc
    80004f70:	55518193          	addi	gp,gp,1365
    80004f74:	00c19193          	slli	gp,gp,0xc
    80004f78:	55518193          	addi	gp,gp,1365
    80004f7c:	00c18463          	beq	gp,a2,80004f84 <inst_303>
    80004f80:	8a4fb06f          	j	80000024 <rvtest_error>

0000000080004f84 <inst_303>:
    80004f84:	66666537          	lui	a0,0x66666
    80004f88:	66650513          	addi	a0,a0,1638 # 66666666 <absimmsh+0x5ab958b9>
    80004f8c:	00b51513          	slli	a0,a0,0xb
    80004f90:	33350513          	addi	a0,a0,819
    80004f94:	00b51513          	slli	a0,a0,0xb
    80004f98:	19950513          	addi	a0,a0,409
    80004f9c:	00a51513          	slli	a0,a0,0xa
    80004fa0:	26650513          	addi	a0,a0,614
    80004fa4:	666665b7          	lui	a1,0x66666
    80004fa8:	66658593          	addi	a1,a1,1638 # 66666666 <absimmsh+0x5ab958b9>
    80004fac:	00b59593          	slli	a1,a1,0xb
    80004fb0:	33358593          	addi	a1,a1,819
    80004fb4:	00b59593          	slli	a1,a1,0xb
    80004fb8:	19958593          	addi	a1,a1,409
    80004fbc:	00a59593          	slli	a1,a1,0xa
    80004fc0:	26658593          	addi	a1,a1,614
    80004fc4:	00b54633          	xor	a2,a0,a1
    80004fc8:	06c0bc23          	sd	a2,120(ra)
    80004fcc:	00000193          	li	gp,0
    80004fd0:	00c18463          	beq	gp,a2,80004fd8 <inst_304>
    80004fd4:	850fb06f          	j	80000024 <rvtest_error>

0000000080004fd8 <inst_304>:
    80004fd8:	66666537          	lui	a0,0x66666
    80004fdc:	66650513          	addi	a0,a0,1638 # 66666666 <absimmsh+0x5ab958b9>
    80004fe0:	00b51513          	slli	a0,a0,0xb
    80004fe4:	33350513          	addi	a0,a0,819
    80004fe8:	00b51513          	slli	a0,a0,0xb
    80004fec:	19950513          	addi	a0,a0,409
    80004ff0:	00a51513          	slli	a0,a0,0xa
    80004ff4:	26650513          	addi	a0,a0,614
    80004ff8:	000005b7          	lui	a1,0x0
    80004ffc:	fff58593          	addi	a1,a1,-1
    80005000:	00b59593          	slli	a1,a1,0xb
    80005004:	25758593          	addi	a1,a1,599
    80005008:	00b59593          	slli	a1,a1,0xb
    8000500c:	6c358593          	addi	a1,a1,1731
    80005010:	00a59593          	slli	a1,a1,0xa
    80005014:	0cd58593          	addi	a1,a1,205
    80005018:	00b54633          	xor	a2,a0,a1
    8000501c:	08c0b023          	sd	a2,128(ra)
    80005020:	fcccd1b7          	lui	gp,0xfcccd
    80005024:	ccd1819b          	addiw	gp,gp,-819 # fffffffffccccccd <absimm+0xffffffff41fbf1fd>
    80005028:	00d19193          	slli	gp,gp,0xd
    8000502c:	92d18193          	addi	gp,gp,-1747
    80005030:	00c19193          	slli	gp,gp,0xc
    80005034:	9d718193          	addi	gp,gp,-1577
    80005038:	00c19193          	slli	gp,gp,0xc
    8000503c:	aab18193          	addi	gp,gp,-1365
    80005040:	00c18463          	beq	gp,a2,80005048 <inst_305>
    80005044:	fe1fa06f          	j	80000024 <rvtest_error>

0000000080005048 <inst_305>:
    80005048:	66666537          	lui	a0,0x66666
    8000504c:	66650513          	addi	a0,a0,1638 # 66666666 <absimmsh+0x5ab958b9>
    80005050:	00b51513          	slli	a0,a0,0xb
    80005054:	33350513          	addi	a0,a0,819
    80005058:	00b51513          	slli	a0,a0,0xb
    8000505c:	19950513          	addi	a0,a0,409
    80005060:	00a51513          	slli	a0,a0,0xa
    80005064:	26650513          	addi	a0,a0,614
    80005068:	000005b7          	lui	a1,0x0
    8000506c:	00058593          	mv	a1,a1
    80005070:	00b59593          	slli	a1,a1,0xb
    80005074:	5a858593          	addi	a1,a1,1448 # 5a8 <offset+0x190>
    80005078:	00b59593          	slli	a1,a1,0xb
    8000507c:	13c58593          	addi	a1,a1,316
    80005080:	00a59593          	slli	a1,a1,0xa
    80005084:	33358593          	addi	a1,a1,819
    80005088:	00b54633          	xor	a2,a0,a1
    8000508c:	08c0b423          	sd	a2,136(ra)
    80005090:	033331b7          	lui	gp,0x3333
    80005094:	3331819b          	addiw	gp,gp,819 # 3333333 <offset+0x3332f1b>
    80005098:	00d19193          	slli	gp,gp,0xd
    8000509c:	6d318193          	addi	gp,gp,1747
    800050a0:	00c19193          	slli	gp,gp,0xc
    800050a4:	62918193          	addi	gp,gp,1577
    800050a8:	00c19193          	slli	gp,gp,0xc
    800050ac:	55518193          	addi	gp,gp,1365
    800050b0:	00c18463          	beq	gp,a2,800050b8 <inst_306>
    800050b4:	f71fa06f          	j	80000024 <rvtest_error>

00000000800050b8 <inst_306>:
    800050b8:	66666537          	lui	a0,0x66666
    800050bc:	66650513          	addi	a0,a0,1638 # 66666666 <absimmsh+0x5ab958b9>
    800050c0:	00b51513          	slli	a0,a0,0xb
    800050c4:	33350513          	addi	a0,a0,819
    800050c8:	00b51513          	slli	a0,a0,0xb
    800050cc:	19950513          	addi	a0,a0,409
    800050d0:	00a51513          	slli	a0,a0,0xa
    800050d4:	26650513          	addi	a0,a0,614
    800050d8:	00200593          	li	a1,2
    800050dc:	00b54633          	xor	a2,a0,a1
    800050e0:	08c0b823          	sd	a2,144(ra)
    800050e4:	033331b7          	lui	gp,0x3333
    800050e8:	3331819b          	addiw	gp,gp,819 # 3333333 <offset+0x3332f1b>
    800050ec:	00c19193          	slli	gp,gp,0xc
    800050f0:	33318193          	addi	gp,gp,819
    800050f4:	00c19193          	slli	gp,gp,0xc
    800050f8:	33318193          	addi	gp,gp,819
    800050fc:	00d19193          	slli	gp,gp,0xd
    80005100:	66418193          	addi	gp,gp,1636
    80005104:	00c18463          	beq	gp,a2,8000510c <inst_307>
    80005108:	f1dfa06f          	j	80000024 <rvtest_error>

000000008000510c <inst_307>:
    8000510c:	66666537          	lui	a0,0x66666
    80005110:	66650513          	addi	a0,a0,1638 # 66666666 <absimmsh+0x5ab958b9>
    80005114:	00b51513          	slli	a0,a0,0xb
    80005118:	33350513          	addi	a0,a0,819
    8000511c:	00b51513          	slli	a0,a0,0xb
    80005120:	19950513          	addi	a0,a0,409
    80005124:	00a51513          	slli	a0,a0,0xa
    80005128:	26650513          	addi	a0,a0,614
    8000512c:	555555b7          	lui	a1,0x55555
    80005130:	55558593          	addi	a1,a1,1365 # 55555555 <absimmsh+0x49a847a8>
    80005134:	00b59593          	slli	a1,a1,0xb
    80005138:	2aa58593          	addi	a1,a1,682
    8000513c:	00b59593          	slli	a1,a1,0xb
    80005140:	55558593          	addi	a1,a1,1365
    80005144:	00a59593          	slli	a1,a1,0xa
    80005148:	15458593          	addi	a1,a1,340
    8000514c:	00b54633          	xor	a2,a0,a1
    80005150:	08c0bc23          	sd	a2,152(ra)
    80005154:	033331b7          	lui	gp,0x3333
    80005158:	3331819b          	addiw	gp,gp,819 # 3333333 <offset+0x3332f1b>
    8000515c:	00c19193          	slli	gp,gp,0xc
    80005160:	33318193          	addi	gp,gp,819
    80005164:	00c19193          	slli	gp,gp,0xc
    80005168:	33318193          	addi	gp,gp,819
    8000516c:	00c19193          	slli	gp,gp,0xc
    80005170:	33218193          	addi	gp,gp,818
    80005174:	00c18463          	beq	gp,a2,8000517c <inst_308>
    80005178:	eadfa06f          	j	80000024 <rvtest_error>

000000008000517c <inst_308>:
    8000517c:	66666537          	lui	a0,0x66666
    80005180:	66650513          	addi	a0,a0,1638 # 66666666 <absimmsh+0x5ab958b9>
    80005184:	00b51513          	slli	a0,a0,0xb
    80005188:	33350513          	addi	a0,a0,819
    8000518c:	00b51513          	slli	a0,a0,0xb
    80005190:	19950513          	addi	a0,a0,409
    80005194:	00a51513          	slli	a0,a0,0xa
    80005198:	26650513          	addi	a0,a0,614
    8000519c:	00000593          	li	a1,0
    800051a0:	00b54633          	xor	a2,a0,a1
    800051a4:	0ac0b023          	sd	a2,160(ra)
    800051a8:	033331b7          	lui	gp,0x3333
    800051ac:	3331819b          	addiw	gp,gp,819 # 3333333 <offset+0x3332f1b>
    800051b0:	00c19193          	slli	gp,gp,0xc
    800051b4:	33318193          	addi	gp,gp,819
    800051b8:	00c19193          	slli	gp,gp,0xc
    800051bc:	33318193          	addi	gp,gp,819
    800051c0:	00d19193          	slli	gp,gp,0xd
    800051c4:	66618193          	addi	gp,gp,1638
    800051c8:	00c18463          	beq	gp,a2,800051d0 <inst_309>
    800051cc:	e59fa06f          	j	80000024 <rvtest_error>

00000000800051d0 <inst_309>:
    800051d0:	66666537          	lui	a0,0x66666
    800051d4:	66650513          	addi	a0,a0,1638 # 66666666 <absimmsh+0x5ab958b9>
    800051d8:	00b51513          	slli	a0,a0,0xb
    800051dc:	33350513          	addi	a0,a0,819
    800051e0:	00b51513          	slli	a0,a0,0xb
    800051e4:	19950513          	addi	a0,a0,409
    800051e8:	00a51513          	slli	a0,a0,0xa
    800051ec:	26650513          	addi	a0,a0,614
    800051f0:	00400593          	li	a1,4
    800051f4:	00b54633          	xor	a2,a0,a1
    800051f8:	0ac0b423          	sd	a2,168(ra)
    800051fc:	033331b7          	lui	gp,0x3333
    80005200:	3331819b          	addiw	gp,gp,819 # 3333333 <offset+0x3332f1b>
    80005204:	00c19193          	slli	gp,gp,0xc
    80005208:	33318193          	addi	gp,gp,819
    8000520c:	00c19193          	slli	gp,gp,0xc
    80005210:	33318193          	addi	gp,gp,819
    80005214:	00d19193          	slli	gp,gp,0xd
    80005218:	66218193          	addi	gp,gp,1634
    8000521c:	00c18463          	beq	gp,a2,80005224 <inst_310>
    80005220:	e05fa06f          	j	80000024 <rvtest_error>

0000000080005224 <inst_310>:
    80005224:	66666537          	lui	a0,0x66666
    80005228:	66650513          	addi	a0,a0,1638 # 66666666 <absimmsh+0x5ab958b9>
    8000522c:	00b51513          	slli	a0,a0,0xb
    80005230:	33350513          	addi	a0,a0,819
    80005234:	00b51513          	slli	a0,a0,0xb
    80005238:	19950513          	addi	a0,a0,409
    8000523c:	00a51513          	slli	a0,a0,0xa
    80005240:	26650513          	addi	a0,a0,614
    80005244:	333335b7          	lui	a1,0x33333
    80005248:	33358593          	addi	a1,a1,819 # 33333333 <absimmsh+0x27862586>
    8000524c:	00b59593          	slli	a1,a1,0xb
    80005250:	19958593          	addi	a1,a1,409
    80005254:	00b59593          	slli	a1,a1,0xb
    80005258:	4cc58593          	addi	a1,a1,1228
    8000525c:	00a59593          	slli	a1,a1,0xa
    80005260:	33258593          	addi	a1,a1,818
    80005264:	00b54633          	xor	a2,a0,a1
    80005268:	0ac0b823          	sd	a2,176(ra)
    8000526c:	055551b7          	lui	gp,0x5555
    80005270:	5551819b          	addiw	gp,gp,1365 # 5555555 <offset+0x555513d>
    80005274:	00c19193          	slli	gp,gp,0xc
    80005278:	55518193          	addi	gp,gp,1365
    8000527c:	00c19193          	slli	gp,gp,0xc
    80005280:	55518193          	addi	gp,gp,1365
    80005284:	00c19193          	slli	gp,gp,0xc
    80005288:	55418193          	addi	gp,gp,1364
    8000528c:	00c18463          	beq	gp,a2,80005294 <inst_311>
    80005290:	d95fa06f          	j	80000024 <rvtest_error>

0000000080005294 <inst_311>:
    80005294:	66666537          	lui	a0,0x66666
    80005298:	66650513          	addi	a0,a0,1638 # 66666666 <absimmsh+0x5ab958b9>
    8000529c:	00b51513          	slli	a0,a0,0xb
    800052a0:	33350513          	addi	a0,a0,819
    800052a4:	00b51513          	slli	a0,a0,0xb
    800052a8:	19950513          	addi	a0,a0,409
    800052ac:	00a51513          	slli	a0,a0,0xa
    800052b0:	26650513          	addi	a0,a0,614
    800052b4:	666665b7          	lui	a1,0x66666
    800052b8:	66658593          	addi	a1,a1,1638 # 66666666 <absimmsh+0x5ab958b9>
    800052bc:	00b59593          	slli	a1,a1,0xb
    800052c0:	33358593          	addi	a1,a1,819
    800052c4:	00b59593          	slli	a1,a1,0xb
    800052c8:	19958593          	addi	a1,a1,409
    800052cc:	00a59593          	slli	a1,a1,0xa
    800052d0:	26558593          	addi	a1,a1,613
    800052d4:	00b54633          	xor	a2,a0,a1
    800052d8:	0ac0bc23          	sd	a2,184(ra)
    800052dc:	00300193          	li	gp,3
    800052e0:	00c18463          	beq	gp,a2,800052e8 <inst_312>
    800052e4:	d41fa06f          	j	80000024 <rvtest_error>

00000000800052e8 <inst_312>:
    800052e8:	66666537          	lui	a0,0x66666
    800052ec:	66650513          	addi	a0,a0,1638 # 66666666 <absimmsh+0x5ab958b9>
    800052f0:	00b51513          	slli	a0,a0,0xb
    800052f4:	33350513          	addi	a0,a0,819
    800052f8:	00b51513          	slli	a0,a0,0xb
    800052fc:	19950513          	addi	a0,a0,409
    80005300:	00a51513          	slli	a0,a0,0xa
    80005304:	26650513          	addi	a0,a0,614
    80005308:	000005b7          	lui	a1,0x0
    8000530c:	00058593          	mv	a1,a1
    80005310:	00b59593          	slli	a1,a1,0xb
    80005314:	5a858593          	addi	a1,a1,1448 # 5a8 <offset+0x190>
    80005318:	00b59593          	slli	a1,a1,0xb
    8000531c:	13c58593          	addi	a1,a1,316
    80005320:	00a59593          	slli	a1,a1,0xa
    80005324:	33258593          	addi	a1,a1,818
    80005328:	00b54633          	xor	a2,a0,a1
    8000532c:	0cc0b023          	sd	a2,192(ra)
    80005330:	033331b7          	lui	gp,0x3333
    80005334:	3331819b          	addiw	gp,gp,819 # 3333333 <offset+0x3332f1b>
    80005338:	00d19193          	slli	gp,gp,0xd
    8000533c:	6d318193          	addi	gp,gp,1747
    80005340:	00c19193          	slli	gp,gp,0xc
    80005344:	62918193          	addi	gp,gp,1577
    80005348:	00c19193          	slli	gp,gp,0xc
    8000534c:	55418193          	addi	gp,gp,1364
    80005350:	00c18463          	beq	gp,a2,80005358 <inst_313>
    80005354:	cd1fa06f          	j	80000024 <rvtest_error>

0000000080005358 <inst_313>:
    80005358:	66666537          	lui	a0,0x66666
    8000535c:	66650513          	addi	a0,a0,1638 # 66666666 <absimmsh+0x5ab958b9>
    80005360:	00b51513          	slli	a0,a0,0xb
    80005364:	33350513          	addi	a0,a0,819
    80005368:	00b51513          	slli	a0,a0,0xb
    8000536c:	19950513          	addi	a0,a0,409
    80005370:	00a51513          	slli	a0,a0,0xa
    80005374:	26650513          	addi	a0,a0,614
    80005378:	555555b7          	lui	a1,0x55555
    8000537c:	55558593          	addi	a1,a1,1365 # 55555555 <absimmsh+0x49a847a8>
    80005380:	00b59593          	slli	a1,a1,0xb
    80005384:	2aa58593          	addi	a1,a1,682
    80005388:	00b59593          	slli	a1,a1,0xb
    8000538c:	55558593          	addi	a1,a1,1365
    80005390:	00a59593          	slli	a1,a1,0xa
    80005394:	15658593          	addi	a1,a1,342
    80005398:	00b54633          	xor	a2,a0,a1
    8000539c:	0cc0b423          	sd	a2,200(ra)
    800053a0:	033331b7          	lui	gp,0x3333
    800053a4:	3331819b          	addiw	gp,gp,819 # 3333333 <offset+0x3332f1b>
    800053a8:	00c19193          	slli	gp,gp,0xc
    800053ac:	33318193          	addi	gp,gp,819
    800053b0:	00c19193          	slli	gp,gp,0xc
    800053b4:	33318193          	addi	gp,gp,819
    800053b8:	00c19193          	slli	gp,gp,0xc
    800053bc:	33018193          	addi	gp,gp,816
    800053c0:	00c18463          	beq	gp,a2,800053c8 <inst_314>
    800053c4:	c61fa06f          	j	80000024 <rvtest_error>

00000000800053c8 <inst_314>:
    800053c8:	66666537          	lui	a0,0x66666
    800053cc:	66650513          	addi	a0,a0,1638 # 66666666 <absimmsh+0x5ab958b9>
    800053d0:	00b51513          	slli	a0,a0,0xb
    800053d4:	33350513          	addi	a0,a0,819
    800053d8:	00b51513          	slli	a0,a0,0xb
    800053dc:	19950513          	addi	a0,a0,409
    800053e0:	00a51513          	slli	a0,a0,0xa
    800053e4:	26650513          	addi	a0,a0,614
    800053e8:	aaaab5b7          	lui	a1,0xaaaab
    800053ec:	aaa58593          	addi	a1,a1,-1366 # ffffffffaaaaaaaa <absimm+0xfffffffeefd9cfda>
    800053f0:	00b59593          	slli	a1,a1,0xb
    800053f4:	55558593          	addi	a1,a1,1365
    800053f8:	00b59593          	slli	a1,a1,0xb
    800053fc:	2aa58593          	addi	a1,a1,682
    80005400:	00a59593          	slli	a1,a1,0xa
    80005404:	2ab58593          	addi	a1,a1,683
    80005408:	00b54633          	xor	a2,a0,a1
    8000540c:	0cc0b823          	sd	a2,208(ra)
    80005410:	fcccd1b7          	lui	gp,0xfcccd
    80005414:	ccd1819b          	addiw	gp,gp,-819 # fffffffffccccccd <absimm+0xffffffff41fbf1fd>
    80005418:	00c19193          	slli	gp,gp,0xc
    8000541c:	ccd18193          	addi	gp,gp,-819
    80005420:	00c19193          	slli	gp,gp,0xc
    80005424:	ccd18193          	addi	gp,gp,-819
    80005428:	00c19193          	slli	gp,gp,0xc
    8000542c:	ccd18193          	addi	gp,gp,-819
    80005430:	00c18463          	beq	gp,a2,80005438 <inst_315>
    80005434:	bf1fa06f          	j	80000024 <rvtest_error>

0000000080005438 <inst_315>:
    80005438:	66666537          	lui	a0,0x66666
    8000543c:	66650513          	addi	a0,a0,1638 # 66666666 <absimmsh+0x5ab958b9>
    80005440:	00b51513          	slli	a0,a0,0xb
    80005444:	33350513          	addi	a0,a0,819
    80005448:	00b51513          	slli	a0,a0,0xb
    8000544c:	19950513          	addi	a0,a0,409
    80005450:	00a51513          	slli	a0,a0,0xa
    80005454:	26650513          	addi	a0,a0,614
    80005458:	00600593          	li	a1,6
    8000545c:	00b54633          	xor	a2,a0,a1
    80005460:	0cc0bc23          	sd	a2,216(ra)
    80005464:	033331b7          	lui	gp,0x3333
    80005468:	3331819b          	addiw	gp,gp,819 # 3333333 <offset+0x3332f1b>
    8000546c:	00c19193          	slli	gp,gp,0xc
    80005470:	33318193          	addi	gp,gp,819
    80005474:	00c19193          	slli	gp,gp,0xc
    80005478:	33318193          	addi	gp,gp,819
    8000547c:	00d19193          	slli	gp,gp,0xd
    80005480:	66018193          	addi	gp,gp,1632
    80005484:	00c18463          	beq	gp,a2,8000548c <inst_316>
    80005488:	b9dfa06f          	j	80000024 <rvtest_error>

000000008000548c <inst_316>:
    8000548c:	66666537          	lui	a0,0x66666
    80005490:	66650513          	addi	a0,a0,1638 # 66666666 <absimmsh+0x5ab958b9>
    80005494:	00b51513          	slli	a0,a0,0xb
    80005498:	33350513          	addi	a0,a0,819
    8000549c:	00b51513          	slli	a0,a0,0xb
    800054a0:	19950513          	addi	a0,a0,409
    800054a4:	00a51513          	slli	a0,a0,0xa
    800054a8:	26650513          	addi	a0,a0,614
    800054ac:	333335b7          	lui	a1,0x33333
    800054b0:	33358593          	addi	a1,a1,819 # 33333333 <absimmsh+0x27862586>
    800054b4:	00b59593          	slli	a1,a1,0xb
    800054b8:	19958593          	addi	a1,a1,409
    800054bc:	00b59593          	slli	a1,a1,0xb
    800054c0:	4cc58593          	addi	a1,a1,1228
    800054c4:	00a59593          	slli	a1,a1,0xa
    800054c8:	33458593          	addi	a1,a1,820
    800054cc:	00b54633          	xor	a2,a0,a1
    800054d0:	0ec0b023          	sd	a2,224(ra)
    800054d4:	055551b7          	lui	gp,0x5555
    800054d8:	5551819b          	addiw	gp,gp,1365 # 5555555 <offset+0x555513d>
    800054dc:	00c19193          	slli	gp,gp,0xc
    800054e0:	55518193          	addi	gp,gp,1365
    800054e4:	00c19193          	slli	gp,gp,0xc
    800054e8:	55518193          	addi	gp,gp,1365
    800054ec:	00c19193          	slli	gp,gp,0xc
    800054f0:	55218193          	addi	gp,gp,1362
    800054f4:	00c18463          	beq	gp,a2,800054fc <inst_317>
    800054f8:	b2dfa06f          	j	80000024 <rvtest_error>

00000000800054fc <inst_317>:
    800054fc:	66666537          	lui	a0,0x66666
    80005500:	66650513          	addi	a0,a0,1638 # 66666666 <absimmsh+0x5ab958b9>
    80005504:	00b51513          	slli	a0,a0,0xb
    80005508:	33350513          	addi	a0,a0,819
    8000550c:	00b51513          	slli	a0,a0,0xb
    80005510:	19950513          	addi	a0,a0,409
    80005514:	00a51513          	slli	a0,a0,0xa
    80005518:	26650513          	addi	a0,a0,614
    8000551c:	666665b7          	lui	a1,0x66666
    80005520:	66658593          	addi	a1,a1,1638 # 66666666 <absimmsh+0x5ab958b9>
    80005524:	00b59593          	slli	a1,a1,0xb
    80005528:	33358593          	addi	a1,a1,819
    8000552c:	00b59593          	slli	a1,a1,0xb
    80005530:	19958593          	addi	a1,a1,409
    80005534:	00a59593          	slli	a1,a1,0xa
    80005538:	26758593          	addi	a1,a1,615
    8000553c:	00b54633          	xor	a2,a0,a1
    80005540:	0ec0b423          	sd	a2,232(ra)
    80005544:	00100193          	li	gp,1
    80005548:	00c18463          	beq	gp,a2,80005550 <inst_318>
    8000554c:	ad9fa06f          	j	80000024 <rvtest_error>

0000000080005550 <inst_318>:
    80005550:	66666537          	lui	a0,0x66666
    80005554:	66650513          	addi	a0,a0,1638 # 66666666 <absimmsh+0x5ab958b9>
    80005558:	00b51513          	slli	a0,a0,0xb
    8000555c:	33350513          	addi	a0,a0,819
    80005560:	00b51513          	slli	a0,a0,0xb
    80005564:	19950513          	addi	a0,a0,409
    80005568:	00a51513          	slli	a0,a0,0xa
    8000556c:	26650513          	addi	a0,a0,614
    80005570:	000005b7          	lui	a1,0x0
    80005574:	fff58593          	addi	a1,a1,-1
    80005578:	00b59593          	slli	a1,a1,0xb
    8000557c:	25758593          	addi	a1,a1,599
    80005580:	00b59593          	slli	a1,a1,0xb
    80005584:	6c358593          	addi	a1,a1,1731
    80005588:	00a59593          	slli	a1,a1,0xa
    8000558c:	0ce58593          	addi	a1,a1,206
    80005590:	00b54633          	xor	a2,a0,a1
    80005594:	0ec0b823          	sd	a2,240(ra)
    80005598:	fcccd1b7          	lui	gp,0xfcccd
    8000559c:	ccd1819b          	addiw	gp,gp,-819 # fffffffffccccccd <absimm+0xffffffff41fbf1fd>
    800055a0:	00d19193          	slli	gp,gp,0xd
    800055a4:	92d18193          	addi	gp,gp,-1747
    800055a8:	00c19193          	slli	gp,gp,0xc
    800055ac:	9d718193          	addi	gp,gp,-1577
    800055b0:	00c19193          	slli	gp,gp,0xc
    800055b4:	aa818193          	addi	gp,gp,-1368
    800055b8:	00c18463          	beq	gp,a2,800055c0 <inst_319>
    800055bc:	a69fa06f          	j	80000024 <rvtest_error>

00000000800055c0 <inst_319>:
    800055c0:	66666537          	lui	a0,0x66666
    800055c4:	66650513          	addi	a0,a0,1638 # 66666666 <absimmsh+0x5ab958b9>
    800055c8:	00b51513          	slli	a0,a0,0xb
    800055cc:	33350513          	addi	a0,a0,819
    800055d0:	00b51513          	slli	a0,a0,0xb
    800055d4:	19950513          	addi	a0,a0,409
    800055d8:	00a51513          	slli	a0,a0,0xa
    800055dc:	26650513          	addi	a0,a0,614
    800055e0:	000005b7          	lui	a1,0x0
    800055e4:	00058593          	mv	a1,a1
    800055e8:	00b59593          	slli	a1,a1,0xb
    800055ec:	5a858593          	addi	a1,a1,1448 # 5a8 <offset+0x190>
    800055f0:	00b59593          	slli	a1,a1,0xb
    800055f4:	13c58593          	addi	a1,a1,316
    800055f8:	00a59593          	slli	a1,a1,0xa
    800055fc:	33458593          	addi	a1,a1,820
    80005600:	00b54633          	xor	a2,a0,a1
    80005604:	0ec0bc23          	sd	a2,248(ra)
    80005608:	033331b7          	lui	gp,0x3333
    8000560c:	3331819b          	addiw	gp,gp,819 # 3333333 <offset+0x3332f1b>
    80005610:	00d19193          	slli	gp,gp,0xd
    80005614:	6d318193          	addi	gp,gp,1747
    80005618:	00c19193          	slli	gp,gp,0xc
    8000561c:	62918193          	addi	gp,gp,1577
    80005620:	00c19193          	slli	gp,gp,0xc
    80005624:	55218193          	addi	gp,gp,1362
    80005628:	00c18463          	beq	gp,a2,80005630 <inst_320>
    8000562c:	9f9fa06f          	j	80000024 <rvtest_error>

0000000080005630 <inst_320>:
    80005630:	00000537          	lui	a0,0x0
    80005634:	fff50513          	addi	a0,a0,-1
    80005638:	00b51513          	slli	a0,a0,0xb
    8000563c:	25750513          	addi	a0,a0,599
    80005640:	00b51513          	slli	a0,a0,0xb
    80005644:	6c350513          	addi	a0,a0,1731
    80005648:	00a51513          	slli	a0,a0,0xa
    8000564c:	0cd50513          	addi	a0,a0,205
    80005650:	00300593          	li	a1,3
    80005654:	00b54633          	xor	a2,a0,a1
    80005658:	10c0b023          	sd	a2,256(ra)
    8000565c:	fff4b1b7          	lui	gp,0xfff4b
    80005660:	fb11819b          	addiw	gp,gp,-79 # fffffffffff4afb1 <absimm+0xffffffff4523d4e1>
    80005664:	00c19193          	slli	gp,gp,0xc
    80005668:	cce18193          	addi	gp,gp,-818
    8000566c:	00c18463          	beq	gp,a2,80005674 <inst_321>
    80005670:	9b5fa06f          	j	80000024 <rvtest_error>

0000000080005674 <inst_321>:
    80005674:	00000537          	lui	a0,0x0
    80005678:	fff50513          	addi	a0,a0,-1
    8000567c:	00b51513          	slli	a0,a0,0xb
    80005680:	25750513          	addi	a0,a0,599
    80005684:	00b51513          	slli	a0,a0,0xb
    80005688:	6c350513          	addi	a0,a0,1731
    8000568c:	00a51513          	slli	a0,a0,0xa
    80005690:	0cd50513          	addi	a0,a0,205
    80005694:	555555b7          	lui	a1,0x55555
    80005698:	55558593          	addi	a1,a1,1365 # 55555555 <absimmsh+0x49a847a8>
    8000569c:	00b59593          	slli	a1,a1,0xb
    800056a0:	2aa58593          	addi	a1,a1,682
    800056a4:	00b59593          	slli	a1,a1,0xb
    800056a8:	55558593          	addi	a1,a1,1365
    800056ac:	00a59593          	slli	a1,a1,0xa
    800056b0:	15558593          	addi	a1,a1,341
    800056b4:	00b54633          	xor	a2,a0,a1
    800056b8:	10c0b423          	sd	a2,264(ra)
    800056bc:	ffd551b7          	lui	gp,0xffd55
    800056c0:	5551819b          	addiw	gp,gp,1365 # ffffffffffd55555 <absimm+0xffffffff45047a85>
    800056c4:	00c19193          	slli	gp,gp,0xc
    800056c8:	55118193          	addi	gp,gp,1361
    800056cc:	01019193          	slli	gp,gp,0x10
    800056d0:	d7318193          	addi	gp,gp,-653
    800056d4:	00d19193          	slli	gp,gp,0xd
    800056d8:	99818193          	addi	gp,gp,-1640
    800056dc:	00c18463          	beq	gp,a2,800056e4 <inst_322>
    800056e0:	945fa06f          	j	80000024 <rvtest_error>

00000000800056e4 <inst_322>:
    800056e4:	00000537          	lui	a0,0x0
    800056e8:	fff50513          	addi	a0,a0,-1
    800056ec:	00b51513          	slli	a0,a0,0xb
    800056f0:	25750513          	addi	a0,a0,599
    800056f4:	00b51513          	slli	a0,a0,0xb
    800056f8:	6c350513          	addi	a0,a0,1731
    800056fc:	00a51513          	slli	a0,a0,0xa
    80005700:	0cd50513          	addi	a0,a0,205
    80005704:	aaaab5b7          	lui	a1,0xaaaab
    80005708:	aaa58593          	addi	a1,a1,-1366 # ffffffffaaaaaaaa <absimm+0xfffffffeefd9cfda>
    8000570c:	00b59593          	slli	a1,a1,0xb
    80005710:	55558593          	addi	a1,a1,1365
    80005714:	00b59593          	slli	a1,a1,0xb
    80005718:	2aa58593          	addi	a1,a1,682
    8000571c:	00a59593          	slli	a1,a1,0xa
    80005720:	2aa58593          	addi	a1,a1,682
    80005724:	00b54633          	xor	a2,a0,a1
    80005728:	10c0b823          	sd	a2,272(ra)
    8000572c:	002ab1b7          	lui	gp,0x2ab
    80005730:	aab1819b          	addiw	gp,gp,-1365 # 2aaaab <offset+0x2aa693>
    80005734:	00c19193          	slli	gp,gp,0xc
    80005738:	aaf18193          	addi	gp,gp,-1361
    8000573c:	01019193          	slli	gp,gp,0x10
    80005740:	28d18193          	addi	gp,gp,653
    80005744:	00d19193          	slli	gp,gp,0xd
    80005748:	66718193          	addi	gp,gp,1639
    8000574c:	00c18463          	beq	gp,a2,80005754 <inst_323>
    80005750:	8d5fa06f          	j	80000024 <rvtest_error>

0000000080005754 <inst_323>:
    80005754:	00000537          	lui	a0,0x0
    80005758:	fff50513          	addi	a0,a0,-1
    8000575c:	00b51513          	slli	a0,a0,0xb
    80005760:	25750513          	addi	a0,a0,599
    80005764:	00b51513          	slli	a0,a0,0xb
    80005768:	6c350513          	addi	a0,a0,1731
    8000576c:	00a51513          	slli	a0,a0,0xa
    80005770:	0cd50513          	addi	a0,a0,205
    80005774:	00500593          	li	a1,5
    80005778:	00b54633          	xor	a2,a0,a1
    8000577c:	10c0bc23          	sd	a2,280(ra)
    80005780:	fff4b1b7          	lui	gp,0xfff4b
    80005784:	fb11819b          	addiw	gp,gp,-79 # fffffffffff4afb1 <absimm+0xffffffff4523d4e1>
    80005788:	00c19193          	slli	gp,gp,0xc
    8000578c:	cc818193          	addi	gp,gp,-824
    80005790:	00c18463          	beq	gp,a2,80005798 <inst_324>
    80005794:	891fa06f          	j	80000024 <rvtest_error>

0000000080005798 <inst_324>:
    80005798:	00000537          	lui	a0,0x0
    8000579c:	fff50513          	addi	a0,a0,-1
    800057a0:	00b51513          	slli	a0,a0,0xb
    800057a4:	25750513          	addi	a0,a0,599
    800057a8:	00b51513          	slli	a0,a0,0xb
    800057ac:	6c350513          	addi	a0,a0,1731
    800057b0:	00a51513          	slli	a0,a0,0xa
    800057b4:	0cd50513          	addi	a0,a0,205
    800057b8:	333335b7          	lui	a1,0x33333
    800057bc:	33358593          	addi	a1,a1,819 # 33333333 <absimmsh+0x27862586>
    800057c0:	00b59593          	slli	a1,a1,0xb
    800057c4:	19958593          	addi	a1,a1,409
    800057c8:	00b59593          	slli	a1,a1,0xb
    800057cc:	4cc58593          	addi	a1,a1,1228
    800057d0:	00a59593          	slli	a1,a1,0xa
    800057d4:	33358593          	addi	a1,a1,819
    800057d8:	00b54633          	xor	a2,a0,a1
    800057dc:	12c0b023          	sd	a2,288(ra)
    800057e0:	ffccd1b7          	lui	gp,0xffccd
    800057e4:	ccd1819b          	addiw	gp,gp,-819 # ffffffffffcccccd <absimm+0xffffffff44fbf1fd>
    800057e8:	00d19193          	slli	gp,gp,0xd
    800057ec:	98f18193          	addi	gp,gp,-1649
    800057f0:	00d19193          	slli	gp,gp,0xd
    800057f4:	72118193          	addi	gp,gp,1825
    800057f8:	00e19193          	slli	gp,gp,0xe
    800057fc:	ffe18193          	addi	gp,gp,-2
    80005800:	00c18463          	beq	gp,a2,80005808 <inst_325>
    80005804:	821fa06f          	j	80000024 <rvtest_error>

0000000080005808 <inst_325>:
    80005808:	00000537          	lui	a0,0x0
    8000580c:	fff50513          	addi	a0,a0,-1
    80005810:	00b51513          	slli	a0,a0,0xb
    80005814:	25750513          	addi	a0,a0,599
    80005818:	00b51513          	slli	a0,a0,0xb
    8000581c:	6c350513          	addi	a0,a0,1731
    80005820:	00a51513          	slli	a0,a0,0xa
    80005824:	0cd50513          	addi	a0,a0,205
    80005828:	666665b7          	lui	a1,0x66666
    8000582c:	66658593          	addi	a1,a1,1638 # 66666666 <absimmsh+0x5ab958b9>
    80005830:	00b59593          	slli	a1,a1,0xb
    80005834:	33358593          	addi	a1,a1,819
    80005838:	00b59593          	slli	a1,a1,0xb
    8000583c:	19958593          	addi	a1,a1,409
    80005840:	00a59593          	slli	a1,a1,0xa
    80005844:	26658593          	addi	a1,a1,614
    80005848:	00b54633          	xor	a2,a0,a1
    8000584c:	12c0b423          	sd	a2,296(ra)
    80005850:	fcccd1b7          	lui	gp,0xfcccd
    80005854:	ccd1819b          	addiw	gp,gp,-819 # fffffffffccccccd <absimm+0xffffffff41fbf1fd>
    80005858:	00d19193          	slli	gp,gp,0xd
    8000585c:	92d18193          	addi	gp,gp,-1747
    80005860:	00c19193          	slli	gp,gp,0xc
    80005864:	9d718193          	addi	gp,gp,-1577
    80005868:	00c19193          	slli	gp,gp,0xc
    8000586c:	aab18193          	addi	gp,gp,-1365
    80005870:	00c18463          	beq	gp,a2,80005878 <inst_326>
    80005874:	fb0fa06f          	j	80000024 <rvtest_error>

0000000080005878 <inst_326>:
    80005878:	00000537          	lui	a0,0x0
    8000587c:	fff50513          	addi	a0,a0,-1
    80005880:	00b51513          	slli	a0,a0,0xb
    80005884:	25750513          	addi	a0,a0,599
    80005888:	00b51513          	slli	a0,a0,0xb
    8000588c:	6c350513          	addi	a0,a0,1731
    80005890:	00a51513          	slli	a0,a0,0xa
    80005894:	0cd50513          	addi	a0,a0,205
    80005898:	000005b7          	lui	a1,0x0
    8000589c:	fff58593          	addi	a1,a1,-1
    800058a0:	00b59593          	slli	a1,a1,0xb
    800058a4:	25758593          	addi	a1,a1,599
    800058a8:	00b59593          	slli	a1,a1,0xb
    800058ac:	6c358593          	addi	a1,a1,1731
    800058b0:	00a59593          	slli	a1,a1,0xa
    800058b4:	0cd58593          	addi	a1,a1,205
    800058b8:	00b54633          	xor	a2,a0,a1
    800058bc:	12c0b823          	sd	a2,304(ra)
    800058c0:	00000193          	li	gp,0
    800058c4:	00c18463          	beq	gp,a2,800058cc <inst_327>
    800058c8:	f5cfa06f          	j	80000024 <rvtest_error>

00000000800058cc <inst_327>:
    800058cc:	00000537          	lui	a0,0x0
    800058d0:	fff50513          	addi	a0,a0,-1
    800058d4:	00b51513          	slli	a0,a0,0xb
    800058d8:	25750513          	addi	a0,a0,599
    800058dc:	00b51513          	slli	a0,a0,0xb
    800058e0:	6c350513          	addi	a0,a0,1731
    800058e4:	00a51513          	slli	a0,a0,0xa
    800058e8:	0cd50513          	addi	a0,a0,205
    800058ec:	000005b7          	lui	a1,0x0
    800058f0:	00058593          	mv	a1,a1
    800058f4:	00b59593          	slli	a1,a1,0xb
    800058f8:	5a858593          	addi	a1,a1,1448 # 5a8 <offset+0x190>
    800058fc:	00b59593          	slli	a1,a1,0xb
    80005900:	13c58593          	addi	a1,a1,316
    80005904:	00a59593          	slli	a1,a1,0xa
    80005908:	33358593          	addi	a1,a1,819
    8000590c:	00b54633          	xor	a2,a0,a1
    80005910:	12c0bc23          	sd	a2,312(ra)
    80005914:	ffe00193          	li	gp,-2
    80005918:	00c18463          	beq	gp,a2,80005920 <inst_328>
    8000591c:	f08fa06f          	j	80000024 <rvtest_error>

0000000080005920 <inst_328>:
    80005920:	00000537          	lui	a0,0x0
    80005924:	fff50513          	addi	a0,a0,-1
    80005928:	00b51513          	slli	a0,a0,0xb
    8000592c:	25750513          	addi	a0,a0,599
    80005930:	00b51513          	slli	a0,a0,0xb
    80005934:	6c350513          	addi	a0,a0,1731
    80005938:	00a51513          	slli	a0,a0,0xa
    8000593c:	0cd50513          	addi	a0,a0,205
    80005940:	00200593          	li	a1,2
    80005944:	00b54633          	xor	a2,a0,a1
    80005948:	14c0b023          	sd	a2,320(ra)
    8000594c:	fff4b1b7          	lui	gp,0xfff4b
    80005950:	fb11819b          	addiw	gp,gp,-79 # fffffffffff4afb1 <absimm+0xffffffff4523d4e1>
    80005954:	00c19193          	slli	gp,gp,0xc
    80005958:	ccf18193          	addi	gp,gp,-817
    8000595c:	00c18463          	beq	gp,a2,80005964 <inst_329>
    80005960:	ec4fa06f          	j	80000024 <rvtest_error>

0000000080005964 <inst_329>:
    80005964:	00000537          	lui	a0,0x0
    80005968:	fff50513          	addi	a0,a0,-1
    8000596c:	00b51513          	slli	a0,a0,0xb
    80005970:	25750513          	addi	a0,a0,599
    80005974:	00b51513          	slli	a0,a0,0xb
    80005978:	6c350513          	addi	a0,a0,1731
    8000597c:	00a51513          	slli	a0,a0,0xa
    80005980:	0cd50513          	addi	a0,a0,205
    80005984:	555555b7          	lui	a1,0x55555
    80005988:	55558593          	addi	a1,a1,1365 # 55555555 <absimmsh+0x49a847a8>
    8000598c:	00b59593          	slli	a1,a1,0xb
    80005990:	2aa58593          	addi	a1,a1,682
    80005994:	00b59593          	slli	a1,a1,0xb
    80005998:	55558593          	addi	a1,a1,1365
    8000599c:	00a59593          	slli	a1,a1,0xa
    800059a0:	15458593          	addi	a1,a1,340
    800059a4:	00b54633          	xor	a2,a0,a1
    800059a8:	14c0b423          	sd	a2,328(ra)
    800059ac:	ffd551b7          	lui	gp,0xffd55
    800059b0:	5551819b          	addiw	gp,gp,1365 # ffffffffffd55555 <absimm+0xffffffff45047a85>
    800059b4:	00c19193          	slli	gp,gp,0xc
    800059b8:	55118193          	addi	gp,gp,1361
    800059bc:	01019193          	slli	gp,gp,0x10
    800059c0:	d7318193          	addi	gp,gp,-653
    800059c4:	00d19193          	slli	gp,gp,0xd
    800059c8:	99918193          	addi	gp,gp,-1639
    800059cc:	00c18463          	beq	gp,a2,800059d4 <inst_330>
    800059d0:	e54fa06f          	j	80000024 <rvtest_error>

00000000800059d4 <inst_330>:
    800059d4:	00000537          	lui	a0,0x0
    800059d8:	fff50513          	addi	a0,a0,-1
    800059dc:	00b51513          	slli	a0,a0,0xb
    800059e0:	25750513          	addi	a0,a0,599
    800059e4:	00b51513          	slli	a0,a0,0xb
    800059e8:	6c350513          	addi	a0,a0,1731
    800059ec:	00a51513          	slli	a0,a0,0xa
    800059f0:	0cd50513          	addi	a0,a0,205
    800059f4:	00000593          	li	a1,0
    800059f8:	00b54633          	xor	a2,a0,a1
    800059fc:	14c0b823          	sd	a2,336(ra)
    80005a00:	fff4b1b7          	lui	gp,0xfff4b
    80005a04:	fb11819b          	addiw	gp,gp,-79 # fffffffffff4afb1 <absimm+0xffffffff4523d4e1>
    80005a08:	00c19193          	slli	gp,gp,0xc
    80005a0c:	ccd18193          	addi	gp,gp,-819
    80005a10:	00c18463          	beq	gp,a2,80005a18 <inst_331>
    80005a14:	e10fa06f          	j	80000024 <rvtest_error>

0000000080005a18 <inst_331>:
    80005a18:	00000537          	lui	a0,0x0
    80005a1c:	fff50513          	addi	a0,a0,-1
    80005a20:	00b51513          	slli	a0,a0,0xb
    80005a24:	25750513          	addi	a0,a0,599
    80005a28:	00b51513          	slli	a0,a0,0xb
    80005a2c:	6c350513          	addi	a0,a0,1731
    80005a30:	00a51513          	slli	a0,a0,0xa
    80005a34:	0cd50513          	addi	a0,a0,205
    80005a38:	00400593          	li	a1,4
    80005a3c:	00b54633          	xor	a2,a0,a1
    80005a40:	14c0bc23          	sd	a2,344(ra)
    80005a44:	fff4b1b7          	lui	gp,0xfff4b
    80005a48:	fb11819b          	addiw	gp,gp,-79 # fffffffffff4afb1 <absimm+0xffffffff4523d4e1>
    80005a4c:	00c19193          	slli	gp,gp,0xc
    80005a50:	cc918193          	addi	gp,gp,-823
    80005a54:	00c18463          	beq	gp,a2,80005a5c <inst_332>
    80005a58:	dccfa06f          	j	80000024 <rvtest_error>

0000000080005a5c <inst_332>:
    80005a5c:	00000537          	lui	a0,0x0
    80005a60:	fff50513          	addi	a0,a0,-1
    80005a64:	00b51513          	slli	a0,a0,0xb
    80005a68:	25750513          	addi	a0,a0,599
    80005a6c:	00b51513          	slli	a0,a0,0xb
    80005a70:	6c350513          	addi	a0,a0,1731
    80005a74:	00a51513          	slli	a0,a0,0xa
    80005a78:	0cd50513          	addi	a0,a0,205
    80005a7c:	333335b7          	lui	a1,0x33333
    80005a80:	33358593          	addi	a1,a1,819 # 33333333 <absimmsh+0x27862586>
    80005a84:	00b59593          	slli	a1,a1,0xb
    80005a88:	19958593          	addi	a1,a1,409
    80005a8c:	00b59593          	slli	a1,a1,0xb
    80005a90:	4cc58593          	addi	a1,a1,1228
    80005a94:	00a59593          	slli	a1,a1,0xa
    80005a98:	33258593          	addi	a1,a1,818
    80005a9c:	00b54633          	xor	a2,a0,a1
    80005aa0:	16c0b023          	sd	a2,352(ra)
    80005aa4:	ffccd1b7          	lui	gp,0xffccd
    80005aa8:	ccd1819b          	addiw	gp,gp,-819 # ffffffffffcccccd <absimm+0xffffffff44fbf1fd>
    80005aac:	00d19193          	slli	gp,gp,0xd
    80005ab0:	98f18193          	addi	gp,gp,-1649
    80005ab4:	00d19193          	slli	gp,gp,0xd
    80005ab8:	72118193          	addi	gp,gp,1825
    80005abc:	00e19193          	slli	gp,gp,0xe
    80005ac0:	fff18193          	addi	gp,gp,-1
    80005ac4:	00c18463          	beq	gp,a2,80005acc <inst_333>
    80005ac8:	d5cfa06f          	j	80000024 <rvtest_error>

0000000080005acc <inst_333>:
    80005acc:	00000537          	lui	a0,0x0
    80005ad0:	fff50513          	addi	a0,a0,-1
    80005ad4:	00b51513          	slli	a0,a0,0xb
    80005ad8:	25750513          	addi	a0,a0,599
    80005adc:	00b51513          	slli	a0,a0,0xb
    80005ae0:	6c350513          	addi	a0,a0,1731
    80005ae4:	00a51513          	slli	a0,a0,0xa
    80005ae8:	0cd50513          	addi	a0,a0,205
    80005aec:	666665b7          	lui	a1,0x66666
    80005af0:	66658593          	addi	a1,a1,1638 # 66666666 <absimmsh+0x5ab958b9>
    80005af4:	00b59593          	slli	a1,a1,0xb
    80005af8:	33358593          	addi	a1,a1,819
    80005afc:	00b59593          	slli	a1,a1,0xb
    80005b00:	19958593          	addi	a1,a1,409
    80005b04:	00a59593          	slli	a1,a1,0xa
    80005b08:	26558593          	addi	a1,a1,613
    80005b0c:	00b54633          	xor	a2,a0,a1
    80005b10:	16c0b423          	sd	a2,360(ra)
    80005b14:	fcccd1b7          	lui	gp,0xfcccd
    80005b18:	ccd1819b          	addiw	gp,gp,-819 # fffffffffccccccd <absimm+0xffffffff41fbf1fd>
    80005b1c:	00d19193          	slli	gp,gp,0xd
    80005b20:	92d18193          	addi	gp,gp,-1747
    80005b24:	00c19193          	slli	gp,gp,0xc
    80005b28:	9d718193          	addi	gp,gp,-1577
    80005b2c:	00c19193          	slli	gp,gp,0xc
    80005b30:	aa818193          	addi	gp,gp,-1368
    80005b34:	00c18463          	beq	gp,a2,80005b3c <inst_334>
    80005b38:	cecfa06f          	j	80000024 <rvtest_error>

0000000080005b3c <inst_334>:
    80005b3c:	00000537          	lui	a0,0x0
    80005b40:	fff50513          	addi	a0,a0,-1
    80005b44:	00b51513          	slli	a0,a0,0xb
    80005b48:	25750513          	addi	a0,a0,599
    80005b4c:	00b51513          	slli	a0,a0,0xb
    80005b50:	6c350513          	addi	a0,a0,1731
    80005b54:	00a51513          	slli	a0,a0,0xa
    80005b58:	0cd50513          	addi	a0,a0,205
    80005b5c:	000005b7          	lui	a1,0x0
    80005b60:	00058593          	mv	a1,a1
    80005b64:	00b59593          	slli	a1,a1,0xb
    80005b68:	5a858593          	addi	a1,a1,1448 # 5a8 <offset+0x190>
    80005b6c:	00b59593          	slli	a1,a1,0xb
    80005b70:	13c58593          	addi	a1,a1,316
    80005b74:	00a59593          	slli	a1,a1,0xa
    80005b78:	33258593          	addi	a1,a1,818
    80005b7c:	00b54633          	xor	a2,a0,a1
    80005b80:	16c0b823          	sd	a2,368(ra)
    80005b84:	fff00193          	li	gp,-1
    80005b88:	00c18463          	beq	gp,a2,80005b90 <inst_335>
    80005b8c:	c98fa06f          	j	80000024 <rvtest_error>

0000000080005b90 <inst_335>:
    80005b90:	00000537          	lui	a0,0x0
    80005b94:	fff50513          	addi	a0,a0,-1
    80005b98:	00b51513          	slli	a0,a0,0xb
    80005b9c:	25750513          	addi	a0,a0,599
    80005ba0:	00b51513          	slli	a0,a0,0xb
    80005ba4:	6c350513          	addi	a0,a0,1731
    80005ba8:	00a51513          	slli	a0,a0,0xa
    80005bac:	0cd50513          	addi	a0,a0,205
    80005bb0:	555555b7          	lui	a1,0x55555
    80005bb4:	55558593          	addi	a1,a1,1365 # 55555555 <absimmsh+0x49a847a8>
    80005bb8:	00b59593          	slli	a1,a1,0xb
    80005bbc:	2aa58593          	addi	a1,a1,682
    80005bc0:	00b59593          	slli	a1,a1,0xb
    80005bc4:	55558593          	addi	a1,a1,1365
    80005bc8:	00a59593          	slli	a1,a1,0xa
    80005bcc:	15658593          	addi	a1,a1,342
    80005bd0:	00b54633          	xor	a2,a0,a1
    80005bd4:	16c0bc23          	sd	a2,376(ra)
    80005bd8:	ffd551b7          	lui	gp,0xffd55
    80005bdc:	5551819b          	addiw	gp,gp,1365 # ffffffffffd55555 <absimm+0xffffffff45047a85>
    80005be0:	00c19193          	slli	gp,gp,0xc
    80005be4:	55118193          	addi	gp,gp,1361
    80005be8:	01019193          	slli	gp,gp,0x10
    80005bec:	d7318193          	addi	gp,gp,-653
    80005bf0:	00d19193          	slli	gp,gp,0xd
    80005bf4:	99b18193          	addi	gp,gp,-1637
    80005bf8:	00c18463          	beq	gp,a2,80005c00 <inst_336>
    80005bfc:	c28fa06f          	j	80000024 <rvtest_error>

0000000080005c00 <inst_336>:
    80005c00:	00000537          	lui	a0,0x0
    80005c04:	fff50513          	addi	a0,a0,-1
    80005c08:	00b51513          	slli	a0,a0,0xb
    80005c0c:	25750513          	addi	a0,a0,599
    80005c10:	00b51513          	slli	a0,a0,0xb
    80005c14:	6c350513          	addi	a0,a0,1731
    80005c18:	00a51513          	slli	a0,a0,0xa
    80005c1c:	0cd50513          	addi	a0,a0,205
    80005c20:	aaaab5b7          	lui	a1,0xaaaab
    80005c24:	aaa58593          	addi	a1,a1,-1366 # ffffffffaaaaaaaa <absimm+0xfffffffeefd9cfda>
    80005c28:	00b59593          	slli	a1,a1,0xb
    80005c2c:	55558593          	addi	a1,a1,1365
    80005c30:	00b59593          	slli	a1,a1,0xb
    80005c34:	2aa58593          	addi	a1,a1,682
    80005c38:	00a59593          	slli	a1,a1,0xa
    80005c3c:	2ab58593          	addi	a1,a1,683
    80005c40:	00b54633          	xor	a2,a0,a1
    80005c44:	18c0b023          	sd	a2,384(ra)
    80005c48:	002ab1b7          	lui	gp,0x2ab
    80005c4c:	aab1819b          	addiw	gp,gp,-1365 # 2aaaab <offset+0x2aa693>
    80005c50:	00c19193          	slli	gp,gp,0xc
    80005c54:	aaf18193          	addi	gp,gp,-1361
    80005c58:	01019193          	slli	gp,gp,0x10
    80005c5c:	28d18193          	addi	gp,gp,653
    80005c60:	00d19193          	slli	gp,gp,0xd
    80005c64:	66618193          	addi	gp,gp,1638
    80005c68:	00c18463          	beq	gp,a2,80005c70 <inst_337>
    80005c6c:	bb8fa06f          	j	80000024 <rvtest_error>

0000000080005c70 <inst_337>:
    80005c70:	00000537          	lui	a0,0x0
    80005c74:	fff50513          	addi	a0,a0,-1
    80005c78:	00b51513          	slli	a0,a0,0xb
    80005c7c:	25750513          	addi	a0,a0,599
    80005c80:	00b51513          	slli	a0,a0,0xb
    80005c84:	6c350513          	addi	a0,a0,1731
    80005c88:	00a51513          	slli	a0,a0,0xa
    80005c8c:	0cd50513          	addi	a0,a0,205
    80005c90:	00600593          	li	a1,6
    80005c94:	00b54633          	xor	a2,a0,a1
    80005c98:	18c0b423          	sd	a2,392(ra)
    80005c9c:	fff4b1b7          	lui	gp,0xfff4b
    80005ca0:	fb11819b          	addiw	gp,gp,-79 # fffffffffff4afb1 <absimm+0xffffffff4523d4e1>
    80005ca4:	00c19193          	slli	gp,gp,0xc
    80005ca8:	ccb18193          	addi	gp,gp,-821
    80005cac:	00c18463          	beq	gp,a2,80005cb4 <inst_338>
    80005cb0:	b74fa06f          	j	80000024 <rvtest_error>

0000000080005cb4 <inst_338>:
    80005cb4:	00000537          	lui	a0,0x0
    80005cb8:	fff50513          	addi	a0,a0,-1
    80005cbc:	00b51513          	slli	a0,a0,0xb
    80005cc0:	25750513          	addi	a0,a0,599
    80005cc4:	00b51513          	slli	a0,a0,0xb
    80005cc8:	6c350513          	addi	a0,a0,1731
    80005ccc:	00a51513          	slli	a0,a0,0xa
    80005cd0:	0cd50513          	addi	a0,a0,205
    80005cd4:	333335b7          	lui	a1,0x33333
    80005cd8:	33358593          	addi	a1,a1,819 # 33333333 <absimmsh+0x27862586>
    80005cdc:	00b59593          	slli	a1,a1,0xb
    80005ce0:	19958593          	addi	a1,a1,409
    80005ce4:	00b59593          	slli	a1,a1,0xb
    80005ce8:	4cc58593          	addi	a1,a1,1228
    80005cec:	00a59593          	slli	a1,a1,0xa
    80005cf0:	33458593          	addi	a1,a1,820
    80005cf4:	00b54633          	xor	a2,a0,a1
    80005cf8:	18c0b823          	sd	a2,400(ra)
    80005cfc:	ffccd1b7          	lui	gp,0xffccd
    80005d00:	ccd1819b          	addiw	gp,gp,-819 # ffffffffffcccccd <absimm+0xffffffff44fbf1fd>
    80005d04:	00d19193          	slli	gp,gp,0xd
    80005d08:	98f18193          	addi	gp,gp,-1649
    80005d0c:	00d19193          	slli	gp,gp,0xd
    80005d10:	72118193          	addi	gp,gp,1825
    80005d14:	00e19193          	slli	gp,gp,0xe
    80005d18:	ff918193          	addi	gp,gp,-7
    80005d1c:	00c18463          	beq	gp,a2,80005d24 <inst_339>
    80005d20:	b04fa06f          	j	80000024 <rvtest_error>

0000000080005d24 <inst_339>:
    80005d24:	00000537          	lui	a0,0x0
    80005d28:	fff50513          	addi	a0,a0,-1
    80005d2c:	00b51513          	slli	a0,a0,0xb
    80005d30:	25750513          	addi	a0,a0,599
    80005d34:	00b51513          	slli	a0,a0,0xb
    80005d38:	6c350513          	addi	a0,a0,1731
    80005d3c:	00a51513          	slli	a0,a0,0xa
    80005d40:	0cd50513          	addi	a0,a0,205
    80005d44:	666665b7          	lui	a1,0x66666
    80005d48:	66658593          	addi	a1,a1,1638 # 66666666 <absimmsh+0x5ab958b9>
    80005d4c:	00b59593          	slli	a1,a1,0xb
    80005d50:	33358593          	addi	a1,a1,819
    80005d54:	00b59593          	slli	a1,a1,0xb
    80005d58:	19958593          	addi	a1,a1,409
    80005d5c:	00a59593          	slli	a1,a1,0xa
    80005d60:	26758593          	addi	a1,a1,615
    80005d64:	00b54633          	xor	a2,a0,a1
    80005d68:	18c0bc23          	sd	a2,408(ra)
    80005d6c:	fcccd1b7          	lui	gp,0xfcccd
    80005d70:	ccd1819b          	addiw	gp,gp,-819 # fffffffffccccccd <absimm+0xffffffff41fbf1fd>
    80005d74:	00d19193          	slli	gp,gp,0xd
    80005d78:	92d18193          	addi	gp,gp,-1747
    80005d7c:	00c19193          	slli	gp,gp,0xc
    80005d80:	9d718193          	addi	gp,gp,-1577
    80005d84:	00c19193          	slli	gp,gp,0xc
    80005d88:	aaa18193          	addi	gp,gp,-1366
    80005d8c:	00c18463          	beq	gp,a2,80005d94 <inst_340>
    80005d90:	a94fa06f          	j	80000024 <rvtest_error>

0000000080005d94 <inst_340>:
    80005d94:	00000537          	lui	a0,0x0
    80005d98:	fff50513          	addi	a0,a0,-1
    80005d9c:	00b51513          	slli	a0,a0,0xb
    80005da0:	25750513          	addi	a0,a0,599
    80005da4:	00b51513          	slli	a0,a0,0xb
    80005da8:	6c350513          	addi	a0,a0,1731
    80005dac:	00a51513          	slli	a0,a0,0xa
    80005db0:	0cd50513          	addi	a0,a0,205
    80005db4:	000005b7          	lui	a1,0x0
    80005db8:	fff58593          	addi	a1,a1,-1
    80005dbc:	00b59593          	slli	a1,a1,0xb
    80005dc0:	25758593          	addi	a1,a1,599
    80005dc4:	00b59593          	slli	a1,a1,0xb
    80005dc8:	6c358593          	addi	a1,a1,1731
    80005dcc:	00a59593          	slli	a1,a1,0xa
    80005dd0:	0ce58593          	addi	a1,a1,206
    80005dd4:	00b54633          	xor	a2,a0,a1
    80005dd8:	1ac0b023          	sd	a2,416(ra)
    80005ddc:	00300193          	li	gp,3
    80005de0:	00c18463          	beq	gp,a2,80005de8 <inst_341>
    80005de4:	a40fa06f          	j	80000024 <rvtest_error>

0000000080005de8 <inst_341>:
    80005de8:	00000537          	lui	a0,0x0
    80005dec:	fff50513          	addi	a0,a0,-1
    80005df0:	00b51513          	slli	a0,a0,0xb
    80005df4:	25750513          	addi	a0,a0,599
    80005df8:	00b51513          	slli	a0,a0,0xb
    80005dfc:	6c350513          	addi	a0,a0,1731
    80005e00:	00a51513          	slli	a0,a0,0xa
    80005e04:	0cd50513          	addi	a0,a0,205
    80005e08:	000005b7          	lui	a1,0x0
    80005e0c:	00058593          	mv	a1,a1
    80005e10:	00b59593          	slli	a1,a1,0xb
    80005e14:	5a858593          	addi	a1,a1,1448 # 5a8 <offset+0x190>
    80005e18:	00b59593          	slli	a1,a1,0xb
    80005e1c:	13c58593          	addi	a1,a1,316
    80005e20:	00a59593          	slli	a1,a1,0xa
    80005e24:	33458593          	addi	a1,a1,820
    80005e28:	00b54633          	xor	a2,a0,a1
    80005e2c:	1ac0b423          	sd	a2,424(ra)
    80005e30:	ff900193          	li	gp,-7
    80005e34:	00c18463          	beq	gp,a2,80005e3c <inst_342>
    80005e38:	9ecfa06f          	j	80000024 <rvtest_error>

0000000080005e3c <inst_342>:
    80005e3c:	00000537          	lui	a0,0x0
    80005e40:	00050513          	mv	a0,a0
    80005e44:	00b51513          	slli	a0,a0,0xb
    80005e48:	5a850513          	addi	a0,a0,1448 # 5a8 <offset+0x190>
    80005e4c:	00b51513          	slli	a0,a0,0xb
    80005e50:	13c50513          	addi	a0,a0,316
    80005e54:	00a51513          	slli	a0,a0,0xa
    80005e58:	33350513          	addi	a0,a0,819
    80005e5c:	00300593          	li	a1,3
    80005e60:	00b54633          	xor	a2,a0,a1
    80005e64:	1ac0b823          	sd	a2,432(ra)
    80005e68:	000b51b7          	lui	gp,0xb5
    80005e6c:	04f1819b          	addiw	gp,gp,79 # b504f <offset+0xb4c37>
    80005e70:	00c19193          	slli	gp,gp,0xc
    80005e74:	33018193          	addi	gp,gp,816
    80005e78:	00c18463          	beq	gp,a2,80005e80 <inst_343>
    80005e7c:	9a8fa06f          	j	80000024 <rvtest_error>

0000000080005e80 <inst_343>:
    80005e80:	00000537          	lui	a0,0x0
    80005e84:	00050513          	mv	a0,a0
    80005e88:	00b51513          	slli	a0,a0,0xb
    80005e8c:	5a850513          	addi	a0,a0,1448 # 5a8 <offset+0x190>
    80005e90:	00b51513          	slli	a0,a0,0xb
    80005e94:	13c50513          	addi	a0,a0,316
    80005e98:	00a51513          	slli	a0,a0,0xa
    80005e9c:	33350513          	addi	a0,a0,819
    80005ea0:	555555b7          	lui	a1,0x55555
    80005ea4:	55558593          	addi	a1,a1,1365 # 55555555 <absimmsh+0x49a847a8>
    80005ea8:	00b59593          	slli	a1,a1,0xb
    80005eac:	2aa58593          	addi	a1,a1,682
    80005eb0:	00b59593          	slli	a1,a1,0xb
    80005eb4:	55558593          	addi	a1,a1,1365
    80005eb8:	00a59593          	slli	a1,a1,0xa
    80005ebc:	15558593          	addi	a1,a1,341
    80005ec0:	00b54633          	xor	a2,a0,a1
    80005ec4:	1ac0bc23          	sd	a2,440(ra)
    80005ec8:	002ab1b7          	lui	gp,0x2ab
    80005ecc:	aab1819b          	addiw	gp,gp,-1365 # 2aaaab <offset+0x2aa693>
    80005ed0:	00c19193          	slli	gp,gp,0xc
    80005ed4:	aaf18193          	addi	gp,gp,-1361
    80005ed8:	01019193          	slli	gp,gp,0x10
    80005edc:	28d18193          	addi	gp,gp,653
    80005ee0:	00d19193          	slli	gp,gp,0xd
    80005ee4:	66618193          	addi	gp,gp,1638
    80005ee8:	00c18463          	beq	gp,a2,80005ef0 <inst_344>
    80005eec:	938fa06f          	j	80000024 <rvtest_error>

0000000080005ef0 <inst_344>:
    80005ef0:	00000537          	lui	a0,0x0
    80005ef4:	00050513          	mv	a0,a0
    80005ef8:	00b51513          	slli	a0,a0,0xb
    80005efc:	5a850513          	addi	a0,a0,1448 # 5a8 <offset+0x190>
    80005f00:	00b51513          	slli	a0,a0,0xb
    80005f04:	13c50513          	addi	a0,a0,316
    80005f08:	00a51513          	slli	a0,a0,0xa
    80005f0c:	33350513          	addi	a0,a0,819
    80005f10:	aaaab5b7          	lui	a1,0xaaaab
    80005f14:	aaa58593          	addi	a1,a1,-1366 # ffffffffaaaaaaaa <absimm+0xfffffffeefd9cfda>
    80005f18:	00b59593          	slli	a1,a1,0xb
    80005f1c:	55558593          	addi	a1,a1,1365
    80005f20:	00b59593          	slli	a1,a1,0xb
    80005f24:	2aa58593          	addi	a1,a1,682
    80005f28:	00a59593          	slli	a1,a1,0xa
    80005f2c:	2aa58593          	addi	a1,a1,682
    80005f30:	00b54633          	xor	a2,a0,a1
    80005f34:	1cc0b023          	sd	a2,448(ra)
    80005f38:	ffd551b7          	lui	gp,0xffd55
    80005f3c:	5551819b          	addiw	gp,gp,1365 # ffffffffffd55555 <absimm+0xffffffff45047a85>
    80005f40:	00c19193          	slli	gp,gp,0xc
    80005f44:	55118193          	addi	gp,gp,1361
    80005f48:	01019193          	slli	gp,gp,0x10
    80005f4c:	d7318193          	addi	gp,gp,-653
    80005f50:	00d19193          	slli	gp,gp,0xd
    80005f54:	99918193          	addi	gp,gp,-1639
    80005f58:	00c18463          	beq	gp,a2,80005f60 <inst_345>
    80005f5c:	8c8fa06f          	j	80000024 <rvtest_error>

0000000080005f60 <inst_345>:
    80005f60:	00000537          	lui	a0,0x0
    80005f64:	00050513          	mv	a0,a0
    80005f68:	00b51513          	slli	a0,a0,0xb
    80005f6c:	5a850513          	addi	a0,a0,1448 # 5a8 <offset+0x190>
    80005f70:	00b51513          	slli	a0,a0,0xb
    80005f74:	13c50513          	addi	a0,a0,316
    80005f78:	00a51513          	slli	a0,a0,0xa
    80005f7c:	33350513          	addi	a0,a0,819
    80005f80:	00500593          	li	a1,5
    80005f84:	00b54633          	xor	a2,a0,a1
    80005f88:	1cc0b423          	sd	a2,456(ra)
    80005f8c:	000b51b7          	lui	gp,0xb5
    80005f90:	04f1819b          	addiw	gp,gp,79 # b504f <offset+0xb4c37>
    80005f94:	00c19193          	slli	gp,gp,0xc
    80005f98:	33618193          	addi	gp,gp,822
    80005f9c:	00c18463          	beq	gp,a2,80005fa4 <inst_346>
    80005fa0:	884fa06f          	j	80000024 <rvtest_error>

0000000080005fa4 <inst_346>:
    80005fa4:	00000537          	lui	a0,0x0
    80005fa8:	00050513          	mv	a0,a0
    80005fac:	00b51513          	slli	a0,a0,0xb
    80005fb0:	5a850513          	addi	a0,a0,1448 # 5a8 <offset+0x190>
    80005fb4:	00b51513          	slli	a0,a0,0xb
    80005fb8:	13c50513          	addi	a0,a0,316
    80005fbc:	00a51513          	slli	a0,a0,0xa
    80005fc0:	33350513          	addi	a0,a0,819
    80005fc4:	333335b7          	lui	a1,0x33333
    80005fc8:	33358593          	addi	a1,a1,819 # 33333333 <absimmsh+0x27862586>
    80005fcc:	00b59593          	slli	a1,a1,0xb
    80005fd0:	19958593          	addi	a1,a1,409
    80005fd4:	00b59593          	slli	a1,a1,0xb
    80005fd8:	4cc58593          	addi	a1,a1,1228
    80005fdc:	00a59593          	slli	a1,a1,0xa
    80005fe0:	33358593          	addi	a1,a1,819
    80005fe4:	00b54633          	xor	a2,a0,a1
    80005fe8:	1cc0b823          	sd	a2,464(ra)
    80005fec:	003331b7          	lui	gp,0x333
    80005ff0:	3331819b          	addiw	gp,gp,819 # 333333 <offset+0x332f1b>
    80005ff4:	00d19193          	slli	gp,gp,0xd
    80005ff8:	67118193          	addi	gp,gp,1649
    80005ffc:	00d19193          	slli	gp,gp,0xd
    80006000:	8df18193          	addi	gp,gp,-1825
    80006004:	00e19193          	slli	gp,gp,0xe
    80006008:	00c18463          	beq	gp,a2,80006010 <inst_347>
    8000600c:	818fa06f          	j	80000024 <rvtest_error>

0000000080006010 <inst_347>:
    80006010:	00000537          	lui	a0,0x0
    80006014:	00050513          	mv	a0,a0
    80006018:	00b51513          	slli	a0,a0,0xb
    8000601c:	5a850513          	addi	a0,a0,1448 # 5a8 <offset+0x190>
    80006020:	00b51513          	slli	a0,a0,0xb
    80006024:	13c50513          	addi	a0,a0,316
    80006028:	00a51513          	slli	a0,a0,0xa
    8000602c:	33350513          	addi	a0,a0,819
    80006030:	666665b7          	lui	a1,0x66666
    80006034:	66658593          	addi	a1,a1,1638 # 66666666 <absimmsh+0x5ab958b9>
    80006038:	00b59593          	slli	a1,a1,0xb
    8000603c:	33358593          	addi	a1,a1,819
    80006040:	00b59593          	slli	a1,a1,0xb
    80006044:	19958593          	addi	a1,a1,409
    80006048:	00a59593          	slli	a1,a1,0xa
    8000604c:	26658593          	addi	a1,a1,614
    80006050:	00b54633          	xor	a2,a0,a1
    80006054:	1cc0bc23          	sd	a2,472(ra)
    80006058:	033331b7          	lui	gp,0x3333
    8000605c:	3331819b          	addiw	gp,gp,819 # 3333333 <offset+0x3332f1b>
    80006060:	00d19193          	slli	gp,gp,0xd
    80006064:	6d318193          	addi	gp,gp,1747
    80006068:	00c19193          	slli	gp,gp,0xc
    8000606c:	62918193          	addi	gp,gp,1577
    80006070:	00c19193          	slli	gp,gp,0xc
    80006074:	55518193          	addi	gp,gp,1365
    80006078:	00c18463          	beq	gp,a2,80006080 <inst_348>
    8000607c:	fa9f906f          	j	80000024 <rvtest_error>

0000000080006080 <inst_348>:
    80006080:	00000537          	lui	a0,0x0
    80006084:	00050513          	mv	a0,a0
    80006088:	00b51513          	slli	a0,a0,0xb
    8000608c:	5a850513          	addi	a0,a0,1448 # 5a8 <offset+0x190>
    80006090:	00b51513          	slli	a0,a0,0xb
    80006094:	13c50513          	addi	a0,a0,316
    80006098:	00a51513          	slli	a0,a0,0xa
    8000609c:	33350513          	addi	a0,a0,819
    800060a0:	000005b7          	lui	a1,0x0
    800060a4:	fff58593          	addi	a1,a1,-1
    800060a8:	00b59593          	slli	a1,a1,0xb
    800060ac:	25758593          	addi	a1,a1,599
    800060b0:	00b59593          	slli	a1,a1,0xb
    800060b4:	6c358593          	addi	a1,a1,1731
    800060b8:	00a59593          	slli	a1,a1,0xa
    800060bc:	0cd58593          	addi	a1,a1,205
    800060c0:	00b54633          	xor	a2,a0,a1
    800060c4:	1ec0b023          	sd	a2,480(ra)
    800060c8:	ffe00193          	li	gp,-2
    800060cc:	00c18463          	beq	gp,a2,800060d4 <inst_349>
    800060d0:	f55f906f          	j	80000024 <rvtest_error>

00000000800060d4 <inst_349>:
    800060d4:	00000537          	lui	a0,0x0
    800060d8:	00050513          	mv	a0,a0
    800060dc:	00b51513          	slli	a0,a0,0xb
    800060e0:	5a850513          	addi	a0,a0,1448 # 5a8 <offset+0x190>
    800060e4:	00b51513          	slli	a0,a0,0xb
    800060e8:	13c50513          	addi	a0,a0,316
    800060ec:	00a51513          	slli	a0,a0,0xa
    800060f0:	33350513          	addi	a0,a0,819
    800060f4:	000005b7          	lui	a1,0x0
    800060f8:	00058593          	mv	a1,a1
    800060fc:	00b59593          	slli	a1,a1,0xb
    80006100:	5a858593          	addi	a1,a1,1448 # 5a8 <offset+0x190>
    80006104:	00b59593          	slli	a1,a1,0xb
    80006108:	13c58593          	addi	a1,a1,316
    8000610c:	00a59593          	slli	a1,a1,0xa
    80006110:	33358593          	addi	a1,a1,819
    80006114:	00b54633          	xor	a2,a0,a1
    80006118:	1ec0b423          	sd	a2,488(ra)
    8000611c:	00000193          	li	gp,0
    80006120:	00c18463          	beq	gp,a2,80006128 <inst_350>
    80006124:	f01f906f          	j	80000024 <rvtest_error>

0000000080006128 <inst_350>:
    80006128:	00000537          	lui	a0,0x0
    8000612c:	00050513          	mv	a0,a0
    80006130:	00b51513          	slli	a0,a0,0xb
    80006134:	5a850513          	addi	a0,a0,1448 # 5a8 <offset+0x190>
    80006138:	00b51513          	slli	a0,a0,0xb
    8000613c:	13c50513          	addi	a0,a0,316
    80006140:	00a51513          	slli	a0,a0,0xa
    80006144:	33350513          	addi	a0,a0,819
    80006148:	00200593          	li	a1,2
    8000614c:	00b54633          	xor	a2,a0,a1
    80006150:	1ec0b823          	sd	a2,496(ra)
    80006154:	000b51b7          	lui	gp,0xb5
    80006158:	04f1819b          	addiw	gp,gp,79 # b504f <offset+0xb4c37>
    8000615c:	00c19193          	slli	gp,gp,0xc
    80006160:	33118193          	addi	gp,gp,817
    80006164:	00c18463          	beq	gp,a2,8000616c <inst_351>
    80006168:	ebdf906f          	j	80000024 <rvtest_error>

000000008000616c <inst_351>:
    8000616c:	00000537          	lui	a0,0x0
    80006170:	00050513          	mv	a0,a0
    80006174:	00b51513          	slli	a0,a0,0xb
    80006178:	5a850513          	addi	a0,a0,1448 # 5a8 <offset+0x190>
    8000617c:	00b51513          	slli	a0,a0,0xb
    80006180:	13c50513          	addi	a0,a0,316
    80006184:	00a51513          	slli	a0,a0,0xa
    80006188:	33350513          	addi	a0,a0,819
    8000618c:	555555b7          	lui	a1,0x55555
    80006190:	55558593          	addi	a1,a1,1365 # 55555555 <absimmsh+0x49a847a8>
    80006194:	00b59593          	slli	a1,a1,0xb
    80006198:	2aa58593          	addi	a1,a1,682
    8000619c:	00b59593          	slli	a1,a1,0xb
    800061a0:	55558593          	addi	a1,a1,1365
    800061a4:	00a59593          	slli	a1,a1,0xa
    800061a8:	15458593          	addi	a1,a1,340
    800061ac:	00b54633          	xor	a2,a0,a1
    800061b0:	1ec0bc23          	sd	a2,504(ra)
    800061b4:	002ab1b7          	lui	gp,0x2ab
    800061b8:	aab1819b          	addiw	gp,gp,-1365 # 2aaaab <offset+0x2aa693>
    800061bc:	00c19193          	slli	gp,gp,0xc
    800061c0:	aaf18193          	addi	gp,gp,-1361
    800061c4:	01019193          	slli	gp,gp,0x10
    800061c8:	28d18193          	addi	gp,gp,653
    800061cc:	00d19193          	slli	gp,gp,0xd
    800061d0:	66718193          	addi	gp,gp,1639
    800061d4:	00c18463          	beq	gp,a2,800061dc <inst_352>
    800061d8:	e4df906f          	j	80000024 <rvtest_error>

00000000800061dc <inst_352>:
    800061dc:	00000537          	lui	a0,0x0
    800061e0:	00050513          	mv	a0,a0
    800061e4:	00b51513          	slli	a0,a0,0xb
    800061e8:	5a850513          	addi	a0,a0,1448 # 5a8 <offset+0x190>
    800061ec:	00b51513          	slli	a0,a0,0xb
    800061f0:	13c50513          	addi	a0,a0,316
    800061f4:	00a51513          	slli	a0,a0,0xa
    800061f8:	33350513          	addi	a0,a0,819
    800061fc:	00000593          	li	a1,0
    80006200:	00b54633          	xor	a2,a0,a1
    80006204:	20c0b023          	sd	a2,512(ra)
    80006208:	000b51b7          	lui	gp,0xb5
    8000620c:	04f1819b          	addiw	gp,gp,79 # b504f <offset+0xb4c37>
    80006210:	00c19193          	slli	gp,gp,0xc
    80006214:	33318193          	addi	gp,gp,819
    80006218:	00c18463          	beq	gp,a2,80006220 <inst_353>
    8000621c:	e09f906f          	j	80000024 <rvtest_error>

0000000080006220 <inst_353>:
    80006220:	00000537          	lui	a0,0x0
    80006224:	00050513          	mv	a0,a0
    80006228:	00b51513          	slli	a0,a0,0xb
    8000622c:	5a850513          	addi	a0,a0,1448 # 5a8 <offset+0x190>
    80006230:	00b51513          	slli	a0,a0,0xb
    80006234:	13c50513          	addi	a0,a0,316
    80006238:	00a51513          	slli	a0,a0,0xa
    8000623c:	33350513          	addi	a0,a0,819
    80006240:	00400593          	li	a1,4
    80006244:	00b54633          	xor	a2,a0,a1
    80006248:	20c0b423          	sd	a2,520(ra)
    8000624c:	000b51b7          	lui	gp,0xb5
    80006250:	04f1819b          	addiw	gp,gp,79 # b504f <offset+0xb4c37>
    80006254:	00c19193          	slli	gp,gp,0xc
    80006258:	33718193          	addi	gp,gp,823
    8000625c:	00c18463          	beq	gp,a2,80006264 <inst_354>
    80006260:	dc5f906f          	j	80000024 <rvtest_error>

0000000080006264 <inst_354>:
    80006264:	00000537          	lui	a0,0x0
    80006268:	00050513          	mv	a0,a0
    8000626c:	00b51513          	slli	a0,a0,0xb
    80006270:	5a850513          	addi	a0,a0,1448 # 5a8 <offset+0x190>
    80006274:	00b51513          	slli	a0,a0,0xb
    80006278:	13c50513          	addi	a0,a0,316
    8000627c:	00a51513          	slli	a0,a0,0xa
    80006280:	33350513          	addi	a0,a0,819
    80006284:	333335b7          	lui	a1,0x33333
    80006288:	33358593          	addi	a1,a1,819 # 33333333 <absimmsh+0x27862586>
    8000628c:	00b59593          	slli	a1,a1,0xb
    80006290:	19958593          	addi	a1,a1,409
    80006294:	00b59593          	slli	a1,a1,0xb
    80006298:	4cc58593          	addi	a1,a1,1228
    8000629c:	00a59593          	slli	a1,a1,0xa
    800062a0:	33258593          	addi	a1,a1,818
    800062a4:	00b54633          	xor	a2,a0,a1
    800062a8:	20c0b823          	sd	a2,528(ra)
    800062ac:	003331b7          	lui	gp,0x333
    800062b0:	3331819b          	addiw	gp,gp,819 # 333333 <offset+0x332f1b>
    800062b4:	00d19193          	slli	gp,gp,0xd
    800062b8:	67118193          	addi	gp,gp,1649
    800062bc:	00d19193          	slli	gp,gp,0xd
    800062c0:	8df18193          	addi	gp,gp,-1825
    800062c4:	00e19193          	slli	gp,gp,0xe
    800062c8:	00118193          	addi	gp,gp,1
    800062cc:	00c18463          	beq	gp,a2,800062d4 <inst_355>
    800062d0:	d55f906f          	j	80000024 <rvtest_error>

00000000800062d4 <inst_355>:
    800062d4:	00000537          	lui	a0,0x0
    800062d8:	00050513          	mv	a0,a0
    800062dc:	00b51513          	slli	a0,a0,0xb
    800062e0:	5a850513          	addi	a0,a0,1448 # 5a8 <offset+0x190>
    800062e4:	00b51513          	slli	a0,a0,0xb
    800062e8:	13c50513          	addi	a0,a0,316
    800062ec:	00a51513          	slli	a0,a0,0xa
    800062f0:	33350513          	addi	a0,a0,819
    800062f4:	666665b7          	lui	a1,0x66666
    800062f8:	66658593          	addi	a1,a1,1638 # 66666666 <absimmsh+0x5ab958b9>
    800062fc:	00b59593          	slli	a1,a1,0xb
    80006300:	33358593          	addi	a1,a1,819
    80006304:	00b59593          	slli	a1,a1,0xb
    80006308:	19958593          	addi	a1,a1,409
    8000630c:	00a59593          	slli	a1,a1,0xa
    80006310:	26558593          	addi	a1,a1,613
    80006314:	00b54633          	xor	a2,a0,a1
    80006318:	20c0bc23          	sd	a2,536(ra)
    8000631c:	033331b7          	lui	gp,0x3333
    80006320:	3331819b          	addiw	gp,gp,819 # 3333333 <offset+0x3332f1b>
    80006324:	00d19193          	slli	gp,gp,0xd
    80006328:	6d318193          	addi	gp,gp,1747
    8000632c:	00c19193          	slli	gp,gp,0xc
    80006330:	62918193          	addi	gp,gp,1577
    80006334:	00c19193          	slli	gp,gp,0xc
    80006338:	55618193          	addi	gp,gp,1366
    8000633c:	00c18463          	beq	gp,a2,80006344 <inst_356>
    80006340:	ce5f906f          	j	80000024 <rvtest_error>

0000000080006344 <inst_356>:
    80006344:	00000537          	lui	a0,0x0
    80006348:	00050513          	mv	a0,a0
    8000634c:	00b51513          	slli	a0,a0,0xb
    80006350:	5a850513          	addi	a0,a0,1448 # 5a8 <offset+0x190>
    80006354:	00b51513          	slli	a0,a0,0xb
    80006358:	13c50513          	addi	a0,a0,316
    8000635c:	00a51513          	slli	a0,a0,0xa
    80006360:	33350513          	addi	a0,a0,819
    80006364:	000005b7          	lui	a1,0x0
    80006368:	00058593          	mv	a1,a1
    8000636c:	00b59593          	slli	a1,a1,0xb
    80006370:	5a858593          	addi	a1,a1,1448 # 5a8 <offset+0x190>
    80006374:	00b59593          	slli	a1,a1,0xb
    80006378:	13c58593          	addi	a1,a1,316
    8000637c:	00a59593          	slli	a1,a1,0xa
    80006380:	33258593          	addi	a1,a1,818
    80006384:	00b54633          	xor	a2,a0,a1
    80006388:	22c0b023          	sd	a2,544(ra)
    8000638c:	00100193          	li	gp,1
    80006390:	00c18463          	beq	gp,a2,80006398 <inst_357>
    80006394:	c91f906f          	j	80000024 <rvtest_error>

0000000080006398 <inst_357>:
    80006398:	00000537          	lui	a0,0x0
    8000639c:	00050513          	mv	a0,a0
    800063a0:	00b51513          	slli	a0,a0,0xb
    800063a4:	5a850513          	addi	a0,a0,1448 # 5a8 <offset+0x190>
    800063a8:	00b51513          	slli	a0,a0,0xb
    800063ac:	13c50513          	addi	a0,a0,316
    800063b0:	00a51513          	slli	a0,a0,0xa
    800063b4:	33350513          	addi	a0,a0,819
    800063b8:	555555b7          	lui	a1,0x55555
    800063bc:	55558593          	addi	a1,a1,1365 # 55555555 <absimmsh+0x49a847a8>
    800063c0:	00b59593          	slli	a1,a1,0xb
    800063c4:	2aa58593          	addi	a1,a1,682
    800063c8:	00b59593          	slli	a1,a1,0xb
    800063cc:	55558593          	addi	a1,a1,1365
    800063d0:	00a59593          	slli	a1,a1,0xa
    800063d4:	15658593          	addi	a1,a1,342
    800063d8:	00b54633          	xor	a2,a0,a1
    800063dc:	22c0b423          	sd	a2,552(ra)
    800063e0:	002ab1b7          	lui	gp,0x2ab
    800063e4:	aab1819b          	addiw	gp,gp,-1365 # 2aaaab <offset+0x2aa693>
    800063e8:	00c19193          	slli	gp,gp,0xc
    800063ec:	aaf18193          	addi	gp,gp,-1361
    800063f0:	01019193          	slli	gp,gp,0x10
    800063f4:	28d18193          	addi	gp,gp,653
    800063f8:	00d19193          	slli	gp,gp,0xd
    800063fc:	66518193          	addi	gp,gp,1637
    80006400:	00c18463          	beq	gp,a2,80006408 <inst_358>
    80006404:	c21f906f          	j	80000024 <rvtest_error>

0000000080006408 <inst_358>:
    80006408:	00000537          	lui	a0,0x0
    8000640c:	00050513          	mv	a0,a0
    80006410:	00b51513          	slli	a0,a0,0xb
    80006414:	5a850513          	addi	a0,a0,1448 # 5a8 <offset+0x190>
    80006418:	00b51513          	slli	a0,a0,0xb
    8000641c:	13c50513          	addi	a0,a0,316
    80006420:	00a51513          	slli	a0,a0,0xa
    80006424:	33350513          	addi	a0,a0,819
    80006428:	aaaab5b7          	lui	a1,0xaaaab
    8000642c:	aaa58593          	addi	a1,a1,-1366 # ffffffffaaaaaaaa <absimm+0xfffffffeefd9cfda>
    80006430:	00b59593          	slli	a1,a1,0xb
    80006434:	55558593          	addi	a1,a1,1365
    80006438:	00b59593          	slli	a1,a1,0xb
    8000643c:	2aa58593          	addi	a1,a1,682
    80006440:	00a59593          	slli	a1,a1,0xa
    80006444:	2ab58593          	addi	a1,a1,683
    80006448:	00b54633          	xor	a2,a0,a1
    8000644c:	22c0b823          	sd	a2,560(ra)
    80006450:	ffd551b7          	lui	gp,0xffd55
    80006454:	5551819b          	addiw	gp,gp,1365 # ffffffffffd55555 <absimm+0xffffffff45047a85>
    80006458:	00c19193          	slli	gp,gp,0xc
    8000645c:	55118193          	addi	gp,gp,1361
    80006460:	01019193          	slli	gp,gp,0x10
    80006464:	d7318193          	addi	gp,gp,-653
    80006468:	00d19193          	slli	gp,gp,0xd
    8000646c:	99818193          	addi	gp,gp,-1640
    80006470:	00c18463          	beq	gp,a2,80006478 <inst_359>
    80006474:	bb1f906f          	j	80000024 <rvtest_error>

0000000080006478 <inst_359>:
    80006478:	00000537          	lui	a0,0x0
    8000647c:	00050513          	mv	a0,a0
    80006480:	00b51513          	slli	a0,a0,0xb
    80006484:	5a850513          	addi	a0,a0,1448 # 5a8 <offset+0x190>
    80006488:	00b51513          	slli	a0,a0,0xb
    8000648c:	13c50513          	addi	a0,a0,316
    80006490:	00a51513          	slli	a0,a0,0xa
    80006494:	33350513          	addi	a0,a0,819
    80006498:	00600593          	li	a1,6
    8000649c:	00b54633          	xor	a2,a0,a1
    800064a0:	22c0bc23          	sd	a2,568(ra)
    800064a4:	000b51b7          	lui	gp,0xb5
    800064a8:	04f1819b          	addiw	gp,gp,79 # b504f <offset+0xb4c37>
    800064ac:	00c19193          	slli	gp,gp,0xc
    800064b0:	33518193          	addi	gp,gp,821
    800064b4:	00c18463          	beq	gp,a2,800064bc <inst_360>
    800064b8:	b6df906f          	j	80000024 <rvtest_error>

00000000800064bc <inst_360>:
    800064bc:	00000537          	lui	a0,0x0
    800064c0:	00050513          	mv	a0,a0
    800064c4:	00b51513          	slli	a0,a0,0xb
    800064c8:	5a850513          	addi	a0,a0,1448 # 5a8 <offset+0x190>
    800064cc:	00b51513          	slli	a0,a0,0xb
    800064d0:	13c50513          	addi	a0,a0,316
    800064d4:	00a51513          	slli	a0,a0,0xa
    800064d8:	33350513          	addi	a0,a0,819
    800064dc:	333335b7          	lui	a1,0x33333
    800064e0:	33358593          	addi	a1,a1,819 # 33333333 <absimmsh+0x27862586>
    800064e4:	00b59593          	slli	a1,a1,0xb
    800064e8:	19958593          	addi	a1,a1,409
    800064ec:	00b59593          	slli	a1,a1,0xb
    800064f0:	4cc58593          	addi	a1,a1,1228
    800064f4:	00a59593          	slli	a1,a1,0xa
    800064f8:	33458593          	addi	a1,a1,820
    800064fc:	00b54633          	xor	a2,a0,a1
    80006500:	24c0b023          	sd	a2,576(ra)
    80006504:	003331b7          	lui	gp,0x333
    80006508:	3331819b          	addiw	gp,gp,819 # 333333 <offset+0x332f1b>
    8000650c:	00d19193          	slli	gp,gp,0xd
    80006510:	67118193          	addi	gp,gp,1649
    80006514:	00d19193          	slli	gp,gp,0xd
    80006518:	8df18193          	addi	gp,gp,-1825
    8000651c:	00e19193          	slli	gp,gp,0xe
    80006520:	00718193          	addi	gp,gp,7
    80006524:	00c18463          	beq	gp,a2,8000652c <inst_361>
    80006528:	afdf906f          	j	80000024 <rvtest_error>

000000008000652c <inst_361>:
    8000652c:	00000537          	lui	a0,0x0
    80006530:	00050513          	mv	a0,a0
    80006534:	00b51513          	slli	a0,a0,0xb
    80006538:	5a850513          	addi	a0,a0,1448 # 5a8 <offset+0x190>
    8000653c:	00b51513          	slli	a0,a0,0xb
    80006540:	13c50513          	addi	a0,a0,316
    80006544:	00a51513          	slli	a0,a0,0xa
    80006548:	33350513          	addi	a0,a0,819
    8000654c:	666665b7          	lui	a1,0x66666
    80006550:	66658593          	addi	a1,a1,1638 # 66666666 <absimmsh+0x5ab958b9>
    80006554:	00b59593          	slli	a1,a1,0xb
    80006558:	33358593          	addi	a1,a1,819
    8000655c:	00b59593          	slli	a1,a1,0xb
    80006560:	19958593          	addi	a1,a1,409
    80006564:	00a59593          	slli	a1,a1,0xa
    80006568:	26758593          	addi	a1,a1,615
    8000656c:	00b54633          	xor	a2,a0,a1
    80006570:	24c0b423          	sd	a2,584(ra)
    80006574:	033331b7          	lui	gp,0x3333
    80006578:	3331819b          	addiw	gp,gp,819 # 3333333 <offset+0x3332f1b>
    8000657c:	00d19193          	slli	gp,gp,0xd
    80006580:	6d318193          	addi	gp,gp,1747
    80006584:	00c19193          	slli	gp,gp,0xc
    80006588:	62918193          	addi	gp,gp,1577
    8000658c:	00c19193          	slli	gp,gp,0xc
    80006590:	55418193          	addi	gp,gp,1364
    80006594:	00c18463          	beq	gp,a2,8000659c <inst_362>
    80006598:	a8df906f          	j	80000024 <rvtest_error>

000000008000659c <inst_362>:
    8000659c:	00000537          	lui	a0,0x0
    800065a0:	00050513          	mv	a0,a0
    800065a4:	00b51513          	slli	a0,a0,0xb
    800065a8:	5a850513          	addi	a0,a0,1448 # 5a8 <offset+0x190>
    800065ac:	00b51513          	slli	a0,a0,0xb
    800065b0:	13c50513          	addi	a0,a0,316
    800065b4:	00a51513          	slli	a0,a0,0xa
    800065b8:	33350513          	addi	a0,a0,819
    800065bc:	000005b7          	lui	a1,0x0
    800065c0:	fff58593          	addi	a1,a1,-1
    800065c4:	00b59593          	slli	a1,a1,0xb
    800065c8:	25758593          	addi	a1,a1,599
    800065cc:	00b59593          	slli	a1,a1,0xb
    800065d0:	6c358593          	addi	a1,a1,1731
    800065d4:	00a59593          	slli	a1,a1,0xa
    800065d8:	0ce58593          	addi	a1,a1,206
    800065dc:	00b54633          	xor	a2,a0,a1
    800065e0:	24c0b823          	sd	a2,592(ra)
    800065e4:	ffd00193          	li	gp,-3
    800065e8:	00c18463          	beq	gp,a2,800065f0 <inst_363>
    800065ec:	a39f906f          	j	80000024 <rvtest_error>

00000000800065f0 <inst_363>:
    800065f0:	00000537          	lui	a0,0x0
    800065f4:	00050513          	mv	a0,a0
    800065f8:	00b51513          	slli	a0,a0,0xb
    800065fc:	5a850513          	addi	a0,a0,1448 # 5a8 <offset+0x190>
    80006600:	00b51513          	slli	a0,a0,0xb
    80006604:	13c50513          	addi	a0,a0,316
    80006608:	00a51513          	slli	a0,a0,0xa
    8000660c:	33350513          	addi	a0,a0,819
    80006610:	000005b7          	lui	a1,0x0
    80006614:	00058593          	mv	a1,a1
    80006618:	00b59593          	slli	a1,a1,0xb
    8000661c:	5a858593          	addi	a1,a1,1448 # 5a8 <offset+0x190>
    80006620:	00b59593          	slli	a1,a1,0xb
    80006624:	13c58593          	addi	a1,a1,316
    80006628:	00a59593          	slli	a1,a1,0xa
    8000662c:	33458593          	addi	a1,a1,820
    80006630:	00b54633          	xor	a2,a0,a1
    80006634:	24c0bc23          	sd	a2,600(ra)
    80006638:	00700193          	li	gp,7
    8000663c:	00c18463          	beq	gp,a2,80006644 <inst_364>
    80006640:	9e5f906f          	j	80000024 <rvtest_error>

0000000080006644 <inst_364>:
    80006644:	00200513          	li	a0,2
    80006648:	00300593          	li	a1,3
    8000664c:	00b54633          	xor	a2,a0,a1
    80006650:	26c0b023          	sd	a2,608(ra)
    80006654:	00100193          	li	gp,1
    80006658:	00c18463          	beq	gp,a2,80006660 <inst_365>
    8000665c:	9c9f906f          	j	80000024 <rvtest_error>

0000000080006660 <inst_365>:
    80006660:	00200513          	li	a0,2
    80006664:	555555b7          	lui	a1,0x55555
    80006668:	55558593          	addi	a1,a1,1365 # 55555555 <absimmsh+0x49a847a8>
    8000666c:	00b59593          	slli	a1,a1,0xb
    80006670:	2aa58593          	addi	a1,a1,682
    80006674:	00b59593          	slli	a1,a1,0xb
    80006678:	55558593          	addi	a1,a1,1365
    8000667c:	00a59593          	slli	a1,a1,0xa
    80006680:	15558593          	addi	a1,a1,341
    80006684:	00b54633          	xor	a2,a0,a1
    80006688:	26c0b423          	sd	a2,616(ra)
    8000668c:	055551b7          	lui	gp,0x5555
    80006690:	5551819b          	addiw	gp,gp,1365 # 5555555 <offset+0x555513d>
    80006694:	00c19193          	slli	gp,gp,0xc
    80006698:	55518193          	addi	gp,gp,1365
    8000669c:	00c19193          	slli	gp,gp,0xc
    800066a0:	55518193          	addi	gp,gp,1365
    800066a4:	00c19193          	slli	gp,gp,0xc
    800066a8:	55718193          	addi	gp,gp,1367
    800066ac:	00c18463          	beq	gp,a2,800066b4 <inst_366>
    800066b0:	975f906f          	j	80000024 <rvtest_error>

00000000800066b4 <inst_366>:
    800066b4:	00200513          	li	a0,2
    800066b8:	aaaab5b7          	lui	a1,0xaaaab
    800066bc:	aaa58593          	addi	a1,a1,-1366 # ffffffffaaaaaaaa <absimm+0xfffffffeefd9cfda>
    800066c0:	00b59593          	slli	a1,a1,0xb
    800066c4:	55558593          	addi	a1,a1,1365
    800066c8:	00b59593          	slli	a1,a1,0xb
    800066cc:	2aa58593          	addi	a1,a1,682
    800066d0:	00a59593          	slli	a1,a1,0xa
    800066d4:	2aa58593          	addi	a1,a1,682
    800066d8:	00b54633          	xor	a2,a0,a1
    800066dc:	26c0b823          	sd	a2,624(ra)
    800066e0:	faaab1b7          	lui	gp,0xfaaab
    800066e4:	aab1819b          	addiw	gp,gp,-1365 # fffffffffaaaaaab <absimm+0xffffffff3fd9cfdb>
    800066e8:	00c19193          	slli	gp,gp,0xc
    800066ec:	aab18193          	addi	gp,gp,-1365
    800066f0:	00c19193          	slli	gp,gp,0xc
    800066f4:	aab18193          	addi	gp,gp,-1365
    800066f8:	00c19193          	slli	gp,gp,0xc
    800066fc:	aa818193          	addi	gp,gp,-1368
    80006700:	00c18463          	beq	gp,a2,80006708 <inst_367>
    80006704:	921f906f          	j	80000024 <rvtest_error>

0000000080006708 <inst_367>:
    80006708:	00200513          	li	a0,2
    8000670c:	00500593          	li	a1,5
    80006710:	00b54633          	xor	a2,a0,a1
    80006714:	26c0bc23          	sd	a2,632(ra)
    80006718:	00700193          	li	gp,7
    8000671c:	00c18463          	beq	gp,a2,80006724 <inst_368>
    80006720:	905f906f          	j	80000024 <rvtest_error>

0000000080006724 <inst_368>:
    80006724:	00200513          	li	a0,2
    80006728:	333335b7          	lui	a1,0x33333
    8000672c:	33358593          	addi	a1,a1,819 # 33333333 <absimmsh+0x27862586>
    80006730:	00b59593          	slli	a1,a1,0xb
    80006734:	19958593          	addi	a1,a1,409
    80006738:	00b59593          	slli	a1,a1,0xb
    8000673c:	4cc58593          	addi	a1,a1,1228
    80006740:	00a59593          	slli	a1,a1,0xa
    80006744:	33358593          	addi	a1,a1,819
    80006748:	00b54633          	xor	a2,a0,a1
    8000674c:	28c0b023          	sd	a2,640(ra)
    80006750:	033331b7          	lui	gp,0x3333
    80006754:	3331819b          	addiw	gp,gp,819 # 3333333 <offset+0x3332f1b>
    80006758:	00c19193          	slli	gp,gp,0xc
    8000675c:	33318193          	addi	gp,gp,819
    80006760:	00c19193          	slli	gp,gp,0xc
    80006764:	33318193          	addi	gp,gp,819
    80006768:	00c19193          	slli	gp,gp,0xc
    8000676c:	33118193          	addi	gp,gp,817
    80006770:	00c18463          	beq	gp,a2,80006778 <inst_369>
    80006774:	8b1f906f          	j	80000024 <rvtest_error>

0000000080006778 <inst_369>:
    80006778:	00200513          	li	a0,2
    8000677c:	666665b7          	lui	a1,0x66666
    80006780:	66658593          	addi	a1,a1,1638 # 66666666 <absimmsh+0x5ab958b9>
    80006784:	00b59593          	slli	a1,a1,0xb
    80006788:	33358593          	addi	a1,a1,819
    8000678c:	00b59593          	slli	a1,a1,0xb
    80006790:	19958593          	addi	a1,a1,409
    80006794:	00a59593          	slli	a1,a1,0xa
    80006798:	26658593          	addi	a1,a1,614
    8000679c:	00b54633          	xor	a2,a0,a1
    800067a0:	28c0b423          	sd	a2,648(ra)
    800067a4:	033331b7          	lui	gp,0x3333
    800067a8:	3331819b          	addiw	gp,gp,819 # 3333333 <offset+0x3332f1b>
    800067ac:	00c19193          	slli	gp,gp,0xc
    800067b0:	33318193          	addi	gp,gp,819
    800067b4:	00c19193          	slli	gp,gp,0xc
    800067b8:	33318193          	addi	gp,gp,819
    800067bc:	00d19193          	slli	gp,gp,0xd
    800067c0:	66418193          	addi	gp,gp,1636
    800067c4:	00c18463          	beq	gp,a2,800067cc <inst_370>
    800067c8:	85df906f          	j	80000024 <rvtest_error>

00000000800067cc <inst_370>:
    800067cc:	00200513          	li	a0,2
    800067d0:	000005b7          	lui	a1,0x0
    800067d4:	fff58593          	addi	a1,a1,-1
    800067d8:	00b59593          	slli	a1,a1,0xb
    800067dc:	25758593          	addi	a1,a1,599
    800067e0:	00b59593          	slli	a1,a1,0xb
    800067e4:	6c358593          	addi	a1,a1,1731
    800067e8:	00a59593          	slli	a1,a1,0xa
    800067ec:	0cd58593          	addi	a1,a1,205
    800067f0:	00b54633          	xor	a2,a0,a1
    800067f4:	28c0b823          	sd	a2,656(ra)
    800067f8:	fff4b1b7          	lui	gp,0xfff4b
    800067fc:	fb11819b          	addiw	gp,gp,-79 # fffffffffff4afb1 <absimm+0xffffffff4523d4e1>
    80006800:	00c19193          	slli	gp,gp,0xc
    80006804:	ccf18193          	addi	gp,gp,-817
    80006808:	00c18463          	beq	gp,a2,80006810 <inst_371>
    8000680c:	819f906f          	j	80000024 <rvtest_error>

0000000080006810 <inst_371>:
    80006810:	00200513          	li	a0,2
    80006814:	000005b7          	lui	a1,0x0
    80006818:	00058593          	mv	a1,a1
    8000681c:	00b59593          	slli	a1,a1,0xb
    80006820:	5a858593          	addi	a1,a1,1448 # 5a8 <offset+0x190>
    80006824:	00b59593          	slli	a1,a1,0xb
    80006828:	13c58593          	addi	a1,a1,316
    8000682c:	00a59593          	slli	a1,a1,0xa
    80006830:	33358593          	addi	a1,a1,819
    80006834:	00b54633          	xor	a2,a0,a1
    80006838:	28c0bc23          	sd	a2,664(ra)
    8000683c:	000b51b7          	lui	gp,0xb5
    80006840:	04f1819b          	addiw	gp,gp,79 # b504f <offset+0xb4c37>
    80006844:	00c19193          	slli	gp,gp,0xc
    80006848:	33118193          	addi	gp,gp,817
    8000684c:	00c18463          	beq	gp,a2,80006854 <inst_372>
    80006850:	fd4f906f          	j	80000024 <rvtest_error>

0000000080006854 <inst_372>:
    80006854:	00200513          	li	a0,2
    80006858:	00200593          	li	a1,2
    8000685c:	00b54633          	xor	a2,a0,a1
    80006860:	2ac0b023          	sd	a2,672(ra)
    80006864:	00000193          	li	gp,0
    80006868:	00c18463          	beq	gp,a2,80006870 <inst_373>
    8000686c:	fb8f906f          	j	80000024 <rvtest_error>

0000000080006870 <inst_373>:
    80006870:	00200513          	li	a0,2
    80006874:	555555b7          	lui	a1,0x55555
    80006878:	55558593          	addi	a1,a1,1365 # 55555555 <absimmsh+0x49a847a8>
    8000687c:	00b59593          	slli	a1,a1,0xb
    80006880:	2aa58593          	addi	a1,a1,682
    80006884:	00b59593          	slli	a1,a1,0xb
    80006888:	55558593          	addi	a1,a1,1365
    8000688c:	00a59593          	slli	a1,a1,0xa
    80006890:	15458593          	addi	a1,a1,340
    80006894:	00b54633          	xor	a2,a0,a1
    80006898:	2ac0b423          	sd	a2,680(ra)
    8000689c:	055551b7          	lui	gp,0x5555
    800068a0:	5551819b          	addiw	gp,gp,1365 # 5555555 <offset+0x555513d>
    800068a4:	00c19193          	slli	gp,gp,0xc
    800068a8:	55518193          	addi	gp,gp,1365
    800068ac:	00c19193          	slli	gp,gp,0xc
    800068b0:	55518193          	addi	gp,gp,1365
    800068b4:	00c19193          	slli	gp,gp,0xc
    800068b8:	55618193          	addi	gp,gp,1366
    800068bc:	00c18463          	beq	gp,a2,800068c4 <inst_374>
    800068c0:	f64f906f          	j	80000024 <rvtest_error>

00000000800068c4 <inst_374>:
    800068c4:	00200513          	li	a0,2
    800068c8:	00400593          	li	a1,4
    800068cc:	00b54633          	xor	a2,a0,a1
    800068d0:	2ac0b823          	sd	a2,688(ra)
    800068d4:	00600193          	li	gp,6
    800068d8:	00c18463          	beq	gp,a2,800068e0 <inst_375>
    800068dc:	f48f906f          	j	80000024 <rvtest_error>

00000000800068e0 <inst_375>:
    800068e0:	00200513          	li	a0,2
    800068e4:	333335b7          	lui	a1,0x33333
    800068e8:	33358593          	addi	a1,a1,819 # 33333333 <absimmsh+0x27862586>
    800068ec:	00b59593          	slli	a1,a1,0xb
    800068f0:	19958593          	addi	a1,a1,409
    800068f4:	00b59593          	slli	a1,a1,0xb
    800068f8:	4cc58593          	addi	a1,a1,1228
    800068fc:	00a59593          	slli	a1,a1,0xa
    80006900:	33258593          	addi	a1,a1,818
    80006904:	00b54633          	xor	a2,a0,a1
    80006908:	2ac0bc23          	sd	a2,696(ra)
    8000690c:	033331b7          	lui	gp,0x3333
    80006910:	3331819b          	addiw	gp,gp,819 # 3333333 <offset+0x3332f1b>
    80006914:	00c19193          	slli	gp,gp,0xc
    80006918:	33318193          	addi	gp,gp,819
    8000691c:	00c19193          	slli	gp,gp,0xc
    80006920:	33318193          	addi	gp,gp,819
    80006924:	00c19193          	slli	gp,gp,0xc
    80006928:	33018193          	addi	gp,gp,816
    8000692c:	00c18463          	beq	gp,a2,80006934 <inst_376>
    80006930:	ef4f906f          	j	80000024 <rvtest_error>

0000000080006934 <inst_376>:
    80006934:	00200513          	li	a0,2
    80006938:	666665b7          	lui	a1,0x66666
    8000693c:	66658593          	addi	a1,a1,1638 # 66666666 <absimmsh+0x5ab958b9>
    80006940:	00b59593          	slli	a1,a1,0xb
    80006944:	33358593          	addi	a1,a1,819
    80006948:	00b59593          	slli	a1,a1,0xb
    8000694c:	19958593          	addi	a1,a1,409
    80006950:	00a59593          	slli	a1,a1,0xa
    80006954:	26558593          	addi	a1,a1,613
    80006958:	00b54633          	xor	a2,a0,a1
    8000695c:	2cc0b023          	sd	a2,704(ra)
    80006960:	033331b7          	lui	gp,0x3333
    80006964:	3331819b          	addiw	gp,gp,819 # 3333333 <offset+0x3332f1b>
    80006968:	00c19193          	slli	gp,gp,0xc
    8000696c:	33318193          	addi	gp,gp,819
    80006970:	00c19193          	slli	gp,gp,0xc
    80006974:	33318193          	addi	gp,gp,819
    80006978:	00d19193          	slli	gp,gp,0xd
    8000697c:	66718193          	addi	gp,gp,1639
    80006980:	00c18463          	beq	gp,a2,80006988 <inst_377>
    80006984:	ea0f906f          	j	80000024 <rvtest_error>

0000000080006988 <inst_377>:
    80006988:	00200513          	li	a0,2
    8000698c:	000005b7          	lui	a1,0x0
    80006990:	00058593          	mv	a1,a1
    80006994:	00b59593          	slli	a1,a1,0xb
    80006998:	5a858593          	addi	a1,a1,1448 # 5a8 <offset+0x190>
    8000699c:	00b59593          	slli	a1,a1,0xb
    800069a0:	13c58593          	addi	a1,a1,316
    800069a4:	00a59593          	slli	a1,a1,0xa
    800069a8:	33258593          	addi	a1,a1,818
    800069ac:	00b54633          	xor	a2,a0,a1
    800069b0:	2cc0b423          	sd	a2,712(ra)
    800069b4:	000b51b7          	lui	gp,0xb5
    800069b8:	04f1819b          	addiw	gp,gp,79 # b504f <offset+0xb4c37>
    800069bc:	00c19193          	slli	gp,gp,0xc
    800069c0:	33018193          	addi	gp,gp,816
    800069c4:	00c18463          	beq	gp,a2,800069cc <inst_378>
    800069c8:	e5cf906f          	j	80000024 <rvtest_error>

00000000800069cc <inst_378>:
    800069cc:	00200513          	li	a0,2
    800069d0:	555555b7          	lui	a1,0x55555
    800069d4:	55558593          	addi	a1,a1,1365 # 55555555 <absimmsh+0x49a847a8>
    800069d8:	00b59593          	slli	a1,a1,0xb
    800069dc:	2aa58593          	addi	a1,a1,682
    800069e0:	00b59593          	slli	a1,a1,0xb
    800069e4:	55558593          	addi	a1,a1,1365
    800069e8:	00a59593          	slli	a1,a1,0xa
    800069ec:	15658593          	addi	a1,a1,342
    800069f0:	00b54633          	xor	a2,a0,a1
    800069f4:	2cc0b823          	sd	a2,720(ra)
    800069f8:	055551b7          	lui	gp,0x5555
    800069fc:	5551819b          	addiw	gp,gp,1365 # 5555555 <offset+0x555513d>
    80006a00:	00c19193          	slli	gp,gp,0xc
    80006a04:	55518193          	addi	gp,gp,1365
    80006a08:	00c19193          	slli	gp,gp,0xc
    80006a0c:	55518193          	addi	gp,gp,1365
    80006a10:	00c19193          	slli	gp,gp,0xc
    80006a14:	55418193          	addi	gp,gp,1364
    80006a18:	00c18463          	beq	gp,a2,80006a20 <inst_379>
    80006a1c:	e08f906f          	j	80000024 <rvtest_error>

0000000080006a20 <inst_379>:
    80006a20:	00200513          	li	a0,2
    80006a24:	aaaab5b7          	lui	a1,0xaaaab
    80006a28:	aaa58593          	addi	a1,a1,-1366 # ffffffffaaaaaaaa <absimm+0xfffffffeefd9cfda>
    80006a2c:	00b59593          	slli	a1,a1,0xb
    80006a30:	55558593          	addi	a1,a1,1365
    80006a34:	00b59593          	slli	a1,a1,0xb
    80006a38:	2aa58593          	addi	a1,a1,682
    80006a3c:	00a59593          	slli	a1,a1,0xa
    80006a40:	2ab58593          	addi	a1,a1,683
    80006a44:	00b54633          	xor	a2,a0,a1
    80006a48:	2cc0bc23          	sd	a2,728(ra)
    80006a4c:	faaab1b7          	lui	gp,0xfaaab
    80006a50:	aab1819b          	addiw	gp,gp,-1365 # fffffffffaaaaaab <absimm+0xffffffff3fd9cfdb>
    80006a54:	00c19193          	slli	gp,gp,0xc
    80006a58:	aab18193          	addi	gp,gp,-1365
    80006a5c:	00c19193          	slli	gp,gp,0xc
    80006a60:	aab18193          	addi	gp,gp,-1365
    80006a64:	00c19193          	slli	gp,gp,0xc
    80006a68:	aa918193          	addi	gp,gp,-1367
    80006a6c:	00c18463          	beq	gp,a2,80006a74 <inst_380>
    80006a70:	db4f906f          	j	80000024 <rvtest_error>

0000000080006a74 <inst_380>:
    80006a74:	00200513          	li	a0,2
    80006a78:	00600593          	li	a1,6
    80006a7c:	00b54633          	xor	a2,a0,a1
    80006a80:	2ec0b023          	sd	a2,736(ra)
    80006a84:	00400193          	li	gp,4
    80006a88:	00c18463          	beq	gp,a2,80006a90 <inst_381>
    80006a8c:	d98f906f          	j	80000024 <rvtest_error>

0000000080006a90 <inst_381>:
    80006a90:	00200513          	li	a0,2
    80006a94:	333335b7          	lui	a1,0x33333
    80006a98:	33358593          	addi	a1,a1,819 # 33333333 <absimmsh+0x27862586>
    80006a9c:	00b59593          	slli	a1,a1,0xb
    80006aa0:	19958593          	addi	a1,a1,409
    80006aa4:	00b59593          	slli	a1,a1,0xb
    80006aa8:	4cc58593          	addi	a1,a1,1228
    80006aac:	00a59593          	slli	a1,a1,0xa
    80006ab0:	33458593          	addi	a1,a1,820
    80006ab4:	00b54633          	xor	a2,a0,a1
    80006ab8:	2ec0b423          	sd	a2,744(ra)
    80006abc:	033331b7          	lui	gp,0x3333
    80006ac0:	3331819b          	addiw	gp,gp,819 # 3333333 <offset+0x3332f1b>
    80006ac4:	00c19193          	slli	gp,gp,0xc
    80006ac8:	33318193          	addi	gp,gp,819
    80006acc:	00c19193          	slli	gp,gp,0xc
    80006ad0:	33318193          	addi	gp,gp,819
    80006ad4:	00c19193          	slli	gp,gp,0xc
    80006ad8:	33618193          	addi	gp,gp,822
    80006adc:	00c18463          	beq	gp,a2,80006ae4 <inst_382>
    80006ae0:	d44f906f          	j	80000024 <rvtest_error>

0000000080006ae4 <inst_382>:
    80006ae4:	00200513          	li	a0,2
    80006ae8:	666665b7          	lui	a1,0x66666
    80006aec:	66658593          	addi	a1,a1,1638 # 66666666 <absimmsh+0x5ab958b9>
    80006af0:	00b59593          	slli	a1,a1,0xb
    80006af4:	33358593          	addi	a1,a1,819
    80006af8:	00b59593          	slli	a1,a1,0xb
    80006afc:	19958593          	addi	a1,a1,409
    80006b00:	00a59593          	slli	a1,a1,0xa
    80006b04:	26758593          	addi	a1,a1,615
    80006b08:	00b54633          	xor	a2,a0,a1
    80006b0c:	2ec0b823          	sd	a2,752(ra)
    80006b10:	033331b7          	lui	gp,0x3333
    80006b14:	3331819b          	addiw	gp,gp,819 # 3333333 <offset+0x3332f1b>
    80006b18:	00c19193          	slli	gp,gp,0xc
    80006b1c:	33318193          	addi	gp,gp,819
    80006b20:	00c19193          	slli	gp,gp,0xc
    80006b24:	33318193          	addi	gp,gp,819
    80006b28:	00d19193          	slli	gp,gp,0xd
    80006b2c:	66518193          	addi	gp,gp,1637
    80006b30:	00c18463          	beq	gp,a2,80006b38 <inst_383>
    80006b34:	cf0f906f          	j	80000024 <rvtest_error>

0000000080006b38 <inst_383>:
    80006b38:	00200513          	li	a0,2
    80006b3c:	000005b7          	lui	a1,0x0
    80006b40:	fff58593          	addi	a1,a1,-1
    80006b44:	00b59593          	slli	a1,a1,0xb
    80006b48:	25758593          	addi	a1,a1,599
    80006b4c:	00b59593          	slli	a1,a1,0xb
    80006b50:	6c358593          	addi	a1,a1,1731
    80006b54:	00a59593          	slli	a1,a1,0xa
    80006b58:	0ce58593          	addi	a1,a1,206
    80006b5c:	00b54633          	xor	a2,a0,a1
    80006b60:	2ec0bc23          	sd	a2,760(ra)
    80006b64:	fff4b1b7          	lui	gp,0xfff4b
    80006b68:	fb11819b          	addiw	gp,gp,-79 # fffffffffff4afb1 <absimm+0xffffffff4523d4e1>
    80006b6c:	00c19193          	slli	gp,gp,0xc
    80006b70:	ccc18193          	addi	gp,gp,-820
    80006b74:	00c18463          	beq	gp,a2,80006b7c <inst_384>
    80006b78:	cacf906f          	j	80000024 <rvtest_error>

0000000080006b7c <inst_384>:
    80006b7c:	00200513          	li	a0,2
    80006b80:	000005b7          	lui	a1,0x0
    80006b84:	00058593          	mv	a1,a1
    80006b88:	00b59593          	slli	a1,a1,0xb
    80006b8c:	5a858593          	addi	a1,a1,1448 # 5a8 <offset+0x190>
    80006b90:	00b59593          	slli	a1,a1,0xb
    80006b94:	13c58593          	addi	a1,a1,316
    80006b98:	00a59593          	slli	a1,a1,0xa
    80006b9c:	33458593          	addi	a1,a1,820
    80006ba0:	00b54633          	xor	a2,a0,a1
    80006ba4:	30c0b023          	sd	a2,768(ra)
    80006ba8:	000b51b7          	lui	gp,0xb5
    80006bac:	04f1819b          	addiw	gp,gp,79 # b504f <offset+0xb4c37>
    80006bb0:	00c19193          	slli	gp,gp,0xc
    80006bb4:	33618193          	addi	gp,gp,822
    80006bb8:	00c18463          	beq	gp,a2,80006bc0 <inst_385>
    80006bbc:	c68f906f          	j	80000024 <rvtest_error>

0000000080006bc0 <inst_385>:
    80006bc0:	55555537          	lui	a0,0x55555
    80006bc4:	55550513          	addi	a0,a0,1365 # 55555555 <absimmsh+0x49a847a8>
    80006bc8:	00b51513          	slli	a0,a0,0xb
    80006bcc:	2aa50513          	addi	a0,a0,682
    80006bd0:	00b51513          	slli	a0,a0,0xb
    80006bd4:	55550513          	addi	a0,a0,1365
    80006bd8:	00a51513          	slli	a0,a0,0xa
    80006bdc:	15450513          	addi	a0,a0,340
    80006be0:	00300593          	li	a1,3
    80006be4:	00b54633          	xor	a2,a0,a1
    80006be8:	30c0b423          	sd	a2,776(ra)
    80006bec:	055551b7          	lui	gp,0x5555
    80006bf0:	5551819b          	addiw	gp,gp,1365 # 5555555 <offset+0x555513d>
    80006bf4:	00c19193          	slli	gp,gp,0xc
    80006bf8:	55518193          	addi	gp,gp,1365
    80006bfc:	00c19193          	slli	gp,gp,0xc
    80006c00:	55518193          	addi	gp,gp,1365
    80006c04:	00c19193          	slli	gp,gp,0xc
    80006c08:	55718193          	addi	gp,gp,1367
    80006c0c:	00c18463          	beq	gp,a2,80006c14 <inst_386>
    80006c10:	c14f906f          	j	80000024 <rvtest_error>

0000000080006c14 <inst_386>:
    80006c14:	55555537          	lui	a0,0x55555
    80006c18:	55550513          	addi	a0,a0,1365 # 55555555 <absimmsh+0x49a847a8>
    80006c1c:	00b51513          	slli	a0,a0,0xb
    80006c20:	2aa50513          	addi	a0,a0,682
    80006c24:	00b51513          	slli	a0,a0,0xb
    80006c28:	55550513          	addi	a0,a0,1365
    80006c2c:	00a51513          	slli	a0,a0,0xa
    80006c30:	15450513          	addi	a0,a0,340
    80006c34:	555555b7          	lui	a1,0x55555
    80006c38:	55558593          	addi	a1,a1,1365 # 55555555 <absimmsh+0x49a847a8>
    80006c3c:	00b59593          	slli	a1,a1,0xb
    80006c40:	2aa58593          	addi	a1,a1,682
    80006c44:	00b59593          	slli	a1,a1,0xb
    80006c48:	55558593          	addi	a1,a1,1365
    80006c4c:	00a59593          	slli	a1,a1,0xa
    80006c50:	15558593          	addi	a1,a1,341
    80006c54:	00b54633          	xor	a2,a0,a1
    80006c58:	30c0b823          	sd	a2,784(ra)
    80006c5c:	00100193          	li	gp,1
    80006c60:	00c18463          	beq	gp,a2,80006c68 <inst_387>
    80006c64:	bc0f906f          	j	80000024 <rvtest_error>

0000000080006c68 <inst_387>:
    80006c68:	55555537          	lui	a0,0x55555
    80006c6c:	55550513          	addi	a0,a0,1365 # 55555555 <absimmsh+0x49a847a8>
    80006c70:	00b51513          	slli	a0,a0,0xb
    80006c74:	2aa50513          	addi	a0,a0,682
    80006c78:	00b51513          	slli	a0,a0,0xb
    80006c7c:	55550513          	addi	a0,a0,1365
    80006c80:	00a51513          	slli	a0,a0,0xa
    80006c84:	15450513          	addi	a0,a0,340
    80006c88:	aaaab5b7          	lui	a1,0xaaaab
    80006c8c:	aaa58593          	addi	a1,a1,-1366 # ffffffffaaaaaaaa <absimm+0xfffffffeefd9cfda>
    80006c90:	00b59593          	slli	a1,a1,0xb
    80006c94:	55558593          	addi	a1,a1,1365
    80006c98:	00b59593          	slli	a1,a1,0xb
    80006c9c:	2aa58593          	addi	a1,a1,682
    80006ca0:	00a59593          	slli	a1,a1,0xa
    80006ca4:	2aa58593          	addi	a1,a1,682
    80006ca8:	00b54633          	xor	a2,a0,a1
    80006cac:	30c0bc23          	sd	a2,792(ra)
    80006cb0:	ffe00193          	li	gp,-2
    80006cb4:	00c18463          	beq	gp,a2,80006cbc <inst_388>
    80006cb8:	b6cf906f          	j	80000024 <rvtest_error>

0000000080006cbc <inst_388>:
    80006cbc:	55555537          	lui	a0,0x55555
    80006cc0:	55550513          	addi	a0,a0,1365 # 55555555 <absimmsh+0x49a847a8>
    80006cc4:	00b51513          	slli	a0,a0,0xb
    80006cc8:	2aa50513          	addi	a0,a0,682
    80006ccc:	00b51513          	slli	a0,a0,0xb
    80006cd0:	55550513          	addi	a0,a0,1365
    80006cd4:	00a51513          	slli	a0,a0,0xa
    80006cd8:	15450513          	addi	a0,a0,340
    80006cdc:	00500593          	li	a1,5
    80006ce0:	00b54633          	xor	a2,a0,a1
    80006ce4:	32c0b023          	sd	a2,800(ra)
    80006ce8:	055551b7          	lui	gp,0x5555
    80006cec:	5551819b          	addiw	gp,gp,1365 # 5555555 <offset+0x555513d>
    80006cf0:	00c19193          	slli	gp,gp,0xc
    80006cf4:	55518193          	addi	gp,gp,1365
    80006cf8:	00c19193          	slli	gp,gp,0xc
    80006cfc:	55518193          	addi	gp,gp,1365
    80006d00:	00c19193          	slli	gp,gp,0xc
    80006d04:	55118193          	addi	gp,gp,1361
    80006d08:	00c18463          	beq	gp,a2,80006d10 <inst_389>
    80006d0c:	b18f906f          	j	80000024 <rvtest_error>

0000000080006d10 <inst_389>:
    80006d10:	55555537          	lui	a0,0x55555
    80006d14:	55550513          	addi	a0,a0,1365 # 55555555 <absimmsh+0x49a847a8>
    80006d18:	00b51513          	slli	a0,a0,0xb
    80006d1c:	2aa50513          	addi	a0,a0,682
    80006d20:	00b51513          	slli	a0,a0,0xb
    80006d24:	55550513          	addi	a0,a0,1365
    80006d28:	00a51513          	slli	a0,a0,0xa
    80006d2c:	15450513          	addi	a0,a0,340
    80006d30:	333335b7          	lui	a1,0x33333
    80006d34:	33358593          	addi	a1,a1,819 # 33333333 <absimmsh+0x27862586>
    80006d38:	00b59593          	slli	a1,a1,0xb
    80006d3c:	19958593          	addi	a1,a1,409
    80006d40:	00b59593          	slli	a1,a1,0xb
    80006d44:	4cc58593          	addi	a1,a1,1228
    80006d48:	00a59593          	slli	a1,a1,0xa
    80006d4c:	33358593          	addi	a1,a1,819
    80006d50:	00b54633          	xor	a2,a0,a1
    80006d54:	32c0b423          	sd	a2,808(ra)
    80006d58:	033331b7          	lui	gp,0x3333
    80006d5c:	3331819b          	addiw	gp,gp,819 # 3333333 <offset+0x3332f1b>
    80006d60:	00c19193          	slli	gp,gp,0xc
    80006d64:	33318193          	addi	gp,gp,819
    80006d68:	00c19193          	slli	gp,gp,0xc
    80006d6c:	33318193          	addi	gp,gp,819
    80006d70:	00d19193          	slli	gp,gp,0xd
    80006d74:	66718193          	addi	gp,gp,1639
    80006d78:	00c18463          	beq	gp,a2,80006d80 <inst_390>
    80006d7c:	aa8f906f          	j	80000024 <rvtest_error>

0000000080006d80 <inst_390>:
    80006d80:	55555537          	lui	a0,0x55555
    80006d84:	55550513          	addi	a0,a0,1365 # 55555555 <absimmsh+0x49a847a8>
    80006d88:	00b51513          	slli	a0,a0,0xb
    80006d8c:	2aa50513          	addi	a0,a0,682
    80006d90:	00b51513          	slli	a0,a0,0xb
    80006d94:	55550513          	addi	a0,a0,1365
    80006d98:	00a51513          	slli	a0,a0,0xa
    80006d9c:	15450513          	addi	a0,a0,340
    80006da0:	666665b7          	lui	a1,0x66666
    80006da4:	66658593          	addi	a1,a1,1638 # 66666666 <absimmsh+0x5ab958b9>
    80006da8:	00b59593          	slli	a1,a1,0xb
    80006dac:	33358593          	addi	a1,a1,819
    80006db0:	00b59593          	slli	a1,a1,0xb
    80006db4:	19958593          	addi	a1,a1,409
    80006db8:	00a59593          	slli	a1,a1,0xa
    80006dbc:	26658593          	addi	a1,a1,614
    80006dc0:	00b54633          	xor	a2,a0,a1
    80006dc4:	32c0b823          	sd	a2,816(ra)
    80006dc8:	033331b7          	lui	gp,0x3333
    80006dcc:	3331819b          	addiw	gp,gp,819 # 3333333 <offset+0x3332f1b>
    80006dd0:	00c19193          	slli	gp,gp,0xc
    80006dd4:	33318193          	addi	gp,gp,819
    80006dd8:	00c19193          	slli	gp,gp,0xc
    80006ddc:	33318193          	addi	gp,gp,819
    80006de0:	00c19193          	slli	gp,gp,0xc
    80006de4:	33218193          	addi	gp,gp,818
    80006de8:	00c18463          	beq	gp,a2,80006df0 <inst_391>
    80006dec:	a38f906f          	j	80000024 <rvtest_error>

0000000080006df0 <inst_391>:
    80006df0:	55555537          	lui	a0,0x55555
    80006df4:	55550513          	addi	a0,a0,1365 # 55555555 <absimmsh+0x49a847a8>
    80006df8:	00b51513          	slli	a0,a0,0xb
    80006dfc:	2aa50513          	addi	a0,a0,682
    80006e00:	00b51513          	slli	a0,a0,0xb
    80006e04:	55550513          	addi	a0,a0,1365
    80006e08:	00a51513          	slli	a0,a0,0xa
    80006e0c:	15450513          	addi	a0,a0,340
    80006e10:	000005b7          	lui	a1,0x0
    80006e14:	fff58593          	addi	a1,a1,-1
    80006e18:	00b59593          	slli	a1,a1,0xb
    80006e1c:	25758593          	addi	a1,a1,599
    80006e20:	00b59593          	slli	a1,a1,0xb
    80006e24:	6c358593          	addi	a1,a1,1731
    80006e28:	00a59593          	slli	a1,a1,0xa
    80006e2c:	0cd58593          	addi	a1,a1,205
    80006e30:	00b54633          	xor	a2,a0,a1
    80006e34:	32c0bc23          	sd	a2,824(ra)
    80006e38:	ffd551b7          	lui	gp,0xffd55
    80006e3c:	5551819b          	addiw	gp,gp,1365 # ffffffffffd55555 <absimm+0xffffffff45047a85>
    80006e40:	00c19193          	slli	gp,gp,0xc
    80006e44:	55118193          	addi	gp,gp,1361
    80006e48:	01019193          	slli	gp,gp,0x10
    80006e4c:	d7318193          	addi	gp,gp,-653
    80006e50:	00d19193          	slli	gp,gp,0xd
    80006e54:	99918193          	addi	gp,gp,-1639
    80006e58:	00c18463          	beq	gp,a2,80006e60 <inst_392>
    80006e5c:	9c8f906f          	j	80000024 <rvtest_error>

0000000080006e60 <inst_392>:
    80006e60:	55555537          	lui	a0,0x55555
    80006e64:	55550513          	addi	a0,a0,1365 # 55555555 <absimmsh+0x49a847a8>
    80006e68:	00b51513          	slli	a0,a0,0xb
    80006e6c:	2aa50513          	addi	a0,a0,682
    80006e70:	00b51513          	slli	a0,a0,0xb
    80006e74:	55550513          	addi	a0,a0,1365
    80006e78:	00a51513          	slli	a0,a0,0xa
    80006e7c:	15450513          	addi	a0,a0,340
    80006e80:	000005b7          	lui	a1,0x0
    80006e84:	00058593          	mv	a1,a1
    80006e88:	00b59593          	slli	a1,a1,0xb
    80006e8c:	5a858593          	addi	a1,a1,1448 # 5a8 <offset+0x190>
    80006e90:	00b59593          	slli	a1,a1,0xb
    80006e94:	13c58593          	addi	a1,a1,316
    80006e98:	00a59593          	slli	a1,a1,0xa
    80006e9c:	33358593          	addi	a1,a1,819
    80006ea0:	00b54633          	xor	a2,a0,a1
    80006ea4:	34c0b023          	sd	a2,832(ra)
    80006ea8:	002ab1b7          	lui	gp,0x2ab
    80006eac:	aab1819b          	addiw	gp,gp,-1365 # 2aaaab <offset+0x2aa693>
    80006eb0:	00c19193          	slli	gp,gp,0xc
    80006eb4:	aaf18193          	addi	gp,gp,-1361
    80006eb8:	01019193          	slli	gp,gp,0x10
    80006ebc:	28d18193          	addi	gp,gp,653
    80006ec0:	00d19193          	slli	gp,gp,0xd
    80006ec4:	66718193          	addi	gp,gp,1639
    80006ec8:	00c18463          	beq	gp,a2,80006ed0 <inst_393>
    80006ecc:	958f906f          	j	80000024 <rvtest_error>

0000000080006ed0 <inst_393>:
    80006ed0:	55555537          	lui	a0,0x55555
    80006ed4:	55550513          	addi	a0,a0,1365 # 55555555 <absimmsh+0x49a847a8>
    80006ed8:	00b51513          	slli	a0,a0,0xb
    80006edc:	2aa50513          	addi	a0,a0,682
    80006ee0:	00b51513          	slli	a0,a0,0xb
    80006ee4:	55550513          	addi	a0,a0,1365
    80006ee8:	00a51513          	slli	a0,a0,0xa
    80006eec:	15450513          	addi	a0,a0,340
    80006ef0:	00200593          	li	a1,2
    80006ef4:	00b54633          	xor	a2,a0,a1
    80006ef8:	34c0b423          	sd	a2,840(ra)
    80006efc:	055551b7          	lui	gp,0x5555
    80006f00:	5551819b          	addiw	gp,gp,1365 # 5555555 <offset+0x555513d>
    80006f04:	00c19193          	slli	gp,gp,0xc
    80006f08:	55518193          	addi	gp,gp,1365
    80006f0c:	00c19193          	slli	gp,gp,0xc
    80006f10:	55518193          	addi	gp,gp,1365
    80006f14:	00c19193          	slli	gp,gp,0xc
    80006f18:	55618193          	addi	gp,gp,1366
    80006f1c:	00c18463          	beq	gp,a2,80006f24 <inst_394>
    80006f20:	904f906f          	j	80000024 <rvtest_error>

0000000080006f24 <inst_394>:
    80006f24:	55555537          	lui	a0,0x55555
    80006f28:	55550513          	addi	a0,a0,1365 # 55555555 <absimmsh+0x49a847a8>
    80006f2c:	00b51513          	slli	a0,a0,0xb
    80006f30:	2aa50513          	addi	a0,a0,682
    80006f34:	00b51513          	slli	a0,a0,0xb
    80006f38:	55550513          	addi	a0,a0,1365
    80006f3c:	00a51513          	slli	a0,a0,0xa
    80006f40:	15450513          	addi	a0,a0,340
    80006f44:	555555b7          	lui	a1,0x55555
    80006f48:	55558593          	addi	a1,a1,1365 # 55555555 <absimmsh+0x49a847a8>
    80006f4c:	00b59593          	slli	a1,a1,0xb
    80006f50:	2aa58593          	addi	a1,a1,682
    80006f54:	00b59593          	slli	a1,a1,0xb
    80006f58:	55558593          	addi	a1,a1,1365
    80006f5c:	00a59593          	slli	a1,a1,0xa
    80006f60:	15458593          	addi	a1,a1,340
    80006f64:	00b54633          	xor	a2,a0,a1
    80006f68:	34c0b823          	sd	a2,848(ra)
    80006f6c:	00000193          	li	gp,0
    80006f70:	00c18463          	beq	gp,a2,80006f78 <inst_395>
    80006f74:	8b0f906f          	j	80000024 <rvtest_error>

0000000080006f78 <inst_395>:
    80006f78:	55555537          	lui	a0,0x55555
    80006f7c:	55550513          	addi	a0,a0,1365 # 55555555 <absimmsh+0x49a847a8>
    80006f80:	00b51513          	slli	a0,a0,0xb
    80006f84:	2aa50513          	addi	a0,a0,682
    80006f88:	00b51513          	slli	a0,a0,0xb
    80006f8c:	55550513          	addi	a0,a0,1365
    80006f90:	00a51513          	slli	a0,a0,0xa
    80006f94:	15450513          	addi	a0,a0,340
    80006f98:	00000593          	li	a1,0
    80006f9c:	00b54633          	xor	a2,a0,a1
    80006fa0:	34c0bc23          	sd	a2,856(ra)
    80006fa4:	055551b7          	lui	gp,0x5555
    80006fa8:	5551819b          	addiw	gp,gp,1365 # 5555555 <offset+0x555513d>
    80006fac:	00c19193          	slli	gp,gp,0xc
    80006fb0:	55518193          	addi	gp,gp,1365
    80006fb4:	00c19193          	slli	gp,gp,0xc
    80006fb8:	55518193          	addi	gp,gp,1365
    80006fbc:	00c19193          	slli	gp,gp,0xc
    80006fc0:	55418193          	addi	gp,gp,1364
    80006fc4:	00c18463          	beq	gp,a2,80006fcc <inst_396>
    80006fc8:	85cf906f          	j	80000024 <rvtest_error>

0000000080006fcc <inst_396>:
    80006fcc:	55555537          	lui	a0,0x55555
    80006fd0:	55550513          	addi	a0,a0,1365 # 55555555 <absimmsh+0x49a847a8>
    80006fd4:	00b51513          	slli	a0,a0,0xb
    80006fd8:	2aa50513          	addi	a0,a0,682
    80006fdc:	00b51513          	slli	a0,a0,0xb
    80006fe0:	55550513          	addi	a0,a0,1365
    80006fe4:	00a51513          	slli	a0,a0,0xa
    80006fe8:	15450513          	addi	a0,a0,340
    80006fec:	00400593          	li	a1,4
    80006ff0:	00b54633          	xor	a2,a0,a1
    80006ff4:	36c0b023          	sd	a2,864(ra)
    80006ff8:	055551b7          	lui	gp,0x5555
    80006ffc:	5551819b          	addiw	gp,gp,1365 # 5555555 <offset+0x555513d>
    80007000:	00c19193          	slli	gp,gp,0xc
    80007004:	55518193          	addi	gp,gp,1365
    80007008:	00c19193          	slli	gp,gp,0xc
    8000700c:	55518193          	addi	gp,gp,1365
    80007010:	00c19193          	slli	gp,gp,0xc
    80007014:	55018193          	addi	gp,gp,1360
    80007018:	00c18463          	beq	gp,a2,80007020 <inst_397>
    8000701c:	808f906f          	j	80000024 <rvtest_error>

0000000080007020 <inst_397>:
    80007020:	55555537          	lui	a0,0x55555
    80007024:	55550513          	addi	a0,a0,1365 # 55555555 <absimmsh+0x49a847a8>
    80007028:	00b51513          	slli	a0,a0,0xb
    8000702c:	2aa50513          	addi	a0,a0,682
    80007030:	00b51513          	slli	a0,a0,0xb
    80007034:	55550513          	addi	a0,a0,1365
    80007038:	00a51513          	slli	a0,a0,0xa
    8000703c:	15450513          	addi	a0,a0,340
    80007040:	333335b7          	lui	a1,0x33333
    80007044:	33358593          	addi	a1,a1,819 # 33333333 <absimmsh+0x27862586>
    80007048:	00b59593          	slli	a1,a1,0xb
    8000704c:	19958593          	addi	a1,a1,409
    80007050:	00b59593          	slli	a1,a1,0xb
    80007054:	4cc58593          	addi	a1,a1,1228
    80007058:	00a59593          	slli	a1,a1,0xa
    8000705c:	33258593          	addi	a1,a1,818
    80007060:	00b54633          	xor	a2,a0,a1
    80007064:	36c0b423          	sd	a2,872(ra)
    80007068:	033331b7          	lui	gp,0x3333
    8000706c:	3331819b          	addiw	gp,gp,819 # 3333333 <offset+0x3332f1b>
    80007070:	00c19193          	slli	gp,gp,0xc
    80007074:	33318193          	addi	gp,gp,819
    80007078:	00c19193          	slli	gp,gp,0xc
    8000707c:	33318193          	addi	gp,gp,819
    80007080:	00d19193          	slli	gp,gp,0xd
    80007084:	66618193          	addi	gp,gp,1638
    80007088:	00c18463          	beq	gp,a2,80007090 <inst_398>
    8000708c:	f99f806f          	j	80000024 <rvtest_error>

0000000080007090 <inst_398>:
    80007090:	55555537          	lui	a0,0x55555
    80007094:	55550513          	addi	a0,a0,1365 # 55555555 <absimmsh+0x49a847a8>
    80007098:	00b51513          	slli	a0,a0,0xb
    8000709c:	2aa50513          	addi	a0,a0,682
    800070a0:	00b51513          	slli	a0,a0,0xb
    800070a4:	55550513          	addi	a0,a0,1365
    800070a8:	00a51513          	slli	a0,a0,0xa
    800070ac:	15450513          	addi	a0,a0,340
    800070b0:	666665b7          	lui	a1,0x66666
    800070b4:	66658593          	addi	a1,a1,1638 # 66666666 <absimmsh+0x5ab958b9>
    800070b8:	00b59593          	slli	a1,a1,0xb
    800070bc:	33358593          	addi	a1,a1,819
    800070c0:	00b59593          	slli	a1,a1,0xb
    800070c4:	19958593          	addi	a1,a1,409
    800070c8:	00a59593          	slli	a1,a1,0xa
    800070cc:	26558593          	addi	a1,a1,613
    800070d0:	00b54633          	xor	a2,a0,a1
    800070d4:	36c0b823          	sd	a2,880(ra)
    800070d8:	033331b7          	lui	gp,0x3333
    800070dc:	3331819b          	addiw	gp,gp,819 # 3333333 <offset+0x3332f1b>
    800070e0:	00c19193          	slli	gp,gp,0xc
    800070e4:	33318193          	addi	gp,gp,819
    800070e8:	00c19193          	slli	gp,gp,0xc
    800070ec:	33318193          	addi	gp,gp,819
    800070f0:	00c19193          	slli	gp,gp,0xc
    800070f4:	33118193          	addi	gp,gp,817
    800070f8:	00c18463          	beq	gp,a2,80007100 <inst_399>
    800070fc:	f29f806f          	j	80000024 <rvtest_error>

0000000080007100 <inst_399>:
    80007100:	55555537          	lui	a0,0x55555
    80007104:	55550513          	addi	a0,a0,1365 # 55555555 <absimmsh+0x49a847a8>
    80007108:	00b51513          	slli	a0,a0,0xb
    8000710c:	2aa50513          	addi	a0,a0,682
    80007110:	00b51513          	slli	a0,a0,0xb
    80007114:	55550513          	addi	a0,a0,1365
    80007118:	00a51513          	slli	a0,a0,0xa
    8000711c:	15450513          	addi	a0,a0,340
    80007120:	000005b7          	lui	a1,0x0
    80007124:	00058593          	mv	a1,a1
    80007128:	00b59593          	slli	a1,a1,0xb
    8000712c:	5a858593          	addi	a1,a1,1448 # 5a8 <offset+0x190>
    80007130:	00b59593          	slli	a1,a1,0xb
    80007134:	13c58593          	addi	a1,a1,316
    80007138:	00a59593          	slli	a1,a1,0xa
    8000713c:	33258593          	addi	a1,a1,818
    80007140:	00b54633          	xor	a2,a0,a1
    80007144:	36c0bc23          	sd	a2,888(ra)
    80007148:	002ab1b7          	lui	gp,0x2ab
    8000714c:	aab1819b          	addiw	gp,gp,-1365 # 2aaaab <offset+0x2aa693>
    80007150:	00c19193          	slli	gp,gp,0xc
    80007154:	aaf18193          	addi	gp,gp,-1361
    80007158:	01019193          	slli	gp,gp,0x10
    8000715c:	28d18193          	addi	gp,gp,653
    80007160:	00d19193          	slli	gp,gp,0xd
    80007164:	66618193          	addi	gp,gp,1638
    80007168:	00c18463          	beq	gp,a2,80007170 <inst_400>
    8000716c:	eb9f806f          	j	80000024 <rvtest_error>

0000000080007170 <inst_400>:
    80007170:	55555537          	lui	a0,0x55555
    80007174:	55550513          	addi	a0,a0,1365 # 55555555 <absimmsh+0x49a847a8>
    80007178:	00b51513          	slli	a0,a0,0xb
    8000717c:	2aa50513          	addi	a0,a0,682
    80007180:	00b51513          	slli	a0,a0,0xb
    80007184:	55550513          	addi	a0,a0,1365
    80007188:	00a51513          	slli	a0,a0,0xa
    8000718c:	15450513          	addi	a0,a0,340
    80007190:	555555b7          	lui	a1,0x55555
    80007194:	55558593          	addi	a1,a1,1365 # 55555555 <absimmsh+0x49a847a8>
    80007198:	00b59593          	slli	a1,a1,0xb
    8000719c:	2aa58593          	addi	a1,a1,682
    800071a0:	00b59593          	slli	a1,a1,0xb
    800071a4:	55558593          	addi	a1,a1,1365
    800071a8:	00a59593          	slli	a1,a1,0xa
    800071ac:	15658593          	addi	a1,a1,342
    800071b0:	00b54633          	xor	a2,a0,a1
    800071b4:	38c0b023          	sd	a2,896(ra)
    800071b8:	00200193          	li	gp,2
    800071bc:	00c18463          	beq	gp,a2,800071c4 <inst_401>
    800071c0:	e65f806f          	j	80000024 <rvtest_error>

00000000800071c4 <inst_401>:
    800071c4:	55555537          	lui	a0,0x55555
    800071c8:	55550513          	addi	a0,a0,1365 # 55555555 <absimmsh+0x49a847a8>
    800071cc:	00b51513          	slli	a0,a0,0xb
    800071d0:	2aa50513          	addi	a0,a0,682
    800071d4:	00b51513          	slli	a0,a0,0xb
    800071d8:	55550513          	addi	a0,a0,1365
    800071dc:	00a51513          	slli	a0,a0,0xa
    800071e0:	15450513          	addi	a0,a0,340
    800071e4:	aaaab5b7          	lui	a1,0xaaaab
    800071e8:	aaa58593          	addi	a1,a1,-1366 # ffffffffaaaaaaaa <absimm+0xfffffffeefd9cfda>
    800071ec:	00b59593          	slli	a1,a1,0xb
    800071f0:	55558593          	addi	a1,a1,1365
    800071f4:	00b59593          	slli	a1,a1,0xb
    800071f8:	2aa58593          	addi	a1,a1,682
    800071fc:	00a59593          	slli	a1,a1,0xa
    80007200:	2ab58593          	addi	a1,a1,683
    80007204:	00b54633          	xor	a2,a0,a1
    80007208:	38c0b423          	sd	a2,904(ra)
    8000720c:	fff00193          	li	gp,-1
    80007210:	00c18463          	beq	gp,a2,80007218 <inst_402>
    80007214:	e11f806f          	j	80000024 <rvtest_error>

0000000080007218 <inst_402>:
    80007218:	55555537          	lui	a0,0x55555
    8000721c:	55550513          	addi	a0,a0,1365 # 55555555 <absimmsh+0x49a847a8>
    80007220:	00b51513          	slli	a0,a0,0xb
    80007224:	2aa50513          	addi	a0,a0,682
    80007228:	00b51513          	slli	a0,a0,0xb
    8000722c:	55550513          	addi	a0,a0,1365
    80007230:	00a51513          	slli	a0,a0,0xa
    80007234:	15450513          	addi	a0,a0,340
    80007238:	00600593          	li	a1,6
    8000723c:	00b54633          	xor	a2,a0,a1
    80007240:	38c0b823          	sd	a2,912(ra)
    80007244:	055551b7          	lui	gp,0x5555
    80007248:	5551819b          	addiw	gp,gp,1365 # 5555555 <offset+0x555513d>
    8000724c:	00c19193          	slli	gp,gp,0xc
    80007250:	55518193          	addi	gp,gp,1365
    80007254:	00c19193          	slli	gp,gp,0xc
    80007258:	55518193          	addi	gp,gp,1365
    8000725c:	00c19193          	slli	gp,gp,0xc
    80007260:	55218193          	addi	gp,gp,1362
    80007264:	00c18463          	beq	gp,a2,8000726c <inst_403>
    80007268:	dbdf806f          	j	80000024 <rvtest_error>

000000008000726c <inst_403>:
    8000726c:	55555537          	lui	a0,0x55555
    80007270:	55550513          	addi	a0,a0,1365 # 55555555 <absimmsh+0x49a847a8>
    80007274:	00b51513          	slli	a0,a0,0xb
    80007278:	2aa50513          	addi	a0,a0,682
    8000727c:	00b51513          	slli	a0,a0,0xb
    80007280:	55550513          	addi	a0,a0,1365
    80007284:	00a51513          	slli	a0,a0,0xa
    80007288:	15450513          	addi	a0,a0,340
    8000728c:	333335b7          	lui	a1,0x33333
    80007290:	33358593          	addi	a1,a1,819 # 33333333 <absimmsh+0x27862586>
    80007294:	00b59593          	slli	a1,a1,0xb
    80007298:	19958593          	addi	a1,a1,409
    8000729c:	00b59593          	slli	a1,a1,0xb
    800072a0:	4cc58593          	addi	a1,a1,1228
    800072a4:	00a59593          	slli	a1,a1,0xa
    800072a8:	33458593          	addi	a1,a1,820
    800072ac:	00b54633          	xor	a2,a0,a1
    800072b0:	38c0bc23          	sd	a2,920(ra)
    800072b4:	033331b7          	lui	gp,0x3333
    800072b8:	3331819b          	addiw	gp,gp,819 # 3333333 <offset+0x3332f1b>
    800072bc:	00c19193          	slli	gp,gp,0xc
    800072c0:	33318193          	addi	gp,gp,819
    800072c4:	00c19193          	slli	gp,gp,0xc
    800072c8:	33318193          	addi	gp,gp,819
    800072cc:	00d19193          	slli	gp,gp,0xd
    800072d0:	66018193          	addi	gp,gp,1632
    800072d4:	00c18463          	beq	gp,a2,800072dc <inst_404>
    800072d8:	d4df806f          	j	80000024 <rvtest_error>

00000000800072dc <inst_404>:
    800072dc:	55555537          	lui	a0,0x55555
    800072e0:	55550513          	addi	a0,a0,1365 # 55555555 <absimmsh+0x49a847a8>
    800072e4:	00b51513          	slli	a0,a0,0xb
    800072e8:	2aa50513          	addi	a0,a0,682
    800072ec:	00b51513          	slli	a0,a0,0xb
    800072f0:	55550513          	addi	a0,a0,1365
    800072f4:	00a51513          	slli	a0,a0,0xa
    800072f8:	15450513          	addi	a0,a0,340
    800072fc:	666665b7          	lui	a1,0x66666
    80007300:	66658593          	addi	a1,a1,1638 # 66666666 <absimmsh+0x5ab958b9>
    80007304:	00b59593          	slli	a1,a1,0xb
    80007308:	33358593          	addi	a1,a1,819
    8000730c:	00b59593          	slli	a1,a1,0xb
    80007310:	19958593          	addi	a1,a1,409
    80007314:	00a59593          	slli	a1,a1,0xa
    80007318:	26758593          	addi	a1,a1,615
    8000731c:	00b54633          	xor	a2,a0,a1
    80007320:	3ac0b023          	sd	a2,928(ra)
    80007324:	033331b7          	lui	gp,0x3333
    80007328:	3331819b          	addiw	gp,gp,819 # 3333333 <offset+0x3332f1b>
    8000732c:	00c19193          	slli	gp,gp,0xc
    80007330:	33318193          	addi	gp,gp,819
    80007334:	00c19193          	slli	gp,gp,0xc
    80007338:	33318193          	addi	gp,gp,819
    8000733c:	00c19193          	slli	gp,gp,0xc
    80007340:	33318193          	addi	gp,gp,819
    80007344:	00c18463          	beq	gp,a2,8000734c <inst_405>
    80007348:	cddf806f          	j	80000024 <rvtest_error>

000000008000734c <inst_405>:
    8000734c:	55555537          	lui	a0,0x55555
    80007350:	55550513          	addi	a0,a0,1365 # 55555555 <absimmsh+0x49a847a8>
    80007354:	00b51513          	slli	a0,a0,0xb
    80007358:	2aa50513          	addi	a0,a0,682
    8000735c:	00b51513          	slli	a0,a0,0xb
    80007360:	55550513          	addi	a0,a0,1365
    80007364:	00a51513          	slli	a0,a0,0xa
    80007368:	15450513          	addi	a0,a0,340
    8000736c:	000005b7          	lui	a1,0x0
    80007370:	fff58593          	addi	a1,a1,-1
    80007374:	00b59593          	slli	a1,a1,0xb
    80007378:	25758593          	addi	a1,a1,599
    8000737c:	00b59593          	slli	a1,a1,0xb
    80007380:	6c358593          	addi	a1,a1,1731
    80007384:	00a59593          	slli	a1,a1,0xa
    80007388:	0ce58593          	addi	a1,a1,206
    8000738c:	00b54633          	xor	a2,a0,a1
    80007390:	3ac0b423          	sd	a2,936(ra)
    80007394:	ffd551b7          	lui	gp,0xffd55
    80007398:	5551819b          	addiw	gp,gp,1365 # ffffffffffd55555 <absimm+0xffffffff45047a85>
    8000739c:	00c19193          	slli	gp,gp,0xc
    800073a0:	55118193          	addi	gp,gp,1361
    800073a4:	01019193          	slli	gp,gp,0x10
    800073a8:	d7318193          	addi	gp,gp,-653
    800073ac:	00d19193          	slli	gp,gp,0xd
    800073b0:	99a18193          	addi	gp,gp,-1638
    800073b4:	00c18463          	beq	gp,a2,800073bc <inst_406>
    800073b8:	c6df806f          	j	80000024 <rvtest_error>

00000000800073bc <inst_406>:
    800073bc:	55555537          	lui	a0,0x55555
    800073c0:	55550513          	addi	a0,a0,1365 # 55555555 <absimmsh+0x49a847a8>
    800073c4:	00b51513          	slli	a0,a0,0xb
    800073c8:	2aa50513          	addi	a0,a0,682
    800073cc:	00b51513          	slli	a0,a0,0xb
    800073d0:	55550513          	addi	a0,a0,1365
    800073d4:	00a51513          	slli	a0,a0,0xa
    800073d8:	15450513          	addi	a0,a0,340
    800073dc:	000005b7          	lui	a1,0x0
    800073e0:	00058593          	mv	a1,a1
    800073e4:	00b59593          	slli	a1,a1,0xb
    800073e8:	5a858593          	addi	a1,a1,1448 # 5a8 <offset+0x190>
    800073ec:	00b59593          	slli	a1,a1,0xb
    800073f0:	13c58593          	addi	a1,a1,316
    800073f4:	00a59593          	slli	a1,a1,0xa
    800073f8:	33458593          	addi	a1,a1,820
    800073fc:	00b54633          	xor	a2,a0,a1
    80007400:	3ac0b823          	sd	a2,944(ra)
    80007404:	002ab1b7          	lui	gp,0x2ab
    80007408:	aab1819b          	addiw	gp,gp,-1365 # 2aaaab <offset+0x2aa693>
    8000740c:	00c19193          	slli	gp,gp,0xc
    80007410:	aaf18193          	addi	gp,gp,-1361
    80007414:	01019193          	slli	gp,gp,0x10
    80007418:	28d18193          	addi	gp,gp,653
    8000741c:	00d19193          	slli	gp,gp,0xd
    80007420:	66018193          	addi	gp,gp,1632
    80007424:	00c18463          	beq	gp,a2,8000742c <inst_407>
    80007428:	bfdf806f          	j	80000024 <rvtest_error>

000000008000742c <inst_407>:
    8000742c:	00000513          	li	a0,0
    80007430:	00300593          	li	a1,3
    80007434:	00b54633          	xor	a2,a0,a1
    80007438:	3ac0bc23          	sd	a2,952(ra)
    8000743c:	00300193          	li	gp,3
    80007440:	00c18463          	beq	gp,a2,80007448 <inst_408>
    80007444:	be1f806f          	j	80000024 <rvtest_error>

0000000080007448 <inst_408>:
    80007448:	00000513          	li	a0,0
    8000744c:	555555b7          	lui	a1,0x55555
    80007450:	55558593          	addi	a1,a1,1365 # 55555555 <absimmsh+0x49a847a8>
    80007454:	00b59593          	slli	a1,a1,0xb
    80007458:	2aa58593          	addi	a1,a1,682
    8000745c:	00b59593          	slli	a1,a1,0xb
    80007460:	55558593          	addi	a1,a1,1365
    80007464:	00a59593          	slli	a1,a1,0xa
    80007468:	15558593          	addi	a1,a1,341
    8000746c:	00b54633          	xor	a2,a0,a1
    80007470:	3cc0b023          	sd	a2,960(ra)
    80007474:	055551b7          	lui	gp,0x5555
    80007478:	5551819b          	addiw	gp,gp,1365 # 5555555 <offset+0x555513d>
    8000747c:	00c19193          	slli	gp,gp,0xc
    80007480:	55518193          	addi	gp,gp,1365
    80007484:	00c19193          	slli	gp,gp,0xc
    80007488:	55518193          	addi	gp,gp,1365
    8000748c:	00c19193          	slli	gp,gp,0xc
    80007490:	55518193          	addi	gp,gp,1365
    80007494:	00c18463          	beq	gp,a2,8000749c <inst_409>
    80007498:	b8df806f          	j	80000024 <rvtest_error>

000000008000749c <inst_409>:
    8000749c:	00000513          	li	a0,0
    800074a0:	aaaab5b7          	lui	a1,0xaaaab
    800074a4:	aaa58593          	addi	a1,a1,-1366 # ffffffffaaaaaaaa <absimm+0xfffffffeefd9cfda>
    800074a8:	00b59593          	slli	a1,a1,0xb
    800074ac:	55558593          	addi	a1,a1,1365
    800074b0:	00b59593          	slli	a1,a1,0xb
    800074b4:	2aa58593          	addi	a1,a1,682
    800074b8:	00a59593          	slli	a1,a1,0xa
    800074bc:	2aa58593          	addi	a1,a1,682
    800074c0:	00b54633          	xor	a2,a0,a1
    800074c4:	3cc0b423          	sd	a2,968(ra)
    800074c8:	faaab1b7          	lui	gp,0xfaaab
    800074cc:	aab1819b          	addiw	gp,gp,-1365 # fffffffffaaaaaab <absimm+0xffffffff3fd9cfdb>
    800074d0:	00c19193          	slli	gp,gp,0xc
    800074d4:	aab18193          	addi	gp,gp,-1365
    800074d8:	00c19193          	slli	gp,gp,0xc
    800074dc:	aab18193          	addi	gp,gp,-1365
    800074e0:	00c19193          	slli	gp,gp,0xc
    800074e4:	aaa18193          	addi	gp,gp,-1366
    800074e8:	00c18463          	beq	gp,a2,800074f0 <inst_410>
    800074ec:	b39f806f          	j	80000024 <rvtest_error>

00000000800074f0 <inst_410>:
    800074f0:	00000513          	li	a0,0
    800074f4:	00500593          	li	a1,5
    800074f8:	00b54633          	xor	a2,a0,a1
    800074fc:	3cc0b823          	sd	a2,976(ra)
    80007500:	00500193          	li	gp,5
    80007504:	00c18463          	beq	gp,a2,8000750c <inst_411>
    80007508:	b1df806f          	j	80000024 <rvtest_error>

000000008000750c <inst_411>:
    8000750c:	00000513          	li	a0,0
    80007510:	333335b7          	lui	a1,0x33333
    80007514:	33358593          	addi	a1,a1,819 # 33333333 <absimmsh+0x27862586>
    80007518:	00b59593          	slli	a1,a1,0xb
    8000751c:	19958593          	addi	a1,a1,409
    80007520:	00b59593          	slli	a1,a1,0xb
    80007524:	4cc58593          	addi	a1,a1,1228
    80007528:	00a59593          	slli	a1,a1,0xa
    8000752c:	33358593          	addi	a1,a1,819
    80007530:	00b54633          	xor	a2,a0,a1
    80007534:	3cc0bc23          	sd	a2,984(ra)
    80007538:	033331b7          	lui	gp,0x3333
    8000753c:	3331819b          	addiw	gp,gp,819 # 3333333 <offset+0x3332f1b>
    80007540:	00c19193          	slli	gp,gp,0xc
    80007544:	33318193          	addi	gp,gp,819
    80007548:	00c19193          	slli	gp,gp,0xc
    8000754c:	33318193          	addi	gp,gp,819
    80007550:	00c19193          	slli	gp,gp,0xc
    80007554:	33318193          	addi	gp,gp,819
    80007558:	00c18463          	beq	gp,a2,80007560 <inst_412>
    8000755c:	ac9f806f          	j	80000024 <rvtest_error>

0000000080007560 <inst_412>:
    80007560:	00000513          	li	a0,0
    80007564:	666665b7          	lui	a1,0x66666
    80007568:	66658593          	addi	a1,a1,1638 # 66666666 <absimmsh+0x5ab958b9>
    8000756c:	00b59593          	slli	a1,a1,0xb
    80007570:	33358593          	addi	a1,a1,819
    80007574:	00b59593          	slli	a1,a1,0xb
    80007578:	19958593          	addi	a1,a1,409
    8000757c:	00a59593          	slli	a1,a1,0xa
    80007580:	26658593          	addi	a1,a1,614
    80007584:	00b54633          	xor	a2,a0,a1
    80007588:	3ec0b023          	sd	a2,992(ra)
    8000758c:	033331b7          	lui	gp,0x3333
    80007590:	3331819b          	addiw	gp,gp,819 # 3333333 <offset+0x3332f1b>
    80007594:	00c19193          	slli	gp,gp,0xc
    80007598:	33318193          	addi	gp,gp,819
    8000759c:	00c19193          	slli	gp,gp,0xc
    800075a0:	33318193          	addi	gp,gp,819
    800075a4:	00d19193          	slli	gp,gp,0xd
    800075a8:	66618193          	addi	gp,gp,1638
    800075ac:	00c18463          	beq	gp,a2,800075b4 <inst_413>
    800075b0:	a75f806f          	j	80000024 <rvtest_error>

00000000800075b4 <inst_413>:
    800075b4:	00000513          	li	a0,0
    800075b8:	000005b7          	lui	a1,0x0
    800075bc:	fff58593          	addi	a1,a1,-1
    800075c0:	00b59593          	slli	a1,a1,0xb
    800075c4:	25758593          	addi	a1,a1,599
    800075c8:	00b59593          	slli	a1,a1,0xb
    800075cc:	6c358593          	addi	a1,a1,1731
    800075d0:	00a59593          	slli	a1,a1,0xa
    800075d4:	0cd58593          	addi	a1,a1,205
    800075d8:	00b54633          	xor	a2,a0,a1
    800075dc:	3ec0b423          	sd	a2,1000(ra)
    800075e0:	fff4b1b7          	lui	gp,0xfff4b
    800075e4:	fb11819b          	addiw	gp,gp,-79 # fffffffffff4afb1 <absimm+0xffffffff4523d4e1>
    800075e8:	00c19193          	slli	gp,gp,0xc
    800075ec:	ccd18193          	addi	gp,gp,-819
    800075f0:	00c18463          	beq	gp,a2,800075f8 <inst_414>
    800075f4:	a31f806f          	j	80000024 <rvtest_error>

00000000800075f8 <inst_414>:
    800075f8:	00000513          	li	a0,0
    800075fc:	000005b7          	lui	a1,0x0
    80007600:	00058593          	mv	a1,a1
    80007604:	00b59593          	slli	a1,a1,0xb
    80007608:	5a858593          	addi	a1,a1,1448 # 5a8 <offset+0x190>
    8000760c:	00b59593          	slli	a1,a1,0xb
    80007610:	13c58593          	addi	a1,a1,316
    80007614:	00a59593          	slli	a1,a1,0xa
    80007618:	33358593          	addi	a1,a1,819
    8000761c:	00b54633          	xor	a2,a0,a1
    80007620:	3ec0b823          	sd	a2,1008(ra)
    80007624:	000b51b7          	lui	gp,0xb5
    80007628:	04f1819b          	addiw	gp,gp,79 # b504f <offset+0xb4c37>
    8000762c:	00c19193          	slli	gp,gp,0xc
    80007630:	33318193          	addi	gp,gp,819
    80007634:	00c18463          	beq	gp,a2,8000763c <inst_415>
    80007638:	9edf806f          	j	80000024 <rvtest_error>

000000008000763c <inst_415>:
    8000763c:	00000513          	li	a0,0
    80007640:	000005b7          	lui	a1,0x0
    80007644:	fff58593          	addi	a1,a1,-1
    80007648:	00b59593          	slli	a1,a1,0xb
    8000764c:	25758593          	addi	a1,a1,599
    80007650:	00b59593          	slli	a1,a1,0xb
    80007654:	6c358593          	addi	a1,a1,1731
    80007658:	00a59593          	slli	a1,a1,0xa
    8000765c:	0ce58593          	addi	a1,a1,206
    80007660:	00b54633          	xor	a2,a0,a1
    80007664:	3ec0bc23          	sd	a2,1016(ra)
    80007668:	fff4b1b7          	lui	gp,0xfff4b
    8000766c:	fb11819b          	addiw	gp,gp,-79 # fffffffffff4afb1 <absimm+0xffffffff4523d4e1>
    80007670:	00c19193          	slli	gp,gp,0xc
    80007674:	cce18193          	addi	gp,gp,-818
    80007678:	00c18463          	beq	gp,a2,80007680 <inst_416>
    8000767c:	9a9f806f          	j	80000024 <rvtest_error>

0000000080007680 <inst_416>:
    80007680:	00000513          	li	a0,0
    80007684:	000005b7          	lui	a1,0x0
    80007688:	00058593          	mv	a1,a1
    8000768c:	00b59593          	slli	a1,a1,0xb
    80007690:	5a858593          	addi	a1,a1,1448 # 5a8 <offset+0x190>
    80007694:	00b59593          	slli	a1,a1,0xb
    80007698:	13c58593          	addi	a1,a1,316
    8000769c:	00a59593          	slli	a1,a1,0xa
    800076a0:	33458593          	addi	a1,a1,820
    800076a4:	00b54633          	xor	a2,a0,a1
    800076a8:	40c0b023          	sd	a2,1024(ra)
    800076ac:	000b51b7          	lui	gp,0xb5
    800076b0:	04f1819b          	addiw	gp,gp,79 # b504f <offset+0xb4c37>
    800076b4:	00c19193          	slli	gp,gp,0xc
    800076b8:	33418193          	addi	gp,gp,820
    800076bc:	00c18463          	beq	gp,a2,800076c4 <inst_417>
    800076c0:	965f806f          	j	80000024 <rvtest_error>

00000000800076c4 <inst_417>:
    800076c4:	00400513          	li	a0,4
    800076c8:	00300593          	li	a1,3
    800076cc:	00b54633          	xor	a2,a0,a1
    800076d0:	40c0b423          	sd	a2,1032(ra)
    800076d4:	00700193          	li	gp,7
    800076d8:	00c18463          	beq	gp,a2,800076e0 <inst_418>
    800076dc:	949f806f          	j	80000024 <rvtest_error>

00000000800076e0 <inst_418>:
    800076e0:	00400513          	li	a0,4
    800076e4:	555555b7          	lui	a1,0x55555
    800076e8:	55558593          	addi	a1,a1,1365 # 55555555 <absimmsh+0x49a847a8>
    800076ec:	00b59593          	slli	a1,a1,0xb
    800076f0:	2aa58593          	addi	a1,a1,682
    800076f4:	00b59593          	slli	a1,a1,0xb
    800076f8:	55558593          	addi	a1,a1,1365
    800076fc:	00a59593          	slli	a1,a1,0xa
    80007700:	15558593          	addi	a1,a1,341
    80007704:	00b54633          	xor	a2,a0,a1
    80007708:	40c0b823          	sd	a2,1040(ra)
    8000770c:	055551b7          	lui	gp,0x5555
    80007710:	5551819b          	addiw	gp,gp,1365 # 5555555 <offset+0x555513d>
    80007714:	00c19193          	slli	gp,gp,0xc
    80007718:	55518193          	addi	gp,gp,1365
    8000771c:	00c19193          	slli	gp,gp,0xc
    80007720:	55518193          	addi	gp,gp,1365
    80007724:	00c19193          	slli	gp,gp,0xc
    80007728:	55118193          	addi	gp,gp,1361
    8000772c:	00c18463          	beq	gp,a2,80007734 <inst_419>
    80007730:	8f5f806f          	j	80000024 <rvtest_error>

0000000080007734 <inst_419>:
    80007734:	00400513          	li	a0,4
    80007738:	00500593          	li	a1,5
    8000773c:	00b54633          	xor	a2,a0,a1
    80007740:	40c0bc23          	sd	a2,1048(ra)
    80007744:	00100193          	li	gp,1
    80007748:	00c18463          	beq	gp,a2,80007750 <inst_420>
    8000774c:	8d9f806f          	j	80000024 <rvtest_error>

0000000080007750 <inst_420>:
    80007750:	00400513          	li	a0,4
    80007754:	333335b7          	lui	a1,0x33333
    80007758:	33358593          	addi	a1,a1,819 # 33333333 <absimmsh+0x27862586>
    8000775c:	00b59593          	slli	a1,a1,0xb
    80007760:	19958593          	addi	a1,a1,409
    80007764:	00b59593          	slli	a1,a1,0xb
    80007768:	4cc58593          	addi	a1,a1,1228
    8000776c:	00a59593          	slli	a1,a1,0xa
    80007770:	33358593          	addi	a1,a1,819
    80007774:	00b54633          	xor	a2,a0,a1
    80007778:	42c0b023          	sd	a2,1056(ra)
    8000777c:	033331b7          	lui	gp,0x3333
    80007780:	3331819b          	addiw	gp,gp,819 # 3333333 <offset+0x3332f1b>
    80007784:	00c19193          	slli	gp,gp,0xc
    80007788:	33318193          	addi	gp,gp,819
    8000778c:	00c19193          	slli	gp,gp,0xc
    80007790:	33318193          	addi	gp,gp,819
    80007794:	00c19193          	slli	gp,gp,0xc
    80007798:	33718193          	addi	gp,gp,823
    8000779c:	00c18463          	beq	gp,a2,800077a4 <inst_421>
    800077a0:	885f806f          	j	80000024 <rvtest_error>

00000000800077a4 <inst_421>:
    800077a4:	00400513          	li	a0,4
    800077a8:	666665b7          	lui	a1,0x66666
    800077ac:	66658593          	addi	a1,a1,1638 # 66666666 <absimmsh+0x5ab958b9>
    800077b0:	00b59593          	slli	a1,a1,0xb
    800077b4:	33358593          	addi	a1,a1,819
    800077b8:	00b59593          	slli	a1,a1,0xb
    800077bc:	19958593          	addi	a1,a1,409
    800077c0:	00a59593          	slli	a1,a1,0xa
    800077c4:	26658593          	addi	a1,a1,614
    800077c8:	00b54633          	xor	a2,a0,a1
    800077cc:	42c0b423          	sd	a2,1064(ra)
    800077d0:	033331b7          	lui	gp,0x3333
    800077d4:	3331819b          	addiw	gp,gp,819 # 3333333 <offset+0x3332f1b>
    800077d8:	00c19193          	slli	gp,gp,0xc
    800077dc:	33318193          	addi	gp,gp,819
    800077e0:	00c19193          	slli	gp,gp,0xc
    800077e4:	33318193          	addi	gp,gp,819
    800077e8:	00d19193          	slli	gp,gp,0xd
    800077ec:	66218193          	addi	gp,gp,1634
    800077f0:	00c18463          	beq	gp,a2,800077f8 <inst_422>
    800077f4:	831f806f          	j	80000024 <rvtest_error>

00000000800077f8 <inst_422>:
    800077f8:	00400513          	li	a0,4
    800077fc:	000005b7          	lui	a1,0x0
    80007800:	fff58593          	addi	a1,a1,-1
    80007804:	00b59593          	slli	a1,a1,0xb
    80007808:	25758593          	addi	a1,a1,599
    8000780c:	00b59593          	slli	a1,a1,0xb
    80007810:	6c358593          	addi	a1,a1,1731
    80007814:	00a59593          	slli	a1,a1,0xa
    80007818:	0cd58593          	addi	a1,a1,205
    8000781c:	00b54633          	xor	a2,a0,a1
    80007820:	42c0b823          	sd	a2,1072(ra)
    80007824:	fff4b1b7          	lui	gp,0xfff4b
    80007828:	fb11819b          	addiw	gp,gp,-79 # fffffffffff4afb1 <absimm+0xffffffff4523d4e1>
    8000782c:	00c19193          	slli	gp,gp,0xc
    80007830:	cc918193          	addi	gp,gp,-823
    80007834:	00c18463          	beq	gp,a2,8000783c <inst_423>
    80007838:	fecf806f          	j	80000024 <rvtest_error>

000000008000783c <inst_423>:
    8000783c:	00400513          	li	a0,4
    80007840:	000005b7          	lui	a1,0x0
    80007844:	00058593          	mv	a1,a1
    80007848:	00b59593          	slli	a1,a1,0xb
    8000784c:	5a858593          	addi	a1,a1,1448 # 5a8 <offset+0x190>
    80007850:	00b59593          	slli	a1,a1,0xb
    80007854:	13c58593          	addi	a1,a1,316
    80007858:	00a59593          	slli	a1,a1,0xa
    8000785c:	33358593          	addi	a1,a1,819
    80007860:	00b54633          	xor	a2,a0,a1
    80007864:	42c0bc23          	sd	a2,1080(ra)
    80007868:	000b51b7          	lui	gp,0xb5
    8000786c:	04f1819b          	addiw	gp,gp,79 # b504f <offset+0xb4c37>
    80007870:	00c19193          	slli	gp,gp,0xc
    80007874:	33718193          	addi	gp,gp,823
    80007878:	00c18463          	beq	gp,a2,80007880 <inst_424>
    8000787c:	fa8f806f          	j	80000024 <rvtest_error>

0000000080007880 <inst_424>:
    80007880:	00400513          	li	a0,4
    80007884:	00200593          	li	a1,2
    80007888:	00b54633          	xor	a2,a0,a1
    8000788c:	44c0b023          	sd	a2,1088(ra)
    80007890:	00600193          	li	gp,6
    80007894:	00c18463          	beq	gp,a2,8000789c <inst_425>
    80007898:	f8cf806f          	j	80000024 <rvtest_error>

000000008000789c <inst_425>:
    8000789c:	00400513          	li	a0,4
    800078a0:	555555b7          	lui	a1,0x55555
    800078a4:	55558593          	addi	a1,a1,1365 # 55555555 <absimmsh+0x49a847a8>
    800078a8:	00b59593          	slli	a1,a1,0xb
    800078ac:	2aa58593          	addi	a1,a1,682
    800078b0:	00b59593          	slli	a1,a1,0xb
    800078b4:	55558593          	addi	a1,a1,1365
    800078b8:	00a59593          	slli	a1,a1,0xa
    800078bc:	15458593          	addi	a1,a1,340
    800078c0:	00b54633          	xor	a2,a0,a1
    800078c4:	44c0b423          	sd	a2,1096(ra)
    800078c8:	055551b7          	lui	gp,0x5555
    800078cc:	5551819b          	addiw	gp,gp,1365 # 5555555 <offset+0x555513d>
    800078d0:	00c19193          	slli	gp,gp,0xc
    800078d4:	55518193          	addi	gp,gp,1365
    800078d8:	00c19193          	slli	gp,gp,0xc
    800078dc:	55518193          	addi	gp,gp,1365
    800078e0:	00c19193          	slli	gp,gp,0xc
    800078e4:	55018193          	addi	gp,gp,1360
    800078e8:	00c18463          	beq	gp,a2,800078f0 <inst_426>
    800078ec:	f38f806f          	j	80000024 <rvtest_error>

00000000800078f0 <inst_426>:
    800078f0:	00400513          	li	a0,4
    800078f4:	00000593          	li	a1,0
    800078f8:	00b54633          	xor	a2,a0,a1
    800078fc:	44c0b823          	sd	a2,1104(ra)
    80007900:	00400193          	li	gp,4
    80007904:	00c18463          	beq	gp,a2,8000790c <inst_427>
    80007908:	f1cf806f          	j	80000024 <rvtest_error>

000000008000790c <inst_427>:
    8000790c:	00400513          	li	a0,4
    80007910:	00400593          	li	a1,4
    80007914:	00b54633          	xor	a2,a0,a1
    80007918:	44c0bc23          	sd	a2,1112(ra)
    8000791c:	00000193          	li	gp,0
    80007920:	00c18463          	beq	gp,a2,80007928 <inst_428>
    80007924:	f00f806f          	j	80000024 <rvtest_error>

0000000080007928 <inst_428>:
    80007928:	00400513          	li	a0,4
    8000792c:	333335b7          	lui	a1,0x33333
    80007930:	33358593          	addi	a1,a1,819 # 33333333 <absimmsh+0x27862586>
    80007934:	00b59593          	slli	a1,a1,0xb
    80007938:	19958593          	addi	a1,a1,409
    8000793c:	00b59593          	slli	a1,a1,0xb
    80007940:	4cc58593          	addi	a1,a1,1228
    80007944:	00a59593          	slli	a1,a1,0xa
    80007948:	33258593          	addi	a1,a1,818
    8000794c:	00b54633          	xor	a2,a0,a1
    80007950:	46c0b023          	sd	a2,1120(ra)
    80007954:	033331b7          	lui	gp,0x3333
    80007958:	3331819b          	addiw	gp,gp,819 # 3333333 <offset+0x3332f1b>
    8000795c:	00c19193          	slli	gp,gp,0xc
    80007960:	33318193          	addi	gp,gp,819
    80007964:	00c19193          	slli	gp,gp,0xc
    80007968:	33318193          	addi	gp,gp,819
    8000796c:	00c19193          	slli	gp,gp,0xc
    80007970:	33618193          	addi	gp,gp,822
    80007974:	00c18463          	beq	gp,a2,8000797c <inst_429>
    80007978:	eacf806f          	j	80000024 <rvtest_error>

000000008000797c <inst_429>:
    8000797c:	00400513          	li	a0,4
    80007980:	666665b7          	lui	a1,0x66666
    80007984:	66658593          	addi	a1,a1,1638 # 66666666 <absimmsh+0x5ab958b9>
    80007988:	00b59593          	slli	a1,a1,0xb
    8000798c:	33358593          	addi	a1,a1,819
    80007990:	00b59593          	slli	a1,a1,0xb
    80007994:	19958593          	addi	a1,a1,409
    80007998:	00a59593          	slli	a1,a1,0xa
    8000799c:	26558593          	addi	a1,a1,613
    800079a0:	00b54633          	xor	a2,a0,a1
    800079a4:	46c0b423          	sd	a2,1128(ra)
    800079a8:	033331b7          	lui	gp,0x3333
    800079ac:	3331819b          	addiw	gp,gp,819 # 3333333 <offset+0x3332f1b>
    800079b0:	00c19193          	slli	gp,gp,0xc
    800079b4:	33318193          	addi	gp,gp,819
    800079b8:	00c19193          	slli	gp,gp,0xc
    800079bc:	33318193          	addi	gp,gp,819
    800079c0:	00d19193          	slli	gp,gp,0xd
    800079c4:	66118193          	addi	gp,gp,1633
    800079c8:	00c18463          	beq	gp,a2,800079d0 <inst_430>
    800079cc:	e58f806f          	j	80000024 <rvtest_error>

00000000800079d0 <inst_430>:
    800079d0:	00400513          	li	a0,4
    800079d4:	000005b7          	lui	a1,0x0
    800079d8:	00058593          	mv	a1,a1
    800079dc:	00b59593          	slli	a1,a1,0xb
    800079e0:	5a858593          	addi	a1,a1,1448 # 5a8 <offset+0x190>
    800079e4:	00b59593          	slli	a1,a1,0xb
    800079e8:	13c58593          	addi	a1,a1,316
    800079ec:	00a59593          	slli	a1,a1,0xa
    800079f0:	33258593          	addi	a1,a1,818
    800079f4:	00b54633          	xor	a2,a0,a1
    800079f8:	46c0b823          	sd	a2,1136(ra)
    800079fc:	000b51b7          	lui	gp,0xb5
    80007a00:	04f1819b          	addiw	gp,gp,79 # b504f <offset+0xb4c37>
    80007a04:	00c19193          	slli	gp,gp,0xc
    80007a08:	33618193          	addi	gp,gp,822
    80007a0c:	00c18463          	beq	gp,a2,80007a14 <inst_431>
    80007a10:	e14f806f          	j	80000024 <rvtest_error>

0000000080007a14 <inst_431>:
    80007a14:	00400513          	li	a0,4
    80007a18:	555555b7          	lui	a1,0x55555
    80007a1c:	55558593          	addi	a1,a1,1365 # 55555555 <absimmsh+0x49a847a8>
    80007a20:	00b59593          	slli	a1,a1,0xb
    80007a24:	2aa58593          	addi	a1,a1,682
    80007a28:	00b59593          	slli	a1,a1,0xb
    80007a2c:	55558593          	addi	a1,a1,1365
    80007a30:	00a59593          	slli	a1,a1,0xa
    80007a34:	15658593          	addi	a1,a1,342
    80007a38:	00b54633          	xor	a2,a0,a1
    80007a3c:	46c0bc23          	sd	a2,1144(ra)
    80007a40:	055551b7          	lui	gp,0x5555
    80007a44:	5551819b          	addiw	gp,gp,1365 # 5555555 <offset+0x555513d>
    80007a48:	00c19193          	slli	gp,gp,0xc
    80007a4c:	55518193          	addi	gp,gp,1365
    80007a50:	00c19193          	slli	gp,gp,0xc
    80007a54:	55518193          	addi	gp,gp,1365
    80007a58:	00c19193          	slli	gp,gp,0xc
    80007a5c:	55218193          	addi	gp,gp,1362
    80007a60:	00c18463          	beq	gp,a2,80007a68 <inst_432>
    80007a64:	dc0f806f          	j	80000024 <rvtest_error>

0000000080007a68 <inst_432>:
    80007a68:	00400513          	li	a0,4
    80007a6c:	aaaab5b7          	lui	a1,0xaaaab
    80007a70:	aaa58593          	addi	a1,a1,-1366 # ffffffffaaaaaaaa <absimm+0xfffffffeefd9cfda>
    80007a74:	00b59593          	slli	a1,a1,0xb
    80007a78:	55558593          	addi	a1,a1,1365
    80007a7c:	00b59593          	slli	a1,a1,0xb
    80007a80:	2aa58593          	addi	a1,a1,682
    80007a84:	00a59593          	slli	a1,a1,0xa
    80007a88:	2ab58593          	addi	a1,a1,683
    80007a8c:	00b54633          	xor	a2,a0,a1
    80007a90:	48c0b023          	sd	a2,1152(ra)
    80007a94:	faaab1b7          	lui	gp,0xfaaab
    80007a98:	aab1819b          	addiw	gp,gp,-1365 # fffffffffaaaaaab <absimm+0xffffffff3fd9cfdb>
    80007a9c:	00c19193          	slli	gp,gp,0xc
    80007aa0:	aab18193          	addi	gp,gp,-1365
    80007aa4:	00c19193          	slli	gp,gp,0xc
    80007aa8:	aab18193          	addi	gp,gp,-1365
    80007aac:	00c19193          	slli	gp,gp,0xc
    80007ab0:	aaf18193          	addi	gp,gp,-1361
    80007ab4:	00c18463          	beq	gp,a2,80007abc <inst_433>
    80007ab8:	d6cf806f          	j	80000024 <rvtest_error>

0000000080007abc <inst_433>:
    80007abc:	00400513          	li	a0,4
    80007ac0:	00600593          	li	a1,6
    80007ac4:	00b54633          	xor	a2,a0,a1
    80007ac8:	48c0b423          	sd	a2,1160(ra)
    80007acc:	00200193          	li	gp,2
    80007ad0:	00c18463          	beq	gp,a2,80007ad8 <inst_434>
    80007ad4:	d50f806f          	j	80000024 <rvtest_error>

0000000080007ad8 <inst_434>:
    80007ad8:	00400513          	li	a0,4
    80007adc:	333335b7          	lui	a1,0x33333
    80007ae0:	33358593          	addi	a1,a1,819 # 33333333 <absimmsh+0x27862586>
    80007ae4:	00b59593          	slli	a1,a1,0xb
    80007ae8:	19958593          	addi	a1,a1,409
    80007aec:	00b59593          	slli	a1,a1,0xb
    80007af0:	4cc58593          	addi	a1,a1,1228
    80007af4:	00a59593          	slli	a1,a1,0xa
    80007af8:	33458593          	addi	a1,a1,820
    80007afc:	00b54633          	xor	a2,a0,a1
    80007b00:	48c0b823          	sd	a2,1168(ra)
    80007b04:	033331b7          	lui	gp,0x3333
    80007b08:	3331819b          	addiw	gp,gp,819 # 3333333 <offset+0x3332f1b>
    80007b0c:	00c19193          	slli	gp,gp,0xc
    80007b10:	33318193          	addi	gp,gp,819
    80007b14:	00c19193          	slli	gp,gp,0xc
    80007b18:	33318193          	addi	gp,gp,819
    80007b1c:	00c19193          	slli	gp,gp,0xc
    80007b20:	33018193          	addi	gp,gp,816
    80007b24:	00c18463          	beq	gp,a2,80007b2c <inst_435>
    80007b28:	cfcf806f          	j	80000024 <rvtest_error>

0000000080007b2c <inst_435>:
    80007b2c:	00400513          	li	a0,4
    80007b30:	666665b7          	lui	a1,0x66666
    80007b34:	66658593          	addi	a1,a1,1638 # 66666666 <absimmsh+0x5ab958b9>
    80007b38:	00b59593          	slli	a1,a1,0xb
    80007b3c:	33358593          	addi	a1,a1,819
    80007b40:	00b59593          	slli	a1,a1,0xb
    80007b44:	19958593          	addi	a1,a1,409
    80007b48:	00a59593          	slli	a1,a1,0xa
    80007b4c:	26758593          	addi	a1,a1,615
    80007b50:	00b54633          	xor	a2,a0,a1
    80007b54:	48c0bc23          	sd	a2,1176(ra)
    80007b58:	033331b7          	lui	gp,0x3333
    80007b5c:	3331819b          	addiw	gp,gp,819 # 3333333 <offset+0x3332f1b>
    80007b60:	00c19193          	slli	gp,gp,0xc
    80007b64:	33318193          	addi	gp,gp,819
    80007b68:	00c19193          	slli	gp,gp,0xc
    80007b6c:	33318193          	addi	gp,gp,819
    80007b70:	00d19193          	slli	gp,gp,0xd
    80007b74:	66318193          	addi	gp,gp,1635
    80007b78:	00c18463          	beq	gp,a2,80007b80 <inst_436>
    80007b7c:	ca8f806f          	j	80000024 <rvtest_error>

0000000080007b80 <inst_436>:
    80007b80:	00400513          	li	a0,4
    80007b84:	000005b7          	lui	a1,0x0
    80007b88:	fff58593          	addi	a1,a1,-1
    80007b8c:	00b59593          	slli	a1,a1,0xb
    80007b90:	25758593          	addi	a1,a1,599
    80007b94:	00b59593          	slli	a1,a1,0xb
    80007b98:	6c358593          	addi	a1,a1,1731
    80007b9c:	00a59593          	slli	a1,a1,0xa
    80007ba0:	0ce58593          	addi	a1,a1,206
    80007ba4:	00b54633          	xor	a2,a0,a1
    80007ba8:	4ac0b023          	sd	a2,1184(ra)
    80007bac:	fff4b1b7          	lui	gp,0xfff4b
    80007bb0:	fb11819b          	addiw	gp,gp,-79 # fffffffffff4afb1 <absimm+0xffffffff4523d4e1>
    80007bb4:	00c19193          	slli	gp,gp,0xc
    80007bb8:	cca18193          	addi	gp,gp,-822
    80007bbc:	00c18463          	beq	gp,a2,80007bc4 <inst_437>
    80007bc0:	c64f806f          	j	80000024 <rvtest_error>

0000000080007bc4 <inst_437>:
    80007bc4:	00400513          	li	a0,4
    80007bc8:	000005b7          	lui	a1,0x0
    80007bcc:	00058593          	mv	a1,a1
    80007bd0:	00b59593          	slli	a1,a1,0xb
    80007bd4:	5a858593          	addi	a1,a1,1448 # 5a8 <offset+0x190>
    80007bd8:	00b59593          	slli	a1,a1,0xb
    80007bdc:	13c58593          	addi	a1,a1,316
    80007be0:	00a59593          	slli	a1,a1,0xa
    80007be4:	33458593          	addi	a1,a1,820
    80007be8:	00b54633          	xor	a2,a0,a1
    80007bec:	4ac0b423          	sd	a2,1192(ra)
    80007bf0:	000b51b7          	lui	gp,0xb5
    80007bf4:	04f1819b          	addiw	gp,gp,79 # b504f <offset+0xb4c37>
    80007bf8:	00c19193          	slli	gp,gp,0xc
    80007bfc:	33018193          	addi	gp,gp,816
    80007c00:	00c18463          	beq	gp,a2,80007c08 <inst_438>
    80007c04:	c20f806f          	j	80000024 <rvtest_error>

0000000080007c08 <inst_438>:
    80007c08:	33333537          	lui	a0,0x33333
    80007c0c:	33350513          	addi	a0,a0,819 # 33333333 <absimmsh+0x27862586>
    80007c10:	00b51513          	slli	a0,a0,0xb
    80007c14:	19950513          	addi	a0,a0,409
    80007c18:	00b51513          	slli	a0,a0,0xb
    80007c1c:	4cc50513          	addi	a0,a0,1228
    80007c20:	00a51513          	slli	a0,a0,0xa
    80007c24:	33250513          	addi	a0,a0,818
    80007c28:	00300593          	li	a1,3
    80007c2c:	00b54633          	xor	a2,a0,a1
    80007c30:	4ac0b823          	sd	a2,1200(ra)
    80007c34:	033331b7          	lui	gp,0x3333
    80007c38:	3331819b          	addiw	gp,gp,819 # 3333333 <offset+0x3332f1b>
    80007c3c:	00c19193          	slli	gp,gp,0xc
    80007c40:	33318193          	addi	gp,gp,819
    80007c44:	00c19193          	slli	gp,gp,0xc
    80007c48:	33318193          	addi	gp,gp,819
    80007c4c:	00c19193          	slli	gp,gp,0xc
    80007c50:	33118193          	addi	gp,gp,817
    80007c54:	00c18463          	beq	gp,a2,80007c5c <inst_439>
    80007c58:	bccf806f          	j	80000024 <rvtest_error>

0000000080007c5c <inst_439>:
    80007c5c:	33333537          	lui	a0,0x33333
    80007c60:	33350513          	addi	a0,a0,819 # 33333333 <absimmsh+0x27862586>
    80007c64:	00b51513          	slli	a0,a0,0xb
    80007c68:	19950513          	addi	a0,a0,409
    80007c6c:	00b51513          	slli	a0,a0,0xb
    80007c70:	4cc50513          	addi	a0,a0,1228
    80007c74:	00a51513          	slli	a0,a0,0xa
    80007c78:	33250513          	addi	a0,a0,818
    80007c7c:	555555b7          	lui	a1,0x55555
    80007c80:	55558593          	addi	a1,a1,1365 # 55555555 <absimmsh+0x49a847a8>
    80007c84:	00b59593          	slli	a1,a1,0xb
    80007c88:	2aa58593          	addi	a1,a1,682
    80007c8c:	00b59593          	slli	a1,a1,0xb
    80007c90:	55558593          	addi	a1,a1,1365
    80007c94:	00a59593          	slli	a1,a1,0xa
    80007c98:	15558593          	addi	a1,a1,341
    80007c9c:	00b54633          	xor	a2,a0,a1
    80007ca0:	4ac0bc23          	sd	a2,1208(ra)
    80007ca4:	033331b7          	lui	gp,0x3333
    80007ca8:	3331819b          	addiw	gp,gp,819 # 3333333 <offset+0x3332f1b>
    80007cac:	00c19193          	slli	gp,gp,0xc
    80007cb0:	33318193          	addi	gp,gp,819
    80007cb4:	00c19193          	slli	gp,gp,0xc
    80007cb8:	33318193          	addi	gp,gp,819
    80007cbc:	00d19193          	slli	gp,gp,0xd
    80007cc0:	66718193          	addi	gp,gp,1639
    80007cc4:	00c18463          	beq	gp,a2,80007ccc <inst_440>
    80007cc8:	b5cf806f          	j	80000024 <rvtest_error>

0000000080007ccc <inst_440>:
    80007ccc:	33333537          	lui	a0,0x33333
    80007cd0:	33350513          	addi	a0,a0,819 # 33333333 <absimmsh+0x27862586>
    80007cd4:	00b51513          	slli	a0,a0,0xb
    80007cd8:	19950513          	addi	a0,a0,409
    80007cdc:	00b51513          	slli	a0,a0,0xb
    80007ce0:	4cc50513          	addi	a0,a0,1228
    80007ce4:	00a51513          	slli	a0,a0,0xa
    80007ce8:	33250513          	addi	a0,a0,818
    80007cec:	aaaab5b7          	lui	a1,0xaaaab
    80007cf0:	aaa58593          	addi	a1,a1,-1366 # ffffffffaaaaaaaa <absimm+0xfffffffeefd9cfda>
    80007cf4:	00b59593          	slli	a1,a1,0xb
    80007cf8:	55558593          	addi	a1,a1,1365
    80007cfc:	00b59593          	slli	a1,a1,0xb
    80007d00:	2aa58593          	addi	a1,a1,682
    80007d04:	00a59593          	slli	a1,a1,0xa
    80007d08:	2aa58593          	addi	a1,a1,682
    80007d0c:	00b54633          	xor	a2,a0,a1
    80007d10:	4cc0b023          	sd	a2,1216(ra)
    80007d14:	fcccd1b7          	lui	gp,0xfcccd
    80007d18:	ccd1819b          	addiw	gp,gp,-819 # fffffffffccccccd <absimm+0xffffffff41fbf1fd>
    80007d1c:	00c19193          	slli	gp,gp,0xc
    80007d20:	ccd18193          	addi	gp,gp,-819
    80007d24:	00c19193          	slli	gp,gp,0xc
    80007d28:	ccd18193          	addi	gp,gp,-819
    80007d2c:	00d19193          	slli	gp,gp,0xd
    80007d30:	99818193          	addi	gp,gp,-1640
    80007d34:	00c18463          	beq	gp,a2,80007d3c <inst_441>
    80007d38:	aecf806f          	j	80000024 <rvtest_error>

0000000080007d3c <inst_441>:
    80007d3c:	33333537          	lui	a0,0x33333
    80007d40:	33350513          	addi	a0,a0,819 # 33333333 <absimmsh+0x27862586>
    80007d44:	00b51513          	slli	a0,a0,0xb
    80007d48:	19950513          	addi	a0,a0,409
    80007d4c:	00b51513          	slli	a0,a0,0xb
    80007d50:	4cc50513          	addi	a0,a0,1228
    80007d54:	00a51513          	slli	a0,a0,0xa
    80007d58:	33250513          	addi	a0,a0,818
    80007d5c:	00500593          	li	a1,5
    80007d60:	00b54633          	xor	a2,a0,a1
    80007d64:	4cc0b423          	sd	a2,1224(ra)
    80007d68:	033331b7          	lui	gp,0x3333
    80007d6c:	3331819b          	addiw	gp,gp,819 # 3333333 <offset+0x3332f1b>
    80007d70:	00c19193          	slli	gp,gp,0xc
    80007d74:	33318193          	addi	gp,gp,819
    80007d78:	00c19193          	slli	gp,gp,0xc
    80007d7c:	33318193          	addi	gp,gp,819
    80007d80:	00c19193          	slli	gp,gp,0xc
    80007d84:	33718193          	addi	gp,gp,823
    80007d88:	00c18463          	beq	gp,a2,80007d90 <inst_442>
    80007d8c:	a98f806f          	j	80000024 <rvtest_error>

0000000080007d90 <inst_442>:
    80007d90:	33333537          	lui	a0,0x33333
    80007d94:	33350513          	addi	a0,a0,819 # 33333333 <absimmsh+0x27862586>
    80007d98:	00b51513          	slli	a0,a0,0xb
    80007d9c:	19950513          	addi	a0,a0,409
    80007da0:	00b51513          	slli	a0,a0,0xb
    80007da4:	4cc50513          	addi	a0,a0,1228
    80007da8:	00a51513          	slli	a0,a0,0xa
    80007dac:	33250513          	addi	a0,a0,818
    80007db0:	333335b7          	lui	a1,0x33333
    80007db4:	33358593          	addi	a1,a1,819 # 33333333 <absimmsh+0x27862586>
    80007db8:	00b59593          	slli	a1,a1,0xb
    80007dbc:	19958593          	addi	a1,a1,409
    80007dc0:	00b59593          	slli	a1,a1,0xb
    80007dc4:	4cc58593          	addi	a1,a1,1228
    80007dc8:	00a59593          	slli	a1,a1,0xa
    80007dcc:	33358593          	addi	a1,a1,819
    80007dd0:	00b54633          	xor	a2,a0,a1
    80007dd4:	4cc0b823          	sd	a2,1232(ra)
    80007dd8:	00100193          	li	gp,1
    80007ddc:	00c18463          	beq	gp,a2,80007de4 <inst_443>
    80007de0:	a44f806f          	j	80000024 <rvtest_error>

0000000080007de4 <inst_443>:
    80007de4:	33333537          	lui	a0,0x33333
    80007de8:	33350513          	addi	a0,a0,819 # 33333333 <absimmsh+0x27862586>
    80007dec:	00b51513          	slli	a0,a0,0xb
    80007df0:	19950513          	addi	a0,a0,409
    80007df4:	00b51513          	slli	a0,a0,0xb
    80007df8:	4cc50513          	addi	a0,a0,1228
    80007dfc:	00a51513          	slli	a0,a0,0xa
    80007e00:	33250513          	addi	a0,a0,818
    80007e04:	666665b7          	lui	a1,0x66666
    80007e08:	66658593          	addi	a1,a1,1638 # 66666666 <absimmsh+0x5ab958b9>
    80007e0c:	00b59593          	slli	a1,a1,0xb
    80007e10:	33358593          	addi	a1,a1,819
    80007e14:	00b59593          	slli	a1,a1,0xb
    80007e18:	19958593          	addi	a1,a1,409
    80007e1c:	00a59593          	slli	a1,a1,0xa
    80007e20:	26658593          	addi	a1,a1,614
    80007e24:	00b54633          	xor	a2,a0,a1
    80007e28:	4cc0bc23          	sd	a2,1240(ra)
    80007e2c:	055551b7          	lui	gp,0x5555
    80007e30:	5551819b          	addiw	gp,gp,1365 # 5555555 <offset+0x555513d>
    80007e34:	00c19193          	slli	gp,gp,0xc
    80007e38:	55518193          	addi	gp,gp,1365
    80007e3c:	00c19193          	slli	gp,gp,0xc
    80007e40:	55518193          	addi	gp,gp,1365
    80007e44:	00c19193          	slli	gp,gp,0xc
    80007e48:	55418193          	addi	gp,gp,1364
    80007e4c:	00c18463          	beq	gp,a2,80007e54 <inst_444>
    80007e50:	9d4f806f          	j	80000024 <rvtest_error>

0000000080007e54 <inst_444>:
    80007e54:	33333537          	lui	a0,0x33333
    80007e58:	33350513          	addi	a0,a0,819 # 33333333 <absimmsh+0x27862586>
    80007e5c:	00b51513          	slli	a0,a0,0xb
    80007e60:	19950513          	addi	a0,a0,409
    80007e64:	00b51513          	slli	a0,a0,0xb
    80007e68:	4cc50513          	addi	a0,a0,1228
    80007e6c:	00a51513          	slli	a0,a0,0xa
    80007e70:	33250513          	addi	a0,a0,818
    80007e74:	000005b7          	lui	a1,0x0
    80007e78:	fff58593          	addi	a1,a1,-1
    80007e7c:	00b59593          	slli	a1,a1,0xb
    80007e80:	25758593          	addi	a1,a1,599
    80007e84:	00b59593          	slli	a1,a1,0xb
    80007e88:	6c358593          	addi	a1,a1,1731
    80007e8c:	00a59593          	slli	a1,a1,0xa
    80007e90:	0cd58593          	addi	a1,a1,205
    80007e94:	00b54633          	xor	a2,a0,a1
    80007e98:	4ec0b023          	sd	a2,1248(ra)
    80007e9c:	ffccd1b7          	lui	gp,0xffccd
    80007ea0:	ccd1819b          	addiw	gp,gp,-819 # ffffffffffcccccd <absimm+0xffffffff44fbf1fd>
    80007ea4:	00d19193          	slli	gp,gp,0xd
    80007ea8:	98f18193          	addi	gp,gp,-1649
    80007eac:	00d19193          	slli	gp,gp,0xd
    80007eb0:	72118193          	addi	gp,gp,1825
    80007eb4:	00e19193          	slli	gp,gp,0xe
    80007eb8:	fff18193          	addi	gp,gp,-1
    80007ebc:	00c18463          	beq	gp,a2,80007ec4 <inst_445>
    80007ec0:	964f806f          	j	80000024 <rvtest_error>

0000000080007ec4 <inst_445>:
    80007ec4:	33333537          	lui	a0,0x33333
    80007ec8:	33350513          	addi	a0,a0,819 # 33333333 <absimmsh+0x27862586>
    80007ecc:	00b51513          	slli	a0,a0,0xb
    80007ed0:	19950513          	addi	a0,a0,409
    80007ed4:	00b51513          	slli	a0,a0,0xb
    80007ed8:	4cc50513          	addi	a0,a0,1228
    80007edc:	00a51513          	slli	a0,a0,0xa
    80007ee0:	33250513          	addi	a0,a0,818
    80007ee4:	000005b7          	lui	a1,0x0
    80007ee8:	00058593          	mv	a1,a1
    80007eec:	00b59593          	slli	a1,a1,0xb
    80007ef0:	5a858593          	addi	a1,a1,1448 # 5a8 <offset+0x190>
    80007ef4:	00b59593          	slli	a1,a1,0xb
    80007ef8:	13c58593          	addi	a1,a1,316
    80007efc:	00a59593          	slli	a1,a1,0xa
    80007f00:	33358593          	addi	a1,a1,819
    80007f04:	00b54633          	xor	a2,a0,a1
    80007f08:	4ec0b423          	sd	a2,1256(ra)
    80007f0c:	003331b7          	lui	gp,0x333
    80007f10:	3331819b          	addiw	gp,gp,819 # 333333 <offset+0x332f1b>
    80007f14:	00d19193          	slli	gp,gp,0xd
    80007f18:	67118193          	addi	gp,gp,1649
    80007f1c:	00d19193          	slli	gp,gp,0xd
    80007f20:	8df18193          	addi	gp,gp,-1825
    80007f24:	00e19193          	slli	gp,gp,0xe
    80007f28:	00118193          	addi	gp,gp,1
    80007f2c:	00c18463          	beq	gp,a2,80007f34 <inst_446>
    80007f30:	8f4f806f          	j	80000024 <rvtest_error>

0000000080007f34 <inst_446>:
    80007f34:	33333537          	lui	a0,0x33333
    80007f38:	33350513          	addi	a0,a0,819 # 33333333 <absimmsh+0x27862586>
    80007f3c:	00b51513          	slli	a0,a0,0xb
    80007f40:	19950513          	addi	a0,a0,409
    80007f44:	00b51513          	slli	a0,a0,0xb
    80007f48:	4cc50513          	addi	a0,a0,1228
    80007f4c:	00a51513          	slli	a0,a0,0xa
    80007f50:	33250513          	addi	a0,a0,818
    80007f54:	00200593          	li	a1,2
    80007f58:	00b54633          	xor	a2,a0,a1
    80007f5c:	4ec0b823          	sd	a2,1264(ra)
    80007f60:	033331b7          	lui	gp,0x3333
    80007f64:	3331819b          	addiw	gp,gp,819 # 3333333 <offset+0x3332f1b>
    80007f68:	00c19193          	slli	gp,gp,0xc
    80007f6c:	33318193          	addi	gp,gp,819
    80007f70:	00c19193          	slli	gp,gp,0xc
    80007f74:	33318193          	addi	gp,gp,819
    80007f78:	00c19193          	slli	gp,gp,0xc
    80007f7c:	33018193          	addi	gp,gp,816
    80007f80:	00c18463          	beq	gp,a2,80007f88 <inst_447>
    80007f84:	8a0f806f          	j	80000024 <rvtest_error>

0000000080007f88 <inst_447>:
    80007f88:	33333537          	lui	a0,0x33333
    80007f8c:	33350513          	addi	a0,a0,819 # 33333333 <absimmsh+0x27862586>
    80007f90:	00b51513          	slli	a0,a0,0xb
    80007f94:	19950513          	addi	a0,a0,409
    80007f98:	00b51513          	slli	a0,a0,0xb
    80007f9c:	4cc50513          	addi	a0,a0,1228
    80007fa0:	00a51513          	slli	a0,a0,0xa
    80007fa4:	33250513          	addi	a0,a0,818
    80007fa8:	555555b7          	lui	a1,0x55555
    80007fac:	55558593          	addi	a1,a1,1365 # 55555555 <absimmsh+0x49a847a8>
    80007fb0:	00b59593          	slli	a1,a1,0xb
    80007fb4:	2aa58593          	addi	a1,a1,682
    80007fb8:	00b59593          	slli	a1,a1,0xb
    80007fbc:	55558593          	addi	a1,a1,1365
    80007fc0:	00a59593          	slli	a1,a1,0xa
    80007fc4:	15458593          	addi	a1,a1,340
    80007fc8:	00b54633          	xor	a2,a0,a1
    80007fcc:	4ec0bc23          	sd	a2,1272(ra)
    80007fd0:	033331b7          	lui	gp,0x3333
    80007fd4:	3331819b          	addiw	gp,gp,819 # 3333333 <offset+0x3332f1b>
    80007fd8:	00c19193          	slli	gp,gp,0xc
    80007fdc:	33318193          	addi	gp,gp,819
    80007fe0:	00c19193          	slli	gp,gp,0xc
    80007fe4:	33318193          	addi	gp,gp,819
    80007fe8:	00d19193          	slli	gp,gp,0xd
    80007fec:	66618193          	addi	gp,gp,1638
    80007ff0:	00c18463          	beq	gp,a2,80007ff8 <inst_448>
    80007ff4:	830f806f          	j	80000024 <rvtest_error>

0000000080007ff8 <inst_448>:
    80007ff8:	33333537          	lui	a0,0x33333
    80007ffc:	33350513          	addi	a0,a0,819 # 33333333 <absimmsh+0x27862586>
    80008000:	00b51513          	slli	a0,a0,0xb
    80008004:	19950513          	addi	a0,a0,409
    80008008:	00b51513          	slli	a0,a0,0xb
    8000800c:	4cc50513          	addi	a0,a0,1228
    80008010:	00a51513          	slli	a0,a0,0xa
    80008014:	33250513          	addi	a0,a0,818
    80008018:	00000593          	li	a1,0
    8000801c:	00b54633          	xor	a2,a0,a1
    80008020:	50c0b023          	sd	a2,1280(ra)
    80008024:	033331b7          	lui	gp,0x3333
    80008028:	3331819b          	addiw	gp,gp,819 # 3333333 <offset+0x3332f1b>
    8000802c:	00c19193          	slli	gp,gp,0xc
    80008030:	33318193          	addi	gp,gp,819
    80008034:	00c19193          	slli	gp,gp,0xc
    80008038:	33318193          	addi	gp,gp,819
    8000803c:	00c19193          	slli	gp,gp,0xc
    80008040:	33218193          	addi	gp,gp,818
    80008044:	00c18463          	beq	gp,a2,8000804c <inst_449>
    80008048:	fddf706f          	j	80000024 <rvtest_error>

000000008000804c <inst_449>:
    8000804c:	33333537          	lui	a0,0x33333
    80008050:	33350513          	addi	a0,a0,819 # 33333333 <absimmsh+0x27862586>
    80008054:	00b51513          	slli	a0,a0,0xb
    80008058:	19950513          	addi	a0,a0,409
    8000805c:	00b51513          	slli	a0,a0,0xb
    80008060:	4cc50513          	addi	a0,a0,1228
    80008064:	00a51513          	slli	a0,a0,0xa
    80008068:	33250513          	addi	a0,a0,818
    8000806c:	00400593          	li	a1,4
    80008070:	00b54633          	xor	a2,a0,a1
    80008074:	50c0b423          	sd	a2,1288(ra)
    80008078:	033331b7          	lui	gp,0x3333
    8000807c:	3331819b          	addiw	gp,gp,819 # 3333333 <offset+0x3332f1b>
    80008080:	00c19193          	slli	gp,gp,0xc
    80008084:	33318193          	addi	gp,gp,819
    80008088:	00c19193          	slli	gp,gp,0xc
    8000808c:	33318193          	addi	gp,gp,819
    80008090:	00c19193          	slli	gp,gp,0xc
    80008094:	33618193          	addi	gp,gp,822
    80008098:	00c18463          	beq	gp,a2,800080a0 <inst_450>
    8000809c:	f89f706f          	j	80000024 <rvtest_error>

00000000800080a0 <inst_450>:
    800080a0:	33333537          	lui	a0,0x33333
    800080a4:	33350513          	addi	a0,a0,819 # 33333333 <absimmsh+0x27862586>
    800080a8:	00b51513          	slli	a0,a0,0xb
    800080ac:	19950513          	addi	a0,a0,409
    800080b0:	00b51513          	slli	a0,a0,0xb
    800080b4:	4cc50513          	addi	a0,a0,1228
    800080b8:	00a51513          	slli	a0,a0,0xa
    800080bc:	33250513          	addi	a0,a0,818
    800080c0:	333335b7          	lui	a1,0x33333
    800080c4:	33358593          	addi	a1,a1,819 # 33333333 <absimmsh+0x27862586>
    800080c8:	00b59593          	slli	a1,a1,0xb
    800080cc:	19958593          	addi	a1,a1,409
    800080d0:	00b59593          	slli	a1,a1,0xb
    800080d4:	4cc58593          	addi	a1,a1,1228
    800080d8:	00a59593          	slli	a1,a1,0xa
    800080dc:	33258593          	addi	a1,a1,818
    800080e0:	00b54633          	xor	a2,a0,a1
    800080e4:	50c0b823          	sd	a2,1296(ra)
    800080e8:	00000193          	li	gp,0
    800080ec:	00c18463          	beq	gp,a2,800080f4 <inst_451>
    800080f0:	f35f706f          	j	80000024 <rvtest_error>

00000000800080f4 <inst_451>:
    800080f4:	33333537          	lui	a0,0x33333
    800080f8:	33350513          	addi	a0,a0,819 # 33333333 <absimmsh+0x27862586>
    800080fc:	00b51513          	slli	a0,a0,0xb
    80008100:	19950513          	addi	a0,a0,409
    80008104:	00b51513          	slli	a0,a0,0xb
    80008108:	4cc50513          	addi	a0,a0,1228
    8000810c:	00a51513          	slli	a0,a0,0xa
    80008110:	33250513          	addi	a0,a0,818
    80008114:	666665b7          	lui	a1,0x66666
    80008118:	66658593          	addi	a1,a1,1638 # 66666666 <absimmsh+0x5ab958b9>
    8000811c:	00b59593          	slli	a1,a1,0xb
    80008120:	33358593          	addi	a1,a1,819
    80008124:	00b59593          	slli	a1,a1,0xb
    80008128:	19958593          	addi	a1,a1,409
    8000812c:	00a59593          	slli	a1,a1,0xa
    80008130:	26558593          	addi	a1,a1,613
    80008134:	00b54633          	xor	a2,a0,a1
    80008138:	50c0bc23          	sd	a2,1304(ra)
    8000813c:	055551b7          	lui	gp,0x5555
    80008140:	5551819b          	addiw	gp,gp,1365 # 5555555 <offset+0x555513d>
    80008144:	00c19193          	slli	gp,gp,0xc
    80008148:	55518193          	addi	gp,gp,1365
    8000814c:	00c19193          	slli	gp,gp,0xc
    80008150:	55518193          	addi	gp,gp,1365
    80008154:	00c19193          	slli	gp,gp,0xc
    80008158:	55718193          	addi	gp,gp,1367
    8000815c:	00c18463          	beq	gp,a2,80008164 <inst_452>
    80008160:	ec5f706f          	j	80000024 <rvtest_error>

0000000080008164 <inst_452>:
    80008164:	33333537          	lui	a0,0x33333
    80008168:	33350513          	addi	a0,a0,819 # 33333333 <absimmsh+0x27862586>
    8000816c:	00b51513          	slli	a0,a0,0xb
    80008170:	19950513          	addi	a0,a0,409
    80008174:	00b51513          	slli	a0,a0,0xb
    80008178:	4cc50513          	addi	a0,a0,1228
    8000817c:	00a51513          	slli	a0,a0,0xa
    80008180:	33250513          	addi	a0,a0,818
    80008184:	000005b7          	lui	a1,0x0
    80008188:	00058593          	mv	a1,a1
    8000818c:	00b59593          	slli	a1,a1,0xb
    80008190:	5a858593          	addi	a1,a1,1448 # 5a8 <offset+0x190>
    80008194:	00b59593          	slli	a1,a1,0xb
    80008198:	13c58593          	addi	a1,a1,316
    8000819c:	00a59593          	slli	a1,a1,0xa
    800081a0:	33258593          	addi	a1,a1,818
    800081a4:	00b54633          	xor	a2,a0,a1
    800081a8:	52c0b023          	sd	a2,1312(ra)
    800081ac:	003331b7          	lui	gp,0x333
    800081b0:	3331819b          	addiw	gp,gp,819 # 333333 <offset+0x332f1b>
    800081b4:	00d19193          	slli	gp,gp,0xd
    800081b8:	67118193          	addi	gp,gp,1649
    800081bc:	00d19193          	slli	gp,gp,0xd
    800081c0:	8df18193          	addi	gp,gp,-1825
    800081c4:	00e19193          	slli	gp,gp,0xe
    800081c8:	00c18463          	beq	gp,a2,800081d0 <inst_453>
    800081cc:	e59f706f          	j	80000024 <rvtest_error>

00000000800081d0 <inst_453>:
    800081d0:	33333537          	lui	a0,0x33333
    800081d4:	33350513          	addi	a0,a0,819 # 33333333 <absimmsh+0x27862586>
    800081d8:	00b51513          	slli	a0,a0,0xb
    800081dc:	19950513          	addi	a0,a0,409
    800081e0:	00b51513          	slli	a0,a0,0xb
    800081e4:	4cc50513          	addi	a0,a0,1228
    800081e8:	00a51513          	slli	a0,a0,0xa
    800081ec:	33250513          	addi	a0,a0,818
    800081f0:	555555b7          	lui	a1,0x55555
    800081f4:	55558593          	addi	a1,a1,1365 # 55555555 <absimmsh+0x49a847a8>
    800081f8:	00b59593          	slli	a1,a1,0xb
    800081fc:	2aa58593          	addi	a1,a1,682
    80008200:	00b59593          	slli	a1,a1,0xb
    80008204:	55558593          	addi	a1,a1,1365
    80008208:	00a59593          	slli	a1,a1,0xa
    8000820c:	15658593          	addi	a1,a1,342
    80008210:	00b54633          	xor	a2,a0,a1
    80008214:	52c0b423          	sd	a2,1320(ra)
    80008218:	033331b7          	lui	gp,0x3333
    8000821c:	3331819b          	addiw	gp,gp,819 # 3333333 <offset+0x3332f1b>
    80008220:	00c19193          	slli	gp,gp,0xc
    80008224:	33318193          	addi	gp,gp,819
    80008228:	00c19193          	slli	gp,gp,0xc
    8000822c:	33318193          	addi	gp,gp,819
    80008230:	00d19193          	slli	gp,gp,0xd
    80008234:	66418193          	addi	gp,gp,1636
    80008238:	00c18463          	beq	gp,a2,80008240 <inst_454>
    8000823c:	de9f706f          	j	80000024 <rvtest_error>

0000000080008240 <inst_454>:
    80008240:	33333537          	lui	a0,0x33333
    80008244:	33350513          	addi	a0,a0,819 # 33333333 <absimmsh+0x27862586>
    80008248:	00b51513          	slli	a0,a0,0xb
    8000824c:	19950513          	addi	a0,a0,409
    80008250:	00b51513          	slli	a0,a0,0xb
    80008254:	4cc50513          	addi	a0,a0,1228
    80008258:	00a51513          	slli	a0,a0,0xa
    8000825c:	33250513          	addi	a0,a0,818
    80008260:	aaaab5b7          	lui	a1,0xaaaab
    80008264:	aaa58593          	addi	a1,a1,-1366 # ffffffffaaaaaaaa <absimm+0xfffffffeefd9cfda>
    80008268:	00b59593          	slli	a1,a1,0xb
    8000826c:	55558593          	addi	a1,a1,1365
    80008270:	00b59593          	slli	a1,a1,0xb
    80008274:	2aa58593          	addi	a1,a1,682
    80008278:	00a59593          	slli	a1,a1,0xa
    8000827c:	2ab58593          	addi	a1,a1,683
    80008280:	00b54633          	xor	a2,a0,a1
    80008284:	52c0b823          	sd	a2,1328(ra)
    80008288:	fcccd1b7          	lui	gp,0xfcccd
    8000828c:	ccd1819b          	addiw	gp,gp,-819 # fffffffffccccccd <absimm+0xffffffff41fbf1fd>
    80008290:	00c19193          	slli	gp,gp,0xc
    80008294:	ccd18193          	addi	gp,gp,-819
    80008298:	00c19193          	slli	gp,gp,0xc
    8000829c:	ccd18193          	addi	gp,gp,-819
    800082a0:	00d19193          	slli	gp,gp,0xd
    800082a4:	99918193          	addi	gp,gp,-1639
    800082a8:	00c18463          	beq	gp,a2,800082b0 <inst_455>
    800082ac:	d79f706f          	j	80000024 <rvtest_error>

00000000800082b0 <inst_455>:
    800082b0:	33333537          	lui	a0,0x33333
    800082b4:	33350513          	addi	a0,a0,819 # 33333333 <absimmsh+0x27862586>
    800082b8:	00b51513          	slli	a0,a0,0xb
    800082bc:	19950513          	addi	a0,a0,409
    800082c0:	00b51513          	slli	a0,a0,0xb
    800082c4:	4cc50513          	addi	a0,a0,1228
    800082c8:	00a51513          	slli	a0,a0,0xa
    800082cc:	33250513          	addi	a0,a0,818
    800082d0:	00600593          	li	a1,6
    800082d4:	00b54633          	xor	a2,a0,a1
    800082d8:	52c0bc23          	sd	a2,1336(ra)
    800082dc:	033331b7          	lui	gp,0x3333
    800082e0:	3331819b          	addiw	gp,gp,819 # 3333333 <offset+0x3332f1b>
    800082e4:	00c19193          	slli	gp,gp,0xc
    800082e8:	33318193          	addi	gp,gp,819
    800082ec:	00c19193          	slli	gp,gp,0xc
    800082f0:	33318193          	addi	gp,gp,819
    800082f4:	00c19193          	slli	gp,gp,0xc
    800082f8:	33418193          	addi	gp,gp,820
    800082fc:	00c18463          	beq	gp,a2,80008304 <inst_456>
    80008300:	d25f706f          	j	80000024 <rvtest_error>

0000000080008304 <inst_456>:
    80008304:	33333537          	lui	a0,0x33333
    80008308:	33350513          	addi	a0,a0,819 # 33333333 <absimmsh+0x27862586>
    8000830c:	00b51513          	slli	a0,a0,0xb
    80008310:	19950513          	addi	a0,a0,409
    80008314:	00b51513          	slli	a0,a0,0xb
    80008318:	4cc50513          	addi	a0,a0,1228
    8000831c:	00a51513          	slli	a0,a0,0xa
    80008320:	33250513          	addi	a0,a0,818
    80008324:	333335b7          	lui	a1,0x33333
    80008328:	33358593          	addi	a1,a1,819 # 33333333 <absimmsh+0x27862586>
    8000832c:	00b59593          	slli	a1,a1,0xb
    80008330:	19958593          	addi	a1,a1,409
    80008334:	00b59593          	slli	a1,a1,0xb
    80008338:	4cc58593          	addi	a1,a1,1228
    8000833c:	00a59593          	slli	a1,a1,0xa
    80008340:	33458593          	addi	a1,a1,820
    80008344:	00b54633          	xor	a2,a0,a1
    80008348:	54c0b023          	sd	a2,1344(ra)
    8000834c:	00600193          	li	gp,6
    80008350:	00c18463          	beq	gp,a2,80008358 <inst_457>
    80008354:	cd1f706f          	j	80000024 <rvtest_error>

0000000080008358 <inst_457>:
    80008358:	33333537          	lui	a0,0x33333
    8000835c:	33350513          	addi	a0,a0,819 # 33333333 <absimmsh+0x27862586>
    80008360:	00b51513          	slli	a0,a0,0xb
    80008364:	19950513          	addi	a0,a0,409
    80008368:	00b51513          	slli	a0,a0,0xb
    8000836c:	4cc50513          	addi	a0,a0,1228
    80008370:	00a51513          	slli	a0,a0,0xa
    80008374:	33250513          	addi	a0,a0,818
    80008378:	666665b7          	lui	a1,0x66666
    8000837c:	66658593          	addi	a1,a1,1638 # 66666666 <absimmsh+0x5ab958b9>
    80008380:	00b59593          	slli	a1,a1,0xb
    80008384:	33358593          	addi	a1,a1,819
    80008388:	00b59593          	slli	a1,a1,0xb
    8000838c:	19958593          	addi	a1,a1,409
    80008390:	00a59593          	slli	a1,a1,0xa
    80008394:	26758593          	addi	a1,a1,615
    80008398:	00b54633          	xor	a2,a0,a1
    8000839c:	54c0b423          	sd	a2,1352(ra)
    800083a0:	055551b7          	lui	gp,0x5555
    800083a4:	5551819b          	addiw	gp,gp,1365 # 5555555 <offset+0x555513d>
    800083a8:	00c19193          	slli	gp,gp,0xc
    800083ac:	55518193          	addi	gp,gp,1365
    800083b0:	00c19193          	slli	gp,gp,0xc
    800083b4:	55518193          	addi	gp,gp,1365
    800083b8:	00c19193          	slli	gp,gp,0xc
    800083bc:	55518193          	addi	gp,gp,1365
    800083c0:	00c18463          	beq	gp,a2,800083c8 <inst_458>
    800083c4:	c61f706f          	j	80000024 <rvtest_error>

00000000800083c8 <inst_458>:
    800083c8:	33333537          	lui	a0,0x33333
    800083cc:	33350513          	addi	a0,a0,819 # 33333333 <absimmsh+0x27862586>
    800083d0:	00b51513          	slli	a0,a0,0xb
    800083d4:	19950513          	addi	a0,a0,409
    800083d8:	00b51513          	slli	a0,a0,0xb
    800083dc:	4cc50513          	addi	a0,a0,1228
    800083e0:	00a51513          	slli	a0,a0,0xa
    800083e4:	33250513          	addi	a0,a0,818
    800083e8:	000005b7          	lui	a1,0x0
    800083ec:	fff58593          	addi	a1,a1,-1
    800083f0:	00b59593          	slli	a1,a1,0xb
    800083f4:	25758593          	addi	a1,a1,599
    800083f8:	00b59593          	slli	a1,a1,0xb
    800083fc:	6c358593          	addi	a1,a1,1731
    80008400:	00a59593          	slli	a1,a1,0xa
    80008404:	0ce58593          	addi	a1,a1,206
    80008408:	00b54633          	xor	a2,a0,a1
    8000840c:	54c0b823          	sd	a2,1360(ra)
    80008410:	ffccd1b7          	lui	gp,0xffccd
    80008414:	ccd1819b          	addiw	gp,gp,-819 # ffffffffffcccccd <absimm+0xffffffff44fbf1fd>
    80008418:	00d19193          	slli	gp,gp,0xd
    8000841c:	98f18193          	addi	gp,gp,-1649
    80008420:	00d19193          	slli	gp,gp,0xd
    80008424:	72118193          	addi	gp,gp,1825
    80008428:	00e19193          	slli	gp,gp,0xe
    8000842c:	ffc18193          	addi	gp,gp,-4
    80008430:	00c18463          	beq	gp,a2,80008438 <inst_459>
    80008434:	bf1f706f          	j	80000024 <rvtest_error>

0000000080008438 <inst_459>:
    80008438:	33333537          	lui	a0,0x33333
    8000843c:	33350513          	addi	a0,a0,819 # 33333333 <absimmsh+0x27862586>
    80008440:	00b51513          	slli	a0,a0,0xb
    80008444:	19950513          	addi	a0,a0,409
    80008448:	00b51513          	slli	a0,a0,0xb
    8000844c:	4cc50513          	addi	a0,a0,1228
    80008450:	00a51513          	slli	a0,a0,0xa
    80008454:	33250513          	addi	a0,a0,818
    80008458:	000005b7          	lui	a1,0x0
    8000845c:	00058593          	mv	a1,a1
    80008460:	00b59593          	slli	a1,a1,0xb
    80008464:	5a858593          	addi	a1,a1,1448 # 5a8 <offset+0x190>
    80008468:	00b59593          	slli	a1,a1,0xb
    8000846c:	13c58593          	addi	a1,a1,316
    80008470:	00a59593          	slli	a1,a1,0xa
    80008474:	33458593          	addi	a1,a1,820
    80008478:	00b54633          	xor	a2,a0,a1
    8000847c:	54c0bc23          	sd	a2,1368(ra)
    80008480:	003331b7          	lui	gp,0x333
    80008484:	3331819b          	addiw	gp,gp,819 # 333333 <offset+0x332f1b>
    80008488:	00d19193          	slli	gp,gp,0xd
    8000848c:	67118193          	addi	gp,gp,1649
    80008490:	00d19193          	slli	gp,gp,0xd
    80008494:	8df18193          	addi	gp,gp,-1825
    80008498:	00e19193          	slli	gp,gp,0xe
    8000849c:	00618193          	addi	gp,gp,6
    800084a0:	00c18463          	beq	gp,a2,800084a8 <inst_460>
    800084a4:	b81f706f          	j	80000024 <rvtest_error>

00000000800084a8 <inst_460>:
    800084a8:	66666537          	lui	a0,0x66666
    800084ac:	66650513          	addi	a0,a0,1638 # 66666666 <absimmsh+0x5ab958b9>
    800084b0:	00b51513          	slli	a0,a0,0xb
    800084b4:	33350513          	addi	a0,a0,819
    800084b8:	00b51513          	slli	a0,a0,0xb
    800084bc:	19950513          	addi	a0,a0,409
    800084c0:	00a51513          	slli	a0,a0,0xa
    800084c4:	26550513          	addi	a0,a0,613
    800084c8:	00300593          	li	a1,3
    800084cc:	00b54633          	xor	a2,a0,a1
    800084d0:	56c0b023          	sd	a2,1376(ra)
    800084d4:	033331b7          	lui	gp,0x3333
    800084d8:	3331819b          	addiw	gp,gp,819 # 3333333 <offset+0x3332f1b>
    800084dc:	00c19193          	slli	gp,gp,0xc
    800084e0:	33318193          	addi	gp,gp,819
    800084e4:	00c19193          	slli	gp,gp,0xc
    800084e8:	33318193          	addi	gp,gp,819
    800084ec:	00d19193          	slli	gp,gp,0xd
    800084f0:	66618193          	addi	gp,gp,1638
    800084f4:	00c18463          	beq	gp,a2,800084fc <inst_461>
    800084f8:	b2df706f          	j	80000024 <rvtest_error>

00000000800084fc <inst_461>:
    800084fc:	66666537          	lui	a0,0x66666
    80008500:	66650513          	addi	a0,a0,1638 # 66666666 <absimmsh+0x5ab958b9>
    80008504:	00b51513          	slli	a0,a0,0xb
    80008508:	33350513          	addi	a0,a0,819
    8000850c:	00b51513          	slli	a0,a0,0xb
    80008510:	19950513          	addi	a0,a0,409
    80008514:	00a51513          	slli	a0,a0,0xa
    80008518:	26550513          	addi	a0,a0,613
    8000851c:	555555b7          	lui	a1,0x55555
    80008520:	55558593          	addi	a1,a1,1365 # 55555555 <absimmsh+0x49a847a8>
    80008524:	00b59593          	slli	a1,a1,0xb
    80008528:	2aa58593          	addi	a1,a1,682
    8000852c:	00b59593          	slli	a1,a1,0xb
    80008530:	55558593          	addi	a1,a1,1365
    80008534:	00a59593          	slli	a1,a1,0xa
    80008538:	15558593          	addi	a1,a1,341
    8000853c:	00b54633          	xor	a2,a0,a1
    80008540:	56c0b423          	sd	a2,1384(ra)
    80008544:	033331b7          	lui	gp,0x3333
    80008548:	3331819b          	addiw	gp,gp,819 # 3333333 <offset+0x3332f1b>
    8000854c:	00c19193          	slli	gp,gp,0xc
    80008550:	33318193          	addi	gp,gp,819
    80008554:	00c19193          	slli	gp,gp,0xc
    80008558:	33318193          	addi	gp,gp,819
    8000855c:	00c19193          	slli	gp,gp,0xc
    80008560:	33018193          	addi	gp,gp,816
    80008564:	00c18463          	beq	gp,a2,8000856c <inst_462>
    80008568:	abdf706f          	j	80000024 <rvtest_error>

000000008000856c <inst_462>:
    8000856c:	66666537          	lui	a0,0x66666
    80008570:	66650513          	addi	a0,a0,1638 # 66666666 <absimmsh+0x5ab958b9>
    80008574:	00b51513          	slli	a0,a0,0xb
    80008578:	33350513          	addi	a0,a0,819
    8000857c:	00b51513          	slli	a0,a0,0xb
    80008580:	19950513          	addi	a0,a0,409
    80008584:	00a51513          	slli	a0,a0,0xa
    80008588:	26550513          	addi	a0,a0,613
    8000858c:	aaaab5b7          	lui	a1,0xaaaab
    80008590:	aaa58593          	addi	a1,a1,-1366 # ffffffffaaaaaaaa <absimm+0xfffffffeefd9cfda>
    80008594:	00b59593          	slli	a1,a1,0xb
    80008598:	55558593          	addi	a1,a1,1365
    8000859c:	00b59593          	slli	a1,a1,0xb
    800085a0:	2aa58593          	addi	a1,a1,682
    800085a4:	00a59593          	slli	a1,a1,0xa
    800085a8:	2aa58593          	addi	a1,a1,682
    800085ac:	00b54633          	xor	a2,a0,a1
    800085b0:	56c0b823          	sd	a2,1392(ra)
    800085b4:	fcccd1b7          	lui	gp,0xfcccd
    800085b8:	ccd1819b          	addiw	gp,gp,-819 # fffffffffccccccd <absimm+0xffffffff41fbf1fd>
    800085bc:	00c19193          	slli	gp,gp,0xc
    800085c0:	ccd18193          	addi	gp,gp,-819
    800085c4:	00c19193          	slli	gp,gp,0xc
    800085c8:	ccd18193          	addi	gp,gp,-819
    800085cc:	00c19193          	slli	gp,gp,0xc
    800085d0:	ccf18193          	addi	gp,gp,-817
    800085d4:	00c18463          	beq	gp,a2,800085dc <inst_463>
    800085d8:	a4df706f          	j	80000024 <rvtest_error>

00000000800085dc <inst_463>:
    800085dc:	66666537          	lui	a0,0x66666
    800085e0:	66650513          	addi	a0,a0,1638 # 66666666 <absimmsh+0x5ab958b9>
    800085e4:	00b51513          	slli	a0,a0,0xb
    800085e8:	33350513          	addi	a0,a0,819
    800085ec:	00b51513          	slli	a0,a0,0xb
    800085f0:	19950513          	addi	a0,a0,409
    800085f4:	00a51513          	slli	a0,a0,0xa
    800085f8:	26550513          	addi	a0,a0,613
    800085fc:	00500593          	li	a1,5
    80008600:	00b54633          	xor	a2,a0,a1
    80008604:	56c0bc23          	sd	a2,1400(ra)
    80008608:	033331b7          	lui	gp,0x3333
    8000860c:	3331819b          	addiw	gp,gp,819 # 3333333 <offset+0x3332f1b>
    80008610:	00c19193          	slli	gp,gp,0xc
    80008614:	33318193          	addi	gp,gp,819
    80008618:	00c19193          	slli	gp,gp,0xc
    8000861c:	33318193          	addi	gp,gp,819
    80008620:	00d19193          	slli	gp,gp,0xd
    80008624:	66018193          	addi	gp,gp,1632
    80008628:	00c18463          	beq	gp,a2,80008630 <inst_464>
    8000862c:	9f9f706f          	j	80000024 <rvtest_error>

0000000080008630 <inst_464>:
    80008630:	66666537          	lui	a0,0x66666
    80008634:	66650513          	addi	a0,a0,1638 # 66666666 <absimmsh+0x5ab958b9>
    80008638:	00b51513          	slli	a0,a0,0xb
    8000863c:	33350513          	addi	a0,a0,819
    80008640:	00b51513          	slli	a0,a0,0xb
    80008644:	19950513          	addi	a0,a0,409
    80008648:	00a51513          	slli	a0,a0,0xa
    8000864c:	26550513          	addi	a0,a0,613
    80008650:	333335b7          	lui	a1,0x33333
    80008654:	33358593          	addi	a1,a1,819 # 33333333 <absimmsh+0x27862586>
    80008658:	00b59593          	slli	a1,a1,0xb
    8000865c:	19958593          	addi	a1,a1,409
    80008660:	00b59593          	slli	a1,a1,0xb
    80008664:	4cc58593          	addi	a1,a1,1228
    80008668:	00a59593          	slli	a1,a1,0xa
    8000866c:	33358593          	addi	a1,a1,819
    80008670:	00b54633          	xor	a2,a0,a1
    80008674:	58c0b023          	sd	a2,1408(ra)
    80008678:	055551b7          	lui	gp,0x5555
    8000867c:	5551819b          	addiw	gp,gp,1365 # 5555555 <offset+0x555513d>
    80008680:	00c19193          	slli	gp,gp,0xc
    80008684:	55518193          	addi	gp,gp,1365
    80008688:	00c19193          	slli	gp,gp,0xc
    8000868c:	55518193          	addi	gp,gp,1365
    80008690:	00c19193          	slli	gp,gp,0xc
    80008694:	55618193          	addi	gp,gp,1366
    80008698:	00c18463          	beq	gp,a2,800086a0 <inst_465>
    8000869c:	989f706f          	j	80000024 <rvtest_error>

00000000800086a0 <inst_465>:
    800086a0:	66666537          	lui	a0,0x66666
    800086a4:	66650513          	addi	a0,a0,1638 # 66666666 <absimmsh+0x5ab958b9>
    800086a8:	00b51513          	slli	a0,a0,0xb
    800086ac:	33350513          	addi	a0,a0,819
    800086b0:	00b51513          	slli	a0,a0,0xb
    800086b4:	19950513          	addi	a0,a0,409
    800086b8:	00a51513          	slli	a0,a0,0xa
    800086bc:	26550513          	addi	a0,a0,613
    800086c0:	666665b7          	lui	a1,0x66666
    800086c4:	66658593          	addi	a1,a1,1638 # 66666666 <absimmsh+0x5ab958b9>
    800086c8:	00b59593          	slli	a1,a1,0xb
    800086cc:	33358593          	addi	a1,a1,819
    800086d0:	00b59593          	slli	a1,a1,0xb
    800086d4:	19958593          	addi	a1,a1,409
    800086d8:	00a59593          	slli	a1,a1,0xa
    800086dc:	26658593          	addi	a1,a1,614
    800086e0:	00b54633          	xor	a2,a0,a1
    800086e4:	58c0b423          	sd	a2,1416(ra)
    800086e8:	00300193          	li	gp,3
    800086ec:	00c18463          	beq	gp,a2,800086f4 <inst_466>
    800086f0:	935f706f          	j	80000024 <rvtest_error>

00000000800086f4 <inst_466>:
    800086f4:	66666537          	lui	a0,0x66666
    800086f8:	66650513          	addi	a0,a0,1638 # 66666666 <absimmsh+0x5ab958b9>
    800086fc:	00b51513          	slli	a0,a0,0xb
    80008700:	33350513          	addi	a0,a0,819
    80008704:	00b51513          	slli	a0,a0,0xb
    80008708:	19950513          	addi	a0,a0,409
    8000870c:	00a51513          	slli	a0,a0,0xa
    80008710:	26550513          	addi	a0,a0,613
    80008714:	000005b7          	lui	a1,0x0
    80008718:	fff58593          	addi	a1,a1,-1
    8000871c:	00b59593          	slli	a1,a1,0xb
    80008720:	25758593          	addi	a1,a1,599
    80008724:	00b59593          	slli	a1,a1,0xb
    80008728:	6c358593          	addi	a1,a1,1731
    8000872c:	00a59593          	slli	a1,a1,0xa
    80008730:	0cd58593          	addi	a1,a1,205
    80008734:	00b54633          	xor	a2,a0,a1
    80008738:	58c0b823          	sd	a2,1424(ra)
    8000873c:	fcccd1b7          	lui	gp,0xfcccd
    80008740:	ccd1819b          	addiw	gp,gp,-819 # fffffffffccccccd <absimm+0xffffffff41fbf1fd>
    80008744:	00d19193          	slli	gp,gp,0xd
    80008748:	92d18193          	addi	gp,gp,-1747
    8000874c:	00c19193          	slli	gp,gp,0xc
    80008750:	9d718193          	addi	gp,gp,-1577
    80008754:	00c19193          	slli	gp,gp,0xc
    80008758:	aa818193          	addi	gp,gp,-1368
    8000875c:	00c18463          	beq	gp,a2,80008764 <inst_467>
    80008760:	8c5f706f          	j	80000024 <rvtest_error>

0000000080008764 <inst_467>:
    80008764:	66666537          	lui	a0,0x66666
    80008768:	66650513          	addi	a0,a0,1638 # 66666666 <absimmsh+0x5ab958b9>
    8000876c:	00b51513          	slli	a0,a0,0xb
    80008770:	33350513          	addi	a0,a0,819
    80008774:	00b51513          	slli	a0,a0,0xb
    80008778:	19950513          	addi	a0,a0,409
    8000877c:	00a51513          	slli	a0,a0,0xa
    80008780:	26550513          	addi	a0,a0,613
    80008784:	000005b7          	lui	a1,0x0
    80008788:	00058593          	mv	a1,a1
    8000878c:	00b59593          	slli	a1,a1,0xb
    80008790:	5a858593          	addi	a1,a1,1448 # 5a8 <offset+0x190>
    80008794:	00b59593          	slli	a1,a1,0xb
    80008798:	13c58593          	addi	a1,a1,316
    8000879c:	00a59593          	slli	a1,a1,0xa
    800087a0:	33358593          	addi	a1,a1,819
    800087a4:	00b54633          	xor	a2,a0,a1
    800087a8:	58c0bc23          	sd	a2,1432(ra)
    800087ac:	033331b7          	lui	gp,0x3333
    800087b0:	3331819b          	addiw	gp,gp,819 # 3333333 <offset+0x3332f1b>
    800087b4:	00d19193          	slli	gp,gp,0xd
    800087b8:	6d318193          	addi	gp,gp,1747
    800087bc:	00c19193          	slli	gp,gp,0xc
    800087c0:	62918193          	addi	gp,gp,1577
    800087c4:	00c19193          	slli	gp,gp,0xc
    800087c8:	55618193          	addi	gp,gp,1366
    800087cc:	00c18463          	beq	gp,a2,800087d4 <inst_468>
    800087d0:	855f706f          	j	80000024 <rvtest_error>

00000000800087d4 <inst_468>:
    800087d4:	66666537          	lui	a0,0x66666
    800087d8:	66650513          	addi	a0,a0,1638 # 66666666 <absimmsh+0x5ab958b9>
    800087dc:	00b51513          	slli	a0,a0,0xb
    800087e0:	33350513          	addi	a0,a0,819
    800087e4:	00b51513          	slli	a0,a0,0xb
    800087e8:	19950513          	addi	a0,a0,409
    800087ec:	00a51513          	slli	a0,a0,0xa
    800087f0:	26550513          	addi	a0,a0,613
    800087f4:	00200593          	li	a1,2
    800087f8:	00b54633          	xor	a2,a0,a1
    800087fc:	5ac0b023          	sd	a2,1440(ra)
    80008800:	033331b7          	lui	gp,0x3333
    80008804:	3331819b          	addiw	gp,gp,819 # 3333333 <offset+0x3332f1b>
    80008808:	00c19193          	slli	gp,gp,0xc
    8000880c:	33318193          	addi	gp,gp,819
    80008810:	00c19193          	slli	gp,gp,0xc
    80008814:	33318193          	addi	gp,gp,819
    80008818:	00d19193          	slli	gp,gp,0xd
    8000881c:	66718193          	addi	gp,gp,1639
    80008820:	00c18463          	beq	gp,a2,80008828 <inst_469>
    80008824:	801f706f          	j	80000024 <rvtest_error>

0000000080008828 <inst_469>:
    80008828:	66666537          	lui	a0,0x66666
    8000882c:	66650513          	addi	a0,a0,1638 # 66666666 <absimmsh+0x5ab958b9>
    80008830:	00b51513          	slli	a0,a0,0xb
    80008834:	33350513          	addi	a0,a0,819
    80008838:	00b51513          	slli	a0,a0,0xb
    8000883c:	19950513          	addi	a0,a0,409
    80008840:	00a51513          	slli	a0,a0,0xa
    80008844:	26550513          	addi	a0,a0,613
    80008848:	555555b7          	lui	a1,0x55555
    8000884c:	55558593          	addi	a1,a1,1365 # 55555555 <absimmsh+0x49a847a8>
    80008850:	00b59593          	slli	a1,a1,0xb
    80008854:	2aa58593          	addi	a1,a1,682
    80008858:	00b59593          	slli	a1,a1,0xb
    8000885c:	55558593          	addi	a1,a1,1365
    80008860:	00a59593          	slli	a1,a1,0xa
    80008864:	15458593          	addi	a1,a1,340
    80008868:	00b54633          	xor	a2,a0,a1
    8000886c:	5ac0b423          	sd	a2,1448(ra)
    80008870:	033331b7          	lui	gp,0x3333
    80008874:	3331819b          	addiw	gp,gp,819 # 3333333 <offset+0x3332f1b>
    80008878:	00c19193          	slli	gp,gp,0xc
    8000887c:	33318193          	addi	gp,gp,819
    80008880:	00c19193          	slli	gp,gp,0xc
    80008884:	33318193          	addi	gp,gp,819
    80008888:	00c19193          	slli	gp,gp,0xc
    8000888c:	33118193          	addi	gp,gp,817
    80008890:	00c18463          	beq	gp,a2,80008898 <inst_470>
    80008894:	f90f706f          	j	80000024 <rvtest_error>

0000000080008898 <inst_470>:
    80008898:	66666537          	lui	a0,0x66666
    8000889c:	66650513          	addi	a0,a0,1638 # 66666666 <absimmsh+0x5ab958b9>
    800088a0:	00b51513          	slli	a0,a0,0xb
    800088a4:	33350513          	addi	a0,a0,819
    800088a8:	00b51513          	slli	a0,a0,0xb
    800088ac:	19950513          	addi	a0,a0,409
    800088b0:	00a51513          	slli	a0,a0,0xa
    800088b4:	26550513          	addi	a0,a0,613
    800088b8:	00000593          	li	a1,0
    800088bc:	00b54633          	xor	a2,a0,a1
    800088c0:	5ac0b823          	sd	a2,1456(ra)
    800088c4:	033331b7          	lui	gp,0x3333
    800088c8:	3331819b          	addiw	gp,gp,819 # 3333333 <offset+0x3332f1b>
    800088cc:	00c19193          	slli	gp,gp,0xc
    800088d0:	33318193          	addi	gp,gp,819
    800088d4:	00c19193          	slli	gp,gp,0xc
    800088d8:	33318193          	addi	gp,gp,819
    800088dc:	00d19193          	slli	gp,gp,0xd
    800088e0:	66518193          	addi	gp,gp,1637
    800088e4:	00c18463          	beq	gp,a2,800088ec <inst_471>
    800088e8:	f3cf706f          	j	80000024 <rvtest_error>

00000000800088ec <inst_471>:
    800088ec:	66666537          	lui	a0,0x66666
    800088f0:	66650513          	addi	a0,a0,1638 # 66666666 <absimmsh+0x5ab958b9>
    800088f4:	00b51513          	slli	a0,a0,0xb
    800088f8:	33350513          	addi	a0,a0,819
    800088fc:	00b51513          	slli	a0,a0,0xb
    80008900:	19950513          	addi	a0,a0,409
    80008904:	00a51513          	slli	a0,a0,0xa
    80008908:	26550513          	addi	a0,a0,613
    8000890c:	00400593          	li	a1,4
    80008910:	00b54633          	xor	a2,a0,a1
    80008914:	5ac0bc23          	sd	a2,1464(ra)
    80008918:	033331b7          	lui	gp,0x3333
    8000891c:	3331819b          	addiw	gp,gp,819 # 3333333 <offset+0x3332f1b>
    80008920:	00c19193          	slli	gp,gp,0xc
    80008924:	33318193          	addi	gp,gp,819
    80008928:	00c19193          	slli	gp,gp,0xc
    8000892c:	33318193          	addi	gp,gp,819
    80008930:	00d19193          	slli	gp,gp,0xd
    80008934:	66118193          	addi	gp,gp,1633
    80008938:	00c18463          	beq	gp,a2,80008940 <inst_472>
    8000893c:	ee8f706f          	j	80000024 <rvtest_error>

0000000080008940 <inst_472>:
    80008940:	66666537          	lui	a0,0x66666
    80008944:	66650513          	addi	a0,a0,1638 # 66666666 <absimmsh+0x5ab958b9>
    80008948:	00b51513          	slli	a0,a0,0xb
    8000894c:	33350513          	addi	a0,a0,819
    80008950:	00b51513          	slli	a0,a0,0xb
    80008954:	19950513          	addi	a0,a0,409
    80008958:	00a51513          	slli	a0,a0,0xa
    8000895c:	26550513          	addi	a0,a0,613
    80008960:	333335b7          	lui	a1,0x33333
    80008964:	33358593          	addi	a1,a1,819 # 33333333 <absimmsh+0x27862586>
    80008968:	00b59593          	slli	a1,a1,0xb
    8000896c:	19958593          	addi	a1,a1,409
    80008970:	00b59593          	slli	a1,a1,0xb
    80008974:	4cc58593          	addi	a1,a1,1228
    80008978:	00a59593          	slli	a1,a1,0xa
    8000897c:	33258593          	addi	a1,a1,818
    80008980:	00b54633          	xor	a2,a0,a1
    80008984:	5cc0b023          	sd	a2,1472(ra)
    80008988:	055551b7          	lui	gp,0x5555
    8000898c:	5551819b          	addiw	gp,gp,1365 # 5555555 <offset+0x555513d>
    80008990:	00c19193          	slli	gp,gp,0xc
    80008994:	55518193          	addi	gp,gp,1365
    80008998:	00c19193          	slli	gp,gp,0xc
    8000899c:	55518193          	addi	gp,gp,1365
    800089a0:	00c19193          	slli	gp,gp,0xc
    800089a4:	55718193          	addi	gp,gp,1367
    800089a8:	00c18463          	beq	gp,a2,800089b0 <inst_473>
    800089ac:	e78f706f          	j	80000024 <rvtest_error>

00000000800089b0 <inst_473>:
    800089b0:	66666537          	lui	a0,0x66666
    800089b4:	66650513          	addi	a0,a0,1638 # 66666666 <absimmsh+0x5ab958b9>
    800089b8:	00b51513          	slli	a0,a0,0xb
    800089bc:	33350513          	addi	a0,a0,819
    800089c0:	00b51513          	slli	a0,a0,0xb
    800089c4:	19950513          	addi	a0,a0,409
    800089c8:	00a51513          	slli	a0,a0,0xa
    800089cc:	26550513          	addi	a0,a0,613
    800089d0:	666665b7          	lui	a1,0x66666
    800089d4:	66658593          	addi	a1,a1,1638 # 66666666 <absimmsh+0x5ab958b9>
    800089d8:	00b59593          	slli	a1,a1,0xb
    800089dc:	33358593          	addi	a1,a1,819
    800089e0:	00b59593          	slli	a1,a1,0xb
    800089e4:	19958593          	addi	a1,a1,409
    800089e8:	00a59593          	slli	a1,a1,0xa
    800089ec:	26558593          	addi	a1,a1,613
    800089f0:	00b54633          	xor	a2,a0,a1
    800089f4:	5cc0b423          	sd	a2,1480(ra)
    800089f8:	00000193          	li	gp,0
    800089fc:	00c18463          	beq	gp,a2,80008a04 <inst_474>
    80008a00:	e24f706f          	j	80000024 <rvtest_error>

0000000080008a04 <inst_474>:
    80008a04:	66666537          	lui	a0,0x66666
    80008a08:	66650513          	addi	a0,a0,1638 # 66666666 <absimmsh+0x5ab958b9>
    80008a0c:	00b51513          	slli	a0,a0,0xb
    80008a10:	33350513          	addi	a0,a0,819
    80008a14:	00b51513          	slli	a0,a0,0xb
    80008a18:	19950513          	addi	a0,a0,409
    80008a1c:	00a51513          	slli	a0,a0,0xa
    80008a20:	26550513          	addi	a0,a0,613
    80008a24:	000005b7          	lui	a1,0x0
    80008a28:	00058593          	mv	a1,a1
    80008a2c:	00b59593          	slli	a1,a1,0xb
    80008a30:	5a858593          	addi	a1,a1,1448 # 5a8 <offset+0x190>
    80008a34:	00b59593          	slli	a1,a1,0xb
    80008a38:	13c58593          	addi	a1,a1,316
    80008a3c:	00a59593          	slli	a1,a1,0xa
    80008a40:	33258593          	addi	a1,a1,818
    80008a44:	00b54633          	xor	a2,a0,a1
    80008a48:	5cc0b823          	sd	a2,1488(ra)
    80008a4c:	033331b7          	lui	gp,0x3333
    80008a50:	3331819b          	addiw	gp,gp,819 # 3333333 <offset+0x3332f1b>
    80008a54:	00d19193          	slli	gp,gp,0xd
    80008a58:	6d318193          	addi	gp,gp,1747
    80008a5c:	00c19193          	slli	gp,gp,0xc
    80008a60:	62918193          	addi	gp,gp,1577
    80008a64:	00c19193          	slli	gp,gp,0xc
    80008a68:	55718193          	addi	gp,gp,1367
    80008a6c:	00c18463          	beq	gp,a2,80008a74 <inst_475>
    80008a70:	db4f706f          	j	80000024 <rvtest_error>

0000000080008a74 <inst_475>:
    80008a74:	66666537          	lui	a0,0x66666
    80008a78:	66650513          	addi	a0,a0,1638 # 66666666 <absimmsh+0x5ab958b9>
    80008a7c:	00b51513          	slli	a0,a0,0xb
    80008a80:	33350513          	addi	a0,a0,819
    80008a84:	00b51513          	slli	a0,a0,0xb
    80008a88:	19950513          	addi	a0,a0,409
    80008a8c:	00a51513          	slli	a0,a0,0xa
    80008a90:	26550513          	addi	a0,a0,613
    80008a94:	555555b7          	lui	a1,0x55555
    80008a98:	55558593          	addi	a1,a1,1365 # 55555555 <absimmsh+0x49a847a8>
    80008a9c:	00b59593          	slli	a1,a1,0xb
    80008aa0:	2aa58593          	addi	a1,a1,682
    80008aa4:	00b59593          	slli	a1,a1,0xb
    80008aa8:	55558593          	addi	a1,a1,1365
    80008aac:	00a59593          	slli	a1,a1,0xa
    80008ab0:	15658593          	addi	a1,a1,342
    80008ab4:	00b54633          	xor	a2,a0,a1
    80008ab8:	5cc0bc23          	sd	a2,1496(ra)
    80008abc:	033331b7          	lui	gp,0x3333
    80008ac0:	3331819b          	addiw	gp,gp,819 # 3333333 <offset+0x3332f1b>
    80008ac4:	00c19193          	slli	gp,gp,0xc
    80008ac8:	33318193          	addi	gp,gp,819
    80008acc:	00c19193          	slli	gp,gp,0xc
    80008ad0:	33318193          	addi	gp,gp,819
    80008ad4:	00c19193          	slli	gp,gp,0xc
    80008ad8:	33318193          	addi	gp,gp,819
    80008adc:	00c18463          	beq	gp,a2,80008ae4 <inst_476>
    80008ae0:	d44f706f          	j	80000024 <rvtest_error>

0000000080008ae4 <inst_476>:
    80008ae4:	66666537          	lui	a0,0x66666
    80008ae8:	66650513          	addi	a0,a0,1638 # 66666666 <absimmsh+0x5ab958b9>
    80008aec:	00b51513          	slli	a0,a0,0xb
    80008af0:	33350513          	addi	a0,a0,819
    80008af4:	00b51513          	slli	a0,a0,0xb
    80008af8:	19950513          	addi	a0,a0,409
    80008afc:	00a51513          	slli	a0,a0,0xa
    80008b00:	26550513          	addi	a0,a0,613
    80008b04:	aaaab5b7          	lui	a1,0xaaaab
    80008b08:	aaa58593          	addi	a1,a1,-1366 # ffffffffaaaaaaaa <absimm+0xfffffffeefd9cfda>
    80008b0c:	00b59593          	slli	a1,a1,0xb
    80008b10:	55558593          	addi	a1,a1,1365
    80008b14:	00b59593          	slli	a1,a1,0xb
    80008b18:	2aa58593          	addi	a1,a1,682
    80008b1c:	00a59593          	slli	a1,a1,0xa
    80008b20:	2ab58593          	addi	a1,a1,683
    80008b24:	00b54633          	xor	a2,a0,a1
    80008b28:	5ec0b023          	sd	a2,1504(ra)
    80008b2c:	fcccd1b7          	lui	gp,0xfcccd
    80008b30:	ccd1819b          	addiw	gp,gp,-819 # fffffffffccccccd <absimm+0xffffffff41fbf1fd>
    80008b34:	00c19193          	slli	gp,gp,0xc
    80008b38:	ccd18193          	addi	gp,gp,-819
    80008b3c:	00c19193          	slli	gp,gp,0xc
    80008b40:	ccd18193          	addi	gp,gp,-819
    80008b44:	00c19193          	slli	gp,gp,0xc
    80008b48:	cce18193          	addi	gp,gp,-818
    80008b4c:	00c18463          	beq	gp,a2,80008b54 <inst_477>
    80008b50:	cd4f706f          	j	80000024 <rvtest_error>

0000000080008b54 <inst_477>:
    80008b54:	66666537          	lui	a0,0x66666
    80008b58:	66650513          	addi	a0,a0,1638 # 66666666 <absimmsh+0x5ab958b9>
    80008b5c:	00b51513          	slli	a0,a0,0xb
    80008b60:	33350513          	addi	a0,a0,819
    80008b64:	00b51513          	slli	a0,a0,0xb
    80008b68:	19950513          	addi	a0,a0,409
    80008b6c:	00a51513          	slli	a0,a0,0xa
    80008b70:	26550513          	addi	a0,a0,613
    80008b74:	00600593          	li	a1,6
    80008b78:	00b54633          	xor	a2,a0,a1
    80008b7c:	5ec0b423          	sd	a2,1512(ra)
    80008b80:	033331b7          	lui	gp,0x3333
    80008b84:	3331819b          	addiw	gp,gp,819 # 3333333 <offset+0x3332f1b>
    80008b88:	00c19193          	slli	gp,gp,0xc
    80008b8c:	33318193          	addi	gp,gp,819
    80008b90:	00c19193          	slli	gp,gp,0xc
    80008b94:	33318193          	addi	gp,gp,819
    80008b98:	00d19193          	slli	gp,gp,0xd
    80008b9c:	66318193          	addi	gp,gp,1635
    80008ba0:	00c18463          	beq	gp,a2,80008ba8 <inst_478>
    80008ba4:	c80f706f          	j	80000024 <rvtest_error>

0000000080008ba8 <inst_478>:
    80008ba8:	66666537          	lui	a0,0x66666
    80008bac:	66650513          	addi	a0,a0,1638 # 66666666 <absimmsh+0x5ab958b9>
    80008bb0:	00b51513          	slli	a0,a0,0xb
    80008bb4:	33350513          	addi	a0,a0,819
    80008bb8:	00b51513          	slli	a0,a0,0xb
    80008bbc:	19950513          	addi	a0,a0,409
    80008bc0:	00a51513          	slli	a0,a0,0xa
    80008bc4:	26550513          	addi	a0,a0,613
    80008bc8:	333335b7          	lui	a1,0x33333
    80008bcc:	33358593          	addi	a1,a1,819 # 33333333 <absimmsh+0x27862586>
    80008bd0:	00b59593          	slli	a1,a1,0xb
    80008bd4:	19958593          	addi	a1,a1,409
    80008bd8:	00b59593          	slli	a1,a1,0xb
    80008bdc:	4cc58593          	addi	a1,a1,1228
    80008be0:	00a59593          	slli	a1,a1,0xa
    80008be4:	33458593          	addi	a1,a1,820
    80008be8:	00b54633          	xor	a2,a0,a1
    80008bec:	5ec0b823          	sd	a2,1520(ra)
    80008bf0:	055551b7          	lui	gp,0x5555
    80008bf4:	5551819b          	addiw	gp,gp,1365 # 5555555 <offset+0x555513d>
    80008bf8:	00c19193          	slli	gp,gp,0xc
    80008bfc:	55518193          	addi	gp,gp,1365
    80008c00:	00c19193          	slli	gp,gp,0xc
    80008c04:	55518193          	addi	gp,gp,1365
    80008c08:	00c19193          	slli	gp,gp,0xc
    80008c0c:	55118193          	addi	gp,gp,1361
    80008c10:	00c18463          	beq	gp,a2,80008c18 <inst_479>
    80008c14:	c10f706f          	j	80000024 <rvtest_error>

0000000080008c18 <inst_479>:
    80008c18:	66666537          	lui	a0,0x66666
    80008c1c:	66650513          	addi	a0,a0,1638 # 66666666 <absimmsh+0x5ab958b9>
    80008c20:	00b51513          	slli	a0,a0,0xb
    80008c24:	33350513          	addi	a0,a0,819
    80008c28:	00b51513          	slli	a0,a0,0xb
    80008c2c:	19950513          	addi	a0,a0,409
    80008c30:	00a51513          	slli	a0,a0,0xa
    80008c34:	26550513          	addi	a0,a0,613
    80008c38:	666665b7          	lui	a1,0x66666
    80008c3c:	66658593          	addi	a1,a1,1638 # 66666666 <absimmsh+0x5ab958b9>
    80008c40:	00b59593          	slli	a1,a1,0xb
    80008c44:	33358593          	addi	a1,a1,819
    80008c48:	00b59593          	slli	a1,a1,0xb
    80008c4c:	19958593          	addi	a1,a1,409
    80008c50:	00a59593          	slli	a1,a1,0xa
    80008c54:	26758593          	addi	a1,a1,615
    80008c58:	00b54633          	xor	a2,a0,a1
    80008c5c:	5ec0bc23          	sd	a2,1528(ra)
    80008c60:	00200193          	li	gp,2
    80008c64:	00c18463          	beq	gp,a2,80008c6c <inst_480>
    80008c68:	bbcf706f          	j	80000024 <rvtest_error>

0000000080008c6c <inst_480>:
    80008c6c:	66666537          	lui	a0,0x66666
    80008c70:	66650513          	addi	a0,a0,1638 # 66666666 <absimmsh+0x5ab958b9>
    80008c74:	00b51513          	slli	a0,a0,0xb
    80008c78:	33350513          	addi	a0,a0,819
    80008c7c:	00b51513          	slli	a0,a0,0xb
    80008c80:	19950513          	addi	a0,a0,409
    80008c84:	00a51513          	slli	a0,a0,0xa
    80008c88:	26550513          	addi	a0,a0,613
    80008c8c:	000005b7          	lui	a1,0x0
    80008c90:	fff58593          	addi	a1,a1,-1
    80008c94:	00b59593          	slli	a1,a1,0xb
    80008c98:	25758593          	addi	a1,a1,599
    80008c9c:	00b59593          	slli	a1,a1,0xb
    80008ca0:	6c358593          	addi	a1,a1,1731
    80008ca4:	00a59593          	slli	a1,a1,0xa
    80008ca8:	0ce58593          	addi	a1,a1,206
    80008cac:	00b54633          	xor	a2,a0,a1
    80008cb0:	60c0b023          	sd	a2,1536(ra)
    80008cb4:	fcccd1b7          	lui	gp,0xfcccd
    80008cb8:	ccd1819b          	addiw	gp,gp,-819 # fffffffffccccccd <absimm+0xffffffff41fbf1fd>
    80008cbc:	00d19193          	slli	gp,gp,0xd
    80008cc0:	92d18193          	addi	gp,gp,-1747
    80008cc4:	00c19193          	slli	gp,gp,0xc
    80008cc8:	9d718193          	addi	gp,gp,-1577
    80008ccc:	00c19193          	slli	gp,gp,0xc
    80008cd0:	aab18193          	addi	gp,gp,-1365
    80008cd4:	00c18463          	beq	gp,a2,80008cdc <inst_481>
    80008cd8:	b4cf706f          	j	80000024 <rvtest_error>

0000000080008cdc <inst_481>:
    80008cdc:	66666537          	lui	a0,0x66666
    80008ce0:	66650513          	addi	a0,a0,1638 # 66666666 <absimmsh+0x5ab958b9>
    80008ce4:	00b51513          	slli	a0,a0,0xb
    80008ce8:	33350513          	addi	a0,a0,819
    80008cec:	00b51513          	slli	a0,a0,0xb
    80008cf0:	19950513          	addi	a0,a0,409
    80008cf4:	00a51513          	slli	a0,a0,0xa
    80008cf8:	26550513          	addi	a0,a0,613
    80008cfc:	000005b7          	lui	a1,0x0
    80008d00:	00058593          	mv	a1,a1
    80008d04:	00b59593          	slli	a1,a1,0xb
    80008d08:	5a858593          	addi	a1,a1,1448 # 5a8 <offset+0x190>
    80008d0c:	00b59593          	slli	a1,a1,0xb
    80008d10:	13c58593          	addi	a1,a1,316
    80008d14:	00a59593          	slli	a1,a1,0xa
    80008d18:	33458593          	addi	a1,a1,820
    80008d1c:	00b54633          	xor	a2,a0,a1
    80008d20:	60c0b423          	sd	a2,1544(ra)
    80008d24:	033331b7          	lui	gp,0x3333
    80008d28:	3331819b          	addiw	gp,gp,819 # 3333333 <offset+0x3332f1b>
    80008d2c:	00d19193          	slli	gp,gp,0xd
    80008d30:	6d318193          	addi	gp,gp,1747
    80008d34:	00c19193          	slli	gp,gp,0xc
    80008d38:	62918193          	addi	gp,gp,1577
    80008d3c:	00c19193          	slli	gp,gp,0xc
    80008d40:	55118193          	addi	gp,gp,1361
    80008d44:	00c18463          	beq	gp,a2,80008d4c <inst_482>
    80008d48:	adcf706f          	j	80000024 <rvtest_error>

0000000080008d4c <inst_482>:
    80008d4c:	00000537          	lui	a0,0x0
    80008d50:	00050513          	mv	a0,a0
    80008d54:	00b51513          	slli	a0,a0,0xb
    80008d58:	5a850513          	addi	a0,a0,1448 # 5a8 <offset+0x190>
    80008d5c:	00b51513          	slli	a0,a0,0xb
    80008d60:	13c50513          	addi	a0,a0,316
    80008d64:	00a51513          	slli	a0,a0,0xa
    80008d68:	33250513          	addi	a0,a0,818
    80008d6c:	00300593          	li	a1,3
    80008d70:	00b54633          	xor	a2,a0,a1
    80008d74:	60c0b823          	sd	a2,1552(ra)
    80008d78:	000b51b7          	lui	gp,0xb5
    80008d7c:	04f1819b          	addiw	gp,gp,79 # b504f <offset+0xb4c37>
    80008d80:	00c19193          	slli	gp,gp,0xc
    80008d84:	33118193          	addi	gp,gp,817
    80008d88:	00c18463          	beq	gp,a2,80008d90 <inst_483>
    80008d8c:	a98f706f          	j	80000024 <rvtest_error>

0000000080008d90 <inst_483>:
    80008d90:	00000537          	lui	a0,0x0
    80008d94:	00050513          	mv	a0,a0
    80008d98:	00b51513          	slli	a0,a0,0xb
    80008d9c:	5a850513          	addi	a0,a0,1448 # 5a8 <offset+0x190>
    80008da0:	00b51513          	slli	a0,a0,0xb
    80008da4:	13c50513          	addi	a0,a0,316
    80008da8:	00a51513          	slli	a0,a0,0xa
    80008dac:	33250513          	addi	a0,a0,818
    80008db0:	555555b7          	lui	a1,0x55555
    80008db4:	55558593          	addi	a1,a1,1365 # 55555555 <absimmsh+0x49a847a8>
    80008db8:	00b59593          	slli	a1,a1,0xb
    80008dbc:	2aa58593          	addi	a1,a1,682
    80008dc0:	00b59593          	slli	a1,a1,0xb
    80008dc4:	55558593          	addi	a1,a1,1365
    80008dc8:	00a59593          	slli	a1,a1,0xa
    80008dcc:	15558593          	addi	a1,a1,341
    80008dd0:	00b54633          	xor	a2,a0,a1
    80008dd4:	60c0bc23          	sd	a2,1560(ra)
    80008dd8:	002ab1b7          	lui	gp,0x2ab
    80008ddc:	aab1819b          	addiw	gp,gp,-1365 # 2aaaab <offset+0x2aa693>
    80008de0:	00c19193          	slli	gp,gp,0xc
    80008de4:	aaf18193          	addi	gp,gp,-1361
    80008de8:	01019193          	slli	gp,gp,0x10
    80008dec:	28d18193          	addi	gp,gp,653
    80008df0:	00d19193          	slli	gp,gp,0xd
    80008df4:	66718193          	addi	gp,gp,1639
    80008df8:	00c18463          	beq	gp,a2,80008e00 <inst_484>
    80008dfc:	a28f706f          	j	80000024 <rvtest_error>

0000000080008e00 <inst_484>:
    80008e00:	00000537          	lui	a0,0x0
    80008e04:	00050513          	mv	a0,a0
    80008e08:	00b51513          	slli	a0,a0,0xb
    80008e0c:	5a850513          	addi	a0,a0,1448 # 5a8 <offset+0x190>
    80008e10:	00b51513          	slli	a0,a0,0xb
    80008e14:	13c50513          	addi	a0,a0,316
    80008e18:	00a51513          	slli	a0,a0,0xa
    80008e1c:	33250513          	addi	a0,a0,818
    80008e20:	aaaab5b7          	lui	a1,0xaaaab
    80008e24:	aaa58593          	addi	a1,a1,-1366 # ffffffffaaaaaaaa <absimm+0xfffffffeefd9cfda>
    80008e28:	00b59593          	slli	a1,a1,0xb
    80008e2c:	55558593          	addi	a1,a1,1365
    80008e30:	00b59593          	slli	a1,a1,0xb
    80008e34:	2aa58593          	addi	a1,a1,682
    80008e38:	00a59593          	slli	a1,a1,0xa
    80008e3c:	2aa58593          	addi	a1,a1,682
    80008e40:	00b54633          	xor	a2,a0,a1
    80008e44:	62c0b023          	sd	a2,1568(ra)
    80008e48:	ffd551b7          	lui	gp,0xffd55
    80008e4c:	5551819b          	addiw	gp,gp,1365 # ffffffffffd55555 <absimm+0xffffffff45047a85>
    80008e50:	00c19193          	slli	gp,gp,0xc
    80008e54:	55118193          	addi	gp,gp,1361
    80008e58:	01019193          	slli	gp,gp,0x10
    80008e5c:	d7318193          	addi	gp,gp,-653
    80008e60:	00d19193          	slli	gp,gp,0xd
    80008e64:	99818193          	addi	gp,gp,-1640
    80008e68:	00c18463          	beq	gp,a2,80008e70 <inst_485>
    80008e6c:	9b8f706f          	j	80000024 <rvtest_error>

0000000080008e70 <inst_485>:
    80008e70:	00000537          	lui	a0,0x0
    80008e74:	00050513          	mv	a0,a0
    80008e78:	00b51513          	slli	a0,a0,0xb
    80008e7c:	5a850513          	addi	a0,a0,1448 # 5a8 <offset+0x190>
    80008e80:	00b51513          	slli	a0,a0,0xb
    80008e84:	13c50513          	addi	a0,a0,316
    80008e88:	00a51513          	slli	a0,a0,0xa
    80008e8c:	33250513          	addi	a0,a0,818
    80008e90:	00500593          	li	a1,5
    80008e94:	00b54633          	xor	a2,a0,a1
    80008e98:	62c0b423          	sd	a2,1576(ra)
    80008e9c:	000b51b7          	lui	gp,0xb5
    80008ea0:	04f1819b          	addiw	gp,gp,79 # b504f <offset+0xb4c37>
    80008ea4:	00c19193          	slli	gp,gp,0xc
    80008ea8:	33718193          	addi	gp,gp,823
    80008eac:	00c18463          	beq	gp,a2,80008eb4 <inst_486>
    80008eb0:	974f706f          	j	80000024 <rvtest_error>

0000000080008eb4 <inst_486>:
    80008eb4:	00000537          	lui	a0,0x0
    80008eb8:	00050513          	mv	a0,a0
    80008ebc:	00b51513          	slli	a0,a0,0xb
    80008ec0:	5a850513          	addi	a0,a0,1448 # 5a8 <offset+0x190>
    80008ec4:	00b51513          	slli	a0,a0,0xb
    80008ec8:	13c50513          	addi	a0,a0,316
    80008ecc:	00a51513          	slli	a0,a0,0xa
    80008ed0:	33250513          	addi	a0,a0,818
    80008ed4:	333335b7          	lui	a1,0x33333
    80008ed8:	33358593          	addi	a1,a1,819 # 33333333 <absimmsh+0x27862586>
    80008edc:	00b59593          	slli	a1,a1,0xb
    80008ee0:	19958593          	addi	a1,a1,409
    80008ee4:	00b59593          	slli	a1,a1,0xb
    80008ee8:	4cc58593          	addi	a1,a1,1228
    80008eec:	00a59593          	slli	a1,a1,0xa
    80008ef0:	33358593          	addi	a1,a1,819
    80008ef4:	00b54633          	xor	a2,a0,a1
    80008ef8:	62c0b823          	sd	a2,1584(ra)
    80008efc:	003331b7          	lui	gp,0x333
    80008f00:	3331819b          	addiw	gp,gp,819 # 333333 <offset+0x332f1b>
    80008f04:	00d19193          	slli	gp,gp,0xd
    80008f08:	67118193          	addi	gp,gp,1649
    80008f0c:	00d19193          	slli	gp,gp,0xd
    80008f10:	8df18193          	addi	gp,gp,-1825
    80008f14:	00e19193          	slli	gp,gp,0xe
    80008f18:	00118193          	addi	gp,gp,1
    80008f1c:	00c18463          	beq	gp,a2,80008f24 <inst_487>
    80008f20:	904f706f          	j	80000024 <rvtest_error>

0000000080008f24 <inst_487>:
    80008f24:	00000537          	lui	a0,0x0
    80008f28:	00050513          	mv	a0,a0
    80008f2c:	00b51513          	slli	a0,a0,0xb
    80008f30:	5a850513          	addi	a0,a0,1448 # 5a8 <offset+0x190>
    80008f34:	00b51513          	slli	a0,a0,0xb
    80008f38:	13c50513          	addi	a0,a0,316
    80008f3c:	00a51513          	slli	a0,a0,0xa
    80008f40:	33250513          	addi	a0,a0,818
    80008f44:	666665b7          	lui	a1,0x66666
    80008f48:	66658593          	addi	a1,a1,1638 # 66666666 <absimmsh+0x5ab958b9>
    80008f4c:	00b59593          	slli	a1,a1,0xb
    80008f50:	33358593          	addi	a1,a1,819
    80008f54:	00b59593          	slli	a1,a1,0xb
    80008f58:	19958593          	addi	a1,a1,409
    80008f5c:	00a59593          	slli	a1,a1,0xa
    80008f60:	26658593          	addi	a1,a1,614
    80008f64:	00b54633          	xor	a2,a0,a1
    80008f68:	62c0bc23          	sd	a2,1592(ra)
    80008f6c:	033331b7          	lui	gp,0x3333
    80008f70:	3331819b          	addiw	gp,gp,819 # 3333333 <offset+0x3332f1b>
    80008f74:	00d19193          	slli	gp,gp,0xd
    80008f78:	6d318193          	addi	gp,gp,1747
    80008f7c:	00c19193          	slli	gp,gp,0xc
    80008f80:	62918193          	addi	gp,gp,1577
    80008f84:	00c19193          	slli	gp,gp,0xc
    80008f88:	55418193          	addi	gp,gp,1364
    80008f8c:	00c18463          	beq	gp,a2,80008f94 <inst_488>
    80008f90:	894f706f          	j	80000024 <rvtest_error>

0000000080008f94 <inst_488>:
    80008f94:	00000537          	lui	a0,0x0
    80008f98:	00050513          	mv	a0,a0
    80008f9c:	00b51513          	slli	a0,a0,0xb
    80008fa0:	5a850513          	addi	a0,a0,1448 # 5a8 <offset+0x190>
    80008fa4:	00b51513          	slli	a0,a0,0xb
    80008fa8:	13c50513          	addi	a0,a0,316
    80008fac:	00a51513          	slli	a0,a0,0xa
    80008fb0:	33250513          	addi	a0,a0,818
    80008fb4:	000005b7          	lui	a1,0x0
    80008fb8:	fff58593          	addi	a1,a1,-1
    80008fbc:	00b59593          	slli	a1,a1,0xb
    80008fc0:	25758593          	addi	a1,a1,599
    80008fc4:	00b59593          	slli	a1,a1,0xb
    80008fc8:	6c358593          	addi	a1,a1,1731
    80008fcc:	00a59593          	slli	a1,a1,0xa
    80008fd0:	0cd58593          	addi	a1,a1,205
    80008fd4:	00b54633          	xor	a2,a0,a1
    80008fd8:	64c0b023          	sd	a2,1600(ra)
    80008fdc:	fff00193          	li	gp,-1
    80008fe0:	00c18463          	beq	gp,a2,80008fe8 <inst_489>
    80008fe4:	840f706f          	j	80000024 <rvtest_error>

0000000080008fe8 <inst_489>:
    80008fe8:	00000537          	lui	a0,0x0
    80008fec:	00050513          	mv	a0,a0
    80008ff0:	00b51513          	slli	a0,a0,0xb
    80008ff4:	5a850513          	addi	a0,a0,1448 # 5a8 <offset+0x190>
    80008ff8:	00b51513          	slli	a0,a0,0xb
    80008ffc:	13c50513          	addi	a0,a0,316
    80009000:	00a51513          	slli	a0,a0,0xa
    80009004:	33250513          	addi	a0,a0,818
    80009008:	000005b7          	lui	a1,0x0
    8000900c:	00058593          	mv	a1,a1
    80009010:	00b59593          	slli	a1,a1,0xb
    80009014:	5a858593          	addi	a1,a1,1448 # 5a8 <offset+0x190>
    80009018:	00b59593          	slli	a1,a1,0xb
    8000901c:	13c58593          	addi	a1,a1,316
    80009020:	00a59593          	slli	a1,a1,0xa
    80009024:	33358593          	addi	a1,a1,819
    80009028:	00b54633          	xor	a2,a0,a1
    8000902c:	64c0b423          	sd	a2,1608(ra)
    80009030:	00100193          	li	gp,1
    80009034:	00c18463          	beq	gp,a2,8000903c <inst_490>
    80009038:	fedf606f          	j	80000024 <rvtest_error>

000000008000903c <inst_490>:
    8000903c:	00000537          	lui	a0,0x0
    80009040:	00050513          	mv	a0,a0
    80009044:	00b51513          	slli	a0,a0,0xb
    80009048:	5a850513          	addi	a0,a0,1448 # 5a8 <offset+0x190>
    8000904c:	00b51513          	slli	a0,a0,0xb
    80009050:	13c50513          	addi	a0,a0,316
    80009054:	00a51513          	slli	a0,a0,0xa
    80009058:	33250513          	addi	a0,a0,818
    8000905c:	00200593          	li	a1,2
    80009060:	00b54633          	xor	a2,a0,a1
    80009064:	64c0b823          	sd	a2,1616(ra)
    80009068:	000b51b7          	lui	gp,0xb5
    8000906c:	04f1819b          	addiw	gp,gp,79 # b504f <offset+0xb4c37>
    80009070:	00c19193          	slli	gp,gp,0xc
    80009074:	33018193          	addi	gp,gp,816
    80009078:	00c18463          	beq	gp,a2,80009080 <inst_491>
    8000907c:	fa9f606f          	j	80000024 <rvtest_error>

0000000080009080 <inst_491>:
    80009080:	00000537          	lui	a0,0x0
    80009084:	00050513          	mv	a0,a0
    80009088:	00b51513          	slli	a0,a0,0xb
    8000908c:	5a850513          	addi	a0,a0,1448 # 5a8 <offset+0x190>
    80009090:	00b51513          	slli	a0,a0,0xb
    80009094:	13c50513          	addi	a0,a0,316
    80009098:	00a51513          	slli	a0,a0,0xa
    8000909c:	33250513          	addi	a0,a0,818
    800090a0:	555555b7          	lui	a1,0x55555
    800090a4:	55558593          	addi	a1,a1,1365 # 55555555 <absimmsh+0x49a847a8>
    800090a8:	00b59593          	slli	a1,a1,0xb
    800090ac:	2aa58593          	addi	a1,a1,682
    800090b0:	00b59593          	slli	a1,a1,0xb
    800090b4:	55558593          	addi	a1,a1,1365
    800090b8:	00a59593          	slli	a1,a1,0xa
    800090bc:	15458593          	addi	a1,a1,340
    800090c0:	00b54633          	xor	a2,a0,a1
    800090c4:	64c0bc23          	sd	a2,1624(ra)
    800090c8:	002ab1b7          	lui	gp,0x2ab
    800090cc:	aab1819b          	addiw	gp,gp,-1365 # 2aaaab <offset+0x2aa693>
    800090d0:	00c19193          	slli	gp,gp,0xc
    800090d4:	aaf18193          	addi	gp,gp,-1361
    800090d8:	01019193          	slli	gp,gp,0x10
    800090dc:	28d18193          	addi	gp,gp,653
    800090e0:	00d19193          	slli	gp,gp,0xd
    800090e4:	66618193          	addi	gp,gp,1638
    800090e8:	00c18463          	beq	gp,a2,800090f0 <inst_492>
    800090ec:	f39f606f          	j	80000024 <rvtest_error>

00000000800090f0 <inst_492>:
    800090f0:	00000537          	lui	a0,0x0
    800090f4:	00050513          	mv	a0,a0
    800090f8:	00b51513          	slli	a0,a0,0xb
    800090fc:	5a850513          	addi	a0,a0,1448 # 5a8 <offset+0x190>
    80009100:	00b51513          	slli	a0,a0,0xb
    80009104:	13c50513          	addi	a0,a0,316
    80009108:	00a51513          	slli	a0,a0,0xa
    8000910c:	33250513          	addi	a0,a0,818
    80009110:	00000593          	li	a1,0
    80009114:	00b54633          	xor	a2,a0,a1
    80009118:	66c0b023          	sd	a2,1632(ra)
    8000911c:	000b51b7          	lui	gp,0xb5
    80009120:	04f1819b          	addiw	gp,gp,79 # b504f <offset+0xb4c37>
    80009124:	00c19193          	slli	gp,gp,0xc
    80009128:	33218193          	addi	gp,gp,818
    8000912c:	00c18463          	beq	gp,a2,80009134 <inst_493>
    80009130:	ef5f606f          	j	80000024 <rvtest_error>

0000000080009134 <inst_493>:
    80009134:	00000537          	lui	a0,0x0
    80009138:	00050513          	mv	a0,a0
    8000913c:	00b51513          	slli	a0,a0,0xb
    80009140:	5a850513          	addi	a0,a0,1448 # 5a8 <offset+0x190>
    80009144:	00b51513          	slli	a0,a0,0xb
    80009148:	13c50513          	addi	a0,a0,316
    8000914c:	00a51513          	slli	a0,a0,0xa
    80009150:	33250513          	addi	a0,a0,818
    80009154:	00400593          	li	a1,4
    80009158:	00b54633          	xor	a2,a0,a1
    8000915c:	66c0b423          	sd	a2,1640(ra)
    80009160:	000b51b7          	lui	gp,0xb5
    80009164:	04f1819b          	addiw	gp,gp,79 # b504f <offset+0xb4c37>
    80009168:	00c19193          	slli	gp,gp,0xc
    8000916c:	33618193          	addi	gp,gp,822
    80009170:	00c18463          	beq	gp,a2,80009178 <inst_494>
    80009174:	eb1f606f          	j	80000024 <rvtest_error>

0000000080009178 <inst_494>:
    80009178:	00000537          	lui	a0,0x0
    8000917c:	00050513          	mv	a0,a0
    80009180:	00b51513          	slli	a0,a0,0xb
    80009184:	5a850513          	addi	a0,a0,1448 # 5a8 <offset+0x190>
    80009188:	00b51513          	slli	a0,a0,0xb
    8000918c:	13c50513          	addi	a0,a0,316
    80009190:	00a51513          	slli	a0,a0,0xa
    80009194:	33250513          	addi	a0,a0,818
    80009198:	333335b7          	lui	a1,0x33333
    8000919c:	33358593          	addi	a1,a1,819 # 33333333 <absimmsh+0x27862586>
    800091a0:	00b59593          	slli	a1,a1,0xb
    800091a4:	19958593          	addi	a1,a1,409
    800091a8:	00b59593          	slli	a1,a1,0xb
    800091ac:	4cc58593          	addi	a1,a1,1228
    800091b0:	00a59593          	slli	a1,a1,0xa
    800091b4:	33258593          	addi	a1,a1,818
    800091b8:	00b54633          	xor	a2,a0,a1
    800091bc:	66c0b823          	sd	a2,1648(ra)
    800091c0:	003331b7          	lui	gp,0x333
    800091c4:	3331819b          	addiw	gp,gp,819 # 333333 <offset+0x332f1b>
    800091c8:	00d19193          	slli	gp,gp,0xd
    800091cc:	67118193          	addi	gp,gp,1649
    800091d0:	00d19193          	slli	gp,gp,0xd
    800091d4:	8df18193          	addi	gp,gp,-1825
    800091d8:	00e19193          	slli	gp,gp,0xe
    800091dc:	00c18463          	beq	gp,a2,800091e4 <inst_495>
    800091e0:	e45f606f          	j	80000024 <rvtest_error>

00000000800091e4 <inst_495>:
    800091e4:	00000537          	lui	a0,0x0
    800091e8:	00050513          	mv	a0,a0
    800091ec:	00b51513          	slli	a0,a0,0xb
    800091f0:	5a850513          	addi	a0,a0,1448 # 5a8 <offset+0x190>
    800091f4:	00b51513          	slli	a0,a0,0xb
    800091f8:	13c50513          	addi	a0,a0,316
    800091fc:	00a51513          	slli	a0,a0,0xa
    80009200:	33250513          	addi	a0,a0,818
    80009204:	666665b7          	lui	a1,0x66666
    80009208:	66658593          	addi	a1,a1,1638 # 66666666 <absimmsh+0x5ab958b9>
    8000920c:	00b59593          	slli	a1,a1,0xb
    80009210:	33358593          	addi	a1,a1,819
    80009214:	00b59593          	slli	a1,a1,0xb
    80009218:	19958593          	addi	a1,a1,409
    8000921c:	00a59593          	slli	a1,a1,0xa
    80009220:	26558593          	addi	a1,a1,613
    80009224:	00b54633          	xor	a2,a0,a1
    80009228:	66c0bc23          	sd	a2,1656(ra)
    8000922c:	033331b7          	lui	gp,0x3333
    80009230:	3331819b          	addiw	gp,gp,819 # 3333333 <offset+0x3332f1b>
    80009234:	00d19193          	slli	gp,gp,0xd
    80009238:	6d318193          	addi	gp,gp,1747
    8000923c:	00c19193          	slli	gp,gp,0xc
    80009240:	62918193          	addi	gp,gp,1577
    80009244:	00c19193          	slli	gp,gp,0xc
    80009248:	55718193          	addi	gp,gp,1367
    8000924c:	00c18463          	beq	gp,a2,80009254 <inst_496>
    80009250:	dd5f606f          	j	80000024 <rvtest_error>

0000000080009254 <inst_496>:
    80009254:	00000537          	lui	a0,0x0
    80009258:	00050513          	mv	a0,a0
    8000925c:	00b51513          	slli	a0,a0,0xb
    80009260:	5a850513          	addi	a0,a0,1448 # 5a8 <offset+0x190>
    80009264:	00b51513          	slli	a0,a0,0xb
    80009268:	13c50513          	addi	a0,a0,316
    8000926c:	00a51513          	slli	a0,a0,0xa
    80009270:	33250513          	addi	a0,a0,818
    80009274:	000005b7          	lui	a1,0x0
    80009278:	00058593          	mv	a1,a1
    8000927c:	00b59593          	slli	a1,a1,0xb
    80009280:	5a858593          	addi	a1,a1,1448 # 5a8 <offset+0x190>
    80009284:	00b59593          	slli	a1,a1,0xb
    80009288:	13c58593          	addi	a1,a1,316
    8000928c:	00a59593          	slli	a1,a1,0xa
    80009290:	33258593          	addi	a1,a1,818
    80009294:	00b54633          	xor	a2,a0,a1
    80009298:	68c0b023          	sd	a2,1664(ra)
    8000929c:	00000193          	li	gp,0
    800092a0:	00c18463          	beq	gp,a2,800092a8 <inst_497>
    800092a4:	d81f606f          	j	80000024 <rvtest_error>

00000000800092a8 <inst_497>:
    800092a8:	00000537          	lui	a0,0x0
    800092ac:	00050513          	mv	a0,a0
    800092b0:	00b51513          	slli	a0,a0,0xb
    800092b4:	5a850513          	addi	a0,a0,1448 # 5a8 <offset+0x190>
    800092b8:	00b51513          	slli	a0,a0,0xb
    800092bc:	13c50513          	addi	a0,a0,316
    800092c0:	00a51513          	slli	a0,a0,0xa
    800092c4:	33250513          	addi	a0,a0,818
    800092c8:	555555b7          	lui	a1,0x55555
    800092cc:	55558593          	addi	a1,a1,1365 # 55555555 <absimmsh+0x49a847a8>
    800092d0:	00b59593          	slli	a1,a1,0xb
    800092d4:	2aa58593          	addi	a1,a1,682
    800092d8:	00b59593          	slli	a1,a1,0xb
    800092dc:	55558593          	addi	a1,a1,1365
    800092e0:	00a59593          	slli	a1,a1,0xa
    800092e4:	15658593          	addi	a1,a1,342
    800092e8:	00b54633          	xor	a2,a0,a1
    800092ec:	68c0b423          	sd	a2,1672(ra)
    800092f0:	002ab1b7          	lui	gp,0x2ab
    800092f4:	aab1819b          	addiw	gp,gp,-1365 # 2aaaab <offset+0x2aa693>
    800092f8:	00c19193          	slli	gp,gp,0xc
    800092fc:	aaf18193          	addi	gp,gp,-1361
    80009300:	01019193          	slli	gp,gp,0x10
    80009304:	28d18193          	addi	gp,gp,653
    80009308:	00d19193          	slli	gp,gp,0xd
    8000930c:	66418193          	addi	gp,gp,1636
    80009310:	00c18463          	beq	gp,a2,80009318 <inst_498>
    80009314:	d11f606f          	j	80000024 <rvtest_error>

0000000080009318 <inst_498>:
    80009318:	00000537          	lui	a0,0x0
    8000931c:	00050513          	mv	a0,a0
    80009320:	00b51513          	slli	a0,a0,0xb
    80009324:	5a850513          	addi	a0,a0,1448 # 5a8 <offset+0x190>
    80009328:	00b51513          	slli	a0,a0,0xb
    8000932c:	13c50513          	addi	a0,a0,316
    80009330:	00a51513          	slli	a0,a0,0xa
    80009334:	33250513          	addi	a0,a0,818
    80009338:	aaaab5b7          	lui	a1,0xaaaab
    8000933c:	aaa58593          	addi	a1,a1,-1366 # ffffffffaaaaaaaa <absimm+0xfffffffeefd9cfda>
    80009340:	00b59593          	slli	a1,a1,0xb
    80009344:	55558593          	addi	a1,a1,1365
    80009348:	00b59593          	slli	a1,a1,0xb
    8000934c:	2aa58593          	addi	a1,a1,682
    80009350:	00a59593          	slli	a1,a1,0xa
    80009354:	2ab58593          	addi	a1,a1,683
    80009358:	00b54633          	xor	a2,a0,a1
    8000935c:	68c0b823          	sd	a2,1680(ra)
    80009360:	ffd551b7          	lui	gp,0xffd55
    80009364:	5551819b          	addiw	gp,gp,1365 # ffffffffffd55555 <absimm+0xffffffff45047a85>
    80009368:	00c19193          	slli	gp,gp,0xc
    8000936c:	55118193          	addi	gp,gp,1361
    80009370:	01019193          	slli	gp,gp,0x10
    80009374:	d7318193          	addi	gp,gp,-653
    80009378:	00d19193          	slli	gp,gp,0xd
    8000937c:	99918193          	addi	gp,gp,-1639
    80009380:	00c18463          	beq	gp,a2,80009388 <inst_499>
    80009384:	ca1f606f          	j	80000024 <rvtest_error>

0000000080009388 <inst_499>:
    80009388:	00000537          	lui	a0,0x0
    8000938c:	00050513          	mv	a0,a0
    80009390:	00b51513          	slli	a0,a0,0xb
    80009394:	5a850513          	addi	a0,a0,1448 # 5a8 <offset+0x190>
    80009398:	00b51513          	slli	a0,a0,0xb
    8000939c:	13c50513          	addi	a0,a0,316
    800093a0:	00a51513          	slli	a0,a0,0xa
    800093a4:	33250513          	addi	a0,a0,818
    800093a8:	00600593          	li	a1,6
    800093ac:	00b54633          	xor	a2,a0,a1
    800093b0:	68c0bc23          	sd	a2,1688(ra)
    800093b4:	000b51b7          	lui	gp,0xb5
    800093b8:	04f1819b          	addiw	gp,gp,79 # b504f <offset+0xb4c37>
    800093bc:	00c19193          	slli	gp,gp,0xc
    800093c0:	33418193          	addi	gp,gp,820
    800093c4:	00c18463          	beq	gp,a2,800093cc <inst_500>
    800093c8:	c5df606f          	j	80000024 <rvtest_error>

00000000800093cc <inst_500>:
    800093cc:	00000537          	lui	a0,0x0
    800093d0:	00050513          	mv	a0,a0
    800093d4:	00b51513          	slli	a0,a0,0xb
    800093d8:	5a850513          	addi	a0,a0,1448 # 5a8 <offset+0x190>
    800093dc:	00b51513          	slli	a0,a0,0xb
    800093e0:	13c50513          	addi	a0,a0,316
    800093e4:	00a51513          	slli	a0,a0,0xa
    800093e8:	33250513          	addi	a0,a0,818
    800093ec:	333335b7          	lui	a1,0x33333
    800093f0:	33358593          	addi	a1,a1,819 # 33333333 <absimmsh+0x27862586>
    800093f4:	00b59593          	slli	a1,a1,0xb
    800093f8:	19958593          	addi	a1,a1,409
    800093fc:	00b59593          	slli	a1,a1,0xb
    80009400:	4cc58593          	addi	a1,a1,1228
    80009404:	00a59593          	slli	a1,a1,0xa
    80009408:	33458593          	addi	a1,a1,820
    8000940c:	00b54633          	xor	a2,a0,a1
    80009410:	6ac0b023          	sd	a2,1696(ra)
    80009414:	003331b7          	lui	gp,0x333
    80009418:	3331819b          	addiw	gp,gp,819 # 333333 <offset+0x332f1b>
    8000941c:	00d19193          	slli	gp,gp,0xd
    80009420:	67118193          	addi	gp,gp,1649
    80009424:	00d19193          	slli	gp,gp,0xd
    80009428:	8df18193          	addi	gp,gp,-1825
    8000942c:	00e19193          	slli	gp,gp,0xe
    80009430:	00618193          	addi	gp,gp,6
    80009434:	00c18463          	beq	gp,a2,8000943c <inst_501>
    80009438:	bedf606f          	j	80000024 <rvtest_error>

000000008000943c <inst_501>:
    8000943c:	00000537          	lui	a0,0x0
    80009440:	00050513          	mv	a0,a0
    80009444:	00b51513          	slli	a0,a0,0xb
    80009448:	5a850513          	addi	a0,a0,1448 # 5a8 <offset+0x190>
    8000944c:	00b51513          	slli	a0,a0,0xb
    80009450:	13c50513          	addi	a0,a0,316
    80009454:	00a51513          	slli	a0,a0,0xa
    80009458:	33250513          	addi	a0,a0,818
    8000945c:	666665b7          	lui	a1,0x66666
    80009460:	66658593          	addi	a1,a1,1638 # 66666666 <absimmsh+0x5ab958b9>
    80009464:	00b59593          	slli	a1,a1,0xb
    80009468:	33358593          	addi	a1,a1,819
    8000946c:	00b59593          	slli	a1,a1,0xb
    80009470:	19958593          	addi	a1,a1,409
    80009474:	00a59593          	slli	a1,a1,0xa
    80009478:	26758593          	addi	a1,a1,615
    8000947c:	00b54633          	xor	a2,a0,a1
    80009480:	6ac0b423          	sd	a2,1704(ra)
    80009484:	033331b7          	lui	gp,0x3333
    80009488:	3331819b          	addiw	gp,gp,819 # 3333333 <offset+0x3332f1b>
    8000948c:	00d19193          	slli	gp,gp,0xd
    80009490:	6d318193          	addi	gp,gp,1747
    80009494:	00c19193          	slli	gp,gp,0xc
    80009498:	62918193          	addi	gp,gp,1577
    8000949c:	00c19193          	slli	gp,gp,0xc
    800094a0:	55518193          	addi	gp,gp,1365
    800094a4:	00c18463          	beq	gp,a2,800094ac <inst_502>
    800094a8:	b7df606f          	j	80000024 <rvtest_error>

00000000800094ac <inst_502>:
    800094ac:	00000537          	lui	a0,0x0
    800094b0:	00050513          	mv	a0,a0
    800094b4:	00b51513          	slli	a0,a0,0xb
    800094b8:	5a850513          	addi	a0,a0,1448 # 5a8 <offset+0x190>
    800094bc:	00b51513          	slli	a0,a0,0xb
    800094c0:	13c50513          	addi	a0,a0,316
    800094c4:	00a51513          	slli	a0,a0,0xa
    800094c8:	33250513          	addi	a0,a0,818
    800094cc:	000005b7          	lui	a1,0x0
    800094d0:	fff58593          	addi	a1,a1,-1
    800094d4:	00b59593          	slli	a1,a1,0xb
    800094d8:	25758593          	addi	a1,a1,599
    800094dc:	00b59593          	slli	a1,a1,0xb
    800094e0:	6c358593          	addi	a1,a1,1731
    800094e4:	00a59593          	slli	a1,a1,0xa
    800094e8:	0ce58593          	addi	a1,a1,206
    800094ec:	00b54633          	xor	a2,a0,a1
    800094f0:	6ac0b823          	sd	a2,1712(ra)
    800094f4:	ffc00193          	li	gp,-4
    800094f8:	00c18463          	beq	gp,a2,80009500 <inst_503>
    800094fc:	b29f606f          	j	80000024 <rvtest_error>

0000000080009500 <inst_503>:
    80009500:	00000537          	lui	a0,0x0
    80009504:	00050513          	mv	a0,a0
    80009508:	00b51513          	slli	a0,a0,0xb
    8000950c:	5a850513          	addi	a0,a0,1448 # 5a8 <offset+0x190>
    80009510:	00b51513          	slli	a0,a0,0xb
    80009514:	13c50513          	addi	a0,a0,316
    80009518:	00a51513          	slli	a0,a0,0xa
    8000951c:	33250513          	addi	a0,a0,818
    80009520:	000005b7          	lui	a1,0x0
    80009524:	00058593          	mv	a1,a1
    80009528:	00b59593          	slli	a1,a1,0xb
    8000952c:	5a858593          	addi	a1,a1,1448 # 5a8 <offset+0x190>
    80009530:	00b59593          	slli	a1,a1,0xb
    80009534:	13c58593          	addi	a1,a1,316
    80009538:	00a59593          	slli	a1,a1,0xa
    8000953c:	33458593          	addi	a1,a1,820
    80009540:	00b54633          	xor	a2,a0,a1
    80009544:	6ac0bc23          	sd	a2,1720(ra)
    80009548:	00600193          	li	gp,6
    8000954c:	00c18463          	beq	gp,a2,80009554 <inst_504>
    80009550:	ad5f606f          	j	80000024 <rvtest_error>

0000000080009554 <inst_504>:
    80009554:	55555537          	lui	a0,0x55555
    80009558:	55550513          	addi	a0,a0,1365 # 55555555 <absimmsh+0x49a847a8>
    8000955c:	00b51513          	slli	a0,a0,0xb
    80009560:	2aa50513          	addi	a0,a0,682
    80009564:	00b51513          	slli	a0,a0,0xb
    80009568:	55550513          	addi	a0,a0,1365
    8000956c:	00a51513          	slli	a0,a0,0xa
    80009570:	15650513          	addi	a0,a0,342
    80009574:	00300593          	li	a1,3
    80009578:	00b54633          	xor	a2,a0,a1
    8000957c:	6cc0b023          	sd	a2,1728(ra)
    80009580:	055551b7          	lui	gp,0x5555
    80009584:	5551819b          	addiw	gp,gp,1365 # 5555555 <offset+0x555513d>
    80009588:	00c19193          	slli	gp,gp,0xc
    8000958c:	55518193          	addi	gp,gp,1365
    80009590:	00c19193          	slli	gp,gp,0xc
    80009594:	55518193          	addi	gp,gp,1365
    80009598:	00c19193          	slli	gp,gp,0xc
    8000959c:	55518193          	addi	gp,gp,1365
    800095a0:	00c18463          	beq	gp,a2,800095a8 <inst_505>
    800095a4:	a81f606f          	j	80000024 <rvtest_error>

00000000800095a8 <inst_505>:
    800095a8:	55555537          	lui	a0,0x55555
    800095ac:	55550513          	addi	a0,a0,1365 # 55555555 <absimmsh+0x49a847a8>
    800095b0:	00b51513          	slli	a0,a0,0xb
    800095b4:	2aa50513          	addi	a0,a0,682
    800095b8:	00b51513          	slli	a0,a0,0xb
    800095bc:	55550513          	addi	a0,a0,1365
    800095c0:	00a51513          	slli	a0,a0,0xa
    800095c4:	15650513          	addi	a0,a0,342
    800095c8:	555555b7          	lui	a1,0x55555
    800095cc:	55558593          	addi	a1,a1,1365 # 55555555 <absimmsh+0x49a847a8>
    800095d0:	00b59593          	slli	a1,a1,0xb
    800095d4:	2aa58593          	addi	a1,a1,682
    800095d8:	00b59593          	slli	a1,a1,0xb
    800095dc:	55558593          	addi	a1,a1,1365
    800095e0:	00a59593          	slli	a1,a1,0xa
    800095e4:	15558593          	addi	a1,a1,341
    800095e8:	00b54633          	xor	a2,a0,a1
    800095ec:	6cc0b423          	sd	a2,1736(ra)
    800095f0:	00300193          	li	gp,3
    800095f4:	00c18463          	beq	gp,a2,800095fc <inst_506>
    800095f8:	a2df606f          	j	80000024 <rvtest_error>

00000000800095fc <inst_506>:
    800095fc:	55555537          	lui	a0,0x55555
    80009600:	55550513          	addi	a0,a0,1365 # 55555555 <absimmsh+0x49a847a8>
    80009604:	00b51513          	slli	a0,a0,0xb
    80009608:	2aa50513          	addi	a0,a0,682
    8000960c:	00b51513          	slli	a0,a0,0xb
    80009610:	55550513          	addi	a0,a0,1365
    80009614:	00a51513          	slli	a0,a0,0xa
    80009618:	15650513          	addi	a0,a0,342
    8000961c:	aaaab5b7          	lui	a1,0xaaaab
    80009620:	aaa58593          	addi	a1,a1,-1366 # ffffffffaaaaaaaa <absimm+0xfffffffeefd9cfda>
    80009624:	00b59593          	slli	a1,a1,0xb
    80009628:	55558593          	addi	a1,a1,1365
    8000962c:	00b59593          	slli	a1,a1,0xb
    80009630:	2aa58593          	addi	a1,a1,682
    80009634:	00a59593          	slli	a1,a1,0xa
    80009638:	2aa58593          	addi	a1,a1,682
    8000963c:	00b54633          	xor	a2,a0,a1
    80009640:	6cc0b823          	sd	a2,1744(ra)
    80009644:	ffc00193          	li	gp,-4
    80009648:	00c18463          	beq	gp,a2,80009650 <inst_507>
    8000964c:	9d9f606f          	j	80000024 <rvtest_error>

0000000080009650 <inst_507>:
    80009650:	55555537          	lui	a0,0x55555
    80009654:	55550513          	addi	a0,a0,1365 # 55555555 <absimmsh+0x49a847a8>
    80009658:	00b51513          	slli	a0,a0,0xb
    8000965c:	2aa50513          	addi	a0,a0,682
    80009660:	00b51513          	slli	a0,a0,0xb
    80009664:	55550513          	addi	a0,a0,1365
    80009668:	00a51513          	slli	a0,a0,0xa
    8000966c:	15650513          	addi	a0,a0,342
    80009670:	00500593          	li	a1,5
    80009674:	00b54633          	xor	a2,a0,a1
    80009678:	6cc0bc23          	sd	a2,1752(ra)
    8000967c:	055551b7          	lui	gp,0x5555
    80009680:	5551819b          	addiw	gp,gp,1365 # 5555555 <offset+0x555513d>
    80009684:	00c19193          	slli	gp,gp,0xc
    80009688:	55518193          	addi	gp,gp,1365
    8000968c:	00c19193          	slli	gp,gp,0xc
    80009690:	55518193          	addi	gp,gp,1365
    80009694:	00c19193          	slli	gp,gp,0xc
    80009698:	55318193          	addi	gp,gp,1363
    8000969c:	00c18463          	beq	gp,a2,800096a4 <inst_508>
    800096a0:	985f606f          	j	80000024 <rvtest_error>

00000000800096a4 <inst_508>:
    800096a4:	55555537          	lui	a0,0x55555
    800096a8:	55550513          	addi	a0,a0,1365 # 55555555 <absimmsh+0x49a847a8>
    800096ac:	00b51513          	slli	a0,a0,0xb
    800096b0:	2aa50513          	addi	a0,a0,682
    800096b4:	00b51513          	slli	a0,a0,0xb
    800096b8:	55550513          	addi	a0,a0,1365
    800096bc:	00a51513          	slli	a0,a0,0xa
    800096c0:	15650513          	addi	a0,a0,342
    800096c4:	333335b7          	lui	a1,0x33333
    800096c8:	33358593          	addi	a1,a1,819 # 33333333 <absimmsh+0x27862586>
    800096cc:	00b59593          	slli	a1,a1,0xb
    800096d0:	19958593          	addi	a1,a1,409
    800096d4:	00b59593          	slli	a1,a1,0xb
    800096d8:	4cc58593          	addi	a1,a1,1228
    800096dc:	00a59593          	slli	a1,a1,0xa
    800096e0:	33358593          	addi	a1,a1,819
    800096e4:	00b54633          	xor	a2,a0,a1
    800096e8:	6ec0b023          	sd	a2,1760(ra)
    800096ec:	033331b7          	lui	gp,0x3333
    800096f0:	3331819b          	addiw	gp,gp,819 # 3333333 <offset+0x3332f1b>
    800096f4:	00c19193          	slli	gp,gp,0xc
    800096f8:	33318193          	addi	gp,gp,819
    800096fc:	00c19193          	slli	gp,gp,0xc
    80009700:	33318193          	addi	gp,gp,819
    80009704:	00d19193          	slli	gp,gp,0xd
    80009708:	66518193          	addi	gp,gp,1637
    8000970c:	00c18463          	beq	gp,a2,80009714 <inst_509>
    80009710:	915f606f          	j	80000024 <rvtest_error>

0000000080009714 <inst_509>:
    80009714:	55555537          	lui	a0,0x55555
    80009718:	55550513          	addi	a0,a0,1365 # 55555555 <absimmsh+0x49a847a8>
    8000971c:	00b51513          	slli	a0,a0,0xb
    80009720:	2aa50513          	addi	a0,a0,682
    80009724:	00b51513          	slli	a0,a0,0xb
    80009728:	55550513          	addi	a0,a0,1365
    8000972c:	00a51513          	slli	a0,a0,0xa
    80009730:	15650513          	addi	a0,a0,342
    80009734:	666665b7          	lui	a1,0x66666
    80009738:	66658593          	addi	a1,a1,1638 # 66666666 <absimmsh+0x5ab958b9>
    8000973c:	00b59593          	slli	a1,a1,0xb
    80009740:	33358593          	addi	a1,a1,819
    80009744:	00b59593          	slli	a1,a1,0xb
    80009748:	19958593          	addi	a1,a1,409
    8000974c:	00a59593          	slli	a1,a1,0xa
    80009750:	26658593          	addi	a1,a1,614
    80009754:	00b54633          	xor	a2,a0,a1
    80009758:	6ec0b423          	sd	a2,1768(ra)
    8000975c:	033331b7          	lui	gp,0x3333
    80009760:	3331819b          	addiw	gp,gp,819 # 3333333 <offset+0x3332f1b>
    80009764:	00c19193          	slli	gp,gp,0xc
    80009768:	33318193          	addi	gp,gp,819
    8000976c:	00c19193          	slli	gp,gp,0xc
    80009770:	33318193          	addi	gp,gp,819
    80009774:	00c19193          	slli	gp,gp,0xc
    80009778:	33018193          	addi	gp,gp,816
    8000977c:	00c18463          	beq	gp,a2,80009784 <inst_510>
    80009780:	8a5f606f          	j	80000024 <rvtest_error>

0000000080009784 <inst_510>:
    80009784:	55555537          	lui	a0,0x55555
    80009788:	55550513          	addi	a0,a0,1365 # 55555555 <absimmsh+0x49a847a8>
    8000978c:	00b51513          	slli	a0,a0,0xb
    80009790:	2aa50513          	addi	a0,a0,682
    80009794:	00b51513          	slli	a0,a0,0xb
    80009798:	55550513          	addi	a0,a0,1365
    8000979c:	00a51513          	slli	a0,a0,0xa
    800097a0:	15650513          	addi	a0,a0,342
    800097a4:	000005b7          	lui	a1,0x0
    800097a8:	fff58593          	addi	a1,a1,-1
    800097ac:	00b59593          	slli	a1,a1,0xb
    800097b0:	25758593          	addi	a1,a1,599
    800097b4:	00b59593          	slli	a1,a1,0xb
    800097b8:	6c358593          	addi	a1,a1,1731
    800097bc:	00a59593          	slli	a1,a1,0xa
    800097c0:	0cd58593          	addi	a1,a1,205
    800097c4:	00b54633          	xor	a2,a0,a1
    800097c8:	6ec0b823          	sd	a2,1776(ra)
    800097cc:	ffd551b7          	lui	gp,0xffd55
    800097d0:	5551819b          	addiw	gp,gp,1365 # ffffffffffd55555 <absimm+0xffffffff45047a85>
    800097d4:	00c19193          	slli	gp,gp,0xc
    800097d8:	55118193          	addi	gp,gp,1361
    800097dc:	01019193          	slli	gp,gp,0x10
    800097e0:	d7318193          	addi	gp,gp,-653
    800097e4:	00d19193          	slli	gp,gp,0xd
    800097e8:	99b18193          	addi	gp,gp,-1637
    800097ec:	00c18463          	beq	gp,a2,800097f4 <inst_511>
    800097f0:	835f606f          	j	80000024 <rvtest_error>

00000000800097f4 <inst_511>:
    800097f4:	55555537          	lui	a0,0x55555
    800097f8:	55550513          	addi	a0,a0,1365 # 55555555 <absimmsh+0x49a847a8>
    800097fc:	00b51513          	slli	a0,a0,0xb
    80009800:	2aa50513          	addi	a0,a0,682
    80009804:	00b51513          	slli	a0,a0,0xb
    80009808:	55550513          	addi	a0,a0,1365
    8000980c:	00a51513          	slli	a0,a0,0xa
    80009810:	15650513          	addi	a0,a0,342
    80009814:	000005b7          	lui	a1,0x0
    80009818:	00058593          	mv	a1,a1
    8000981c:	00b59593          	slli	a1,a1,0xb
    80009820:	5a858593          	addi	a1,a1,1448 # 5a8 <offset+0x190>
    80009824:	00b59593          	slli	a1,a1,0xb
    80009828:	13c58593          	addi	a1,a1,316
    8000982c:	00a59593          	slli	a1,a1,0xa
    80009830:	33358593          	addi	a1,a1,819
    80009834:	00b54633          	xor	a2,a0,a1
    80009838:	6ec0bc23          	sd	a2,1784(ra)
    8000983c:	002ab1b7          	lui	gp,0x2ab
    80009840:	aab1819b          	addiw	gp,gp,-1365 # 2aaaab <offset+0x2aa693>
    80009844:	00c19193          	slli	gp,gp,0xc
    80009848:	aaf18193          	addi	gp,gp,-1361
    8000984c:	01019193          	slli	gp,gp,0x10
    80009850:	28d18193          	addi	gp,gp,653
    80009854:	00d19193          	slli	gp,gp,0xd
    80009858:	66518193          	addi	gp,gp,1637
    8000985c:	00c18463          	beq	gp,a2,80009864 <inst_512>
    80009860:	fc4f606f          	j	80000024 <rvtest_error>

0000000080009864 <inst_512>:
    80009864:	55555537          	lui	a0,0x55555
    80009868:	55550513          	addi	a0,a0,1365 # 55555555 <absimmsh+0x49a847a8>
    8000986c:	00b51513          	slli	a0,a0,0xb
    80009870:	2aa50513          	addi	a0,a0,682
    80009874:	00b51513          	slli	a0,a0,0xb
    80009878:	55550513          	addi	a0,a0,1365
    8000987c:	00a51513          	slli	a0,a0,0xa
    80009880:	15650513          	addi	a0,a0,342
    80009884:	00200593          	li	a1,2
    80009888:	00b54633          	xor	a2,a0,a1
    8000988c:	70c0b023          	sd	a2,1792(ra)
    80009890:	055551b7          	lui	gp,0x5555
    80009894:	5551819b          	addiw	gp,gp,1365 # 5555555 <offset+0x555513d>
    80009898:	00c19193          	slli	gp,gp,0xc
    8000989c:	55518193          	addi	gp,gp,1365
    800098a0:	00c19193          	slli	gp,gp,0xc
    800098a4:	55518193          	addi	gp,gp,1365
    800098a8:	00c19193          	slli	gp,gp,0xc
    800098ac:	55418193          	addi	gp,gp,1364
    800098b0:	00c18463          	beq	gp,a2,800098b8 <inst_513>
    800098b4:	f70f606f          	j	80000024 <rvtest_error>

00000000800098b8 <inst_513>:
    800098b8:	55555537          	lui	a0,0x55555
    800098bc:	55550513          	addi	a0,a0,1365 # 55555555 <absimmsh+0x49a847a8>
    800098c0:	00b51513          	slli	a0,a0,0xb
    800098c4:	2aa50513          	addi	a0,a0,682
    800098c8:	00b51513          	slli	a0,a0,0xb
    800098cc:	55550513          	addi	a0,a0,1365
    800098d0:	00a51513          	slli	a0,a0,0xa
    800098d4:	15650513          	addi	a0,a0,342
    800098d8:	555555b7          	lui	a1,0x55555
    800098dc:	55558593          	addi	a1,a1,1365 # 55555555 <absimmsh+0x49a847a8>
    800098e0:	00b59593          	slli	a1,a1,0xb
    800098e4:	2aa58593          	addi	a1,a1,682
    800098e8:	00b59593          	slli	a1,a1,0xb
    800098ec:	55558593          	addi	a1,a1,1365
    800098f0:	00a59593          	slli	a1,a1,0xa
    800098f4:	15458593          	addi	a1,a1,340
    800098f8:	00b54633          	xor	a2,a0,a1
    800098fc:	70c0b423          	sd	a2,1800(ra)
    80009900:	00200193          	li	gp,2
    80009904:	00c18463          	beq	gp,a2,8000990c <inst_514>
    80009908:	f1cf606f          	j	80000024 <rvtest_error>

000000008000990c <inst_514>:
    8000990c:	55555537          	lui	a0,0x55555
    80009910:	55550513          	addi	a0,a0,1365 # 55555555 <absimmsh+0x49a847a8>
    80009914:	00b51513          	slli	a0,a0,0xb
    80009918:	2aa50513          	addi	a0,a0,682
    8000991c:	00b51513          	slli	a0,a0,0xb
    80009920:	55550513          	addi	a0,a0,1365
    80009924:	00a51513          	slli	a0,a0,0xa
    80009928:	15650513          	addi	a0,a0,342
    8000992c:	00000593          	li	a1,0
    80009930:	00b54633          	xor	a2,a0,a1
    80009934:	70c0b823          	sd	a2,1808(ra)
    80009938:	055551b7          	lui	gp,0x5555
    8000993c:	5551819b          	addiw	gp,gp,1365 # 5555555 <offset+0x555513d>
    80009940:	00c19193          	slli	gp,gp,0xc
    80009944:	55518193          	addi	gp,gp,1365
    80009948:	00c19193          	slli	gp,gp,0xc
    8000994c:	55518193          	addi	gp,gp,1365
    80009950:	00c19193          	slli	gp,gp,0xc
    80009954:	55618193          	addi	gp,gp,1366
    80009958:	00c18463          	beq	gp,a2,80009960 <inst_515>
    8000995c:	ec8f606f          	j	80000024 <rvtest_error>

0000000080009960 <inst_515>:
    80009960:	55555537          	lui	a0,0x55555
    80009964:	55550513          	addi	a0,a0,1365 # 55555555 <absimmsh+0x49a847a8>
    80009968:	00b51513          	slli	a0,a0,0xb
    8000996c:	2aa50513          	addi	a0,a0,682
    80009970:	00b51513          	slli	a0,a0,0xb
    80009974:	55550513          	addi	a0,a0,1365
    80009978:	00a51513          	slli	a0,a0,0xa
    8000997c:	15650513          	addi	a0,a0,342
    80009980:	00400593          	li	a1,4
    80009984:	00b54633          	xor	a2,a0,a1
    80009988:	70c0bc23          	sd	a2,1816(ra)
    8000998c:	055551b7          	lui	gp,0x5555
    80009990:	5551819b          	addiw	gp,gp,1365 # 5555555 <offset+0x555513d>
    80009994:	00c19193          	slli	gp,gp,0xc
    80009998:	55518193          	addi	gp,gp,1365
    8000999c:	00c19193          	slli	gp,gp,0xc
    800099a0:	55518193          	addi	gp,gp,1365
    800099a4:	00c19193          	slli	gp,gp,0xc
    800099a8:	55218193          	addi	gp,gp,1362
    800099ac:	00c18463          	beq	gp,a2,800099b4 <inst_516>
    800099b0:	e74f606f          	j	80000024 <rvtest_error>

00000000800099b4 <inst_516>:
    800099b4:	55555537          	lui	a0,0x55555
    800099b8:	55550513          	addi	a0,a0,1365 # 55555555 <absimmsh+0x49a847a8>
    800099bc:	00b51513          	slli	a0,a0,0xb
    800099c0:	2aa50513          	addi	a0,a0,682
    800099c4:	00b51513          	slli	a0,a0,0xb
    800099c8:	55550513          	addi	a0,a0,1365
    800099cc:	00a51513          	slli	a0,a0,0xa
    800099d0:	15650513          	addi	a0,a0,342
    800099d4:	333335b7          	lui	a1,0x33333
    800099d8:	33358593          	addi	a1,a1,819 # 33333333 <absimmsh+0x27862586>
    800099dc:	00b59593          	slli	a1,a1,0xb
    800099e0:	19958593          	addi	a1,a1,409
    800099e4:	00b59593          	slli	a1,a1,0xb
    800099e8:	4cc58593          	addi	a1,a1,1228
    800099ec:	00a59593          	slli	a1,a1,0xa
    800099f0:	33258593          	addi	a1,a1,818
    800099f4:	00b54633          	xor	a2,a0,a1
    800099f8:	72c0b023          	sd	a2,1824(ra)
    800099fc:	033331b7          	lui	gp,0x3333
    80009a00:	3331819b          	addiw	gp,gp,819 # 3333333 <offset+0x3332f1b>
    80009a04:	00c19193          	slli	gp,gp,0xc
    80009a08:	33318193          	addi	gp,gp,819
    80009a0c:	00c19193          	slli	gp,gp,0xc
    80009a10:	33318193          	addi	gp,gp,819
    80009a14:	00d19193          	slli	gp,gp,0xd
    80009a18:	66418193          	addi	gp,gp,1636
    80009a1c:	00c18463          	beq	gp,a2,80009a24 <inst_517>
    80009a20:	e04f606f          	j	80000024 <rvtest_error>

0000000080009a24 <inst_517>:
    80009a24:	55555537          	lui	a0,0x55555
    80009a28:	55550513          	addi	a0,a0,1365 # 55555555 <absimmsh+0x49a847a8>
    80009a2c:	00b51513          	slli	a0,a0,0xb
    80009a30:	2aa50513          	addi	a0,a0,682
    80009a34:	00b51513          	slli	a0,a0,0xb
    80009a38:	55550513          	addi	a0,a0,1365
    80009a3c:	00a51513          	slli	a0,a0,0xa
    80009a40:	15650513          	addi	a0,a0,342
    80009a44:	666665b7          	lui	a1,0x66666
    80009a48:	66658593          	addi	a1,a1,1638 # 66666666 <absimmsh+0x5ab958b9>
    80009a4c:	00b59593          	slli	a1,a1,0xb
    80009a50:	33358593          	addi	a1,a1,819
    80009a54:	00b59593          	slli	a1,a1,0xb
    80009a58:	19958593          	addi	a1,a1,409
    80009a5c:	00a59593          	slli	a1,a1,0xa
    80009a60:	26558593          	addi	a1,a1,613
    80009a64:	00b54633          	xor	a2,a0,a1
    80009a68:	72c0b423          	sd	a2,1832(ra)
    80009a6c:	033331b7          	lui	gp,0x3333
    80009a70:	3331819b          	addiw	gp,gp,819 # 3333333 <offset+0x3332f1b>
    80009a74:	00c19193          	slli	gp,gp,0xc
    80009a78:	33318193          	addi	gp,gp,819
    80009a7c:	00c19193          	slli	gp,gp,0xc
    80009a80:	33318193          	addi	gp,gp,819
    80009a84:	00c19193          	slli	gp,gp,0xc
    80009a88:	33318193          	addi	gp,gp,819
    80009a8c:	00c18463          	beq	gp,a2,80009a94 <inst_518>
    80009a90:	d94f606f          	j	80000024 <rvtest_error>

0000000080009a94 <inst_518>:
    80009a94:	55555537          	lui	a0,0x55555
    80009a98:	55550513          	addi	a0,a0,1365 # 55555555 <absimmsh+0x49a847a8>
    80009a9c:	00b51513          	slli	a0,a0,0xb
    80009aa0:	2aa50513          	addi	a0,a0,682
    80009aa4:	00b51513          	slli	a0,a0,0xb
    80009aa8:	55550513          	addi	a0,a0,1365
    80009aac:	00a51513          	slli	a0,a0,0xa
    80009ab0:	15650513          	addi	a0,a0,342
    80009ab4:	000005b7          	lui	a1,0x0
    80009ab8:	00058593          	mv	a1,a1
    80009abc:	00b59593          	slli	a1,a1,0xb
    80009ac0:	5a858593          	addi	a1,a1,1448 # 5a8 <offset+0x190>
    80009ac4:	00b59593          	slli	a1,a1,0xb
    80009ac8:	13c58593          	addi	a1,a1,316
    80009acc:	00a59593          	slli	a1,a1,0xa
    80009ad0:	33258593          	addi	a1,a1,818
    80009ad4:	00b54633          	xor	a2,a0,a1
    80009ad8:	72c0b823          	sd	a2,1840(ra)
    80009adc:	002ab1b7          	lui	gp,0x2ab
    80009ae0:	aab1819b          	addiw	gp,gp,-1365 # 2aaaab <offset+0x2aa693>
    80009ae4:	00c19193          	slli	gp,gp,0xc
    80009ae8:	aaf18193          	addi	gp,gp,-1361
    80009aec:	01019193          	slli	gp,gp,0x10
    80009af0:	28d18193          	addi	gp,gp,653
    80009af4:	00d19193          	slli	gp,gp,0xd
    80009af8:	66418193          	addi	gp,gp,1636
    80009afc:	00c18463          	beq	gp,a2,80009b04 <inst_519>
    80009b00:	d24f606f          	j	80000024 <rvtest_error>

0000000080009b04 <inst_519>:
    80009b04:	55555537          	lui	a0,0x55555
    80009b08:	55550513          	addi	a0,a0,1365 # 55555555 <absimmsh+0x49a847a8>
    80009b0c:	00b51513          	slli	a0,a0,0xb
    80009b10:	2aa50513          	addi	a0,a0,682
    80009b14:	00b51513          	slli	a0,a0,0xb
    80009b18:	55550513          	addi	a0,a0,1365
    80009b1c:	00a51513          	slli	a0,a0,0xa
    80009b20:	15650513          	addi	a0,a0,342
    80009b24:	555555b7          	lui	a1,0x55555
    80009b28:	55558593          	addi	a1,a1,1365 # 55555555 <absimmsh+0x49a847a8>
    80009b2c:	00b59593          	slli	a1,a1,0xb
    80009b30:	2aa58593          	addi	a1,a1,682
    80009b34:	00b59593          	slli	a1,a1,0xb
    80009b38:	55558593          	addi	a1,a1,1365
    80009b3c:	00a59593          	slli	a1,a1,0xa
    80009b40:	15658593          	addi	a1,a1,342
    80009b44:	00b54633          	xor	a2,a0,a1
    80009b48:	72c0bc23          	sd	a2,1848(ra)
    80009b4c:	00000193          	li	gp,0
    80009b50:	00c18463          	beq	gp,a2,80009b58 <inst_520>
    80009b54:	cd0f606f          	j	80000024 <rvtest_error>

0000000080009b58 <inst_520>:
    80009b58:	55555537          	lui	a0,0x55555
    80009b5c:	55550513          	addi	a0,a0,1365 # 55555555 <absimmsh+0x49a847a8>
    80009b60:	00b51513          	slli	a0,a0,0xb
    80009b64:	2aa50513          	addi	a0,a0,682
    80009b68:	00b51513          	slli	a0,a0,0xb
    80009b6c:	55550513          	addi	a0,a0,1365
    80009b70:	00a51513          	slli	a0,a0,0xa
    80009b74:	15650513          	addi	a0,a0,342
    80009b78:	aaaab5b7          	lui	a1,0xaaaab
    80009b7c:	aaa58593          	addi	a1,a1,-1366 # ffffffffaaaaaaaa <absimm+0xfffffffeefd9cfda>
    80009b80:	00b59593          	slli	a1,a1,0xb
    80009b84:	55558593          	addi	a1,a1,1365
    80009b88:	00b59593          	slli	a1,a1,0xb
    80009b8c:	2aa58593          	addi	a1,a1,682
    80009b90:	00a59593          	slli	a1,a1,0xa
    80009b94:	2ab58593          	addi	a1,a1,683
    80009b98:	00b54633          	xor	a2,a0,a1
    80009b9c:	74c0b023          	sd	a2,1856(ra)
    80009ba0:	ffd00193          	li	gp,-3
    80009ba4:	00c18463          	beq	gp,a2,80009bac <inst_521>
    80009ba8:	c7cf606f          	j	80000024 <rvtest_error>

0000000080009bac <inst_521>:
    80009bac:	55555537          	lui	a0,0x55555
    80009bb0:	55550513          	addi	a0,a0,1365 # 55555555 <absimmsh+0x49a847a8>
    80009bb4:	00b51513          	slli	a0,a0,0xb
    80009bb8:	2aa50513          	addi	a0,a0,682
    80009bbc:	00b51513          	slli	a0,a0,0xb
    80009bc0:	55550513          	addi	a0,a0,1365
    80009bc4:	00a51513          	slli	a0,a0,0xa
    80009bc8:	15650513          	addi	a0,a0,342
    80009bcc:	00600593          	li	a1,6
    80009bd0:	00b54633          	xor	a2,a0,a1
    80009bd4:	74c0b423          	sd	a2,1864(ra)
    80009bd8:	055551b7          	lui	gp,0x5555
    80009bdc:	5551819b          	addiw	gp,gp,1365 # 5555555 <offset+0x555513d>
    80009be0:	00c19193          	slli	gp,gp,0xc
    80009be4:	55518193          	addi	gp,gp,1365
    80009be8:	00c19193          	slli	gp,gp,0xc
    80009bec:	55518193          	addi	gp,gp,1365
    80009bf0:	00c19193          	slli	gp,gp,0xc
    80009bf4:	55018193          	addi	gp,gp,1360
    80009bf8:	00c18463          	beq	gp,a2,80009c00 <inst_522>
    80009bfc:	c28f606f          	j	80000024 <rvtest_error>

0000000080009c00 <inst_522>:
    80009c00:	55555537          	lui	a0,0x55555
    80009c04:	55550513          	addi	a0,a0,1365 # 55555555 <absimmsh+0x49a847a8>
    80009c08:	00b51513          	slli	a0,a0,0xb
    80009c0c:	2aa50513          	addi	a0,a0,682
    80009c10:	00b51513          	slli	a0,a0,0xb
    80009c14:	55550513          	addi	a0,a0,1365
    80009c18:	00a51513          	slli	a0,a0,0xa
    80009c1c:	15650513          	addi	a0,a0,342
    80009c20:	333335b7          	lui	a1,0x33333
    80009c24:	33358593          	addi	a1,a1,819 # 33333333 <absimmsh+0x27862586>
    80009c28:	00b59593          	slli	a1,a1,0xb
    80009c2c:	19958593          	addi	a1,a1,409
    80009c30:	00b59593          	slli	a1,a1,0xb
    80009c34:	4cc58593          	addi	a1,a1,1228
    80009c38:	00a59593          	slli	a1,a1,0xa
    80009c3c:	33458593          	addi	a1,a1,820
    80009c40:	00b54633          	xor	a2,a0,a1
    80009c44:	74c0b823          	sd	a2,1872(ra)
    80009c48:	033331b7          	lui	gp,0x3333
    80009c4c:	3331819b          	addiw	gp,gp,819 # 3333333 <offset+0x3332f1b>
    80009c50:	00c19193          	slli	gp,gp,0xc
    80009c54:	33318193          	addi	gp,gp,819
    80009c58:	00c19193          	slli	gp,gp,0xc
    80009c5c:	33318193          	addi	gp,gp,819
    80009c60:	00d19193          	slli	gp,gp,0xd
    80009c64:	66218193          	addi	gp,gp,1634
    80009c68:	00c18463          	beq	gp,a2,80009c70 <inst_523>
    80009c6c:	bb8f606f          	j	80000024 <rvtest_error>

0000000080009c70 <inst_523>:
    80009c70:	55555537          	lui	a0,0x55555
    80009c74:	55550513          	addi	a0,a0,1365 # 55555555 <absimmsh+0x49a847a8>
    80009c78:	00b51513          	slli	a0,a0,0xb
    80009c7c:	2aa50513          	addi	a0,a0,682
    80009c80:	00b51513          	slli	a0,a0,0xb
    80009c84:	55550513          	addi	a0,a0,1365
    80009c88:	00a51513          	slli	a0,a0,0xa
    80009c8c:	15650513          	addi	a0,a0,342
    80009c90:	666665b7          	lui	a1,0x66666
    80009c94:	66658593          	addi	a1,a1,1638 # 66666666 <absimmsh+0x5ab958b9>
    80009c98:	00b59593          	slli	a1,a1,0xb
    80009c9c:	33358593          	addi	a1,a1,819
    80009ca0:	00b59593          	slli	a1,a1,0xb
    80009ca4:	19958593          	addi	a1,a1,409
    80009ca8:	00a59593          	slli	a1,a1,0xa
    80009cac:	26758593          	addi	a1,a1,615
    80009cb0:	00b54633          	xor	a2,a0,a1
    80009cb4:	74c0bc23          	sd	a2,1880(ra)
    80009cb8:	033331b7          	lui	gp,0x3333
    80009cbc:	3331819b          	addiw	gp,gp,819 # 3333333 <offset+0x3332f1b>
    80009cc0:	00c19193          	slli	gp,gp,0xc
    80009cc4:	33318193          	addi	gp,gp,819
    80009cc8:	00c19193          	slli	gp,gp,0xc
    80009ccc:	33318193          	addi	gp,gp,819
    80009cd0:	00c19193          	slli	gp,gp,0xc
    80009cd4:	33118193          	addi	gp,gp,817
    80009cd8:	00c18463          	beq	gp,a2,80009ce0 <inst_524>
    80009cdc:	b48f606f          	j	80000024 <rvtest_error>

0000000080009ce0 <inst_524>:
    80009ce0:	55555537          	lui	a0,0x55555
    80009ce4:	55550513          	addi	a0,a0,1365 # 55555555 <absimmsh+0x49a847a8>
    80009ce8:	00b51513          	slli	a0,a0,0xb
    80009cec:	2aa50513          	addi	a0,a0,682
    80009cf0:	00b51513          	slli	a0,a0,0xb
    80009cf4:	55550513          	addi	a0,a0,1365
    80009cf8:	00a51513          	slli	a0,a0,0xa
    80009cfc:	15650513          	addi	a0,a0,342
    80009d00:	000005b7          	lui	a1,0x0
    80009d04:	fff58593          	addi	a1,a1,-1
    80009d08:	00b59593          	slli	a1,a1,0xb
    80009d0c:	25758593          	addi	a1,a1,599
    80009d10:	00b59593          	slli	a1,a1,0xb
    80009d14:	6c358593          	addi	a1,a1,1731
    80009d18:	00a59593          	slli	a1,a1,0xa
    80009d1c:	0ce58593          	addi	a1,a1,206
    80009d20:	00b54633          	xor	a2,a0,a1
    80009d24:	76c0b023          	sd	a2,1888(ra)
    80009d28:	ffd551b7          	lui	gp,0xffd55
    80009d2c:	5551819b          	addiw	gp,gp,1365 # ffffffffffd55555 <absimm+0xffffffff45047a85>
    80009d30:	00c19193          	slli	gp,gp,0xc
    80009d34:	55118193          	addi	gp,gp,1361
    80009d38:	01019193          	slli	gp,gp,0x10
    80009d3c:	d7318193          	addi	gp,gp,-653
    80009d40:	00d19193          	slli	gp,gp,0xd
    80009d44:	99818193          	addi	gp,gp,-1640
    80009d48:	00c18463          	beq	gp,a2,80009d50 <inst_525>
    80009d4c:	ad8f606f          	j	80000024 <rvtest_error>

0000000080009d50 <inst_525>:
    80009d50:	55555537          	lui	a0,0x55555
    80009d54:	55550513          	addi	a0,a0,1365 # 55555555 <absimmsh+0x49a847a8>
    80009d58:	00b51513          	slli	a0,a0,0xb
    80009d5c:	2aa50513          	addi	a0,a0,682
    80009d60:	00b51513          	slli	a0,a0,0xb
    80009d64:	55550513          	addi	a0,a0,1365
    80009d68:	00a51513          	slli	a0,a0,0xa
    80009d6c:	15650513          	addi	a0,a0,342
    80009d70:	000005b7          	lui	a1,0x0
    80009d74:	00058593          	mv	a1,a1
    80009d78:	00b59593          	slli	a1,a1,0xb
    80009d7c:	5a858593          	addi	a1,a1,1448 # 5a8 <offset+0x190>
    80009d80:	00b59593          	slli	a1,a1,0xb
    80009d84:	13c58593          	addi	a1,a1,316
    80009d88:	00a59593          	slli	a1,a1,0xa
    80009d8c:	33458593          	addi	a1,a1,820
    80009d90:	00b54633          	xor	a2,a0,a1
    80009d94:	76c0b423          	sd	a2,1896(ra)
    80009d98:	002ab1b7          	lui	gp,0x2ab
    80009d9c:	aab1819b          	addiw	gp,gp,-1365 # 2aaaab <offset+0x2aa693>
    80009da0:	00c19193          	slli	gp,gp,0xc
    80009da4:	aaf18193          	addi	gp,gp,-1361
    80009da8:	01019193          	slli	gp,gp,0x10
    80009dac:	28d18193          	addi	gp,gp,653
    80009db0:	00d19193          	slli	gp,gp,0xd
    80009db4:	66218193          	addi	gp,gp,1634
    80009db8:	00c18463          	beq	gp,a2,80009dc0 <inst_526>
    80009dbc:	a68f606f          	j	80000024 <rvtest_error>

0000000080009dc0 <inst_526>:
    80009dc0:	aaaab537          	lui	a0,0xaaaab
    80009dc4:	aaa50513          	addi	a0,a0,-1366 # ffffffffaaaaaaaa <absimm+0xfffffffeefd9cfda>
    80009dc8:	00b51513          	slli	a0,a0,0xb
    80009dcc:	55550513          	addi	a0,a0,1365
    80009dd0:	00b51513          	slli	a0,a0,0xb
    80009dd4:	2aa50513          	addi	a0,a0,682
    80009dd8:	00a51513          	slli	a0,a0,0xa
    80009ddc:	2ab50513          	addi	a0,a0,683
    80009de0:	00300593          	li	a1,3
    80009de4:	00b54633          	xor	a2,a0,a1
    80009de8:	76c0b823          	sd	a2,1904(ra)
    80009dec:	faaab1b7          	lui	gp,0xfaaab
    80009df0:	aab1819b          	addiw	gp,gp,-1365 # fffffffffaaaaaab <absimm+0xffffffff3fd9cfdb>
    80009df4:	00c19193          	slli	gp,gp,0xc
    80009df8:	aab18193          	addi	gp,gp,-1365
    80009dfc:	00c19193          	slli	gp,gp,0xc
    80009e00:	aab18193          	addi	gp,gp,-1365
    80009e04:	00c19193          	slli	gp,gp,0xc
    80009e08:	aa818193          	addi	gp,gp,-1368
    80009e0c:	00c18463          	beq	gp,a2,80009e14 <inst_527>
    80009e10:	a14f606f          	j	80000024 <rvtest_error>

0000000080009e14 <inst_527>:
    80009e14:	aaaab537          	lui	a0,0xaaaab
    80009e18:	aaa50513          	addi	a0,a0,-1366 # ffffffffaaaaaaaa <absimm+0xfffffffeefd9cfda>
    80009e1c:	00b51513          	slli	a0,a0,0xb
    80009e20:	55550513          	addi	a0,a0,1365
    80009e24:	00b51513          	slli	a0,a0,0xb
    80009e28:	2aa50513          	addi	a0,a0,682
    80009e2c:	00a51513          	slli	a0,a0,0xa
    80009e30:	2ab50513          	addi	a0,a0,683
    80009e34:	555555b7          	lui	a1,0x55555
    80009e38:	55558593          	addi	a1,a1,1365 # 55555555 <absimmsh+0x49a847a8>
    80009e3c:	00b59593          	slli	a1,a1,0xb
    80009e40:	2aa58593          	addi	a1,a1,682
    80009e44:	00b59593          	slli	a1,a1,0xb
    80009e48:	55558593          	addi	a1,a1,1365
    80009e4c:	00a59593          	slli	a1,a1,0xa
    80009e50:	15558593          	addi	a1,a1,341
    80009e54:	00b54633          	xor	a2,a0,a1
    80009e58:	76c0bc23          	sd	a2,1912(ra)
    80009e5c:	ffe00193          	li	gp,-2
    80009e60:	00c18463          	beq	gp,a2,80009e68 <inst_528>
    80009e64:	9c0f606f          	j	80000024 <rvtest_error>

0000000080009e68 <inst_528>:
    80009e68:	aaaab537          	lui	a0,0xaaaab
    80009e6c:	aaa50513          	addi	a0,a0,-1366 # ffffffffaaaaaaaa <absimm+0xfffffffeefd9cfda>
    80009e70:	00b51513          	slli	a0,a0,0xb
    80009e74:	55550513          	addi	a0,a0,1365
    80009e78:	00b51513          	slli	a0,a0,0xb
    80009e7c:	2aa50513          	addi	a0,a0,682
    80009e80:	00a51513          	slli	a0,a0,0xa
    80009e84:	2ab50513          	addi	a0,a0,683
    80009e88:	aaaab5b7          	lui	a1,0xaaaab
    80009e8c:	aaa58593          	addi	a1,a1,-1366 # ffffffffaaaaaaaa <absimm+0xfffffffeefd9cfda>
    80009e90:	00b59593          	slli	a1,a1,0xb
    80009e94:	55558593          	addi	a1,a1,1365
    80009e98:	00b59593          	slli	a1,a1,0xb
    80009e9c:	2aa58593          	addi	a1,a1,682
    80009ea0:	00a59593          	slli	a1,a1,0xa
    80009ea4:	2aa58593          	addi	a1,a1,682
    80009ea8:	00b54633          	xor	a2,a0,a1
    80009eac:	78c0b023          	sd	a2,1920(ra)
    80009eb0:	00100193          	li	gp,1
    80009eb4:	00c18463          	beq	gp,a2,80009ebc <inst_529>
    80009eb8:	96cf606f          	j	80000024 <rvtest_error>

0000000080009ebc <inst_529>:
    80009ebc:	aaaab537          	lui	a0,0xaaaab
    80009ec0:	aaa50513          	addi	a0,a0,-1366 # ffffffffaaaaaaaa <absimm+0xfffffffeefd9cfda>
    80009ec4:	00b51513          	slli	a0,a0,0xb
    80009ec8:	55550513          	addi	a0,a0,1365
    80009ecc:	00b51513          	slli	a0,a0,0xb
    80009ed0:	2aa50513          	addi	a0,a0,682
    80009ed4:	00a51513          	slli	a0,a0,0xa
    80009ed8:	2ab50513          	addi	a0,a0,683
    80009edc:	00500593          	li	a1,5
    80009ee0:	00b54633          	xor	a2,a0,a1
    80009ee4:	78c0b423          	sd	a2,1928(ra)
    80009ee8:	faaab1b7          	lui	gp,0xfaaab
    80009eec:	aab1819b          	addiw	gp,gp,-1365 # fffffffffaaaaaab <absimm+0xffffffff3fd9cfdb>
    80009ef0:	00c19193          	slli	gp,gp,0xc
    80009ef4:	aab18193          	addi	gp,gp,-1365
    80009ef8:	00c19193          	slli	gp,gp,0xc
    80009efc:	aab18193          	addi	gp,gp,-1365
    80009f00:	00c19193          	slli	gp,gp,0xc
    80009f04:	aae18193          	addi	gp,gp,-1362
    80009f08:	00c18463          	beq	gp,a2,80009f10 <inst_530>
    80009f0c:	918f606f          	j	80000024 <rvtest_error>

0000000080009f10 <inst_530>:
    80009f10:	aaaab537          	lui	a0,0xaaaab
    80009f14:	aaa50513          	addi	a0,a0,-1366 # ffffffffaaaaaaaa <absimm+0xfffffffeefd9cfda>
    80009f18:	00b51513          	slli	a0,a0,0xb
    80009f1c:	55550513          	addi	a0,a0,1365
    80009f20:	00b51513          	slli	a0,a0,0xb
    80009f24:	2aa50513          	addi	a0,a0,682
    80009f28:	00a51513          	slli	a0,a0,0xa
    80009f2c:	2ab50513          	addi	a0,a0,683
    80009f30:	333335b7          	lui	a1,0x33333
    80009f34:	33358593          	addi	a1,a1,819 # 33333333 <absimmsh+0x27862586>
    80009f38:	00b59593          	slli	a1,a1,0xb
    80009f3c:	19958593          	addi	a1,a1,409
    80009f40:	00b59593          	slli	a1,a1,0xb
    80009f44:	4cc58593          	addi	a1,a1,1228
    80009f48:	00a59593          	slli	a1,a1,0xa
    80009f4c:	33358593          	addi	a1,a1,819
    80009f50:	00b54633          	xor	a2,a0,a1
    80009f54:	78c0b823          	sd	a2,1936(ra)
    80009f58:	fcccd1b7          	lui	gp,0xfcccd
    80009f5c:	ccd1819b          	addiw	gp,gp,-819 # fffffffffccccccd <absimm+0xffffffff41fbf1fd>
    80009f60:	00c19193          	slli	gp,gp,0xc
    80009f64:	ccd18193          	addi	gp,gp,-819
    80009f68:	00c19193          	slli	gp,gp,0xc
    80009f6c:	ccd18193          	addi	gp,gp,-819
    80009f70:	00d19193          	slli	gp,gp,0xd
    80009f74:	99818193          	addi	gp,gp,-1640
    80009f78:	00c18463          	beq	gp,a2,80009f80 <inst_531>
    80009f7c:	8a8f606f          	j	80000024 <rvtest_error>

0000000080009f80 <inst_531>:
    80009f80:	aaaab537          	lui	a0,0xaaaab
    80009f84:	aaa50513          	addi	a0,a0,-1366 # ffffffffaaaaaaaa <absimm+0xfffffffeefd9cfda>
    80009f88:	00b51513          	slli	a0,a0,0xb
    80009f8c:	55550513          	addi	a0,a0,1365
    80009f90:	00b51513          	slli	a0,a0,0xb
    80009f94:	2aa50513          	addi	a0,a0,682
    80009f98:	00a51513          	slli	a0,a0,0xa
    80009f9c:	2ab50513          	addi	a0,a0,683
    80009fa0:	666665b7          	lui	a1,0x66666
    80009fa4:	66658593          	addi	a1,a1,1638 # 66666666 <absimmsh+0x5ab958b9>
    80009fa8:	00b59593          	slli	a1,a1,0xb
    80009fac:	33358593          	addi	a1,a1,819
    80009fb0:	00b59593          	slli	a1,a1,0xb
    80009fb4:	19958593          	addi	a1,a1,409
    80009fb8:	00a59593          	slli	a1,a1,0xa
    80009fbc:	26658593          	addi	a1,a1,614
    80009fc0:	00b54633          	xor	a2,a0,a1
    80009fc4:	78c0bc23          	sd	a2,1944(ra)
    80009fc8:	fcccd1b7          	lui	gp,0xfcccd
    80009fcc:	ccd1819b          	addiw	gp,gp,-819 # fffffffffccccccd <absimm+0xffffffff41fbf1fd>
    80009fd0:	00c19193          	slli	gp,gp,0xc
    80009fd4:	ccd18193          	addi	gp,gp,-819
    80009fd8:	00c19193          	slli	gp,gp,0xc
    80009fdc:	ccd18193          	addi	gp,gp,-819
    80009fe0:	00c19193          	slli	gp,gp,0xc
    80009fe4:	ccd18193          	addi	gp,gp,-819
    80009fe8:	00c18463          	beq	gp,a2,80009ff0 <inst_532>
    80009fec:	838f606f          	j	80000024 <rvtest_error>

0000000080009ff0 <inst_532>:
    80009ff0:	aaaab537          	lui	a0,0xaaaab
    80009ff4:	aaa50513          	addi	a0,a0,-1366 # ffffffffaaaaaaaa <absimm+0xfffffffeefd9cfda>
    80009ff8:	00b51513          	slli	a0,a0,0xb
    80009ffc:	55550513          	addi	a0,a0,1365
    8000a000:	00b51513          	slli	a0,a0,0xb
    8000a004:	2aa50513          	addi	a0,a0,682
    8000a008:	00a51513          	slli	a0,a0,0xa
    8000a00c:	2ab50513          	addi	a0,a0,683
    8000a010:	000005b7          	lui	a1,0x0
    8000a014:	fff58593          	addi	a1,a1,-1
    8000a018:	00b59593          	slli	a1,a1,0xb
    8000a01c:	25758593          	addi	a1,a1,599
    8000a020:	00b59593          	slli	a1,a1,0xb
    8000a024:	6c358593          	addi	a1,a1,1731
    8000a028:	00a59593          	slli	a1,a1,0xa
    8000a02c:	0cd58593          	addi	a1,a1,205
    8000a030:	00b54633          	xor	a2,a0,a1
    8000a034:	7ac0b023          	sd	a2,1952(ra)
    8000a038:	002ab1b7          	lui	gp,0x2ab
    8000a03c:	aab1819b          	addiw	gp,gp,-1365 # 2aaaab <offset+0x2aa693>
    8000a040:	00c19193          	slli	gp,gp,0xc
    8000a044:	aaf18193          	addi	gp,gp,-1361
    8000a048:	01019193          	slli	gp,gp,0x10
    8000a04c:	28d18193          	addi	gp,gp,653
    8000a050:	00d19193          	slli	gp,gp,0xd
    8000a054:	66618193          	addi	gp,gp,1638
    8000a058:	00c18463          	beq	gp,a2,8000a060 <inst_533>
    8000a05c:	fc9f506f          	j	80000024 <rvtest_error>

000000008000a060 <inst_533>:
    8000a060:	aaaab537          	lui	a0,0xaaaab
    8000a064:	aaa50513          	addi	a0,a0,-1366 # ffffffffaaaaaaaa <absimm+0xfffffffeefd9cfda>
    8000a068:	00b51513          	slli	a0,a0,0xb
    8000a06c:	55550513          	addi	a0,a0,1365
    8000a070:	00b51513          	slli	a0,a0,0xb
    8000a074:	2aa50513          	addi	a0,a0,682
    8000a078:	00a51513          	slli	a0,a0,0xa
    8000a07c:	2ab50513          	addi	a0,a0,683
    8000a080:	000005b7          	lui	a1,0x0
    8000a084:	00058593          	mv	a1,a1
    8000a088:	00b59593          	slli	a1,a1,0xb
    8000a08c:	5a858593          	addi	a1,a1,1448 # 5a8 <offset+0x190>
    8000a090:	00b59593          	slli	a1,a1,0xb
    8000a094:	13c58593          	addi	a1,a1,316
    8000a098:	00a59593          	slli	a1,a1,0xa
    8000a09c:	33358593          	addi	a1,a1,819
    8000a0a0:	00b54633          	xor	a2,a0,a1
    8000a0a4:	7ac0b423          	sd	a2,1960(ra)
    8000a0a8:	ffd551b7          	lui	gp,0xffd55
    8000a0ac:	5551819b          	addiw	gp,gp,1365 # ffffffffffd55555 <absimm+0xffffffff45047a85>
    8000a0b0:	00c19193          	slli	gp,gp,0xc
    8000a0b4:	55118193          	addi	gp,gp,1361
    8000a0b8:	01019193          	slli	gp,gp,0x10
    8000a0bc:	d7318193          	addi	gp,gp,-653
    8000a0c0:	00d19193          	slli	gp,gp,0xd
    8000a0c4:	99818193          	addi	gp,gp,-1640
    8000a0c8:	00c18463          	beq	gp,a2,8000a0d0 <inst_534>
    8000a0cc:	f59f506f          	j	80000024 <rvtest_error>

000000008000a0d0 <inst_534>:
    8000a0d0:	aaaab537          	lui	a0,0xaaaab
    8000a0d4:	aaa50513          	addi	a0,a0,-1366 # ffffffffaaaaaaaa <absimm+0xfffffffeefd9cfda>
    8000a0d8:	00b51513          	slli	a0,a0,0xb
    8000a0dc:	55550513          	addi	a0,a0,1365
    8000a0e0:	00b51513          	slli	a0,a0,0xb
    8000a0e4:	2aa50513          	addi	a0,a0,682
    8000a0e8:	00a51513          	slli	a0,a0,0xa
    8000a0ec:	2ab50513          	addi	a0,a0,683
    8000a0f0:	00200593          	li	a1,2
    8000a0f4:	00b54633          	xor	a2,a0,a1
    8000a0f8:	7ac0b823          	sd	a2,1968(ra)
    8000a0fc:	faaab1b7          	lui	gp,0xfaaab
    8000a100:	aab1819b          	addiw	gp,gp,-1365 # fffffffffaaaaaab <absimm+0xffffffff3fd9cfdb>
    8000a104:	00c19193          	slli	gp,gp,0xc
    8000a108:	aab18193          	addi	gp,gp,-1365
    8000a10c:	00c19193          	slli	gp,gp,0xc
    8000a110:	aab18193          	addi	gp,gp,-1365
    8000a114:	00c19193          	slli	gp,gp,0xc
    8000a118:	aa918193          	addi	gp,gp,-1367
    8000a11c:	00c18463          	beq	gp,a2,8000a124 <inst_535>
    8000a120:	f05f506f          	j	80000024 <rvtest_error>

000000008000a124 <inst_535>:
    8000a124:	aaaab537          	lui	a0,0xaaaab
    8000a128:	aaa50513          	addi	a0,a0,-1366 # ffffffffaaaaaaaa <absimm+0xfffffffeefd9cfda>
    8000a12c:	00b51513          	slli	a0,a0,0xb
    8000a130:	55550513          	addi	a0,a0,1365
    8000a134:	00b51513          	slli	a0,a0,0xb
    8000a138:	2aa50513          	addi	a0,a0,682
    8000a13c:	00a51513          	slli	a0,a0,0xa
    8000a140:	2ab50513          	addi	a0,a0,683
    8000a144:	555555b7          	lui	a1,0x55555
    8000a148:	55558593          	addi	a1,a1,1365 # 55555555 <absimmsh+0x49a847a8>
    8000a14c:	00b59593          	slli	a1,a1,0xb
    8000a150:	2aa58593          	addi	a1,a1,682
    8000a154:	00b59593          	slli	a1,a1,0xb
    8000a158:	55558593          	addi	a1,a1,1365
    8000a15c:	00a59593          	slli	a1,a1,0xa
    8000a160:	15458593          	addi	a1,a1,340
    8000a164:	00b54633          	xor	a2,a0,a1
    8000a168:	7ac0bc23          	sd	a2,1976(ra)
    8000a16c:	fff00193          	li	gp,-1
    8000a170:	00c18463          	beq	gp,a2,8000a178 <inst_536>
    8000a174:	eb1f506f          	j	80000024 <rvtest_error>

000000008000a178 <inst_536>:
    8000a178:	aaaab537          	lui	a0,0xaaaab
    8000a17c:	aaa50513          	addi	a0,a0,-1366 # ffffffffaaaaaaaa <absimm+0xfffffffeefd9cfda>
    8000a180:	00b51513          	slli	a0,a0,0xb
    8000a184:	55550513          	addi	a0,a0,1365
    8000a188:	00b51513          	slli	a0,a0,0xb
    8000a18c:	2aa50513          	addi	a0,a0,682
    8000a190:	00a51513          	slli	a0,a0,0xa
    8000a194:	2ab50513          	addi	a0,a0,683
    8000a198:	00000593          	li	a1,0
    8000a19c:	00b54633          	xor	a2,a0,a1
    8000a1a0:	7cc0b023          	sd	a2,1984(ra)
    8000a1a4:	faaab1b7          	lui	gp,0xfaaab
    8000a1a8:	aab1819b          	addiw	gp,gp,-1365 # fffffffffaaaaaab <absimm+0xffffffff3fd9cfdb>
    8000a1ac:	00c19193          	slli	gp,gp,0xc
    8000a1b0:	aab18193          	addi	gp,gp,-1365
    8000a1b4:	00c19193          	slli	gp,gp,0xc
    8000a1b8:	aab18193          	addi	gp,gp,-1365
    8000a1bc:	00c19193          	slli	gp,gp,0xc
    8000a1c0:	aab18193          	addi	gp,gp,-1365
    8000a1c4:	00c18463          	beq	gp,a2,8000a1cc <inst_537>
    8000a1c8:	e5df506f          	j	80000024 <rvtest_error>

000000008000a1cc <inst_537>:
    8000a1cc:	aaaab537          	lui	a0,0xaaaab
    8000a1d0:	aaa50513          	addi	a0,a0,-1366 # ffffffffaaaaaaaa <absimm+0xfffffffeefd9cfda>
    8000a1d4:	00b51513          	slli	a0,a0,0xb
    8000a1d8:	55550513          	addi	a0,a0,1365
    8000a1dc:	00b51513          	slli	a0,a0,0xb
    8000a1e0:	2aa50513          	addi	a0,a0,682
    8000a1e4:	00a51513          	slli	a0,a0,0xa
    8000a1e8:	2ab50513          	addi	a0,a0,683
    8000a1ec:	00400593          	li	a1,4
    8000a1f0:	00b54633          	xor	a2,a0,a1
    8000a1f4:	7cc0b423          	sd	a2,1992(ra)
    8000a1f8:	faaab1b7          	lui	gp,0xfaaab
    8000a1fc:	aab1819b          	addiw	gp,gp,-1365 # fffffffffaaaaaab <absimm+0xffffffff3fd9cfdb>
    8000a200:	00c19193          	slli	gp,gp,0xc
    8000a204:	aab18193          	addi	gp,gp,-1365
    8000a208:	00c19193          	slli	gp,gp,0xc
    8000a20c:	aab18193          	addi	gp,gp,-1365
    8000a210:	00c19193          	slli	gp,gp,0xc
    8000a214:	aaf18193          	addi	gp,gp,-1361
    8000a218:	00c18463          	beq	gp,a2,8000a220 <inst_538>
    8000a21c:	e09f506f          	j	80000024 <rvtest_error>

000000008000a220 <inst_538>:
    8000a220:	aaaab537          	lui	a0,0xaaaab
    8000a224:	aaa50513          	addi	a0,a0,-1366 # ffffffffaaaaaaaa <absimm+0xfffffffeefd9cfda>
    8000a228:	00b51513          	slli	a0,a0,0xb
    8000a22c:	55550513          	addi	a0,a0,1365
    8000a230:	00b51513          	slli	a0,a0,0xb
    8000a234:	2aa50513          	addi	a0,a0,682
    8000a238:	00a51513          	slli	a0,a0,0xa
    8000a23c:	2ab50513          	addi	a0,a0,683
    8000a240:	333335b7          	lui	a1,0x33333
    8000a244:	33358593          	addi	a1,a1,819 # 33333333 <absimmsh+0x27862586>
    8000a248:	00b59593          	slli	a1,a1,0xb
    8000a24c:	19958593          	addi	a1,a1,409
    8000a250:	00b59593          	slli	a1,a1,0xb
    8000a254:	4cc58593          	addi	a1,a1,1228
    8000a258:	00a59593          	slli	a1,a1,0xa
    8000a25c:	33258593          	addi	a1,a1,818
    8000a260:	00b54633          	xor	a2,a0,a1
    8000a264:	7cc0b823          	sd	a2,2000(ra)
    8000a268:	fcccd1b7          	lui	gp,0xfcccd
    8000a26c:	ccd1819b          	addiw	gp,gp,-819 # fffffffffccccccd <absimm+0xffffffff41fbf1fd>
    8000a270:	00c19193          	slli	gp,gp,0xc
    8000a274:	ccd18193          	addi	gp,gp,-819
    8000a278:	00c19193          	slli	gp,gp,0xc
    8000a27c:	ccd18193          	addi	gp,gp,-819
    8000a280:	00d19193          	slli	gp,gp,0xd
    8000a284:	99918193          	addi	gp,gp,-1639
    8000a288:	00c18463          	beq	gp,a2,8000a290 <inst_539>
    8000a28c:	d99f506f          	j	80000024 <rvtest_error>

000000008000a290 <inst_539>:
    8000a290:	aaaab537          	lui	a0,0xaaaab
    8000a294:	aaa50513          	addi	a0,a0,-1366 # ffffffffaaaaaaaa <absimm+0xfffffffeefd9cfda>
    8000a298:	00b51513          	slli	a0,a0,0xb
    8000a29c:	55550513          	addi	a0,a0,1365
    8000a2a0:	00b51513          	slli	a0,a0,0xb
    8000a2a4:	2aa50513          	addi	a0,a0,682
    8000a2a8:	00a51513          	slli	a0,a0,0xa
    8000a2ac:	2ab50513          	addi	a0,a0,683
    8000a2b0:	666665b7          	lui	a1,0x66666
    8000a2b4:	66658593          	addi	a1,a1,1638 # 66666666 <absimmsh+0x5ab958b9>
    8000a2b8:	00b59593          	slli	a1,a1,0xb
    8000a2bc:	33358593          	addi	a1,a1,819
    8000a2c0:	00b59593          	slli	a1,a1,0xb
    8000a2c4:	19958593          	addi	a1,a1,409
    8000a2c8:	00a59593          	slli	a1,a1,0xa
    8000a2cc:	26558593          	addi	a1,a1,613
    8000a2d0:	00b54633          	xor	a2,a0,a1
    8000a2d4:	7cc0bc23          	sd	a2,2008(ra)
    8000a2d8:	fcccd1b7          	lui	gp,0xfcccd
    8000a2dc:	ccd1819b          	addiw	gp,gp,-819 # fffffffffccccccd <absimm+0xffffffff41fbf1fd>
    8000a2e0:	00c19193          	slli	gp,gp,0xc
    8000a2e4:	ccd18193          	addi	gp,gp,-819
    8000a2e8:	00c19193          	slli	gp,gp,0xc
    8000a2ec:	ccd18193          	addi	gp,gp,-819
    8000a2f0:	00c19193          	slli	gp,gp,0xc
    8000a2f4:	cce18193          	addi	gp,gp,-818
    8000a2f8:	00c18463          	beq	gp,a2,8000a300 <inst_540>
    8000a2fc:	d29f506f          	j	80000024 <rvtest_error>

000000008000a300 <inst_540>:
    8000a300:	aaaab537          	lui	a0,0xaaaab
    8000a304:	aaa50513          	addi	a0,a0,-1366 # ffffffffaaaaaaaa <absimm+0xfffffffeefd9cfda>
    8000a308:	00b51513          	slli	a0,a0,0xb
    8000a30c:	55550513          	addi	a0,a0,1365
    8000a310:	00b51513          	slli	a0,a0,0xb
    8000a314:	2aa50513          	addi	a0,a0,682
    8000a318:	00a51513          	slli	a0,a0,0xa
    8000a31c:	2ab50513          	addi	a0,a0,683
    8000a320:	000005b7          	lui	a1,0x0
    8000a324:	00058593          	mv	a1,a1
    8000a328:	00b59593          	slli	a1,a1,0xb
    8000a32c:	5a858593          	addi	a1,a1,1448 # 5a8 <offset+0x190>
    8000a330:	00b59593          	slli	a1,a1,0xb
    8000a334:	13c58593          	addi	a1,a1,316
    8000a338:	00a59593          	slli	a1,a1,0xa
    8000a33c:	33258593          	addi	a1,a1,818
    8000a340:	00b54633          	xor	a2,a0,a1
    8000a344:	7ec0b023          	sd	a2,2016(ra)
    8000a348:	ffd551b7          	lui	gp,0xffd55
    8000a34c:	5551819b          	addiw	gp,gp,1365 # ffffffffffd55555 <absimm+0xffffffff45047a85>
    8000a350:	00c19193          	slli	gp,gp,0xc
    8000a354:	55118193          	addi	gp,gp,1361
    8000a358:	01019193          	slli	gp,gp,0x10
    8000a35c:	d7318193          	addi	gp,gp,-653
    8000a360:	00d19193          	slli	gp,gp,0xd
    8000a364:	99918193          	addi	gp,gp,-1639
    8000a368:	00c18463          	beq	gp,a2,8000a370 <inst_541>
    8000a36c:	cb9f506f          	j	80000024 <rvtest_error>

000000008000a370 <inst_541>:
    8000a370:	aaaab537          	lui	a0,0xaaaab
    8000a374:	aaa50513          	addi	a0,a0,-1366 # ffffffffaaaaaaaa <absimm+0xfffffffeefd9cfda>
    8000a378:	00b51513          	slli	a0,a0,0xb
    8000a37c:	55550513          	addi	a0,a0,1365
    8000a380:	00b51513          	slli	a0,a0,0xb
    8000a384:	2aa50513          	addi	a0,a0,682
    8000a388:	00a51513          	slli	a0,a0,0xa
    8000a38c:	2ab50513          	addi	a0,a0,683
    8000a390:	555555b7          	lui	a1,0x55555
    8000a394:	55558593          	addi	a1,a1,1365 # 55555555 <absimmsh+0x49a847a8>
    8000a398:	00b59593          	slli	a1,a1,0xb
    8000a39c:	2aa58593          	addi	a1,a1,682
    8000a3a0:	00b59593          	slli	a1,a1,0xb
    8000a3a4:	55558593          	addi	a1,a1,1365
    8000a3a8:	00a59593          	slli	a1,a1,0xa
    8000a3ac:	15658593          	addi	a1,a1,342
    8000a3b0:	00b54633          	xor	a2,a0,a1
    8000a3b4:	7ec0b423          	sd	a2,2024(ra)
    8000a3b8:	ffd00193          	li	gp,-3
    8000a3bc:	00c18463          	beq	gp,a2,8000a3c4 <inst_542>
    8000a3c0:	c65f506f          	j	80000024 <rvtest_error>

000000008000a3c4 <inst_542>:
    8000a3c4:	aaaab537          	lui	a0,0xaaaab
    8000a3c8:	aaa50513          	addi	a0,a0,-1366 # ffffffffaaaaaaaa <absimm+0xfffffffeefd9cfda>
    8000a3cc:	00b51513          	slli	a0,a0,0xb
    8000a3d0:	55550513          	addi	a0,a0,1365
    8000a3d4:	00b51513          	slli	a0,a0,0xb
    8000a3d8:	2aa50513          	addi	a0,a0,682
    8000a3dc:	00a51513          	slli	a0,a0,0xa
    8000a3e0:	2ab50513          	addi	a0,a0,683
    8000a3e4:	aaaab5b7          	lui	a1,0xaaaab
    8000a3e8:	aaa58593          	addi	a1,a1,-1366 # ffffffffaaaaaaaa <absimm+0xfffffffeefd9cfda>
    8000a3ec:	00b59593          	slli	a1,a1,0xb
    8000a3f0:	55558593          	addi	a1,a1,1365
    8000a3f4:	00b59593          	slli	a1,a1,0xb
    8000a3f8:	2aa58593          	addi	a1,a1,682
    8000a3fc:	00a59593          	slli	a1,a1,0xa
    8000a400:	2ab58593          	addi	a1,a1,683
    8000a404:	00b54633          	xor	a2,a0,a1
    8000a408:	7ec0b823          	sd	a2,2032(ra)
    8000a40c:	00000193          	li	gp,0
    8000a410:	00c18463          	beq	gp,a2,8000a418 <inst_543>
    8000a414:	c11f506f          	j	80000024 <rvtest_error>

000000008000a418 <inst_543>:
    8000a418:	aaaab537          	lui	a0,0xaaaab
    8000a41c:	aaa50513          	addi	a0,a0,-1366 # ffffffffaaaaaaaa <absimm+0xfffffffeefd9cfda>
    8000a420:	00b51513          	slli	a0,a0,0xb
    8000a424:	55550513          	addi	a0,a0,1365
    8000a428:	00b51513          	slli	a0,a0,0xb
    8000a42c:	2aa50513          	addi	a0,a0,682
    8000a430:	00a51513          	slli	a0,a0,0xa
    8000a434:	2ab50513          	addi	a0,a0,683
    8000a438:	00600593          	li	a1,6
    8000a43c:	00b54633          	xor	a2,a0,a1
    8000a440:	7ec0bc23          	sd	a2,2040(ra)
    8000a444:	faaab1b7          	lui	gp,0xfaaab
    8000a448:	aab1819b          	addiw	gp,gp,-1365 # fffffffffaaaaaab <absimm+0xffffffff3fd9cfdb>
    8000a44c:	00c19193          	slli	gp,gp,0xc
    8000a450:	aab18193          	addi	gp,gp,-1365
    8000a454:	00c19193          	slli	gp,gp,0xc
    8000a458:	aab18193          	addi	gp,gp,-1365
    8000a45c:	00c19193          	slli	gp,gp,0xc
    8000a460:	aad18193          	addi	gp,gp,-1363
    8000a464:	00c18463          	beq	gp,a2,8000a46c <inst_543+0x54>
    8000a468:	bbdf506f          	j	80000024 <rvtest_error>
    8000a46c:	00000013          	nop
    8000a470:	00000013          	nop
    8000a474:	00000013          	nop
    8000a478:	00000013          	nop
    8000a47c:	00000013          	nop
    8000a480:	00006097          	auipc	ra,0x6
    8000a484:	c8808093          	addi	ra,ra,-888 # 80010108 <signature_x1_2>
    8000a488:	00000013          	nop
    8000a48c:	00000013          	nop
    8000a490:	00000013          	nop
    8000a494:	00000013          	nop
    8000a498:	00000013          	nop
    8000a49c:	00000013          	nop

000000008000a4a0 <inst_544>:
    8000a4a0:	aaaab537          	lui	a0,0xaaaab
    8000a4a4:	aaa50513          	addi	a0,a0,-1366 # ffffffffaaaaaaaa <absimm+0xfffffffeefd9cfda>
    8000a4a8:	00b51513          	slli	a0,a0,0xb
    8000a4ac:	55550513          	addi	a0,a0,1365
    8000a4b0:	00b51513          	slli	a0,a0,0xb
    8000a4b4:	2aa50513          	addi	a0,a0,682
    8000a4b8:	00a51513          	slli	a0,a0,0xa
    8000a4bc:	2ab50513          	addi	a0,a0,683
    8000a4c0:	333335b7          	lui	a1,0x33333
    8000a4c4:	33358593          	addi	a1,a1,819 # 33333333 <absimmsh+0x27862586>
    8000a4c8:	00b59593          	slli	a1,a1,0xb
    8000a4cc:	19958593          	addi	a1,a1,409
    8000a4d0:	00b59593          	slli	a1,a1,0xb
    8000a4d4:	4cc58593          	addi	a1,a1,1228
    8000a4d8:	00a59593          	slli	a1,a1,0xa
    8000a4dc:	33458593          	addi	a1,a1,820
    8000a4e0:	00b54633          	xor	a2,a0,a1
    8000a4e4:	00c0b023          	sd	a2,0(ra)
    8000a4e8:	fcccd1b7          	lui	gp,0xfcccd
    8000a4ec:	ccd1819b          	addiw	gp,gp,-819 # fffffffffccccccd <absimm+0xffffffff41fbf1fd>
    8000a4f0:	00c19193          	slli	gp,gp,0xc
    8000a4f4:	ccd18193          	addi	gp,gp,-819
    8000a4f8:	00c19193          	slli	gp,gp,0xc
    8000a4fc:	ccd18193          	addi	gp,gp,-819
    8000a500:	00d19193          	slli	gp,gp,0xd
    8000a504:	99f18193          	addi	gp,gp,-1633
    8000a508:	00c18463          	beq	gp,a2,8000a510 <inst_545>
    8000a50c:	b19f506f          	j	80000024 <rvtest_error>

000000008000a510 <inst_545>:
    8000a510:	aaaab537          	lui	a0,0xaaaab
    8000a514:	aaa50513          	addi	a0,a0,-1366 # ffffffffaaaaaaaa <absimm+0xfffffffeefd9cfda>
    8000a518:	00b51513          	slli	a0,a0,0xb
    8000a51c:	55550513          	addi	a0,a0,1365
    8000a520:	00b51513          	slli	a0,a0,0xb
    8000a524:	2aa50513          	addi	a0,a0,682
    8000a528:	00a51513          	slli	a0,a0,0xa
    8000a52c:	2ab50513          	addi	a0,a0,683
    8000a530:	666665b7          	lui	a1,0x66666
    8000a534:	66658593          	addi	a1,a1,1638 # 66666666 <absimmsh+0x5ab958b9>
    8000a538:	00b59593          	slli	a1,a1,0xb
    8000a53c:	33358593          	addi	a1,a1,819
    8000a540:	00b59593          	slli	a1,a1,0xb
    8000a544:	19958593          	addi	a1,a1,409
    8000a548:	00a59593          	slli	a1,a1,0xa
    8000a54c:	26758593          	addi	a1,a1,615
    8000a550:	00b54633          	xor	a2,a0,a1
    8000a554:	00c0b423          	sd	a2,8(ra)
    8000a558:	fcccd1b7          	lui	gp,0xfcccd
    8000a55c:	ccd1819b          	addiw	gp,gp,-819 # fffffffffccccccd <absimm+0xffffffff41fbf1fd>
    8000a560:	00c19193          	slli	gp,gp,0xc
    8000a564:	ccd18193          	addi	gp,gp,-819
    8000a568:	00c19193          	slli	gp,gp,0xc
    8000a56c:	ccd18193          	addi	gp,gp,-819
    8000a570:	00c19193          	slli	gp,gp,0xc
    8000a574:	ccc18193          	addi	gp,gp,-820
    8000a578:	00c18463          	beq	gp,a2,8000a580 <inst_546>
    8000a57c:	aa9f506f          	j	80000024 <rvtest_error>

000000008000a580 <inst_546>:
    8000a580:	aaaab537          	lui	a0,0xaaaab
    8000a584:	aaa50513          	addi	a0,a0,-1366 # ffffffffaaaaaaaa <absimm+0xfffffffeefd9cfda>
    8000a588:	00b51513          	slli	a0,a0,0xb
    8000a58c:	55550513          	addi	a0,a0,1365
    8000a590:	00b51513          	slli	a0,a0,0xb
    8000a594:	2aa50513          	addi	a0,a0,682
    8000a598:	00a51513          	slli	a0,a0,0xa
    8000a59c:	2ab50513          	addi	a0,a0,683
    8000a5a0:	000005b7          	lui	a1,0x0
    8000a5a4:	fff58593          	addi	a1,a1,-1
    8000a5a8:	00b59593          	slli	a1,a1,0xb
    8000a5ac:	25758593          	addi	a1,a1,599
    8000a5b0:	00b59593          	slli	a1,a1,0xb
    8000a5b4:	6c358593          	addi	a1,a1,1731
    8000a5b8:	00a59593          	slli	a1,a1,0xa
    8000a5bc:	0ce58593          	addi	a1,a1,206
    8000a5c0:	00b54633          	xor	a2,a0,a1
    8000a5c4:	00c0b823          	sd	a2,16(ra)
    8000a5c8:	002ab1b7          	lui	gp,0x2ab
    8000a5cc:	aab1819b          	addiw	gp,gp,-1365 # 2aaaab <offset+0x2aa693>
    8000a5d0:	00c19193          	slli	gp,gp,0xc
    8000a5d4:	aaf18193          	addi	gp,gp,-1361
    8000a5d8:	01019193          	slli	gp,gp,0x10
    8000a5dc:	28d18193          	addi	gp,gp,653
    8000a5e0:	00d19193          	slli	gp,gp,0xd
    8000a5e4:	66518193          	addi	gp,gp,1637
    8000a5e8:	00c18463          	beq	gp,a2,8000a5f0 <inst_547>
    8000a5ec:	a39f506f          	j	80000024 <rvtest_error>

000000008000a5f0 <inst_547>:
    8000a5f0:	aaaab537          	lui	a0,0xaaaab
    8000a5f4:	aaa50513          	addi	a0,a0,-1366 # ffffffffaaaaaaaa <absimm+0xfffffffeefd9cfda>
    8000a5f8:	00b51513          	slli	a0,a0,0xb
    8000a5fc:	55550513          	addi	a0,a0,1365
    8000a600:	00b51513          	slli	a0,a0,0xb
    8000a604:	2aa50513          	addi	a0,a0,682
    8000a608:	00a51513          	slli	a0,a0,0xa
    8000a60c:	2ab50513          	addi	a0,a0,683
    8000a610:	000005b7          	lui	a1,0x0
    8000a614:	00058593          	mv	a1,a1
    8000a618:	00b59593          	slli	a1,a1,0xb
    8000a61c:	5a858593          	addi	a1,a1,1448 # 5a8 <offset+0x190>
    8000a620:	00b59593          	slli	a1,a1,0xb
    8000a624:	13c58593          	addi	a1,a1,316
    8000a628:	00a59593          	slli	a1,a1,0xa
    8000a62c:	33458593          	addi	a1,a1,820
    8000a630:	00b54633          	xor	a2,a0,a1
    8000a634:	00c0bc23          	sd	a2,24(ra)
    8000a638:	ffd551b7          	lui	gp,0xffd55
    8000a63c:	5551819b          	addiw	gp,gp,1365 # ffffffffffd55555 <absimm+0xffffffff45047a85>
    8000a640:	00c19193          	slli	gp,gp,0xc
    8000a644:	55118193          	addi	gp,gp,1361
    8000a648:	01019193          	slli	gp,gp,0x10
    8000a64c:	d7318193          	addi	gp,gp,-653
    8000a650:	00d19193          	slli	gp,gp,0xd
    8000a654:	99f18193          	addi	gp,gp,-1633
    8000a658:	00c18463          	beq	gp,a2,8000a660 <inst_548>
    8000a65c:	9c9f506f          	j	80000024 <rvtest_error>

000000008000a660 <inst_548>:
    8000a660:	00600513          	li	a0,6
    8000a664:	00300593          	li	a1,3
    8000a668:	00b54633          	xor	a2,a0,a1
    8000a66c:	02c0b023          	sd	a2,32(ra)
    8000a670:	00500193          	li	gp,5
    8000a674:	00c18463          	beq	gp,a2,8000a67c <inst_549>
    8000a678:	9adf506f          	j	80000024 <rvtest_error>

000000008000a67c <inst_549>:
    8000a67c:	00600513          	li	a0,6
    8000a680:	555555b7          	lui	a1,0x55555
    8000a684:	55558593          	addi	a1,a1,1365 # 55555555 <absimmsh+0x49a847a8>
    8000a688:	00b59593          	slli	a1,a1,0xb
    8000a68c:	2aa58593          	addi	a1,a1,682
    8000a690:	00b59593          	slli	a1,a1,0xb
    8000a694:	55558593          	addi	a1,a1,1365
    8000a698:	00a59593          	slli	a1,a1,0xa
    8000a69c:	15558593          	addi	a1,a1,341
    8000a6a0:	00b54633          	xor	a2,a0,a1
    8000a6a4:	02c0b423          	sd	a2,40(ra)
    8000a6a8:	055551b7          	lui	gp,0x5555
    8000a6ac:	5551819b          	addiw	gp,gp,1365 # 5555555 <offset+0x555513d>
    8000a6b0:	00c19193          	slli	gp,gp,0xc
    8000a6b4:	55518193          	addi	gp,gp,1365
    8000a6b8:	00c19193          	slli	gp,gp,0xc
    8000a6bc:	55518193          	addi	gp,gp,1365
    8000a6c0:	00c19193          	slli	gp,gp,0xc
    8000a6c4:	55318193          	addi	gp,gp,1363
    8000a6c8:	00c18463          	beq	gp,a2,8000a6d0 <inst_550>
    8000a6cc:	959f506f          	j	80000024 <rvtest_error>

000000008000a6d0 <inst_550>:
    8000a6d0:	00600513          	li	a0,6
    8000a6d4:	aaaab5b7          	lui	a1,0xaaaab
    8000a6d8:	aaa58593          	addi	a1,a1,-1366 # ffffffffaaaaaaaa <absimm+0xfffffffeefd9cfda>
    8000a6dc:	00b59593          	slli	a1,a1,0xb
    8000a6e0:	55558593          	addi	a1,a1,1365
    8000a6e4:	00b59593          	slli	a1,a1,0xb
    8000a6e8:	2aa58593          	addi	a1,a1,682
    8000a6ec:	00a59593          	slli	a1,a1,0xa
    8000a6f0:	2aa58593          	addi	a1,a1,682
    8000a6f4:	00b54633          	xor	a2,a0,a1
    8000a6f8:	02c0b823          	sd	a2,48(ra)
    8000a6fc:	faaab1b7          	lui	gp,0xfaaab
    8000a700:	aab1819b          	addiw	gp,gp,-1365 # fffffffffaaaaaab <absimm+0xffffffff3fd9cfdb>
    8000a704:	00c19193          	slli	gp,gp,0xc
    8000a708:	aab18193          	addi	gp,gp,-1365
    8000a70c:	00c19193          	slli	gp,gp,0xc
    8000a710:	aab18193          	addi	gp,gp,-1365
    8000a714:	00c19193          	slli	gp,gp,0xc
    8000a718:	aac18193          	addi	gp,gp,-1364
    8000a71c:	00c18463          	beq	gp,a2,8000a724 <inst_551>
    8000a720:	905f506f          	j	80000024 <rvtest_error>

000000008000a724 <inst_551>:
    8000a724:	00600513          	li	a0,6
    8000a728:	00500593          	li	a1,5
    8000a72c:	00b54633          	xor	a2,a0,a1
    8000a730:	02c0bc23          	sd	a2,56(ra)
    8000a734:	00300193          	li	gp,3
    8000a738:	00c18463          	beq	gp,a2,8000a740 <inst_552>
    8000a73c:	8e9f506f          	j	80000024 <rvtest_error>

000000008000a740 <inst_552>:
    8000a740:	00600513          	li	a0,6
    8000a744:	333335b7          	lui	a1,0x33333
    8000a748:	33358593          	addi	a1,a1,819 # 33333333 <absimmsh+0x27862586>
    8000a74c:	00b59593          	slli	a1,a1,0xb
    8000a750:	19958593          	addi	a1,a1,409
    8000a754:	00b59593          	slli	a1,a1,0xb
    8000a758:	4cc58593          	addi	a1,a1,1228
    8000a75c:	00a59593          	slli	a1,a1,0xa
    8000a760:	33358593          	addi	a1,a1,819
    8000a764:	00b54633          	xor	a2,a0,a1
    8000a768:	04c0b023          	sd	a2,64(ra)
    8000a76c:	033331b7          	lui	gp,0x3333
    8000a770:	3331819b          	addiw	gp,gp,819 # 3333333 <offset+0x3332f1b>
    8000a774:	00c19193          	slli	gp,gp,0xc
    8000a778:	33318193          	addi	gp,gp,819
    8000a77c:	00c19193          	slli	gp,gp,0xc
    8000a780:	33318193          	addi	gp,gp,819
    8000a784:	00c19193          	slli	gp,gp,0xc
    8000a788:	33518193          	addi	gp,gp,821
    8000a78c:	00c18463          	beq	gp,a2,8000a794 <inst_553>
    8000a790:	895f506f          	j	80000024 <rvtest_error>

000000008000a794 <inst_553>:
    8000a794:	00600513          	li	a0,6
    8000a798:	666665b7          	lui	a1,0x66666
    8000a79c:	66658593          	addi	a1,a1,1638 # 66666666 <absimmsh+0x5ab958b9>
    8000a7a0:	00b59593          	slli	a1,a1,0xb
    8000a7a4:	33358593          	addi	a1,a1,819
    8000a7a8:	00b59593          	slli	a1,a1,0xb
    8000a7ac:	19958593          	addi	a1,a1,409
    8000a7b0:	00a59593          	slli	a1,a1,0xa
    8000a7b4:	26658593          	addi	a1,a1,614
    8000a7b8:	00b54633          	xor	a2,a0,a1
    8000a7bc:	04c0b423          	sd	a2,72(ra)
    8000a7c0:	033331b7          	lui	gp,0x3333
    8000a7c4:	3331819b          	addiw	gp,gp,819 # 3333333 <offset+0x3332f1b>
    8000a7c8:	00c19193          	slli	gp,gp,0xc
    8000a7cc:	33318193          	addi	gp,gp,819
    8000a7d0:	00c19193          	slli	gp,gp,0xc
    8000a7d4:	33318193          	addi	gp,gp,819
    8000a7d8:	00d19193          	slli	gp,gp,0xd
    8000a7dc:	66018193          	addi	gp,gp,1632
    8000a7e0:	00c18463          	beq	gp,a2,8000a7e8 <inst_554>
    8000a7e4:	841f506f          	j	80000024 <rvtest_error>

000000008000a7e8 <inst_554>:
    8000a7e8:	00600513          	li	a0,6
    8000a7ec:	000005b7          	lui	a1,0x0
    8000a7f0:	fff58593          	addi	a1,a1,-1
    8000a7f4:	00b59593          	slli	a1,a1,0xb
    8000a7f8:	25758593          	addi	a1,a1,599
    8000a7fc:	00b59593          	slli	a1,a1,0xb
    8000a800:	6c358593          	addi	a1,a1,1731
    8000a804:	00a59593          	slli	a1,a1,0xa
    8000a808:	0cd58593          	addi	a1,a1,205
    8000a80c:	00b54633          	xor	a2,a0,a1
    8000a810:	04c0b823          	sd	a2,80(ra)
    8000a814:	fff4b1b7          	lui	gp,0xfff4b
    8000a818:	fb11819b          	addiw	gp,gp,-79 # fffffffffff4afb1 <absimm+0xffffffff4523d4e1>
    8000a81c:	00c19193          	slli	gp,gp,0xc
    8000a820:	ccb18193          	addi	gp,gp,-821
    8000a824:	00c18463          	beq	gp,a2,8000a82c <inst_555>
    8000a828:	ffcf506f          	j	80000024 <rvtest_error>

000000008000a82c <inst_555>:
    8000a82c:	00600513          	li	a0,6
    8000a830:	000005b7          	lui	a1,0x0
    8000a834:	00058593          	mv	a1,a1
    8000a838:	00b59593          	slli	a1,a1,0xb
    8000a83c:	5a858593          	addi	a1,a1,1448 # 5a8 <offset+0x190>
    8000a840:	00b59593          	slli	a1,a1,0xb
    8000a844:	13c58593          	addi	a1,a1,316
    8000a848:	00a59593          	slli	a1,a1,0xa
    8000a84c:	33358593          	addi	a1,a1,819
    8000a850:	00b54633          	xor	a2,a0,a1
    8000a854:	04c0bc23          	sd	a2,88(ra)
    8000a858:	000b51b7          	lui	gp,0xb5
    8000a85c:	04f1819b          	addiw	gp,gp,79 # b504f <offset+0xb4c37>
    8000a860:	00c19193          	slli	gp,gp,0xc
    8000a864:	33518193          	addi	gp,gp,821
    8000a868:	00c18463          	beq	gp,a2,8000a870 <inst_556>
    8000a86c:	fb8f506f          	j	80000024 <rvtest_error>

000000008000a870 <inst_556>:
    8000a870:	00600513          	li	a0,6
    8000a874:	00200593          	li	a1,2
    8000a878:	00b54633          	xor	a2,a0,a1
    8000a87c:	06c0b023          	sd	a2,96(ra)
    8000a880:	00400193          	li	gp,4
    8000a884:	00c18463          	beq	gp,a2,8000a88c <inst_557>
    8000a888:	f9cf506f          	j	80000024 <rvtest_error>

000000008000a88c <inst_557>:
    8000a88c:	00600513          	li	a0,6
    8000a890:	555555b7          	lui	a1,0x55555
    8000a894:	55558593          	addi	a1,a1,1365 # 55555555 <absimmsh+0x49a847a8>
    8000a898:	00b59593          	slli	a1,a1,0xb
    8000a89c:	2aa58593          	addi	a1,a1,682
    8000a8a0:	00b59593          	slli	a1,a1,0xb
    8000a8a4:	55558593          	addi	a1,a1,1365
    8000a8a8:	00a59593          	slli	a1,a1,0xa
    8000a8ac:	15458593          	addi	a1,a1,340
    8000a8b0:	00b54633          	xor	a2,a0,a1
    8000a8b4:	06c0b423          	sd	a2,104(ra)
    8000a8b8:	055551b7          	lui	gp,0x5555
    8000a8bc:	5551819b          	addiw	gp,gp,1365 # 5555555 <offset+0x555513d>
    8000a8c0:	00c19193          	slli	gp,gp,0xc
    8000a8c4:	55518193          	addi	gp,gp,1365
    8000a8c8:	00c19193          	slli	gp,gp,0xc
    8000a8cc:	55518193          	addi	gp,gp,1365
    8000a8d0:	00c19193          	slli	gp,gp,0xc
    8000a8d4:	55218193          	addi	gp,gp,1362
    8000a8d8:	00c18463          	beq	gp,a2,8000a8e0 <inst_558>
    8000a8dc:	f48f506f          	j	80000024 <rvtest_error>

000000008000a8e0 <inst_558>:
    8000a8e0:	00600513          	li	a0,6
    8000a8e4:	00000593          	li	a1,0
    8000a8e8:	00b54633          	xor	a2,a0,a1
    8000a8ec:	06c0b823          	sd	a2,112(ra)
    8000a8f0:	00600193          	li	gp,6
    8000a8f4:	00c18463          	beq	gp,a2,8000a8fc <inst_559>
    8000a8f8:	f2cf506f          	j	80000024 <rvtest_error>

000000008000a8fc <inst_559>:
    8000a8fc:	00600513          	li	a0,6
    8000a900:	00400593          	li	a1,4
    8000a904:	00b54633          	xor	a2,a0,a1
    8000a908:	06c0bc23          	sd	a2,120(ra)
    8000a90c:	00200193          	li	gp,2
    8000a910:	00c18463          	beq	gp,a2,8000a918 <inst_560>
    8000a914:	f10f506f          	j	80000024 <rvtest_error>

000000008000a918 <inst_560>:
    8000a918:	00600513          	li	a0,6
    8000a91c:	333335b7          	lui	a1,0x33333
    8000a920:	33358593          	addi	a1,a1,819 # 33333333 <absimmsh+0x27862586>
    8000a924:	00b59593          	slli	a1,a1,0xb
    8000a928:	19958593          	addi	a1,a1,409
    8000a92c:	00b59593          	slli	a1,a1,0xb
    8000a930:	4cc58593          	addi	a1,a1,1228
    8000a934:	00a59593          	slli	a1,a1,0xa
    8000a938:	33258593          	addi	a1,a1,818
    8000a93c:	00b54633          	xor	a2,a0,a1
    8000a940:	08c0b023          	sd	a2,128(ra)
    8000a944:	033331b7          	lui	gp,0x3333
    8000a948:	3331819b          	addiw	gp,gp,819 # 3333333 <offset+0x3332f1b>
    8000a94c:	00c19193          	slli	gp,gp,0xc
    8000a950:	33318193          	addi	gp,gp,819
    8000a954:	00c19193          	slli	gp,gp,0xc
    8000a958:	33318193          	addi	gp,gp,819
    8000a95c:	00c19193          	slli	gp,gp,0xc
    8000a960:	33418193          	addi	gp,gp,820
    8000a964:	00c18463          	beq	gp,a2,8000a96c <inst_561>
    8000a968:	ebcf506f          	j	80000024 <rvtest_error>

000000008000a96c <inst_561>:
    8000a96c:	00600513          	li	a0,6
    8000a970:	666665b7          	lui	a1,0x66666
    8000a974:	66658593          	addi	a1,a1,1638 # 66666666 <absimmsh+0x5ab958b9>
    8000a978:	00b59593          	slli	a1,a1,0xb
    8000a97c:	33358593          	addi	a1,a1,819
    8000a980:	00b59593          	slli	a1,a1,0xb
    8000a984:	19958593          	addi	a1,a1,409
    8000a988:	00a59593          	slli	a1,a1,0xa
    8000a98c:	26558593          	addi	a1,a1,613
    8000a990:	00b54633          	xor	a2,a0,a1
    8000a994:	08c0b423          	sd	a2,136(ra)
    8000a998:	033331b7          	lui	gp,0x3333
    8000a99c:	3331819b          	addiw	gp,gp,819 # 3333333 <offset+0x3332f1b>
    8000a9a0:	00c19193          	slli	gp,gp,0xc
    8000a9a4:	33318193          	addi	gp,gp,819
    8000a9a8:	00c19193          	slli	gp,gp,0xc
    8000a9ac:	33318193          	addi	gp,gp,819
    8000a9b0:	00d19193          	slli	gp,gp,0xd
    8000a9b4:	66318193          	addi	gp,gp,1635
    8000a9b8:	00c18463          	beq	gp,a2,8000a9c0 <inst_562>
    8000a9bc:	e68f506f          	j	80000024 <rvtest_error>

000000008000a9c0 <inst_562>:
    8000a9c0:	00600513          	li	a0,6
    8000a9c4:	000005b7          	lui	a1,0x0
    8000a9c8:	00058593          	mv	a1,a1
    8000a9cc:	00b59593          	slli	a1,a1,0xb
    8000a9d0:	5a858593          	addi	a1,a1,1448 # 5a8 <offset+0x190>
    8000a9d4:	00b59593          	slli	a1,a1,0xb
    8000a9d8:	13c58593          	addi	a1,a1,316
    8000a9dc:	00a59593          	slli	a1,a1,0xa
    8000a9e0:	33258593          	addi	a1,a1,818
    8000a9e4:	00b54633          	xor	a2,a0,a1
    8000a9e8:	08c0b823          	sd	a2,144(ra)
    8000a9ec:	000b51b7          	lui	gp,0xb5
    8000a9f0:	04f1819b          	addiw	gp,gp,79 # b504f <offset+0xb4c37>
    8000a9f4:	00c19193          	slli	gp,gp,0xc
    8000a9f8:	33418193          	addi	gp,gp,820
    8000a9fc:	00c18463          	beq	gp,a2,8000aa04 <inst_563>
    8000aa00:	e24f506f          	j	80000024 <rvtest_error>

000000008000aa04 <inst_563>:
    8000aa04:	00600513          	li	a0,6
    8000aa08:	555555b7          	lui	a1,0x55555
    8000aa0c:	55558593          	addi	a1,a1,1365 # 55555555 <absimmsh+0x49a847a8>
    8000aa10:	00b59593          	slli	a1,a1,0xb
    8000aa14:	2aa58593          	addi	a1,a1,682
    8000aa18:	00b59593          	slli	a1,a1,0xb
    8000aa1c:	55558593          	addi	a1,a1,1365
    8000aa20:	00a59593          	slli	a1,a1,0xa
    8000aa24:	15658593          	addi	a1,a1,342
    8000aa28:	00b54633          	xor	a2,a0,a1
    8000aa2c:	08c0bc23          	sd	a2,152(ra)
    8000aa30:	055551b7          	lui	gp,0x5555
    8000aa34:	5551819b          	addiw	gp,gp,1365 # 5555555 <offset+0x555513d>
    8000aa38:	00c19193          	slli	gp,gp,0xc
    8000aa3c:	55518193          	addi	gp,gp,1365
    8000aa40:	00c19193          	slli	gp,gp,0xc
    8000aa44:	55518193          	addi	gp,gp,1365
    8000aa48:	00c19193          	slli	gp,gp,0xc
    8000aa4c:	55018193          	addi	gp,gp,1360
    8000aa50:	00c18463          	beq	gp,a2,8000aa58 <inst_564>
    8000aa54:	dd0f506f          	j	80000024 <rvtest_error>

000000008000aa58 <inst_564>:
    8000aa58:	00600513          	li	a0,6
    8000aa5c:	aaaab5b7          	lui	a1,0xaaaab
    8000aa60:	aaa58593          	addi	a1,a1,-1366 # ffffffffaaaaaaaa <absimm+0xfffffffeefd9cfda>
    8000aa64:	00b59593          	slli	a1,a1,0xb
    8000aa68:	55558593          	addi	a1,a1,1365
    8000aa6c:	00b59593          	slli	a1,a1,0xb
    8000aa70:	2aa58593          	addi	a1,a1,682
    8000aa74:	00a59593          	slli	a1,a1,0xa
    8000aa78:	2ab58593          	addi	a1,a1,683
    8000aa7c:	00b54633          	xor	a2,a0,a1
    8000aa80:	0ac0b023          	sd	a2,160(ra)
    8000aa84:	faaab1b7          	lui	gp,0xfaaab
    8000aa88:	aab1819b          	addiw	gp,gp,-1365 # fffffffffaaaaaab <absimm+0xffffffff3fd9cfdb>
    8000aa8c:	00c19193          	slli	gp,gp,0xc
    8000aa90:	aab18193          	addi	gp,gp,-1365
    8000aa94:	00c19193          	slli	gp,gp,0xc
    8000aa98:	aab18193          	addi	gp,gp,-1365
    8000aa9c:	00c19193          	slli	gp,gp,0xc
    8000aaa0:	aad18193          	addi	gp,gp,-1363
    8000aaa4:	00c18463          	beq	gp,a2,8000aaac <inst_565>
    8000aaa8:	d7cf506f          	j	80000024 <rvtest_error>

000000008000aaac <inst_565>:
    8000aaac:	00600513          	li	a0,6
    8000aab0:	00600593          	li	a1,6
    8000aab4:	00b54633          	xor	a2,a0,a1
    8000aab8:	0ac0b423          	sd	a2,168(ra)
    8000aabc:	00000193          	li	gp,0
    8000aac0:	00c18463          	beq	gp,a2,8000aac8 <inst_566>
    8000aac4:	d60f506f          	j	80000024 <rvtest_error>

000000008000aac8 <inst_566>:
    8000aac8:	00600513          	li	a0,6
    8000aacc:	333335b7          	lui	a1,0x33333
    8000aad0:	33358593          	addi	a1,a1,819 # 33333333 <absimmsh+0x27862586>
    8000aad4:	00b59593          	slli	a1,a1,0xb
    8000aad8:	19958593          	addi	a1,a1,409
    8000aadc:	00b59593          	slli	a1,a1,0xb
    8000aae0:	4cc58593          	addi	a1,a1,1228
    8000aae4:	00a59593          	slli	a1,a1,0xa
    8000aae8:	33458593          	addi	a1,a1,820
    8000aaec:	00b54633          	xor	a2,a0,a1
    8000aaf0:	0ac0b823          	sd	a2,176(ra)
    8000aaf4:	033331b7          	lui	gp,0x3333
    8000aaf8:	3331819b          	addiw	gp,gp,819 # 3333333 <offset+0x3332f1b>
    8000aafc:	00c19193          	slli	gp,gp,0xc
    8000ab00:	33318193          	addi	gp,gp,819
    8000ab04:	00c19193          	slli	gp,gp,0xc
    8000ab08:	33318193          	addi	gp,gp,819
    8000ab0c:	00c19193          	slli	gp,gp,0xc
    8000ab10:	33218193          	addi	gp,gp,818
    8000ab14:	00c18463          	beq	gp,a2,8000ab1c <inst_567>
    8000ab18:	d0cf506f          	j	80000024 <rvtest_error>

000000008000ab1c <inst_567>:
    8000ab1c:	00600513          	li	a0,6
    8000ab20:	666665b7          	lui	a1,0x66666
    8000ab24:	66658593          	addi	a1,a1,1638 # 66666666 <absimmsh+0x5ab958b9>
    8000ab28:	00b59593          	slli	a1,a1,0xb
    8000ab2c:	33358593          	addi	a1,a1,819
    8000ab30:	00b59593          	slli	a1,a1,0xb
    8000ab34:	19958593          	addi	a1,a1,409
    8000ab38:	00a59593          	slli	a1,a1,0xa
    8000ab3c:	26758593          	addi	a1,a1,615
    8000ab40:	00b54633          	xor	a2,a0,a1
    8000ab44:	0ac0bc23          	sd	a2,184(ra)
    8000ab48:	033331b7          	lui	gp,0x3333
    8000ab4c:	3331819b          	addiw	gp,gp,819 # 3333333 <offset+0x3332f1b>
    8000ab50:	00c19193          	slli	gp,gp,0xc
    8000ab54:	33318193          	addi	gp,gp,819
    8000ab58:	00c19193          	slli	gp,gp,0xc
    8000ab5c:	33318193          	addi	gp,gp,819
    8000ab60:	00d19193          	slli	gp,gp,0xd
    8000ab64:	66118193          	addi	gp,gp,1633
    8000ab68:	00c18463          	beq	gp,a2,8000ab70 <inst_568>
    8000ab6c:	cb8f506f          	j	80000024 <rvtest_error>

000000008000ab70 <inst_568>:
    8000ab70:	00600513          	li	a0,6
    8000ab74:	000005b7          	lui	a1,0x0
    8000ab78:	fff58593          	addi	a1,a1,-1
    8000ab7c:	00b59593          	slli	a1,a1,0xb
    8000ab80:	25758593          	addi	a1,a1,599
    8000ab84:	00b59593          	slli	a1,a1,0xb
    8000ab88:	6c358593          	addi	a1,a1,1731
    8000ab8c:	00a59593          	slli	a1,a1,0xa
    8000ab90:	0ce58593          	addi	a1,a1,206
    8000ab94:	00b54633          	xor	a2,a0,a1
    8000ab98:	0cc0b023          	sd	a2,192(ra)
    8000ab9c:	fff4b1b7          	lui	gp,0xfff4b
    8000aba0:	fb11819b          	addiw	gp,gp,-79 # fffffffffff4afb1 <absimm+0xffffffff4523d4e1>
    8000aba4:	00c19193          	slli	gp,gp,0xc
    8000aba8:	cc818193          	addi	gp,gp,-824
    8000abac:	00c18463          	beq	gp,a2,8000abb4 <inst_569>
    8000abb0:	c74f506f          	j	80000024 <rvtest_error>

000000008000abb4 <inst_569>:
    8000abb4:	00600513          	li	a0,6
    8000abb8:	000005b7          	lui	a1,0x0
    8000abbc:	00058593          	mv	a1,a1
    8000abc0:	00b59593          	slli	a1,a1,0xb
    8000abc4:	5a858593          	addi	a1,a1,1448 # 5a8 <offset+0x190>
    8000abc8:	00b59593          	slli	a1,a1,0xb
    8000abcc:	13c58593          	addi	a1,a1,316
    8000abd0:	00a59593          	slli	a1,a1,0xa
    8000abd4:	33458593          	addi	a1,a1,820
    8000abd8:	00b54633          	xor	a2,a0,a1
    8000abdc:	0cc0b423          	sd	a2,200(ra)
    8000abe0:	000b51b7          	lui	gp,0xb5
    8000abe4:	04f1819b          	addiw	gp,gp,79 # b504f <offset+0xb4c37>
    8000abe8:	00c19193          	slli	gp,gp,0xc
    8000abec:	33218193          	addi	gp,gp,818
    8000abf0:	00c18463          	beq	gp,a2,8000abf8 <inst_570>
    8000abf4:	c30f506f          	j	80000024 <rvtest_error>

000000008000abf8 <inst_570>:
    8000abf8:	33333537          	lui	a0,0x33333
    8000abfc:	33350513          	addi	a0,a0,819 # 33333333 <absimmsh+0x27862586>
    8000ac00:	00b51513          	slli	a0,a0,0xb
    8000ac04:	19950513          	addi	a0,a0,409
    8000ac08:	00b51513          	slli	a0,a0,0xb
    8000ac0c:	4cc50513          	addi	a0,a0,1228
    8000ac10:	00a51513          	slli	a0,a0,0xa
    8000ac14:	33450513          	addi	a0,a0,820
    8000ac18:	00300593          	li	a1,3
    8000ac1c:	00b54633          	xor	a2,a0,a1
    8000ac20:	0cc0b823          	sd	a2,208(ra)
    8000ac24:	033331b7          	lui	gp,0x3333
    8000ac28:	3331819b          	addiw	gp,gp,819 # 3333333 <offset+0x3332f1b>
    8000ac2c:	00c19193          	slli	gp,gp,0xc
    8000ac30:	33318193          	addi	gp,gp,819
    8000ac34:	00c19193          	slli	gp,gp,0xc
    8000ac38:	33318193          	addi	gp,gp,819
    8000ac3c:	00c19193          	slli	gp,gp,0xc
    8000ac40:	33718193          	addi	gp,gp,823
    8000ac44:	00c18463          	beq	gp,a2,8000ac4c <inst_571>
    8000ac48:	bdcf506f          	j	80000024 <rvtest_error>

000000008000ac4c <inst_571>:
    8000ac4c:	33333537          	lui	a0,0x33333
    8000ac50:	33350513          	addi	a0,a0,819 # 33333333 <absimmsh+0x27862586>
    8000ac54:	00b51513          	slli	a0,a0,0xb
    8000ac58:	19950513          	addi	a0,a0,409
    8000ac5c:	00b51513          	slli	a0,a0,0xb
    8000ac60:	4cc50513          	addi	a0,a0,1228
    8000ac64:	00a51513          	slli	a0,a0,0xa
    8000ac68:	33450513          	addi	a0,a0,820
    8000ac6c:	555555b7          	lui	a1,0x55555
    8000ac70:	55558593          	addi	a1,a1,1365 # 55555555 <absimmsh+0x49a847a8>
    8000ac74:	00b59593          	slli	a1,a1,0xb
    8000ac78:	2aa58593          	addi	a1,a1,682
    8000ac7c:	00b59593          	slli	a1,a1,0xb
    8000ac80:	55558593          	addi	a1,a1,1365
    8000ac84:	00a59593          	slli	a1,a1,0xa
    8000ac88:	15558593          	addi	a1,a1,341
    8000ac8c:	00b54633          	xor	a2,a0,a1
    8000ac90:	0cc0bc23          	sd	a2,216(ra)
    8000ac94:	033331b7          	lui	gp,0x3333
    8000ac98:	3331819b          	addiw	gp,gp,819 # 3333333 <offset+0x3332f1b>
    8000ac9c:	00c19193          	slli	gp,gp,0xc
    8000aca0:	33318193          	addi	gp,gp,819
    8000aca4:	00c19193          	slli	gp,gp,0xc
    8000aca8:	33318193          	addi	gp,gp,819
    8000acac:	00d19193          	slli	gp,gp,0xd
    8000acb0:	66118193          	addi	gp,gp,1633
    8000acb4:	00c18463          	beq	gp,a2,8000acbc <inst_572>
    8000acb8:	b6cf506f          	j	80000024 <rvtest_error>

000000008000acbc <inst_572>:
    8000acbc:	33333537          	lui	a0,0x33333
    8000acc0:	33350513          	addi	a0,a0,819 # 33333333 <absimmsh+0x27862586>
    8000acc4:	00b51513          	slli	a0,a0,0xb
    8000acc8:	19950513          	addi	a0,a0,409
    8000accc:	00b51513          	slli	a0,a0,0xb
    8000acd0:	4cc50513          	addi	a0,a0,1228
    8000acd4:	00a51513          	slli	a0,a0,0xa
    8000acd8:	33450513          	addi	a0,a0,820
    8000acdc:	aaaab5b7          	lui	a1,0xaaaab
    8000ace0:	aaa58593          	addi	a1,a1,-1366 # ffffffffaaaaaaaa <absimm+0xfffffffeefd9cfda>
    8000ace4:	00b59593          	slli	a1,a1,0xb
    8000ace8:	55558593          	addi	a1,a1,1365
    8000acec:	00b59593          	slli	a1,a1,0xb
    8000acf0:	2aa58593          	addi	a1,a1,682
    8000acf4:	00a59593          	slli	a1,a1,0xa
    8000acf8:	2aa58593          	addi	a1,a1,682
    8000acfc:	00b54633          	xor	a2,a0,a1
    8000ad00:	0ec0b023          	sd	a2,224(ra)
    8000ad04:	fcccd1b7          	lui	gp,0xfcccd
    8000ad08:	ccd1819b          	addiw	gp,gp,-819 # fffffffffccccccd <absimm+0xffffffff41fbf1fd>
    8000ad0c:	00c19193          	slli	gp,gp,0xc
    8000ad10:	ccd18193          	addi	gp,gp,-819
    8000ad14:	00c19193          	slli	gp,gp,0xc
    8000ad18:	ccd18193          	addi	gp,gp,-819
    8000ad1c:	00d19193          	slli	gp,gp,0xd
    8000ad20:	99e18193          	addi	gp,gp,-1634
    8000ad24:	00c18463          	beq	gp,a2,8000ad2c <inst_573>
    8000ad28:	afcf506f          	j	80000024 <rvtest_error>

000000008000ad2c <inst_573>:
    8000ad2c:	33333537          	lui	a0,0x33333
    8000ad30:	33350513          	addi	a0,a0,819 # 33333333 <absimmsh+0x27862586>
    8000ad34:	00b51513          	slli	a0,a0,0xb
    8000ad38:	19950513          	addi	a0,a0,409
    8000ad3c:	00b51513          	slli	a0,a0,0xb
    8000ad40:	4cc50513          	addi	a0,a0,1228
    8000ad44:	00a51513          	slli	a0,a0,0xa
    8000ad48:	33450513          	addi	a0,a0,820
    8000ad4c:	00500593          	li	a1,5
    8000ad50:	00b54633          	xor	a2,a0,a1
    8000ad54:	0ec0b423          	sd	a2,232(ra)
    8000ad58:	033331b7          	lui	gp,0x3333
    8000ad5c:	3331819b          	addiw	gp,gp,819 # 3333333 <offset+0x3332f1b>
    8000ad60:	00c19193          	slli	gp,gp,0xc
    8000ad64:	33318193          	addi	gp,gp,819
    8000ad68:	00c19193          	slli	gp,gp,0xc
    8000ad6c:	33318193          	addi	gp,gp,819
    8000ad70:	00c19193          	slli	gp,gp,0xc
    8000ad74:	33118193          	addi	gp,gp,817
    8000ad78:	00c18463          	beq	gp,a2,8000ad80 <inst_574>
    8000ad7c:	aa8f506f          	j	80000024 <rvtest_error>

000000008000ad80 <inst_574>:
    8000ad80:	33333537          	lui	a0,0x33333
    8000ad84:	33350513          	addi	a0,a0,819 # 33333333 <absimmsh+0x27862586>
    8000ad88:	00b51513          	slli	a0,a0,0xb
    8000ad8c:	19950513          	addi	a0,a0,409
    8000ad90:	00b51513          	slli	a0,a0,0xb
    8000ad94:	4cc50513          	addi	a0,a0,1228
    8000ad98:	00a51513          	slli	a0,a0,0xa
    8000ad9c:	33450513          	addi	a0,a0,820
    8000ada0:	333335b7          	lui	a1,0x33333
    8000ada4:	33358593          	addi	a1,a1,819 # 33333333 <absimmsh+0x27862586>
    8000ada8:	00b59593          	slli	a1,a1,0xb
    8000adac:	19958593          	addi	a1,a1,409
    8000adb0:	00b59593          	slli	a1,a1,0xb
    8000adb4:	4cc58593          	addi	a1,a1,1228
    8000adb8:	00a59593          	slli	a1,a1,0xa
    8000adbc:	33358593          	addi	a1,a1,819
    8000adc0:	00b54633          	xor	a2,a0,a1
    8000adc4:	0ec0b823          	sd	a2,240(ra)
    8000adc8:	00700193          	li	gp,7
    8000adcc:	00c18463          	beq	gp,a2,8000add4 <inst_575>
    8000add0:	a54f506f          	j	80000024 <rvtest_error>

000000008000add4 <inst_575>:
    8000add4:	33333537          	lui	a0,0x33333
    8000add8:	33350513          	addi	a0,a0,819 # 33333333 <absimmsh+0x27862586>
    8000addc:	00b51513          	slli	a0,a0,0xb
    8000ade0:	19950513          	addi	a0,a0,409
    8000ade4:	00b51513          	slli	a0,a0,0xb
    8000ade8:	4cc50513          	addi	a0,a0,1228
    8000adec:	00a51513          	slli	a0,a0,0xa
    8000adf0:	33450513          	addi	a0,a0,820
    8000adf4:	666665b7          	lui	a1,0x66666
    8000adf8:	66658593          	addi	a1,a1,1638 # 66666666 <absimmsh+0x5ab958b9>
    8000adfc:	00b59593          	slli	a1,a1,0xb
    8000ae00:	33358593          	addi	a1,a1,819
    8000ae04:	00b59593          	slli	a1,a1,0xb
    8000ae08:	19958593          	addi	a1,a1,409
    8000ae0c:	00a59593          	slli	a1,a1,0xa
    8000ae10:	26658593          	addi	a1,a1,614
    8000ae14:	00b54633          	xor	a2,a0,a1
    8000ae18:	0ec0bc23          	sd	a2,248(ra)
    8000ae1c:	055551b7          	lui	gp,0x5555
    8000ae20:	5551819b          	addiw	gp,gp,1365 # 5555555 <offset+0x555513d>
    8000ae24:	00c19193          	slli	gp,gp,0xc
    8000ae28:	55518193          	addi	gp,gp,1365
    8000ae2c:	00c19193          	slli	gp,gp,0xc
    8000ae30:	55518193          	addi	gp,gp,1365
    8000ae34:	00c19193          	slli	gp,gp,0xc
    8000ae38:	55218193          	addi	gp,gp,1362
    8000ae3c:	00c18463          	beq	gp,a2,8000ae44 <inst_576>
    8000ae40:	9e4f506f          	j	80000024 <rvtest_error>

000000008000ae44 <inst_576>:
    8000ae44:	33333537          	lui	a0,0x33333
    8000ae48:	33350513          	addi	a0,a0,819 # 33333333 <absimmsh+0x27862586>
    8000ae4c:	00b51513          	slli	a0,a0,0xb
    8000ae50:	19950513          	addi	a0,a0,409
    8000ae54:	00b51513          	slli	a0,a0,0xb
    8000ae58:	4cc50513          	addi	a0,a0,1228
    8000ae5c:	00a51513          	slli	a0,a0,0xa
    8000ae60:	33450513          	addi	a0,a0,820
    8000ae64:	000005b7          	lui	a1,0x0
    8000ae68:	fff58593          	addi	a1,a1,-1
    8000ae6c:	00b59593          	slli	a1,a1,0xb
    8000ae70:	25758593          	addi	a1,a1,599
    8000ae74:	00b59593          	slli	a1,a1,0xb
    8000ae78:	6c358593          	addi	a1,a1,1731
    8000ae7c:	00a59593          	slli	a1,a1,0xa
    8000ae80:	0cd58593          	addi	a1,a1,205
    8000ae84:	00b54633          	xor	a2,a0,a1
    8000ae88:	10c0b023          	sd	a2,256(ra)
    8000ae8c:	ffccd1b7          	lui	gp,0xffccd
    8000ae90:	ccd1819b          	addiw	gp,gp,-819 # ffffffffffcccccd <absimm+0xffffffff44fbf1fd>
    8000ae94:	00d19193          	slli	gp,gp,0xd
    8000ae98:	98f18193          	addi	gp,gp,-1649
    8000ae9c:	00d19193          	slli	gp,gp,0xd
    8000aea0:	72118193          	addi	gp,gp,1825
    8000aea4:	00e19193          	slli	gp,gp,0xe
    8000aea8:	ff918193          	addi	gp,gp,-7
    8000aeac:	00c18463          	beq	gp,a2,8000aeb4 <inst_577>
    8000aeb0:	974f506f          	j	80000024 <rvtest_error>

000000008000aeb4 <inst_577>:
    8000aeb4:	33333537          	lui	a0,0x33333
    8000aeb8:	33350513          	addi	a0,a0,819 # 33333333 <absimmsh+0x27862586>
    8000aebc:	00b51513          	slli	a0,a0,0xb
    8000aec0:	19950513          	addi	a0,a0,409
    8000aec4:	00b51513          	slli	a0,a0,0xb
    8000aec8:	4cc50513          	addi	a0,a0,1228
    8000aecc:	00a51513          	slli	a0,a0,0xa
    8000aed0:	33450513          	addi	a0,a0,820
    8000aed4:	000005b7          	lui	a1,0x0
    8000aed8:	00058593          	mv	a1,a1
    8000aedc:	00b59593          	slli	a1,a1,0xb
    8000aee0:	5a858593          	addi	a1,a1,1448 # 5a8 <offset+0x190>
    8000aee4:	00b59593          	slli	a1,a1,0xb
    8000aee8:	13c58593          	addi	a1,a1,316
    8000aeec:	00a59593          	slli	a1,a1,0xa
    8000aef0:	33358593          	addi	a1,a1,819
    8000aef4:	00b54633          	xor	a2,a0,a1
    8000aef8:	10c0b423          	sd	a2,264(ra)
    8000aefc:	003331b7          	lui	gp,0x333
    8000af00:	3331819b          	addiw	gp,gp,819 # 333333 <offset+0x332f1b>
    8000af04:	00d19193          	slli	gp,gp,0xd
    8000af08:	67118193          	addi	gp,gp,1649
    8000af0c:	00d19193          	slli	gp,gp,0xd
    8000af10:	8df18193          	addi	gp,gp,-1825
    8000af14:	00e19193          	slli	gp,gp,0xe
    8000af18:	00718193          	addi	gp,gp,7
    8000af1c:	00c18463          	beq	gp,a2,8000af24 <inst_578>
    8000af20:	904f506f          	j	80000024 <rvtest_error>

000000008000af24 <inst_578>:
    8000af24:	33333537          	lui	a0,0x33333
    8000af28:	33350513          	addi	a0,a0,819 # 33333333 <absimmsh+0x27862586>
    8000af2c:	00b51513          	slli	a0,a0,0xb
    8000af30:	19950513          	addi	a0,a0,409
    8000af34:	00b51513          	slli	a0,a0,0xb
    8000af38:	4cc50513          	addi	a0,a0,1228
    8000af3c:	00a51513          	slli	a0,a0,0xa
    8000af40:	33450513          	addi	a0,a0,820
    8000af44:	00200593          	li	a1,2
    8000af48:	00b54633          	xor	a2,a0,a1
    8000af4c:	10c0b823          	sd	a2,272(ra)
    8000af50:	033331b7          	lui	gp,0x3333
    8000af54:	3331819b          	addiw	gp,gp,819 # 3333333 <offset+0x3332f1b>
    8000af58:	00c19193          	slli	gp,gp,0xc
    8000af5c:	33318193          	addi	gp,gp,819
    8000af60:	00c19193          	slli	gp,gp,0xc
    8000af64:	33318193          	addi	gp,gp,819
    8000af68:	00c19193          	slli	gp,gp,0xc
    8000af6c:	33618193          	addi	gp,gp,822
    8000af70:	00c18463          	beq	gp,a2,8000af78 <inst_579>
    8000af74:	8b0f506f          	j	80000024 <rvtest_error>

000000008000af78 <inst_579>:
    8000af78:	33333537          	lui	a0,0x33333
    8000af7c:	33350513          	addi	a0,a0,819 # 33333333 <absimmsh+0x27862586>
    8000af80:	00b51513          	slli	a0,a0,0xb
    8000af84:	19950513          	addi	a0,a0,409
    8000af88:	00b51513          	slli	a0,a0,0xb
    8000af8c:	4cc50513          	addi	a0,a0,1228
    8000af90:	00a51513          	slli	a0,a0,0xa
    8000af94:	33450513          	addi	a0,a0,820
    8000af98:	555555b7          	lui	a1,0x55555
    8000af9c:	55558593          	addi	a1,a1,1365 # 55555555 <absimmsh+0x49a847a8>
    8000afa0:	00b59593          	slli	a1,a1,0xb
    8000afa4:	2aa58593          	addi	a1,a1,682
    8000afa8:	00b59593          	slli	a1,a1,0xb
    8000afac:	55558593          	addi	a1,a1,1365
    8000afb0:	00a59593          	slli	a1,a1,0xa
    8000afb4:	15458593          	addi	a1,a1,340
    8000afb8:	00b54633          	xor	a2,a0,a1
    8000afbc:	10c0bc23          	sd	a2,280(ra)
    8000afc0:	033331b7          	lui	gp,0x3333
    8000afc4:	3331819b          	addiw	gp,gp,819 # 3333333 <offset+0x3332f1b>
    8000afc8:	00c19193          	slli	gp,gp,0xc
    8000afcc:	33318193          	addi	gp,gp,819
    8000afd0:	00c19193          	slli	gp,gp,0xc
    8000afd4:	33318193          	addi	gp,gp,819
    8000afd8:	00d19193          	slli	gp,gp,0xd
    8000afdc:	66018193          	addi	gp,gp,1632
    8000afe0:	00c18463          	beq	gp,a2,8000afe8 <inst_580>
    8000afe4:	840f506f          	j	80000024 <rvtest_error>

000000008000afe8 <inst_580>:
    8000afe8:	33333537          	lui	a0,0x33333
    8000afec:	33350513          	addi	a0,a0,819 # 33333333 <absimmsh+0x27862586>
    8000aff0:	00b51513          	slli	a0,a0,0xb
    8000aff4:	19950513          	addi	a0,a0,409
    8000aff8:	00b51513          	slli	a0,a0,0xb
    8000affc:	4cc50513          	addi	a0,a0,1228
    8000b000:	00a51513          	slli	a0,a0,0xa
    8000b004:	33450513          	addi	a0,a0,820
    8000b008:	00000593          	li	a1,0
    8000b00c:	00b54633          	xor	a2,a0,a1
    8000b010:	12c0b023          	sd	a2,288(ra)
    8000b014:	033331b7          	lui	gp,0x3333
    8000b018:	3331819b          	addiw	gp,gp,819 # 3333333 <offset+0x3332f1b>
    8000b01c:	00c19193          	slli	gp,gp,0xc
    8000b020:	33318193          	addi	gp,gp,819
    8000b024:	00c19193          	slli	gp,gp,0xc
    8000b028:	33318193          	addi	gp,gp,819
    8000b02c:	00c19193          	slli	gp,gp,0xc
    8000b030:	33418193          	addi	gp,gp,820
    8000b034:	00c18463          	beq	gp,a2,8000b03c <inst_581>
    8000b038:	fedf406f          	j	80000024 <rvtest_error>

000000008000b03c <inst_581>:
    8000b03c:	33333537          	lui	a0,0x33333
    8000b040:	33350513          	addi	a0,a0,819 # 33333333 <absimmsh+0x27862586>
    8000b044:	00b51513          	slli	a0,a0,0xb
    8000b048:	19950513          	addi	a0,a0,409
    8000b04c:	00b51513          	slli	a0,a0,0xb
    8000b050:	4cc50513          	addi	a0,a0,1228
    8000b054:	00a51513          	slli	a0,a0,0xa
    8000b058:	33450513          	addi	a0,a0,820
    8000b05c:	00400593          	li	a1,4
    8000b060:	00b54633          	xor	a2,a0,a1
    8000b064:	12c0b423          	sd	a2,296(ra)
    8000b068:	033331b7          	lui	gp,0x3333
    8000b06c:	3331819b          	addiw	gp,gp,819 # 3333333 <offset+0x3332f1b>
    8000b070:	00c19193          	slli	gp,gp,0xc
    8000b074:	33318193          	addi	gp,gp,819
    8000b078:	00c19193          	slli	gp,gp,0xc
    8000b07c:	33318193          	addi	gp,gp,819
    8000b080:	00c19193          	slli	gp,gp,0xc
    8000b084:	33018193          	addi	gp,gp,816
    8000b088:	00c18463          	beq	gp,a2,8000b090 <inst_582>
    8000b08c:	f99f406f          	j	80000024 <rvtest_error>

000000008000b090 <inst_582>:
    8000b090:	33333537          	lui	a0,0x33333
    8000b094:	33350513          	addi	a0,a0,819 # 33333333 <absimmsh+0x27862586>
    8000b098:	00b51513          	slli	a0,a0,0xb
    8000b09c:	19950513          	addi	a0,a0,409
    8000b0a0:	00b51513          	slli	a0,a0,0xb
    8000b0a4:	4cc50513          	addi	a0,a0,1228
    8000b0a8:	00a51513          	slli	a0,a0,0xa
    8000b0ac:	33450513          	addi	a0,a0,820
    8000b0b0:	333335b7          	lui	a1,0x33333
    8000b0b4:	33358593          	addi	a1,a1,819 # 33333333 <absimmsh+0x27862586>
    8000b0b8:	00b59593          	slli	a1,a1,0xb
    8000b0bc:	19958593          	addi	a1,a1,409
    8000b0c0:	00b59593          	slli	a1,a1,0xb
    8000b0c4:	4cc58593          	addi	a1,a1,1228
    8000b0c8:	00a59593          	slli	a1,a1,0xa
    8000b0cc:	33258593          	addi	a1,a1,818
    8000b0d0:	00b54633          	xor	a2,a0,a1
    8000b0d4:	12c0b823          	sd	a2,304(ra)
    8000b0d8:	00600193          	li	gp,6
    8000b0dc:	00c18463          	beq	gp,a2,8000b0e4 <inst_583>
    8000b0e0:	f45f406f          	j	80000024 <rvtest_error>

000000008000b0e4 <inst_583>:
    8000b0e4:	33333537          	lui	a0,0x33333
    8000b0e8:	33350513          	addi	a0,a0,819 # 33333333 <absimmsh+0x27862586>
    8000b0ec:	00b51513          	slli	a0,a0,0xb
    8000b0f0:	19950513          	addi	a0,a0,409
    8000b0f4:	00b51513          	slli	a0,a0,0xb
    8000b0f8:	4cc50513          	addi	a0,a0,1228
    8000b0fc:	00a51513          	slli	a0,a0,0xa
    8000b100:	33450513          	addi	a0,a0,820
    8000b104:	666665b7          	lui	a1,0x66666
    8000b108:	66658593          	addi	a1,a1,1638 # 66666666 <absimmsh+0x5ab958b9>
    8000b10c:	00b59593          	slli	a1,a1,0xb
    8000b110:	33358593          	addi	a1,a1,819
    8000b114:	00b59593          	slli	a1,a1,0xb
    8000b118:	19958593          	addi	a1,a1,409
    8000b11c:	00a59593          	slli	a1,a1,0xa
    8000b120:	26558593          	addi	a1,a1,613
    8000b124:	00b54633          	xor	a2,a0,a1
    8000b128:	12c0bc23          	sd	a2,312(ra)
    8000b12c:	055551b7          	lui	gp,0x5555
    8000b130:	5551819b          	addiw	gp,gp,1365 # 5555555 <offset+0x555513d>
    8000b134:	00c19193          	slli	gp,gp,0xc
    8000b138:	55518193          	addi	gp,gp,1365
    8000b13c:	00c19193          	slli	gp,gp,0xc
    8000b140:	55518193          	addi	gp,gp,1365
    8000b144:	00c19193          	slli	gp,gp,0xc
    8000b148:	55118193          	addi	gp,gp,1361
    8000b14c:	00c18463          	beq	gp,a2,8000b154 <inst_584>
    8000b150:	ed5f406f          	j	80000024 <rvtest_error>

000000008000b154 <inst_584>:
    8000b154:	33333537          	lui	a0,0x33333
    8000b158:	33350513          	addi	a0,a0,819 # 33333333 <absimmsh+0x27862586>
    8000b15c:	00b51513          	slli	a0,a0,0xb
    8000b160:	19950513          	addi	a0,a0,409
    8000b164:	00b51513          	slli	a0,a0,0xb
    8000b168:	4cc50513          	addi	a0,a0,1228
    8000b16c:	00a51513          	slli	a0,a0,0xa
    8000b170:	33450513          	addi	a0,a0,820
    8000b174:	000005b7          	lui	a1,0x0
    8000b178:	00058593          	mv	a1,a1
    8000b17c:	00b59593          	slli	a1,a1,0xb
    8000b180:	5a858593          	addi	a1,a1,1448 # 5a8 <offset+0x190>
    8000b184:	00b59593          	slli	a1,a1,0xb
    8000b188:	13c58593          	addi	a1,a1,316
    8000b18c:	00a59593          	slli	a1,a1,0xa
    8000b190:	33258593          	addi	a1,a1,818
    8000b194:	00b54633          	xor	a2,a0,a1
    8000b198:	14c0b023          	sd	a2,320(ra)
    8000b19c:	003331b7          	lui	gp,0x333
    8000b1a0:	3331819b          	addiw	gp,gp,819 # 333333 <offset+0x332f1b>
    8000b1a4:	00d19193          	slli	gp,gp,0xd
    8000b1a8:	67118193          	addi	gp,gp,1649
    8000b1ac:	00d19193          	slli	gp,gp,0xd
    8000b1b0:	8df18193          	addi	gp,gp,-1825
    8000b1b4:	00e19193          	slli	gp,gp,0xe
    8000b1b8:	00618193          	addi	gp,gp,6
    8000b1bc:	00c18463          	beq	gp,a2,8000b1c4 <inst_585>
    8000b1c0:	e65f406f          	j	80000024 <rvtest_error>

000000008000b1c4 <inst_585>:
    8000b1c4:	33333537          	lui	a0,0x33333
    8000b1c8:	33350513          	addi	a0,a0,819 # 33333333 <absimmsh+0x27862586>
    8000b1cc:	00b51513          	slli	a0,a0,0xb
    8000b1d0:	19950513          	addi	a0,a0,409
    8000b1d4:	00b51513          	slli	a0,a0,0xb
    8000b1d8:	4cc50513          	addi	a0,a0,1228
    8000b1dc:	00a51513          	slli	a0,a0,0xa
    8000b1e0:	33450513          	addi	a0,a0,820
    8000b1e4:	555555b7          	lui	a1,0x55555
    8000b1e8:	55558593          	addi	a1,a1,1365 # 55555555 <absimmsh+0x49a847a8>
    8000b1ec:	00b59593          	slli	a1,a1,0xb
    8000b1f0:	2aa58593          	addi	a1,a1,682
    8000b1f4:	00b59593          	slli	a1,a1,0xb
    8000b1f8:	55558593          	addi	a1,a1,1365
    8000b1fc:	00a59593          	slli	a1,a1,0xa
    8000b200:	15658593          	addi	a1,a1,342
    8000b204:	00b54633          	xor	a2,a0,a1
    8000b208:	14c0b423          	sd	a2,328(ra)
    8000b20c:	033331b7          	lui	gp,0x3333
    8000b210:	3331819b          	addiw	gp,gp,819 # 3333333 <offset+0x3332f1b>
    8000b214:	00c19193          	slli	gp,gp,0xc
    8000b218:	33318193          	addi	gp,gp,819
    8000b21c:	00c19193          	slli	gp,gp,0xc
    8000b220:	33318193          	addi	gp,gp,819
    8000b224:	00d19193          	slli	gp,gp,0xd
    8000b228:	66218193          	addi	gp,gp,1634
    8000b22c:	00c18463          	beq	gp,a2,8000b234 <inst_586>
    8000b230:	df5f406f          	j	80000024 <rvtest_error>

000000008000b234 <inst_586>:
    8000b234:	33333537          	lui	a0,0x33333
    8000b238:	33350513          	addi	a0,a0,819 # 33333333 <absimmsh+0x27862586>
    8000b23c:	00b51513          	slli	a0,a0,0xb
    8000b240:	19950513          	addi	a0,a0,409
    8000b244:	00b51513          	slli	a0,a0,0xb
    8000b248:	4cc50513          	addi	a0,a0,1228
    8000b24c:	00a51513          	slli	a0,a0,0xa
    8000b250:	33450513          	addi	a0,a0,820
    8000b254:	aaaab5b7          	lui	a1,0xaaaab
    8000b258:	aaa58593          	addi	a1,a1,-1366 # ffffffffaaaaaaaa <absimm+0xfffffffeefd9cfda>
    8000b25c:	00b59593          	slli	a1,a1,0xb
    8000b260:	55558593          	addi	a1,a1,1365
    8000b264:	00b59593          	slli	a1,a1,0xb
    8000b268:	2aa58593          	addi	a1,a1,682
    8000b26c:	00a59593          	slli	a1,a1,0xa
    8000b270:	2ab58593          	addi	a1,a1,683
    8000b274:	00b54633          	xor	a2,a0,a1
    8000b278:	14c0b823          	sd	a2,336(ra)
    8000b27c:	fcccd1b7          	lui	gp,0xfcccd
    8000b280:	ccd1819b          	addiw	gp,gp,-819 # fffffffffccccccd <absimm+0xffffffff41fbf1fd>
    8000b284:	00c19193          	slli	gp,gp,0xc
    8000b288:	ccd18193          	addi	gp,gp,-819
    8000b28c:	00c19193          	slli	gp,gp,0xc
    8000b290:	ccd18193          	addi	gp,gp,-819
    8000b294:	00d19193          	slli	gp,gp,0xd
    8000b298:	99f18193          	addi	gp,gp,-1633
    8000b29c:	00c18463          	beq	gp,a2,8000b2a4 <inst_587>
    8000b2a0:	d85f406f          	j	80000024 <rvtest_error>

000000008000b2a4 <inst_587>:
    8000b2a4:	33333537          	lui	a0,0x33333
    8000b2a8:	33350513          	addi	a0,a0,819 # 33333333 <absimmsh+0x27862586>
    8000b2ac:	00b51513          	slli	a0,a0,0xb
    8000b2b0:	19950513          	addi	a0,a0,409
    8000b2b4:	00b51513          	slli	a0,a0,0xb
    8000b2b8:	4cc50513          	addi	a0,a0,1228
    8000b2bc:	00a51513          	slli	a0,a0,0xa
    8000b2c0:	33450513          	addi	a0,a0,820
    8000b2c4:	00600593          	li	a1,6
    8000b2c8:	00b54633          	xor	a2,a0,a1
    8000b2cc:	14c0bc23          	sd	a2,344(ra)
    8000b2d0:	033331b7          	lui	gp,0x3333
    8000b2d4:	3331819b          	addiw	gp,gp,819 # 3333333 <offset+0x3332f1b>
    8000b2d8:	00c19193          	slli	gp,gp,0xc
    8000b2dc:	33318193          	addi	gp,gp,819
    8000b2e0:	00c19193          	slli	gp,gp,0xc
    8000b2e4:	33318193          	addi	gp,gp,819
    8000b2e8:	00c19193          	slli	gp,gp,0xc
    8000b2ec:	33218193          	addi	gp,gp,818
    8000b2f0:	00c18463          	beq	gp,a2,8000b2f8 <inst_588>
    8000b2f4:	d31f406f          	j	80000024 <rvtest_error>

000000008000b2f8 <inst_588>:
    8000b2f8:	33333537          	lui	a0,0x33333
    8000b2fc:	33350513          	addi	a0,a0,819 # 33333333 <absimmsh+0x27862586>
    8000b300:	00b51513          	slli	a0,a0,0xb
    8000b304:	19950513          	addi	a0,a0,409
    8000b308:	00b51513          	slli	a0,a0,0xb
    8000b30c:	4cc50513          	addi	a0,a0,1228
    8000b310:	00a51513          	slli	a0,a0,0xa
    8000b314:	33450513          	addi	a0,a0,820
    8000b318:	333335b7          	lui	a1,0x33333
    8000b31c:	33358593          	addi	a1,a1,819 # 33333333 <absimmsh+0x27862586>
    8000b320:	00b59593          	slli	a1,a1,0xb
    8000b324:	19958593          	addi	a1,a1,409
    8000b328:	00b59593          	slli	a1,a1,0xb
    8000b32c:	4cc58593          	addi	a1,a1,1228
    8000b330:	00a59593          	slli	a1,a1,0xa
    8000b334:	33458593          	addi	a1,a1,820
    8000b338:	00b54633          	xor	a2,a0,a1
    8000b33c:	16c0b023          	sd	a2,352(ra)
    8000b340:	00000193          	li	gp,0
    8000b344:	00c18463          	beq	gp,a2,8000b34c <inst_589>
    8000b348:	cddf406f          	j	80000024 <rvtest_error>

000000008000b34c <inst_589>:
    8000b34c:	33333537          	lui	a0,0x33333
    8000b350:	33350513          	addi	a0,a0,819 # 33333333 <absimmsh+0x27862586>
    8000b354:	00b51513          	slli	a0,a0,0xb
    8000b358:	19950513          	addi	a0,a0,409
    8000b35c:	00b51513          	slli	a0,a0,0xb
    8000b360:	4cc50513          	addi	a0,a0,1228
    8000b364:	00a51513          	slli	a0,a0,0xa
    8000b368:	33450513          	addi	a0,a0,820
    8000b36c:	666665b7          	lui	a1,0x66666
    8000b370:	66658593          	addi	a1,a1,1638 # 66666666 <absimmsh+0x5ab958b9>
    8000b374:	00b59593          	slli	a1,a1,0xb
    8000b378:	33358593          	addi	a1,a1,819
    8000b37c:	00b59593          	slli	a1,a1,0xb
    8000b380:	19958593          	addi	a1,a1,409
    8000b384:	00a59593          	slli	a1,a1,0xa
    8000b388:	26758593          	addi	a1,a1,615
    8000b38c:	00b54633          	xor	a2,a0,a1
    8000b390:	16c0b423          	sd	a2,360(ra)
    8000b394:	055551b7          	lui	gp,0x5555
    8000b398:	5551819b          	addiw	gp,gp,1365 # 5555555 <offset+0x555513d>
    8000b39c:	00c19193          	slli	gp,gp,0xc
    8000b3a0:	55518193          	addi	gp,gp,1365
    8000b3a4:	00c19193          	slli	gp,gp,0xc
    8000b3a8:	55518193          	addi	gp,gp,1365
    8000b3ac:	00c19193          	slli	gp,gp,0xc
    8000b3b0:	55318193          	addi	gp,gp,1363
    8000b3b4:	00c18463          	beq	gp,a2,8000b3bc <inst_590>
    8000b3b8:	c6df406f          	j	80000024 <rvtest_error>

000000008000b3bc <inst_590>:
    8000b3bc:	33333537          	lui	a0,0x33333
    8000b3c0:	33350513          	addi	a0,a0,819 # 33333333 <absimmsh+0x27862586>
    8000b3c4:	00b51513          	slli	a0,a0,0xb
    8000b3c8:	19950513          	addi	a0,a0,409
    8000b3cc:	00b51513          	slli	a0,a0,0xb
    8000b3d0:	4cc50513          	addi	a0,a0,1228
    8000b3d4:	00a51513          	slli	a0,a0,0xa
    8000b3d8:	33450513          	addi	a0,a0,820
    8000b3dc:	000005b7          	lui	a1,0x0
    8000b3e0:	fff58593          	addi	a1,a1,-1
    8000b3e4:	00b59593          	slli	a1,a1,0xb
    8000b3e8:	25758593          	addi	a1,a1,599
    8000b3ec:	00b59593          	slli	a1,a1,0xb
    8000b3f0:	6c358593          	addi	a1,a1,1731
    8000b3f4:	00a59593          	slli	a1,a1,0xa
    8000b3f8:	0ce58593          	addi	a1,a1,206
    8000b3fc:	00b54633          	xor	a2,a0,a1
    8000b400:	16c0b823          	sd	a2,368(ra)
    8000b404:	ffccd1b7          	lui	gp,0xffccd
    8000b408:	ccd1819b          	addiw	gp,gp,-819 # ffffffffffcccccd <absimm+0xffffffff44fbf1fd>
    8000b40c:	00d19193          	slli	gp,gp,0xd
    8000b410:	98f18193          	addi	gp,gp,-1649
    8000b414:	00d19193          	slli	gp,gp,0xd
    8000b418:	72118193          	addi	gp,gp,1825
    8000b41c:	00e19193          	slli	gp,gp,0xe
    8000b420:	ffa18193          	addi	gp,gp,-6
    8000b424:	00c18463          	beq	gp,a2,8000b42c <inst_591>
    8000b428:	bfdf406f          	j	80000024 <rvtest_error>

000000008000b42c <inst_591>:
    8000b42c:	33333537          	lui	a0,0x33333
    8000b430:	33350513          	addi	a0,a0,819 # 33333333 <absimmsh+0x27862586>
    8000b434:	00b51513          	slli	a0,a0,0xb
    8000b438:	19950513          	addi	a0,a0,409
    8000b43c:	00b51513          	slli	a0,a0,0xb
    8000b440:	4cc50513          	addi	a0,a0,1228
    8000b444:	00a51513          	slli	a0,a0,0xa
    8000b448:	33450513          	addi	a0,a0,820
    8000b44c:	000005b7          	lui	a1,0x0
    8000b450:	00058593          	mv	a1,a1
    8000b454:	00b59593          	slli	a1,a1,0xb
    8000b458:	5a858593          	addi	a1,a1,1448 # 5a8 <offset+0x190>
    8000b45c:	00b59593          	slli	a1,a1,0xb
    8000b460:	13c58593          	addi	a1,a1,316
    8000b464:	00a59593          	slli	a1,a1,0xa
    8000b468:	33458593          	addi	a1,a1,820
    8000b46c:	00b54633          	xor	a2,a0,a1
    8000b470:	16c0bc23          	sd	a2,376(ra)
    8000b474:	003331b7          	lui	gp,0x333
    8000b478:	3331819b          	addiw	gp,gp,819 # 333333 <offset+0x332f1b>
    8000b47c:	00d19193          	slli	gp,gp,0xd
    8000b480:	67118193          	addi	gp,gp,1649
    8000b484:	00d19193          	slli	gp,gp,0xd
    8000b488:	8df18193          	addi	gp,gp,-1825
    8000b48c:	00e19193          	slli	gp,gp,0xe
    8000b490:	00c18463          	beq	gp,a2,8000b498 <inst_592>
    8000b494:	b91f406f          	j	80000024 <rvtest_error>

000000008000b498 <inst_592>:
    8000b498:	66666537          	lui	a0,0x66666
    8000b49c:	66650513          	addi	a0,a0,1638 # 66666666 <absimmsh+0x5ab958b9>
    8000b4a0:	00b51513          	slli	a0,a0,0xb
    8000b4a4:	33350513          	addi	a0,a0,819
    8000b4a8:	00b51513          	slli	a0,a0,0xb
    8000b4ac:	19950513          	addi	a0,a0,409
    8000b4b0:	00a51513          	slli	a0,a0,0xa
    8000b4b4:	26750513          	addi	a0,a0,615
    8000b4b8:	00300593          	li	a1,3
    8000b4bc:	00b54633          	xor	a2,a0,a1
    8000b4c0:	18c0b023          	sd	a2,384(ra)
    8000b4c4:	033331b7          	lui	gp,0x3333
    8000b4c8:	3331819b          	addiw	gp,gp,819 # 3333333 <offset+0x3332f1b>
    8000b4cc:	00c19193          	slli	gp,gp,0xc
    8000b4d0:	33318193          	addi	gp,gp,819
    8000b4d4:	00c19193          	slli	gp,gp,0xc
    8000b4d8:	33318193          	addi	gp,gp,819
    8000b4dc:	00d19193          	slli	gp,gp,0xd
    8000b4e0:	66418193          	addi	gp,gp,1636
    8000b4e4:	00c18463          	beq	gp,a2,8000b4ec <inst_593>
    8000b4e8:	b3df406f          	j	80000024 <rvtest_error>

000000008000b4ec <inst_593>:
    8000b4ec:	66666537          	lui	a0,0x66666
    8000b4f0:	66650513          	addi	a0,a0,1638 # 66666666 <absimmsh+0x5ab958b9>
    8000b4f4:	00b51513          	slli	a0,a0,0xb
    8000b4f8:	33350513          	addi	a0,a0,819
    8000b4fc:	00b51513          	slli	a0,a0,0xb
    8000b500:	19950513          	addi	a0,a0,409
    8000b504:	00a51513          	slli	a0,a0,0xa
    8000b508:	26750513          	addi	a0,a0,615
    8000b50c:	555555b7          	lui	a1,0x55555
    8000b510:	55558593          	addi	a1,a1,1365 # 55555555 <absimmsh+0x49a847a8>
    8000b514:	00b59593          	slli	a1,a1,0xb
    8000b518:	2aa58593          	addi	a1,a1,682
    8000b51c:	00b59593          	slli	a1,a1,0xb
    8000b520:	55558593          	addi	a1,a1,1365
    8000b524:	00a59593          	slli	a1,a1,0xa
    8000b528:	15558593          	addi	a1,a1,341
    8000b52c:	00b54633          	xor	a2,a0,a1
    8000b530:	18c0b423          	sd	a2,392(ra)
    8000b534:	033331b7          	lui	gp,0x3333
    8000b538:	3331819b          	addiw	gp,gp,819 # 3333333 <offset+0x3332f1b>
    8000b53c:	00c19193          	slli	gp,gp,0xc
    8000b540:	33318193          	addi	gp,gp,819
    8000b544:	00c19193          	slli	gp,gp,0xc
    8000b548:	33318193          	addi	gp,gp,819
    8000b54c:	00c19193          	slli	gp,gp,0xc
    8000b550:	33218193          	addi	gp,gp,818
    8000b554:	00c18463          	beq	gp,a2,8000b55c <inst_594>
    8000b558:	acdf406f          	j	80000024 <rvtest_error>

000000008000b55c <inst_594>:
    8000b55c:	66666537          	lui	a0,0x66666
    8000b560:	66650513          	addi	a0,a0,1638 # 66666666 <absimmsh+0x5ab958b9>
    8000b564:	00b51513          	slli	a0,a0,0xb
    8000b568:	33350513          	addi	a0,a0,819
    8000b56c:	00b51513          	slli	a0,a0,0xb
    8000b570:	19950513          	addi	a0,a0,409
    8000b574:	00a51513          	slli	a0,a0,0xa
    8000b578:	26750513          	addi	a0,a0,615
    8000b57c:	aaaab5b7          	lui	a1,0xaaaab
    8000b580:	aaa58593          	addi	a1,a1,-1366 # ffffffffaaaaaaaa <absimm+0xfffffffeefd9cfda>
    8000b584:	00b59593          	slli	a1,a1,0xb
    8000b588:	55558593          	addi	a1,a1,1365
    8000b58c:	00b59593          	slli	a1,a1,0xb
    8000b590:	2aa58593          	addi	a1,a1,682
    8000b594:	00a59593          	slli	a1,a1,0xa
    8000b598:	2aa58593          	addi	a1,a1,682
    8000b59c:	00b54633          	xor	a2,a0,a1
    8000b5a0:	18c0b823          	sd	a2,400(ra)
    8000b5a4:	fcccd1b7          	lui	gp,0xfcccd
    8000b5a8:	ccd1819b          	addiw	gp,gp,-819 # fffffffffccccccd <absimm+0xffffffff41fbf1fd>
    8000b5ac:	00c19193          	slli	gp,gp,0xc
    8000b5b0:	ccd18193          	addi	gp,gp,-819
    8000b5b4:	00c19193          	slli	gp,gp,0xc
    8000b5b8:	ccd18193          	addi	gp,gp,-819
    8000b5bc:	00c19193          	slli	gp,gp,0xc
    8000b5c0:	ccd18193          	addi	gp,gp,-819
    8000b5c4:	00c18463          	beq	gp,a2,8000b5cc <inst_595>
    8000b5c8:	a5df406f          	j	80000024 <rvtest_error>

000000008000b5cc <inst_595>:
    8000b5cc:	66666537          	lui	a0,0x66666
    8000b5d0:	66650513          	addi	a0,a0,1638 # 66666666 <absimmsh+0x5ab958b9>
    8000b5d4:	00b51513          	slli	a0,a0,0xb
    8000b5d8:	33350513          	addi	a0,a0,819
    8000b5dc:	00b51513          	slli	a0,a0,0xb
    8000b5e0:	19950513          	addi	a0,a0,409
    8000b5e4:	00a51513          	slli	a0,a0,0xa
    8000b5e8:	26750513          	addi	a0,a0,615
    8000b5ec:	00500593          	li	a1,5
    8000b5f0:	00b54633          	xor	a2,a0,a1
    8000b5f4:	18c0bc23          	sd	a2,408(ra)
    8000b5f8:	033331b7          	lui	gp,0x3333
    8000b5fc:	3331819b          	addiw	gp,gp,819 # 3333333 <offset+0x3332f1b>
    8000b600:	00c19193          	slli	gp,gp,0xc
    8000b604:	33318193          	addi	gp,gp,819
    8000b608:	00c19193          	slli	gp,gp,0xc
    8000b60c:	33318193          	addi	gp,gp,819
    8000b610:	00d19193          	slli	gp,gp,0xd
    8000b614:	66218193          	addi	gp,gp,1634
    8000b618:	00c18463          	beq	gp,a2,8000b620 <inst_596>
    8000b61c:	a09f406f          	j	80000024 <rvtest_error>

000000008000b620 <inst_596>:
    8000b620:	66666537          	lui	a0,0x66666
    8000b624:	66650513          	addi	a0,a0,1638 # 66666666 <absimmsh+0x5ab958b9>
    8000b628:	00b51513          	slli	a0,a0,0xb
    8000b62c:	33350513          	addi	a0,a0,819
    8000b630:	00b51513          	slli	a0,a0,0xb
    8000b634:	19950513          	addi	a0,a0,409
    8000b638:	00a51513          	slli	a0,a0,0xa
    8000b63c:	26750513          	addi	a0,a0,615
    8000b640:	333335b7          	lui	a1,0x33333
    8000b644:	33358593          	addi	a1,a1,819 # 33333333 <absimmsh+0x27862586>
    8000b648:	00b59593          	slli	a1,a1,0xb
    8000b64c:	19958593          	addi	a1,a1,409
    8000b650:	00b59593          	slli	a1,a1,0xb
    8000b654:	4cc58593          	addi	a1,a1,1228
    8000b658:	00a59593          	slli	a1,a1,0xa
    8000b65c:	33358593          	addi	a1,a1,819
    8000b660:	00b54633          	xor	a2,a0,a1
    8000b664:	1ac0b023          	sd	a2,416(ra)
    8000b668:	055551b7          	lui	gp,0x5555
    8000b66c:	5551819b          	addiw	gp,gp,1365 # 5555555 <offset+0x555513d>
    8000b670:	00c19193          	slli	gp,gp,0xc
    8000b674:	55518193          	addi	gp,gp,1365
    8000b678:	00c19193          	slli	gp,gp,0xc
    8000b67c:	55518193          	addi	gp,gp,1365
    8000b680:	00c19193          	slli	gp,gp,0xc
    8000b684:	55418193          	addi	gp,gp,1364
    8000b688:	00c18463          	beq	gp,a2,8000b690 <inst_597>
    8000b68c:	999f406f          	j	80000024 <rvtest_error>

000000008000b690 <inst_597>:
    8000b690:	66666537          	lui	a0,0x66666
    8000b694:	66650513          	addi	a0,a0,1638 # 66666666 <absimmsh+0x5ab958b9>
    8000b698:	00b51513          	slli	a0,a0,0xb
    8000b69c:	33350513          	addi	a0,a0,819
    8000b6a0:	00b51513          	slli	a0,a0,0xb
    8000b6a4:	19950513          	addi	a0,a0,409
    8000b6a8:	00a51513          	slli	a0,a0,0xa
    8000b6ac:	26750513          	addi	a0,a0,615
    8000b6b0:	666665b7          	lui	a1,0x66666
    8000b6b4:	66658593          	addi	a1,a1,1638 # 66666666 <absimmsh+0x5ab958b9>
    8000b6b8:	00b59593          	slli	a1,a1,0xb
    8000b6bc:	33358593          	addi	a1,a1,819
    8000b6c0:	00b59593          	slli	a1,a1,0xb
    8000b6c4:	19958593          	addi	a1,a1,409
    8000b6c8:	00a59593          	slli	a1,a1,0xa
    8000b6cc:	26658593          	addi	a1,a1,614
    8000b6d0:	00b54633          	xor	a2,a0,a1
    8000b6d4:	1ac0b423          	sd	a2,424(ra)
    8000b6d8:	00100193          	li	gp,1
    8000b6dc:	00c18463          	beq	gp,a2,8000b6e4 <inst_598>
    8000b6e0:	945f406f          	j	80000024 <rvtest_error>

000000008000b6e4 <inst_598>:
    8000b6e4:	66666537          	lui	a0,0x66666
    8000b6e8:	66650513          	addi	a0,a0,1638 # 66666666 <absimmsh+0x5ab958b9>
    8000b6ec:	00b51513          	slli	a0,a0,0xb
    8000b6f0:	33350513          	addi	a0,a0,819
    8000b6f4:	00b51513          	slli	a0,a0,0xb
    8000b6f8:	19950513          	addi	a0,a0,409
    8000b6fc:	00a51513          	slli	a0,a0,0xa
    8000b700:	26750513          	addi	a0,a0,615
    8000b704:	000005b7          	lui	a1,0x0
    8000b708:	fff58593          	addi	a1,a1,-1
    8000b70c:	00b59593          	slli	a1,a1,0xb
    8000b710:	25758593          	addi	a1,a1,599
    8000b714:	00b59593          	slli	a1,a1,0xb
    8000b718:	6c358593          	addi	a1,a1,1731
    8000b71c:	00a59593          	slli	a1,a1,0xa
    8000b720:	0cd58593          	addi	a1,a1,205
    8000b724:	00b54633          	xor	a2,a0,a1
    8000b728:	1ac0b823          	sd	a2,432(ra)
    8000b72c:	fcccd1b7          	lui	gp,0xfcccd
    8000b730:	ccd1819b          	addiw	gp,gp,-819 # fffffffffccccccd <absimm+0xffffffff41fbf1fd>
    8000b734:	00d19193          	slli	gp,gp,0xd
    8000b738:	92d18193          	addi	gp,gp,-1747
    8000b73c:	00c19193          	slli	gp,gp,0xc
    8000b740:	9d718193          	addi	gp,gp,-1577
    8000b744:	00c19193          	slli	gp,gp,0xc
    8000b748:	aaa18193          	addi	gp,gp,-1366
    8000b74c:	00c18463          	beq	gp,a2,8000b754 <inst_599>
    8000b750:	8d5f406f          	j	80000024 <rvtest_error>

000000008000b754 <inst_599>:
    8000b754:	66666537          	lui	a0,0x66666
    8000b758:	66650513          	addi	a0,a0,1638 # 66666666 <absimmsh+0x5ab958b9>
    8000b75c:	00b51513          	slli	a0,a0,0xb
    8000b760:	33350513          	addi	a0,a0,819
    8000b764:	00b51513          	slli	a0,a0,0xb
    8000b768:	19950513          	addi	a0,a0,409
    8000b76c:	00a51513          	slli	a0,a0,0xa
    8000b770:	26750513          	addi	a0,a0,615
    8000b774:	000005b7          	lui	a1,0x0
    8000b778:	00058593          	mv	a1,a1
    8000b77c:	00b59593          	slli	a1,a1,0xb
    8000b780:	5a858593          	addi	a1,a1,1448 # 5a8 <offset+0x190>
    8000b784:	00b59593          	slli	a1,a1,0xb
    8000b788:	13c58593          	addi	a1,a1,316
    8000b78c:	00a59593          	slli	a1,a1,0xa
    8000b790:	33358593          	addi	a1,a1,819
    8000b794:	00b54633          	xor	a2,a0,a1
    8000b798:	1ac0bc23          	sd	a2,440(ra)
    8000b79c:	033331b7          	lui	gp,0x3333
    8000b7a0:	3331819b          	addiw	gp,gp,819 # 3333333 <offset+0x3332f1b>
    8000b7a4:	00d19193          	slli	gp,gp,0xd
    8000b7a8:	6d318193          	addi	gp,gp,1747
    8000b7ac:	00c19193          	slli	gp,gp,0xc
    8000b7b0:	62918193          	addi	gp,gp,1577
    8000b7b4:	00c19193          	slli	gp,gp,0xc
    8000b7b8:	55418193          	addi	gp,gp,1364
    8000b7bc:	00c18463          	beq	gp,a2,8000b7c4 <inst_600>
    8000b7c0:	865f406f          	j	80000024 <rvtest_error>

000000008000b7c4 <inst_600>:
    8000b7c4:	66666537          	lui	a0,0x66666
    8000b7c8:	66650513          	addi	a0,a0,1638 # 66666666 <absimmsh+0x5ab958b9>
    8000b7cc:	00b51513          	slli	a0,a0,0xb
    8000b7d0:	33350513          	addi	a0,a0,819
    8000b7d4:	00b51513          	slli	a0,a0,0xb
    8000b7d8:	19950513          	addi	a0,a0,409
    8000b7dc:	00a51513          	slli	a0,a0,0xa
    8000b7e0:	26750513          	addi	a0,a0,615
    8000b7e4:	00200593          	li	a1,2
    8000b7e8:	00b54633          	xor	a2,a0,a1
    8000b7ec:	1cc0b023          	sd	a2,448(ra)
    8000b7f0:	033331b7          	lui	gp,0x3333
    8000b7f4:	3331819b          	addiw	gp,gp,819 # 3333333 <offset+0x3332f1b>
    8000b7f8:	00c19193          	slli	gp,gp,0xc
    8000b7fc:	33318193          	addi	gp,gp,819
    8000b800:	00c19193          	slli	gp,gp,0xc
    8000b804:	33318193          	addi	gp,gp,819
    8000b808:	00d19193          	slli	gp,gp,0xd
    8000b80c:	66518193          	addi	gp,gp,1637
    8000b810:	00c18463          	beq	gp,a2,8000b818 <inst_601>
    8000b814:	811f406f          	j	80000024 <rvtest_error>

000000008000b818 <inst_601>:
    8000b818:	66666537          	lui	a0,0x66666
    8000b81c:	66650513          	addi	a0,a0,1638 # 66666666 <absimmsh+0x5ab958b9>
    8000b820:	00b51513          	slli	a0,a0,0xb
    8000b824:	33350513          	addi	a0,a0,819
    8000b828:	00b51513          	slli	a0,a0,0xb
    8000b82c:	19950513          	addi	a0,a0,409
    8000b830:	00a51513          	slli	a0,a0,0xa
    8000b834:	26750513          	addi	a0,a0,615
    8000b838:	555555b7          	lui	a1,0x55555
    8000b83c:	55558593          	addi	a1,a1,1365 # 55555555 <absimmsh+0x49a847a8>
    8000b840:	00b59593          	slli	a1,a1,0xb
    8000b844:	2aa58593          	addi	a1,a1,682
    8000b848:	00b59593          	slli	a1,a1,0xb
    8000b84c:	55558593          	addi	a1,a1,1365
    8000b850:	00a59593          	slli	a1,a1,0xa
    8000b854:	15458593          	addi	a1,a1,340
    8000b858:	00b54633          	xor	a2,a0,a1
    8000b85c:	1cc0b423          	sd	a2,456(ra)
    8000b860:	033331b7          	lui	gp,0x3333
    8000b864:	3331819b          	addiw	gp,gp,819 # 3333333 <offset+0x3332f1b>
    8000b868:	00c19193          	slli	gp,gp,0xc
    8000b86c:	33318193          	addi	gp,gp,819
    8000b870:	00c19193          	slli	gp,gp,0xc
    8000b874:	33318193          	addi	gp,gp,819
    8000b878:	00c19193          	slli	gp,gp,0xc
    8000b87c:	33318193          	addi	gp,gp,819
    8000b880:	00c18463          	beq	gp,a2,8000b888 <inst_602>
    8000b884:	fa0f406f          	j	80000024 <rvtest_error>

000000008000b888 <inst_602>:
    8000b888:	66666537          	lui	a0,0x66666
    8000b88c:	66650513          	addi	a0,a0,1638 # 66666666 <absimmsh+0x5ab958b9>
    8000b890:	00b51513          	slli	a0,a0,0xb
    8000b894:	33350513          	addi	a0,a0,819
    8000b898:	00b51513          	slli	a0,a0,0xb
    8000b89c:	19950513          	addi	a0,a0,409
    8000b8a0:	00a51513          	slli	a0,a0,0xa
    8000b8a4:	26750513          	addi	a0,a0,615
    8000b8a8:	00000593          	li	a1,0
    8000b8ac:	00b54633          	xor	a2,a0,a1
    8000b8b0:	1cc0b823          	sd	a2,464(ra)
    8000b8b4:	033331b7          	lui	gp,0x3333
    8000b8b8:	3331819b          	addiw	gp,gp,819 # 3333333 <offset+0x3332f1b>
    8000b8bc:	00c19193          	slli	gp,gp,0xc
    8000b8c0:	33318193          	addi	gp,gp,819
    8000b8c4:	00c19193          	slli	gp,gp,0xc
    8000b8c8:	33318193          	addi	gp,gp,819
    8000b8cc:	00d19193          	slli	gp,gp,0xd
    8000b8d0:	66718193          	addi	gp,gp,1639
    8000b8d4:	00c18463          	beq	gp,a2,8000b8dc <inst_603>
    8000b8d8:	f4cf406f          	j	80000024 <rvtest_error>

000000008000b8dc <inst_603>:
    8000b8dc:	66666537          	lui	a0,0x66666
    8000b8e0:	66650513          	addi	a0,a0,1638 # 66666666 <absimmsh+0x5ab958b9>
    8000b8e4:	00b51513          	slli	a0,a0,0xb
    8000b8e8:	33350513          	addi	a0,a0,819
    8000b8ec:	00b51513          	slli	a0,a0,0xb
    8000b8f0:	19950513          	addi	a0,a0,409
    8000b8f4:	00a51513          	slli	a0,a0,0xa
    8000b8f8:	26750513          	addi	a0,a0,615
    8000b8fc:	00400593          	li	a1,4
    8000b900:	00b54633          	xor	a2,a0,a1
    8000b904:	1cc0bc23          	sd	a2,472(ra)
    8000b908:	033331b7          	lui	gp,0x3333
    8000b90c:	3331819b          	addiw	gp,gp,819 # 3333333 <offset+0x3332f1b>
    8000b910:	00c19193          	slli	gp,gp,0xc
    8000b914:	33318193          	addi	gp,gp,819
    8000b918:	00c19193          	slli	gp,gp,0xc
    8000b91c:	33318193          	addi	gp,gp,819
    8000b920:	00d19193          	slli	gp,gp,0xd
    8000b924:	66318193          	addi	gp,gp,1635
    8000b928:	00c18463          	beq	gp,a2,8000b930 <inst_604>
    8000b92c:	ef8f406f          	j	80000024 <rvtest_error>

000000008000b930 <inst_604>:
    8000b930:	66666537          	lui	a0,0x66666
    8000b934:	66650513          	addi	a0,a0,1638 # 66666666 <absimmsh+0x5ab958b9>
    8000b938:	00b51513          	slli	a0,a0,0xb
    8000b93c:	33350513          	addi	a0,a0,819
    8000b940:	00b51513          	slli	a0,a0,0xb
    8000b944:	19950513          	addi	a0,a0,409
    8000b948:	00a51513          	slli	a0,a0,0xa
    8000b94c:	26750513          	addi	a0,a0,615
    8000b950:	333335b7          	lui	a1,0x33333
    8000b954:	33358593          	addi	a1,a1,819 # 33333333 <absimmsh+0x27862586>
    8000b958:	00b59593          	slli	a1,a1,0xb
    8000b95c:	19958593          	addi	a1,a1,409
    8000b960:	00b59593          	slli	a1,a1,0xb
    8000b964:	4cc58593          	addi	a1,a1,1228
    8000b968:	00a59593          	slli	a1,a1,0xa
    8000b96c:	33258593          	addi	a1,a1,818
    8000b970:	00b54633          	xor	a2,a0,a1
    8000b974:	1ec0b023          	sd	a2,480(ra)
    8000b978:	055551b7          	lui	gp,0x5555
    8000b97c:	5551819b          	addiw	gp,gp,1365 # 5555555 <offset+0x555513d>
    8000b980:	00c19193          	slli	gp,gp,0xc
    8000b984:	55518193          	addi	gp,gp,1365
    8000b988:	00c19193          	slli	gp,gp,0xc
    8000b98c:	55518193          	addi	gp,gp,1365
    8000b990:	00c19193          	slli	gp,gp,0xc
    8000b994:	55518193          	addi	gp,gp,1365
    8000b998:	00c18463          	beq	gp,a2,8000b9a0 <inst_605>
    8000b99c:	e88f406f          	j	80000024 <rvtest_error>

000000008000b9a0 <inst_605>:
    8000b9a0:	66666537          	lui	a0,0x66666
    8000b9a4:	66650513          	addi	a0,a0,1638 # 66666666 <absimmsh+0x5ab958b9>
    8000b9a8:	00b51513          	slli	a0,a0,0xb
    8000b9ac:	33350513          	addi	a0,a0,819
    8000b9b0:	00b51513          	slli	a0,a0,0xb
    8000b9b4:	19950513          	addi	a0,a0,409
    8000b9b8:	00a51513          	slli	a0,a0,0xa
    8000b9bc:	26750513          	addi	a0,a0,615
    8000b9c0:	666665b7          	lui	a1,0x66666
    8000b9c4:	66658593          	addi	a1,a1,1638 # 66666666 <absimmsh+0x5ab958b9>
    8000b9c8:	00b59593          	slli	a1,a1,0xb
    8000b9cc:	33358593          	addi	a1,a1,819
    8000b9d0:	00b59593          	slli	a1,a1,0xb
    8000b9d4:	19958593          	addi	a1,a1,409
    8000b9d8:	00a59593          	slli	a1,a1,0xa
    8000b9dc:	26558593          	addi	a1,a1,613
    8000b9e0:	00b54633          	xor	a2,a0,a1
    8000b9e4:	1ec0b423          	sd	a2,488(ra)
    8000b9e8:	00200193          	li	gp,2
    8000b9ec:	00c18463          	beq	gp,a2,8000b9f4 <inst_606>
    8000b9f0:	e34f406f          	j	80000024 <rvtest_error>

000000008000b9f4 <inst_606>:
    8000b9f4:	66666537          	lui	a0,0x66666
    8000b9f8:	66650513          	addi	a0,a0,1638 # 66666666 <absimmsh+0x5ab958b9>
    8000b9fc:	00b51513          	slli	a0,a0,0xb
    8000ba00:	33350513          	addi	a0,a0,819
    8000ba04:	00b51513          	slli	a0,a0,0xb
    8000ba08:	19950513          	addi	a0,a0,409
    8000ba0c:	00a51513          	slli	a0,a0,0xa
    8000ba10:	26750513          	addi	a0,a0,615
    8000ba14:	000005b7          	lui	a1,0x0
    8000ba18:	00058593          	mv	a1,a1
    8000ba1c:	00b59593          	slli	a1,a1,0xb
    8000ba20:	5a858593          	addi	a1,a1,1448 # 5a8 <offset+0x190>
    8000ba24:	00b59593          	slli	a1,a1,0xb
    8000ba28:	13c58593          	addi	a1,a1,316
    8000ba2c:	00a59593          	slli	a1,a1,0xa
    8000ba30:	33258593          	addi	a1,a1,818
    8000ba34:	00b54633          	xor	a2,a0,a1
    8000ba38:	1ec0b823          	sd	a2,496(ra)
    8000ba3c:	033331b7          	lui	gp,0x3333
    8000ba40:	3331819b          	addiw	gp,gp,819 # 3333333 <offset+0x3332f1b>
    8000ba44:	00d19193          	slli	gp,gp,0xd
    8000ba48:	6d318193          	addi	gp,gp,1747
    8000ba4c:	00c19193          	slli	gp,gp,0xc
    8000ba50:	62918193          	addi	gp,gp,1577
    8000ba54:	00c19193          	slli	gp,gp,0xc
    8000ba58:	55518193          	addi	gp,gp,1365
    8000ba5c:	00c18463          	beq	gp,a2,8000ba64 <inst_607>
    8000ba60:	dc4f406f          	j	80000024 <rvtest_error>

000000008000ba64 <inst_607>:
    8000ba64:	66666537          	lui	a0,0x66666
    8000ba68:	66650513          	addi	a0,a0,1638 # 66666666 <absimmsh+0x5ab958b9>
    8000ba6c:	00b51513          	slli	a0,a0,0xb
    8000ba70:	33350513          	addi	a0,a0,819
    8000ba74:	00b51513          	slli	a0,a0,0xb
    8000ba78:	19950513          	addi	a0,a0,409
    8000ba7c:	00a51513          	slli	a0,a0,0xa
    8000ba80:	26750513          	addi	a0,a0,615
    8000ba84:	555555b7          	lui	a1,0x55555
    8000ba88:	55558593          	addi	a1,a1,1365 # 55555555 <absimmsh+0x49a847a8>
    8000ba8c:	00b59593          	slli	a1,a1,0xb
    8000ba90:	2aa58593          	addi	a1,a1,682
    8000ba94:	00b59593          	slli	a1,a1,0xb
    8000ba98:	55558593          	addi	a1,a1,1365
    8000ba9c:	00a59593          	slli	a1,a1,0xa
    8000baa0:	15658593          	addi	a1,a1,342
    8000baa4:	00b54633          	xor	a2,a0,a1
    8000baa8:	1ec0bc23          	sd	a2,504(ra)
    8000baac:	033331b7          	lui	gp,0x3333
    8000bab0:	3331819b          	addiw	gp,gp,819 # 3333333 <offset+0x3332f1b>
    8000bab4:	00c19193          	slli	gp,gp,0xc
    8000bab8:	33318193          	addi	gp,gp,819
    8000babc:	00c19193          	slli	gp,gp,0xc
    8000bac0:	33318193          	addi	gp,gp,819
    8000bac4:	00c19193          	slli	gp,gp,0xc
    8000bac8:	33118193          	addi	gp,gp,817
    8000bacc:	00c18463          	beq	gp,a2,8000bad4 <inst_608>
    8000bad0:	d54f406f          	j	80000024 <rvtest_error>

000000008000bad4 <inst_608>:
    8000bad4:	66666537          	lui	a0,0x66666
    8000bad8:	66650513          	addi	a0,a0,1638 # 66666666 <absimmsh+0x5ab958b9>
    8000badc:	00b51513          	slli	a0,a0,0xb
    8000bae0:	33350513          	addi	a0,a0,819
    8000bae4:	00b51513          	slli	a0,a0,0xb
    8000bae8:	19950513          	addi	a0,a0,409
    8000baec:	00a51513          	slli	a0,a0,0xa
    8000baf0:	26750513          	addi	a0,a0,615
    8000baf4:	aaaab5b7          	lui	a1,0xaaaab
    8000baf8:	aaa58593          	addi	a1,a1,-1366 # ffffffffaaaaaaaa <absimm+0xfffffffeefd9cfda>
    8000bafc:	00b59593          	slli	a1,a1,0xb
    8000bb00:	55558593          	addi	a1,a1,1365
    8000bb04:	00b59593          	slli	a1,a1,0xb
    8000bb08:	2aa58593          	addi	a1,a1,682
    8000bb0c:	00a59593          	slli	a1,a1,0xa
    8000bb10:	2ab58593          	addi	a1,a1,683
    8000bb14:	00b54633          	xor	a2,a0,a1
    8000bb18:	20c0b023          	sd	a2,512(ra)
    8000bb1c:	fcccd1b7          	lui	gp,0xfcccd
    8000bb20:	ccd1819b          	addiw	gp,gp,-819 # fffffffffccccccd <absimm+0xffffffff41fbf1fd>
    8000bb24:	00c19193          	slli	gp,gp,0xc
    8000bb28:	ccd18193          	addi	gp,gp,-819
    8000bb2c:	00c19193          	slli	gp,gp,0xc
    8000bb30:	ccd18193          	addi	gp,gp,-819
    8000bb34:	00c19193          	slli	gp,gp,0xc
    8000bb38:	ccc18193          	addi	gp,gp,-820
    8000bb3c:	00c18463          	beq	gp,a2,8000bb44 <inst_609>
    8000bb40:	ce4f406f          	j	80000024 <rvtest_error>

000000008000bb44 <inst_609>:
    8000bb44:	66666537          	lui	a0,0x66666
    8000bb48:	66650513          	addi	a0,a0,1638 # 66666666 <absimmsh+0x5ab958b9>
    8000bb4c:	00b51513          	slli	a0,a0,0xb
    8000bb50:	33350513          	addi	a0,a0,819
    8000bb54:	00b51513          	slli	a0,a0,0xb
    8000bb58:	19950513          	addi	a0,a0,409
    8000bb5c:	00a51513          	slli	a0,a0,0xa
    8000bb60:	26750513          	addi	a0,a0,615
    8000bb64:	00600593          	li	a1,6
    8000bb68:	00b54633          	xor	a2,a0,a1
    8000bb6c:	20c0b423          	sd	a2,520(ra)
    8000bb70:	033331b7          	lui	gp,0x3333
    8000bb74:	3331819b          	addiw	gp,gp,819 # 3333333 <offset+0x3332f1b>
    8000bb78:	00c19193          	slli	gp,gp,0xc
    8000bb7c:	33318193          	addi	gp,gp,819
    8000bb80:	00c19193          	slli	gp,gp,0xc
    8000bb84:	33318193          	addi	gp,gp,819
    8000bb88:	00d19193          	slli	gp,gp,0xd
    8000bb8c:	66118193          	addi	gp,gp,1633
    8000bb90:	00c18463          	beq	gp,a2,8000bb98 <inst_610>
    8000bb94:	c90f406f          	j	80000024 <rvtest_error>

000000008000bb98 <inst_610>:
    8000bb98:	66666537          	lui	a0,0x66666
    8000bb9c:	66650513          	addi	a0,a0,1638 # 66666666 <absimmsh+0x5ab958b9>
    8000bba0:	00b51513          	slli	a0,a0,0xb
    8000bba4:	33350513          	addi	a0,a0,819
    8000bba8:	00b51513          	slli	a0,a0,0xb
    8000bbac:	19950513          	addi	a0,a0,409
    8000bbb0:	00a51513          	slli	a0,a0,0xa
    8000bbb4:	26750513          	addi	a0,a0,615
    8000bbb8:	333335b7          	lui	a1,0x33333
    8000bbbc:	33358593          	addi	a1,a1,819 # 33333333 <absimmsh+0x27862586>
    8000bbc0:	00b59593          	slli	a1,a1,0xb
    8000bbc4:	19958593          	addi	a1,a1,409
    8000bbc8:	00b59593          	slli	a1,a1,0xb
    8000bbcc:	4cc58593          	addi	a1,a1,1228
    8000bbd0:	00a59593          	slli	a1,a1,0xa
    8000bbd4:	33458593          	addi	a1,a1,820
    8000bbd8:	00b54633          	xor	a2,a0,a1
    8000bbdc:	20c0b823          	sd	a2,528(ra)
    8000bbe0:	055551b7          	lui	gp,0x5555
    8000bbe4:	5551819b          	addiw	gp,gp,1365 # 5555555 <offset+0x555513d>
    8000bbe8:	00c19193          	slli	gp,gp,0xc
    8000bbec:	55518193          	addi	gp,gp,1365
    8000bbf0:	00c19193          	slli	gp,gp,0xc
    8000bbf4:	55518193          	addi	gp,gp,1365
    8000bbf8:	00c19193          	slli	gp,gp,0xc
    8000bbfc:	55318193          	addi	gp,gp,1363
    8000bc00:	00c18463          	beq	gp,a2,8000bc08 <inst_611>
    8000bc04:	c20f406f          	j	80000024 <rvtest_error>

000000008000bc08 <inst_611>:
    8000bc08:	66666537          	lui	a0,0x66666
    8000bc0c:	66650513          	addi	a0,a0,1638 # 66666666 <absimmsh+0x5ab958b9>
    8000bc10:	00b51513          	slli	a0,a0,0xb
    8000bc14:	33350513          	addi	a0,a0,819
    8000bc18:	00b51513          	slli	a0,a0,0xb
    8000bc1c:	19950513          	addi	a0,a0,409
    8000bc20:	00a51513          	slli	a0,a0,0xa
    8000bc24:	26750513          	addi	a0,a0,615
    8000bc28:	666665b7          	lui	a1,0x66666
    8000bc2c:	66658593          	addi	a1,a1,1638 # 66666666 <absimmsh+0x5ab958b9>
    8000bc30:	00b59593          	slli	a1,a1,0xb
    8000bc34:	33358593          	addi	a1,a1,819
    8000bc38:	00b59593          	slli	a1,a1,0xb
    8000bc3c:	19958593          	addi	a1,a1,409
    8000bc40:	00a59593          	slli	a1,a1,0xa
    8000bc44:	26758593          	addi	a1,a1,615
    8000bc48:	00b54633          	xor	a2,a0,a1
    8000bc4c:	20c0bc23          	sd	a2,536(ra)
    8000bc50:	00000193          	li	gp,0
    8000bc54:	00c18463          	beq	gp,a2,8000bc5c <inst_612>
    8000bc58:	bccf406f          	j	80000024 <rvtest_error>

000000008000bc5c <inst_612>:
    8000bc5c:	66666537          	lui	a0,0x66666
    8000bc60:	66650513          	addi	a0,a0,1638 # 66666666 <absimmsh+0x5ab958b9>
    8000bc64:	00b51513          	slli	a0,a0,0xb
    8000bc68:	33350513          	addi	a0,a0,819
    8000bc6c:	00b51513          	slli	a0,a0,0xb
    8000bc70:	19950513          	addi	a0,a0,409
    8000bc74:	00a51513          	slli	a0,a0,0xa
    8000bc78:	26750513          	addi	a0,a0,615
    8000bc7c:	000005b7          	lui	a1,0x0
    8000bc80:	fff58593          	addi	a1,a1,-1
    8000bc84:	00b59593          	slli	a1,a1,0xb
    8000bc88:	25758593          	addi	a1,a1,599
    8000bc8c:	00b59593          	slli	a1,a1,0xb
    8000bc90:	6c358593          	addi	a1,a1,1731
    8000bc94:	00a59593          	slli	a1,a1,0xa
    8000bc98:	0ce58593          	addi	a1,a1,206
    8000bc9c:	00b54633          	xor	a2,a0,a1
    8000bca0:	22c0b023          	sd	a2,544(ra)
    8000bca4:	fcccd1b7          	lui	gp,0xfcccd
    8000bca8:	ccd1819b          	addiw	gp,gp,-819 # fffffffffccccccd <absimm+0xffffffff41fbf1fd>
    8000bcac:	00d19193          	slli	gp,gp,0xd
    8000bcb0:	92d18193          	addi	gp,gp,-1747
    8000bcb4:	00c19193          	slli	gp,gp,0xc
    8000bcb8:	9d718193          	addi	gp,gp,-1577
    8000bcbc:	00c19193          	slli	gp,gp,0xc
    8000bcc0:	aa918193          	addi	gp,gp,-1367
    8000bcc4:	00c18463          	beq	gp,a2,8000bccc <inst_613>
    8000bcc8:	b5cf406f          	j	80000024 <rvtest_error>

000000008000bccc <inst_613>:
    8000bccc:	66666537          	lui	a0,0x66666
    8000bcd0:	66650513          	addi	a0,a0,1638 # 66666666 <absimmsh+0x5ab958b9>
    8000bcd4:	00b51513          	slli	a0,a0,0xb
    8000bcd8:	33350513          	addi	a0,a0,819
    8000bcdc:	00b51513          	slli	a0,a0,0xb
    8000bce0:	19950513          	addi	a0,a0,409
    8000bce4:	00a51513          	slli	a0,a0,0xa
    8000bce8:	26750513          	addi	a0,a0,615
    8000bcec:	000005b7          	lui	a1,0x0
    8000bcf0:	00058593          	mv	a1,a1
    8000bcf4:	00b59593          	slli	a1,a1,0xb
    8000bcf8:	5a858593          	addi	a1,a1,1448 # 5a8 <offset+0x190>
    8000bcfc:	00b59593          	slli	a1,a1,0xb
    8000bd00:	13c58593          	addi	a1,a1,316
    8000bd04:	00a59593          	slli	a1,a1,0xa
    8000bd08:	33458593          	addi	a1,a1,820
    8000bd0c:	00b54633          	xor	a2,a0,a1
    8000bd10:	22c0b423          	sd	a2,552(ra)
    8000bd14:	033331b7          	lui	gp,0x3333
    8000bd18:	3331819b          	addiw	gp,gp,819 # 3333333 <offset+0x3332f1b>
    8000bd1c:	00d19193          	slli	gp,gp,0xd
    8000bd20:	6d318193          	addi	gp,gp,1747
    8000bd24:	00c19193          	slli	gp,gp,0xc
    8000bd28:	62918193          	addi	gp,gp,1577
    8000bd2c:	00c19193          	slli	gp,gp,0xc
    8000bd30:	55318193          	addi	gp,gp,1363
    8000bd34:	00c18463          	beq	gp,a2,8000bd3c <inst_614>
    8000bd38:	aecf406f          	j	80000024 <rvtest_error>

000000008000bd3c <inst_614>:
    8000bd3c:	00000537          	lui	a0,0x0
    8000bd40:	fff50513          	addi	a0,a0,-1
    8000bd44:	00b51513          	slli	a0,a0,0xb
    8000bd48:	25750513          	addi	a0,a0,599
    8000bd4c:	00b51513          	slli	a0,a0,0xb
    8000bd50:	6c350513          	addi	a0,a0,1731
    8000bd54:	00a51513          	slli	a0,a0,0xa
    8000bd58:	0ce50513          	addi	a0,a0,206
    8000bd5c:	00300593          	li	a1,3
    8000bd60:	00b54633          	xor	a2,a0,a1
    8000bd64:	22c0b823          	sd	a2,560(ra)
    8000bd68:	fff4b1b7          	lui	gp,0xfff4b
    8000bd6c:	fb11819b          	addiw	gp,gp,-79 # fffffffffff4afb1 <absimm+0xffffffff4523d4e1>
    8000bd70:	00c19193          	slli	gp,gp,0xc
    8000bd74:	ccd18193          	addi	gp,gp,-819
    8000bd78:	00c18463          	beq	gp,a2,8000bd80 <inst_615>
    8000bd7c:	aa8f406f          	j	80000024 <rvtest_error>

000000008000bd80 <inst_615>:
    8000bd80:	00000537          	lui	a0,0x0
    8000bd84:	fff50513          	addi	a0,a0,-1
    8000bd88:	00b51513          	slli	a0,a0,0xb
    8000bd8c:	25750513          	addi	a0,a0,599
    8000bd90:	00b51513          	slli	a0,a0,0xb
    8000bd94:	6c350513          	addi	a0,a0,1731
    8000bd98:	00a51513          	slli	a0,a0,0xa
    8000bd9c:	0ce50513          	addi	a0,a0,206
    8000bda0:	555555b7          	lui	a1,0x55555
    8000bda4:	55558593          	addi	a1,a1,1365 # 55555555 <absimmsh+0x49a847a8>
    8000bda8:	00b59593          	slli	a1,a1,0xb
    8000bdac:	2aa58593          	addi	a1,a1,682
    8000bdb0:	00b59593          	slli	a1,a1,0xb
    8000bdb4:	55558593          	addi	a1,a1,1365
    8000bdb8:	00a59593          	slli	a1,a1,0xa
    8000bdbc:	15558593          	addi	a1,a1,341
    8000bdc0:	00b54633          	xor	a2,a0,a1
    8000bdc4:	22c0bc23          	sd	a2,568(ra)
    8000bdc8:	ffd551b7          	lui	gp,0xffd55
    8000bdcc:	5551819b          	addiw	gp,gp,1365 # ffffffffffd55555 <absimm+0xffffffff45047a85>
    8000bdd0:	00c19193          	slli	gp,gp,0xc
    8000bdd4:	55118193          	addi	gp,gp,1361
    8000bdd8:	01019193          	slli	gp,gp,0x10
    8000bddc:	d7318193          	addi	gp,gp,-653
    8000bde0:	00d19193          	slli	gp,gp,0xd
    8000bde4:	99b18193          	addi	gp,gp,-1637
    8000bde8:	00c18463          	beq	gp,a2,8000bdf0 <inst_616>
    8000bdec:	a38f406f          	j	80000024 <rvtest_error>

000000008000bdf0 <inst_616>:
    8000bdf0:	00000537          	lui	a0,0x0
    8000bdf4:	fff50513          	addi	a0,a0,-1
    8000bdf8:	00b51513          	slli	a0,a0,0xb
    8000bdfc:	25750513          	addi	a0,a0,599
    8000be00:	00b51513          	slli	a0,a0,0xb
    8000be04:	6c350513          	addi	a0,a0,1731
    8000be08:	00a51513          	slli	a0,a0,0xa
    8000be0c:	0ce50513          	addi	a0,a0,206
    8000be10:	aaaab5b7          	lui	a1,0xaaaab
    8000be14:	aaa58593          	addi	a1,a1,-1366 # ffffffffaaaaaaaa <absimm+0xfffffffeefd9cfda>
    8000be18:	00b59593          	slli	a1,a1,0xb
    8000be1c:	55558593          	addi	a1,a1,1365
    8000be20:	00b59593          	slli	a1,a1,0xb
    8000be24:	2aa58593          	addi	a1,a1,682
    8000be28:	00a59593          	slli	a1,a1,0xa
    8000be2c:	2aa58593          	addi	a1,a1,682
    8000be30:	00b54633          	xor	a2,a0,a1
    8000be34:	24c0b023          	sd	a2,576(ra)
    8000be38:	002ab1b7          	lui	gp,0x2ab
    8000be3c:	aab1819b          	addiw	gp,gp,-1365 # 2aaaab <offset+0x2aa693>
    8000be40:	00c19193          	slli	gp,gp,0xc
    8000be44:	aaf18193          	addi	gp,gp,-1361
    8000be48:	01019193          	slli	gp,gp,0x10
    8000be4c:	28d18193          	addi	gp,gp,653
    8000be50:	00d19193          	slli	gp,gp,0xd
    8000be54:	66418193          	addi	gp,gp,1636
    8000be58:	00c18463          	beq	gp,a2,8000be60 <inst_617>
    8000be5c:	9c8f406f          	j	80000024 <rvtest_error>

000000008000be60 <inst_617>:
    8000be60:	00000537          	lui	a0,0x0
    8000be64:	fff50513          	addi	a0,a0,-1
    8000be68:	00b51513          	slli	a0,a0,0xb
    8000be6c:	25750513          	addi	a0,a0,599
    8000be70:	00b51513          	slli	a0,a0,0xb
    8000be74:	6c350513          	addi	a0,a0,1731
    8000be78:	00a51513          	slli	a0,a0,0xa
    8000be7c:	0ce50513          	addi	a0,a0,206
    8000be80:	00500593          	li	a1,5
    8000be84:	00b54633          	xor	a2,a0,a1
    8000be88:	24c0b423          	sd	a2,584(ra)
    8000be8c:	fff4b1b7          	lui	gp,0xfff4b
    8000be90:	fb11819b          	addiw	gp,gp,-79 # fffffffffff4afb1 <absimm+0xffffffff4523d4e1>
    8000be94:	00c19193          	slli	gp,gp,0xc
    8000be98:	ccb18193          	addi	gp,gp,-821
    8000be9c:	00c18463          	beq	gp,a2,8000bea4 <inst_618>
    8000bea0:	984f406f          	j	80000024 <rvtest_error>

000000008000bea4 <inst_618>:
    8000bea4:	00000537          	lui	a0,0x0
    8000bea8:	fff50513          	addi	a0,a0,-1
    8000beac:	00b51513          	slli	a0,a0,0xb
    8000beb0:	25750513          	addi	a0,a0,599
    8000beb4:	00b51513          	slli	a0,a0,0xb
    8000beb8:	6c350513          	addi	a0,a0,1731
    8000bebc:	00a51513          	slli	a0,a0,0xa
    8000bec0:	0ce50513          	addi	a0,a0,206
    8000bec4:	333335b7          	lui	a1,0x33333
    8000bec8:	33358593          	addi	a1,a1,819 # 33333333 <absimmsh+0x27862586>
    8000becc:	00b59593          	slli	a1,a1,0xb
    8000bed0:	19958593          	addi	a1,a1,409
    8000bed4:	00b59593          	slli	a1,a1,0xb
    8000bed8:	4cc58593          	addi	a1,a1,1228
    8000bedc:	00a59593          	slli	a1,a1,0xa
    8000bee0:	33358593          	addi	a1,a1,819
    8000bee4:	00b54633          	xor	a2,a0,a1
    8000bee8:	24c0b823          	sd	a2,592(ra)
    8000beec:	ffccd1b7          	lui	gp,0xffccd
    8000bef0:	ccd1819b          	addiw	gp,gp,-819 # ffffffffffcccccd <absimm+0xffffffff44fbf1fd>
    8000bef4:	00d19193          	slli	gp,gp,0xd
    8000bef8:	98f18193          	addi	gp,gp,-1649
    8000befc:	00d19193          	slli	gp,gp,0xd
    8000bf00:	72118193          	addi	gp,gp,1825
    8000bf04:	00e19193          	slli	gp,gp,0xe
    8000bf08:	ffd18193          	addi	gp,gp,-3
    8000bf0c:	00c18463          	beq	gp,a2,8000bf14 <inst_619>
    8000bf10:	914f406f          	j	80000024 <rvtest_error>

000000008000bf14 <inst_619>:
    8000bf14:	00000537          	lui	a0,0x0
    8000bf18:	fff50513          	addi	a0,a0,-1
    8000bf1c:	00b51513          	slli	a0,a0,0xb
    8000bf20:	25750513          	addi	a0,a0,599
    8000bf24:	00b51513          	slli	a0,a0,0xb
    8000bf28:	6c350513          	addi	a0,a0,1731
    8000bf2c:	00a51513          	slli	a0,a0,0xa
    8000bf30:	0ce50513          	addi	a0,a0,206
    8000bf34:	666665b7          	lui	a1,0x66666
    8000bf38:	66658593          	addi	a1,a1,1638 # 66666666 <absimmsh+0x5ab958b9>
    8000bf3c:	00b59593          	slli	a1,a1,0xb
    8000bf40:	33358593          	addi	a1,a1,819
    8000bf44:	00b59593          	slli	a1,a1,0xb
    8000bf48:	19958593          	addi	a1,a1,409
    8000bf4c:	00a59593          	slli	a1,a1,0xa
    8000bf50:	26658593          	addi	a1,a1,614
    8000bf54:	00b54633          	xor	a2,a0,a1
    8000bf58:	24c0bc23          	sd	a2,600(ra)
    8000bf5c:	fcccd1b7          	lui	gp,0xfcccd
    8000bf60:	ccd1819b          	addiw	gp,gp,-819 # fffffffffccccccd <absimm+0xffffffff41fbf1fd>
    8000bf64:	00d19193          	slli	gp,gp,0xd
    8000bf68:	92d18193          	addi	gp,gp,-1747
    8000bf6c:	00c19193          	slli	gp,gp,0xc
    8000bf70:	9d718193          	addi	gp,gp,-1577
    8000bf74:	00c19193          	slli	gp,gp,0xc
    8000bf78:	aa818193          	addi	gp,gp,-1368
    8000bf7c:	00c18463          	beq	gp,a2,8000bf84 <inst_620>
    8000bf80:	8a4f406f          	j	80000024 <rvtest_error>

000000008000bf84 <inst_620>:
    8000bf84:	00000537          	lui	a0,0x0
    8000bf88:	fff50513          	addi	a0,a0,-1
    8000bf8c:	00b51513          	slli	a0,a0,0xb
    8000bf90:	25750513          	addi	a0,a0,599
    8000bf94:	00b51513          	slli	a0,a0,0xb
    8000bf98:	6c350513          	addi	a0,a0,1731
    8000bf9c:	00a51513          	slli	a0,a0,0xa
    8000bfa0:	0ce50513          	addi	a0,a0,206
    8000bfa4:	000005b7          	lui	a1,0x0
    8000bfa8:	fff58593          	addi	a1,a1,-1
    8000bfac:	00b59593          	slli	a1,a1,0xb
    8000bfb0:	25758593          	addi	a1,a1,599
    8000bfb4:	00b59593          	slli	a1,a1,0xb
    8000bfb8:	6c358593          	addi	a1,a1,1731
    8000bfbc:	00a59593          	slli	a1,a1,0xa
    8000bfc0:	0cd58593          	addi	a1,a1,205
    8000bfc4:	00b54633          	xor	a2,a0,a1
    8000bfc8:	26c0b023          	sd	a2,608(ra)
    8000bfcc:	00300193          	li	gp,3
    8000bfd0:	00c18463          	beq	gp,a2,8000bfd8 <inst_621>
    8000bfd4:	850f406f          	j	80000024 <rvtest_error>

000000008000bfd8 <inst_621>:
    8000bfd8:	00000537          	lui	a0,0x0
    8000bfdc:	fff50513          	addi	a0,a0,-1
    8000bfe0:	00b51513          	slli	a0,a0,0xb
    8000bfe4:	25750513          	addi	a0,a0,599
    8000bfe8:	00b51513          	slli	a0,a0,0xb
    8000bfec:	6c350513          	addi	a0,a0,1731
    8000bff0:	00a51513          	slli	a0,a0,0xa
    8000bff4:	0ce50513          	addi	a0,a0,206
    8000bff8:	000005b7          	lui	a1,0x0
    8000bffc:	00058593          	mv	a1,a1
    8000c000:	00b59593          	slli	a1,a1,0xb
    8000c004:	5a858593          	addi	a1,a1,1448 # 5a8 <offset+0x190>
    8000c008:	00b59593          	slli	a1,a1,0xb
    8000c00c:	13c58593          	addi	a1,a1,316
    8000c010:	00a59593          	slli	a1,a1,0xa
    8000c014:	33358593          	addi	a1,a1,819
    8000c018:	00b54633          	xor	a2,a0,a1
    8000c01c:	26c0b423          	sd	a2,616(ra)
    8000c020:	ffd00193          	li	gp,-3
    8000c024:	00c18463          	beq	gp,a2,8000c02c <inst_622>
    8000c028:	ffdf306f          	j	80000024 <rvtest_error>

000000008000c02c <inst_622>:
    8000c02c:	00000537          	lui	a0,0x0
    8000c030:	fff50513          	addi	a0,a0,-1
    8000c034:	00b51513          	slli	a0,a0,0xb
    8000c038:	25750513          	addi	a0,a0,599
    8000c03c:	00b51513          	slli	a0,a0,0xb
    8000c040:	6c350513          	addi	a0,a0,1731
    8000c044:	00a51513          	slli	a0,a0,0xa
    8000c048:	0ce50513          	addi	a0,a0,206
    8000c04c:	00200593          	li	a1,2
    8000c050:	00b54633          	xor	a2,a0,a1
    8000c054:	26c0b823          	sd	a2,624(ra)
    8000c058:	fff4b1b7          	lui	gp,0xfff4b
    8000c05c:	fb11819b          	addiw	gp,gp,-79 # fffffffffff4afb1 <absimm+0xffffffff4523d4e1>
    8000c060:	00c19193          	slli	gp,gp,0xc
    8000c064:	ccc18193          	addi	gp,gp,-820
    8000c068:	00c18463          	beq	gp,a2,8000c070 <inst_623>
    8000c06c:	fb9f306f          	j	80000024 <rvtest_error>

000000008000c070 <inst_623>:
    8000c070:	00000537          	lui	a0,0x0
    8000c074:	fff50513          	addi	a0,a0,-1
    8000c078:	00b51513          	slli	a0,a0,0xb
    8000c07c:	25750513          	addi	a0,a0,599
    8000c080:	00b51513          	slli	a0,a0,0xb
    8000c084:	6c350513          	addi	a0,a0,1731
    8000c088:	00a51513          	slli	a0,a0,0xa
    8000c08c:	0ce50513          	addi	a0,a0,206
    8000c090:	555555b7          	lui	a1,0x55555
    8000c094:	55558593          	addi	a1,a1,1365 # 55555555 <absimmsh+0x49a847a8>
    8000c098:	00b59593          	slli	a1,a1,0xb
    8000c09c:	2aa58593          	addi	a1,a1,682
    8000c0a0:	00b59593          	slli	a1,a1,0xb
    8000c0a4:	55558593          	addi	a1,a1,1365
    8000c0a8:	00a59593          	slli	a1,a1,0xa
    8000c0ac:	15458593          	addi	a1,a1,340
    8000c0b0:	00b54633          	xor	a2,a0,a1
    8000c0b4:	26c0bc23          	sd	a2,632(ra)
    8000c0b8:	ffd551b7          	lui	gp,0xffd55
    8000c0bc:	5551819b          	addiw	gp,gp,1365 # ffffffffffd55555 <absimm+0xffffffff45047a85>
    8000c0c0:	00c19193          	slli	gp,gp,0xc
    8000c0c4:	55118193          	addi	gp,gp,1361
    8000c0c8:	01019193          	slli	gp,gp,0x10
    8000c0cc:	d7318193          	addi	gp,gp,-653
    8000c0d0:	00d19193          	slli	gp,gp,0xd
    8000c0d4:	99a18193          	addi	gp,gp,-1638
    8000c0d8:	00c18463          	beq	gp,a2,8000c0e0 <inst_624>
    8000c0dc:	f49f306f          	j	80000024 <rvtest_error>

000000008000c0e0 <inst_624>:
    8000c0e0:	00000537          	lui	a0,0x0
    8000c0e4:	fff50513          	addi	a0,a0,-1
    8000c0e8:	00b51513          	slli	a0,a0,0xb
    8000c0ec:	25750513          	addi	a0,a0,599
    8000c0f0:	00b51513          	slli	a0,a0,0xb
    8000c0f4:	6c350513          	addi	a0,a0,1731
    8000c0f8:	00a51513          	slli	a0,a0,0xa
    8000c0fc:	0ce50513          	addi	a0,a0,206
    8000c100:	00000593          	li	a1,0
    8000c104:	00b54633          	xor	a2,a0,a1
    8000c108:	28c0b023          	sd	a2,640(ra)
    8000c10c:	fff4b1b7          	lui	gp,0xfff4b
    8000c110:	fb11819b          	addiw	gp,gp,-79 # fffffffffff4afb1 <absimm+0xffffffff4523d4e1>
    8000c114:	00c19193          	slli	gp,gp,0xc
    8000c118:	cce18193          	addi	gp,gp,-818
    8000c11c:	00c18463          	beq	gp,a2,8000c124 <inst_625>
    8000c120:	f05f306f          	j	80000024 <rvtest_error>

000000008000c124 <inst_625>:
    8000c124:	00000537          	lui	a0,0x0
    8000c128:	fff50513          	addi	a0,a0,-1
    8000c12c:	00b51513          	slli	a0,a0,0xb
    8000c130:	25750513          	addi	a0,a0,599
    8000c134:	00b51513          	slli	a0,a0,0xb
    8000c138:	6c350513          	addi	a0,a0,1731
    8000c13c:	00a51513          	slli	a0,a0,0xa
    8000c140:	0ce50513          	addi	a0,a0,206
    8000c144:	00400593          	li	a1,4
    8000c148:	00b54633          	xor	a2,a0,a1
    8000c14c:	28c0b423          	sd	a2,648(ra)
    8000c150:	fff4b1b7          	lui	gp,0xfff4b
    8000c154:	fb11819b          	addiw	gp,gp,-79 # fffffffffff4afb1 <absimm+0xffffffff4523d4e1>
    8000c158:	00c19193          	slli	gp,gp,0xc
    8000c15c:	cca18193          	addi	gp,gp,-822
    8000c160:	00c18463          	beq	gp,a2,8000c168 <inst_626>
    8000c164:	ec1f306f          	j	80000024 <rvtest_error>

000000008000c168 <inst_626>:
    8000c168:	00000537          	lui	a0,0x0
    8000c16c:	fff50513          	addi	a0,a0,-1
    8000c170:	00b51513          	slli	a0,a0,0xb
    8000c174:	25750513          	addi	a0,a0,599
    8000c178:	00b51513          	slli	a0,a0,0xb
    8000c17c:	6c350513          	addi	a0,a0,1731
    8000c180:	00a51513          	slli	a0,a0,0xa
    8000c184:	0ce50513          	addi	a0,a0,206
    8000c188:	333335b7          	lui	a1,0x33333
    8000c18c:	33358593          	addi	a1,a1,819 # 33333333 <absimmsh+0x27862586>
    8000c190:	00b59593          	slli	a1,a1,0xb
    8000c194:	19958593          	addi	a1,a1,409
    8000c198:	00b59593          	slli	a1,a1,0xb
    8000c19c:	4cc58593          	addi	a1,a1,1228
    8000c1a0:	00a59593          	slli	a1,a1,0xa
    8000c1a4:	33258593          	addi	a1,a1,818
    8000c1a8:	00b54633          	xor	a2,a0,a1
    8000c1ac:	28c0b823          	sd	a2,656(ra)
    8000c1b0:	ffccd1b7          	lui	gp,0xffccd
    8000c1b4:	ccd1819b          	addiw	gp,gp,-819 # ffffffffffcccccd <absimm+0xffffffff44fbf1fd>
    8000c1b8:	00d19193          	slli	gp,gp,0xd
    8000c1bc:	98f18193          	addi	gp,gp,-1649
    8000c1c0:	00d19193          	slli	gp,gp,0xd
    8000c1c4:	72118193          	addi	gp,gp,1825
    8000c1c8:	00e19193          	slli	gp,gp,0xe
    8000c1cc:	ffc18193          	addi	gp,gp,-4
    8000c1d0:	00c18463          	beq	gp,a2,8000c1d8 <inst_627>
    8000c1d4:	e51f306f          	j	80000024 <rvtest_error>

000000008000c1d8 <inst_627>:
    8000c1d8:	00000537          	lui	a0,0x0
    8000c1dc:	fff50513          	addi	a0,a0,-1
    8000c1e0:	00b51513          	slli	a0,a0,0xb
    8000c1e4:	25750513          	addi	a0,a0,599
    8000c1e8:	00b51513          	slli	a0,a0,0xb
    8000c1ec:	6c350513          	addi	a0,a0,1731
    8000c1f0:	00a51513          	slli	a0,a0,0xa
    8000c1f4:	0ce50513          	addi	a0,a0,206
    8000c1f8:	666665b7          	lui	a1,0x66666
    8000c1fc:	66658593          	addi	a1,a1,1638 # 66666666 <absimmsh+0x5ab958b9>
    8000c200:	00b59593          	slli	a1,a1,0xb
    8000c204:	33358593          	addi	a1,a1,819
    8000c208:	00b59593          	slli	a1,a1,0xb
    8000c20c:	19958593          	addi	a1,a1,409
    8000c210:	00a59593          	slli	a1,a1,0xa
    8000c214:	26558593          	addi	a1,a1,613
    8000c218:	00b54633          	xor	a2,a0,a1
    8000c21c:	28c0bc23          	sd	a2,664(ra)
    8000c220:	fcccd1b7          	lui	gp,0xfcccd
    8000c224:	ccd1819b          	addiw	gp,gp,-819 # fffffffffccccccd <absimm+0xffffffff41fbf1fd>
    8000c228:	00d19193          	slli	gp,gp,0xd
    8000c22c:	92d18193          	addi	gp,gp,-1747
    8000c230:	00c19193          	slli	gp,gp,0xc
    8000c234:	9d718193          	addi	gp,gp,-1577
    8000c238:	00c19193          	slli	gp,gp,0xc
    8000c23c:	aab18193          	addi	gp,gp,-1365
    8000c240:	00c18463          	beq	gp,a2,8000c248 <inst_628>
    8000c244:	de1f306f          	j	80000024 <rvtest_error>

000000008000c248 <inst_628>:
    8000c248:	00000537          	lui	a0,0x0
    8000c24c:	fff50513          	addi	a0,a0,-1
    8000c250:	00b51513          	slli	a0,a0,0xb
    8000c254:	25750513          	addi	a0,a0,599
    8000c258:	00b51513          	slli	a0,a0,0xb
    8000c25c:	6c350513          	addi	a0,a0,1731
    8000c260:	00a51513          	slli	a0,a0,0xa
    8000c264:	0ce50513          	addi	a0,a0,206
    8000c268:	000005b7          	lui	a1,0x0
    8000c26c:	00058593          	mv	a1,a1
    8000c270:	00b59593          	slli	a1,a1,0xb
    8000c274:	5a858593          	addi	a1,a1,1448 # 5a8 <offset+0x190>
    8000c278:	00b59593          	slli	a1,a1,0xb
    8000c27c:	13c58593          	addi	a1,a1,316
    8000c280:	00a59593          	slli	a1,a1,0xa
    8000c284:	33258593          	addi	a1,a1,818
    8000c288:	00b54633          	xor	a2,a0,a1
    8000c28c:	2ac0b023          	sd	a2,672(ra)
    8000c290:	ffc00193          	li	gp,-4
    8000c294:	00c18463          	beq	gp,a2,8000c29c <inst_629>
    8000c298:	d8df306f          	j	80000024 <rvtest_error>

000000008000c29c <inst_629>:
    8000c29c:	00000537          	lui	a0,0x0
    8000c2a0:	fff50513          	addi	a0,a0,-1
    8000c2a4:	00b51513          	slli	a0,a0,0xb
    8000c2a8:	25750513          	addi	a0,a0,599
    8000c2ac:	00b51513          	slli	a0,a0,0xb
    8000c2b0:	6c350513          	addi	a0,a0,1731
    8000c2b4:	00a51513          	slli	a0,a0,0xa
    8000c2b8:	0ce50513          	addi	a0,a0,206
    8000c2bc:	555555b7          	lui	a1,0x55555
    8000c2c0:	55558593          	addi	a1,a1,1365 # 55555555 <absimmsh+0x49a847a8>
    8000c2c4:	00b59593          	slli	a1,a1,0xb
    8000c2c8:	2aa58593          	addi	a1,a1,682
    8000c2cc:	00b59593          	slli	a1,a1,0xb
    8000c2d0:	55558593          	addi	a1,a1,1365
    8000c2d4:	00a59593          	slli	a1,a1,0xa
    8000c2d8:	15658593          	addi	a1,a1,342
    8000c2dc:	00b54633          	xor	a2,a0,a1
    8000c2e0:	2ac0b423          	sd	a2,680(ra)
    8000c2e4:	ffd551b7          	lui	gp,0xffd55
    8000c2e8:	5551819b          	addiw	gp,gp,1365 # ffffffffffd55555 <absimm+0xffffffff45047a85>
    8000c2ec:	00c19193          	slli	gp,gp,0xc
    8000c2f0:	55118193          	addi	gp,gp,1361
    8000c2f4:	01019193          	slli	gp,gp,0x10
    8000c2f8:	d7318193          	addi	gp,gp,-653
    8000c2fc:	00d19193          	slli	gp,gp,0xd
    8000c300:	99818193          	addi	gp,gp,-1640
    8000c304:	00c18463          	beq	gp,a2,8000c30c <inst_630>
    8000c308:	d1df306f          	j	80000024 <rvtest_error>

000000008000c30c <inst_630>:
    8000c30c:	00000537          	lui	a0,0x0
    8000c310:	fff50513          	addi	a0,a0,-1
    8000c314:	00b51513          	slli	a0,a0,0xb
    8000c318:	25750513          	addi	a0,a0,599
    8000c31c:	00b51513          	slli	a0,a0,0xb
    8000c320:	6c350513          	addi	a0,a0,1731
    8000c324:	00a51513          	slli	a0,a0,0xa
    8000c328:	0ce50513          	addi	a0,a0,206
    8000c32c:	aaaab5b7          	lui	a1,0xaaaab
    8000c330:	aaa58593          	addi	a1,a1,-1366 # ffffffffaaaaaaaa <absimm+0xfffffffeefd9cfda>
    8000c334:	00b59593          	slli	a1,a1,0xb
    8000c338:	55558593          	addi	a1,a1,1365
    8000c33c:	00b59593          	slli	a1,a1,0xb
    8000c340:	2aa58593          	addi	a1,a1,682
    8000c344:	00a59593          	slli	a1,a1,0xa
    8000c348:	2ab58593          	addi	a1,a1,683
    8000c34c:	00b54633          	xor	a2,a0,a1
    8000c350:	2ac0b823          	sd	a2,688(ra)
    8000c354:	002ab1b7          	lui	gp,0x2ab
    8000c358:	aab1819b          	addiw	gp,gp,-1365 # 2aaaab <offset+0x2aa693>
    8000c35c:	00c19193          	slli	gp,gp,0xc
    8000c360:	aaf18193          	addi	gp,gp,-1361
    8000c364:	01019193          	slli	gp,gp,0x10
    8000c368:	28d18193          	addi	gp,gp,653
    8000c36c:	00d19193          	slli	gp,gp,0xd
    8000c370:	66518193          	addi	gp,gp,1637
    8000c374:	00c18463          	beq	gp,a2,8000c37c <inst_631>
    8000c378:	cadf306f          	j	80000024 <rvtest_error>

000000008000c37c <inst_631>:
    8000c37c:	00000537          	lui	a0,0x0
    8000c380:	fff50513          	addi	a0,a0,-1
    8000c384:	00b51513          	slli	a0,a0,0xb
    8000c388:	25750513          	addi	a0,a0,599
    8000c38c:	00b51513          	slli	a0,a0,0xb
    8000c390:	6c350513          	addi	a0,a0,1731
    8000c394:	00a51513          	slli	a0,a0,0xa
    8000c398:	0ce50513          	addi	a0,a0,206
    8000c39c:	00600593          	li	a1,6
    8000c3a0:	00b54633          	xor	a2,a0,a1
    8000c3a4:	2ac0bc23          	sd	a2,696(ra)
    8000c3a8:	fff4b1b7          	lui	gp,0xfff4b
    8000c3ac:	fb11819b          	addiw	gp,gp,-79 # fffffffffff4afb1 <absimm+0xffffffff4523d4e1>
    8000c3b0:	00c19193          	slli	gp,gp,0xc
    8000c3b4:	cc818193          	addi	gp,gp,-824
    8000c3b8:	00c18463          	beq	gp,a2,8000c3c0 <inst_632>
    8000c3bc:	c69f306f          	j	80000024 <rvtest_error>

000000008000c3c0 <inst_632>:
    8000c3c0:	00000537          	lui	a0,0x0
    8000c3c4:	fff50513          	addi	a0,a0,-1
    8000c3c8:	00b51513          	slli	a0,a0,0xb
    8000c3cc:	25750513          	addi	a0,a0,599
    8000c3d0:	00b51513          	slli	a0,a0,0xb
    8000c3d4:	6c350513          	addi	a0,a0,1731
    8000c3d8:	00a51513          	slli	a0,a0,0xa
    8000c3dc:	0ce50513          	addi	a0,a0,206
    8000c3e0:	333335b7          	lui	a1,0x33333
    8000c3e4:	33358593          	addi	a1,a1,819 # 33333333 <absimmsh+0x27862586>
    8000c3e8:	00b59593          	slli	a1,a1,0xb
    8000c3ec:	19958593          	addi	a1,a1,409
    8000c3f0:	00b59593          	slli	a1,a1,0xb
    8000c3f4:	4cc58593          	addi	a1,a1,1228
    8000c3f8:	00a59593          	slli	a1,a1,0xa
    8000c3fc:	33458593          	addi	a1,a1,820
    8000c400:	00b54633          	xor	a2,a0,a1
    8000c404:	2cc0b023          	sd	a2,704(ra)
    8000c408:	ffccd1b7          	lui	gp,0xffccd
    8000c40c:	ccd1819b          	addiw	gp,gp,-819 # ffffffffffcccccd <absimm+0xffffffff44fbf1fd>
    8000c410:	00d19193          	slli	gp,gp,0xd
    8000c414:	98f18193          	addi	gp,gp,-1649
    8000c418:	00d19193          	slli	gp,gp,0xd
    8000c41c:	72118193          	addi	gp,gp,1825
    8000c420:	00e19193          	slli	gp,gp,0xe
    8000c424:	ffa18193          	addi	gp,gp,-6
    8000c428:	00c18463          	beq	gp,a2,8000c430 <inst_633>
    8000c42c:	bf9f306f          	j	80000024 <rvtest_error>

000000008000c430 <inst_633>:
    8000c430:	00000537          	lui	a0,0x0
    8000c434:	fff50513          	addi	a0,a0,-1
    8000c438:	00b51513          	slli	a0,a0,0xb
    8000c43c:	25750513          	addi	a0,a0,599
    8000c440:	00b51513          	slli	a0,a0,0xb
    8000c444:	6c350513          	addi	a0,a0,1731
    8000c448:	00a51513          	slli	a0,a0,0xa
    8000c44c:	0ce50513          	addi	a0,a0,206
    8000c450:	666665b7          	lui	a1,0x66666
    8000c454:	66658593          	addi	a1,a1,1638 # 66666666 <absimmsh+0x5ab958b9>
    8000c458:	00b59593          	slli	a1,a1,0xb
    8000c45c:	33358593          	addi	a1,a1,819
    8000c460:	00b59593          	slli	a1,a1,0xb
    8000c464:	19958593          	addi	a1,a1,409
    8000c468:	00a59593          	slli	a1,a1,0xa
    8000c46c:	26758593          	addi	a1,a1,615
    8000c470:	00b54633          	xor	a2,a0,a1
    8000c474:	2cc0b423          	sd	a2,712(ra)
    8000c478:	fcccd1b7          	lui	gp,0xfcccd
    8000c47c:	ccd1819b          	addiw	gp,gp,-819 # fffffffffccccccd <absimm+0xffffffff41fbf1fd>
    8000c480:	00d19193          	slli	gp,gp,0xd
    8000c484:	92d18193          	addi	gp,gp,-1747
    8000c488:	00c19193          	slli	gp,gp,0xc
    8000c48c:	9d718193          	addi	gp,gp,-1577
    8000c490:	00c19193          	slli	gp,gp,0xc
    8000c494:	aa918193          	addi	gp,gp,-1367
    8000c498:	00c18463          	beq	gp,a2,8000c4a0 <inst_634>
    8000c49c:	b89f306f          	j	80000024 <rvtest_error>

000000008000c4a0 <inst_634>:
    8000c4a0:	00000537          	lui	a0,0x0
    8000c4a4:	fff50513          	addi	a0,a0,-1
    8000c4a8:	00b51513          	slli	a0,a0,0xb
    8000c4ac:	25750513          	addi	a0,a0,599
    8000c4b0:	00b51513          	slli	a0,a0,0xb
    8000c4b4:	6c350513          	addi	a0,a0,1731
    8000c4b8:	00a51513          	slli	a0,a0,0xa
    8000c4bc:	0ce50513          	addi	a0,a0,206
    8000c4c0:	000005b7          	lui	a1,0x0
    8000c4c4:	fff58593          	addi	a1,a1,-1
    8000c4c8:	00b59593          	slli	a1,a1,0xb
    8000c4cc:	25758593          	addi	a1,a1,599
    8000c4d0:	00b59593          	slli	a1,a1,0xb
    8000c4d4:	6c358593          	addi	a1,a1,1731
    8000c4d8:	00a59593          	slli	a1,a1,0xa
    8000c4dc:	0ce58593          	addi	a1,a1,206
    8000c4e0:	00b54633          	xor	a2,a0,a1
    8000c4e4:	2cc0b823          	sd	a2,720(ra)
    8000c4e8:	00000193          	li	gp,0
    8000c4ec:	00c18463          	beq	gp,a2,8000c4f4 <inst_635>
    8000c4f0:	b35f306f          	j	80000024 <rvtest_error>

000000008000c4f4 <inst_635>:
    8000c4f4:	00000537          	lui	a0,0x0
    8000c4f8:	fff50513          	addi	a0,a0,-1
    8000c4fc:	00b51513          	slli	a0,a0,0xb
    8000c500:	25750513          	addi	a0,a0,599
    8000c504:	00b51513          	slli	a0,a0,0xb
    8000c508:	6c350513          	addi	a0,a0,1731
    8000c50c:	00a51513          	slli	a0,a0,0xa
    8000c510:	0ce50513          	addi	a0,a0,206
    8000c514:	000005b7          	lui	a1,0x0
    8000c518:	00058593          	mv	a1,a1
    8000c51c:	00b59593          	slli	a1,a1,0xb
    8000c520:	5a858593          	addi	a1,a1,1448 # 5a8 <offset+0x190>
    8000c524:	00b59593          	slli	a1,a1,0xb
    8000c528:	13c58593          	addi	a1,a1,316
    8000c52c:	00a59593          	slli	a1,a1,0xa
    8000c530:	33458593          	addi	a1,a1,820
    8000c534:	00b54633          	xor	a2,a0,a1
    8000c538:	2cc0bc23          	sd	a2,728(ra)
    8000c53c:	ffa00193          	li	gp,-6
    8000c540:	00c18463          	beq	gp,a2,8000c548 <inst_636>
    8000c544:	ae1f306f          	j	80000024 <rvtest_error>

000000008000c548 <inst_636>:
    8000c548:	00000537          	lui	a0,0x0
    8000c54c:	00050513          	mv	a0,a0
    8000c550:	00b51513          	slli	a0,a0,0xb
    8000c554:	5a850513          	addi	a0,a0,1448 # 5a8 <offset+0x190>
    8000c558:	00b51513          	slli	a0,a0,0xb
    8000c55c:	13c50513          	addi	a0,a0,316
    8000c560:	00a51513          	slli	a0,a0,0xa
    8000c564:	33450513          	addi	a0,a0,820
    8000c568:	00300593          	li	a1,3
    8000c56c:	00b54633          	xor	a2,a0,a1
    8000c570:	2ec0b023          	sd	a2,736(ra)
    8000c574:	000b51b7          	lui	gp,0xb5
    8000c578:	04f1819b          	addiw	gp,gp,79 # b504f <offset+0xb4c37>
    8000c57c:	00c19193          	slli	gp,gp,0xc
    8000c580:	33718193          	addi	gp,gp,823
    8000c584:	00c18463          	beq	gp,a2,8000c58c <inst_637>
    8000c588:	a9df306f          	j	80000024 <rvtest_error>

000000008000c58c <inst_637>:
    8000c58c:	00000537          	lui	a0,0x0
    8000c590:	00050513          	mv	a0,a0
    8000c594:	00b51513          	slli	a0,a0,0xb
    8000c598:	5a850513          	addi	a0,a0,1448 # 5a8 <offset+0x190>
    8000c59c:	00b51513          	slli	a0,a0,0xb
    8000c5a0:	13c50513          	addi	a0,a0,316
    8000c5a4:	00a51513          	slli	a0,a0,0xa
    8000c5a8:	33450513          	addi	a0,a0,820
    8000c5ac:	555555b7          	lui	a1,0x55555
    8000c5b0:	55558593          	addi	a1,a1,1365 # 55555555 <absimmsh+0x49a847a8>
    8000c5b4:	00b59593          	slli	a1,a1,0xb
    8000c5b8:	2aa58593          	addi	a1,a1,682
    8000c5bc:	00b59593          	slli	a1,a1,0xb
    8000c5c0:	55558593          	addi	a1,a1,1365
    8000c5c4:	00a59593          	slli	a1,a1,0xa
    8000c5c8:	15558593          	addi	a1,a1,341
    8000c5cc:	00b54633          	xor	a2,a0,a1
    8000c5d0:	2ec0b423          	sd	a2,744(ra)
    8000c5d4:	002ab1b7          	lui	gp,0x2ab
    8000c5d8:	aab1819b          	addiw	gp,gp,-1365 # 2aaaab <offset+0x2aa693>
    8000c5dc:	00c19193          	slli	gp,gp,0xc
    8000c5e0:	aaf18193          	addi	gp,gp,-1361
    8000c5e4:	01019193          	slli	gp,gp,0x10
    8000c5e8:	28d18193          	addi	gp,gp,653
    8000c5ec:	00d19193          	slli	gp,gp,0xd
    8000c5f0:	66118193          	addi	gp,gp,1633
    8000c5f4:	00c18463          	beq	gp,a2,8000c5fc <inst_638>
    8000c5f8:	a2df306f          	j	80000024 <rvtest_error>

000000008000c5fc <inst_638>:
    8000c5fc:	00000537          	lui	a0,0x0
    8000c600:	00050513          	mv	a0,a0
    8000c604:	00b51513          	slli	a0,a0,0xb
    8000c608:	5a850513          	addi	a0,a0,1448 # 5a8 <offset+0x190>
    8000c60c:	00b51513          	slli	a0,a0,0xb
    8000c610:	13c50513          	addi	a0,a0,316
    8000c614:	00a51513          	slli	a0,a0,0xa
    8000c618:	33450513          	addi	a0,a0,820
    8000c61c:	aaaab5b7          	lui	a1,0xaaaab
    8000c620:	aaa58593          	addi	a1,a1,-1366 # ffffffffaaaaaaaa <absimm+0xfffffffeefd9cfda>
    8000c624:	00b59593          	slli	a1,a1,0xb
    8000c628:	55558593          	addi	a1,a1,1365
    8000c62c:	00b59593          	slli	a1,a1,0xb
    8000c630:	2aa58593          	addi	a1,a1,682
    8000c634:	00a59593          	slli	a1,a1,0xa
    8000c638:	2aa58593          	addi	a1,a1,682
    8000c63c:	00b54633          	xor	a2,a0,a1
    8000c640:	2ec0b823          	sd	a2,752(ra)
    8000c644:	ffd551b7          	lui	gp,0xffd55
    8000c648:	5551819b          	addiw	gp,gp,1365 # ffffffffffd55555 <absimm+0xffffffff45047a85>
    8000c64c:	00c19193          	slli	gp,gp,0xc
    8000c650:	55118193          	addi	gp,gp,1361
    8000c654:	01019193          	slli	gp,gp,0x10
    8000c658:	d7318193          	addi	gp,gp,-653
    8000c65c:	00d19193          	slli	gp,gp,0xd
    8000c660:	99e18193          	addi	gp,gp,-1634
    8000c664:	00c18463          	beq	gp,a2,8000c66c <inst_639>
    8000c668:	9bdf306f          	j	80000024 <rvtest_error>

000000008000c66c <inst_639>:
    8000c66c:	00000537          	lui	a0,0x0
    8000c670:	00050513          	mv	a0,a0
    8000c674:	00b51513          	slli	a0,a0,0xb
    8000c678:	5a850513          	addi	a0,a0,1448 # 5a8 <offset+0x190>
    8000c67c:	00b51513          	slli	a0,a0,0xb
    8000c680:	13c50513          	addi	a0,a0,316
    8000c684:	00a51513          	slli	a0,a0,0xa
    8000c688:	33450513          	addi	a0,a0,820
    8000c68c:	00500593          	li	a1,5
    8000c690:	00b54633          	xor	a2,a0,a1
    8000c694:	2ec0bc23          	sd	a2,760(ra)
    8000c698:	000b51b7          	lui	gp,0xb5
    8000c69c:	04f1819b          	addiw	gp,gp,79 # b504f <offset+0xb4c37>
    8000c6a0:	00c19193          	slli	gp,gp,0xc
    8000c6a4:	33118193          	addi	gp,gp,817
    8000c6a8:	00c18463          	beq	gp,a2,8000c6b0 <inst_640>
    8000c6ac:	979f306f          	j	80000024 <rvtest_error>

000000008000c6b0 <inst_640>:
    8000c6b0:	00000537          	lui	a0,0x0
    8000c6b4:	00050513          	mv	a0,a0
    8000c6b8:	00b51513          	slli	a0,a0,0xb
    8000c6bc:	5a850513          	addi	a0,a0,1448 # 5a8 <offset+0x190>
    8000c6c0:	00b51513          	slli	a0,a0,0xb
    8000c6c4:	13c50513          	addi	a0,a0,316
    8000c6c8:	00a51513          	slli	a0,a0,0xa
    8000c6cc:	33450513          	addi	a0,a0,820
    8000c6d0:	333335b7          	lui	a1,0x33333
    8000c6d4:	33358593          	addi	a1,a1,819 # 33333333 <absimmsh+0x27862586>
    8000c6d8:	00b59593          	slli	a1,a1,0xb
    8000c6dc:	19958593          	addi	a1,a1,409
    8000c6e0:	00b59593          	slli	a1,a1,0xb
    8000c6e4:	4cc58593          	addi	a1,a1,1228
    8000c6e8:	00a59593          	slli	a1,a1,0xa
    8000c6ec:	33358593          	addi	a1,a1,819
    8000c6f0:	00b54633          	xor	a2,a0,a1
    8000c6f4:	30c0b023          	sd	a2,768(ra)
    8000c6f8:	003331b7          	lui	gp,0x333
    8000c6fc:	3331819b          	addiw	gp,gp,819 # 333333 <offset+0x332f1b>
    8000c700:	00d19193          	slli	gp,gp,0xd
    8000c704:	67118193          	addi	gp,gp,1649
    8000c708:	00d19193          	slli	gp,gp,0xd
    8000c70c:	8df18193          	addi	gp,gp,-1825
    8000c710:	00e19193          	slli	gp,gp,0xe
    8000c714:	00718193          	addi	gp,gp,7
    8000c718:	00c18463          	beq	gp,a2,8000c720 <inst_641>
    8000c71c:	909f306f          	j	80000024 <rvtest_error>

000000008000c720 <inst_641>:
    8000c720:	00000537          	lui	a0,0x0
    8000c724:	00050513          	mv	a0,a0
    8000c728:	00b51513          	slli	a0,a0,0xb
    8000c72c:	5a850513          	addi	a0,a0,1448 # 5a8 <offset+0x190>
    8000c730:	00b51513          	slli	a0,a0,0xb
    8000c734:	13c50513          	addi	a0,a0,316
    8000c738:	00a51513          	slli	a0,a0,0xa
    8000c73c:	33450513          	addi	a0,a0,820
    8000c740:	666665b7          	lui	a1,0x66666
    8000c744:	66658593          	addi	a1,a1,1638 # 66666666 <absimmsh+0x5ab958b9>
    8000c748:	00b59593          	slli	a1,a1,0xb
    8000c74c:	33358593          	addi	a1,a1,819
    8000c750:	00b59593          	slli	a1,a1,0xb
    8000c754:	19958593          	addi	a1,a1,409
    8000c758:	00a59593          	slli	a1,a1,0xa
    8000c75c:	26658593          	addi	a1,a1,614
    8000c760:	00b54633          	xor	a2,a0,a1
    8000c764:	30c0b423          	sd	a2,776(ra)
    8000c768:	033331b7          	lui	gp,0x3333
    8000c76c:	3331819b          	addiw	gp,gp,819 # 3333333 <offset+0x3332f1b>
    8000c770:	00d19193          	slli	gp,gp,0xd
    8000c774:	6d318193          	addi	gp,gp,1747
    8000c778:	00c19193          	slli	gp,gp,0xc
    8000c77c:	62918193          	addi	gp,gp,1577
    8000c780:	00c19193          	slli	gp,gp,0xc
    8000c784:	55218193          	addi	gp,gp,1362
    8000c788:	00c18463          	beq	gp,a2,8000c790 <inst_642>
    8000c78c:	899f306f          	j	80000024 <rvtest_error>

000000008000c790 <inst_642>:
    8000c790:	00000537          	lui	a0,0x0
    8000c794:	00050513          	mv	a0,a0
    8000c798:	00b51513          	slli	a0,a0,0xb
    8000c79c:	5a850513          	addi	a0,a0,1448 # 5a8 <offset+0x190>
    8000c7a0:	00b51513          	slli	a0,a0,0xb
    8000c7a4:	13c50513          	addi	a0,a0,316
    8000c7a8:	00a51513          	slli	a0,a0,0xa
    8000c7ac:	33450513          	addi	a0,a0,820
    8000c7b0:	000005b7          	lui	a1,0x0
    8000c7b4:	fff58593          	addi	a1,a1,-1
    8000c7b8:	00b59593          	slli	a1,a1,0xb
    8000c7bc:	25758593          	addi	a1,a1,599
    8000c7c0:	00b59593          	slli	a1,a1,0xb
    8000c7c4:	6c358593          	addi	a1,a1,1731
    8000c7c8:	00a59593          	slli	a1,a1,0xa
    8000c7cc:	0cd58593          	addi	a1,a1,205
    8000c7d0:	00b54633          	xor	a2,a0,a1
    8000c7d4:	30c0b823          	sd	a2,784(ra)
    8000c7d8:	ff900193          	li	gp,-7
    8000c7dc:	00c18463          	beq	gp,a2,8000c7e4 <inst_643>
    8000c7e0:	845f306f          	j	80000024 <rvtest_error>

000000008000c7e4 <inst_643>:
    8000c7e4:	00000537          	lui	a0,0x0
    8000c7e8:	00050513          	mv	a0,a0
    8000c7ec:	00b51513          	slli	a0,a0,0xb
    8000c7f0:	5a850513          	addi	a0,a0,1448 # 5a8 <offset+0x190>
    8000c7f4:	00b51513          	slli	a0,a0,0xb
    8000c7f8:	13c50513          	addi	a0,a0,316
    8000c7fc:	00a51513          	slli	a0,a0,0xa
    8000c800:	33450513          	addi	a0,a0,820
    8000c804:	000005b7          	lui	a1,0x0
    8000c808:	00058593          	mv	a1,a1
    8000c80c:	00b59593          	slli	a1,a1,0xb
    8000c810:	5a858593          	addi	a1,a1,1448 # 5a8 <offset+0x190>
    8000c814:	00b59593          	slli	a1,a1,0xb
    8000c818:	13c58593          	addi	a1,a1,316
    8000c81c:	00a59593          	slli	a1,a1,0xa
    8000c820:	33358593          	addi	a1,a1,819
    8000c824:	00b54633          	xor	a2,a0,a1
    8000c828:	30c0bc23          	sd	a2,792(ra)
    8000c82c:	00700193          	li	gp,7
    8000c830:	00c18463          	beq	gp,a2,8000c838 <inst_644>
    8000c834:	ff0f306f          	j	80000024 <rvtest_error>

000000008000c838 <inst_644>:
    8000c838:	00000537          	lui	a0,0x0
    8000c83c:	00050513          	mv	a0,a0
    8000c840:	00b51513          	slli	a0,a0,0xb
    8000c844:	5a850513          	addi	a0,a0,1448 # 5a8 <offset+0x190>
    8000c848:	00b51513          	slli	a0,a0,0xb
    8000c84c:	13c50513          	addi	a0,a0,316
    8000c850:	00a51513          	slli	a0,a0,0xa
    8000c854:	33450513          	addi	a0,a0,820
    8000c858:	00200593          	li	a1,2
    8000c85c:	00b54633          	xor	a2,a0,a1
    8000c860:	32c0b023          	sd	a2,800(ra)
    8000c864:	000b51b7          	lui	gp,0xb5
    8000c868:	04f1819b          	addiw	gp,gp,79 # b504f <offset+0xb4c37>
    8000c86c:	00c19193          	slli	gp,gp,0xc
    8000c870:	33618193          	addi	gp,gp,822
    8000c874:	00c18463          	beq	gp,a2,8000c87c <inst_645>
    8000c878:	facf306f          	j	80000024 <rvtest_error>

000000008000c87c <inst_645>:
    8000c87c:	00000537          	lui	a0,0x0
    8000c880:	00050513          	mv	a0,a0
    8000c884:	00b51513          	slli	a0,a0,0xb
    8000c888:	5a850513          	addi	a0,a0,1448 # 5a8 <offset+0x190>
    8000c88c:	00b51513          	slli	a0,a0,0xb
    8000c890:	13c50513          	addi	a0,a0,316
    8000c894:	00a51513          	slli	a0,a0,0xa
    8000c898:	33450513          	addi	a0,a0,820
    8000c89c:	555555b7          	lui	a1,0x55555
    8000c8a0:	55558593          	addi	a1,a1,1365 # 55555555 <absimmsh+0x49a847a8>
    8000c8a4:	00b59593          	slli	a1,a1,0xb
    8000c8a8:	2aa58593          	addi	a1,a1,682
    8000c8ac:	00b59593          	slli	a1,a1,0xb
    8000c8b0:	55558593          	addi	a1,a1,1365
    8000c8b4:	00a59593          	slli	a1,a1,0xa
    8000c8b8:	15458593          	addi	a1,a1,340
    8000c8bc:	00b54633          	xor	a2,a0,a1
    8000c8c0:	32c0b423          	sd	a2,808(ra)
    8000c8c4:	002ab1b7          	lui	gp,0x2ab
    8000c8c8:	aab1819b          	addiw	gp,gp,-1365 # 2aaaab <offset+0x2aa693>
    8000c8cc:	00c19193          	slli	gp,gp,0xc
    8000c8d0:	aaf18193          	addi	gp,gp,-1361
    8000c8d4:	01019193          	slli	gp,gp,0x10
    8000c8d8:	28d18193          	addi	gp,gp,653
    8000c8dc:	00d19193          	slli	gp,gp,0xd
    8000c8e0:	66018193          	addi	gp,gp,1632
    8000c8e4:	00c18463          	beq	gp,a2,8000c8ec <inst_646>
    8000c8e8:	f3cf306f          	j	80000024 <rvtest_error>

000000008000c8ec <inst_646>:
    8000c8ec:	00000537          	lui	a0,0x0
    8000c8f0:	00050513          	mv	a0,a0
    8000c8f4:	00b51513          	slli	a0,a0,0xb
    8000c8f8:	5a850513          	addi	a0,a0,1448 # 5a8 <offset+0x190>
    8000c8fc:	00b51513          	slli	a0,a0,0xb
    8000c900:	13c50513          	addi	a0,a0,316
    8000c904:	00a51513          	slli	a0,a0,0xa
    8000c908:	33450513          	addi	a0,a0,820
    8000c90c:	00000593          	li	a1,0
    8000c910:	00b54633          	xor	a2,a0,a1
    8000c914:	32c0b823          	sd	a2,816(ra)
    8000c918:	000b51b7          	lui	gp,0xb5
    8000c91c:	04f1819b          	addiw	gp,gp,79 # b504f <offset+0xb4c37>
    8000c920:	00c19193          	slli	gp,gp,0xc
    8000c924:	33418193          	addi	gp,gp,820
    8000c928:	00c18463          	beq	gp,a2,8000c930 <inst_647>
    8000c92c:	ef8f306f          	j	80000024 <rvtest_error>

000000008000c930 <inst_647>:
    8000c930:	00000537          	lui	a0,0x0
    8000c934:	00050513          	mv	a0,a0
    8000c938:	00b51513          	slli	a0,a0,0xb
    8000c93c:	5a850513          	addi	a0,a0,1448 # 5a8 <offset+0x190>
    8000c940:	00b51513          	slli	a0,a0,0xb
    8000c944:	13c50513          	addi	a0,a0,316
    8000c948:	00a51513          	slli	a0,a0,0xa
    8000c94c:	33450513          	addi	a0,a0,820
    8000c950:	00400593          	li	a1,4
    8000c954:	00b54633          	xor	a2,a0,a1
    8000c958:	32c0bc23          	sd	a2,824(ra)
    8000c95c:	000b51b7          	lui	gp,0xb5
    8000c960:	04f1819b          	addiw	gp,gp,79 # b504f <offset+0xb4c37>
    8000c964:	00c19193          	slli	gp,gp,0xc
    8000c968:	33018193          	addi	gp,gp,816
    8000c96c:	00c18463          	beq	gp,a2,8000c974 <inst_648>
    8000c970:	eb4f306f          	j	80000024 <rvtest_error>

000000008000c974 <inst_648>:
    8000c974:	00000537          	lui	a0,0x0
    8000c978:	00050513          	mv	a0,a0
    8000c97c:	00b51513          	slli	a0,a0,0xb
    8000c980:	5a850513          	addi	a0,a0,1448 # 5a8 <offset+0x190>
    8000c984:	00b51513          	slli	a0,a0,0xb
    8000c988:	13c50513          	addi	a0,a0,316
    8000c98c:	00a51513          	slli	a0,a0,0xa
    8000c990:	33450513          	addi	a0,a0,820
    8000c994:	333335b7          	lui	a1,0x33333
    8000c998:	33358593          	addi	a1,a1,819 # 33333333 <absimmsh+0x27862586>
    8000c99c:	00b59593          	slli	a1,a1,0xb
    8000c9a0:	19958593          	addi	a1,a1,409
    8000c9a4:	00b59593          	slli	a1,a1,0xb
    8000c9a8:	4cc58593          	addi	a1,a1,1228
    8000c9ac:	00a59593          	slli	a1,a1,0xa
    8000c9b0:	33258593          	addi	a1,a1,818
    8000c9b4:	00b54633          	xor	a2,a0,a1
    8000c9b8:	34c0b023          	sd	a2,832(ra)
    8000c9bc:	003331b7          	lui	gp,0x333
    8000c9c0:	3331819b          	addiw	gp,gp,819 # 333333 <offset+0x332f1b>
    8000c9c4:	00d19193          	slli	gp,gp,0xd
    8000c9c8:	67118193          	addi	gp,gp,1649
    8000c9cc:	00d19193          	slli	gp,gp,0xd
    8000c9d0:	8df18193          	addi	gp,gp,-1825
    8000c9d4:	00e19193          	slli	gp,gp,0xe
    8000c9d8:	00618193          	addi	gp,gp,6
    8000c9dc:	00c18463          	beq	gp,a2,8000c9e4 <inst_649>
    8000c9e0:	e44f306f          	j	80000024 <rvtest_error>

000000008000c9e4 <inst_649>:
    8000c9e4:	00000537          	lui	a0,0x0
    8000c9e8:	00050513          	mv	a0,a0
    8000c9ec:	00b51513          	slli	a0,a0,0xb
    8000c9f0:	5a850513          	addi	a0,a0,1448 # 5a8 <offset+0x190>
    8000c9f4:	00b51513          	slli	a0,a0,0xb
    8000c9f8:	13c50513          	addi	a0,a0,316
    8000c9fc:	00a51513          	slli	a0,a0,0xa
    8000ca00:	33450513          	addi	a0,a0,820
    8000ca04:	666665b7          	lui	a1,0x66666
    8000ca08:	66658593          	addi	a1,a1,1638 # 66666666 <absimmsh+0x5ab958b9>
    8000ca0c:	00b59593          	slli	a1,a1,0xb
    8000ca10:	33358593          	addi	a1,a1,819
    8000ca14:	00b59593          	slli	a1,a1,0xb
    8000ca18:	19958593          	addi	a1,a1,409
    8000ca1c:	00a59593          	slli	a1,a1,0xa
    8000ca20:	26558593          	addi	a1,a1,613
    8000ca24:	00b54633          	xor	a2,a0,a1
    8000ca28:	34c0b423          	sd	a2,840(ra)
    8000ca2c:	033331b7          	lui	gp,0x3333
    8000ca30:	3331819b          	addiw	gp,gp,819 # 3333333 <offset+0x3332f1b>
    8000ca34:	00d19193          	slli	gp,gp,0xd
    8000ca38:	6d318193          	addi	gp,gp,1747
    8000ca3c:	00c19193          	slli	gp,gp,0xc
    8000ca40:	62918193          	addi	gp,gp,1577
    8000ca44:	00c19193          	slli	gp,gp,0xc
    8000ca48:	55118193          	addi	gp,gp,1361
    8000ca4c:	00c18463          	beq	gp,a2,8000ca54 <inst_650>
    8000ca50:	dd4f306f          	j	80000024 <rvtest_error>

000000008000ca54 <inst_650>:
    8000ca54:	00000537          	lui	a0,0x0
    8000ca58:	00050513          	mv	a0,a0
    8000ca5c:	00b51513          	slli	a0,a0,0xb
    8000ca60:	5a850513          	addi	a0,a0,1448 # 5a8 <offset+0x190>
    8000ca64:	00b51513          	slli	a0,a0,0xb
    8000ca68:	13c50513          	addi	a0,a0,316
    8000ca6c:	00a51513          	slli	a0,a0,0xa
    8000ca70:	33450513          	addi	a0,a0,820
    8000ca74:	000005b7          	lui	a1,0x0
    8000ca78:	00058593          	mv	a1,a1
    8000ca7c:	00b59593          	slli	a1,a1,0xb
    8000ca80:	5a858593          	addi	a1,a1,1448 # 5a8 <offset+0x190>
    8000ca84:	00b59593          	slli	a1,a1,0xb
    8000ca88:	13c58593          	addi	a1,a1,316
    8000ca8c:	00a59593          	slli	a1,a1,0xa
    8000ca90:	33258593          	addi	a1,a1,818
    8000ca94:	00b54633          	xor	a2,a0,a1
    8000ca98:	34c0b823          	sd	a2,848(ra)
    8000ca9c:	00600193          	li	gp,6
    8000caa0:	00c18463          	beq	gp,a2,8000caa8 <inst_651>
    8000caa4:	d80f306f          	j	80000024 <rvtest_error>

000000008000caa8 <inst_651>:
    8000caa8:	00000537          	lui	a0,0x0
    8000caac:	00050513          	mv	a0,a0
    8000cab0:	00b51513          	slli	a0,a0,0xb
    8000cab4:	5a850513          	addi	a0,a0,1448 # 5a8 <offset+0x190>
    8000cab8:	00b51513          	slli	a0,a0,0xb
    8000cabc:	13c50513          	addi	a0,a0,316
    8000cac0:	00a51513          	slli	a0,a0,0xa
    8000cac4:	33450513          	addi	a0,a0,820
    8000cac8:	555555b7          	lui	a1,0x55555
    8000cacc:	55558593          	addi	a1,a1,1365 # 55555555 <absimmsh+0x49a847a8>
    8000cad0:	00b59593          	slli	a1,a1,0xb
    8000cad4:	2aa58593          	addi	a1,a1,682
    8000cad8:	00b59593          	slli	a1,a1,0xb
    8000cadc:	55558593          	addi	a1,a1,1365
    8000cae0:	00a59593          	slli	a1,a1,0xa
    8000cae4:	15658593          	addi	a1,a1,342
    8000cae8:	00b54633          	xor	a2,a0,a1
    8000caec:	34c0bc23          	sd	a2,856(ra)
    8000caf0:	002ab1b7          	lui	gp,0x2ab
    8000caf4:	aab1819b          	addiw	gp,gp,-1365 # 2aaaab <offset+0x2aa693>
    8000caf8:	00c19193          	slli	gp,gp,0xc
    8000cafc:	aaf18193          	addi	gp,gp,-1361
    8000cb00:	01019193          	slli	gp,gp,0x10
    8000cb04:	28d18193          	addi	gp,gp,653
    8000cb08:	00d19193          	slli	gp,gp,0xd
    8000cb0c:	66218193          	addi	gp,gp,1634
    8000cb10:	00c18463          	beq	gp,a2,8000cb18 <inst_652>
    8000cb14:	d10f306f          	j	80000024 <rvtest_error>

000000008000cb18 <inst_652>:
    8000cb18:	00000537          	lui	a0,0x0
    8000cb1c:	00050513          	mv	a0,a0
    8000cb20:	00b51513          	slli	a0,a0,0xb
    8000cb24:	5a850513          	addi	a0,a0,1448 # 5a8 <offset+0x190>
    8000cb28:	00b51513          	slli	a0,a0,0xb
    8000cb2c:	13c50513          	addi	a0,a0,316
    8000cb30:	00a51513          	slli	a0,a0,0xa
    8000cb34:	33450513          	addi	a0,a0,820
    8000cb38:	aaaab5b7          	lui	a1,0xaaaab
    8000cb3c:	aaa58593          	addi	a1,a1,-1366 # ffffffffaaaaaaaa <absimm+0xfffffffeefd9cfda>
    8000cb40:	00b59593          	slli	a1,a1,0xb
    8000cb44:	55558593          	addi	a1,a1,1365
    8000cb48:	00b59593          	slli	a1,a1,0xb
    8000cb4c:	2aa58593          	addi	a1,a1,682
    8000cb50:	00a59593          	slli	a1,a1,0xa
    8000cb54:	2ab58593          	addi	a1,a1,683
    8000cb58:	00b54633          	xor	a2,a0,a1
    8000cb5c:	36c0b023          	sd	a2,864(ra)
    8000cb60:	ffd551b7          	lui	gp,0xffd55
    8000cb64:	5551819b          	addiw	gp,gp,1365 # ffffffffffd55555 <absimm+0xffffffff45047a85>
    8000cb68:	00c19193          	slli	gp,gp,0xc
    8000cb6c:	55118193          	addi	gp,gp,1361
    8000cb70:	01019193          	slli	gp,gp,0x10
    8000cb74:	d7318193          	addi	gp,gp,-653
    8000cb78:	00d19193          	slli	gp,gp,0xd
    8000cb7c:	99f18193          	addi	gp,gp,-1633
    8000cb80:	00c18463          	beq	gp,a2,8000cb88 <inst_653>
    8000cb84:	ca0f306f          	j	80000024 <rvtest_error>

000000008000cb88 <inst_653>:
    8000cb88:	00000537          	lui	a0,0x0
    8000cb8c:	00050513          	mv	a0,a0
    8000cb90:	00b51513          	slli	a0,a0,0xb
    8000cb94:	5a850513          	addi	a0,a0,1448 # 5a8 <offset+0x190>
    8000cb98:	00b51513          	slli	a0,a0,0xb
    8000cb9c:	13c50513          	addi	a0,a0,316
    8000cba0:	00a51513          	slli	a0,a0,0xa
    8000cba4:	33450513          	addi	a0,a0,820
    8000cba8:	00600593          	li	a1,6
    8000cbac:	00b54633          	xor	a2,a0,a1
    8000cbb0:	36c0b423          	sd	a2,872(ra)
    8000cbb4:	000b51b7          	lui	gp,0xb5
    8000cbb8:	04f1819b          	addiw	gp,gp,79 # b504f <offset+0xb4c37>
    8000cbbc:	00c19193          	slli	gp,gp,0xc
    8000cbc0:	33218193          	addi	gp,gp,818
    8000cbc4:	00c18463          	beq	gp,a2,8000cbcc <inst_654>
    8000cbc8:	c5cf306f          	j	80000024 <rvtest_error>

000000008000cbcc <inst_654>:
    8000cbcc:	00000537          	lui	a0,0x0
    8000cbd0:	00050513          	mv	a0,a0
    8000cbd4:	00b51513          	slli	a0,a0,0xb
    8000cbd8:	5a850513          	addi	a0,a0,1448 # 5a8 <offset+0x190>
    8000cbdc:	00b51513          	slli	a0,a0,0xb
    8000cbe0:	13c50513          	addi	a0,a0,316
    8000cbe4:	00a51513          	slli	a0,a0,0xa
    8000cbe8:	33450513          	addi	a0,a0,820
    8000cbec:	333335b7          	lui	a1,0x33333
    8000cbf0:	33358593          	addi	a1,a1,819 # 33333333 <absimmsh+0x27862586>
    8000cbf4:	00b59593          	slli	a1,a1,0xb
    8000cbf8:	19958593          	addi	a1,a1,409
    8000cbfc:	00b59593          	slli	a1,a1,0xb
    8000cc00:	4cc58593          	addi	a1,a1,1228
    8000cc04:	00a59593          	slli	a1,a1,0xa
    8000cc08:	33458593          	addi	a1,a1,820
    8000cc0c:	00b54633          	xor	a2,a0,a1
    8000cc10:	36c0b823          	sd	a2,880(ra)
    8000cc14:	003331b7          	lui	gp,0x333
    8000cc18:	3331819b          	addiw	gp,gp,819 # 333333 <offset+0x332f1b>
    8000cc1c:	00d19193          	slli	gp,gp,0xd
    8000cc20:	67118193          	addi	gp,gp,1649
    8000cc24:	00d19193          	slli	gp,gp,0xd
    8000cc28:	8df18193          	addi	gp,gp,-1825
    8000cc2c:	00e19193          	slli	gp,gp,0xe
    8000cc30:	00c18463          	beq	gp,a2,8000cc38 <inst_655>
    8000cc34:	bf0f306f          	j	80000024 <rvtest_error>

000000008000cc38 <inst_655>:
    8000cc38:	00000537          	lui	a0,0x0
    8000cc3c:	00050513          	mv	a0,a0
    8000cc40:	00b51513          	slli	a0,a0,0xb
    8000cc44:	5a850513          	addi	a0,a0,1448 # 5a8 <offset+0x190>
    8000cc48:	00b51513          	slli	a0,a0,0xb
    8000cc4c:	13c50513          	addi	a0,a0,316
    8000cc50:	00a51513          	slli	a0,a0,0xa
    8000cc54:	33450513          	addi	a0,a0,820
    8000cc58:	666665b7          	lui	a1,0x66666
    8000cc5c:	66658593          	addi	a1,a1,1638 # 66666666 <absimmsh+0x5ab958b9>
    8000cc60:	00b59593          	slli	a1,a1,0xb
    8000cc64:	33358593          	addi	a1,a1,819
    8000cc68:	00b59593          	slli	a1,a1,0xb
    8000cc6c:	19958593          	addi	a1,a1,409
    8000cc70:	00a59593          	slli	a1,a1,0xa
    8000cc74:	26758593          	addi	a1,a1,615
    8000cc78:	00b54633          	xor	a2,a0,a1
    8000cc7c:	36c0bc23          	sd	a2,888(ra)
    8000cc80:	033331b7          	lui	gp,0x3333
    8000cc84:	3331819b          	addiw	gp,gp,819 # 3333333 <offset+0x3332f1b>
    8000cc88:	00d19193          	slli	gp,gp,0xd
    8000cc8c:	6d318193          	addi	gp,gp,1747
    8000cc90:	00c19193          	slli	gp,gp,0xc
    8000cc94:	62918193          	addi	gp,gp,1577
    8000cc98:	00c19193          	slli	gp,gp,0xc
    8000cc9c:	55318193          	addi	gp,gp,1363
    8000cca0:	00c18463          	beq	gp,a2,8000cca8 <inst_656>
    8000cca4:	b80f306f          	j	80000024 <rvtest_error>

000000008000cca8 <inst_656>:
    8000cca8:	00000537          	lui	a0,0x0
    8000ccac:	00050513          	mv	a0,a0
    8000ccb0:	00b51513          	slli	a0,a0,0xb
    8000ccb4:	5a850513          	addi	a0,a0,1448 # 5a8 <offset+0x190>
    8000ccb8:	00b51513          	slli	a0,a0,0xb
    8000ccbc:	13c50513          	addi	a0,a0,316
    8000ccc0:	00a51513          	slli	a0,a0,0xa
    8000ccc4:	33450513          	addi	a0,a0,820
    8000ccc8:	000005b7          	lui	a1,0x0
    8000cccc:	fff58593          	addi	a1,a1,-1
    8000ccd0:	00b59593          	slli	a1,a1,0xb
    8000ccd4:	25758593          	addi	a1,a1,599
    8000ccd8:	00b59593          	slli	a1,a1,0xb
    8000ccdc:	6c358593          	addi	a1,a1,1731
    8000cce0:	00a59593          	slli	a1,a1,0xa
    8000cce4:	0ce58593          	addi	a1,a1,206
    8000cce8:	00b54633          	xor	a2,a0,a1
    8000ccec:	38c0b023          	sd	a2,896(ra)
    8000ccf0:	ffa00193          	li	gp,-6
    8000ccf4:	00c18463          	beq	gp,a2,8000ccfc <inst_657>
    8000ccf8:	b2cf306f          	j	80000024 <rvtest_error>

000000008000ccfc <inst_657>:
    8000ccfc:	00000537          	lui	a0,0x0
    8000cd00:	00050513          	mv	a0,a0
    8000cd04:	00b51513          	slli	a0,a0,0xb
    8000cd08:	5a850513          	addi	a0,a0,1448 # 5a8 <offset+0x190>
    8000cd0c:	00b51513          	slli	a0,a0,0xb
    8000cd10:	13c50513          	addi	a0,a0,316
    8000cd14:	00a51513          	slli	a0,a0,0xa
    8000cd18:	33450513          	addi	a0,a0,820
    8000cd1c:	000005b7          	lui	a1,0x0
    8000cd20:	00058593          	mv	a1,a1
    8000cd24:	00b59593          	slli	a1,a1,0xb
    8000cd28:	5a858593          	addi	a1,a1,1448 # 5a8 <offset+0x190>
    8000cd2c:	00b59593          	slli	a1,a1,0xb
    8000cd30:	13c58593          	addi	a1,a1,316
    8000cd34:	00a59593          	slli	a1,a1,0xa
    8000cd38:	33458593          	addi	a1,a1,820
    8000cd3c:	00b54633          	xor	a2,a0,a1
    8000cd40:	38c0b423          	sd	a2,904(ra)
    8000cd44:	00000193          	li	gp,0
    8000cd48:	00c18463          	beq	gp,a2,8000cd50 <inst_658>
    8000cd4c:	ad8f306f          	j	80000024 <rvtest_error>

000000008000cd50 <inst_658>:
    8000cd50:	00000513          	li	a0,0
    8000cd54:	00200593          	li	a1,2
    8000cd58:	00b54633          	xor	a2,a0,a1
    8000cd5c:	38c0b823          	sd	a2,912(ra)
    8000cd60:	00200193          	li	gp,2
    8000cd64:	00c18463          	beq	gp,a2,8000cd6c <inst_659>
    8000cd68:	abcf306f          	j	80000024 <rvtest_error>

000000008000cd6c <inst_659>:
    8000cd6c:	00000513          	li	a0,0
    8000cd70:	555555b7          	lui	a1,0x55555
    8000cd74:	55558593          	addi	a1,a1,1365 # 55555555 <absimmsh+0x49a847a8>
    8000cd78:	00b59593          	slli	a1,a1,0xb
    8000cd7c:	2aa58593          	addi	a1,a1,682
    8000cd80:	00b59593          	slli	a1,a1,0xb
    8000cd84:	55558593          	addi	a1,a1,1365
    8000cd88:	00a59593          	slli	a1,a1,0xa
    8000cd8c:	15458593          	addi	a1,a1,340
    8000cd90:	00b54633          	xor	a2,a0,a1
    8000cd94:	38c0bc23          	sd	a2,920(ra)
    8000cd98:	055551b7          	lui	gp,0x5555
    8000cd9c:	5551819b          	addiw	gp,gp,1365 # 5555555 <offset+0x555513d>
    8000cda0:	00c19193          	slli	gp,gp,0xc
    8000cda4:	55518193          	addi	gp,gp,1365
    8000cda8:	00c19193          	slli	gp,gp,0xc
    8000cdac:	55518193          	addi	gp,gp,1365
    8000cdb0:	00c19193          	slli	gp,gp,0xc
    8000cdb4:	55418193          	addi	gp,gp,1364
    8000cdb8:	00c18463          	beq	gp,a2,8000cdc0 <inst_660>
    8000cdbc:	a68f306f          	j	80000024 <rvtest_error>

000000008000cdc0 <inst_660>:
    8000cdc0:	00000513          	li	a0,0
    8000cdc4:	00000593          	li	a1,0
    8000cdc8:	00b54633          	xor	a2,a0,a1
    8000cdcc:	3ac0b023          	sd	a2,928(ra)
    8000cdd0:	00000193          	li	gp,0
    8000cdd4:	00c18463          	beq	gp,a2,8000cddc <inst_661>
    8000cdd8:	a4cf306f          	j	80000024 <rvtest_error>

000000008000cddc <inst_661>:
    8000cddc:	00000513          	li	a0,0
    8000cde0:	00400593          	li	a1,4
    8000cde4:	00b54633          	xor	a2,a0,a1
    8000cde8:	3ac0b423          	sd	a2,936(ra)
    8000cdec:	00400193          	li	gp,4
    8000cdf0:	00c18463          	beq	gp,a2,8000cdf8 <inst_662>
    8000cdf4:	a30f306f          	j	80000024 <rvtest_error>

000000008000cdf8 <inst_662>:
    8000cdf8:	00000513          	li	a0,0
    8000cdfc:	333335b7          	lui	a1,0x33333
    8000ce00:	33358593          	addi	a1,a1,819 # 33333333 <absimmsh+0x27862586>
    8000ce04:	00b59593          	slli	a1,a1,0xb
    8000ce08:	19958593          	addi	a1,a1,409
    8000ce0c:	00b59593          	slli	a1,a1,0xb
    8000ce10:	4cc58593          	addi	a1,a1,1228
    8000ce14:	00a59593          	slli	a1,a1,0xa
    8000ce18:	33258593          	addi	a1,a1,818
    8000ce1c:	00b54633          	xor	a2,a0,a1
    8000ce20:	3ac0b823          	sd	a2,944(ra)
    8000ce24:	033331b7          	lui	gp,0x3333
    8000ce28:	3331819b          	addiw	gp,gp,819 # 3333333 <offset+0x3332f1b>
    8000ce2c:	00c19193          	slli	gp,gp,0xc
    8000ce30:	33318193          	addi	gp,gp,819
    8000ce34:	00c19193          	slli	gp,gp,0xc
    8000ce38:	33318193          	addi	gp,gp,819
    8000ce3c:	00c19193          	slli	gp,gp,0xc
    8000ce40:	33218193          	addi	gp,gp,818
    8000ce44:	00c18463          	beq	gp,a2,8000ce4c <inst_663>
    8000ce48:	9dcf306f          	j	80000024 <rvtest_error>

000000008000ce4c <inst_663>:
    8000ce4c:	00000513          	li	a0,0
    8000ce50:	666665b7          	lui	a1,0x66666
    8000ce54:	66658593          	addi	a1,a1,1638 # 66666666 <absimmsh+0x5ab958b9>
    8000ce58:	00b59593          	slli	a1,a1,0xb
    8000ce5c:	33358593          	addi	a1,a1,819
    8000ce60:	00b59593          	slli	a1,a1,0xb
    8000ce64:	19958593          	addi	a1,a1,409
    8000ce68:	00a59593          	slli	a1,a1,0xa
    8000ce6c:	26558593          	addi	a1,a1,613
    8000ce70:	00b54633          	xor	a2,a0,a1
    8000ce74:	3ac0bc23          	sd	a2,952(ra)
    8000ce78:	033331b7          	lui	gp,0x3333
    8000ce7c:	3331819b          	addiw	gp,gp,819 # 3333333 <offset+0x3332f1b>
    8000ce80:	00c19193          	slli	gp,gp,0xc
    8000ce84:	33318193          	addi	gp,gp,819
    8000ce88:	00c19193          	slli	gp,gp,0xc
    8000ce8c:	33318193          	addi	gp,gp,819
    8000ce90:	00d19193          	slli	gp,gp,0xd
    8000ce94:	66518193          	addi	gp,gp,1637
    8000ce98:	00c18463          	beq	gp,a2,8000cea0 <inst_664>
    8000ce9c:	988f306f          	j	80000024 <rvtest_error>

000000008000cea0 <inst_664>:
    8000cea0:	00000513          	li	a0,0
    8000cea4:	000005b7          	lui	a1,0x0
    8000cea8:	00058593          	mv	a1,a1
    8000ceac:	00b59593          	slli	a1,a1,0xb
    8000ceb0:	5a858593          	addi	a1,a1,1448 # 5a8 <offset+0x190>
    8000ceb4:	00b59593          	slli	a1,a1,0xb
    8000ceb8:	13c58593          	addi	a1,a1,316
    8000cebc:	00a59593          	slli	a1,a1,0xa
    8000cec0:	33258593          	addi	a1,a1,818
    8000cec4:	00b54633          	xor	a2,a0,a1
    8000cec8:	3cc0b023          	sd	a2,960(ra)
    8000cecc:	000b51b7          	lui	gp,0xb5
    8000ced0:	04f1819b          	addiw	gp,gp,79 # b504f <offset+0xb4c37>
    8000ced4:	00c19193          	slli	gp,gp,0xc
    8000ced8:	33218193          	addi	gp,gp,818
    8000cedc:	00c18463          	beq	gp,a2,8000cee4 <inst_665>
    8000cee0:	944f306f          	j	80000024 <rvtest_error>

000000008000cee4 <inst_665>:
    8000cee4:	00000513          	li	a0,0
    8000cee8:	555555b7          	lui	a1,0x55555
    8000ceec:	55558593          	addi	a1,a1,1365 # 55555555 <absimmsh+0x49a847a8>
    8000cef0:	00b59593          	slli	a1,a1,0xb
    8000cef4:	2aa58593          	addi	a1,a1,682
    8000cef8:	00b59593          	slli	a1,a1,0xb
    8000cefc:	55558593          	addi	a1,a1,1365
    8000cf00:	00a59593          	slli	a1,a1,0xa
    8000cf04:	15658593          	addi	a1,a1,342
    8000cf08:	00b54633          	xor	a2,a0,a1
    8000cf0c:	3cc0b423          	sd	a2,968(ra)
    8000cf10:	055551b7          	lui	gp,0x5555
    8000cf14:	5551819b          	addiw	gp,gp,1365 # 5555555 <offset+0x555513d>
    8000cf18:	00c19193          	slli	gp,gp,0xc
    8000cf1c:	55518193          	addi	gp,gp,1365
    8000cf20:	00c19193          	slli	gp,gp,0xc
    8000cf24:	55518193          	addi	gp,gp,1365
    8000cf28:	00c19193          	slli	gp,gp,0xc
    8000cf2c:	55618193          	addi	gp,gp,1366
    8000cf30:	00c18463          	beq	gp,a2,8000cf38 <inst_666>
    8000cf34:	8f0f306f          	j	80000024 <rvtest_error>

000000008000cf38 <inst_666>:
    8000cf38:	00000513          	li	a0,0
    8000cf3c:	aaaab5b7          	lui	a1,0xaaaab
    8000cf40:	aaa58593          	addi	a1,a1,-1366 # ffffffffaaaaaaaa <absimm+0xfffffffeefd9cfda>
    8000cf44:	00b59593          	slli	a1,a1,0xb
    8000cf48:	55558593          	addi	a1,a1,1365
    8000cf4c:	00b59593          	slli	a1,a1,0xb
    8000cf50:	2aa58593          	addi	a1,a1,682
    8000cf54:	00a59593          	slli	a1,a1,0xa
    8000cf58:	2ab58593          	addi	a1,a1,683
    8000cf5c:	00b54633          	xor	a2,a0,a1
    8000cf60:	3cc0b823          	sd	a2,976(ra)
    8000cf64:	faaab1b7          	lui	gp,0xfaaab
    8000cf68:	aab1819b          	addiw	gp,gp,-1365 # fffffffffaaaaaab <absimm+0xffffffff3fd9cfdb>
    8000cf6c:	00c19193          	slli	gp,gp,0xc
    8000cf70:	aab18193          	addi	gp,gp,-1365
    8000cf74:	00c19193          	slli	gp,gp,0xc
    8000cf78:	aab18193          	addi	gp,gp,-1365
    8000cf7c:	00c19193          	slli	gp,gp,0xc
    8000cf80:	aab18193          	addi	gp,gp,-1365
    8000cf84:	00c18463          	beq	gp,a2,8000cf8c <inst_667>
    8000cf88:	89cf306f          	j	80000024 <rvtest_error>

000000008000cf8c <inst_667>:
    8000cf8c:	00000513          	li	a0,0
    8000cf90:	00600593          	li	a1,6
    8000cf94:	00b54633          	xor	a2,a0,a1
    8000cf98:	3cc0bc23          	sd	a2,984(ra)
    8000cf9c:	00600193          	li	gp,6
    8000cfa0:	00c18463          	beq	gp,a2,8000cfa8 <inst_668>
    8000cfa4:	880f306f          	j	80000024 <rvtest_error>

000000008000cfa8 <inst_668>:
    8000cfa8:	00000513          	li	a0,0
    8000cfac:	333335b7          	lui	a1,0x33333
    8000cfb0:	33358593          	addi	a1,a1,819 # 33333333 <absimmsh+0x27862586>
    8000cfb4:	00b59593          	slli	a1,a1,0xb
    8000cfb8:	19958593          	addi	a1,a1,409
    8000cfbc:	00b59593          	slli	a1,a1,0xb
    8000cfc0:	4cc58593          	addi	a1,a1,1228
    8000cfc4:	00a59593          	slli	a1,a1,0xa
    8000cfc8:	33458593          	addi	a1,a1,820
    8000cfcc:	00b54633          	xor	a2,a0,a1
    8000cfd0:	3ec0b023          	sd	a2,992(ra)
    8000cfd4:	033331b7          	lui	gp,0x3333
    8000cfd8:	3331819b          	addiw	gp,gp,819 # 3333333 <offset+0x3332f1b>
    8000cfdc:	00c19193          	slli	gp,gp,0xc
    8000cfe0:	33318193          	addi	gp,gp,819
    8000cfe4:	00c19193          	slli	gp,gp,0xc
    8000cfe8:	33318193          	addi	gp,gp,819
    8000cfec:	00c19193          	slli	gp,gp,0xc
    8000cff0:	33418193          	addi	gp,gp,820
    8000cff4:	00c18463          	beq	gp,a2,8000cffc <inst_669>
    8000cff8:	82cf306f          	j	80000024 <rvtest_error>

000000008000cffc <inst_669>:
    8000cffc:	00000513          	li	a0,0
    8000d000:	666665b7          	lui	a1,0x66666
    8000d004:	66658593          	addi	a1,a1,1638 # 66666666 <absimmsh+0x5ab958b9>
    8000d008:	00b59593          	slli	a1,a1,0xb
    8000d00c:	33358593          	addi	a1,a1,819
    8000d010:	00b59593          	slli	a1,a1,0xb
    8000d014:	19958593          	addi	a1,a1,409
    8000d018:	00a59593          	slli	a1,a1,0xa
    8000d01c:	26758593          	addi	a1,a1,615
    8000d020:	00b54633          	xor	a2,a0,a1
    8000d024:	3ec0b423          	sd	a2,1000(ra)
    8000d028:	033331b7          	lui	gp,0x3333
    8000d02c:	3331819b          	addiw	gp,gp,819 # 3333333 <offset+0x3332f1b>
    8000d030:	00c19193          	slli	gp,gp,0xc
    8000d034:	33318193          	addi	gp,gp,819
    8000d038:	00c19193          	slli	gp,gp,0xc
    8000d03c:	33318193          	addi	gp,gp,819
    8000d040:	00d19193          	slli	gp,gp,0xd
    8000d044:	66718193          	addi	gp,gp,1639
    8000d048:	00c18463          	beq	gp,a2,8000d050 <inst_670>
    8000d04c:	fd9f206f          	j	80000024 <rvtest_error>

000000008000d050 <inst_670>:
    8000d050:	00100513          	li	a0,1
    8000d054:	03651513          	slli	a0,a0,0x36
    8000d058:	00100593          	li	a1,1
    8000d05c:	03b59593          	slli	a1,a1,0x3b
    8000d060:	00b54633          	xor	a2,a0,a1
    8000d064:	3ec0b823          	sd	a2,1008(ra)
    8000d068:	0210019b          	addiw	gp,zero,33
    8000d06c:	03619193          	slli	gp,gp,0x36
    8000d070:	00c18463          	beq	gp,a2,8000d078 <inst_671>
    8000d074:	fb1f206f          	j	80000024 <rvtest_error>

000000008000d078 <inst_671>:
    8000d078:	00100513          	li	a0,1
    8000d07c:	02251513          	slli	a0,a0,0x22
    8000d080:	fff54513          	not	a0,a0
    8000d084:	bff00593          	li	a1,-1025
    8000d088:	00b54633          	xor	a2,a0,a1
    8000d08c:	3ec0bc23          	sd	a2,1016(ra)
    8000d090:	0010019b          	addiw	gp,zero,1
    8000d094:	02219193          	slli	gp,gp,0x22
    8000d098:	40018193          	addi	gp,gp,1024
    8000d09c:	00c18463          	beq	gp,a2,8000d0a4 <inst_672>
    8000d0a0:	f85f206f          	j	80000024 <rvtest_error>

000000008000d0a4 <inst_672>:
    8000d0a4:	00000513          	li	a0,0
    8000d0a8:	00100593          	li	a1,1
    8000d0ac:	00e59593          	slli	a1,a1,0xe
    8000d0b0:	fff5c593          	not	a1,a1
    8000d0b4:	00b54633          	xor	a2,a0,a1
    8000d0b8:	40c0b023          	sd	a2,1024(ra)
    8000d0bc:	ffffc1b7          	lui	gp,0xffffc
    8000d0c0:	fff1819b          	addiw	gp,gp,-1 # ffffffffffffbfff <absimm+0xffffffff452ee52f>
    8000d0c4:	00c18463          	beq	gp,a2,8000d0cc <inst_673>
    8000d0c8:	f5df206f          	j	80000024 <rvtest_error>

000000008000d0cc <inst_673>:
    8000d0cc:	fff00513          	li	a0,-1
    8000d0d0:	00155513          	srli	a0,a0,0x1
    8000d0d4:	00700593          	li	a1,7
    8000d0d8:	00b54633          	xor	a2,a0,a1
    8000d0dc:	40c0b423          	sd	a2,1032(ra)
    8000d0e0:	fff0019b          	addiw	gp,zero,-1
    8000d0e4:	03f19193          	slli	gp,gp,0x3f
    8000d0e8:	ff818193          	addi	gp,gp,-8
    8000d0ec:	00c18463          	beq	gp,a2,8000d0f4 <inst_674>
    8000d0f0:	f35f206f          	j	80000024 <rvtest_error>

000000008000d0f4 <inst_674>:
    8000d0f4:	00100513          	li	a0,1
    8000d0f8:	01351513          	slli	a0,a0,0x13
    8000d0fc:	40000593          	li	a1,1024
    8000d100:	00b54633          	xor	a2,a0,a1
    8000d104:	40c0b823          	sd	a2,1040(ra)
    8000d108:	000801b7          	lui	gp,0x80
    8000d10c:	4001819b          	addiw	gp,gp,1024 # 80400 <offset+0x7ffe8>
    8000d110:	00c18463          	beq	gp,a2,8000d118 <cleanup_epilogs>
    8000d114:	f11f206f          	j	80000024 <rvtest_error>

000000008000d118 <cleanup_epilogs>:
    8000d118:	0380006f          	j	8000d150 <exit_cleanup>

000000008000d11c <abort_tests>:
    8000d11c:	1f813483          	ld	s1,504(sp)
    8000d120:	20013303          	ld	t1,512(sp)
    8000d124:	00930333          	add	t1,t1,s1
    8000d128:	00000337          	lui	t1,0x0
    8000d12c:	00030313          	mv	t1,t1
    8000d130:	00b31313          	slli	t1,t1,0xb
    8000d134:	5d630313          	addi	t1,t1,1494 # 5d6 <offset+0x1be>
    8000d138:	00b31313          	slli	t1,t1,0xb
    8000d13c:	43630313          	addi	t1,t1,1078
    8000d140:	00a31313          	slli	t1,t1,0xa
    8000d144:	2d030313          	addi	t1,t1,720
    8000d148:	fe64be23          	sd	t1,-4(s1)
    8000d14c:	0040006f          	j	8000d150 <exit_cleanup>

000000008000d150 <exit_cleanup>:
    8000d150:	00000513          	li	a0,0
    8000d154:	0200006f          	j	8000d174 <halt>
	...

000000008000d174 <halt>:
    8000d174:	00050513          	mv	a0,a0
    8000d178:	00100073          	ebreak
    8000d17c:	0000006f          	j	8000d17c <halt+0x8>

000000008000d180 <_trm_init>:
    8000d180:	ff010113          	addi	sp,sp,-16
    8000d184:	00000517          	auipc	a0,0x0
    8000d188:	01c50513          	addi	a0,a0,28 # 8000d1a0 <_etext>
    8000d18c:	00113423          	sd	ra,8(sp)
    8000d190:	e81f20ef          	jal	ra,80000010 <main>
    8000d194:	00050513          	mv	a0,a0
    8000d198:	00100073          	ebreak
    8000d19c:	0000006f          	j	8000d19c <_trm_init+0x1c>
