
/home/maveric/ics2023/riscv-arch-test-am/build/xori-riscv64-nemu.elf:     file format elf64-littleriscv


Disassembly of section .text:

0000000080000000 <_start>:
    80000000:	00000413          	li	s0,0
    80000004:	00014117          	auipc	sp,0x14
    80000008:	ffc10113          	addi	sp,sp,-4 # 80014000 <_end>
    8000000c:	3d9080ef          	jal	ra,80008be4 <_trm_init>

0000000080000010 <main>:
    80000010:	030000ef          	jal	ra,80000040 <rvtest_entry_point>
    80000014:	00100513          	li	a0,1
    80000018:	3c1080ef          	jal	ra,80008bd8 <halt>
    8000001c:	00000513          	li	a0,0
    80000020:	00008067          	ret

0000000080000024 <rvtest_error>:
    80000024:	00100513          	li	a0,1
    80000028:	3b1080ef          	jal	ra,80008bd8 <halt>
    8000002c:	00008067          	ret
	...

0000000080000040 <rvtest_entry_point>:
    80000040:	feedc0b7          	lui	ra,0xfeedc
    80000044:	ead08093          	addi	ra,ra,-339 # fffffffffeedbead <absimm+0xffffffff441ce3dd>
    80000048:	00b09093          	slli	ra,ra,0xb
    8000004c:	7f708093          	addi	ra,ra,2039
    80000050:	00b09093          	slli	ra,ra,0xb
    80000054:	36f08093          	addi	ra,ra,879
    80000058:	00a09093          	slli	ra,ra,0xa
    8000005c:	2ad08093          	addi	ra,ra,685
    80000060:	ff76e137          	lui	sp,0xff76e
    80000064:	f5610113          	addi	sp,sp,-170 # ffffffffff76df56 <absimm+0xffffffff44a60486>
    80000068:	00b11113          	slli	sp,sp,0xb
    8000006c:	7fb10113          	addi	sp,sp,2043
    80000070:	00b11113          	slli	sp,sp,0xb
    80000074:	5b710113          	addi	sp,sp,1463
    80000078:	00a11113          	slli	sp,sp,0xa
    8000007c:	35610113          	addi	sp,sp,854
    80000080:	7fbb71b7          	lui	gp,0x7fbb7
    80000084:	fab18193          	addi	gp,gp,-85 # 7fbb6fab <absimmsh+0x740e61fe>
    80000088:	00b19193          	slli	gp,gp,0xb
    8000008c:	3fd18193          	addi	gp,gp,1021
    80000090:	00b19193          	slli	gp,gp,0xb
    80000094:	6db18193          	addi	gp,gp,1755
    80000098:	00a19193          	slli	gp,gp,0xa
    8000009c:	3ab18193          	addi	gp,gp,939
    800000a0:	bfddb237          	lui	tp,0xbfddb
    800000a4:	7d520213          	addi	tp,tp,2005 # ffffffffbfddb7d5 <absimm+0xffffffff050cdd05>
    800000a8:	00b21213          	slli	tp,tp,0xb
    800000ac:	5fe20213          	addi	tp,tp,1534 # 5fe <offset+0x31e>
    800000b0:	00b21213          	slli	tp,tp,0xb
    800000b4:	76d20213          	addi	tp,tp,1901 # 76d <offset+0x48d>
    800000b8:	00a21213          	slli	tp,tp,0xa
    800000bc:	3d520213          	addi	tp,tp,981 # 3d5 <offset+0xf5>
    800000c0:	dfeee2b7          	lui	t0,0xdfeee
    800000c4:	bea28293          	addi	t0,t0,-1046 # ffffffffdfeedbea <absimm+0xffffffff251e011a>
    800000c8:	00b29293          	slli	t0,t0,0xb
    800000cc:	6ff28293          	addi	t0,t0,1791
    800000d0:	00b29293          	slli	t0,t0,0xb
    800000d4:	3b628293          	addi	t0,t0,950
    800000d8:	00a29293          	slli	t0,t0,0xa
    800000dc:	3ea28293          	addi	t0,t0,1002
    800000e0:	6ff77337          	lui	t1,0x6ff77
    800000e4:	df530313          	addi	t1,t1,-523 # 6ff76df5 <absimmsh+0x644a6048>
    800000e8:	00b31313          	slli	t1,t1,0xb
    800000ec:	37f30313          	addi	t1,t1,895
    800000f0:	00b31313          	slli	t1,t1,0xb
    800000f4:	5db30313          	addi	t1,t1,1499
    800000f8:	00a31313          	slli	t1,t1,0xa
    800000fc:	1f530313          	addi	t1,t1,501
    80000100:	b7fbb3b7          	lui	t2,0xb7fbb
    80000104:	6fa38393          	addi	t2,t2,1786 # ffffffffb7fbb6fa <absimm+0xfffffffefd2adc2a>
    80000108:	00b39393          	slli	t2,t2,0xb
    8000010c:	5bf38393          	addi	t2,t2,1471
    80000110:	00b39393          	slli	t2,t2,0xb
    80000114:	6ed38393          	addi	t2,t2,1773
    80000118:	00a39393          	slli	t2,t2,0xa
    8000011c:	2fa38393          	addi	t2,t2,762
    80000120:	5bfde437          	lui	s0,0x5bfde
    80000124:	b7d40413          	addi	s0,s0,-1155 # 5bfddb7d <absimmsh+0x5050cdd0>
    80000128:	00b41413          	slli	s0,s0,0xb
    8000012c:	2df40413          	addi	s0,s0,735
    80000130:	00b41413          	slli	s0,s0,0xb
    80000134:	77640413          	addi	s0,s0,1910
    80000138:	00a41413          	slli	s0,s0,0xa
    8000013c:	37d40413          	addi	s0,s0,893
    80000140:	adfef4b7          	lui	s1,0xadfef
    80000144:	dbe48493          	addi	s1,s1,-578 # ffffffffadfeedbe <absimm+0xfffffffef32e12ee>
    80000148:	00b49493          	slli	s1,s1,0xb
    8000014c:	56f48493          	addi	s1,s1,1391
    80000150:	00b49493          	slli	s1,s1,0xb
    80000154:	7bb48493          	addi	s1,s1,1979
    80000158:	00a49493          	slli	s1,s1,0xa
    8000015c:	1be48493          	addi	s1,s1,446
    80000160:	56ff7537          	lui	a0,0x56ff7
    80000164:	6df50513          	addi	a0,a0,1759 # 56ff76df <absimmsh+0x4b526932>
    80000168:	00b51513          	slli	a0,a0,0xb
    8000016c:	2b750513          	addi	a0,a0,695
    80000170:	00b51513          	slli	a0,a0,0xb
    80000174:	7dd50513          	addi	a0,a0,2013
    80000178:	00a51513          	slli	a0,a0,0xa
    8000017c:	2df50513          	addi	a0,a0,735
    80000180:	ab7fc5b7          	lui	a1,0xab7fc
    80000184:	b6f58593          	addi	a1,a1,-1169 # ffffffffab7fbb6f <absimm+0xfffffffef0aee09f>
    80000188:	00b59593          	slli	a1,a1,0xb
    8000018c:	55b58593          	addi	a1,a1,1371
    80000190:	00b59593          	slli	a1,a1,0xb
    80000194:	7ee58593          	addi	a1,a1,2030
    80000198:	00a59593          	slli	a1,a1,0xa
    8000019c:	36f58593          	addi	a1,a1,879
    800001a0:	d5bfe637          	lui	a2,0xd5bfe
    800001a4:	db760613          	addi	a2,a2,-585 # ffffffffd5bfddb7 <absimm+0xffffffff1aef02e7>
    800001a8:	00b61613          	slli	a2,a2,0xb
    800001ac:	6ad60613          	addi	a2,a2,1709
    800001b0:	00b61613          	slli	a2,a2,0xb
    800001b4:	7f760613          	addi	a2,a2,2039
    800001b8:	00a61613          	slli	a2,a2,0xa
    800001bc:	1b760613          	addi	a2,a2,439
    800001c0:	eadff6b7          	lui	a3,0xeadff
    800001c4:	edb68693          	addi	a3,a3,-293 # ffffffffeadfeedb <absimm+0xffffffff300f140b>
    800001c8:	00b69693          	slli	a3,a3,0xb
    800001cc:	75668693          	addi	a3,a3,1878
    800001d0:	00b69693          	slli	a3,a3,0xb
    800001d4:	7fb68693          	addi	a3,a3,2043
    800001d8:	00a69693          	slli	a3,a3,0xa
    800001dc:	2db68693          	addi	a3,a3,731
    800001e0:	f56ff737          	lui	a4,0xf56ff
    800001e4:	76d70713          	addi	a4,a4,1901 # fffffffff56ff76d <absimm+0xffffffff3a9f1c9d>
    800001e8:	00b71713          	slli	a4,a4,0xb
    800001ec:	7ab70713          	addi	a4,a4,1963
    800001f0:	00b71713          	slli	a4,a4,0xb
    800001f4:	3fd70713          	addi	a4,a4,1021
    800001f8:	00a71713          	slli	a4,a4,0xa
    800001fc:	36d70713          	addi	a4,a4,877
    80000200:	fab807b7          	lui	a5,0xfab80
    80000204:	bb678793          	addi	a5,a5,-1098 # fffffffffab7fbb6 <absimm+0xffffffff3fe720e6>
    80000208:	00b79793          	slli	a5,a5,0xb
    8000020c:	7d578793          	addi	a5,a5,2005
    80000210:	00b79793          	slli	a5,a5,0xb
    80000214:	5fe78793          	addi	a5,a5,1534
    80000218:	00a79793          	slli	a5,a5,0xa
    8000021c:	3b678793          	addi	a5,a5,950
    80000220:	7d5c0837          	lui	a6,0x7d5c0
    80000224:	ddb80813          	addi	a6,a6,-549 # 7d5bfddb <absimmsh+0x71aef02e>
    80000228:	00b81813          	slli	a6,a6,0xb
    8000022c:	3ea80813          	addi	a6,a6,1002
    80000230:	00b81813          	slli	a6,a6,0xb
    80000234:	6ff80813          	addi	a6,a6,1791
    80000238:	00a81813          	slli	a6,a6,0xa
    8000023c:	1db80813          	addi	a6,a6,475
    80000240:	beae08b7          	lui	a7,0xbeae0
    80000244:	eed88893          	addi	a7,a7,-275 # ffffffffbeadfeed <absimm+0xffffffff03dd241d>
    80000248:	00b89893          	slli	a7,a7,0xb
    8000024c:	5f588893          	addi	a7,a7,1525
    80000250:	00b89893          	slli	a7,a7,0xb
    80000254:	37f88893          	addi	a7,a7,895
    80000258:	00a89893          	slli	a7,a7,0xa
    8000025c:	2ed88893          	addi	a7,a7,749
    80000260:	df570937          	lui	s2,0xdf570
    80000264:	f7690913          	addi	s2,s2,-138 # ffffffffdf56ff76 <absimm+0xffffffff248624a6>
    80000268:	00b91913          	slli	s2,s2,0xb
    8000026c:	6fa90913          	addi	s2,s2,1786
    80000270:	00b91913          	slli	s2,s2,0xb
    80000274:	5bf90913          	addi	s2,s2,1471
    80000278:	00a91913          	slli	s2,s2,0xa
    8000027c:	37690913          	addi	s2,s2,886
    80000280:	6fab89b7          	lui	s3,0x6fab8
    80000284:	fbb98993          	addi	s3,s3,-69 # 6fab7fbb <absimmsh+0x63fe720e>
    80000288:	00b99993          	slli	s3,s3,0xb
    8000028c:	37d98993          	addi	s3,s3,893
    80000290:	00b99993          	slli	s3,s3,0xb
    80000294:	2df98993          	addi	s3,s3,735
    80000298:	00a99993          	slli	s3,s3,0xa
    8000029c:	3bb98993          	addi	s3,s3,955
    800002a0:	b7d5ca37          	lui	s4,0xb7d5c
    800002a4:	fdda0a13          	addi	s4,s4,-35 # ffffffffb7d5bfdd <absimm+0xfffffffefd04e50d>
    800002a8:	00ba1a13          	slli	s4,s4,0xb
    800002ac:	5bea0a13          	addi	s4,s4,1470
    800002b0:	00ba1a13          	slli	s4,s4,0xb
    800002b4:	56fa0a13          	addi	s4,s4,1391
    800002b8:	00aa1a13          	slli	s4,s4,0xa
    800002bc:	3dda0a13          	addi	s4,s4,989
    800002c0:	dbeaeab7          	lui	s5,0xdbeae
    800002c4:	feea8a93          	addi	s5,s5,-18 # ffffffffdbeadfee <absimm+0xffffffff211a051e>
    800002c8:	00ba9a93          	slli	s5,s5,0xb
    800002cc:	6dfa8a93          	addi	s5,s5,1759
    800002d0:	00ba9a93          	slli	s5,s5,0xb
    800002d4:	2b7a8a93          	addi	s5,s5,695
    800002d8:	00aa9a93          	slli	s5,s5,0xa
    800002dc:	3eea8a93          	addi	s5,s5,1006
    800002e0:	6df57b37          	lui	s6,0x6df57
    800002e4:	ff7b0b13          	addi	s6,s6,-9 # 6df56ff7 <absimmsh+0x6248624a>
    800002e8:	00bb1b13          	slli	s6,s6,0xb
    800002ec:	36fb0b13          	addi	s6,s6,879
    800002f0:	00bb1b13          	slli	s6,s6,0xb
    800002f4:	55bb0b13          	addi	s6,s6,1371
    800002f8:	00ab1b13          	slli	s6,s6,0xa
    800002fc:	3f7b0b13          	addi	s6,s6,1015
    80000300:	b6fabbb7          	lui	s7,0xb6fab
    80000304:	7fbb8b93          	addi	s7,s7,2043 # ffffffffb6fab7fb <absimm+0xfffffffefc29dd2b>
    80000308:	00bb9b93          	slli	s7,s7,0xb
    8000030c:	5b7b8b93          	addi	s7,s7,1463
    80000310:	00bb9b93          	slli	s7,s7,0xb
    80000314:	6adb8b93          	addi	s7,s7,1709
    80000318:	00ab9b93          	slli	s7,s7,0xa
    8000031c:	3fbb8b93          	addi	s7,s7,1019
    80000320:	db7d6c37          	lui	s8,0xdb7d6
    80000324:	bfdc0c13          	addi	s8,s8,-1027 # ffffffffdb7d5bfd <absimm+0xffffffff20ac812d>
    80000328:	00bc1c13          	slli	s8,s8,0xb
    8000032c:	6dbc0c13          	addi	s8,s8,1755
    80000330:	00bc1c13          	slli	s8,s8,0xb
    80000334:	756c0c13          	addi	s8,s8,1878
    80000338:	00ac1c13          	slli	s8,s8,0xa
    8000033c:	3fdc0c13          	addi	s8,s8,1021
    80000340:	edbebcb7          	lui	s9,0xedbeb
    80000344:	dfec8c93          	addi	s9,s9,-514 # ffffffffedbeadfe <absimm+0xffffffff32edd32e>
    80000348:	00bc9c93          	slli	s9,s9,0xb
    8000034c:	76dc8c93          	addi	s9,s9,1901
    80000350:	00bc9c93          	slli	s9,s9,0xb
    80000354:	7abc8c93          	addi	s9,s9,1963
    80000358:	00ac9c93          	slli	s9,s9,0xa
    8000035c:	1fec8c93          	addi	s9,s9,510
    80000360:	76df5d37          	lui	s10,0x76df5
    80000364:	6ffd0d13          	addi	s10,s10,1791 # 76df56ff <absimmsh+0x6b324952>
    80000368:	00bd1d13          	slli	s10,s10,0xb
    8000036c:	3b6d0d13          	addi	s10,s10,950
    80000370:	00bd1d13          	slli	s10,s10,0xb
    80000374:	7d5d0d13          	addi	s10,s10,2005
    80000378:	00ad1d13          	slli	s10,s10,0xa
    8000037c:	2ffd0d13          	addi	s10,s10,767
    80000380:	bb6fbdb7          	lui	s11,0xbb6fb
    80000384:	b7fd8d93          	addi	s11,s11,-1153 # ffffffffbb6fab7f <absimm+0xffffffff009ed0af>
    80000388:	00bd9d93          	slli	s11,s11,0xb
    8000038c:	5dbd8d93          	addi	s11,s11,1499
    80000390:	00bd9d93          	slli	s11,s11,0xb
    80000394:	3ead8d93          	addi	s11,s11,1002
    80000398:	00ad9d93          	slli	s11,s11,0xa
    8000039c:	37fd8d93          	addi	s11,s11,895
    800003a0:	ddb7de37          	lui	t3,0xddb7d
    800003a4:	5bfe0e13          	addi	t3,t3,1471 # ffffffffddb7d5bf <absimm+0xffffffff22e6faef>
    800003a8:	00be1e13          	slli	t3,t3,0xb
    800003ac:	6ede0e13          	addi	t3,t3,1773
    800003b0:	00be1e13          	slli	t3,t3,0xb
    800003b4:	5f5e0e13          	addi	t3,t3,1525
    800003b8:	00ae1e13          	slli	t3,t3,0xa
    800003bc:	1bfe0e13          	addi	t3,t3,447
    800003c0:	eedbfeb7          	lui	t4,0xeedbf
    800003c4:	adfe8e93          	addi	t4,t4,-1313 # ffffffffeedbeadf <absimm+0xffffffff340b100f>
    800003c8:	00be9e93          	slli	t4,t4,0xb
    800003cc:	776e8e93          	addi	t4,t4,1910
    800003d0:	00be9e93          	slli	t4,t4,0xb
    800003d4:	6fae8e93          	addi	t4,t4,1786
    800003d8:	00ae9e93          	slli	t4,t4,0xa
    800003dc:	2dfe8e93          	addi	t4,t4,735
    800003e0:	f76dff37          	lui	t5,0xf76df
    800003e4:	56ff0f13          	addi	t5,t5,1391 # fffffffff76df56f <absimm+0xffffffff3c9d1a9f>
    800003e8:	00bf1f13          	slli	t5,t5,0xb
    800003ec:	7bbf0f13          	addi	t5,t5,1979
    800003f0:	00bf1f13          	slli	t5,t5,0xb
    800003f4:	37df0f13          	addi	t5,t5,893
    800003f8:	00af1f13          	slli	t5,t5,0xa
    800003fc:	16ff0f13          	addi	t5,t5,367
    80000400:	fbb70fb7          	lui	t6,0xfbb70
    80000404:	ab7f8f93          	addi	t6,t6,-1353 # fffffffffbb6fab7 <absimm+0xffffffff40e61fe7>
    80000408:	00bf9f93          	slli	t6,t6,0xb
    8000040c:	7ddf8f93          	addi	t6,t6,2013
    80000410:	00bf9f93          	slli	t6,t6,0xb
    80000414:	5bef8f93          	addi	t6,t6,1470
    80000418:	00af9f93          	slli	t6,t6,0xa
    8000041c:	2b7f8f93          	addi	t6,t6,695

0000000080000420 <rvtest_code_begin>:
    80000420:	0000a117          	auipc	sp,0xa
    80000424:	be810113          	addi	sp,sp,-1048 # 8000a008 <signature_x2_0>
    80000428:	00000013          	nop
    8000042c:	00000013          	nop
    80000430:	00000013          	nop
    80000434:	00000013          	nop
    80000438:	00000013          	nop
    8000043c:	00000013          	nop

0000000080000440 <inst_0>:
    80000440:	00400493          	li	s1,4
    80000444:	8004c493          	xori	s1,s1,-2048
    80000448:	00913023          	sd	s1,0(sp)
    8000044c:	80400193          	li	gp,-2044
    80000450:	00918463          	beq	gp,s1,80000458 <inst_1>
    80000454:	bd1ff06f          	j	80000024 <rvtest_error>

0000000080000458 <inst_1>:
    80000458:	00100c93          	li	s9,1
    8000045c:	01bc9c93          	slli	s9,s9,0x1b
    80000460:	fffccc93          	not	s9,s9
    80000464:	000cc993          	xori	s3,s9,0
    80000468:	01313423          	sd	s3,8(sp)
    8000046c:	f80001b7          	lui	gp,0xf8000
    80000470:	fff1819b          	addiw	gp,gp,-1 # fffffffff7ffffff <absimm+0xffffffff3d2f252f>
    80000474:	01318463          	beq	gp,s3,8000047c <inst_2>
    80000478:	badff06f          	j	80000024 <rvtest_error>

000000008000047c <inst_2>:
    8000047c:	00300693          	li	a3,3
    80000480:	7ff6c613          	xori	a2,a3,2047
    80000484:	00c13823          	sd	a2,16(sp)
    80000488:	7fc00193          	li	gp,2044
    8000048c:	00c18463          	beq	gp,a2,80000494 <inst_3>
    80000490:	b95ff06f          	j	80000024 <rvtest_error>

0000000080000494 <inst_3>:
    80000494:	aaaab837          	lui	a6,0xaaaab
    80000498:	aaa80813          	addi	a6,a6,-1366 # ffffffffaaaaaaaa <absimm+0xfffffffeefd9cfda>
    8000049c:	00b81813          	slli	a6,a6,0xb
    800004a0:	55580813          	addi	a6,a6,1365
    800004a4:	00b81813          	slli	a6,a6,0xb
    800004a8:	2aa80813          	addi	a6,a6,682
    800004ac:	00a81813          	slli	a6,a6,0xa
    800004b0:	2ab80813          	addi	a6,a6,683
    800004b4:	00184693          	xori	a3,a6,1
    800004b8:	00d13c23          	sd	a3,24(sp)
    800004bc:	faaab1b7          	lui	gp,0xfaaab
    800004c0:	aab1819b          	addiw	gp,gp,-1365 # fffffffffaaaaaab <absimm+0xffffffff3fd9cfdb>
    800004c4:	00c19193          	slli	gp,gp,0xc
    800004c8:	aab18193          	addi	gp,gp,-1365
    800004cc:	00c19193          	slli	gp,gp,0xc
    800004d0:	aab18193          	addi	gp,gp,-1365
    800004d4:	00c19193          	slli	gp,gp,0xc
    800004d8:	aaa18193          	addi	gp,gp,-1366
    800004dc:	00d18463          	beq	gp,a3,800004e4 <inst_4>
    800004e0:	b45ff06f          	j	80000024 <rvtest_error>

00000000800004e4 <inst_4>:
    800004e4:	fff00213          	li	tp,-1
    800004e8:	03f21213          	slli	tp,tp,0x3f
    800004ec:	ff724713          	xori	a4,tp,-9
    800004f0:	02e13023          	sd	a4,32(sp)
    800004f4:	fff0019b          	addiw	gp,zero,-1
    800004f8:	03f19193          	slli	gp,gp,0x3f
    800004fc:	ff718193          	addi	gp,gp,-9
    80000500:	00e18463          	beq	gp,a4,80000508 <inst_5>
    80000504:	b21ff06f          	j	80000024 <rvtest_error>

0000000080000508 <inst_5>:
    80000508:	00000e93          	li	t4,0
    8000050c:	000ecb93          	xori	s7,t4,0
    80000510:	03713423          	sd	s7,40(sp)
    80000514:	00000193          	li	gp,0
    80000518:	01718463          	beq	gp,s7,80000520 <inst_6>
    8000051c:	b09ff06f          	j	80000024 <rvtest_error>

0000000080000520 <inst_6>:
    80000520:	fff00e13          	li	t3,-1
    80000524:	001e5e13          	srli	t3,t3,0x1
    80000528:	002e4a93          	xori	s5,t3,2
    8000052c:	03513823          	sd	s5,48(sp)
    80000530:	fff0019b          	addiw	gp,zero,-1
    80000534:	03f19193          	slli	gp,gp,0x3f
    80000538:	ffd18193          	addi	gp,gp,-3
    8000053c:	01518463          	beq	gp,s5,80000544 <inst_7>
    80000540:	ae5ff06f          	j	80000024 <rvtest_error>

0000000080000544 <inst_7>:
    80000544:	00100b13          	li	s6,1
    80000548:	666b4213          	xori	tp,s6,1638
    8000054c:	02413c23          	sd	tp,56(sp)
    80000550:	66700193          	li	gp,1639
    80000554:	00418463          	beq	gp,tp,8000055c <inst_8>
    80000558:	acdff06f          	j	80000024 <rvtest_error>

000000008000055c <inst_8>:
    8000055c:	00100593          	li	a1,1
    80000560:	00f59593          	slli	a1,a1,0xf
    80000564:	0045cf93          	xori	t6,a1,4
    80000568:	05f13023          	sd	t6,64(sp)
    8000056c:	000081b7          	lui	gp,0x8
    80000570:	0041819b          	addiw	gp,gp,4 # 8004 <offset+0x7d24>
    80000574:	01f18463          	beq	gp,t6,8000057c <inst_9>
    80000578:	aadff06f          	j	80000024 <rvtest_error>

000000008000057c <inst_9>:
    8000057c:	eff00893          	li	a7,-257
    80000580:	0088c313          	xori	t1,a7,8
    80000584:	04613423          	sd	t1,72(sp)
    80000588:	ef700193          	li	gp,-265
    8000058c:	00618463          	beq	gp,t1,80000594 <inst_10>
    80000590:	a95ff06f          	j	80000024 <rvtest_error>

0000000080000594 <inst_10>:
    80000594:	ff600613          	li	a2,-10
    80000598:	01064793          	xori	a5,a2,16
    8000059c:	04f13823          	sd	a5,80(sp)
    800005a0:	fe600193          	li	gp,-26
    800005a4:	00f18463          	beq	gp,a5,800005ac <inst_11>
    800005a8:	a7dff06f          	j	80000024 <rvtest_error>

00000000800005ac <inst_11>:
    800005ac:	00100d93          	li	s11,1
    800005b0:	02ad9d93          	slli	s11,s11,0x2a
    800005b4:	fffdcd93          	not	s11,s11
    800005b8:	020dcb13          	xori	s6,s11,32
    800005bc:	05613c23          	sd	s6,88(sp)
    800005c0:	fff0019b          	addiw	gp,zero,-1
    800005c4:	02a19193          	slli	gp,gp,0x2a
    800005c8:	fdf18193          	addi	gp,gp,-33
    800005cc:	01618463          	beq	gp,s6,800005d4 <inst_12>
    800005d0:	a55ff06f          	j	80000024 <rvtest_error>

00000000800005d4 <inst_12>:
    800005d4:	00100913          	li	s2,1
    800005d8:	01e91913          	slli	s2,s2,0x1e
    800005dc:	04094093          	xori	ra,s2,64
    800005e0:	06113023          	sd	ra,96(sp)
    800005e4:	400001b7          	lui	gp,0x40000
    800005e8:	0401819b          	addiw	gp,gp,64 # 40000040 <absimmsh+0x3452f293>
    800005ec:	00118463          	beq	gp,ra,800005f4 <inst_13>
    800005f0:	a35ff06f          	j	80000024 <rvtest_error>

00000000800005f4 <inst_13>:
    800005f4:	00100393          	li	t2,1
    800005f8:	00b39393          	slli	t2,t2,0xb
    800005fc:	fff3c393          	not	t2,t2
    80000600:	0803cd13          	xori	s10,t2,128
    80000604:	07a13423          	sd	s10,104(sp)
    80000608:	fffff1b7          	lui	gp,0xfffff
    8000060c:	77f1819b          	addiw	gp,gp,1919 # fffffffffffff77f <absimm+0xffffffff452f1caf>
    80000610:	01a18463          	beq	gp,s10,80000618 <inst_14>
    80000614:	a11ff06f          	j	80000024 <rvtest_error>

0000000080000618 <inst_14>:
    80000618:	00100f13          	li	t5,1
    8000061c:	02ef1f13          	slli	t5,t5,0x2e
    80000620:	ffff4f13          	not	t5,t5
    80000624:	100f4a13          	xori	s4,t5,256
    80000628:	07413823          	sd	s4,112(sp)
    8000062c:	fff0019b          	addiw	gp,zero,-1
    80000630:	02e19193          	slli	gp,gp,0x2e
    80000634:	eff18193          	addi	gp,gp,-257
    80000638:	01418463          	beq	gp,s4,80000640 <inst_15>
    8000063c:	9e9ff06f          	j	80000024 <rvtest_error>

0000000080000640 <inst_15>:
    80000640:	00100313          	li	t1,1
    80000644:	02331313          	slli	t1,t1,0x23
    80000648:	20034593          	xori	a1,t1,512
    8000064c:	06b13c23          	sd	a1,120(sp)
    80000650:	0010019b          	addiw	gp,zero,1
    80000654:	02319193          	slli	gp,gp,0x23
    80000658:	20018193          	addi	gp,gp,512
    8000065c:	00b18463          	beq	gp,a1,80000664 <inst_16>
    80000660:	9c5ff06f          	j	80000024 <rvtest_error>

0000000080000664 <inst_16>:
    80000664:	00000537          	lui	a0,0x0
    80000668:	fff50513          	addi	a0,a0,-1
    8000066c:	00b51513          	slli	a0,a0,0xb
    80000670:	25750513          	addi	a0,a0,599
    80000674:	00b51513          	slli	a0,a0,0xb
    80000678:	6c350513          	addi	a0,a0,1731
    8000067c:	00a51513          	slli	a0,a0,0xa
    80000680:	0ce50513          	addi	a0,a0,206
    80000684:	40054e93          	xori	t4,a0,1024
    80000688:	09d13023          	sd	t4,128(sp)
    8000068c:	fff4b1b7          	lui	gp,0xfff4b
    80000690:	fb11819b          	addiw	gp,gp,-79 # fffffffffff4afb1 <absimm+0xffffffff4523d4e1>
    80000694:	00c19193          	slli	gp,gp,0xc
    80000698:	8ce18193          	addi	gp,gp,-1842
    8000069c:	01d18463          	beq	gp,t4,800006a4 <inst_17>
    800006a0:	985ff06f          	j	80000024 <rvtest_error>

00000000800006a4 <inst_17>:
    800006a4:	00100a93          	li	s5,1
    800006a8:	01aa9a93          	slli	s5,s5,0x1a
    800006ac:	fffaca93          	not	s5,s5
    800006b0:	ffeac513          	xori	a0,s5,-2
    800006b4:	08a13423          	sd	a0,136(sp)
    800006b8:	040001b7          	lui	gp,0x4000
    800006bc:	0011819b          	addiw	gp,gp,1 # 4000001 <offset+0x3fffd21>
    800006c0:	00a18463          	beq	gp,a0,800006c8 <inst_18>
    800006c4:	961ff06f          	j	80000024 <rvtest_error>

00000000800006c8 <inst_18>:
    800006c8:	00100c13          	li	s8,1
    800006cc:	033c1c13          	slli	s8,s8,0x33
    800006d0:	ffdc4e13          	xori	t3,s8,-3
    800006d4:	09c13823          	sd	t3,144(sp)
    800006d8:	fff0019b          	addiw	gp,zero,-1
    800006dc:	03319193          	slli	gp,gp,0x33
    800006e0:	ffd18193          	addi	gp,gp,-3
    800006e4:	01c18463          	beq	gp,t3,800006ec <inst_19>
    800006e8:	93dff06f          	j	80000024 <rvtest_error>

00000000800006ec <inst_19>:
    800006ec:	ffe00293          	li	t0,-2
    800006f0:	ffb2cd93          	xori	s11,t0,-5
    800006f4:	09b13c23          	sd	s11,152(sp)
    800006f8:	00500313          	li	t1,5
    800006fc:	01b30463          	beq	t1,s11,80000704 <inst_19+0x18>
    80000700:	925ff06f          	j	80000024 <rvtest_error>
    80000704:	00000013          	nop
    80000708:	00000013          	nop
    8000070c:	00000013          	nop
    80000710:	00000013          	nop
    80000714:	00000013          	nop
    80000718:	00000013          	nop
    8000071c:	00000013          	nop
    80000720:	0000a217          	auipc	tp,0xa
    80000724:	98820213          	addi	tp,tp,-1656 # 8000a0a8 <signature_x4_0>
    80000728:	00000013          	nop
    8000072c:	00000013          	nop
    80000730:	00000013          	nop
    80000734:	00000013          	nop
    80000738:	00000013          	nop
    8000073c:	00000013          	nop

0000000080000740 <inst_20>:
    80000740:	00500093          	li	ra,5
    80000744:	fef0c813          	xori	a6,ra,-17
    80000748:	01023023          	sd	a6,0(tp) # 0 <_entry_offset>
    8000074c:	fea00313          	li	t1,-22
    80000750:	01030463          	beq	t1,a6,80000758 <inst_21>
    80000754:	8d1ff06f          	j	80000024 <rvtest_error>

0000000080000758 <inst_21>:
    80000758:	00100993          	li	s3,1
    8000075c:	02e99993          	slli	s3,s3,0x2e
    80000760:	fff9c993          	not	s3,s3
    80000764:	fdf9c893          	xori	a7,s3,-33
    80000768:	01123423          	sd	a7,8(tp) # 8 <edge2+0x3>
    8000076c:	0010031b          	addiw	t1,zero,1
    80000770:	02e31313          	slli	t1,t1,0x2e
    80000774:	02030313          	addi	t1,t1,32
    80000778:	01130463          	beq	t1,a7,80000780 <inst_22>
    8000077c:	8a9ff06f          	j	80000024 <rvtest_error>

0000000080000780 <inst_22>:
    80000780:	00000013          	nop
    80000784:	fbf04293          	xori	t0,zero,-65
    80000788:	00523823          	sd	t0,16(tp) # 10 <edge2+0xb>
    8000078c:	fbf00313          	li	t1,-65
    80000790:	00530463          	beq	t1,t0,80000798 <inst_23>
    80000794:	891ff06f          	j	80000024 <rvtest_error>

0000000080000798 <inst_23>:
    80000798:	00100193          	li	gp,1
    8000079c:	03d19193          	slli	gp,gp,0x3d
    800007a0:	f7f1cc93          	xori	s9,gp,-129
    800007a4:	01923c23          	sd	s9,24(tp) # 18 <edge2+0x13>
    800007a8:	fff0031b          	addiw	t1,zero,-1
    800007ac:	03d31313          	slli	t1,t1,0x3d
    800007b0:	f7f30313          	addi	t1,t1,-129
    800007b4:	01930463          	beq	t1,s9,800007bc <inst_24>
    800007b8:	86dff06f          	j	80000024 <rvtest_error>

00000000800007bc <inst_24>:
    800007bc:	00100f93          	li	t6,1
    800007c0:	01ff9f93          	slli	t6,t6,0x1f
    800007c4:	ffffcf93          	not	t6,t6
    800007c8:	efffc413          	xori	s0,t6,-257
    800007cc:	02823023          	sd	s0,32(tp) # 20 <edge2+0x1b>
    800007d0:	0010031b          	addiw	t1,zero,1
    800007d4:	01f31313          	slli	t1,t1,0x1f
    800007d8:	10030313          	addi	t1,t1,256
    800007dc:	00830463          	beq	t1,s0,800007e4 <inst_25>
    800007e0:	845ff06f          	j	80000024 <rvtest_error>

00000000800007e4 <inst_25>:
    800007e4:	33333737          	lui	a4,0x33333
    800007e8:	33370713          	addi	a4,a4,819 # 33333333 <absimmsh+0x27862586>
    800007ec:	00b71713          	slli	a4,a4,0xb
    800007f0:	19970713          	addi	a4,a4,409
    800007f4:	00b71713          	slli	a4,a4,0xb
    800007f8:	4cc70713          	addi	a4,a4,1228
    800007fc:	00a71713          	slli	a4,a4,0xa
    80000800:	33470713          	addi	a4,a4,820
    80000804:	dff74c13          	xori	s8,a4,-513
    80000808:	03823423          	sd	s8,40(tp) # 28 <edge2+0x23>
    8000080c:	fcccd337          	lui	t1,0xfcccd
    80000810:	ccd3031b          	addiw	t1,t1,-819 # fffffffffccccccd <absimm+0xffffffff41fbf1fd>
    80000814:	00c31313          	slli	t1,t1,0xc
    80000818:	ccd30313          	addi	t1,t1,-819
    8000081c:	00c31313          	slli	t1,t1,0xc
    80000820:	ccd30313          	addi	t1,t1,-819
    80000824:	00c31313          	slli	t1,t1,0xc
    80000828:	ecb30313          	addi	t1,t1,-309
    8000082c:	01830463          	beq	t1,s8,80000834 <inst_26>
    80000830:	ff4ff06f          	j	80000024 <rvtest_error>

0000000080000834 <inst_26>:
    80000834:	00100113          	li	sp,1
    80000838:	03311113          	slli	sp,sp,0x33
    8000083c:	fff14113          	not	sp,sp
    80000840:	bff14913          	xori	s2,sp,-1025
    80000844:	03223823          	sd	s2,48(tp) # 30 <edge2+0x2b>
    80000848:	0010031b          	addiw	t1,zero,1
    8000084c:	03331313          	slli	t1,t1,0x33
    80000850:	40030313          	addi	t1,t1,1024
    80000854:	01230463          	beq	t1,s2,8000085c <inst_27>
    80000858:	fccff06f          	j	80000024 <rvtest_error>

000000008000085c <inst_27>:
    8000085c:	00100413          	li	s0,1
    80000860:	02e41413          	slli	s0,s0,0x2e
    80000864:	fff44413          	not	s0,s0
    80000868:	55544f13          	xori	t5,s0,1365
    8000086c:	03e23c23          	sd	t5,56(tp) # 38 <edge2+0x33>
    80000870:	fff0031b          	addiw	t1,zero,-1
    80000874:	02e31313          	slli	t1,t1,0x2e
    80000878:	aaa30313          	addi	t1,t1,-1366
    8000087c:	01e30463          	beq	t1,t5,80000884 <inst_28>
    80000880:	fa4ff06f          	j	80000024 <rvtest_error>

0000000080000884 <inst_28>:
    80000884:	00100793          	li	a5,1
    80000888:	02279793          	slli	a5,a5,0x22
    8000088c:	aaa7c193          	xori	gp,a5,-1366
    80000890:	04323023          	sd	gp,64(tp) # 40 <pos>
    80000894:	fff0031b          	addiw	t1,zero,-1
    80000898:	02231313          	slli	t1,t1,0x22
    8000089c:	aaa30313          	addi	t1,t1,-1366
    800008a0:	00330463          	beq	t1,gp,800008a8 <inst_29>
    800008a4:	f80ff06f          	j	80000024 <rvtest_error>

00000000800008a8 <inst_29>:
    800008a8:	00200a13          	li	s4,2
    800008ac:	dffa4113          	xori	sp,s4,-513
    800008b0:	04223423          	sd	sp,72(tp) # 48 <pos+0x8>
    800008b4:	dfd00313          	li	t1,-515
    800008b8:	00230463          	beq	t1,sp,800008c0 <inst_30>
    800008bc:	f68ff06f          	j	80000024 <rvtest_error>

00000000800008c0 <inst_30>:
    800008c0:	00800d13          	li	s10,8
    800008c4:	001d4013          	xori	zero,s10,1
    800008c8:	04023823          	sd	zero,80(tp) # 50 <pos+0x10>
    800008cc:	00000313          	li	t1,0
    800008d0:	00030463          	beqz	t1,800008d8 <inst_31>
    800008d4:	f50ff06f          	j	80000024 <rvtest_error>

00000000800008d8 <inst_31>:
    800008d8:	01000b93          	li	s7,16
    800008dc:	fbfbc393          	xori	t2,s7,-65
    800008e0:	04723c23          	sd	t2,88(tp) # 58 <pos+0x18>
    800008e4:	faf00313          	li	t1,-81
    800008e8:	00730463          	beq	t1,t2,800008f0 <inst_32>
    800008ec:	f38ff06f          	j	80000024 <rvtest_error>

00000000800008f0 <inst_32>:
    800008f0:	02000513          	li	a0,32
    800008f4:	f7f54593          	xori	a1,a0,-129
    800008f8:	06b23023          	sd	a1,96(tp) # 60 <pos+0x20>
    800008fc:	f5f00313          	li	t1,-161
    80000900:	00b30463          	beq	t1,a1,80000908 <inst_33>
    80000904:	f20ff06f          	j	80000024 <rvtest_error>

0000000080000908 <inst_33>:
    80000908:	04000513          	li	a0,64
    8000090c:	66654593          	xori	a1,a0,1638
    80000910:	06b23423          	sd	a1,104(tp) # 68 <pos+0x28>
    80000914:	62600313          	li	t1,1574
    80000918:	00b30463          	beq	t1,a1,80000920 <inst_34>
    8000091c:	f08ff06f          	j	80000024 <rvtest_error>

0000000080000920 <inst_34>:
    80000920:	08000513          	li	a0,128
    80000924:	c0054593          	xori	a1,a0,-1024
    80000928:	06b23823          	sd	a1,112(tp) # 70 <pos+0x30>
    8000092c:	c8000313          	li	t1,-896
    80000930:	00b30463          	beq	t1,a1,80000938 <inst_35>
    80000934:	ef0ff06f          	j	80000024 <rvtest_error>

0000000080000938 <inst_35>:
    80000938:	10000513          	li	a0,256
    8000093c:	00254593          	xori	a1,a0,2
    80000940:	06b23c23          	sd	a1,120(tp) # 78 <pos+0x38>
    80000944:	10200313          	li	t1,258
    80000948:	00b30463          	beq	t1,a1,80000950 <inst_36>
    8000094c:	ed8ff06f          	j	80000024 <rvtest_error>

0000000080000950 <inst_36>:
    80000950:	20000513          	li	a0,512
    80000954:	ff754593          	xori	a1,a0,-9
    80000958:	08b23023          	sd	a1,128(tp) # 80 <pos+0x40>
    8000095c:	df700313          	li	t1,-521
    80000960:	00b30463          	beq	t1,a1,80000968 <inst_37>
    80000964:	ec0ff06f          	j	80000024 <rvtest_error>

0000000080000968 <inst_37>:
    80000968:	40000513          	li	a0,1024
    8000096c:	66654593          	xori	a1,a0,1638
    80000970:	08b23423          	sd	a1,136(tp) # 88 <pos+0x48>
    80000974:	26600313          	li	t1,614
    80000978:	00b30463          	beq	t1,a1,80000980 <inst_38>
    8000097c:	ea8ff06f          	j	80000024 <rvtest_error>

0000000080000980 <inst_38>:
    80000980:	00100513          	li	a0,1
    80000984:	00b51513          	slli	a0,a0,0xb
    80000988:	04054593          	xori	a1,a0,64
    8000098c:	08b23823          	sd	a1,144(tp) # 90 <pos+0x50>
    80000990:	00001337          	lui	t1,0x1
    80000994:	8403031b          	addiw	t1,t1,-1984 # 840 <offset+0x560>
    80000998:	00b30463          	beq	t1,a1,800009a0 <inst_39>
    8000099c:	e88ff06f          	j	80000024 <rvtest_error>

00000000800009a0 <inst_39>:
    800009a0:	00100513          	li	a0,1
    800009a4:	00c51513          	slli	a0,a0,0xc
    800009a8:	55554593          	xori	a1,a0,1365
    800009ac:	08b23c23          	sd	a1,152(tp) # 98 <pos+0x58>
    800009b0:	00001337          	lui	t1,0x1
    800009b4:	5553031b          	addiw	t1,t1,1365 # 1555 <offset+0x1275>
    800009b8:	00b30463          	beq	t1,a1,800009c0 <inst_40>
    800009bc:	e68ff06f          	j	80000024 <rvtest_error>

00000000800009c0 <inst_40>:
    800009c0:	00100513          	li	a0,1
    800009c4:	00d51513          	slli	a0,a0,0xd
    800009c8:	ff654593          	xori	a1,a0,-10
    800009cc:	0ab23023          	sd	a1,160(tp) # a0 <pos+0x60>
    800009d0:	ffffe337          	lui	t1,0xffffe
    800009d4:	ff63031b          	addiw	t1,t1,-10 # ffffffffffffdff6 <absimm+0xffffffff452f0526>
    800009d8:	00b30463          	beq	t1,a1,800009e0 <inst_41>
    800009dc:	e48ff06f          	j	80000024 <rvtest_error>

00000000800009e0 <inst_41>:
    800009e0:	00100513          	li	a0,1
    800009e4:	00e51513          	slli	a0,a0,0xe
    800009e8:	55654593          	xori	a1,a0,1366
    800009ec:	0ab23423          	sd	a1,168(tp) # a8 <pos+0x68>
    800009f0:	00004337          	lui	t1,0x4
    800009f4:	5563031b          	addiw	t1,t1,1366 # 4556 <offset+0x4276>
    800009f8:	00b30463          	beq	t1,a1,80000a00 <inst_42>
    800009fc:	e28ff06f          	j	80000024 <rvtest_error>

0000000080000a00 <inst_42>:
    80000a00:	00100513          	li	a0,1
    80000a04:	01051513          	slli	a0,a0,0x10
    80000a08:	02c54593          	xori	a1,a0,44
    80000a0c:	0ab23823          	sd	a1,176(tp) # b0 <pos+0x70>
    80000a10:	00010337          	lui	t1,0x10
    80000a14:	02c3031b          	addiw	t1,t1,44 # 1002c <offset+0xfd4c>
    80000a18:	00b30463          	beq	t1,a1,80000a20 <inst_43>
    80000a1c:	e08ff06f          	j	80000024 <rvtest_error>

0000000080000a20 <inst_43>:
    80000a20:	00100513          	li	a0,1
    80000a24:	01151513          	slli	a0,a0,0x11
    80000a28:	ffe54593          	xori	a1,a0,-2
    80000a2c:	0ab23c23          	sd	a1,184(tp) # b8 <pos+0x78>
    80000a30:	fffe0337          	lui	t1,0xfffe0
    80000a34:	ffe3031b          	addiw	t1,t1,-2 # fffffffffffdfffe <absimm+0xffffffff452d252e>
    80000a38:	00b30463          	beq	t1,a1,80000a40 <inst_44>
    80000a3c:	de8ff06f          	j	80000024 <rvtest_error>

0000000080000a40 <inst_44>:
    80000a40:	00100513          	li	a0,1
    80000a44:	01251513          	slli	a0,a0,0x12
    80000a48:	00754593          	xori	a1,a0,7
    80000a4c:	0cb23023          	sd	a1,192(tp) # c0 <pos+0x80>
    80000a50:	00040337          	lui	t1,0x40
    80000a54:	0073031b          	addiw	t1,t1,7 # 40007 <offset+0x3fd27>
    80000a58:	00b30463          	beq	t1,a1,80000a60 <inst_45>
    80000a5c:	dc8ff06f          	j	80000024 <rvtest_error>

0000000080000a60 <inst_45>:
    80000a60:	00100513          	li	a0,1
    80000a64:	01351513          	slli	a0,a0,0x13
    80000a68:	33454593          	xori	a1,a0,820
    80000a6c:	0cb23423          	sd	a1,200(tp) # c8 <pos+0x88>
    80000a70:	00080337          	lui	t1,0x80
    80000a74:	3343031b          	addiw	t1,t1,820 # 80334 <offset+0x80054>
    80000a78:	00b30463          	beq	t1,a1,80000a80 <inst_46>
    80000a7c:	da8ff06f          	j	80000024 <rvtest_error>

0000000080000a80 <inst_46>:
    80000a80:	00100513          	li	a0,1
    80000a84:	01451513          	slli	a0,a0,0x14
    80000a88:	00454593          	xori	a1,a0,4
    80000a8c:	0cb23823          	sd	a1,208(tp) # d0 <pos+0x90>
    80000a90:	00100337          	lui	t1,0x100
    80000a94:	0043031b          	addiw	t1,t1,4 # 100004 <offset+0xffd24>
    80000a98:	00b30463          	beq	t1,a1,80000aa0 <inst_47>
    80000a9c:	d88ff06f          	j	80000024 <rvtest_error>

0000000080000aa0 <inst_47>:
    80000aa0:	00100513          	li	a0,1
    80000aa4:	01551513          	slli	a0,a0,0x15
    80000aa8:	ffb54593          	xori	a1,a0,-5
    80000aac:	0cb23c23          	sd	a1,216(tp) # d8 <pos+0x98>
    80000ab0:	ffe00337          	lui	t1,0xffe00
    80000ab4:	ffb3031b          	addiw	t1,t1,-5 # ffffffffffdffffb <absimm+0xffffffff450f252b>
    80000ab8:	00b30463          	beq	t1,a1,80000ac0 <inst_48>
    80000abc:	d68ff06f          	j	80000024 <rvtest_error>

0000000080000ac0 <inst_48>:
    80000ac0:	00100513          	li	a0,1
    80000ac4:	01651513          	slli	a0,a0,0x16
    80000ac8:	00054593          	xori	a1,a0,0
    80000acc:	0eb23023          	sd	a1,224(tp) # e0 <pos+0xa0>
    80000ad0:	00400337          	lui	t1,0x400
    80000ad4:	00b30463          	beq	t1,a1,80000adc <inst_49>
    80000ad8:	d4cff06f          	j	80000024 <rvtest_error>

0000000080000adc <inst_49>:
    80000adc:	00100513          	li	a0,1
    80000ae0:	01751513          	slli	a0,a0,0x17
    80000ae4:	33454593          	xori	a1,a0,820
    80000ae8:	0eb23423          	sd	a1,232(tp) # e8 <pos+0xa8>
    80000aec:	00800337          	lui	t1,0x800
    80000af0:	3343031b          	addiw	t1,t1,820 # 800334 <offset+0x800054>
    80000af4:	00b30463          	beq	t1,a1,80000afc <inst_50>
    80000af8:	d2cff06f          	j	80000024 <rvtest_error>

0000000080000afc <inst_50>:
    80000afc:	00100513          	li	a0,1
    80000b00:	01851513          	slli	a0,a0,0x18
    80000b04:	00454593          	xori	a1,a0,4
    80000b08:	0eb23823          	sd	a1,240(tp) # f0 <pos+0xb0>
    80000b0c:	01000337          	lui	t1,0x1000
    80000b10:	0043031b          	addiw	t1,t1,4 # 1000004 <offset+0xfffd24>
    80000b14:	00b30463          	beq	t1,a1,80000b1c <inst_51>
    80000b18:	d0cff06f          	j	80000024 <rvtest_error>

0000000080000b1c <inst_51>:
    80000b1c:	00100513          	li	a0,1
    80000b20:	01951513          	slli	a0,a0,0x19
    80000b24:	01054593          	xori	a1,a0,16
    80000b28:	0eb23c23          	sd	a1,248(tp) # f8 <pos+0xb8>
    80000b2c:	02000337          	lui	t1,0x2000
    80000b30:	0103031b          	addiw	t1,t1,16 # 2000010 <offset+0x1fffd30>
    80000b34:	00b30463          	beq	t1,a1,80000b3c <inst_52>
    80000b38:	cecff06f          	j	80000024 <rvtest_error>

0000000080000b3c <inst_52>:
    80000b3c:	00100513          	li	a0,1
    80000b40:	01a51513          	slli	a0,a0,0x1a
    80000b44:	bff54593          	xori	a1,a0,-1025
    80000b48:	10b23023          	sd	a1,256(tp) # 100 <pos+0xc0>
    80000b4c:	fc000337          	lui	t1,0xfc000
    80000b50:	bff3031b          	addiw	t1,t1,-1025 # fffffffffbfffbff <absimm+0xffffffff412f212f>
    80000b54:	00b30463          	beq	t1,a1,80000b5c <inst_53>
    80000b58:	cccff06f          	j	80000024 <rvtest_error>

0000000080000b5c <inst_53>:
    80000b5c:	00100513          	li	a0,1
    80000b60:	01b51513          	slli	a0,a0,0x1b
    80000b64:	00954593          	xori	a1,a0,9
    80000b68:	10b23423          	sd	a1,264(tp) # 108 <pos+0xc8>
    80000b6c:	08000337          	lui	t1,0x8000
    80000b70:	0093031b          	addiw	t1,t1,9 # 8000009 <offset+0x7fffd29>
    80000b74:	00b30463          	beq	t1,a1,80000b7c <inst_54>
    80000b78:	cacff06f          	j	80000024 <rvtest_error>

0000000080000b7c <inst_54>:
    80000b7c:	00100513          	li	a0,1
    80000b80:	01c51513          	slli	a0,a0,0x1c
    80000b84:	dff54593          	xori	a1,a0,-513
    80000b88:	10b23823          	sd	a1,272(tp) # 110 <pos+0xd0>
    80000b8c:	f0000337          	lui	t1,0xf0000
    80000b90:	dff3031b          	addiw	t1,t1,-513 # ffffffffeffffdff <absimm+0xffffffff352f232f>
    80000b94:	00b30463          	beq	t1,a1,80000b9c <inst_55>
    80000b98:	c8cff06f          	j	80000024 <rvtest_error>

0000000080000b9c <inst_55>:
    80000b9c:	00100513          	li	a0,1
    80000ba0:	01d51513          	slli	a0,a0,0x1d
    80000ba4:	55554593          	xori	a1,a0,1365
    80000ba8:	10b23c23          	sd	a1,280(tp) # 118 <pos+0xd8>
    80000bac:	20000337          	lui	t1,0x20000
    80000bb0:	5553031b          	addiw	t1,t1,1365 # 20000555 <absimmsh+0x1452f7a8>
    80000bb4:	00b30463          	beq	t1,a1,80000bbc <inst_56>
    80000bb8:	c6cff06f          	j	80000024 <rvtest_error>

0000000080000bbc <inst_56>:
    80000bbc:	00100513          	li	a0,1
    80000bc0:	01f51513          	slli	a0,a0,0x1f
    80000bc4:	fbf54593          	xori	a1,a0,-65
    80000bc8:	12b23023          	sd	a1,288(tp) # 120 <pos+0xe0>
    80000bcc:	fff0031b          	addiw	t1,zero,-1
    80000bd0:	01f31313          	slli	t1,t1,0x1f
    80000bd4:	fbf30313          	addi	t1,t1,-65
    80000bd8:	00b30463          	beq	t1,a1,80000be0 <inst_57>
    80000bdc:	c48ff06f          	j	80000024 <rvtest_error>

0000000080000be0 <inst_57>:
    80000be0:	00100513          	li	a0,1
    80000be4:	02051513          	slli	a0,a0,0x20
    80000be8:	dff54593          	xori	a1,a0,-513
    80000bec:	12b23423          	sd	a1,296(tp) # 128 <pos+0xe8>
    80000bf0:	fff0031b          	addiw	t1,zero,-1
    80000bf4:	02031313          	slli	t1,t1,0x20
    80000bf8:	dff30313          	addi	t1,t1,-513
    80000bfc:	00b30463          	beq	t1,a1,80000c04 <inst_58>
    80000c00:	c24ff06f          	j	80000024 <rvtest_error>

0000000080000c04 <inst_58>:
    80000c04:	00100513          	li	a0,1
    80000c08:	02151513          	slli	a0,a0,0x21
    80000c0c:	f7f54593          	xori	a1,a0,-129
    80000c10:	12b23823          	sd	a1,304(tp) # 130 <pos+0xf0>
    80000c14:	fff0031b          	addiw	t1,zero,-1
    80000c18:	02131313          	slli	t1,t1,0x21
    80000c1c:	f7f30313          	addi	t1,t1,-129
    80000c20:	00b30463          	beq	t1,a1,80000c28 <inst_59>
    80000c24:	c00ff06f          	j	80000024 <rvtest_error>

0000000080000c28 <inst_59>:
    80000c28:	00100513          	li	a0,1
    80000c2c:	02451513          	slli	a0,a0,0x24
    80000c30:	00454593          	xori	a1,a0,4
    80000c34:	12b23c23          	sd	a1,312(tp) # 138 <pos+0xf8>
    80000c38:	0010031b          	addiw	t1,zero,1
    80000c3c:	02431313          	slli	t1,t1,0x24
    80000c40:	00430313          	addi	t1,t1,4
    80000c44:	00b30463          	beq	t1,a1,80000c4c <inst_60>
    80000c48:	bdcff06f          	j	80000024 <rvtest_error>

0000000080000c4c <inst_60>:
    80000c4c:	00100513          	li	a0,1
    80000c50:	02551513          	slli	a0,a0,0x25
    80000c54:	00854593          	xori	a1,a0,8
    80000c58:	14b23023          	sd	a1,320(tp) # 140 <pos+0x100>
    80000c5c:	0010031b          	addiw	t1,zero,1
    80000c60:	02531313          	slli	t1,t1,0x25
    80000c64:	00830313          	addi	t1,t1,8
    80000c68:	00b30463          	beq	t1,a1,80000c70 <inst_61>
    80000c6c:	bb8ff06f          	j	80000024 <rvtest_error>

0000000080000c70 <inst_61>:
    80000c70:	00100513          	li	a0,1
    80000c74:	02651513          	slli	a0,a0,0x26
    80000c78:	fbf54593          	xori	a1,a0,-65
    80000c7c:	14b23423          	sd	a1,328(tp) # 148 <pos+0x108>
    80000c80:	fff0031b          	addiw	t1,zero,-1
    80000c84:	02631313          	slli	t1,t1,0x26
    80000c88:	fbf30313          	addi	t1,t1,-65
    80000c8c:	00b30463          	beq	t1,a1,80000c94 <inst_62>
    80000c90:	b94ff06f          	j	80000024 <rvtest_error>

0000000080000c94 <inst_62>:
    80000c94:	00100513          	li	a0,1
    80000c98:	02751513          	slli	a0,a0,0x27
    80000c9c:	04054593          	xori	a1,a0,64
    80000ca0:	14b23823          	sd	a1,336(tp) # 150 <pos+0x110>
    80000ca4:	0010031b          	addiw	t1,zero,1
    80000ca8:	02731313          	slli	t1,t1,0x27
    80000cac:	04030313          	addi	t1,t1,64
    80000cb0:	00b30463          	beq	t1,a1,80000cb8 <inst_63>
    80000cb4:	b70ff06f          	j	80000024 <rvtest_error>

0000000080000cb8 <inst_63>:
    80000cb8:	00100513          	li	a0,1
    80000cbc:	02851513          	slli	a0,a0,0x28
    80000cc0:	01054593          	xori	a1,a0,16
    80000cc4:	14b23c23          	sd	a1,344(tp) # 158 <pos+0x118>
    80000cc8:	0010031b          	addiw	t1,zero,1
    80000ccc:	02831313          	slli	t1,t1,0x28
    80000cd0:	01030313          	addi	t1,t1,16
    80000cd4:	00b30463          	beq	t1,a1,80000cdc <inst_64>
    80000cd8:	b4cff06f          	j	80000024 <rvtest_error>

0000000080000cdc <inst_64>:
    80000cdc:	00100513          	li	a0,1
    80000ce0:	02951513          	slli	a0,a0,0x29
    80000ce4:	40054593          	xori	a1,a0,1024
    80000ce8:	16b23023          	sd	a1,352(tp) # 160 <pos+0x120>
    80000cec:	0010031b          	addiw	t1,zero,1
    80000cf0:	02931313          	slli	t1,t1,0x29
    80000cf4:	40030313          	addi	t1,t1,1024
    80000cf8:	00b30463          	beq	t1,a1,80000d00 <inst_65>
    80000cfc:	b28ff06f          	j	80000024 <rvtest_error>

0000000080000d00 <inst_65>:
    80000d00:	00100513          	li	a0,1
    80000d04:	02a51513          	slli	a0,a0,0x2a
    80000d08:	00754593          	xori	a1,a0,7
    80000d0c:	16b23423          	sd	a1,360(tp) # 168 <pos+0x128>
    80000d10:	0010031b          	addiw	t1,zero,1
    80000d14:	02a31313          	slli	t1,t1,0x2a
    80000d18:	00730313          	addi	t1,t1,7
    80000d1c:	00b30463          	beq	t1,a1,80000d24 <inst_66>
    80000d20:	b04ff06f          	j	80000024 <rvtest_error>

0000000080000d24 <inst_66>:
    80000d24:	00100513          	li	a0,1
    80000d28:	02b51513          	slli	a0,a0,0x2b
    80000d2c:	00154593          	xori	a1,a0,1
    80000d30:	16b23823          	sd	a1,368(tp) # 170 <pos+0x130>
    80000d34:	0010031b          	addiw	t1,zero,1
    80000d38:	02b31313          	slli	t1,t1,0x2b
    80000d3c:	00130313          	addi	t1,t1,1
    80000d40:	00b30463          	beq	t1,a1,80000d48 <inst_67>
    80000d44:	ae0ff06f          	j	80000024 <rvtest_error>

0000000080000d48 <inst_67>:
    80000d48:	00100513          	li	a0,1
    80000d4c:	02c51513          	slli	a0,a0,0x2c
    80000d50:	02e54593          	xori	a1,a0,46
    80000d54:	16b23c23          	sd	a1,376(tp) # 178 <pos+0x138>
    80000d58:	0010031b          	addiw	t1,zero,1
    80000d5c:	02c31313          	slli	t1,t1,0x2c
    80000d60:	02e30313          	addi	t1,t1,46
    80000d64:	00b30463          	beq	t1,a1,80000d6c <inst_68>
    80000d68:	abcff06f          	j	80000024 <rvtest_error>

0000000080000d6c <inst_68>:
    80000d6c:	00100513          	li	a0,1
    80000d70:	02d51513          	slli	a0,a0,0x2d
    80000d74:	00454593          	xori	a1,a0,4
    80000d78:	18b23023          	sd	a1,384(tp) # 180 <pos+0x140>
    80000d7c:	0010031b          	addiw	t1,zero,1
    80000d80:	02d31313          	slli	t1,t1,0x2d
    80000d84:	00430313          	addi	t1,t1,4
    80000d88:	00b30463          	beq	t1,a1,80000d90 <inst_69>
    80000d8c:	a98ff06f          	j	80000024 <rvtest_error>

0000000080000d90 <inst_69>:
    80000d90:	00100513          	li	a0,1
    80000d94:	02e51513          	slli	a0,a0,0x2e
    80000d98:	20054593          	xori	a1,a0,512
    80000d9c:	18b23423          	sd	a1,392(tp) # 188 <pos+0x148>
    80000da0:	0010031b          	addiw	t1,zero,1
    80000da4:	02e31313          	slli	t1,t1,0x2e
    80000da8:	20030313          	addi	t1,t1,512
    80000dac:	00b30463          	beq	t1,a1,80000db4 <inst_70>
    80000db0:	a74ff06f          	j	80000024 <rvtest_error>

0000000080000db4 <inst_70>:
    80000db4:	00100513          	li	a0,1
    80000db8:	02f51513          	slli	a0,a0,0x2f
    80000dbc:	fff54593          	not	a1,a0
    80000dc0:	18b23823          	sd	a1,400(tp) # 190 <pos+0x150>
    80000dc4:	fff0031b          	addiw	t1,zero,-1
    80000dc8:	02f31313          	slli	t1,t1,0x2f
    80000dcc:	fff30313          	addi	t1,t1,-1
    80000dd0:	00b30463          	beq	t1,a1,80000dd8 <inst_71>
    80000dd4:	a50ff06f          	j	80000024 <rvtest_error>

0000000080000dd8 <inst_71>:
    80000dd8:	00100513          	li	a0,1
    80000ddc:	03051513          	slli	a0,a0,0x30
    80000de0:	00054593          	xori	a1,a0,0
    80000de4:	18b23c23          	sd	a1,408(tp) # 198 <pos+0x158>
    80000de8:	0010031b          	addiw	t1,zero,1
    80000dec:	03031313          	slli	t1,t1,0x30
    80000df0:	00b30463          	beq	t1,a1,80000df8 <inst_72>
    80000df4:	a30ff06f          	j	80000024 <rvtest_error>

0000000080000df8 <inst_72>:
    80000df8:	00100513          	li	a0,1
    80000dfc:	03151513          	slli	a0,a0,0x31
    80000e00:	00754593          	xori	a1,a0,7
    80000e04:	1ab23023          	sd	a1,416(tp) # 1a0 <pos+0x160>
    80000e08:	0010031b          	addiw	t1,zero,1
    80000e0c:	03131313          	slli	t1,t1,0x31
    80000e10:	00730313          	addi	t1,t1,7
    80000e14:	00b30463          	beq	t1,a1,80000e1c <inst_73>
    80000e18:	a0cff06f          	j	80000024 <rvtest_error>

0000000080000e1c <inst_73>:
    80000e1c:	00100513          	li	a0,1
    80000e20:	03251513          	slli	a0,a0,0x32
    80000e24:	ffd54593          	xori	a1,a0,-3
    80000e28:	1ab23423          	sd	a1,424(tp) # 1a8 <pos+0x168>
    80000e2c:	fff0031b          	addiw	t1,zero,-1
    80000e30:	03231313          	slli	t1,t1,0x32
    80000e34:	ffd30313          	addi	t1,t1,-3
    80000e38:	00b30463          	beq	t1,a1,80000e40 <inst_74>
    80000e3c:	9e8ff06f          	j	80000024 <rvtest_error>

0000000080000e40 <inst_74>:
    80000e40:	00100513          	li	a0,1
    80000e44:	03451513          	slli	a0,a0,0x34
    80000e48:	00054593          	xori	a1,a0,0
    80000e4c:	1ab23823          	sd	a1,432(tp) # 1b0 <pos+0x170>
    80000e50:	0010031b          	addiw	t1,zero,1
    80000e54:	03431313          	slli	t1,t1,0x34
    80000e58:	00b30463          	beq	t1,a1,80000e60 <inst_75>
    80000e5c:	9c8ff06f          	j	80000024 <rvtest_error>

0000000080000e60 <inst_75>:
    80000e60:	00100513          	li	a0,1
    80000e64:	03551513          	slli	a0,a0,0x35
    80000e68:	00654593          	xori	a1,a0,6
    80000e6c:	1ab23c23          	sd	a1,440(tp) # 1b8 <pos+0x178>
    80000e70:	0010031b          	addiw	t1,zero,1
    80000e74:	03531313          	slli	t1,t1,0x35
    80000e78:	00630313          	addi	t1,t1,6
    80000e7c:	00b30463          	beq	t1,a1,80000e84 <inst_76>
    80000e80:	9a4ff06f          	j	80000024 <rvtest_error>

0000000080000e84 <inst_76>:
    80000e84:	00100513          	li	a0,1
    80000e88:	03651513          	slli	a0,a0,0x36
    80000e8c:	00954593          	xori	a1,a0,9
    80000e90:	1cb23023          	sd	a1,448(tp) # 1c0 <pos+0x180>
    80000e94:	0010031b          	addiw	t1,zero,1
    80000e98:	03631313          	slli	t1,t1,0x36
    80000e9c:	00930313          	addi	t1,t1,9
    80000ea0:	00b30463          	beq	t1,a1,80000ea8 <inst_77>
    80000ea4:	980ff06f          	j	80000024 <rvtest_error>

0000000080000ea8 <inst_77>:
    80000ea8:	00100513          	li	a0,1
    80000eac:	03751513          	slli	a0,a0,0x37
    80000eb0:	01054593          	xori	a1,a0,16
    80000eb4:	1cb23423          	sd	a1,456(tp) # 1c8 <pos+0x188>
    80000eb8:	0010031b          	addiw	t1,zero,1
    80000ebc:	03731313          	slli	t1,t1,0x37
    80000ec0:	01030313          	addi	t1,t1,16
    80000ec4:	00b30463          	beq	t1,a1,80000ecc <inst_78>
    80000ec8:	95cff06f          	j	80000024 <rvtest_error>

0000000080000ecc <inst_78>:
    80000ecc:	00100513          	li	a0,1
    80000ed0:	03851513          	slli	a0,a0,0x38
    80000ed4:	55554593          	xori	a1,a0,1365
    80000ed8:	1cb23823          	sd	a1,464(tp) # 1d0 <pos+0x190>
    80000edc:	0010031b          	addiw	t1,zero,1
    80000ee0:	03831313          	slli	t1,t1,0x38
    80000ee4:	55530313          	addi	t1,t1,1365
    80000ee8:	00b30463          	beq	t1,a1,80000ef0 <inst_79>
    80000eec:	938ff06f          	j	80000024 <rvtest_error>

0000000080000ef0 <inst_79>:
    80000ef0:	00100513          	li	a0,1
    80000ef4:	03951513          	slli	a0,a0,0x39
    80000ef8:	ffd54593          	xori	a1,a0,-3
    80000efc:	1cb23c23          	sd	a1,472(tp) # 1d8 <pos+0x198>
    80000f00:	fff0031b          	addiw	t1,zero,-1
    80000f04:	03931313          	slli	t1,t1,0x39
    80000f08:	ffd30313          	addi	t1,t1,-3
    80000f0c:	00b30463          	beq	t1,a1,80000f14 <inst_80>
    80000f10:	914ff06f          	j	80000024 <rvtest_error>

0000000080000f14 <inst_80>:
    80000f14:	00100513          	li	a0,1
    80000f18:	03a51513          	slli	a0,a0,0x3a
    80000f1c:	fbf54593          	xori	a1,a0,-65
    80000f20:	1eb23023          	sd	a1,480(tp) # 1e0 <pos+0x1a0>
    80000f24:	fff0031b          	addiw	t1,zero,-1
    80000f28:	03a31313          	slli	t1,t1,0x3a
    80000f2c:	fbf30313          	addi	t1,t1,-65
    80000f30:	00b30463          	beq	t1,a1,80000f38 <inst_81>
    80000f34:	8f0ff06f          	j	80000024 <rvtest_error>

0000000080000f38 <inst_81>:
    80000f38:	00100513          	li	a0,1
    80000f3c:	03b51513          	slli	a0,a0,0x3b
    80000f40:	00054593          	xori	a1,a0,0
    80000f44:	1eb23423          	sd	a1,488(tp) # 1e8 <pos+0x1a8>
    80000f48:	0010031b          	addiw	t1,zero,1
    80000f4c:	03b31313          	slli	t1,t1,0x3b
    80000f50:	00b30463          	beq	t1,a1,80000f58 <inst_82>
    80000f54:	8d0ff06f          	j	80000024 <rvtest_error>

0000000080000f58 <inst_82>:
    80000f58:	00100513          	li	a0,1
    80000f5c:	03c51513          	slli	a0,a0,0x3c
    80000f60:	00254593          	xori	a1,a0,2
    80000f64:	1eb23823          	sd	a1,496(tp) # 1f0 <pos+0x1b0>
    80000f68:	0010031b          	addiw	t1,zero,1
    80000f6c:	03c31313          	slli	t1,t1,0x3c
    80000f70:	00230313          	addi	t1,t1,2
    80000f74:	00b30463          	beq	t1,a1,80000f7c <inst_83>
    80000f78:	8acff06f          	j	80000024 <rvtest_error>

0000000080000f7c <inst_83>:
    80000f7c:	00100513          	li	a0,1
    80000f80:	03e51513          	slli	a0,a0,0x3e
    80000f84:	33354593          	xori	a1,a0,819
    80000f88:	1eb23c23          	sd	a1,504(tp) # 1f8 <pos+0x1b8>
    80000f8c:	0010031b          	addiw	t1,zero,1
    80000f90:	03e31313          	slli	t1,t1,0x3e
    80000f94:	33330313          	addi	t1,t1,819
    80000f98:	00b30463          	beq	t1,a1,80000fa0 <inst_84>
    80000f9c:	888ff06f          	j	80000024 <rvtest_error>

0000000080000fa0 <inst_84>:
    80000fa0:	ffd00513          	li	a0,-3
    80000fa4:	00854593          	xori	a1,a0,8
    80000fa8:	20b23023          	sd	a1,512(tp) # 200 <pos+0x1c0>
    80000fac:	ff500313          	li	t1,-11
    80000fb0:	00b30463          	beq	t1,a1,80000fb8 <inst_85>
    80000fb4:	870ff06f          	j	80000024 <rvtest_error>

0000000080000fb8 <inst_85>:
    80000fb8:	ffb00513          	li	a0,-5
    80000fbc:	00254593          	xori	a1,a0,2
    80000fc0:	20b23423          	sd	a1,520(tp) # 208 <pos+0x1c8>
    80000fc4:	ff900313          	li	t1,-7
    80000fc8:	00b30463          	beq	t1,a1,80000fd0 <inst_86>
    80000fcc:	858ff06f          	j	80000024 <rvtest_error>

0000000080000fd0 <inst_86>:
    80000fd0:	ff700513          	li	a0,-9
    80000fd4:	00354593          	xori	a1,a0,3
    80000fd8:	20b23823          	sd	a1,528(tp) # 210 <pos+0x1d0>
    80000fdc:	ff400313          	li	t1,-12
    80000fe0:	00b30463          	beq	t1,a1,80000fe8 <inst_87>
    80000fe4:	840ff06f          	j	80000024 <rvtest_error>

0000000080000fe8 <inst_87>:
    80000fe8:	fef00513          	li	a0,-17
    80000fec:	02d54593          	xori	a1,a0,45
    80000ff0:	20b23c23          	sd	a1,536(tp) # 218 <pos+0x1d8>
    80000ff4:	fc200313          	li	t1,-62
    80000ff8:	00b30463          	beq	t1,a1,80001000 <inst_88>
    80000ffc:	828ff06f          	j	80000024 <rvtest_error>

0000000080001000 <inst_88>:
    80001000:	fdf00513          	li	a0,-33
    80001004:	02c54593          	xori	a1,a0,44
    80001008:	22b23023          	sd	a1,544(tp) # 220 <pos+0x1e0>
    8000100c:	ff300313          	li	t1,-13
    80001010:	00b30463          	beq	t1,a1,80001018 <inst_89>
    80001014:	810ff06f          	j	80000024 <rvtest_error>

0000000080001018 <inst_89>:
    80001018:	fbf00513          	li	a0,-65
    8000101c:	ffa54593          	xori	a1,a0,-6
    80001020:	22b23423          	sd	a1,552(tp) # 228 <pos+0x1e8>
    80001024:	04500313          	li	t1,69
    80001028:	00b30463          	beq	t1,a1,80001030 <inst_90>
    8000102c:	ff9fe06f          	j	80000024 <rvtest_error>

0000000080001030 <inst_90>:
    80001030:	f7f00513          	li	a0,-129
    80001034:	00354593          	xori	a1,a0,3
    80001038:	22b23823          	sd	a1,560(tp) # 230 <pos+0x1f0>
    8000103c:	f7c00313          	li	t1,-132
    80001040:	00b30463          	beq	t1,a1,80001048 <inst_91>
    80001044:	fe1fe06f          	j	80000024 <rvtest_error>

0000000080001048 <inst_91>:
    80001048:	dff00513          	li	a0,-513
    8000104c:	00054593          	xori	a1,a0,0
    80001050:	22b23c23          	sd	a1,568(tp) # 238 <pos+0x1f8>
    80001054:	dff00313          	li	t1,-513
    80001058:	00b30463          	beq	t1,a1,80001060 <inst_92>
    8000105c:	fc9fe06f          	j	80000024 <rvtest_error>

0000000080001060 <inst_92>:
    80001060:	bff00513          	li	a0,-1025
    80001064:	55654593          	xori	a1,a0,1366
    80001068:	24b23023          	sd	a1,576(tp) # 240 <pos+0x200>
    8000106c:	ea900313          	li	t1,-343
    80001070:	00b30463          	beq	t1,a1,80001078 <inst_93>
    80001074:	fb1fe06f          	j	80000024 <rvtest_error>

0000000080001078 <inst_93>:
    80001078:	00100513          	li	a0,1
    8000107c:	00c51513          	slli	a0,a0,0xc
    80001080:	fff54513          	not	a0,a0
    80001084:	ffb54593          	xori	a1,a0,-5
    80001088:	24b23423          	sd	a1,584(tp) # 248 <pos+0x208>
    8000108c:	00001337          	lui	t1,0x1
    80001090:	0043031b          	addiw	t1,t1,4 # 1004 <offset+0xd24>
    80001094:	00b30463          	beq	t1,a1,8000109c <inst_94>
    80001098:	f8dfe06f          	j	80000024 <rvtest_error>

000000008000109c <inst_94>:
    8000109c:	00100513          	li	a0,1
    800010a0:	00d51513          	slli	a0,a0,0xd
    800010a4:	fff54513          	not	a0,a0
    800010a8:	fd454593          	xori	a1,a0,-44
    800010ac:	24b23823          	sd	a1,592(tp) # 250 <pos+0x210>
    800010b0:	00002337          	lui	t1,0x2
    800010b4:	02b3031b          	addiw	t1,t1,43 # 202b <offset+0x1d4b>
    800010b8:	00b30463          	beq	t1,a1,800010c0 <inst_95>
    800010bc:	f69fe06f          	j	80000024 <rvtest_error>

00000000800010c0 <inst_95>:
    800010c0:	00100513          	li	a0,1
    800010c4:	00e51513          	slli	a0,a0,0xe
    800010c8:	fff54513          	not	a0,a0
    800010cc:	55654593          	xori	a1,a0,1366
    800010d0:	24b23c23          	sd	a1,600(tp) # 258 <pos+0x218>
    800010d4:	ffffc337          	lui	t1,0xffffc
    800010d8:	aa93031b          	addiw	t1,t1,-1367 # ffffffffffffbaa9 <absimm+0xffffffff452edfd9>
    800010dc:	00b30463          	beq	t1,a1,800010e4 <inst_96>
    800010e0:	f45fe06f          	j	80000024 <rvtest_error>

00000000800010e4 <inst_96>:
    800010e4:	00100513          	li	a0,1
    800010e8:	00f51513          	slli	a0,a0,0xf
    800010ec:	fff54513          	not	a0,a0
    800010f0:	00554593          	xori	a1,a0,5
    800010f4:	26b23023          	sd	a1,608(tp) # 260 <pos+0x220>
    800010f8:	ffff8337          	lui	t1,0xffff8
    800010fc:	ffa3031b          	addiw	t1,t1,-6 # ffffffffffff7ffa <absimm+0xffffffff452ea52a>
    80001100:	00b30463          	beq	t1,a1,80001108 <inst_97>
    80001104:	f21fe06f          	j	80000024 <rvtest_error>

0000000080001108 <inst_97>:
    80001108:	00100513          	li	a0,1
    8000110c:	01051513          	slli	a0,a0,0x10
    80001110:	fff54513          	not	a0,a0
    80001114:	00854593          	xori	a1,a0,8
    80001118:	26b23423          	sd	a1,616(tp) # 268 <pos+0x228>
    8000111c:	ffff0337          	lui	t1,0xffff0
    80001120:	ff73031b          	addiw	t1,t1,-9 # fffffffffffefff7 <absimm+0xffffffff452e2527>
    80001124:	00b30463          	beq	t1,a1,8000112c <inst_98>
    80001128:	efdfe06f          	j	80000024 <rvtest_error>

000000008000112c <inst_98>:
    8000112c:	00100513          	li	a0,1
    80001130:	01151513          	slli	a0,a0,0x11
    80001134:	fff54513          	not	a0,a0
    80001138:	20054593          	xori	a1,a0,512
    8000113c:	26b23823          	sd	a1,624(tp) # 270 <pos+0x230>
    80001140:	fffe0337          	lui	t1,0xfffe0
    80001144:	dff3031b          	addiw	t1,t1,-513 # fffffffffffdfdff <absimm+0xffffffff452d232f>
    80001148:	00b30463          	beq	t1,a1,80001150 <inst_99>
    8000114c:	ed9fe06f          	j	80000024 <rvtest_error>

0000000080001150 <inst_99>:
    80001150:	00100513          	li	a0,1
    80001154:	01251513          	slli	a0,a0,0x12
    80001158:	fff54513          	not	a0,a0
    8000115c:	55454593          	xori	a1,a0,1364
    80001160:	26b23c23          	sd	a1,632(tp) # 278 <pos+0x238>
    80001164:	fffc0337          	lui	t1,0xfffc0
    80001168:	aab3031b          	addiw	t1,t1,-1365 # fffffffffffbfaab <absimm+0xffffffff452b1fdb>
    8000116c:	00b30463          	beq	t1,a1,80001174 <inst_100>
    80001170:	eb5fe06f          	j	80000024 <rvtest_error>

0000000080001174 <inst_100>:
    80001174:	00100513          	li	a0,1
    80001178:	01351513          	slli	a0,a0,0x13
    8000117c:	fff54513          	not	a0,a0
    80001180:	00254593          	xori	a1,a0,2
    80001184:	28b23023          	sd	a1,640(tp) # 280 <pos+0x240>
    80001188:	fff80337          	lui	t1,0xfff80
    8000118c:	ffd3031b          	addiw	t1,t1,-3 # fffffffffff7fffd <absimm+0xffffffff4527252d>
    80001190:	00b30463          	beq	t1,a1,80001198 <inst_101>
    80001194:	e91fe06f          	j	80000024 <rvtest_error>

0000000080001198 <inst_101>:
    80001198:	00100513          	li	a0,1
    8000119c:	01451513          	slli	a0,a0,0x14
    800011a0:	fff54513          	not	a0,a0
    800011a4:	aab54593          	xori	a1,a0,-1365
    800011a8:	28b23423          	sd	a1,648(tp) # 288 <pos+0x248>
    800011ac:	00100337          	lui	t1,0x100
    800011b0:	5543031b          	addiw	t1,t1,1364 # 100554 <offset+0x100274>
    800011b4:	00b30463          	beq	t1,a1,800011bc <inst_102>
    800011b8:	e6dfe06f          	j	80000024 <rvtest_error>

00000000800011bc <inst_102>:
    800011bc:	00100513          	li	a0,1
    800011c0:	01551513          	slli	a0,a0,0x15
    800011c4:	fff54513          	not	a0,a0
    800011c8:	fef54593          	xori	a1,a0,-17
    800011cc:	28b23823          	sd	a1,656(tp) # 290 <pos+0x250>
    800011d0:	00200337          	lui	t1,0x200
    800011d4:	0103031b          	addiw	t1,t1,16 # 200010 <offset+0x1ffd30>
    800011d8:	00b30463          	beq	t1,a1,800011e0 <inst_103>
    800011dc:	e49fe06f          	j	80000024 <rvtest_error>

00000000800011e0 <inst_103>:
    800011e0:	00100513          	li	a0,1
    800011e4:	01651513          	slli	a0,a0,0x16
    800011e8:	fff54513          	not	a0,a0
    800011ec:	04054593          	xori	a1,a0,64
    800011f0:	28b23c23          	sd	a1,664(tp) # 298 <pos+0x258>
    800011f4:	ffc00337          	lui	t1,0xffc00
    800011f8:	fbf3031b          	addiw	t1,t1,-65 # ffffffffffbfffbf <absimm+0xffffffff44ef24ef>
    800011fc:	00b30463          	beq	t1,a1,80001204 <inst_104>
    80001200:	e25fe06f          	j	80000024 <rvtest_error>

0000000080001204 <inst_104>:
    80001204:	00100513          	li	a0,1
    80001208:	01751513          	slli	a0,a0,0x17
    8000120c:	fff54513          	not	a0,a0
    80001210:	00354593          	xori	a1,a0,3
    80001214:	2ab23023          	sd	a1,672(tp) # 2a0 <pos+0x260>
    80001218:	ff800337          	lui	t1,0xff800
    8000121c:	ffc3031b          	addiw	t1,t1,-4 # ffffffffff7ffffc <absimm+0xffffffff44af252c>
    80001220:	00b30463          	beq	t1,a1,80001228 <inst_105>
    80001224:	e01fe06f          	j	80000024 <rvtest_error>

0000000080001228 <inst_105>:
    80001228:	00100513          	li	a0,1
    8000122c:	01851513          	slli	a0,a0,0x18
    80001230:	fff54513          	not	a0,a0
    80001234:	fd454593          	xori	a1,a0,-44
    80001238:	2ab23423          	sd	a1,680(tp) # 2a8 <pos+0x268>
    8000123c:	01000337          	lui	t1,0x1000
    80001240:	02b3031b          	addiw	t1,t1,43 # 100002b <offset+0xfffd4b>
    80001244:	00b30463          	beq	t1,a1,8000124c <inst_106>
    80001248:	dddfe06f          	j	80000024 <rvtest_error>

000000008000124c <inst_106>:
    8000124c:	00100513          	li	a0,1
    80001250:	01951513          	slli	a0,a0,0x19
    80001254:	fff54513          	not	a0,a0
    80001258:	fd454593          	xori	a1,a0,-44
    8000125c:	2ab23823          	sd	a1,688(tp) # 2b0 <pos+0x270>
    80001260:	02000337          	lui	t1,0x2000
    80001264:	02b3031b          	addiw	t1,t1,43 # 200002b <offset+0x1fffd4b>
    80001268:	00b30463          	beq	t1,a1,80001270 <inst_107>
    8000126c:	db9fe06f          	j	80000024 <rvtest_error>

0000000080001270 <inst_107>:
    80001270:	00100513          	li	a0,1
    80001274:	01c51513          	slli	a0,a0,0x1c
    80001278:	fff54513          	not	a0,a0
    8000127c:	55654593          	xori	a1,a0,1366
    80001280:	2ab23c23          	sd	a1,696(tp) # 2b8 <pos+0x278>
    80001284:	f0000337          	lui	t1,0xf0000
    80001288:	aa93031b          	addiw	t1,t1,-1367 # ffffffffeffffaa9 <absimm+0xffffffff352f1fd9>
    8000128c:	00b30463          	beq	t1,a1,80001294 <inst_108>
    80001290:	d95fe06f          	j	80000024 <rvtest_error>

0000000080001294 <inst_108>:
    80001294:	00100513          	li	a0,1
    80001298:	01d51513          	slli	a0,a0,0x1d
    8000129c:	fff54513          	not	a0,a0
    800012a0:	fbf54593          	xori	a1,a0,-65
    800012a4:	2cb23023          	sd	a1,704(tp) # 2c0 <pos+0x280>
    800012a8:	20000337          	lui	t1,0x20000
    800012ac:	0403031b          	addiw	t1,t1,64 # 20000040 <absimmsh+0x1452f293>
    800012b0:	00b30463          	beq	t1,a1,800012b8 <inst_109>
    800012b4:	d71fe06f          	j	80000024 <rvtest_error>

00000000800012b8 <inst_109>:
    800012b8:	00100513          	li	a0,1
    800012bc:	01e51513          	slli	a0,a0,0x1e
    800012c0:	fff54513          	not	a0,a0
    800012c4:	ffc54593          	xori	a1,a0,-4
    800012c8:	2cb23423          	sd	a1,712(tp) # 2c8 <pos+0x288>
    800012cc:	40000337          	lui	t1,0x40000
    800012d0:	0033031b          	addiw	t1,t1,3 # 40000003 <absimmsh+0x3452f256>
    800012d4:	00b30463          	beq	t1,a1,800012dc <inst_110>
    800012d8:	d4dfe06f          	j	80000024 <rvtest_error>

00000000800012dc <inst_110>:
    800012dc:	00100513          	li	a0,1
    800012e0:	02051513          	slli	a0,a0,0x20
    800012e4:	fff54513          	not	a0,a0
    800012e8:	33254593          	xori	a1,a0,818
    800012ec:	2cb23823          	sd	a1,720(tp) # 2d0 <pos+0x290>
    800012f0:	fff0031b          	addiw	t1,zero,-1
    800012f4:	02031313          	slli	t1,t1,0x20
    800012f8:	ccd30313          	addi	t1,t1,-819
    800012fc:	00b30463          	beq	t1,a1,80001304 <inst_111>
    80001300:	d25fe06f          	j	80000024 <rvtest_error>

0000000080001304 <inst_111>:
    80001304:	00100513          	li	a0,1
    80001308:	02251513          	slli	a0,a0,0x22
    8000130c:	fff54513          	not	a0,a0
    80001310:	aaa54593          	xori	a1,a0,-1366
    80001314:	2cb23c23          	sd	a1,728(tp) # 2d8 <pos+0x298>
    80001318:	0010031b          	addiw	t1,zero,1
    8000131c:	02231313          	slli	t1,t1,0x22
    80001320:	55530313          	addi	t1,t1,1365
    80001324:	00b30463          	beq	t1,a1,8000132c <inst_112>
    80001328:	cfdfe06f          	j	80000024 <rvtest_error>

000000008000132c <inst_112>:
    8000132c:	00100513          	li	a0,1
    80001330:	02351513          	slli	a0,a0,0x23
    80001334:	fff54513          	not	a0,a0
    80001338:	ffa54593          	xori	a1,a0,-6
    8000133c:	2eb23023          	sd	a1,736(tp) # 2e0 <offset>
    80001340:	0010031b          	addiw	t1,zero,1
    80001344:	02331313          	slli	t1,t1,0x23
    80001348:	00530313          	addi	t1,t1,5
    8000134c:	00b30463          	beq	t1,a1,80001354 <inst_113>
    80001350:	cd5fe06f          	j	80000024 <rvtest_error>

0000000080001354 <inst_113>:
    80001354:	00100513          	li	a0,1
    80001358:	02451513          	slli	a0,a0,0x24
    8000135c:	fff54513          	not	a0,a0
    80001360:	fd454593          	xori	a1,a0,-44
    80001364:	2eb23423          	sd	a1,744(tp) # 2e8 <offset+0x8>
    80001368:	0010031b          	addiw	t1,zero,1
    8000136c:	02431313          	slli	t1,t1,0x24
    80001370:	02b30313          	addi	t1,t1,43
    80001374:	00b30463          	beq	t1,a1,8000137c <inst_114>
    80001378:	cadfe06f          	j	80000024 <rvtest_error>

000000008000137c <inst_114>:
    8000137c:	00100513          	li	a0,1
    80001380:	02551513          	slli	a0,a0,0x25
    80001384:	fff54513          	not	a0,a0
    80001388:	55554593          	xori	a1,a0,1365
    8000138c:	2eb23823          	sd	a1,752(tp) # 2f0 <offset+0x10>
    80001390:	fff0031b          	addiw	t1,zero,-1
    80001394:	02531313          	slli	t1,t1,0x25
    80001398:	aaa30313          	addi	t1,t1,-1366
    8000139c:	00b30463          	beq	t1,a1,800013a4 <inst_115>
    800013a0:	c85fe06f          	j	80000024 <rvtest_error>

00000000800013a4 <inst_115>:
    800013a4:	00100513          	li	a0,1
    800013a8:	02651513          	slli	a0,a0,0x26
    800013ac:	fff54513          	not	a0,a0
    800013b0:	10054593          	xori	a1,a0,256
    800013b4:	2eb23c23          	sd	a1,760(tp) # 2f8 <offset+0x18>
    800013b8:	fff0031b          	addiw	t1,zero,-1
    800013bc:	02631313          	slli	t1,t1,0x26
    800013c0:	eff30313          	addi	t1,t1,-257
    800013c4:	00b30463          	beq	t1,a1,800013cc <inst_116>
    800013c8:	c5dfe06f          	j	80000024 <rvtest_error>

00000000800013cc <inst_116>:
    800013cc:	00100513          	li	a0,1
    800013d0:	02751513          	slli	a0,a0,0x27
    800013d4:	fff54513          	not	a0,a0
    800013d8:	02c54593          	xori	a1,a0,44
    800013dc:	30b23023          	sd	a1,768(tp) # 300 <offset+0x20>
    800013e0:	fff0031b          	addiw	t1,zero,-1
    800013e4:	02731313          	slli	t1,t1,0x27
    800013e8:	fd330313          	addi	t1,t1,-45
    800013ec:	00b30463          	beq	t1,a1,800013f4 <inst_117>
    800013f0:	c35fe06f          	j	80000024 <rvtest_error>

00000000800013f4 <inst_117>:
    800013f4:	00100513          	li	a0,1
    800013f8:	02851513          	slli	a0,a0,0x28
    800013fc:	fff54513          	not	a0,a0
    80001400:	08054593          	xori	a1,a0,128
    80001404:	30b23423          	sd	a1,776(tp) # 308 <offset+0x28>
    80001408:	fff0031b          	addiw	t1,zero,-1
    8000140c:	02831313          	slli	t1,t1,0x28
    80001410:	f7f30313          	addi	t1,t1,-129
    80001414:	00b30463          	beq	t1,a1,8000141c <inst_118>
    80001418:	c0dfe06f          	j	80000024 <rvtest_error>

000000008000141c <inst_118>:
    8000141c:	00100513          	li	a0,1
    80001420:	02951513          	slli	a0,a0,0x29
    80001424:	fff54513          	not	a0,a0
    80001428:	00054593          	xori	a1,a0,0
    8000142c:	30b23823          	sd	a1,784(tp) # 310 <offset+0x30>
    80001430:	fff0031b          	addiw	t1,zero,-1
    80001434:	02931313          	slli	t1,t1,0x29
    80001438:	fff30313          	addi	t1,t1,-1
    8000143c:	00b30463          	beq	t1,a1,80001444 <inst_119>
    80001440:	be5fe06f          	j	80000024 <rvtest_error>

0000000080001444 <inst_119>:
    80001444:	00100513          	li	a0,1
    80001448:	02b51513          	slli	a0,a0,0x2b
    8000144c:	fff54513          	not	a0,a0
    80001450:	00154593          	xori	a1,a0,1
    80001454:	30b23c23          	sd	a1,792(tp) # 318 <offset+0x38>
    80001458:	fff0031b          	addiw	t1,zero,-1
    8000145c:	02b31313          	slli	t1,t1,0x2b
    80001460:	ffe30313          	addi	t1,t1,-2
    80001464:	00b30463          	beq	t1,a1,8000146c <inst_120>
    80001468:	bbdfe06f          	j	80000024 <rvtest_error>

000000008000146c <inst_120>:
    8000146c:	00100513          	li	a0,1
    80001470:	02c51513          	slli	a0,a0,0x2c
    80001474:	fff54513          	not	a0,a0
    80001478:	00654593          	xori	a1,a0,6
    8000147c:	32b23023          	sd	a1,800(tp) # 320 <offset+0x40>
    80001480:	fff0031b          	addiw	t1,zero,-1
    80001484:	02c31313          	slli	t1,t1,0x2c
    80001488:	ff930313          	addi	t1,t1,-7
    8000148c:	00b30463          	beq	t1,a1,80001494 <inst_121>
    80001490:	b95fe06f          	j	80000024 <rvtest_error>

0000000080001494 <inst_121>:
    80001494:	00100513          	li	a0,1
    80001498:	02d51513          	slli	a0,a0,0x2d
    8000149c:	fff54513          	not	a0,a0
    800014a0:	00254593          	xori	a1,a0,2
    800014a4:	32b23423          	sd	a1,808(tp) # 328 <offset+0x48>
    800014a8:	fff0031b          	addiw	t1,zero,-1
    800014ac:	02d31313          	slli	t1,t1,0x2d
    800014b0:	ffd30313          	addi	t1,t1,-3
    800014b4:	00b30463          	beq	t1,a1,800014bc <inst_122>
    800014b8:	b6dfe06f          	j	80000024 <rvtest_error>

00000000800014bc <inst_122>:
    800014bc:	00100513          	li	a0,1
    800014c0:	02f51513          	slli	a0,a0,0x2f
    800014c4:	fff54513          	not	a0,a0
    800014c8:	80054593          	xori	a1,a0,-2048
    800014cc:	32b23823          	sd	a1,816(tp) # 330 <offset+0x50>
    800014d0:	0010031b          	addiw	t1,zero,1
    800014d4:	02f31313          	slli	t1,t1,0x2f
    800014d8:	7ff30313          	addi	t1,t1,2047
    800014dc:	00b30463          	beq	t1,a1,800014e4 <inst_123>
    800014e0:	b45fe06f          	j	80000024 <rvtest_error>

00000000800014e4 <inst_123>:
    800014e4:	00100513          	li	a0,1
    800014e8:	03051513          	slli	a0,a0,0x30
    800014ec:	fff54513          	not	a0,a0
    800014f0:	02054593          	xori	a1,a0,32
    800014f4:	32b23c23          	sd	a1,824(tp) # 338 <offset+0x58>
    800014f8:	fff0031b          	addiw	t1,zero,-1
    800014fc:	03031313          	slli	t1,t1,0x30
    80001500:	fdf30313          	addi	t1,t1,-33
    80001504:	00b30463          	beq	t1,a1,8000150c <inst_124>
    80001508:	b1dfe06f          	j	80000024 <rvtest_error>

000000008000150c <inst_124>:
    8000150c:	00100513          	li	a0,1
    80001510:	03151513          	slli	a0,a0,0x31
    80001514:	fff54513          	not	a0,a0
    80001518:	04054593          	xori	a1,a0,64
    8000151c:	34b23023          	sd	a1,832(tp) # 340 <offset+0x60>
    80001520:	fff0031b          	addiw	t1,zero,-1
    80001524:	03131313          	slli	t1,t1,0x31
    80001528:	fbf30313          	addi	t1,t1,-65
    8000152c:	00b30463          	beq	t1,a1,80001534 <inst_125>
    80001530:	af5fe06f          	j	80000024 <rvtest_error>

0000000080001534 <inst_125>:
    80001534:	00100513          	li	a0,1
    80001538:	03251513          	slli	a0,a0,0x32
    8000153c:	fff54513          	not	a0,a0
    80001540:	00054593          	xori	a1,a0,0
    80001544:	34b23423          	sd	a1,840(tp) # 348 <offset+0x68>
    80001548:	fff0031b          	addiw	t1,zero,-1
    8000154c:	03231313          	slli	t1,t1,0x32
    80001550:	fff30313          	addi	t1,t1,-1
    80001554:	00b30463          	beq	t1,a1,8000155c <inst_126>
    80001558:	acdfe06f          	j	80000024 <rvtest_error>

000000008000155c <inst_126>:
    8000155c:	00100513          	li	a0,1
    80001560:	03451513          	slli	a0,a0,0x34
    80001564:	fff54513          	not	a0,a0
    80001568:	00654593          	xori	a1,a0,6
    8000156c:	34b23823          	sd	a1,848(tp) # 350 <offset+0x70>
    80001570:	fff0031b          	addiw	t1,zero,-1
    80001574:	03431313          	slli	t1,t1,0x34
    80001578:	ff930313          	addi	t1,t1,-7
    8000157c:	00b30463          	beq	t1,a1,80001584 <inst_127>
    80001580:	aa5fe06f          	j	80000024 <rvtest_error>

0000000080001584 <inst_127>:
    80001584:	00100513          	li	a0,1
    80001588:	03551513          	slli	a0,a0,0x35
    8000158c:	fff54513          	not	a0,a0
    80001590:	00454593          	xori	a1,a0,4
    80001594:	34b23c23          	sd	a1,856(tp) # 358 <offset+0x78>
    80001598:	fff0031b          	addiw	t1,zero,-1
    8000159c:	03531313          	slli	t1,t1,0x35
    800015a0:	ffb30313          	addi	t1,t1,-5
    800015a4:	00b30463          	beq	t1,a1,800015ac <inst_128>
    800015a8:	a7dfe06f          	j	80000024 <rvtest_error>

00000000800015ac <inst_128>:
    800015ac:	00100513          	li	a0,1
    800015b0:	03651513          	slli	a0,a0,0x36
    800015b4:	fff54513          	not	a0,a0
    800015b8:	20054593          	xori	a1,a0,512
    800015bc:	36b23023          	sd	a1,864(tp) # 360 <offset+0x80>
    800015c0:	fff0031b          	addiw	t1,zero,-1
    800015c4:	03631313          	slli	t1,t1,0x36
    800015c8:	dff30313          	addi	t1,t1,-513
    800015cc:	00b30463          	beq	t1,a1,800015d4 <inst_129>
    800015d0:	a55fe06f          	j	80000024 <rvtest_error>

00000000800015d4 <inst_129>:
    800015d4:	00100513          	li	a0,1
    800015d8:	03751513          	slli	a0,a0,0x37
    800015dc:	fff54513          	not	a0,a0
    800015e0:	00054593          	xori	a1,a0,0
    800015e4:	36b23423          	sd	a1,872(tp) # 368 <offset+0x88>
    800015e8:	fff0031b          	addiw	t1,zero,-1
    800015ec:	03731313          	slli	t1,t1,0x37
    800015f0:	fff30313          	addi	t1,t1,-1
    800015f4:	00b30463          	beq	t1,a1,800015fc <inst_130>
    800015f8:	a2dfe06f          	j	80000024 <rvtest_error>

00000000800015fc <inst_130>:
    800015fc:	00100513          	li	a0,1
    80001600:	03851513          	slli	a0,a0,0x38
    80001604:	fff54513          	not	a0,a0
    80001608:	7ff54593          	xori	a1,a0,2047
    8000160c:	36b23823          	sd	a1,880(tp) # 370 <offset+0x90>
    80001610:	fff0031b          	addiw	t1,zero,-1
    80001614:	03831313          	slli	t1,t1,0x38
    80001618:	80030313          	addi	t1,t1,-2048
    8000161c:	00b30463          	beq	t1,a1,80001624 <inst_131>
    80001620:	a05fe06f          	j	80000024 <rvtest_error>

0000000080001624 <inst_131>:
    80001624:	00100513          	li	a0,1
    80001628:	03951513          	slli	a0,a0,0x39
    8000162c:	fff54513          	not	a0,a0
    80001630:	fbf54593          	xori	a1,a0,-65
    80001634:	36b23c23          	sd	a1,888(tp) # 378 <offset+0x98>
    80001638:	0010031b          	addiw	t1,zero,1
    8000163c:	03931313          	slli	t1,t1,0x39
    80001640:	04030313          	addi	t1,t1,64
    80001644:	00b30463          	beq	t1,a1,8000164c <inst_132>
    80001648:	9ddfe06f          	j	80000024 <rvtest_error>

000000008000164c <inst_132>:
    8000164c:	00100513          	li	a0,1
    80001650:	03a51513          	slli	a0,a0,0x3a
    80001654:	fff54513          	not	a0,a0
    80001658:	00454593          	xori	a1,a0,4
    8000165c:	38b23023          	sd	a1,896(tp) # 380 <offset+0xa0>
    80001660:	fff0031b          	addiw	t1,zero,-1
    80001664:	03a31313          	slli	t1,t1,0x3a
    80001668:	ffb30313          	addi	t1,t1,-5
    8000166c:	00b30463          	beq	t1,a1,80001674 <inst_133>
    80001670:	9b5fe06f          	j	80000024 <rvtest_error>

0000000080001674 <inst_133>:
    80001674:	00100513          	li	a0,1
    80001678:	03b51513          	slli	a0,a0,0x3b
    8000167c:	fff54513          	not	a0,a0
    80001680:	ff654593          	xori	a1,a0,-10
    80001684:	38b23423          	sd	a1,904(tp) # 388 <offset+0xa8>
    80001688:	0010031b          	addiw	t1,zero,1
    8000168c:	03b31313          	slli	t1,t1,0x3b
    80001690:	00930313          	addi	t1,t1,9
    80001694:	00b30463          	beq	t1,a1,8000169c <inst_134>
    80001698:	98dfe06f          	j	80000024 <rvtest_error>

000000008000169c <inst_134>:
    8000169c:	00100513          	li	a0,1
    800016a0:	03c51513          	slli	a0,a0,0x3c
    800016a4:	fff54513          	not	a0,a0
    800016a8:	fdf54593          	xori	a1,a0,-33
    800016ac:	38b23823          	sd	a1,912(tp) # 390 <offset+0xb0>
    800016b0:	0010031b          	addiw	t1,zero,1
    800016b4:	03c31313          	slli	t1,t1,0x3c
    800016b8:	02030313          	addi	t1,t1,32
    800016bc:	00b30463          	beq	t1,a1,800016c4 <inst_135>
    800016c0:	965fe06f          	j	80000024 <rvtest_error>

00000000800016c4 <inst_135>:
    800016c4:	00100513          	li	a0,1
    800016c8:	03d51513          	slli	a0,a0,0x3d
    800016cc:	fff54513          	not	a0,a0
    800016d0:	55454593          	xori	a1,a0,1364
    800016d4:	38b23c23          	sd	a1,920(tp) # 398 <offset+0xb8>
    800016d8:	fff0031b          	addiw	t1,zero,-1
    800016dc:	03d31313          	slli	t1,t1,0x3d
    800016e0:	aab30313          	addi	t1,t1,-1365
    800016e4:	00b30463          	beq	t1,a1,800016ec <inst_136>
    800016e8:	93dfe06f          	j	80000024 <rvtest_error>

00000000800016ec <inst_136>:
    800016ec:	00100513          	li	a0,1
    800016f0:	03e51513          	slli	a0,a0,0x3e
    800016f4:	fff54513          	not	a0,a0
    800016f8:	00054593          	xori	a1,a0,0
    800016fc:	3ab23023          	sd	a1,928(tp) # 3a0 <offset+0xc0>
    80001700:	fff0031b          	addiw	t1,zero,-1
    80001704:	03e31313          	slli	t1,t1,0x3e
    80001708:	fff30313          	addi	t1,t1,-1
    8000170c:	00b30463          	beq	t1,a1,80001714 <inst_137>
    80001710:	915fe06f          	j	80000024 <rvtest_error>

0000000080001714 <inst_137>:
    80001714:	55555537          	lui	a0,0x55555
    80001718:	55550513          	addi	a0,a0,1365 # 55555555 <absimmsh+0x49a847a8>
    8000171c:	00b51513          	slli	a0,a0,0xb
    80001720:	2aa50513          	addi	a0,a0,682
    80001724:	00b51513          	slli	a0,a0,0xb
    80001728:	55550513          	addi	a0,a0,1365
    8000172c:	00a51513          	slli	a0,a0,0xa
    80001730:	15550513          	addi	a0,a0,341
    80001734:	00754593          	xori	a1,a0,7
    80001738:	3ab23423          	sd	a1,936(tp) # 3a8 <offset+0xc8>
    8000173c:	05555337          	lui	t1,0x5555
    80001740:	5553031b          	addiw	t1,t1,1365 # 5555555 <offset+0x5555275>
    80001744:	00c31313          	slli	t1,t1,0xc
    80001748:	55530313          	addi	t1,t1,1365
    8000174c:	00c31313          	slli	t1,t1,0xc
    80001750:	55530313          	addi	t1,t1,1365
    80001754:	00c31313          	slli	t1,t1,0xc
    80001758:	55230313          	addi	t1,t1,1362
    8000175c:	00b30463          	beq	t1,a1,80001764 <inst_138>
    80001760:	8c5fe06f          	j	80000024 <rvtest_error>

0000000080001764 <inst_138>:
    80001764:	aaaab537          	lui	a0,0xaaaab
    80001768:	aaa50513          	addi	a0,a0,-1366 # ffffffffaaaaaaaa <absimm+0xfffffffeefd9cfda>
    8000176c:	00b51513          	slli	a0,a0,0xb
    80001770:	55550513          	addi	a0,a0,1365
    80001774:	00b51513          	slli	a0,a0,0xb
    80001778:	2aa50513          	addi	a0,a0,682
    8000177c:	00a51513          	slli	a0,a0,0xa
    80001780:	2aa50513          	addi	a0,a0,682
    80001784:	fdf54593          	xori	a1,a0,-33
    80001788:	3ab23823          	sd	a1,944(tp) # 3b0 <offset+0xd0>
    8000178c:	05555337          	lui	t1,0x5555
    80001790:	5553031b          	addiw	t1,t1,1365 # 5555555 <offset+0x5555275>
    80001794:	00c31313          	slli	t1,t1,0xc
    80001798:	55530313          	addi	t1,t1,1365
    8000179c:	00c31313          	slli	t1,t1,0xc
    800017a0:	55530313          	addi	t1,t1,1365
    800017a4:	00c31313          	slli	t1,t1,0xc
    800017a8:	57530313          	addi	t1,t1,1397
    800017ac:	00b30463          	beq	t1,a1,800017b4 <inst_139>
    800017b0:	875fe06f          	j	80000024 <rvtest_error>

00000000800017b4 <inst_139>:
    800017b4:	00300513          	li	a0,3
    800017b8:	00354593          	xori	a1,a0,3
    800017bc:	3ab23c23          	sd	a1,952(tp) # 3b8 <offset+0xd8>
    800017c0:	00000313          	li	t1,0
    800017c4:	00b30463          	beq	t1,a1,800017cc <inst_140>
    800017c8:	85dfe06f          	j	80000024 <rvtest_error>

00000000800017cc <inst_140>:
    800017cc:	00300513          	li	a0,3
    800017d0:	55554593          	xori	a1,a0,1365
    800017d4:	3cb23023          	sd	a1,960(tp) # 3c0 <offset+0xe0>
    800017d8:	55600313          	li	t1,1366
    800017dc:	00b30463          	beq	t1,a1,800017e4 <inst_141>
    800017e0:	845fe06f          	j	80000024 <rvtest_error>

00000000800017e4 <inst_141>:
    800017e4:	00300513          	li	a0,3
    800017e8:	aaa54593          	xori	a1,a0,-1366
    800017ec:	3cb23423          	sd	a1,968(tp) # 3c8 <offset+0xe8>
    800017f0:	aa900313          	li	t1,-1367
    800017f4:	00b30463          	beq	t1,a1,800017fc <inst_142>
    800017f8:	82dfe06f          	j	80000024 <rvtest_error>

00000000800017fc <inst_142>:
    800017fc:	00300513          	li	a0,3
    80001800:	00554593          	xori	a1,a0,5
    80001804:	3cb23823          	sd	a1,976(tp) # 3d0 <offset+0xf0>
    80001808:	00600313          	li	t1,6
    8000180c:	00b30463          	beq	t1,a1,80001814 <inst_143>
    80001810:	815fe06f          	j	80000024 <rvtest_error>

0000000080001814 <inst_143>:
    80001814:	00300513          	li	a0,3
    80001818:	33354593          	xori	a1,a0,819
    8000181c:	3cb23c23          	sd	a1,984(tp) # 3d8 <offset+0xf8>
    80001820:	33000313          	li	t1,816
    80001824:	00b30463          	beq	t1,a1,8000182c <inst_144>
    80001828:	ffcfe06f          	j	80000024 <rvtest_error>

000000008000182c <inst_144>:
    8000182c:	00300513          	li	a0,3
    80001830:	66654593          	xori	a1,a0,1638
    80001834:	3eb23023          	sd	a1,992(tp) # 3e0 <offset+0x100>
    80001838:	66500313          	li	t1,1637
    8000183c:	00b30463          	beq	t1,a1,80001844 <inst_145>
    80001840:	fe4fe06f          	j	80000024 <rvtest_error>

0000000080001844 <inst_145>:
    80001844:	00300513          	li	a0,3
    80001848:	fd354593          	xori	a1,a0,-45
    8000184c:	3eb23423          	sd	a1,1000(tp) # 3e8 <offset+0x108>
    80001850:	fd000313          	li	t1,-48
    80001854:	00b30463          	beq	t1,a1,8000185c <inst_146>
    80001858:	fccfe06f          	j	80000024 <rvtest_error>

000000008000185c <inst_146>:
    8000185c:	00300513          	li	a0,3
    80001860:	02d54593          	xori	a1,a0,45
    80001864:	3eb23823          	sd	a1,1008(tp) # 3f0 <offset+0x110>
    80001868:	02e00313          	li	t1,46
    8000186c:	00b30463          	beq	t1,a1,80001874 <inst_147>
    80001870:	fb4fe06f          	j	80000024 <rvtest_error>

0000000080001874 <inst_147>:
    80001874:	00300513          	li	a0,3
    80001878:	00254593          	xori	a1,a0,2
    8000187c:	3eb23c23          	sd	a1,1016(tp) # 3f8 <offset+0x118>
    80001880:	00100313          	li	t1,1
    80001884:	00b30463          	beq	t1,a1,8000188c <inst_148>
    80001888:	f9cfe06f          	j	80000024 <rvtest_error>

000000008000188c <inst_148>:
    8000188c:	00300513          	li	a0,3
    80001890:	55454593          	xori	a1,a0,1364
    80001894:	40b23023          	sd	a1,1024(tp) # 400 <offset+0x120>
    80001898:	55700313          	li	t1,1367
    8000189c:	00b30463          	beq	t1,a1,800018a4 <inst_149>
    800018a0:	f84fe06f          	j	80000024 <rvtest_error>

00000000800018a4 <inst_149>:
    800018a4:	00300513          	li	a0,3
    800018a8:	00054593          	xori	a1,a0,0
    800018ac:	40b23423          	sd	a1,1032(tp) # 408 <offset+0x128>
    800018b0:	00300313          	li	t1,3
    800018b4:	00b30463          	beq	t1,a1,800018bc <inst_150>
    800018b8:	f6cfe06f          	j	80000024 <rvtest_error>

00000000800018bc <inst_150>:
    800018bc:	00300513          	li	a0,3
    800018c0:	00454593          	xori	a1,a0,4
    800018c4:	40b23823          	sd	a1,1040(tp) # 410 <offset+0x130>
    800018c8:	00700313          	li	t1,7
    800018cc:	00b30463          	beq	t1,a1,800018d4 <inst_151>
    800018d0:	f54fe06f          	j	80000024 <rvtest_error>

00000000800018d4 <inst_151>:
    800018d4:	00300513          	li	a0,3
    800018d8:	33254593          	xori	a1,a0,818
    800018dc:	40b23c23          	sd	a1,1048(tp) # 418 <offset+0x138>
    800018e0:	33100313          	li	t1,817
    800018e4:	00b30463          	beq	t1,a1,800018ec <inst_152>
    800018e8:	f3cfe06f          	j	80000024 <rvtest_error>

00000000800018ec <inst_152>:
    800018ec:	00300513          	li	a0,3
    800018f0:	66554593          	xori	a1,a0,1637
    800018f4:	42b23023          	sd	a1,1056(tp) # 420 <offset+0x140>
    800018f8:	66600313          	li	t1,1638
    800018fc:	00b30463          	beq	t1,a1,80001904 <inst_153>
    80001900:	f24fe06f          	j	80000024 <rvtest_error>

0000000080001904 <inst_153>:
    80001904:	00300513          	li	a0,3
    80001908:	02c54593          	xori	a1,a0,44
    8000190c:	42b23423          	sd	a1,1064(tp) # 428 <offset+0x148>
    80001910:	02f00313          	li	t1,47
    80001914:	00b30463          	beq	t1,a1,8000191c <inst_154>
    80001918:	f0cfe06f          	j	80000024 <rvtest_error>

000000008000191c <inst_154>:
    8000191c:	00300513          	li	a0,3
    80001920:	55654593          	xori	a1,a0,1366
    80001924:	42b23823          	sd	a1,1072(tp) # 430 <offset+0x150>
    80001928:	55500313          	li	t1,1365
    8000192c:	00b30463          	beq	t1,a1,80001934 <inst_155>
    80001930:	ef4fe06f          	j	80000024 <rvtest_error>

0000000080001934 <inst_155>:
    80001934:	00300513          	li	a0,3
    80001938:	aab54593          	xori	a1,a0,-1365
    8000193c:	42b23c23          	sd	a1,1080(tp) # 438 <offset+0x158>
    80001940:	aa800313          	li	t1,-1368
    80001944:	00b30463          	beq	t1,a1,8000194c <inst_156>
    80001948:	edcfe06f          	j	80000024 <rvtest_error>

000000008000194c <inst_156>:
    8000194c:	00300513          	li	a0,3
    80001950:	00654593          	xori	a1,a0,6
    80001954:	44b23023          	sd	a1,1088(tp) # 440 <offset+0x160>
    80001958:	00500313          	li	t1,5
    8000195c:	00b30463          	beq	t1,a1,80001964 <inst_157>
    80001960:	ec4fe06f          	j	80000024 <rvtest_error>

0000000080001964 <inst_157>:
    80001964:	00300513          	li	a0,3
    80001968:	33454593          	xori	a1,a0,820
    8000196c:	44b23423          	sd	a1,1096(tp) # 448 <offset+0x168>
    80001970:	33700313          	li	t1,823
    80001974:	00b30463          	beq	t1,a1,8000197c <inst_158>
    80001978:	eacfe06f          	j	80000024 <rvtest_error>

000000008000197c <inst_158>:
    8000197c:	00300513          	li	a0,3
    80001980:	66754593          	xori	a1,a0,1639
    80001984:	44b23823          	sd	a1,1104(tp) # 450 <offset+0x170>
    80001988:	66400313          	li	t1,1636
    8000198c:	00b30463          	beq	t1,a1,80001994 <inst_159>
    80001990:	e94fe06f          	j	80000024 <rvtest_error>

0000000080001994 <inst_159>:
    80001994:	00300513          	li	a0,3
    80001998:	fd454593          	xori	a1,a0,-44
    8000199c:	44b23c23          	sd	a1,1112(tp) # 458 <offset+0x178>
    800019a0:	fd700313          	li	t1,-41
    800019a4:	00b30463          	beq	t1,a1,800019ac <inst_160>
    800019a8:	e7cfe06f          	j	80000024 <rvtest_error>

00000000800019ac <inst_160>:
    800019ac:	00300513          	li	a0,3
    800019b0:	02e54593          	xori	a1,a0,46
    800019b4:	46b23023          	sd	a1,1120(tp) # 460 <offset+0x180>
    800019b8:	02d00313          	li	t1,45
    800019bc:	00b30463          	beq	t1,a1,800019c4 <inst_161>
    800019c0:	e64fe06f          	j	80000024 <rvtest_error>

00000000800019c4 <inst_161>:
    800019c4:	55555537          	lui	a0,0x55555
    800019c8:	55550513          	addi	a0,a0,1365 # 55555555 <absimmsh+0x49a847a8>
    800019cc:	00b51513          	slli	a0,a0,0xb
    800019d0:	2aa50513          	addi	a0,a0,682
    800019d4:	00b51513          	slli	a0,a0,0xb
    800019d8:	55550513          	addi	a0,a0,1365
    800019dc:	00a51513          	slli	a0,a0,0xa
    800019e0:	15550513          	addi	a0,a0,341
    800019e4:	00354593          	xori	a1,a0,3
    800019e8:	46b23423          	sd	a1,1128(tp) # 468 <offset+0x188>
    800019ec:	05555337          	lui	t1,0x5555
    800019f0:	5553031b          	addiw	t1,t1,1365 # 5555555 <offset+0x5555275>
    800019f4:	00c31313          	slli	t1,t1,0xc
    800019f8:	55530313          	addi	t1,t1,1365
    800019fc:	00c31313          	slli	t1,t1,0xc
    80001a00:	55530313          	addi	t1,t1,1365
    80001a04:	00c31313          	slli	t1,t1,0xc
    80001a08:	55630313          	addi	t1,t1,1366
    80001a0c:	00b30463          	beq	t1,a1,80001a14 <inst_162>
    80001a10:	e14fe06f          	j	80000024 <rvtest_error>

0000000080001a14 <inst_162>:
    80001a14:	55555537          	lui	a0,0x55555
    80001a18:	55550513          	addi	a0,a0,1365 # 55555555 <absimmsh+0x49a847a8>
    80001a1c:	00b51513          	slli	a0,a0,0xb
    80001a20:	2aa50513          	addi	a0,a0,682
    80001a24:	00b51513          	slli	a0,a0,0xb
    80001a28:	55550513          	addi	a0,a0,1365
    80001a2c:	00a51513          	slli	a0,a0,0xa
    80001a30:	15550513          	addi	a0,a0,341
    80001a34:	55554593          	xori	a1,a0,1365
    80001a38:	46b23823          	sd	a1,1136(tp) # 470 <offset+0x190>
    80001a3c:	05555337          	lui	t1,0x5555
    80001a40:	5553031b          	addiw	t1,t1,1365 # 5555555 <offset+0x5555275>
    80001a44:	00c31313          	slli	t1,t1,0xc
    80001a48:	55530313          	addi	t1,t1,1365
    80001a4c:	00c31313          	slli	t1,t1,0xc
    80001a50:	55530313          	addi	t1,t1,1365
    80001a54:	00c31313          	slli	t1,t1,0xc
    80001a58:	00b30463          	beq	t1,a1,80001a60 <inst_163>
    80001a5c:	dc8fe06f          	j	80000024 <rvtest_error>

0000000080001a60 <inst_163>:
    80001a60:	55555537          	lui	a0,0x55555
    80001a64:	55550513          	addi	a0,a0,1365 # 55555555 <absimmsh+0x49a847a8>
    80001a68:	00b51513          	slli	a0,a0,0xb
    80001a6c:	2aa50513          	addi	a0,a0,682
    80001a70:	00b51513          	slli	a0,a0,0xb
    80001a74:	55550513          	addi	a0,a0,1365
    80001a78:	00a51513          	slli	a0,a0,0xa
    80001a7c:	15550513          	addi	a0,a0,341
    80001a80:	aaa54593          	xori	a1,a0,-1366
    80001a84:	46b23c23          	sd	a1,1144(tp) # 478 <offset+0x198>
    80001a88:	faaab337          	lui	t1,0xfaaab
    80001a8c:	aab3031b          	addiw	t1,t1,-1365 # fffffffffaaaaaab <absimm+0xffffffff3fd9cfdb>
    80001a90:	00c31313          	slli	t1,t1,0xc
    80001a94:	aab30313          	addi	t1,t1,-1365
    80001a98:	00c31313          	slli	t1,t1,0xc
    80001a9c:	aab30313          	addi	t1,t1,-1365
    80001aa0:	00c31313          	slli	t1,t1,0xc
    80001aa4:	fff30313          	addi	t1,t1,-1
    80001aa8:	00b30463          	beq	t1,a1,80001ab0 <inst_164>
    80001aac:	d78fe06f          	j	80000024 <rvtest_error>

0000000080001ab0 <inst_164>:
    80001ab0:	55555537          	lui	a0,0x55555
    80001ab4:	55550513          	addi	a0,a0,1365 # 55555555 <absimmsh+0x49a847a8>
    80001ab8:	00b51513          	slli	a0,a0,0xb
    80001abc:	2aa50513          	addi	a0,a0,682
    80001ac0:	00b51513          	slli	a0,a0,0xb
    80001ac4:	55550513          	addi	a0,a0,1365
    80001ac8:	00a51513          	slli	a0,a0,0xa
    80001acc:	15550513          	addi	a0,a0,341
    80001ad0:	00554593          	xori	a1,a0,5
    80001ad4:	48b23023          	sd	a1,1152(tp) # 480 <offset+0x1a0>
    80001ad8:	05555337          	lui	t1,0x5555
    80001adc:	5553031b          	addiw	t1,t1,1365 # 5555555 <offset+0x5555275>
    80001ae0:	00c31313          	slli	t1,t1,0xc
    80001ae4:	55530313          	addi	t1,t1,1365
    80001ae8:	00c31313          	slli	t1,t1,0xc
    80001aec:	55530313          	addi	t1,t1,1365
    80001af0:	00c31313          	slli	t1,t1,0xc
    80001af4:	55030313          	addi	t1,t1,1360
    80001af8:	00b30463          	beq	t1,a1,80001b00 <inst_165>
    80001afc:	d28fe06f          	j	80000024 <rvtest_error>

0000000080001b00 <inst_165>:
    80001b00:	55555537          	lui	a0,0x55555
    80001b04:	55550513          	addi	a0,a0,1365 # 55555555 <absimmsh+0x49a847a8>
    80001b08:	00b51513          	slli	a0,a0,0xb
    80001b0c:	2aa50513          	addi	a0,a0,682
    80001b10:	00b51513          	slli	a0,a0,0xb
    80001b14:	55550513          	addi	a0,a0,1365
    80001b18:	00a51513          	slli	a0,a0,0xa
    80001b1c:	15550513          	addi	a0,a0,341
    80001b20:	33354593          	xori	a1,a0,819
    80001b24:	48b23423          	sd	a1,1160(tp) # 488 <offset+0x1a8>
    80001b28:	05555337          	lui	t1,0x5555
    80001b2c:	5553031b          	addiw	t1,t1,1365 # 5555555 <offset+0x5555275>
    80001b30:	00c31313          	slli	t1,t1,0xc
    80001b34:	55530313          	addi	t1,t1,1365
    80001b38:	00c31313          	slli	t1,t1,0xc
    80001b3c:	55530313          	addi	t1,t1,1365
    80001b40:	00c31313          	slli	t1,t1,0xc
    80001b44:	66630313          	addi	t1,t1,1638
    80001b48:	00b30463          	beq	t1,a1,80001b50 <inst_166>
    80001b4c:	cd8fe06f          	j	80000024 <rvtest_error>

0000000080001b50 <inst_166>:
    80001b50:	55555537          	lui	a0,0x55555
    80001b54:	55550513          	addi	a0,a0,1365 # 55555555 <absimmsh+0x49a847a8>
    80001b58:	00b51513          	slli	a0,a0,0xb
    80001b5c:	2aa50513          	addi	a0,a0,682
    80001b60:	00b51513          	slli	a0,a0,0xb
    80001b64:	55550513          	addi	a0,a0,1365
    80001b68:	00a51513          	slli	a0,a0,0xa
    80001b6c:	15550513          	addi	a0,a0,341
    80001b70:	66654593          	xori	a1,a0,1638
    80001b74:	48b23823          	sd	a1,1168(tp) # 490 <offset+0x1b0>
    80001b78:	05555337          	lui	t1,0x5555
    80001b7c:	5553031b          	addiw	t1,t1,1365 # 5555555 <offset+0x5555275>
    80001b80:	00c31313          	slli	t1,t1,0xc
    80001b84:	55530313          	addi	t1,t1,1365
    80001b88:	00c31313          	slli	t1,t1,0xc
    80001b8c:	55530313          	addi	t1,t1,1365
    80001b90:	00c31313          	slli	t1,t1,0xc
    80001b94:	33330313          	addi	t1,t1,819
    80001b98:	00b30463          	beq	t1,a1,80001ba0 <inst_167>
    80001b9c:	c88fe06f          	j	80000024 <rvtest_error>

0000000080001ba0 <inst_167>:
    80001ba0:	55555537          	lui	a0,0x55555
    80001ba4:	55550513          	addi	a0,a0,1365 # 55555555 <absimmsh+0x49a847a8>
    80001ba8:	00b51513          	slli	a0,a0,0xb
    80001bac:	2aa50513          	addi	a0,a0,682
    80001bb0:	00b51513          	slli	a0,a0,0xb
    80001bb4:	55550513          	addi	a0,a0,1365
    80001bb8:	00a51513          	slli	a0,a0,0xa
    80001bbc:	15550513          	addi	a0,a0,341
    80001bc0:	fd354593          	xori	a1,a0,-45
    80001bc4:	48b23c23          	sd	a1,1176(tp) # 498 <offset+0x1b8>
    80001bc8:	faaab337          	lui	t1,0xfaaab
    80001bcc:	aab3031b          	addiw	t1,t1,-1365 # fffffffffaaaaaab <absimm+0xffffffff3fd9cfdb>
    80001bd0:	00c31313          	slli	t1,t1,0xc
    80001bd4:	aab30313          	addi	t1,t1,-1365
    80001bd8:	00c31313          	slli	t1,t1,0xc
    80001bdc:	aab30313          	addi	t1,t1,-1365
    80001be0:	00c31313          	slli	t1,t1,0xc
    80001be4:	a8630313          	addi	t1,t1,-1402
    80001be8:	00b30463          	beq	t1,a1,80001bf0 <inst_168>
    80001bec:	c38fe06f          	j	80000024 <rvtest_error>

0000000080001bf0 <inst_168>:
    80001bf0:	55555537          	lui	a0,0x55555
    80001bf4:	55550513          	addi	a0,a0,1365 # 55555555 <absimmsh+0x49a847a8>
    80001bf8:	00b51513          	slli	a0,a0,0xb
    80001bfc:	2aa50513          	addi	a0,a0,682
    80001c00:	00b51513          	slli	a0,a0,0xb
    80001c04:	55550513          	addi	a0,a0,1365
    80001c08:	00a51513          	slli	a0,a0,0xa
    80001c0c:	15550513          	addi	a0,a0,341
    80001c10:	02d54593          	xori	a1,a0,45
    80001c14:	4ab23023          	sd	a1,1184(tp) # 4a0 <offset+0x1c0>
    80001c18:	05555337          	lui	t1,0x5555
    80001c1c:	5553031b          	addiw	t1,t1,1365 # 5555555 <offset+0x5555275>
    80001c20:	00c31313          	slli	t1,t1,0xc
    80001c24:	55530313          	addi	t1,t1,1365
    80001c28:	00c31313          	slli	t1,t1,0xc
    80001c2c:	55530313          	addi	t1,t1,1365
    80001c30:	00c31313          	slli	t1,t1,0xc
    80001c34:	57830313          	addi	t1,t1,1400
    80001c38:	00b30463          	beq	t1,a1,80001c40 <inst_169>
    80001c3c:	be8fe06f          	j	80000024 <rvtest_error>

0000000080001c40 <inst_169>:
    80001c40:	55555537          	lui	a0,0x55555
    80001c44:	55550513          	addi	a0,a0,1365 # 55555555 <absimmsh+0x49a847a8>
    80001c48:	00b51513          	slli	a0,a0,0xb
    80001c4c:	2aa50513          	addi	a0,a0,682
    80001c50:	00b51513          	slli	a0,a0,0xb
    80001c54:	55550513          	addi	a0,a0,1365
    80001c58:	00a51513          	slli	a0,a0,0xa
    80001c5c:	15550513          	addi	a0,a0,341
    80001c60:	00254593          	xori	a1,a0,2
    80001c64:	4ab23423          	sd	a1,1192(tp) # 4a8 <offset+0x1c8>
    80001c68:	05555337          	lui	t1,0x5555
    80001c6c:	5553031b          	addiw	t1,t1,1365 # 5555555 <offset+0x5555275>
    80001c70:	00c31313          	slli	t1,t1,0xc
    80001c74:	55530313          	addi	t1,t1,1365
    80001c78:	00c31313          	slli	t1,t1,0xc
    80001c7c:	55530313          	addi	t1,t1,1365
    80001c80:	00c31313          	slli	t1,t1,0xc
    80001c84:	55730313          	addi	t1,t1,1367
    80001c88:	00b30463          	beq	t1,a1,80001c90 <inst_170>
    80001c8c:	b98fe06f          	j	80000024 <rvtest_error>

0000000080001c90 <inst_170>:
    80001c90:	55555537          	lui	a0,0x55555
    80001c94:	55550513          	addi	a0,a0,1365 # 55555555 <absimmsh+0x49a847a8>
    80001c98:	00b51513          	slli	a0,a0,0xb
    80001c9c:	2aa50513          	addi	a0,a0,682
    80001ca0:	00b51513          	slli	a0,a0,0xb
    80001ca4:	55550513          	addi	a0,a0,1365
    80001ca8:	00a51513          	slli	a0,a0,0xa
    80001cac:	15550513          	addi	a0,a0,341
    80001cb0:	55454593          	xori	a1,a0,1364
    80001cb4:	4ab23823          	sd	a1,1200(tp) # 4b0 <offset+0x1d0>
    80001cb8:	05555337          	lui	t1,0x5555
    80001cbc:	5553031b          	addiw	t1,t1,1365 # 5555555 <offset+0x5555275>
    80001cc0:	00c31313          	slli	t1,t1,0xc
    80001cc4:	55530313          	addi	t1,t1,1365
    80001cc8:	00c31313          	slli	t1,t1,0xc
    80001ccc:	55530313          	addi	t1,t1,1365
    80001cd0:	00c31313          	slli	t1,t1,0xc
    80001cd4:	00130313          	addi	t1,t1,1
    80001cd8:	00b30463          	beq	t1,a1,80001ce0 <inst_171>
    80001cdc:	b48fe06f          	j	80000024 <rvtest_error>

0000000080001ce0 <inst_171>:
    80001ce0:	55555537          	lui	a0,0x55555
    80001ce4:	55550513          	addi	a0,a0,1365 # 55555555 <absimmsh+0x49a847a8>
    80001ce8:	00b51513          	slli	a0,a0,0xb
    80001cec:	2aa50513          	addi	a0,a0,682
    80001cf0:	00b51513          	slli	a0,a0,0xb
    80001cf4:	55550513          	addi	a0,a0,1365
    80001cf8:	00a51513          	slli	a0,a0,0xa
    80001cfc:	15550513          	addi	a0,a0,341
    80001d00:	00054593          	xori	a1,a0,0
    80001d04:	4ab23c23          	sd	a1,1208(tp) # 4b8 <offset+0x1d8>
    80001d08:	05555337          	lui	t1,0x5555
    80001d0c:	5553031b          	addiw	t1,t1,1365 # 5555555 <offset+0x5555275>
    80001d10:	00c31313          	slli	t1,t1,0xc
    80001d14:	55530313          	addi	t1,t1,1365
    80001d18:	00c31313          	slli	t1,t1,0xc
    80001d1c:	55530313          	addi	t1,t1,1365
    80001d20:	00c31313          	slli	t1,t1,0xc
    80001d24:	55530313          	addi	t1,t1,1365
    80001d28:	00b30463          	beq	t1,a1,80001d30 <inst_172>
    80001d2c:	af8fe06f          	j	80000024 <rvtest_error>

0000000080001d30 <inst_172>:
    80001d30:	55555537          	lui	a0,0x55555
    80001d34:	55550513          	addi	a0,a0,1365 # 55555555 <absimmsh+0x49a847a8>
    80001d38:	00b51513          	slli	a0,a0,0xb
    80001d3c:	2aa50513          	addi	a0,a0,682
    80001d40:	00b51513          	slli	a0,a0,0xb
    80001d44:	55550513          	addi	a0,a0,1365
    80001d48:	00a51513          	slli	a0,a0,0xa
    80001d4c:	15550513          	addi	a0,a0,341
    80001d50:	00454593          	xori	a1,a0,4
    80001d54:	4cb23023          	sd	a1,1216(tp) # 4c0 <offset+0x1e0>
    80001d58:	05555337          	lui	t1,0x5555
    80001d5c:	5553031b          	addiw	t1,t1,1365 # 5555555 <offset+0x5555275>
    80001d60:	00c31313          	slli	t1,t1,0xc
    80001d64:	55530313          	addi	t1,t1,1365
    80001d68:	00c31313          	slli	t1,t1,0xc
    80001d6c:	55530313          	addi	t1,t1,1365
    80001d70:	00c31313          	slli	t1,t1,0xc
    80001d74:	55130313          	addi	t1,t1,1361
    80001d78:	00b30463          	beq	t1,a1,80001d80 <inst_173>
    80001d7c:	aa8fe06f          	j	80000024 <rvtest_error>

0000000080001d80 <inst_173>:
    80001d80:	55555537          	lui	a0,0x55555
    80001d84:	55550513          	addi	a0,a0,1365 # 55555555 <absimmsh+0x49a847a8>
    80001d88:	00b51513          	slli	a0,a0,0xb
    80001d8c:	2aa50513          	addi	a0,a0,682
    80001d90:	00b51513          	slli	a0,a0,0xb
    80001d94:	55550513          	addi	a0,a0,1365
    80001d98:	00a51513          	slli	a0,a0,0xa
    80001d9c:	15550513          	addi	a0,a0,341
    80001da0:	33254593          	xori	a1,a0,818
    80001da4:	4cb23423          	sd	a1,1224(tp) # 4c8 <offset+0x1e8>
    80001da8:	05555337          	lui	t1,0x5555
    80001dac:	5553031b          	addiw	t1,t1,1365 # 5555555 <offset+0x5555275>
    80001db0:	00c31313          	slli	t1,t1,0xc
    80001db4:	55530313          	addi	t1,t1,1365
    80001db8:	00c31313          	slli	t1,t1,0xc
    80001dbc:	55530313          	addi	t1,t1,1365
    80001dc0:	00c31313          	slli	t1,t1,0xc
    80001dc4:	66730313          	addi	t1,t1,1639
    80001dc8:	00b30463          	beq	t1,a1,80001dd0 <inst_174>
    80001dcc:	a58fe06f          	j	80000024 <rvtest_error>

0000000080001dd0 <inst_174>:
    80001dd0:	55555537          	lui	a0,0x55555
    80001dd4:	55550513          	addi	a0,a0,1365 # 55555555 <absimmsh+0x49a847a8>
    80001dd8:	00b51513          	slli	a0,a0,0xb
    80001ddc:	2aa50513          	addi	a0,a0,682
    80001de0:	00b51513          	slli	a0,a0,0xb
    80001de4:	55550513          	addi	a0,a0,1365
    80001de8:	00a51513          	slli	a0,a0,0xa
    80001dec:	15550513          	addi	a0,a0,341
    80001df0:	66554593          	xori	a1,a0,1637
    80001df4:	4cb23823          	sd	a1,1232(tp) # 4d0 <offset+0x1f0>
    80001df8:	05555337          	lui	t1,0x5555
    80001dfc:	5553031b          	addiw	t1,t1,1365 # 5555555 <offset+0x5555275>
    80001e00:	00c31313          	slli	t1,t1,0xc
    80001e04:	55530313          	addi	t1,t1,1365
    80001e08:	00c31313          	slli	t1,t1,0xc
    80001e0c:	55530313          	addi	t1,t1,1365
    80001e10:	00c31313          	slli	t1,t1,0xc
    80001e14:	33030313          	addi	t1,t1,816
    80001e18:	00b30463          	beq	t1,a1,80001e20 <inst_175>
    80001e1c:	a08fe06f          	j	80000024 <rvtest_error>

0000000080001e20 <inst_175>:
    80001e20:	55555537          	lui	a0,0x55555
    80001e24:	55550513          	addi	a0,a0,1365 # 55555555 <absimmsh+0x49a847a8>
    80001e28:	00b51513          	slli	a0,a0,0xb
    80001e2c:	2aa50513          	addi	a0,a0,682
    80001e30:	00b51513          	slli	a0,a0,0xb
    80001e34:	55550513          	addi	a0,a0,1365
    80001e38:	00a51513          	slli	a0,a0,0xa
    80001e3c:	15550513          	addi	a0,a0,341
    80001e40:	02c54593          	xori	a1,a0,44
    80001e44:	4cb23c23          	sd	a1,1240(tp) # 4d8 <offset+0x1f8>
    80001e48:	05555337          	lui	t1,0x5555
    80001e4c:	5553031b          	addiw	t1,t1,1365 # 5555555 <offset+0x5555275>
    80001e50:	00c31313          	slli	t1,t1,0xc
    80001e54:	55530313          	addi	t1,t1,1365
    80001e58:	00c31313          	slli	t1,t1,0xc
    80001e5c:	55530313          	addi	t1,t1,1365
    80001e60:	00c31313          	slli	t1,t1,0xc
    80001e64:	57930313          	addi	t1,t1,1401
    80001e68:	00b30463          	beq	t1,a1,80001e70 <inst_176>
    80001e6c:	9b8fe06f          	j	80000024 <rvtest_error>

0000000080001e70 <inst_176>:
    80001e70:	55555537          	lui	a0,0x55555
    80001e74:	55550513          	addi	a0,a0,1365 # 55555555 <absimmsh+0x49a847a8>
    80001e78:	00b51513          	slli	a0,a0,0xb
    80001e7c:	2aa50513          	addi	a0,a0,682
    80001e80:	00b51513          	slli	a0,a0,0xb
    80001e84:	55550513          	addi	a0,a0,1365
    80001e88:	00a51513          	slli	a0,a0,0xa
    80001e8c:	15550513          	addi	a0,a0,341
    80001e90:	55654593          	xori	a1,a0,1366
    80001e94:	4eb23023          	sd	a1,1248(tp) # 4e0 <offset+0x200>
    80001e98:	05555337          	lui	t1,0x5555
    80001e9c:	5553031b          	addiw	t1,t1,1365 # 5555555 <offset+0x5555275>
    80001ea0:	00c31313          	slli	t1,t1,0xc
    80001ea4:	55530313          	addi	t1,t1,1365
    80001ea8:	00c31313          	slli	t1,t1,0xc
    80001eac:	55530313          	addi	t1,t1,1365
    80001eb0:	00c31313          	slli	t1,t1,0xc
    80001eb4:	00330313          	addi	t1,t1,3
    80001eb8:	00b30463          	beq	t1,a1,80001ec0 <inst_177>
    80001ebc:	968fe06f          	j	80000024 <rvtest_error>

0000000080001ec0 <inst_177>:
    80001ec0:	55555537          	lui	a0,0x55555
    80001ec4:	55550513          	addi	a0,a0,1365 # 55555555 <absimmsh+0x49a847a8>
    80001ec8:	00b51513          	slli	a0,a0,0xb
    80001ecc:	2aa50513          	addi	a0,a0,682
    80001ed0:	00b51513          	slli	a0,a0,0xb
    80001ed4:	55550513          	addi	a0,a0,1365
    80001ed8:	00a51513          	slli	a0,a0,0xa
    80001edc:	15550513          	addi	a0,a0,341
    80001ee0:	aab54593          	xori	a1,a0,-1365
    80001ee4:	4eb23423          	sd	a1,1256(tp) # 4e8 <offset+0x208>
    80001ee8:	faaab337          	lui	t1,0xfaaab
    80001eec:	aab3031b          	addiw	t1,t1,-1365 # fffffffffaaaaaab <absimm+0xffffffff3fd9cfdb>
    80001ef0:	00c31313          	slli	t1,t1,0xc
    80001ef4:	aab30313          	addi	t1,t1,-1365
    80001ef8:	00c31313          	slli	t1,t1,0xc
    80001efc:	aab30313          	addi	t1,t1,-1365
    80001f00:	00c31313          	slli	t1,t1,0xc
    80001f04:	ffe30313          	addi	t1,t1,-2
    80001f08:	00b30463          	beq	t1,a1,80001f10 <inst_178>
    80001f0c:	918fe06f          	j	80000024 <rvtest_error>

0000000080001f10 <inst_178>:
    80001f10:	55555537          	lui	a0,0x55555
    80001f14:	55550513          	addi	a0,a0,1365 # 55555555 <absimmsh+0x49a847a8>
    80001f18:	00b51513          	slli	a0,a0,0xb
    80001f1c:	2aa50513          	addi	a0,a0,682
    80001f20:	00b51513          	slli	a0,a0,0xb
    80001f24:	55550513          	addi	a0,a0,1365
    80001f28:	00a51513          	slli	a0,a0,0xa
    80001f2c:	15550513          	addi	a0,a0,341
    80001f30:	00654593          	xori	a1,a0,6
    80001f34:	4eb23823          	sd	a1,1264(tp) # 4f0 <offset+0x210>
    80001f38:	05555337          	lui	t1,0x5555
    80001f3c:	5553031b          	addiw	t1,t1,1365 # 5555555 <offset+0x5555275>
    80001f40:	00c31313          	slli	t1,t1,0xc
    80001f44:	55530313          	addi	t1,t1,1365
    80001f48:	00c31313          	slli	t1,t1,0xc
    80001f4c:	55530313          	addi	t1,t1,1365
    80001f50:	00c31313          	slli	t1,t1,0xc
    80001f54:	55330313          	addi	t1,t1,1363
    80001f58:	00b30463          	beq	t1,a1,80001f60 <inst_179>
    80001f5c:	8c8fe06f          	j	80000024 <rvtest_error>

0000000080001f60 <inst_179>:
    80001f60:	55555537          	lui	a0,0x55555
    80001f64:	55550513          	addi	a0,a0,1365 # 55555555 <absimmsh+0x49a847a8>
    80001f68:	00b51513          	slli	a0,a0,0xb
    80001f6c:	2aa50513          	addi	a0,a0,682
    80001f70:	00b51513          	slli	a0,a0,0xb
    80001f74:	55550513          	addi	a0,a0,1365
    80001f78:	00a51513          	slli	a0,a0,0xa
    80001f7c:	15550513          	addi	a0,a0,341
    80001f80:	33454593          	xori	a1,a0,820
    80001f84:	4eb23c23          	sd	a1,1272(tp) # 4f8 <offset+0x218>
    80001f88:	05555337          	lui	t1,0x5555
    80001f8c:	5553031b          	addiw	t1,t1,1365 # 5555555 <offset+0x5555275>
    80001f90:	00c31313          	slli	t1,t1,0xc
    80001f94:	55530313          	addi	t1,t1,1365
    80001f98:	00c31313          	slli	t1,t1,0xc
    80001f9c:	55530313          	addi	t1,t1,1365
    80001fa0:	00c31313          	slli	t1,t1,0xc
    80001fa4:	66130313          	addi	t1,t1,1633
    80001fa8:	00b30463          	beq	t1,a1,80001fb0 <inst_180>
    80001fac:	878fe06f          	j	80000024 <rvtest_error>

0000000080001fb0 <inst_180>:
    80001fb0:	55555537          	lui	a0,0x55555
    80001fb4:	55550513          	addi	a0,a0,1365 # 55555555 <absimmsh+0x49a847a8>
    80001fb8:	00b51513          	slli	a0,a0,0xb
    80001fbc:	2aa50513          	addi	a0,a0,682
    80001fc0:	00b51513          	slli	a0,a0,0xb
    80001fc4:	55550513          	addi	a0,a0,1365
    80001fc8:	00a51513          	slli	a0,a0,0xa
    80001fcc:	15550513          	addi	a0,a0,341
    80001fd0:	66754593          	xori	a1,a0,1639
    80001fd4:	50b23023          	sd	a1,1280(tp) # 500 <offset+0x220>
    80001fd8:	05555337          	lui	t1,0x5555
    80001fdc:	5553031b          	addiw	t1,t1,1365 # 5555555 <offset+0x5555275>
    80001fe0:	00c31313          	slli	t1,t1,0xc
    80001fe4:	55530313          	addi	t1,t1,1365
    80001fe8:	00c31313          	slli	t1,t1,0xc
    80001fec:	55530313          	addi	t1,t1,1365
    80001ff0:	00c31313          	slli	t1,t1,0xc
    80001ff4:	33230313          	addi	t1,t1,818
    80001ff8:	00b30463          	beq	t1,a1,80002000 <inst_181>
    80001ffc:	828fe06f          	j	80000024 <rvtest_error>

0000000080002000 <inst_181>:
    80002000:	55555537          	lui	a0,0x55555
    80002004:	55550513          	addi	a0,a0,1365 # 55555555 <absimmsh+0x49a847a8>
    80002008:	00b51513          	slli	a0,a0,0xb
    8000200c:	2aa50513          	addi	a0,a0,682
    80002010:	00b51513          	slli	a0,a0,0xb
    80002014:	55550513          	addi	a0,a0,1365
    80002018:	00a51513          	slli	a0,a0,0xa
    8000201c:	15550513          	addi	a0,a0,341
    80002020:	fd454593          	xori	a1,a0,-44
    80002024:	50b23423          	sd	a1,1288(tp) # 508 <offset+0x228>
    80002028:	faaab337          	lui	t1,0xfaaab
    8000202c:	aab3031b          	addiw	t1,t1,-1365 # fffffffffaaaaaab <absimm+0xffffffff3fd9cfdb>
    80002030:	00c31313          	slli	t1,t1,0xc
    80002034:	aab30313          	addi	t1,t1,-1365
    80002038:	00c31313          	slli	t1,t1,0xc
    8000203c:	aab30313          	addi	t1,t1,-1365
    80002040:	00c31313          	slli	t1,t1,0xc
    80002044:	a8130313          	addi	t1,t1,-1407
    80002048:	00b30463          	beq	t1,a1,80002050 <inst_182>
    8000204c:	fd9fd06f          	j	80000024 <rvtest_error>

0000000080002050 <inst_182>:
    80002050:	55555537          	lui	a0,0x55555
    80002054:	55550513          	addi	a0,a0,1365 # 55555555 <absimmsh+0x49a847a8>
    80002058:	00b51513          	slli	a0,a0,0xb
    8000205c:	2aa50513          	addi	a0,a0,682
    80002060:	00b51513          	slli	a0,a0,0xb
    80002064:	55550513          	addi	a0,a0,1365
    80002068:	00a51513          	slli	a0,a0,0xa
    8000206c:	15550513          	addi	a0,a0,341
    80002070:	02e54593          	xori	a1,a0,46
    80002074:	50b23823          	sd	a1,1296(tp) # 510 <offset+0x230>
    80002078:	05555337          	lui	t1,0x5555
    8000207c:	5553031b          	addiw	t1,t1,1365 # 5555555 <offset+0x5555275>
    80002080:	00c31313          	slli	t1,t1,0xc
    80002084:	55530313          	addi	t1,t1,1365
    80002088:	00c31313          	slli	t1,t1,0xc
    8000208c:	55530313          	addi	t1,t1,1365
    80002090:	00c31313          	slli	t1,t1,0xc
    80002094:	57b30313          	addi	t1,t1,1403
    80002098:	00b30463          	beq	t1,a1,800020a0 <inst_183>
    8000209c:	f89fd06f          	j	80000024 <rvtest_error>

00000000800020a0 <inst_183>:
    800020a0:	aaaab537          	lui	a0,0xaaaab
    800020a4:	aaa50513          	addi	a0,a0,-1366 # ffffffffaaaaaaaa <absimm+0xfffffffeefd9cfda>
    800020a8:	00b51513          	slli	a0,a0,0xb
    800020ac:	55550513          	addi	a0,a0,1365
    800020b0:	00b51513          	slli	a0,a0,0xb
    800020b4:	2aa50513          	addi	a0,a0,682
    800020b8:	00a51513          	slli	a0,a0,0xa
    800020bc:	2aa50513          	addi	a0,a0,682
    800020c0:	00354593          	xori	a1,a0,3
    800020c4:	50b23c23          	sd	a1,1304(tp) # 518 <offset+0x238>
    800020c8:	faaab337          	lui	t1,0xfaaab
    800020cc:	aab3031b          	addiw	t1,t1,-1365 # fffffffffaaaaaab <absimm+0xffffffff3fd9cfdb>
    800020d0:	00c31313          	slli	t1,t1,0xc
    800020d4:	aab30313          	addi	t1,t1,-1365
    800020d8:	00c31313          	slli	t1,t1,0xc
    800020dc:	aab30313          	addi	t1,t1,-1365
    800020e0:	00c31313          	slli	t1,t1,0xc
    800020e4:	aa930313          	addi	t1,t1,-1367
    800020e8:	00b30463          	beq	t1,a1,800020f0 <inst_184>
    800020ec:	f39fd06f          	j	80000024 <rvtest_error>

00000000800020f0 <inst_184>:
    800020f0:	aaaab537          	lui	a0,0xaaaab
    800020f4:	aaa50513          	addi	a0,a0,-1366 # ffffffffaaaaaaaa <absimm+0xfffffffeefd9cfda>
    800020f8:	00b51513          	slli	a0,a0,0xb
    800020fc:	55550513          	addi	a0,a0,1365
    80002100:	00b51513          	slli	a0,a0,0xb
    80002104:	2aa50513          	addi	a0,a0,682
    80002108:	00a51513          	slli	a0,a0,0xa
    8000210c:	2aa50513          	addi	a0,a0,682
    80002110:	55554593          	xori	a1,a0,1365
    80002114:	52b23023          	sd	a1,1312(tp) # 520 <offset+0x240>
    80002118:	faaab337          	lui	t1,0xfaaab
    8000211c:	aab3031b          	addiw	t1,t1,-1365 # fffffffffaaaaaab <absimm+0xffffffff3fd9cfdb>
    80002120:	00c31313          	slli	t1,t1,0xc
    80002124:	aab30313          	addi	t1,t1,-1365
    80002128:	00c31313          	slli	t1,t1,0xc
    8000212c:	aab30313          	addi	t1,t1,-1365
    80002130:	00c31313          	slli	t1,t1,0xc
    80002134:	fff30313          	addi	t1,t1,-1
    80002138:	00b30463          	beq	t1,a1,80002140 <inst_185>
    8000213c:	ee9fd06f          	j	80000024 <rvtest_error>

0000000080002140 <inst_185>:
    80002140:	aaaab537          	lui	a0,0xaaaab
    80002144:	aaa50513          	addi	a0,a0,-1366 # ffffffffaaaaaaaa <absimm+0xfffffffeefd9cfda>
    80002148:	00b51513          	slli	a0,a0,0xb
    8000214c:	55550513          	addi	a0,a0,1365
    80002150:	00b51513          	slli	a0,a0,0xb
    80002154:	2aa50513          	addi	a0,a0,682
    80002158:	00a51513          	slli	a0,a0,0xa
    8000215c:	2aa50513          	addi	a0,a0,682
    80002160:	aaa54593          	xori	a1,a0,-1366
    80002164:	52b23423          	sd	a1,1320(tp) # 528 <offset+0x248>
    80002168:	05555337          	lui	t1,0x5555
    8000216c:	5553031b          	addiw	t1,t1,1365 # 5555555 <offset+0x5555275>
    80002170:	00c31313          	slli	t1,t1,0xc
    80002174:	55530313          	addi	t1,t1,1365
    80002178:	00c31313          	slli	t1,t1,0xc
    8000217c:	55530313          	addi	t1,t1,1365
    80002180:	00c31313          	slli	t1,t1,0xc
    80002184:	00b30463          	beq	t1,a1,8000218c <inst_186>
    80002188:	e9dfd06f          	j	80000024 <rvtest_error>

000000008000218c <inst_186>:
    8000218c:	aaaab537          	lui	a0,0xaaaab
    80002190:	aaa50513          	addi	a0,a0,-1366 # ffffffffaaaaaaaa <absimm+0xfffffffeefd9cfda>
    80002194:	00b51513          	slli	a0,a0,0xb
    80002198:	55550513          	addi	a0,a0,1365
    8000219c:	00b51513          	slli	a0,a0,0xb
    800021a0:	2aa50513          	addi	a0,a0,682
    800021a4:	00a51513          	slli	a0,a0,0xa
    800021a8:	2aa50513          	addi	a0,a0,682
    800021ac:	00554593          	xori	a1,a0,5
    800021b0:	52b23823          	sd	a1,1328(tp) # 530 <offset+0x250>
    800021b4:	faaab337          	lui	t1,0xfaaab
    800021b8:	aab3031b          	addiw	t1,t1,-1365 # fffffffffaaaaaab <absimm+0xffffffff3fd9cfdb>
    800021bc:	00c31313          	slli	t1,t1,0xc
    800021c0:	aab30313          	addi	t1,t1,-1365
    800021c4:	00c31313          	slli	t1,t1,0xc
    800021c8:	aab30313          	addi	t1,t1,-1365
    800021cc:	00c31313          	slli	t1,t1,0xc
    800021d0:	aaf30313          	addi	t1,t1,-1361
    800021d4:	00b30463          	beq	t1,a1,800021dc <inst_187>
    800021d8:	e4dfd06f          	j	80000024 <rvtest_error>

00000000800021dc <inst_187>:
    800021dc:	aaaab537          	lui	a0,0xaaaab
    800021e0:	aaa50513          	addi	a0,a0,-1366 # ffffffffaaaaaaaa <absimm+0xfffffffeefd9cfda>
    800021e4:	00b51513          	slli	a0,a0,0xb
    800021e8:	55550513          	addi	a0,a0,1365
    800021ec:	00b51513          	slli	a0,a0,0xb
    800021f0:	2aa50513          	addi	a0,a0,682
    800021f4:	00a51513          	slli	a0,a0,0xa
    800021f8:	2aa50513          	addi	a0,a0,682
    800021fc:	33354593          	xori	a1,a0,819
    80002200:	52b23c23          	sd	a1,1336(tp) # 538 <offset+0x258>
    80002204:	faaab337          	lui	t1,0xfaaab
    80002208:	aab3031b          	addiw	t1,t1,-1365 # fffffffffaaaaaab <absimm+0xffffffff3fd9cfdb>
    8000220c:	00c31313          	slli	t1,t1,0xc
    80002210:	aab30313          	addi	t1,t1,-1365
    80002214:	00c31313          	slli	t1,t1,0xc
    80002218:	aab30313          	addi	t1,t1,-1365
    8000221c:	00c31313          	slli	t1,t1,0xc
    80002220:	99930313          	addi	t1,t1,-1639
    80002224:	00b30463          	beq	t1,a1,8000222c <inst_188>
    80002228:	dfdfd06f          	j	80000024 <rvtest_error>

000000008000222c <inst_188>:
    8000222c:	aaaab537          	lui	a0,0xaaaab
    80002230:	aaa50513          	addi	a0,a0,-1366 # ffffffffaaaaaaaa <absimm+0xfffffffeefd9cfda>
    80002234:	00b51513          	slli	a0,a0,0xb
    80002238:	55550513          	addi	a0,a0,1365
    8000223c:	00b51513          	slli	a0,a0,0xb
    80002240:	2aa50513          	addi	a0,a0,682
    80002244:	00a51513          	slli	a0,a0,0xa
    80002248:	2aa50513          	addi	a0,a0,682
    8000224c:	66654593          	xori	a1,a0,1638
    80002250:	54b23023          	sd	a1,1344(tp) # 540 <offset+0x260>
    80002254:	faaab337          	lui	t1,0xfaaab
    80002258:	aab3031b          	addiw	t1,t1,-1365 # fffffffffaaaaaab <absimm+0xffffffff3fd9cfdb>
    8000225c:	00c31313          	slli	t1,t1,0xc
    80002260:	aab30313          	addi	t1,t1,-1365
    80002264:	00c31313          	slli	t1,t1,0xc
    80002268:	aab30313          	addi	t1,t1,-1365
    8000226c:	00c31313          	slli	t1,t1,0xc
    80002270:	ccc30313          	addi	t1,t1,-820
    80002274:	00b30463          	beq	t1,a1,8000227c <inst_189>
    80002278:	dadfd06f          	j	80000024 <rvtest_error>

000000008000227c <inst_189>:
    8000227c:	aaaab537          	lui	a0,0xaaaab
    80002280:	aaa50513          	addi	a0,a0,-1366 # ffffffffaaaaaaaa <absimm+0xfffffffeefd9cfda>
    80002284:	00b51513          	slli	a0,a0,0xb
    80002288:	55550513          	addi	a0,a0,1365
    8000228c:	00b51513          	slli	a0,a0,0xb
    80002290:	2aa50513          	addi	a0,a0,682
    80002294:	00a51513          	slli	a0,a0,0xa
    80002298:	2aa50513          	addi	a0,a0,682
    8000229c:	fd354593          	xori	a1,a0,-45
    800022a0:	54b23423          	sd	a1,1352(tp) # 548 <offset+0x268>
    800022a4:	05555337          	lui	t1,0x5555
    800022a8:	5553031b          	addiw	t1,t1,1365 # 5555555 <offset+0x5555275>
    800022ac:	00c31313          	slli	t1,t1,0xc
    800022b0:	55530313          	addi	t1,t1,1365
    800022b4:	00c31313          	slli	t1,t1,0xc
    800022b8:	55530313          	addi	t1,t1,1365
    800022bc:	00c31313          	slli	t1,t1,0xc
    800022c0:	57930313          	addi	t1,t1,1401
    800022c4:	00b30463          	beq	t1,a1,800022cc <inst_190>
    800022c8:	d5dfd06f          	j	80000024 <rvtest_error>

00000000800022cc <inst_190>:
    800022cc:	aaaab537          	lui	a0,0xaaaab
    800022d0:	aaa50513          	addi	a0,a0,-1366 # ffffffffaaaaaaaa <absimm+0xfffffffeefd9cfda>
    800022d4:	00b51513          	slli	a0,a0,0xb
    800022d8:	55550513          	addi	a0,a0,1365
    800022dc:	00b51513          	slli	a0,a0,0xb
    800022e0:	2aa50513          	addi	a0,a0,682
    800022e4:	00a51513          	slli	a0,a0,0xa
    800022e8:	2aa50513          	addi	a0,a0,682
    800022ec:	02d54593          	xori	a1,a0,45
    800022f0:	54b23823          	sd	a1,1360(tp) # 550 <offset+0x270>
    800022f4:	faaab337          	lui	t1,0xfaaab
    800022f8:	aab3031b          	addiw	t1,t1,-1365 # fffffffffaaaaaab <absimm+0xffffffff3fd9cfdb>
    800022fc:	00c31313          	slli	t1,t1,0xc
    80002300:	aab30313          	addi	t1,t1,-1365
    80002304:	00c31313          	slli	t1,t1,0xc
    80002308:	aab30313          	addi	t1,t1,-1365
    8000230c:	00c31313          	slli	t1,t1,0xc
    80002310:	a8730313          	addi	t1,t1,-1401
    80002314:	00b30463          	beq	t1,a1,8000231c <inst_191>
    80002318:	d0dfd06f          	j	80000024 <rvtest_error>

000000008000231c <inst_191>:
    8000231c:	aaaab537          	lui	a0,0xaaaab
    80002320:	aaa50513          	addi	a0,a0,-1366 # ffffffffaaaaaaaa <absimm+0xfffffffeefd9cfda>
    80002324:	00b51513          	slli	a0,a0,0xb
    80002328:	55550513          	addi	a0,a0,1365
    8000232c:	00b51513          	slli	a0,a0,0xb
    80002330:	2aa50513          	addi	a0,a0,682
    80002334:	00a51513          	slli	a0,a0,0xa
    80002338:	2aa50513          	addi	a0,a0,682
    8000233c:	00254593          	xori	a1,a0,2
    80002340:	54b23c23          	sd	a1,1368(tp) # 558 <offset+0x278>
    80002344:	faaab337          	lui	t1,0xfaaab
    80002348:	aab3031b          	addiw	t1,t1,-1365 # fffffffffaaaaaab <absimm+0xffffffff3fd9cfdb>
    8000234c:	00c31313          	slli	t1,t1,0xc
    80002350:	aab30313          	addi	t1,t1,-1365
    80002354:	00c31313          	slli	t1,t1,0xc
    80002358:	aab30313          	addi	t1,t1,-1365
    8000235c:	00c31313          	slli	t1,t1,0xc
    80002360:	aa830313          	addi	t1,t1,-1368
    80002364:	00b30463          	beq	t1,a1,8000236c <inst_192>
    80002368:	cbdfd06f          	j	80000024 <rvtest_error>

000000008000236c <inst_192>:
    8000236c:	aaaab537          	lui	a0,0xaaaab
    80002370:	aaa50513          	addi	a0,a0,-1366 # ffffffffaaaaaaaa <absimm+0xfffffffeefd9cfda>
    80002374:	00b51513          	slli	a0,a0,0xb
    80002378:	55550513          	addi	a0,a0,1365
    8000237c:	00b51513          	slli	a0,a0,0xb
    80002380:	2aa50513          	addi	a0,a0,682
    80002384:	00a51513          	slli	a0,a0,0xa
    80002388:	2aa50513          	addi	a0,a0,682
    8000238c:	55454593          	xori	a1,a0,1364
    80002390:	56b23023          	sd	a1,1376(tp) # 560 <offset+0x280>
    80002394:	faaab337          	lui	t1,0xfaaab
    80002398:	aab3031b          	addiw	t1,t1,-1365 # fffffffffaaaaaab <absimm+0xffffffff3fd9cfdb>
    8000239c:	00c31313          	slli	t1,t1,0xc
    800023a0:	aab30313          	addi	t1,t1,-1365
    800023a4:	00c31313          	slli	t1,t1,0xc
    800023a8:	aab30313          	addi	t1,t1,-1365
    800023ac:	00c31313          	slli	t1,t1,0xc
    800023b0:	ffe30313          	addi	t1,t1,-2
    800023b4:	00b30463          	beq	t1,a1,800023bc <inst_193>
    800023b8:	c6dfd06f          	j	80000024 <rvtest_error>

00000000800023bc <inst_193>:
    800023bc:	aaaab537          	lui	a0,0xaaaab
    800023c0:	aaa50513          	addi	a0,a0,-1366 # ffffffffaaaaaaaa <absimm+0xfffffffeefd9cfda>
    800023c4:	00b51513          	slli	a0,a0,0xb
    800023c8:	55550513          	addi	a0,a0,1365
    800023cc:	00b51513          	slli	a0,a0,0xb
    800023d0:	2aa50513          	addi	a0,a0,682
    800023d4:	00a51513          	slli	a0,a0,0xa
    800023d8:	2aa50513          	addi	a0,a0,682
    800023dc:	00054593          	xori	a1,a0,0
    800023e0:	56b23423          	sd	a1,1384(tp) # 568 <offset+0x288>
    800023e4:	faaab337          	lui	t1,0xfaaab
    800023e8:	aab3031b          	addiw	t1,t1,-1365 # fffffffffaaaaaab <absimm+0xffffffff3fd9cfdb>
    800023ec:	00c31313          	slli	t1,t1,0xc
    800023f0:	aab30313          	addi	t1,t1,-1365
    800023f4:	00c31313          	slli	t1,t1,0xc
    800023f8:	aab30313          	addi	t1,t1,-1365
    800023fc:	00c31313          	slli	t1,t1,0xc
    80002400:	aaa30313          	addi	t1,t1,-1366
    80002404:	00b30463          	beq	t1,a1,8000240c <inst_194>
    80002408:	c1dfd06f          	j	80000024 <rvtest_error>

000000008000240c <inst_194>:
    8000240c:	aaaab537          	lui	a0,0xaaaab
    80002410:	aaa50513          	addi	a0,a0,-1366 # ffffffffaaaaaaaa <absimm+0xfffffffeefd9cfda>
    80002414:	00b51513          	slli	a0,a0,0xb
    80002418:	55550513          	addi	a0,a0,1365
    8000241c:	00b51513          	slli	a0,a0,0xb
    80002420:	2aa50513          	addi	a0,a0,682
    80002424:	00a51513          	slli	a0,a0,0xa
    80002428:	2aa50513          	addi	a0,a0,682
    8000242c:	00454593          	xori	a1,a0,4
    80002430:	56b23823          	sd	a1,1392(tp) # 570 <offset+0x290>
    80002434:	faaab337          	lui	t1,0xfaaab
    80002438:	aab3031b          	addiw	t1,t1,-1365 # fffffffffaaaaaab <absimm+0xffffffff3fd9cfdb>
    8000243c:	00c31313          	slli	t1,t1,0xc
    80002440:	aab30313          	addi	t1,t1,-1365
    80002444:	00c31313          	slli	t1,t1,0xc
    80002448:	aab30313          	addi	t1,t1,-1365
    8000244c:	00c31313          	slli	t1,t1,0xc
    80002450:	aae30313          	addi	t1,t1,-1362
    80002454:	00b30463          	beq	t1,a1,8000245c <inst_195>
    80002458:	bcdfd06f          	j	80000024 <rvtest_error>

000000008000245c <inst_195>:
    8000245c:	aaaab537          	lui	a0,0xaaaab
    80002460:	aaa50513          	addi	a0,a0,-1366 # ffffffffaaaaaaaa <absimm+0xfffffffeefd9cfda>
    80002464:	00b51513          	slli	a0,a0,0xb
    80002468:	55550513          	addi	a0,a0,1365
    8000246c:	00b51513          	slli	a0,a0,0xb
    80002470:	2aa50513          	addi	a0,a0,682
    80002474:	00a51513          	slli	a0,a0,0xa
    80002478:	2aa50513          	addi	a0,a0,682
    8000247c:	33254593          	xori	a1,a0,818
    80002480:	56b23c23          	sd	a1,1400(tp) # 578 <offset+0x298>
    80002484:	faaab337          	lui	t1,0xfaaab
    80002488:	aab3031b          	addiw	t1,t1,-1365 # fffffffffaaaaaab <absimm+0xffffffff3fd9cfdb>
    8000248c:	00c31313          	slli	t1,t1,0xc
    80002490:	aab30313          	addi	t1,t1,-1365
    80002494:	00c31313          	slli	t1,t1,0xc
    80002498:	aab30313          	addi	t1,t1,-1365
    8000249c:	00c31313          	slli	t1,t1,0xc
    800024a0:	99830313          	addi	t1,t1,-1640
    800024a4:	00b30463          	beq	t1,a1,800024ac <inst_196>
    800024a8:	b7dfd06f          	j	80000024 <rvtest_error>

00000000800024ac <inst_196>:
    800024ac:	aaaab537          	lui	a0,0xaaaab
    800024b0:	aaa50513          	addi	a0,a0,-1366 # ffffffffaaaaaaaa <absimm+0xfffffffeefd9cfda>
    800024b4:	00b51513          	slli	a0,a0,0xb
    800024b8:	55550513          	addi	a0,a0,1365
    800024bc:	00b51513          	slli	a0,a0,0xb
    800024c0:	2aa50513          	addi	a0,a0,682
    800024c4:	00a51513          	slli	a0,a0,0xa
    800024c8:	2aa50513          	addi	a0,a0,682
    800024cc:	66554593          	xori	a1,a0,1637
    800024d0:	58b23023          	sd	a1,1408(tp) # 580 <offset+0x2a0>
    800024d4:	faaab337          	lui	t1,0xfaaab
    800024d8:	aab3031b          	addiw	t1,t1,-1365 # fffffffffaaaaaab <absimm+0xffffffff3fd9cfdb>
    800024dc:	00c31313          	slli	t1,t1,0xc
    800024e0:	aab30313          	addi	t1,t1,-1365
    800024e4:	00c31313          	slli	t1,t1,0xc
    800024e8:	aab30313          	addi	t1,t1,-1365
    800024ec:	00c31313          	slli	t1,t1,0xc
    800024f0:	ccf30313          	addi	t1,t1,-817
    800024f4:	00b30463          	beq	t1,a1,800024fc <inst_197>
    800024f8:	b2dfd06f          	j	80000024 <rvtest_error>

00000000800024fc <inst_197>:
    800024fc:	aaaab537          	lui	a0,0xaaaab
    80002500:	aaa50513          	addi	a0,a0,-1366 # ffffffffaaaaaaaa <absimm+0xfffffffeefd9cfda>
    80002504:	00b51513          	slli	a0,a0,0xb
    80002508:	55550513          	addi	a0,a0,1365
    8000250c:	00b51513          	slli	a0,a0,0xb
    80002510:	2aa50513          	addi	a0,a0,682
    80002514:	00a51513          	slli	a0,a0,0xa
    80002518:	2aa50513          	addi	a0,a0,682
    8000251c:	02c54593          	xori	a1,a0,44
    80002520:	58b23423          	sd	a1,1416(tp) # 588 <offset+0x2a8>
    80002524:	faaab337          	lui	t1,0xfaaab
    80002528:	aab3031b          	addiw	t1,t1,-1365 # fffffffffaaaaaab <absimm+0xffffffff3fd9cfdb>
    8000252c:	00c31313          	slli	t1,t1,0xc
    80002530:	aab30313          	addi	t1,t1,-1365
    80002534:	00c31313          	slli	t1,t1,0xc
    80002538:	aab30313          	addi	t1,t1,-1365
    8000253c:	00c31313          	slli	t1,t1,0xc
    80002540:	a8630313          	addi	t1,t1,-1402
    80002544:	00b30463          	beq	t1,a1,8000254c <inst_198>
    80002548:	addfd06f          	j	80000024 <rvtest_error>

000000008000254c <inst_198>:
    8000254c:	aaaab537          	lui	a0,0xaaaab
    80002550:	aaa50513          	addi	a0,a0,-1366 # ffffffffaaaaaaaa <absimm+0xfffffffeefd9cfda>
    80002554:	00b51513          	slli	a0,a0,0xb
    80002558:	55550513          	addi	a0,a0,1365
    8000255c:	00b51513          	slli	a0,a0,0xb
    80002560:	2aa50513          	addi	a0,a0,682
    80002564:	00a51513          	slli	a0,a0,0xa
    80002568:	2aa50513          	addi	a0,a0,682
    8000256c:	55654593          	xori	a1,a0,1366
    80002570:	58b23823          	sd	a1,1424(tp) # 590 <offset+0x2b0>
    80002574:	faaab337          	lui	t1,0xfaaab
    80002578:	aab3031b          	addiw	t1,t1,-1365 # fffffffffaaaaaab <absimm+0xffffffff3fd9cfdb>
    8000257c:	00c31313          	slli	t1,t1,0xc
    80002580:	aab30313          	addi	t1,t1,-1365
    80002584:	00c31313          	slli	t1,t1,0xc
    80002588:	aab30313          	addi	t1,t1,-1365
    8000258c:	00c31313          	slli	t1,t1,0xc
    80002590:	ffc30313          	addi	t1,t1,-4
    80002594:	00b30463          	beq	t1,a1,8000259c <inst_199>
    80002598:	a8dfd06f          	j	80000024 <rvtest_error>

000000008000259c <inst_199>:
    8000259c:	aaaab537          	lui	a0,0xaaaab
    800025a0:	aaa50513          	addi	a0,a0,-1366 # ffffffffaaaaaaaa <absimm+0xfffffffeefd9cfda>
    800025a4:	00b51513          	slli	a0,a0,0xb
    800025a8:	55550513          	addi	a0,a0,1365
    800025ac:	00b51513          	slli	a0,a0,0xb
    800025b0:	2aa50513          	addi	a0,a0,682
    800025b4:	00a51513          	slli	a0,a0,0xa
    800025b8:	2aa50513          	addi	a0,a0,682
    800025bc:	aab54593          	xori	a1,a0,-1365
    800025c0:	58b23c23          	sd	a1,1432(tp) # 598 <offset+0x2b8>
    800025c4:	05555337          	lui	t1,0x5555
    800025c8:	5553031b          	addiw	t1,t1,1365 # 5555555 <offset+0x5555275>
    800025cc:	00c31313          	slli	t1,t1,0xc
    800025d0:	55530313          	addi	t1,t1,1365
    800025d4:	00c31313          	slli	t1,t1,0xc
    800025d8:	55530313          	addi	t1,t1,1365
    800025dc:	00c31313          	slli	t1,t1,0xc
    800025e0:	00130313          	addi	t1,t1,1
    800025e4:	00b30463          	beq	t1,a1,800025ec <inst_200>
    800025e8:	a3dfd06f          	j	80000024 <rvtest_error>

00000000800025ec <inst_200>:
    800025ec:	aaaab537          	lui	a0,0xaaaab
    800025f0:	aaa50513          	addi	a0,a0,-1366 # ffffffffaaaaaaaa <absimm+0xfffffffeefd9cfda>
    800025f4:	00b51513          	slli	a0,a0,0xb
    800025f8:	55550513          	addi	a0,a0,1365
    800025fc:	00b51513          	slli	a0,a0,0xb
    80002600:	2aa50513          	addi	a0,a0,682
    80002604:	00a51513          	slli	a0,a0,0xa
    80002608:	2aa50513          	addi	a0,a0,682
    8000260c:	00654593          	xori	a1,a0,6
    80002610:	5ab23023          	sd	a1,1440(tp) # 5a0 <offset+0x2c0>
    80002614:	faaab337          	lui	t1,0xfaaab
    80002618:	aab3031b          	addiw	t1,t1,-1365 # fffffffffaaaaaab <absimm+0xffffffff3fd9cfdb>
    8000261c:	00c31313          	slli	t1,t1,0xc
    80002620:	aab30313          	addi	t1,t1,-1365
    80002624:	00c31313          	slli	t1,t1,0xc
    80002628:	aab30313          	addi	t1,t1,-1365
    8000262c:	00c31313          	slli	t1,t1,0xc
    80002630:	aac30313          	addi	t1,t1,-1364
    80002634:	00b30463          	beq	t1,a1,8000263c <inst_201>
    80002638:	9edfd06f          	j	80000024 <rvtest_error>

000000008000263c <inst_201>:
    8000263c:	aaaab537          	lui	a0,0xaaaab
    80002640:	aaa50513          	addi	a0,a0,-1366 # ffffffffaaaaaaaa <absimm+0xfffffffeefd9cfda>
    80002644:	00b51513          	slli	a0,a0,0xb
    80002648:	55550513          	addi	a0,a0,1365
    8000264c:	00b51513          	slli	a0,a0,0xb
    80002650:	2aa50513          	addi	a0,a0,682
    80002654:	00a51513          	slli	a0,a0,0xa
    80002658:	2aa50513          	addi	a0,a0,682
    8000265c:	33454593          	xori	a1,a0,820
    80002660:	5ab23423          	sd	a1,1448(tp) # 5a8 <offset+0x2c8>
    80002664:	faaab337          	lui	t1,0xfaaab
    80002668:	aab3031b          	addiw	t1,t1,-1365 # fffffffffaaaaaab <absimm+0xffffffff3fd9cfdb>
    8000266c:	00c31313          	slli	t1,t1,0xc
    80002670:	aab30313          	addi	t1,t1,-1365
    80002674:	00c31313          	slli	t1,t1,0xc
    80002678:	aab30313          	addi	t1,t1,-1365
    8000267c:	00c31313          	slli	t1,t1,0xc
    80002680:	99e30313          	addi	t1,t1,-1634
    80002684:	00b30463          	beq	t1,a1,8000268c <inst_202>
    80002688:	99dfd06f          	j	80000024 <rvtest_error>

000000008000268c <inst_202>:
    8000268c:	aaaab537          	lui	a0,0xaaaab
    80002690:	aaa50513          	addi	a0,a0,-1366 # ffffffffaaaaaaaa <absimm+0xfffffffeefd9cfda>
    80002694:	00b51513          	slli	a0,a0,0xb
    80002698:	55550513          	addi	a0,a0,1365
    8000269c:	00b51513          	slli	a0,a0,0xb
    800026a0:	2aa50513          	addi	a0,a0,682
    800026a4:	00a51513          	slli	a0,a0,0xa
    800026a8:	2aa50513          	addi	a0,a0,682
    800026ac:	66754593          	xori	a1,a0,1639
    800026b0:	5ab23823          	sd	a1,1456(tp) # 5b0 <offset+0x2d0>
    800026b4:	faaab337          	lui	t1,0xfaaab
    800026b8:	aab3031b          	addiw	t1,t1,-1365 # fffffffffaaaaaab <absimm+0xffffffff3fd9cfdb>
    800026bc:	00c31313          	slli	t1,t1,0xc
    800026c0:	aab30313          	addi	t1,t1,-1365
    800026c4:	00c31313          	slli	t1,t1,0xc
    800026c8:	aab30313          	addi	t1,t1,-1365
    800026cc:	00c31313          	slli	t1,t1,0xc
    800026d0:	ccd30313          	addi	t1,t1,-819
    800026d4:	00b30463          	beq	t1,a1,800026dc <inst_203>
    800026d8:	94dfd06f          	j	80000024 <rvtest_error>

00000000800026dc <inst_203>:
    800026dc:	aaaab537          	lui	a0,0xaaaab
    800026e0:	aaa50513          	addi	a0,a0,-1366 # ffffffffaaaaaaaa <absimm+0xfffffffeefd9cfda>
    800026e4:	00b51513          	slli	a0,a0,0xb
    800026e8:	55550513          	addi	a0,a0,1365
    800026ec:	00b51513          	slli	a0,a0,0xb
    800026f0:	2aa50513          	addi	a0,a0,682
    800026f4:	00a51513          	slli	a0,a0,0xa
    800026f8:	2aa50513          	addi	a0,a0,682
    800026fc:	fd454593          	xori	a1,a0,-44
    80002700:	5ab23c23          	sd	a1,1464(tp) # 5b8 <offset+0x2d8>
    80002704:	05555337          	lui	t1,0x5555
    80002708:	5553031b          	addiw	t1,t1,1365 # 5555555 <offset+0x5555275>
    8000270c:	00c31313          	slli	t1,t1,0xc
    80002710:	55530313          	addi	t1,t1,1365
    80002714:	00c31313          	slli	t1,t1,0xc
    80002718:	55530313          	addi	t1,t1,1365
    8000271c:	00c31313          	slli	t1,t1,0xc
    80002720:	57e30313          	addi	t1,t1,1406
    80002724:	00b30463          	beq	t1,a1,8000272c <inst_204>
    80002728:	8fdfd06f          	j	80000024 <rvtest_error>

000000008000272c <inst_204>:
    8000272c:	aaaab537          	lui	a0,0xaaaab
    80002730:	aaa50513          	addi	a0,a0,-1366 # ffffffffaaaaaaaa <absimm+0xfffffffeefd9cfda>
    80002734:	00b51513          	slli	a0,a0,0xb
    80002738:	55550513          	addi	a0,a0,1365
    8000273c:	00b51513          	slli	a0,a0,0xb
    80002740:	2aa50513          	addi	a0,a0,682
    80002744:	00a51513          	slli	a0,a0,0xa
    80002748:	2aa50513          	addi	a0,a0,682
    8000274c:	02e54593          	xori	a1,a0,46
    80002750:	5cb23023          	sd	a1,1472(tp) # 5c0 <offset+0x2e0>
    80002754:	faaab337          	lui	t1,0xfaaab
    80002758:	aab3031b          	addiw	t1,t1,-1365 # fffffffffaaaaaab <absimm+0xffffffff3fd9cfdb>
    8000275c:	00c31313          	slli	t1,t1,0xc
    80002760:	aab30313          	addi	t1,t1,-1365
    80002764:	00c31313          	slli	t1,t1,0xc
    80002768:	aab30313          	addi	t1,t1,-1365
    8000276c:	00c31313          	slli	t1,t1,0xc
    80002770:	a8430313          	addi	t1,t1,-1404
    80002774:	00b30463          	beq	t1,a1,8000277c <inst_205>
    80002778:	8adfd06f          	j	80000024 <rvtest_error>

000000008000277c <inst_205>:
    8000277c:	00500513          	li	a0,5
    80002780:	00354593          	xori	a1,a0,3
    80002784:	5cb23423          	sd	a1,1480(tp) # 5c8 <offset+0x2e8>
    80002788:	00600313          	li	t1,6
    8000278c:	00b30463          	beq	t1,a1,80002794 <inst_206>
    80002790:	895fd06f          	j	80000024 <rvtest_error>

0000000080002794 <inst_206>:
    80002794:	00500513          	li	a0,5
    80002798:	55554593          	xori	a1,a0,1365
    8000279c:	5cb23823          	sd	a1,1488(tp) # 5d0 <offset+0x2f0>
    800027a0:	55000313          	li	t1,1360
    800027a4:	00b30463          	beq	t1,a1,800027ac <inst_207>
    800027a8:	87dfd06f          	j	80000024 <rvtest_error>

00000000800027ac <inst_207>:
    800027ac:	00500513          	li	a0,5
    800027b0:	aaa54593          	xori	a1,a0,-1366
    800027b4:	5cb23c23          	sd	a1,1496(tp) # 5d8 <offset+0x2f8>
    800027b8:	aaf00313          	li	t1,-1361
    800027bc:	00b30463          	beq	t1,a1,800027c4 <inst_208>
    800027c0:	865fd06f          	j	80000024 <rvtest_error>

00000000800027c4 <inst_208>:
    800027c4:	00500513          	li	a0,5
    800027c8:	00554593          	xori	a1,a0,5
    800027cc:	5eb23023          	sd	a1,1504(tp) # 5e0 <offset+0x300>
    800027d0:	00000313          	li	t1,0
    800027d4:	00b30463          	beq	t1,a1,800027dc <inst_209>
    800027d8:	84dfd06f          	j	80000024 <rvtest_error>

00000000800027dc <inst_209>:
    800027dc:	00500513          	li	a0,5
    800027e0:	33354593          	xori	a1,a0,819
    800027e4:	5eb23423          	sd	a1,1512(tp) # 5e8 <offset+0x308>
    800027e8:	33600313          	li	t1,822
    800027ec:	00b30463          	beq	t1,a1,800027f4 <inst_210>
    800027f0:	835fd06f          	j	80000024 <rvtest_error>

00000000800027f4 <inst_210>:
    800027f4:	00500513          	li	a0,5
    800027f8:	66654593          	xori	a1,a0,1638
    800027fc:	5eb23823          	sd	a1,1520(tp) # 5f0 <offset+0x310>
    80002800:	66300313          	li	t1,1635
    80002804:	00b30463          	beq	t1,a1,8000280c <inst_211>
    80002808:	81dfd06f          	j	80000024 <rvtest_error>

000000008000280c <inst_211>:
    8000280c:	00500513          	li	a0,5
    80002810:	fd354593          	xori	a1,a0,-45
    80002814:	5eb23c23          	sd	a1,1528(tp) # 5f8 <offset+0x318>
    80002818:	fd600313          	li	t1,-42
    8000281c:	00b30463          	beq	t1,a1,80002824 <inst_212>
    80002820:	805fd06f          	j	80000024 <rvtest_error>

0000000080002824 <inst_212>:
    80002824:	00500513          	li	a0,5
    80002828:	02d54593          	xori	a1,a0,45
    8000282c:	60b23023          	sd	a1,1536(tp) # 600 <offset+0x320>
    80002830:	02800313          	li	t1,40
    80002834:	00b30463          	beq	t1,a1,8000283c <inst_213>
    80002838:	fecfd06f          	j	80000024 <rvtest_error>

000000008000283c <inst_213>:
    8000283c:	00500513          	li	a0,5
    80002840:	00254593          	xori	a1,a0,2
    80002844:	60b23423          	sd	a1,1544(tp) # 608 <offset+0x328>
    80002848:	00700313          	li	t1,7
    8000284c:	00b30463          	beq	t1,a1,80002854 <inst_214>
    80002850:	fd4fd06f          	j	80000024 <rvtest_error>

0000000080002854 <inst_214>:
    80002854:	00500513          	li	a0,5
    80002858:	55454593          	xori	a1,a0,1364
    8000285c:	60b23823          	sd	a1,1552(tp) # 610 <offset+0x330>
    80002860:	55100313          	li	t1,1361
    80002864:	00b30463          	beq	t1,a1,8000286c <inst_215>
    80002868:	fbcfd06f          	j	80000024 <rvtest_error>

000000008000286c <inst_215>:
    8000286c:	00500513          	li	a0,5
    80002870:	00054593          	xori	a1,a0,0
    80002874:	60b23c23          	sd	a1,1560(tp) # 618 <offset+0x338>
    80002878:	00500313          	li	t1,5
    8000287c:	00b30463          	beq	t1,a1,80002884 <inst_216>
    80002880:	fa4fd06f          	j	80000024 <rvtest_error>

0000000080002884 <inst_216>:
    80002884:	00500513          	li	a0,5
    80002888:	00454593          	xori	a1,a0,4
    8000288c:	62b23023          	sd	a1,1568(tp) # 620 <offset+0x340>
    80002890:	00100313          	li	t1,1
    80002894:	00b30463          	beq	t1,a1,8000289c <inst_217>
    80002898:	f8cfd06f          	j	80000024 <rvtest_error>

000000008000289c <inst_217>:
    8000289c:	00500513          	li	a0,5
    800028a0:	33254593          	xori	a1,a0,818
    800028a4:	62b23423          	sd	a1,1576(tp) # 628 <offset+0x348>
    800028a8:	33700313          	li	t1,823
    800028ac:	00b30463          	beq	t1,a1,800028b4 <inst_218>
    800028b0:	f74fd06f          	j	80000024 <rvtest_error>

00000000800028b4 <inst_218>:
    800028b4:	00500513          	li	a0,5
    800028b8:	66554593          	xori	a1,a0,1637
    800028bc:	62b23823          	sd	a1,1584(tp) # 630 <offset+0x350>
    800028c0:	66000313          	li	t1,1632
    800028c4:	00b30463          	beq	t1,a1,800028cc <inst_219>
    800028c8:	f5cfd06f          	j	80000024 <rvtest_error>

00000000800028cc <inst_219>:
    800028cc:	00500513          	li	a0,5
    800028d0:	02c54593          	xori	a1,a0,44
    800028d4:	62b23c23          	sd	a1,1592(tp) # 638 <offset+0x358>
    800028d8:	02900313          	li	t1,41
    800028dc:	00b30463          	beq	t1,a1,800028e4 <inst_220>
    800028e0:	f44fd06f          	j	80000024 <rvtest_error>

00000000800028e4 <inst_220>:
    800028e4:	00500513          	li	a0,5
    800028e8:	55654593          	xori	a1,a0,1366
    800028ec:	64b23023          	sd	a1,1600(tp) # 640 <offset+0x360>
    800028f0:	55300313          	li	t1,1363
    800028f4:	00b30463          	beq	t1,a1,800028fc <inst_221>
    800028f8:	f2cfd06f          	j	80000024 <rvtest_error>

00000000800028fc <inst_221>:
    800028fc:	00500513          	li	a0,5
    80002900:	aab54593          	xori	a1,a0,-1365
    80002904:	64b23423          	sd	a1,1608(tp) # 648 <offset+0x368>
    80002908:	aae00313          	li	t1,-1362
    8000290c:	00b30463          	beq	t1,a1,80002914 <inst_222>
    80002910:	f14fd06f          	j	80000024 <rvtest_error>

0000000080002914 <inst_222>:
    80002914:	00500513          	li	a0,5
    80002918:	00654593          	xori	a1,a0,6
    8000291c:	64b23823          	sd	a1,1616(tp) # 650 <offset+0x370>
    80002920:	00300313          	li	t1,3
    80002924:	00b30463          	beq	t1,a1,8000292c <inst_223>
    80002928:	efcfd06f          	j	80000024 <rvtest_error>

000000008000292c <inst_223>:
    8000292c:	00500513          	li	a0,5
    80002930:	33454593          	xori	a1,a0,820
    80002934:	64b23c23          	sd	a1,1624(tp) # 658 <offset+0x378>
    80002938:	33100313          	li	t1,817
    8000293c:	00b30463          	beq	t1,a1,80002944 <inst_224>
    80002940:	ee4fd06f          	j	80000024 <rvtest_error>

0000000080002944 <inst_224>:
    80002944:	00500513          	li	a0,5
    80002948:	66754593          	xori	a1,a0,1639
    8000294c:	66b23023          	sd	a1,1632(tp) # 660 <offset+0x380>
    80002950:	66200313          	li	t1,1634
    80002954:	00b30463          	beq	t1,a1,8000295c <inst_225>
    80002958:	eccfd06f          	j	80000024 <rvtest_error>

000000008000295c <inst_225>:
    8000295c:	00500513          	li	a0,5
    80002960:	fd454593          	xori	a1,a0,-44
    80002964:	66b23423          	sd	a1,1640(tp) # 668 <offset+0x388>
    80002968:	fd100313          	li	t1,-47
    8000296c:	00b30463          	beq	t1,a1,80002974 <inst_226>
    80002970:	eb4fd06f          	j	80000024 <rvtest_error>

0000000080002974 <inst_226>:
    80002974:	00500513          	li	a0,5
    80002978:	02e54593          	xori	a1,a0,46
    8000297c:	66b23823          	sd	a1,1648(tp) # 670 <offset+0x390>
    80002980:	02b00313          	li	t1,43
    80002984:	00b30463          	beq	t1,a1,8000298c <inst_227>
    80002988:	e9cfd06f          	j	80000024 <rvtest_error>

000000008000298c <inst_227>:
    8000298c:	33333537          	lui	a0,0x33333
    80002990:	33350513          	addi	a0,a0,819 # 33333333 <absimmsh+0x27862586>
    80002994:	00b51513          	slli	a0,a0,0xb
    80002998:	19950513          	addi	a0,a0,409
    8000299c:	00b51513          	slli	a0,a0,0xb
    800029a0:	4cc50513          	addi	a0,a0,1228
    800029a4:	00a51513          	slli	a0,a0,0xa
    800029a8:	33350513          	addi	a0,a0,819
    800029ac:	00354593          	xori	a1,a0,3
    800029b0:	66b23c23          	sd	a1,1656(tp) # 678 <offset+0x398>
    800029b4:	03333337          	lui	t1,0x3333
    800029b8:	3333031b          	addiw	t1,t1,819 # 3333333 <offset+0x3333053>
    800029bc:	00c31313          	slli	t1,t1,0xc
    800029c0:	33330313          	addi	t1,t1,819
    800029c4:	00c31313          	slli	t1,t1,0xc
    800029c8:	33330313          	addi	t1,t1,819
    800029cc:	00c31313          	slli	t1,t1,0xc
    800029d0:	33030313          	addi	t1,t1,816
    800029d4:	00b30463          	beq	t1,a1,800029dc <inst_228>
    800029d8:	e4cfd06f          	j	80000024 <rvtest_error>

00000000800029dc <inst_228>:
    800029dc:	33333537          	lui	a0,0x33333
    800029e0:	33350513          	addi	a0,a0,819 # 33333333 <absimmsh+0x27862586>
    800029e4:	00b51513          	slli	a0,a0,0xb
    800029e8:	19950513          	addi	a0,a0,409
    800029ec:	00b51513          	slli	a0,a0,0xb
    800029f0:	4cc50513          	addi	a0,a0,1228
    800029f4:	00a51513          	slli	a0,a0,0xa
    800029f8:	33350513          	addi	a0,a0,819
    800029fc:	55554593          	xori	a1,a0,1365
    80002a00:	68b23023          	sd	a1,1664(tp) # 680 <offset+0x3a0>
    80002a04:	03333337          	lui	t1,0x3333
    80002a08:	3333031b          	addiw	t1,t1,819 # 3333333 <offset+0x3333053>
    80002a0c:	00c31313          	slli	t1,t1,0xc
    80002a10:	33330313          	addi	t1,t1,819
    80002a14:	00c31313          	slli	t1,t1,0xc
    80002a18:	33330313          	addi	t1,t1,819
    80002a1c:	00c31313          	slli	t1,t1,0xc
    80002a20:	66630313          	addi	t1,t1,1638
    80002a24:	00b30463          	beq	t1,a1,80002a2c <inst_229>
    80002a28:	dfcfd06f          	j	80000024 <rvtest_error>

0000000080002a2c <inst_229>:
    80002a2c:	33333537          	lui	a0,0x33333
    80002a30:	33350513          	addi	a0,a0,819 # 33333333 <absimmsh+0x27862586>
    80002a34:	00b51513          	slli	a0,a0,0xb
    80002a38:	19950513          	addi	a0,a0,409
    80002a3c:	00b51513          	slli	a0,a0,0xb
    80002a40:	4cc50513          	addi	a0,a0,1228
    80002a44:	00a51513          	slli	a0,a0,0xa
    80002a48:	33350513          	addi	a0,a0,819
    80002a4c:	aaa54593          	xori	a1,a0,-1366
    80002a50:	68b23423          	sd	a1,1672(tp) # 688 <offset+0x3a8>
    80002a54:	fcccd337          	lui	t1,0xfcccd
    80002a58:	ccd3031b          	addiw	t1,t1,-819 # fffffffffccccccd <absimm+0xffffffff41fbf1fd>
    80002a5c:	00c31313          	slli	t1,t1,0xc
    80002a60:	ccd30313          	addi	t1,t1,-819
    80002a64:	00c31313          	slli	t1,t1,0xc
    80002a68:	ccd30313          	addi	t1,t1,-819
    80002a6c:	00c31313          	slli	t1,t1,0xc
    80002a70:	99930313          	addi	t1,t1,-1639
    80002a74:	00b30463          	beq	t1,a1,80002a7c <inst_230>
    80002a78:	dacfd06f          	j	80000024 <rvtest_error>

0000000080002a7c <inst_230>:
    80002a7c:	33333537          	lui	a0,0x33333
    80002a80:	33350513          	addi	a0,a0,819 # 33333333 <absimmsh+0x27862586>
    80002a84:	00b51513          	slli	a0,a0,0xb
    80002a88:	19950513          	addi	a0,a0,409
    80002a8c:	00b51513          	slli	a0,a0,0xb
    80002a90:	4cc50513          	addi	a0,a0,1228
    80002a94:	00a51513          	slli	a0,a0,0xa
    80002a98:	33350513          	addi	a0,a0,819
    80002a9c:	00554593          	xori	a1,a0,5
    80002aa0:	68b23823          	sd	a1,1680(tp) # 690 <offset+0x3b0>
    80002aa4:	03333337          	lui	t1,0x3333
    80002aa8:	3333031b          	addiw	t1,t1,819 # 3333333 <offset+0x3333053>
    80002aac:	00c31313          	slli	t1,t1,0xc
    80002ab0:	33330313          	addi	t1,t1,819
    80002ab4:	00c31313          	slli	t1,t1,0xc
    80002ab8:	33330313          	addi	t1,t1,819
    80002abc:	00c31313          	slli	t1,t1,0xc
    80002ac0:	33630313          	addi	t1,t1,822
    80002ac4:	00b30463          	beq	t1,a1,80002acc <inst_231>
    80002ac8:	d5cfd06f          	j	80000024 <rvtest_error>

0000000080002acc <inst_231>:
    80002acc:	33333537          	lui	a0,0x33333
    80002ad0:	33350513          	addi	a0,a0,819 # 33333333 <absimmsh+0x27862586>
    80002ad4:	00b51513          	slli	a0,a0,0xb
    80002ad8:	19950513          	addi	a0,a0,409
    80002adc:	00b51513          	slli	a0,a0,0xb
    80002ae0:	4cc50513          	addi	a0,a0,1228
    80002ae4:	00a51513          	slli	a0,a0,0xa
    80002ae8:	33350513          	addi	a0,a0,819
    80002aec:	33354593          	xori	a1,a0,819
    80002af0:	68b23c23          	sd	a1,1688(tp) # 698 <offset+0x3b8>
    80002af4:	03333337          	lui	t1,0x3333
    80002af8:	3333031b          	addiw	t1,t1,819 # 3333333 <offset+0x3333053>
    80002afc:	00c31313          	slli	t1,t1,0xc
    80002b00:	33330313          	addi	t1,t1,819
    80002b04:	00c31313          	slli	t1,t1,0xc
    80002b08:	33330313          	addi	t1,t1,819
    80002b0c:	00c31313          	slli	t1,t1,0xc
    80002b10:	00b30463          	beq	t1,a1,80002b18 <inst_232>
    80002b14:	d10fd06f          	j	80000024 <rvtest_error>

0000000080002b18 <inst_232>:
    80002b18:	33333537          	lui	a0,0x33333
    80002b1c:	33350513          	addi	a0,a0,819 # 33333333 <absimmsh+0x27862586>
    80002b20:	00b51513          	slli	a0,a0,0xb
    80002b24:	19950513          	addi	a0,a0,409
    80002b28:	00b51513          	slli	a0,a0,0xb
    80002b2c:	4cc50513          	addi	a0,a0,1228
    80002b30:	00a51513          	slli	a0,a0,0xa
    80002b34:	33350513          	addi	a0,a0,819
    80002b38:	66654593          	xori	a1,a0,1638
    80002b3c:	6ab23023          	sd	a1,1696(tp) # 6a0 <offset+0x3c0>
    80002b40:	03333337          	lui	t1,0x3333
    80002b44:	3333031b          	addiw	t1,t1,819 # 3333333 <offset+0x3333053>
    80002b48:	00c31313          	slli	t1,t1,0xc
    80002b4c:	33330313          	addi	t1,t1,819
    80002b50:	00c31313          	slli	t1,t1,0xc
    80002b54:	33330313          	addi	t1,t1,819
    80002b58:	00c31313          	slli	t1,t1,0xc
    80002b5c:	55530313          	addi	t1,t1,1365
    80002b60:	00b30463          	beq	t1,a1,80002b68 <inst_233>
    80002b64:	cc0fd06f          	j	80000024 <rvtest_error>

0000000080002b68 <inst_233>:
    80002b68:	33333537          	lui	a0,0x33333
    80002b6c:	33350513          	addi	a0,a0,819 # 33333333 <absimmsh+0x27862586>
    80002b70:	00b51513          	slli	a0,a0,0xb
    80002b74:	19950513          	addi	a0,a0,409
    80002b78:	00b51513          	slli	a0,a0,0xb
    80002b7c:	4cc50513          	addi	a0,a0,1228
    80002b80:	00a51513          	slli	a0,a0,0xa
    80002b84:	33350513          	addi	a0,a0,819
    80002b88:	fd354593          	xori	a1,a0,-45
    80002b8c:	6ab23423          	sd	a1,1704(tp) # 6a8 <offset+0x3c8>
    80002b90:	fcccd337          	lui	t1,0xfcccd
    80002b94:	ccd3031b          	addiw	t1,t1,-819 # fffffffffccccccd <absimm+0xffffffff41fbf1fd>
    80002b98:	00c31313          	slli	t1,t1,0xc
    80002b9c:	ccd30313          	addi	t1,t1,-819
    80002ba0:	00c31313          	slli	t1,t1,0xc
    80002ba4:	ccd30313          	addi	t1,t1,-819
    80002ba8:	00c31313          	slli	t1,t1,0xc
    80002bac:	ce030313          	addi	t1,t1,-800
    80002bb0:	00b30463          	beq	t1,a1,80002bb8 <inst_234>
    80002bb4:	c70fd06f          	j	80000024 <rvtest_error>

0000000080002bb8 <inst_234>:
    80002bb8:	33333537          	lui	a0,0x33333
    80002bbc:	33350513          	addi	a0,a0,819 # 33333333 <absimmsh+0x27862586>
    80002bc0:	00b51513          	slli	a0,a0,0xb
    80002bc4:	19950513          	addi	a0,a0,409
    80002bc8:	00b51513          	slli	a0,a0,0xb
    80002bcc:	4cc50513          	addi	a0,a0,1228
    80002bd0:	00a51513          	slli	a0,a0,0xa
    80002bd4:	33350513          	addi	a0,a0,819
    80002bd8:	02d54593          	xori	a1,a0,45
    80002bdc:	6ab23823          	sd	a1,1712(tp) # 6b0 <offset+0x3d0>
    80002be0:	03333337          	lui	t1,0x3333
    80002be4:	3333031b          	addiw	t1,t1,819 # 3333333 <offset+0x3333053>
    80002be8:	00c31313          	slli	t1,t1,0xc
    80002bec:	33330313          	addi	t1,t1,819
    80002bf0:	00c31313          	slli	t1,t1,0xc
    80002bf4:	33330313          	addi	t1,t1,819
    80002bf8:	00c31313          	slli	t1,t1,0xc
    80002bfc:	31e30313          	addi	t1,t1,798
    80002c00:	00b30463          	beq	t1,a1,80002c08 <inst_235>
    80002c04:	c20fd06f          	j	80000024 <rvtest_error>

0000000080002c08 <inst_235>:
    80002c08:	33333537          	lui	a0,0x33333
    80002c0c:	33350513          	addi	a0,a0,819 # 33333333 <absimmsh+0x27862586>
    80002c10:	00b51513          	slli	a0,a0,0xb
    80002c14:	19950513          	addi	a0,a0,409
    80002c18:	00b51513          	slli	a0,a0,0xb
    80002c1c:	4cc50513          	addi	a0,a0,1228
    80002c20:	00a51513          	slli	a0,a0,0xa
    80002c24:	33350513          	addi	a0,a0,819
    80002c28:	00254593          	xori	a1,a0,2
    80002c2c:	6ab23c23          	sd	a1,1720(tp) # 6b8 <offset+0x3d8>
    80002c30:	03333337          	lui	t1,0x3333
    80002c34:	3333031b          	addiw	t1,t1,819 # 3333333 <offset+0x3333053>
    80002c38:	00c31313          	slli	t1,t1,0xc
    80002c3c:	33330313          	addi	t1,t1,819
    80002c40:	00c31313          	slli	t1,t1,0xc
    80002c44:	33330313          	addi	t1,t1,819
    80002c48:	00c31313          	slli	t1,t1,0xc
    80002c4c:	33130313          	addi	t1,t1,817
    80002c50:	00b30463          	beq	t1,a1,80002c58 <inst_236>
    80002c54:	bd0fd06f          	j	80000024 <rvtest_error>

0000000080002c58 <inst_236>:
    80002c58:	33333537          	lui	a0,0x33333
    80002c5c:	33350513          	addi	a0,a0,819 # 33333333 <absimmsh+0x27862586>
    80002c60:	00b51513          	slli	a0,a0,0xb
    80002c64:	19950513          	addi	a0,a0,409
    80002c68:	00b51513          	slli	a0,a0,0xb
    80002c6c:	4cc50513          	addi	a0,a0,1228
    80002c70:	00a51513          	slli	a0,a0,0xa
    80002c74:	33350513          	addi	a0,a0,819
    80002c78:	55454593          	xori	a1,a0,1364
    80002c7c:	6cb23023          	sd	a1,1728(tp) # 6c0 <offset+0x3e0>
    80002c80:	03333337          	lui	t1,0x3333
    80002c84:	3333031b          	addiw	t1,t1,819 # 3333333 <offset+0x3333053>
    80002c88:	00c31313          	slli	t1,t1,0xc
    80002c8c:	33330313          	addi	t1,t1,819
    80002c90:	00c31313          	slli	t1,t1,0xc
    80002c94:	33330313          	addi	t1,t1,819
    80002c98:	00c31313          	slli	t1,t1,0xc
    80002c9c:	66730313          	addi	t1,t1,1639
    80002ca0:	00b30463          	beq	t1,a1,80002ca8 <inst_237>
    80002ca4:	b80fd06f          	j	80000024 <rvtest_error>

0000000080002ca8 <inst_237>:
    80002ca8:	33333537          	lui	a0,0x33333
    80002cac:	33350513          	addi	a0,a0,819 # 33333333 <absimmsh+0x27862586>
    80002cb0:	00b51513          	slli	a0,a0,0xb
    80002cb4:	19950513          	addi	a0,a0,409
    80002cb8:	00b51513          	slli	a0,a0,0xb
    80002cbc:	4cc50513          	addi	a0,a0,1228
    80002cc0:	00a51513          	slli	a0,a0,0xa
    80002cc4:	33350513          	addi	a0,a0,819
    80002cc8:	00054593          	xori	a1,a0,0
    80002ccc:	6cb23423          	sd	a1,1736(tp) # 6c8 <offset+0x3e8>
    80002cd0:	03333337          	lui	t1,0x3333
    80002cd4:	3333031b          	addiw	t1,t1,819 # 3333333 <offset+0x3333053>
    80002cd8:	00c31313          	slli	t1,t1,0xc
    80002cdc:	33330313          	addi	t1,t1,819
    80002ce0:	00c31313          	slli	t1,t1,0xc
    80002ce4:	33330313          	addi	t1,t1,819
    80002ce8:	00c31313          	slli	t1,t1,0xc
    80002cec:	33330313          	addi	t1,t1,819
    80002cf0:	00b30463          	beq	t1,a1,80002cf8 <inst_238>
    80002cf4:	b30fd06f          	j	80000024 <rvtest_error>

0000000080002cf8 <inst_238>:
    80002cf8:	33333537          	lui	a0,0x33333
    80002cfc:	33350513          	addi	a0,a0,819 # 33333333 <absimmsh+0x27862586>
    80002d00:	00b51513          	slli	a0,a0,0xb
    80002d04:	19950513          	addi	a0,a0,409
    80002d08:	00b51513          	slli	a0,a0,0xb
    80002d0c:	4cc50513          	addi	a0,a0,1228
    80002d10:	00a51513          	slli	a0,a0,0xa
    80002d14:	33350513          	addi	a0,a0,819
    80002d18:	00454593          	xori	a1,a0,4
    80002d1c:	6cb23823          	sd	a1,1744(tp) # 6d0 <offset+0x3f0>
    80002d20:	03333337          	lui	t1,0x3333
    80002d24:	3333031b          	addiw	t1,t1,819 # 3333333 <offset+0x3333053>
    80002d28:	00c31313          	slli	t1,t1,0xc
    80002d2c:	33330313          	addi	t1,t1,819
    80002d30:	00c31313          	slli	t1,t1,0xc
    80002d34:	33330313          	addi	t1,t1,819
    80002d38:	00c31313          	slli	t1,t1,0xc
    80002d3c:	33730313          	addi	t1,t1,823
    80002d40:	00b30463          	beq	t1,a1,80002d48 <inst_239>
    80002d44:	ae0fd06f          	j	80000024 <rvtest_error>

0000000080002d48 <inst_239>:
    80002d48:	33333537          	lui	a0,0x33333
    80002d4c:	33350513          	addi	a0,a0,819 # 33333333 <absimmsh+0x27862586>
    80002d50:	00b51513          	slli	a0,a0,0xb
    80002d54:	19950513          	addi	a0,a0,409
    80002d58:	00b51513          	slli	a0,a0,0xb
    80002d5c:	4cc50513          	addi	a0,a0,1228
    80002d60:	00a51513          	slli	a0,a0,0xa
    80002d64:	33350513          	addi	a0,a0,819
    80002d68:	33254593          	xori	a1,a0,818
    80002d6c:	6cb23c23          	sd	a1,1752(tp) # 6d8 <offset+0x3f8>
    80002d70:	03333337          	lui	t1,0x3333
    80002d74:	3333031b          	addiw	t1,t1,819 # 3333333 <offset+0x3333053>
    80002d78:	00c31313          	slli	t1,t1,0xc
    80002d7c:	33330313          	addi	t1,t1,819
    80002d80:	00c31313          	slli	t1,t1,0xc
    80002d84:	33330313          	addi	t1,t1,819
    80002d88:	00c31313          	slli	t1,t1,0xc
    80002d8c:	00130313          	addi	t1,t1,1
    80002d90:	00b30463          	beq	t1,a1,80002d98 <inst_240>
    80002d94:	a90fd06f          	j	80000024 <rvtest_error>

0000000080002d98 <inst_240>:
    80002d98:	33333537          	lui	a0,0x33333
    80002d9c:	33350513          	addi	a0,a0,819 # 33333333 <absimmsh+0x27862586>
    80002da0:	00b51513          	slli	a0,a0,0xb
    80002da4:	19950513          	addi	a0,a0,409
    80002da8:	00b51513          	slli	a0,a0,0xb
    80002dac:	4cc50513          	addi	a0,a0,1228
    80002db0:	00a51513          	slli	a0,a0,0xa
    80002db4:	33350513          	addi	a0,a0,819
    80002db8:	66554593          	xori	a1,a0,1637
    80002dbc:	6eb23023          	sd	a1,1760(tp) # 6e0 <offset+0x400>
    80002dc0:	03333337          	lui	t1,0x3333
    80002dc4:	3333031b          	addiw	t1,t1,819 # 3333333 <offset+0x3333053>
    80002dc8:	00c31313          	slli	t1,t1,0xc
    80002dcc:	33330313          	addi	t1,t1,819
    80002dd0:	00c31313          	slli	t1,t1,0xc
    80002dd4:	33330313          	addi	t1,t1,819
    80002dd8:	00c31313          	slli	t1,t1,0xc
    80002ddc:	55630313          	addi	t1,t1,1366
    80002de0:	00b30463          	beq	t1,a1,80002de8 <inst_241>
    80002de4:	a40fd06f          	j	80000024 <rvtest_error>

0000000080002de8 <inst_241>:
    80002de8:	33333537          	lui	a0,0x33333
    80002dec:	33350513          	addi	a0,a0,819 # 33333333 <absimmsh+0x27862586>
    80002df0:	00b51513          	slli	a0,a0,0xb
    80002df4:	19950513          	addi	a0,a0,409
    80002df8:	00b51513          	slli	a0,a0,0xb
    80002dfc:	4cc50513          	addi	a0,a0,1228
    80002e00:	00a51513          	slli	a0,a0,0xa
    80002e04:	33350513          	addi	a0,a0,819
    80002e08:	02c54593          	xori	a1,a0,44
    80002e0c:	6eb23423          	sd	a1,1768(tp) # 6e8 <offset+0x408>
    80002e10:	03333337          	lui	t1,0x3333
    80002e14:	3333031b          	addiw	t1,t1,819 # 3333333 <offset+0x3333053>
    80002e18:	00c31313          	slli	t1,t1,0xc
    80002e1c:	33330313          	addi	t1,t1,819
    80002e20:	00c31313          	slli	t1,t1,0xc
    80002e24:	33330313          	addi	t1,t1,819
    80002e28:	00c31313          	slli	t1,t1,0xc
    80002e2c:	31f30313          	addi	t1,t1,799
    80002e30:	00b30463          	beq	t1,a1,80002e38 <inst_242>
    80002e34:	9f0fd06f          	j	80000024 <rvtest_error>

0000000080002e38 <inst_242>:
    80002e38:	33333537          	lui	a0,0x33333
    80002e3c:	33350513          	addi	a0,a0,819 # 33333333 <absimmsh+0x27862586>
    80002e40:	00b51513          	slli	a0,a0,0xb
    80002e44:	19950513          	addi	a0,a0,409
    80002e48:	00b51513          	slli	a0,a0,0xb
    80002e4c:	4cc50513          	addi	a0,a0,1228
    80002e50:	00a51513          	slli	a0,a0,0xa
    80002e54:	33350513          	addi	a0,a0,819
    80002e58:	55654593          	xori	a1,a0,1366
    80002e5c:	6eb23823          	sd	a1,1776(tp) # 6f0 <offset+0x410>
    80002e60:	03333337          	lui	t1,0x3333
    80002e64:	3333031b          	addiw	t1,t1,819 # 3333333 <offset+0x3333053>
    80002e68:	00c31313          	slli	t1,t1,0xc
    80002e6c:	33330313          	addi	t1,t1,819
    80002e70:	00c31313          	slli	t1,t1,0xc
    80002e74:	33330313          	addi	t1,t1,819
    80002e78:	00c31313          	slli	t1,t1,0xc
    80002e7c:	66530313          	addi	t1,t1,1637
    80002e80:	00b30463          	beq	t1,a1,80002e88 <inst_243>
    80002e84:	9a0fd06f          	j	80000024 <rvtest_error>

0000000080002e88 <inst_243>:
    80002e88:	33333537          	lui	a0,0x33333
    80002e8c:	33350513          	addi	a0,a0,819 # 33333333 <absimmsh+0x27862586>
    80002e90:	00b51513          	slli	a0,a0,0xb
    80002e94:	19950513          	addi	a0,a0,409
    80002e98:	00b51513          	slli	a0,a0,0xb
    80002e9c:	4cc50513          	addi	a0,a0,1228
    80002ea0:	00a51513          	slli	a0,a0,0xa
    80002ea4:	33350513          	addi	a0,a0,819
    80002ea8:	aab54593          	xori	a1,a0,-1365
    80002eac:	6eb23c23          	sd	a1,1784(tp) # 6f8 <offset+0x418>
    80002eb0:	fcccd337          	lui	t1,0xfcccd
    80002eb4:	ccd3031b          	addiw	t1,t1,-819 # fffffffffccccccd <absimm+0xffffffff41fbf1fd>
    80002eb8:	00c31313          	slli	t1,t1,0xc
    80002ebc:	ccd30313          	addi	t1,t1,-819
    80002ec0:	00c31313          	slli	t1,t1,0xc
    80002ec4:	ccd30313          	addi	t1,t1,-819
    80002ec8:	00c31313          	slli	t1,t1,0xc
    80002ecc:	99830313          	addi	t1,t1,-1640
    80002ed0:	00b30463          	beq	t1,a1,80002ed8 <inst_244>
    80002ed4:	950fd06f          	j	80000024 <rvtest_error>

0000000080002ed8 <inst_244>:
    80002ed8:	33333537          	lui	a0,0x33333
    80002edc:	33350513          	addi	a0,a0,819 # 33333333 <absimmsh+0x27862586>
    80002ee0:	00b51513          	slli	a0,a0,0xb
    80002ee4:	19950513          	addi	a0,a0,409
    80002ee8:	00b51513          	slli	a0,a0,0xb
    80002eec:	4cc50513          	addi	a0,a0,1228
    80002ef0:	00a51513          	slli	a0,a0,0xa
    80002ef4:	33350513          	addi	a0,a0,819
    80002ef8:	00654593          	xori	a1,a0,6
    80002efc:	70b23023          	sd	a1,1792(tp) # 700 <offset+0x420>
    80002f00:	03333337          	lui	t1,0x3333
    80002f04:	3333031b          	addiw	t1,t1,819 # 3333333 <offset+0x3333053>
    80002f08:	00c31313          	slli	t1,t1,0xc
    80002f0c:	33330313          	addi	t1,t1,819
    80002f10:	00c31313          	slli	t1,t1,0xc
    80002f14:	33330313          	addi	t1,t1,819
    80002f18:	00c31313          	slli	t1,t1,0xc
    80002f1c:	33530313          	addi	t1,t1,821
    80002f20:	00b30463          	beq	t1,a1,80002f28 <inst_245>
    80002f24:	900fd06f          	j	80000024 <rvtest_error>

0000000080002f28 <inst_245>:
    80002f28:	33333537          	lui	a0,0x33333
    80002f2c:	33350513          	addi	a0,a0,819 # 33333333 <absimmsh+0x27862586>
    80002f30:	00b51513          	slli	a0,a0,0xb
    80002f34:	19950513          	addi	a0,a0,409
    80002f38:	00b51513          	slli	a0,a0,0xb
    80002f3c:	4cc50513          	addi	a0,a0,1228
    80002f40:	00a51513          	slli	a0,a0,0xa
    80002f44:	33350513          	addi	a0,a0,819
    80002f48:	33454593          	xori	a1,a0,820
    80002f4c:	70b23423          	sd	a1,1800(tp) # 708 <offset+0x428>
    80002f50:	03333337          	lui	t1,0x3333
    80002f54:	3333031b          	addiw	t1,t1,819 # 3333333 <offset+0x3333053>
    80002f58:	00c31313          	slli	t1,t1,0xc
    80002f5c:	33330313          	addi	t1,t1,819
    80002f60:	00c31313          	slli	t1,t1,0xc
    80002f64:	33330313          	addi	t1,t1,819
    80002f68:	00c31313          	slli	t1,t1,0xc
    80002f6c:	00730313          	addi	t1,t1,7
    80002f70:	00b30463          	beq	t1,a1,80002f78 <inst_246>
    80002f74:	8b0fd06f          	j	80000024 <rvtest_error>

0000000080002f78 <inst_246>:
    80002f78:	33333537          	lui	a0,0x33333
    80002f7c:	33350513          	addi	a0,a0,819 # 33333333 <absimmsh+0x27862586>
    80002f80:	00b51513          	slli	a0,a0,0xb
    80002f84:	19950513          	addi	a0,a0,409
    80002f88:	00b51513          	slli	a0,a0,0xb
    80002f8c:	4cc50513          	addi	a0,a0,1228
    80002f90:	00a51513          	slli	a0,a0,0xa
    80002f94:	33350513          	addi	a0,a0,819
    80002f98:	66754593          	xori	a1,a0,1639
    80002f9c:	70b23823          	sd	a1,1808(tp) # 710 <offset+0x430>
    80002fa0:	03333337          	lui	t1,0x3333
    80002fa4:	3333031b          	addiw	t1,t1,819 # 3333333 <offset+0x3333053>
    80002fa8:	00c31313          	slli	t1,t1,0xc
    80002fac:	33330313          	addi	t1,t1,819
    80002fb0:	00c31313          	slli	t1,t1,0xc
    80002fb4:	33330313          	addi	t1,t1,819
    80002fb8:	00c31313          	slli	t1,t1,0xc
    80002fbc:	55430313          	addi	t1,t1,1364
    80002fc0:	00b30463          	beq	t1,a1,80002fc8 <inst_247>
    80002fc4:	860fd06f          	j	80000024 <rvtest_error>

0000000080002fc8 <inst_247>:
    80002fc8:	33333537          	lui	a0,0x33333
    80002fcc:	33350513          	addi	a0,a0,819 # 33333333 <absimmsh+0x27862586>
    80002fd0:	00b51513          	slli	a0,a0,0xb
    80002fd4:	19950513          	addi	a0,a0,409
    80002fd8:	00b51513          	slli	a0,a0,0xb
    80002fdc:	4cc50513          	addi	a0,a0,1228
    80002fe0:	00a51513          	slli	a0,a0,0xa
    80002fe4:	33350513          	addi	a0,a0,819
    80002fe8:	fd454593          	xori	a1,a0,-44
    80002fec:	70b23c23          	sd	a1,1816(tp) # 718 <offset+0x438>
    80002ff0:	fcccd337          	lui	t1,0xfcccd
    80002ff4:	ccd3031b          	addiw	t1,t1,-819 # fffffffffccccccd <absimm+0xffffffff41fbf1fd>
    80002ff8:	00c31313          	slli	t1,t1,0xc
    80002ffc:	ccd30313          	addi	t1,t1,-819
    80003000:	00c31313          	slli	t1,t1,0xc
    80003004:	ccd30313          	addi	t1,t1,-819
    80003008:	00c31313          	slli	t1,t1,0xc
    8000300c:	ce730313          	addi	t1,t1,-793
    80003010:	00b30463          	beq	t1,a1,80003018 <inst_248>
    80003014:	810fd06f          	j	80000024 <rvtest_error>

0000000080003018 <inst_248>:
    80003018:	33333537          	lui	a0,0x33333
    8000301c:	33350513          	addi	a0,a0,819 # 33333333 <absimmsh+0x27862586>
    80003020:	00b51513          	slli	a0,a0,0xb
    80003024:	19950513          	addi	a0,a0,409
    80003028:	00b51513          	slli	a0,a0,0xb
    8000302c:	4cc50513          	addi	a0,a0,1228
    80003030:	00a51513          	slli	a0,a0,0xa
    80003034:	33350513          	addi	a0,a0,819
    80003038:	02e54593          	xori	a1,a0,46
    8000303c:	72b23023          	sd	a1,1824(tp) # 720 <offset+0x440>
    80003040:	03333337          	lui	t1,0x3333
    80003044:	3333031b          	addiw	t1,t1,819 # 3333333 <offset+0x3333053>
    80003048:	00c31313          	slli	t1,t1,0xc
    8000304c:	33330313          	addi	t1,t1,819
    80003050:	00c31313          	slli	t1,t1,0xc
    80003054:	33330313          	addi	t1,t1,819
    80003058:	00c31313          	slli	t1,t1,0xc
    8000305c:	31d30313          	addi	t1,t1,797
    80003060:	00b30463          	beq	t1,a1,80003068 <inst_249>
    80003064:	fc1fc06f          	j	80000024 <rvtest_error>

0000000080003068 <inst_249>:
    80003068:	66666537          	lui	a0,0x66666
    8000306c:	66650513          	addi	a0,a0,1638 # 66666666 <absimmsh+0x5ab958b9>
    80003070:	00b51513          	slli	a0,a0,0xb
    80003074:	33350513          	addi	a0,a0,819
    80003078:	00b51513          	slli	a0,a0,0xb
    8000307c:	19950513          	addi	a0,a0,409
    80003080:	00a51513          	slli	a0,a0,0xa
    80003084:	26650513          	addi	a0,a0,614
    80003088:	00354593          	xori	a1,a0,3
    8000308c:	72b23423          	sd	a1,1832(tp) # 728 <offset+0x448>
    80003090:	03333337          	lui	t1,0x3333
    80003094:	3333031b          	addiw	t1,t1,819 # 3333333 <offset+0x3333053>
    80003098:	00c31313          	slli	t1,t1,0xc
    8000309c:	33330313          	addi	t1,t1,819
    800030a0:	00c31313          	slli	t1,t1,0xc
    800030a4:	33330313          	addi	t1,t1,819
    800030a8:	00d31313          	slli	t1,t1,0xd
    800030ac:	66530313          	addi	t1,t1,1637
    800030b0:	00b30463          	beq	t1,a1,800030b8 <inst_250>
    800030b4:	f71fc06f          	j	80000024 <rvtest_error>

00000000800030b8 <inst_250>:
    800030b8:	66666537          	lui	a0,0x66666
    800030bc:	66650513          	addi	a0,a0,1638 # 66666666 <absimmsh+0x5ab958b9>
    800030c0:	00b51513          	slli	a0,a0,0xb
    800030c4:	33350513          	addi	a0,a0,819
    800030c8:	00b51513          	slli	a0,a0,0xb
    800030cc:	19950513          	addi	a0,a0,409
    800030d0:	00a51513          	slli	a0,a0,0xa
    800030d4:	26650513          	addi	a0,a0,614
    800030d8:	55554593          	xori	a1,a0,1365
    800030dc:	72b23823          	sd	a1,1840(tp) # 730 <offset+0x450>
    800030e0:	03333337          	lui	t1,0x3333
    800030e4:	3333031b          	addiw	t1,t1,819 # 3333333 <offset+0x3333053>
    800030e8:	00c31313          	slli	t1,t1,0xc
    800030ec:	33330313          	addi	t1,t1,819
    800030f0:	00c31313          	slli	t1,t1,0xc
    800030f4:	33330313          	addi	t1,t1,819
    800030f8:	00d31313          	slli	t1,t1,0xd
    800030fc:	33330313          	addi	t1,t1,819
    80003100:	00b30463          	beq	t1,a1,80003108 <inst_251>
    80003104:	f21fc06f          	j	80000024 <rvtest_error>

0000000080003108 <inst_251>:
    80003108:	66666537          	lui	a0,0x66666
    8000310c:	66650513          	addi	a0,a0,1638 # 66666666 <absimmsh+0x5ab958b9>
    80003110:	00b51513          	slli	a0,a0,0xb
    80003114:	33350513          	addi	a0,a0,819
    80003118:	00b51513          	slli	a0,a0,0xb
    8000311c:	19950513          	addi	a0,a0,409
    80003120:	00a51513          	slli	a0,a0,0xa
    80003124:	26650513          	addi	a0,a0,614
    80003128:	aaa54593          	xori	a1,a0,-1366
    8000312c:	72b23c23          	sd	a1,1848(tp) # 738 <offset+0x458>
    80003130:	fcccd337          	lui	t1,0xfcccd
    80003134:	ccd3031b          	addiw	t1,t1,-819 # fffffffffccccccd <absimm+0xffffffff41fbf1fd>
    80003138:	00c31313          	slli	t1,t1,0xc
    8000313c:	ccd30313          	addi	t1,t1,-819
    80003140:	00c31313          	slli	t1,t1,0xc
    80003144:	ccd30313          	addi	t1,t1,-819
    80003148:	00d31313          	slli	t1,t1,0xd
    8000314c:	ccc30313          	addi	t1,t1,-820
    80003150:	00b30463          	beq	t1,a1,80003158 <inst_252>
    80003154:	ed1fc06f          	j	80000024 <rvtest_error>

0000000080003158 <inst_252>:
    80003158:	66666537          	lui	a0,0x66666
    8000315c:	66650513          	addi	a0,a0,1638 # 66666666 <absimmsh+0x5ab958b9>
    80003160:	00b51513          	slli	a0,a0,0xb
    80003164:	33350513          	addi	a0,a0,819
    80003168:	00b51513          	slli	a0,a0,0xb
    8000316c:	19950513          	addi	a0,a0,409
    80003170:	00a51513          	slli	a0,a0,0xa
    80003174:	26650513          	addi	a0,a0,614
    80003178:	00554593          	xori	a1,a0,5
    8000317c:	74b23023          	sd	a1,1856(tp) # 740 <offset+0x460>
    80003180:	03333337          	lui	t1,0x3333
    80003184:	3333031b          	addiw	t1,t1,819 # 3333333 <offset+0x3333053>
    80003188:	00c31313          	slli	t1,t1,0xc
    8000318c:	33330313          	addi	t1,t1,819
    80003190:	00c31313          	slli	t1,t1,0xc
    80003194:	33330313          	addi	t1,t1,819
    80003198:	00d31313          	slli	t1,t1,0xd
    8000319c:	66330313          	addi	t1,t1,1635
    800031a0:	00b30463          	beq	t1,a1,800031a8 <inst_253>
    800031a4:	e81fc06f          	j	80000024 <rvtest_error>

00000000800031a8 <inst_253>:
    800031a8:	66666537          	lui	a0,0x66666
    800031ac:	66650513          	addi	a0,a0,1638 # 66666666 <absimmsh+0x5ab958b9>
    800031b0:	00b51513          	slli	a0,a0,0xb
    800031b4:	33350513          	addi	a0,a0,819
    800031b8:	00b51513          	slli	a0,a0,0xb
    800031bc:	19950513          	addi	a0,a0,409
    800031c0:	00a51513          	slli	a0,a0,0xa
    800031c4:	26650513          	addi	a0,a0,614
    800031c8:	33354593          	xori	a1,a0,819
    800031cc:	74b23423          	sd	a1,1864(tp) # 748 <offset+0x468>
    800031d0:	03333337          	lui	t1,0x3333
    800031d4:	3333031b          	addiw	t1,t1,819 # 3333333 <offset+0x3333053>
    800031d8:	00c31313          	slli	t1,t1,0xc
    800031dc:	33330313          	addi	t1,t1,819
    800031e0:	00c31313          	slli	t1,t1,0xc
    800031e4:	33330313          	addi	t1,t1,819
    800031e8:	00d31313          	slli	t1,t1,0xd
    800031ec:	55530313          	addi	t1,t1,1365
    800031f0:	00b30463          	beq	t1,a1,800031f8 <inst_254>
    800031f4:	e31fc06f          	j	80000024 <rvtest_error>

00000000800031f8 <inst_254>:
    800031f8:	66666537          	lui	a0,0x66666
    800031fc:	66650513          	addi	a0,a0,1638 # 66666666 <absimmsh+0x5ab958b9>
    80003200:	00b51513          	slli	a0,a0,0xb
    80003204:	33350513          	addi	a0,a0,819
    80003208:	00b51513          	slli	a0,a0,0xb
    8000320c:	19950513          	addi	a0,a0,409
    80003210:	00a51513          	slli	a0,a0,0xa
    80003214:	26650513          	addi	a0,a0,614
    80003218:	66654593          	xori	a1,a0,1638
    8000321c:	74b23823          	sd	a1,1872(tp) # 750 <offset+0x470>
    80003220:	03333337          	lui	t1,0x3333
    80003224:	3333031b          	addiw	t1,t1,819 # 3333333 <offset+0x3333053>
    80003228:	00c31313          	slli	t1,t1,0xc
    8000322c:	33330313          	addi	t1,t1,819
    80003230:	00c31313          	slli	t1,t1,0xc
    80003234:	33330313          	addi	t1,t1,819
    80003238:	00d31313          	slli	t1,t1,0xd
    8000323c:	00b30463          	beq	t1,a1,80003244 <inst_255>
    80003240:	de5fc06f          	j	80000024 <rvtest_error>

0000000080003244 <inst_255>:
    80003244:	66666537          	lui	a0,0x66666
    80003248:	66650513          	addi	a0,a0,1638 # 66666666 <absimmsh+0x5ab958b9>
    8000324c:	00b51513          	slli	a0,a0,0xb
    80003250:	33350513          	addi	a0,a0,819
    80003254:	00b51513          	slli	a0,a0,0xb
    80003258:	19950513          	addi	a0,a0,409
    8000325c:	00a51513          	slli	a0,a0,0xa
    80003260:	26650513          	addi	a0,a0,614
    80003264:	fd354593          	xori	a1,a0,-45
    80003268:	74b23c23          	sd	a1,1880(tp) # 758 <offset+0x478>
    8000326c:	fcccd337          	lui	t1,0xfcccd
    80003270:	ccd3031b          	addiw	t1,t1,-819 # fffffffffccccccd <absimm+0xffffffff41fbf1fd>
    80003274:	00c31313          	slli	t1,t1,0xc
    80003278:	ccd30313          	addi	t1,t1,-819
    8000327c:	00c31313          	slli	t1,t1,0xc
    80003280:	ccd30313          	addi	t1,t1,-819
    80003284:	00d31313          	slli	t1,t1,0xd
    80003288:	9b530313          	addi	t1,t1,-1611
    8000328c:	00b30463          	beq	t1,a1,80003294 <inst_256>
    80003290:	d95fc06f          	j	80000024 <rvtest_error>

0000000080003294 <inst_256>:
    80003294:	66666537          	lui	a0,0x66666
    80003298:	66650513          	addi	a0,a0,1638 # 66666666 <absimmsh+0x5ab958b9>
    8000329c:	00b51513          	slli	a0,a0,0xb
    800032a0:	33350513          	addi	a0,a0,819
    800032a4:	00b51513          	slli	a0,a0,0xb
    800032a8:	19950513          	addi	a0,a0,409
    800032ac:	00a51513          	slli	a0,a0,0xa
    800032b0:	26650513          	addi	a0,a0,614
    800032b4:	02d54593          	xori	a1,a0,45
    800032b8:	76b23023          	sd	a1,1888(tp) # 760 <offset+0x480>
    800032bc:	03333337          	lui	t1,0x3333
    800032c0:	3333031b          	addiw	t1,t1,819 # 3333333 <offset+0x3333053>
    800032c4:	00c31313          	slli	t1,t1,0xc
    800032c8:	33330313          	addi	t1,t1,819
    800032cc:	00c31313          	slli	t1,t1,0xc
    800032d0:	33330313          	addi	t1,t1,819
    800032d4:	00d31313          	slli	t1,t1,0xd
    800032d8:	64b30313          	addi	t1,t1,1611
    800032dc:	00b30463          	beq	t1,a1,800032e4 <inst_257>
    800032e0:	d45fc06f          	j	80000024 <rvtest_error>

00000000800032e4 <inst_257>:
    800032e4:	66666537          	lui	a0,0x66666
    800032e8:	66650513          	addi	a0,a0,1638 # 66666666 <absimmsh+0x5ab958b9>
    800032ec:	00b51513          	slli	a0,a0,0xb
    800032f0:	33350513          	addi	a0,a0,819
    800032f4:	00b51513          	slli	a0,a0,0xb
    800032f8:	19950513          	addi	a0,a0,409
    800032fc:	00a51513          	slli	a0,a0,0xa
    80003300:	26650513          	addi	a0,a0,614
    80003304:	00254593          	xori	a1,a0,2
    80003308:	76b23423          	sd	a1,1896(tp) # 768 <offset+0x488>
    8000330c:	03333337          	lui	t1,0x3333
    80003310:	3333031b          	addiw	t1,t1,819 # 3333333 <offset+0x3333053>
    80003314:	00c31313          	slli	t1,t1,0xc
    80003318:	33330313          	addi	t1,t1,819
    8000331c:	00c31313          	slli	t1,t1,0xc
    80003320:	33330313          	addi	t1,t1,819
    80003324:	00d31313          	slli	t1,t1,0xd
    80003328:	66430313          	addi	t1,t1,1636
    8000332c:	00b30463          	beq	t1,a1,80003334 <inst_258>
    80003330:	cf5fc06f          	j	80000024 <rvtest_error>

0000000080003334 <inst_258>:
    80003334:	66666537          	lui	a0,0x66666
    80003338:	66650513          	addi	a0,a0,1638 # 66666666 <absimmsh+0x5ab958b9>
    8000333c:	00b51513          	slli	a0,a0,0xb
    80003340:	33350513          	addi	a0,a0,819
    80003344:	00b51513          	slli	a0,a0,0xb
    80003348:	19950513          	addi	a0,a0,409
    8000334c:	00a51513          	slli	a0,a0,0xa
    80003350:	26650513          	addi	a0,a0,614
    80003354:	55454593          	xori	a1,a0,1364
    80003358:	76b23823          	sd	a1,1904(tp) # 770 <offset+0x490>
    8000335c:	03333337          	lui	t1,0x3333
    80003360:	3333031b          	addiw	t1,t1,819 # 3333333 <offset+0x3333053>
    80003364:	00c31313          	slli	t1,t1,0xc
    80003368:	33330313          	addi	t1,t1,819
    8000336c:	00c31313          	slli	t1,t1,0xc
    80003370:	33330313          	addi	t1,t1,819
    80003374:	00d31313          	slli	t1,t1,0xd
    80003378:	33230313          	addi	t1,t1,818
    8000337c:	00b30463          	beq	t1,a1,80003384 <inst_259>
    80003380:	ca5fc06f          	j	80000024 <rvtest_error>

0000000080003384 <inst_259>:
    80003384:	66666537          	lui	a0,0x66666
    80003388:	66650513          	addi	a0,a0,1638 # 66666666 <absimmsh+0x5ab958b9>
    8000338c:	00b51513          	slli	a0,a0,0xb
    80003390:	33350513          	addi	a0,a0,819
    80003394:	00b51513          	slli	a0,a0,0xb
    80003398:	19950513          	addi	a0,a0,409
    8000339c:	00a51513          	slli	a0,a0,0xa
    800033a0:	26650513          	addi	a0,a0,614
    800033a4:	00054593          	xori	a1,a0,0
    800033a8:	76b23c23          	sd	a1,1912(tp) # 778 <offset+0x498>
    800033ac:	03333337          	lui	t1,0x3333
    800033b0:	3333031b          	addiw	t1,t1,819 # 3333333 <offset+0x3333053>
    800033b4:	00c31313          	slli	t1,t1,0xc
    800033b8:	33330313          	addi	t1,t1,819
    800033bc:	00c31313          	slli	t1,t1,0xc
    800033c0:	33330313          	addi	t1,t1,819
    800033c4:	00d31313          	slli	t1,t1,0xd
    800033c8:	66630313          	addi	t1,t1,1638
    800033cc:	00b30463          	beq	t1,a1,800033d4 <inst_260>
    800033d0:	c55fc06f          	j	80000024 <rvtest_error>

00000000800033d4 <inst_260>:
    800033d4:	66666537          	lui	a0,0x66666
    800033d8:	66650513          	addi	a0,a0,1638 # 66666666 <absimmsh+0x5ab958b9>
    800033dc:	00b51513          	slli	a0,a0,0xb
    800033e0:	33350513          	addi	a0,a0,819
    800033e4:	00b51513          	slli	a0,a0,0xb
    800033e8:	19950513          	addi	a0,a0,409
    800033ec:	00a51513          	slli	a0,a0,0xa
    800033f0:	26650513          	addi	a0,a0,614
    800033f4:	00454593          	xori	a1,a0,4
    800033f8:	78b23023          	sd	a1,1920(tp) # 780 <offset+0x4a0>
    800033fc:	03333337          	lui	t1,0x3333
    80003400:	3333031b          	addiw	t1,t1,819 # 3333333 <offset+0x3333053>
    80003404:	00c31313          	slli	t1,t1,0xc
    80003408:	33330313          	addi	t1,t1,819
    8000340c:	00c31313          	slli	t1,t1,0xc
    80003410:	33330313          	addi	t1,t1,819
    80003414:	00d31313          	slli	t1,t1,0xd
    80003418:	66230313          	addi	t1,t1,1634
    8000341c:	00b30463          	beq	t1,a1,80003424 <inst_261>
    80003420:	c05fc06f          	j	80000024 <rvtest_error>

0000000080003424 <inst_261>:
    80003424:	66666537          	lui	a0,0x66666
    80003428:	66650513          	addi	a0,a0,1638 # 66666666 <absimmsh+0x5ab958b9>
    8000342c:	00b51513          	slli	a0,a0,0xb
    80003430:	33350513          	addi	a0,a0,819
    80003434:	00b51513          	slli	a0,a0,0xb
    80003438:	19950513          	addi	a0,a0,409
    8000343c:	00a51513          	slli	a0,a0,0xa
    80003440:	26650513          	addi	a0,a0,614
    80003444:	33254593          	xori	a1,a0,818
    80003448:	78b23423          	sd	a1,1928(tp) # 788 <offset+0x4a8>
    8000344c:	03333337          	lui	t1,0x3333
    80003450:	3333031b          	addiw	t1,t1,819 # 3333333 <offset+0x3333053>
    80003454:	00c31313          	slli	t1,t1,0xc
    80003458:	33330313          	addi	t1,t1,819
    8000345c:	00c31313          	slli	t1,t1,0xc
    80003460:	33330313          	addi	t1,t1,819
    80003464:	00d31313          	slli	t1,t1,0xd
    80003468:	55430313          	addi	t1,t1,1364
    8000346c:	00b30463          	beq	t1,a1,80003474 <inst_262>
    80003470:	bb5fc06f          	j	80000024 <rvtest_error>

0000000080003474 <inst_262>:
    80003474:	66666537          	lui	a0,0x66666
    80003478:	66650513          	addi	a0,a0,1638 # 66666666 <absimmsh+0x5ab958b9>
    8000347c:	00b51513          	slli	a0,a0,0xb
    80003480:	33350513          	addi	a0,a0,819
    80003484:	00b51513          	slli	a0,a0,0xb
    80003488:	19950513          	addi	a0,a0,409
    8000348c:	00a51513          	slli	a0,a0,0xa
    80003490:	26650513          	addi	a0,a0,614
    80003494:	66554593          	xori	a1,a0,1637
    80003498:	78b23823          	sd	a1,1936(tp) # 790 <offset+0x4b0>
    8000349c:	03333337          	lui	t1,0x3333
    800034a0:	3333031b          	addiw	t1,t1,819 # 3333333 <offset+0x3333053>
    800034a4:	00c31313          	slli	t1,t1,0xc
    800034a8:	33330313          	addi	t1,t1,819
    800034ac:	00c31313          	slli	t1,t1,0xc
    800034b0:	33330313          	addi	t1,t1,819
    800034b4:	00d31313          	slli	t1,t1,0xd
    800034b8:	00330313          	addi	t1,t1,3
    800034bc:	00b30463          	beq	t1,a1,800034c4 <inst_263>
    800034c0:	b65fc06f          	j	80000024 <rvtest_error>

00000000800034c4 <inst_263>:
    800034c4:	66666537          	lui	a0,0x66666
    800034c8:	66650513          	addi	a0,a0,1638 # 66666666 <absimmsh+0x5ab958b9>
    800034cc:	00b51513          	slli	a0,a0,0xb
    800034d0:	33350513          	addi	a0,a0,819
    800034d4:	00b51513          	slli	a0,a0,0xb
    800034d8:	19950513          	addi	a0,a0,409
    800034dc:	00a51513          	slli	a0,a0,0xa
    800034e0:	26650513          	addi	a0,a0,614
    800034e4:	02c54593          	xori	a1,a0,44
    800034e8:	78b23c23          	sd	a1,1944(tp) # 798 <offset+0x4b8>
    800034ec:	03333337          	lui	t1,0x3333
    800034f0:	3333031b          	addiw	t1,t1,819 # 3333333 <offset+0x3333053>
    800034f4:	00c31313          	slli	t1,t1,0xc
    800034f8:	33330313          	addi	t1,t1,819
    800034fc:	00c31313          	slli	t1,t1,0xc
    80003500:	33330313          	addi	t1,t1,819
    80003504:	00d31313          	slli	t1,t1,0xd
    80003508:	64a30313          	addi	t1,t1,1610
    8000350c:	00b30463          	beq	t1,a1,80003514 <inst_264>
    80003510:	b15fc06f          	j	80000024 <rvtest_error>

0000000080003514 <inst_264>:
    80003514:	66666537          	lui	a0,0x66666
    80003518:	66650513          	addi	a0,a0,1638 # 66666666 <absimmsh+0x5ab958b9>
    8000351c:	00b51513          	slli	a0,a0,0xb
    80003520:	33350513          	addi	a0,a0,819
    80003524:	00b51513          	slli	a0,a0,0xb
    80003528:	19950513          	addi	a0,a0,409
    8000352c:	00a51513          	slli	a0,a0,0xa
    80003530:	26650513          	addi	a0,a0,614
    80003534:	55654593          	xori	a1,a0,1366
    80003538:	7ab23023          	sd	a1,1952(tp) # 7a0 <offset+0x4c0>
    8000353c:	03333337          	lui	t1,0x3333
    80003540:	3333031b          	addiw	t1,t1,819 # 3333333 <offset+0x3333053>
    80003544:	00c31313          	slli	t1,t1,0xc
    80003548:	33330313          	addi	t1,t1,819
    8000354c:	00c31313          	slli	t1,t1,0xc
    80003550:	33330313          	addi	t1,t1,819
    80003554:	00d31313          	slli	t1,t1,0xd
    80003558:	33030313          	addi	t1,t1,816
    8000355c:	00b30463          	beq	t1,a1,80003564 <inst_265>
    80003560:	ac5fc06f          	j	80000024 <rvtest_error>

0000000080003564 <inst_265>:
    80003564:	66666537          	lui	a0,0x66666
    80003568:	66650513          	addi	a0,a0,1638 # 66666666 <absimmsh+0x5ab958b9>
    8000356c:	00b51513          	slli	a0,a0,0xb
    80003570:	33350513          	addi	a0,a0,819
    80003574:	00b51513          	slli	a0,a0,0xb
    80003578:	19950513          	addi	a0,a0,409
    8000357c:	00a51513          	slli	a0,a0,0xa
    80003580:	26650513          	addi	a0,a0,614
    80003584:	aab54593          	xori	a1,a0,-1365
    80003588:	7ab23423          	sd	a1,1960(tp) # 7a8 <offset+0x4c8>
    8000358c:	fcccd337          	lui	t1,0xfcccd
    80003590:	ccd3031b          	addiw	t1,t1,-819 # fffffffffccccccd <absimm+0xffffffff41fbf1fd>
    80003594:	00c31313          	slli	t1,t1,0xc
    80003598:	ccd30313          	addi	t1,t1,-819
    8000359c:	00c31313          	slli	t1,t1,0xc
    800035a0:	ccd30313          	addi	t1,t1,-819
    800035a4:	00d31313          	slli	t1,t1,0xd
    800035a8:	ccd30313          	addi	t1,t1,-819
    800035ac:	00b30463          	beq	t1,a1,800035b4 <inst_266>
    800035b0:	a75fc06f          	j	80000024 <rvtest_error>

00000000800035b4 <inst_266>:
    800035b4:	66666537          	lui	a0,0x66666
    800035b8:	66650513          	addi	a0,a0,1638 # 66666666 <absimmsh+0x5ab958b9>
    800035bc:	00b51513          	slli	a0,a0,0xb
    800035c0:	33350513          	addi	a0,a0,819
    800035c4:	00b51513          	slli	a0,a0,0xb
    800035c8:	19950513          	addi	a0,a0,409
    800035cc:	00a51513          	slli	a0,a0,0xa
    800035d0:	26650513          	addi	a0,a0,614
    800035d4:	00654593          	xori	a1,a0,6
    800035d8:	7ab23823          	sd	a1,1968(tp) # 7b0 <offset+0x4d0>
    800035dc:	03333337          	lui	t1,0x3333
    800035e0:	3333031b          	addiw	t1,t1,819 # 3333333 <offset+0x3333053>
    800035e4:	00c31313          	slli	t1,t1,0xc
    800035e8:	33330313          	addi	t1,t1,819
    800035ec:	00c31313          	slli	t1,t1,0xc
    800035f0:	33330313          	addi	t1,t1,819
    800035f4:	00d31313          	slli	t1,t1,0xd
    800035f8:	66030313          	addi	t1,t1,1632
    800035fc:	00b30463          	beq	t1,a1,80003604 <inst_267>
    80003600:	a25fc06f          	j	80000024 <rvtest_error>

0000000080003604 <inst_267>:
    80003604:	66666537          	lui	a0,0x66666
    80003608:	66650513          	addi	a0,a0,1638 # 66666666 <absimmsh+0x5ab958b9>
    8000360c:	00b51513          	slli	a0,a0,0xb
    80003610:	33350513          	addi	a0,a0,819
    80003614:	00b51513          	slli	a0,a0,0xb
    80003618:	19950513          	addi	a0,a0,409
    8000361c:	00a51513          	slli	a0,a0,0xa
    80003620:	26650513          	addi	a0,a0,614
    80003624:	33454593          	xori	a1,a0,820
    80003628:	7ab23c23          	sd	a1,1976(tp) # 7b8 <offset+0x4d8>
    8000362c:	03333337          	lui	t1,0x3333
    80003630:	3333031b          	addiw	t1,t1,819 # 3333333 <offset+0x3333053>
    80003634:	00c31313          	slli	t1,t1,0xc
    80003638:	33330313          	addi	t1,t1,819
    8000363c:	00c31313          	slli	t1,t1,0xc
    80003640:	33330313          	addi	t1,t1,819
    80003644:	00d31313          	slli	t1,t1,0xd
    80003648:	55230313          	addi	t1,t1,1362
    8000364c:	00b30463          	beq	t1,a1,80003654 <inst_268>
    80003650:	9d5fc06f          	j	80000024 <rvtest_error>

0000000080003654 <inst_268>:
    80003654:	66666537          	lui	a0,0x66666
    80003658:	66650513          	addi	a0,a0,1638 # 66666666 <absimmsh+0x5ab958b9>
    8000365c:	00b51513          	slli	a0,a0,0xb
    80003660:	33350513          	addi	a0,a0,819
    80003664:	00b51513          	slli	a0,a0,0xb
    80003668:	19950513          	addi	a0,a0,409
    8000366c:	00a51513          	slli	a0,a0,0xa
    80003670:	26650513          	addi	a0,a0,614
    80003674:	66754593          	xori	a1,a0,1639
    80003678:	7cb23023          	sd	a1,1984(tp) # 7c0 <offset+0x4e0>
    8000367c:	03333337          	lui	t1,0x3333
    80003680:	3333031b          	addiw	t1,t1,819 # 3333333 <offset+0x3333053>
    80003684:	00c31313          	slli	t1,t1,0xc
    80003688:	33330313          	addi	t1,t1,819
    8000368c:	00c31313          	slli	t1,t1,0xc
    80003690:	33330313          	addi	t1,t1,819
    80003694:	00d31313          	slli	t1,t1,0xd
    80003698:	00130313          	addi	t1,t1,1
    8000369c:	00b30463          	beq	t1,a1,800036a4 <inst_269>
    800036a0:	985fc06f          	j	80000024 <rvtest_error>

00000000800036a4 <inst_269>:
    800036a4:	66666537          	lui	a0,0x66666
    800036a8:	66650513          	addi	a0,a0,1638 # 66666666 <absimmsh+0x5ab958b9>
    800036ac:	00b51513          	slli	a0,a0,0xb
    800036b0:	33350513          	addi	a0,a0,819
    800036b4:	00b51513          	slli	a0,a0,0xb
    800036b8:	19950513          	addi	a0,a0,409
    800036bc:	00a51513          	slli	a0,a0,0xa
    800036c0:	26650513          	addi	a0,a0,614
    800036c4:	fd454593          	xori	a1,a0,-44
    800036c8:	7cb23423          	sd	a1,1992(tp) # 7c8 <offset+0x4e8>
    800036cc:	fcccd337          	lui	t1,0xfcccd
    800036d0:	ccd3031b          	addiw	t1,t1,-819 # fffffffffccccccd <absimm+0xffffffff41fbf1fd>
    800036d4:	00c31313          	slli	t1,t1,0xc
    800036d8:	ccd30313          	addi	t1,t1,-819
    800036dc:	00c31313          	slli	t1,t1,0xc
    800036e0:	ccd30313          	addi	t1,t1,-819
    800036e4:	00d31313          	slli	t1,t1,0xd
    800036e8:	9b230313          	addi	t1,t1,-1614
    800036ec:	00b30463          	beq	t1,a1,800036f4 <inst_270>
    800036f0:	935fc06f          	j	80000024 <rvtest_error>

00000000800036f4 <inst_270>:
    800036f4:	66666537          	lui	a0,0x66666
    800036f8:	66650513          	addi	a0,a0,1638 # 66666666 <absimmsh+0x5ab958b9>
    800036fc:	00b51513          	slli	a0,a0,0xb
    80003700:	33350513          	addi	a0,a0,819
    80003704:	00b51513          	slli	a0,a0,0xb
    80003708:	19950513          	addi	a0,a0,409
    8000370c:	00a51513          	slli	a0,a0,0xa
    80003710:	26650513          	addi	a0,a0,614
    80003714:	02e54593          	xori	a1,a0,46
    80003718:	7cb23823          	sd	a1,2000(tp) # 7d0 <offset+0x4f0>
    8000371c:	03333337          	lui	t1,0x3333
    80003720:	3333031b          	addiw	t1,t1,819 # 3333333 <offset+0x3333053>
    80003724:	00c31313          	slli	t1,t1,0xc
    80003728:	33330313          	addi	t1,t1,819
    8000372c:	00c31313          	slli	t1,t1,0xc
    80003730:	33330313          	addi	t1,t1,819
    80003734:	00d31313          	slli	t1,t1,0xd
    80003738:	64830313          	addi	t1,t1,1608
    8000373c:	00b30463          	beq	t1,a1,80003744 <inst_271>
    80003740:	8e5fc06f          	j	80000024 <rvtest_error>

0000000080003744 <inst_271>:
    80003744:	00000537          	lui	a0,0x0
    80003748:	fff50513          	addi	a0,a0,-1
    8000374c:	00b51513          	slli	a0,a0,0xb
    80003750:	25750513          	addi	a0,a0,599
    80003754:	00b51513          	slli	a0,a0,0xb
    80003758:	6c350513          	addi	a0,a0,1731
    8000375c:	00a51513          	slli	a0,a0,0xa
    80003760:	0cd50513          	addi	a0,a0,205
    80003764:	00354593          	xori	a1,a0,3
    80003768:	7cb23c23          	sd	a1,2008(tp) # 7d8 <offset+0x4f8>
    8000376c:	fff4b337          	lui	t1,0xfff4b
    80003770:	fb13031b          	addiw	t1,t1,-79 # fffffffffff4afb1 <absimm+0xffffffff4523d4e1>
    80003774:	00c31313          	slli	t1,t1,0xc
    80003778:	cce30313          	addi	t1,t1,-818
    8000377c:	00b30463          	beq	t1,a1,80003784 <inst_272>
    80003780:	8a5fc06f          	j	80000024 <rvtest_error>

0000000080003784 <inst_272>:
    80003784:	00000537          	lui	a0,0x0
    80003788:	fff50513          	addi	a0,a0,-1
    8000378c:	00b51513          	slli	a0,a0,0xb
    80003790:	25750513          	addi	a0,a0,599
    80003794:	00b51513          	slli	a0,a0,0xb
    80003798:	6c350513          	addi	a0,a0,1731
    8000379c:	00a51513          	slli	a0,a0,0xa
    800037a0:	0cd50513          	addi	a0,a0,205
    800037a4:	55554593          	xori	a1,a0,1365
    800037a8:	7eb23023          	sd	a1,2016(tp) # 7e0 <offset+0x500>
    800037ac:	fff4b337          	lui	t1,0xfff4b
    800037b0:	fb13031b          	addiw	t1,t1,-79 # fffffffffff4afb1 <absimm+0xffffffff4523d4e1>
    800037b4:	00c31313          	slli	t1,t1,0xc
    800037b8:	99830313          	addi	t1,t1,-1640
    800037bc:	00b30463          	beq	t1,a1,800037c4 <inst_273>
    800037c0:	865fc06f          	j	80000024 <rvtest_error>

00000000800037c4 <inst_273>:
    800037c4:	00000537          	lui	a0,0x0
    800037c8:	fff50513          	addi	a0,a0,-1
    800037cc:	00b51513          	slli	a0,a0,0xb
    800037d0:	25750513          	addi	a0,a0,599
    800037d4:	00b51513          	slli	a0,a0,0xb
    800037d8:	6c350513          	addi	a0,a0,1731
    800037dc:	00a51513          	slli	a0,a0,0xa
    800037e0:	0cd50513          	addi	a0,a0,205
    800037e4:	aaa54593          	xori	a1,a0,-1366
    800037e8:	7eb23423          	sd	a1,2024(tp) # 7e8 <offset+0x508>
    800037ec:	000b5337          	lui	t1,0xb5
    800037f0:	04f3031b          	addiw	t1,t1,79 # b504f <offset+0xb4d6f>
    800037f4:	00c31313          	slli	t1,t1,0xc
    800037f8:	66730313          	addi	t1,t1,1639
    800037fc:	00b30463          	beq	t1,a1,80003804 <inst_274>
    80003800:	825fc06f          	j	80000024 <rvtest_error>

0000000080003804 <inst_274>:
    80003804:	00000537          	lui	a0,0x0
    80003808:	fff50513          	addi	a0,a0,-1
    8000380c:	00b51513          	slli	a0,a0,0xb
    80003810:	25750513          	addi	a0,a0,599
    80003814:	00b51513          	slli	a0,a0,0xb
    80003818:	6c350513          	addi	a0,a0,1731
    8000381c:	00a51513          	slli	a0,a0,0xa
    80003820:	0cd50513          	addi	a0,a0,205
    80003824:	00554593          	xori	a1,a0,5
    80003828:	7eb23823          	sd	a1,2032(tp) # 7f0 <offset+0x510>
    8000382c:	fff4b337          	lui	t1,0xfff4b
    80003830:	fb13031b          	addiw	t1,t1,-79 # fffffffffff4afb1 <absimm+0xffffffff4523d4e1>
    80003834:	00c31313          	slli	t1,t1,0xc
    80003838:	cc830313          	addi	t1,t1,-824
    8000383c:	00b30463          	beq	t1,a1,80003844 <inst_275>
    80003840:	fe4fc06f          	j	80000024 <rvtest_error>

0000000080003844 <inst_275>:
    80003844:	00000537          	lui	a0,0x0
    80003848:	fff50513          	addi	a0,a0,-1
    8000384c:	00b51513          	slli	a0,a0,0xb
    80003850:	25750513          	addi	a0,a0,599
    80003854:	00b51513          	slli	a0,a0,0xb
    80003858:	6c350513          	addi	a0,a0,1731
    8000385c:	00a51513          	slli	a0,a0,0xa
    80003860:	0cd50513          	addi	a0,a0,205
    80003864:	33354593          	xori	a1,a0,819
    80003868:	7eb23c23          	sd	a1,2040(tp) # 7f8 <offset+0x518>
    8000386c:	fff4b337          	lui	t1,0xfff4b
    80003870:	fb13031b          	addiw	t1,t1,-79 # fffffffffff4afb1 <absimm+0xffffffff4523d4e1>
    80003874:	00c31313          	slli	t1,t1,0xc
    80003878:	ffe30313          	addi	t1,t1,-2
    8000387c:	00b30463          	beq	t1,a1,80003884 <inst_275+0x40>
    80003880:	fa4fc06f          	j	80000024 <rvtest_error>
    80003884:	00000013          	nop
    80003888:	00000013          	nop
    8000388c:	00000013          	nop
    80003890:	00000013          	nop
    80003894:	00000013          	nop
    80003898:	00000013          	nop
    8000389c:	00000013          	nop
    800038a0:	00007217          	auipc	tp,0x7
    800038a4:	00820213          	addi	tp,tp,8 # 8000a8a8 <signature_x4_1>
    800038a8:	00000013          	nop
    800038ac:	00000013          	nop
    800038b0:	00000013          	nop
    800038b4:	00000013          	nop
    800038b8:	00000013          	nop
    800038bc:	00000013          	nop

00000000800038c0 <inst_276>:
    800038c0:	00000537          	lui	a0,0x0
    800038c4:	fff50513          	addi	a0,a0,-1
    800038c8:	00b51513          	slli	a0,a0,0xb
    800038cc:	25750513          	addi	a0,a0,599
    800038d0:	00b51513          	slli	a0,a0,0xb
    800038d4:	6c350513          	addi	a0,a0,1731
    800038d8:	00a51513          	slli	a0,a0,0xa
    800038dc:	0cd50513          	addi	a0,a0,205
    800038e0:	66654593          	xori	a1,a0,1638
    800038e4:	00b23023          	sd	a1,0(tp) # 0 <_entry_offset>
    800038e8:	fff4b337          	lui	t1,0xfff4b
    800038ec:	fb13031b          	addiw	t1,t1,-79 # fffffffffff4afb1 <absimm+0xffffffff4523d4e1>
    800038f0:	00c31313          	slli	t1,t1,0xc
    800038f4:	aab30313          	addi	t1,t1,-1365
    800038f8:	00b30463          	beq	t1,a1,80003900 <inst_277>
    800038fc:	f28fc06f          	j	80000024 <rvtest_error>

0000000080003900 <inst_277>:
    80003900:	00000537          	lui	a0,0x0
    80003904:	fff50513          	addi	a0,a0,-1
    80003908:	00b51513          	slli	a0,a0,0xb
    8000390c:	25750513          	addi	a0,a0,599
    80003910:	00b51513          	slli	a0,a0,0xb
    80003914:	6c350513          	addi	a0,a0,1731
    80003918:	00a51513          	slli	a0,a0,0xa
    8000391c:	0cd50513          	addi	a0,a0,205
    80003920:	fd354593          	xori	a1,a0,-45
    80003924:	00b23423          	sd	a1,8(tp) # 8 <edge2+0x3>
    80003928:	000b5337          	lui	t1,0xb5
    8000392c:	04f3031b          	addiw	t1,t1,79 # b504f <offset+0xb4d6f>
    80003930:	00c31313          	slli	t1,t1,0xc
    80003934:	31e30313          	addi	t1,t1,798
    80003938:	00b30463          	beq	t1,a1,80003940 <inst_278>
    8000393c:	ee8fc06f          	j	80000024 <rvtest_error>

0000000080003940 <inst_278>:
    80003940:	00000537          	lui	a0,0x0
    80003944:	fff50513          	addi	a0,a0,-1
    80003948:	00b51513          	slli	a0,a0,0xb
    8000394c:	25750513          	addi	a0,a0,599
    80003950:	00b51513          	slli	a0,a0,0xb
    80003954:	6c350513          	addi	a0,a0,1731
    80003958:	00a51513          	slli	a0,a0,0xa
    8000395c:	0cd50513          	addi	a0,a0,205
    80003960:	02d54593          	xori	a1,a0,45
    80003964:	00b23823          	sd	a1,16(tp) # 10 <edge2+0xb>
    80003968:	fff4b337          	lui	t1,0xfff4b
    8000396c:	fb13031b          	addiw	t1,t1,-79 # fffffffffff4afb1 <absimm+0xffffffff4523d4e1>
    80003970:	00c31313          	slli	t1,t1,0xc
    80003974:	ce030313          	addi	t1,t1,-800
    80003978:	00b30463          	beq	t1,a1,80003980 <inst_279>
    8000397c:	ea8fc06f          	j	80000024 <rvtest_error>

0000000080003980 <inst_279>:
    80003980:	00000537          	lui	a0,0x0
    80003984:	fff50513          	addi	a0,a0,-1
    80003988:	00b51513          	slli	a0,a0,0xb
    8000398c:	25750513          	addi	a0,a0,599
    80003990:	00b51513          	slli	a0,a0,0xb
    80003994:	6c350513          	addi	a0,a0,1731
    80003998:	00a51513          	slli	a0,a0,0xa
    8000399c:	0cd50513          	addi	a0,a0,205
    800039a0:	00254593          	xori	a1,a0,2
    800039a4:	00b23c23          	sd	a1,24(tp) # 18 <edge2+0x13>
    800039a8:	fff4b337          	lui	t1,0xfff4b
    800039ac:	fb13031b          	addiw	t1,t1,-79 # fffffffffff4afb1 <absimm+0xffffffff4523d4e1>
    800039b0:	00c31313          	slli	t1,t1,0xc
    800039b4:	ccf30313          	addi	t1,t1,-817
    800039b8:	00b30463          	beq	t1,a1,800039c0 <inst_280>
    800039bc:	e68fc06f          	j	80000024 <rvtest_error>

00000000800039c0 <inst_280>:
    800039c0:	00000537          	lui	a0,0x0
    800039c4:	fff50513          	addi	a0,a0,-1
    800039c8:	00b51513          	slli	a0,a0,0xb
    800039cc:	25750513          	addi	a0,a0,599
    800039d0:	00b51513          	slli	a0,a0,0xb
    800039d4:	6c350513          	addi	a0,a0,1731
    800039d8:	00a51513          	slli	a0,a0,0xa
    800039dc:	0cd50513          	addi	a0,a0,205
    800039e0:	55454593          	xori	a1,a0,1364
    800039e4:	02b23023          	sd	a1,32(tp) # 20 <edge2+0x1b>
    800039e8:	fff4b337          	lui	t1,0xfff4b
    800039ec:	fb13031b          	addiw	t1,t1,-79 # fffffffffff4afb1 <absimm+0xffffffff4523d4e1>
    800039f0:	00c31313          	slli	t1,t1,0xc
    800039f4:	99930313          	addi	t1,t1,-1639
    800039f8:	00b30463          	beq	t1,a1,80003a00 <inst_281>
    800039fc:	e28fc06f          	j	80000024 <rvtest_error>

0000000080003a00 <inst_281>:
    80003a00:	00000537          	lui	a0,0x0
    80003a04:	fff50513          	addi	a0,a0,-1
    80003a08:	00b51513          	slli	a0,a0,0xb
    80003a0c:	25750513          	addi	a0,a0,599
    80003a10:	00b51513          	slli	a0,a0,0xb
    80003a14:	6c350513          	addi	a0,a0,1731
    80003a18:	00a51513          	slli	a0,a0,0xa
    80003a1c:	0cd50513          	addi	a0,a0,205
    80003a20:	00054593          	xori	a1,a0,0
    80003a24:	02b23423          	sd	a1,40(tp) # 28 <edge2+0x23>
    80003a28:	fff4b337          	lui	t1,0xfff4b
    80003a2c:	fb13031b          	addiw	t1,t1,-79 # fffffffffff4afb1 <absimm+0xffffffff4523d4e1>
    80003a30:	00c31313          	slli	t1,t1,0xc
    80003a34:	ccd30313          	addi	t1,t1,-819
    80003a38:	00b30463          	beq	t1,a1,80003a40 <inst_282>
    80003a3c:	de8fc06f          	j	80000024 <rvtest_error>

0000000080003a40 <inst_282>:
    80003a40:	00000537          	lui	a0,0x0
    80003a44:	fff50513          	addi	a0,a0,-1
    80003a48:	00b51513          	slli	a0,a0,0xb
    80003a4c:	25750513          	addi	a0,a0,599
    80003a50:	00b51513          	slli	a0,a0,0xb
    80003a54:	6c350513          	addi	a0,a0,1731
    80003a58:	00a51513          	slli	a0,a0,0xa
    80003a5c:	0cd50513          	addi	a0,a0,205
    80003a60:	00454593          	xori	a1,a0,4
    80003a64:	02b23823          	sd	a1,48(tp) # 30 <edge2+0x2b>
    80003a68:	fff4b337          	lui	t1,0xfff4b
    80003a6c:	fb13031b          	addiw	t1,t1,-79 # fffffffffff4afb1 <absimm+0xffffffff4523d4e1>
    80003a70:	00c31313          	slli	t1,t1,0xc
    80003a74:	cc930313          	addi	t1,t1,-823
    80003a78:	00b30463          	beq	t1,a1,80003a80 <inst_283>
    80003a7c:	da8fc06f          	j	80000024 <rvtest_error>

0000000080003a80 <inst_283>:
    80003a80:	00000537          	lui	a0,0x0
    80003a84:	fff50513          	addi	a0,a0,-1
    80003a88:	00b51513          	slli	a0,a0,0xb
    80003a8c:	25750513          	addi	a0,a0,599
    80003a90:	00b51513          	slli	a0,a0,0xb
    80003a94:	6c350513          	addi	a0,a0,1731
    80003a98:	00a51513          	slli	a0,a0,0xa
    80003a9c:	0cd50513          	addi	a0,a0,205
    80003aa0:	33254593          	xori	a1,a0,818
    80003aa4:	02b23c23          	sd	a1,56(tp) # 38 <edge2+0x33>
    80003aa8:	fff4b337          	lui	t1,0xfff4b
    80003aac:	fb13031b          	addiw	t1,t1,-79 # fffffffffff4afb1 <absimm+0xffffffff4523d4e1>
    80003ab0:	00c31313          	slli	t1,t1,0xc
    80003ab4:	fff30313          	addi	t1,t1,-1
    80003ab8:	00b30463          	beq	t1,a1,80003ac0 <inst_284>
    80003abc:	d68fc06f          	j	80000024 <rvtest_error>

0000000080003ac0 <inst_284>:
    80003ac0:	00000537          	lui	a0,0x0
    80003ac4:	fff50513          	addi	a0,a0,-1
    80003ac8:	00b51513          	slli	a0,a0,0xb
    80003acc:	25750513          	addi	a0,a0,599
    80003ad0:	00b51513          	slli	a0,a0,0xb
    80003ad4:	6c350513          	addi	a0,a0,1731
    80003ad8:	00a51513          	slli	a0,a0,0xa
    80003adc:	0cd50513          	addi	a0,a0,205
    80003ae0:	66554593          	xori	a1,a0,1637
    80003ae4:	04b23023          	sd	a1,64(tp) # 40 <pos>
    80003ae8:	fff4b337          	lui	t1,0xfff4b
    80003aec:	fb13031b          	addiw	t1,t1,-79 # fffffffffff4afb1 <absimm+0xffffffff4523d4e1>
    80003af0:	00c31313          	slli	t1,t1,0xc
    80003af4:	aa830313          	addi	t1,t1,-1368
    80003af8:	00b30463          	beq	t1,a1,80003b00 <inst_285>
    80003afc:	d28fc06f          	j	80000024 <rvtest_error>

0000000080003b00 <inst_285>:
    80003b00:	00000537          	lui	a0,0x0
    80003b04:	fff50513          	addi	a0,a0,-1
    80003b08:	00b51513          	slli	a0,a0,0xb
    80003b0c:	25750513          	addi	a0,a0,599
    80003b10:	00b51513          	slli	a0,a0,0xb
    80003b14:	6c350513          	addi	a0,a0,1731
    80003b18:	00a51513          	slli	a0,a0,0xa
    80003b1c:	0cd50513          	addi	a0,a0,205
    80003b20:	02c54593          	xori	a1,a0,44
    80003b24:	04b23423          	sd	a1,72(tp) # 48 <pos+0x8>
    80003b28:	fff4b337          	lui	t1,0xfff4b
    80003b2c:	fb13031b          	addiw	t1,t1,-79 # fffffffffff4afb1 <absimm+0xffffffff4523d4e1>
    80003b30:	00c31313          	slli	t1,t1,0xc
    80003b34:	ce130313          	addi	t1,t1,-799
    80003b38:	00b30463          	beq	t1,a1,80003b40 <inst_286>
    80003b3c:	ce8fc06f          	j	80000024 <rvtest_error>

0000000080003b40 <inst_286>:
    80003b40:	00000537          	lui	a0,0x0
    80003b44:	fff50513          	addi	a0,a0,-1
    80003b48:	00b51513          	slli	a0,a0,0xb
    80003b4c:	25750513          	addi	a0,a0,599
    80003b50:	00b51513          	slli	a0,a0,0xb
    80003b54:	6c350513          	addi	a0,a0,1731
    80003b58:	00a51513          	slli	a0,a0,0xa
    80003b5c:	0cd50513          	addi	a0,a0,205
    80003b60:	55654593          	xori	a1,a0,1366
    80003b64:	04b23823          	sd	a1,80(tp) # 50 <pos+0x10>
    80003b68:	fff4b337          	lui	t1,0xfff4b
    80003b6c:	fb13031b          	addiw	t1,t1,-79 # fffffffffff4afb1 <absimm+0xffffffff4523d4e1>
    80003b70:	00c31313          	slli	t1,t1,0xc
    80003b74:	99b30313          	addi	t1,t1,-1637
    80003b78:	00b30463          	beq	t1,a1,80003b80 <inst_287>
    80003b7c:	ca8fc06f          	j	80000024 <rvtest_error>

0000000080003b80 <inst_287>:
    80003b80:	00000537          	lui	a0,0x0
    80003b84:	fff50513          	addi	a0,a0,-1
    80003b88:	00b51513          	slli	a0,a0,0xb
    80003b8c:	25750513          	addi	a0,a0,599
    80003b90:	00b51513          	slli	a0,a0,0xb
    80003b94:	6c350513          	addi	a0,a0,1731
    80003b98:	00a51513          	slli	a0,a0,0xa
    80003b9c:	0cd50513          	addi	a0,a0,205
    80003ba0:	aab54593          	xori	a1,a0,-1365
    80003ba4:	04b23c23          	sd	a1,88(tp) # 58 <pos+0x18>
    80003ba8:	000b5337          	lui	t1,0xb5
    80003bac:	04f3031b          	addiw	t1,t1,79 # b504f <offset+0xb4d6f>
    80003bb0:	00c31313          	slli	t1,t1,0xc
    80003bb4:	66630313          	addi	t1,t1,1638
    80003bb8:	00b30463          	beq	t1,a1,80003bc0 <inst_288>
    80003bbc:	c68fc06f          	j	80000024 <rvtest_error>

0000000080003bc0 <inst_288>:
    80003bc0:	00000537          	lui	a0,0x0
    80003bc4:	fff50513          	addi	a0,a0,-1
    80003bc8:	00b51513          	slli	a0,a0,0xb
    80003bcc:	25750513          	addi	a0,a0,599
    80003bd0:	00b51513          	slli	a0,a0,0xb
    80003bd4:	6c350513          	addi	a0,a0,1731
    80003bd8:	00a51513          	slli	a0,a0,0xa
    80003bdc:	0cd50513          	addi	a0,a0,205
    80003be0:	00654593          	xori	a1,a0,6
    80003be4:	06b23023          	sd	a1,96(tp) # 60 <pos+0x20>
    80003be8:	fff4b337          	lui	t1,0xfff4b
    80003bec:	fb13031b          	addiw	t1,t1,-79 # fffffffffff4afb1 <absimm+0xffffffff4523d4e1>
    80003bf0:	00c31313          	slli	t1,t1,0xc
    80003bf4:	ccb30313          	addi	t1,t1,-821
    80003bf8:	00b30463          	beq	t1,a1,80003c00 <inst_289>
    80003bfc:	c28fc06f          	j	80000024 <rvtest_error>

0000000080003c00 <inst_289>:
    80003c00:	00000537          	lui	a0,0x0
    80003c04:	fff50513          	addi	a0,a0,-1
    80003c08:	00b51513          	slli	a0,a0,0xb
    80003c0c:	25750513          	addi	a0,a0,599
    80003c10:	00b51513          	slli	a0,a0,0xb
    80003c14:	6c350513          	addi	a0,a0,1731
    80003c18:	00a51513          	slli	a0,a0,0xa
    80003c1c:	0cd50513          	addi	a0,a0,205
    80003c20:	33454593          	xori	a1,a0,820
    80003c24:	06b23423          	sd	a1,104(tp) # 68 <pos+0x28>
    80003c28:	fff4b337          	lui	t1,0xfff4b
    80003c2c:	fb13031b          	addiw	t1,t1,-79 # fffffffffff4afb1 <absimm+0xffffffff4523d4e1>
    80003c30:	00c31313          	slli	t1,t1,0xc
    80003c34:	ff930313          	addi	t1,t1,-7
    80003c38:	00b30463          	beq	t1,a1,80003c40 <inst_290>
    80003c3c:	be8fc06f          	j	80000024 <rvtest_error>

0000000080003c40 <inst_290>:
    80003c40:	00000537          	lui	a0,0x0
    80003c44:	fff50513          	addi	a0,a0,-1
    80003c48:	00b51513          	slli	a0,a0,0xb
    80003c4c:	25750513          	addi	a0,a0,599
    80003c50:	00b51513          	slli	a0,a0,0xb
    80003c54:	6c350513          	addi	a0,a0,1731
    80003c58:	00a51513          	slli	a0,a0,0xa
    80003c5c:	0cd50513          	addi	a0,a0,205
    80003c60:	66754593          	xori	a1,a0,1639
    80003c64:	06b23823          	sd	a1,112(tp) # 70 <pos+0x30>
    80003c68:	fff4b337          	lui	t1,0xfff4b
    80003c6c:	fb13031b          	addiw	t1,t1,-79 # fffffffffff4afb1 <absimm+0xffffffff4523d4e1>
    80003c70:	00c31313          	slli	t1,t1,0xc
    80003c74:	aaa30313          	addi	t1,t1,-1366
    80003c78:	00b30463          	beq	t1,a1,80003c80 <inst_291>
    80003c7c:	ba8fc06f          	j	80000024 <rvtest_error>

0000000080003c80 <inst_291>:
    80003c80:	00000537          	lui	a0,0x0
    80003c84:	fff50513          	addi	a0,a0,-1
    80003c88:	00b51513          	slli	a0,a0,0xb
    80003c8c:	25750513          	addi	a0,a0,599
    80003c90:	00b51513          	slli	a0,a0,0xb
    80003c94:	6c350513          	addi	a0,a0,1731
    80003c98:	00a51513          	slli	a0,a0,0xa
    80003c9c:	0cd50513          	addi	a0,a0,205
    80003ca0:	fd454593          	xori	a1,a0,-44
    80003ca4:	06b23c23          	sd	a1,120(tp) # 78 <pos+0x38>
    80003ca8:	000b5337          	lui	t1,0xb5
    80003cac:	04f3031b          	addiw	t1,t1,79 # b504f <offset+0xb4d6f>
    80003cb0:	00c31313          	slli	t1,t1,0xc
    80003cb4:	31930313          	addi	t1,t1,793
    80003cb8:	00b30463          	beq	t1,a1,80003cc0 <inst_292>
    80003cbc:	b68fc06f          	j	80000024 <rvtest_error>

0000000080003cc0 <inst_292>:
    80003cc0:	00000537          	lui	a0,0x0
    80003cc4:	fff50513          	addi	a0,a0,-1
    80003cc8:	00b51513          	slli	a0,a0,0xb
    80003ccc:	25750513          	addi	a0,a0,599
    80003cd0:	00b51513          	slli	a0,a0,0xb
    80003cd4:	6c350513          	addi	a0,a0,1731
    80003cd8:	00a51513          	slli	a0,a0,0xa
    80003cdc:	0cd50513          	addi	a0,a0,205
    80003ce0:	02e54593          	xori	a1,a0,46
    80003ce4:	08b23023          	sd	a1,128(tp) # 80 <pos+0x40>
    80003ce8:	fff4b337          	lui	t1,0xfff4b
    80003cec:	fb13031b          	addiw	t1,t1,-79 # fffffffffff4afb1 <absimm+0xffffffff4523d4e1>
    80003cf0:	00c31313          	slli	t1,t1,0xc
    80003cf4:	ce330313          	addi	t1,t1,-797
    80003cf8:	00b30463          	beq	t1,a1,80003d00 <inst_293>
    80003cfc:	b28fc06f          	j	80000024 <rvtest_error>

0000000080003d00 <inst_293>:
    80003d00:	00000537          	lui	a0,0x0
    80003d04:	00050513          	mv	a0,a0
    80003d08:	00b51513          	slli	a0,a0,0xb
    80003d0c:	5a850513          	addi	a0,a0,1448 # 5a8 <offset+0x2c8>
    80003d10:	00b51513          	slli	a0,a0,0xb
    80003d14:	13c50513          	addi	a0,a0,316
    80003d18:	00a51513          	slli	a0,a0,0xa
    80003d1c:	33350513          	addi	a0,a0,819
    80003d20:	00354593          	xori	a1,a0,3
    80003d24:	08b23423          	sd	a1,136(tp) # 88 <pos+0x48>
    80003d28:	000b5337          	lui	t1,0xb5
    80003d2c:	04f3031b          	addiw	t1,t1,79 # b504f <offset+0xb4d6f>
    80003d30:	00c31313          	slli	t1,t1,0xc
    80003d34:	33030313          	addi	t1,t1,816
    80003d38:	00b30463          	beq	t1,a1,80003d40 <inst_294>
    80003d3c:	ae8fc06f          	j	80000024 <rvtest_error>

0000000080003d40 <inst_294>:
    80003d40:	00000537          	lui	a0,0x0
    80003d44:	00050513          	mv	a0,a0
    80003d48:	00b51513          	slli	a0,a0,0xb
    80003d4c:	5a850513          	addi	a0,a0,1448 # 5a8 <offset+0x2c8>
    80003d50:	00b51513          	slli	a0,a0,0xb
    80003d54:	13c50513          	addi	a0,a0,316
    80003d58:	00a51513          	slli	a0,a0,0xa
    80003d5c:	33350513          	addi	a0,a0,819
    80003d60:	55554593          	xori	a1,a0,1365
    80003d64:	08b23823          	sd	a1,144(tp) # 90 <pos+0x50>
    80003d68:	000b5337          	lui	t1,0xb5
    80003d6c:	04f3031b          	addiw	t1,t1,79 # b504f <offset+0xb4d6f>
    80003d70:	00c31313          	slli	t1,t1,0xc
    80003d74:	66630313          	addi	t1,t1,1638
    80003d78:	00b30463          	beq	t1,a1,80003d80 <inst_295>
    80003d7c:	aa8fc06f          	j	80000024 <rvtest_error>

0000000080003d80 <inst_295>:
    80003d80:	00000537          	lui	a0,0x0
    80003d84:	00050513          	mv	a0,a0
    80003d88:	00b51513          	slli	a0,a0,0xb
    80003d8c:	5a850513          	addi	a0,a0,1448 # 5a8 <offset+0x2c8>
    80003d90:	00b51513          	slli	a0,a0,0xb
    80003d94:	13c50513          	addi	a0,a0,316
    80003d98:	00a51513          	slli	a0,a0,0xa
    80003d9c:	33350513          	addi	a0,a0,819
    80003da0:	aaa54593          	xori	a1,a0,-1366
    80003da4:	08b23c23          	sd	a1,152(tp) # 98 <pos+0x58>
    80003da8:	fff4b337          	lui	t1,0xfff4b
    80003dac:	fb13031b          	addiw	t1,t1,-79 # fffffffffff4afb1 <absimm+0xffffffff4523d4e1>
    80003db0:	00c31313          	slli	t1,t1,0xc
    80003db4:	99930313          	addi	t1,t1,-1639
    80003db8:	00b30463          	beq	t1,a1,80003dc0 <inst_296>
    80003dbc:	a68fc06f          	j	80000024 <rvtest_error>

0000000080003dc0 <inst_296>:
    80003dc0:	00000537          	lui	a0,0x0
    80003dc4:	00050513          	mv	a0,a0
    80003dc8:	00b51513          	slli	a0,a0,0xb
    80003dcc:	5a850513          	addi	a0,a0,1448 # 5a8 <offset+0x2c8>
    80003dd0:	00b51513          	slli	a0,a0,0xb
    80003dd4:	13c50513          	addi	a0,a0,316
    80003dd8:	00a51513          	slli	a0,a0,0xa
    80003ddc:	33350513          	addi	a0,a0,819
    80003de0:	00554593          	xori	a1,a0,5
    80003de4:	0ab23023          	sd	a1,160(tp) # a0 <pos+0x60>
    80003de8:	000b5337          	lui	t1,0xb5
    80003dec:	04f3031b          	addiw	t1,t1,79 # b504f <offset+0xb4d6f>
    80003df0:	00c31313          	slli	t1,t1,0xc
    80003df4:	33630313          	addi	t1,t1,822
    80003df8:	00b30463          	beq	t1,a1,80003e00 <inst_297>
    80003dfc:	a28fc06f          	j	80000024 <rvtest_error>

0000000080003e00 <inst_297>:
    80003e00:	00000537          	lui	a0,0x0
    80003e04:	00050513          	mv	a0,a0
    80003e08:	00b51513          	slli	a0,a0,0xb
    80003e0c:	5a850513          	addi	a0,a0,1448 # 5a8 <offset+0x2c8>
    80003e10:	00b51513          	slli	a0,a0,0xb
    80003e14:	13c50513          	addi	a0,a0,316
    80003e18:	00a51513          	slli	a0,a0,0xa
    80003e1c:	33350513          	addi	a0,a0,819
    80003e20:	33354593          	xori	a1,a0,819
    80003e24:	0ab23423          	sd	a1,168(tp) # a8 <pos+0x68>
    80003e28:	000b5337          	lui	t1,0xb5
    80003e2c:	04f3031b          	addiw	t1,t1,79 # b504f <offset+0xb4d6f>
    80003e30:	00c31313          	slli	t1,t1,0xc
    80003e34:	00b30463          	beq	t1,a1,80003e3c <inst_298>
    80003e38:	9ecfc06f          	j	80000024 <rvtest_error>

0000000080003e3c <inst_298>:
    80003e3c:	00000537          	lui	a0,0x0
    80003e40:	00050513          	mv	a0,a0
    80003e44:	00b51513          	slli	a0,a0,0xb
    80003e48:	5a850513          	addi	a0,a0,1448 # 5a8 <offset+0x2c8>
    80003e4c:	00b51513          	slli	a0,a0,0xb
    80003e50:	13c50513          	addi	a0,a0,316
    80003e54:	00a51513          	slli	a0,a0,0xa
    80003e58:	33350513          	addi	a0,a0,819
    80003e5c:	66654593          	xori	a1,a0,1638
    80003e60:	0ab23823          	sd	a1,176(tp) # b0 <pos+0x70>
    80003e64:	000b5337          	lui	t1,0xb5
    80003e68:	04f3031b          	addiw	t1,t1,79 # b504f <offset+0xb4d6f>
    80003e6c:	00c31313          	slli	t1,t1,0xc
    80003e70:	55530313          	addi	t1,t1,1365
    80003e74:	00b30463          	beq	t1,a1,80003e7c <inst_299>
    80003e78:	9acfc06f          	j	80000024 <rvtest_error>

0000000080003e7c <inst_299>:
    80003e7c:	00000537          	lui	a0,0x0
    80003e80:	00050513          	mv	a0,a0
    80003e84:	00b51513          	slli	a0,a0,0xb
    80003e88:	5a850513          	addi	a0,a0,1448 # 5a8 <offset+0x2c8>
    80003e8c:	00b51513          	slli	a0,a0,0xb
    80003e90:	13c50513          	addi	a0,a0,316
    80003e94:	00a51513          	slli	a0,a0,0xa
    80003e98:	33350513          	addi	a0,a0,819
    80003e9c:	fd354593          	xori	a1,a0,-45
    80003ea0:	0ab23c23          	sd	a1,184(tp) # b8 <pos+0x78>
    80003ea4:	fff4b337          	lui	t1,0xfff4b
    80003ea8:	fb13031b          	addiw	t1,t1,-79 # fffffffffff4afb1 <absimm+0xffffffff4523d4e1>
    80003eac:	00c31313          	slli	t1,t1,0xc
    80003eb0:	ce030313          	addi	t1,t1,-800
    80003eb4:	00b30463          	beq	t1,a1,80003ebc <inst_300>
    80003eb8:	96cfc06f          	j	80000024 <rvtest_error>

0000000080003ebc <inst_300>:
    80003ebc:	00000537          	lui	a0,0x0
    80003ec0:	00050513          	mv	a0,a0
    80003ec4:	00b51513          	slli	a0,a0,0xb
    80003ec8:	5a850513          	addi	a0,a0,1448 # 5a8 <offset+0x2c8>
    80003ecc:	00b51513          	slli	a0,a0,0xb
    80003ed0:	13c50513          	addi	a0,a0,316
    80003ed4:	00a51513          	slli	a0,a0,0xa
    80003ed8:	33350513          	addi	a0,a0,819
    80003edc:	02d54593          	xori	a1,a0,45
    80003ee0:	0cb23023          	sd	a1,192(tp) # c0 <pos+0x80>
    80003ee4:	000b5337          	lui	t1,0xb5
    80003ee8:	04f3031b          	addiw	t1,t1,79 # b504f <offset+0xb4d6f>
    80003eec:	00c31313          	slli	t1,t1,0xc
    80003ef0:	31e30313          	addi	t1,t1,798
    80003ef4:	00b30463          	beq	t1,a1,80003efc <inst_301>
    80003ef8:	92cfc06f          	j	80000024 <rvtest_error>

0000000080003efc <inst_301>:
    80003efc:	00000537          	lui	a0,0x0
    80003f00:	00050513          	mv	a0,a0
    80003f04:	00b51513          	slli	a0,a0,0xb
    80003f08:	5a850513          	addi	a0,a0,1448 # 5a8 <offset+0x2c8>
    80003f0c:	00b51513          	slli	a0,a0,0xb
    80003f10:	13c50513          	addi	a0,a0,316
    80003f14:	00a51513          	slli	a0,a0,0xa
    80003f18:	33350513          	addi	a0,a0,819
    80003f1c:	00254593          	xori	a1,a0,2
    80003f20:	0cb23423          	sd	a1,200(tp) # c8 <pos+0x88>
    80003f24:	000b5337          	lui	t1,0xb5
    80003f28:	04f3031b          	addiw	t1,t1,79 # b504f <offset+0xb4d6f>
    80003f2c:	00c31313          	slli	t1,t1,0xc
    80003f30:	33130313          	addi	t1,t1,817
    80003f34:	00b30463          	beq	t1,a1,80003f3c <inst_302>
    80003f38:	8ecfc06f          	j	80000024 <rvtest_error>

0000000080003f3c <inst_302>:
    80003f3c:	00000537          	lui	a0,0x0
    80003f40:	00050513          	mv	a0,a0
    80003f44:	00b51513          	slli	a0,a0,0xb
    80003f48:	5a850513          	addi	a0,a0,1448 # 5a8 <offset+0x2c8>
    80003f4c:	00b51513          	slli	a0,a0,0xb
    80003f50:	13c50513          	addi	a0,a0,316
    80003f54:	00a51513          	slli	a0,a0,0xa
    80003f58:	33350513          	addi	a0,a0,819
    80003f5c:	55454593          	xori	a1,a0,1364
    80003f60:	0cb23823          	sd	a1,208(tp) # d0 <pos+0x90>
    80003f64:	000b5337          	lui	t1,0xb5
    80003f68:	04f3031b          	addiw	t1,t1,79 # b504f <offset+0xb4d6f>
    80003f6c:	00c31313          	slli	t1,t1,0xc
    80003f70:	66730313          	addi	t1,t1,1639
    80003f74:	00b30463          	beq	t1,a1,80003f7c <inst_303>
    80003f78:	8acfc06f          	j	80000024 <rvtest_error>

0000000080003f7c <inst_303>:
    80003f7c:	00000537          	lui	a0,0x0
    80003f80:	00050513          	mv	a0,a0
    80003f84:	00b51513          	slli	a0,a0,0xb
    80003f88:	5a850513          	addi	a0,a0,1448 # 5a8 <offset+0x2c8>
    80003f8c:	00b51513          	slli	a0,a0,0xb
    80003f90:	13c50513          	addi	a0,a0,316
    80003f94:	00a51513          	slli	a0,a0,0xa
    80003f98:	33350513          	addi	a0,a0,819
    80003f9c:	00054593          	xori	a1,a0,0
    80003fa0:	0cb23c23          	sd	a1,216(tp) # d8 <pos+0x98>
    80003fa4:	000b5337          	lui	t1,0xb5
    80003fa8:	04f3031b          	addiw	t1,t1,79 # b504f <offset+0xb4d6f>
    80003fac:	00c31313          	slli	t1,t1,0xc
    80003fb0:	33330313          	addi	t1,t1,819
    80003fb4:	00b30463          	beq	t1,a1,80003fbc <inst_304>
    80003fb8:	86cfc06f          	j	80000024 <rvtest_error>

0000000080003fbc <inst_304>:
    80003fbc:	00000537          	lui	a0,0x0
    80003fc0:	00050513          	mv	a0,a0
    80003fc4:	00b51513          	slli	a0,a0,0xb
    80003fc8:	5a850513          	addi	a0,a0,1448 # 5a8 <offset+0x2c8>
    80003fcc:	00b51513          	slli	a0,a0,0xb
    80003fd0:	13c50513          	addi	a0,a0,316
    80003fd4:	00a51513          	slli	a0,a0,0xa
    80003fd8:	33350513          	addi	a0,a0,819
    80003fdc:	00454593          	xori	a1,a0,4
    80003fe0:	0eb23023          	sd	a1,224(tp) # e0 <pos+0xa0>
    80003fe4:	000b5337          	lui	t1,0xb5
    80003fe8:	04f3031b          	addiw	t1,t1,79 # b504f <offset+0xb4d6f>
    80003fec:	00c31313          	slli	t1,t1,0xc
    80003ff0:	33730313          	addi	t1,t1,823
    80003ff4:	00b30463          	beq	t1,a1,80003ffc <inst_305>
    80003ff8:	82cfc06f          	j	80000024 <rvtest_error>

0000000080003ffc <inst_305>:
    80003ffc:	00000537          	lui	a0,0x0
    80004000:	00050513          	mv	a0,a0
    80004004:	00b51513          	slli	a0,a0,0xb
    80004008:	5a850513          	addi	a0,a0,1448 # 5a8 <offset+0x2c8>
    8000400c:	00b51513          	slli	a0,a0,0xb
    80004010:	13c50513          	addi	a0,a0,316
    80004014:	00a51513          	slli	a0,a0,0xa
    80004018:	33350513          	addi	a0,a0,819
    8000401c:	33254593          	xori	a1,a0,818
    80004020:	0eb23423          	sd	a1,232(tp) # e8 <pos+0xa8>
    80004024:	000b5337          	lui	t1,0xb5
    80004028:	04f3031b          	addiw	t1,t1,79 # b504f <offset+0xb4d6f>
    8000402c:	00c31313          	slli	t1,t1,0xc
    80004030:	00130313          	addi	t1,t1,1
    80004034:	00b30463          	beq	t1,a1,8000403c <inst_306>
    80004038:	fedfb06f          	j	80000024 <rvtest_error>

000000008000403c <inst_306>:
    8000403c:	00000537          	lui	a0,0x0
    80004040:	00050513          	mv	a0,a0
    80004044:	00b51513          	slli	a0,a0,0xb
    80004048:	5a850513          	addi	a0,a0,1448 # 5a8 <offset+0x2c8>
    8000404c:	00b51513          	slli	a0,a0,0xb
    80004050:	13c50513          	addi	a0,a0,316
    80004054:	00a51513          	slli	a0,a0,0xa
    80004058:	33350513          	addi	a0,a0,819
    8000405c:	66554593          	xori	a1,a0,1637
    80004060:	0eb23823          	sd	a1,240(tp) # f0 <pos+0xb0>
    80004064:	000b5337          	lui	t1,0xb5
    80004068:	04f3031b          	addiw	t1,t1,79 # b504f <offset+0xb4d6f>
    8000406c:	00c31313          	slli	t1,t1,0xc
    80004070:	55630313          	addi	t1,t1,1366
    80004074:	00b30463          	beq	t1,a1,8000407c <inst_307>
    80004078:	fadfb06f          	j	80000024 <rvtest_error>

000000008000407c <inst_307>:
    8000407c:	00000537          	lui	a0,0x0
    80004080:	00050513          	mv	a0,a0
    80004084:	00b51513          	slli	a0,a0,0xb
    80004088:	5a850513          	addi	a0,a0,1448 # 5a8 <offset+0x2c8>
    8000408c:	00b51513          	slli	a0,a0,0xb
    80004090:	13c50513          	addi	a0,a0,316
    80004094:	00a51513          	slli	a0,a0,0xa
    80004098:	33350513          	addi	a0,a0,819
    8000409c:	02c54593          	xori	a1,a0,44
    800040a0:	0eb23c23          	sd	a1,248(tp) # f8 <pos+0xb8>
    800040a4:	000b5337          	lui	t1,0xb5
    800040a8:	04f3031b          	addiw	t1,t1,79 # b504f <offset+0xb4d6f>
    800040ac:	00c31313          	slli	t1,t1,0xc
    800040b0:	31f30313          	addi	t1,t1,799
    800040b4:	00b30463          	beq	t1,a1,800040bc <inst_308>
    800040b8:	f6dfb06f          	j	80000024 <rvtest_error>

00000000800040bc <inst_308>:
    800040bc:	00000537          	lui	a0,0x0
    800040c0:	00050513          	mv	a0,a0
    800040c4:	00b51513          	slli	a0,a0,0xb
    800040c8:	5a850513          	addi	a0,a0,1448 # 5a8 <offset+0x2c8>
    800040cc:	00b51513          	slli	a0,a0,0xb
    800040d0:	13c50513          	addi	a0,a0,316
    800040d4:	00a51513          	slli	a0,a0,0xa
    800040d8:	33350513          	addi	a0,a0,819
    800040dc:	55654593          	xori	a1,a0,1366
    800040e0:	10b23023          	sd	a1,256(tp) # 100 <pos+0xc0>
    800040e4:	000b5337          	lui	t1,0xb5
    800040e8:	04f3031b          	addiw	t1,t1,79 # b504f <offset+0xb4d6f>
    800040ec:	00c31313          	slli	t1,t1,0xc
    800040f0:	66530313          	addi	t1,t1,1637
    800040f4:	00b30463          	beq	t1,a1,800040fc <inst_309>
    800040f8:	f2dfb06f          	j	80000024 <rvtest_error>

00000000800040fc <inst_309>:
    800040fc:	00000537          	lui	a0,0x0
    80004100:	00050513          	mv	a0,a0
    80004104:	00b51513          	slli	a0,a0,0xb
    80004108:	5a850513          	addi	a0,a0,1448 # 5a8 <offset+0x2c8>
    8000410c:	00b51513          	slli	a0,a0,0xb
    80004110:	13c50513          	addi	a0,a0,316
    80004114:	00a51513          	slli	a0,a0,0xa
    80004118:	33350513          	addi	a0,a0,819
    8000411c:	aab54593          	xori	a1,a0,-1365
    80004120:	10b23423          	sd	a1,264(tp) # 108 <pos+0xc8>
    80004124:	fff4b337          	lui	t1,0xfff4b
    80004128:	fb13031b          	addiw	t1,t1,-79 # fffffffffff4afb1 <absimm+0xffffffff4523d4e1>
    8000412c:	00c31313          	slli	t1,t1,0xc
    80004130:	99830313          	addi	t1,t1,-1640
    80004134:	00b30463          	beq	t1,a1,8000413c <inst_310>
    80004138:	eedfb06f          	j	80000024 <rvtest_error>

000000008000413c <inst_310>:
    8000413c:	00000537          	lui	a0,0x0
    80004140:	00050513          	mv	a0,a0
    80004144:	00b51513          	slli	a0,a0,0xb
    80004148:	5a850513          	addi	a0,a0,1448 # 5a8 <offset+0x2c8>
    8000414c:	00b51513          	slli	a0,a0,0xb
    80004150:	13c50513          	addi	a0,a0,316
    80004154:	00a51513          	slli	a0,a0,0xa
    80004158:	33350513          	addi	a0,a0,819
    8000415c:	00654593          	xori	a1,a0,6
    80004160:	10b23823          	sd	a1,272(tp) # 110 <pos+0xd0>
    80004164:	000b5337          	lui	t1,0xb5
    80004168:	04f3031b          	addiw	t1,t1,79 # b504f <offset+0xb4d6f>
    8000416c:	00c31313          	slli	t1,t1,0xc
    80004170:	33530313          	addi	t1,t1,821
    80004174:	00b30463          	beq	t1,a1,8000417c <inst_311>
    80004178:	eadfb06f          	j	80000024 <rvtest_error>

000000008000417c <inst_311>:
    8000417c:	00000537          	lui	a0,0x0
    80004180:	00050513          	mv	a0,a0
    80004184:	00b51513          	slli	a0,a0,0xb
    80004188:	5a850513          	addi	a0,a0,1448 # 5a8 <offset+0x2c8>
    8000418c:	00b51513          	slli	a0,a0,0xb
    80004190:	13c50513          	addi	a0,a0,316
    80004194:	00a51513          	slli	a0,a0,0xa
    80004198:	33350513          	addi	a0,a0,819
    8000419c:	33454593          	xori	a1,a0,820
    800041a0:	10b23c23          	sd	a1,280(tp) # 118 <pos+0xd8>
    800041a4:	000b5337          	lui	t1,0xb5
    800041a8:	04f3031b          	addiw	t1,t1,79 # b504f <offset+0xb4d6f>
    800041ac:	00c31313          	slli	t1,t1,0xc
    800041b0:	00730313          	addi	t1,t1,7
    800041b4:	00b30463          	beq	t1,a1,800041bc <inst_312>
    800041b8:	e6dfb06f          	j	80000024 <rvtest_error>

00000000800041bc <inst_312>:
    800041bc:	00000537          	lui	a0,0x0
    800041c0:	00050513          	mv	a0,a0
    800041c4:	00b51513          	slli	a0,a0,0xb
    800041c8:	5a850513          	addi	a0,a0,1448 # 5a8 <offset+0x2c8>
    800041cc:	00b51513          	slli	a0,a0,0xb
    800041d0:	13c50513          	addi	a0,a0,316
    800041d4:	00a51513          	slli	a0,a0,0xa
    800041d8:	33350513          	addi	a0,a0,819
    800041dc:	66754593          	xori	a1,a0,1639
    800041e0:	12b23023          	sd	a1,288(tp) # 120 <pos+0xe0>
    800041e4:	000b5337          	lui	t1,0xb5
    800041e8:	04f3031b          	addiw	t1,t1,79 # b504f <offset+0xb4d6f>
    800041ec:	00c31313          	slli	t1,t1,0xc
    800041f0:	55430313          	addi	t1,t1,1364
    800041f4:	00b30463          	beq	t1,a1,800041fc <inst_313>
    800041f8:	e2dfb06f          	j	80000024 <rvtest_error>

00000000800041fc <inst_313>:
    800041fc:	00000537          	lui	a0,0x0
    80004200:	00050513          	mv	a0,a0
    80004204:	00b51513          	slli	a0,a0,0xb
    80004208:	5a850513          	addi	a0,a0,1448 # 5a8 <offset+0x2c8>
    8000420c:	00b51513          	slli	a0,a0,0xb
    80004210:	13c50513          	addi	a0,a0,316
    80004214:	00a51513          	slli	a0,a0,0xa
    80004218:	33350513          	addi	a0,a0,819
    8000421c:	fd454593          	xori	a1,a0,-44
    80004220:	12b23423          	sd	a1,296(tp) # 128 <pos+0xe8>
    80004224:	fff4b337          	lui	t1,0xfff4b
    80004228:	fb13031b          	addiw	t1,t1,-79 # fffffffffff4afb1 <absimm+0xffffffff4523d4e1>
    8000422c:	00c31313          	slli	t1,t1,0xc
    80004230:	ce730313          	addi	t1,t1,-793
    80004234:	00b30463          	beq	t1,a1,8000423c <inst_314>
    80004238:	dedfb06f          	j	80000024 <rvtest_error>

000000008000423c <inst_314>:
    8000423c:	00000537          	lui	a0,0x0
    80004240:	00050513          	mv	a0,a0
    80004244:	00b51513          	slli	a0,a0,0xb
    80004248:	5a850513          	addi	a0,a0,1448 # 5a8 <offset+0x2c8>
    8000424c:	00b51513          	slli	a0,a0,0xb
    80004250:	13c50513          	addi	a0,a0,316
    80004254:	00a51513          	slli	a0,a0,0xa
    80004258:	33350513          	addi	a0,a0,819
    8000425c:	02e54593          	xori	a1,a0,46
    80004260:	12b23823          	sd	a1,304(tp) # 130 <pos+0xf0>
    80004264:	000b5337          	lui	t1,0xb5
    80004268:	04f3031b          	addiw	t1,t1,79 # b504f <offset+0xb4d6f>
    8000426c:	00c31313          	slli	t1,t1,0xc
    80004270:	31d30313          	addi	t1,t1,797
    80004274:	00b30463          	beq	t1,a1,8000427c <inst_315>
    80004278:	dadfb06f          	j	80000024 <rvtest_error>

000000008000427c <inst_315>:
    8000427c:	00200513          	li	a0,2
    80004280:	00354593          	xori	a1,a0,3
    80004284:	12b23c23          	sd	a1,312(tp) # 138 <pos+0xf8>
    80004288:	00100313          	li	t1,1
    8000428c:	00b30463          	beq	t1,a1,80004294 <inst_316>
    80004290:	d95fb06f          	j	80000024 <rvtest_error>

0000000080004294 <inst_316>:
    80004294:	00200513          	li	a0,2
    80004298:	55554593          	xori	a1,a0,1365
    8000429c:	14b23023          	sd	a1,320(tp) # 140 <pos+0x100>
    800042a0:	55700313          	li	t1,1367
    800042a4:	00b30463          	beq	t1,a1,800042ac <inst_317>
    800042a8:	d7dfb06f          	j	80000024 <rvtest_error>

00000000800042ac <inst_317>:
    800042ac:	00200513          	li	a0,2
    800042b0:	aaa54593          	xori	a1,a0,-1366
    800042b4:	14b23423          	sd	a1,328(tp) # 148 <pos+0x108>
    800042b8:	aa800313          	li	t1,-1368
    800042bc:	00b30463          	beq	t1,a1,800042c4 <inst_318>
    800042c0:	d65fb06f          	j	80000024 <rvtest_error>

00000000800042c4 <inst_318>:
    800042c4:	00200513          	li	a0,2
    800042c8:	00554593          	xori	a1,a0,5
    800042cc:	14b23823          	sd	a1,336(tp) # 150 <pos+0x110>
    800042d0:	00700313          	li	t1,7
    800042d4:	00b30463          	beq	t1,a1,800042dc <inst_319>
    800042d8:	d4dfb06f          	j	80000024 <rvtest_error>

00000000800042dc <inst_319>:
    800042dc:	00200513          	li	a0,2
    800042e0:	33354593          	xori	a1,a0,819
    800042e4:	14b23c23          	sd	a1,344(tp) # 158 <pos+0x118>
    800042e8:	33100313          	li	t1,817
    800042ec:	00b30463          	beq	t1,a1,800042f4 <inst_320>
    800042f0:	d35fb06f          	j	80000024 <rvtest_error>

00000000800042f4 <inst_320>:
    800042f4:	00200513          	li	a0,2
    800042f8:	66654593          	xori	a1,a0,1638
    800042fc:	16b23023          	sd	a1,352(tp) # 160 <pos+0x120>
    80004300:	66400313          	li	t1,1636
    80004304:	00b30463          	beq	t1,a1,8000430c <inst_321>
    80004308:	d1dfb06f          	j	80000024 <rvtest_error>

000000008000430c <inst_321>:
    8000430c:	00200513          	li	a0,2
    80004310:	fd354593          	xori	a1,a0,-45
    80004314:	16b23423          	sd	a1,360(tp) # 168 <pos+0x128>
    80004318:	fd100313          	li	t1,-47
    8000431c:	00b30463          	beq	t1,a1,80004324 <inst_322>
    80004320:	d05fb06f          	j	80000024 <rvtest_error>

0000000080004324 <inst_322>:
    80004324:	00200513          	li	a0,2
    80004328:	02d54593          	xori	a1,a0,45
    8000432c:	16b23823          	sd	a1,368(tp) # 170 <pos+0x130>
    80004330:	02f00313          	li	t1,47
    80004334:	00b30463          	beq	t1,a1,8000433c <inst_323>
    80004338:	cedfb06f          	j	80000024 <rvtest_error>

000000008000433c <inst_323>:
    8000433c:	00200513          	li	a0,2
    80004340:	00254593          	xori	a1,a0,2
    80004344:	16b23c23          	sd	a1,376(tp) # 178 <pos+0x138>
    80004348:	00000313          	li	t1,0
    8000434c:	00b30463          	beq	t1,a1,80004354 <inst_324>
    80004350:	cd5fb06f          	j	80000024 <rvtest_error>

0000000080004354 <inst_324>:
    80004354:	00200513          	li	a0,2
    80004358:	55454593          	xori	a1,a0,1364
    8000435c:	18b23023          	sd	a1,384(tp) # 180 <pos+0x140>
    80004360:	55600313          	li	t1,1366
    80004364:	00b30463          	beq	t1,a1,8000436c <inst_325>
    80004368:	cbdfb06f          	j	80000024 <rvtest_error>

000000008000436c <inst_325>:
    8000436c:	00200513          	li	a0,2
    80004370:	00054593          	xori	a1,a0,0
    80004374:	18b23423          	sd	a1,392(tp) # 188 <pos+0x148>
    80004378:	00200313          	li	t1,2
    8000437c:	00b30463          	beq	t1,a1,80004384 <inst_326>
    80004380:	ca5fb06f          	j	80000024 <rvtest_error>

0000000080004384 <inst_326>:
    80004384:	00200513          	li	a0,2
    80004388:	00454593          	xori	a1,a0,4
    8000438c:	18b23823          	sd	a1,400(tp) # 190 <pos+0x150>
    80004390:	00600313          	li	t1,6
    80004394:	00b30463          	beq	t1,a1,8000439c <inst_327>
    80004398:	c8dfb06f          	j	80000024 <rvtest_error>

000000008000439c <inst_327>:
    8000439c:	00200513          	li	a0,2
    800043a0:	33254593          	xori	a1,a0,818
    800043a4:	18b23c23          	sd	a1,408(tp) # 198 <pos+0x158>
    800043a8:	33000313          	li	t1,816
    800043ac:	00b30463          	beq	t1,a1,800043b4 <inst_328>
    800043b0:	c75fb06f          	j	80000024 <rvtest_error>

00000000800043b4 <inst_328>:
    800043b4:	00200513          	li	a0,2
    800043b8:	66554593          	xori	a1,a0,1637
    800043bc:	1ab23023          	sd	a1,416(tp) # 1a0 <pos+0x160>
    800043c0:	66700313          	li	t1,1639
    800043c4:	00b30463          	beq	t1,a1,800043cc <inst_329>
    800043c8:	c5dfb06f          	j	80000024 <rvtest_error>

00000000800043cc <inst_329>:
    800043cc:	00200513          	li	a0,2
    800043d0:	02c54593          	xori	a1,a0,44
    800043d4:	1ab23423          	sd	a1,424(tp) # 1a8 <pos+0x168>
    800043d8:	02e00313          	li	t1,46
    800043dc:	00b30463          	beq	t1,a1,800043e4 <inst_330>
    800043e0:	c45fb06f          	j	80000024 <rvtest_error>

00000000800043e4 <inst_330>:
    800043e4:	00200513          	li	a0,2
    800043e8:	55654593          	xori	a1,a0,1366
    800043ec:	1ab23823          	sd	a1,432(tp) # 1b0 <pos+0x170>
    800043f0:	55400313          	li	t1,1364
    800043f4:	00b30463          	beq	t1,a1,800043fc <inst_331>
    800043f8:	c2dfb06f          	j	80000024 <rvtest_error>

00000000800043fc <inst_331>:
    800043fc:	00200513          	li	a0,2
    80004400:	aab54593          	xori	a1,a0,-1365
    80004404:	1ab23c23          	sd	a1,440(tp) # 1b8 <pos+0x178>
    80004408:	aa900313          	li	t1,-1367
    8000440c:	00b30463          	beq	t1,a1,80004414 <inst_332>
    80004410:	c15fb06f          	j	80000024 <rvtest_error>

0000000080004414 <inst_332>:
    80004414:	00200513          	li	a0,2
    80004418:	00654593          	xori	a1,a0,6
    8000441c:	1cb23023          	sd	a1,448(tp) # 1c0 <pos+0x180>
    80004420:	00400313          	li	t1,4
    80004424:	00b30463          	beq	t1,a1,8000442c <inst_333>
    80004428:	bfdfb06f          	j	80000024 <rvtest_error>

000000008000442c <inst_333>:
    8000442c:	00200513          	li	a0,2
    80004430:	33454593          	xori	a1,a0,820
    80004434:	1cb23423          	sd	a1,456(tp) # 1c8 <pos+0x188>
    80004438:	33600313          	li	t1,822
    8000443c:	00b30463          	beq	t1,a1,80004444 <inst_334>
    80004440:	be5fb06f          	j	80000024 <rvtest_error>

0000000080004444 <inst_334>:
    80004444:	00200513          	li	a0,2
    80004448:	66754593          	xori	a1,a0,1639
    8000444c:	1cb23823          	sd	a1,464(tp) # 1d0 <pos+0x190>
    80004450:	66500313          	li	t1,1637
    80004454:	00b30463          	beq	t1,a1,8000445c <inst_335>
    80004458:	bcdfb06f          	j	80000024 <rvtest_error>

000000008000445c <inst_335>:
    8000445c:	00200513          	li	a0,2
    80004460:	fd454593          	xori	a1,a0,-44
    80004464:	1cb23c23          	sd	a1,472(tp) # 1d8 <pos+0x198>
    80004468:	fd600313          	li	t1,-42
    8000446c:	00b30463          	beq	t1,a1,80004474 <inst_336>
    80004470:	bb5fb06f          	j	80000024 <rvtest_error>

0000000080004474 <inst_336>:
    80004474:	00200513          	li	a0,2
    80004478:	02e54593          	xori	a1,a0,46
    8000447c:	1eb23023          	sd	a1,480(tp) # 1e0 <pos+0x1a0>
    80004480:	02c00313          	li	t1,44
    80004484:	00b30463          	beq	t1,a1,8000448c <inst_337>
    80004488:	b9dfb06f          	j	80000024 <rvtest_error>

000000008000448c <inst_337>:
    8000448c:	55555537          	lui	a0,0x55555
    80004490:	55550513          	addi	a0,a0,1365 # 55555555 <absimmsh+0x49a847a8>
    80004494:	00b51513          	slli	a0,a0,0xb
    80004498:	2aa50513          	addi	a0,a0,682
    8000449c:	00b51513          	slli	a0,a0,0xb
    800044a0:	55550513          	addi	a0,a0,1365
    800044a4:	00a51513          	slli	a0,a0,0xa
    800044a8:	15450513          	addi	a0,a0,340
    800044ac:	00354593          	xori	a1,a0,3
    800044b0:	1eb23423          	sd	a1,488(tp) # 1e8 <pos+0x1a8>
    800044b4:	05555337          	lui	t1,0x5555
    800044b8:	5553031b          	addiw	t1,t1,1365 # 5555555 <offset+0x5555275>
    800044bc:	00c31313          	slli	t1,t1,0xc
    800044c0:	55530313          	addi	t1,t1,1365
    800044c4:	00c31313          	slli	t1,t1,0xc
    800044c8:	55530313          	addi	t1,t1,1365
    800044cc:	00c31313          	slli	t1,t1,0xc
    800044d0:	55730313          	addi	t1,t1,1367
    800044d4:	00b30463          	beq	t1,a1,800044dc <inst_338>
    800044d8:	b4dfb06f          	j	80000024 <rvtest_error>

00000000800044dc <inst_338>:
    800044dc:	55555537          	lui	a0,0x55555
    800044e0:	55550513          	addi	a0,a0,1365 # 55555555 <absimmsh+0x49a847a8>
    800044e4:	00b51513          	slli	a0,a0,0xb
    800044e8:	2aa50513          	addi	a0,a0,682
    800044ec:	00b51513          	slli	a0,a0,0xb
    800044f0:	55550513          	addi	a0,a0,1365
    800044f4:	00a51513          	slli	a0,a0,0xa
    800044f8:	15450513          	addi	a0,a0,340
    800044fc:	55554593          	xori	a1,a0,1365
    80004500:	1eb23823          	sd	a1,496(tp) # 1f0 <pos+0x1b0>
    80004504:	05555337          	lui	t1,0x5555
    80004508:	5553031b          	addiw	t1,t1,1365 # 5555555 <offset+0x5555275>
    8000450c:	00c31313          	slli	t1,t1,0xc
    80004510:	55530313          	addi	t1,t1,1365
    80004514:	00c31313          	slli	t1,t1,0xc
    80004518:	55530313          	addi	t1,t1,1365
    8000451c:	00c31313          	slli	t1,t1,0xc
    80004520:	00130313          	addi	t1,t1,1
    80004524:	00b30463          	beq	t1,a1,8000452c <inst_339>
    80004528:	afdfb06f          	j	80000024 <rvtest_error>

000000008000452c <inst_339>:
    8000452c:	55555537          	lui	a0,0x55555
    80004530:	55550513          	addi	a0,a0,1365 # 55555555 <absimmsh+0x49a847a8>
    80004534:	00b51513          	slli	a0,a0,0xb
    80004538:	2aa50513          	addi	a0,a0,682
    8000453c:	00b51513          	slli	a0,a0,0xb
    80004540:	55550513          	addi	a0,a0,1365
    80004544:	00a51513          	slli	a0,a0,0xa
    80004548:	15450513          	addi	a0,a0,340
    8000454c:	aaa54593          	xori	a1,a0,-1366
    80004550:	1eb23c23          	sd	a1,504(tp) # 1f8 <pos+0x1b8>
    80004554:	faaab337          	lui	t1,0xfaaab
    80004558:	aab3031b          	addiw	t1,t1,-1365 # fffffffffaaaaaab <absimm+0xffffffff3fd9cfdb>
    8000455c:	00c31313          	slli	t1,t1,0xc
    80004560:	aab30313          	addi	t1,t1,-1365
    80004564:	00c31313          	slli	t1,t1,0xc
    80004568:	aab30313          	addi	t1,t1,-1365
    8000456c:	00c31313          	slli	t1,t1,0xc
    80004570:	ffe30313          	addi	t1,t1,-2
    80004574:	00b30463          	beq	t1,a1,8000457c <inst_340>
    80004578:	aadfb06f          	j	80000024 <rvtest_error>

000000008000457c <inst_340>:
    8000457c:	55555537          	lui	a0,0x55555
    80004580:	55550513          	addi	a0,a0,1365 # 55555555 <absimmsh+0x49a847a8>
    80004584:	00b51513          	slli	a0,a0,0xb
    80004588:	2aa50513          	addi	a0,a0,682
    8000458c:	00b51513          	slli	a0,a0,0xb
    80004590:	55550513          	addi	a0,a0,1365
    80004594:	00a51513          	slli	a0,a0,0xa
    80004598:	15450513          	addi	a0,a0,340
    8000459c:	00554593          	xori	a1,a0,5
    800045a0:	20b23023          	sd	a1,512(tp) # 200 <pos+0x1c0>
    800045a4:	05555337          	lui	t1,0x5555
    800045a8:	5553031b          	addiw	t1,t1,1365 # 5555555 <offset+0x5555275>
    800045ac:	00c31313          	slli	t1,t1,0xc
    800045b0:	55530313          	addi	t1,t1,1365
    800045b4:	00c31313          	slli	t1,t1,0xc
    800045b8:	55530313          	addi	t1,t1,1365
    800045bc:	00c31313          	slli	t1,t1,0xc
    800045c0:	55130313          	addi	t1,t1,1361
    800045c4:	00b30463          	beq	t1,a1,800045cc <inst_341>
    800045c8:	a5dfb06f          	j	80000024 <rvtest_error>

00000000800045cc <inst_341>:
    800045cc:	55555537          	lui	a0,0x55555
    800045d0:	55550513          	addi	a0,a0,1365 # 55555555 <absimmsh+0x49a847a8>
    800045d4:	00b51513          	slli	a0,a0,0xb
    800045d8:	2aa50513          	addi	a0,a0,682
    800045dc:	00b51513          	slli	a0,a0,0xb
    800045e0:	55550513          	addi	a0,a0,1365
    800045e4:	00a51513          	slli	a0,a0,0xa
    800045e8:	15450513          	addi	a0,a0,340
    800045ec:	33354593          	xori	a1,a0,819
    800045f0:	20b23423          	sd	a1,520(tp) # 208 <pos+0x1c8>
    800045f4:	05555337          	lui	t1,0x5555
    800045f8:	5553031b          	addiw	t1,t1,1365 # 5555555 <offset+0x5555275>
    800045fc:	00c31313          	slli	t1,t1,0xc
    80004600:	55530313          	addi	t1,t1,1365
    80004604:	00c31313          	slli	t1,t1,0xc
    80004608:	55530313          	addi	t1,t1,1365
    8000460c:	00c31313          	slli	t1,t1,0xc
    80004610:	66730313          	addi	t1,t1,1639
    80004614:	00b30463          	beq	t1,a1,8000461c <inst_342>
    80004618:	a0dfb06f          	j	80000024 <rvtest_error>

000000008000461c <inst_342>:
    8000461c:	55555537          	lui	a0,0x55555
    80004620:	55550513          	addi	a0,a0,1365 # 55555555 <absimmsh+0x49a847a8>
    80004624:	00b51513          	slli	a0,a0,0xb
    80004628:	2aa50513          	addi	a0,a0,682
    8000462c:	00b51513          	slli	a0,a0,0xb
    80004630:	55550513          	addi	a0,a0,1365
    80004634:	00a51513          	slli	a0,a0,0xa
    80004638:	15450513          	addi	a0,a0,340
    8000463c:	66654593          	xori	a1,a0,1638
    80004640:	20b23823          	sd	a1,528(tp) # 210 <pos+0x1d0>
    80004644:	05555337          	lui	t1,0x5555
    80004648:	5553031b          	addiw	t1,t1,1365 # 5555555 <offset+0x5555275>
    8000464c:	00c31313          	slli	t1,t1,0xc
    80004650:	55530313          	addi	t1,t1,1365
    80004654:	00c31313          	slli	t1,t1,0xc
    80004658:	55530313          	addi	t1,t1,1365
    8000465c:	00c31313          	slli	t1,t1,0xc
    80004660:	33230313          	addi	t1,t1,818
    80004664:	00b30463          	beq	t1,a1,8000466c <inst_343>
    80004668:	9bdfb06f          	j	80000024 <rvtest_error>

000000008000466c <inst_343>:
    8000466c:	55555537          	lui	a0,0x55555
    80004670:	55550513          	addi	a0,a0,1365 # 55555555 <absimmsh+0x49a847a8>
    80004674:	00b51513          	slli	a0,a0,0xb
    80004678:	2aa50513          	addi	a0,a0,682
    8000467c:	00b51513          	slli	a0,a0,0xb
    80004680:	55550513          	addi	a0,a0,1365
    80004684:	00a51513          	slli	a0,a0,0xa
    80004688:	15450513          	addi	a0,a0,340
    8000468c:	fd354593          	xori	a1,a0,-45
    80004690:	20b23c23          	sd	a1,536(tp) # 218 <pos+0x1d8>
    80004694:	faaab337          	lui	t1,0xfaaab
    80004698:	aab3031b          	addiw	t1,t1,-1365 # fffffffffaaaaaab <absimm+0xffffffff3fd9cfdb>
    8000469c:	00c31313          	slli	t1,t1,0xc
    800046a0:	aab30313          	addi	t1,t1,-1365
    800046a4:	00c31313          	slli	t1,t1,0xc
    800046a8:	aab30313          	addi	t1,t1,-1365
    800046ac:	00c31313          	slli	t1,t1,0xc
    800046b0:	a8730313          	addi	t1,t1,-1401
    800046b4:	00b30463          	beq	t1,a1,800046bc <inst_344>
    800046b8:	96dfb06f          	j	80000024 <rvtest_error>

00000000800046bc <inst_344>:
    800046bc:	55555537          	lui	a0,0x55555
    800046c0:	55550513          	addi	a0,a0,1365 # 55555555 <absimmsh+0x49a847a8>
    800046c4:	00b51513          	slli	a0,a0,0xb
    800046c8:	2aa50513          	addi	a0,a0,682
    800046cc:	00b51513          	slli	a0,a0,0xb
    800046d0:	55550513          	addi	a0,a0,1365
    800046d4:	00a51513          	slli	a0,a0,0xa
    800046d8:	15450513          	addi	a0,a0,340
    800046dc:	02d54593          	xori	a1,a0,45
    800046e0:	22b23023          	sd	a1,544(tp) # 220 <pos+0x1e0>
    800046e4:	05555337          	lui	t1,0x5555
    800046e8:	5553031b          	addiw	t1,t1,1365 # 5555555 <offset+0x5555275>
    800046ec:	00c31313          	slli	t1,t1,0xc
    800046f0:	55530313          	addi	t1,t1,1365
    800046f4:	00c31313          	slli	t1,t1,0xc
    800046f8:	55530313          	addi	t1,t1,1365
    800046fc:	00c31313          	slli	t1,t1,0xc
    80004700:	57930313          	addi	t1,t1,1401
    80004704:	00b30463          	beq	t1,a1,8000470c <inst_345>
    80004708:	91dfb06f          	j	80000024 <rvtest_error>

000000008000470c <inst_345>:
    8000470c:	55555537          	lui	a0,0x55555
    80004710:	55550513          	addi	a0,a0,1365 # 55555555 <absimmsh+0x49a847a8>
    80004714:	00b51513          	slli	a0,a0,0xb
    80004718:	2aa50513          	addi	a0,a0,682
    8000471c:	00b51513          	slli	a0,a0,0xb
    80004720:	55550513          	addi	a0,a0,1365
    80004724:	00a51513          	slli	a0,a0,0xa
    80004728:	15450513          	addi	a0,a0,340
    8000472c:	00254593          	xori	a1,a0,2
    80004730:	22b23423          	sd	a1,552(tp) # 228 <pos+0x1e8>
    80004734:	05555337          	lui	t1,0x5555
    80004738:	5553031b          	addiw	t1,t1,1365 # 5555555 <offset+0x5555275>
    8000473c:	00c31313          	slli	t1,t1,0xc
    80004740:	55530313          	addi	t1,t1,1365
    80004744:	00c31313          	slli	t1,t1,0xc
    80004748:	55530313          	addi	t1,t1,1365
    8000474c:	00c31313          	slli	t1,t1,0xc
    80004750:	55630313          	addi	t1,t1,1366
    80004754:	00b30463          	beq	t1,a1,8000475c <inst_346>
    80004758:	8cdfb06f          	j	80000024 <rvtest_error>

000000008000475c <inst_346>:
    8000475c:	55555537          	lui	a0,0x55555
    80004760:	55550513          	addi	a0,a0,1365 # 55555555 <absimmsh+0x49a847a8>
    80004764:	00b51513          	slli	a0,a0,0xb
    80004768:	2aa50513          	addi	a0,a0,682
    8000476c:	00b51513          	slli	a0,a0,0xb
    80004770:	55550513          	addi	a0,a0,1365
    80004774:	00a51513          	slli	a0,a0,0xa
    80004778:	15450513          	addi	a0,a0,340
    8000477c:	55454593          	xori	a1,a0,1364
    80004780:	22b23823          	sd	a1,560(tp) # 230 <pos+0x1f0>
    80004784:	05555337          	lui	t1,0x5555
    80004788:	5553031b          	addiw	t1,t1,1365 # 5555555 <offset+0x5555275>
    8000478c:	00c31313          	slli	t1,t1,0xc
    80004790:	55530313          	addi	t1,t1,1365
    80004794:	00c31313          	slli	t1,t1,0xc
    80004798:	55530313          	addi	t1,t1,1365
    8000479c:	00c31313          	slli	t1,t1,0xc
    800047a0:	00b30463          	beq	t1,a1,800047a8 <inst_347>
    800047a4:	881fb06f          	j	80000024 <rvtest_error>

00000000800047a8 <inst_347>:
    800047a8:	55555537          	lui	a0,0x55555
    800047ac:	55550513          	addi	a0,a0,1365 # 55555555 <absimmsh+0x49a847a8>
    800047b0:	00b51513          	slli	a0,a0,0xb
    800047b4:	2aa50513          	addi	a0,a0,682
    800047b8:	00b51513          	slli	a0,a0,0xb
    800047bc:	55550513          	addi	a0,a0,1365
    800047c0:	00a51513          	slli	a0,a0,0xa
    800047c4:	15450513          	addi	a0,a0,340
    800047c8:	00054593          	xori	a1,a0,0
    800047cc:	22b23c23          	sd	a1,568(tp) # 238 <pos+0x1f8>
    800047d0:	05555337          	lui	t1,0x5555
    800047d4:	5553031b          	addiw	t1,t1,1365 # 5555555 <offset+0x5555275>
    800047d8:	00c31313          	slli	t1,t1,0xc
    800047dc:	55530313          	addi	t1,t1,1365
    800047e0:	00c31313          	slli	t1,t1,0xc
    800047e4:	55530313          	addi	t1,t1,1365
    800047e8:	00c31313          	slli	t1,t1,0xc
    800047ec:	55430313          	addi	t1,t1,1364
    800047f0:	00b30463          	beq	t1,a1,800047f8 <inst_348>
    800047f4:	831fb06f          	j	80000024 <rvtest_error>

00000000800047f8 <inst_348>:
    800047f8:	55555537          	lui	a0,0x55555
    800047fc:	55550513          	addi	a0,a0,1365 # 55555555 <absimmsh+0x49a847a8>
    80004800:	00b51513          	slli	a0,a0,0xb
    80004804:	2aa50513          	addi	a0,a0,682
    80004808:	00b51513          	slli	a0,a0,0xb
    8000480c:	55550513          	addi	a0,a0,1365
    80004810:	00a51513          	slli	a0,a0,0xa
    80004814:	15450513          	addi	a0,a0,340
    80004818:	00454593          	xori	a1,a0,4
    8000481c:	24b23023          	sd	a1,576(tp) # 240 <pos+0x200>
    80004820:	05555337          	lui	t1,0x5555
    80004824:	5553031b          	addiw	t1,t1,1365 # 5555555 <offset+0x5555275>
    80004828:	00c31313          	slli	t1,t1,0xc
    8000482c:	55530313          	addi	t1,t1,1365
    80004830:	00c31313          	slli	t1,t1,0xc
    80004834:	55530313          	addi	t1,t1,1365
    80004838:	00c31313          	slli	t1,t1,0xc
    8000483c:	55030313          	addi	t1,t1,1360
    80004840:	00b30463          	beq	t1,a1,80004848 <inst_349>
    80004844:	fe0fb06f          	j	80000024 <rvtest_error>

0000000080004848 <inst_349>:
    80004848:	55555537          	lui	a0,0x55555
    8000484c:	55550513          	addi	a0,a0,1365 # 55555555 <absimmsh+0x49a847a8>
    80004850:	00b51513          	slli	a0,a0,0xb
    80004854:	2aa50513          	addi	a0,a0,682
    80004858:	00b51513          	slli	a0,a0,0xb
    8000485c:	55550513          	addi	a0,a0,1365
    80004860:	00a51513          	slli	a0,a0,0xa
    80004864:	15450513          	addi	a0,a0,340
    80004868:	33254593          	xori	a1,a0,818
    8000486c:	24b23423          	sd	a1,584(tp) # 248 <pos+0x208>
    80004870:	05555337          	lui	t1,0x5555
    80004874:	5553031b          	addiw	t1,t1,1365 # 5555555 <offset+0x5555275>
    80004878:	00c31313          	slli	t1,t1,0xc
    8000487c:	55530313          	addi	t1,t1,1365
    80004880:	00c31313          	slli	t1,t1,0xc
    80004884:	55530313          	addi	t1,t1,1365
    80004888:	00c31313          	slli	t1,t1,0xc
    8000488c:	66630313          	addi	t1,t1,1638
    80004890:	00b30463          	beq	t1,a1,80004898 <inst_350>
    80004894:	f90fb06f          	j	80000024 <rvtest_error>

0000000080004898 <inst_350>:
    80004898:	55555537          	lui	a0,0x55555
    8000489c:	55550513          	addi	a0,a0,1365 # 55555555 <absimmsh+0x49a847a8>
    800048a0:	00b51513          	slli	a0,a0,0xb
    800048a4:	2aa50513          	addi	a0,a0,682
    800048a8:	00b51513          	slli	a0,a0,0xb
    800048ac:	55550513          	addi	a0,a0,1365
    800048b0:	00a51513          	slli	a0,a0,0xa
    800048b4:	15450513          	addi	a0,a0,340
    800048b8:	66554593          	xori	a1,a0,1637
    800048bc:	24b23823          	sd	a1,592(tp) # 250 <pos+0x210>
    800048c0:	05555337          	lui	t1,0x5555
    800048c4:	5553031b          	addiw	t1,t1,1365 # 5555555 <offset+0x5555275>
    800048c8:	00c31313          	slli	t1,t1,0xc
    800048cc:	55530313          	addi	t1,t1,1365
    800048d0:	00c31313          	slli	t1,t1,0xc
    800048d4:	55530313          	addi	t1,t1,1365
    800048d8:	00c31313          	slli	t1,t1,0xc
    800048dc:	33130313          	addi	t1,t1,817
    800048e0:	00b30463          	beq	t1,a1,800048e8 <inst_351>
    800048e4:	f40fb06f          	j	80000024 <rvtest_error>

00000000800048e8 <inst_351>:
    800048e8:	55555537          	lui	a0,0x55555
    800048ec:	55550513          	addi	a0,a0,1365 # 55555555 <absimmsh+0x49a847a8>
    800048f0:	00b51513          	slli	a0,a0,0xb
    800048f4:	2aa50513          	addi	a0,a0,682
    800048f8:	00b51513          	slli	a0,a0,0xb
    800048fc:	55550513          	addi	a0,a0,1365
    80004900:	00a51513          	slli	a0,a0,0xa
    80004904:	15450513          	addi	a0,a0,340
    80004908:	02c54593          	xori	a1,a0,44
    8000490c:	24b23c23          	sd	a1,600(tp) # 258 <pos+0x218>
    80004910:	05555337          	lui	t1,0x5555
    80004914:	5553031b          	addiw	t1,t1,1365 # 5555555 <offset+0x5555275>
    80004918:	00c31313          	slli	t1,t1,0xc
    8000491c:	55530313          	addi	t1,t1,1365
    80004920:	00c31313          	slli	t1,t1,0xc
    80004924:	55530313          	addi	t1,t1,1365
    80004928:	00c31313          	slli	t1,t1,0xc
    8000492c:	57830313          	addi	t1,t1,1400
    80004930:	00b30463          	beq	t1,a1,80004938 <inst_352>
    80004934:	ef0fb06f          	j	80000024 <rvtest_error>

0000000080004938 <inst_352>:
    80004938:	55555537          	lui	a0,0x55555
    8000493c:	55550513          	addi	a0,a0,1365 # 55555555 <absimmsh+0x49a847a8>
    80004940:	00b51513          	slli	a0,a0,0xb
    80004944:	2aa50513          	addi	a0,a0,682
    80004948:	00b51513          	slli	a0,a0,0xb
    8000494c:	55550513          	addi	a0,a0,1365
    80004950:	00a51513          	slli	a0,a0,0xa
    80004954:	15450513          	addi	a0,a0,340
    80004958:	55654593          	xori	a1,a0,1366
    8000495c:	26b23023          	sd	a1,608(tp) # 260 <pos+0x220>
    80004960:	05555337          	lui	t1,0x5555
    80004964:	5553031b          	addiw	t1,t1,1365 # 5555555 <offset+0x5555275>
    80004968:	00c31313          	slli	t1,t1,0xc
    8000496c:	55530313          	addi	t1,t1,1365
    80004970:	00c31313          	slli	t1,t1,0xc
    80004974:	55530313          	addi	t1,t1,1365
    80004978:	00c31313          	slli	t1,t1,0xc
    8000497c:	00230313          	addi	t1,t1,2
    80004980:	00b30463          	beq	t1,a1,80004988 <inst_353>
    80004984:	ea0fb06f          	j	80000024 <rvtest_error>

0000000080004988 <inst_353>:
    80004988:	55555537          	lui	a0,0x55555
    8000498c:	55550513          	addi	a0,a0,1365 # 55555555 <absimmsh+0x49a847a8>
    80004990:	00b51513          	slli	a0,a0,0xb
    80004994:	2aa50513          	addi	a0,a0,682
    80004998:	00b51513          	slli	a0,a0,0xb
    8000499c:	55550513          	addi	a0,a0,1365
    800049a0:	00a51513          	slli	a0,a0,0xa
    800049a4:	15450513          	addi	a0,a0,340
    800049a8:	aab54593          	xori	a1,a0,-1365
    800049ac:	26b23423          	sd	a1,616(tp) # 268 <pos+0x228>
    800049b0:	faaab337          	lui	t1,0xfaaab
    800049b4:	aab3031b          	addiw	t1,t1,-1365 # fffffffffaaaaaab <absimm+0xffffffff3fd9cfdb>
    800049b8:	00c31313          	slli	t1,t1,0xc
    800049bc:	aab30313          	addi	t1,t1,-1365
    800049c0:	00c31313          	slli	t1,t1,0xc
    800049c4:	aab30313          	addi	t1,t1,-1365
    800049c8:	00c31313          	slli	t1,t1,0xc
    800049cc:	fff30313          	addi	t1,t1,-1
    800049d0:	00b30463          	beq	t1,a1,800049d8 <inst_354>
    800049d4:	e50fb06f          	j	80000024 <rvtest_error>

00000000800049d8 <inst_354>:
    800049d8:	55555537          	lui	a0,0x55555
    800049dc:	55550513          	addi	a0,a0,1365 # 55555555 <absimmsh+0x49a847a8>
    800049e0:	00b51513          	slli	a0,a0,0xb
    800049e4:	2aa50513          	addi	a0,a0,682
    800049e8:	00b51513          	slli	a0,a0,0xb
    800049ec:	55550513          	addi	a0,a0,1365
    800049f0:	00a51513          	slli	a0,a0,0xa
    800049f4:	15450513          	addi	a0,a0,340
    800049f8:	00654593          	xori	a1,a0,6
    800049fc:	26b23823          	sd	a1,624(tp) # 270 <pos+0x230>
    80004a00:	05555337          	lui	t1,0x5555
    80004a04:	5553031b          	addiw	t1,t1,1365 # 5555555 <offset+0x5555275>
    80004a08:	00c31313          	slli	t1,t1,0xc
    80004a0c:	55530313          	addi	t1,t1,1365
    80004a10:	00c31313          	slli	t1,t1,0xc
    80004a14:	55530313          	addi	t1,t1,1365
    80004a18:	00c31313          	slli	t1,t1,0xc
    80004a1c:	55230313          	addi	t1,t1,1362
    80004a20:	00b30463          	beq	t1,a1,80004a28 <inst_355>
    80004a24:	e00fb06f          	j	80000024 <rvtest_error>

0000000080004a28 <inst_355>:
    80004a28:	55555537          	lui	a0,0x55555
    80004a2c:	55550513          	addi	a0,a0,1365 # 55555555 <absimmsh+0x49a847a8>
    80004a30:	00b51513          	slli	a0,a0,0xb
    80004a34:	2aa50513          	addi	a0,a0,682
    80004a38:	00b51513          	slli	a0,a0,0xb
    80004a3c:	55550513          	addi	a0,a0,1365
    80004a40:	00a51513          	slli	a0,a0,0xa
    80004a44:	15450513          	addi	a0,a0,340
    80004a48:	33454593          	xori	a1,a0,820
    80004a4c:	26b23c23          	sd	a1,632(tp) # 278 <pos+0x238>
    80004a50:	05555337          	lui	t1,0x5555
    80004a54:	5553031b          	addiw	t1,t1,1365 # 5555555 <offset+0x5555275>
    80004a58:	00c31313          	slli	t1,t1,0xc
    80004a5c:	55530313          	addi	t1,t1,1365
    80004a60:	00c31313          	slli	t1,t1,0xc
    80004a64:	55530313          	addi	t1,t1,1365
    80004a68:	00c31313          	slli	t1,t1,0xc
    80004a6c:	66030313          	addi	t1,t1,1632
    80004a70:	00b30463          	beq	t1,a1,80004a78 <inst_356>
    80004a74:	db0fb06f          	j	80000024 <rvtest_error>

0000000080004a78 <inst_356>:
    80004a78:	55555537          	lui	a0,0x55555
    80004a7c:	55550513          	addi	a0,a0,1365 # 55555555 <absimmsh+0x49a847a8>
    80004a80:	00b51513          	slli	a0,a0,0xb
    80004a84:	2aa50513          	addi	a0,a0,682
    80004a88:	00b51513          	slli	a0,a0,0xb
    80004a8c:	55550513          	addi	a0,a0,1365
    80004a90:	00a51513          	slli	a0,a0,0xa
    80004a94:	15450513          	addi	a0,a0,340
    80004a98:	66754593          	xori	a1,a0,1639
    80004a9c:	28b23023          	sd	a1,640(tp) # 280 <pos+0x240>
    80004aa0:	05555337          	lui	t1,0x5555
    80004aa4:	5553031b          	addiw	t1,t1,1365 # 5555555 <offset+0x5555275>
    80004aa8:	00c31313          	slli	t1,t1,0xc
    80004aac:	55530313          	addi	t1,t1,1365
    80004ab0:	00c31313          	slli	t1,t1,0xc
    80004ab4:	55530313          	addi	t1,t1,1365
    80004ab8:	00c31313          	slli	t1,t1,0xc
    80004abc:	33330313          	addi	t1,t1,819
    80004ac0:	00b30463          	beq	t1,a1,80004ac8 <inst_357>
    80004ac4:	d60fb06f          	j	80000024 <rvtest_error>

0000000080004ac8 <inst_357>:
    80004ac8:	55555537          	lui	a0,0x55555
    80004acc:	55550513          	addi	a0,a0,1365 # 55555555 <absimmsh+0x49a847a8>
    80004ad0:	00b51513          	slli	a0,a0,0xb
    80004ad4:	2aa50513          	addi	a0,a0,682
    80004ad8:	00b51513          	slli	a0,a0,0xb
    80004adc:	55550513          	addi	a0,a0,1365
    80004ae0:	00a51513          	slli	a0,a0,0xa
    80004ae4:	15450513          	addi	a0,a0,340
    80004ae8:	fd454593          	xori	a1,a0,-44
    80004aec:	28b23423          	sd	a1,648(tp) # 288 <pos+0x248>
    80004af0:	faaab337          	lui	t1,0xfaaab
    80004af4:	aab3031b          	addiw	t1,t1,-1365 # fffffffffaaaaaab <absimm+0xffffffff3fd9cfdb>
    80004af8:	00c31313          	slli	t1,t1,0xc
    80004afc:	aab30313          	addi	t1,t1,-1365
    80004b00:	00c31313          	slli	t1,t1,0xc
    80004b04:	aab30313          	addi	t1,t1,-1365
    80004b08:	00c31313          	slli	t1,t1,0xc
    80004b0c:	a8030313          	addi	t1,t1,-1408
    80004b10:	00b30463          	beq	t1,a1,80004b18 <inst_358>
    80004b14:	d10fb06f          	j	80000024 <rvtest_error>

0000000080004b18 <inst_358>:
    80004b18:	55555537          	lui	a0,0x55555
    80004b1c:	55550513          	addi	a0,a0,1365 # 55555555 <absimmsh+0x49a847a8>
    80004b20:	00b51513          	slli	a0,a0,0xb
    80004b24:	2aa50513          	addi	a0,a0,682
    80004b28:	00b51513          	slli	a0,a0,0xb
    80004b2c:	55550513          	addi	a0,a0,1365
    80004b30:	00a51513          	slli	a0,a0,0xa
    80004b34:	15450513          	addi	a0,a0,340
    80004b38:	02e54593          	xori	a1,a0,46
    80004b3c:	28b23823          	sd	a1,656(tp) # 290 <pos+0x250>
    80004b40:	05555337          	lui	t1,0x5555
    80004b44:	5553031b          	addiw	t1,t1,1365 # 5555555 <offset+0x5555275>
    80004b48:	00c31313          	slli	t1,t1,0xc
    80004b4c:	55530313          	addi	t1,t1,1365
    80004b50:	00c31313          	slli	t1,t1,0xc
    80004b54:	55530313          	addi	t1,t1,1365
    80004b58:	00c31313          	slli	t1,t1,0xc
    80004b5c:	57a30313          	addi	t1,t1,1402
    80004b60:	00b30463          	beq	t1,a1,80004b68 <inst_359>
    80004b64:	cc0fb06f          	j	80000024 <rvtest_error>

0000000080004b68 <inst_359>:
    80004b68:	00000513          	li	a0,0
    80004b6c:	00354593          	xori	a1,a0,3
    80004b70:	28b23c23          	sd	a1,664(tp) # 298 <pos+0x258>
    80004b74:	00300313          	li	t1,3
    80004b78:	00b30463          	beq	t1,a1,80004b80 <inst_360>
    80004b7c:	ca8fb06f          	j	80000024 <rvtest_error>

0000000080004b80 <inst_360>:
    80004b80:	00000513          	li	a0,0
    80004b84:	55554593          	xori	a1,a0,1365
    80004b88:	2ab23023          	sd	a1,672(tp) # 2a0 <pos+0x260>
    80004b8c:	55500313          	li	t1,1365
    80004b90:	00b30463          	beq	t1,a1,80004b98 <inst_361>
    80004b94:	c90fb06f          	j	80000024 <rvtest_error>

0000000080004b98 <inst_361>:
    80004b98:	00000513          	li	a0,0
    80004b9c:	aaa54593          	xori	a1,a0,-1366
    80004ba0:	2ab23423          	sd	a1,680(tp) # 2a8 <pos+0x268>
    80004ba4:	aaa00313          	li	t1,-1366
    80004ba8:	00b30463          	beq	t1,a1,80004bb0 <inst_362>
    80004bac:	c78fb06f          	j	80000024 <rvtest_error>

0000000080004bb0 <inst_362>:
    80004bb0:	00000513          	li	a0,0
    80004bb4:	00554593          	xori	a1,a0,5
    80004bb8:	2ab23823          	sd	a1,688(tp) # 2b0 <pos+0x270>
    80004bbc:	00500313          	li	t1,5
    80004bc0:	00b30463          	beq	t1,a1,80004bc8 <inst_363>
    80004bc4:	c60fb06f          	j	80000024 <rvtest_error>

0000000080004bc8 <inst_363>:
    80004bc8:	00000513          	li	a0,0
    80004bcc:	33354593          	xori	a1,a0,819
    80004bd0:	2ab23c23          	sd	a1,696(tp) # 2b8 <pos+0x278>
    80004bd4:	33300313          	li	t1,819
    80004bd8:	00b30463          	beq	t1,a1,80004be0 <inst_364>
    80004bdc:	c48fb06f          	j	80000024 <rvtest_error>

0000000080004be0 <inst_364>:
    80004be0:	00000513          	li	a0,0
    80004be4:	66654593          	xori	a1,a0,1638
    80004be8:	2cb23023          	sd	a1,704(tp) # 2c0 <pos+0x280>
    80004bec:	66600313          	li	t1,1638
    80004bf0:	00b30463          	beq	t1,a1,80004bf8 <inst_365>
    80004bf4:	c30fb06f          	j	80000024 <rvtest_error>

0000000080004bf8 <inst_365>:
    80004bf8:	00000513          	li	a0,0
    80004bfc:	fd354593          	xori	a1,a0,-45
    80004c00:	2cb23423          	sd	a1,712(tp) # 2c8 <pos+0x288>
    80004c04:	fd300313          	li	t1,-45
    80004c08:	00b30463          	beq	t1,a1,80004c10 <inst_366>
    80004c0c:	c18fb06f          	j	80000024 <rvtest_error>

0000000080004c10 <inst_366>:
    80004c10:	00000513          	li	a0,0
    80004c14:	02d54593          	xori	a1,a0,45
    80004c18:	2cb23823          	sd	a1,720(tp) # 2d0 <pos+0x290>
    80004c1c:	02d00313          	li	t1,45
    80004c20:	00b30463          	beq	t1,a1,80004c28 <inst_367>
    80004c24:	c00fb06f          	j	80000024 <rvtest_error>

0000000080004c28 <inst_367>:
    80004c28:	55555537          	lui	a0,0x55555
    80004c2c:	55550513          	addi	a0,a0,1365 # 55555555 <absimmsh+0x49a847a8>
    80004c30:	00b51513          	slli	a0,a0,0xb
    80004c34:	2aa50513          	addi	a0,a0,682
    80004c38:	00b51513          	slli	a0,a0,0xb
    80004c3c:	55550513          	addi	a0,a0,1365
    80004c40:	00a51513          	slli	a0,a0,0xa
    80004c44:	15650513          	addi	a0,a0,342
    80004c48:	02c54593          	xori	a1,a0,44
    80004c4c:	2cb23c23          	sd	a1,728(tp) # 2d8 <pos+0x298>
    80004c50:	05555337          	lui	t1,0x5555
    80004c54:	5553031b          	addiw	t1,t1,1365 # 5555555 <offset+0x5555275>
    80004c58:	00c31313          	slli	t1,t1,0xc
    80004c5c:	55530313          	addi	t1,t1,1365
    80004c60:	00c31313          	slli	t1,t1,0xc
    80004c64:	55530313          	addi	t1,t1,1365
    80004c68:	00c31313          	slli	t1,t1,0xc
    80004c6c:	57a30313          	addi	t1,t1,1402
    80004c70:	00b30463          	beq	t1,a1,80004c78 <inst_368>
    80004c74:	bb0fb06f          	j	80000024 <rvtest_error>

0000000080004c78 <inst_368>:
    80004c78:	55555537          	lui	a0,0x55555
    80004c7c:	55550513          	addi	a0,a0,1365 # 55555555 <absimmsh+0x49a847a8>
    80004c80:	00b51513          	slli	a0,a0,0xb
    80004c84:	2aa50513          	addi	a0,a0,682
    80004c88:	00b51513          	slli	a0,a0,0xb
    80004c8c:	55550513          	addi	a0,a0,1365
    80004c90:	00a51513          	slli	a0,a0,0xa
    80004c94:	15650513          	addi	a0,a0,342
    80004c98:	55654593          	xori	a1,a0,1366
    80004c9c:	2eb23023          	sd	a1,736(tp) # 2e0 <offset>
    80004ca0:	05555337          	lui	t1,0x5555
    80004ca4:	5553031b          	addiw	t1,t1,1365 # 5555555 <offset+0x5555275>
    80004ca8:	00c31313          	slli	t1,t1,0xc
    80004cac:	55530313          	addi	t1,t1,1365
    80004cb0:	00c31313          	slli	t1,t1,0xc
    80004cb4:	55530313          	addi	t1,t1,1365
    80004cb8:	00c31313          	slli	t1,t1,0xc
    80004cbc:	00b30463          	beq	t1,a1,80004cc4 <inst_369>
    80004cc0:	b64fb06f          	j	80000024 <rvtest_error>

0000000080004cc4 <inst_369>:
    80004cc4:	55555537          	lui	a0,0x55555
    80004cc8:	55550513          	addi	a0,a0,1365 # 55555555 <absimmsh+0x49a847a8>
    80004ccc:	00b51513          	slli	a0,a0,0xb
    80004cd0:	2aa50513          	addi	a0,a0,682
    80004cd4:	00b51513          	slli	a0,a0,0xb
    80004cd8:	55550513          	addi	a0,a0,1365
    80004cdc:	00a51513          	slli	a0,a0,0xa
    80004ce0:	15650513          	addi	a0,a0,342
    80004ce4:	aab54593          	xori	a1,a0,-1365
    80004ce8:	2eb23423          	sd	a1,744(tp) # 2e8 <offset+0x8>
    80004cec:	faaab337          	lui	t1,0xfaaab
    80004cf0:	aab3031b          	addiw	t1,t1,-1365 # fffffffffaaaaaab <absimm+0xffffffff3fd9cfdb>
    80004cf4:	00c31313          	slli	t1,t1,0xc
    80004cf8:	aab30313          	addi	t1,t1,-1365
    80004cfc:	00c31313          	slli	t1,t1,0xc
    80004d00:	aab30313          	addi	t1,t1,-1365
    80004d04:	00c31313          	slli	t1,t1,0xc
    80004d08:	ffd30313          	addi	t1,t1,-3
    80004d0c:	00b30463          	beq	t1,a1,80004d14 <inst_370>
    80004d10:	b14fb06f          	j	80000024 <rvtest_error>

0000000080004d14 <inst_370>:
    80004d14:	55555537          	lui	a0,0x55555
    80004d18:	55550513          	addi	a0,a0,1365 # 55555555 <absimmsh+0x49a847a8>
    80004d1c:	00b51513          	slli	a0,a0,0xb
    80004d20:	2aa50513          	addi	a0,a0,682
    80004d24:	00b51513          	slli	a0,a0,0xb
    80004d28:	55550513          	addi	a0,a0,1365
    80004d2c:	00a51513          	slli	a0,a0,0xa
    80004d30:	15650513          	addi	a0,a0,342
    80004d34:	00654593          	xori	a1,a0,6
    80004d38:	2eb23823          	sd	a1,752(tp) # 2f0 <offset+0x10>
    80004d3c:	05555337          	lui	t1,0x5555
    80004d40:	5553031b          	addiw	t1,t1,1365 # 5555555 <offset+0x5555275>
    80004d44:	00c31313          	slli	t1,t1,0xc
    80004d48:	55530313          	addi	t1,t1,1365
    80004d4c:	00c31313          	slli	t1,t1,0xc
    80004d50:	55530313          	addi	t1,t1,1365
    80004d54:	00c31313          	slli	t1,t1,0xc
    80004d58:	55030313          	addi	t1,t1,1360
    80004d5c:	00b30463          	beq	t1,a1,80004d64 <inst_371>
    80004d60:	ac4fb06f          	j	80000024 <rvtest_error>

0000000080004d64 <inst_371>:
    80004d64:	55555537          	lui	a0,0x55555
    80004d68:	55550513          	addi	a0,a0,1365 # 55555555 <absimmsh+0x49a847a8>
    80004d6c:	00b51513          	slli	a0,a0,0xb
    80004d70:	2aa50513          	addi	a0,a0,682
    80004d74:	00b51513          	slli	a0,a0,0xb
    80004d78:	55550513          	addi	a0,a0,1365
    80004d7c:	00a51513          	slli	a0,a0,0xa
    80004d80:	15650513          	addi	a0,a0,342
    80004d84:	33454593          	xori	a1,a0,820
    80004d88:	2eb23c23          	sd	a1,760(tp) # 2f8 <offset+0x18>
    80004d8c:	05555337          	lui	t1,0x5555
    80004d90:	5553031b          	addiw	t1,t1,1365 # 5555555 <offset+0x5555275>
    80004d94:	00c31313          	slli	t1,t1,0xc
    80004d98:	55530313          	addi	t1,t1,1365
    80004d9c:	00c31313          	slli	t1,t1,0xc
    80004da0:	55530313          	addi	t1,t1,1365
    80004da4:	00c31313          	slli	t1,t1,0xc
    80004da8:	66230313          	addi	t1,t1,1634
    80004dac:	00b30463          	beq	t1,a1,80004db4 <inst_372>
    80004db0:	a74fb06f          	j	80000024 <rvtest_error>

0000000080004db4 <inst_372>:
    80004db4:	55555537          	lui	a0,0x55555
    80004db8:	55550513          	addi	a0,a0,1365 # 55555555 <absimmsh+0x49a847a8>
    80004dbc:	00b51513          	slli	a0,a0,0xb
    80004dc0:	2aa50513          	addi	a0,a0,682
    80004dc4:	00b51513          	slli	a0,a0,0xb
    80004dc8:	55550513          	addi	a0,a0,1365
    80004dcc:	00a51513          	slli	a0,a0,0xa
    80004dd0:	15650513          	addi	a0,a0,342
    80004dd4:	66754593          	xori	a1,a0,1639
    80004dd8:	30b23023          	sd	a1,768(tp) # 300 <offset+0x20>
    80004ddc:	05555337          	lui	t1,0x5555
    80004de0:	5553031b          	addiw	t1,t1,1365 # 5555555 <offset+0x5555275>
    80004de4:	00c31313          	slli	t1,t1,0xc
    80004de8:	55530313          	addi	t1,t1,1365
    80004dec:	00c31313          	slli	t1,t1,0xc
    80004df0:	55530313          	addi	t1,t1,1365
    80004df4:	00c31313          	slli	t1,t1,0xc
    80004df8:	33130313          	addi	t1,t1,817
    80004dfc:	00b30463          	beq	t1,a1,80004e04 <inst_373>
    80004e00:	a24fb06f          	j	80000024 <rvtest_error>

0000000080004e04 <inst_373>:
    80004e04:	55555537          	lui	a0,0x55555
    80004e08:	55550513          	addi	a0,a0,1365 # 55555555 <absimmsh+0x49a847a8>
    80004e0c:	00b51513          	slli	a0,a0,0xb
    80004e10:	2aa50513          	addi	a0,a0,682
    80004e14:	00b51513          	slli	a0,a0,0xb
    80004e18:	55550513          	addi	a0,a0,1365
    80004e1c:	00a51513          	slli	a0,a0,0xa
    80004e20:	15650513          	addi	a0,a0,342
    80004e24:	fd454593          	xori	a1,a0,-44
    80004e28:	30b23423          	sd	a1,776(tp) # 308 <offset+0x28>
    80004e2c:	faaab337          	lui	t1,0xfaaab
    80004e30:	aab3031b          	addiw	t1,t1,-1365 # fffffffffaaaaaab <absimm+0xffffffff3fd9cfdb>
    80004e34:	00c31313          	slli	t1,t1,0xc
    80004e38:	aab30313          	addi	t1,t1,-1365
    80004e3c:	00c31313          	slli	t1,t1,0xc
    80004e40:	aab30313          	addi	t1,t1,-1365
    80004e44:	00c31313          	slli	t1,t1,0xc
    80004e48:	a8230313          	addi	t1,t1,-1406
    80004e4c:	00b30463          	beq	t1,a1,80004e54 <inst_374>
    80004e50:	9d4fb06f          	j	80000024 <rvtest_error>

0000000080004e54 <inst_374>:
    80004e54:	55555537          	lui	a0,0x55555
    80004e58:	55550513          	addi	a0,a0,1365 # 55555555 <absimmsh+0x49a847a8>
    80004e5c:	00b51513          	slli	a0,a0,0xb
    80004e60:	2aa50513          	addi	a0,a0,682
    80004e64:	00b51513          	slli	a0,a0,0xb
    80004e68:	55550513          	addi	a0,a0,1365
    80004e6c:	00a51513          	slli	a0,a0,0xa
    80004e70:	15650513          	addi	a0,a0,342
    80004e74:	02e54593          	xori	a1,a0,46
    80004e78:	30b23823          	sd	a1,784(tp) # 310 <offset+0x30>
    80004e7c:	05555337          	lui	t1,0x5555
    80004e80:	5553031b          	addiw	t1,t1,1365 # 5555555 <offset+0x5555275>
    80004e84:	00c31313          	slli	t1,t1,0xc
    80004e88:	55530313          	addi	t1,t1,1365
    80004e8c:	00c31313          	slli	t1,t1,0xc
    80004e90:	55530313          	addi	t1,t1,1365
    80004e94:	00c31313          	slli	t1,t1,0xc
    80004e98:	57830313          	addi	t1,t1,1400
    80004e9c:	00b30463          	beq	t1,a1,80004ea4 <inst_375>
    80004ea0:	984fb06f          	j	80000024 <rvtest_error>

0000000080004ea4 <inst_375>:
    80004ea4:	aaaab537          	lui	a0,0xaaaab
    80004ea8:	aaa50513          	addi	a0,a0,-1366 # ffffffffaaaaaaaa <absimm+0xfffffffeefd9cfda>
    80004eac:	00b51513          	slli	a0,a0,0xb
    80004eb0:	55550513          	addi	a0,a0,1365
    80004eb4:	00b51513          	slli	a0,a0,0xb
    80004eb8:	2aa50513          	addi	a0,a0,682
    80004ebc:	00a51513          	slli	a0,a0,0xa
    80004ec0:	2ab50513          	addi	a0,a0,683
    80004ec4:	00354593          	xori	a1,a0,3
    80004ec8:	30b23c23          	sd	a1,792(tp) # 318 <offset+0x38>
    80004ecc:	faaab337          	lui	t1,0xfaaab
    80004ed0:	aab3031b          	addiw	t1,t1,-1365 # fffffffffaaaaaab <absimm+0xffffffff3fd9cfdb>
    80004ed4:	00c31313          	slli	t1,t1,0xc
    80004ed8:	aab30313          	addi	t1,t1,-1365
    80004edc:	00c31313          	slli	t1,t1,0xc
    80004ee0:	aab30313          	addi	t1,t1,-1365
    80004ee4:	00c31313          	slli	t1,t1,0xc
    80004ee8:	aa830313          	addi	t1,t1,-1368
    80004eec:	00b30463          	beq	t1,a1,80004ef4 <inst_376>
    80004ef0:	934fb06f          	j	80000024 <rvtest_error>

0000000080004ef4 <inst_376>:
    80004ef4:	aaaab537          	lui	a0,0xaaaab
    80004ef8:	aaa50513          	addi	a0,a0,-1366 # ffffffffaaaaaaaa <absimm+0xfffffffeefd9cfda>
    80004efc:	00b51513          	slli	a0,a0,0xb
    80004f00:	55550513          	addi	a0,a0,1365
    80004f04:	00b51513          	slli	a0,a0,0xb
    80004f08:	2aa50513          	addi	a0,a0,682
    80004f0c:	00a51513          	slli	a0,a0,0xa
    80004f10:	2ab50513          	addi	a0,a0,683
    80004f14:	55554593          	xori	a1,a0,1365
    80004f18:	32b23023          	sd	a1,800(tp) # 320 <offset+0x40>
    80004f1c:	faaab337          	lui	t1,0xfaaab
    80004f20:	aab3031b          	addiw	t1,t1,-1365 # fffffffffaaaaaab <absimm+0xffffffff3fd9cfdb>
    80004f24:	00c31313          	slli	t1,t1,0xc
    80004f28:	aab30313          	addi	t1,t1,-1365
    80004f2c:	00c31313          	slli	t1,t1,0xc
    80004f30:	aab30313          	addi	t1,t1,-1365
    80004f34:	00c31313          	slli	t1,t1,0xc
    80004f38:	ffe30313          	addi	t1,t1,-2
    80004f3c:	00b30463          	beq	t1,a1,80004f44 <inst_377>
    80004f40:	8e4fb06f          	j	80000024 <rvtest_error>

0000000080004f44 <inst_377>:
    80004f44:	aaaab537          	lui	a0,0xaaaab
    80004f48:	aaa50513          	addi	a0,a0,-1366 # ffffffffaaaaaaaa <absimm+0xfffffffeefd9cfda>
    80004f4c:	00b51513          	slli	a0,a0,0xb
    80004f50:	55550513          	addi	a0,a0,1365
    80004f54:	00b51513          	slli	a0,a0,0xb
    80004f58:	2aa50513          	addi	a0,a0,682
    80004f5c:	00a51513          	slli	a0,a0,0xa
    80004f60:	2ab50513          	addi	a0,a0,683
    80004f64:	aaa54593          	xori	a1,a0,-1366
    80004f68:	32b23423          	sd	a1,808(tp) # 328 <offset+0x48>
    80004f6c:	05555337          	lui	t1,0x5555
    80004f70:	5553031b          	addiw	t1,t1,1365 # 5555555 <offset+0x5555275>
    80004f74:	00c31313          	slli	t1,t1,0xc
    80004f78:	55530313          	addi	t1,t1,1365
    80004f7c:	00c31313          	slli	t1,t1,0xc
    80004f80:	55530313          	addi	t1,t1,1365
    80004f84:	00c31313          	slli	t1,t1,0xc
    80004f88:	00130313          	addi	t1,t1,1
    80004f8c:	00b30463          	beq	t1,a1,80004f94 <inst_378>
    80004f90:	894fb06f          	j	80000024 <rvtest_error>

0000000080004f94 <inst_378>:
    80004f94:	aaaab537          	lui	a0,0xaaaab
    80004f98:	aaa50513          	addi	a0,a0,-1366 # ffffffffaaaaaaaa <absimm+0xfffffffeefd9cfda>
    80004f9c:	00b51513          	slli	a0,a0,0xb
    80004fa0:	55550513          	addi	a0,a0,1365
    80004fa4:	00b51513          	slli	a0,a0,0xb
    80004fa8:	2aa50513          	addi	a0,a0,682
    80004fac:	00a51513          	slli	a0,a0,0xa
    80004fb0:	2ab50513          	addi	a0,a0,683
    80004fb4:	00554593          	xori	a1,a0,5
    80004fb8:	32b23823          	sd	a1,816(tp) # 330 <offset+0x50>
    80004fbc:	faaab337          	lui	t1,0xfaaab
    80004fc0:	aab3031b          	addiw	t1,t1,-1365 # fffffffffaaaaaab <absimm+0xffffffff3fd9cfdb>
    80004fc4:	00c31313          	slli	t1,t1,0xc
    80004fc8:	aab30313          	addi	t1,t1,-1365
    80004fcc:	00c31313          	slli	t1,t1,0xc
    80004fd0:	aab30313          	addi	t1,t1,-1365
    80004fd4:	00c31313          	slli	t1,t1,0xc
    80004fd8:	aae30313          	addi	t1,t1,-1362
    80004fdc:	00b30463          	beq	t1,a1,80004fe4 <inst_379>
    80004fe0:	844fb06f          	j	80000024 <rvtest_error>

0000000080004fe4 <inst_379>:
    80004fe4:	aaaab537          	lui	a0,0xaaaab
    80004fe8:	aaa50513          	addi	a0,a0,-1366 # ffffffffaaaaaaaa <absimm+0xfffffffeefd9cfda>
    80004fec:	00b51513          	slli	a0,a0,0xb
    80004ff0:	55550513          	addi	a0,a0,1365
    80004ff4:	00b51513          	slli	a0,a0,0xb
    80004ff8:	2aa50513          	addi	a0,a0,682
    80004ffc:	00a51513          	slli	a0,a0,0xa
    80005000:	2ab50513          	addi	a0,a0,683
    80005004:	33354593          	xori	a1,a0,819
    80005008:	32b23c23          	sd	a1,824(tp) # 338 <offset+0x58>
    8000500c:	faaab337          	lui	t1,0xfaaab
    80005010:	aab3031b          	addiw	t1,t1,-1365 # fffffffffaaaaaab <absimm+0xffffffff3fd9cfdb>
    80005014:	00c31313          	slli	t1,t1,0xc
    80005018:	aab30313          	addi	t1,t1,-1365
    8000501c:	00c31313          	slli	t1,t1,0xc
    80005020:	aab30313          	addi	t1,t1,-1365
    80005024:	00c31313          	slli	t1,t1,0xc
    80005028:	99830313          	addi	t1,t1,-1640
    8000502c:	00b30463          	beq	t1,a1,80005034 <inst_380>
    80005030:	ff5fa06f          	j	80000024 <rvtest_error>

0000000080005034 <inst_380>:
    80005034:	aaaab537          	lui	a0,0xaaaab
    80005038:	aaa50513          	addi	a0,a0,-1366 # ffffffffaaaaaaaa <absimm+0xfffffffeefd9cfda>
    8000503c:	00b51513          	slli	a0,a0,0xb
    80005040:	55550513          	addi	a0,a0,1365
    80005044:	00b51513          	slli	a0,a0,0xb
    80005048:	2aa50513          	addi	a0,a0,682
    8000504c:	00a51513          	slli	a0,a0,0xa
    80005050:	2ab50513          	addi	a0,a0,683
    80005054:	66654593          	xori	a1,a0,1638
    80005058:	34b23023          	sd	a1,832(tp) # 340 <offset+0x60>
    8000505c:	faaab337          	lui	t1,0xfaaab
    80005060:	aab3031b          	addiw	t1,t1,-1365 # fffffffffaaaaaab <absimm+0xffffffff3fd9cfdb>
    80005064:	00c31313          	slli	t1,t1,0xc
    80005068:	aab30313          	addi	t1,t1,-1365
    8000506c:	00c31313          	slli	t1,t1,0xc
    80005070:	aab30313          	addi	t1,t1,-1365
    80005074:	00c31313          	slli	t1,t1,0xc
    80005078:	ccd30313          	addi	t1,t1,-819
    8000507c:	00b30463          	beq	t1,a1,80005084 <inst_381>
    80005080:	fa5fa06f          	j	80000024 <rvtest_error>

0000000080005084 <inst_381>:
    80005084:	aaaab537          	lui	a0,0xaaaab
    80005088:	aaa50513          	addi	a0,a0,-1366 # ffffffffaaaaaaaa <absimm+0xfffffffeefd9cfda>
    8000508c:	00b51513          	slli	a0,a0,0xb
    80005090:	55550513          	addi	a0,a0,1365
    80005094:	00b51513          	slli	a0,a0,0xb
    80005098:	2aa50513          	addi	a0,a0,682
    8000509c:	00a51513          	slli	a0,a0,0xa
    800050a0:	2ab50513          	addi	a0,a0,683
    800050a4:	fd354593          	xori	a1,a0,-45
    800050a8:	34b23423          	sd	a1,840(tp) # 348 <offset+0x68>
    800050ac:	05555337          	lui	t1,0x5555
    800050b0:	5553031b          	addiw	t1,t1,1365 # 5555555 <offset+0x5555275>
    800050b4:	00c31313          	slli	t1,t1,0xc
    800050b8:	55530313          	addi	t1,t1,1365
    800050bc:	00c31313          	slli	t1,t1,0xc
    800050c0:	55530313          	addi	t1,t1,1365
    800050c4:	00c31313          	slli	t1,t1,0xc
    800050c8:	57830313          	addi	t1,t1,1400
    800050cc:	00b30463          	beq	t1,a1,800050d4 <inst_382>
    800050d0:	f55fa06f          	j	80000024 <rvtest_error>

00000000800050d4 <inst_382>:
    800050d4:	aaaab537          	lui	a0,0xaaaab
    800050d8:	aaa50513          	addi	a0,a0,-1366 # ffffffffaaaaaaaa <absimm+0xfffffffeefd9cfda>
    800050dc:	00b51513          	slli	a0,a0,0xb
    800050e0:	55550513          	addi	a0,a0,1365
    800050e4:	00b51513          	slli	a0,a0,0xb
    800050e8:	2aa50513          	addi	a0,a0,682
    800050ec:	00a51513          	slli	a0,a0,0xa
    800050f0:	2ab50513          	addi	a0,a0,683
    800050f4:	02d54593          	xori	a1,a0,45
    800050f8:	34b23823          	sd	a1,848(tp) # 350 <offset+0x70>
    800050fc:	faaab337          	lui	t1,0xfaaab
    80005100:	aab3031b          	addiw	t1,t1,-1365 # fffffffffaaaaaab <absimm+0xffffffff3fd9cfdb>
    80005104:	00c31313          	slli	t1,t1,0xc
    80005108:	aab30313          	addi	t1,t1,-1365
    8000510c:	00c31313          	slli	t1,t1,0xc
    80005110:	aab30313          	addi	t1,t1,-1365
    80005114:	00c31313          	slli	t1,t1,0xc
    80005118:	a8630313          	addi	t1,t1,-1402
    8000511c:	00b30463          	beq	t1,a1,80005124 <inst_383>
    80005120:	f05fa06f          	j	80000024 <rvtest_error>

0000000080005124 <inst_383>:
    80005124:	aaaab537          	lui	a0,0xaaaab
    80005128:	aaa50513          	addi	a0,a0,-1366 # ffffffffaaaaaaaa <absimm+0xfffffffeefd9cfda>
    8000512c:	00b51513          	slli	a0,a0,0xb
    80005130:	55550513          	addi	a0,a0,1365
    80005134:	00b51513          	slli	a0,a0,0xb
    80005138:	2aa50513          	addi	a0,a0,682
    8000513c:	00a51513          	slli	a0,a0,0xa
    80005140:	2ab50513          	addi	a0,a0,683
    80005144:	00254593          	xori	a1,a0,2
    80005148:	34b23c23          	sd	a1,856(tp) # 358 <offset+0x78>
    8000514c:	faaab337          	lui	t1,0xfaaab
    80005150:	aab3031b          	addiw	t1,t1,-1365 # fffffffffaaaaaab <absimm+0xffffffff3fd9cfdb>
    80005154:	00c31313          	slli	t1,t1,0xc
    80005158:	aab30313          	addi	t1,t1,-1365
    8000515c:	00c31313          	slli	t1,t1,0xc
    80005160:	aab30313          	addi	t1,t1,-1365
    80005164:	00c31313          	slli	t1,t1,0xc
    80005168:	aa930313          	addi	t1,t1,-1367
    8000516c:	00b30463          	beq	t1,a1,80005174 <inst_384>
    80005170:	eb5fa06f          	j	80000024 <rvtest_error>

0000000080005174 <inst_384>:
    80005174:	aaaab537          	lui	a0,0xaaaab
    80005178:	aaa50513          	addi	a0,a0,-1366 # ffffffffaaaaaaaa <absimm+0xfffffffeefd9cfda>
    8000517c:	00b51513          	slli	a0,a0,0xb
    80005180:	55550513          	addi	a0,a0,1365
    80005184:	00b51513          	slli	a0,a0,0xb
    80005188:	2aa50513          	addi	a0,a0,682
    8000518c:	00a51513          	slli	a0,a0,0xa
    80005190:	2ab50513          	addi	a0,a0,683
    80005194:	55454593          	xori	a1,a0,1364
    80005198:	36b23023          	sd	a1,864(tp) # 360 <offset+0x80>
    8000519c:	faaab337          	lui	t1,0xfaaab
    800051a0:	aab3031b          	addiw	t1,t1,-1365 # fffffffffaaaaaab <absimm+0xffffffff3fd9cfdb>
    800051a4:	00c31313          	slli	t1,t1,0xc
    800051a8:	aab30313          	addi	t1,t1,-1365
    800051ac:	00c31313          	slli	t1,t1,0xc
    800051b0:	aab30313          	addi	t1,t1,-1365
    800051b4:	00c31313          	slli	t1,t1,0xc
    800051b8:	fff30313          	addi	t1,t1,-1
    800051bc:	00b30463          	beq	t1,a1,800051c4 <inst_385>
    800051c0:	e65fa06f          	j	80000024 <rvtest_error>

00000000800051c4 <inst_385>:
    800051c4:	aaaab537          	lui	a0,0xaaaab
    800051c8:	aaa50513          	addi	a0,a0,-1366 # ffffffffaaaaaaaa <absimm+0xfffffffeefd9cfda>
    800051cc:	00b51513          	slli	a0,a0,0xb
    800051d0:	55550513          	addi	a0,a0,1365
    800051d4:	00b51513          	slli	a0,a0,0xb
    800051d8:	2aa50513          	addi	a0,a0,682
    800051dc:	00a51513          	slli	a0,a0,0xa
    800051e0:	2ab50513          	addi	a0,a0,683
    800051e4:	00054593          	xori	a1,a0,0
    800051e8:	36b23423          	sd	a1,872(tp) # 368 <offset+0x88>
    800051ec:	faaab337          	lui	t1,0xfaaab
    800051f0:	aab3031b          	addiw	t1,t1,-1365 # fffffffffaaaaaab <absimm+0xffffffff3fd9cfdb>
    800051f4:	00c31313          	slli	t1,t1,0xc
    800051f8:	aab30313          	addi	t1,t1,-1365
    800051fc:	00c31313          	slli	t1,t1,0xc
    80005200:	aab30313          	addi	t1,t1,-1365
    80005204:	00c31313          	slli	t1,t1,0xc
    80005208:	aab30313          	addi	t1,t1,-1365
    8000520c:	00b30463          	beq	t1,a1,80005214 <inst_386>
    80005210:	e15fa06f          	j	80000024 <rvtest_error>

0000000080005214 <inst_386>:
    80005214:	aaaab537          	lui	a0,0xaaaab
    80005218:	aaa50513          	addi	a0,a0,-1366 # ffffffffaaaaaaaa <absimm+0xfffffffeefd9cfda>
    8000521c:	00b51513          	slli	a0,a0,0xb
    80005220:	55550513          	addi	a0,a0,1365
    80005224:	00b51513          	slli	a0,a0,0xb
    80005228:	2aa50513          	addi	a0,a0,682
    8000522c:	00a51513          	slli	a0,a0,0xa
    80005230:	2ab50513          	addi	a0,a0,683
    80005234:	00454593          	xori	a1,a0,4
    80005238:	36b23823          	sd	a1,880(tp) # 370 <offset+0x90>
    8000523c:	faaab337          	lui	t1,0xfaaab
    80005240:	aab3031b          	addiw	t1,t1,-1365 # fffffffffaaaaaab <absimm+0xffffffff3fd9cfdb>
    80005244:	00c31313          	slli	t1,t1,0xc
    80005248:	aab30313          	addi	t1,t1,-1365
    8000524c:	00c31313          	slli	t1,t1,0xc
    80005250:	aab30313          	addi	t1,t1,-1365
    80005254:	00c31313          	slli	t1,t1,0xc
    80005258:	aaf30313          	addi	t1,t1,-1361
    8000525c:	00b30463          	beq	t1,a1,80005264 <inst_387>
    80005260:	dc5fa06f          	j	80000024 <rvtest_error>

0000000080005264 <inst_387>:
    80005264:	aaaab537          	lui	a0,0xaaaab
    80005268:	aaa50513          	addi	a0,a0,-1366 # ffffffffaaaaaaaa <absimm+0xfffffffeefd9cfda>
    8000526c:	00b51513          	slli	a0,a0,0xb
    80005270:	55550513          	addi	a0,a0,1365
    80005274:	00b51513          	slli	a0,a0,0xb
    80005278:	2aa50513          	addi	a0,a0,682
    8000527c:	00a51513          	slli	a0,a0,0xa
    80005280:	2ab50513          	addi	a0,a0,683
    80005284:	33254593          	xori	a1,a0,818
    80005288:	36b23c23          	sd	a1,888(tp) # 378 <offset+0x98>
    8000528c:	faaab337          	lui	t1,0xfaaab
    80005290:	aab3031b          	addiw	t1,t1,-1365 # fffffffffaaaaaab <absimm+0xffffffff3fd9cfdb>
    80005294:	00c31313          	slli	t1,t1,0xc
    80005298:	aab30313          	addi	t1,t1,-1365
    8000529c:	00c31313          	slli	t1,t1,0xc
    800052a0:	aab30313          	addi	t1,t1,-1365
    800052a4:	00c31313          	slli	t1,t1,0xc
    800052a8:	99930313          	addi	t1,t1,-1639
    800052ac:	00b30463          	beq	t1,a1,800052b4 <inst_388>
    800052b0:	d75fa06f          	j	80000024 <rvtest_error>

00000000800052b4 <inst_388>:
    800052b4:	aaaab537          	lui	a0,0xaaaab
    800052b8:	aaa50513          	addi	a0,a0,-1366 # ffffffffaaaaaaaa <absimm+0xfffffffeefd9cfda>
    800052bc:	00b51513          	slli	a0,a0,0xb
    800052c0:	55550513          	addi	a0,a0,1365
    800052c4:	00b51513          	slli	a0,a0,0xb
    800052c8:	2aa50513          	addi	a0,a0,682
    800052cc:	00a51513          	slli	a0,a0,0xa
    800052d0:	2ab50513          	addi	a0,a0,683
    800052d4:	66554593          	xori	a1,a0,1637
    800052d8:	38b23023          	sd	a1,896(tp) # 380 <offset+0xa0>
    800052dc:	faaab337          	lui	t1,0xfaaab
    800052e0:	aab3031b          	addiw	t1,t1,-1365 # fffffffffaaaaaab <absimm+0xffffffff3fd9cfdb>
    800052e4:	00c31313          	slli	t1,t1,0xc
    800052e8:	aab30313          	addi	t1,t1,-1365
    800052ec:	00c31313          	slli	t1,t1,0xc
    800052f0:	aab30313          	addi	t1,t1,-1365
    800052f4:	00c31313          	slli	t1,t1,0xc
    800052f8:	cce30313          	addi	t1,t1,-818
    800052fc:	00b30463          	beq	t1,a1,80005304 <inst_389>
    80005300:	d25fa06f          	j	80000024 <rvtest_error>

0000000080005304 <inst_389>:
    80005304:	aaaab537          	lui	a0,0xaaaab
    80005308:	aaa50513          	addi	a0,a0,-1366 # ffffffffaaaaaaaa <absimm+0xfffffffeefd9cfda>
    8000530c:	00b51513          	slli	a0,a0,0xb
    80005310:	55550513          	addi	a0,a0,1365
    80005314:	00b51513          	slli	a0,a0,0xb
    80005318:	2aa50513          	addi	a0,a0,682
    8000531c:	00a51513          	slli	a0,a0,0xa
    80005320:	2ab50513          	addi	a0,a0,683
    80005324:	02c54593          	xori	a1,a0,44
    80005328:	38b23423          	sd	a1,904(tp) # 388 <offset+0xa8>
    8000532c:	faaab337          	lui	t1,0xfaaab
    80005330:	aab3031b          	addiw	t1,t1,-1365 # fffffffffaaaaaab <absimm+0xffffffff3fd9cfdb>
    80005334:	00c31313          	slli	t1,t1,0xc
    80005338:	aab30313          	addi	t1,t1,-1365
    8000533c:	00c31313          	slli	t1,t1,0xc
    80005340:	aab30313          	addi	t1,t1,-1365
    80005344:	00c31313          	slli	t1,t1,0xc
    80005348:	a8730313          	addi	t1,t1,-1401
    8000534c:	00b30463          	beq	t1,a1,80005354 <inst_390>
    80005350:	cd5fa06f          	j	80000024 <rvtest_error>

0000000080005354 <inst_390>:
    80005354:	aaaab537          	lui	a0,0xaaaab
    80005358:	aaa50513          	addi	a0,a0,-1366 # ffffffffaaaaaaaa <absimm+0xfffffffeefd9cfda>
    8000535c:	00b51513          	slli	a0,a0,0xb
    80005360:	55550513          	addi	a0,a0,1365
    80005364:	00b51513          	slli	a0,a0,0xb
    80005368:	2aa50513          	addi	a0,a0,682
    8000536c:	00a51513          	slli	a0,a0,0xa
    80005370:	2ab50513          	addi	a0,a0,683
    80005374:	55654593          	xori	a1,a0,1366
    80005378:	38b23823          	sd	a1,912(tp) # 390 <offset+0xb0>
    8000537c:	faaab337          	lui	t1,0xfaaab
    80005380:	aab3031b          	addiw	t1,t1,-1365 # fffffffffaaaaaab <absimm+0xffffffff3fd9cfdb>
    80005384:	00c31313          	slli	t1,t1,0xc
    80005388:	aab30313          	addi	t1,t1,-1365
    8000538c:	00c31313          	slli	t1,t1,0xc
    80005390:	aab30313          	addi	t1,t1,-1365
    80005394:	00c31313          	slli	t1,t1,0xc
    80005398:	ffd30313          	addi	t1,t1,-3
    8000539c:	00b30463          	beq	t1,a1,800053a4 <inst_391>
    800053a0:	c85fa06f          	j	80000024 <rvtest_error>

00000000800053a4 <inst_391>:
    800053a4:	aaaab537          	lui	a0,0xaaaab
    800053a8:	aaa50513          	addi	a0,a0,-1366 # ffffffffaaaaaaaa <absimm+0xfffffffeefd9cfda>
    800053ac:	00b51513          	slli	a0,a0,0xb
    800053b0:	55550513          	addi	a0,a0,1365
    800053b4:	00b51513          	slli	a0,a0,0xb
    800053b8:	2aa50513          	addi	a0,a0,682
    800053bc:	00a51513          	slli	a0,a0,0xa
    800053c0:	2ab50513          	addi	a0,a0,683
    800053c4:	aab54593          	xori	a1,a0,-1365
    800053c8:	38b23c23          	sd	a1,920(tp) # 398 <offset+0xb8>
    800053cc:	05555337          	lui	t1,0x5555
    800053d0:	5553031b          	addiw	t1,t1,1365 # 5555555 <offset+0x5555275>
    800053d4:	00c31313          	slli	t1,t1,0xc
    800053d8:	55530313          	addi	t1,t1,1365
    800053dc:	00c31313          	slli	t1,t1,0xc
    800053e0:	55530313          	addi	t1,t1,1365
    800053e4:	00c31313          	slli	t1,t1,0xc
    800053e8:	00b30463          	beq	t1,a1,800053f0 <inst_392>
    800053ec:	c39fa06f          	j	80000024 <rvtest_error>

00000000800053f0 <inst_392>:
    800053f0:	aaaab537          	lui	a0,0xaaaab
    800053f4:	aaa50513          	addi	a0,a0,-1366 # ffffffffaaaaaaaa <absimm+0xfffffffeefd9cfda>
    800053f8:	00b51513          	slli	a0,a0,0xb
    800053fc:	55550513          	addi	a0,a0,1365
    80005400:	00b51513          	slli	a0,a0,0xb
    80005404:	2aa50513          	addi	a0,a0,682
    80005408:	00a51513          	slli	a0,a0,0xa
    8000540c:	2ab50513          	addi	a0,a0,683
    80005410:	00654593          	xori	a1,a0,6
    80005414:	3ab23023          	sd	a1,928(tp) # 3a0 <offset+0xc0>
    80005418:	faaab337          	lui	t1,0xfaaab
    8000541c:	aab3031b          	addiw	t1,t1,-1365 # fffffffffaaaaaab <absimm+0xffffffff3fd9cfdb>
    80005420:	00c31313          	slli	t1,t1,0xc
    80005424:	aab30313          	addi	t1,t1,-1365
    80005428:	00c31313          	slli	t1,t1,0xc
    8000542c:	aab30313          	addi	t1,t1,-1365
    80005430:	00c31313          	slli	t1,t1,0xc
    80005434:	aad30313          	addi	t1,t1,-1363
    80005438:	00b30463          	beq	t1,a1,80005440 <inst_393>
    8000543c:	be9fa06f          	j	80000024 <rvtest_error>

0000000080005440 <inst_393>:
    80005440:	aaaab537          	lui	a0,0xaaaab
    80005444:	aaa50513          	addi	a0,a0,-1366 # ffffffffaaaaaaaa <absimm+0xfffffffeefd9cfda>
    80005448:	00b51513          	slli	a0,a0,0xb
    8000544c:	55550513          	addi	a0,a0,1365
    80005450:	00b51513          	slli	a0,a0,0xb
    80005454:	2aa50513          	addi	a0,a0,682
    80005458:	00a51513          	slli	a0,a0,0xa
    8000545c:	2ab50513          	addi	a0,a0,683
    80005460:	33454593          	xori	a1,a0,820
    80005464:	3ab23423          	sd	a1,936(tp) # 3a8 <offset+0xc8>
    80005468:	faaab337          	lui	t1,0xfaaab
    8000546c:	aab3031b          	addiw	t1,t1,-1365 # fffffffffaaaaaab <absimm+0xffffffff3fd9cfdb>
    80005470:	00c31313          	slli	t1,t1,0xc
    80005474:	aab30313          	addi	t1,t1,-1365
    80005478:	00c31313          	slli	t1,t1,0xc
    8000547c:	aab30313          	addi	t1,t1,-1365
    80005480:	00c31313          	slli	t1,t1,0xc
    80005484:	99f30313          	addi	t1,t1,-1633
    80005488:	00b30463          	beq	t1,a1,80005490 <inst_394>
    8000548c:	b99fa06f          	j	80000024 <rvtest_error>

0000000080005490 <inst_394>:
    80005490:	aaaab537          	lui	a0,0xaaaab
    80005494:	aaa50513          	addi	a0,a0,-1366 # ffffffffaaaaaaaa <absimm+0xfffffffeefd9cfda>
    80005498:	00b51513          	slli	a0,a0,0xb
    8000549c:	55550513          	addi	a0,a0,1365
    800054a0:	00b51513          	slli	a0,a0,0xb
    800054a4:	2aa50513          	addi	a0,a0,682
    800054a8:	00a51513          	slli	a0,a0,0xa
    800054ac:	2ab50513          	addi	a0,a0,683
    800054b0:	66754593          	xori	a1,a0,1639
    800054b4:	3ab23823          	sd	a1,944(tp) # 3b0 <offset+0xd0>
    800054b8:	faaab337          	lui	t1,0xfaaab
    800054bc:	aab3031b          	addiw	t1,t1,-1365 # fffffffffaaaaaab <absimm+0xffffffff3fd9cfdb>
    800054c0:	00c31313          	slli	t1,t1,0xc
    800054c4:	aab30313          	addi	t1,t1,-1365
    800054c8:	00c31313          	slli	t1,t1,0xc
    800054cc:	aab30313          	addi	t1,t1,-1365
    800054d0:	00c31313          	slli	t1,t1,0xc
    800054d4:	ccc30313          	addi	t1,t1,-820
    800054d8:	00b30463          	beq	t1,a1,800054e0 <inst_395>
    800054dc:	b49fa06f          	j	80000024 <rvtest_error>

00000000800054e0 <inst_395>:
    800054e0:	aaaab537          	lui	a0,0xaaaab
    800054e4:	aaa50513          	addi	a0,a0,-1366 # ffffffffaaaaaaaa <absimm+0xfffffffeefd9cfda>
    800054e8:	00b51513          	slli	a0,a0,0xb
    800054ec:	55550513          	addi	a0,a0,1365
    800054f0:	00b51513          	slli	a0,a0,0xb
    800054f4:	2aa50513          	addi	a0,a0,682
    800054f8:	00a51513          	slli	a0,a0,0xa
    800054fc:	2ab50513          	addi	a0,a0,683
    80005500:	fd454593          	xori	a1,a0,-44
    80005504:	3ab23c23          	sd	a1,952(tp) # 3b8 <offset+0xd8>
    80005508:	05555337          	lui	t1,0x5555
    8000550c:	5553031b          	addiw	t1,t1,1365 # 5555555 <offset+0x5555275>
    80005510:	00c31313          	slli	t1,t1,0xc
    80005514:	55530313          	addi	t1,t1,1365
    80005518:	00c31313          	slli	t1,t1,0xc
    8000551c:	55530313          	addi	t1,t1,1365
    80005520:	00c31313          	slli	t1,t1,0xc
    80005524:	57f30313          	addi	t1,t1,1407
    80005528:	00b30463          	beq	t1,a1,80005530 <inst_396>
    8000552c:	af9fa06f          	j	80000024 <rvtest_error>

0000000080005530 <inst_396>:
    80005530:	aaaab537          	lui	a0,0xaaaab
    80005534:	aaa50513          	addi	a0,a0,-1366 # ffffffffaaaaaaaa <absimm+0xfffffffeefd9cfda>
    80005538:	00b51513          	slli	a0,a0,0xb
    8000553c:	55550513          	addi	a0,a0,1365
    80005540:	00b51513          	slli	a0,a0,0xb
    80005544:	2aa50513          	addi	a0,a0,682
    80005548:	00a51513          	slli	a0,a0,0xa
    8000554c:	2ab50513          	addi	a0,a0,683
    80005550:	02e54593          	xori	a1,a0,46
    80005554:	3cb23023          	sd	a1,960(tp) # 3c0 <offset+0xe0>
    80005558:	faaab337          	lui	t1,0xfaaab
    8000555c:	aab3031b          	addiw	t1,t1,-1365 # fffffffffaaaaaab <absimm+0xffffffff3fd9cfdb>
    80005560:	00c31313          	slli	t1,t1,0xc
    80005564:	aab30313          	addi	t1,t1,-1365
    80005568:	00c31313          	slli	t1,t1,0xc
    8000556c:	aab30313          	addi	t1,t1,-1365
    80005570:	00c31313          	slli	t1,t1,0xc
    80005574:	a8530313          	addi	t1,t1,-1403
    80005578:	00b30463          	beq	t1,a1,80005580 <inst_397>
    8000557c:	aa9fa06f          	j	80000024 <rvtest_error>

0000000080005580 <inst_397>:
    80005580:	00600513          	li	a0,6
    80005584:	00354593          	xori	a1,a0,3
    80005588:	3cb23423          	sd	a1,968(tp) # 3c8 <offset+0xe8>
    8000558c:	00500313          	li	t1,5
    80005590:	00b30463          	beq	t1,a1,80005598 <inst_398>
    80005594:	a91fa06f          	j	80000024 <rvtest_error>

0000000080005598 <inst_398>:
    80005598:	00600513          	li	a0,6
    8000559c:	55554593          	xori	a1,a0,1365
    800055a0:	3cb23823          	sd	a1,976(tp) # 3d0 <offset+0xf0>
    800055a4:	55300313          	li	t1,1363
    800055a8:	00b30463          	beq	t1,a1,800055b0 <inst_399>
    800055ac:	a79fa06f          	j	80000024 <rvtest_error>

00000000800055b0 <inst_399>:
    800055b0:	00600513          	li	a0,6
    800055b4:	aaa54593          	xori	a1,a0,-1366
    800055b8:	3cb23c23          	sd	a1,984(tp) # 3d8 <offset+0xf8>
    800055bc:	aac00313          	li	t1,-1364
    800055c0:	00b30463          	beq	t1,a1,800055c8 <inst_400>
    800055c4:	a61fa06f          	j	80000024 <rvtest_error>

00000000800055c8 <inst_400>:
    800055c8:	00600513          	li	a0,6
    800055cc:	00554593          	xori	a1,a0,5
    800055d0:	3eb23023          	sd	a1,992(tp) # 3e0 <offset+0x100>
    800055d4:	00300313          	li	t1,3
    800055d8:	00b30463          	beq	t1,a1,800055e0 <inst_401>
    800055dc:	a49fa06f          	j	80000024 <rvtest_error>

00000000800055e0 <inst_401>:
    800055e0:	00600513          	li	a0,6
    800055e4:	33354593          	xori	a1,a0,819
    800055e8:	3eb23423          	sd	a1,1000(tp) # 3e8 <offset+0x108>
    800055ec:	33500313          	li	t1,821
    800055f0:	00b30463          	beq	t1,a1,800055f8 <inst_402>
    800055f4:	a31fa06f          	j	80000024 <rvtest_error>

00000000800055f8 <inst_402>:
    800055f8:	00600513          	li	a0,6
    800055fc:	66654593          	xori	a1,a0,1638
    80005600:	3eb23823          	sd	a1,1008(tp) # 3f0 <offset+0x110>
    80005604:	66000313          	li	t1,1632
    80005608:	00b30463          	beq	t1,a1,80005610 <inst_403>
    8000560c:	a19fa06f          	j	80000024 <rvtest_error>

0000000080005610 <inst_403>:
    80005610:	00600513          	li	a0,6
    80005614:	fd354593          	xori	a1,a0,-45
    80005618:	3eb23c23          	sd	a1,1016(tp) # 3f8 <offset+0x118>
    8000561c:	fd500313          	li	t1,-43
    80005620:	00b30463          	beq	t1,a1,80005628 <inst_404>
    80005624:	a01fa06f          	j	80000024 <rvtest_error>

0000000080005628 <inst_404>:
    80005628:	00600513          	li	a0,6
    8000562c:	02d54593          	xori	a1,a0,45
    80005630:	40b23023          	sd	a1,1024(tp) # 400 <offset+0x120>
    80005634:	02b00313          	li	t1,43
    80005638:	00b30463          	beq	t1,a1,80005640 <inst_405>
    8000563c:	9e9fa06f          	j	80000024 <rvtest_error>

0000000080005640 <inst_405>:
    80005640:	00600513          	li	a0,6
    80005644:	00254593          	xori	a1,a0,2
    80005648:	40b23423          	sd	a1,1032(tp) # 408 <offset+0x128>
    8000564c:	00400313          	li	t1,4
    80005650:	00b30463          	beq	t1,a1,80005658 <inst_406>
    80005654:	9d1fa06f          	j	80000024 <rvtest_error>

0000000080005658 <inst_406>:
    80005658:	00600513          	li	a0,6
    8000565c:	55454593          	xori	a1,a0,1364
    80005660:	40b23823          	sd	a1,1040(tp) # 410 <offset+0x130>
    80005664:	55200313          	li	t1,1362
    80005668:	00b30463          	beq	t1,a1,80005670 <inst_407>
    8000566c:	9b9fa06f          	j	80000024 <rvtest_error>

0000000080005670 <inst_407>:
    80005670:	00600513          	li	a0,6
    80005674:	00054593          	xori	a1,a0,0
    80005678:	40b23c23          	sd	a1,1048(tp) # 418 <offset+0x138>
    8000567c:	00600313          	li	t1,6
    80005680:	00b30463          	beq	t1,a1,80005688 <inst_408>
    80005684:	9a1fa06f          	j	80000024 <rvtest_error>

0000000080005688 <inst_408>:
    80005688:	00600513          	li	a0,6
    8000568c:	00454593          	xori	a1,a0,4
    80005690:	42b23023          	sd	a1,1056(tp) # 420 <offset+0x140>
    80005694:	00200313          	li	t1,2
    80005698:	00b30463          	beq	t1,a1,800056a0 <inst_409>
    8000569c:	989fa06f          	j	80000024 <rvtest_error>

00000000800056a0 <inst_409>:
    800056a0:	00600513          	li	a0,6
    800056a4:	33254593          	xori	a1,a0,818
    800056a8:	42b23423          	sd	a1,1064(tp) # 428 <offset+0x148>
    800056ac:	33400313          	li	t1,820
    800056b0:	00b30463          	beq	t1,a1,800056b8 <inst_410>
    800056b4:	971fa06f          	j	80000024 <rvtest_error>

00000000800056b8 <inst_410>:
    800056b8:	00600513          	li	a0,6
    800056bc:	66554593          	xori	a1,a0,1637
    800056c0:	42b23823          	sd	a1,1072(tp) # 430 <offset+0x150>
    800056c4:	66300313          	li	t1,1635
    800056c8:	00b30463          	beq	t1,a1,800056d0 <inst_411>
    800056cc:	959fa06f          	j	80000024 <rvtest_error>

00000000800056d0 <inst_411>:
    800056d0:	00600513          	li	a0,6
    800056d4:	02c54593          	xori	a1,a0,44
    800056d8:	42b23c23          	sd	a1,1080(tp) # 438 <offset+0x158>
    800056dc:	02a00313          	li	t1,42
    800056e0:	00b30463          	beq	t1,a1,800056e8 <inst_412>
    800056e4:	941fa06f          	j	80000024 <rvtest_error>

00000000800056e8 <inst_412>:
    800056e8:	00600513          	li	a0,6
    800056ec:	55654593          	xori	a1,a0,1366
    800056f0:	44b23023          	sd	a1,1088(tp) # 440 <offset+0x160>
    800056f4:	55000313          	li	t1,1360
    800056f8:	00b30463          	beq	t1,a1,80005700 <inst_413>
    800056fc:	929fa06f          	j	80000024 <rvtest_error>

0000000080005700 <inst_413>:
    80005700:	00600513          	li	a0,6
    80005704:	aab54593          	xori	a1,a0,-1365
    80005708:	44b23423          	sd	a1,1096(tp) # 448 <offset+0x168>
    8000570c:	aad00313          	li	t1,-1363
    80005710:	00b30463          	beq	t1,a1,80005718 <inst_414>
    80005714:	911fa06f          	j	80000024 <rvtest_error>

0000000080005718 <inst_414>:
    80005718:	00600513          	li	a0,6
    8000571c:	00654593          	xori	a1,a0,6
    80005720:	44b23823          	sd	a1,1104(tp) # 450 <offset+0x170>
    80005724:	00000313          	li	t1,0
    80005728:	00b30463          	beq	t1,a1,80005730 <inst_415>
    8000572c:	8f9fa06f          	j	80000024 <rvtest_error>

0000000080005730 <inst_415>:
    80005730:	00600513          	li	a0,6
    80005734:	33454593          	xori	a1,a0,820
    80005738:	44b23c23          	sd	a1,1112(tp) # 458 <offset+0x178>
    8000573c:	33200313          	li	t1,818
    80005740:	00b30463          	beq	t1,a1,80005748 <inst_416>
    80005744:	8e1fa06f          	j	80000024 <rvtest_error>

0000000080005748 <inst_416>:
    80005748:	00600513          	li	a0,6
    8000574c:	66754593          	xori	a1,a0,1639
    80005750:	46b23023          	sd	a1,1120(tp) # 460 <offset+0x180>
    80005754:	66100313          	li	t1,1633
    80005758:	00b30463          	beq	t1,a1,80005760 <inst_417>
    8000575c:	8c9fa06f          	j	80000024 <rvtest_error>

0000000080005760 <inst_417>:
    80005760:	00600513          	li	a0,6
    80005764:	fd454593          	xori	a1,a0,-44
    80005768:	46b23423          	sd	a1,1128(tp) # 468 <offset+0x188>
    8000576c:	fd200313          	li	t1,-46
    80005770:	00b30463          	beq	t1,a1,80005778 <inst_418>
    80005774:	8b1fa06f          	j	80000024 <rvtest_error>

0000000080005778 <inst_418>:
    80005778:	00600513          	li	a0,6
    8000577c:	02e54593          	xori	a1,a0,46
    80005780:	46b23823          	sd	a1,1136(tp) # 470 <offset+0x190>
    80005784:	02800313          	li	t1,40
    80005788:	00b30463          	beq	t1,a1,80005790 <inst_419>
    8000578c:	899fa06f          	j	80000024 <rvtest_error>

0000000080005790 <inst_419>:
    80005790:	33333537          	lui	a0,0x33333
    80005794:	33350513          	addi	a0,a0,819 # 33333333 <absimmsh+0x27862586>
    80005798:	00b51513          	slli	a0,a0,0xb
    8000579c:	19950513          	addi	a0,a0,409
    800057a0:	00b51513          	slli	a0,a0,0xb
    800057a4:	4cc50513          	addi	a0,a0,1228
    800057a8:	00a51513          	slli	a0,a0,0xa
    800057ac:	33450513          	addi	a0,a0,820
    800057b0:	00354593          	xori	a1,a0,3
    800057b4:	46b23c23          	sd	a1,1144(tp) # 478 <offset+0x198>
    800057b8:	03333337          	lui	t1,0x3333
    800057bc:	3333031b          	addiw	t1,t1,819 # 3333333 <offset+0x3333053>
    800057c0:	00c31313          	slli	t1,t1,0xc
    800057c4:	33330313          	addi	t1,t1,819
    800057c8:	00c31313          	slli	t1,t1,0xc
    800057cc:	33330313          	addi	t1,t1,819
    800057d0:	00c31313          	slli	t1,t1,0xc
    800057d4:	33730313          	addi	t1,t1,823
    800057d8:	00b30463          	beq	t1,a1,800057e0 <inst_420>
    800057dc:	849fa06f          	j	80000024 <rvtest_error>

00000000800057e0 <inst_420>:
    800057e0:	33333537          	lui	a0,0x33333
    800057e4:	33350513          	addi	a0,a0,819 # 33333333 <absimmsh+0x27862586>
    800057e8:	00b51513          	slli	a0,a0,0xb
    800057ec:	19950513          	addi	a0,a0,409
    800057f0:	00b51513          	slli	a0,a0,0xb
    800057f4:	4cc50513          	addi	a0,a0,1228
    800057f8:	00a51513          	slli	a0,a0,0xa
    800057fc:	33450513          	addi	a0,a0,820
    80005800:	55554593          	xori	a1,a0,1365
    80005804:	48b23023          	sd	a1,1152(tp) # 480 <offset+0x1a0>
    80005808:	03333337          	lui	t1,0x3333
    8000580c:	3333031b          	addiw	t1,t1,819 # 3333333 <offset+0x3333053>
    80005810:	00c31313          	slli	t1,t1,0xc
    80005814:	33330313          	addi	t1,t1,819
    80005818:	00c31313          	slli	t1,t1,0xc
    8000581c:	33330313          	addi	t1,t1,819
    80005820:	00c31313          	slli	t1,t1,0xc
    80005824:	66130313          	addi	t1,t1,1633
    80005828:	00b30463          	beq	t1,a1,80005830 <inst_421>
    8000582c:	ff8fa06f          	j	80000024 <rvtest_error>

0000000080005830 <inst_421>:
    80005830:	33333537          	lui	a0,0x33333
    80005834:	33350513          	addi	a0,a0,819 # 33333333 <absimmsh+0x27862586>
    80005838:	00b51513          	slli	a0,a0,0xb
    8000583c:	19950513          	addi	a0,a0,409
    80005840:	00b51513          	slli	a0,a0,0xb
    80005844:	4cc50513          	addi	a0,a0,1228
    80005848:	00a51513          	slli	a0,a0,0xa
    8000584c:	33450513          	addi	a0,a0,820
    80005850:	aaa54593          	xori	a1,a0,-1366
    80005854:	48b23423          	sd	a1,1160(tp) # 488 <offset+0x1a8>
    80005858:	fcccd337          	lui	t1,0xfcccd
    8000585c:	ccd3031b          	addiw	t1,t1,-819 # fffffffffccccccd <absimm+0xffffffff41fbf1fd>
    80005860:	00c31313          	slli	t1,t1,0xc
    80005864:	ccd30313          	addi	t1,t1,-819
    80005868:	00c31313          	slli	t1,t1,0xc
    8000586c:	ccd30313          	addi	t1,t1,-819
    80005870:	00c31313          	slli	t1,t1,0xc
    80005874:	99e30313          	addi	t1,t1,-1634
    80005878:	00b30463          	beq	t1,a1,80005880 <inst_422>
    8000587c:	fa8fa06f          	j	80000024 <rvtest_error>

0000000080005880 <inst_422>:
    80005880:	33333537          	lui	a0,0x33333
    80005884:	33350513          	addi	a0,a0,819 # 33333333 <absimmsh+0x27862586>
    80005888:	00b51513          	slli	a0,a0,0xb
    8000588c:	19950513          	addi	a0,a0,409
    80005890:	00b51513          	slli	a0,a0,0xb
    80005894:	4cc50513          	addi	a0,a0,1228
    80005898:	00a51513          	slli	a0,a0,0xa
    8000589c:	33450513          	addi	a0,a0,820
    800058a0:	00554593          	xori	a1,a0,5
    800058a4:	48b23823          	sd	a1,1168(tp) # 490 <offset+0x1b0>
    800058a8:	03333337          	lui	t1,0x3333
    800058ac:	3333031b          	addiw	t1,t1,819 # 3333333 <offset+0x3333053>
    800058b0:	00c31313          	slli	t1,t1,0xc
    800058b4:	33330313          	addi	t1,t1,819
    800058b8:	00c31313          	slli	t1,t1,0xc
    800058bc:	33330313          	addi	t1,t1,819
    800058c0:	00c31313          	slli	t1,t1,0xc
    800058c4:	33130313          	addi	t1,t1,817
    800058c8:	00b30463          	beq	t1,a1,800058d0 <inst_423>
    800058cc:	f58fa06f          	j	80000024 <rvtest_error>

00000000800058d0 <inst_423>:
    800058d0:	33333537          	lui	a0,0x33333
    800058d4:	33350513          	addi	a0,a0,819 # 33333333 <absimmsh+0x27862586>
    800058d8:	00b51513          	slli	a0,a0,0xb
    800058dc:	19950513          	addi	a0,a0,409
    800058e0:	00b51513          	slli	a0,a0,0xb
    800058e4:	4cc50513          	addi	a0,a0,1228
    800058e8:	00a51513          	slli	a0,a0,0xa
    800058ec:	33450513          	addi	a0,a0,820
    800058f0:	33354593          	xori	a1,a0,819
    800058f4:	48b23c23          	sd	a1,1176(tp) # 498 <offset+0x1b8>
    800058f8:	03333337          	lui	t1,0x3333
    800058fc:	3333031b          	addiw	t1,t1,819 # 3333333 <offset+0x3333053>
    80005900:	00c31313          	slli	t1,t1,0xc
    80005904:	33330313          	addi	t1,t1,819
    80005908:	00c31313          	slli	t1,t1,0xc
    8000590c:	33330313          	addi	t1,t1,819
    80005910:	00c31313          	slli	t1,t1,0xc
    80005914:	00730313          	addi	t1,t1,7
    80005918:	00b30463          	beq	t1,a1,80005920 <inst_424>
    8000591c:	f08fa06f          	j	80000024 <rvtest_error>

0000000080005920 <inst_424>:
    80005920:	33333537          	lui	a0,0x33333
    80005924:	33350513          	addi	a0,a0,819 # 33333333 <absimmsh+0x27862586>
    80005928:	00b51513          	slli	a0,a0,0xb
    8000592c:	19950513          	addi	a0,a0,409
    80005930:	00b51513          	slli	a0,a0,0xb
    80005934:	4cc50513          	addi	a0,a0,1228
    80005938:	00a51513          	slli	a0,a0,0xa
    8000593c:	33450513          	addi	a0,a0,820
    80005940:	66654593          	xori	a1,a0,1638
    80005944:	4ab23023          	sd	a1,1184(tp) # 4a0 <offset+0x1c0>
    80005948:	03333337          	lui	t1,0x3333
    8000594c:	3333031b          	addiw	t1,t1,819 # 3333333 <offset+0x3333053>
    80005950:	00c31313          	slli	t1,t1,0xc
    80005954:	33330313          	addi	t1,t1,819
    80005958:	00c31313          	slli	t1,t1,0xc
    8000595c:	33330313          	addi	t1,t1,819
    80005960:	00c31313          	slli	t1,t1,0xc
    80005964:	55230313          	addi	t1,t1,1362
    80005968:	00b30463          	beq	t1,a1,80005970 <inst_425>
    8000596c:	eb8fa06f          	j	80000024 <rvtest_error>

0000000080005970 <inst_425>:
    80005970:	33333537          	lui	a0,0x33333
    80005974:	33350513          	addi	a0,a0,819 # 33333333 <absimmsh+0x27862586>
    80005978:	00b51513          	slli	a0,a0,0xb
    8000597c:	19950513          	addi	a0,a0,409
    80005980:	00b51513          	slli	a0,a0,0xb
    80005984:	4cc50513          	addi	a0,a0,1228
    80005988:	00a51513          	slli	a0,a0,0xa
    8000598c:	33450513          	addi	a0,a0,820
    80005990:	fd354593          	xori	a1,a0,-45
    80005994:	4ab23423          	sd	a1,1192(tp) # 4a8 <offset+0x1c8>
    80005998:	fcccd337          	lui	t1,0xfcccd
    8000599c:	ccd3031b          	addiw	t1,t1,-819 # fffffffffccccccd <absimm+0xffffffff41fbf1fd>
    800059a0:	00c31313          	slli	t1,t1,0xc
    800059a4:	ccd30313          	addi	t1,t1,-819
    800059a8:	00c31313          	slli	t1,t1,0xc
    800059ac:	ccd30313          	addi	t1,t1,-819
    800059b0:	00c31313          	slli	t1,t1,0xc
    800059b4:	ce730313          	addi	t1,t1,-793
    800059b8:	00b30463          	beq	t1,a1,800059c0 <inst_426>
    800059bc:	e68fa06f          	j	80000024 <rvtest_error>

00000000800059c0 <inst_426>:
    800059c0:	33333537          	lui	a0,0x33333
    800059c4:	33350513          	addi	a0,a0,819 # 33333333 <absimmsh+0x27862586>
    800059c8:	00b51513          	slli	a0,a0,0xb
    800059cc:	19950513          	addi	a0,a0,409
    800059d0:	00b51513          	slli	a0,a0,0xb
    800059d4:	4cc50513          	addi	a0,a0,1228
    800059d8:	00a51513          	slli	a0,a0,0xa
    800059dc:	33450513          	addi	a0,a0,820
    800059e0:	02d54593          	xori	a1,a0,45
    800059e4:	4ab23823          	sd	a1,1200(tp) # 4b0 <offset+0x1d0>
    800059e8:	03333337          	lui	t1,0x3333
    800059ec:	3333031b          	addiw	t1,t1,819 # 3333333 <offset+0x3333053>
    800059f0:	00c31313          	slli	t1,t1,0xc
    800059f4:	33330313          	addi	t1,t1,819
    800059f8:	00c31313          	slli	t1,t1,0xc
    800059fc:	33330313          	addi	t1,t1,819
    80005a00:	00c31313          	slli	t1,t1,0xc
    80005a04:	31930313          	addi	t1,t1,793
    80005a08:	00b30463          	beq	t1,a1,80005a10 <inst_427>
    80005a0c:	e18fa06f          	j	80000024 <rvtest_error>

0000000080005a10 <inst_427>:
    80005a10:	33333537          	lui	a0,0x33333
    80005a14:	33350513          	addi	a0,a0,819 # 33333333 <absimmsh+0x27862586>
    80005a18:	00b51513          	slli	a0,a0,0xb
    80005a1c:	19950513          	addi	a0,a0,409
    80005a20:	00b51513          	slli	a0,a0,0xb
    80005a24:	4cc50513          	addi	a0,a0,1228
    80005a28:	00a51513          	slli	a0,a0,0xa
    80005a2c:	33450513          	addi	a0,a0,820
    80005a30:	00254593          	xori	a1,a0,2
    80005a34:	4ab23c23          	sd	a1,1208(tp) # 4b8 <offset+0x1d8>
    80005a38:	03333337          	lui	t1,0x3333
    80005a3c:	3333031b          	addiw	t1,t1,819 # 3333333 <offset+0x3333053>
    80005a40:	00c31313          	slli	t1,t1,0xc
    80005a44:	33330313          	addi	t1,t1,819
    80005a48:	00c31313          	slli	t1,t1,0xc
    80005a4c:	33330313          	addi	t1,t1,819
    80005a50:	00c31313          	slli	t1,t1,0xc
    80005a54:	33630313          	addi	t1,t1,822
    80005a58:	00b30463          	beq	t1,a1,80005a60 <inst_428>
    80005a5c:	dc8fa06f          	j	80000024 <rvtest_error>

0000000080005a60 <inst_428>:
    80005a60:	33333537          	lui	a0,0x33333
    80005a64:	33350513          	addi	a0,a0,819 # 33333333 <absimmsh+0x27862586>
    80005a68:	00b51513          	slli	a0,a0,0xb
    80005a6c:	19950513          	addi	a0,a0,409
    80005a70:	00b51513          	slli	a0,a0,0xb
    80005a74:	4cc50513          	addi	a0,a0,1228
    80005a78:	00a51513          	slli	a0,a0,0xa
    80005a7c:	33450513          	addi	a0,a0,820
    80005a80:	55454593          	xori	a1,a0,1364
    80005a84:	4cb23023          	sd	a1,1216(tp) # 4c0 <offset+0x1e0>
    80005a88:	03333337          	lui	t1,0x3333
    80005a8c:	3333031b          	addiw	t1,t1,819 # 3333333 <offset+0x3333053>
    80005a90:	00c31313          	slli	t1,t1,0xc
    80005a94:	33330313          	addi	t1,t1,819
    80005a98:	00c31313          	slli	t1,t1,0xc
    80005a9c:	33330313          	addi	t1,t1,819
    80005aa0:	00c31313          	slli	t1,t1,0xc
    80005aa4:	66030313          	addi	t1,t1,1632
    80005aa8:	00b30463          	beq	t1,a1,80005ab0 <inst_429>
    80005aac:	d78fa06f          	j	80000024 <rvtest_error>

0000000080005ab0 <inst_429>:
    80005ab0:	33333537          	lui	a0,0x33333
    80005ab4:	33350513          	addi	a0,a0,819 # 33333333 <absimmsh+0x27862586>
    80005ab8:	00b51513          	slli	a0,a0,0xb
    80005abc:	19950513          	addi	a0,a0,409
    80005ac0:	00b51513          	slli	a0,a0,0xb
    80005ac4:	4cc50513          	addi	a0,a0,1228
    80005ac8:	00a51513          	slli	a0,a0,0xa
    80005acc:	33450513          	addi	a0,a0,820
    80005ad0:	00054593          	xori	a1,a0,0
    80005ad4:	4cb23423          	sd	a1,1224(tp) # 4c8 <offset+0x1e8>
    80005ad8:	03333337          	lui	t1,0x3333
    80005adc:	3333031b          	addiw	t1,t1,819 # 3333333 <offset+0x3333053>
    80005ae0:	00c31313          	slli	t1,t1,0xc
    80005ae4:	33330313          	addi	t1,t1,819
    80005ae8:	00c31313          	slli	t1,t1,0xc
    80005aec:	33330313          	addi	t1,t1,819
    80005af0:	00c31313          	slli	t1,t1,0xc
    80005af4:	33430313          	addi	t1,t1,820
    80005af8:	00b30463          	beq	t1,a1,80005b00 <inst_430>
    80005afc:	d28fa06f          	j	80000024 <rvtest_error>

0000000080005b00 <inst_430>:
    80005b00:	33333537          	lui	a0,0x33333
    80005b04:	33350513          	addi	a0,a0,819 # 33333333 <absimmsh+0x27862586>
    80005b08:	00b51513          	slli	a0,a0,0xb
    80005b0c:	19950513          	addi	a0,a0,409
    80005b10:	00b51513          	slli	a0,a0,0xb
    80005b14:	4cc50513          	addi	a0,a0,1228
    80005b18:	00a51513          	slli	a0,a0,0xa
    80005b1c:	33450513          	addi	a0,a0,820
    80005b20:	00454593          	xori	a1,a0,4
    80005b24:	4cb23823          	sd	a1,1232(tp) # 4d0 <offset+0x1f0>
    80005b28:	03333337          	lui	t1,0x3333
    80005b2c:	3333031b          	addiw	t1,t1,819 # 3333333 <offset+0x3333053>
    80005b30:	00c31313          	slli	t1,t1,0xc
    80005b34:	33330313          	addi	t1,t1,819
    80005b38:	00c31313          	slli	t1,t1,0xc
    80005b3c:	33330313          	addi	t1,t1,819
    80005b40:	00c31313          	slli	t1,t1,0xc
    80005b44:	33030313          	addi	t1,t1,816
    80005b48:	00b30463          	beq	t1,a1,80005b50 <inst_431>
    80005b4c:	cd8fa06f          	j	80000024 <rvtest_error>

0000000080005b50 <inst_431>:
    80005b50:	33333537          	lui	a0,0x33333
    80005b54:	33350513          	addi	a0,a0,819 # 33333333 <absimmsh+0x27862586>
    80005b58:	00b51513          	slli	a0,a0,0xb
    80005b5c:	19950513          	addi	a0,a0,409
    80005b60:	00b51513          	slli	a0,a0,0xb
    80005b64:	4cc50513          	addi	a0,a0,1228
    80005b68:	00a51513          	slli	a0,a0,0xa
    80005b6c:	33450513          	addi	a0,a0,820
    80005b70:	33254593          	xori	a1,a0,818
    80005b74:	4cb23c23          	sd	a1,1240(tp) # 4d8 <offset+0x1f8>
    80005b78:	03333337          	lui	t1,0x3333
    80005b7c:	3333031b          	addiw	t1,t1,819 # 3333333 <offset+0x3333053>
    80005b80:	00c31313          	slli	t1,t1,0xc
    80005b84:	33330313          	addi	t1,t1,819
    80005b88:	00c31313          	slli	t1,t1,0xc
    80005b8c:	33330313          	addi	t1,t1,819
    80005b90:	00c31313          	slli	t1,t1,0xc
    80005b94:	00630313          	addi	t1,t1,6
    80005b98:	00b30463          	beq	t1,a1,80005ba0 <inst_432>
    80005b9c:	c88fa06f          	j	80000024 <rvtest_error>

0000000080005ba0 <inst_432>:
    80005ba0:	33333537          	lui	a0,0x33333
    80005ba4:	33350513          	addi	a0,a0,819 # 33333333 <absimmsh+0x27862586>
    80005ba8:	00b51513          	slli	a0,a0,0xb
    80005bac:	19950513          	addi	a0,a0,409
    80005bb0:	00b51513          	slli	a0,a0,0xb
    80005bb4:	4cc50513          	addi	a0,a0,1228
    80005bb8:	00a51513          	slli	a0,a0,0xa
    80005bbc:	33450513          	addi	a0,a0,820
    80005bc0:	66554593          	xori	a1,a0,1637
    80005bc4:	4eb23023          	sd	a1,1248(tp) # 4e0 <offset+0x200>
    80005bc8:	03333337          	lui	t1,0x3333
    80005bcc:	3333031b          	addiw	t1,t1,819 # 3333333 <offset+0x3333053>
    80005bd0:	00c31313          	slli	t1,t1,0xc
    80005bd4:	33330313          	addi	t1,t1,819
    80005bd8:	00c31313          	slli	t1,t1,0xc
    80005bdc:	33330313          	addi	t1,t1,819
    80005be0:	00c31313          	slli	t1,t1,0xc
    80005be4:	55130313          	addi	t1,t1,1361
    80005be8:	00b30463          	beq	t1,a1,80005bf0 <inst_433>
    80005bec:	c38fa06f          	j	80000024 <rvtest_error>

0000000080005bf0 <inst_433>:
    80005bf0:	33333537          	lui	a0,0x33333
    80005bf4:	33350513          	addi	a0,a0,819 # 33333333 <absimmsh+0x27862586>
    80005bf8:	00b51513          	slli	a0,a0,0xb
    80005bfc:	19950513          	addi	a0,a0,409
    80005c00:	00b51513          	slli	a0,a0,0xb
    80005c04:	4cc50513          	addi	a0,a0,1228
    80005c08:	00a51513          	slli	a0,a0,0xa
    80005c0c:	33450513          	addi	a0,a0,820
    80005c10:	02c54593          	xori	a1,a0,44
    80005c14:	4eb23423          	sd	a1,1256(tp) # 4e8 <offset+0x208>
    80005c18:	03333337          	lui	t1,0x3333
    80005c1c:	3333031b          	addiw	t1,t1,819 # 3333333 <offset+0x3333053>
    80005c20:	00c31313          	slli	t1,t1,0xc
    80005c24:	33330313          	addi	t1,t1,819
    80005c28:	00c31313          	slli	t1,t1,0xc
    80005c2c:	33330313          	addi	t1,t1,819
    80005c30:	00c31313          	slli	t1,t1,0xc
    80005c34:	31830313          	addi	t1,t1,792
    80005c38:	00b30463          	beq	t1,a1,80005c40 <inst_434>
    80005c3c:	be8fa06f          	j	80000024 <rvtest_error>

0000000080005c40 <inst_434>:
    80005c40:	33333537          	lui	a0,0x33333
    80005c44:	33350513          	addi	a0,a0,819 # 33333333 <absimmsh+0x27862586>
    80005c48:	00b51513          	slli	a0,a0,0xb
    80005c4c:	19950513          	addi	a0,a0,409
    80005c50:	00b51513          	slli	a0,a0,0xb
    80005c54:	4cc50513          	addi	a0,a0,1228
    80005c58:	00a51513          	slli	a0,a0,0xa
    80005c5c:	33450513          	addi	a0,a0,820
    80005c60:	55654593          	xori	a1,a0,1366
    80005c64:	4eb23823          	sd	a1,1264(tp) # 4f0 <offset+0x210>
    80005c68:	03333337          	lui	t1,0x3333
    80005c6c:	3333031b          	addiw	t1,t1,819 # 3333333 <offset+0x3333053>
    80005c70:	00c31313          	slli	t1,t1,0xc
    80005c74:	33330313          	addi	t1,t1,819
    80005c78:	00c31313          	slli	t1,t1,0xc
    80005c7c:	33330313          	addi	t1,t1,819
    80005c80:	00c31313          	slli	t1,t1,0xc
    80005c84:	66230313          	addi	t1,t1,1634
    80005c88:	00b30463          	beq	t1,a1,80005c90 <inst_435>
    80005c8c:	b98fa06f          	j	80000024 <rvtest_error>

0000000080005c90 <inst_435>:
    80005c90:	33333537          	lui	a0,0x33333
    80005c94:	33350513          	addi	a0,a0,819 # 33333333 <absimmsh+0x27862586>
    80005c98:	00b51513          	slli	a0,a0,0xb
    80005c9c:	19950513          	addi	a0,a0,409
    80005ca0:	00b51513          	slli	a0,a0,0xb
    80005ca4:	4cc50513          	addi	a0,a0,1228
    80005ca8:	00a51513          	slli	a0,a0,0xa
    80005cac:	33450513          	addi	a0,a0,820
    80005cb0:	aab54593          	xori	a1,a0,-1365
    80005cb4:	4eb23c23          	sd	a1,1272(tp) # 4f8 <offset+0x218>
    80005cb8:	fcccd337          	lui	t1,0xfcccd
    80005cbc:	ccd3031b          	addiw	t1,t1,-819 # fffffffffccccccd <absimm+0xffffffff41fbf1fd>
    80005cc0:	00c31313          	slli	t1,t1,0xc
    80005cc4:	ccd30313          	addi	t1,t1,-819
    80005cc8:	00c31313          	slli	t1,t1,0xc
    80005ccc:	ccd30313          	addi	t1,t1,-819
    80005cd0:	00c31313          	slli	t1,t1,0xc
    80005cd4:	99f30313          	addi	t1,t1,-1633
    80005cd8:	00b30463          	beq	t1,a1,80005ce0 <inst_436>
    80005cdc:	b48fa06f          	j	80000024 <rvtest_error>

0000000080005ce0 <inst_436>:
    80005ce0:	33333537          	lui	a0,0x33333
    80005ce4:	33350513          	addi	a0,a0,819 # 33333333 <absimmsh+0x27862586>
    80005ce8:	00b51513          	slli	a0,a0,0xb
    80005cec:	19950513          	addi	a0,a0,409
    80005cf0:	00b51513          	slli	a0,a0,0xb
    80005cf4:	4cc50513          	addi	a0,a0,1228
    80005cf8:	00a51513          	slli	a0,a0,0xa
    80005cfc:	33450513          	addi	a0,a0,820
    80005d00:	00654593          	xori	a1,a0,6
    80005d04:	50b23023          	sd	a1,1280(tp) # 500 <offset+0x220>
    80005d08:	03333337          	lui	t1,0x3333
    80005d0c:	3333031b          	addiw	t1,t1,819 # 3333333 <offset+0x3333053>
    80005d10:	00c31313          	slli	t1,t1,0xc
    80005d14:	33330313          	addi	t1,t1,819
    80005d18:	00c31313          	slli	t1,t1,0xc
    80005d1c:	33330313          	addi	t1,t1,819
    80005d20:	00c31313          	slli	t1,t1,0xc
    80005d24:	33230313          	addi	t1,t1,818
    80005d28:	00b30463          	beq	t1,a1,80005d30 <inst_437>
    80005d2c:	af8fa06f          	j	80000024 <rvtest_error>

0000000080005d30 <inst_437>:
    80005d30:	33333537          	lui	a0,0x33333
    80005d34:	33350513          	addi	a0,a0,819 # 33333333 <absimmsh+0x27862586>
    80005d38:	00b51513          	slli	a0,a0,0xb
    80005d3c:	19950513          	addi	a0,a0,409
    80005d40:	00b51513          	slli	a0,a0,0xb
    80005d44:	4cc50513          	addi	a0,a0,1228
    80005d48:	00a51513          	slli	a0,a0,0xa
    80005d4c:	33450513          	addi	a0,a0,820
    80005d50:	33454593          	xori	a1,a0,820
    80005d54:	50b23423          	sd	a1,1288(tp) # 508 <offset+0x228>
    80005d58:	03333337          	lui	t1,0x3333
    80005d5c:	3333031b          	addiw	t1,t1,819 # 3333333 <offset+0x3333053>
    80005d60:	00c31313          	slli	t1,t1,0xc
    80005d64:	33330313          	addi	t1,t1,819
    80005d68:	00c31313          	slli	t1,t1,0xc
    80005d6c:	33330313          	addi	t1,t1,819
    80005d70:	00c31313          	slli	t1,t1,0xc
    80005d74:	00b30463          	beq	t1,a1,80005d7c <inst_438>
    80005d78:	aacfa06f          	j	80000024 <rvtest_error>

0000000080005d7c <inst_438>:
    80005d7c:	33333537          	lui	a0,0x33333
    80005d80:	33350513          	addi	a0,a0,819 # 33333333 <absimmsh+0x27862586>
    80005d84:	00b51513          	slli	a0,a0,0xb
    80005d88:	19950513          	addi	a0,a0,409
    80005d8c:	00b51513          	slli	a0,a0,0xb
    80005d90:	4cc50513          	addi	a0,a0,1228
    80005d94:	00a51513          	slli	a0,a0,0xa
    80005d98:	33450513          	addi	a0,a0,820
    80005d9c:	66754593          	xori	a1,a0,1639
    80005da0:	50b23823          	sd	a1,1296(tp) # 510 <offset+0x230>
    80005da4:	03333337          	lui	t1,0x3333
    80005da8:	3333031b          	addiw	t1,t1,819 # 3333333 <offset+0x3333053>
    80005dac:	00c31313          	slli	t1,t1,0xc
    80005db0:	33330313          	addi	t1,t1,819
    80005db4:	00c31313          	slli	t1,t1,0xc
    80005db8:	33330313          	addi	t1,t1,819
    80005dbc:	00c31313          	slli	t1,t1,0xc
    80005dc0:	55330313          	addi	t1,t1,1363
    80005dc4:	00b30463          	beq	t1,a1,80005dcc <inst_439>
    80005dc8:	a5cfa06f          	j	80000024 <rvtest_error>

0000000080005dcc <inst_439>:
    80005dcc:	33333537          	lui	a0,0x33333
    80005dd0:	33350513          	addi	a0,a0,819 # 33333333 <absimmsh+0x27862586>
    80005dd4:	00b51513          	slli	a0,a0,0xb
    80005dd8:	19950513          	addi	a0,a0,409
    80005ddc:	00b51513          	slli	a0,a0,0xb
    80005de0:	4cc50513          	addi	a0,a0,1228
    80005de4:	00a51513          	slli	a0,a0,0xa
    80005de8:	33450513          	addi	a0,a0,820
    80005dec:	fd454593          	xori	a1,a0,-44
    80005df0:	50b23c23          	sd	a1,1304(tp) # 518 <offset+0x238>
    80005df4:	fcccd337          	lui	t1,0xfcccd
    80005df8:	ccd3031b          	addiw	t1,t1,-819 # fffffffffccccccd <absimm+0xffffffff41fbf1fd>
    80005dfc:	00c31313          	slli	t1,t1,0xc
    80005e00:	ccd30313          	addi	t1,t1,-819
    80005e04:	00c31313          	slli	t1,t1,0xc
    80005e08:	ccd30313          	addi	t1,t1,-819
    80005e0c:	00c31313          	slli	t1,t1,0xc
    80005e10:	ce030313          	addi	t1,t1,-800
    80005e14:	00b30463          	beq	t1,a1,80005e1c <inst_440>
    80005e18:	a0cfa06f          	j	80000024 <rvtest_error>

0000000080005e1c <inst_440>:
    80005e1c:	33333537          	lui	a0,0x33333
    80005e20:	33350513          	addi	a0,a0,819 # 33333333 <absimmsh+0x27862586>
    80005e24:	00b51513          	slli	a0,a0,0xb
    80005e28:	19950513          	addi	a0,a0,409
    80005e2c:	00b51513          	slli	a0,a0,0xb
    80005e30:	4cc50513          	addi	a0,a0,1228
    80005e34:	00a51513          	slli	a0,a0,0xa
    80005e38:	33450513          	addi	a0,a0,820
    80005e3c:	02e54593          	xori	a1,a0,46
    80005e40:	52b23023          	sd	a1,1312(tp) # 520 <offset+0x240>
    80005e44:	03333337          	lui	t1,0x3333
    80005e48:	3333031b          	addiw	t1,t1,819 # 3333333 <offset+0x3333053>
    80005e4c:	00c31313          	slli	t1,t1,0xc
    80005e50:	33330313          	addi	t1,t1,819
    80005e54:	00c31313          	slli	t1,t1,0xc
    80005e58:	33330313          	addi	t1,t1,819
    80005e5c:	00c31313          	slli	t1,t1,0xc
    80005e60:	31a30313          	addi	t1,t1,794
    80005e64:	00b30463          	beq	t1,a1,80005e6c <inst_441>
    80005e68:	9bcfa06f          	j	80000024 <rvtest_error>

0000000080005e6c <inst_441>:
    80005e6c:	66666537          	lui	a0,0x66666
    80005e70:	66650513          	addi	a0,a0,1638 # 66666666 <absimmsh+0x5ab958b9>
    80005e74:	00b51513          	slli	a0,a0,0xb
    80005e78:	33350513          	addi	a0,a0,819
    80005e7c:	00b51513          	slli	a0,a0,0xb
    80005e80:	19950513          	addi	a0,a0,409
    80005e84:	00a51513          	slli	a0,a0,0xa
    80005e88:	26750513          	addi	a0,a0,615
    80005e8c:	00354593          	xori	a1,a0,3
    80005e90:	52b23423          	sd	a1,1320(tp) # 528 <offset+0x248>
    80005e94:	03333337          	lui	t1,0x3333
    80005e98:	3333031b          	addiw	t1,t1,819 # 3333333 <offset+0x3333053>
    80005e9c:	00c31313          	slli	t1,t1,0xc
    80005ea0:	33330313          	addi	t1,t1,819
    80005ea4:	00c31313          	slli	t1,t1,0xc
    80005ea8:	33330313          	addi	t1,t1,819
    80005eac:	00d31313          	slli	t1,t1,0xd
    80005eb0:	66430313          	addi	t1,t1,1636
    80005eb4:	00b30463          	beq	t1,a1,80005ebc <inst_442>
    80005eb8:	96cfa06f          	j	80000024 <rvtest_error>

0000000080005ebc <inst_442>:
    80005ebc:	66666537          	lui	a0,0x66666
    80005ec0:	66650513          	addi	a0,a0,1638 # 66666666 <absimmsh+0x5ab958b9>
    80005ec4:	00b51513          	slli	a0,a0,0xb
    80005ec8:	33350513          	addi	a0,a0,819
    80005ecc:	00b51513          	slli	a0,a0,0xb
    80005ed0:	19950513          	addi	a0,a0,409
    80005ed4:	00a51513          	slli	a0,a0,0xa
    80005ed8:	26750513          	addi	a0,a0,615
    80005edc:	55554593          	xori	a1,a0,1365
    80005ee0:	52b23823          	sd	a1,1328(tp) # 530 <offset+0x250>
    80005ee4:	03333337          	lui	t1,0x3333
    80005ee8:	3333031b          	addiw	t1,t1,819 # 3333333 <offset+0x3333053>
    80005eec:	00c31313          	slli	t1,t1,0xc
    80005ef0:	33330313          	addi	t1,t1,819
    80005ef4:	00c31313          	slli	t1,t1,0xc
    80005ef8:	33330313          	addi	t1,t1,819
    80005efc:	00d31313          	slli	t1,t1,0xd
    80005f00:	33230313          	addi	t1,t1,818
    80005f04:	00b30463          	beq	t1,a1,80005f0c <inst_443>
    80005f08:	91cfa06f          	j	80000024 <rvtest_error>

0000000080005f0c <inst_443>:
    80005f0c:	66666537          	lui	a0,0x66666
    80005f10:	66650513          	addi	a0,a0,1638 # 66666666 <absimmsh+0x5ab958b9>
    80005f14:	00b51513          	slli	a0,a0,0xb
    80005f18:	33350513          	addi	a0,a0,819
    80005f1c:	00b51513          	slli	a0,a0,0xb
    80005f20:	19950513          	addi	a0,a0,409
    80005f24:	00a51513          	slli	a0,a0,0xa
    80005f28:	26750513          	addi	a0,a0,615
    80005f2c:	aaa54593          	xori	a1,a0,-1366
    80005f30:	52b23c23          	sd	a1,1336(tp) # 538 <offset+0x258>
    80005f34:	fcccd337          	lui	t1,0xfcccd
    80005f38:	ccd3031b          	addiw	t1,t1,-819 # fffffffffccccccd <absimm+0xffffffff41fbf1fd>
    80005f3c:	00c31313          	slli	t1,t1,0xc
    80005f40:	ccd30313          	addi	t1,t1,-819
    80005f44:	00c31313          	slli	t1,t1,0xc
    80005f48:	ccd30313          	addi	t1,t1,-819
    80005f4c:	00d31313          	slli	t1,t1,0xd
    80005f50:	ccd30313          	addi	t1,t1,-819
    80005f54:	00b30463          	beq	t1,a1,80005f5c <inst_444>
    80005f58:	8ccfa06f          	j	80000024 <rvtest_error>

0000000080005f5c <inst_444>:
    80005f5c:	66666537          	lui	a0,0x66666
    80005f60:	66650513          	addi	a0,a0,1638 # 66666666 <absimmsh+0x5ab958b9>
    80005f64:	00b51513          	slli	a0,a0,0xb
    80005f68:	33350513          	addi	a0,a0,819
    80005f6c:	00b51513          	slli	a0,a0,0xb
    80005f70:	19950513          	addi	a0,a0,409
    80005f74:	00a51513          	slli	a0,a0,0xa
    80005f78:	26750513          	addi	a0,a0,615
    80005f7c:	00554593          	xori	a1,a0,5
    80005f80:	54b23023          	sd	a1,1344(tp) # 540 <offset+0x260>
    80005f84:	03333337          	lui	t1,0x3333
    80005f88:	3333031b          	addiw	t1,t1,819 # 3333333 <offset+0x3333053>
    80005f8c:	00c31313          	slli	t1,t1,0xc
    80005f90:	33330313          	addi	t1,t1,819
    80005f94:	00c31313          	slli	t1,t1,0xc
    80005f98:	33330313          	addi	t1,t1,819
    80005f9c:	00d31313          	slli	t1,t1,0xd
    80005fa0:	66230313          	addi	t1,t1,1634
    80005fa4:	00b30463          	beq	t1,a1,80005fac <inst_445>
    80005fa8:	87cfa06f          	j	80000024 <rvtest_error>

0000000080005fac <inst_445>:
    80005fac:	66666537          	lui	a0,0x66666
    80005fb0:	66650513          	addi	a0,a0,1638 # 66666666 <absimmsh+0x5ab958b9>
    80005fb4:	00b51513          	slli	a0,a0,0xb
    80005fb8:	33350513          	addi	a0,a0,819
    80005fbc:	00b51513          	slli	a0,a0,0xb
    80005fc0:	19950513          	addi	a0,a0,409
    80005fc4:	00a51513          	slli	a0,a0,0xa
    80005fc8:	26750513          	addi	a0,a0,615
    80005fcc:	33354593          	xori	a1,a0,819
    80005fd0:	54b23423          	sd	a1,1352(tp) # 548 <offset+0x268>
    80005fd4:	03333337          	lui	t1,0x3333
    80005fd8:	3333031b          	addiw	t1,t1,819 # 3333333 <offset+0x3333053>
    80005fdc:	00c31313          	slli	t1,t1,0xc
    80005fe0:	33330313          	addi	t1,t1,819
    80005fe4:	00c31313          	slli	t1,t1,0xc
    80005fe8:	33330313          	addi	t1,t1,819
    80005fec:	00d31313          	slli	t1,t1,0xd
    80005ff0:	55430313          	addi	t1,t1,1364
    80005ff4:	00b30463          	beq	t1,a1,80005ffc <inst_446>
    80005ff8:	82cfa06f          	j	80000024 <rvtest_error>

0000000080005ffc <inst_446>:
    80005ffc:	66666537          	lui	a0,0x66666
    80006000:	66650513          	addi	a0,a0,1638 # 66666666 <absimmsh+0x5ab958b9>
    80006004:	00b51513          	slli	a0,a0,0xb
    80006008:	33350513          	addi	a0,a0,819
    8000600c:	00b51513          	slli	a0,a0,0xb
    80006010:	19950513          	addi	a0,a0,409
    80006014:	00a51513          	slli	a0,a0,0xa
    80006018:	26750513          	addi	a0,a0,615
    8000601c:	66654593          	xori	a1,a0,1638
    80006020:	54b23823          	sd	a1,1360(tp) # 550 <offset+0x270>
    80006024:	03333337          	lui	t1,0x3333
    80006028:	3333031b          	addiw	t1,t1,819 # 3333333 <offset+0x3333053>
    8000602c:	00c31313          	slli	t1,t1,0xc
    80006030:	33330313          	addi	t1,t1,819
    80006034:	00c31313          	slli	t1,t1,0xc
    80006038:	33330313          	addi	t1,t1,819
    8000603c:	00d31313          	slli	t1,t1,0xd
    80006040:	00130313          	addi	t1,t1,1
    80006044:	00b30463          	beq	t1,a1,8000604c <inst_447>
    80006048:	fddf906f          	j	80000024 <rvtest_error>

000000008000604c <inst_447>:
    8000604c:	66666537          	lui	a0,0x66666
    80006050:	66650513          	addi	a0,a0,1638 # 66666666 <absimmsh+0x5ab958b9>
    80006054:	00b51513          	slli	a0,a0,0xb
    80006058:	33350513          	addi	a0,a0,819
    8000605c:	00b51513          	slli	a0,a0,0xb
    80006060:	19950513          	addi	a0,a0,409
    80006064:	00a51513          	slli	a0,a0,0xa
    80006068:	26750513          	addi	a0,a0,615
    8000606c:	fd354593          	xori	a1,a0,-45
    80006070:	54b23c23          	sd	a1,1368(tp) # 558 <offset+0x278>
    80006074:	fcccd337          	lui	t1,0xfcccd
    80006078:	ccd3031b          	addiw	t1,t1,-819 # fffffffffccccccd <absimm+0xffffffff41fbf1fd>
    8000607c:	00c31313          	slli	t1,t1,0xc
    80006080:	ccd30313          	addi	t1,t1,-819
    80006084:	00c31313          	slli	t1,t1,0xc
    80006088:	ccd30313          	addi	t1,t1,-819
    8000608c:	00d31313          	slli	t1,t1,0xd
    80006090:	9b430313          	addi	t1,t1,-1612
    80006094:	00b30463          	beq	t1,a1,8000609c <inst_448>
    80006098:	f8df906f          	j	80000024 <rvtest_error>

000000008000609c <inst_448>:
    8000609c:	66666537          	lui	a0,0x66666
    800060a0:	66650513          	addi	a0,a0,1638 # 66666666 <absimmsh+0x5ab958b9>
    800060a4:	00b51513          	slli	a0,a0,0xb
    800060a8:	33350513          	addi	a0,a0,819
    800060ac:	00b51513          	slli	a0,a0,0xb
    800060b0:	19950513          	addi	a0,a0,409
    800060b4:	00a51513          	slli	a0,a0,0xa
    800060b8:	26750513          	addi	a0,a0,615
    800060bc:	02d54593          	xori	a1,a0,45
    800060c0:	56b23023          	sd	a1,1376(tp) # 560 <offset+0x280>
    800060c4:	03333337          	lui	t1,0x3333
    800060c8:	3333031b          	addiw	t1,t1,819 # 3333333 <offset+0x3333053>
    800060cc:	00c31313          	slli	t1,t1,0xc
    800060d0:	33330313          	addi	t1,t1,819
    800060d4:	00c31313          	slli	t1,t1,0xc
    800060d8:	33330313          	addi	t1,t1,819
    800060dc:	00d31313          	slli	t1,t1,0xd
    800060e0:	64a30313          	addi	t1,t1,1610
    800060e4:	00b30463          	beq	t1,a1,800060ec <inst_449>
    800060e8:	f3df906f          	j	80000024 <rvtest_error>

00000000800060ec <inst_449>:
    800060ec:	66666537          	lui	a0,0x66666
    800060f0:	66650513          	addi	a0,a0,1638 # 66666666 <absimmsh+0x5ab958b9>
    800060f4:	00b51513          	slli	a0,a0,0xb
    800060f8:	33350513          	addi	a0,a0,819
    800060fc:	00b51513          	slli	a0,a0,0xb
    80006100:	19950513          	addi	a0,a0,409
    80006104:	00a51513          	slli	a0,a0,0xa
    80006108:	26750513          	addi	a0,a0,615
    8000610c:	00254593          	xori	a1,a0,2
    80006110:	56b23423          	sd	a1,1384(tp) # 568 <offset+0x288>
    80006114:	03333337          	lui	t1,0x3333
    80006118:	3333031b          	addiw	t1,t1,819 # 3333333 <offset+0x3333053>
    8000611c:	00c31313          	slli	t1,t1,0xc
    80006120:	33330313          	addi	t1,t1,819
    80006124:	00c31313          	slli	t1,t1,0xc
    80006128:	33330313          	addi	t1,t1,819
    8000612c:	00d31313          	slli	t1,t1,0xd
    80006130:	66530313          	addi	t1,t1,1637
    80006134:	00b30463          	beq	t1,a1,8000613c <inst_450>
    80006138:	eedf906f          	j	80000024 <rvtest_error>

000000008000613c <inst_450>:
    8000613c:	66666537          	lui	a0,0x66666
    80006140:	66650513          	addi	a0,a0,1638 # 66666666 <absimmsh+0x5ab958b9>
    80006144:	00b51513          	slli	a0,a0,0xb
    80006148:	33350513          	addi	a0,a0,819
    8000614c:	00b51513          	slli	a0,a0,0xb
    80006150:	19950513          	addi	a0,a0,409
    80006154:	00a51513          	slli	a0,a0,0xa
    80006158:	26750513          	addi	a0,a0,615
    8000615c:	55454593          	xori	a1,a0,1364
    80006160:	56b23823          	sd	a1,1392(tp) # 570 <offset+0x290>
    80006164:	03333337          	lui	t1,0x3333
    80006168:	3333031b          	addiw	t1,t1,819 # 3333333 <offset+0x3333053>
    8000616c:	00c31313          	slli	t1,t1,0xc
    80006170:	33330313          	addi	t1,t1,819
    80006174:	00c31313          	slli	t1,t1,0xc
    80006178:	33330313          	addi	t1,t1,819
    8000617c:	00d31313          	slli	t1,t1,0xd
    80006180:	33330313          	addi	t1,t1,819
    80006184:	00b30463          	beq	t1,a1,8000618c <inst_451>
    80006188:	e9df906f          	j	80000024 <rvtest_error>

000000008000618c <inst_451>:
    8000618c:	66666537          	lui	a0,0x66666
    80006190:	66650513          	addi	a0,a0,1638 # 66666666 <absimmsh+0x5ab958b9>
    80006194:	00b51513          	slli	a0,a0,0xb
    80006198:	33350513          	addi	a0,a0,819
    8000619c:	00b51513          	slli	a0,a0,0xb
    800061a0:	19950513          	addi	a0,a0,409
    800061a4:	00a51513          	slli	a0,a0,0xa
    800061a8:	26750513          	addi	a0,a0,615
    800061ac:	00054593          	xori	a1,a0,0
    800061b0:	56b23c23          	sd	a1,1400(tp) # 578 <offset+0x298>
    800061b4:	03333337          	lui	t1,0x3333
    800061b8:	3333031b          	addiw	t1,t1,819 # 3333333 <offset+0x3333053>
    800061bc:	00c31313          	slli	t1,t1,0xc
    800061c0:	33330313          	addi	t1,t1,819
    800061c4:	00c31313          	slli	t1,t1,0xc
    800061c8:	33330313          	addi	t1,t1,819
    800061cc:	00d31313          	slli	t1,t1,0xd
    800061d0:	66730313          	addi	t1,t1,1639
    800061d4:	00b30463          	beq	t1,a1,800061dc <inst_452>
    800061d8:	e4df906f          	j	80000024 <rvtest_error>

00000000800061dc <inst_452>:
    800061dc:	66666537          	lui	a0,0x66666
    800061e0:	66650513          	addi	a0,a0,1638 # 66666666 <absimmsh+0x5ab958b9>
    800061e4:	00b51513          	slli	a0,a0,0xb
    800061e8:	33350513          	addi	a0,a0,819
    800061ec:	00b51513          	slli	a0,a0,0xb
    800061f0:	19950513          	addi	a0,a0,409
    800061f4:	00a51513          	slli	a0,a0,0xa
    800061f8:	26750513          	addi	a0,a0,615
    800061fc:	00454593          	xori	a1,a0,4
    80006200:	58b23023          	sd	a1,1408(tp) # 580 <offset+0x2a0>
    80006204:	03333337          	lui	t1,0x3333
    80006208:	3333031b          	addiw	t1,t1,819 # 3333333 <offset+0x3333053>
    8000620c:	00c31313          	slli	t1,t1,0xc
    80006210:	33330313          	addi	t1,t1,819
    80006214:	00c31313          	slli	t1,t1,0xc
    80006218:	33330313          	addi	t1,t1,819
    8000621c:	00d31313          	slli	t1,t1,0xd
    80006220:	66330313          	addi	t1,t1,1635
    80006224:	00b30463          	beq	t1,a1,8000622c <inst_453>
    80006228:	dfdf906f          	j	80000024 <rvtest_error>

000000008000622c <inst_453>:
    8000622c:	66666537          	lui	a0,0x66666
    80006230:	66650513          	addi	a0,a0,1638 # 66666666 <absimmsh+0x5ab958b9>
    80006234:	00b51513          	slli	a0,a0,0xb
    80006238:	33350513          	addi	a0,a0,819
    8000623c:	00b51513          	slli	a0,a0,0xb
    80006240:	19950513          	addi	a0,a0,409
    80006244:	00a51513          	slli	a0,a0,0xa
    80006248:	26750513          	addi	a0,a0,615
    8000624c:	33254593          	xori	a1,a0,818
    80006250:	58b23423          	sd	a1,1416(tp) # 588 <offset+0x2a8>
    80006254:	03333337          	lui	t1,0x3333
    80006258:	3333031b          	addiw	t1,t1,819 # 3333333 <offset+0x3333053>
    8000625c:	00c31313          	slli	t1,t1,0xc
    80006260:	33330313          	addi	t1,t1,819
    80006264:	00c31313          	slli	t1,t1,0xc
    80006268:	33330313          	addi	t1,t1,819
    8000626c:	00d31313          	slli	t1,t1,0xd
    80006270:	55530313          	addi	t1,t1,1365
    80006274:	00b30463          	beq	t1,a1,8000627c <inst_454>
    80006278:	dadf906f          	j	80000024 <rvtest_error>

000000008000627c <inst_454>:
    8000627c:	66666537          	lui	a0,0x66666
    80006280:	66650513          	addi	a0,a0,1638 # 66666666 <absimmsh+0x5ab958b9>
    80006284:	00b51513          	slli	a0,a0,0xb
    80006288:	33350513          	addi	a0,a0,819
    8000628c:	00b51513          	slli	a0,a0,0xb
    80006290:	19950513          	addi	a0,a0,409
    80006294:	00a51513          	slli	a0,a0,0xa
    80006298:	26750513          	addi	a0,a0,615
    8000629c:	66554593          	xori	a1,a0,1637
    800062a0:	58b23823          	sd	a1,1424(tp) # 590 <offset+0x2b0>
    800062a4:	03333337          	lui	t1,0x3333
    800062a8:	3333031b          	addiw	t1,t1,819 # 3333333 <offset+0x3333053>
    800062ac:	00c31313          	slli	t1,t1,0xc
    800062b0:	33330313          	addi	t1,t1,819
    800062b4:	00c31313          	slli	t1,t1,0xc
    800062b8:	33330313          	addi	t1,t1,819
    800062bc:	00d31313          	slli	t1,t1,0xd
    800062c0:	00230313          	addi	t1,t1,2
    800062c4:	00b30463          	beq	t1,a1,800062cc <inst_455>
    800062c8:	d5df906f          	j	80000024 <rvtest_error>

00000000800062cc <inst_455>:
    800062cc:	66666537          	lui	a0,0x66666
    800062d0:	66650513          	addi	a0,a0,1638 # 66666666 <absimmsh+0x5ab958b9>
    800062d4:	00b51513          	slli	a0,a0,0xb
    800062d8:	33350513          	addi	a0,a0,819
    800062dc:	00b51513          	slli	a0,a0,0xb
    800062e0:	19950513          	addi	a0,a0,409
    800062e4:	00a51513          	slli	a0,a0,0xa
    800062e8:	26750513          	addi	a0,a0,615
    800062ec:	02c54593          	xori	a1,a0,44
    800062f0:	58b23c23          	sd	a1,1432(tp) # 598 <offset+0x2b8>
    800062f4:	03333337          	lui	t1,0x3333
    800062f8:	3333031b          	addiw	t1,t1,819 # 3333333 <offset+0x3333053>
    800062fc:	00c31313          	slli	t1,t1,0xc
    80006300:	33330313          	addi	t1,t1,819
    80006304:	00c31313          	slli	t1,t1,0xc
    80006308:	33330313          	addi	t1,t1,819
    8000630c:	00d31313          	slli	t1,t1,0xd
    80006310:	64b30313          	addi	t1,t1,1611
    80006314:	00b30463          	beq	t1,a1,8000631c <inst_456>
    80006318:	d0df906f          	j	80000024 <rvtest_error>

000000008000631c <inst_456>:
    8000631c:	66666537          	lui	a0,0x66666
    80006320:	66650513          	addi	a0,a0,1638 # 66666666 <absimmsh+0x5ab958b9>
    80006324:	00b51513          	slli	a0,a0,0xb
    80006328:	33350513          	addi	a0,a0,819
    8000632c:	00b51513          	slli	a0,a0,0xb
    80006330:	19950513          	addi	a0,a0,409
    80006334:	00a51513          	slli	a0,a0,0xa
    80006338:	26750513          	addi	a0,a0,615
    8000633c:	55654593          	xori	a1,a0,1366
    80006340:	5ab23023          	sd	a1,1440(tp) # 5a0 <offset+0x2c0>
    80006344:	03333337          	lui	t1,0x3333
    80006348:	3333031b          	addiw	t1,t1,819 # 3333333 <offset+0x3333053>
    8000634c:	00c31313          	slli	t1,t1,0xc
    80006350:	33330313          	addi	t1,t1,819
    80006354:	00c31313          	slli	t1,t1,0xc
    80006358:	33330313          	addi	t1,t1,819
    8000635c:	00d31313          	slli	t1,t1,0xd
    80006360:	33130313          	addi	t1,t1,817
    80006364:	00b30463          	beq	t1,a1,8000636c <inst_457>
    80006368:	cbdf906f          	j	80000024 <rvtest_error>

000000008000636c <inst_457>:
    8000636c:	66666537          	lui	a0,0x66666
    80006370:	66650513          	addi	a0,a0,1638 # 66666666 <absimmsh+0x5ab958b9>
    80006374:	00b51513          	slli	a0,a0,0xb
    80006378:	33350513          	addi	a0,a0,819
    8000637c:	00b51513          	slli	a0,a0,0xb
    80006380:	19950513          	addi	a0,a0,409
    80006384:	00a51513          	slli	a0,a0,0xa
    80006388:	26750513          	addi	a0,a0,615
    8000638c:	aab54593          	xori	a1,a0,-1365
    80006390:	5ab23423          	sd	a1,1448(tp) # 5a8 <offset+0x2c8>
    80006394:	fcccd337          	lui	t1,0xfcccd
    80006398:	ccd3031b          	addiw	t1,t1,-819 # fffffffffccccccd <absimm+0xffffffff41fbf1fd>
    8000639c:	00c31313          	slli	t1,t1,0xc
    800063a0:	ccd30313          	addi	t1,t1,-819
    800063a4:	00c31313          	slli	t1,t1,0xc
    800063a8:	ccd30313          	addi	t1,t1,-819
    800063ac:	00d31313          	slli	t1,t1,0xd
    800063b0:	ccc30313          	addi	t1,t1,-820
    800063b4:	00b30463          	beq	t1,a1,800063bc <inst_458>
    800063b8:	c6df906f          	j	80000024 <rvtest_error>

00000000800063bc <inst_458>:
    800063bc:	66666537          	lui	a0,0x66666
    800063c0:	66650513          	addi	a0,a0,1638 # 66666666 <absimmsh+0x5ab958b9>
    800063c4:	00b51513          	slli	a0,a0,0xb
    800063c8:	33350513          	addi	a0,a0,819
    800063cc:	00b51513          	slli	a0,a0,0xb
    800063d0:	19950513          	addi	a0,a0,409
    800063d4:	00a51513          	slli	a0,a0,0xa
    800063d8:	26750513          	addi	a0,a0,615
    800063dc:	00654593          	xori	a1,a0,6
    800063e0:	5ab23823          	sd	a1,1456(tp) # 5b0 <offset+0x2d0>
    800063e4:	03333337          	lui	t1,0x3333
    800063e8:	3333031b          	addiw	t1,t1,819 # 3333333 <offset+0x3333053>
    800063ec:	00c31313          	slli	t1,t1,0xc
    800063f0:	33330313          	addi	t1,t1,819
    800063f4:	00c31313          	slli	t1,t1,0xc
    800063f8:	33330313          	addi	t1,t1,819
    800063fc:	00d31313          	slli	t1,t1,0xd
    80006400:	66130313          	addi	t1,t1,1633
    80006404:	00b30463          	beq	t1,a1,8000640c <inst_459>
    80006408:	c1df906f          	j	80000024 <rvtest_error>

000000008000640c <inst_459>:
    8000640c:	66666537          	lui	a0,0x66666
    80006410:	66650513          	addi	a0,a0,1638 # 66666666 <absimmsh+0x5ab958b9>
    80006414:	00b51513          	slli	a0,a0,0xb
    80006418:	33350513          	addi	a0,a0,819
    8000641c:	00b51513          	slli	a0,a0,0xb
    80006420:	19950513          	addi	a0,a0,409
    80006424:	00a51513          	slli	a0,a0,0xa
    80006428:	26750513          	addi	a0,a0,615
    8000642c:	33454593          	xori	a1,a0,820
    80006430:	5ab23c23          	sd	a1,1464(tp) # 5b8 <offset+0x2d8>
    80006434:	03333337          	lui	t1,0x3333
    80006438:	3333031b          	addiw	t1,t1,819 # 3333333 <offset+0x3333053>
    8000643c:	00c31313          	slli	t1,t1,0xc
    80006440:	33330313          	addi	t1,t1,819
    80006444:	00c31313          	slli	t1,t1,0xc
    80006448:	33330313          	addi	t1,t1,819
    8000644c:	00d31313          	slli	t1,t1,0xd
    80006450:	55330313          	addi	t1,t1,1363
    80006454:	00b30463          	beq	t1,a1,8000645c <inst_460>
    80006458:	bcdf906f          	j	80000024 <rvtest_error>

000000008000645c <inst_460>:
    8000645c:	66666537          	lui	a0,0x66666
    80006460:	66650513          	addi	a0,a0,1638 # 66666666 <absimmsh+0x5ab958b9>
    80006464:	00b51513          	slli	a0,a0,0xb
    80006468:	33350513          	addi	a0,a0,819
    8000646c:	00b51513          	slli	a0,a0,0xb
    80006470:	19950513          	addi	a0,a0,409
    80006474:	00a51513          	slli	a0,a0,0xa
    80006478:	26750513          	addi	a0,a0,615
    8000647c:	66754593          	xori	a1,a0,1639
    80006480:	5cb23023          	sd	a1,1472(tp) # 5c0 <offset+0x2e0>
    80006484:	03333337          	lui	t1,0x3333
    80006488:	3333031b          	addiw	t1,t1,819 # 3333333 <offset+0x3333053>
    8000648c:	00c31313          	slli	t1,t1,0xc
    80006490:	33330313          	addi	t1,t1,819
    80006494:	00c31313          	slli	t1,t1,0xc
    80006498:	33330313          	addi	t1,t1,819
    8000649c:	00d31313          	slli	t1,t1,0xd
    800064a0:	00b30463          	beq	t1,a1,800064a8 <inst_461>
    800064a4:	b81f906f          	j	80000024 <rvtest_error>

00000000800064a8 <inst_461>:
    800064a8:	66666537          	lui	a0,0x66666
    800064ac:	66650513          	addi	a0,a0,1638 # 66666666 <absimmsh+0x5ab958b9>
    800064b0:	00b51513          	slli	a0,a0,0xb
    800064b4:	33350513          	addi	a0,a0,819
    800064b8:	00b51513          	slli	a0,a0,0xb
    800064bc:	19950513          	addi	a0,a0,409
    800064c0:	00a51513          	slli	a0,a0,0xa
    800064c4:	26750513          	addi	a0,a0,615
    800064c8:	fd454593          	xori	a1,a0,-44
    800064cc:	5cb23423          	sd	a1,1480(tp) # 5c8 <offset+0x2e8>
    800064d0:	fcccd337          	lui	t1,0xfcccd
    800064d4:	ccd3031b          	addiw	t1,t1,-819 # fffffffffccccccd <absimm+0xffffffff41fbf1fd>
    800064d8:	00c31313          	slli	t1,t1,0xc
    800064dc:	ccd30313          	addi	t1,t1,-819
    800064e0:	00c31313          	slli	t1,t1,0xc
    800064e4:	ccd30313          	addi	t1,t1,-819
    800064e8:	00d31313          	slli	t1,t1,0xd
    800064ec:	9b330313          	addi	t1,t1,-1613
    800064f0:	00b30463          	beq	t1,a1,800064f8 <inst_462>
    800064f4:	b31f906f          	j	80000024 <rvtest_error>

00000000800064f8 <inst_462>:
    800064f8:	66666537          	lui	a0,0x66666
    800064fc:	66650513          	addi	a0,a0,1638 # 66666666 <absimmsh+0x5ab958b9>
    80006500:	00b51513          	slli	a0,a0,0xb
    80006504:	33350513          	addi	a0,a0,819
    80006508:	00b51513          	slli	a0,a0,0xb
    8000650c:	19950513          	addi	a0,a0,409
    80006510:	00a51513          	slli	a0,a0,0xa
    80006514:	26750513          	addi	a0,a0,615
    80006518:	02e54593          	xori	a1,a0,46
    8000651c:	5cb23823          	sd	a1,1488(tp) # 5d0 <offset+0x2f0>
    80006520:	03333337          	lui	t1,0x3333
    80006524:	3333031b          	addiw	t1,t1,819 # 3333333 <offset+0x3333053>
    80006528:	00c31313          	slli	t1,t1,0xc
    8000652c:	33330313          	addi	t1,t1,819
    80006530:	00c31313          	slli	t1,t1,0xc
    80006534:	33330313          	addi	t1,t1,819
    80006538:	00d31313          	slli	t1,t1,0xd
    8000653c:	64930313          	addi	t1,t1,1609
    80006540:	00b30463          	beq	t1,a1,80006548 <inst_463>
    80006544:	ae1f906f          	j	80000024 <rvtest_error>

0000000080006548 <inst_463>:
    80006548:	00000537          	lui	a0,0x0
    8000654c:	fff50513          	addi	a0,a0,-1
    80006550:	00b51513          	slli	a0,a0,0xb
    80006554:	25750513          	addi	a0,a0,599
    80006558:	00b51513          	slli	a0,a0,0xb
    8000655c:	6c350513          	addi	a0,a0,1731
    80006560:	00a51513          	slli	a0,a0,0xa
    80006564:	0ce50513          	addi	a0,a0,206
    80006568:	00354593          	xori	a1,a0,3
    8000656c:	5cb23c23          	sd	a1,1496(tp) # 5d8 <offset+0x2f8>
    80006570:	fff4b337          	lui	t1,0xfff4b
    80006574:	fb13031b          	addiw	t1,t1,-79 # fffffffffff4afb1 <absimm+0xffffffff4523d4e1>
    80006578:	00c31313          	slli	t1,t1,0xc
    8000657c:	ccd30313          	addi	t1,t1,-819
    80006580:	00b30463          	beq	t1,a1,80006588 <inst_464>
    80006584:	aa1f906f          	j	80000024 <rvtest_error>

0000000080006588 <inst_464>:
    80006588:	00000537          	lui	a0,0x0
    8000658c:	fff50513          	addi	a0,a0,-1
    80006590:	00b51513          	slli	a0,a0,0xb
    80006594:	25750513          	addi	a0,a0,599
    80006598:	00b51513          	slli	a0,a0,0xb
    8000659c:	6c350513          	addi	a0,a0,1731
    800065a0:	00a51513          	slli	a0,a0,0xa
    800065a4:	0ce50513          	addi	a0,a0,206
    800065a8:	55554593          	xori	a1,a0,1365
    800065ac:	5eb23023          	sd	a1,1504(tp) # 5e0 <offset+0x300>
    800065b0:	fff4b337          	lui	t1,0xfff4b
    800065b4:	fb13031b          	addiw	t1,t1,-79 # fffffffffff4afb1 <absimm+0xffffffff4523d4e1>
    800065b8:	00c31313          	slli	t1,t1,0xc
    800065bc:	99b30313          	addi	t1,t1,-1637
    800065c0:	00b30463          	beq	t1,a1,800065c8 <inst_465>
    800065c4:	a61f906f          	j	80000024 <rvtest_error>

00000000800065c8 <inst_465>:
    800065c8:	00000537          	lui	a0,0x0
    800065cc:	fff50513          	addi	a0,a0,-1
    800065d0:	00b51513          	slli	a0,a0,0xb
    800065d4:	25750513          	addi	a0,a0,599
    800065d8:	00b51513          	slli	a0,a0,0xb
    800065dc:	6c350513          	addi	a0,a0,1731
    800065e0:	00a51513          	slli	a0,a0,0xa
    800065e4:	0ce50513          	addi	a0,a0,206
    800065e8:	aaa54593          	xori	a1,a0,-1366
    800065ec:	5eb23423          	sd	a1,1512(tp) # 5e8 <offset+0x308>
    800065f0:	000b5337          	lui	t1,0xb5
    800065f4:	04f3031b          	addiw	t1,t1,79 # b504f <offset+0xb4d6f>
    800065f8:	00c31313          	slli	t1,t1,0xc
    800065fc:	66430313          	addi	t1,t1,1636
    80006600:	00b30463          	beq	t1,a1,80006608 <inst_466>
    80006604:	a21f906f          	j	80000024 <rvtest_error>

0000000080006608 <inst_466>:
    80006608:	00000537          	lui	a0,0x0
    8000660c:	fff50513          	addi	a0,a0,-1
    80006610:	00b51513          	slli	a0,a0,0xb
    80006614:	25750513          	addi	a0,a0,599
    80006618:	00b51513          	slli	a0,a0,0xb
    8000661c:	6c350513          	addi	a0,a0,1731
    80006620:	00a51513          	slli	a0,a0,0xa
    80006624:	0ce50513          	addi	a0,a0,206
    80006628:	00554593          	xori	a1,a0,5
    8000662c:	5eb23823          	sd	a1,1520(tp) # 5f0 <offset+0x310>
    80006630:	fff4b337          	lui	t1,0xfff4b
    80006634:	fb13031b          	addiw	t1,t1,-79 # fffffffffff4afb1 <absimm+0xffffffff4523d4e1>
    80006638:	00c31313          	slli	t1,t1,0xc
    8000663c:	ccb30313          	addi	t1,t1,-821
    80006640:	00b30463          	beq	t1,a1,80006648 <inst_467>
    80006644:	9e1f906f          	j	80000024 <rvtest_error>

0000000080006648 <inst_467>:
    80006648:	00000537          	lui	a0,0x0
    8000664c:	fff50513          	addi	a0,a0,-1
    80006650:	00b51513          	slli	a0,a0,0xb
    80006654:	25750513          	addi	a0,a0,599
    80006658:	00b51513          	slli	a0,a0,0xb
    8000665c:	6c350513          	addi	a0,a0,1731
    80006660:	00a51513          	slli	a0,a0,0xa
    80006664:	0ce50513          	addi	a0,a0,206
    80006668:	33354593          	xori	a1,a0,819
    8000666c:	5eb23c23          	sd	a1,1528(tp) # 5f8 <offset+0x318>
    80006670:	fff4b337          	lui	t1,0xfff4b
    80006674:	fb13031b          	addiw	t1,t1,-79 # fffffffffff4afb1 <absimm+0xffffffff4523d4e1>
    80006678:	00c31313          	slli	t1,t1,0xc
    8000667c:	ffd30313          	addi	t1,t1,-3
    80006680:	00b30463          	beq	t1,a1,80006688 <inst_468>
    80006684:	9a1f906f          	j	80000024 <rvtest_error>

0000000080006688 <inst_468>:
    80006688:	00000537          	lui	a0,0x0
    8000668c:	fff50513          	addi	a0,a0,-1
    80006690:	00b51513          	slli	a0,a0,0xb
    80006694:	25750513          	addi	a0,a0,599
    80006698:	00b51513          	slli	a0,a0,0xb
    8000669c:	6c350513          	addi	a0,a0,1731
    800066a0:	00a51513          	slli	a0,a0,0xa
    800066a4:	0ce50513          	addi	a0,a0,206
    800066a8:	66654593          	xori	a1,a0,1638
    800066ac:	60b23023          	sd	a1,1536(tp) # 600 <offset+0x320>
    800066b0:	fff4b337          	lui	t1,0xfff4b
    800066b4:	fb13031b          	addiw	t1,t1,-79 # fffffffffff4afb1 <absimm+0xffffffff4523d4e1>
    800066b8:	00c31313          	slli	t1,t1,0xc
    800066bc:	aa830313          	addi	t1,t1,-1368
    800066c0:	00b30463          	beq	t1,a1,800066c8 <inst_469>
    800066c4:	961f906f          	j	80000024 <rvtest_error>

00000000800066c8 <inst_469>:
    800066c8:	00000537          	lui	a0,0x0
    800066cc:	fff50513          	addi	a0,a0,-1
    800066d0:	00b51513          	slli	a0,a0,0xb
    800066d4:	25750513          	addi	a0,a0,599
    800066d8:	00b51513          	slli	a0,a0,0xb
    800066dc:	6c350513          	addi	a0,a0,1731
    800066e0:	00a51513          	slli	a0,a0,0xa
    800066e4:	0ce50513          	addi	a0,a0,206
    800066e8:	fd354593          	xori	a1,a0,-45
    800066ec:	60b23423          	sd	a1,1544(tp) # 608 <offset+0x328>
    800066f0:	000b5337          	lui	t1,0xb5
    800066f4:	04f3031b          	addiw	t1,t1,79 # b504f <offset+0xb4d6f>
    800066f8:	00c31313          	slli	t1,t1,0xc
    800066fc:	31d30313          	addi	t1,t1,797
    80006700:	00b30463          	beq	t1,a1,80006708 <inst_470>
    80006704:	921f906f          	j	80000024 <rvtest_error>

0000000080006708 <inst_470>:
    80006708:	00000537          	lui	a0,0x0
    8000670c:	fff50513          	addi	a0,a0,-1
    80006710:	00b51513          	slli	a0,a0,0xb
    80006714:	25750513          	addi	a0,a0,599
    80006718:	00b51513          	slli	a0,a0,0xb
    8000671c:	6c350513          	addi	a0,a0,1731
    80006720:	00a51513          	slli	a0,a0,0xa
    80006724:	0ce50513          	addi	a0,a0,206
    80006728:	02d54593          	xori	a1,a0,45
    8000672c:	60b23823          	sd	a1,1552(tp) # 610 <offset+0x330>
    80006730:	fff4b337          	lui	t1,0xfff4b
    80006734:	fb13031b          	addiw	t1,t1,-79 # fffffffffff4afb1 <absimm+0xffffffff4523d4e1>
    80006738:	00c31313          	slli	t1,t1,0xc
    8000673c:	ce330313          	addi	t1,t1,-797
    80006740:	00b30463          	beq	t1,a1,80006748 <inst_471>
    80006744:	8e1f906f          	j	80000024 <rvtest_error>

0000000080006748 <inst_471>:
    80006748:	00000537          	lui	a0,0x0
    8000674c:	fff50513          	addi	a0,a0,-1
    80006750:	00b51513          	slli	a0,a0,0xb
    80006754:	25750513          	addi	a0,a0,599
    80006758:	00b51513          	slli	a0,a0,0xb
    8000675c:	6c350513          	addi	a0,a0,1731
    80006760:	00a51513          	slli	a0,a0,0xa
    80006764:	0ce50513          	addi	a0,a0,206
    80006768:	00254593          	xori	a1,a0,2
    8000676c:	60b23c23          	sd	a1,1560(tp) # 618 <offset+0x338>
    80006770:	fff4b337          	lui	t1,0xfff4b
    80006774:	fb13031b          	addiw	t1,t1,-79 # fffffffffff4afb1 <absimm+0xffffffff4523d4e1>
    80006778:	00c31313          	slli	t1,t1,0xc
    8000677c:	ccc30313          	addi	t1,t1,-820
    80006780:	00b30463          	beq	t1,a1,80006788 <inst_472>
    80006784:	8a1f906f          	j	80000024 <rvtest_error>

0000000080006788 <inst_472>:
    80006788:	00000537          	lui	a0,0x0
    8000678c:	fff50513          	addi	a0,a0,-1
    80006790:	00b51513          	slli	a0,a0,0xb
    80006794:	25750513          	addi	a0,a0,599
    80006798:	00b51513          	slli	a0,a0,0xb
    8000679c:	6c350513          	addi	a0,a0,1731
    800067a0:	00a51513          	slli	a0,a0,0xa
    800067a4:	0ce50513          	addi	a0,a0,206
    800067a8:	55454593          	xori	a1,a0,1364
    800067ac:	62b23023          	sd	a1,1568(tp) # 620 <offset+0x340>
    800067b0:	fff4b337          	lui	t1,0xfff4b
    800067b4:	fb13031b          	addiw	t1,t1,-79 # fffffffffff4afb1 <absimm+0xffffffff4523d4e1>
    800067b8:	00c31313          	slli	t1,t1,0xc
    800067bc:	99a30313          	addi	t1,t1,-1638
    800067c0:	00b30463          	beq	t1,a1,800067c8 <inst_473>
    800067c4:	861f906f          	j	80000024 <rvtest_error>

00000000800067c8 <inst_473>:
    800067c8:	00000537          	lui	a0,0x0
    800067cc:	fff50513          	addi	a0,a0,-1
    800067d0:	00b51513          	slli	a0,a0,0xb
    800067d4:	25750513          	addi	a0,a0,599
    800067d8:	00b51513          	slli	a0,a0,0xb
    800067dc:	6c350513          	addi	a0,a0,1731
    800067e0:	00a51513          	slli	a0,a0,0xa
    800067e4:	0ce50513          	addi	a0,a0,206
    800067e8:	00054593          	xori	a1,a0,0
    800067ec:	62b23423          	sd	a1,1576(tp) # 628 <offset+0x348>
    800067f0:	fff4b337          	lui	t1,0xfff4b
    800067f4:	fb13031b          	addiw	t1,t1,-79 # fffffffffff4afb1 <absimm+0xffffffff4523d4e1>
    800067f8:	00c31313          	slli	t1,t1,0xc
    800067fc:	cce30313          	addi	t1,t1,-818
    80006800:	00b30463          	beq	t1,a1,80006808 <inst_474>
    80006804:	821f906f          	j	80000024 <rvtest_error>

0000000080006808 <inst_474>:
    80006808:	00000537          	lui	a0,0x0
    8000680c:	fff50513          	addi	a0,a0,-1
    80006810:	00b51513          	slli	a0,a0,0xb
    80006814:	25750513          	addi	a0,a0,599
    80006818:	00b51513          	slli	a0,a0,0xb
    8000681c:	6c350513          	addi	a0,a0,1731
    80006820:	00a51513          	slli	a0,a0,0xa
    80006824:	0ce50513          	addi	a0,a0,206
    80006828:	00454593          	xori	a1,a0,4
    8000682c:	62b23823          	sd	a1,1584(tp) # 630 <offset+0x350>
    80006830:	fff4b337          	lui	t1,0xfff4b
    80006834:	fb13031b          	addiw	t1,t1,-79 # fffffffffff4afb1 <absimm+0xffffffff4523d4e1>
    80006838:	00c31313          	slli	t1,t1,0xc
    8000683c:	cca30313          	addi	t1,t1,-822
    80006840:	00b30463          	beq	t1,a1,80006848 <inst_475>
    80006844:	fe0f906f          	j	80000024 <rvtest_error>

0000000080006848 <inst_475>:
    80006848:	00000537          	lui	a0,0x0
    8000684c:	fff50513          	addi	a0,a0,-1
    80006850:	00b51513          	slli	a0,a0,0xb
    80006854:	25750513          	addi	a0,a0,599
    80006858:	00b51513          	slli	a0,a0,0xb
    8000685c:	6c350513          	addi	a0,a0,1731
    80006860:	00a51513          	slli	a0,a0,0xa
    80006864:	0ce50513          	addi	a0,a0,206
    80006868:	33254593          	xori	a1,a0,818
    8000686c:	62b23c23          	sd	a1,1592(tp) # 638 <offset+0x358>
    80006870:	fff4b337          	lui	t1,0xfff4b
    80006874:	fb13031b          	addiw	t1,t1,-79 # fffffffffff4afb1 <absimm+0xffffffff4523d4e1>
    80006878:	00c31313          	slli	t1,t1,0xc
    8000687c:	ffc30313          	addi	t1,t1,-4
    80006880:	00b30463          	beq	t1,a1,80006888 <inst_476>
    80006884:	fa0f906f          	j	80000024 <rvtest_error>

0000000080006888 <inst_476>:
    80006888:	00000537          	lui	a0,0x0
    8000688c:	fff50513          	addi	a0,a0,-1
    80006890:	00b51513          	slli	a0,a0,0xb
    80006894:	25750513          	addi	a0,a0,599
    80006898:	00b51513          	slli	a0,a0,0xb
    8000689c:	6c350513          	addi	a0,a0,1731
    800068a0:	00a51513          	slli	a0,a0,0xa
    800068a4:	0ce50513          	addi	a0,a0,206
    800068a8:	66554593          	xori	a1,a0,1637
    800068ac:	64b23023          	sd	a1,1600(tp) # 640 <offset+0x360>
    800068b0:	fff4b337          	lui	t1,0xfff4b
    800068b4:	fb13031b          	addiw	t1,t1,-79 # fffffffffff4afb1 <absimm+0xffffffff4523d4e1>
    800068b8:	00c31313          	slli	t1,t1,0xc
    800068bc:	aab30313          	addi	t1,t1,-1365
    800068c0:	00b30463          	beq	t1,a1,800068c8 <inst_477>
    800068c4:	f60f906f          	j	80000024 <rvtest_error>

00000000800068c8 <inst_477>:
    800068c8:	00000537          	lui	a0,0x0
    800068cc:	fff50513          	addi	a0,a0,-1
    800068d0:	00b51513          	slli	a0,a0,0xb
    800068d4:	25750513          	addi	a0,a0,599
    800068d8:	00b51513          	slli	a0,a0,0xb
    800068dc:	6c350513          	addi	a0,a0,1731
    800068e0:	00a51513          	slli	a0,a0,0xa
    800068e4:	0ce50513          	addi	a0,a0,206
    800068e8:	02c54593          	xori	a1,a0,44
    800068ec:	64b23423          	sd	a1,1608(tp) # 648 <offset+0x368>
    800068f0:	fff4b337          	lui	t1,0xfff4b
    800068f4:	fb13031b          	addiw	t1,t1,-79 # fffffffffff4afb1 <absimm+0xffffffff4523d4e1>
    800068f8:	00c31313          	slli	t1,t1,0xc
    800068fc:	ce230313          	addi	t1,t1,-798
    80006900:	00b30463          	beq	t1,a1,80006908 <inst_478>
    80006904:	f20f906f          	j	80000024 <rvtest_error>

0000000080006908 <inst_478>:
    80006908:	00000537          	lui	a0,0x0
    8000690c:	fff50513          	addi	a0,a0,-1
    80006910:	00b51513          	slli	a0,a0,0xb
    80006914:	25750513          	addi	a0,a0,599
    80006918:	00b51513          	slli	a0,a0,0xb
    8000691c:	6c350513          	addi	a0,a0,1731
    80006920:	00a51513          	slli	a0,a0,0xa
    80006924:	0ce50513          	addi	a0,a0,206
    80006928:	55654593          	xori	a1,a0,1366
    8000692c:	64b23823          	sd	a1,1616(tp) # 650 <offset+0x370>
    80006930:	fff4b337          	lui	t1,0xfff4b
    80006934:	fb13031b          	addiw	t1,t1,-79 # fffffffffff4afb1 <absimm+0xffffffff4523d4e1>
    80006938:	00c31313          	slli	t1,t1,0xc
    8000693c:	99830313          	addi	t1,t1,-1640
    80006940:	00b30463          	beq	t1,a1,80006948 <inst_479>
    80006944:	ee0f906f          	j	80000024 <rvtest_error>

0000000080006948 <inst_479>:
    80006948:	00000537          	lui	a0,0x0
    8000694c:	fff50513          	addi	a0,a0,-1
    80006950:	00b51513          	slli	a0,a0,0xb
    80006954:	25750513          	addi	a0,a0,599
    80006958:	00b51513          	slli	a0,a0,0xb
    8000695c:	6c350513          	addi	a0,a0,1731
    80006960:	00a51513          	slli	a0,a0,0xa
    80006964:	0ce50513          	addi	a0,a0,206
    80006968:	aab54593          	xori	a1,a0,-1365
    8000696c:	64b23c23          	sd	a1,1624(tp) # 658 <offset+0x378>
    80006970:	000b5337          	lui	t1,0xb5
    80006974:	04f3031b          	addiw	t1,t1,79 # b504f <offset+0xb4d6f>
    80006978:	00c31313          	slli	t1,t1,0xc
    8000697c:	66530313          	addi	t1,t1,1637
    80006980:	00b30463          	beq	t1,a1,80006988 <inst_480>
    80006984:	ea0f906f          	j	80000024 <rvtest_error>

0000000080006988 <inst_480>:
    80006988:	00000537          	lui	a0,0x0
    8000698c:	fff50513          	addi	a0,a0,-1
    80006990:	00b51513          	slli	a0,a0,0xb
    80006994:	25750513          	addi	a0,a0,599
    80006998:	00b51513          	slli	a0,a0,0xb
    8000699c:	6c350513          	addi	a0,a0,1731
    800069a0:	00a51513          	slli	a0,a0,0xa
    800069a4:	0ce50513          	addi	a0,a0,206
    800069a8:	00654593          	xori	a1,a0,6
    800069ac:	66b23023          	sd	a1,1632(tp) # 660 <offset+0x380>
    800069b0:	fff4b337          	lui	t1,0xfff4b
    800069b4:	fb13031b          	addiw	t1,t1,-79 # fffffffffff4afb1 <absimm+0xffffffff4523d4e1>
    800069b8:	00c31313          	slli	t1,t1,0xc
    800069bc:	cc830313          	addi	t1,t1,-824
    800069c0:	00b30463          	beq	t1,a1,800069c8 <inst_481>
    800069c4:	e60f906f          	j	80000024 <rvtest_error>

00000000800069c8 <inst_481>:
    800069c8:	00000537          	lui	a0,0x0
    800069cc:	fff50513          	addi	a0,a0,-1
    800069d0:	00b51513          	slli	a0,a0,0xb
    800069d4:	25750513          	addi	a0,a0,599
    800069d8:	00b51513          	slli	a0,a0,0xb
    800069dc:	6c350513          	addi	a0,a0,1731
    800069e0:	00a51513          	slli	a0,a0,0xa
    800069e4:	0ce50513          	addi	a0,a0,206
    800069e8:	33454593          	xori	a1,a0,820
    800069ec:	66b23423          	sd	a1,1640(tp) # 668 <offset+0x388>
    800069f0:	fff4b337          	lui	t1,0xfff4b
    800069f4:	fb13031b          	addiw	t1,t1,-79 # fffffffffff4afb1 <absimm+0xffffffff4523d4e1>
    800069f8:	00c31313          	slli	t1,t1,0xc
    800069fc:	ffa30313          	addi	t1,t1,-6
    80006a00:	00b30463          	beq	t1,a1,80006a08 <inst_482>
    80006a04:	e20f906f          	j	80000024 <rvtest_error>

0000000080006a08 <inst_482>:
    80006a08:	00000537          	lui	a0,0x0
    80006a0c:	fff50513          	addi	a0,a0,-1
    80006a10:	00b51513          	slli	a0,a0,0xb
    80006a14:	25750513          	addi	a0,a0,599
    80006a18:	00b51513          	slli	a0,a0,0xb
    80006a1c:	6c350513          	addi	a0,a0,1731
    80006a20:	00a51513          	slli	a0,a0,0xa
    80006a24:	0ce50513          	addi	a0,a0,206
    80006a28:	66754593          	xori	a1,a0,1639
    80006a2c:	66b23823          	sd	a1,1648(tp) # 670 <offset+0x390>
    80006a30:	fff4b337          	lui	t1,0xfff4b
    80006a34:	fb13031b          	addiw	t1,t1,-79 # fffffffffff4afb1 <absimm+0xffffffff4523d4e1>
    80006a38:	00c31313          	slli	t1,t1,0xc
    80006a3c:	aa930313          	addi	t1,t1,-1367
    80006a40:	00b30463          	beq	t1,a1,80006a48 <inst_483>
    80006a44:	de0f906f          	j	80000024 <rvtest_error>

0000000080006a48 <inst_483>:
    80006a48:	00000537          	lui	a0,0x0
    80006a4c:	fff50513          	addi	a0,a0,-1
    80006a50:	00b51513          	slli	a0,a0,0xb
    80006a54:	25750513          	addi	a0,a0,599
    80006a58:	00b51513          	slli	a0,a0,0xb
    80006a5c:	6c350513          	addi	a0,a0,1731
    80006a60:	00a51513          	slli	a0,a0,0xa
    80006a64:	0ce50513          	addi	a0,a0,206
    80006a68:	fd454593          	xori	a1,a0,-44
    80006a6c:	66b23c23          	sd	a1,1656(tp) # 678 <offset+0x398>
    80006a70:	000b5337          	lui	t1,0xb5
    80006a74:	04f3031b          	addiw	t1,t1,79 # b504f <offset+0xb4d6f>
    80006a78:	00c31313          	slli	t1,t1,0xc
    80006a7c:	31a30313          	addi	t1,t1,794
    80006a80:	00b30463          	beq	t1,a1,80006a88 <inst_484>
    80006a84:	da0f906f          	j	80000024 <rvtest_error>

0000000080006a88 <inst_484>:
    80006a88:	00000537          	lui	a0,0x0
    80006a8c:	fff50513          	addi	a0,a0,-1
    80006a90:	00b51513          	slli	a0,a0,0xb
    80006a94:	25750513          	addi	a0,a0,599
    80006a98:	00b51513          	slli	a0,a0,0xb
    80006a9c:	6c350513          	addi	a0,a0,1731
    80006aa0:	00a51513          	slli	a0,a0,0xa
    80006aa4:	0ce50513          	addi	a0,a0,206
    80006aa8:	02e54593          	xori	a1,a0,46
    80006aac:	68b23023          	sd	a1,1664(tp) # 680 <offset+0x3a0>
    80006ab0:	fff4b337          	lui	t1,0xfff4b
    80006ab4:	fb13031b          	addiw	t1,t1,-79 # fffffffffff4afb1 <absimm+0xffffffff4523d4e1>
    80006ab8:	00c31313          	slli	t1,t1,0xc
    80006abc:	ce030313          	addi	t1,t1,-800
    80006ac0:	00b30463          	beq	t1,a1,80006ac8 <inst_485>
    80006ac4:	d60f906f          	j	80000024 <rvtest_error>

0000000080006ac8 <inst_485>:
    80006ac8:	00000537          	lui	a0,0x0
    80006acc:	00050513          	mv	a0,a0
    80006ad0:	00b51513          	slli	a0,a0,0xb
    80006ad4:	5a850513          	addi	a0,a0,1448 # 5a8 <offset+0x2c8>
    80006ad8:	00b51513          	slli	a0,a0,0xb
    80006adc:	13c50513          	addi	a0,a0,316
    80006ae0:	00a51513          	slli	a0,a0,0xa
    80006ae4:	33450513          	addi	a0,a0,820
    80006ae8:	00354593          	xori	a1,a0,3
    80006aec:	68b23423          	sd	a1,1672(tp) # 688 <offset+0x3a8>
    80006af0:	000b5337          	lui	t1,0xb5
    80006af4:	04f3031b          	addiw	t1,t1,79 # b504f <offset+0xb4d6f>
    80006af8:	00c31313          	slli	t1,t1,0xc
    80006afc:	33730313          	addi	t1,t1,823
    80006b00:	00b30463          	beq	t1,a1,80006b08 <inst_486>
    80006b04:	d20f906f          	j	80000024 <rvtest_error>

0000000080006b08 <inst_486>:
    80006b08:	00000537          	lui	a0,0x0
    80006b0c:	00050513          	mv	a0,a0
    80006b10:	00b51513          	slli	a0,a0,0xb
    80006b14:	5a850513          	addi	a0,a0,1448 # 5a8 <offset+0x2c8>
    80006b18:	00b51513          	slli	a0,a0,0xb
    80006b1c:	13c50513          	addi	a0,a0,316
    80006b20:	00a51513          	slli	a0,a0,0xa
    80006b24:	33450513          	addi	a0,a0,820
    80006b28:	55554593          	xori	a1,a0,1365
    80006b2c:	68b23823          	sd	a1,1680(tp) # 690 <offset+0x3b0>
    80006b30:	000b5337          	lui	t1,0xb5
    80006b34:	04f3031b          	addiw	t1,t1,79 # b504f <offset+0xb4d6f>
    80006b38:	00c31313          	slli	t1,t1,0xc
    80006b3c:	66130313          	addi	t1,t1,1633
    80006b40:	00b30463          	beq	t1,a1,80006b48 <inst_487>
    80006b44:	ce0f906f          	j	80000024 <rvtest_error>

0000000080006b48 <inst_487>:
    80006b48:	00000537          	lui	a0,0x0
    80006b4c:	00050513          	mv	a0,a0
    80006b50:	00b51513          	slli	a0,a0,0xb
    80006b54:	5a850513          	addi	a0,a0,1448 # 5a8 <offset+0x2c8>
    80006b58:	00b51513          	slli	a0,a0,0xb
    80006b5c:	13c50513          	addi	a0,a0,316
    80006b60:	00a51513          	slli	a0,a0,0xa
    80006b64:	33450513          	addi	a0,a0,820
    80006b68:	aaa54593          	xori	a1,a0,-1366
    80006b6c:	68b23c23          	sd	a1,1688(tp) # 698 <offset+0x3b8>
    80006b70:	fff4b337          	lui	t1,0xfff4b
    80006b74:	fb13031b          	addiw	t1,t1,-79 # fffffffffff4afb1 <absimm+0xffffffff4523d4e1>
    80006b78:	00c31313          	slli	t1,t1,0xc
    80006b7c:	99e30313          	addi	t1,t1,-1634
    80006b80:	00b30463          	beq	t1,a1,80006b88 <inst_488>
    80006b84:	ca0f906f          	j	80000024 <rvtest_error>

0000000080006b88 <inst_488>:
    80006b88:	00000537          	lui	a0,0x0
    80006b8c:	00050513          	mv	a0,a0
    80006b90:	00b51513          	slli	a0,a0,0xb
    80006b94:	5a850513          	addi	a0,a0,1448 # 5a8 <offset+0x2c8>
    80006b98:	00b51513          	slli	a0,a0,0xb
    80006b9c:	13c50513          	addi	a0,a0,316
    80006ba0:	00a51513          	slli	a0,a0,0xa
    80006ba4:	33450513          	addi	a0,a0,820
    80006ba8:	00554593          	xori	a1,a0,5
    80006bac:	6ab23023          	sd	a1,1696(tp) # 6a0 <offset+0x3c0>
    80006bb0:	000b5337          	lui	t1,0xb5
    80006bb4:	04f3031b          	addiw	t1,t1,79 # b504f <offset+0xb4d6f>
    80006bb8:	00c31313          	slli	t1,t1,0xc
    80006bbc:	33130313          	addi	t1,t1,817
    80006bc0:	00b30463          	beq	t1,a1,80006bc8 <inst_489>
    80006bc4:	c60f906f          	j	80000024 <rvtest_error>

0000000080006bc8 <inst_489>:
    80006bc8:	00000537          	lui	a0,0x0
    80006bcc:	00050513          	mv	a0,a0
    80006bd0:	00b51513          	slli	a0,a0,0xb
    80006bd4:	5a850513          	addi	a0,a0,1448 # 5a8 <offset+0x2c8>
    80006bd8:	00b51513          	slli	a0,a0,0xb
    80006bdc:	13c50513          	addi	a0,a0,316
    80006be0:	00a51513          	slli	a0,a0,0xa
    80006be4:	33450513          	addi	a0,a0,820
    80006be8:	33354593          	xori	a1,a0,819
    80006bec:	6ab23423          	sd	a1,1704(tp) # 6a8 <offset+0x3c8>
    80006bf0:	000b5337          	lui	t1,0xb5
    80006bf4:	04f3031b          	addiw	t1,t1,79 # b504f <offset+0xb4d6f>
    80006bf8:	00c31313          	slli	t1,t1,0xc
    80006bfc:	00730313          	addi	t1,t1,7
    80006c00:	00b30463          	beq	t1,a1,80006c08 <inst_490>
    80006c04:	c20f906f          	j	80000024 <rvtest_error>

0000000080006c08 <inst_490>:
    80006c08:	00000537          	lui	a0,0x0
    80006c0c:	00050513          	mv	a0,a0
    80006c10:	00b51513          	slli	a0,a0,0xb
    80006c14:	5a850513          	addi	a0,a0,1448 # 5a8 <offset+0x2c8>
    80006c18:	00b51513          	slli	a0,a0,0xb
    80006c1c:	13c50513          	addi	a0,a0,316
    80006c20:	00a51513          	slli	a0,a0,0xa
    80006c24:	33450513          	addi	a0,a0,820
    80006c28:	66654593          	xori	a1,a0,1638
    80006c2c:	6ab23823          	sd	a1,1712(tp) # 6b0 <offset+0x3d0>
    80006c30:	000b5337          	lui	t1,0xb5
    80006c34:	04f3031b          	addiw	t1,t1,79 # b504f <offset+0xb4d6f>
    80006c38:	00c31313          	slli	t1,t1,0xc
    80006c3c:	55230313          	addi	t1,t1,1362
    80006c40:	00b30463          	beq	t1,a1,80006c48 <inst_491>
    80006c44:	be0f906f          	j	80000024 <rvtest_error>

0000000080006c48 <inst_491>:
    80006c48:	00000537          	lui	a0,0x0
    80006c4c:	00050513          	mv	a0,a0
    80006c50:	00b51513          	slli	a0,a0,0xb
    80006c54:	5a850513          	addi	a0,a0,1448 # 5a8 <offset+0x2c8>
    80006c58:	00b51513          	slli	a0,a0,0xb
    80006c5c:	13c50513          	addi	a0,a0,316
    80006c60:	00a51513          	slli	a0,a0,0xa
    80006c64:	33450513          	addi	a0,a0,820
    80006c68:	fd354593          	xori	a1,a0,-45
    80006c6c:	6ab23c23          	sd	a1,1720(tp) # 6b8 <offset+0x3d8>
    80006c70:	fff4b337          	lui	t1,0xfff4b
    80006c74:	fb13031b          	addiw	t1,t1,-79 # fffffffffff4afb1 <absimm+0xffffffff4523d4e1>
    80006c78:	00c31313          	slli	t1,t1,0xc
    80006c7c:	ce730313          	addi	t1,t1,-793
    80006c80:	00b30463          	beq	t1,a1,80006c88 <inst_492>
    80006c84:	ba0f906f          	j	80000024 <rvtest_error>

0000000080006c88 <inst_492>:
    80006c88:	00000537          	lui	a0,0x0
    80006c8c:	00050513          	mv	a0,a0
    80006c90:	00b51513          	slli	a0,a0,0xb
    80006c94:	5a850513          	addi	a0,a0,1448 # 5a8 <offset+0x2c8>
    80006c98:	00b51513          	slli	a0,a0,0xb
    80006c9c:	13c50513          	addi	a0,a0,316
    80006ca0:	00a51513          	slli	a0,a0,0xa
    80006ca4:	33450513          	addi	a0,a0,820
    80006ca8:	02d54593          	xori	a1,a0,45
    80006cac:	6cb23023          	sd	a1,1728(tp) # 6c0 <offset+0x3e0>
    80006cb0:	000b5337          	lui	t1,0xb5
    80006cb4:	04f3031b          	addiw	t1,t1,79 # b504f <offset+0xb4d6f>
    80006cb8:	00c31313          	slli	t1,t1,0xc
    80006cbc:	31930313          	addi	t1,t1,793
    80006cc0:	00b30463          	beq	t1,a1,80006cc8 <inst_493>
    80006cc4:	b60f906f          	j	80000024 <rvtest_error>

0000000080006cc8 <inst_493>:
    80006cc8:	00000537          	lui	a0,0x0
    80006ccc:	00050513          	mv	a0,a0
    80006cd0:	00b51513          	slli	a0,a0,0xb
    80006cd4:	5a850513          	addi	a0,a0,1448 # 5a8 <offset+0x2c8>
    80006cd8:	00b51513          	slli	a0,a0,0xb
    80006cdc:	13c50513          	addi	a0,a0,316
    80006ce0:	00a51513          	slli	a0,a0,0xa
    80006ce4:	33450513          	addi	a0,a0,820
    80006ce8:	00254593          	xori	a1,a0,2
    80006cec:	6cb23423          	sd	a1,1736(tp) # 6c8 <offset+0x3e8>
    80006cf0:	000b5337          	lui	t1,0xb5
    80006cf4:	04f3031b          	addiw	t1,t1,79 # b504f <offset+0xb4d6f>
    80006cf8:	00c31313          	slli	t1,t1,0xc
    80006cfc:	33630313          	addi	t1,t1,822
    80006d00:	00b30463          	beq	t1,a1,80006d08 <inst_494>
    80006d04:	b20f906f          	j	80000024 <rvtest_error>

0000000080006d08 <inst_494>:
    80006d08:	00000537          	lui	a0,0x0
    80006d0c:	00050513          	mv	a0,a0
    80006d10:	00b51513          	slli	a0,a0,0xb
    80006d14:	5a850513          	addi	a0,a0,1448 # 5a8 <offset+0x2c8>
    80006d18:	00b51513          	slli	a0,a0,0xb
    80006d1c:	13c50513          	addi	a0,a0,316
    80006d20:	00a51513          	slli	a0,a0,0xa
    80006d24:	33450513          	addi	a0,a0,820
    80006d28:	55454593          	xori	a1,a0,1364
    80006d2c:	6cb23823          	sd	a1,1744(tp) # 6d0 <offset+0x3f0>
    80006d30:	000b5337          	lui	t1,0xb5
    80006d34:	04f3031b          	addiw	t1,t1,79 # b504f <offset+0xb4d6f>
    80006d38:	00c31313          	slli	t1,t1,0xc
    80006d3c:	66030313          	addi	t1,t1,1632
    80006d40:	00b30463          	beq	t1,a1,80006d48 <inst_495>
    80006d44:	ae0f906f          	j	80000024 <rvtest_error>

0000000080006d48 <inst_495>:
    80006d48:	00000537          	lui	a0,0x0
    80006d4c:	00050513          	mv	a0,a0
    80006d50:	00b51513          	slli	a0,a0,0xb
    80006d54:	5a850513          	addi	a0,a0,1448 # 5a8 <offset+0x2c8>
    80006d58:	00b51513          	slli	a0,a0,0xb
    80006d5c:	13c50513          	addi	a0,a0,316
    80006d60:	00a51513          	slli	a0,a0,0xa
    80006d64:	33450513          	addi	a0,a0,820
    80006d68:	00054593          	xori	a1,a0,0
    80006d6c:	6cb23c23          	sd	a1,1752(tp) # 6d8 <offset+0x3f8>
    80006d70:	000b5337          	lui	t1,0xb5
    80006d74:	04f3031b          	addiw	t1,t1,79 # b504f <offset+0xb4d6f>
    80006d78:	00c31313          	slli	t1,t1,0xc
    80006d7c:	33430313          	addi	t1,t1,820
    80006d80:	00b30463          	beq	t1,a1,80006d88 <inst_496>
    80006d84:	aa0f906f          	j	80000024 <rvtest_error>

0000000080006d88 <inst_496>:
    80006d88:	00000537          	lui	a0,0x0
    80006d8c:	00050513          	mv	a0,a0
    80006d90:	00b51513          	slli	a0,a0,0xb
    80006d94:	5a850513          	addi	a0,a0,1448 # 5a8 <offset+0x2c8>
    80006d98:	00b51513          	slli	a0,a0,0xb
    80006d9c:	13c50513          	addi	a0,a0,316
    80006da0:	00a51513          	slli	a0,a0,0xa
    80006da4:	33450513          	addi	a0,a0,820
    80006da8:	00454593          	xori	a1,a0,4
    80006dac:	6eb23023          	sd	a1,1760(tp) # 6e0 <offset+0x400>
    80006db0:	000b5337          	lui	t1,0xb5
    80006db4:	04f3031b          	addiw	t1,t1,79 # b504f <offset+0xb4d6f>
    80006db8:	00c31313          	slli	t1,t1,0xc
    80006dbc:	33030313          	addi	t1,t1,816
    80006dc0:	00b30463          	beq	t1,a1,80006dc8 <inst_497>
    80006dc4:	a60f906f          	j	80000024 <rvtest_error>

0000000080006dc8 <inst_497>:
    80006dc8:	00000537          	lui	a0,0x0
    80006dcc:	00050513          	mv	a0,a0
    80006dd0:	00b51513          	slli	a0,a0,0xb
    80006dd4:	5a850513          	addi	a0,a0,1448 # 5a8 <offset+0x2c8>
    80006dd8:	00b51513          	slli	a0,a0,0xb
    80006ddc:	13c50513          	addi	a0,a0,316
    80006de0:	00a51513          	slli	a0,a0,0xa
    80006de4:	33450513          	addi	a0,a0,820
    80006de8:	33254593          	xori	a1,a0,818
    80006dec:	6eb23423          	sd	a1,1768(tp) # 6e8 <offset+0x408>
    80006df0:	000b5337          	lui	t1,0xb5
    80006df4:	04f3031b          	addiw	t1,t1,79 # b504f <offset+0xb4d6f>
    80006df8:	00c31313          	slli	t1,t1,0xc
    80006dfc:	00630313          	addi	t1,t1,6
    80006e00:	00b30463          	beq	t1,a1,80006e08 <inst_498>
    80006e04:	a20f906f          	j	80000024 <rvtest_error>

0000000080006e08 <inst_498>:
    80006e08:	00000537          	lui	a0,0x0
    80006e0c:	00050513          	mv	a0,a0
    80006e10:	00b51513          	slli	a0,a0,0xb
    80006e14:	5a850513          	addi	a0,a0,1448 # 5a8 <offset+0x2c8>
    80006e18:	00b51513          	slli	a0,a0,0xb
    80006e1c:	13c50513          	addi	a0,a0,316
    80006e20:	00a51513          	slli	a0,a0,0xa
    80006e24:	33450513          	addi	a0,a0,820
    80006e28:	66554593          	xori	a1,a0,1637
    80006e2c:	6eb23823          	sd	a1,1776(tp) # 6f0 <offset+0x410>
    80006e30:	000b5337          	lui	t1,0xb5
    80006e34:	04f3031b          	addiw	t1,t1,79 # b504f <offset+0xb4d6f>
    80006e38:	00c31313          	slli	t1,t1,0xc
    80006e3c:	55130313          	addi	t1,t1,1361
    80006e40:	00b30463          	beq	t1,a1,80006e48 <inst_499>
    80006e44:	9e0f906f          	j	80000024 <rvtest_error>

0000000080006e48 <inst_499>:
    80006e48:	00000537          	lui	a0,0x0
    80006e4c:	00050513          	mv	a0,a0
    80006e50:	00b51513          	slli	a0,a0,0xb
    80006e54:	5a850513          	addi	a0,a0,1448 # 5a8 <offset+0x2c8>
    80006e58:	00b51513          	slli	a0,a0,0xb
    80006e5c:	13c50513          	addi	a0,a0,316
    80006e60:	00a51513          	slli	a0,a0,0xa
    80006e64:	33450513          	addi	a0,a0,820
    80006e68:	02c54593          	xori	a1,a0,44
    80006e6c:	6eb23c23          	sd	a1,1784(tp) # 6f8 <offset+0x418>
    80006e70:	000b5337          	lui	t1,0xb5
    80006e74:	04f3031b          	addiw	t1,t1,79 # b504f <offset+0xb4d6f>
    80006e78:	00c31313          	slli	t1,t1,0xc
    80006e7c:	31830313          	addi	t1,t1,792
    80006e80:	00b30463          	beq	t1,a1,80006e88 <inst_500>
    80006e84:	9a0f906f          	j	80000024 <rvtest_error>

0000000080006e88 <inst_500>:
    80006e88:	00000537          	lui	a0,0x0
    80006e8c:	00050513          	mv	a0,a0
    80006e90:	00b51513          	slli	a0,a0,0xb
    80006e94:	5a850513          	addi	a0,a0,1448 # 5a8 <offset+0x2c8>
    80006e98:	00b51513          	slli	a0,a0,0xb
    80006e9c:	13c50513          	addi	a0,a0,316
    80006ea0:	00a51513          	slli	a0,a0,0xa
    80006ea4:	33450513          	addi	a0,a0,820
    80006ea8:	55654593          	xori	a1,a0,1366
    80006eac:	70b23023          	sd	a1,1792(tp) # 700 <offset+0x420>
    80006eb0:	000b5337          	lui	t1,0xb5
    80006eb4:	04f3031b          	addiw	t1,t1,79 # b504f <offset+0xb4d6f>
    80006eb8:	00c31313          	slli	t1,t1,0xc
    80006ebc:	66230313          	addi	t1,t1,1634
    80006ec0:	00b30463          	beq	t1,a1,80006ec8 <inst_501>
    80006ec4:	960f906f          	j	80000024 <rvtest_error>

0000000080006ec8 <inst_501>:
    80006ec8:	00000537          	lui	a0,0x0
    80006ecc:	00050513          	mv	a0,a0
    80006ed0:	00b51513          	slli	a0,a0,0xb
    80006ed4:	5a850513          	addi	a0,a0,1448 # 5a8 <offset+0x2c8>
    80006ed8:	00b51513          	slli	a0,a0,0xb
    80006edc:	13c50513          	addi	a0,a0,316
    80006ee0:	00a51513          	slli	a0,a0,0xa
    80006ee4:	33450513          	addi	a0,a0,820
    80006ee8:	aab54593          	xori	a1,a0,-1365
    80006eec:	70b23423          	sd	a1,1800(tp) # 708 <offset+0x428>
    80006ef0:	fff4b337          	lui	t1,0xfff4b
    80006ef4:	fb13031b          	addiw	t1,t1,-79 # fffffffffff4afb1 <absimm+0xffffffff4523d4e1>
    80006ef8:	00c31313          	slli	t1,t1,0xc
    80006efc:	99f30313          	addi	t1,t1,-1633
    80006f00:	00b30463          	beq	t1,a1,80006f08 <inst_502>
    80006f04:	920f906f          	j	80000024 <rvtest_error>

0000000080006f08 <inst_502>:
    80006f08:	00000537          	lui	a0,0x0
    80006f0c:	00050513          	mv	a0,a0
    80006f10:	00b51513          	slli	a0,a0,0xb
    80006f14:	5a850513          	addi	a0,a0,1448 # 5a8 <offset+0x2c8>
    80006f18:	00b51513          	slli	a0,a0,0xb
    80006f1c:	13c50513          	addi	a0,a0,316
    80006f20:	00a51513          	slli	a0,a0,0xa
    80006f24:	33450513          	addi	a0,a0,820
    80006f28:	00654593          	xori	a1,a0,6
    80006f2c:	70b23823          	sd	a1,1808(tp) # 710 <offset+0x430>
    80006f30:	000b5337          	lui	t1,0xb5
    80006f34:	04f3031b          	addiw	t1,t1,79 # b504f <offset+0xb4d6f>
    80006f38:	00c31313          	slli	t1,t1,0xc
    80006f3c:	33230313          	addi	t1,t1,818
    80006f40:	00b30463          	beq	t1,a1,80006f48 <inst_503>
    80006f44:	8e0f906f          	j	80000024 <rvtest_error>

0000000080006f48 <inst_503>:
    80006f48:	00000537          	lui	a0,0x0
    80006f4c:	00050513          	mv	a0,a0
    80006f50:	00b51513          	slli	a0,a0,0xb
    80006f54:	5a850513          	addi	a0,a0,1448 # 5a8 <offset+0x2c8>
    80006f58:	00b51513          	slli	a0,a0,0xb
    80006f5c:	13c50513          	addi	a0,a0,316
    80006f60:	00a51513          	slli	a0,a0,0xa
    80006f64:	33450513          	addi	a0,a0,820
    80006f68:	33454593          	xori	a1,a0,820
    80006f6c:	70b23c23          	sd	a1,1816(tp) # 718 <offset+0x438>
    80006f70:	000b5337          	lui	t1,0xb5
    80006f74:	04f3031b          	addiw	t1,t1,79 # b504f <offset+0xb4d6f>
    80006f78:	00c31313          	slli	t1,t1,0xc
    80006f7c:	00b30463          	beq	t1,a1,80006f84 <inst_504>
    80006f80:	8a4f906f          	j	80000024 <rvtest_error>

0000000080006f84 <inst_504>:
    80006f84:	00000537          	lui	a0,0x0
    80006f88:	00050513          	mv	a0,a0
    80006f8c:	00b51513          	slli	a0,a0,0xb
    80006f90:	5a850513          	addi	a0,a0,1448 # 5a8 <offset+0x2c8>
    80006f94:	00b51513          	slli	a0,a0,0xb
    80006f98:	13c50513          	addi	a0,a0,316
    80006f9c:	00a51513          	slli	a0,a0,0xa
    80006fa0:	33450513          	addi	a0,a0,820
    80006fa4:	66754593          	xori	a1,a0,1639
    80006fa8:	72b23023          	sd	a1,1824(tp) # 720 <offset+0x440>
    80006fac:	000b5337          	lui	t1,0xb5
    80006fb0:	04f3031b          	addiw	t1,t1,79 # b504f <offset+0xb4d6f>
    80006fb4:	00c31313          	slli	t1,t1,0xc
    80006fb8:	55330313          	addi	t1,t1,1363
    80006fbc:	00b30463          	beq	t1,a1,80006fc4 <inst_505>
    80006fc0:	864f906f          	j	80000024 <rvtest_error>

0000000080006fc4 <inst_505>:
    80006fc4:	00000537          	lui	a0,0x0
    80006fc8:	00050513          	mv	a0,a0
    80006fcc:	00b51513          	slli	a0,a0,0xb
    80006fd0:	5a850513          	addi	a0,a0,1448 # 5a8 <offset+0x2c8>
    80006fd4:	00b51513          	slli	a0,a0,0xb
    80006fd8:	13c50513          	addi	a0,a0,316
    80006fdc:	00a51513          	slli	a0,a0,0xa
    80006fe0:	33450513          	addi	a0,a0,820
    80006fe4:	fd454593          	xori	a1,a0,-44
    80006fe8:	72b23423          	sd	a1,1832(tp) # 728 <offset+0x448>
    80006fec:	fff4b337          	lui	t1,0xfff4b
    80006ff0:	fb13031b          	addiw	t1,t1,-79 # fffffffffff4afb1 <absimm+0xffffffff4523d4e1>
    80006ff4:	00c31313          	slli	t1,t1,0xc
    80006ff8:	ce030313          	addi	t1,t1,-800
    80006ffc:	00b30463          	beq	t1,a1,80007004 <inst_506>
    80007000:	824f906f          	j	80000024 <rvtest_error>

0000000080007004 <inst_506>:
    80007004:	00000537          	lui	a0,0x0
    80007008:	00050513          	mv	a0,a0
    8000700c:	00b51513          	slli	a0,a0,0xb
    80007010:	5a850513          	addi	a0,a0,1448 # 5a8 <offset+0x2c8>
    80007014:	00b51513          	slli	a0,a0,0xb
    80007018:	13c50513          	addi	a0,a0,316
    8000701c:	00a51513          	slli	a0,a0,0xa
    80007020:	33450513          	addi	a0,a0,820
    80007024:	02e54593          	xori	a1,a0,46
    80007028:	72b23823          	sd	a1,1840(tp) # 730 <offset+0x450>
    8000702c:	000b5337          	lui	t1,0xb5
    80007030:	04f3031b          	addiw	t1,t1,79 # b504f <offset+0xb4d6f>
    80007034:	00c31313          	slli	t1,t1,0xc
    80007038:	31a30313          	addi	t1,t1,794
    8000703c:	00b30463          	beq	t1,a1,80007044 <inst_507>
    80007040:	fe5f806f          	j	80000024 <rvtest_error>

0000000080007044 <inst_507>:
    80007044:	00000513          	li	a0,0
    80007048:	00254593          	xori	a1,a0,2
    8000704c:	72b23c23          	sd	a1,1848(tp) # 738 <offset+0x458>
    80007050:	00200313          	li	t1,2
    80007054:	00b30463          	beq	t1,a1,8000705c <inst_508>
    80007058:	fcdf806f          	j	80000024 <rvtest_error>

000000008000705c <inst_508>:
    8000705c:	00000513          	li	a0,0
    80007060:	55454593          	xori	a1,a0,1364
    80007064:	74b23023          	sd	a1,1856(tp) # 740 <offset+0x460>
    80007068:	55400313          	li	t1,1364
    8000706c:	00b30463          	beq	t1,a1,80007074 <inst_509>
    80007070:	fb5f806f          	j	80000024 <rvtest_error>

0000000080007074 <inst_509>:
    80007074:	00000513          	li	a0,0
    80007078:	00454593          	xori	a1,a0,4
    8000707c:	74b23423          	sd	a1,1864(tp) # 748 <offset+0x468>
    80007080:	00400313          	li	t1,4
    80007084:	00b30463          	beq	t1,a1,8000708c <inst_510>
    80007088:	f9df806f          	j	80000024 <rvtest_error>

000000008000708c <inst_510>:
    8000708c:	00000513          	li	a0,0
    80007090:	33254593          	xori	a1,a0,818
    80007094:	74b23823          	sd	a1,1872(tp) # 750 <offset+0x470>
    80007098:	33200313          	li	t1,818
    8000709c:	00b30463          	beq	t1,a1,800070a4 <inst_511>
    800070a0:	f85f806f          	j	80000024 <rvtest_error>

00000000800070a4 <inst_511>:
    800070a4:	00000513          	li	a0,0
    800070a8:	66554593          	xori	a1,a0,1637
    800070ac:	74b23c23          	sd	a1,1880(tp) # 758 <offset+0x478>
    800070b0:	66500313          	li	t1,1637
    800070b4:	00b30463          	beq	t1,a1,800070bc <inst_512>
    800070b8:	f6df806f          	j	80000024 <rvtest_error>

00000000800070bc <inst_512>:
    800070bc:	00000513          	li	a0,0
    800070c0:	02c54593          	xori	a1,a0,44
    800070c4:	76b23023          	sd	a1,1888(tp) # 760 <offset+0x480>
    800070c8:	02c00313          	li	t1,44
    800070cc:	00b30463          	beq	t1,a1,800070d4 <inst_513>
    800070d0:	f55f806f          	j	80000024 <rvtest_error>

00000000800070d4 <inst_513>:
    800070d4:	00000513          	li	a0,0
    800070d8:	55654593          	xori	a1,a0,1366
    800070dc:	76b23423          	sd	a1,1896(tp) # 768 <offset+0x488>
    800070e0:	55600313          	li	t1,1366
    800070e4:	00b30463          	beq	t1,a1,800070ec <inst_514>
    800070e8:	f3df806f          	j	80000024 <rvtest_error>

00000000800070ec <inst_514>:
    800070ec:	00000513          	li	a0,0
    800070f0:	aab54593          	xori	a1,a0,-1365
    800070f4:	76b23823          	sd	a1,1904(tp) # 770 <offset+0x490>
    800070f8:	aab00313          	li	t1,-1365
    800070fc:	00b30463          	beq	t1,a1,80007104 <inst_515>
    80007100:	f25f806f          	j	80000024 <rvtest_error>

0000000080007104 <inst_515>:
    80007104:	00000513          	li	a0,0
    80007108:	00654593          	xori	a1,a0,6
    8000710c:	76b23c23          	sd	a1,1912(tp) # 778 <offset+0x498>
    80007110:	00600313          	li	t1,6
    80007114:	00b30463          	beq	t1,a1,8000711c <inst_516>
    80007118:	f0df806f          	j	80000024 <rvtest_error>

000000008000711c <inst_516>:
    8000711c:	00000513          	li	a0,0
    80007120:	33454593          	xori	a1,a0,820
    80007124:	78b23023          	sd	a1,1920(tp) # 780 <offset+0x4a0>
    80007128:	33400313          	li	t1,820
    8000712c:	00b30463          	beq	t1,a1,80007134 <inst_517>
    80007130:	ef5f806f          	j	80000024 <rvtest_error>

0000000080007134 <inst_517>:
    80007134:	00000513          	li	a0,0
    80007138:	66754593          	xori	a1,a0,1639
    8000713c:	78b23423          	sd	a1,1928(tp) # 788 <offset+0x4a8>
    80007140:	66700313          	li	t1,1639
    80007144:	00b30463          	beq	t1,a1,8000714c <inst_518>
    80007148:	eddf806f          	j	80000024 <rvtest_error>

000000008000714c <inst_518>:
    8000714c:	00000513          	li	a0,0
    80007150:	fd454593          	xori	a1,a0,-44
    80007154:	78b23823          	sd	a1,1936(tp) # 790 <offset+0x4b0>
    80007158:	fd400313          	li	t1,-44
    8000715c:	00b30463          	beq	t1,a1,80007164 <inst_519>
    80007160:	ec5f806f          	j	80000024 <rvtest_error>

0000000080007164 <inst_519>:
    80007164:	00000513          	li	a0,0
    80007168:	02e54593          	xori	a1,a0,46
    8000716c:	78b23c23          	sd	a1,1944(tp) # 798 <offset+0x4b8>
    80007170:	02e00313          	li	t1,46
    80007174:	00b30463          	beq	t1,a1,8000717c <inst_520>
    80007178:	eadf806f          	j	80000024 <rvtest_error>

000000008000717c <inst_520>:
    8000717c:	00400513          	li	a0,4
    80007180:	00354593          	xori	a1,a0,3
    80007184:	7ab23023          	sd	a1,1952(tp) # 7a0 <offset+0x4c0>
    80007188:	00700313          	li	t1,7
    8000718c:	00b30463          	beq	t1,a1,80007194 <inst_521>
    80007190:	e95f806f          	j	80000024 <rvtest_error>

0000000080007194 <inst_521>:
    80007194:	00400513          	li	a0,4
    80007198:	55554593          	xori	a1,a0,1365
    8000719c:	7ab23423          	sd	a1,1960(tp) # 7a8 <offset+0x4c8>
    800071a0:	55100313          	li	t1,1361
    800071a4:	00b30463          	beq	t1,a1,800071ac <inst_522>
    800071a8:	e7df806f          	j	80000024 <rvtest_error>

00000000800071ac <inst_522>:
    800071ac:	00400513          	li	a0,4
    800071b0:	aaa54593          	xori	a1,a0,-1366
    800071b4:	7ab23823          	sd	a1,1968(tp) # 7b0 <offset+0x4d0>
    800071b8:	aae00313          	li	t1,-1362
    800071bc:	00b30463          	beq	t1,a1,800071c4 <inst_523>
    800071c0:	e65f806f          	j	80000024 <rvtest_error>

00000000800071c4 <inst_523>:
    800071c4:	00400513          	li	a0,4
    800071c8:	00554593          	xori	a1,a0,5
    800071cc:	7ab23c23          	sd	a1,1976(tp) # 7b8 <offset+0x4d8>
    800071d0:	00100313          	li	t1,1
    800071d4:	00b30463          	beq	t1,a1,800071dc <inst_524>
    800071d8:	e4df806f          	j	80000024 <rvtest_error>

00000000800071dc <inst_524>:
    800071dc:	00400513          	li	a0,4
    800071e0:	33354593          	xori	a1,a0,819
    800071e4:	7cb23023          	sd	a1,1984(tp) # 7c0 <offset+0x4e0>
    800071e8:	33700313          	li	t1,823
    800071ec:	00b30463          	beq	t1,a1,800071f4 <inst_525>
    800071f0:	e35f806f          	j	80000024 <rvtest_error>

00000000800071f4 <inst_525>:
    800071f4:	00400513          	li	a0,4
    800071f8:	66654593          	xori	a1,a0,1638
    800071fc:	7cb23423          	sd	a1,1992(tp) # 7c8 <offset+0x4e8>
    80007200:	66200313          	li	t1,1634
    80007204:	00b30463          	beq	t1,a1,8000720c <inst_526>
    80007208:	e1df806f          	j	80000024 <rvtest_error>

000000008000720c <inst_526>:
    8000720c:	00400513          	li	a0,4
    80007210:	fd354593          	xori	a1,a0,-45
    80007214:	7cb23823          	sd	a1,2000(tp) # 7d0 <offset+0x4f0>
    80007218:	fd700313          	li	t1,-41
    8000721c:	00b30463          	beq	t1,a1,80007224 <inst_527>
    80007220:	e05f806f          	j	80000024 <rvtest_error>

0000000080007224 <inst_527>:
    80007224:	00400513          	li	a0,4
    80007228:	02d54593          	xori	a1,a0,45
    8000722c:	7cb23c23          	sd	a1,2008(tp) # 7d8 <offset+0x4f8>
    80007230:	02900313          	li	t1,41
    80007234:	00b30463          	beq	t1,a1,8000723c <inst_528>
    80007238:	dedf806f          	j	80000024 <rvtest_error>

000000008000723c <inst_528>:
    8000723c:	00400513          	li	a0,4
    80007240:	00254593          	xori	a1,a0,2
    80007244:	7eb23023          	sd	a1,2016(tp) # 7e0 <offset+0x500>
    80007248:	00600313          	li	t1,6
    8000724c:	00b30463          	beq	t1,a1,80007254 <inst_529>
    80007250:	dd5f806f          	j	80000024 <rvtest_error>

0000000080007254 <inst_529>:
    80007254:	00400513          	li	a0,4
    80007258:	55454593          	xori	a1,a0,1364
    8000725c:	7eb23423          	sd	a1,2024(tp) # 7e8 <offset+0x508>
    80007260:	55000313          	li	t1,1360
    80007264:	00b30463          	beq	t1,a1,8000726c <inst_530>
    80007268:	dbdf806f          	j	80000024 <rvtest_error>

000000008000726c <inst_530>:
    8000726c:	00400513          	li	a0,4
    80007270:	00054593          	xori	a1,a0,0
    80007274:	7eb23823          	sd	a1,2032(tp) # 7f0 <offset+0x510>
    80007278:	00400313          	li	t1,4
    8000727c:	00b30463          	beq	t1,a1,80007284 <inst_531>
    80007280:	da5f806f          	j	80000024 <rvtest_error>

0000000080007284 <inst_531>:
    80007284:	00400513          	li	a0,4
    80007288:	00454593          	xori	a1,a0,4
    8000728c:	7eb23c23          	sd	a1,2040(tp) # 7f8 <offset+0x518>
    80007290:	00000313          	li	t1,0
    80007294:	00b30463          	beq	t1,a1,8000729c <inst_531+0x18>
    80007298:	d8df806f          	j	80000024 <rvtest_error>
    8000729c:	00000013          	nop
    800072a0:	00004217          	auipc	tp,0x4
    800072a4:	e0820213          	addi	tp,tp,-504 # 8000b0a8 <signature_x4_2>
    800072a8:	00000013          	nop
    800072ac:	00000013          	nop
    800072b0:	00000013          	nop
    800072b4:	00000013          	nop
    800072b8:	00000013          	nop
    800072bc:	00000013          	nop

00000000800072c0 <inst_532>:
    800072c0:	00400513          	li	a0,4
    800072c4:	33254593          	xori	a1,a0,818
    800072c8:	00b23023          	sd	a1,0(tp) # 0 <_entry_offset>
    800072cc:	33600313          	li	t1,822
    800072d0:	00b30463          	beq	t1,a1,800072d8 <inst_533>
    800072d4:	d51f806f          	j	80000024 <rvtest_error>

00000000800072d8 <inst_533>:
    800072d8:	00400513          	li	a0,4
    800072dc:	66554593          	xori	a1,a0,1637
    800072e0:	00b23423          	sd	a1,8(tp) # 8 <edge2+0x3>
    800072e4:	66100313          	li	t1,1633
    800072e8:	00b30463          	beq	t1,a1,800072f0 <inst_534>
    800072ec:	d39f806f          	j	80000024 <rvtest_error>

00000000800072f0 <inst_534>:
    800072f0:	00400513          	li	a0,4
    800072f4:	02c54593          	xori	a1,a0,44
    800072f8:	00b23823          	sd	a1,16(tp) # 10 <edge2+0xb>
    800072fc:	02800313          	li	t1,40
    80007300:	00b30463          	beq	t1,a1,80007308 <inst_535>
    80007304:	d21f806f          	j	80000024 <rvtest_error>

0000000080007308 <inst_535>:
    80007308:	00400513          	li	a0,4
    8000730c:	55654593          	xori	a1,a0,1366
    80007310:	00b23c23          	sd	a1,24(tp) # 18 <edge2+0x13>
    80007314:	55200313          	li	t1,1362
    80007318:	00b30463          	beq	t1,a1,80007320 <inst_536>
    8000731c:	d09f806f          	j	80000024 <rvtest_error>

0000000080007320 <inst_536>:
    80007320:	00400513          	li	a0,4
    80007324:	aab54593          	xori	a1,a0,-1365
    80007328:	02b23023          	sd	a1,32(tp) # 20 <edge2+0x1b>
    8000732c:	aaf00313          	li	t1,-1361
    80007330:	00b30463          	beq	t1,a1,80007338 <inst_537>
    80007334:	cf1f806f          	j	80000024 <rvtest_error>

0000000080007338 <inst_537>:
    80007338:	00400513          	li	a0,4
    8000733c:	00654593          	xori	a1,a0,6
    80007340:	02b23423          	sd	a1,40(tp) # 28 <edge2+0x23>
    80007344:	00200313          	li	t1,2
    80007348:	00b30463          	beq	t1,a1,80007350 <inst_538>
    8000734c:	cd9f806f          	j	80000024 <rvtest_error>

0000000080007350 <inst_538>:
    80007350:	00400513          	li	a0,4
    80007354:	33454593          	xori	a1,a0,820
    80007358:	02b23823          	sd	a1,48(tp) # 30 <edge2+0x2b>
    8000735c:	33000313          	li	t1,816
    80007360:	00b30463          	beq	t1,a1,80007368 <inst_539>
    80007364:	cc1f806f          	j	80000024 <rvtest_error>

0000000080007368 <inst_539>:
    80007368:	00400513          	li	a0,4
    8000736c:	66754593          	xori	a1,a0,1639
    80007370:	02b23c23          	sd	a1,56(tp) # 38 <edge2+0x33>
    80007374:	66300313          	li	t1,1635
    80007378:	00b30463          	beq	t1,a1,80007380 <inst_540>
    8000737c:	ca9f806f          	j	80000024 <rvtest_error>

0000000080007380 <inst_540>:
    80007380:	00400513          	li	a0,4
    80007384:	fd454593          	xori	a1,a0,-44
    80007388:	04b23023          	sd	a1,64(tp) # 40 <pos>
    8000738c:	fd000313          	li	t1,-48
    80007390:	00b30463          	beq	t1,a1,80007398 <inst_541>
    80007394:	c91f806f          	j	80000024 <rvtest_error>

0000000080007398 <inst_541>:
    80007398:	00400513          	li	a0,4
    8000739c:	02e54593          	xori	a1,a0,46
    800073a0:	04b23423          	sd	a1,72(tp) # 48 <pos+0x8>
    800073a4:	02a00313          	li	t1,42
    800073a8:	00b30463          	beq	t1,a1,800073b0 <inst_542>
    800073ac:	c79f806f          	j	80000024 <rvtest_error>

00000000800073b0 <inst_542>:
    800073b0:	33333537          	lui	a0,0x33333
    800073b4:	33350513          	addi	a0,a0,819 # 33333333 <absimmsh+0x27862586>
    800073b8:	00b51513          	slli	a0,a0,0xb
    800073bc:	19950513          	addi	a0,a0,409
    800073c0:	00b51513          	slli	a0,a0,0xb
    800073c4:	4cc50513          	addi	a0,a0,1228
    800073c8:	00a51513          	slli	a0,a0,0xa
    800073cc:	33250513          	addi	a0,a0,818
    800073d0:	00354593          	xori	a1,a0,3
    800073d4:	04b23823          	sd	a1,80(tp) # 50 <pos+0x10>
    800073d8:	03333337          	lui	t1,0x3333
    800073dc:	3333031b          	addiw	t1,t1,819 # 3333333 <offset+0x3333053>
    800073e0:	00c31313          	slli	t1,t1,0xc
    800073e4:	33330313          	addi	t1,t1,819
    800073e8:	00c31313          	slli	t1,t1,0xc
    800073ec:	33330313          	addi	t1,t1,819
    800073f0:	00c31313          	slli	t1,t1,0xc
    800073f4:	33130313          	addi	t1,t1,817
    800073f8:	00b30463          	beq	t1,a1,80007400 <inst_543>
    800073fc:	c29f806f          	j	80000024 <rvtest_error>

0000000080007400 <inst_543>:
    80007400:	33333537          	lui	a0,0x33333
    80007404:	33350513          	addi	a0,a0,819 # 33333333 <absimmsh+0x27862586>
    80007408:	00b51513          	slli	a0,a0,0xb
    8000740c:	19950513          	addi	a0,a0,409
    80007410:	00b51513          	slli	a0,a0,0xb
    80007414:	4cc50513          	addi	a0,a0,1228
    80007418:	00a51513          	slli	a0,a0,0xa
    8000741c:	33250513          	addi	a0,a0,818
    80007420:	55554593          	xori	a1,a0,1365
    80007424:	04b23c23          	sd	a1,88(tp) # 58 <pos+0x18>
    80007428:	03333337          	lui	t1,0x3333
    8000742c:	3333031b          	addiw	t1,t1,819 # 3333333 <offset+0x3333053>
    80007430:	00c31313          	slli	t1,t1,0xc
    80007434:	33330313          	addi	t1,t1,819
    80007438:	00c31313          	slli	t1,t1,0xc
    8000743c:	33330313          	addi	t1,t1,819
    80007440:	00c31313          	slli	t1,t1,0xc
    80007444:	66730313          	addi	t1,t1,1639
    80007448:	00b30463          	beq	t1,a1,80007450 <inst_544>
    8000744c:	bd9f806f          	j	80000024 <rvtest_error>

0000000080007450 <inst_544>:
    80007450:	33333537          	lui	a0,0x33333
    80007454:	33350513          	addi	a0,a0,819 # 33333333 <absimmsh+0x27862586>
    80007458:	00b51513          	slli	a0,a0,0xb
    8000745c:	19950513          	addi	a0,a0,409
    80007460:	00b51513          	slli	a0,a0,0xb
    80007464:	4cc50513          	addi	a0,a0,1228
    80007468:	00a51513          	slli	a0,a0,0xa
    8000746c:	33250513          	addi	a0,a0,818
    80007470:	aaa54593          	xori	a1,a0,-1366
    80007474:	06b23023          	sd	a1,96(tp) # 60 <pos+0x20>
    80007478:	fcccd337          	lui	t1,0xfcccd
    8000747c:	ccd3031b          	addiw	t1,t1,-819 # fffffffffccccccd <absimm+0xffffffff41fbf1fd>
    80007480:	00c31313          	slli	t1,t1,0xc
    80007484:	ccd30313          	addi	t1,t1,-819
    80007488:	00c31313          	slli	t1,t1,0xc
    8000748c:	ccd30313          	addi	t1,t1,-819
    80007490:	00c31313          	slli	t1,t1,0xc
    80007494:	99830313          	addi	t1,t1,-1640
    80007498:	00b30463          	beq	t1,a1,800074a0 <inst_545>
    8000749c:	b89f806f          	j	80000024 <rvtest_error>

00000000800074a0 <inst_545>:
    800074a0:	33333537          	lui	a0,0x33333
    800074a4:	33350513          	addi	a0,a0,819 # 33333333 <absimmsh+0x27862586>
    800074a8:	00b51513          	slli	a0,a0,0xb
    800074ac:	19950513          	addi	a0,a0,409
    800074b0:	00b51513          	slli	a0,a0,0xb
    800074b4:	4cc50513          	addi	a0,a0,1228
    800074b8:	00a51513          	slli	a0,a0,0xa
    800074bc:	33250513          	addi	a0,a0,818
    800074c0:	00554593          	xori	a1,a0,5
    800074c4:	06b23423          	sd	a1,104(tp) # 68 <pos+0x28>
    800074c8:	03333337          	lui	t1,0x3333
    800074cc:	3333031b          	addiw	t1,t1,819 # 3333333 <offset+0x3333053>
    800074d0:	00c31313          	slli	t1,t1,0xc
    800074d4:	33330313          	addi	t1,t1,819
    800074d8:	00c31313          	slli	t1,t1,0xc
    800074dc:	33330313          	addi	t1,t1,819
    800074e0:	00c31313          	slli	t1,t1,0xc
    800074e4:	33730313          	addi	t1,t1,823
    800074e8:	00b30463          	beq	t1,a1,800074f0 <inst_546>
    800074ec:	b39f806f          	j	80000024 <rvtest_error>

00000000800074f0 <inst_546>:
    800074f0:	33333537          	lui	a0,0x33333
    800074f4:	33350513          	addi	a0,a0,819 # 33333333 <absimmsh+0x27862586>
    800074f8:	00b51513          	slli	a0,a0,0xb
    800074fc:	19950513          	addi	a0,a0,409
    80007500:	00b51513          	slli	a0,a0,0xb
    80007504:	4cc50513          	addi	a0,a0,1228
    80007508:	00a51513          	slli	a0,a0,0xa
    8000750c:	33250513          	addi	a0,a0,818
    80007510:	33354593          	xori	a1,a0,819
    80007514:	06b23823          	sd	a1,112(tp) # 70 <pos+0x30>
    80007518:	03333337          	lui	t1,0x3333
    8000751c:	3333031b          	addiw	t1,t1,819 # 3333333 <offset+0x3333053>
    80007520:	00c31313          	slli	t1,t1,0xc
    80007524:	33330313          	addi	t1,t1,819
    80007528:	00c31313          	slli	t1,t1,0xc
    8000752c:	33330313          	addi	t1,t1,819
    80007530:	00c31313          	slli	t1,t1,0xc
    80007534:	00130313          	addi	t1,t1,1
    80007538:	00b30463          	beq	t1,a1,80007540 <inst_547>
    8000753c:	ae9f806f          	j	80000024 <rvtest_error>

0000000080007540 <inst_547>:
    80007540:	33333537          	lui	a0,0x33333
    80007544:	33350513          	addi	a0,a0,819 # 33333333 <absimmsh+0x27862586>
    80007548:	00b51513          	slli	a0,a0,0xb
    8000754c:	19950513          	addi	a0,a0,409
    80007550:	00b51513          	slli	a0,a0,0xb
    80007554:	4cc50513          	addi	a0,a0,1228
    80007558:	00a51513          	slli	a0,a0,0xa
    8000755c:	33250513          	addi	a0,a0,818
    80007560:	66654593          	xori	a1,a0,1638
    80007564:	06b23c23          	sd	a1,120(tp) # 78 <pos+0x38>
    80007568:	03333337          	lui	t1,0x3333
    8000756c:	3333031b          	addiw	t1,t1,819 # 3333333 <offset+0x3333053>
    80007570:	00c31313          	slli	t1,t1,0xc
    80007574:	33330313          	addi	t1,t1,819
    80007578:	00c31313          	slli	t1,t1,0xc
    8000757c:	33330313          	addi	t1,t1,819
    80007580:	00c31313          	slli	t1,t1,0xc
    80007584:	55430313          	addi	t1,t1,1364
    80007588:	00b30463          	beq	t1,a1,80007590 <inst_548>
    8000758c:	a99f806f          	j	80000024 <rvtest_error>

0000000080007590 <inst_548>:
    80007590:	33333537          	lui	a0,0x33333
    80007594:	33350513          	addi	a0,a0,819 # 33333333 <absimmsh+0x27862586>
    80007598:	00b51513          	slli	a0,a0,0xb
    8000759c:	19950513          	addi	a0,a0,409
    800075a0:	00b51513          	slli	a0,a0,0xb
    800075a4:	4cc50513          	addi	a0,a0,1228
    800075a8:	00a51513          	slli	a0,a0,0xa
    800075ac:	33250513          	addi	a0,a0,818
    800075b0:	fd354593          	xori	a1,a0,-45
    800075b4:	08b23023          	sd	a1,128(tp) # 80 <pos+0x40>
    800075b8:	fcccd337          	lui	t1,0xfcccd
    800075bc:	ccd3031b          	addiw	t1,t1,-819 # fffffffffccccccd <absimm+0xffffffff41fbf1fd>
    800075c0:	00c31313          	slli	t1,t1,0xc
    800075c4:	ccd30313          	addi	t1,t1,-819
    800075c8:	00c31313          	slli	t1,t1,0xc
    800075cc:	ccd30313          	addi	t1,t1,-819
    800075d0:	00c31313          	slli	t1,t1,0xc
    800075d4:	ce130313          	addi	t1,t1,-799
    800075d8:	00b30463          	beq	t1,a1,800075e0 <inst_549>
    800075dc:	a49f806f          	j	80000024 <rvtest_error>

00000000800075e0 <inst_549>:
    800075e0:	33333537          	lui	a0,0x33333
    800075e4:	33350513          	addi	a0,a0,819 # 33333333 <absimmsh+0x27862586>
    800075e8:	00b51513          	slli	a0,a0,0xb
    800075ec:	19950513          	addi	a0,a0,409
    800075f0:	00b51513          	slli	a0,a0,0xb
    800075f4:	4cc50513          	addi	a0,a0,1228
    800075f8:	00a51513          	slli	a0,a0,0xa
    800075fc:	33250513          	addi	a0,a0,818
    80007600:	02d54593          	xori	a1,a0,45
    80007604:	08b23423          	sd	a1,136(tp) # 88 <pos+0x48>
    80007608:	03333337          	lui	t1,0x3333
    8000760c:	3333031b          	addiw	t1,t1,819 # 3333333 <offset+0x3333053>
    80007610:	00c31313          	slli	t1,t1,0xc
    80007614:	33330313          	addi	t1,t1,819
    80007618:	00c31313          	slli	t1,t1,0xc
    8000761c:	33330313          	addi	t1,t1,819
    80007620:	00c31313          	slli	t1,t1,0xc
    80007624:	31f30313          	addi	t1,t1,799
    80007628:	00b30463          	beq	t1,a1,80007630 <inst_550>
    8000762c:	9f9f806f          	j	80000024 <rvtest_error>

0000000080007630 <inst_550>:
    80007630:	33333537          	lui	a0,0x33333
    80007634:	33350513          	addi	a0,a0,819 # 33333333 <absimmsh+0x27862586>
    80007638:	00b51513          	slli	a0,a0,0xb
    8000763c:	19950513          	addi	a0,a0,409
    80007640:	00b51513          	slli	a0,a0,0xb
    80007644:	4cc50513          	addi	a0,a0,1228
    80007648:	00a51513          	slli	a0,a0,0xa
    8000764c:	33250513          	addi	a0,a0,818
    80007650:	00254593          	xori	a1,a0,2
    80007654:	08b23823          	sd	a1,144(tp) # 90 <pos+0x50>
    80007658:	03333337          	lui	t1,0x3333
    8000765c:	3333031b          	addiw	t1,t1,819 # 3333333 <offset+0x3333053>
    80007660:	00c31313          	slli	t1,t1,0xc
    80007664:	33330313          	addi	t1,t1,819
    80007668:	00c31313          	slli	t1,t1,0xc
    8000766c:	33330313          	addi	t1,t1,819
    80007670:	00c31313          	slli	t1,t1,0xc
    80007674:	33030313          	addi	t1,t1,816
    80007678:	00b30463          	beq	t1,a1,80007680 <inst_551>
    8000767c:	9a9f806f          	j	80000024 <rvtest_error>

0000000080007680 <inst_551>:
    80007680:	33333537          	lui	a0,0x33333
    80007684:	33350513          	addi	a0,a0,819 # 33333333 <absimmsh+0x27862586>
    80007688:	00b51513          	slli	a0,a0,0xb
    8000768c:	19950513          	addi	a0,a0,409
    80007690:	00b51513          	slli	a0,a0,0xb
    80007694:	4cc50513          	addi	a0,a0,1228
    80007698:	00a51513          	slli	a0,a0,0xa
    8000769c:	33250513          	addi	a0,a0,818
    800076a0:	55454593          	xori	a1,a0,1364
    800076a4:	08b23c23          	sd	a1,152(tp) # 98 <pos+0x58>
    800076a8:	03333337          	lui	t1,0x3333
    800076ac:	3333031b          	addiw	t1,t1,819 # 3333333 <offset+0x3333053>
    800076b0:	00c31313          	slli	t1,t1,0xc
    800076b4:	33330313          	addi	t1,t1,819
    800076b8:	00c31313          	slli	t1,t1,0xc
    800076bc:	33330313          	addi	t1,t1,819
    800076c0:	00c31313          	slli	t1,t1,0xc
    800076c4:	66630313          	addi	t1,t1,1638
    800076c8:	00b30463          	beq	t1,a1,800076d0 <inst_552>
    800076cc:	959f806f          	j	80000024 <rvtest_error>

00000000800076d0 <inst_552>:
    800076d0:	33333537          	lui	a0,0x33333
    800076d4:	33350513          	addi	a0,a0,819 # 33333333 <absimmsh+0x27862586>
    800076d8:	00b51513          	slli	a0,a0,0xb
    800076dc:	19950513          	addi	a0,a0,409
    800076e0:	00b51513          	slli	a0,a0,0xb
    800076e4:	4cc50513          	addi	a0,a0,1228
    800076e8:	00a51513          	slli	a0,a0,0xa
    800076ec:	33250513          	addi	a0,a0,818
    800076f0:	00054593          	xori	a1,a0,0
    800076f4:	0ab23023          	sd	a1,160(tp) # a0 <pos+0x60>
    800076f8:	03333337          	lui	t1,0x3333
    800076fc:	3333031b          	addiw	t1,t1,819 # 3333333 <offset+0x3333053>
    80007700:	00c31313          	slli	t1,t1,0xc
    80007704:	33330313          	addi	t1,t1,819
    80007708:	00c31313          	slli	t1,t1,0xc
    8000770c:	33330313          	addi	t1,t1,819
    80007710:	00c31313          	slli	t1,t1,0xc
    80007714:	33230313          	addi	t1,t1,818
    80007718:	00b30463          	beq	t1,a1,80007720 <inst_553>
    8000771c:	909f806f          	j	80000024 <rvtest_error>

0000000080007720 <inst_553>:
    80007720:	33333537          	lui	a0,0x33333
    80007724:	33350513          	addi	a0,a0,819 # 33333333 <absimmsh+0x27862586>
    80007728:	00b51513          	slli	a0,a0,0xb
    8000772c:	19950513          	addi	a0,a0,409
    80007730:	00b51513          	slli	a0,a0,0xb
    80007734:	4cc50513          	addi	a0,a0,1228
    80007738:	00a51513          	slli	a0,a0,0xa
    8000773c:	33250513          	addi	a0,a0,818
    80007740:	00454593          	xori	a1,a0,4
    80007744:	0ab23423          	sd	a1,168(tp) # a8 <pos+0x68>
    80007748:	03333337          	lui	t1,0x3333
    8000774c:	3333031b          	addiw	t1,t1,819 # 3333333 <offset+0x3333053>
    80007750:	00c31313          	slli	t1,t1,0xc
    80007754:	33330313          	addi	t1,t1,819
    80007758:	00c31313          	slli	t1,t1,0xc
    8000775c:	33330313          	addi	t1,t1,819
    80007760:	00c31313          	slli	t1,t1,0xc
    80007764:	33630313          	addi	t1,t1,822
    80007768:	00b30463          	beq	t1,a1,80007770 <inst_554>
    8000776c:	8b9f806f          	j	80000024 <rvtest_error>

0000000080007770 <inst_554>:
    80007770:	33333537          	lui	a0,0x33333
    80007774:	33350513          	addi	a0,a0,819 # 33333333 <absimmsh+0x27862586>
    80007778:	00b51513          	slli	a0,a0,0xb
    8000777c:	19950513          	addi	a0,a0,409
    80007780:	00b51513          	slli	a0,a0,0xb
    80007784:	4cc50513          	addi	a0,a0,1228
    80007788:	00a51513          	slli	a0,a0,0xa
    8000778c:	33250513          	addi	a0,a0,818
    80007790:	33254593          	xori	a1,a0,818
    80007794:	0ab23823          	sd	a1,176(tp) # b0 <pos+0x70>
    80007798:	03333337          	lui	t1,0x3333
    8000779c:	3333031b          	addiw	t1,t1,819 # 3333333 <offset+0x3333053>
    800077a0:	00c31313          	slli	t1,t1,0xc
    800077a4:	33330313          	addi	t1,t1,819
    800077a8:	00c31313          	slli	t1,t1,0xc
    800077ac:	33330313          	addi	t1,t1,819
    800077b0:	00c31313          	slli	t1,t1,0xc
    800077b4:	00b30463          	beq	t1,a1,800077bc <inst_555>
    800077b8:	86df806f          	j	80000024 <rvtest_error>

00000000800077bc <inst_555>:
    800077bc:	33333537          	lui	a0,0x33333
    800077c0:	33350513          	addi	a0,a0,819 # 33333333 <absimmsh+0x27862586>
    800077c4:	00b51513          	slli	a0,a0,0xb
    800077c8:	19950513          	addi	a0,a0,409
    800077cc:	00b51513          	slli	a0,a0,0xb
    800077d0:	4cc50513          	addi	a0,a0,1228
    800077d4:	00a51513          	slli	a0,a0,0xa
    800077d8:	33250513          	addi	a0,a0,818
    800077dc:	66554593          	xori	a1,a0,1637
    800077e0:	0ab23c23          	sd	a1,184(tp) # b8 <pos+0x78>
    800077e4:	03333337          	lui	t1,0x3333
    800077e8:	3333031b          	addiw	t1,t1,819 # 3333333 <offset+0x3333053>
    800077ec:	00c31313          	slli	t1,t1,0xc
    800077f0:	33330313          	addi	t1,t1,819
    800077f4:	00c31313          	slli	t1,t1,0xc
    800077f8:	33330313          	addi	t1,t1,819
    800077fc:	00c31313          	slli	t1,t1,0xc
    80007800:	55730313          	addi	t1,t1,1367
    80007804:	00b30463          	beq	t1,a1,8000780c <inst_556>
    80007808:	81df806f          	j	80000024 <rvtest_error>

000000008000780c <inst_556>:
    8000780c:	33333537          	lui	a0,0x33333
    80007810:	33350513          	addi	a0,a0,819 # 33333333 <absimmsh+0x27862586>
    80007814:	00b51513          	slli	a0,a0,0xb
    80007818:	19950513          	addi	a0,a0,409
    8000781c:	00b51513          	slli	a0,a0,0xb
    80007820:	4cc50513          	addi	a0,a0,1228
    80007824:	00a51513          	slli	a0,a0,0xa
    80007828:	33250513          	addi	a0,a0,818
    8000782c:	02c54593          	xori	a1,a0,44
    80007830:	0cb23023          	sd	a1,192(tp) # c0 <pos+0x80>
    80007834:	03333337          	lui	t1,0x3333
    80007838:	3333031b          	addiw	t1,t1,819 # 3333333 <offset+0x3333053>
    8000783c:	00c31313          	slli	t1,t1,0xc
    80007840:	33330313          	addi	t1,t1,819
    80007844:	00c31313          	slli	t1,t1,0xc
    80007848:	33330313          	addi	t1,t1,819
    8000784c:	00c31313          	slli	t1,t1,0xc
    80007850:	31e30313          	addi	t1,t1,798
    80007854:	00b30463          	beq	t1,a1,8000785c <inst_557>
    80007858:	fccf806f          	j	80000024 <rvtest_error>

000000008000785c <inst_557>:
    8000785c:	33333537          	lui	a0,0x33333
    80007860:	33350513          	addi	a0,a0,819 # 33333333 <absimmsh+0x27862586>
    80007864:	00b51513          	slli	a0,a0,0xb
    80007868:	19950513          	addi	a0,a0,409
    8000786c:	00b51513          	slli	a0,a0,0xb
    80007870:	4cc50513          	addi	a0,a0,1228
    80007874:	00a51513          	slli	a0,a0,0xa
    80007878:	33250513          	addi	a0,a0,818
    8000787c:	55654593          	xori	a1,a0,1366
    80007880:	0cb23423          	sd	a1,200(tp) # c8 <pos+0x88>
    80007884:	03333337          	lui	t1,0x3333
    80007888:	3333031b          	addiw	t1,t1,819 # 3333333 <offset+0x3333053>
    8000788c:	00c31313          	slli	t1,t1,0xc
    80007890:	33330313          	addi	t1,t1,819
    80007894:	00c31313          	slli	t1,t1,0xc
    80007898:	33330313          	addi	t1,t1,819
    8000789c:	00c31313          	slli	t1,t1,0xc
    800078a0:	66430313          	addi	t1,t1,1636
    800078a4:	00b30463          	beq	t1,a1,800078ac <inst_558>
    800078a8:	f7cf806f          	j	80000024 <rvtest_error>

00000000800078ac <inst_558>:
    800078ac:	33333537          	lui	a0,0x33333
    800078b0:	33350513          	addi	a0,a0,819 # 33333333 <absimmsh+0x27862586>
    800078b4:	00b51513          	slli	a0,a0,0xb
    800078b8:	19950513          	addi	a0,a0,409
    800078bc:	00b51513          	slli	a0,a0,0xb
    800078c0:	4cc50513          	addi	a0,a0,1228
    800078c4:	00a51513          	slli	a0,a0,0xa
    800078c8:	33250513          	addi	a0,a0,818
    800078cc:	aab54593          	xori	a1,a0,-1365
    800078d0:	0cb23823          	sd	a1,208(tp) # d0 <pos+0x90>
    800078d4:	fcccd337          	lui	t1,0xfcccd
    800078d8:	ccd3031b          	addiw	t1,t1,-819 # fffffffffccccccd <absimm+0xffffffff41fbf1fd>
    800078dc:	00c31313          	slli	t1,t1,0xc
    800078e0:	ccd30313          	addi	t1,t1,-819
    800078e4:	00c31313          	slli	t1,t1,0xc
    800078e8:	ccd30313          	addi	t1,t1,-819
    800078ec:	00c31313          	slli	t1,t1,0xc
    800078f0:	99930313          	addi	t1,t1,-1639
    800078f4:	00b30463          	beq	t1,a1,800078fc <inst_559>
    800078f8:	f2cf806f          	j	80000024 <rvtest_error>

00000000800078fc <inst_559>:
    800078fc:	33333537          	lui	a0,0x33333
    80007900:	33350513          	addi	a0,a0,819 # 33333333 <absimmsh+0x27862586>
    80007904:	00b51513          	slli	a0,a0,0xb
    80007908:	19950513          	addi	a0,a0,409
    8000790c:	00b51513          	slli	a0,a0,0xb
    80007910:	4cc50513          	addi	a0,a0,1228
    80007914:	00a51513          	slli	a0,a0,0xa
    80007918:	33250513          	addi	a0,a0,818
    8000791c:	00654593          	xori	a1,a0,6
    80007920:	0cb23c23          	sd	a1,216(tp) # d8 <pos+0x98>
    80007924:	03333337          	lui	t1,0x3333
    80007928:	3333031b          	addiw	t1,t1,819 # 3333333 <offset+0x3333053>
    8000792c:	00c31313          	slli	t1,t1,0xc
    80007930:	33330313          	addi	t1,t1,819
    80007934:	00c31313          	slli	t1,t1,0xc
    80007938:	33330313          	addi	t1,t1,819
    8000793c:	00c31313          	slli	t1,t1,0xc
    80007940:	33430313          	addi	t1,t1,820
    80007944:	00b30463          	beq	t1,a1,8000794c <inst_560>
    80007948:	edcf806f          	j	80000024 <rvtest_error>

000000008000794c <inst_560>:
    8000794c:	33333537          	lui	a0,0x33333
    80007950:	33350513          	addi	a0,a0,819 # 33333333 <absimmsh+0x27862586>
    80007954:	00b51513          	slli	a0,a0,0xb
    80007958:	19950513          	addi	a0,a0,409
    8000795c:	00b51513          	slli	a0,a0,0xb
    80007960:	4cc50513          	addi	a0,a0,1228
    80007964:	00a51513          	slli	a0,a0,0xa
    80007968:	33250513          	addi	a0,a0,818
    8000796c:	33454593          	xori	a1,a0,820
    80007970:	0eb23023          	sd	a1,224(tp) # e0 <pos+0xa0>
    80007974:	03333337          	lui	t1,0x3333
    80007978:	3333031b          	addiw	t1,t1,819 # 3333333 <offset+0x3333053>
    8000797c:	00c31313          	slli	t1,t1,0xc
    80007980:	33330313          	addi	t1,t1,819
    80007984:	00c31313          	slli	t1,t1,0xc
    80007988:	33330313          	addi	t1,t1,819
    8000798c:	00c31313          	slli	t1,t1,0xc
    80007990:	00630313          	addi	t1,t1,6
    80007994:	00b30463          	beq	t1,a1,8000799c <inst_561>
    80007998:	e8cf806f          	j	80000024 <rvtest_error>

000000008000799c <inst_561>:
    8000799c:	33333537          	lui	a0,0x33333
    800079a0:	33350513          	addi	a0,a0,819 # 33333333 <absimmsh+0x27862586>
    800079a4:	00b51513          	slli	a0,a0,0xb
    800079a8:	19950513          	addi	a0,a0,409
    800079ac:	00b51513          	slli	a0,a0,0xb
    800079b0:	4cc50513          	addi	a0,a0,1228
    800079b4:	00a51513          	slli	a0,a0,0xa
    800079b8:	33250513          	addi	a0,a0,818
    800079bc:	66754593          	xori	a1,a0,1639
    800079c0:	0eb23423          	sd	a1,232(tp) # e8 <pos+0xa8>
    800079c4:	03333337          	lui	t1,0x3333
    800079c8:	3333031b          	addiw	t1,t1,819 # 3333333 <offset+0x3333053>
    800079cc:	00c31313          	slli	t1,t1,0xc
    800079d0:	33330313          	addi	t1,t1,819
    800079d4:	00c31313          	slli	t1,t1,0xc
    800079d8:	33330313          	addi	t1,t1,819
    800079dc:	00c31313          	slli	t1,t1,0xc
    800079e0:	55530313          	addi	t1,t1,1365
    800079e4:	00b30463          	beq	t1,a1,800079ec <inst_562>
    800079e8:	e3cf806f          	j	80000024 <rvtest_error>

00000000800079ec <inst_562>:
    800079ec:	33333537          	lui	a0,0x33333
    800079f0:	33350513          	addi	a0,a0,819 # 33333333 <absimmsh+0x27862586>
    800079f4:	00b51513          	slli	a0,a0,0xb
    800079f8:	19950513          	addi	a0,a0,409
    800079fc:	00b51513          	slli	a0,a0,0xb
    80007a00:	4cc50513          	addi	a0,a0,1228
    80007a04:	00a51513          	slli	a0,a0,0xa
    80007a08:	33250513          	addi	a0,a0,818
    80007a0c:	fd454593          	xori	a1,a0,-44
    80007a10:	0eb23823          	sd	a1,240(tp) # f0 <pos+0xb0>
    80007a14:	fcccd337          	lui	t1,0xfcccd
    80007a18:	ccd3031b          	addiw	t1,t1,-819 # fffffffffccccccd <absimm+0xffffffff41fbf1fd>
    80007a1c:	00c31313          	slli	t1,t1,0xc
    80007a20:	ccd30313          	addi	t1,t1,-819
    80007a24:	00c31313          	slli	t1,t1,0xc
    80007a28:	ccd30313          	addi	t1,t1,-819
    80007a2c:	00c31313          	slli	t1,t1,0xc
    80007a30:	ce630313          	addi	t1,t1,-794
    80007a34:	00b30463          	beq	t1,a1,80007a3c <inst_563>
    80007a38:	decf806f          	j	80000024 <rvtest_error>

0000000080007a3c <inst_563>:
    80007a3c:	33333537          	lui	a0,0x33333
    80007a40:	33350513          	addi	a0,a0,819 # 33333333 <absimmsh+0x27862586>
    80007a44:	00b51513          	slli	a0,a0,0xb
    80007a48:	19950513          	addi	a0,a0,409
    80007a4c:	00b51513          	slli	a0,a0,0xb
    80007a50:	4cc50513          	addi	a0,a0,1228
    80007a54:	00a51513          	slli	a0,a0,0xa
    80007a58:	33250513          	addi	a0,a0,818
    80007a5c:	02e54593          	xori	a1,a0,46
    80007a60:	0eb23c23          	sd	a1,248(tp) # f8 <pos+0xb8>
    80007a64:	03333337          	lui	t1,0x3333
    80007a68:	3333031b          	addiw	t1,t1,819 # 3333333 <offset+0x3333053>
    80007a6c:	00c31313          	slli	t1,t1,0xc
    80007a70:	33330313          	addi	t1,t1,819
    80007a74:	00c31313          	slli	t1,t1,0xc
    80007a78:	33330313          	addi	t1,t1,819
    80007a7c:	00c31313          	slli	t1,t1,0xc
    80007a80:	31c30313          	addi	t1,t1,796
    80007a84:	00b30463          	beq	t1,a1,80007a8c <inst_564>
    80007a88:	d9cf806f          	j	80000024 <rvtest_error>

0000000080007a8c <inst_564>:
    80007a8c:	66666537          	lui	a0,0x66666
    80007a90:	66650513          	addi	a0,a0,1638 # 66666666 <absimmsh+0x5ab958b9>
    80007a94:	00b51513          	slli	a0,a0,0xb
    80007a98:	33350513          	addi	a0,a0,819
    80007a9c:	00b51513          	slli	a0,a0,0xb
    80007aa0:	19950513          	addi	a0,a0,409
    80007aa4:	00a51513          	slli	a0,a0,0xa
    80007aa8:	26550513          	addi	a0,a0,613
    80007aac:	00354593          	xori	a1,a0,3
    80007ab0:	10b23023          	sd	a1,256(tp) # 100 <pos+0xc0>
    80007ab4:	03333337          	lui	t1,0x3333
    80007ab8:	3333031b          	addiw	t1,t1,819 # 3333333 <offset+0x3333053>
    80007abc:	00c31313          	slli	t1,t1,0xc
    80007ac0:	33330313          	addi	t1,t1,819
    80007ac4:	00c31313          	slli	t1,t1,0xc
    80007ac8:	33330313          	addi	t1,t1,819
    80007acc:	00d31313          	slli	t1,t1,0xd
    80007ad0:	66630313          	addi	t1,t1,1638
    80007ad4:	00b30463          	beq	t1,a1,80007adc <inst_565>
    80007ad8:	d4cf806f          	j	80000024 <rvtest_error>

0000000080007adc <inst_565>:
    80007adc:	66666537          	lui	a0,0x66666
    80007ae0:	66650513          	addi	a0,a0,1638 # 66666666 <absimmsh+0x5ab958b9>
    80007ae4:	00b51513          	slli	a0,a0,0xb
    80007ae8:	33350513          	addi	a0,a0,819
    80007aec:	00b51513          	slli	a0,a0,0xb
    80007af0:	19950513          	addi	a0,a0,409
    80007af4:	00a51513          	slli	a0,a0,0xa
    80007af8:	26550513          	addi	a0,a0,613
    80007afc:	55554593          	xori	a1,a0,1365
    80007b00:	10b23423          	sd	a1,264(tp) # 108 <pos+0xc8>
    80007b04:	03333337          	lui	t1,0x3333
    80007b08:	3333031b          	addiw	t1,t1,819 # 3333333 <offset+0x3333053>
    80007b0c:	00c31313          	slli	t1,t1,0xc
    80007b10:	33330313          	addi	t1,t1,819
    80007b14:	00c31313          	slli	t1,t1,0xc
    80007b18:	33330313          	addi	t1,t1,819
    80007b1c:	00d31313          	slli	t1,t1,0xd
    80007b20:	33030313          	addi	t1,t1,816
    80007b24:	00b30463          	beq	t1,a1,80007b2c <inst_566>
    80007b28:	cfcf806f          	j	80000024 <rvtest_error>

0000000080007b2c <inst_566>:
    80007b2c:	66666537          	lui	a0,0x66666
    80007b30:	66650513          	addi	a0,a0,1638 # 66666666 <absimmsh+0x5ab958b9>
    80007b34:	00b51513          	slli	a0,a0,0xb
    80007b38:	33350513          	addi	a0,a0,819
    80007b3c:	00b51513          	slli	a0,a0,0xb
    80007b40:	19950513          	addi	a0,a0,409
    80007b44:	00a51513          	slli	a0,a0,0xa
    80007b48:	26550513          	addi	a0,a0,613
    80007b4c:	aaa54593          	xori	a1,a0,-1366
    80007b50:	10b23823          	sd	a1,272(tp) # 110 <pos+0xd0>
    80007b54:	fcccd337          	lui	t1,0xfcccd
    80007b58:	ccd3031b          	addiw	t1,t1,-819 # fffffffffccccccd <absimm+0xffffffff41fbf1fd>
    80007b5c:	00c31313          	slli	t1,t1,0xc
    80007b60:	ccd30313          	addi	t1,t1,-819
    80007b64:	00c31313          	slli	t1,t1,0xc
    80007b68:	ccd30313          	addi	t1,t1,-819
    80007b6c:	00d31313          	slli	t1,t1,0xd
    80007b70:	ccf30313          	addi	t1,t1,-817
    80007b74:	00b30463          	beq	t1,a1,80007b7c <inst_567>
    80007b78:	cacf806f          	j	80000024 <rvtest_error>

0000000080007b7c <inst_567>:
    80007b7c:	66666537          	lui	a0,0x66666
    80007b80:	66650513          	addi	a0,a0,1638 # 66666666 <absimmsh+0x5ab958b9>
    80007b84:	00b51513          	slli	a0,a0,0xb
    80007b88:	33350513          	addi	a0,a0,819
    80007b8c:	00b51513          	slli	a0,a0,0xb
    80007b90:	19950513          	addi	a0,a0,409
    80007b94:	00a51513          	slli	a0,a0,0xa
    80007b98:	26550513          	addi	a0,a0,613
    80007b9c:	00554593          	xori	a1,a0,5
    80007ba0:	10b23c23          	sd	a1,280(tp) # 118 <pos+0xd8>
    80007ba4:	03333337          	lui	t1,0x3333
    80007ba8:	3333031b          	addiw	t1,t1,819 # 3333333 <offset+0x3333053>
    80007bac:	00c31313          	slli	t1,t1,0xc
    80007bb0:	33330313          	addi	t1,t1,819
    80007bb4:	00c31313          	slli	t1,t1,0xc
    80007bb8:	33330313          	addi	t1,t1,819
    80007bbc:	00d31313          	slli	t1,t1,0xd
    80007bc0:	66030313          	addi	t1,t1,1632
    80007bc4:	00b30463          	beq	t1,a1,80007bcc <inst_568>
    80007bc8:	c5cf806f          	j	80000024 <rvtest_error>

0000000080007bcc <inst_568>:
    80007bcc:	66666537          	lui	a0,0x66666
    80007bd0:	66650513          	addi	a0,a0,1638 # 66666666 <absimmsh+0x5ab958b9>
    80007bd4:	00b51513          	slli	a0,a0,0xb
    80007bd8:	33350513          	addi	a0,a0,819
    80007bdc:	00b51513          	slli	a0,a0,0xb
    80007be0:	19950513          	addi	a0,a0,409
    80007be4:	00a51513          	slli	a0,a0,0xa
    80007be8:	26550513          	addi	a0,a0,613
    80007bec:	33354593          	xori	a1,a0,819
    80007bf0:	12b23023          	sd	a1,288(tp) # 120 <pos+0xe0>
    80007bf4:	03333337          	lui	t1,0x3333
    80007bf8:	3333031b          	addiw	t1,t1,819 # 3333333 <offset+0x3333053>
    80007bfc:	00c31313          	slli	t1,t1,0xc
    80007c00:	33330313          	addi	t1,t1,819
    80007c04:	00c31313          	slli	t1,t1,0xc
    80007c08:	33330313          	addi	t1,t1,819
    80007c0c:	00d31313          	slli	t1,t1,0xd
    80007c10:	55630313          	addi	t1,t1,1366
    80007c14:	00b30463          	beq	t1,a1,80007c1c <inst_569>
    80007c18:	c0cf806f          	j	80000024 <rvtest_error>

0000000080007c1c <inst_569>:
    80007c1c:	66666537          	lui	a0,0x66666
    80007c20:	66650513          	addi	a0,a0,1638 # 66666666 <absimmsh+0x5ab958b9>
    80007c24:	00b51513          	slli	a0,a0,0xb
    80007c28:	33350513          	addi	a0,a0,819
    80007c2c:	00b51513          	slli	a0,a0,0xb
    80007c30:	19950513          	addi	a0,a0,409
    80007c34:	00a51513          	slli	a0,a0,0xa
    80007c38:	26550513          	addi	a0,a0,613
    80007c3c:	66654593          	xori	a1,a0,1638
    80007c40:	12b23423          	sd	a1,296(tp) # 128 <pos+0xe8>
    80007c44:	03333337          	lui	t1,0x3333
    80007c48:	3333031b          	addiw	t1,t1,819 # 3333333 <offset+0x3333053>
    80007c4c:	00c31313          	slli	t1,t1,0xc
    80007c50:	33330313          	addi	t1,t1,819
    80007c54:	00c31313          	slli	t1,t1,0xc
    80007c58:	33330313          	addi	t1,t1,819
    80007c5c:	00d31313          	slli	t1,t1,0xd
    80007c60:	00330313          	addi	t1,t1,3
    80007c64:	00b30463          	beq	t1,a1,80007c6c <inst_570>
    80007c68:	bbcf806f          	j	80000024 <rvtest_error>

0000000080007c6c <inst_570>:
    80007c6c:	66666537          	lui	a0,0x66666
    80007c70:	66650513          	addi	a0,a0,1638 # 66666666 <absimmsh+0x5ab958b9>
    80007c74:	00b51513          	slli	a0,a0,0xb
    80007c78:	33350513          	addi	a0,a0,819
    80007c7c:	00b51513          	slli	a0,a0,0xb
    80007c80:	19950513          	addi	a0,a0,409
    80007c84:	00a51513          	slli	a0,a0,0xa
    80007c88:	26550513          	addi	a0,a0,613
    80007c8c:	fd354593          	xori	a1,a0,-45
    80007c90:	12b23823          	sd	a1,304(tp) # 130 <pos+0xf0>
    80007c94:	fcccd337          	lui	t1,0xfcccd
    80007c98:	ccd3031b          	addiw	t1,t1,-819 # fffffffffccccccd <absimm+0xffffffff41fbf1fd>
    80007c9c:	00c31313          	slli	t1,t1,0xc
    80007ca0:	ccd30313          	addi	t1,t1,-819
    80007ca4:	00c31313          	slli	t1,t1,0xc
    80007ca8:	ccd30313          	addi	t1,t1,-819
    80007cac:	00d31313          	slli	t1,t1,0xd
    80007cb0:	9b630313          	addi	t1,t1,-1610
    80007cb4:	00b30463          	beq	t1,a1,80007cbc <inst_571>
    80007cb8:	b6cf806f          	j	80000024 <rvtest_error>

0000000080007cbc <inst_571>:
    80007cbc:	66666537          	lui	a0,0x66666
    80007cc0:	66650513          	addi	a0,a0,1638 # 66666666 <absimmsh+0x5ab958b9>
    80007cc4:	00b51513          	slli	a0,a0,0xb
    80007cc8:	33350513          	addi	a0,a0,819
    80007ccc:	00b51513          	slli	a0,a0,0xb
    80007cd0:	19950513          	addi	a0,a0,409
    80007cd4:	00a51513          	slli	a0,a0,0xa
    80007cd8:	26550513          	addi	a0,a0,613
    80007cdc:	02d54593          	xori	a1,a0,45
    80007ce0:	12b23c23          	sd	a1,312(tp) # 138 <pos+0xf8>
    80007ce4:	03333337          	lui	t1,0x3333
    80007ce8:	3333031b          	addiw	t1,t1,819 # 3333333 <offset+0x3333053>
    80007cec:	00c31313          	slli	t1,t1,0xc
    80007cf0:	33330313          	addi	t1,t1,819
    80007cf4:	00c31313          	slli	t1,t1,0xc
    80007cf8:	33330313          	addi	t1,t1,819
    80007cfc:	00d31313          	slli	t1,t1,0xd
    80007d00:	64830313          	addi	t1,t1,1608
    80007d04:	00b30463          	beq	t1,a1,80007d0c <inst_572>
    80007d08:	b1cf806f          	j	80000024 <rvtest_error>

0000000080007d0c <inst_572>:
    80007d0c:	66666537          	lui	a0,0x66666
    80007d10:	66650513          	addi	a0,a0,1638 # 66666666 <absimmsh+0x5ab958b9>
    80007d14:	00b51513          	slli	a0,a0,0xb
    80007d18:	33350513          	addi	a0,a0,819
    80007d1c:	00b51513          	slli	a0,a0,0xb
    80007d20:	19950513          	addi	a0,a0,409
    80007d24:	00a51513          	slli	a0,a0,0xa
    80007d28:	26550513          	addi	a0,a0,613
    80007d2c:	00254593          	xori	a1,a0,2
    80007d30:	14b23023          	sd	a1,320(tp) # 140 <pos+0x100>
    80007d34:	03333337          	lui	t1,0x3333
    80007d38:	3333031b          	addiw	t1,t1,819 # 3333333 <offset+0x3333053>
    80007d3c:	00c31313          	slli	t1,t1,0xc
    80007d40:	33330313          	addi	t1,t1,819
    80007d44:	00c31313          	slli	t1,t1,0xc
    80007d48:	33330313          	addi	t1,t1,819
    80007d4c:	00d31313          	slli	t1,t1,0xd
    80007d50:	66730313          	addi	t1,t1,1639
    80007d54:	00b30463          	beq	t1,a1,80007d5c <inst_573>
    80007d58:	accf806f          	j	80000024 <rvtest_error>

0000000080007d5c <inst_573>:
    80007d5c:	66666537          	lui	a0,0x66666
    80007d60:	66650513          	addi	a0,a0,1638 # 66666666 <absimmsh+0x5ab958b9>
    80007d64:	00b51513          	slli	a0,a0,0xb
    80007d68:	33350513          	addi	a0,a0,819
    80007d6c:	00b51513          	slli	a0,a0,0xb
    80007d70:	19950513          	addi	a0,a0,409
    80007d74:	00a51513          	slli	a0,a0,0xa
    80007d78:	26550513          	addi	a0,a0,613
    80007d7c:	55454593          	xori	a1,a0,1364
    80007d80:	14b23423          	sd	a1,328(tp) # 148 <pos+0x108>
    80007d84:	03333337          	lui	t1,0x3333
    80007d88:	3333031b          	addiw	t1,t1,819 # 3333333 <offset+0x3333053>
    80007d8c:	00c31313          	slli	t1,t1,0xc
    80007d90:	33330313          	addi	t1,t1,819
    80007d94:	00c31313          	slli	t1,t1,0xc
    80007d98:	33330313          	addi	t1,t1,819
    80007d9c:	00d31313          	slli	t1,t1,0xd
    80007da0:	33130313          	addi	t1,t1,817
    80007da4:	00b30463          	beq	t1,a1,80007dac <inst_574>
    80007da8:	a7cf806f          	j	80000024 <rvtest_error>

0000000080007dac <inst_574>:
    80007dac:	66666537          	lui	a0,0x66666
    80007db0:	66650513          	addi	a0,a0,1638 # 66666666 <absimmsh+0x5ab958b9>
    80007db4:	00b51513          	slli	a0,a0,0xb
    80007db8:	33350513          	addi	a0,a0,819
    80007dbc:	00b51513          	slli	a0,a0,0xb
    80007dc0:	19950513          	addi	a0,a0,409
    80007dc4:	00a51513          	slli	a0,a0,0xa
    80007dc8:	26550513          	addi	a0,a0,613
    80007dcc:	00054593          	xori	a1,a0,0
    80007dd0:	14b23823          	sd	a1,336(tp) # 150 <pos+0x110>
    80007dd4:	03333337          	lui	t1,0x3333
    80007dd8:	3333031b          	addiw	t1,t1,819 # 3333333 <offset+0x3333053>
    80007ddc:	00c31313          	slli	t1,t1,0xc
    80007de0:	33330313          	addi	t1,t1,819
    80007de4:	00c31313          	slli	t1,t1,0xc
    80007de8:	33330313          	addi	t1,t1,819
    80007dec:	00d31313          	slli	t1,t1,0xd
    80007df0:	66530313          	addi	t1,t1,1637
    80007df4:	00b30463          	beq	t1,a1,80007dfc <inst_575>
    80007df8:	a2cf806f          	j	80000024 <rvtest_error>

0000000080007dfc <inst_575>:
    80007dfc:	66666537          	lui	a0,0x66666
    80007e00:	66650513          	addi	a0,a0,1638 # 66666666 <absimmsh+0x5ab958b9>
    80007e04:	00b51513          	slli	a0,a0,0xb
    80007e08:	33350513          	addi	a0,a0,819
    80007e0c:	00b51513          	slli	a0,a0,0xb
    80007e10:	19950513          	addi	a0,a0,409
    80007e14:	00a51513          	slli	a0,a0,0xa
    80007e18:	26550513          	addi	a0,a0,613
    80007e1c:	00454593          	xori	a1,a0,4
    80007e20:	14b23c23          	sd	a1,344(tp) # 158 <pos+0x118>
    80007e24:	03333337          	lui	t1,0x3333
    80007e28:	3333031b          	addiw	t1,t1,819 # 3333333 <offset+0x3333053>
    80007e2c:	00c31313          	slli	t1,t1,0xc
    80007e30:	33330313          	addi	t1,t1,819
    80007e34:	00c31313          	slli	t1,t1,0xc
    80007e38:	33330313          	addi	t1,t1,819
    80007e3c:	00d31313          	slli	t1,t1,0xd
    80007e40:	66130313          	addi	t1,t1,1633
    80007e44:	00b30463          	beq	t1,a1,80007e4c <inst_576>
    80007e48:	9dcf806f          	j	80000024 <rvtest_error>

0000000080007e4c <inst_576>:
    80007e4c:	66666537          	lui	a0,0x66666
    80007e50:	66650513          	addi	a0,a0,1638 # 66666666 <absimmsh+0x5ab958b9>
    80007e54:	00b51513          	slli	a0,a0,0xb
    80007e58:	33350513          	addi	a0,a0,819
    80007e5c:	00b51513          	slli	a0,a0,0xb
    80007e60:	19950513          	addi	a0,a0,409
    80007e64:	00a51513          	slli	a0,a0,0xa
    80007e68:	26550513          	addi	a0,a0,613
    80007e6c:	33254593          	xori	a1,a0,818
    80007e70:	16b23023          	sd	a1,352(tp) # 160 <pos+0x120>
    80007e74:	03333337          	lui	t1,0x3333
    80007e78:	3333031b          	addiw	t1,t1,819 # 3333333 <offset+0x3333053>
    80007e7c:	00c31313          	slli	t1,t1,0xc
    80007e80:	33330313          	addi	t1,t1,819
    80007e84:	00c31313          	slli	t1,t1,0xc
    80007e88:	33330313          	addi	t1,t1,819
    80007e8c:	00d31313          	slli	t1,t1,0xd
    80007e90:	55730313          	addi	t1,t1,1367
    80007e94:	00b30463          	beq	t1,a1,80007e9c <inst_577>
    80007e98:	98cf806f          	j	80000024 <rvtest_error>

0000000080007e9c <inst_577>:
    80007e9c:	66666537          	lui	a0,0x66666
    80007ea0:	66650513          	addi	a0,a0,1638 # 66666666 <absimmsh+0x5ab958b9>
    80007ea4:	00b51513          	slli	a0,a0,0xb
    80007ea8:	33350513          	addi	a0,a0,819
    80007eac:	00b51513          	slli	a0,a0,0xb
    80007eb0:	19950513          	addi	a0,a0,409
    80007eb4:	00a51513          	slli	a0,a0,0xa
    80007eb8:	26550513          	addi	a0,a0,613
    80007ebc:	66554593          	xori	a1,a0,1637
    80007ec0:	16b23423          	sd	a1,360(tp) # 168 <pos+0x128>
    80007ec4:	03333337          	lui	t1,0x3333
    80007ec8:	3333031b          	addiw	t1,t1,819 # 3333333 <offset+0x3333053>
    80007ecc:	00c31313          	slli	t1,t1,0xc
    80007ed0:	33330313          	addi	t1,t1,819
    80007ed4:	00c31313          	slli	t1,t1,0xc
    80007ed8:	33330313          	addi	t1,t1,819
    80007edc:	00d31313          	slli	t1,t1,0xd
    80007ee0:	00b30463          	beq	t1,a1,80007ee8 <inst_578>
    80007ee4:	940f806f          	j	80000024 <rvtest_error>

0000000080007ee8 <inst_578>:
    80007ee8:	66666537          	lui	a0,0x66666
    80007eec:	66650513          	addi	a0,a0,1638 # 66666666 <absimmsh+0x5ab958b9>
    80007ef0:	00b51513          	slli	a0,a0,0xb
    80007ef4:	33350513          	addi	a0,a0,819
    80007ef8:	00b51513          	slli	a0,a0,0xb
    80007efc:	19950513          	addi	a0,a0,409
    80007f00:	00a51513          	slli	a0,a0,0xa
    80007f04:	26550513          	addi	a0,a0,613
    80007f08:	02c54593          	xori	a1,a0,44
    80007f0c:	16b23823          	sd	a1,368(tp) # 170 <pos+0x130>
    80007f10:	03333337          	lui	t1,0x3333
    80007f14:	3333031b          	addiw	t1,t1,819 # 3333333 <offset+0x3333053>
    80007f18:	00c31313          	slli	t1,t1,0xc
    80007f1c:	33330313          	addi	t1,t1,819
    80007f20:	00c31313          	slli	t1,t1,0xc
    80007f24:	33330313          	addi	t1,t1,819
    80007f28:	00d31313          	slli	t1,t1,0xd
    80007f2c:	64930313          	addi	t1,t1,1609
    80007f30:	00b30463          	beq	t1,a1,80007f38 <inst_579>
    80007f34:	8f0f806f          	j	80000024 <rvtest_error>

0000000080007f38 <inst_579>:
    80007f38:	66666537          	lui	a0,0x66666
    80007f3c:	66650513          	addi	a0,a0,1638 # 66666666 <absimmsh+0x5ab958b9>
    80007f40:	00b51513          	slli	a0,a0,0xb
    80007f44:	33350513          	addi	a0,a0,819
    80007f48:	00b51513          	slli	a0,a0,0xb
    80007f4c:	19950513          	addi	a0,a0,409
    80007f50:	00a51513          	slli	a0,a0,0xa
    80007f54:	26550513          	addi	a0,a0,613
    80007f58:	55654593          	xori	a1,a0,1366
    80007f5c:	16b23c23          	sd	a1,376(tp) # 178 <pos+0x138>
    80007f60:	03333337          	lui	t1,0x3333
    80007f64:	3333031b          	addiw	t1,t1,819 # 3333333 <offset+0x3333053>
    80007f68:	00c31313          	slli	t1,t1,0xc
    80007f6c:	33330313          	addi	t1,t1,819
    80007f70:	00c31313          	slli	t1,t1,0xc
    80007f74:	33330313          	addi	t1,t1,819
    80007f78:	00d31313          	slli	t1,t1,0xd
    80007f7c:	33330313          	addi	t1,t1,819
    80007f80:	00b30463          	beq	t1,a1,80007f88 <inst_580>
    80007f84:	8a0f806f          	j	80000024 <rvtest_error>

0000000080007f88 <inst_580>:
    80007f88:	66666537          	lui	a0,0x66666
    80007f8c:	66650513          	addi	a0,a0,1638 # 66666666 <absimmsh+0x5ab958b9>
    80007f90:	00b51513          	slli	a0,a0,0xb
    80007f94:	33350513          	addi	a0,a0,819
    80007f98:	00b51513          	slli	a0,a0,0xb
    80007f9c:	19950513          	addi	a0,a0,409
    80007fa0:	00a51513          	slli	a0,a0,0xa
    80007fa4:	26550513          	addi	a0,a0,613
    80007fa8:	aab54593          	xori	a1,a0,-1365
    80007fac:	18b23023          	sd	a1,384(tp) # 180 <pos+0x140>
    80007fb0:	fcccd337          	lui	t1,0xfcccd
    80007fb4:	ccd3031b          	addiw	t1,t1,-819 # fffffffffccccccd <absimm+0xffffffff41fbf1fd>
    80007fb8:	00c31313          	slli	t1,t1,0xc
    80007fbc:	ccd30313          	addi	t1,t1,-819
    80007fc0:	00c31313          	slli	t1,t1,0xc
    80007fc4:	ccd30313          	addi	t1,t1,-819
    80007fc8:	00d31313          	slli	t1,t1,0xd
    80007fcc:	cce30313          	addi	t1,t1,-818
    80007fd0:	00b30463          	beq	t1,a1,80007fd8 <inst_581>
    80007fd4:	850f806f          	j	80000024 <rvtest_error>

0000000080007fd8 <inst_581>:
    80007fd8:	66666537          	lui	a0,0x66666
    80007fdc:	66650513          	addi	a0,a0,1638 # 66666666 <absimmsh+0x5ab958b9>
    80007fe0:	00b51513          	slli	a0,a0,0xb
    80007fe4:	33350513          	addi	a0,a0,819
    80007fe8:	00b51513          	slli	a0,a0,0xb
    80007fec:	19950513          	addi	a0,a0,409
    80007ff0:	00a51513          	slli	a0,a0,0xa
    80007ff4:	26550513          	addi	a0,a0,613
    80007ff8:	00654593          	xori	a1,a0,6
    80007ffc:	18b23423          	sd	a1,392(tp) # 188 <pos+0x148>
    80008000:	03333337          	lui	t1,0x3333
    80008004:	3333031b          	addiw	t1,t1,819 # 3333333 <offset+0x3333053>
    80008008:	00c31313          	slli	t1,t1,0xc
    8000800c:	33330313          	addi	t1,t1,819
    80008010:	00c31313          	slli	t1,t1,0xc
    80008014:	33330313          	addi	t1,t1,819
    80008018:	00d31313          	slli	t1,t1,0xd
    8000801c:	66330313          	addi	t1,t1,1635
    80008020:	00b30463          	beq	t1,a1,80008028 <inst_582>
    80008024:	800f806f          	j	80000024 <rvtest_error>

0000000080008028 <inst_582>:
    80008028:	66666537          	lui	a0,0x66666
    8000802c:	66650513          	addi	a0,a0,1638 # 66666666 <absimmsh+0x5ab958b9>
    80008030:	00b51513          	slli	a0,a0,0xb
    80008034:	33350513          	addi	a0,a0,819
    80008038:	00b51513          	slli	a0,a0,0xb
    8000803c:	19950513          	addi	a0,a0,409
    80008040:	00a51513          	slli	a0,a0,0xa
    80008044:	26550513          	addi	a0,a0,613
    80008048:	33454593          	xori	a1,a0,820
    8000804c:	18b23823          	sd	a1,400(tp) # 190 <pos+0x150>
    80008050:	03333337          	lui	t1,0x3333
    80008054:	3333031b          	addiw	t1,t1,819 # 3333333 <offset+0x3333053>
    80008058:	00c31313          	slli	t1,t1,0xc
    8000805c:	33330313          	addi	t1,t1,819
    80008060:	00c31313          	slli	t1,t1,0xc
    80008064:	33330313          	addi	t1,t1,819
    80008068:	00d31313          	slli	t1,t1,0xd
    8000806c:	55130313          	addi	t1,t1,1361
    80008070:	00b30463          	beq	t1,a1,80008078 <inst_583>
    80008074:	fb1f706f          	j	80000024 <rvtest_error>

0000000080008078 <inst_583>:
    80008078:	66666537          	lui	a0,0x66666
    8000807c:	66650513          	addi	a0,a0,1638 # 66666666 <absimmsh+0x5ab958b9>
    80008080:	00b51513          	slli	a0,a0,0xb
    80008084:	33350513          	addi	a0,a0,819
    80008088:	00b51513          	slli	a0,a0,0xb
    8000808c:	19950513          	addi	a0,a0,409
    80008090:	00a51513          	slli	a0,a0,0xa
    80008094:	26550513          	addi	a0,a0,613
    80008098:	66754593          	xori	a1,a0,1639
    8000809c:	18b23c23          	sd	a1,408(tp) # 198 <pos+0x158>
    800080a0:	03333337          	lui	t1,0x3333
    800080a4:	3333031b          	addiw	t1,t1,819 # 3333333 <offset+0x3333053>
    800080a8:	00c31313          	slli	t1,t1,0xc
    800080ac:	33330313          	addi	t1,t1,819
    800080b0:	00c31313          	slli	t1,t1,0xc
    800080b4:	33330313          	addi	t1,t1,819
    800080b8:	00d31313          	slli	t1,t1,0xd
    800080bc:	00230313          	addi	t1,t1,2
    800080c0:	00b30463          	beq	t1,a1,800080c8 <inst_584>
    800080c4:	f61f706f          	j	80000024 <rvtest_error>

00000000800080c8 <inst_584>:
    800080c8:	66666537          	lui	a0,0x66666
    800080cc:	66650513          	addi	a0,a0,1638 # 66666666 <absimmsh+0x5ab958b9>
    800080d0:	00b51513          	slli	a0,a0,0xb
    800080d4:	33350513          	addi	a0,a0,819
    800080d8:	00b51513          	slli	a0,a0,0xb
    800080dc:	19950513          	addi	a0,a0,409
    800080e0:	00a51513          	slli	a0,a0,0xa
    800080e4:	26550513          	addi	a0,a0,613
    800080e8:	fd454593          	xori	a1,a0,-44
    800080ec:	1ab23023          	sd	a1,416(tp) # 1a0 <pos+0x160>
    800080f0:	fcccd337          	lui	t1,0xfcccd
    800080f4:	ccd3031b          	addiw	t1,t1,-819 # fffffffffccccccd <absimm+0xffffffff41fbf1fd>
    800080f8:	00c31313          	slli	t1,t1,0xc
    800080fc:	ccd30313          	addi	t1,t1,-819
    80008100:	00c31313          	slli	t1,t1,0xc
    80008104:	ccd30313          	addi	t1,t1,-819
    80008108:	00d31313          	slli	t1,t1,0xd
    8000810c:	9b130313          	addi	t1,t1,-1615
    80008110:	00b30463          	beq	t1,a1,80008118 <inst_585>
    80008114:	f11f706f          	j	80000024 <rvtest_error>

0000000080008118 <inst_585>:
    80008118:	66666537          	lui	a0,0x66666
    8000811c:	66650513          	addi	a0,a0,1638 # 66666666 <absimmsh+0x5ab958b9>
    80008120:	00b51513          	slli	a0,a0,0xb
    80008124:	33350513          	addi	a0,a0,819
    80008128:	00b51513          	slli	a0,a0,0xb
    8000812c:	19950513          	addi	a0,a0,409
    80008130:	00a51513          	slli	a0,a0,0xa
    80008134:	26550513          	addi	a0,a0,613
    80008138:	02e54593          	xori	a1,a0,46
    8000813c:	1ab23423          	sd	a1,424(tp) # 1a8 <pos+0x168>
    80008140:	03333337          	lui	t1,0x3333
    80008144:	3333031b          	addiw	t1,t1,819 # 3333333 <offset+0x3333053>
    80008148:	00c31313          	slli	t1,t1,0xc
    8000814c:	33330313          	addi	t1,t1,819
    80008150:	00c31313          	slli	t1,t1,0xc
    80008154:	33330313          	addi	t1,t1,819
    80008158:	00d31313          	slli	t1,t1,0xd
    8000815c:	64b30313          	addi	t1,t1,1611
    80008160:	00b30463          	beq	t1,a1,80008168 <inst_586>
    80008164:	ec1f706f          	j	80000024 <rvtest_error>

0000000080008168 <inst_586>:
    80008168:	00000537          	lui	a0,0x0
    8000816c:	00050513          	mv	a0,a0
    80008170:	00b51513          	slli	a0,a0,0xb
    80008174:	5a850513          	addi	a0,a0,1448 # 5a8 <offset+0x2c8>
    80008178:	00b51513          	slli	a0,a0,0xb
    8000817c:	13c50513          	addi	a0,a0,316
    80008180:	00a51513          	slli	a0,a0,0xa
    80008184:	33250513          	addi	a0,a0,818
    80008188:	00354593          	xori	a1,a0,3
    8000818c:	1ab23823          	sd	a1,432(tp) # 1b0 <pos+0x170>
    80008190:	000b5337          	lui	t1,0xb5
    80008194:	04f3031b          	addiw	t1,t1,79 # b504f <offset+0xb4d6f>
    80008198:	00c31313          	slli	t1,t1,0xc
    8000819c:	33130313          	addi	t1,t1,817
    800081a0:	00b30463          	beq	t1,a1,800081a8 <inst_587>
    800081a4:	e81f706f          	j	80000024 <rvtest_error>

00000000800081a8 <inst_587>:
    800081a8:	00000537          	lui	a0,0x0
    800081ac:	00050513          	mv	a0,a0
    800081b0:	00b51513          	slli	a0,a0,0xb
    800081b4:	5a850513          	addi	a0,a0,1448 # 5a8 <offset+0x2c8>
    800081b8:	00b51513          	slli	a0,a0,0xb
    800081bc:	13c50513          	addi	a0,a0,316
    800081c0:	00a51513          	slli	a0,a0,0xa
    800081c4:	33250513          	addi	a0,a0,818
    800081c8:	55554593          	xori	a1,a0,1365
    800081cc:	1ab23c23          	sd	a1,440(tp) # 1b8 <pos+0x178>
    800081d0:	000b5337          	lui	t1,0xb5
    800081d4:	04f3031b          	addiw	t1,t1,79 # b504f <offset+0xb4d6f>
    800081d8:	00c31313          	slli	t1,t1,0xc
    800081dc:	66730313          	addi	t1,t1,1639
    800081e0:	00b30463          	beq	t1,a1,800081e8 <inst_588>
    800081e4:	e41f706f          	j	80000024 <rvtest_error>

00000000800081e8 <inst_588>:
    800081e8:	00000537          	lui	a0,0x0
    800081ec:	00050513          	mv	a0,a0
    800081f0:	00b51513          	slli	a0,a0,0xb
    800081f4:	5a850513          	addi	a0,a0,1448 # 5a8 <offset+0x2c8>
    800081f8:	00b51513          	slli	a0,a0,0xb
    800081fc:	13c50513          	addi	a0,a0,316
    80008200:	00a51513          	slli	a0,a0,0xa
    80008204:	33250513          	addi	a0,a0,818
    80008208:	aaa54593          	xori	a1,a0,-1366
    8000820c:	1cb23023          	sd	a1,448(tp) # 1c0 <pos+0x180>
    80008210:	fff4b337          	lui	t1,0xfff4b
    80008214:	fb13031b          	addiw	t1,t1,-79 # fffffffffff4afb1 <absimm+0xffffffff4523d4e1>
    80008218:	00c31313          	slli	t1,t1,0xc
    8000821c:	99830313          	addi	t1,t1,-1640
    80008220:	00b30463          	beq	t1,a1,80008228 <inst_589>
    80008224:	e01f706f          	j	80000024 <rvtest_error>

0000000080008228 <inst_589>:
    80008228:	00000537          	lui	a0,0x0
    8000822c:	00050513          	mv	a0,a0
    80008230:	00b51513          	slli	a0,a0,0xb
    80008234:	5a850513          	addi	a0,a0,1448 # 5a8 <offset+0x2c8>
    80008238:	00b51513          	slli	a0,a0,0xb
    8000823c:	13c50513          	addi	a0,a0,316
    80008240:	00a51513          	slli	a0,a0,0xa
    80008244:	33250513          	addi	a0,a0,818
    80008248:	00554593          	xori	a1,a0,5
    8000824c:	1cb23423          	sd	a1,456(tp) # 1c8 <pos+0x188>
    80008250:	000b5337          	lui	t1,0xb5
    80008254:	04f3031b          	addiw	t1,t1,79 # b504f <offset+0xb4d6f>
    80008258:	00c31313          	slli	t1,t1,0xc
    8000825c:	33730313          	addi	t1,t1,823
    80008260:	00b30463          	beq	t1,a1,80008268 <inst_590>
    80008264:	dc1f706f          	j	80000024 <rvtest_error>

0000000080008268 <inst_590>:
    80008268:	00000537          	lui	a0,0x0
    8000826c:	00050513          	mv	a0,a0
    80008270:	00b51513          	slli	a0,a0,0xb
    80008274:	5a850513          	addi	a0,a0,1448 # 5a8 <offset+0x2c8>
    80008278:	00b51513          	slli	a0,a0,0xb
    8000827c:	13c50513          	addi	a0,a0,316
    80008280:	00a51513          	slli	a0,a0,0xa
    80008284:	33250513          	addi	a0,a0,818
    80008288:	33354593          	xori	a1,a0,819
    8000828c:	1cb23823          	sd	a1,464(tp) # 1d0 <pos+0x190>
    80008290:	000b5337          	lui	t1,0xb5
    80008294:	04f3031b          	addiw	t1,t1,79 # b504f <offset+0xb4d6f>
    80008298:	00c31313          	slli	t1,t1,0xc
    8000829c:	00130313          	addi	t1,t1,1
    800082a0:	00b30463          	beq	t1,a1,800082a8 <inst_591>
    800082a4:	d81f706f          	j	80000024 <rvtest_error>

00000000800082a8 <inst_591>:
    800082a8:	00000537          	lui	a0,0x0
    800082ac:	00050513          	mv	a0,a0
    800082b0:	00b51513          	slli	a0,a0,0xb
    800082b4:	5a850513          	addi	a0,a0,1448 # 5a8 <offset+0x2c8>
    800082b8:	00b51513          	slli	a0,a0,0xb
    800082bc:	13c50513          	addi	a0,a0,316
    800082c0:	00a51513          	slli	a0,a0,0xa
    800082c4:	33250513          	addi	a0,a0,818
    800082c8:	66654593          	xori	a1,a0,1638
    800082cc:	1cb23c23          	sd	a1,472(tp) # 1d8 <pos+0x198>
    800082d0:	000b5337          	lui	t1,0xb5
    800082d4:	04f3031b          	addiw	t1,t1,79 # b504f <offset+0xb4d6f>
    800082d8:	00c31313          	slli	t1,t1,0xc
    800082dc:	55430313          	addi	t1,t1,1364
    800082e0:	00b30463          	beq	t1,a1,800082e8 <inst_592>
    800082e4:	d41f706f          	j	80000024 <rvtest_error>

00000000800082e8 <inst_592>:
    800082e8:	00000537          	lui	a0,0x0
    800082ec:	00050513          	mv	a0,a0
    800082f0:	00b51513          	slli	a0,a0,0xb
    800082f4:	5a850513          	addi	a0,a0,1448 # 5a8 <offset+0x2c8>
    800082f8:	00b51513          	slli	a0,a0,0xb
    800082fc:	13c50513          	addi	a0,a0,316
    80008300:	00a51513          	slli	a0,a0,0xa
    80008304:	33250513          	addi	a0,a0,818
    80008308:	fd354593          	xori	a1,a0,-45
    8000830c:	1eb23023          	sd	a1,480(tp) # 1e0 <pos+0x1a0>
    80008310:	fff4b337          	lui	t1,0xfff4b
    80008314:	fb13031b          	addiw	t1,t1,-79 # fffffffffff4afb1 <absimm+0xffffffff4523d4e1>
    80008318:	00c31313          	slli	t1,t1,0xc
    8000831c:	ce130313          	addi	t1,t1,-799
    80008320:	00b30463          	beq	t1,a1,80008328 <inst_593>
    80008324:	d01f706f          	j	80000024 <rvtest_error>

0000000080008328 <inst_593>:
    80008328:	00000537          	lui	a0,0x0
    8000832c:	00050513          	mv	a0,a0
    80008330:	00b51513          	slli	a0,a0,0xb
    80008334:	5a850513          	addi	a0,a0,1448 # 5a8 <offset+0x2c8>
    80008338:	00b51513          	slli	a0,a0,0xb
    8000833c:	13c50513          	addi	a0,a0,316
    80008340:	00a51513          	slli	a0,a0,0xa
    80008344:	33250513          	addi	a0,a0,818
    80008348:	02d54593          	xori	a1,a0,45
    8000834c:	1eb23423          	sd	a1,488(tp) # 1e8 <pos+0x1a8>
    80008350:	000b5337          	lui	t1,0xb5
    80008354:	04f3031b          	addiw	t1,t1,79 # b504f <offset+0xb4d6f>
    80008358:	00c31313          	slli	t1,t1,0xc
    8000835c:	31f30313          	addi	t1,t1,799
    80008360:	00b30463          	beq	t1,a1,80008368 <inst_594>
    80008364:	cc1f706f          	j	80000024 <rvtest_error>

0000000080008368 <inst_594>:
    80008368:	00000537          	lui	a0,0x0
    8000836c:	00050513          	mv	a0,a0
    80008370:	00b51513          	slli	a0,a0,0xb
    80008374:	5a850513          	addi	a0,a0,1448 # 5a8 <offset+0x2c8>
    80008378:	00b51513          	slli	a0,a0,0xb
    8000837c:	13c50513          	addi	a0,a0,316
    80008380:	00a51513          	slli	a0,a0,0xa
    80008384:	33250513          	addi	a0,a0,818
    80008388:	00254593          	xori	a1,a0,2
    8000838c:	1eb23823          	sd	a1,496(tp) # 1f0 <pos+0x1b0>
    80008390:	000b5337          	lui	t1,0xb5
    80008394:	04f3031b          	addiw	t1,t1,79 # b504f <offset+0xb4d6f>
    80008398:	00c31313          	slli	t1,t1,0xc
    8000839c:	33030313          	addi	t1,t1,816
    800083a0:	00b30463          	beq	t1,a1,800083a8 <inst_595>
    800083a4:	c81f706f          	j	80000024 <rvtest_error>

00000000800083a8 <inst_595>:
    800083a8:	00000537          	lui	a0,0x0
    800083ac:	00050513          	mv	a0,a0
    800083b0:	00b51513          	slli	a0,a0,0xb
    800083b4:	5a850513          	addi	a0,a0,1448 # 5a8 <offset+0x2c8>
    800083b8:	00b51513          	slli	a0,a0,0xb
    800083bc:	13c50513          	addi	a0,a0,316
    800083c0:	00a51513          	slli	a0,a0,0xa
    800083c4:	33250513          	addi	a0,a0,818
    800083c8:	55454593          	xori	a1,a0,1364
    800083cc:	1eb23c23          	sd	a1,504(tp) # 1f8 <pos+0x1b8>
    800083d0:	000b5337          	lui	t1,0xb5
    800083d4:	04f3031b          	addiw	t1,t1,79 # b504f <offset+0xb4d6f>
    800083d8:	00c31313          	slli	t1,t1,0xc
    800083dc:	66630313          	addi	t1,t1,1638
    800083e0:	00b30463          	beq	t1,a1,800083e8 <inst_596>
    800083e4:	c41f706f          	j	80000024 <rvtest_error>

00000000800083e8 <inst_596>:
    800083e8:	00000537          	lui	a0,0x0
    800083ec:	00050513          	mv	a0,a0
    800083f0:	00b51513          	slli	a0,a0,0xb
    800083f4:	5a850513          	addi	a0,a0,1448 # 5a8 <offset+0x2c8>
    800083f8:	00b51513          	slli	a0,a0,0xb
    800083fc:	13c50513          	addi	a0,a0,316
    80008400:	00a51513          	slli	a0,a0,0xa
    80008404:	33250513          	addi	a0,a0,818
    80008408:	00054593          	xori	a1,a0,0
    8000840c:	20b23023          	sd	a1,512(tp) # 200 <pos+0x1c0>
    80008410:	000b5337          	lui	t1,0xb5
    80008414:	04f3031b          	addiw	t1,t1,79 # b504f <offset+0xb4d6f>
    80008418:	00c31313          	slli	t1,t1,0xc
    8000841c:	33230313          	addi	t1,t1,818
    80008420:	00b30463          	beq	t1,a1,80008428 <inst_597>
    80008424:	c01f706f          	j	80000024 <rvtest_error>

0000000080008428 <inst_597>:
    80008428:	00000537          	lui	a0,0x0
    8000842c:	00050513          	mv	a0,a0
    80008430:	00b51513          	slli	a0,a0,0xb
    80008434:	5a850513          	addi	a0,a0,1448 # 5a8 <offset+0x2c8>
    80008438:	00b51513          	slli	a0,a0,0xb
    8000843c:	13c50513          	addi	a0,a0,316
    80008440:	00a51513          	slli	a0,a0,0xa
    80008444:	33250513          	addi	a0,a0,818
    80008448:	00454593          	xori	a1,a0,4
    8000844c:	20b23423          	sd	a1,520(tp) # 208 <pos+0x1c8>
    80008450:	000b5337          	lui	t1,0xb5
    80008454:	04f3031b          	addiw	t1,t1,79 # b504f <offset+0xb4d6f>
    80008458:	00c31313          	slli	t1,t1,0xc
    8000845c:	33630313          	addi	t1,t1,822
    80008460:	00b30463          	beq	t1,a1,80008468 <inst_598>
    80008464:	bc1f706f          	j	80000024 <rvtest_error>

0000000080008468 <inst_598>:
    80008468:	00000537          	lui	a0,0x0
    8000846c:	00050513          	mv	a0,a0
    80008470:	00b51513          	slli	a0,a0,0xb
    80008474:	5a850513          	addi	a0,a0,1448 # 5a8 <offset+0x2c8>
    80008478:	00b51513          	slli	a0,a0,0xb
    8000847c:	13c50513          	addi	a0,a0,316
    80008480:	00a51513          	slli	a0,a0,0xa
    80008484:	33250513          	addi	a0,a0,818
    80008488:	33254593          	xori	a1,a0,818
    8000848c:	20b23823          	sd	a1,528(tp) # 210 <pos+0x1d0>
    80008490:	000b5337          	lui	t1,0xb5
    80008494:	04f3031b          	addiw	t1,t1,79 # b504f <offset+0xb4d6f>
    80008498:	00c31313          	slli	t1,t1,0xc
    8000849c:	00b30463          	beq	t1,a1,800084a4 <inst_599>
    800084a0:	b85f706f          	j	80000024 <rvtest_error>

00000000800084a4 <inst_599>:
    800084a4:	00000537          	lui	a0,0x0
    800084a8:	00050513          	mv	a0,a0
    800084ac:	00b51513          	slli	a0,a0,0xb
    800084b0:	5a850513          	addi	a0,a0,1448 # 5a8 <offset+0x2c8>
    800084b4:	00b51513          	slli	a0,a0,0xb
    800084b8:	13c50513          	addi	a0,a0,316
    800084bc:	00a51513          	slli	a0,a0,0xa
    800084c0:	33250513          	addi	a0,a0,818
    800084c4:	66554593          	xori	a1,a0,1637
    800084c8:	20b23c23          	sd	a1,536(tp) # 218 <pos+0x1d8>
    800084cc:	000b5337          	lui	t1,0xb5
    800084d0:	04f3031b          	addiw	t1,t1,79 # b504f <offset+0xb4d6f>
    800084d4:	00c31313          	slli	t1,t1,0xc
    800084d8:	55730313          	addi	t1,t1,1367
    800084dc:	00b30463          	beq	t1,a1,800084e4 <inst_600>
    800084e0:	b45f706f          	j	80000024 <rvtest_error>

00000000800084e4 <inst_600>:
    800084e4:	00000537          	lui	a0,0x0
    800084e8:	00050513          	mv	a0,a0
    800084ec:	00b51513          	slli	a0,a0,0xb
    800084f0:	5a850513          	addi	a0,a0,1448 # 5a8 <offset+0x2c8>
    800084f4:	00b51513          	slli	a0,a0,0xb
    800084f8:	13c50513          	addi	a0,a0,316
    800084fc:	00a51513          	slli	a0,a0,0xa
    80008500:	33250513          	addi	a0,a0,818
    80008504:	02c54593          	xori	a1,a0,44
    80008508:	22b23023          	sd	a1,544(tp) # 220 <pos+0x1e0>
    8000850c:	000b5337          	lui	t1,0xb5
    80008510:	04f3031b          	addiw	t1,t1,79 # b504f <offset+0xb4d6f>
    80008514:	00c31313          	slli	t1,t1,0xc
    80008518:	31e30313          	addi	t1,t1,798
    8000851c:	00b30463          	beq	t1,a1,80008524 <inst_601>
    80008520:	b05f706f          	j	80000024 <rvtest_error>

0000000080008524 <inst_601>:
    80008524:	00000537          	lui	a0,0x0
    80008528:	00050513          	mv	a0,a0
    8000852c:	00b51513          	slli	a0,a0,0xb
    80008530:	5a850513          	addi	a0,a0,1448 # 5a8 <offset+0x2c8>
    80008534:	00b51513          	slli	a0,a0,0xb
    80008538:	13c50513          	addi	a0,a0,316
    8000853c:	00a51513          	slli	a0,a0,0xa
    80008540:	33250513          	addi	a0,a0,818
    80008544:	55654593          	xori	a1,a0,1366
    80008548:	22b23423          	sd	a1,552(tp) # 228 <pos+0x1e8>
    8000854c:	000b5337          	lui	t1,0xb5
    80008550:	04f3031b          	addiw	t1,t1,79 # b504f <offset+0xb4d6f>
    80008554:	00c31313          	slli	t1,t1,0xc
    80008558:	66430313          	addi	t1,t1,1636
    8000855c:	00b30463          	beq	t1,a1,80008564 <inst_602>
    80008560:	ac5f706f          	j	80000024 <rvtest_error>

0000000080008564 <inst_602>:
    80008564:	00000537          	lui	a0,0x0
    80008568:	00050513          	mv	a0,a0
    8000856c:	00b51513          	slli	a0,a0,0xb
    80008570:	5a850513          	addi	a0,a0,1448 # 5a8 <offset+0x2c8>
    80008574:	00b51513          	slli	a0,a0,0xb
    80008578:	13c50513          	addi	a0,a0,316
    8000857c:	00a51513          	slli	a0,a0,0xa
    80008580:	33250513          	addi	a0,a0,818
    80008584:	aab54593          	xori	a1,a0,-1365
    80008588:	22b23823          	sd	a1,560(tp) # 230 <pos+0x1f0>
    8000858c:	fff4b337          	lui	t1,0xfff4b
    80008590:	fb13031b          	addiw	t1,t1,-79 # fffffffffff4afb1 <absimm+0xffffffff4523d4e1>
    80008594:	00c31313          	slli	t1,t1,0xc
    80008598:	99930313          	addi	t1,t1,-1639
    8000859c:	00b30463          	beq	t1,a1,800085a4 <inst_603>
    800085a0:	a85f706f          	j	80000024 <rvtest_error>

00000000800085a4 <inst_603>:
    800085a4:	00000537          	lui	a0,0x0
    800085a8:	00050513          	mv	a0,a0
    800085ac:	00b51513          	slli	a0,a0,0xb
    800085b0:	5a850513          	addi	a0,a0,1448 # 5a8 <offset+0x2c8>
    800085b4:	00b51513          	slli	a0,a0,0xb
    800085b8:	13c50513          	addi	a0,a0,316
    800085bc:	00a51513          	slli	a0,a0,0xa
    800085c0:	33250513          	addi	a0,a0,818
    800085c4:	00654593          	xori	a1,a0,6
    800085c8:	22b23c23          	sd	a1,568(tp) # 238 <pos+0x1f8>
    800085cc:	000b5337          	lui	t1,0xb5
    800085d0:	04f3031b          	addiw	t1,t1,79 # b504f <offset+0xb4d6f>
    800085d4:	00c31313          	slli	t1,t1,0xc
    800085d8:	33430313          	addi	t1,t1,820
    800085dc:	00b30463          	beq	t1,a1,800085e4 <inst_604>
    800085e0:	a45f706f          	j	80000024 <rvtest_error>

00000000800085e4 <inst_604>:
    800085e4:	00000537          	lui	a0,0x0
    800085e8:	00050513          	mv	a0,a0
    800085ec:	00b51513          	slli	a0,a0,0xb
    800085f0:	5a850513          	addi	a0,a0,1448 # 5a8 <offset+0x2c8>
    800085f4:	00b51513          	slli	a0,a0,0xb
    800085f8:	13c50513          	addi	a0,a0,316
    800085fc:	00a51513          	slli	a0,a0,0xa
    80008600:	33250513          	addi	a0,a0,818
    80008604:	33454593          	xori	a1,a0,820
    80008608:	24b23023          	sd	a1,576(tp) # 240 <pos+0x200>
    8000860c:	000b5337          	lui	t1,0xb5
    80008610:	04f3031b          	addiw	t1,t1,79 # b504f <offset+0xb4d6f>
    80008614:	00c31313          	slli	t1,t1,0xc
    80008618:	00630313          	addi	t1,t1,6
    8000861c:	00b30463          	beq	t1,a1,80008624 <inst_605>
    80008620:	a05f706f          	j	80000024 <rvtest_error>

0000000080008624 <inst_605>:
    80008624:	00000537          	lui	a0,0x0
    80008628:	00050513          	mv	a0,a0
    8000862c:	00b51513          	slli	a0,a0,0xb
    80008630:	5a850513          	addi	a0,a0,1448 # 5a8 <offset+0x2c8>
    80008634:	00b51513          	slli	a0,a0,0xb
    80008638:	13c50513          	addi	a0,a0,316
    8000863c:	00a51513          	slli	a0,a0,0xa
    80008640:	33250513          	addi	a0,a0,818
    80008644:	66754593          	xori	a1,a0,1639
    80008648:	24b23423          	sd	a1,584(tp) # 248 <pos+0x208>
    8000864c:	000b5337          	lui	t1,0xb5
    80008650:	04f3031b          	addiw	t1,t1,79 # b504f <offset+0xb4d6f>
    80008654:	00c31313          	slli	t1,t1,0xc
    80008658:	55530313          	addi	t1,t1,1365
    8000865c:	00b30463          	beq	t1,a1,80008664 <inst_606>
    80008660:	9c5f706f          	j	80000024 <rvtest_error>

0000000080008664 <inst_606>:
    80008664:	00000537          	lui	a0,0x0
    80008668:	00050513          	mv	a0,a0
    8000866c:	00b51513          	slli	a0,a0,0xb
    80008670:	5a850513          	addi	a0,a0,1448 # 5a8 <offset+0x2c8>
    80008674:	00b51513          	slli	a0,a0,0xb
    80008678:	13c50513          	addi	a0,a0,316
    8000867c:	00a51513          	slli	a0,a0,0xa
    80008680:	33250513          	addi	a0,a0,818
    80008684:	fd454593          	xori	a1,a0,-44
    80008688:	24b23823          	sd	a1,592(tp) # 250 <pos+0x210>
    8000868c:	fff4b337          	lui	t1,0xfff4b
    80008690:	fb13031b          	addiw	t1,t1,-79 # fffffffffff4afb1 <absimm+0xffffffff4523d4e1>
    80008694:	00c31313          	slli	t1,t1,0xc
    80008698:	ce630313          	addi	t1,t1,-794
    8000869c:	00b30463          	beq	t1,a1,800086a4 <inst_607>
    800086a0:	985f706f          	j	80000024 <rvtest_error>

00000000800086a4 <inst_607>:
    800086a4:	00000537          	lui	a0,0x0
    800086a8:	00050513          	mv	a0,a0
    800086ac:	00b51513          	slli	a0,a0,0xb
    800086b0:	5a850513          	addi	a0,a0,1448 # 5a8 <offset+0x2c8>
    800086b4:	00b51513          	slli	a0,a0,0xb
    800086b8:	13c50513          	addi	a0,a0,316
    800086bc:	00a51513          	slli	a0,a0,0xa
    800086c0:	33250513          	addi	a0,a0,818
    800086c4:	02e54593          	xori	a1,a0,46
    800086c8:	24b23c23          	sd	a1,600(tp) # 258 <pos+0x218>
    800086cc:	000b5337          	lui	t1,0xb5
    800086d0:	04f3031b          	addiw	t1,t1,79 # b504f <offset+0xb4d6f>
    800086d4:	00c31313          	slli	t1,t1,0xc
    800086d8:	31c30313          	addi	t1,t1,796
    800086dc:	00b30463          	beq	t1,a1,800086e4 <inst_608>
    800086e0:	945f706f          	j	80000024 <rvtest_error>

00000000800086e4 <inst_608>:
    800086e4:	55555537          	lui	a0,0x55555
    800086e8:	55550513          	addi	a0,a0,1365 # 55555555 <absimmsh+0x49a847a8>
    800086ec:	00b51513          	slli	a0,a0,0xb
    800086f0:	2aa50513          	addi	a0,a0,682
    800086f4:	00b51513          	slli	a0,a0,0xb
    800086f8:	55550513          	addi	a0,a0,1365
    800086fc:	00a51513          	slli	a0,a0,0xa
    80008700:	15650513          	addi	a0,a0,342
    80008704:	00354593          	xori	a1,a0,3
    80008708:	26b23023          	sd	a1,608(tp) # 260 <pos+0x220>
    8000870c:	05555337          	lui	t1,0x5555
    80008710:	5553031b          	addiw	t1,t1,1365 # 5555555 <offset+0x5555275>
    80008714:	00c31313          	slli	t1,t1,0xc
    80008718:	55530313          	addi	t1,t1,1365
    8000871c:	00c31313          	slli	t1,t1,0xc
    80008720:	55530313          	addi	t1,t1,1365
    80008724:	00c31313          	slli	t1,t1,0xc
    80008728:	55530313          	addi	t1,t1,1365
    8000872c:	00b30463          	beq	t1,a1,80008734 <inst_609>
    80008730:	8f5f706f          	j	80000024 <rvtest_error>

0000000080008734 <inst_609>:
    80008734:	55555537          	lui	a0,0x55555
    80008738:	55550513          	addi	a0,a0,1365 # 55555555 <absimmsh+0x49a847a8>
    8000873c:	00b51513          	slli	a0,a0,0xb
    80008740:	2aa50513          	addi	a0,a0,682
    80008744:	00b51513          	slli	a0,a0,0xb
    80008748:	55550513          	addi	a0,a0,1365
    8000874c:	00a51513          	slli	a0,a0,0xa
    80008750:	15650513          	addi	a0,a0,342
    80008754:	55554593          	xori	a1,a0,1365
    80008758:	26b23423          	sd	a1,616(tp) # 268 <pos+0x228>
    8000875c:	05555337          	lui	t1,0x5555
    80008760:	5553031b          	addiw	t1,t1,1365 # 5555555 <offset+0x5555275>
    80008764:	00c31313          	slli	t1,t1,0xc
    80008768:	55530313          	addi	t1,t1,1365
    8000876c:	00c31313          	slli	t1,t1,0xc
    80008770:	55530313          	addi	t1,t1,1365
    80008774:	00c31313          	slli	t1,t1,0xc
    80008778:	00330313          	addi	t1,t1,3
    8000877c:	00b30463          	beq	t1,a1,80008784 <inst_610>
    80008780:	8a5f706f          	j	80000024 <rvtest_error>

0000000080008784 <inst_610>:
    80008784:	55555537          	lui	a0,0x55555
    80008788:	55550513          	addi	a0,a0,1365 # 55555555 <absimmsh+0x49a847a8>
    8000878c:	00b51513          	slli	a0,a0,0xb
    80008790:	2aa50513          	addi	a0,a0,682
    80008794:	00b51513          	slli	a0,a0,0xb
    80008798:	55550513          	addi	a0,a0,1365
    8000879c:	00a51513          	slli	a0,a0,0xa
    800087a0:	15650513          	addi	a0,a0,342
    800087a4:	aaa54593          	xori	a1,a0,-1366
    800087a8:	26b23823          	sd	a1,624(tp) # 270 <pos+0x230>
    800087ac:	faaab337          	lui	t1,0xfaaab
    800087b0:	aab3031b          	addiw	t1,t1,-1365 # fffffffffaaaaaab <absimm+0xffffffff3fd9cfdb>
    800087b4:	00c31313          	slli	t1,t1,0xc
    800087b8:	aab30313          	addi	t1,t1,-1365
    800087bc:	00c31313          	slli	t1,t1,0xc
    800087c0:	aab30313          	addi	t1,t1,-1365
    800087c4:	00c31313          	slli	t1,t1,0xc
    800087c8:	ffc30313          	addi	t1,t1,-4
    800087cc:	00b30463          	beq	t1,a1,800087d4 <inst_611>
    800087d0:	855f706f          	j	80000024 <rvtest_error>

00000000800087d4 <inst_611>:
    800087d4:	55555537          	lui	a0,0x55555
    800087d8:	55550513          	addi	a0,a0,1365 # 55555555 <absimmsh+0x49a847a8>
    800087dc:	00b51513          	slli	a0,a0,0xb
    800087e0:	2aa50513          	addi	a0,a0,682
    800087e4:	00b51513          	slli	a0,a0,0xb
    800087e8:	55550513          	addi	a0,a0,1365
    800087ec:	00a51513          	slli	a0,a0,0xa
    800087f0:	15650513          	addi	a0,a0,342
    800087f4:	00554593          	xori	a1,a0,5
    800087f8:	26b23c23          	sd	a1,632(tp) # 278 <pos+0x238>
    800087fc:	05555337          	lui	t1,0x5555
    80008800:	5553031b          	addiw	t1,t1,1365 # 5555555 <offset+0x5555275>
    80008804:	00c31313          	slli	t1,t1,0xc
    80008808:	55530313          	addi	t1,t1,1365
    8000880c:	00c31313          	slli	t1,t1,0xc
    80008810:	55530313          	addi	t1,t1,1365
    80008814:	00c31313          	slli	t1,t1,0xc
    80008818:	55330313          	addi	t1,t1,1363
    8000881c:	00b30463          	beq	t1,a1,80008824 <inst_612>
    80008820:	805f706f          	j	80000024 <rvtest_error>

0000000080008824 <inst_612>:
    80008824:	55555537          	lui	a0,0x55555
    80008828:	55550513          	addi	a0,a0,1365 # 55555555 <absimmsh+0x49a847a8>
    8000882c:	00b51513          	slli	a0,a0,0xb
    80008830:	2aa50513          	addi	a0,a0,682
    80008834:	00b51513          	slli	a0,a0,0xb
    80008838:	55550513          	addi	a0,a0,1365
    8000883c:	00a51513          	slli	a0,a0,0xa
    80008840:	15650513          	addi	a0,a0,342
    80008844:	33354593          	xori	a1,a0,819
    80008848:	28b23023          	sd	a1,640(tp) # 280 <pos+0x240>
    8000884c:	05555337          	lui	t1,0x5555
    80008850:	5553031b          	addiw	t1,t1,1365 # 5555555 <offset+0x5555275>
    80008854:	00c31313          	slli	t1,t1,0xc
    80008858:	55530313          	addi	t1,t1,1365
    8000885c:	00c31313          	slli	t1,t1,0xc
    80008860:	55530313          	addi	t1,t1,1365
    80008864:	00c31313          	slli	t1,t1,0xc
    80008868:	66530313          	addi	t1,t1,1637
    8000886c:	00b30463          	beq	t1,a1,80008874 <inst_613>
    80008870:	fb4f706f          	j	80000024 <rvtest_error>

0000000080008874 <inst_613>:
    80008874:	55555537          	lui	a0,0x55555
    80008878:	55550513          	addi	a0,a0,1365 # 55555555 <absimmsh+0x49a847a8>
    8000887c:	00b51513          	slli	a0,a0,0xb
    80008880:	2aa50513          	addi	a0,a0,682
    80008884:	00b51513          	slli	a0,a0,0xb
    80008888:	55550513          	addi	a0,a0,1365
    8000888c:	00a51513          	slli	a0,a0,0xa
    80008890:	15650513          	addi	a0,a0,342
    80008894:	66654593          	xori	a1,a0,1638
    80008898:	28b23423          	sd	a1,648(tp) # 288 <pos+0x248>
    8000889c:	05555337          	lui	t1,0x5555
    800088a0:	5553031b          	addiw	t1,t1,1365 # 5555555 <offset+0x5555275>
    800088a4:	00c31313          	slli	t1,t1,0xc
    800088a8:	55530313          	addi	t1,t1,1365
    800088ac:	00c31313          	slli	t1,t1,0xc
    800088b0:	55530313          	addi	t1,t1,1365
    800088b4:	00c31313          	slli	t1,t1,0xc
    800088b8:	33030313          	addi	t1,t1,816
    800088bc:	00b30463          	beq	t1,a1,800088c4 <inst_614>
    800088c0:	f64f706f          	j	80000024 <rvtest_error>

00000000800088c4 <inst_614>:
    800088c4:	55555537          	lui	a0,0x55555
    800088c8:	55550513          	addi	a0,a0,1365 # 55555555 <absimmsh+0x49a847a8>
    800088cc:	00b51513          	slli	a0,a0,0xb
    800088d0:	2aa50513          	addi	a0,a0,682
    800088d4:	00b51513          	slli	a0,a0,0xb
    800088d8:	55550513          	addi	a0,a0,1365
    800088dc:	00a51513          	slli	a0,a0,0xa
    800088e0:	15650513          	addi	a0,a0,342
    800088e4:	fd354593          	xori	a1,a0,-45
    800088e8:	28b23823          	sd	a1,656(tp) # 290 <pos+0x250>
    800088ec:	faaab337          	lui	t1,0xfaaab
    800088f0:	aab3031b          	addiw	t1,t1,-1365 # fffffffffaaaaaab <absimm+0xffffffff3fd9cfdb>
    800088f4:	00c31313          	slli	t1,t1,0xc
    800088f8:	aab30313          	addi	t1,t1,-1365
    800088fc:	00c31313          	slli	t1,t1,0xc
    80008900:	aab30313          	addi	t1,t1,-1365
    80008904:	00c31313          	slli	t1,t1,0xc
    80008908:	a8530313          	addi	t1,t1,-1403
    8000890c:	00b30463          	beq	t1,a1,80008914 <inst_615>
    80008910:	f14f706f          	j	80000024 <rvtest_error>

0000000080008914 <inst_615>:
    80008914:	55555537          	lui	a0,0x55555
    80008918:	55550513          	addi	a0,a0,1365 # 55555555 <absimmsh+0x49a847a8>
    8000891c:	00b51513          	slli	a0,a0,0xb
    80008920:	2aa50513          	addi	a0,a0,682
    80008924:	00b51513          	slli	a0,a0,0xb
    80008928:	55550513          	addi	a0,a0,1365
    8000892c:	00a51513          	slli	a0,a0,0xa
    80008930:	15650513          	addi	a0,a0,342
    80008934:	02d54593          	xori	a1,a0,45
    80008938:	28b23c23          	sd	a1,664(tp) # 298 <pos+0x258>
    8000893c:	05555337          	lui	t1,0x5555
    80008940:	5553031b          	addiw	t1,t1,1365 # 5555555 <offset+0x5555275>
    80008944:	00c31313          	slli	t1,t1,0xc
    80008948:	55530313          	addi	t1,t1,1365
    8000894c:	00c31313          	slli	t1,t1,0xc
    80008950:	55530313          	addi	t1,t1,1365
    80008954:	00c31313          	slli	t1,t1,0xc
    80008958:	57b30313          	addi	t1,t1,1403
    8000895c:	00b30463          	beq	t1,a1,80008964 <inst_616>
    80008960:	ec4f706f          	j	80000024 <rvtest_error>

0000000080008964 <inst_616>:
    80008964:	55555537          	lui	a0,0x55555
    80008968:	55550513          	addi	a0,a0,1365 # 55555555 <absimmsh+0x49a847a8>
    8000896c:	00b51513          	slli	a0,a0,0xb
    80008970:	2aa50513          	addi	a0,a0,682
    80008974:	00b51513          	slli	a0,a0,0xb
    80008978:	55550513          	addi	a0,a0,1365
    8000897c:	00a51513          	slli	a0,a0,0xa
    80008980:	15650513          	addi	a0,a0,342
    80008984:	00254593          	xori	a1,a0,2
    80008988:	2ab23023          	sd	a1,672(tp) # 2a0 <pos+0x260>
    8000898c:	05555337          	lui	t1,0x5555
    80008990:	5553031b          	addiw	t1,t1,1365 # 5555555 <offset+0x5555275>
    80008994:	00c31313          	slli	t1,t1,0xc
    80008998:	55530313          	addi	t1,t1,1365
    8000899c:	00c31313          	slli	t1,t1,0xc
    800089a0:	55530313          	addi	t1,t1,1365
    800089a4:	00c31313          	slli	t1,t1,0xc
    800089a8:	55430313          	addi	t1,t1,1364
    800089ac:	00b30463          	beq	t1,a1,800089b4 <inst_617>
    800089b0:	e74f706f          	j	80000024 <rvtest_error>

00000000800089b4 <inst_617>:
    800089b4:	55555537          	lui	a0,0x55555
    800089b8:	55550513          	addi	a0,a0,1365 # 55555555 <absimmsh+0x49a847a8>
    800089bc:	00b51513          	slli	a0,a0,0xb
    800089c0:	2aa50513          	addi	a0,a0,682
    800089c4:	00b51513          	slli	a0,a0,0xb
    800089c8:	55550513          	addi	a0,a0,1365
    800089cc:	00a51513          	slli	a0,a0,0xa
    800089d0:	15650513          	addi	a0,a0,342
    800089d4:	55454593          	xori	a1,a0,1364
    800089d8:	2ab23423          	sd	a1,680(tp) # 2a8 <pos+0x268>
    800089dc:	05555337          	lui	t1,0x5555
    800089e0:	5553031b          	addiw	t1,t1,1365 # 5555555 <offset+0x5555275>
    800089e4:	00c31313          	slli	t1,t1,0xc
    800089e8:	55530313          	addi	t1,t1,1365
    800089ec:	00c31313          	slli	t1,t1,0xc
    800089f0:	55530313          	addi	t1,t1,1365
    800089f4:	00c31313          	slli	t1,t1,0xc
    800089f8:	00230313          	addi	t1,t1,2
    800089fc:	00b30463          	beq	t1,a1,80008a04 <inst_618>
    80008a00:	e24f706f          	j	80000024 <rvtest_error>

0000000080008a04 <inst_618>:
    80008a04:	55555537          	lui	a0,0x55555
    80008a08:	55550513          	addi	a0,a0,1365 # 55555555 <absimmsh+0x49a847a8>
    80008a0c:	00b51513          	slli	a0,a0,0xb
    80008a10:	2aa50513          	addi	a0,a0,682
    80008a14:	00b51513          	slli	a0,a0,0xb
    80008a18:	55550513          	addi	a0,a0,1365
    80008a1c:	00a51513          	slli	a0,a0,0xa
    80008a20:	15650513          	addi	a0,a0,342
    80008a24:	00054593          	xori	a1,a0,0
    80008a28:	2ab23823          	sd	a1,688(tp) # 2b0 <pos+0x270>
    80008a2c:	05555337          	lui	t1,0x5555
    80008a30:	5553031b          	addiw	t1,t1,1365 # 5555555 <offset+0x5555275>
    80008a34:	00c31313          	slli	t1,t1,0xc
    80008a38:	55530313          	addi	t1,t1,1365
    80008a3c:	00c31313          	slli	t1,t1,0xc
    80008a40:	55530313          	addi	t1,t1,1365
    80008a44:	00c31313          	slli	t1,t1,0xc
    80008a48:	55630313          	addi	t1,t1,1366
    80008a4c:	00b30463          	beq	t1,a1,80008a54 <inst_619>
    80008a50:	dd4f706f          	j	80000024 <rvtest_error>

0000000080008a54 <inst_619>:
    80008a54:	55555537          	lui	a0,0x55555
    80008a58:	55550513          	addi	a0,a0,1365 # 55555555 <absimmsh+0x49a847a8>
    80008a5c:	00b51513          	slli	a0,a0,0xb
    80008a60:	2aa50513          	addi	a0,a0,682
    80008a64:	00b51513          	slli	a0,a0,0xb
    80008a68:	55550513          	addi	a0,a0,1365
    80008a6c:	00a51513          	slli	a0,a0,0xa
    80008a70:	15650513          	addi	a0,a0,342
    80008a74:	00454593          	xori	a1,a0,4
    80008a78:	2ab23c23          	sd	a1,696(tp) # 2b8 <pos+0x278>
    80008a7c:	05555337          	lui	t1,0x5555
    80008a80:	5553031b          	addiw	t1,t1,1365 # 5555555 <offset+0x5555275>
    80008a84:	00c31313          	slli	t1,t1,0xc
    80008a88:	55530313          	addi	t1,t1,1365
    80008a8c:	00c31313          	slli	t1,t1,0xc
    80008a90:	55530313          	addi	t1,t1,1365
    80008a94:	00c31313          	slli	t1,t1,0xc
    80008a98:	55230313          	addi	t1,t1,1362
    80008a9c:	00b30463          	beq	t1,a1,80008aa4 <inst_620>
    80008aa0:	d84f706f          	j	80000024 <rvtest_error>

0000000080008aa4 <inst_620>:
    80008aa4:	55555537          	lui	a0,0x55555
    80008aa8:	55550513          	addi	a0,a0,1365 # 55555555 <absimmsh+0x49a847a8>
    80008aac:	00b51513          	slli	a0,a0,0xb
    80008ab0:	2aa50513          	addi	a0,a0,682
    80008ab4:	00b51513          	slli	a0,a0,0xb
    80008ab8:	55550513          	addi	a0,a0,1365
    80008abc:	00a51513          	slli	a0,a0,0xa
    80008ac0:	15650513          	addi	a0,a0,342
    80008ac4:	33254593          	xori	a1,a0,818
    80008ac8:	2cb23023          	sd	a1,704(tp) # 2c0 <pos+0x280>
    80008acc:	05555337          	lui	t1,0x5555
    80008ad0:	5553031b          	addiw	t1,t1,1365 # 5555555 <offset+0x5555275>
    80008ad4:	00c31313          	slli	t1,t1,0xc
    80008ad8:	55530313          	addi	t1,t1,1365
    80008adc:	00c31313          	slli	t1,t1,0xc
    80008ae0:	55530313          	addi	t1,t1,1365
    80008ae4:	00c31313          	slli	t1,t1,0xc
    80008ae8:	66430313          	addi	t1,t1,1636
    80008aec:	00b30463          	beq	t1,a1,80008af4 <inst_621>
    80008af0:	d34f706f          	j	80000024 <rvtest_error>

0000000080008af4 <inst_621>:
    80008af4:	55555537          	lui	a0,0x55555
    80008af8:	55550513          	addi	a0,a0,1365 # 55555555 <absimmsh+0x49a847a8>
    80008afc:	00b51513          	slli	a0,a0,0xb
    80008b00:	2aa50513          	addi	a0,a0,682
    80008b04:	00b51513          	slli	a0,a0,0xb
    80008b08:	55550513          	addi	a0,a0,1365
    80008b0c:	00a51513          	slli	a0,a0,0xa
    80008b10:	15650513          	addi	a0,a0,342
    80008b14:	66554593          	xori	a1,a0,1637
    80008b18:	2cb23423          	sd	a1,712(tp) # 2c8 <pos+0x288>
    80008b1c:	05555337          	lui	t1,0x5555
    80008b20:	5553031b          	addiw	t1,t1,1365 # 5555555 <offset+0x5555275>
    80008b24:	00c31313          	slli	t1,t1,0xc
    80008b28:	55530313          	addi	t1,t1,1365
    80008b2c:	00c31313          	slli	t1,t1,0xc
    80008b30:	55530313          	addi	t1,t1,1365
    80008b34:	00c31313          	slli	t1,t1,0xc
    80008b38:	33330313          	addi	t1,t1,819
    80008b3c:	00b30463          	beq	t1,a1,80008b44 <inst_622>
    80008b40:	ce4f706f          	j	80000024 <rvtest_error>

0000000080008b44 <inst_622>:
    80008b44:	00100513          	li	a0,1
    80008b48:	02151513          	slli	a0,a0,0x21
    80008b4c:	fff54513          	not	a0,a0
    80008b50:	fbf54593          	xori	a1,a0,-65
    80008b54:	2cb23823          	sd	a1,720(tp) # 2d0 <pos+0x290>
    80008b58:	0010031b          	addiw	t1,zero,1
    80008b5c:	02131313          	slli	t1,t1,0x21
    80008b60:	04030313          	addi	t1,t1,64
    80008b64:	00b30463          	beq	t1,a1,80008b6c <inst_623>
    80008b68:	cbcf706f          	j	80000024 <rvtest_error>

0000000080008b6c <inst_623>:
    80008b6c:	00800513          	li	a0,8
    80008b70:	00154593          	xori	a1,a0,1
    80008b74:	2cb23c23          	sd	a1,728(tp) # 2d8 <pos+0x298>
    80008b78:	00900313          	li	t1,9
    80008b7c:	00b30463          	beq	t1,a1,80008b84 <cleanup_epilogs>
    80008b80:	ca4f706f          	j	80000024 <rvtest_error>

0000000080008b84 <cleanup_epilogs>:
    80008b84:	0380006f          	j	80008bbc <exit_cleanup>

0000000080008b88 <abort_tests>:
    80008b88:	1f813483          	ld	s1,504(sp)
    80008b8c:	20013303          	ld	t1,512(sp)
    80008b90:	00930333          	add	t1,t1,s1
    80008b94:	00000337          	lui	t1,0x0
    80008b98:	00030313          	mv	t1,t1
    80008b9c:	00b31313          	slli	t1,t1,0xb
    80008ba0:	5d630313          	addi	t1,t1,1494 # 5d6 <offset+0x2f6>
    80008ba4:	00b31313          	slli	t1,t1,0xb
    80008ba8:	43630313          	addi	t1,t1,1078
    80008bac:	00a31313          	slli	t1,t1,0xa
    80008bb0:	2d030313          	addi	t1,t1,720
    80008bb4:	fe64be23          	sd	t1,-4(s1)
    80008bb8:	0040006f          	j	80008bbc <exit_cleanup>

0000000080008bbc <exit_cleanup>:
    80008bbc:	00000513          	li	a0,0
    80008bc0:	0180006f          	j	80008bd8 <halt>
	...

0000000080008bd8 <halt>:
    80008bd8:	00050513          	mv	a0,a0
    80008bdc:	00100073          	ebreak
    80008be0:	0000006f          	j	80008be0 <halt+0x8>

0000000080008be4 <_trm_init>:
    80008be4:	ff010113          	addi	sp,sp,-16
    80008be8:	00000517          	auipc	a0,0x0
    80008bec:	02050513          	addi	a0,a0,32 # 80008c08 <mainargs>
    80008bf0:	00113423          	sd	ra,8(sp)
    80008bf4:	c1cf70ef          	jal	ra,80000010 <main>
    80008bf8:	00050513          	mv	a0,a0
    80008bfc:	00100073          	ebreak
    80008c00:	0000006f          	j	80008c00 <_trm_init+0x1c>
