
bin/riscv-arch-test/jalr-riscv64-nemu.bin:     file format binary

Contents of section .data:
 80000000 13040000 17c10000 1301c1ff ef10c055  ...............U
 80000010 ef000003 13051000 ef104054 13050000  ..........@T....
 80000020 67800000 00000000 00000000 00000000  g...............
 80000030 00000000 00000000 00000000 00000000  ................
 80000040 b7c0edfe 9380d0ea 9390b000 9380707f  ..............p.
 80000050 9390b000 9380f036 9390a000 9380d02a  .......6.......*
 80000060 37e176ff 130161f5 1311b100 1301b17f  7.v...a.........
 80000070 1311b100 1301715b 1311a100 13016135  ......q[......a5
 80000080 b771bb7f 9381b1fa 9391b100 9381d13f  .q.............?
 80000090 9391b100 9381b16d 9391a100 9381b13a  .......m.......:
 800000a0 37b2ddbf 1302527d 1312b200 1302e25f  7.....R}......._
 800000b0 1312b200 1302d276 1312a200 1302523d  .......v......R=
 800000c0 b7e2eedf 9382a2be 9392b200 9382f26f  ...............o
 800000d0 9392b200 9382623b 9392a200 9382a23e  ......b;.......>
 800000e0 3773f76f 130353df 1313b300 1303f337  7s.o..S........7
 800000f0 1313b300 1303b35d 1313a300 1303531f  .......]......S.
 80000100 b7b3fbb7 9383a36f 9393b300 9383f35b  .......o.......[
 80000110 9393b300 9383d36e 9393a300 9383a32f  .......n......./
 80000120 37e4fd5b 1304d4b7 1314b400 1304f42d  7..[...........-
 80000130 1314b400 13046477 1314a400 1304d437  ......dw.......7
 80000140 b7f4fead 9384e4db 9394b400 9384f456  ...............V
 80000150 9394b400 9384b47b 9394a400 9384e41b  .......{........
 80000160 3775ff56 1305f56d 1315b500 1305752b  7u.V...m......u+
 80000170 1315b500 1305d57d 1315a500 1305f52d  .......}.......-
 80000180 b7c57fab 9385f5b6 9395b500 9385b555  ...............U
 80000190 9395b500 9385e57e 9395a500 9385f536  .......~.......6
 800001a0 37e6bfd5 130676db 1316b600 1306d66a  7.....v........j
 800001b0 1316b600 1306767f 1316a600 1306761b  ......v.......v.
 800001c0 b7f6dfea 9386b6ed 9396b600 93866675  ..............fu
 800001d0 9396b600 9386b67f 9396a600 9386b62d  ...............-
 800001e0 37f76ff5 1307d776 1317b700 1307b77a  7.o....v.......z
 800001f0 1317b700 1307d73f 1317a700 1307d736  .......?.......6
 80000200 b707b8fa 938767bb 9397b700 9387577d  ......g.......W}
 80000210 9397b700 9387e75f 9397a700 9387673b  ......._......g;
 80000220 37085c7d 1308b8dd 1318b800 1308a83e  7.\}...........>
 80000230 1318b800 1308f86f 1318a800 1308b81d  .......o........
 80000240 b708aebe 9388d8ee 9398b800 9388585f  ..............X_
 80000250 9398b800 9388f837 9398a800 9388d82e  .......7........
 80000260 370957df 130969f7 1319b900 1309a96f  7.W...i........o
 80000270 1319b900 1309f95b 1319a900 13096937  .......[......i7
 80000280 b789ab6f 9389b9fb 9399b900 9389d937  ...o...........7
 80000290 9399b900 9389f92d 9399a900 9389b93b  .......-.......;
 800002a0 37cad5b7 130adafd 131aba00 130aea5b  7..............[
 800002b0 131aba00 130afa56 131aaa00 130ada3d  .......V.......=
 800002c0 b7eaeadb 938aeafe 939aba00 938afa6d  ...............m
 800002d0 939aba00 938a7a2b 939aaa00 938aea3e  ......z+.......>
 800002e0 377bf56d 130b7bff 131bbb00 130bfb36  7{.m..{........6
 800002f0 131bbb00 130bbb55 131bab00 130b7b3f  .......U......{?
 80000300 b7bbfab6 938bbb7f 939bbb00 938b7b5b  ..............{[
 80000310 939bbb00 938bdb6a 939bab00 938bbb3f  .......j.......?
 80000320 376c7ddb 130cdcbf 131cbc00 130cbc6d  7l}............m
 80000330 131cbc00 130c6c75 131cac00 130cdc3f  ......lu.......?
 80000340 b7bcbeed 938cecdf 939cbc00 938cdc76  ...............v
 80000350 939cbc00 938cbc7a 939cac00 938cec1f  .......z........
 80000360 375ddf76 130dfd6f 131dbd00 130d6d3b  7].v...o......m;
 80000370 131dbd00 130d5d7d 131dad00 130dfd2f  ......]}......./
 80000380 b7bd6fbb 938dfdb7 939dbd00 938dbd5d  ..o............]
 80000390 939dbd00 938dad3e 939dad00 938dfd37  .......>.......7
 800003a0 37deb7dd 130efe5b 131ebe00 130ede6e  7......[.......n
 800003b0 131ebe00 130e5e5f 131eae00 130efe1b  ......^_........
 800003c0 b7fedbee 938efead 939ebe00 938e6e77  ..............nw
 800003d0 939ebe00 938eae6f 939eae00 938efe2d  .......o.......-
 800003e0 37ff6df7 130fff56 131fbf00 130fbf7b  7.m....V.......{
 800003f0 131fbf00 130fdf37 131faf00 130fff16  .......7........
 80000400 b70fb7fb 938f7fab 939fbf00 938fdf7d  ...............}
 80000410 939fbf00 938fef5b 939faf00 938f7f2b  .......[.......+
 80000420 17320000 130282be 13000000 13000000  .2..............
 80000430 13000000 13000000 13000000 13000000  ................
 80000440 970c0000 13000000 13000000 13000000  ................
 80000450 13000000 13000000 13000000 13000000  ................
 80000460 970c0000 938cdc02 13000000 13000000  ................
 80000470 13000000 13000000 13000000 13000000  ................
 80000480 e78c7c00 13000000 13000000 93cc2c00  ..|...........,.
 80000490 6f00c000 93cc3c00 6f004000 13000000  o.....<.o.@.....
 800004a0 17040000 130404fa 13000000 13000000  ................
 800004b0 13000000 13000000 13000000 13000000  ................
 800004c0 1374c4ff b38c8c40 23309201 97030000  .t.....@#0......
 800004d0 13000000 13000000 13000000 13000000  ................
 800004e0 97090000 9389e903 13000000 13000000  ................
 800004f0 13000000 13000000 13000000 13000000  ................
 80000500 e78369ff 13000000 13000000 93c32300  ..i...........#.
 80000510 6f00c000 93c33300 6f004000 13000000  o.....3.o.@.....
 80000520 17040000 1304c4fa 13000000 13000000  ................
 80000530 13000000 13000000 13000000 13000000  ................
 80000540 1374c4ff b3838340 23347200 970a0000  .t.....@#4r.....
 80000550 13000000 13000000 13000000 13000000  ................
 80000560 17010000 13013103 13000000 13000000  ......1.........
 80000570 13000000 13000000 13000000 13000000  ................
 80000580 e70a1100 13000000 13000000 93ca2a00  ..............*.
 80000590 6f00c000 93ca3a00 6f004000 13000000  o.....:.o.@.....
 800005a0 17040000 1304c4fa 13000000 13000000  ................
 800005b0 13000000 13000000 13000000 13000000  ................
 800005c0 1374c4ff b38a8a40 23385201 970b0000  .t.....@#8R.....
 800005d0 13000000 13000000 13000000 13000000  ................
 800005e0 170f0000 130f2f03 13000000 13000000  ....../.........
 800005f0 13000000 13000000 13000000 13000000  ................
 80000600 e70b2f00 13000000 13000000 93cb2b00  ../...........+.
 80000610 6f00c000 93cb3b00 6f004000 13000000  o.....;.o.@.....
 80000620 17040000 1304c4fa 13000000 13000000  ................
 80000630 13000000 13000000 13000000 13000000  ................
 80000640 1374c4ff b38b8b40 233c7201 97040000  .t.....@#<r.....
 80000650 13000000 13000000 13000000 13000000  ................
 80000660 97030000 93830303 13000000 13000000  ................
 80000670 13000000 13000000 13000000 13000000  ................
 80000680 e7844300 13000000 13000000 93c42400  ..C...........$.
 80000690 6f00c000 93c43400 6f004000 13000000  o.....4.o.@.....
 800006a0 17040000 1304c4fa 13000000 13000000  ................
 800006b0 13000000 13000000 13000000 13000000  ................
 800006c0 1374c4ff b3848440 23309202 170c0000  .t.....@#0......
 800006d0 13000000 13000000 13000000 13000000  ................
 800006e0 17070000 1307c702 13000000 13000000  ................
 800006f0 13000000 13000000 13000000 13000000  ................
 80000700 670c8700 13000000 13000000 134c2c00  g............L,.
 80000710 6f00c000 134c3c00 6f004000 13000000  o....L<.o.@.....
 80000720 17040000 1304c4fa 13000000 13000000  ................
 80000730 13000000 13000000 13000000 13000000  ................
 80000740 1374c4ff 330c8c40 23348203 97010000  .t..3..@#4......
 80000750 13000000 13000000 13000000 13000000  ................
 80000760 97070000 93874702 13000000 13000000  ......G.........
 80000770 13000000 13000000 13000000 13000000  ................
 80000780 e7810701 13000000 13000000 93c12100  ..............!.
 80000790 6f00c000 93c13100 6f004000 13000000  o.....1.o.@.....
 800007a0 17040000 1304c4fa 13000000 13000000  ................
 800007b0 13000000 13000000 13000000 13000000  ................
 800007c0 1374c4ff b3818140 23383202 170f0000  .t.....@#82.....
 800007d0 13000000 13000000 13000000 13000000  ................
 800007e0 97050000 93854501 13000000 13000000  ......E.........
 800007f0 13000000 13000000 13000000 13000000  ................
 80000800 678f0502 13000000 13000000 134f2f00  g............O/.
 80000810 6f00c000 134f3f00 6f004000 13000000  o....O?.o.@.....
 80000820 17040000 1304c4fa 13000000 13000000  ................
 80000830 13000000 13000000 13000000 13000000  ................
 80000840 1374c4ff 330f8f40 233ce203 970f0000  .t..3..@#<......
 80000850 13000000 13000000 13000000 13000000  ................
 80000860 970e0000 938e4eff 13000000 13000000  ......N.........
 80000870 13000000 13000000 13000000 13000000  ................
 80000880 e78f0e04 13000000 13000000 93cf2f00  ............../.
 80000890 6f00c000 93cf3f00 6f004000 13000000  o.....?.o.@.....
 800008a0 17040000 1304c4fa 13000000 13000000  ................
 800008b0 13000000 13000000 13000000 13000000  ................
 800008c0 1374c4ff b38f8f40 2330f205 17080000  .t.....@#0......
 800008d0 13000000 13000000 13000000 13000000  ................
 800008e0 97020000 938242fb 13000000 13000000  ......B.........
 800008f0 13000000 13000000 13000000 13000000  ................
 80000900 67880208 13000000 13000000 13482800  g............H(.
 80000910 6f00c000 13483800 6f004000 13000000  o....H8.o.@.....
 80000920 17040000 1304c4fa 13000000 13000000  ................
 80000930 13000000 13000000 13000000 13000000  ................
 80000940 1374c4ff 33088840 23340205 970e0000  .t..3..@#4......
 80000950 13000000 13000000 13000000 13000000  ................
 80000960 170e0000 130e4ef3 13000000 13000000  ......N.........
 80000970 13000000 13000000 13000000 13000000  ................
 80000980 e70e0e10 13000000 13000000 93ce2e00  ................
 80000990 6f00c000 93ce3e00 6f004000 13000000  o.....>.o.@.....
 800009a0 17040000 1304c4fa 13000000 13000000  ................
 800009b0 13000000 13000000 13000000 13000000  ................
 800009c0 1374c4ff b38e8e40 2338d205 170a0000  .t.....@#8......
 800009d0 13000000 13000000 13000000 13000000  ................
 800009e0 17060000 130646e3 13000000 13000000  ......F.........
 800009f0 13000000 13000000 13000000 13000000  ................
 80000a00 670a0620 13000000 13000000 134a2a00  g.. .........J*.
 80000a10 6f00c000 134a3a00 6f004000 13000000  o....J:.o.@.....
 80000a20 17040000 1304c4fa 13000000 13000000  ................
 80000a30 13000000 13000000 13000000 13000000  ................
 80000a40 1374c4ff 330a8a40 233c4205 170b0000  .t..3..@#<B.....
 80000a50 13000000 13000000 13000000 13000000  ................
 80000a60 97040000 938444c3 13000000 13000000  ......D.........
 80000a70 13000000 13000000 13000000 13000000  ................
 80000a80 678b0440 13000000 13000000 134b2b00  g..@.........K+.
 80000a90 6f00c000 134b3b00 6f004000 13000000  o....K;.o.@.....
 80000aa0 17040000 1304c4fa 13000000 13000000  ................
 80000ab0 13000000 13000000 13000000 13000000  ................
 80000ac0 1374c4ff 330b8b40 23306207 17030000  .t..3..@#0b.....
 80000ad0 13000000 13000000 13000000 13000000  ................
 80000ae0 97160000 93864683 13000000 13000000  ......F.........
 80000af0 13000000 13000000 13000000 13000000  ................
 80000b00 67830680 13000000 13000000 13432300  g............C#.
 80000b10 6f00c000 13433300 6f004000 13000000  o....C3.o.@.....
 80000b20 17040000 1304c4fa 13000000 13000000  ................
 80000b30 13000000 13000000 13000000 13000000  ................
 80000b40 1374c4ff 33038340 23346206 97090000  .t..3..@#4b.....
 80000b50 13000000 13000000 13000000 13000000  ................
 80000b60 970d0000 938d6d03 13000000 13000000  ......m.........
 80000b70 13000000 13000000 13000000 13000000  ................
 80000b80 e789edff 13000000 13000000 93c92900  ..............).
 80000b90 6f00c000 93c93900 6f004000 13000000  o.....9.o.@.....
 80000ba0 17040000 1304c4fa 13000000 13000000  ................
 80000bb0 13000000 13000000 13000000 13000000  ................
 80000bc0 1374c4ff b3898940 23383207 97080000  .t.....@#82.....
 80000bd0 13000000 13000000 13000000 13000000  ................
 80000be0 17030000 13037303 13000000 13000000  ......s.........
 80000bf0 13000000 13000000 13000000 13000000  ................
 80000c00 e708d3ff 13000000 13000000 93c82800  ..............(.
 80000c10 6f00c000 93c83800 6f004000 13000000  o.....8.o.@.....
 80000c20 17040000 1304c4fa 13000000 13000000  ................
 80000c30 13000000 13000000 13000000 13000000  ................
 80000c40 1374c4ff b3888840 233c1207 170d0000  .t.....@#<......
 80000c50 13000000 13000000 13000000 13000000  ................
 80000c60 97000000 93809003 13000000 13000000  ................
 80000c70 13000000 13000000 13000000 13000000  ................
 80000c80 678db0ff 13000000 13000000 134d2d00  g............M-.
 80000c90 6f00c000 134d3d00 6f004000 13000000  o....M=.o.@.....
 80000ca0 17040000 1304c4fa 13000000 13000000  ................
 80000cb0 13000000 13000000 13000000 13000000  ................
 80000cc0 1374c4ff 330d8d40 2330a209 17040000  .t..3..@#0......
 80000cd0 13000000 13000000 13000000 13000000  ................
 80000ce0 17050000 1305d503 13000000 13000000  ................
 80000cf0 13000000 13000000 13000000 13000000  ................
 80000d00 670475ff 13000000 13000000 13442400  g.u..........D$.
 80000d10 6f00c000 13443400 6f004000 13000000  o....D4.o.@.....
 80000d20 97030000 9383c3fa 13000000 13000000  ................
 80000d30 13000000 13000000 13000000 13000000  ................
 80000d40 93f3c3ff 33047440 23348208 13000000  ....3.t@#4......
 80000d50 13000000 13000000 13000000 13000000  ................
 80000d60 17230000 13038333 13000000 13000000  .#.....3........
 80000d70 13000000 13000000 13000000 13000000  ................
 80000d80 97060000 13000000 13000000 13000000  ................
 80000d90 13000000 13000000 13000000 13000000  ................
 80000da0 970b0000 938b5b04 13000000 13000000  ......[.........
 80000db0 13000000 13000000 13000000 13000000  ................
 80000dc0 e786fbfe 13000000 13000000 93c62600  ..............&.
 80000dd0 6f00c000 93c63600 6f004000 13000000  o.....6.o.@.....
 80000de0 97030000 938303fa 13000000 13000000  ................
 80000df0 13000000 13000000 13000000 13000000  ................
 80000e00 93f3c3ff b3867640 2330d300 97070000  ......v@#0......
 80000e10 13000000 13000000 13000000 13000000  ................
 80000e20 170b0000 130b5b05 13000000 13000000  ......[.........
 80000e30 13000000 13000000 13000000 13000000  ................
 80000e40 e707fbfd 13000000 13000000 93c72700  ..............'.
 80000e50 6f00c000 93c73700 6f004000 13000000  o.....7.o.@.....
 80000e60 97030000 9383c3fa 13000000 13000000  ................
 80000e70 13000000 13000000 13000000 13000000  ................
 80000e80 93f3c3ff b3877740 2334f300 97050000  ......w@#4......
 80000e90 13000000 13000000 13000000 13000000  ................
 80000ea0 97010000 93815107 13000000 13000000  ......Q.........
 80000eb0 13000000 13000000 13000000 13000000  ................
 80000ec0 e785f1fb 13000000 13000000 93c52500  ..............%.
 80000ed0 6f00c000 93c53500 6f004000 13000000  o.....5.o.@.....
 80000ee0 97030000 9383c3fa 13000000 13000000  ................
 80000ef0 13000000 13000000 13000000 13000000  ................
 80000f00 93f3c3ff b3857540 2338b300 170e0000  ......u@#8......
 80000f10 13000000 13000000 13000000 13000000  ................
 80000f20 970f0000 938f5f0b 13000000 13000000  ......_.........
 80000f30 13000000 13000000 13000000 13000000  ................
 80000f40 678efff7 13000000 13000000 134e2e00  g............N..
 80000f50 6f00c000 134e3e00 6f004000 13000000  o....N>.o.@.....
 80000f60 97030000 9383c3fa 13000000 13000000  ................
 80000f70 13000000 13000000 13000000 13000000  ................
 80000f80 93f3c3ff 330e7e40 233cc301 17070000  ....3.~@#<......
 80000f90 13000000 13000000 13000000 13000000  ................
 80000fa0 170c0000 130c5c13 13000000 13000000  ......\.........
 80000fb0 13000000 13000000 13000000 13000000  ................
 80000fc0 6707fcef 13000000 13000000 13472700  g............G'.
 80000fd0 6f00c000 13473700 6f004000 13000000  o....G7.o.@.....
 80000fe0 97030000 9383c3fa 13000000 13000000  ................
 80000ff0 13000000 13000000 13000000 13000000  ................
 80001000 93f3c3ff 33077740 2330e302 17060000  ....3.w@#0......
 80001010 13000000 13000000 13000000 13000000  ................
 80001020 970a0000 938a5a23 13000000 13000000  ......Z#........
 80001030 13000000 13000000 13000000 13000000  ................
 80001040 6786fadf 13000000 13000000 13462600  g............F&.
 80001050 6f00c000 13463600 6f004000 13000000  o....F6.o.@.....
 80001060 97030000 9383c3fa 13000000 13000000  ................
 80001070 13000000 13000000 13000000 13000000  ................
 80001080 93f3c3ff 33067640 2334c302 17000000  ....3.v@#4......
 80001090 13000000 13000000 13000000 13000000  ................
 800010a0 17020000 13025243 13000000 13000000  ......RC........
 800010b0 13000000 13000000 13000000 13000000  ................
 800010c0 6700f2bf 13000000 13000000 13402000  g............@ .
 800010d0 6f00c000 13403000 6f004000 13000000  o....@0.o.@.....
 800010e0 97030000 9383c3fa 13000000 13000000  ................
 800010f0 13000000 13000000 13000000 13000000  ................
 80001100 93f3c3ff 33007040 23380302 17020000  ....3.p@#8......
 80001110 13000000 13000000 13000000 13000000  ................
 80001120 17040000 13045483 13000000 13000000  ......T.........
 80001130 13000000 13000000 13000000 13000000  ................
 80001140 6702f47f 13000000 13000000 13422200  g............B".
 80001150 6f00c000 13423200 6f004000 13000000  o....B2.o.@.....
 80001160 97030000 9383c3fa 13000000 13000000  ................
 80001170 13000000 13000000 13000000 13000000  ................
 80001180 93f3c3ff 33027240 233c4302 17090000  ....3.r@#<C.....
 80001190 13000000 13000000 13000000 13000000  ................
 800011a0 170a0000 130afaad 13000000 13000000  ................
 800011b0 13000000 13000000 13000000 13000000  ................
 800011c0 67095a55 13000000 13000000 13492900  g.ZU.........I).
 800011d0 6f00c000 13493900 6f004000 13000000  o....I9.o.@.....
 800011e0 97030000 9383c3fa 13000000 13000000  ................
 800011f0 13000000 13000000 13000000 13000000  ................
 80001200 93f3c3ff 33097940 23302305 17010000  ....3.y@#0#.....
 80001210 13000000 13000000 13000000 13000000  ................
 80001220 17090000 1309a958 13000000 13000000  .......X........
 80001230 13000000 13000000 13000000 13000000  ................
 80001240 6701a9aa 13000000 13000000 13412100  g............A!.
 80001250 6f00c000 13413100 6f004000 13000000  o....A1.o.@.....
 80001260 97030000 9383c3fa 13000000 13000000  ................
 80001270 13000000 13000000 13000000 13000000  ................
 80001280 93f3c3ff 33017140 23342304 97020000  ....3.q@#4#.....
 80001290 13000000 13000000 13000000 13000000  ................
 800012a0 97180000 93884883 13000000 13000000  ......H.........
 800012b0 13000000 13000000 13000000 13000000  ................
 800012c0 e7820880 13000000 13000000 93c22200  ..............".
 800012d0 6f00c000 93c23200 6f004000 13000000  o.....2.o.@.....
 800012e0 97030000 9383c3fa 13000000 13000000  ................
 800012f0 13000000 13000000 13000000 13000000  ................
 80001300 93f3c3ff b3827240 23385304 970d0000  ......r@#8S.....
 80001310 13000000 13000000 13000000 13000000  ................
 80001320 17180000 13084883 13000000 13000000  ......H.........
 80001330 13000000 13000000 13000000 13000000  ................
 80001340 e70d0880 13000000 13000000 93cd2d00  ..............-.
 80001350 6f00c000 93cd3d00 6f004000 13000000  o.....=.o.@.....
 80001360 97030000 9383c3fa 13000000 13000000  ................
 80001370 13000000 13000000 13000000 13000000  ................
 80001380 93f3c3ff b38d7d40 233cb305 97000000  ......}@#<......
 80001390 13000000 13000000 13000000 13000000  ................
 800013a0 171d0000 130d4d83 13000000 13000000  ......M.........
 800013b0 13000000 13000000 13000000 13000000  ................
 800013c0 e7000d80 13000000 13000000 93c02000  .............. .
 800013d0 6f00c000 93c03000 6f004000 13000000  o.....0.o.@.....
 800013e0 97030000 9383c3fa 13000000 13000000  ................
 800013f0 13000000 13000000 13000000 13000000  ................
 80001400 93f3c3ff b3807040 23301306 17050000  ......p@#0......
 80001410 13000000 13000000 13000000 13000000  ................
 80001420 171c0000 130c4c83 13000000 13000000  ......L.........
 80001430 13000000 13000000 13000000 13000000  ................
 80001440 67050c80 13000000 13000000 13452500  g............E%.
 80001450 6f00c000 13453500 6f004000 13000000  o....E5.o.@.....
 80001460 97030000 9383c3fa 13000000 13000000  ................
 80001470 13000000 13000000 13000000 13000000  ................
 80001480 93f3c3ff 33057540 2334a306 97050000  ....3.u@#4......
 80001490 13000000 13000000 13000000 13000000  ................
 800014a0 17050000 13055543 13000000 13000000  ......UC........
 800014b0 13000000 13000000 13000000 13000000  ................
 800014c0 e705f5bf 13000000 13000000 93c52500  ..............%.
 800014d0 6f00c000 93c53500 6f004000 13000000  o.....5.o.@.....
 800014e0 97030000 9383c3fa 13000000 13000000  ................
 800014f0 13000000 13000000 13000000 13000000  ................
 80001500 93f3c3ff b3857540 2338b306 6f008003  ......u@#8..o...
 80001510 8334811f 03330120 33039300 37030000  .4...3. 3...7...
 80001520 13030300 1313b300 1303635d 1313b300  ..........c]....
 80001530 13036343 1313a300 1303032d 23be64fe  ..cC.......-#.d.
 80001540 6f004000 13050000 6f004001 00000000  o.@.....o.@.....
 80001550 00000000 00000000 00000000 13050500  ................
 80001560 73001000 6f000000 130101ff 17050000  s...o...........
 80001570 1305c501 23341100 efe09fa9 13050500  ....#4..........
 80001580 73001000 6f000000 00000000 00000000  s...o...........
 80001590 00000000 00000000 00000000 00000000  ................
 800015a0 00000000 00000000 00000000 00000000  ................
 800015b0 00000000 00000000 00000000 00000000  ................
 800015c0 00000000 00000000 00000000 00000000  ................
 800015d0 00000000 00000000 00000000 00000000  ................
 800015e0 00000000 00000000 00000000 00000000  ................
 800015f0 00000000 00000000 00000000 00000000  ................
 80001600 00000000 00000000 00000000 00000000  ................
 80001610 00000000 00000000 00000000 00000000  ................
 80001620 00000000 00000000 00000000 00000000  ................
 80001630 00000000 00000000 00000000 00000000  ................
 80001640 00000000 00000000 00000000 00000000  ................
 80001650 00000000 00000000 00000000 00000000  ................
 80001660 00000000 00000000 00000000 00000000  ................
 80001670 00000000 00000000 00000000 00000000  ................
 80001680 00000000 00000000 00000000 00000000  ................
 80001690 00000000 00000000 00000000 00000000  ................
 800016a0 00000000 00000000 00000000 00000000  ................
 800016b0 00000000 00000000 00000000 00000000  ................
 800016c0 00000000 00000000 00000000 00000000  ................
 800016d0 00000000 00000000 00000000 00000000  ................
 800016e0 00000000 00000000 00000000 00000000  ................
 800016f0 00000000 00000000 00000000 00000000  ................
 80001700 00000000 00000000 00000000 00000000  ................
 80001710 00000000 00000000 00000000 00000000  ................
 80001720 00000000 00000000 00000000 00000000  ................
 80001730 00000000 00000000 00000000 00000000  ................
 80001740 00000000 00000000 00000000 00000000  ................
 80001750 00000000 00000000 00000000 00000000  ................
 80001760 00000000 00000000 00000000 00000000  ................
 80001770 00000000 00000000 00000000 00000000  ................
 80001780 00000000 00000000 00000000 00000000  ................
 80001790 00000000 00000000 00000000 00000000  ................
 800017a0 00000000 00000000 00000000 00000000  ................
 800017b0 00000000 00000000 00000000 00000000  ................
 800017c0 00000000 00000000 00000000 00000000  ................
 800017d0 00000000 00000000 00000000 00000000  ................
 800017e0 00000000 00000000 00000000 00000000  ................
 800017f0 00000000 00000000 00000000 00000000  ................
 80001800 00000000 00000000 00000000 00000000  ................
 80001810 00000000 00000000 00000000 00000000  ................
 80001820 00000000 00000000 00000000 00000000  ................
 80001830 00000000 00000000 00000000 00000000  ................
 80001840 00000000 00000000 00000000 00000000  ................
 80001850 00000000 00000000 00000000 00000000  ................
 80001860 00000000 00000000 00000000 00000000  ................
 80001870 00000000 00000000 00000000 00000000  ................
 80001880 00000000 00000000 00000000 00000000  ................
 80001890 00000000 00000000 00000000 00000000  ................
 800018a0 00000000 00000000 00000000 00000000  ................
 800018b0 00000000 00000000 00000000 00000000  ................
 800018c0 00000000 00000000 00000000 00000000  ................
 800018d0 00000000 00000000 00000000 00000000  ................
 800018e0 00000000 00000000 00000000 00000000  ................
 800018f0 00000000 00000000 00000000 00000000  ................
 80001900 00000000 00000000 00000000 00000000  ................
 80001910 00000000 00000000 00000000 00000000  ................
 80001920 00000000 00000000 00000000 00000000  ................
 80001930 00000000 00000000 00000000 00000000  ................
 80001940 00000000 00000000 00000000 00000000  ................
 80001950 00000000 00000000 00000000 00000000  ................
 80001960 00000000 00000000 00000000 00000000  ................
 80001970 00000000 00000000 00000000 00000000  ................
 80001980 00000000 00000000 00000000 00000000  ................
 80001990 00000000 00000000 00000000 00000000  ................
 800019a0 00000000 00000000 00000000 00000000  ................
 800019b0 00000000 00000000 00000000 00000000  ................
 800019c0 00000000 00000000 00000000 00000000  ................
 800019d0 00000000 00000000 00000000 00000000  ................
 800019e0 00000000 00000000 00000000 00000000  ................
 800019f0 00000000 00000000 00000000 00000000  ................
 80001a00 00000000 00000000 00000000 00000000  ................
 80001a10 00000000 00000000 00000000 00000000  ................
 80001a20 00000000 00000000 00000000 00000000  ................
 80001a30 00000000 00000000 00000000 00000000  ................
 80001a40 00000000 00000000 00000000 00000000  ................
 80001a50 00000000 00000000 00000000 00000000  ................
 80001a60 00000000 00000000 00000000 00000000  ................
 80001a70 00000000 00000000 00000000 00000000  ................
 80001a80 00000000 00000000 00000000 00000000  ................
 80001a90 00000000 00000000 00000000 00000000  ................
 80001aa0 00000000 00000000 00000000 00000000  ................
 80001ab0 00000000 00000000 00000000 00000000  ................
 80001ac0 00000000 00000000 00000000 00000000  ................
 80001ad0 00000000 00000000 00000000 00000000  ................
 80001ae0 00000000 00000000 00000000 00000000  ................
 80001af0 00000000 00000000 00000000 00000000  ................
 80001b00 00000000 00000000 00000000 00000000  ................
 80001b10 00000000 00000000 00000000 00000000  ................
 80001b20 00000000 00000000 00000000 00000000  ................
 80001b30 00000000 00000000 00000000 00000000  ................
 80001b40 00000000 00000000 00000000 00000000  ................
 80001b50 00000000 00000000 00000000 00000000  ................
 80001b60 00000000 00000000 00000000 00000000  ................
 80001b70 00000000 00000000 00000000 00000000  ................
 80001b80 00000000 00000000 00000000 00000000  ................
 80001b90 00000000 00000000 00000000 00000000  ................
 80001ba0 00000000 00000000 00000000 00000000  ................
 80001bb0 00000000 00000000 00000000 00000000  ................
 80001bc0 00000000 00000000 00000000 00000000  ................
 80001bd0 00000000 00000000 00000000 00000000  ................
 80001be0 00000000 00000000 00000000 00000000  ................
 80001bf0 00000000 00000000 00000000 00000000  ................
 80001c00 00000000 00000000 00000000 00000000  ................
 80001c10 00000000 00000000 00000000 00000000  ................
 80001c20 00000000 00000000 00000000 00000000  ................
 80001c30 00000000 00000000 00000000 00000000  ................
 80001c40 00000000 00000000 00000000 00000000  ................
 80001c50 00000000 00000000 00000000 00000000  ................
 80001c60 00000000 00000000 00000000 00000000  ................
 80001c70 00000000 00000000 00000000 00000000  ................
 80001c80 00000000 00000000 00000000 00000000  ................
 80001c90 00000000 00000000 00000000 00000000  ................
 80001ca0 00000000 00000000 00000000 00000000  ................
 80001cb0 00000000 00000000 00000000 00000000  ................
 80001cc0 00000000 00000000 00000000 00000000  ................
 80001cd0 00000000 00000000 00000000 00000000  ................
 80001ce0 00000000 00000000 00000000 00000000  ................
 80001cf0 00000000 00000000 00000000 00000000  ................
 80001d00 00000000 00000000 00000000 00000000  ................
 80001d10 00000000 00000000 00000000 00000000  ................
 80001d20 00000000 00000000 00000000 00000000  ................
 80001d30 00000000 00000000 00000000 00000000  ................
 80001d40 00000000 00000000 00000000 00000000  ................
 80001d50 00000000 00000000 00000000 00000000  ................
 80001d60 00000000 00000000 00000000 00000000  ................
 80001d70 00000000 00000000 00000000 00000000  ................
 80001d80 00000000 00000000 00000000 00000000  ................
 80001d90 00000000 00000000 00000000 00000000  ................
 80001da0 00000000 00000000 00000000 00000000  ................
 80001db0 00000000 00000000 00000000 00000000  ................
 80001dc0 00000000 00000000 00000000 00000000  ................
 80001dd0 00000000 00000000 00000000 00000000  ................
 80001de0 00000000 00000000 00000000 00000000  ................
 80001df0 00000000 00000000 00000000 00000000  ................
 80001e00 00000000 00000000 00000000 00000000  ................
 80001e10 00000000 00000000 00000000 00000000  ................
 80001e20 00000000 00000000 00000000 00000000  ................
 80001e30 00000000 00000000 00000000 00000000  ................
 80001e40 00000000 00000000 00000000 00000000  ................
 80001e50 00000000 00000000 00000000 00000000  ................
 80001e60 00000000 00000000 00000000 00000000  ................
 80001e70 00000000 00000000 00000000 00000000  ................
 80001e80 00000000 00000000 00000000 00000000  ................
 80001e90 00000000 00000000 00000000 00000000  ................
 80001ea0 00000000 00000000 00000000 00000000  ................
 80001eb0 00000000 00000000 00000000 00000000  ................
 80001ec0 00000000 00000000 00000000 00000000  ................
 80001ed0 00000000 00000000 00000000 00000000  ................
 80001ee0 00000000 00000000 00000000 00000000  ................
 80001ef0 00000000 00000000 00000000 00000000  ................
 80001f00 00000000 00000000 00000000 00000000  ................
 80001f10 00000000 00000000 00000000 00000000  ................
 80001f20 00000000 00000000 00000000 00000000  ................
 80001f30 00000000 00000000 00000000 00000000  ................
 80001f40 00000000 00000000 00000000 00000000  ................
 80001f50 00000000 00000000 00000000 00000000  ................
 80001f60 00000000 00000000 00000000 00000000  ................
 80001f70 00000000 00000000 00000000 00000000  ................
 80001f80 00000000 00000000 00000000 00000000  ................
 80001f90 00000000 00000000 00000000 00000000  ................
 80001fa0 00000000 00000000 00000000 00000000  ................
 80001fb0 00000000 00000000 00000000 00000000  ................
 80001fc0 00000000 00000000 00000000 00000000  ................
 80001fd0 00000000 00000000 00000000 00000000  ................
 80001fe0 00000000 00000000 00000000 00000000  ................
 80001ff0 00000000 00000000 00000000 00000000  ................
 80002000 fecabeba fecabeba fecabeba fecabeba  ................
 80002010 efbeadde efbeadde 00000000 00000000  ................
 80002020 00000000 00000000 00000000 00000000  ................
 80002030 00000000 00000000 00000000 00000000  ................
 80002040 00000000 00000000 00000000 00000000  ................
 80002050 00000000 00000000 00000000 00000000  ................
 80002060 00000000 00000000 00000000 00000000  ................
 80002070 00000000 00000000 00000000 00000000  ................
 80002080 00000000 00000000 00000000 00000000  ................
 80002090 00000000 00000000 00000000 00000000  ................
 800020a0 00000000 00000000 00000000 00000000  ................
 800020b0 00000000 00000000 00000000 00000000  ................
 800020c0 00000000 00000000 00000000 00000000  ................
 800020d0 00000000 00000000 00000000 00000000  ................
 800020e0 00000000 00000000 00000000 00000000  ................
 800020f0 00000000 00000000 00000000 00000000  ................
 80002100 00000000 00000000 00000000 00000000  ................
 80002110 00000000 00000000 00000000 00000000  ................
 80002120 00000000 00000000 00000000 00000000  ................
 80002130 00000000 00000000 00000000 00000000  ................
 80002140 00000000 00000000 00000000 00000000  ................
 80002150 00000000 00000000 00000000 00000000  ................
 80002160 00000000 00000000 00000000 00000000  ................
 80002170 00000000 00000000 00000000 00000000  ................
 80002180 00000000 00000000 00000000 00000000  ................
 80002190 00000000 00000000 00000000 00000000  ................
 800021a0 00000000 00000000 00000000 00000000  ................
 800021b0 00000000 00000000 00000000 00000000  ................
 800021c0 00000000 00000000 00000000 00000000  ................
 800021d0 00000000 00000000 00000000 00000000  ................
 800021e0 00000000 00000000 00000000 00000000  ................
 800021f0 00000000 00000000 00000000 00000000  ................
 80002200 00000000 00000000 00000000 00000000  ................
 80002210 00000000 00000000 00000000 00000000  ................
 80002220 00000000 00000000 00000000 00000000  ................
 80002230 00000000 00000000 00000000 00000000  ................
 80002240 00000000 00000000 00000000 00000000  ................
 80002250 00000000 00000000 00000000 00000000  ................
 80002260 00000000 00000000 00000000 00000000  ................
 80002270 00000000 00000000 00000000 00000000  ................
 80002280 00000000 00000000 00000000 00000000  ................
 80002290 00000000 00000000 00000000 00000000  ................
 800022a0 00000000 00000000 00000000 00000000  ................
 800022b0 00000000 00000000 00000000 00000000  ................
 800022c0 00000000 00000000 00000000 00000000  ................
 800022d0 00000000 00000000 00000000 00000000  ................
 800022e0 00000000 00000000 00000000 00000000  ................
 800022f0 00000000 00000000 00000000 00000000  ................
 80002300 00000000 00000000 00000000 00000000  ................
 80002310 00000000 00000000 00000000 00000000  ................
 80002320 00000000 00000000 00000000 00000000  ................
 80002330 00000000 00000000 00000000 00000000  ................
 80002340 00000000 00000000 00000000 00000000  ................
 80002350 00000000 00000000 00000000 00000000  ................
 80002360 00000000 00000000 00000000 00000000  ................
 80002370 00000000 00000000 00000000 00000000  ................
 80002380 00000000 00000000 00000000 00000000  ................
 80002390 00000000 00000000 00000000 00000000  ................
 800023a0 00000000 00000000 00000000 00000000  ................
 800023b0 00000000 00000000 00000000 00000000  ................
 800023c0 00000000 00000000 00000000 00000000  ................
 800023d0 00000000 00000000 00000000 00000000  ................
 800023e0 00000000 00000000 00000000 00000000  ................
 800023f0 00000000 00000000 00000000 00000000  ................
 80002400 00000000 00000000 00000000 00000000  ................
 80002410 00000000 00000000 00000000 00000000  ................
 80002420 00000000 00000000 00000000 00000000  ................
 80002430 00000000 00000000 00000000 00000000  ................
 80002440 00000000 00000000 00000000 00000000  ................
 80002450 00000000 00000000 00000000 00000000  ................
 80002460 00000000 00000000 00000000 00000000  ................
 80002470 00000000 00000000 00000000 00000000  ................
 80002480 00000000 00000000 00000000 00000000  ................
 80002490 00000000 00000000 00000000 00000000  ................
 800024a0 00000000 00000000 00000000 00000000  ................
 800024b0 00000000 00000000 00000000 00000000  ................
 800024c0 00000000 00000000 00000000 00000000  ................
 800024d0 00000000 00000000 00000000 00000000  ................
 800024e0 00000000 00000000 00000000 00000000  ................
 800024f0 00000000 00000000 00000000 00000000  ................
 80002500 00000000 00000000 00000000 00000000  ................
 80002510 00000000 00000000 00000000 00000000  ................
 80002520 00000000 00000000 00000000 00000000  ................
 80002530 00000000 00000000 00000000 00000000  ................
 80002540 00000000 00000000 00000000 00000000  ................
 80002550 00000000 00000000 00000000 00000000  ................
 80002560 00000000 00000000 00000000 00000000  ................
 80002570 00000000 00000000 00000000 00000000  ................
 80002580 00000000 00000000 00000000 00000000  ................
 80002590 00000000 00000000 00000000 00000000  ................
 800025a0 00000000 00000000 00000000 00000000  ................
 800025b0 00000000 00000000 00000000 00000000  ................
 800025c0 00000000 00000000 00000000 00000000  ................
 800025d0 00000000 00000000 00000000 00000000  ................
 800025e0 00000000 00000000 00000000 00000000  ................
 800025f0 00000000 00000000 00000000 00000000  ................
 80002600 00000000 00000000 00000000 00000000  ................
 80002610 00000000 00000000 00000000 00000000  ................
 80002620 00000000 00000000 00000000 00000000  ................
 80002630 00000000 00000000 00000000 00000000  ................
 80002640 00000000 00000000 00000000 00000000  ................
 80002650 00000000 00000000 00000000 00000000  ................
 80002660 00000000 00000000 00000000 00000000  ................
 80002670 00000000 00000000 00000000 00000000  ................
 80002680 00000000 00000000 00000000 00000000  ................
 80002690 00000000 00000000 00000000 00000000  ................
 800026a0 00000000 00000000 00000000 00000000  ................
 800026b0 00000000 00000000 00000000 00000000  ................
 800026c0 00000000 00000000 00000000 00000000  ................
 800026d0 00000000 00000000 00000000 00000000  ................
 800026e0 00000000 00000000 00000000 00000000  ................
 800026f0 00000000 00000000 00000000 00000000  ................
 80002700 00000000 00000000 00000000 00000000  ................
 80002710 00000000 00000000 00000000 00000000  ................
 80002720 00000000 00000000 00000000 00000000  ................
 80002730 00000000 00000000 00000000 00000000  ................
 80002740 00000000 00000000 00000000 00000000  ................
 80002750 00000000 00000000 00000000 00000000  ................
 80002760 00000000 00000000 00000000 00000000  ................
 80002770 00000000 00000000 00000000 00000000  ................
 80002780 00000000 00000000 00000000 00000000  ................
 80002790 00000000 00000000 00000000 00000000  ................
 800027a0 00000000 00000000 00000000 00000000  ................
 800027b0 00000000 00000000 00000000 00000000  ................
 800027c0 00000000 00000000 00000000 00000000  ................
 800027d0 00000000 00000000 00000000 00000000  ................
 800027e0 00000000 00000000 00000000 00000000  ................
 800027f0 00000000 00000000 00000000 00000000  ................
 80002800 00000000 00000000 00000000 00000000  ................
 80002810 00000000 00000000 00000000 00000000  ................
 80002820 00000000 00000000 00000000 00000000  ................
 80002830 00000000 00000000 00000000 00000000  ................
 80002840 00000000 00000000 00000000 00000000  ................
 80002850 00000000 00000000 00000000 00000000  ................
 80002860 00000000 00000000 00000000 00000000  ................
 80002870 00000000 00000000 00000000 00000000  ................
 80002880 00000000 00000000 00000000 00000000  ................
 80002890 00000000 00000000 00000000 00000000  ................
 800028a0 00000000 00000000 00000000 00000000  ................
 800028b0 00000000 00000000 00000000 00000000  ................
 800028c0 00000000 00000000 00000000 00000000  ................
 800028d0 00000000 00000000 00000000 00000000  ................
 800028e0 00000000 00000000 00000000 00000000  ................
 800028f0 00000000 00000000 00000000 00000000  ................
 80002900 00000000 00000000 00000000 00000000  ................
 80002910 00000000 00000000 00000000 00000000  ................
 80002920 00000000 00000000 00000000 00000000  ................
 80002930 00000000 00000000 00000000 00000000  ................
 80002940 00000000 00000000 00000000 00000000  ................
 80002950 00000000 00000000 00000000 00000000  ................
 80002960 00000000 00000000 00000000 00000000  ................
 80002970 00000000 00000000 00000000 00000000  ................
 80002980 00000000 00000000 00000000 00000000  ................
 80002990 00000000 00000000 00000000 00000000  ................
 800029a0 00000000 00000000 00000000 00000000  ................
 800029b0 00000000 00000000 00000000 00000000  ................
 800029c0 00000000 00000000 00000000 00000000  ................
 800029d0 00000000 00000000 00000000 00000000  ................
 800029e0 00000000 00000000 00000000 00000000  ................
 800029f0 00000000 00000000 00000000 00000000  ................
 80002a00 00000000 00000000 00000000 00000000  ................
 80002a10 00000000 00000000 00000000 00000000  ................
 80002a20 00000000 00000000 00000000 00000000  ................
 80002a30 00000000 00000000 00000000 00000000  ................
 80002a40 00000000 00000000 00000000 00000000  ................
 80002a50 00000000 00000000 00000000 00000000  ................
 80002a60 00000000 00000000 00000000 00000000  ................
 80002a70 00000000 00000000 00000000 00000000  ................
 80002a80 00000000 00000000 00000000 00000000  ................
 80002a90 00000000 00000000 00000000 00000000  ................
 80002aa0 00000000 00000000 00000000 00000000  ................
 80002ab0 00000000 00000000 00000000 00000000  ................
 80002ac0 00000000 00000000 00000000 00000000  ................
 80002ad0 00000000 00000000 00000000 00000000  ................
 80002ae0 00000000 00000000 00000000 00000000  ................
 80002af0 00000000 00000000 00000000 00000000  ................
 80002b00 00000000 00000000 00000000 00000000  ................
 80002b10 00000000 00000000 00000000 00000000  ................
 80002b20 00000000 00000000 00000000 00000000  ................
 80002b30 00000000 00000000 00000000 00000000  ................
 80002b40 00000000 00000000 00000000 00000000  ................
 80002b50 00000000 00000000 00000000 00000000  ................
 80002b60 00000000 00000000 00000000 00000000  ................
 80002b70 00000000 00000000 00000000 00000000  ................
 80002b80 00000000 00000000 00000000 00000000  ................
 80002b90 00000000 00000000 00000000 00000000  ................
 80002ba0 00000000 00000000 00000000 00000000  ................
 80002bb0 00000000 00000000 00000000 00000000  ................
 80002bc0 00000000 00000000 00000000 00000000  ................
 80002bd0 00000000 00000000 00000000 00000000  ................
 80002be0 00000000 00000000 00000000 00000000  ................
 80002bf0 00000000 00000000 00000000 00000000  ................
 80002c00 00000000 00000000 00000000 00000000  ................
 80002c10 00000000 00000000 00000000 00000000  ................
 80002c20 00000000 00000000 00000000 00000000  ................
 80002c30 00000000 00000000 00000000 00000000  ................
 80002c40 00000000 00000000 00000000 00000000  ................
 80002c50 00000000 00000000 00000000 00000000  ................
 80002c60 00000000 00000000 00000000 00000000  ................
 80002c70 00000000 00000000 00000000 00000000  ................
 80002c80 00000000 00000000 00000000 00000000  ................
 80002c90 00000000 00000000 00000000 00000000  ................
 80002ca0 00000000 00000000 00000000 00000000  ................
 80002cb0 00000000 00000000 00000000 00000000  ................
 80002cc0 00000000 00000000 00000000 00000000  ................
 80002cd0 00000000 00000000 00000000 00000000  ................
 80002ce0 00000000 00000000 00000000 00000000  ................
 80002cf0 00000000 00000000 00000000 00000000  ................
 80002d00 00000000 00000000 00000000 00000000  ................
 80002d10 00000000 00000000 00000000 00000000  ................
 80002d20 00000000 00000000 00000000 00000000  ................
 80002d30 00000000 00000000 00000000 00000000  ................
 80002d40 00000000 00000000 00000000 00000000  ................
 80002d50 00000000 00000000 00000000 00000000  ................
 80002d60 00000000 00000000 00000000 00000000  ................
 80002d70 00000000 00000000 00000000 00000000  ................
 80002d80 00000000 00000000 00000000 00000000  ................
 80002d90 00000000 00000000 00000000 00000000  ................
 80002da0 00000000 00000000 00000000 00000000  ................
 80002db0 00000000 00000000 00000000 00000000  ................
 80002dc0 00000000 00000000 00000000 00000000  ................
 80002dd0 00000000 00000000 00000000 00000000  ................
 80002de0 00000000 00000000 00000000 00000000  ................
 80002df0 00000000 00000000 00000000 00000000  ................
 80002e00 00000000 00000000 00000000 00000000  ................
 80002e10 00000000 00000000 00000000 00000000  ................
 80002e20 00000000 00000000 00000000 00000000  ................
 80002e30 00000000 00000000 00000000 00000000  ................
 80002e40 00000000 00000000 00000000 00000000  ................
 80002e50 00000000 00000000 00000000 00000000  ................
 80002e60 00000000 00000000 00000000 00000000  ................
 80002e70 00000000 00000000 00000000 00000000  ................
 80002e80 00000000 00000000 00000000 00000000  ................
 80002e90 00000000 00000000 00000000 00000000  ................
 80002ea0 00000000 00000000 00000000 00000000  ................
 80002eb0 00000000 00000000 00000000 00000000  ................
 80002ec0 00000000 00000000 00000000 00000000  ................
 80002ed0 00000000 00000000 00000000 00000000  ................
 80002ee0 00000000 00000000 00000000 00000000  ................
 80002ef0 00000000 00000000 00000000 00000000  ................
 80002f00 00000000 00000000 00000000 00000000  ................
 80002f10 00000000 00000000 00000000 00000000  ................
 80002f20 00000000 00000000 00000000 00000000  ................
 80002f30 00000000 00000000 00000000 00000000  ................
 80002f40 00000000 00000000 00000000 00000000  ................
 80002f50 00000000 00000000 00000000 00000000  ................
 80002f60 00000000 00000000 00000000 00000000  ................
 80002f70 00000000 00000000 00000000 00000000  ................
 80002f80 00000000 00000000 00000000 00000000  ................
 80002f90 00000000 00000000 00000000 00000000  ................
 80002fa0 00000000 00000000 00000000 00000000  ................
 80002fb0 00000000 00000000 00000000 00000000  ................
 80002fc0 00000000 00000000 00000000 00000000  ................
 80002fd0 00000000 00000000 00000000 00000000  ................
 80002fe0 00000000 00000000 00000000 00000000  ................
 80002ff0 00000000 00000000 00000000 00000000  ................
 80003000 81b2d4e7 09a35c6f efbeadde efbeadde  ......\o........
 80003010 efbeadde efbeadde efbeadde efbeadde  ................
 80003020 efbeadde efbeadde efbeadde efbeadde  ................
 80003030 efbeadde efbeadde efbeadde efbeadde  ................
 80003040 efbeadde efbeadde efbeadde efbeadde  ................
 80003050 efbeadde efbeadde efbeadde efbeadde  ................
 80003060 efbeadde efbeadde efbeadde efbeadde  ................
 80003070 efbeadde efbeadde efbeadde efbeadde  ................
 80003080 efbeadde efbeadde efbeadde efbeadde  ................
 80003090 efbeadde efbeadde efbeadde efbeadde  ................
 800030a0 efbeadde efbeadde efbeadde efbeadde  ................
 800030b0 efbeadde efbeadde efbeadde efbeadde  ................
 800030c0 efbeadde efbeadde efbeadde efbeadde  ................
 800030d0 efbeadde efbeadde efbeadde efbeadde  ................
 800030e0 efbeadde efbeadde efbeadde efbeadde  ................
 800030f0 efbeadde efbeadde efbeadde efbeadde  ................
 80003100 efbeadde efbeadde efbeadde efbeadde  ................
 80003110 81b2d4e7 09a35c6f 00000000 00000000  ......\o........

Disassembly of section .data:

0000000080000000 <.data>:
    80000000:	00000413          	addi	x8,x0,0
    80000004:	0000c117          	auipc	x2,0xc
    80000008:	ffc10113          	addi	x2,x2,-4 # 0x8000c000
    8000000c:	55c010ef          	jal	x1,0x80001568
    80000010:	030000ef          	jal	x1,0x80000040
    80000014:	00100513          	addi	x10,x0,1
    80000018:	544010ef          	jal	x1,0x8000155c
    8000001c:	00000513          	addi	x10,x0,0
    80000020:	00008067          	jalr	x0,0(x1)
	...
    80000040:	feedc0b7          	lui	x1,0xfeedc
    80000044:	ead08093          	addi	x1,x1,-339 # 0xfffffffffeedbead
    80000048:	00b09093          	slli	x1,x1,0xb
    8000004c:	7f708093          	addi	x1,x1,2039
    80000050:	00b09093          	slli	x1,x1,0xb
    80000054:	36f08093          	addi	x1,x1,879
    80000058:	00a09093          	slli	x1,x1,0xa
    8000005c:	2ad08093          	addi	x1,x1,685
    80000060:	ff76e137          	lui	x2,0xff76e
    80000064:	f5610113          	addi	x2,x2,-170 # 0xffffffffff76df56
    80000068:	00b11113          	slli	x2,x2,0xb
    8000006c:	7fb10113          	addi	x2,x2,2043
    80000070:	00b11113          	slli	x2,x2,0xb
    80000074:	5b710113          	addi	x2,x2,1463
    80000078:	00a11113          	slli	x2,x2,0xa
    8000007c:	35610113          	addi	x2,x2,854
    80000080:	7fbb71b7          	lui	x3,0x7fbb7
    80000084:	fab18193          	addi	x3,x3,-85 # 0x7fbb6fab
    80000088:	00b19193          	slli	x3,x3,0xb
    8000008c:	3fd18193          	addi	x3,x3,1021
    80000090:	00b19193          	slli	x3,x3,0xb
    80000094:	6db18193          	addi	x3,x3,1755
    80000098:	00a19193          	slli	x3,x3,0xa
    8000009c:	3ab18193          	addi	x3,x3,939
    800000a0:	bfddb237          	lui	x4,0xbfddb
    800000a4:	7d520213          	addi	x4,x4,2005 # 0xffffffffbfddb7d5
    800000a8:	00b21213          	slli	x4,x4,0xb
    800000ac:	5fe20213          	addi	x4,x4,1534 # 0x5fe
    800000b0:	00b21213          	slli	x4,x4,0xb
    800000b4:	76d20213          	addi	x4,x4,1901 # 0x76d
    800000b8:	00a21213          	slli	x4,x4,0xa
    800000bc:	3d520213          	addi	x4,x4,981 # 0x3d5
    800000c0:	dfeee2b7          	lui	x5,0xdfeee
    800000c4:	bea28293          	addi	x5,x5,-1046 # 0xffffffffdfeedbea
    800000c8:	00b29293          	slli	x5,x5,0xb
    800000cc:	6ff28293          	addi	x5,x5,1791
    800000d0:	00b29293          	slli	x5,x5,0xb
    800000d4:	3b628293          	addi	x5,x5,950
    800000d8:	00a29293          	slli	x5,x5,0xa
    800000dc:	3ea28293          	addi	x5,x5,1002
    800000e0:	6ff77337          	lui	x6,0x6ff77
    800000e4:	df530313          	addi	x6,x6,-523 # 0x6ff76df5
    800000e8:	00b31313          	slli	x6,x6,0xb
    800000ec:	37f30313          	addi	x6,x6,895
    800000f0:	00b31313          	slli	x6,x6,0xb
    800000f4:	5db30313          	addi	x6,x6,1499
    800000f8:	00a31313          	slli	x6,x6,0xa
    800000fc:	1f530313          	addi	x6,x6,501
    80000100:	b7fbb3b7          	lui	x7,0xb7fbb
    80000104:	6fa38393          	addi	x7,x7,1786 # 0xffffffffb7fbb6fa
    80000108:	00b39393          	slli	x7,x7,0xb
    8000010c:	5bf38393          	addi	x7,x7,1471
    80000110:	00b39393          	slli	x7,x7,0xb
    80000114:	6ed38393          	addi	x7,x7,1773
    80000118:	00a39393          	slli	x7,x7,0xa
    8000011c:	2fa38393          	addi	x7,x7,762
    80000120:	5bfde437          	lui	x8,0x5bfde
    80000124:	b7d40413          	addi	x8,x8,-1155 # 0x5bfddb7d
    80000128:	00b41413          	slli	x8,x8,0xb
    8000012c:	2df40413          	addi	x8,x8,735
    80000130:	00b41413          	slli	x8,x8,0xb
    80000134:	77640413          	addi	x8,x8,1910
    80000138:	00a41413          	slli	x8,x8,0xa
    8000013c:	37d40413          	addi	x8,x8,893
    80000140:	adfef4b7          	lui	x9,0xadfef
    80000144:	dbe48493          	addi	x9,x9,-578 # 0xffffffffadfeedbe
    80000148:	00b49493          	slli	x9,x9,0xb
    8000014c:	56f48493          	addi	x9,x9,1391
    80000150:	00b49493          	slli	x9,x9,0xb
    80000154:	7bb48493          	addi	x9,x9,1979
    80000158:	00a49493          	slli	x9,x9,0xa
    8000015c:	1be48493          	addi	x9,x9,446
    80000160:	56ff7537          	lui	x10,0x56ff7
    80000164:	6df50513          	addi	x10,x10,1759 # 0x56ff76df
    80000168:	00b51513          	slli	x10,x10,0xb
    8000016c:	2b750513          	addi	x10,x10,695
    80000170:	00b51513          	slli	x10,x10,0xb
    80000174:	7dd50513          	addi	x10,x10,2013
    80000178:	00a51513          	slli	x10,x10,0xa
    8000017c:	2df50513          	addi	x10,x10,735
    80000180:	ab7fc5b7          	lui	x11,0xab7fc
    80000184:	b6f58593          	addi	x11,x11,-1169 # 0xffffffffab7fbb6f
    80000188:	00b59593          	slli	x11,x11,0xb
    8000018c:	55b58593          	addi	x11,x11,1371
    80000190:	00b59593          	slli	x11,x11,0xb
    80000194:	7ee58593          	addi	x11,x11,2030
    80000198:	00a59593          	slli	x11,x11,0xa
    8000019c:	36f58593          	addi	x11,x11,879
    800001a0:	d5bfe637          	lui	x12,0xd5bfe
    800001a4:	db760613          	addi	x12,x12,-585 # 0xffffffffd5bfddb7
    800001a8:	00b61613          	slli	x12,x12,0xb
    800001ac:	6ad60613          	addi	x12,x12,1709
    800001b0:	00b61613          	slli	x12,x12,0xb
    800001b4:	7f760613          	addi	x12,x12,2039
    800001b8:	00a61613          	slli	x12,x12,0xa
    800001bc:	1b760613          	addi	x12,x12,439
    800001c0:	eadff6b7          	lui	x13,0xeadff
    800001c4:	edb68693          	addi	x13,x13,-293 # 0xffffffffeadfeedb
    800001c8:	00b69693          	slli	x13,x13,0xb
    800001cc:	75668693          	addi	x13,x13,1878
    800001d0:	00b69693          	slli	x13,x13,0xb
    800001d4:	7fb68693          	addi	x13,x13,2043
    800001d8:	00a69693          	slli	x13,x13,0xa
    800001dc:	2db68693          	addi	x13,x13,731
    800001e0:	f56ff737          	lui	x14,0xf56ff
    800001e4:	76d70713          	addi	x14,x14,1901 # 0xfffffffff56ff76d
    800001e8:	00b71713          	slli	x14,x14,0xb
    800001ec:	7ab70713          	addi	x14,x14,1963
    800001f0:	00b71713          	slli	x14,x14,0xb
    800001f4:	3fd70713          	addi	x14,x14,1021
    800001f8:	00a71713          	slli	x14,x14,0xa
    800001fc:	36d70713          	addi	x14,x14,877
    80000200:	fab807b7          	lui	x15,0xfab80
    80000204:	bb678793          	addi	x15,x15,-1098 # 0xfffffffffab7fbb6
    80000208:	00b79793          	slli	x15,x15,0xb
    8000020c:	7d578793          	addi	x15,x15,2005
    80000210:	00b79793          	slli	x15,x15,0xb
    80000214:	5fe78793          	addi	x15,x15,1534
    80000218:	00a79793          	slli	x15,x15,0xa
    8000021c:	3b678793          	addi	x15,x15,950
    80000220:	7d5c0837          	lui	x16,0x7d5c0
    80000224:	ddb80813          	addi	x16,x16,-549 # 0x7d5bfddb
    80000228:	00b81813          	slli	x16,x16,0xb
    8000022c:	3ea80813          	addi	x16,x16,1002
    80000230:	00b81813          	slli	x16,x16,0xb
    80000234:	6ff80813          	addi	x16,x16,1791
    80000238:	00a81813          	slli	x16,x16,0xa
    8000023c:	1db80813          	addi	x16,x16,475
    80000240:	beae08b7          	lui	x17,0xbeae0
    80000244:	eed88893          	addi	x17,x17,-275 # 0xffffffffbeadfeed
    80000248:	00b89893          	slli	x17,x17,0xb
    8000024c:	5f588893          	addi	x17,x17,1525
    80000250:	00b89893          	slli	x17,x17,0xb
    80000254:	37f88893          	addi	x17,x17,895
    80000258:	00a89893          	slli	x17,x17,0xa
    8000025c:	2ed88893          	addi	x17,x17,749
    80000260:	df570937          	lui	x18,0xdf570
    80000264:	f7690913          	addi	x18,x18,-138 # 0xffffffffdf56ff76
    80000268:	00b91913          	slli	x18,x18,0xb
    8000026c:	6fa90913          	addi	x18,x18,1786
    80000270:	00b91913          	slli	x18,x18,0xb
    80000274:	5bf90913          	addi	x18,x18,1471
    80000278:	00a91913          	slli	x18,x18,0xa
    8000027c:	37690913          	addi	x18,x18,886
    80000280:	6fab89b7          	lui	x19,0x6fab8
    80000284:	fbb98993          	addi	x19,x19,-69 # 0x6fab7fbb
    80000288:	00b99993          	slli	x19,x19,0xb
    8000028c:	37d98993          	addi	x19,x19,893
    80000290:	00b99993          	slli	x19,x19,0xb
    80000294:	2df98993          	addi	x19,x19,735
    80000298:	00a99993          	slli	x19,x19,0xa
    8000029c:	3bb98993          	addi	x19,x19,955
    800002a0:	b7d5ca37          	lui	x20,0xb7d5c
    800002a4:	fdda0a13          	addi	x20,x20,-35 # 0xffffffffb7d5bfdd
    800002a8:	00ba1a13          	slli	x20,x20,0xb
    800002ac:	5bea0a13          	addi	x20,x20,1470
    800002b0:	00ba1a13          	slli	x20,x20,0xb
    800002b4:	56fa0a13          	addi	x20,x20,1391
    800002b8:	00aa1a13          	slli	x20,x20,0xa
    800002bc:	3dda0a13          	addi	x20,x20,989
    800002c0:	dbeaeab7          	lui	x21,0xdbeae
    800002c4:	feea8a93          	addi	x21,x21,-18 # 0xffffffffdbeadfee
    800002c8:	00ba9a93          	slli	x21,x21,0xb
    800002cc:	6dfa8a93          	addi	x21,x21,1759
    800002d0:	00ba9a93          	slli	x21,x21,0xb
    800002d4:	2b7a8a93          	addi	x21,x21,695
    800002d8:	00aa9a93          	slli	x21,x21,0xa
    800002dc:	3eea8a93          	addi	x21,x21,1006
    800002e0:	6df57b37          	lui	x22,0x6df57
    800002e4:	ff7b0b13          	addi	x22,x22,-9 # 0x6df56ff7
    800002e8:	00bb1b13          	slli	x22,x22,0xb
    800002ec:	36fb0b13          	addi	x22,x22,879
    800002f0:	00bb1b13          	slli	x22,x22,0xb
    800002f4:	55bb0b13          	addi	x22,x22,1371
    800002f8:	00ab1b13          	slli	x22,x22,0xa
    800002fc:	3f7b0b13          	addi	x22,x22,1015
    80000300:	b6fabbb7          	lui	x23,0xb6fab
    80000304:	7fbb8b93          	addi	x23,x23,2043 # 0xffffffffb6fab7fb
    80000308:	00bb9b93          	slli	x23,x23,0xb
    8000030c:	5b7b8b93          	addi	x23,x23,1463
    80000310:	00bb9b93          	slli	x23,x23,0xb
    80000314:	6adb8b93          	addi	x23,x23,1709
    80000318:	00ab9b93          	slli	x23,x23,0xa
    8000031c:	3fbb8b93          	addi	x23,x23,1019
    80000320:	db7d6c37          	lui	x24,0xdb7d6
    80000324:	bfdc0c13          	addi	x24,x24,-1027 # 0xffffffffdb7d5bfd
    80000328:	00bc1c13          	slli	x24,x24,0xb
    8000032c:	6dbc0c13          	addi	x24,x24,1755
    80000330:	00bc1c13          	slli	x24,x24,0xb
    80000334:	756c0c13          	addi	x24,x24,1878
    80000338:	00ac1c13          	slli	x24,x24,0xa
    8000033c:	3fdc0c13          	addi	x24,x24,1021
    80000340:	edbebcb7          	lui	x25,0xedbeb
    80000344:	dfec8c93          	addi	x25,x25,-514 # 0xffffffffedbeadfe
    80000348:	00bc9c93          	slli	x25,x25,0xb
    8000034c:	76dc8c93          	addi	x25,x25,1901
    80000350:	00bc9c93          	slli	x25,x25,0xb
    80000354:	7abc8c93          	addi	x25,x25,1963
    80000358:	00ac9c93          	slli	x25,x25,0xa
    8000035c:	1fec8c93          	addi	x25,x25,510
    80000360:	76df5d37          	lui	x26,0x76df5
    80000364:	6ffd0d13          	addi	x26,x26,1791 # 0x76df56ff
    80000368:	00bd1d13          	slli	x26,x26,0xb
    8000036c:	3b6d0d13          	addi	x26,x26,950
    80000370:	00bd1d13          	slli	x26,x26,0xb
    80000374:	7d5d0d13          	addi	x26,x26,2005
    80000378:	00ad1d13          	slli	x26,x26,0xa
    8000037c:	2ffd0d13          	addi	x26,x26,767
    80000380:	bb6fbdb7          	lui	x27,0xbb6fb
    80000384:	b7fd8d93          	addi	x27,x27,-1153 # 0xffffffffbb6fab7f
    80000388:	00bd9d93          	slli	x27,x27,0xb
    8000038c:	5dbd8d93          	addi	x27,x27,1499
    80000390:	00bd9d93          	slli	x27,x27,0xb
    80000394:	3ead8d93          	addi	x27,x27,1002
    80000398:	00ad9d93          	slli	x27,x27,0xa
    8000039c:	37fd8d93          	addi	x27,x27,895
    800003a0:	ddb7de37          	lui	x28,0xddb7d
    800003a4:	5bfe0e13          	addi	x28,x28,1471 # 0xffffffffddb7d5bf
    800003a8:	00be1e13          	slli	x28,x28,0xb
    800003ac:	6ede0e13          	addi	x28,x28,1773
    800003b0:	00be1e13          	slli	x28,x28,0xb
    800003b4:	5f5e0e13          	addi	x28,x28,1525
    800003b8:	00ae1e13          	slli	x28,x28,0xa
    800003bc:	1bfe0e13          	addi	x28,x28,447
    800003c0:	eedbfeb7          	lui	x29,0xeedbf
    800003c4:	adfe8e93          	addi	x29,x29,-1313 # 0xffffffffeedbeadf
    800003c8:	00be9e93          	slli	x29,x29,0xb
    800003cc:	776e8e93          	addi	x29,x29,1910
    800003d0:	00be9e93          	slli	x29,x29,0xb
    800003d4:	6fae8e93          	addi	x29,x29,1786
    800003d8:	00ae9e93          	slli	x29,x29,0xa
    800003dc:	2dfe8e93          	addi	x29,x29,735
    800003e0:	f76dff37          	lui	x30,0xf76df
    800003e4:	56ff0f13          	addi	x30,x30,1391 # 0xfffffffff76df56f
    800003e8:	00bf1f13          	slli	x30,x30,0xb
    800003ec:	7bbf0f13          	addi	x30,x30,1979
    800003f0:	00bf1f13          	slli	x30,x30,0xb
    800003f4:	37df0f13          	addi	x30,x30,893
    800003f8:	00af1f13          	slli	x30,x30,0xa
    800003fc:	16ff0f13          	addi	x30,x30,367
    80000400:	fbb70fb7          	lui	x31,0xfbb70
    80000404:	ab7f8f93          	addi	x31,x31,-1353 # 0xfffffffffbb6fab7
    80000408:	00bf9f93          	slli	x31,x31,0xb
    8000040c:	7ddf8f93          	addi	x31,x31,2013
    80000410:	00bf9f93          	slli	x31,x31,0xb
    80000414:	5bef8f93          	addi	x31,x31,1470
    80000418:	00af9f93          	slli	x31,x31,0xa
    8000041c:	2b7f8f93          	addi	x31,x31,695
    80000420:	00003217          	auipc	x4,0x3
    80000424:	be820213          	addi	x4,x4,-1048 # 0x80003008
    80000428:	00000013          	addi	x0,x0,0
    8000042c:	00000013          	addi	x0,x0,0
    80000430:	00000013          	addi	x0,x0,0
    80000434:	00000013          	addi	x0,x0,0
    80000438:	00000013          	addi	x0,x0,0
    8000043c:	00000013          	addi	x0,x0,0
    80000440:	00000c97          	auipc	x25,0x0
    80000444:	00000013          	addi	x0,x0,0
    80000448:	00000013          	addi	x0,x0,0
    8000044c:	00000013          	addi	x0,x0,0
    80000450:	00000013          	addi	x0,x0,0
    80000454:	00000013          	addi	x0,x0,0
    80000458:	00000013          	addi	x0,x0,0
    8000045c:	00000013          	addi	x0,x0,0
    80000460:	00000c97          	auipc	x25,0x0
    80000464:	02dc8c93          	addi	x25,x25,45 # 0x8000048d
    80000468:	00000013          	addi	x0,x0,0
    8000046c:	00000013          	addi	x0,x0,0
    80000470:	00000013          	addi	x0,x0,0
    80000474:	00000013          	addi	x0,x0,0
    80000478:	00000013          	addi	x0,x0,0
    8000047c:	00000013          	addi	x0,x0,0
    80000480:	007c8ce7          	jalr	x25,7(x25)
    80000484:	00000013          	addi	x0,x0,0
    80000488:	00000013          	addi	x0,x0,0
    8000048c:	002ccc93          	xori	x25,x25,2
    80000490:	00c0006f          	jal	x0,0x8000049c
    80000494:	003ccc93          	xori	x25,x25,3
    80000498:	0040006f          	jal	x0,0x8000049c
    8000049c:	00000013          	addi	x0,x0,0
    800004a0:	00000417          	auipc	x8,0x0
    800004a4:	fa040413          	addi	x8,x8,-96 # 0x80000440
    800004a8:	00000013          	addi	x0,x0,0
    800004ac:	00000013          	addi	x0,x0,0
    800004b0:	00000013          	addi	x0,x0,0
    800004b4:	00000013          	addi	x0,x0,0
    800004b8:	00000013          	addi	x0,x0,0
    800004bc:	00000013          	addi	x0,x0,0
    800004c0:	ffc47413          	andi	x8,x8,-4
    800004c4:	408c8cb3          	sub	x25,x25,x8
    800004c8:	01923023          	sd	x25,0(x4) # 0x0
    800004cc:	00000397          	auipc	x7,0x0
    800004d0:	00000013          	addi	x0,x0,0
    800004d4:	00000013          	addi	x0,x0,0
    800004d8:	00000013          	addi	x0,x0,0
    800004dc:	00000013          	addi	x0,x0,0
    800004e0:	00000997          	auipc	x19,0x0
    800004e4:	03e98993          	addi	x19,x19,62 # 0x8000051e
    800004e8:	00000013          	addi	x0,x0,0
    800004ec:	00000013          	addi	x0,x0,0
    800004f0:	00000013          	addi	x0,x0,0
    800004f4:	00000013          	addi	x0,x0,0
    800004f8:	00000013          	addi	x0,x0,0
    800004fc:	00000013          	addi	x0,x0,0
    80000500:	ff6983e7          	jalr	x7,-10(x19)
    80000504:	00000013          	addi	x0,x0,0
    80000508:	00000013          	addi	x0,x0,0
    8000050c:	0023c393          	xori	x7,x7,2
    80000510:	00c0006f          	jal	x0,0x8000051c
    80000514:	0033c393          	xori	x7,x7,3
    80000518:	0040006f          	jal	x0,0x8000051c
    8000051c:	00000013          	addi	x0,x0,0
    80000520:	00000417          	auipc	x8,0x0
    80000524:	fac40413          	addi	x8,x8,-84 # 0x800004cc
    80000528:	00000013          	addi	x0,x0,0
    8000052c:	00000013          	addi	x0,x0,0
    80000530:	00000013          	addi	x0,x0,0
    80000534:	00000013          	addi	x0,x0,0
    80000538:	00000013          	addi	x0,x0,0
    8000053c:	00000013          	addi	x0,x0,0
    80000540:	ffc47413          	andi	x8,x8,-4
    80000544:	408383b3          	sub	x7,x7,x8
    80000548:	00723423          	sd	x7,8(x4) # 0x8
    8000054c:	00000a97          	auipc	x21,0x0
    80000550:	00000013          	addi	x0,x0,0
    80000554:	00000013          	addi	x0,x0,0
    80000558:	00000013          	addi	x0,x0,0
    8000055c:	00000013          	addi	x0,x0,0
    80000560:	00000117          	auipc	x2,0x0
    80000564:	03310113          	addi	x2,x2,51 # 0x80000593
    80000568:	00000013          	addi	x0,x0,0
    8000056c:	00000013          	addi	x0,x0,0
    80000570:	00000013          	addi	x0,x0,0
    80000574:	00000013          	addi	x0,x0,0
    80000578:	00000013          	addi	x0,x0,0
    8000057c:	00000013          	addi	x0,x0,0
    80000580:	00110ae7          	jalr	x21,1(x2)
    80000584:	00000013          	addi	x0,x0,0
    80000588:	00000013          	addi	x0,x0,0
    8000058c:	002aca93          	xori	x21,x21,2
    80000590:	00c0006f          	jal	x0,0x8000059c
    80000594:	003aca93          	xori	x21,x21,3
    80000598:	0040006f          	jal	x0,0x8000059c
    8000059c:	00000013          	addi	x0,x0,0
    800005a0:	00000417          	auipc	x8,0x0
    800005a4:	fac40413          	addi	x8,x8,-84 # 0x8000054c
    800005a8:	00000013          	addi	x0,x0,0
    800005ac:	00000013          	addi	x0,x0,0
    800005b0:	00000013          	addi	x0,x0,0
    800005b4:	00000013          	addi	x0,x0,0
    800005b8:	00000013          	addi	x0,x0,0
    800005bc:	00000013          	addi	x0,x0,0
    800005c0:	ffc47413          	andi	x8,x8,-4
    800005c4:	408a8ab3          	sub	x21,x21,x8
    800005c8:	01523823          	sd	x21,16(x4) # 0x10
    800005cc:	00000b97          	auipc	x23,0x0
    800005d0:	00000013          	addi	x0,x0,0
    800005d4:	00000013          	addi	x0,x0,0
    800005d8:	00000013          	addi	x0,x0,0
    800005dc:	00000013          	addi	x0,x0,0
    800005e0:	00000f17          	auipc	x30,0x0
    800005e4:	032f0f13          	addi	x30,x30,50 # 0x80000612
    800005e8:	00000013          	addi	x0,x0,0
    800005ec:	00000013          	addi	x0,x0,0
    800005f0:	00000013          	addi	x0,x0,0
    800005f4:	00000013          	addi	x0,x0,0
    800005f8:	00000013          	addi	x0,x0,0
    800005fc:	00000013          	addi	x0,x0,0
    80000600:	002f0be7          	jalr	x23,2(x30)
    80000604:	00000013          	addi	x0,x0,0
    80000608:	00000013          	addi	x0,x0,0
    8000060c:	002bcb93          	xori	x23,x23,2
    80000610:	00c0006f          	jal	x0,0x8000061c
    80000614:	003bcb93          	xori	x23,x23,3
    80000618:	0040006f          	jal	x0,0x8000061c
    8000061c:	00000013          	addi	x0,x0,0
    80000620:	00000417          	auipc	x8,0x0
    80000624:	fac40413          	addi	x8,x8,-84 # 0x800005cc
    80000628:	00000013          	addi	x0,x0,0
    8000062c:	00000013          	addi	x0,x0,0
    80000630:	00000013          	addi	x0,x0,0
    80000634:	00000013          	addi	x0,x0,0
    80000638:	00000013          	addi	x0,x0,0
    8000063c:	00000013          	addi	x0,x0,0
    80000640:	ffc47413          	andi	x8,x8,-4
    80000644:	408b8bb3          	sub	x23,x23,x8
    80000648:	01723c23          	sd	x23,24(x4) # 0x18
    8000064c:	00000497          	auipc	x9,0x0
    80000650:	00000013          	addi	x0,x0,0
    80000654:	00000013          	addi	x0,x0,0
    80000658:	00000013          	addi	x0,x0,0
    8000065c:	00000013          	addi	x0,x0,0
    80000660:	00000397          	auipc	x7,0x0
    80000664:	03038393          	addi	x7,x7,48 # 0x80000690
    80000668:	00000013          	addi	x0,x0,0
    8000066c:	00000013          	addi	x0,x0,0
    80000670:	00000013          	addi	x0,x0,0
    80000674:	00000013          	addi	x0,x0,0
    80000678:	00000013          	addi	x0,x0,0
    8000067c:	00000013          	addi	x0,x0,0
    80000680:	004384e7          	jalr	x9,4(x7)
    80000684:	00000013          	addi	x0,x0,0
    80000688:	00000013          	addi	x0,x0,0
    8000068c:	0024c493          	xori	x9,x9,2
    80000690:	00c0006f          	jal	x0,0x8000069c
    80000694:	0034c493          	xori	x9,x9,3
    80000698:	0040006f          	jal	x0,0x8000069c
    8000069c:	00000013          	addi	x0,x0,0
    800006a0:	00000417          	auipc	x8,0x0
    800006a4:	fac40413          	addi	x8,x8,-84 # 0x8000064c
    800006a8:	00000013          	addi	x0,x0,0
    800006ac:	00000013          	addi	x0,x0,0
    800006b0:	00000013          	addi	x0,x0,0
    800006b4:	00000013          	addi	x0,x0,0
    800006b8:	00000013          	addi	x0,x0,0
    800006bc:	00000013          	addi	x0,x0,0
    800006c0:	ffc47413          	andi	x8,x8,-4
    800006c4:	408484b3          	sub	x9,x9,x8
    800006c8:	02923023          	sd	x9,32(x4) # 0x20
    800006cc:	00000c17          	auipc	x24,0x0
    800006d0:	00000013          	addi	x0,x0,0
    800006d4:	00000013          	addi	x0,x0,0
    800006d8:	00000013          	addi	x0,x0,0
    800006dc:	00000013          	addi	x0,x0,0
    800006e0:	00000717          	auipc	x14,0x0
    800006e4:	02c70713          	addi	x14,x14,44 # 0x8000070c
    800006e8:	00000013          	addi	x0,x0,0
    800006ec:	00000013          	addi	x0,x0,0
    800006f0:	00000013          	addi	x0,x0,0
    800006f4:	00000013          	addi	x0,x0,0
    800006f8:	00000013          	addi	x0,x0,0
    800006fc:	00000013          	addi	x0,x0,0
    80000700:	00870c67          	jalr	x24,8(x14)
    80000704:	00000013          	addi	x0,x0,0
    80000708:	00000013          	addi	x0,x0,0
    8000070c:	002c4c13          	xori	x24,x24,2
    80000710:	00c0006f          	jal	x0,0x8000071c
    80000714:	003c4c13          	xori	x24,x24,3
    80000718:	0040006f          	jal	x0,0x8000071c
    8000071c:	00000013          	addi	x0,x0,0
    80000720:	00000417          	auipc	x8,0x0
    80000724:	fac40413          	addi	x8,x8,-84 # 0x800006cc
    80000728:	00000013          	addi	x0,x0,0
    8000072c:	00000013          	addi	x0,x0,0
    80000730:	00000013          	addi	x0,x0,0
    80000734:	00000013          	addi	x0,x0,0
    80000738:	00000013          	addi	x0,x0,0
    8000073c:	00000013          	addi	x0,x0,0
    80000740:	ffc47413          	andi	x8,x8,-4
    80000744:	408c0c33          	sub	x24,x24,x8
    80000748:	03823423          	sd	x24,40(x4) # 0x28
    8000074c:	00000197          	auipc	x3,0x0
    80000750:	00000013          	addi	x0,x0,0
    80000754:	00000013          	addi	x0,x0,0
    80000758:	00000013          	addi	x0,x0,0
    8000075c:	00000013          	addi	x0,x0,0
    80000760:	00000797          	auipc	x15,0x0
    80000764:	02478793          	addi	x15,x15,36 # 0x80000784
    80000768:	00000013          	addi	x0,x0,0
    8000076c:	00000013          	addi	x0,x0,0
    80000770:	00000013          	addi	x0,x0,0
    80000774:	00000013          	addi	x0,x0,0
    80000778:	00000013          	addi	x0,x0,0
    8000077c:	00000013          	addi	x0,x0,0
    80000780:	010781e7          	jalr	x3,16(x15)
    80000784:	00000013          	addi	x0,x0,0
    80000788:	00000013          	addi	x0,x0,0
    8000078c:	0021c193          	xori	x3,x3,2
    80000790:	00c0006f          	jal	x0,0x8000079c
    80000794:	0031c193          	xori	x3,x3,3
    80000798:	0040006f          	jal	x0,0x8000079c
    8000079c:	00000013          	addi	x0,x0,0
    800007a0:	00000417          	auipc	x8,0x0
    800007a4:	fac40413          	addi	x8,x8,-84 # 0x8000074c
    800007a8:	00000013          	addi	x0,x0,0
    800007ac:	00000013          	addi	x0,x0,0
    800007b0:	00000013          	addi	x0,x0,0
    800007b4:	00000013          	addi	x0,x0,0
    800007b8:	00000013          	addi	x0,x0,0
    800007bc:	00000013          	addi	x0,x0,0
    800007c0:	ffc47413          	andi	x8,x8,-4
    800007c4:	408181b3          	sub	x3,x3,x8
    800007c8:	02323823          	sd	x3,48(x4) # 0x30
    800007cc:	00000f17          	auipc	x30,0x0
    800007d0:	00000013          	addi	x0,x0,0
    800007d4:	00000013          	addi	x0,x0,0
    800007d8:	00000013          	addi	x0,x0,0
    800007dc:	00000013          	addi	x0,x0,0
    800007e0:	00000597          	auipc	x11,0x0
    800007e4:	01458593          	addi	x11,x11,20 # 0x800007f4
    800007e8:	00000013          	addi	x0,x0,0
    800007ec:	00000013          	addi	x0,x0,0
    800007f0:	00000013          	addi	x0,x0,0
    800007f4:	00000013          	addi	x0,x0,0
    800007f8:	00000013          	addi	x0,x0,0
    800007fc:	00000013          	addi	x0,x0,0
    80000800:	02058f67          	jalr	x30,32(x11)
    80000804:	00000013          	addi	x0,x0,0
    80000808:	00000013          	addi	x0,x0,0
    8000080c:	002f4f13          	xori	x30,x30,2
    80000810:	00c0006f          	jal	x0,0x8000081c
    80000814:	003f4f13          	xori	x30,x30,3
    80000818:	0040006f          	jal	x0,0x8000081c
    8000081c:	00000013          	addi	x0,x0,0
    80000820:	00000417          	auipc	x8,0x0
    80000824:	fac40413          	addi	x8,x8,-84 # 0x800007cc
    80000828:	00000013          	addi	x0,x0,0
    8000082c:	00000013          	addi	x0,x0,0
    80000830:	00000013          	addi	x0,x0,0
    80000834:	00000013          	addi	x0,x0,0
    80000838:	00000013          	addi	x0,x0,0
    8000083c:	00000013          	addi	x0,x0,0
    80000840:	ffc47413          	andi	x8,x8,-4
    80000844:	408f0f33          	sub	x30,x30,x8
    80000848:	03e23c23          	sd	x30,56(x4) # 0x38
    8000084c:	00000f97          	auipc	x31,0x0
    80000850:	00000013          	addi	x0,x0,0
    80000854:	00000013          	addi	x0,x0,0
    80000858:	00000013          	addi	x0,x0,0
    8000085c:	00000013          	addi	x0,x0,0
    80000860:	00000e97          	auipc	x29,0x0
    80000864:	ff4e8e93          	addi	x29,x29,-12 # 0x80000854
    80000868:	00000013          	addi	x0,x0,0
    8000086c:	00000013          	addi	x0,x0,0
    80000870:	00000013          	addi	x0,x0,0
    80000874:	00000013          	addi	x0,x0,0
    80000878:	00000013          	addi	x0,x0,0
    8000087c:	00000013          	addi	x0,x0,0
    80000880:	040e8fe7          	jalr	x31,64(x29)
    80000884:	00000013          	addi	x0,x0,0
    80000888:	00000013          	addi	x0,x0,0
    8000088c:	002fcf93          	xori	x31,x31,2
    80000890:	00c0006f          	jal	x0,0x8000089c
    80000894:	003fcf93          	xori	x31,x31,3
    80000898:	0040006f          	jal	x0,0x8000089c
    8000089c:	00000013          	addi	x0,x0,0
    800008a0:	00000417          	auipc	x8,0x0
    800008a4:	fac40413          	addi	x8,x8,-84 # 0x8000084c
    800008a8:	00000013          	addi	x0,x0,0
    800008ac:	00000013          	addi	x0,x0,0
    800008b0:	00000013          	addi	x0,x0,0
    800008b4:	00000013          	addi	x0,x0,0
    800008b8:	00000013          	addi	x0,x0,0
    800008bc:	00000013          	addi	x0,x0,0
    800008c0:	ffc47413          	andi	x8,x8,-4
    800008c4:	408f8fb3          	sub	x31,x31,x8
    800008c8:	05f23023          	sd	x31,64(x4) # 0x40
    800008cc:	00000817          	auipc	x16,0x0
    800008d0:	00000013          	addi	x0,x0,0
    800008d4:	00000013          	addi	x0,x0,0
    800008d8:	00000013          	addi	x0,x0,0
    800008dc:	00000013          	addi	x0,x0,0
    800008e0:	00000297          	auipc	x5,0x0
    800008e4:	fb428293          	addi	x5,x5,-76 # 0x80000894
    800008e8:	00000013          	addi	x0,x0,0
    800008ec:	00000013          	addi	x0,x0,0
    800008f0:	00000013          	addi	x0,x0,0
    800008f4:	00000013          	addi	x0,x0,0
    800008f8:	00000013          	addi	x0,x0,0
    800008fc:	00000013          	addi	x0,x0,0
    80000900:	08028867          	jalr	x16,128(x5)
    80000904:	00000013          	addi	x0,x0,0
    80000908:	00000013          	addi	x0,x0,0
    8000090c:	00284813          	xori	x16,x16,2
    80000910:	00c0006f          	jal	x0,0x8000091c
    80000914:	00384813          	xori	x16,x16,3
    80000918:	0040006f          	jal	x0,0x8000091c
    8000091c:	00000013          	addi	x0,x0,0
    80000920:	00000417          	auipc	x8,0x0
    80000924:	fac40413          	addi	x8,x8,-84 # 0x800008cc
    80000928:	00000013          	addi	x0,x0,0
    8000092c:	00000013          	addi	x0,x0,0
    80000930:	00000013          	addi	x0,x0,0
    80000934:	00000013          	addi	x0,x0,0
    80000938:	00000013          	addi	x0,x0,0
    8000093c:	00000013          	addi	x0,x0,0
    80000940:	ffc47413          	andi	x8,x8,-4
    80000944:	40880833          	sub	x16,x16,x8
    80000948:	05023423          	sd	x16,72(x4) # 0x48
    8000094c:	00000e97          	auipc	x29,0x0
    80000950:	00000013          	addi	x0,x0,0
    80000954:	00000013          	addi	x0,x0,0
    80000958:	00000013          	addi	x0,x0,0
    8000095c:	00000013          	addi	x0,x0,0
    80000960:	00000e17          	auipc	x28,0x0
    80000964:	f34e0e13          	addi	x28,x28,-204 # 0x80000894
    80000968:	00000013          	addi	x0,x0,0
    8000096c:	00000013          	addi	x0,x0,0
    80000970:	00000013          	addi	x0,x0,0
    80000974:	00000013          	addi	x0,x0,0
    80000978:	00000013          	addi	x0,x0,0
    8000097c:	00000013          	addi	x0,x0,0
    80000980:	100e0ee7          	jalr	x29,256(x28)
    80000984:	00000013          	addi	x0,x0,0
    80000988:	00000013          	addi	x0,x0,0
    8000098c:	002ece93          	xori	x29,x29,2
    80000990:	00c0006f          	jal	x0,0x8000099c
    80000994:	003ece93          	xori	x29,x29,3
    80000998:	0040006f          	jal	x0,0x8000099c
    8000099c:	00000013          	addi	x0,x0,0
    800009a0:	00000417          	auipc	x8,0x0
    800009a4:	fac40413          	addi	x8,x8,-84 # 0x8000094c
    800009a8:	00000013          	addi	x0,x0,0
    800009ac:	00000013          	addi	x0,x0,0
    800009b0:	00000013          	addi	x0,x0,0
    800009b4:	00000013          	addi	x0,x0,0
    800009b8:	00000013          	addi	x0,x0,0
    800009bc:	00000013          	addi	x0,x0,0
    800009c0:	ffc47413          	andi	x8,x8,-4
    800009c4:	408e8eb3          	sub	x29,x29,x8
    800009c8:	05d23823          	sd	x29,80(x4) # 0x50
    800009cc:	00000a17          	auipc	x20,0x0
    800009d0:	00000013          	addi	x0,x0,0
    800009d4:	00000013          	addi	x0,x0,0
    800009d8:	00000013          	addi	x0,x0,0
    800009dc:	00000013          	addi	x0,x0,0
    800009e0:	00000617          	auipc	x12,0x0
    800009e4:	e3460613          	addi	x12,x12,-460 # 0x80000814
    800009e8:	00000013          	addi	x0,x0,0
    800009ec:	00000013          	addi	x0,x0,0
    800009f0:	00000013          	addi	x0,x0,0
    800009f4:	00000013          	addi	x0,x0,0
    800009f8:	00000013          	addi	x0,x0,0
    800009fc:	00000013          	addi	x0,x0,0
    80000a00:	20060a67          	jalr	x20,512(x12)
    80000a04:	00000013          	addi	x0,x0,0
    80000a08:	00000013          	addi	x0,x0,0
    80000a0c:	002a4a13          	xori	x20,x20,2
    80000a10:	00c0006f          	jal	x0,0x80000a1c
    80000a14:	003a4a13          	xori	x20,x20,3
    80000a18:	0040006f          	jal	x0,0x80000a1c
    80000a1c:	00000013          	addi	x0,x0,0
    80000a20:	00000417          	auipc	x8,0x0
    80000a24:	fac40413          	addi	x8,x8,-84 # 0x800009cc
    80000a28:	00000013          	addi	x0,x0,0
    80000a2c:	00000013          	addi	x0,x0,0
    80000a30:	00000013          	addi	x0,x0,0
    80000a34:	00000013          	addi	x0,x0,0
    80000a38:	00000013          	addi	x0,x0,0
    80000a3c:	00000013          	addi	x0,x0,0
    80000a40:	ffc47413          	andi	x8,x8,-4
    80000a44:	408a0a33          	sub	x20,x20,x8
    80000a48:	05423c23          	sd	x20,88(x4) # 0x58
    80000a4c:	00000b17          	auipc	x22,0x0
    80000a50:	00000013          	addi	x0,x0,0
    80000a54:	00000013          	addi	x0,x0,0
    80000a58:	00000013          	addi	x0,x0,0
    80000a5c:	00000013          	addi	x0,x0,0
    80000a60:	00000497          	auipc	x9,0x0
    80000a64:	c3448493          	addi	x9,x9,-972 # 0x80000694
    80000a68:	00000013          	addi	x0,x0,0
    80000a6c:	00000013          	addi	x0,x0,0
    80000a70:	00000013          	addi	x0,x0,0
    80000a74:	00000013          	addi	x0,x0,0
    80000a78:	00000013          	addi	x0,x0,0
    80000a7c:	00000013          	addi	x0,x0,0
    80000a80:	40048b67          	jalr	x22,1024(x9)
    80000a84:	00000013          	addi	x0,x0,0
    80000a88:	00000013          	addi	x0,x0,0
    80000a8c:	002b4b13          	xori	x22,x22,2
    80000a90:	00c0006f          	jal	x0,0x80000a9c
    80000a94:	003b4b13          	xori	x22,x22,3
    80000a98:	0040006f          	jal	x0,0x80000a9c
    80000a9c:	00000013          	addi	x0,x0,0
    80000aa0:	00000417          	auipc	x8,0x0
    80000aa4:	fac40413          	addi	x8,x8,-84 # 0x80000a4c
    80000aa8:	00000013          	addi	x0,x0,0
    80000aac:	00000013          	addi	x0,x0,0
    80000ab0:	00000013          	addi	x0,x0,0
    80000ab4:	00000013          	addi	x0,x0,0
    80000ab8:	00000013          	addi	x0,x0,0
    80000abc:	00000013          	addi	x0,x0,0
    80000ac0:	ffc47413          	andi	x8,x8,-4
    80000ac4:	408b0b33          	sub	x22,x22,x8
    80000ac8:	07623023          	sd	x22,96(x4) # 0x60
    80000acc:	00000317          	auipc	x6,0x0
    80000ad0:	00000013          	addi	x0,x0,0
    80000ad4:	00000013          	addi	x0,x0,0
    80000ad8:	00000013          	addi	x0,x0,0
    80000adc:	00000013          	addi	x0,x0,0
    80000ae0:	00001697          	auipc	x13,0x1
    80000ae4:	83468693          	addi	x13,x13,-1996 # 0x80001314
    80000ae8:	00000013          	addi	x0,x0,0
    80000aec:	00000013          	addi	x0,x0,0
    80000af0:	00000013          	addi	x0,x0,0
    80000af4:	00000013          	addi	x0,x0,0
    80000af8:	00000013          	addi	x0,x0,0
    80000afc:	00000013          	addi	x0,x0,0
    80000b00:	80068367          	jalr	x6,-2048(x13)
    80000b04:	00000013          	addi	x0,x0,0
    80000b08:	00000013          	addi	x0,x0,0
    80000b0c:	00234313          	xori	x6,x6,2
    80000b10:	00c0006f          	jal	x0,0x80000b1c
    80000b14:	00334313          	xori	x6,x6,3
    80000b18:	0040006f          	jal	x0,0x80000b1c
    80000b1c:	00000013          	addi	x0,x0,0
    80000b20:	00000417          	auipc	x8,0x0
    80000b24:	fac40413          	addi	x8,x8,-84 # 0x80000acc
    80000b28:	00000013          	addi	x0,x0,0
    80000b2c:	00000013          	addi	x0,x0,0
    80000b30:	00000013          	addi	x0,x0,0
    80000b34:	00000013          	addi	x0,x0,0
    80000b38:	00000013          	addi	x0,x0,0
    80000b3c:	00000013          	addi	x0,x0,0
    80000b40:	ffc47413          	andi	x8,x8,-4
    80000b44:	40830333          	sub	x6,x6,x8
    80000b48:	06623423          	sd	x6,104(x4) # 0x68
    80000b4c:	00000997          	auipc	x19,0x0
    80000b50:	00000013          	addi	x0,x0,0
    80000b54:	00000013          	addi	x0,x0,0
    80000b58:	00000013          	addi	x0,x0,0
    80000b5c:	00000013          	addi	x0,x0,0
    80000b60:	00000d97          	auipc	x27,0x0
    80000b64:	036d8d93          	addi	x27,x27,54 # 0x80000b96
    80000b68:	00000013          	addi	x0,x0,0
    80000b6c:	00000013          	addi	x0,x0,0
    80000b70:	00000013          	addi	x0,x0,0
    80000b74:	00000013          	addi	x0,x0,0
    80000b78:	00000013          	addi	x0,x0,0
    80000b7c:	00000013          	addi	x0,x0,0
    80000b80:	ffed89e7          	jalr	x19,-2(x27)
    80000b84:	00000013          	addi	x0,x0,0
    80000b88:	00000013          	addi	x0,x0,0
    80000b8c:	0029c993          	xori	x19,x19,2
    80000b90:	00c0006f          	jal	x0,0x80000b9c
    80000b94:	0039c993          	xori	x19,x19,3
    80000b98:	0040006f          	jal	x0,0x80000b9c
    80000b9c:	00000013          	addi	x0,x0,0
    80000ba0:	00000417          	auipc	x8,0x0
    80000ba4:	fac40413          	addi	x8,x8,-84 # 0x80000b4c
    80000ba8:	00000013          	addi	x0,x0,0
    80000bac:	00000013          	addi	x0,x0,0
    80000bb0:	00000013          	addi	x0,x0,0
    80000bb4:	00000013          	addi	x0,x0,0
    80000bb8:	00000013          	addi	x0,x0,0
    80000bbc:	00000013          	addi	x0,x0,0
    80000bc0:	ffc47413          	andi	x8,x8,-4
    80000bc4:	408989b3          	sub	x19,x19,x8
    80000bc8:	07323823          	sd	x19,112(x4) # 0x70
    80000bcc:	00000897          	auipc	x17,0x0
    80000bd0:	00000013          	addi	x0,x0,0
    80000bd4:	00000013          	addi	x0,x0,0
    80000bd8:	00000013          	addi	x0,x0,0
    80000bdc:	00000013          	addi	x0,x0,0
    80000be0:	00000317          	auipc	x6,0x0
    80000be4:	03730313          	addi	x6,x6,55 # 0x80000c17
    80000be8:	00000013          	addi	x0,x0,0
    80000bec:	00000013          	addi	x0,x0,0
    80000bf0:	00000013          	addi	x0,x0,0
    80000bf4:	00000013          	addi	x0,x0,0
    80000bf8:	00000013          	addi	x0,x0,0
    80000bfc:	00000013          	addi	x0,x0,0
    80000c00:	ffd308e7          	jalr	x17,-3(x6)
    80000c04:	00000013          	addi	x0,x0,0
    80000c08:	00000013          	addi	x0,x0,0
    80000c0c:	0028c893          	xori	x17,x17,2
    80000c10:	00c0006f          	jal	x0,0x80000c1c
    80000c14:	0038c893          	xori	x17,x17,3
    80000c18:	0040006f          	jal	x0,0x80000c1c
    80000c1c:	00000013          	addi	x0,x0,0
    80000c20:	00000417          	auipc	x8,0x0
    80000c24:	fac40413          	addi	x8,x8,-84 # 0x80000bcc
    80000c28:	00000013          	addi	x0,x0,0
    80000c2c:	00000013          	addi	x0,x0,0
    80000c30:	00000013          	addi	x0,x0,0
    80000c34:	00000013          	addi	x0,x0,0
    80000c38:	00000013          	addi	x0,x0,0
    80000c3c:	00000013          	addi	x0,x0,0
    80000c40:	ffc47413          	andi	x8,x8,-4
    80000c44:	408888b3          	sub	x17,x17,x8
    80000c48:	07123c23          	sd	x17,120(x4) # 0x78
    80000c4c:	00000d17          	auipc	x26,0x0
    80000c50:	00000013          	addi	x0,x0,0
    80000c54:	00000013          	addi	x0,x0,0
    80000c58:	00000013          	addi	x0,x0,0
    80000c5c:	00000013          	addi	x0,x0,0
    80000c60:	00000097          	auipc	x1,0x0
    80000c64:	03908093          	addi	x1,x1,57 # 0x80000c99
    80000c68:	00000013          	addi	x0,x0,0
    80000c6c:	00000013          	addi	x0,x0,0
    80000c70:	00000013          	addi	x0,x0,0
    80000c74:	00000013          	addi	x0,x0,0
    80000c78:	00000013          	addi	x0,x0,0
    80000c7c:	00000013          	addi	x0,x0,0
    80000c80:	ffb08d67          	jalr	x26,-5(x1)
    80000c84:	00000013          	addi	x0,x0,0
    80000c88:	00000013          	addi	x0,x0,0
    80000c8c:	002d4d13          	xori	x26,x26,2
    80000c90:	00c0006f          	jal	x0,0x80000c9c
    80000c94:	003d4d13          	xori	x26,x26,3
    80000c98:	0040006f          	jal	x0,0x80000c9c
    80000c9c:	00000013          	addi	x0,x0,0
    80000ca0:	00000417          	auipc	x8,0x0
    80000ca4:	fac40413          	addi	x8,x8,-84 # 0x80000c4c
    80000ca8:	00000013          	addi	x0,x0,0
    80000cac:	00000013          	addi	x0,x0,0
    80000cb0:	00000013          	addi	x0,x0,0
    80000cb4:	00000013          	addi	x0,x0,0
    80000cb8:	00000013          	addi	x0,x0,0
    80000cbc:	00000013          	addi	x0,x0,0
    80000cc0:	ffc47413          	andi	x8,x8,-4
    80000cc4:	408d0d33          	sub	x26,x26,x8
    80000cc8:	09a23023          	sd	x26,128(x4) # 0x80
    80000ccc:	00000417          	auipc	x8,0x0
    80000cd0:	00000013          	addi	x0,x0,0
    80000cd4:	00000013          	addi	x0,x0,0
    80000cd8:	00000013          	addi	x0,x0,0
    80000cdc:	00000013          	addi	x0,x0,0
    80000ce0:	00000517          	auipc	x10,0x0
    80000ce4:	03d50513          	addi	x10,x10,61 # 0x80000d1d
    80000ce8:	00000013          	addi	x0,x0,0
    80000cec:	00000013          	addi	x0,x0,0
    80000cf0:	00000013          	addi	x0,x0,0
    80000cf4:	00000013          	addi	x0,x0,0
    80000cf8:	00000013          	addi	x0,x0,0
    80000cfc:	00000013          	addi	x0,x0,0
    80000d00:	ff750467          	jalr	x8,-9(x10)
    80000d04:	00000013          	addi	x0,x0,0
    80000d08:	00000013          	addi	x0,x0,0
    80000d0c:	00244413          	xori	x8,x8,2
    80000d10:	00c0006f          	jal	x0,0x80000d1c
    80000d14:	00344413          	xori	x8,x8,3
    80000d18:	0040006f          	jal	x0,0x80000d1c
    80000d1c:	00000013          	addi	x0,x0,0
    80000d20:	00000397          	auipc	x7,0x0
    80000d24:	fac38393          	addi	x7,x7,-84 # 0x80000ccc
    80000d28:	00000013          	addi	x0,x0,0
    80000d2c:	00000013          	addi	x0,x0,0
    80000d30:	00000013          	addi	x0,x0,0
    80000d34:	00000013          	addi	x0,x0,0
    80000d38:	00000013          	addi	x0,x0,0
    80000d3c:	00000013          	addi	x0,x0,0
    80000d40:	ffc3f393          	andi	x7,x7,-4
    80000d44:	40740433          	sub	x8,x8,x7
    80000d48:	08823423          	sd	x8,136(x4) # 0x88
    80000d4c:	00000013          	addi	x0,x0,0
    80000d50:	00000013          	addi	x0,x0,0
    80000d54:	00000013          	addi	x0,x0,0
    80000d58:	00000013          	addi	x0,x0,0
    80000d5c:	00000013          	addi	x0,x0,0
    80000d60:	00002317          	auipc	x6,0x2
    80000d64:	33830313          	addi	x6,x6,824 # 0x80003098
    80000d68:	00000013          	addi	x0,x0,0
    80000d6c:	00000013          	addi	x0,x0,0
    80000d70:	00000013          	addi	x0,x0,0
    80000d74:	00000013          	addi	x0,x0,0
    80000d78:	00000013          	addi	x0,x0,0
    80000d7c:	00000013          	addi	x0,x0,0
    80000d80:	00000697          	auipc	x13,0x0
    80000d84:	00000013          	addi	x0,x0,0
    80000d88:	00000013          	addi	x0,x0,0
    80000d8c:	00000013          	addi	x0,x0,0
    80000d90:	00000013          	addi	x0,x0,0
    80000d94:	00000013          	addi	x0,x0,0
    80000d98:	00000013          	addi	x0,x0,0
    80000d9c:	00000013          	addi	x0,x0,0
    80000da0:	00000b97          	auipc	x23,0x0
    80000da4:	045b8b93          	addi	x23,x23,69 # 0x80000de5
    80000da8:	00000013          	addi	x0,x0,0
    80000dac:	00000013          	addi	x0,x0,0
    80000db0:	00000013          	addi	x0,x0,0
    80000db4:	00000013          	addi	x0,x0,0
    80000db8:	00000013          	addi	x0,x0,0
    80000dbc:	00000013          	addi	x0,x0,0
    80000dc0:	fefb86e7          	jalr	x13,-17(x23)
    80000dc4:	00000013          	addi	x0,x0,0
    80000dc8:	00000013          	addi	x0,x0,0
    80000dcc:	0026c693          	xori	x13,x13,2
    80000dd0:	00c0006f          	jal	x0,0x80000ddc
    80000dd4:	0036c693          	xori	x13,x13,3
    80000dd8:	0040006f          	jal	x0,0x80000ddc
    80000ddc:	00000013          	addi	x0,x0,0
    80000de0:	00000397          	auipc	x7,0x0
    80000de4:	fa038393          	addi	x7,x7,-96 # 0x80000d80
    80000de8:	00000013          	addi	x0,x0,0
    80000dec:	00000013          	addi	x0,x0,0
    80000df0:	00000013          	addi	x0,x0,0
    80000df4:	00000013          	addi	x0,x0,0
    80000df8:	00000013          	addi	x0,x0,0
    80000dfc:	00000013          	addi	x0,x0,0
    80000e00:	ffc3f393          	andi	x7,x7,-4
    80000e04:	407686b3          	sub	x13,x13,x7
    80000e08:	00d33023          	sd	x13,0(x6)
    80000e0c:	00000797          	auipc	x15,0x0
    80000e10:	00000013          	addi	x0,x0,0
    80000e14:	00000013          	addi	x0,x0,0
    80000e18:	00000013          	addi	x0,x0,0
    80000e1c:	00000013          	addi	x0,x0,0
    80000e20:	00000b17          	auipc	x22,0x0
    80000e24:	055b0b13          	addi	x22,x22,85 # 0x80000e75
    80000e28:	00000013          	addi	x0,x0,0
    80000e2c:	00000013          	addi	x0,x0,0
    80000e30:	00000013          	addi	x0,x0,0
    80000e34:	00000013          	addi	x0,x0,0
    80000e38:	00000013          	addi	x0,x0,0
    80000e3c:	00000013          	addi	x0,x0,0
    80000e40:	fdfb07e7          	jalr	x15,-33(x22)
    80000e44:	00000013          	addi	x0,x0,0
    80000e48:	00000013          	addi	x0,x0,0
    80000e4c:	0027c793          	xori	x15,x15,2
    80000e50:	00c0006f          	jal	x0,0x80000e5c
    80000e54:	0037c793          	xori	x15,x15,3
    80000e58:	0040006f          	jal	x0,0x80000e5c
    80000e5c:	00000013          	addi	x0,x0,0
    80000e60:	00000397          	auipc	x7,0x0
    80000e64:	fac38393          	addi	x7,x7,-84 # 0x80000e0c
    80000e68:	00000013          	addi	x0,x0,0
    80000e6c:	00000013          	addi	x0,x0,0
    80000e70:	00000013          	addi	x0,x0,0
    80000e74:	00000013          	addi	x0,x0,0
    80000e78:	00000013          	addi	x0,x0,0
    80000e7c:	00000013          	addi	x0,x0,0
    80000e80:	ffc3f393          	andi	x7,x7,-4
    80000e84:	407787b3          	sub	x15,x15,x7
    80000e88:	00f33423          	sd	x15,8(x6)
    80000e8c:	00000597          	auipc	x11,0x0
    80000e90:	00000013          	addi	x0,x0,0
    80000e94:	00000013          	addi	x0,x0,0
    80000e98:	00000013          	addi	x0,x0,0
    80000e9c:	00000013          	addi	x0,x0,0
    80000ea0:	00000197          	auipc	x3,0x0
    80000ea4:	07518193          	addi	x3,x3,117 # 0x80000f15
    80000ea8:	00000013          	addi	x0,x0,0
    80000eac:	00000013          	addi	x0,x0,0
    80000eb0:	00000013          	addi	x0,x0,0
    80000eb4:	00000013          	addi	x0,x0,0
    80000eb8:	00000013          	addi	x0,x0,0
    80000ebc:	00000013          	addi	x0,x0,0
    80000ec0:	fbf185e7          	jalr	x11,-65(x3)
    80000ec4:	00000013          	addi	x0,x0,0
    80000ec8:	00000013          	addi	x0,x0,0
    80000ecc:	0025c593          	xori	x11,x11,2
    80000ed0:	00c0006f          	jal	x0,0x80000edc
    80000ed4:	0035c593          	xori	x11,x11,3
    80000ed8:	0040006f          	jal	x0,0x80000edc
    80000edc:	00000013          	addi	x0,x0,0
    80000ee0:	00000397          	auipc	x7,0x0
    80000ee4:	fac38393          	addi	x7,x7,-84 # 0x80000e8c
    80000ee8:	00000013          	addi	x0,x0,0
    80000eec:	00000013          	addi	x0,x0,0
    80000ef0:	00000013          	addi	x0,x0,0
    80000ef4:	00000013          	addi	x0,x0,0
    80000ef8:	00000013          	addi	x0,x0,0
    80000efc:	00000013          	addi	x0,x0,0
    80000f00:	ffc3f393          	andi	x7,x7,-4
    80000f04:	407585b3          	sub	x11,x11,x7
    80000f08:	00b33823          	sd	x11,16(x6)
    80000f0c:	00000e17          	auipc	x28,0x0
    80000f10:	00000013          	addi	x0,x0,0
    80000f14:	00000013          	addi	x0,x0,0
    80000f18:	00000013          	addi	x0,x0,0
    80000f1c:	00000013          	addi	x0,x0,0
    80000f20:	00000f97          	auipc	x31,0x0
    80000f24:	0b5f8f93          	addi	x31,x31,181 # 0x80000fd5
    80000f28:	00000013          	addi	x0,x0,0
    80000f2c:	00000013          	addi	x0,x0,0
    80000f30:	00000013          	addi	x0,x0,0
    80000f34:	00000013          	addi	x0,x0,0
    80000f38:	00000013          	addi	x0,x0,0
    80000f3c:	00000013          	addi	x0,x0,0
    80000f40:	f7ff8e67          	jalr	x28,-129(x31)
    80000f44:	00000013          	addi	x0,x0,0
    80000f48:	00000013          	addi	x0,x0,0
    80000f4c:	002e4e13          	xori	x28,x28,2
    80000f50:	00c0006f          	jal	x0,0x80000f5c
    80000f54:	003e4e13          	xori	x28,x28,3
    80000f58:	0040006f          	jal	x0,0x80000f5c
    80000f5c:	00000013          	addi	x0,x0,0
    80000f60:	00000397          	auipc	x7,0x0
    80000f64:	fac38393          	addi	x7,x7,-84 # 0x80000f0c
    80000f68:	00000013          	addi	x0,x0,0
    80000f6c:	00000013          	addi	x0,x0,0
    80000f70:	00000013          	addi	x0,x0,0
    80000f74:	00000013          	addi	x0,x0,0
    80000f78:	00000013          	addi	x0,x0,0
    80000f7c:	00000013          	addi	x0,x0,0
    80000f80:	ffc3f393          	andi	x7,x7,-4
    80000f84:	407e0e33          	sub	x28,x28,x7
    80000f88:	01c33c23          	sd	x28,24(x6)
    80000f8c:	00000717          	auipc	x14,0x0
    80000f90:	00000013          	addi	x0,x0,0
    80000f94:	00000013          	addi	x0,x0,0
    80000f98:	00000013          	addi	x0,x0,0
    80000f9c:	00000013          	addi	x0,x0,0
    80000fa0:	00000c17          	auipc	x24,0x0
    80000fa4:	135c0c13          	addi	x24,x24,309 # 0x800010d5
    80000fa8:	00000013          	addi	x0,x0,0
    80000fac:	00000013          	addi	x0,x0,0
    80000fb0:	00000013          	addi	x0,x0,0
    80000fb4:	00000013          	addi	x0,x0,0
    80000fb8:	00000013          	addi	x0,x0,0
    80000fbc:	00000013          	addi	x0,x0,0
    80000fc0:	effc0767          	jalr	x14,-257(x24)
    80000fc4:	00000013          	addi	x0,x0,0
    80000fc8:	00000013          	addi	x0,x0,0
    80000fcc:	00274713          	xori	x14,x14,2
    80000fd0:	00c0006f          	jal	x0,0x80000fdc
    80000fd4:	00374713          	xori	x14,x14,3
    80000fd8:	0040006f          	jal	x0,0x80000fdc
    80000fdc:	00000013          	addi	x0,x0,0
    80000fe0:	00000397          	auipc	x7,0x0
    80000fe4:	fac38393          	addi	x7,x7,-84 # 0x80000f8c
    80000fe8:	00000013          	addi	x0,x0,0
    80000fec:	00000013          	addi	x0,x0,0
    80000ff0:	00000013          	addi	x0,x0,0
    80000ff4:	00000013          	addi	x0,x0,0
    80000ff8:	00000013          	addi	x0,x0,0
    80000ffc:	00000013          	addi	x0,x0,0
    80001000:	ffc3f393          	andi	x7,x7,-4
    80001004:	40770733          	sub	x14,x14,x7
    80001008:	02e33023          	sd	x14,32(x6)
    8000100c:	00000617          	auipc	x12,0x0
    80001010:	00000013          	addi	x0,x0,0
    80001014:	00000013          	addi	x0,x0,0
    80001018:	00000013          	addi	x0,x0,0
    8000101c:	00000013          	addi	x0,x0,0
    80001020:	00000a97          	auipc	x21,0x0
    80001024:	235a8a93          	addi	x21,x21,565 # 0x80001255
    80001028:	00000013          	addi	x0,x0,0
    8000102c:	00000013          	addi	x0,x0,0
    80001030:	00000013          	addi	x0,x0,0
    80001034:	00000013          	addi	x0,x0,0
    80001038:	00000013          	addi	x0,x0,0
    8000103c:	00000013          	addi	x0,x0,0
    80001040:	dffa8667          	jalr	x12,-513(x21)
    80001044:	00000013          	addi	x0,x0,0
    80001048:	00000013          	addi	x0,x0,0
    8000104c:	00264613          	xori	x12,x12,2
    80001050:	00c0006f          	jal	x0,0x8000105c
    80001054:	00364613          	xori	x12,x12,3
    80001058:	0040006f          	jal	x0,0x8000105c
    8000105c:	00000013          	addi	x0,x0,0
    80001060:	00000397          	auipc	x7,0x0
    80001064:	fac38393          	addi	x7,x7,-84 # 0x8000100c
    80001068:	00000013          	addi	x0,x0,0
    8000106c:	00000013          	addi	x0,x0,0
    80001070:	00000013          	addi	x0,x0,0
    80001074:	00000013          	addi	x0,x0,0
    80001078:	00000013          	addi	x0,x0,0
    8000107c:	00000013          	addi	x0,x0,0
    80001080:	ffc3f393          	andi	x7,x7,-4
    80001084:	40760633          	sub	x12,x12,x7
    80001088:	02c33423          	sd	x12,40(x6)
    8000108c:	00000017          	auipc	x0,0x0
    80001090:	00000013          	addi	x0,x0,0
    80001094:	00000013          	addi	x0,x0,0
    80001098:	00000013          	addi	x0,x0,0
    8000109c:	00000013          	addi	x0,x0,0
    800010a0:	00000217          	auipc	x4,0x0
    800010a4:	43520213          	addi	x4,x4,1077 # 0x800014d5
    800010a8:	00000013          	addi	x0,x0,0
    800010ac:	00000013          	addi	x0,x0,0
    800010b0:	00000013          	addi	x0,x0,0
    800010b4:	00000013          	addi	x0,x0,0
    800010b8:	00000013          	addi	x0,x0,0
    800010bc:	00000013          	addi	x0,x0,0
    800010c0:	bff20067          	jalr	x0,-1025(x4) # 0xfffffffffffffbff
    800010c4:	00000013          	addi	x0,x0,0
    800010c8:	00000013          	addi	x0,x0,0
    800010cc:	00204013          	xori	x0,x0,2
    800010d0:	00c0006f          	jal	x0,0x800010dc
    800010d4:	00304013          	xori	x0,x0,3
    800010d8:	0040006f          	jal	x0,0x800010dc
    800010dc:	00000013          	addi	x0,x0,0
    800010e0:	00000397          	auipc	x7,0x0
    800010e4:	fac38393          	addi	x7,x7,-84 # 0x8000108c
    800010e8:	00000013          	addi	x0,x0,0
    800010ec:	00000013          	addi	x0,x0,0
    800010f0:	00000013          	addi	x0,x0,0
    800010f4:	00000013          	addi	x0,x0,0
    800010f8:	00000013          	addi	x0,x0,0
    800010fc:	00000013          	addi	x0,x0,0
    80001100:	ffc3f393          	andi	x7,x7,-4
    80001104:	40700033          	sub	x0,x0,x7
    80001108:	02033823          	sd	x0,48(x6)
    8000110c:	00000217          	auipc	x4,0x0
    80001110:	00000013          	addi	x0,x0,0
    80001114:	00000013          	addi	x0,x0,0
    80001118:	00000013          	addi	x0,x0,0
    8000111c:	00000013          	addi	x0,x0,0
    80001120:	00000417          	auipc	x8,0x0
    80001124:	83540413          	addi	x8,x8,-1995 # 0x80000955
    80001128:	00000013          	addi	x0,x0,0
    8000112c:	00000013          	addi	x0,x0,0
    80001130:	00000013          	addi	x0,x0,0
    80001134:	00000013          	addi	x0,x0,0
    80001138:	00000013          	addi	x0,x0,0
    8000113c:	00000013          	addi	x0,x0,0
    80001140:	7ff40267          	jalr	x4,2047(x8)
    80001144:	00000013          	addi	x0,x0,0
    80001148:	00000013          	addi	x0,x0,0
    8000114c:	00224213          	xori	x4,x4,2
    80001150:	00c0006f          	jal	x0,0x8000115c
    80001154:	00324213          	xori	x4,x4,3
    80001158:	0040006f          	jal	x0,0x8000115c
    8000115c:	00000013          	addi	x0,x0,0
    80001160:	00000397          	auipc	x7,0x0
    80001164:	fac38393          	addi	x7,x7,-84 # 0x8000110c
    80001168:	00000013          	addi	x0,x0,0
    8000116c:	00000013          	addi	x0,x0,0
    80001170:	00000013          	addi	x0,x0,0
    80001174:	00000013          	addi	x0,x0,0
    80001178:	00000013          	addi	x0,x0,0
    8000117c:	00000013          	addi	x0,x0,0
    80001180:	ffc3f393          	andi	x7,x7,-4
    80001184:	40720233          	sub	x4,x4,x7
    80001188:	02433c23          	sd	x4,56(x6)
    8000118c:	00000917          	auipc	x18,0x0
    80001190:	00000013          	addi	x0,x0,0
    80001194:	00000013          	addi	x0,x0,0
    80001198:	00000013          	addi	x0,x0,0
    8000119c:	00000013          	addi	x0,x0,0
    800011a0:	00000a17          	auipc	x20,0x0
    800011a4:	adfa0a13          	addi	x20,x20,-1313 # 0x80000c7f
    800011a8:	00000013          	addi	x0,x0,0
    800011ac:	00000013          	addi	x0,x0,0
    800011b0:	00000013          	addi	x0,x0,0
    800011b4:	00000013          	addi	x0,x0,0
    800011b8:	00000013          	addi	x0,x0,0
    800011bc:	00000013          	addi	x0,x0,0
    800011c0:	555a0967          	jalr	x18,1365(x20)
    800011c4:	00000013          	addi	x0,x0,0
    800011c8:	00000013          	addi	x0,x0,0
    800011cc:	00294913          	xori	x18,x18,2
    800011d0:	00c0006f          	jal	x0,0x800011dc
    800011d4:	00394913          	xori	x18,x18,3
    800011d8:	0040006f          	jal	x0,0x800011dc
    800011dc:	00000013          	addi	x0,x0,0
    800011e0:	00000397          	auipc	x7,0x0
    800011e4:	fac38393          	addi	x7,x7,-84 # 0x8000118c
    800011e8:	00000013          	addi	x0,x0,0
    800011ec:	00000013          	addi	x0,x0,0
    800011f0:	00000013          	addi	x0,x0,0
    800011f4:	00000013          	addi	x0,x0,0
    800011f8:	00000013          	addi	x0,x0,0
    800011fc:	00000013          	addi	x0,x0,0
    80001200:	ffc3f393          	andi	x7,x7,-4
    80001204:	40790933          	sub	x18,x18,x7
    80001208:	05233023          	sd	x18,64(x6)
    8000120c:	00000117          	auipc	x2,0x0
    80001210:	00000013          	addi	x0,x0,0
    80001214:	00000013          	addi	x0,x0,0
    80001218:	00000013          	addi	x0,x0,0
    8000121c:	00000013          	addi	x0,x0,0
    80001220:	00000917          	auipc	x18,0x0
    80001224:	58a90913          	addi	x18,x18,1418 # 0x800017aa
    80001228:	00000013          	addi	x0,x0,0
    8000122c:	00000013          	addi	x0,x0,0
    80001230:	00000013          	addi	x0,x0,0
    80001234:	00000013          	addi	x0,x0,0
    80001238:	00000013          	addi	x0,x0,0
    8000123c:	00000013          	addi	x0,x0,0
    80001240:	aaa90167          	jalr	x2,-1366(x18)
    80001244:	00000013          	addi	x0,x0,0
    80001248:	00000013          	addi	x0,x0,0
    8000124c:	00214113          	xori	x2,x2,2
    80001250:	00c0006f          	jal	x0,0x8000125c
    80001254:	00314113          	xori	x2,x2,3
    80001258:	0040006f          	jal	x0,0x8000125c
    8000125c:	00000013          	addi	x0,x0,0
    80001260:	00000397          	auipc	x7,0x0
    80001264:	fac38393          	addi	x7,x7,-84 # 0x8000120c
    80001268:	00000013          	addi	x0,x0,0
    8000126c:	00000013          	addi	x0,x0,0
    80001270:	00000013          	addi	x0,x0,0
    80001274:	00000013          	addi	x0,x0,0
    80001278:	00000013          	addi	x0,x0,0
    8000127c:	00000013          	addi	x0,x0,0
    80001280:	ffc3f393          	andi	x7,x7,-4
    80001284:	40710133          	sub	x2,x2,x7
    80001288:	04233423          	sd	x2,72(x6)
    8000128c:	00000297          	auipc	x5,0x0
    80001290:	00000013          	addi	x0,x0,0
    80001294:	00000013          	addi	x0,x0,0
    80001298:	00000013          	addi	x0,x0,0
    8000129c:	00000013          	addi	x0,x0,0
    800012a0:	00001897          	auipc	x17,0x1
    800012a4:	83488893          	addi	x17,x17,-1996 # 0x80001ad4
    800012a8:	00000013          	addi	x0,x0,0
    800012ac:	00000013          	addi	x0,x0,0
    800012b0:	00000013          	addi	x0,x0,0
    800012b4:	00000013          	addi	x0,x0,0
    800012b8:	00000013          	addi	x0,x0,0
    800012bc:	00000013          	addi	x0,x0,0
    800012c0:	800882e7          	jalr	x5,-2048(x17)
    800012c4:	00000013          	addi	x0,x0,0
    800012c8:	00000013          	addi	x0,x0,0
    800012cc:	0022c293          	xori	x5,x5,2
    800012d0:	00c0006f          	jal	x0,0x800012dc
    800012d4:	0032c293          	xori	x5,x5,3
    800012d8:	0040006f          	jal	x0,0x800012dc
    800012dc:	00000013          	addi	x0,x0,0
    800012e0:	00000397          	auipc	x7,0x0
    800012e4:	fac38393          	addi	x7,x7,-84 # 0x8000128c
    800012e8:	00000013          	addi	x0,x0,0
    800012ec:	00000013          	addi	x0,x0,0
    800012f0:	00000013          	addi	x0,x0,0
    800012f4:	00000013          	addi	x0,x0,0
    800012f8:	00000013          	addi	x0,x0,0
    800012fc:	00000013          	addi	x0,x0,0
    80001300:	ffc3f393          	andi	x7,x7,-4
    80001304:	407282b3          	sub	x5,x5,x7
    80001308:	04533823          	sd	x5,80(x6)
    8000130c:	00000d97          	auipc	x27,0x0
    80001310:	00000013          	addi	x0,x0,0
    80001314:	00000013          	addi	x0,x0,0
    80001318:	00000013          	addi	x0,x0,0
    8000131c:	00000013          	addi	x0,x0,0
    80001320:	00001817          	auipc	x16,0x1
    80001324:	83480813          	addi	x16,x16,-1996 # 0x80001b54
    80001328:	00000013          	addi	x0,x0,0
    8000132c:	00000013          	addi	x0,x0,0
    80001330:	00000013          	addi	x0,x0,0
    80001334:	00000013          	addi	x0,x0,0
    80001338:	00000013          	addi	x0,x0,0
    8000133c:	00000013          	addi	x0,x0,0
    80001340:	80080de7          	jalr	x27,-2048(x16)
    80001344:	00000013          	addi	x0,x0,0
    80001348:	00000013          	addi	x0,x0,0
    8000134c:	002dcd93          	xori	x27,x27,2
    80001350:	00c0006f          	jal	x0,0x8000135c
    80001354:	003dcd93          	xori	x27,x27,3
    80001358:	0040006f          	jal	x0,0x8000135c
    8000135c:	00000013          	addi	x0,x0,0
    80001360:	00000397          	auipc	x7,0x0
    80001364:	fac38393          	addi	x7,x7,-84 # 0x8000130c
    80001368:	00000013          	addi	x0,x0,0
    8000136c:	00000013          	addi	x0,x0,0
    80001370:	00000013          	addi	x0,x0,0
    80001374:	00000013          	addi	x0,x0,0
    80001378:	00000013          	addi	x0,x0,0
    8000137c:	00000013          	addi	x0,x0,0
    80001380:	ffc3f393          	andi	x7,x7,-4
    80001384:	407d8db3          	sub	x27,x27,x7
    80001388:	05b33c23          	sd	x27,88(x6)
    8000138c:	00000097          	auipc	x1,0x0
    80001390:	00000013          	addi	x0,x0,0
    80001394:	00000013          	addi	x0,x0,0
    80001398:	00000013          	addi	x0,x0,0
    8000139c:	00000013          	addi	x0,x0,0
    800013a0:	00001d17          	auipc	x26,0x1
    800013a4:	834d0d13          	addi	x26,x26,-1996 # 0x80001bd4
    800013a8:	00000013          	addi	x0,x0,0
    800013ac:	00000013          	addi	x0,x0,0
    800013b0:	00000013          	addi	x0,x0,0
    800013b4:	00000013          	addi	x0,x0,0
    800013b8:	00000013          	addi	x0,x0,0
    800013bc:	00000013          	addi	x0,x0,0
    800013c0:	800d00e7          	jalr	x1,-2048(x26)
    800013c4:	00000013          	addi	x0,x0,0
    800013c8:	00000013          	addi	x0,x0,0
    800013cc:	0020c093          	xori	x1,x1,2
    800013d0:	00c0006f          	jal	x0,0x800013dc
    800013d4:	0030c093          	xori	x1,x1,3
    800013d8:	0040006f          	jal	x0,0x800013dc
    800013dc:	00000013          	addi	x0,x0,0
    800013e0:	00000397          	auipc	x7,0x0
    800013e4:	fac38393          	addi	x7,x7,-84 # 0x8000138c
    800013e8:	00000013          	addi	x0,x0,0
    800013ec:	00000013          	addi	x0,x0,0
    800013f0:	00000013          	addi	x0,x0,0
    800013f4:	00000013          	addi	x0,x0,0
    800013f8:	00000013          	addi	x0,x0,0
    800013fc:	00000013          	addi	x0,x0,0
    80001400:	ffc3f393          	andi	x7,x7,-4
    80001404:	407080b3          	sub	x1,x1,x7
    80001408:	06133023          	sd	x1,96(x6)
    8000140c:	00000517          	auipc	x10,0x0
    80001410:	00000013          	addi	x0,x0,0
    80001414:	00000013          	addi	x0,x0,0
    80001418:	00000013          	addi	x0,x0,0
    8000141c:	00000013          	addi	x0,x0,0
    80001420:	00001c17          	auipc	x24,0x1
    80001424:	834c0c13          	addi	x24,x24,-1996 # 0x80001c54
    80001428:	00000013          	addi	x0,x0,0
    8000142c:	00000013          	addi	x0,x0,0
    80001430:	00000013          	addi	x0,x0,0
    80001434:	00000013          	addi	x0,x0,0
    80001438:	00000013          	addi	x0,x0,0
    8000143c:	00000013          	addi	x0,x0,0
    80001440:	800c0567          	jalr	x10,-2048(x24)
    80001444:	00000013          	addi	x0,x0,0
    80001448:	00000013          	addi	x0,x0,0
    8000144c:	00254513          	xori	x10,x10,2
    80001450:	00c0006f          	jal	x0,0x8000145c
    80001454:	00354513          	xori	x10,x10,3
    80001458:	0040006f          	jal	x0,0x8000145c
    8000145c:	00000013          	addi	x0,x0,0
    80001460:	00000397          	auipc	x7,0x0
    80001464:	fac38393          	addi	x7,x7,-84 # 0x8000140c
    80001468:	00000013          	addi	x0,x0,0
    8000146c:	00000013          	addi	x0,x0,0
    80001470:	00000013          	addi	x0,x0,0
    80001474:	00000013          	addi	x0,x0,0
    80001478:	00000013          	addi	x0,x0,0
    8000147c:	00000013          	addi	x0,x0,0
    80001480:	ffc3f393          	andi	x7,x7,-4
    80001484:	40750533          	sub	x10,x10,x7
    80001488:	06a33423          	sd	x10,104(x6)
    8000148c:	00000597          	auipc	x11,0x0
    80001490:	00000013          	addi	x0,x0,0
    80001494:	00000013          	addi	x0,x0,0
    80001498:	00000013          	addi	x0,x0,0
    8000149c:	00000013          	addi	x0,x0,0
    800014a0:	00000517          	auipc	x10,0x0
    800014a4:	43550513          	addi	x10,x10,1077 # 0x800018d5
    800014a8:	00000013          	addi	x0,x0,0
    800014ac:	00000013          	addi	x0,x0,0
    800014b0:	00000013          	addi	x0,x0,0
    800014b4:	00000013          	addi	x0,x0,0
    800014b8:	00000013          	addi	x0,x0,0
    800014bc:	00000013          	addi	x0,x0,0
    800014c0:	bff505e7          	jalr	x11,-1025(x10)
    800014c4:	00000013          	addi	x0,x0,0
    800014c8:	00000013          	addi	x0,x0,0
    800014cc:	0025c593          	xori	x11,x11,2
    800014d0:	00c0006f          	jal	x0,0x800014dc
    800014d4:	0035c593          	xori	x11,x11,3
    800014d8:	0040006f          	jal	x0,0x800014dc
    800014dc:	00000013          	addi	x0,x0,0
    800014e0:	00000397          	auipc	x7,0x0
    800014e4:	fac38393          	addi	x7,x7,-84 # 0x8000148c
    800014e8:	00000013          	addi	x0,x0,0
    800014ec:	00000013          	addi	x0,x0,0
    800014f0:	00000013          	addi	x0,x0,0
    800014f4:	00000013          	addi	x0,x0,0
    800014f8:	00000013          	addi	x0,x0,0
    800014fc:	00000013          	addi	x0,x0,0
    80001500:	ffc3f393          	andi	x7,x7,-4
    80001504:	407585b3          	sub	x11,x11,x7
    80001508:	06b33823          	sd	x11,112(x6)
    8000150c:	0380006f          	jal	x0,0x80001544
    80001510:	1f813483          	ld	x9,504(x2) # 0x80001404
    80001514:	20013303          	ld	x6,512(x2)
    80001518:	00930333          	add	x6,x6,x9
    8000151c:	00000337          	lui	x6,0x0
    80001520:	00030313          	addi	x6,x6,0 # 0x0
    80001524:	00b31313          	slli	x6,x6,0xb
    80001528:	5d630313          	addi	x6,x6,1494
    8000152c:	00b31313          	slli	x6,x6,0xb
    80001530:	43630313          	addi	x6,x6,1078
    80001534:	00a31313          	slli	x6,x6,0xa
    80001538:	2d030313          	addi	x6,x6,720
    8000153c:	fe64be23          	sd	x6,-4(x9)
    80001540:	0040006f          	jal	x0,0x80001544
    80001544:	00000513          	addi	x10,x0,0
    80001548:	0140006f          	jal	x0,0x8000155c
	...
    8000155c:	00050513          	addi	x10,x10,0
    80001560:	00100073          	ebreak
    80001564:	0000006f          	jal	x0,0x80001564
    80001568:	ff010113          	addi	x2,x2,-16
    8000156c:	00000517          	auipc	x10,0x0
    80001570:	01c50513          	addi	x10,x10,28 # 0x80001588
    80001574:	00113423          	sd	x1,8(x2)
    80001578:	a99fe0ef          	jal	x1,0x80000010
    8000157c:	00050513          	addi	x10,x10,0
    80001580:	00100073          	ebreak
    80001584:	0000006f          	jal	x0,0x80001584
	...
    80002000:	cafe                	c.swsp	x31,84(x2)
    80002002:	babe                	c.fsdsp	f15,368(x2)
    80002004:	cafe                	c.swsp	x31,84(x2)
    80002006:	babe                	c.fsdsp	f15,368(x2)
    80002008:	cafe                	c.swsp	x31,84(x2)
    8000200a:	babe                	c.fsdsp	f15,368(x2)
    8000200c:	cafe                	c.swsp	x31,84(x2)
    8000200e:	babe                	c.fsdsp	f15,368(x2)
    80002010:	deadbeef          	jal	x29,0x7ffdd5fa
    80002014:	deadbeef          	jal	x29,0x7ffdd5fe
	...
    80003000:	b281                	c.j	0x80002940
    80003002:	e7d4                	c.sd	x13,136(x15)
    80003004:	a309                	c.j	0x80003506
    80003006:	6f5c                	c.ld	x15,152(x14)
    80003008:	deadbeef          	jal	x29,0x7ffde5f2
    8000300c:	deadbeef          	jal	x29,0x7ffde5f6
    80003010:	deadbeef          	jal	x29,0x7ffde5fa
    80003014:	deadbeef          	jal	x29,0x7ffde5fe
    80003018:	deadbeef          	jal	x29,0x7ffde602
    8000301c:	deadbeef          	jal	x29,0x7ffde606
    80003020:	deadbeef          	jal	x29,0x7ffde60a
    80003024:	deadbeef          	jal	x29,0x7ffde60e
    80003028:	deadbeef          	jal	x29,0x7ffde612
    8000302c:	deadbeef          	jal	x29,0x7ffde616
    80003030:	deadbeef          	jal	x29,0x7ffde61a
    80003034:	deadbeef          	jal	x29,0x7ffde61e
    80003038:	deadbeef          	jal	x29,0x7ffde622
    8000303c:	deadbeef          	jal	x29,0x7ffde626
    80003040:	deadbeef          	jal	x29,0x7ffde62a
    80003044:	deadbeef          	jal	x29,0x7ffde62e
    80003048:	deadbeef          	jal	x29,0x7ffde632
    8000304c:	deadbeef          	jal	x29,0x7ffde636
    80003050:	deadbeef          	jal	x29,0x7ffde63a
    80003054:	deadbeef          	jal	x29,0x7ffde63e
    80003058:	deadbeef          	jal	x29,0x7ffde642
    8000305c:	deadbeef          	jal	x29,0x7ffde646
    80003060:	deadbeef          	jal	x29,0x7ffde64a
    80003064:	deadbeef          	jal	x29,0x7ffde64e
    80003068:	deadbeef          	jal	x29,0x7ffde652
    8000306c:	deadbeef          	jal	x29,0x7ffde656
    80003070:	deadbeef          	jal	x29,0x7ffde65a
    80003074:	deadbeef          	jal	x29,0x7ffde65e
    80003078:	deadbeef          	jal	x29,0x7ffde662
    8000307c:	deadbeef          	jal	x29,0x7ffde666
    80003080:	deadbeef          	jal	x29,0x7ffde66a
    80003084:	deadbeef          	jal	x29,0x7ffde66e
    80003088:	deadbeef          	jal	x29,0x7ffde672
    8000308c:	deadbeef          	jal	x29,0x7ffde676
    80003090:	deadbeef          	jal	x29,0x7ffde67a
    80003094:	deadbeef          	jal	x29,0x7ffde67e
    80003098:	deadbeef          	jal	x29,0x7ffde682
    8000309c:	deadbeef          	jal	x29,0x7ffde686
    800030a0:	deadbeef          	jal	x29,0x7ffde68a
    800030a4:	deadbeef          	jal	x29,0x7ffde68e
    800030a8:	deadbeef          	jal	x29,0x7ffde692
    800030ac:	deadbeef          	jal	x29,0x7ffde696
    800030b0:	deadbeef          	jal	x29,0x7ffde69a
    800030b4:	deadbeef          	jal	x29,0x7ffde69e
    800030b8:	deadbeef          	jal	x29,0x7ffde6a2
    800030bc:	deadbeef          	jal	x29,0x7ffde6a6
    800030c0:	deadbeef          	jal	x29,0x7ffde6aa
    800030c4:	deadbeef          	jal	x29,0x7ffde6ae
    800030c8:	deadbeef          	jal	x29,0x7ffde6b2
    800030cc:	deadbeef          	jal	x29,0x7ffde6b6
    800030d0:	deadbeef          	jal	x29,0x7ffde6ba
    800030d4:	deadbeef          	jal	x29,0x7ffde6be
    800030d8:	deadbeef          	jal	x29,0x7ffde6c2
    800030dc:	deadbeef          	jal	x29,0x7ffde6c6
    800030e0:	deadbeef          	jal	x29,0x7ffde6ca
    800030e4:	deadbeef          	jal	x29,0x7ffde6ce
    800030e8:	deadbeef          	jal	x29,0x7ffde6d2
    800030ec:	deadbeef          	jal	x29,0x7ffde6d6
    800030f0:	deadbeef          	jal	x29,0x7ffde6da
    800030f4:	deadbeef          	jal	x29,0x7ffde6de
    800030f8:	deadbeef          	jal	x29,0x7ffde6e2
    800030fc:	deadbeef          	jal	x29,0x7ffde6e6
    80003100:	deadbeef          	jal	x29,0x7ffde6ea
    80003104:	deadbeef          	jal	x29,0x7ffde6ee
    80003108:	deadbeef          	jal	x29,0x7ffde6f2
    8000310c:	deadbeef          	jal	x29,0x7ffde6f6
    80003110:	b281                	c.j	0x80002a50
    80003112:	e7d4                	c.sd	x13,136(x15)
    80003114:	a309                	c.j	0x80003616
    80003116:	6f5c                	c.ld	x15,152(x14)
	...
