
elf/riscv-arch-test/lhu-align-riscv64-nemu.elf:     file format binary

Contents of section .data:
 1000 13040000 17b10000 1301c1ff ef00104b  ...............K
 1010 ef000003 13051000 ef009049 13050000  ...........I....
 1020 67800000 00000000 00000000 00000000  g...............
 1030 00000000 00000000 00000000 00000000  ................
 1040 b7c0edfe 9380d0ea 9390b000 9380707f  ..............p.
 1050 9390b000 9380f036 9390a000 9380d02a  .......6.......*
 1060 37e176ff 130161f5 1311b100 1301b17f  7.v...a.........
 1070 1311b100 1301715b 1311a100 13016135  ......q[......a5
 1080 b771bb7f 9381b1fa 9391b100 9381d13f  .q.............?
 1090 9391b100 9381b16d 9391a100 9381b13a  .......m.......:
 10a0 37b2ddbf 1302527d 1312b200 1302e25f  7.....R}......._
 10b0 1312b200 1302d276 1312a200 1302523d  .......v......R=
 10c0 b7e2eedf 9382a2be 9392b200 9382f26f  ...............o
 10d0 9392b200 9382623b 9392a200 9382a23e  ......b;.......>
 10e0 3773f76f 130353df 1313b300 1303f337  7s.o..S........7
 10f0 1313b300 1303b35d 1313a300 1303531f  .......]......S.
 1100 b7b3fbb7 9383a36f 9393b300 9383f35b  .......o.......[
 1110 9393b300 9383d36e 9393a300 9383a32f  .......n......./
 1120 37e4fd5b 1304d4b7 1314b400 1304f42d  7..[...........-
 1130 1314b400 13046477 1314a400 1304d437  ......dw.......7
 1140 b7f4fead 9384e4db 9394b400 9384f456  ...............V
 1150 9394b400 9384b47b 9394a400 9384e41b  .......{........
 1160 3775ff56 1305f56d 1315b500 1305752b  7u.V...m......u+
 1170 1315b500 1305d57d 1315a500 1305f52d  .......}.......-
 1180 b7c57fab 9385f5b6 9395b500 9385b555  ...............U
 1190 9395b500 9385e57e 9395a500 9385f536  .......~.......6
 11a0 37e6bfd5 130676db 1316b600 1306d66a  7.....v........j
 11b0 1316b600 1306767f 1316a600 1306761b  ......v.......v.
 11c0 b7f6dfea 9386b6ed 9396b600 93866675  ..............fu
 11d0 9396b600 9386b67f 9396a600 9386b62d  ...............-
 11e0 37f76ff5 1307d776 1317b700 1307b77a  7.o....v.......z
 11f0 1317b700 1307d73f 1317a700 1307d736  .......?.......6
 1200 b707b8fa 938767bb 9397b700 9387577d  ......g.......W}
 1210 9397b700 9387e75f 9397a700 9387673b  ......._......g;
 1220 37085c7d 1308b8dd 1318b800 1308a83e  7.\}...........>
 1230 1318b800 1308f86f 1318a800 1308b81d  .......o........
 1240 b708aebe 9388d8ee 9398b800 9388585f  ..............X_
 1250 9398b800 9388f837 9398a800 9388d82e  .......7........
 1260 370957df 130969f7 1319b900 1309a96f  7.W...i........o
 1270 1319b900 1309f95b 1319a900 13096937  .......[......i7
 1280 b789ab6f 9389b9fb 9399b900 9389d937  ...o...........7
 1290 9399b900 9389f92d 9399a900 9389b93b  .......-.......;
 12a0 37cad5b7 130adafd 131aba00 130aea5b  7..............[
 12b0 131aba00 130afa56 131aaa00 130ada3d  .......V.......=
 12c0 b7eaeadb 938aeafe 939aba00 938afa6d  ...............m
 12d0 939aba00 938a7a2b 939aaa00 938aea3e  ......z+.......>
 12e0 377bf56d 130b7bff 131bbb00 130bfb36  7{.m..{........6
 12f0 131bbb00 130bbb55 131bab00 130b7b3f  .......U......{?
 1300 b7bbfab6 938bbb7f 939bbb00 938b7b5b  ..............{[
 1310 939bbb00 938bdb6a 939bab00 938bbb3f  .......j.......?
 1320 376c7ddb 130cdcbf 131cbc00 130cbc6d  7l}............m
 1330 131cbc00 130c6c75 131cac00 130cdc3f  ......lu.......?
 1340 b7bcbeed 938cecdf 939cbc00 938cdc76  ...............v
 1350 939cbc00 938cbc7a 939cac00 938cec1f  .......z........
 1360 375ddf76 130dfd6f 131dbd00 130d6d3b  7].v...o......m;
 1370 131dbd00 130d5d7d 131dad00 130dfd2f  ......]}......./
 1380 b7bd6fbb 938dfdb7 939dbd00 938dbd5d  ..o............]
 1390 939dbd00 938dad3e 939dad00 938dfd37  .......>.......7
 13a0 37deb7dd 130efe5b 131ebe00 130ede6e  7......[.......n
 13b0 131ebe00 130e5e5f 131eae00 130efe1b  ......^_........
 13c0 b7fedbee 938efead 939ebe00 938e6e77  ..............nw
 13d0 939ebe00 938eae6f 939eae00 938efe2d  .......o.......-
 13e0 37ff6df7 130fff56 131fbf00 130fbf7b  7.m....V.......{
 13f0 131fbf00 130fdf37 131faf00 130fff16  .......7........
 1400 b70fb7fb 938f7fab 939fbf00 938fdf7d  ...............}
 1410 939fbf00 938fef5b 939faf00 938f7f2b  .......[.......+
 1420 97230000 938383be 13000000 13000000  .#..............
 1430 13000000 13000000 13000000 13000000  ................
 1440 97180000 938888bc 13000000 13000000  ................
 1450 13000000 13000000 13000000 13000000  ................
 1460 83d888ff 13000000 13000000 23b01301  ............#...
 1470 13000000 13000000 13000000 13000000  ................
 1480 97110000 938131b8 13000000 13000000  ......1.........
 1490 13000000 13000000 13000000 13000000  ................
 14a0 83d7d1ff 13000000 13000000 23b4f300  ............#...
 14b0 13000000 13000000 13000000 13000000  ................
 14c0 97120000 9382a2b3 13000000 13000000  ................
 14d0 13000000 13000000 13000000 13000000  ................
 14e0 83de6200 13000000 13000000 23b8d301  ..b.........#...
 14f0 13000000 13000000 13000000 13000000  ................
 1500 17140000 130414b4 13000000 13000000  ................
 1510 13000000 13000000 13000000 13000000  ................
 1520 035ff4fb 13000000 13000000 23bce301  ._..........#...
 1530 13000000 13000000 13000000 13000000  ................
 1540 97190000 938929ac 13000000 13000000  ......).........
 1550 13000000 13000000 13000000 13000000  ................
 1560 03d40900 13000000 13000000 23b08302  ............#...
 1570 13000000 13000000 13000000 13000000  ................
 1580 97140000 938414a8 13000000 13000000  ................
 1590 13000000 13000000 13000000 13000000  ................
 15a0 03d11400 13000000 13000000 23b42302  ............#.#.
 15b0 13000000 13000000 13000000 13000000  ................
 15c0 17120000 130242a4 13000000 13000000  ......B.........
 15d0 13000000 13000000 13000000 13000000  ................
 15e0 8354e2ff 13000000 13000000 23b89302  .T..........#...
 15f0 13000000 13000000 13000000 13000000  ................
 1600 17180000 130838a0 13000000 13000000  ......8.........
 1610 13000000 13000000 13000000 13000000  ................
 1620 035cf8ff 13000000 13000000 23bc8303  .\..........#...
 1630 13000000 13000000 13000000 13000000  ................
 1640 171c0000 130c0c1c 13000000 13000000  ................
 1650 13000000 13000000 13000000 13000000  ................
 1660 035d0c80 13000000 13000000 23b0a305  .]..........#...
 1670 13000000 13000000 13000000 13000000  ................
 1680 17190000 13090918 13000000 13000000  ................
 1690 13000000 13000000 13000000 13000000  ................
 16a0 03500980 13000000 13000000 23b40304  .P..........#...
 16b0 13000000 13000000 13000000 13000000  ................
 16c0 971f0000 938f0f14 13000000 13000000  ................
 16d0 13000000 13000000 13000000 13000000  ................
 16e0 03d70f80 13000000 13000000 23b8e304  ............#...
 16f0 13000000 13000000 13000000 13000000  ................
 1700 17170000 13070710 13000000 13000000  ................
 1710 13000000 13000000 13000000 13000000  ................
 1720 835d0780 13000000 13000000 23bcb305  .]..........#...
 1730 13000000 13000000 13000000 13000000  ................
 1740 971e0000 938e0e0c 13000000 13000000  ................
 1750 13000000 13000000 13000000 13000000  ................
 1760 83d20e80 13000000 13000000 23b05306  ............#.S.
 1770 13000000 13000000 13000000 13000000  ................
 1780 97100000 93800008 13000000 13000000  ................
 1790 13000000 13000000 13000000 13000000  ................
 17a0 83dc0080 13000000 13000000 23b49307  ............#...
 17b0 13000000 13000000 13000000 13000000  ................
 17c0 17130000 13030304 13000000 13000000  ................
 17d0 13000000 13000000 13000000 13000000  ................
 17e0 83550380 13000000 13000000 23b8b306  .U..........#...
 17f0 13000000 13000000 13000000 13000000  ................
 1800 171f0000 130f0f00 13000000 13000000  ................
 1810 13000000 13000000 13000000 13000000  ................
 1820 835a0f80 13000000 13000000 23bc5307  .Z..........#.S.
 1830 13000000 13000000 13000000 13000000  ................
 1840 971b0000 938b0bfc 13000000 13000000  ................
 1850 13000000 13000000 13000000 13000000  ................
 1860 03da0b80 13000000 13000000 23b04309  ............#.C.
 1870 13000000 13000000 13000000 13000000  ................
 1880 97150000 938505f8 13000000 13000000  ................
 1890 13000000 13000000 13000000 13000000  ................
 18a0 03db0580 13000000 13000000 23b46309  ............#.c.
 18b0 13000000 13000000 13000000 13000000  ................
 18c0 171b0000 130b0bf4 13000000 13000000  ................
 18d0 13000000 13000000 13000000 13000000  ................
 18e0 83590b80 13000000 13000000 23b83309  .Y..........#.3.
 18f0 13000000 13000000 13000000 13000000  ................
 1900 171a0000 130a0af0 13000000 13000000  ................
 1910 13000000 13000000 13000000 13000000  ................
 1920 03530a80 13000000 13000000 23bc6308  .S..........#.c.
 1930 13000000 13000000 13000000 13000000  ................
 1940 97170000 938707ec 13000000 13000000  ................
 1950 13000000 13000000 13000000 13000000  ................
 1960 83d10780 13000000 13000000 23b0330a  ............#.3.
 1970 13000000 13000000 13000000 13000000  ................
 1980 971d0000 938d0de8 13000000 13000000  ................
 1990 13000000 13000000 13000000 13000000  ................
 19a0 03d20d80 13000000 13000000 23b4430a  ............#.C.
 19b0 13000000 13000000 13000000 13000000  ................
 19c0 97160000 938606e4 13000000 13000000  ................
 19d0 13000000 13000000 13000000 13000000  ................
 19e0 03de0680 13000000 13000000 23b8c30b  ............#...
 19f0 13000000 13000000 13000000 13000000  ................
 1a00 97110000 9381016c 13000000 13000000  .......l........
 1a10 13000000 13000000 13000000 13000000  ................
 1a20 17110000 130101de 13000000 13000000  ................
 1a30 13000000 13000000 13000000 13000000  ................
 1a40 835b0180 13000000 13000000 23b07101  .[..........#.q.
 1a50 13000000 13000000 13000000 13000000  ................
 1a60 171d0000 130d0dda 13000000 13000000  ................
 1a70 13000000 13000000 13000000 13000000  ................
 1a80 835f0d80 13000000 13000000 23b4f101  ._..........#...
 1a90 13000000 13000000 13000000 13000000  ................
 1aa0 971a0000 938a0ad6 13000000 13000000  ................
 1ab0 13000000 13000000 13000000 13000000  ................
 1ac0 83d60a80 13000000 13000000 23b8d100  ............#...
 1ad0 13000000 13000000 13000000 13000000  ................
 1ae0 97130000 938303d2 13000000 13000000  ................
 1af0 13000000 13000000 13000000 13000000  ................
 1b00 03d80380 13000000 13000000 23bc0101  ............#...
 1b10 13000000 13000000 13000000 13000000  ................
 1b20 971c0000 938c0cce 13000000 13000000  ................
 1b30 13000000 13000000 13000000 13000000  ................
 1b40 03d90c80 13000000 13000000 23b02103  ............#.!.
 1b50 13000000 13000000 13000000 13000000  ................
 1b60 17150000 130505ca 13000000 13000000  ................
 1b70 13000000 13000000 13000000 13000000  ................
 1b80 83530580 13000000 13000000 23b47102  .S..........#.q.
 1b90 13000000 13000000 13000000 13000000  ................
 1ba0 17160000 130606c6 13000000 13000000  ................
 1bb0 13000000 13000000 13000000 13000000  ................
 1bc0 83500680 13000000 13000000 23b81102  .P..........#...
 1bd0 13000000 13000000 13000000 13000000  ................
 1be0 171e0000 130e0ec2 13000000 13000000  ................
 1bf0 13000000 13000000 13000000 13000000  ................
 1c00 03550e80 13000000 13000000 23bca102  .U..........#...
 1c10 13000000 13000000 13000000 13000000  ................
 1c20 17110000 130101be 13000000 13000000  ................
 1c30 13000000 13000000 13000000 13000000  ................
 1c40 03560180 13000000 13000000 23b0c104  .V..........#...
 1c50 6f008003 8334811f 03330120 33039300  o....4...3. 3...
 1c60 37030000 13030300 1313b300 1303635d  7.............c]
 1c70 1313b300 13036343 1313a300 1303032d  ......cC.......-
 1c80 23be64fe 6f004000 13050000 6f004002  #.d.o.@.....o.@.
 1c90 00000000 00000000 00000000 00000000  ................
 1ca0 00000000 00000000 00000000 00000000  ................
 1cb0 13050500 73001000 6f000000 130101ff  ....s...o.......
 1cc0 17050000 13050502 23341100 eff04fb4  ........#4....O.
 1cd0 13050500 73001000 6f000000 00000000  ....s...o.......
 1ce0 00000000 00000000 00000000 00000000  ................
 1cf0 00000000 00000000 00000000 00000000  ................
 1d00 00000000 00000000 00000000 00000000  ................
 1d10 00000000 00000000 00000000 00000000  ................
 1d20 00000000 00000000 00000000 00000000  ................
 1d30 00000000 00000000 00000000 00000000  ................
 1d40 00000000 00000000 00000000 00000000  ................
 1d50 00000000 00000000 00000000 00000000  ................
 1d60 00000000 00000000 00000000 00000000  ................
 1d70 00000000 00000000 00000000 00000000  ................
 1d80 00000000 00000000 00000000 00000000  ................
 1d90 00000000 00000000 00000000 00000000  ................
 1da0 00000000 00000000 00000000 00000000  ................
 1db0 00000000 00000000 00000000 00000000  ................
 1dc0 00000000 00000000 00000000 00000000  ................
 1dd0 00000000 00000000 00000000 00000000  ................
 1de0 00000000 00000000 00000000 00000000  ................
 1df0 00000000 00000000 00000000 00000000  ................
 1e00 00000000 00000000 00000000 00000000  ................
 1e10 00000000 00000000 00000000 00000000  ................
 1e20 00000000 00000000 00000000 00000000  ................
 1e30 00000000 00000000 00000000 00000000  ................
 1e40 00000000 00000000 00000000 00000000  ................
 1e50 00000000 00000000 00000000 00000000  ................
 1e60 00000000 00000000 00000000 00000000  ................
 1e70 00000000 00000000 00000000 00000000  ................
 1e80 00000000 00000000 00000000 00000000  ................
 1e90 00000000 00000000 00000000 00000000  ................
 1ea0 00000000 00000000 00000000 00000000  ................
 1eb0 00000000 00000000 00000000 00000000  ................
 1ec0 00000000 00000000 00000000 00000000  ................
 1ed0 00000000 00000000 00000000 00000000  ................
 1ee0 00000000 00000000 00000000 00000000  ................
 1ef0 00000000 00000000 00000000 00000000  ................
 1f00 00000000 00000000 00000000 00000000  ................
 1f10 00000000 00000000 00000000 00000000  ................
 1f20 00000000 00000000 00000000 00000000  ................
 1f30 00000000 00000000 00000000 00000000  ................
 1f40 00000000 00000000 00000000 00000000  ................
 1f50 00000000 00000000 00000000 00000000  ................
 1f60 00000000 00000000 00000000 00000000  ................
 1f70 00000000 00000000 00000000 00000000  ................
 1f80 00000000 00000000 00000000 00000000  ................
 1f90 00000000 00000000 00000000 00000000  ................
 1fa0 00000000 00000000 00000000 00000000  ................
 1fb0 00000000 00000000 00000000 00000000  ................
 1fc0 00000000 00000000 00000000 00000000  ................
 1fd0 00000000 00000000 00000000 00000000  ................
 1fe0 00000000 00000000 00000000 00000000  ................
 1ff0 00000000 00000000 00000000 00000000  ................
 2000 fecabeba fecabeba fecabeba fecabeba  ................
 2010 efbeadde efbeadde 00000000 00000000  ................
 2020 00000000 00000000 00000000 00000000  ................
 2030 00000000 00000000 00000000 00000000  ................
 2040 00000000 00000000 00000000 00000000  ................
 2050 00000000 00000000 00000000 00000000  ................
 2060 00000000 00000000 00000000 00000000  ................
 2070 00000000 00000000 00000000 00000000  ................
 2080 00000000 00000000 00000000 00000000  ................
 2090 00000000 00000000 00000000 00000000  ................
 20a0 00000000 00000000 00000000 00000000  ................
 20b0 00000000 00000000 00000000 00000000  ................
 20c0 00000000 00000000 00000000 00000000  ................
 20d0 00000000 00000000 00000000 00000000  ................
 20e0 00000000 00000000 00000000 00000000  ................
 20f0 00000000 00000000 00000000 00000000  ................
 2100 00000000 00000000 00000000 00000000  ................
 2110 00000000 00000000 00000000 00000000  ................
 2120 00000000 00000000 00000000 00000000  ................
 2130 00000000 00000000 00000000 00000000  ................
 2140 00000000 00000000 00000000 00000000  ................
 2150 00000000 00000000 00000000 00000000  ................
 2160 00000000 00000000 00000000 00000000  ................
 2170 00000000 00000000 00000000 00000000  ................
 2180 00000000 00000000 00000000 00000000  ................
 2190 00000000 00000000 00000000 00000000  ................
 21a0 00000000 00000000 00000000 00000000  ................
 21b0 00000000 00000000 00000000 00000000  ................
 21c0 00000000 00000000 00000000 00000000  ................
 21d0 00000000 00000000 00000000 00000000  ................
 21e0 00000000 00000000 00000000 00000000  ................
 21f0 00000000 00000000 00000000 00000000  ................
 2200 00000000 00000000 00000000 00000000  ................
 2210 00000000 00000000 00000000 00000000  ................
 2220 00000000 00000000 00000000 00000000  ................
 2230 00000000 00000000 00000000 00000000  ................
 2240 00000000 00000000 00000000 00000000  ................
 2250 00000000 00000000 00000000 00000000  ................
 2260 00000000 00000000 00000000 00000000  ................
 2270 00000000 00000000 00000000 00000000  ................
 2280 00000000 00000000 00000000 00000000  ................
 2290 00000000 00000000 00000000 00000000  ................
 22a0 00000000 00000000 00000000 00000000  ................
 22b0 00000000 00000000 00000000 00000000  ................
 22c0 00000000 00000000 00000000 00000000  ................
 22d0 00000000 00000000 00000000 00000000  ................
 22e0 00000000 00000000 00000000 00000000  ................
 22f0 00000000 00000000 00000000 00000000  ................
 2300 00000000 00000000 00000000 00000000  ................
 2310 00000000 00000000 00000000 00000000  ................
 2320 00000000 00000000 00000000 00000000  ................
 2330 00000000 00000000 00000000 00000000  ................
 2340 00000000 00000000 00000000 00000000  ................
 2350 00000000 00000000 00000000 00000000  ................
 2360 00000000 00000000 00000000 00000000  ................
 2370 00000000 00000000 00000000 00000000  ................
 2380 00000000 00000000 00000000 00000000  ................
 2390 00000000 00000000 00000000 00000000  ................
 23a0 00000000 00000000 00000000 00000000  ................
 23b0 00000000 00000000 00000000 00000000  ................
 23c0 00000000 00000000 00000000 00000000  ................
 23d0 00000000 00000000 00000000 00000000  ................
 23e0 00000000 00000000 00000000 00000000  ................
 23f0 00000000 00000000 00000000 00000000  ................
 2400 00000000 00000000 00000000 00000000  ................
 2410 00000000 00000000 00000000 00000000  ................
 2420 00000000 00000000 00000000 00000000  ................
 2430 00000000 00000000 00000000 00000000  ................
 2440 00000000 00000000 00000000 00000000  ................
 2450 00000000 00000000 00000000 00000000  ................
 2460 00000000 00000000 00000000 00000000  ................
 2470 00000000 00000000 00000000 00000000  ................
 2480 00000000 00000000 00000000 00000000  ................
 2490 00000000 00000000 00000000 00000000  ................
 24a0 00000000 00000000 00000000 00000000  ................
 24b0 00000000 00000000 00000000 00000000  ................
 24c0 00000000 00000000 00000000 00000000  ................
 24d0 00000000 00000000 00000000 00000000  ................
 24e0 00000000 00000000 00000000 00000000  ................
 24f0 00000000 00000000 00000000 00000000  ................
 2500 00000000 00000000 00000000 00000000  ................
 2510 00000000 00000000 00000000 00000000  ................
 2520 00000000 00000000 00000000 00000000  ................
 2530 00000000 00000000 00000000 00000000  ................
 2540 00000000 00000000 00000000 00000000  ................
 2550 00000000 00000000 00000000 00000000  ................
 2560 00000000 00000000 00000000 00000000  ................
 2570 00000000 00000000 00000000 00000000  ................
 2580 00000000 00000000 00000000 00000000  ................
 2590 00000000 00000000 00000000 00000000  ................
 25a0 00000000 00000000 00000000 00000000  ................
 25b0 00000000 00000000 00000000 00000000  ................
 25c0 00000000 00000000 00000000 00000000  ................
 25d0 00000000 00000000 00000000 00000000  ................
 25e0 00000000 00000000 00000000 00000000  ................
 25f0 00000000 00000000 00000000 00000000  ................
 2600 00000000 00000000 00000000 00000000  ................
 2610 00000000 00000000 00000000 00000000  ................
 2620 00000000 00000000 00000000 00000000  ................
 2630 00000000 00000000 00000000 00000000  ................
 2640 00000000 00000000 00000000 00000000  ................
 2650 00000000 00000000 00000000 00000000  ................
 2660 00000000 00000000 00000000 00000000  ................
 2670 00000000 00000000 00000000 00000000  ................
 2680 00000000 00000000 00000000 00000000  ................
 2690 00000000 00000000 00000000 00000000  ................
 26a0 00000000 00000000 00000000 00000000  ................
 26b0 00000000 00000000 00000000 00000000  ................
 26c0 00000000 00000000 00000000 00000000  ................
 26d0 00000000 00000000 00000000 00000000  ................
 26e0 00000000 00000000 00000000 00000000  ................
 26f0 00000000 00000000 00000000 00000000  ................
 2700 00000000 00000000 00000000 00000000  ................
 2710 00000000 00000000 00000000 00000000  ................
 2720 00000000 00000000 00000000 00000000  ................
 2730 00000000 00000000 00000000 00000000  ................
 2740 00000000 00000000 00000000 00000000  ................
 2750 00000000 00000000 00000000 00000000  ................
 2760 00000000 00000000 00000000 00000000  ................
 2770 00000000 00000000 00000000 00000000  ................
 2780 00000000 00000000 00000000 00000000  ................
 2790 00000000 00000000 00000000 00000000  ................
 27a0 00000000 00000000 00000000 00000000  ................
 27b0 00000000 00000000 00000000 00000000  ................
 27c0 00000000 00000000 00000000 00000000  ................
 27d0 00000000 00000000 00000000 00000000  ................
 27e0 00000000 00000000 00000000 00000000  ................
 27f0 00000000 00000000 00000000 00000000  ................
 2800 00000000 00000000 00000000 00000000  ................
 2810 00000000 00000000 00000000 00000000  ................
 2820 00000000 00000000 00000000 00000000  ................
 2830 00000000 00000000 00000000 00000000  ................
 2840 00000000 00000000 00000000 00000000  ................
 2850 00000000 00000000 00000000 00000000  ................
 2860 00000000 00000000 00000000 00000000  ................
 2870 00000000 00000000 00000000 00000000  ................
 2880 00000000 00000000 00000000 00000000  ................
 2890 00000000 00000000 00000000 00000000  ................
 28a0 00000000 00000000 00000000 00000000  ................
 28b0 00000000 00000000 00000000 00000000  ................
 28c0 00000000 00000000 00000000 00000000  ................
 28d0 00000000 00000000 00000000 00000000  ................
 28e0 00000000 00000000 00000000 00000000  ................
 28f0 00000000 00000000 00000000 00000000  ................
 2900 00000000 00000000 00000000 00000000  ................
 2910 00000000 00000000 00000000 00000000  ................
 2920 00000000 00000000 00000000 00000000  ................
 2930 00000000 00000000 00000000 00000000  ................
 2940 00000000 00000000 00000000 00000000  ................
 2950 00000000 00000000 00000000 00000000  ................
 2960 00000000 00000000 00000000 00000000  ................
 2970 00000000 00000000 00000000 00000000  ................
 2980 00000000 00000000 00000000 00000000  ................
 2990 00000000 00000000 00000000 00000000  ................
 29a0 00000000 00000000 00000000 00000000  ................
 29b0 00000000 00000000 00000000 00000000  ................
 29c0 00000000 00000000 00000000 00000000  ................
 29d0 00000000 00000000 00000000 00000000  ................
 29e0 00000000 00000000 00000000 00000000  ................
 29f0 00000000 00000000 00000000 00000000  ................
 2a00 00000000 00000000 00000000 00000000  ................
 2a10 00000000 00000000 00000000 00000000  ................
 2a20 00000000 00000000 00000000 00000000  ................
 2a30 00000000 00000000 00000000 00000000  ................
 2a40 00000000 00000000 00000000 00000000  ................
 2a50 00000000 00000000 00000000 00000000  ................
 2a60 00000000 00000000 00000000 00000000  ................
 2a70 00000000 00000000 00000000 00000000  ................
 2a80 00000000 00000000 00000000 00000000  ................
 2a90 00000000 00000000 00000000 00000000  ................
 2aa0 00000000 00000000 00000000 00000000  ................
 2ab0 00000000 00000000 00000000 00000000  ................
 2ac0 00000000 00000000 00000000 00000000  ................
 2ad0 00000000 00000000 00000000 00000000  ................
 2ae0 00000000 00000000 00000000 00000000  ................
 2af0 00000000 00000000 00000000 00000000  ................
 2b00 00000000 00000000 00000000 00000000  ................
 2b10 00000000 00000000 00000000 00000000  ................
 2b20 00000000 00000000 00000000 00000000  ................
 2b30 00000000 00000000 00000000 00000000  ................
 2b40 00000000 00000000 00000000 00000000  ................
 2b50 00000000 00000000 00000000 00000000  ................
 2b60 00000000 00000000 00000000 00000000  ................
 2b70 00000000 00000000 00000000 00000000  ................
 2b80 00000000 00000000 00000000 00000000  ................
 2b90 00000000 00000000 00000000 00000000  ................
 2ba0 00000000 00000000 00000000 00000000  ................
 2bb0 00000000 00000000 00000000 00000000  ................
 2bc0 00000000 00000000 00000000 00000000  ................
 2bd0 00000000 00000000 00000000 00000000  ................
 2be0 00000000 00000000 00000000 00000000  ................
 2bf0 00000000 00000000 00000000 00000000  ................
 2c00 00000000 00000000 00000000 00000000  ................
 2c10 00000000 00000000 00000000 00000000  ................
 2c20 00000000 00000000 00000000 00000000  ................
 2c30 00000000 00000000 00000000 00000000  ................
 2c40 00000000 00000000 00000000 00000000  ................
 2c50 00000000 00000000 00000000 00000000  ................
 2c60 00000000 00000000 00000000 00000000  ................
 2c70 00000000 00000000 00000000 00000000  ................
 2c80 00000000 00000000 00000000 00000000  ................
 2c90 00000000 00000000 00000000 00000000  ................
 2ca0 00000000 00000000 00000000 00000000  ................
 2cb0 00000000 00000000 00000000 00000000  ................
 2cc0 00000000 00000000 00000000 00000000  ................
 2cd0 00000000 00000000 00000000 00000000  ................
 2ce0 00000000 00000000 00000000 00000000  ................
 2cf0 00000000 00000000 00000000 00000000  ................
 2d00 00000000 00000000 00000000 00000000  ................
 2d10 00000000 00000000 00000000 00000000  ................
 2d20 00000000 00000000 00000000 00000000  ................
 2d30 00000000 00000000 00000000 00000000  ................
 2d40 00000000 00000000 00000000 00000000  ................
 2d50 00000000 00000000 00000000 00000000  ................
 2d60 00000000 00000000 00000000 00000000  ................
 2d70 00000000 00000000 00000000 00000000  ................
 2d80 00000000 00000000 00000000 00000000  ................
 2d90 00000000 00000000 00000000 00000000  ................
 2da0 00000000 00000000 00000000 00000000  ................
 2db0 00000000 00000000 00000000 00000000  ................
 2dc0 00000000 00000000 00000000 00000000  ................
 2dd0 00000000 00000000 00000000 00000000  ................
 2de0 00000000 00000000 00000000 00000000  ................
 2df0 00000000 00000000 00000000 00000000  ................
 2e00 00000000 00000000 00000000 00000000  ................
 2e10 00000000 00000000 00000000 00000000  ................
 2e20 00000000 00000000 00000000 00000000  ................
 2e30 00000000 00000000 00000000 00000000  ................
 2e40 00000000 00000000 00000000 00000000  ................
 2e50 00000000 00000000 00000000 00000000  ................
 2e60 00000000 00000000 00000000 00000000  ................
 2e70 00000000 00000000 00000000 00000000  ................
 2e80 00000000 00000000 00000000 00000000  ................
 2e90 00000000 00000000 00000000 00000000  ................
 2ea0 00000000 00000000 00000000 00000000  ................
 2eb0 00000000 00000000 00000000 00000000  ................
 2ec0 00000000 00000000 00000000 00000000  ................
 2ed0 00000000 00000000 00000000 00000000  ................
 2ee0 00000000 00000000 00000000 00000000  ................
 2ef0 00000000 00000000 00000000 00000000  ................
 2f00 00000000 00000000 00000000 00000000  ................
 2f10 00000000 00000000 00000000 00000000  ................
 2f20 00000000 00000000 00000000 00000000  ................
 2f30 00000000 00000000 00000000 00000000  ................
 2f40 00000000 00000000 00000000 00000000  ................
 2f50 00000000 00000000 00000000 00000000  ................
 2f60 00000000 00000000 00000000 00000000  ................
 2f70 00000000 00000000 00000000 00000000  ................
 2f80 00000000 00000000 00000000 00000000  ................
 2f90 00000000 00000000 00000000 00000000  ................
 2fa0 00000000 00000000 00000000 00000000  ................
 2fb0 00000000 00000000 00000000 00000000  ................
 2fc0 00000000 00000000 00000000 00000000  ................
 2fd0 00000000 00000000 00000000 00000000  ................
 2fe0 00000000 00000000 00000000 00000000  ................
 2ff0 00000000 00000000 00000000 00000000  ................
 3000 81b2d4e7 09a35c6f efbeadde efbeadde  ......\o........
 3010 efbeadde efbeadde efbeadde efbeadde  ................
 3020 efbeadde efbeadde efbeadde efbeadde  ................
 3030 efbeadde efbeadde efbeadde efbeadde  ................
 3040 efbeadde efbeadde efbeadde efbeadde  ................
 3050 efbeadde efbeadde efbeadde efbeadde  ................
 3060 efbeadde efbeadde efbeadde efbeadde  ................
 3070 efbeadde efbeadde efbeadde efbeadde  ................
 3080 efbeadde efbeadde efbeadde efbeadde  ................
 3090 efbeadde efbeadde efbeadde efbeadde  ................
 30a0 efbeadde efbeadde efbeadde efbeadde  ................
 30b0 efbeadde efbeadde efbeadde efbeadde  ................
 30c0 efbeadde efbeadde efbeadde efbeadde  ................
 30d0 efbeadde efbeadde efbeadde efbeadde  ................
 30e0 efbeadde efbeadde efbeadde efbeadde  ................
 30f0 efbeadde efbeadde efbeadde efbeadde  ................
 3100 efbeadde efbeadde 81b2d4e7 09a35c6f  ..............\o
 3110 4743433a 20285562 756e7475 2031312e  GCC: (Ubuntu 11.
 3120 322e302d 31367562 756e7475 31292031  2.0-16ubuntu1) 1
 3130 312e322e 3000412d 00000072 69736376  1.2.0.A-...riscv
 3140 00012300 00000572 76363469 3270305f  ..#....rv64i2p0_
 3150 6d327030 5f613270 305f6632 70305f64  m2p0_a2p0_f2p0_d
 3160 32703000 00000000 00000000 00000000  2p0.............
 3170 00000000 00000000 00000000 00000000  ................
 3180 00000000 03000100 00000080 00000000  ................
 3190 00000000 00000000 00000000 03000200  ................
 31a0 e00c0080 00000000 00000000 00000000  ................
 31b0 00000000 03000300 00100080 00000000  ................
 31c0 00000000 00000000 00000000 03000400  ................
 31d0 00000000 00000000 00000000 00000000  ................
 31e0 00000000 03000500 00000000 00000000  ................
 31f0 00000000 00000000 01000000 0400f1ff  ................
 3200 00000000 00000000 00000000 00000000  ................
 3210 09000000 00000100 00000080 00000000  ................
 3220 00000000 00000000 0c000000 0400f1ff  ................
 3230 00000000 00000000 00000000 00000000  ................
 3240 09000000 00000100 10000080 00000000  ................
 3250 00000000 00000000 13000000 0400f1ff  ................
 3260 00000000 00000000 00000000 00000000  ................
 3270 22000000 0000f1ff 03000000 00000000  "...............
 3280 00000000 00000000 2c000000 0000f1ff  ........,.......
 3290 01000000 00000000 00000000 00000000  ................
 32a0 36000000 0000f1ff 02000000 00000000  6...............
 32b0 00000000 00000000 09000000 00000100  ................
 32c0 40000080 00000000 00000000 00000000  @...............
 32d0 40000000 0000f1ff d0dad0ba 00000000  @...............
 32e0 00000000 00000000 45000000 0000f1ff  ........E.......
 32f0 04000000 00000000 00000000 00000000  ................
 3300 4b000000 0000f1ff 05000000 00000000  K...............
 3310 00000000 00000000 51000000 0000f1ff  ........Q.......
 3320 00000000 00000000 00000000 00000000  ................
 3330 56000000 0000f1ff 00000000 00000000  V...............
 3340 00000000 00000000 5b000000 0000f1ff  ........[.......
 3350 d0dad0ba 00000000 00000000 00000000  ................
 3360 60000000 0000f1ff 40000000 00000000  `.......@.......
 3370 00000000 00000000 64000000 0000f1ff  ........d.......
 3380 d0dad0ba 00000000 00000000 00000000  ................
 3390 6b000000 0000f1ff 01000000 00000000  k...............
 33a0 00000000 00000000 6f000000 0000f1ff  ........o.......
 33b0 d0faffff ffffffff 00000000 00000000  ................
 33c0 75000000 0000f1ff 01000000 00000000  u...............
 33d0 00000000 00000000 7a000000 0000f1ff  ........z.......
 33e0 00000000 00000000 00000000 00000000  ................
 33f0 7f000000 0000f1ff ad0dad0b 00000000  ................
 3400 00000000 00000000 86000000 0000f1ff  ................
 3410 adfdffff ffffffff 00000000 00000000  ................
 3420 8e000000 0000f1ff 01000000 00000000  ................
 3430 00000000 00000000 94000000 0000f1ff  ................
 3440 ad0dad0b 00000000 00000000 00000000  ................
 3450 9d000000 00000300 08200080 00000000  ......... ......
 3460 00000000 00000000 cd020000 0000f1ff  ................
 3470 48000000 00000000 00000000 00000000  H...............
 3480 ac000000 00000100 40040080 00000000  ........@.......
 3490 00000000 00000000 b3000000 00000300  ................
 34a0 00100080 00000000 00000000 00000000  ................
 34b0 bf000000 00000100 70040080 00000000  ........p.......
 34c0 00000000 00000000 c6000000 00000100  ................
 34d0 b0040080 00000000 00000000 00000000  ................
 34e0 cd000000 00000100 f0040080 00000000  ................
 34f0 00000000 00000000 d4000000 00000100  ................
 3500 30050080 00000000 00000000 00000000  0...............
 3510 db000000 00000100 70050080 00000000  ........p.......
 3520 00000000 00000000 e2000000 00000100  ................
 3530 b0050080 00000000 00000000 00000000  ................
 3540 e9000000 00000100 f0050080 00000000  ................
 3550 00000000 00000000 f0000000 00000100  ................
 3560 30060080 00000000 00000000 00000000  0...............
 3570 f7000000 00000100 70060080 00000000  ........p.......
 3580 00000000 00000000 fe000000 00000100  ................
 3590 b0060080 00000000 00000000 00000000  ................
 35a0 06010000 00000100 f0060080 00000000  ................
 35b0 00000000 00000000 0e010000 00000100  ................
 35c0 30070080 00000000 00000000 00000000  0...............
 35d0 16010000 00000100 70070080 00000000  ........p.......
 35e0 00000000 00000000 1e010000 00000100  ................
 35f0 b0070080 00000000 00000000 00000000  ................
 3600 26010000 00000100 f0070080 00000000  &...............
 3610 00000000 00000000 2e010000 00000100  ................
 3620 30080080 00000000 00000000 00000000  0...............
 3630 36010000 00000100 70080080 00000000  6.......p.......
 3640 00000000 00000000 3e010000 00000100  ........>.......
 3650 b0080080 00000000 00000000 00000000  ................
 3660 46010000 00000100 f0080080 00000000  F...............
 3670 00000000 00000000 4e010000 00000100  ........N.......
 3680 30090080 00000000 00000000 00000000  0...............
 3690 56010000 00000100 70090080 00000000  V.......p.......
 36a0 00000000 00000000 5e010000 00000100  ........^.......
 36b0 b0090080 00000000 00000000 00000000  ................
 36c0 66010000 00000300 c0200080 00000000  f........ ......
 36d0 00000000 00000000 75010000 00000100  ........u.......
 36e0 200a0080 00000000 00000000 00000000   ...............
 36f0 7d010000 00000100 500a0080 00000000  }.......P.......
 3700 00000000 00000000 85010000 00000100  ................
 3710 900a0080 00000000 00000000 00000000  ................
 3720 8d010000 00000100 d00a0080 00000000  ................
 3730 00000000 00000000 95010000 00000100  ................
 3740 100b0080 00000000 00000000 00000000  ................
 3750 9d010000 00000100 500b0080 00000000  ........P.......
 3760 00000000 00000000 a5010000 00000100  ................
 3770 900b0080 00000000 00000000 00000000  ................
 3780 ad010000 00000100 d00b0080 00000000  ................
 3790 00000000 00000000 b5010000 00000100  ................
 37a0 100c0080 00000000 00000000 00000000  ................
 37b0 bd010000 00000100 880c0080 00000000  ................
 37c0 00000000 00000000 ca010000 00000100  ................
 37d0 540c0080 00000000 00000000 00000000  T...............
 37e0 d6010000 00000300 10100080 00000000  ................
 37f0 00000000 00000000 e3010000 00000300  ................
 3800 00200080 00000000 00000000 00000000  . ..............
 3810 f4010000 00000300 00200080 00000000  ......... ......
 3820 00000000 00000000 05020000 00000300  ................
 3830 08200080 00000000 00000000 00000000  . ..............
 3840 14020000 00000300 08210080 00000000  .........!......
 3850 00000000 00000000 23020000 00000300  ........#.......
 3860 10210080 00000000 00000000 00000000  .!..............
 3870 32020000 0400f1ff 00000000 00000000  2...............
 3880 00000000 00000000 09000000 00000100  ................
 3890 b00c0080 00000000 00000000 00000000  ................
 38a0 09000000 00000100 bc0c0080 00000000  ................
 38b0 00000000 00000000 38020000 01000200  ........8.......
 38c0 e00c0080 00000000 01000000 00000000  ................
 38d0 41020000 12020100 bc0c0080 00000000  A...............
 38e0 20000000 00000000 4b020000 10000300   .......K.......
 38f0 00b00080 00000000 00000000 00000000  ................
 3900 5a020000 10000300 10210080 00000000  Z........!......
 3910 00000000 00000000 68020000 10000100  ........h.......
 3920 dc0c0080 00000000 00000000 00000000  ................
 3930 6f020000 1000f1ff 00000080 00000000  o...............
 3940 00000000 00000000 7b020000 10000300  ........{.......
 3950 10210080 00000000 00000000 00000000  .!..............
 3960 86020000 10000300 10210080 00000000  .........!......
 3970 00000000 00000000 8c020000 10000300  ................
 3980 00b00080 00000000 00000000 00000000  ................
 3990 98020000 10000300 00300080 00000000  .........0......
 39a0 00000000 00000000 a3020000 10000100  ................
 39b0 40000080 00000000 00000000 00000000  @...............
 39c0 25030000 10000300 00b00080 00000000  %...............
 39d0 00000000 00000000 69020000 10000100  ........i.......
 39e0 dc0c0080 00000000 00000000 00000000  ................
 39f0 b6020000 10000300 00200080 00000000  ......... ......
 3a00 00000000 00000000 74020000 12000100  ........t.......
 3a10 00000080 00000000 00000000 00000000  ................
 3a20 c6020000 1000f1ff 00000000 00000000  ................
 3a30 00000000 00000000 d4020000 10000100  ................
 3a40 40000080 00000000 00000000 00000000  @...............
 3a50 e0020000 10000100 500c0080 00000000  ........P.......
 3a60 00000000 00000000 f0020000 10000100  ................
 3a70 20040080 00000000 00000000 00000000   ...............
 3a80 02030000 12020100 10000080 00000000  ................
 3a90 14000000 00000000 07030000 10000300  ................
 3aa0 00100080 00000000 00000000 00000000  ................
 3ab0 19030000 10000300 00200080 00000000  ......... ......
 3ac0 00000000 00000000 b9000000 10000300  ................
 3ad0 10210080 00000000 00000000 00000000  .!..............
 3ae0 29030000 10000100 500c0080 00000000  ).......P.......
 3af0 00000000 00000000 24030000 10000300  ........$.......
 3b00 00b00080 00000000 00000000 00000000  ................
 3b10 39030000 12020100 b00c0080 00000000  9...............
 3b20 0c000000 00000000 00737461 72742e6f  .........start.o
 3b30 00247800 6d61696e 2e63006c 68752d61  .$x.main.c.lhu-a
 3b40 6c69676e 2d30312e 6f004d4d 4f44455f  lign-01.o.MMODE_
 3b50 53494700 534d4f44 455f5349 4700564d  SIG.SMODE_SIG.VM
 3b60 4f44455f 53494700 696d6d78 00656467  ODE_SIG.immx.edg
 3b70 65310065 64676532 00666e64 3100666e  e1.edge2.fnd1.fn
 3b80 64320069 6d6d6500 706f7300 61627369  d2.imme.pos.absi
 3b90 6d6d0063 72790069 6d6d3132 00657665  mm.cry.imm12.eve
 3ba0 6e006372 79680069 6d6d7873 6800696d  n.cryh.immxsh.im
 3bb0 6d313273 68006372 79736800 61627369  m12sh.crysh.absi
 3bc0 6d6d7368 00736967 6e617475 72655f78  mmsh.signature_x
 3bd0 375f3100 696e7374 5f300072 76746573  7_1.inst_0.rvtes
 3be0 745f6461 74610069 6e73745f 3100696e  t_data.inst_1.in
 3bf0 73745f32 00696e73 745f3300 696e7374  st_2.inst_3.inst
 3c00 5f340069 6e73745f 3500696e 73745f36  _4.inst_5.inst_6
 3c10 00696e73 745f3700 696e7374 5f380069  .inst_7.inst_8.i
 3c20 6e73745f 3900696e 73745f31 3000696e  nst_9.inst_10.in
 3c30 73745f31 3100696e 73745f31 3200696e  st_11.inst_12.in
 3c40 73745f31 3300696e 73745f31 3400696e  st_13.inst_14.in
 3c50 73745f31 3500696e 73745f31 3600696e  st_15.inst_16.in
 3c60 73745f31 3700696e 73745f31 3800696e  st_17.inst_18.in
 3c70 73745f31 3900696e 73745f32 3000696e  st_19.inst_20.in
 3c80 73745f32 3100696e 73745f32 32007369  st_21.inst_22.si
 3c90 676e6174 7572655f 78335f30 00696e73  gnature_x3_0.ins
 3ca0 745f3233 00696e73 745f3234 00696e73  t_23.inst_24.ins
 3cb0 745f3235 00696e73 745f3236 00696e73  t_25.inst_26.ins
 3cc0 745f3237 00696e73 745f3238 00696e73  t_27.inst_28.ins
 3cd0 745f3239 00696e73 745f3330 00696e73  t_29.inst_30.ins
 3ce0 745f3331 00657869 745f636c 65616e75  t_31.exit_cleanu
 3cf0 70006162 6f72745f 74657374 73006d74  p.abort_tests.mt
 3d00 7261705f 73696770 74720072 76746573  rap_sigptr.rvtes
 3d10 745f7369 675f6265 67696e00 7369675f  t_sig_begin.sig_
 3d20 62656769 6e5f6361 6e617279 00736967  begin_canary.sig
 3d30 6e617475 72655f78 375f3000 7369675f  nature_x7_0.sig_
 3d40 656e645f 63616e61 72790072 76746573  end_canary.rvtes
 3d50 745f7369 675f656e 64007472 6d2e6300  t_sig_end.trm.c.
 3d60 6d61696e 61726773 005f7472 6d5f696e  mainargs._trm_in
 3d70 6974005f 73746163 6b5f706f 696e7465  it._stack_pointe
 3d80 7200656e 645f7369 676e6174 75726500  r.end_signature.
 3d90 5f657465 7874005f 706d656d 5f737461  _etext._pmem_sta
 3da0 7274005f 6273735f 73746172 74006564  rt._bss_start.ed
 3db0 61746100 5f686561 705f7374 61727400  ata._heap_start.
 3dc0 5f737461 636b5f74 6f700072 76746573  _stack_top.rvtes
 3dd0 745f656e 7472795f 706f696e 74006265  t_entry_point.be
 3de0 67696e5f 7369676e 61747572 65005f65  gin_signature._e
 3df0 6e747279 5f6f6666 73657400 72767465  ntry_offset.rvte
 3e00 73745f69 6e697400 72767465 73745f63  st_init.rvtest_c
 3e10 6f64655f 656e6400 72767465 73745f63  ode_end.rvtest_c
 3e20 6f64655f 62656769 6e006d61 696e0072  ode_begin.main.r
 3e30 76746573 745f6461 74615f62 6567696e  vtest_data_begin
 3e40 00727674 6573745f 64617461 5f656e64  .rvtest_data_end
 3e50 00636c65 616e7570 5f657069 6c6f6773  .cleanup_epilogs
 3e60 0068616c 7400002e 73796d74 6162002e  .halt...symtab..
 3e70 73747274 6162002e 73687374 72746162  strtab..shstrtab
 3e80 002e7465 7874002e 73726f64 6174612e  ..text..srodata.
 3e90 6d61696e 61726773 002e6461 7461002e  mainargs..data..
 3ea0 636f6d6d 656e7400 2e726973 63762e61  comment..riscv.a
 3eb0 74747269 62757465 73000000 00000000  ttributes.......
 3ec0 00000000 00000000 00000000 00000000  ................
 3ed0 00000000 00000000 00000000 00000000  ................
 3ee0 00000000 00000000 00000000 00000000  ................
 3ef0 00000000 00000000 00000000 00000000  ................
 3f00 1b000000 01000000 06000000 00000000  ................
 3f10 00000080 00000000 00100000 00000000  ................
 3f20 dc0c0000 00000000 00000000 00000000  ................
 3f30 20000000 00000000 00000000 00000000   ...............
 3f40 21000000 01000000 02000000 00000000  !...............
 3f50 e00c0080 00000000 e01c0000 00000000  ................
 3f60 01000000 00000000 00000000 00000000  ................
 3f70 08000000 00000000 00000000 00000000  ................
 3f80 33000000 01000000 03000000 00000000  3...............
 3f90 00100080 00000000 00200000 00000000  ......... ......
 3fa0 10110000 00000000 00000000 00000000  ................
 3fb0 00100000 00000000 00000000 00000000  ................
 3fc0 39000000 01000000 30000000 00000000  9.......0.......
 3fd0 00000000 00000000 10310000 00000000  .........1......
 3fe0 26000000 00000000 00000000 00000000  &...............
 3ff0 01000000 00000000 01000000 00000000  ................
 4000 42000000 03000070 00000000 00000000  B......p........
 4010 00000000 00000000 36310000 00000000  ........61......
 4020 2e000000 00000000 00000000 00000000  ................
 4030 01000000 00000000 00000000 00000000  ................
 4040 01000000 02000000 00000000 00000000  ................
 4050 00000000 00000000 68310000 00000000  ........h1......
 4060 c0090000 00000000 07000000 4f000000  ............O...
 4070 08000000 00000000 18000000 00000000  ................
 4080 09000000 03000000 00000000 00000000  ................
 4090 00000000 00000000 283b0000 00000000  ........(;......
 40a0 3e030000 00000000 00000000 00000000  >...............
 40b0 01000000 00000000 00000000 00000000  ................
 40c0 11000000 03000000 00000000 00000000  ................
 40d0 00000000 00000000 663e0000 00000000  ........f>......
 40e0 54000000 00000000 00000000 00000000  T...............
 40f0 01000000 00000000 00000000 00000000  ................

Disassembly of section .data:

0000000000001000 <.data+0x1000>:
    1000:	00000413          	addi	x8,x0,0
    1004:	0000b117          	auipc	x2,0xb
    1008:	ffc10113          	addi	x2,x2,-4 # 0xc000
    100c:	4b1000ef          	jal	x1,0x1cbc
    1010:	030000ef          	jal	x1,0x1040
    1014:	00100513          	addi	x10,x0,1
    1018:	499000ef          	jal	x1,0x1cb0
    101c:	00000513          	addi	x10,x0,0
    1020:	00008067          	jalr	x0,0(x1)
	...
    1040:	feedc0b7          	lui	x1,0xfeedc
    1044:	ead08093          	addi	x1,x1,-339 # 0xfffffffffeedbead
    1048:	00b09093          	slli	x1,x1,0xb
    104c:	7f708093          	addi	x1,x1,2039
    1050:	00b09093          	slli	x1,x1,0xb
    1054:	36f08093          	addi	x1,x1,879
    1058:	00a09093          	slli	x1,x1,0xa
    105c:	2ad08093          	addi	x1,x1,685
    1060:	ff76e137          	lui	x2,0xff76e
    1064:	f5610113          	addi	x2,x2,-170 # 0xffffffffff76df56
    1068:	00b11113          	slli	x2,x2,0xb
    106c:	7fb10113          	addi	x2,x2,2043
    1070:	00b11113          	slli	x2,x2,0xb
    1074:	5b710113          	addi	x2,x2,1463
    1078:	00a11113          	slli	x2,x2,0xa
    107c:	35610113          	addi	x2,x2,854
    1080:	7fbb71b7          	lui	x3,0x7fbb7
    1084:	fab18193          	addi	x3,x3,-85 # 0x7fbb6fab
    1088:	00b19193          	slli	x3,x3,0xb
    108c:	3fd18193          	addi	x3,x3,1021
    1090:	00b19193          	slli	x3,x3,0xb
    1094:	6db18193          	addi	x3,x3,1755
    1098:	00a19193          	slli	x3,x3,0xa
    109c:	3ab18193          	addi	x3,x3,939
    10a0:	bfddb237          	lui	x4,0xbfddb
    10a4:	7d520213          	addi	x4,x4,2005 # 0xffffffffbfddb7d5
    10a8:	00b21213          	slli	x4,x4,0xb
    10ac:	5fe20213          	addi	x4,x4,1534 # 0x5fe
    10b0:	00b21213          	slli	x4,x4,0xb
    10b4:	76d20213          	addi	x4,x4,1901 # 0x76d
    10b8:	00a21213          	slli	x4,x4,0xa
    10bc:	3d520213          	addi	x4,x4,981 # 0x3d5
    10c0:	dfeee2b7          	lui	x5,0xdfeee
    10c4:	bea28293          	addi	x5,x5,-1046 # 0xffffffffdfeedbea
    10c8:	00b29293          	slli	x5,x5,0xb
    10cc:	6ff28293          	addi	x5,x5,1791
    10d0:	00b29293          	slli	x5,x5,0xb
    10d4:	3b628293          	addi	x5,x5,950
    10d8:	00a29293          	slli	x5,x5,0xa
    10dc:	3ea28293          	addi	x5,x5,1002
    10e0:	6ff77337          	lui	x6,0x6ff77
    10e4:	df530313          	addi	x6,x6,-523 # 0x6ff76df5
    10e8:	00b31313          	slli	x6,x6,0xb
    10ec:	37f30313          	addi	x6,x6,895
    10f0:	00b31313          	slli	x6,x6,0xb
    10f4:	5db30313          	addi	x6,x6,1499
    10f8:	00a31313          	slli	x6,x6,0xa
    10fc:	1f530313          	addi	x6,x6,501
    1100:	b7fbb3b7          	lui	x7,0xb7fbb
    1104:	6fa38393          	addi	x7,x7,1786 # 0xffffffffb7fbb6fa
    1108:	00b39393          	slli	x7,x7,0xb
    110c:	5bf38393          	addi	x7,x7,1471
    1110:	00b39393          	slli	x7,x7,0xb
    1114:	6ed38393          	addi	x7,x7,1773
    1118:	00a39393          	slli	x7,x7,0xa
    111c:	2fa38393          	addi	x7,x7,762
    1120:	5bfde437          	lui	x8,0x5bfde
    1124:	b7d40413          	addi	x8,x8,-1155 # 0x5bfddb7d
    1128:	00b41413          	slli	x8,x8,0xb
    112c:	2df40413          	addi	x8,x8,735
    1130:	00b41413          	slli	x8,x8,0xb
    1134:	77640413          	addi	x8,x8,1910
    1138:	00a41413          	slli	x8,x8,0xa
    113c:	37d40413          	addi	x8,x8,893
    1140:	adfef4b7          	lui	x9,0xadfef
    1144:	dbe48493          	addi	x9,x9,-578 # 0xffffffffadfeedbe
    1148:	00b49493          	slli	x9,x9,0xb
    114c:	56f48493          	addi	x9,x9,1391
    1150:	00b49493          	slli	x9,x9,0xb
    1154:	7bb48493          	addi	x9,x9,1979
    1158:	00a49493          	slli	x9,x9,0xa
    115c:	1be48493          	addi	x9,x9,446
    1160:	56ff7537          	lui	x10,0x56ff7
    1164:	6df50513          	addi	x10,x10,1759 # 0x56ff76df
    1168:	00b51513          	slli	x10,x10,0xb
    116c:	2b750513          	addi	x10,x10,695
    1170:	00b51513          	slli	x10,x10,0xb
    1174:	7dd50513          	addi	x10,x10,2013
    1178:	00a51513          	slli	x10,x10,0xa
    117c:	2df50513          	addi	x10,x10,735
    1180:	ab7fc5b7          	lui	x11,0xab7fc
    1184:	b6f58593          	addi	x11,x11,-1169 # 0xffffffffab7fbb6f
    1188:	00b59593          	slli	x11,x11,0xb
    118c:	55b58593          	addi	x11,x11,1371
    1190:	00b59593          	slli	x11,x11,0xb
    1194:	7ee58593          	addi	x11,x11,2030
    1198:	00a59593          	slli	x11,x11,0xa
    119c:	36f58593          	addi	x11,x11,879
    11a0:	d5bfe637          	lui	x12,0xd5bfe
    11a4:	db760613          	addi	x12,x12,-585 # 0xffffffffd5bfddb7
    11a8:	00b61613          	slli	x12,x12,0xb
    11ac:	6ad60613          	addi	x12,x12,1709
    11b0:	00b61613          	slli	x12,x12,0xb
    11b4:	7f760613          	addi	x12,x12,2039
    11b8:	00a61613          	slli	x12,x12,0xa
    11bc:	1b760613          	addi	x12,x12,439
    11c0:	eadff6b7          	lui	x13,0xeadff
    11c4:	edb68693          	addi	x13,x13,-293 # 0xffffffffeadfeedb
    11c8:	00b69693          	slli	x13,x13,0xb
    11cc:	75668693          	addi	x13,x13,1878
    11d0:	00b69693          	slli	x13,x13,0xb
    11d4:	7fb68693          	addi	x13,x13,2043
    11d8:	00a69693          	slli	x13,x13,0xa
    11dc:	2db68693          	addi	x13,x13,731
    11e0:	f56ff737          	lui	x14,0xf56ff
    11e4:	76d70713          	addi	x14,x14,1901 # 0xfffffffff56ff76d
    11e8:	00b71713          	slli	x14,x14,0xb
    11ec:	7ab70713          	addi	x14,x14,1963
    11f0:	00b71713          	slli	x14,x14,0xb
    11f4:	3fd70713          	addi	x14,x14,1021
    11f8:	00a71713          	slli	x14,x14,0xa
    11fc:	36d70713          	addi	x14,x14,877
    1200:	fab807b7          	lui	x15,0xfab80
    1204:	bb678793          	addi	x15,x15,-1098 # 0xfffffffffab7fbb6
    1208:	00b79793          	slli	x15,x15,0xb
    120c:	7d578793          	addi	x15,x15,2005
    1210:	00b79793          	slli	x15,x15,0xb
    1214:	5fe78793          	addi	x15,x15,1534
    1218:	00a79793          	slli	x15,x15,0xa
    121c:	3b678793          	addi	x15,x15,950
    1220:	7d5c0837          	lui	x16,0x7d5c0
    1224:	ddb80813          	addi	x16,x16,-549 # 0x7d5bfddb
    1228:	00b81813          	slli	x16,x16,0xb
    122c:	3ea80813          	addi	x16,x16,1002
    1230:	00b81813          	slli	x16,x16,0xb
    1234:	6ff80813          	addi	x16,x16,1791
    1238:	00a81813          	slli	x16,x16,0xa
    123c:	1db80813          	addi	x16,x16,475
    1240:	beae08b7          	lui	x17,0xbeae0
    1244:	eed88893          	addi	x17,x17,-275 # 0xffffffffbeadfeed
    1248:	00b89893          	slli	x17,x17,0xb
    124c:	5f588893          	addi	x17,x17,1525
    1250:	00b89893          	slli	x17,x17,0xb
    1254:	37f88893          	addi	x17,x17,895
    1258:	00a89893          	slli	x17,x17,0xa
    125c:	2ed88893          	addi	x17,x17,749
    1260:	df570937          	lui	x18,0xdf570
    1264:	f7690913          	addi	x18,x18,-138 # 0xffffffffdf56ff76
    1268:	00b91913          	slli	x18,x18,0xb
    126c:	6fa90913          	addi	x18,x18,1786
    1270:	00b91913          	slli	x18,x18,0xb
    1274:	5bf90913          	addi	x18,x18,1471
    1278:	00a91913          	slli	x18,x18,0xa
    127c:	37690913          	addi	x18,x18,886
    1280:	6fab89b7          	lui	x19,0x6fab8
    1284:	fbb98993          	addi	x19,x19,-69 # 0x6fab7fbb
    1288:	00b99993          	slli	x19,x19,0xb
    128c:	37d98993          	addi	x19,x19,893
    1290:	00b99993          	slli	x19,x19,0xb
    1294:	2df98993          	addi	x19,x19,735
    1298:	00a99993          	slli	x19,x19,0xa
    129c:	3bb98993          	addi	x19,x19,955
    12a0:	b7d5ca37          	lui	x20,0xb7d5c
    12a4:	fdda0a13          	addi	x20,x20,-35 # 0xffffffffb7d5bfdd
    12a8:	00ba1a13          	slli	x20,x20,0xb
    12ac:	5bea0a13          	addi	x20,x20,1470
    12b0:	00ba1a13          	slli	x20,x20,0xb
    12b4:	56fa0a13          	addi	x20,x20,1391
    12b8:	00aa1a13          	slli	x20,x20,0xa
    12bc:	3dda0a13          	addi	x20,x20,989
    12c0:	dbeaeab7          	lui	x21,0xdbeae
    12c4:	feea8a93          	addi	x21,x21,-18 # 0xffffffffdbeadfee
    12c8:	00ba9a93          	slli	x21,x21,0xb
    12cc:	6dfa8a93          	addi	x21,x21,1759
    12d0:	00ba9a93          	slli	x21,x21,0xb
    12d4:	2b7a8a93          	addi	x21,x21,695
    12d8:	00aa9a93          	slli	x21,x21,0xa
    12dc:	3eea8a93          	addi	x21,x21,1006
    12e0:	6df57b37          	lui	x22,0x6df57
    12e4:	ff7b0b13          	addi	x22,x22,-9 # 0x6df56ff7
    12e8:	00bb1b13          	slli	x22,x22,0xb
    12ec:	36fb0b13          	addi	x22,x22,879
    12f0:	00bb1b13          	slli	x22,x22,0xb
    12f4:	55bb0b13          	addi	x22,x22,1371
    12f8:	00ab1b13          	slli	x22,x22,0xa
    12fc:	3f7b0b13          	addi	x22,x22,1015
    1300:	b6fabbb7          	lui	x23,0xb6fab
    1304:	7fbb8b93          	addi	x23,x23,2043 # 0xffffffffb6fab7fb
    1308:	00bb9b93          	slli	x23,x23,0xb
    130c:	5b7b8b93          	addi	x23,x23,1463
    1310:	00bb9b93          	slli	x23,x23,0xb
    1314:	6adb8b93          	addi	x23,x23,1709
    1318:	00ab9b93          	slli	x23,x23,0xa
    131c:	3fbb8b93          	addi	x23,x23,1019
    1320:	db7d6c37          	lui	x24,0xdb7d6
    1324:	bfdc0c13          	addi	x24,x24,-1027 # 0xffffffffdb7d5bfd
    1328:	00bc1c13          	slli	x24,x24,0xb
    132c:	6dbc0c13          	addi	x24,x24,1755
    1330:	00bc1c13          	slli	x24,x24,0xb
    1334:	756c0c13          	addi	x24,x24,1878
    1338:	00ac1c13          	slli	x24,x24,0xa
    133c:	3fdc0c13          	addi	x24,x24,1021
    1340:	edbebcb7          	lui	x25,0xedbeb
    1344:	dfec8c93          	addi	x25,x25,-514 # 0xffffffffedbeadfe
    1348:	00bc9c93          	slli	x25,x25,0xb
    134c:	76dc8c93          	addi	x25,x25,1901
    1350:	00bc9c93          	slli	x25,x25,0xb
    1354:	7abc8c93          	addi	x25,x25,1963
    1358:	00ac9c93          	slli	x25,x25,0xa
    135c:	1fec8c93          	addi	x25,x25,510
    1360:	76df5d37          	lui	x26,0x76df5
    1364:	6ffd0d13          	addi	x26,x26,1791 # 0x76df56ff
    1368:	00bd1d13          	slli	x26,x26,0xb
    136c:	3b6d0d13          	addi	x26,x26,950
    1370:	00bd1d13          	slli	x26,x26,0xb
    1374:	7d5d0d13          	addi	x26,x26,2005
    1378:	00ad1d13          	slli	x26,x26,0xa
    137c:	2ffd0d13          	addi	x26,x26,767
    1380:	bb6fbdb7          	lui	x27,0xbb6fb
    1384:	b7fd8d93          	addi	x27,x27,-1153 # 0xffffffffbb6fab7f
    1388:	00bd9d93          	slli	x27,x27,0xb
    138c:	5dbd8d93          	addi	x27,x27,1499
    1390:	00bd9d93          	slli	x27,x27,0xb
    1394:	3ead8d93          	addi	x27,x27,1002
    1398:	00ad9d93          	slli	x27,x27,0xa
    139c:	37fd8d93          	addi	x27,x27,895
    13a0:	ddb7de37          	lui	x28,0xddb7d
    13a4:	5bfe0e13          	addi	x28,x28,1471 # 0xffffffffddb7d5bf
    13a8:	00be1e13          	slli	x28,x28,0xb
    13ac:	6ede0e13          	addi	x28,x28,1773
    13b0:	00be1e13          	slli	x28,x28,0xb
    13b4:	5f5e0e13          	addi	x28,x28,1525
    13b8:	00ae1e13          	slli	x28,x28,0xa
    13bc:	1bfe0e13          	addi	x28,x28,447
    13c0:	eedbfeb7          	lui	x29,0xeedbf
    13c4:	adfe8e93          	addi	x29,x29,-1313 # 0xffffffffeedbeadf
    13c8:	00be9e93          	slli	x29,x29,0xb
    13cc:	776e8e93          	addi	x29,x29,1910
    13d0:	00be9e93          	slli	x29,x29,0xb
    13d4:	6fae8e93          	addi	x29,x29,1786
    13d8:	00ae9e93          	slli	x29,x29,0xa
    13dc:	2dfe8e93          	addi	x29,x29,735
    13e0:	f76dff37          	lui	x30,0xf76df
    13e4:	56ff0f13          	addi	x30,x30,1391 # 0xfffffffff76df56f
    13e8:	00bf1f13          	slli	x30,x30,0xb
    13ec:	7bbf0f13          	addi	x30,x30,1979
    13f0:	00bf1f13          	slli	x30,x30,0xb
    13f4:	37df0f13          	addi	x30,x30,893
    13f8:	00af1f13          	slli	x30,x30,0xa
    13fc:	16ff0f13          	addi	x30,x30,367
    1400:	fbb70fb7          	lui	x31,0xfbb70
    1404:	ab7f8f93          	addi	x31,x31,-1353 # 0xfffffffffbb6fab7
    1408:	00bf9f93          	slli	x31,x31,0xb
    140c:	7ddf8f93          	addi	x31,x31,2013
    1410:	00bf9f93          	slli	x31,x31,0xb
    1414:	5bef8f93          	addi	x31,x31,1470
    1418:	00af9f93          	slli	x31,x31,0xa
    141c:	2b7f8f93          	addi	x31,x31,695
    1420:	00002397          	auipc	x7,0x2
    1424:	be838393          	addi	x7,x7,-1048 # 0x3008
    1428:	00000013          	addi	x0,x0,0
    142c:	00000013          	addi	x0,x0,0
    1430:	00000013          	addi	x0,x0,0
    1434:	00000013          	addi	x0,x0,0
    1438:	00000013          	addi	x0,x0,0
    143c:	00000013          	addi	x0,x0,0
    1440:	00001897          	auipc	x17,0x1
    1444:	bc888893          	addi	x17,x17,-1080 # 0x2008
    1448:	00000013          	addi	x0,x0,0
    144c:	00000013          	addi	x0,x0,0
    1450:	00000013          	addi	x0,x0,0
    1454:	00000013          	addi	x0,x0,0
    1458:	00000013          	addi	x0,x0,0
    145c:	00000013          	addi	x0,x0,0
    1460:	ff88d883          	lhu	x17,-8(x17)
    1464:	00000013          	addi	x0,x0,0
    1468:	00000013          	addi	x0,x0,0
    146c:	0113b023          	sd	x17,0(x7)
    1470:	00000013          	addi	x0,x0,0
    1474:	00000013          	addi	x0,x0,0
    1478:	00000013          	addi	x0,x0,0
    147c:	00000013          	addi	x0,x0,0
    1480:	00001197          	auipc	x3,0x1
    1484:	b8318193          	addi	x3,x3,-1149 # 0x2003
    1488:	00000013          	addi	x0,x0,0
    148c:	00000013          	addi	x0,x0,0
    1490:	00000013          	addi	x0,x0,0
    1494:	00000013          	addi	x0,x0,0
    1498:	00000013          	addi	x0,x0,0
    149c:	00000013          	addi	x0,x0,0
    14a0:	ffd1d783          	lhu	x15,-3(x3)
    14a4:	00000013          	addi	x0,x0,0
    14a8:	00000013          	addi	x0,x0,0
    14ac:	00f3b423          	sd	x15,8(x7)
    14b0:	00000013          	addi	x0,x0,0
    14b4:	00000013          	addi	x0,x0,0
    14b8:	00000013          	addi	x0,x0,0
    14bc:	00000013          	addi	x0,x0,0
    14c0:	00001297          	auipc	x5,0x1
    14c4:	b3a28293          	addi	x5,x5,-1222 # 0x1ffa
    14c8:	00000013          	addi	x0,x0,0
    14cc:	00000013          	addi	x0,x0,0
    14d0:	00000013          	addi	x0,x0,0
    14d4:	00000013          	addi	x0,x0,0
    14d8:	00000013          	addi	x0,x0,0
    14dc:	00000013          	addi	x0,x0,0
    14e0:	0062de83          	lhu	x29,6(x5)
    14e4:	00000013          	addi	x0,x0,0
    14e8:	00000013          	addi	x0,x0,0
    14ec:	01d3b823          	sd	x29,16(x7)
    14f0:	00000013          	addi	x0,x0,0
    14f4:	00000013          	addi	x0,x0,0
    14f8:	00000013          	addi	x0,x0,0
    14fc:	00000013          	addi	x0,x0,0
    1500:	00001417          	auipc	x8,0x1
    1504:	b4140413          	addi	x8,x8,-1215 # 0x2041
    1508:	00000013          	addi	x0,x0,0
    150c:	00000013          	addi	x0,x0,0
    1510:	00000013          	addi	x0,x0,0
    1514:	00000013          	addi	x0,x0,0
    1518:	00000013          	addi	x0,x0,0
    151c:	00000013          	addi	x0,x0,0
    1520:	fbf45f03          	lhu	x30,-65(x8)
    1524:	00000013          	addi	x0,x0,0
    1528:	00000013          	addi	x0,x0,0
    152c:	01e3bc23          	sd	x30,24(x7)
    1530:	00000013          	addi	x0,x0,0
    1534:	00000013          	addi	x0,x0,0
    1538:	00000013          	addi	x0,x0,0
    153c:	00000013          	addi	x0,x0,0
    1540:	00001997          	auipc	x19,0x1
    1544:	ac298993          	addi	x19,x19,-1342 # 0x2002
    1548:	00000013          	addi	x0,x0,0
    154c:	00000013          	addi	x0,x0,0
    1550:	00000013          	addi	x0,x0,0
    1554:	00000013          	addi	x0,x0,0
    1558:	00000013          	addi	x0,x0,0
    155c:	00000013          	addi	x0,x0,0
    1560:	0009d403          	lhu	x8,0(x19)
    1564:	00000013          	addi	x0,x0,0
    1568:	00000013          	addi	x0,x0,0
    156c:	0283b023          	sd	x8,32(x7)
    1570:	00000013          	addi	x0,x0,0
    1574:	00000013          	addi	x0,x0,0
    1578:	00000013          	addi	x0,x0,0
    157c:	00000013          	addi	x0,x0,0
    1580:	00001497          	auipc	x9,0x1
    1584:	a8148493          	addi	x9,x9,-1407 # 0x2001
    1588:	00000013          	addi	x0,x0,0
    158c:	00000013          	addi	x0,x0,0
    1590:	00000013          	addi	x0,x0,0
    1594:	00000013          	addi	x0,x0,0
    1598:	00000013          	addi	x0,x0,0
    159c:	00000013          	addi	x0,x0,0
    15a0:	0014d103          	lhu	x2,1(x9)
    15a4:	00000013          	addi	x0,x0,0
    15a8:	00000013          	addi	x0,x0,0
    15ac:	0223b423          	sd	x2,40(x7)
    15b0:	00000013          	addi	x0,x0,0
    15b4:	00000013          	addi	x0,x0,0
    15b8:	00000013          	addi	x0,x0,0
    15bc:	00000013          	addi	x0,x0,0
    15c0:	00001217          	auipc	x4,0x1
    15c4:	a4420213          	addi	x4,x4,-1468 # 0x2004
    15c8:	00000013          	addi	x0,x0,0
    15cc:	00000013          	addi	x0,x0,0
    15d0:	00000013          	addi	x0,x0,0
    15d4:	00000013          	addi	x0,x0,0
    15d8:	00000013          	addi	x0,x0,0
    15dc:	00000013          	addi	x0,x0,0
    15e0:	ffe25483          	lhu	x9,-2(x4) # 0xfffffffffffffffe
    15e4:	00000013          	addi	x0,x0,0
    15e8:	00000013          	addi	x0,x0,0
    15ec:	0293b823          	sd	x9,48(x7)
    15f0:	00000013          	addi	x0,x0,0
    15f4:	00000013          	addi	x0,x0,0
    15f8:	00000013          	addi	x0,x0,0
    15fc:	00000013          	addi	x0,x0,0
    1600:	00001817          	auipc	x16,0x1
    1604:	a0380813          	addi	x16,x16,-1533 # 0x2003
    1608:	00000013          	addi	x0,x0,0
    160c:	00000013          	addi	x0,x0,0
    1610:	00000013          	addi	x0,x0,0
    1614:	00000013          	addi	x0,x0,0
    1618:	00000013          	addi	x0,x0,0
    161c:	00000013          	addi	x0,x0,0
    1620:	fff85c03          	lhu	x24,-1(x16)
    1624:	00000013          	addi	x0,x0,0
    1628:	00000013          	addi	x0,x0,0
    162c:	0383bc23          	sd	x24,56(x7)
    1630:	00000013          	addi	x0,x0,0
    1634:	00000013          	addi	x0,x0,0
    1638:	00000013          	addi	x0,x0,0
    163c:	00000013          	addi	x0,x0,0
    1640:	00001c17          	auipc	x24,0x1
    1644:	1c0c0c13          	addi	x24,x24,448 # 0x2800
    1648:	00000013          	addi	x0,x0,0
    164c:	00000013          	addi	x0,x0,0
    1650:	00000013          	addi	x0,x0,0
    1654:	00000013          	addi	x0,x0,0
    1658:	00000013          	addi	x0,x0,0
    165c:	00000013          	addi	x0,x0,0
    1660:	800c5d03          	lhu	x26,-2048(x24)
    1664:	00000013          	addi	x0,x0,0
    1668:	00000013          	addi	x0,x0,0
    166c:	05a3b023          	sd	x26,64(x7)
    1670:	00000013          	addi	x0,x0,0
    1674:	00000013          	addi	x0,x0,0
    1678:	00000013          	addi	x0,x0,0
    167c:	00000013          	addi	x0,x0,0
    1680:	00001917          	auipc	x18,0x1
    1684:	18090913          	addi	x18,x18,384 # 0x2800
    1688:	00000013          	addi	x0,x0,0
    168c:	00000013          	addi	x0,x0,0
    1690:	00000013          	addi	x0,x0,0
    1694:	00000013          	addi	x0,x0,0
    1698:	00000013          	addi	x0,x0,0
    169c:	00000013          	addi	x0,x0,0
    16a0:	80095003          	lhu	x0,-2048(x18)
    16a4:	00000013          	addi	x0,x0,0
    16a8:	00000013          	addi	x0,x0,0
    16ac:	0403b423          	sd	x0,72(x7)
    16b0:	00000013          	addi	x0,x0,0
    16b4:	00000013          	addi	x0,x0,0
    16b8:	00000013          	addi	x0,x0,0
    16bc:	00000013          	addi	x0,x0,0
    16c0:	00001f97          	auipc	x31,0x1
    16c4:	140f8f93          	addi	x31,x31,320 # 0x2800
    16c8:	00000013          	addi	x0,x0,0
    16cc:	00000013          	addi	x0,x0,0
    16d0:	00000013          	addi	x0,x0,0
    16d4:	00000013          	addi	x0,x0,0
    16d8:	00000013          	addi	x0,x0,0
    16dc:	00000013          	addi	x0,x0,0
    16e0:	800fd703          	lhu	x14,-2048(x31)
    16e4:	00000013          	addi	x0,x0,0
    16e8:	00000013          	addi	x0,x0,0
    16ec:	04e3b823          	sd	x14,80(x7)
    16f0:	00000013          	addi	x0,x0,0
    16f4:	00000013          	addi	x0,x0,0
    16f8:	00000013          	addi	x0,x0,0
    16fc:	00000013          	addi	x0,x0,0
    1700:	00001717          	auipc	x14,0x1
    1704:	10070713          	addi	x14,x14,256 # 0x2800
    1708:	00000013          	addi	x0,x0,0
    170c:	00000013          	addi	x0,x0,0
    1710:	00000013          	addi	x0,x0,0
    1714:	00000013          	addi	x0,x0,0
    1718:	00000013          	addi	x0,x0,0
    171c:	00000013          	addi	x0,x0,0
    1720:	80075d83          	lhu	x27,-2048(x14)
    1724:	00000013          	addi	x0,x0,0
    1728:	00000013          	addi	x0,x0,0
    172c:	05b3bc23          	sd	x27,88(x7)
    1730:	00000013          	addi	x0,x0,0
    1734:	00000013          	addi	x0,x0,0
    1738:	00000013          	addi	x0,x0,0
    173c:	00000013          	addi	x0,x0,0
    1740:	00001e97          	auipc	x29,0x1
    1744:	0c0e8e93          	addi	x29,x29,192 # 0x2800
    1748:	00000013          	addi	x0,x0,0
    174c:	00000013          	addi	x0,x0,0
    1750:	00000013          	addi	x0,x0,0
    1754:	00000013          	addi	x0,x0,0
    1758:	00000013          	addi	x0,x0,0
    175c:	00000013          	addi	x0,x0,0
    1760:	800ed283          	lhu	x5,-2048(x29)
    1764:	00000013          	addi	x0,x0,0
    1768:	00000013          	addi	x0,x0,0
    176c:	0653b023          	sd	x5,96(x7)
    1770:	00000013          	addi	x0,x0,0
    1774:	00000013          	addi	x0,x0,0
    1778:	00000013          	addi	x0,x0,0
    177c:	00000013          	addi	x0,x0,0
    1780:	00001097          	auipc	x1,0x1
    1784:	08008093          	addi	x1,x1,128 # 0x2800
    1788:	00000013          	addi	x0,x0,0
    178c:	00000013          	addi	x0,x0,0
    1790:	00000013          	addi	x0,x0,0
    1794:	00000013          	addi	x0,x0,0
    1798:	00000013          	addi	x0,x0,0
    179c:	00000013          	addi	x0,x0,0
    17a0:	8000dc83          	lhu	x25,-2048(x1)
    17a4:	00000013          	addi	x0,x0,0
    17a8:	00000013          	addi	x0,x0,0
    17ac:	0793b423          	sd	x25,104(x7)
    17b0:	00000013          	addi	x0,x0,0
    17b4:	00000013          	addi	x0,x0,0
    17b8:	00000013          	addi	x0,x0,0
    17bc:	00000013          	addi	x0,x0,0
    17c0:	00001317          	auipc	x6,0x1
    17c4:	04030313          	addi	x6,x6,64 # 0x2800
    17c8:	00000013          	addi	x0,x0,0
    17cc:	00000013          	addi	x0,x0,0
    17d0:	00000013          	addi	x0,x0,0
    17d4:	00000013          	addi	x0,x0,0
    17d8:	00000013          	addi	x0,x0,0
    17dc:	00000013          	addi	x0,x0,0
    17e0:	80035583          	lhu	x11,-2048(x6)
    17e4:	00000013          	addi	x0,x0,0
    17e8:	00000013          	addi	x0,x0,0
    17ec:	06b3b823          	sd	x11,112(x7)
    17f0:	00000013          	addi	x0,x0,0
    17f4:	00000013          	addi	x0,x0,0
    17f8:	00000013          	addi	x0,x0,0
    17fc:	00000013          	addi	x0,x0,0
    1800:	00001f17          	auipc	x30,0x1
    1804:	000f0f13          	addi	x30,x30,0 # 0x2800
    1808:	00000013          	addi	x0,x0,0
    180c:	00000013          	addi	x0,x0,0
    1810:	00000013          	addi	x0,x0,0
    1814:	00000013          	addi	x0,x0,0
    1818:	00000013          	addi	x0,x0,0
    181c:	00000013          	addi	x0,x0,0
    1820:	800f5a83          	lhu	x21,-2048(x30)
    1824:	00000013          	addi	x0,x0,0
    1828:	00000013          	addi	x0,x0,0
    182c:	0753bc23          	sd	x21,120(x7)
    1830:	00000013          	addi	x0,x0,0
    1834:	00000013          	addi	x0,x0,0
    1838:	00000013          	addi	x0,x0,0
    183c:	00000013          	addi	x0,x0,0
    1840:	00001b97          	auipc	x23,0x1
    1844:	fc0b8b93          	addi	x23,x23,-64 # 0x2800
    1848:	00000013          	addi	x0,x0,0
    184c:	00000013          	addi	x0,x0,0
    1850:	00000013          	addi	x0,x0,0
    1854:	00000013          	addi	x0,x0,0
    1858:	00000013          	addi	x0,x0,0
    185c:	00000013          	addi	x0,x0,0
    1860:	800bda03          	lhu	x20,-2048(x23)
    1864:	00000013          	addi	x0,x0,0
    1868:	00000013          	addi	x0,x0,0
    186c:	0943b023          	sd	x20,128(x7)
    1870:	00000013          	addi	x0,x0,0
    1874:	00000013          	addi	x0,x0,0
    1878:	00000013          	addi	x0,x0,0
    187c:	00000013          	addi	x0,x0,0
    1880:	00001597          	auipc	x11,0x1
    1884:	f8058593          	addi	x11,x11,-128 # 0x2800
    1888:	00000013          	addi	x0,x0,0
    188c:	00000013          	addi	x0,x0,0
    1890:	00000013          	addi	x0,x0,0
    1894:	00000013          	addi	x0,x0,0
    1898:	00000013          	addi	x0,x0,0
    189c:	00000013          	addi	x0,x0,0
    18a0:	8005db03          	lhu	x22,-2048(x11)
    18a4:	00000013          	addi	x0,x0,0
    18a8:	00000013          	addi	x0,x0,0
    18ac:	0963b423          	sd	x22,136(x7)
    18b0:	00000013          	addi	x0,x0,0
    18b4:	00000013          	addi	x0,x0,0
    18b8:	00000013          	addi	x0,x0,0
    18bc:	00000013          	addi	x0,x0,0
    18c0:	00001b17          	auipc	x22,0x1
    18c4:	f40b0b13          	addi	x22,x22,-192 # 0x2800
    18c8:	00000013          	addi	x0,x0,0
    18cc:	00000013          	addi	x0,x0,0
    18d0:	00000013          	addi	x0,x0,0
    18d4:	00000013          	addi	x0,x0,0
    18d8:	00000013          	addi	x0,x0,0
    18dc:	00000013          	addi	x0,x0,0
    18e0:	800b5983          	lhu	x19,-2048(x22)
    18e4:	00000013          	addi	x0,x0,0
    18e8:	00000013          	addi	x0,x0,0
    18ec:	0933b823          	sd	x19,144(x7)
    18f0:	00000013          	addi	x0,x0,0
    18f4:	00000013          	addi	x0,x0,0
    18f8:	00000013          	addi	x0,x0,0
    18fc:	00000013          	addi	x0,x0,0
    1900:	00001a17          	auipc	x20,0x1
    1904:	f00a0a13          	addi	x20,x20,-256 # 0x2800
    1908:	00000013          	addi	x0,x0,0
    190c:	00000013          	addi	x0,x0,0
    1910:	00000013          	addi	x0,x0,0
    1914:	00000013          	addi	x0,x0,0
    1918:	00000013          	addi	x0,x0,0
    191c:	00000013          	addi	x0,x0,0
    1920:	800a5303          	lhu	x6,-2048(x20)
    1924:	00000013          	addi	x0,x0,0
    1928:	00000013          	addi	x0,x0,0
    192c:	0863bc23          	sd	x6,152(x7)
    1930:	00000013          	addi	x0,x0,0
    1934:	00000013          	addi	x0,x0,0
    1938:	00000013          	addi	x0,x0,0
    193c:	00000013          	addi	x0,x0,0
    1940:	00001797          	auipc	x15,0x1
    1944:	ec078793          	addi	x15,x15,-320 # 0x2800
    1948:	00000013          	addi	x0,x0,0
    194c:	00000013          	addi	x0,x0,0
    1950:	00000013          	addi	x0,x0,0
    1954:	00000013          	addi	x0,x0,0
    1958:	00000013          	addi	x0,x0,0
    195c:	00000013          	addi	x0,x0,0
    1960:	8007d183          	lhu	x3,-2048(x15)
    1964:	00000013          	addi	x0,x0,0
    1968:	00000013          	addi	x0,x0,0
    196c:	0a33b023          	sd	x3,160(x7)
    1970:	00000013          	addi	x0,x0,0
    1974:	00000013          	addi	x0,x0,0
    1978:	00000013          	addi	x0,x0,0
    197c:	00000013          	addi	x0,x0,0
    1980:	00001d97          	auipc	x27,0x1
    1984:	e80d8d93          	addi	x27,x27,-384 # 0x2800
    1988:	00000013          	addi	x0,x0,0
    198c:	00000013          	addi	x0,x0,0
    1990:	00000013          	addi	x0,x0,0
    1994:	00000013          	addi	x0,x0,0
    1998:	00000013          	addi	x0,x0,0
    199c:	00000013          	addi	x0,x0,0
    19a0:	800dd203          	lhu	x4,-2048(x27)
    19a4:	00000013          	addi	x0,x0,0
    19a8:	00000013          	addi	x0,x0,0
    19ac:	0a43b423          	sd	x4,168(x7)
    19b0:	00000013          	addi	x0,x0,0
    19b4:	00000013          	addi	x0,x0,0
    19b8:	00000013          	addi	x0,x0,0
    19bc:	00000013          	addi	x0,x0,0
    19c0:	00001697          	auipc	x13,0x1
    19c4:	e4068693          	addi	x13,x13,-448 # 0x2800
    19c8:	00000013          	addi	x0,x0,0
    19cc:	00000013          	addi	x0,x0,0
    19d0:	00000013          	addi	x0,x0,0
    19d4:	00000013          	addi	x0,x0,0
    19d8:	00000013          	addi	x0,x0,0
    19dc:	00000013          	addi	x0,x0,0
    19e0:	8006de03          	lhu	x28,-2048(x13)
    19e4:	00000013          	addi	x0,x0,0
    19e8:	00000013          	addi	x0,x0,0
    19ec:	0bc3b823          	sd	x28,176(x7)
    19f0:	00000013          	addi	x0,x0,0
    19f4:	00000013          	addi	x0,x0,0
    19f8:	00000013          	addi	x0,x0,0
    19fc:	00000013          	addi	x0,x0,0
    1a00:	00001197          	auipc	x3,0x1
    1a04:	6c018193          	addi	x3,x3,1728 # 0x30c0
    1a08:	00000013          	addi	x0,x0,0
    1a0c:	00000013          	addi	x0,x0,0
    1a10:	00000013          	addi	x0,x0,0
    1a14:	00000013          	addi	x0,x0,0
    1a18:	00000013          	addi	x0,x0,0
    1a1c:	00000013          	addi	x0,x0,0
    1a20:	00001117          	auipc	x2,0x1
    1a24:	de010113          	addi	x2,x2,-544 # 0x2800
    1a28:	00000013          	addi	x0,x0,0
    1a2c:	00000013          	addi	x0,x0,0
    1a30:	00000013          	addi	x0,x0,0
    1a34:	00000013          	addi	x0,x0,0
    1a38:	00000013          	addi	x0,x0,0
    1a3c:	00000013          	addi	x0,x0,0
    1a40:	80015b83          	lhu	x23,-2048(x2)
    1a44:	00000013          	addi	x0,x0,0
    1a48:	00000013          	addi	x0,x0,0
    1a4c:	0171b023          	sd	x23,0(x3)
    1a50:	00000013          	addi	x0,x0,0
    1a54:	00000013          	addi	x0,x0,0
    1a58:	00000013          	addi	x0,x0,0
    1a5c:	00000013          	addi	x0,x0,0
    1a60:	00001d17          	auipc	x26,0x1
    1a64:	da0d0d13          	addi	x26,x26,-608 # 0x2800
    1a68:	00000013          	addi	x0,x0,0
    1a6c:	00000013          	addi	x0,x0,0
    1a70:	00000013          	addi	x0,x0,0
    1a74:	00000013          	addi	x0,x0,0
    1a78:	00000013          	addi	x0,x0,0
    1a7c:	00000013          	addi	x0,x0,0
    1a80:	800d5f83          	lhu	x31,-2048(x26)
    1a84:	00000013          	addi	x0,x0,0
    1a88:	00000013          	addi	x0,x0,0
    1a8c:	01f1b423          	sd	x31,8(x3)
    1a90:	00000013          	addi	x0,x0,0
    1a94:	00000013          	addi	x0,x0,0
    1a98:	00000013          	addi	x0,x0,0
    1a9c:	00000013          	addi	x0,x0,0
    1aa0:	00001a97          	auipc	x21,0x1
    1aa4:	d60a8a93          	addi	x21,x21,-672 # 0x2800
    1aa8:	00000013          	addi	x0,x0,0
    1aac:	00000013          	addi	x0,x0,0
    1ab0:	00000013          	addi	x0,x0,0
    1ab4:	00000013          	addi	x0,x0,0
    1ab8:	00000013          	addi	x0,x0,0
    1abc:	00000013          	addi	x0,x0,0
    1ac0:	800ad683          	lhu	x13,-2048(x21)
    1ac4:	00000013          	addi	x0,x0,0
    1ac8:	00000013          	addi	x0,x0,0
    1acc:	00d1b823          	sd	x13,16(x3)
    1ad0:	00000013          	addi	x0,x0,0
    1ad4:	00000013          	addi	x0,x0,0
    1ad8:	00000013          	addi	x0,x0,0
    1adc:	00000013          	addi	x0,x0,0
    1ae0:	00001397          	auipc	x7,0x1
    1ae4:	d2038393          	addi	x7,x7,-736 # 0x2800
    1ae8:	00000013          	addi	x0,x0,0
    1aec:	00000013          	addi	x0,x0,0
    1af0:	00000013          	addi	x0,x0,0
    1af4:	00000013          	addi	x0,x0,0
    1af8:	00000013          	addi	x0,x0,0
    1afc:	00000013          	addi	x0,x0,0
    1b00:	8003d803          	lhu	x16,-2048(x7)
    1b04:	00000013          	addi	x0,x0,0
    1b08:	00000013          	addi	x0,x0,0
    1b0c:	0101bc23          	sd	x16,24(x3)
    1b10:	00000013          	addi	x0,x0,0
    1b14:	00000013          	addi	x0,x0,0
    1b18:	00000013          	addi	x0,x0,0
    1b1c:	00000013          	addi	x0,x0,0
    1b20:	00001c97          	auipc	x25,0x1
    1b24:	ce0c8c93          	addi	x25,x25,-800 # 0x2800
    1b28:	00000013          	addi	x0,x0,0
    1b2c:	00000013          	addi	x0,x0,0
    1b30:	00000013          	addi	x0,x0,0
    1b34:	00000013          	addi	x0,x0,0
    1b38:	00000013          	addi	x0,x0,0
    1b3c:	00000013          	addi	x0,x0,0
    1b40:	800cd903          	lhu	x18,-2048(x25)
    1b44:	00000013          	addi	x0,x0,0
    1b48:	00000013          	addi	x0,x0,0
    1b4c:	0321b023          	sd	x18,32(x3)
    1b50:	00000013          	addi	x0,x0,0
    1b54:	00000013          	addi	x0,x0,0
    1b58:	00000013          	addi	x0,x0,0
    1b5c:	00000013          	addi	x0,x0,0
    1b60:	00001517          	auipc	x10,0x1
    1b64:	ca050513          	addi	x10,x10,-864 # 0x2800
    1b68:	00000013          	addi	x0,x0,0
    1b6c:	00000013          	addi	x0,x0,0
    1b70:	00000013          	addi	x0,x0,0
    1b74:	00000013          	addi	x0,x0,0
    1b78:	00000013          	addi	x0,x0,0
    1b7c:	00000013          	addi	x0,x0,0
    1b80:	80055383          	lhu	x7,-2048(x10)
    1b84:	00000013          	addi	x0,x0,0
    1b88:	00000013          	addi	x0,x0,0
    1b8c:	0271b423          	sd	x7,40(x3)
    1b90:	00000013          	addi	x0,x0,0
    1b94:	00000013          	addi	x0,x0,0
    1b98:	00000013          	addi	x0,x0,0
    1b9c:	00000013          	addi	x0,x0,0
    1ba0:	00001617          	auipc	x12,0x1
    1ba4:	c6060613          	addi	x12,x12,-928 # 0x2800
    1ba8:	00000013          	addi	x0,x0,0
    1bac:	00000013          	addi	x0,x0,0
    1bb0:	00000013          	addi	x0,x0,0
    1bb4:	00000013          	addi	x0,x0,0
    1bb8:	00000013          	addi	x0,x0,0
    1bbc:	00000013          	addi	x0,x0,0
    1bc0:	80065083          	lhu	x1,-2048(x12)
    1bc4:	00000013          	addi	x0,x0,0
    1bc8:	00000013          	addi	x0,x0,0
    1bcc:	0211b823          	sd	x1,48(x3)
    1bd0:	00000013          	addi	x0,x0,0
    1bd4:	00000013          	addi	x0,x0,0
    1bd8:	00000013          	addi	x0,x0,0
    1bdc:	00000013          	addi	x0,x0,0
    1be0:	00001e17          	auipc	x28,0x1
    1be4:	c20e0e13          	addi	x28,x28,-992 # 0x2800
    1be8:	00000013          	addi	x0,x0,0
    1bec:	00000013          	addi	x0,x0,0
    1bf0:	00000013          	addi	x0,x0,0
    1bf4:	00000013          	addi	x0,x0,0
    1bf8:	00000013          	addi	x0,x0,0
    1bfc:	00000013          	addi	x0,x0,0
    1c00:	800e5503          	lhu	x10,-2048(x28)
    1c04:	00000013          	addi	x0,x0,0
    1c08:	00000013          	addi	x0,x0,0
    1c0c:	02a1bc23          	sd	x10,56(x3)
    1c10:	00000013          	addi	x0,x0,0
    1c14:	00000013          	addi	x0,x0,0
    1c18:	00000013          	addi	x0,x0,0
    1c1c:	00000013          	addi	x0,x0,0
    1c20:	00001117          	auipc	x2,0x1
    1c24:	be010113          	addi	x2,x2,-1056 # 0x2800
    1c28:	00000013          	addi	x0,x0,0
    1c2c:	00000013          	addi	x0,x0,0
    1c30:	00000013          	addi	x0,x0,0
    1c34:	00000013          	addi	x0,x0,0
    1c38:	00000013          	addi	x0,x0,0
    1c3c:	00000013          	addi	x0,x0,0
    1c40:	80015603          	lhu	x12,-2048(x2)
    1c44:	00000013          	addi	x0,x0,0
    1c48:	00000013          	addi	x0,x0,0
    1c4c:	04c1b023          	sd	x12,64(x3)
    1c50:	0380006f          	jal	x0,0x1c88
    1c54:	1f813483          	ld	x9,504(x2)
    1c58:	20013303          	ld	x6,512(x2)
    1c5c:	00930333          	add	x6,x6,x9
    1c60:	00000337          	lui	x6,0x0
    1c64:	00030313          	addi	x6,x6,0 # 0x0
    1c68:	00b31313          	slli	x6,x6,0xb
    1c6c:	5d630313          	addi	x6,x6,1494
    1c70:	00b31313          	slli	x6,x6,0xb
    1c74:	43630313          	addi	x6,x6,1078
    1c78:	00a31313          	slli	x6,x6,0xa
    1c7c:	2d030313          	addi	x6,x6,720
    1c80:	fe64be23          	sd	x6,-4(x9)
    1c84:	0040006f          	jal	x0,0x1c88
    1c88:	00000513          	addi	x10,x0,0
    1c8c:	0240006f          	jal	x0,0x1cb0
	...
    1cb0:	00050513          	addi	x10,x10,0
    1cb4:	00100073          	ebreak
    1cb8:	0000006f          	jal	x0,0x1cb8
    1cbc:	ff010113          	addi	x2,x2,-16
    1cc0:	00000517          	auipc	x10,0x0
    1cc4:	02050513          	addi	x10,x10,32 # 0x1ce0
    1cc8:	00113423          	sd	x1,8(x2)
    1ccc:	b44ff0ef          	jal	x1,0x1010
    1cd0:	00050513          	addi	x10,x10,0
    1cd4:	00100073          	ebreak
    1cd8:	0000006f          	jal	x0,0x1cd8
	...
    2000:	cafe                	c.swsp	x31,84(x2)
    2002:	babe                	c.fsdsp	f15,368(x2)
    2004:	cafe                	c.swsp	x31,84(x2)
    2006:	babe                	c.fsdsp	f15,368(x2)
    2008:	cafe                	c.swsp	x31,84(x2)
    200a:	babe                	c.fsdsp	f15,368(x2)
    200c:	cafe                	c.swsp	x31,84(x2)
    200e:	babe                	c.fsdsp	f15,368(x2)
    2010:	deadbeef          	jal	x29,0xfffffffffffdd5fa
    2014:	deadbeef          	jal	x29,0xfffffffffffdd5fe
	...
    3000:	b281                	c.j	0x2940
    3002:	e7d4                	c.sd	x13,136(x15)
    3004:	a309                	c.j	0x3506
    3006:	6f5c                	c.ld	x15,152(x14)
    3008:	deadbeef          	jal	x29,0xfffffffffffde5f2
    300c:	deadbeef          	jal	x29,0xfffffffffffde5f6
    3010:	deadbeef          	jal	x29,0xfffffffffffde5fa
    3014:	deadbeef          	jal	x29,0xfffffffffffde5fe
    3018:	deadbeef          	jal	x29,0xfffffffffffde602
    301c:	deadbeef          	jal	x29,0xfffffffffffde606
    3020:	deadbeef          	jal	x29,0xfffffffffffde60a
    3024:	deadbeef          	jal	x29,0xfffffffffffde60e
    3028:	deadbeef          	jal	x29,0xfffffffffffde612
    302c:	deadbeef          	jal	x29,0xfffffffffffde616
    3030:	deadbeef          	jal	x29,0xfffffffffffde61a
    3034:	deadbeef          	jal	x29,0xfffffffffffde61e
    3038:	deadbeef          	jal	x29,0xfffffffffffde622
    303c:	deadbeef          	jal	x29,0xfffffffffffde626
    3040:	deadbeef          	jal	x29,0xfffffffffffde62a
    3044:	deadbeef          	jal	x29,0xfffffffffffde62e
    3048:	deadbeef          	jal	x29,0xfffffffffffde632
    304c:	deadbeef          	jal	x29,0xfffffffffffde636
    3050:	deadbeef          	jal	x29,0xfffffffffffde63a
    3054:	deadbeef          	jal	x29,0xfffffffffffde63e
    3058:	deadbeef          	jal	x29,0xfffffffffffde642
    305c:	deadbeef          	jal	x29,0xfffffffffffde646
    3060:	deadbeef          	jal	x29,0xfffffffffffde64a
    3064:	deadbeef          	jal	x29,0xfffffffffffde64e
    3068:	deadbeef          	jal	x29,0xfffffffffffde652
    306c:	deadbeef          	jal	x29,0xfffffffffffde656
    3070:	deadbeef          	jal	x29,0xfffffffffffde65a
    3074:	deadbeef          	jal	x29,0xfffffffffffde65e
    3078:	deadbeef          	jal	x29,0xfffffffffffde662
    307c:	deadbeef          	jal	x29,0xfffffffffffde666
    3080:	deadbeef          	jal	x29,0xfffffffffffde66a
    3084:	deadbeef          	jal	x29,0xfffffffffffde66e
    3088:	deadbeef          	jal	x29,0xfffffffffffde672
    308c:	deadbeef          	jal	x29,0xfffffffffffde676
    3090:	deadbeef          	jal	x29,0xfffffffffffde67a
    3094:	deadbeef          	jal	x29,0xfffffffffffde67e
    3098:	deadbeef          	jal	x29,0xfffffffffffde682
    309c:	deadbeef          	jal	x29,0xfffffffffffde686
    30a0:	deadbeef          	jal	x29,0xfffffffffffde68a
    30a4:	deadbeef          	jal	x29,0xfffffffffffde68e
    30a8:	deadbeef          	jal	x29,0xfffffffffffde692
    30ac:	deadbeef          	jal	x29,0xfffffffffffde696
    30b0:	deadbeef          	jal	x29,0xfffffffffffde69a
    30b4:	deadbeef          	jal	x29,0xfffffffffffde69e
    30b8:	deadbeef          	jal	x29,0xfffffffffffde6a2
    30bc:	deadbeef          	jal	x29,0xfffffffffffde6a6
    30c0:	deadbeef          	jal	x29,0xfffffffffffde6aa
    30c4:	deadbeef          	jal	x29,0xfffffffffffde6ae
    30c8:	deadbeef          	jal	x29,0xfffffffffffde6b2
    30cc:	deadbeef          	jal	x29,0xfffffffffffde6b6
    30d0:	deadbeef          	jal	x29,0xfffffffffffde6ba
    30d4:	deadbeef          	jal	x29,0xfffffffffffde6be
    30d8:	deadbeef          	jal	x29,0xfffffffffffde6c2
    30dc:	deadbeef          	jal	x29,0xfffffffffffde6c6
    30e0:	deadbeef          	jal	x29,0xfffffffffffde6ca
    30e4:	deadbeef          	jal	x29,0xfffffffffffde6ce
    30e8:	deadbeef          	jal	x29,0xfffffffffffde6d2
    30ec:	deadbeef          	jal	x29,0xfffffffffffde6d6
    30f0:	deadbeef          	jal	x29,0xfffffffffffde6da
    30f4:	deadbeef          	jal	x29,0xfffffffffffde6de
    30f8:	deadbeef          	jal	x29,0xfffffffffffde6e2
    30fc:	deadbeef          	jal	x29,0xfffffffffffde6e6
    3100:	deadbeef          	jal	x29,0xfffffffffffde6ea
    3104:	deadbeef          	jal	x29,0xfffffffffffde6ee
    3108:	b281                	c.j	0x2a48
    310a:	e7d4                	c.sd	x13,136(x15)
    310c:	a309                	c.j	0x360e
    310e:	6f5c                	c.ld	x15,152(x14)
    3110:	3a434347          	fmsub.d	f6,f6,f4,f7,rmm
    3114:	2820                	c.fld	f8,80(x8)
    3116:	6255                	c.lui	x4,0x15
    3118:	6e75                	c.lui	x28,0x1d
    311a:	7574                	c.ld	x13,232(x10)
    311c:	3120                	c.fld	f8,96(x10)
    311e:	2e31                	c.addiw	x28,12 # 0x1d00c
    3120:	2e32                	c.fldsp	f28,264(x2)
    3122:	2d30                	c.fld	f12,88(x10)
    3124:	3631                	c.addiw	x12,-20
    3126:	6275                	c.lui	x4,0x1d
    3128:	6e75                	c.lui	x28,0x1d
    312a:	7574                	c.ld	x13,232(x10)
    312c:	2931                	c.addiw	x18,12
    312e:	3120                	c.fld	f8,96(x10)
    3130:	2e31                	c.addiw	x28,12 # 0x1d00c
    3132:	2e32                	c.fldsp	f28,264(x2)
    3134:	0030                	c.addi4spn	x12,x2,8
    3136:	2d41                	c.addiw	x26,16
    3138:	0000                	c.unimp
    313a:	7200                	c.ld	x8,32(x12)
    313c:	7369                	c.lui	x6,0xffffa
    313e:	01007663          	bgeu	x0,x16,0x314a
    3142:	00000023          	sb	x0,0(x0) # 0x0
    3146:	7205                	c.lui	x4,0xfffe1
    3148:	3676                	c.fldsp	f12,376(x2)
    314a:	6934                	c.ld	x13,80(x10)
    314c:	7032                	.insn	2, 0x7032
    314e:	5f30                	c.lw	x12,120(x14)
    3150:	326d                	c.addiw	x4,-5 # 0xfffffffffffe0ffb
    3152:	3070                	c.fld	f12,224(x8)
    3154:	615f 7032 5f30      	.insn	6, 0x5f307032615f
    315a:	3266                	c.fldsp	f4,120(x2)
    315c:	3070                	c.fld	f12,224(x8)
    315e:	645f 7032 0030      	.insn	6, 0x00307032645f
	...
    3184:	00010003          	lb	x0,0(x2)
    3188:	0000                	c.unimp
    318a:	8000                	.insn	2, 0x8000
	...
    319c:	00020003          	lb	x0,0(x4) # 0x0
    31a0:	0ce0                	c.addi4spn	x8,x2,604
    31a2:	8000                	.insn	2, 0x8000
	...
    31b4:	00030003          	lb	x0,0(x6) # 0xffffffffffffa000
    31b8:	1000                	c.addi4spn	x8,x2,32
    31ba:	8000                	.insn	2, 0x8000
	...
    31cc:	00040003          	lb	x0,0(x8)
	...
    31e4:	00050003          	lb	x0,0(x10)
	...
    31f8:	0001                	c.addi	x0,0
    31fa:	0000                	c.unimp
    31fc:	0004                	.insn	2, 0x0004
    31fe:	fff1                	c.bnez	x15,0x31da
	...
    3210:	0009                	c.addi	x0,2
    3212:	0000                	c.unimp
    3214:	0000                	c.unimp
    3216:	0001                	c.addi	x0,0
    3218:	0000                	c.unimp
    321a:	8000                	.insn	2, 0x8000
	...
    3228:	000c                	.insn	2, 0x000c
    322a:	0000                	c.unimp
    322c:	0004                	.insn	2, 0x0004
    322e:	fff1                	c.bnez	x15,0x320a
	...
    3240:	0009                	c.addi	x0,2
    3242:	0000                	c.unimp
    3244:	0000                	c.unimp
    3246:	0001                	c.addi	x0,0
    3248:	0010                	.insn	2, 0x0010
    324a:	8000                	.insn	2, 0x8000
	...
    3258:	00000013          	addi	x0,x0,0
    325c:	0004                	.insn	2, 0x0004
    325e:	fff1                	c.bnez	x15,0x323a
	...
    3270:	0022                	c.slli	x0,0x8
    3272:	0000                	c.unimp
    3274:	0000                	c.unimp
    3276:	fff1                	c.bnez	x15,0x3252
    3278:	00000003          	lb	x0,0(x0) # 0x0
	...
    3288:	002c                	c.addi4spn	x11,x2,8
    328a:	0000                	c.unimp
    328c:	0000                	c.unimp
    328e:	fff1                	c.bnez	x15,0x326a
    3290:	0001                	c.addi	x0,0
	...
    329e:	0000                	c.unimp
    32a0:	0036                	c.slli	x0,0xd
    32a2:	0000                	c.unimp
    32a4:	0000                	c.unimp
    32a6:	fff1                	c.bnez	x15,0x3282
    32a8:	0002                	c.slli64	x0
	...
    32b6:	0000                	c.unimp
    32b8:	0009                	c.addi	x0,2
    32ba:	0000                	c.unimp
    32bc:	0000                	c.unimp
    32be:	0001                	c.addi	x0,0
    32c0:	0040                	c.addi4spn	x8,x2,4
    32c2:	8000                	.insn	2, 0x8000
	...
    32d0:	0040                	c.addi4spn	x8,x2,4
    32d2:	0000                	c.unimp
    32d4:	0000                	c.unimp
    32d6:	fff1                	c.bnez	x15,0x32b2
    32d8:	dad0                	c.sw	x12,52(x13)
    32da:	bad0                	c.fsd	f12,176(x13)
	...
    32e8:	0045                	c.addi	x0,17
    32ea:	0000                	c.unimp
    32ec:	0000                	c.unimp
    32ee:	fff1                	c.bnez	x15,0x32ca
    32f0:	0004                	.insn	2, 0x0004
	...
    32fe:	0000                	c.unimp
    3300:	0000004b          	fnmsub.s	f0,f0,f0,f0,rne
    3304:	0000                	c.unimp
    3306:	fff1                	c.bnez	x15,0x32e2
    3308:	0005                	c.addi	x0,1
	...
    3316:	0000                	c.unimp
    3318:	0051                	c.addi	x0,20
    331a:	0000                	c.unimp
    331c:	0000                	c.unimp
    331e:	fff1                	c.bnez	x15,0x32fa
	...
    3330:	0056                	c.slli	x0,0x15
    3332:	0000                	c.unimp
    3334:	0000                	c.unimp
    3336:	fff1                	c.bnez	x15,0x3312
	...
    3348:	0000005b          	.insn	4, 0x005b
    334c:	0000                	c.unimp
    334e:	fff1                	c.bnez	x15,0x332a
    3350:	dad0                	c.sw	x12,52(x13)
    3352:	bad0                	c.fsd	f12,176(x13)
	...
    3360:	0060                	c.addi4spn	x8,x2,12
    3362:	0000                	c.unimp
    3364:	0000                	c.unimp
    3366:	fff1                	c.bnez	x15,0x3342
    3368:	0040                	c.addi4spn	x8,x2,4
	...
    3376:	0000                	c.unimp
    3378:	0064                	c.addi4spn	x9,x2,12
    337a:	0000                	c.unimp
    337c:	0000                	c.unimp
    337e:	fff1                	c.bnez	x15,0x335a
    3380:	dad0                	c.sw	x12,52(x13)
    3382:	bad0                	c.fsd	f12,176(x13)
	...
    3390:	0000006b          	.insn	4, 0x006b
    3394:	0000                	c.unimp
    3396:	fff1                	c.bnez	x15,0x3372
    3398:	0001                	c.addi	x0,0
	...
    33a6:	0000                	c.unimp
    33a8:	0000006f          	jal	x0,0x33a8
    33ac:	0000                	c.unimp
    33ae:	fff1                	c.bnez	x15,0x338a
    33b0:	fad0                	c.sd	x12,176(x13)
    33b2:	ffff                	.insn	2, 0xffff
    33b4:	ffff                	.insn	2, 0xffff
    33b6:	ffff                	.insn	2, 0xffff
	...
    33c0:	0075                	c.addi	x0,29
    33c2:	0000                	c.unimp
    33c4:	0000                	c.unimp
    33c6:	fff1                	c.bnez	x15,0x33a2
    33c8:	0001                	c.addi	x0,0
	...
    33d6:	0000                	c.unimp
    33d8:	007a                	c.slli	x0,0x1e
    33da:	0000                	c.unimp
    33dc:	0000                	c.unimp
    33de:	fff1                	c.bnez	x15,0x33ba
	...
    33f0:	007f 0000 0000 fff1 	.insn	10, 0x0dadfff100000000007f
    33f8:	0dad 
    33fa:	0bad                	c.addi	x23,11
	...
    3408:	0086                	c.slli	x1,0x1
    340a:	0000                	c.unimp
    340c:	0000                	c.unimp
    340e:	fff1                	c.bnez	x15,0x33ea
    3410:	fdad                	c.bnez	x11,0x338a
    3412:	ffff                	.insn	2, 0xffff
    3414:	ffff                	.insn	2, 0xffff
    3416:	ffff                	.insn	2, 0xffff
	...
    3420:	008e                	c.slli	x1,0x3
    3422:	0000                	c.unimp
    3424:	0000                	c.unimp
    3426:	fff1                	c.bnez	x15,0x3402
    3428:	0001                	c.addi	x0,0
	...
    3436:	0000                	c.unimp
    3438:	0094                	c.addi4spn	x13,x2,64
    343a:	0000                	c.unimp
    343c:	0000                	c.unimp
    343e:	fff1                	c.bnez	x15,0x341a
    3440:	0dad                	c.addi	x27,11
    3442:	0bad                	c.addi	x23,11
	...
    3450:	009d                	c.addi	x1,7
    3452:	0000                	c.unimp
    3454:	0000                	c.unimp
    3456:	20080003          	lb	x0,512(x16)
    345a:	8000                	.insn	2, 0x8000
	...
    3468:	02cd                	c.addi	x5,19
    346a:	0000                	c.unimp
    346c:	0000                	c.unimp
    346e:	fff1                	c.bnez	x15,0x344a
    3470:	0048                	c.addi4spn	x10,x2,4
	...
    347e:	0000                	c.unimp
    3480:	00ac                	c.addi4spn	x11,x2,72
    3482:	0000                	c.unimp
    3484:	0000                	c.unimp
    3486:	0001                	c.addi	x0,0
    3488:	0440                	c.addi4spn	x8,x2,516
    348a:	8000                	.insn	2, 0x8000
	...
    3498:	000000b3          	add	x1,x0,x0
    349c:	0000                	c.unimp
    349e:	10000003          	lb	x0,256(x0) # 0x100
    34a2:	8000                	.insn	2, 0x8000
	...
    34b0:	000000bf 00010000 	.insn	8, 0x00010000000000bf
    34b8:	0470                	c.addi4spn	x12,x2,524
    34ba:	8000                	.insn	2, 0x8000
	...
    34c8:	00c6                	c.slli	x1,0x11
    34ca:	0000                	c.unimp
    34cc:	0000                	c.unimp
    34ce:	0001                	c.addi	x0,0
    34d0:	04b0                	c.addi4spn	x12,x2,584
    34d2:	8000                	.insn	2, 0x8000
	...
    34e0:	00cd                	c.addi	x1,19
    34e2:	0000                	c.unimp
    34e4:	0000                	c.unimp
    34e6:	0001                	c.addi	x0,0
    34e8:	04f0                	c.addi4spn	x12,x2,588
    34ea:	8000                	.insn	2, 0x8000
	...
    34f8:	00d4                	c.addi4spn	x13,x2,68
    34fa:	0000                	c.unimp
    34fc:	0000                	c.unimp
    34fe:	0001                	c.addi	x0,0
    3500:	0530                	c.addi4spn	x12,x2,648
    3502:	8000                	.insn	2, 0x8000
	...
    3510:	000000db          	.insn	4, 0x00db
    3514:	0000                	c.unimp
    3516:	0001                	c.addi	x0,0
    3518:	0570                	c.addi4spn	x12,x2,652
    351a:	8000                	.insn	2, 0x8000
	...
    3528:	00e2                	c.slli	x1,0x18
    352a:	0000                	c.unimp
    352c:	0000                	c.unimp
    352e:	0001                	c.addi	x0,0
    3530:	05b0                	c.addi4spn	x12,x2,712
    3532:	8000                	.insn	2, 0x8000
	...
    3540:	00e9                	c.addi	x1,26
    3542:	0000                	c.unimp
    3544:	0000                	c.unimp
    3546:	0001                	c.addi	x0,0
    3548:	05f0                	c.addi4spn	x12,x2,716
    354a:	8000                	.insn	2, 0x8000
	...
    3558:	00f0                	c.addi4spn	x12,x2,76
    355a:	0000                	c.unimp
    355c:	0000                	c.unimp
    355e:	0001                	c.addi	x0,0
    3560:	0630                	c.addi4spn	x12,x2,776
    3562:	8000                	.insn	2, 0x8000
	...
    3570:	000000f7          	.insn	4, 0x00f7
    3574:	0000                	c.unimp
    3576:	0001                	c.addi	x0,0
    3578:	0670                	c.addi4spn	x12,x2,780
    357a:	8000                	.insn	2, 0x8000
	...
    3588:	00fe                	c.slli	x1,0x1f
    358a:	0000                	c.unimp
    358c:	0000                	c.unimp
    358e:	0001                	c.addi	x0,0
    3590:	06b0                	c.addi4spn	x12,x2,840
    3592:	8000                	.insn	2, 0x8000
	...
    35a0:	0106                	c.slli	x2,0x1
    35a2:	0000                	c.unimp
    35a4:	0000                	c.unimp
    35a6:	0001                	c.addi	x0,0
    35a8:	06f0                	c.addi4spn	x12,x2,844
    35aa:	8000                	.insn	2, 0x8000
	...
    35b8:	010e                	c.slli	x2,0x3
    35ba:	0000                	c.unimp
    35bc:	0000                	c.unimp
    35be:	0001                	c.addi	x0,0
    35c0:	0730                	c.addi4spn	x12,x2,904
    35c2:	8000                	.insn	2, 0x8000
	...
    35d0:	0116                	c.slli	x2,0x5
    35d2:	0000                	c.unimp
    35d4:	0000                	c.unimp
    35d6:	0001                	c.addi	x0,0
    35d8:	0770                	c.addi4spn	x12,x2,908
    35da:	8000                	.insn	2, 0x8000
	...
    35e8:	011e                	c.slli	x2,0x7
    35ea:	0000                	c.unimp
    35ec:	0000                	c.unimp
    35ee:	0001                	c.addi	x0,0
    35f0:	07b0                	c.addi4spn	x12,x2,968
    35f2:	8000                	.insn	2, 0x8000
	...
    3600:	0126                	c.slli	x2,0x9
    3602:	0000                	c.unimp
    3604:	0000                	c.unimp
    3606:	0001                	c.addi	x0,0
    3608:	07f0                	c.addi4spn	x12,x2,972
    360a:	8000                	.insn	2, 0x8000
	...
    3618:	012e                	c.slli	x2,0xb
    361a:	0000                	c.unimp
    361c:	0000                	c.unimp
    361e:	0001                	c.addi	x0,0
    3620:	0830                	c.addi4spn	x12,x2,24
    3622:	8000                	.insn	2, 0x8000
	...
    3630:	0136                	c.slli	x2,0xd
    3632:	0000                	c.unimp
    3634:	0000                	c.unimp
    3636:	0001                	c.addi	x0,0
    3638:	0870                	c.addi4spn	x12,x2,28
    363a:	8000                	.insn	2, 0x8000
	...
    3648:	013e                	c.slli	x2,0xf
    364a:	0000                	c.unimp
    364c:	0000                	c.unimp
    364e:	0001                	c.addi	x0,0
    3650:	08b0                	c.addi4spn	x12,x2,88
    3652:	8000                	.insn	2, 0x8000
	...
    3660:	0146                	c.slli	x2,0x11
    3662:	0000                	c.unimp
    3664:	0000                	c.unimp
    3666:	0001                	c.addi	x0,0
    3668:	08f0                	c.addi4spn	x12,x2,92
    366a:	8000                	.insn	2, 0x8000
	...
    3678:	014e                	c.slli	x2,0x13
    367a:	0000                	c.unimp
    367c:	0000                	c.unimp
    367e:	0001                	c.addi	x0,0
    3680:	0930                	c.addi4spn	x12,x2,152
    3682:	8000                	.insn	2, 0x8000
	...
    3690:	0156                	c.slli	x2,0x15
    3692:	0000                	c.unimp
    3694:	0000                	c.unimp
    3696:	0001                	c.addi	x0,0
    3698:	0970                	c.addi4spn	x12,x2,156
    369a:	8000                	.insn	2, 0x8000
	...
    36a8:	015e                	c.slli	x2,0x17
    36aa:	0000                	c.unimp
    36ac:	0000                	c.unimp
    36ae:	0001                	c.addi	x0,0
    36b0:	09b0                	c.addi4spn	x12,x2,216
    36b2:	8000                	.insn	2, 0x8000
	...
    36c0:	0166                	c.slli	x2,0x19
    36c2:	0000                	c.unimp
    36c4:	0000                	c.unimp
    36c6:	20c00003          	lb	x0,524(x0) # 0x20c
    36ca:	8000                	.insn	2, 0x8000
	...
    36d8:	0175                	c.addi	x2,29
    36da:	0000                	c.unimp
    36dc:	0000                	c.unimp
    36de:	0001                	c.addi	x0,0
    36e0:	0a20                	c.addi4spn	x8,x2,280
    36e2:	8000                	.insn	2, 0x8000
	...
    36f0:	017d                	c.addi	x2,31
    36f2:	0000                	c.unimp
    36f4:	0000                	c.unimp
    36f6:	0001                	c.addi	x0,0
    36f8:	0a50                	c.addi4spn	x12,x2,276
    36fa:	8000                	.insn	2, 0x8000
	...
    3708:	0185                	c.addi	x3,1
    370a:	0000                	c.unimp
    370c:	0000                	c.unimp
    370e:	0001                	c.addi	x0,0
    3710:	0a90                	c.addi4spn	x12,x2,336
    3712:	8000                	.insn	2, 0x8000
	...
    3720:	018d                	c.addi	x3,3
    3722:	0000                	c.unimp
    3724:	0000                	c.unimp
    3726:	0001                	c.addi	x0,0
    3728:	0ad0                	c.addi4spn	x12,x2,340
    372a:	8000                	.insn	2, 0x8000
	...
    3738:	0195                	c.addi	x3,5
    373a:	0000                	c.unimp
    373c:	0000                	c.unimp
    373e:	0001                	c.addi	x0,0
    3740:	0b10                	c.addi4spn	x12,x2,400
    3742:	8000                	.insn	2, 0x8000
	...
    3750:	019d                	c.addi	x3,7
    3752:	0000                	c.unimp
    3754:	0000                	c.unimp
    3756:	0001                	c.addi	x0,0
    3758:	0b50                	c.addi4spn	x12,x2,404
    375a:	8000                	.insn	2, 0x8000
	...
    3768:	01a5                	c.addi	x3,9
    376a:	0000                	c.unimp
    376c:	0000                	c.unimp
    376e:	0001                	c.addi	x0,0
    3770:	0b90                	c.addi4spn	x12,x2,464
    3772:	8000                	.insn	2, 0x8000
	...
    3780:	01ad                	c.addi	x3,11
    3782:	0000                	c.unimp
    3784:	0000                	c.unimp
    3786:	0001                	c.addi	x0,0
    3788:	0bd0                	c.addi4spn	x12,x2,468
    378a:	8000                	.insn	2, 0x8000
	...
    3798:	01b5                	c.addi	x3,13
    379a:	0000                	c.unimp
    379c:	0000                	c.unimp
    379e:	0001                	c.addi	x0,0
    37a0:	0c10                	c.addi4spn	x12,x2,528
    37a2:	8000                	.insn	2, 0x8000
	...
    37b0:	01bd                	c.addi	x3,15
    37b2:	0000                	c.unimp
    37b4:	0000                	c.unimp
    37b6:	0001                	c.addi	x0,0
    37b8:	0c88                	c.addi4spn	x10,x2,592
    37ba:	8000                	.insn	2, 0x8000
	...
    37c8:	01ca                	c.slli	x3,0x12
    37ca:	0000                	c.unimp
    37cc:	0000                	c.unimp
    37ce:	0001                	c.addi	x0,0
    37d0:	0c54                	c.addi4spn	x13,x2,532
    37d2:	8000                	.insn	2, 0x8000
	...
    37e0:	01d6                	c.slli	x3,0x15
    37e2:	0000                	c.unimp
    37e4:	0000                	c.unimp
    37e6:	10100003          	lb	x0,257(x0) # 0x101
    37ea:	8000                	.insn	2, 0x8000
	...
    37f8:	000001e3          	beq	x0,x0,0x3ffa
    37fc:	0000                	c.unimp
    37fe:	20000003          	lb	x0,512(x0) # 0x200
    3802:	8000                	.insn	2, 0x8000
	...
    3810:	01f4                	c.addi4spn	x13,x2,204
    3812:	0000                	c.unimp
    3814:	0000                	c.unimp
    3816:	20000003          	lb	x0,512(x0) # 0x200
    381a:	8000                	.insn	2, 0x8000
	...
    3828:	0205                	c.addi	x4,1 # 0x1
    382a:	0000                	c.unimp
    382c:	0000                	c.unimp
    382e:	20080003          	lb	x0,512(x16)
    3832:	8000                	.insn	2, 0x8000
	...
    3840:	0214                	c.addi4spn	x13,x2,256
    3842:	0000                	c.unimp
    3844:	0000                	c.unimp
    3846:	21080003          	lb	x0,528(x16)
    384a:	8000                	.insn	2, 0x8000
	...
    3858:	00000223          	sb	x0,4(x0) # 0x4
    385c:	0000                	c.unimp
    385e:	21100003          	lb	x0,529(x0) # 0x211
    3862:	8000                	.insn	2, 0x8000
	...
    3870:	0232                	c.slli	x4,0xc
    3872:	0000                	c.unimp
    3874:	0004                	.insn	2, 0x0004
    3876:	fff1                	c.bnez	x15,0x3852
	...
    3888:	0009                	c.addi	x0,2
    388a:	0000                	c.unimp
    388c:	0000                	c.unimp
    388e:	0001                	c.addi	x0,0
    3890:	0cb0                	c.addi4spn	x12,x2,600
    3892:	8000                	.insn	2, 0x8000
	...
    38a0:	0009                	c.addi	x0,2
    38a2:	0000                	c.unimp
    38a4:	0000                	c.unimp
    38a6:	0001                	c.addi	x0,0
    38a8:	0cbc                	c.addi4spn	x15,x2,600
    38aa:	8000                	.insn	2, 0x8000
	...
    38b8:	0238                	c.addi4spn	x14,x2,264
    38ba:	0000                	c.unimp
    38bc:	0001                	c.addi	x0,0
    38be:	0002                	c.slli64	x0
    38c0:	0ce0                	c.addi4spn	x8,x2,604
    38c2:	8000                	.insn	2, 0x8000
    38c4:	0000                	c.unimp
    38c6:	0000                	c.unimp
    38c8:	0001                	c.addi	x0,0
    38ca:	0000                	c.unimp
    38cc:	0000                	c.unimp
    38ce:	0000                	c.unimp
    38d0:	0241                	c.addi	x4,16 # 0x10
    38d2:	0000                	c.unimp
    38d4:	0212                	c.slli	x4,0x4
    38d6:	0001                	c.addi	x0,0
    38d8:	0cbc                	c.addi4spn	x15,x2,600
    38da:	8000                	.insn	2, 0x8000
    38dc:	0000                	c.unimp
    38de:	0000                	c.unimp
    38e0:	0020                	c.addi4spn	x8,x2,8
    38e2:	0000                	c.unimp
    38e4:	0000                	c.unimp
    38e6:	0000                	c.unimp
    38e8:	0000024b          	fnmsub.s	f4,f0,f0,f0,rne
    38ec:	0010                	.insn	2, 0x0010
    38ee:	b0000003          	lb	x0,-1280(x0) # 0xfffffffffffffb00
    38f2:	8000                	.insn	2, 0x8000
	...
    3900:	025a                	c.slli	x4,0x16
    3902:	0000                	c.unimp
    3904:	0010                	.insn	2, 0x0010
    3906:	21100003          	lb	x0,529(x0) # 0x211
    390a:	8000                	.insn	2, 0x8000
	...
    3918:	0268                	c.addi4spn	x10,x2,268
    391a:	0000                	c.unimp
    391c:	0010                	.insn	2, 0x0010
    391e:	0001                	c.addi	x0,0
    3920:	0cdc                	c.addi4spn	x15,x2,596
    3922:	8000                	.insn	2, 0x8000
	...
    3930:	0000026f          	jal	x4,0x3930
    3934:	0010                	.insn	2, 0x0010
    3936:	fff1                	c.bnez	x15,0x3912
    3938:	0000                	c.unimp
    393a:	8000                	.insn	2, 0x8000
	...
    3948:	0000027b          	.insn	4, 0x027b
    394c:	0010                	.insn	2, 0x0010
    394e:	21100003          	lb	x0,529(x0) # 0x211
    3952:	8000                	.insn	2, 0x8000
	...
    3960:	0286                	c.slli	x5,0x1
    3962:	0000                	c.unimp
    3964:	0010                	.insn	2, 0x0010
    3966:	21100003          	lb	x0,529(x0) # 0x211
    396a:	8000                	.insn	2, 0x8000
	...
    3978:	028c                	c.addi4spn	x11,x2,320
    397a:	0000                	c.unimp
    397c:	0010                	.insn	2, 0x0010
    397e:	b0000003          	lb	x0,-1280(x0) # 0xfffffffffffffb00
    3982:	8000                	.insn	2, 0x8000
	...
    3990:	0298                	c.addi4spn	x14,x2,320
    3992:	0000                	c.unimp
    3994:	0010                	.insn	2, 0x0010
    3996:	30000003          	lb	x0,768(x0) # 0x300
    399a:	8000                	.insn	2, 0x8000
	...
    39a8:	000002a3          	sb	x0,5(x0) # 0x5
    39ac:	0010                	.insn	2, 0x0010
    39ae:	0001                	c.addi	x0,0
    39b0:	0040                	c.addi4spn	x8,x2,4
    39b2:	8000                	.insn	2, 0x8000
	...
    39c0:	0325                	c.addi	x6,9
    39c2:	0000                	c.unimp
    39c4:	0010                	.insn	2, 0x0010
    39c6:	b0000003          	lb	x0,-1280(x0) # 0xfffffffffffffb00
    39ca:	8000                	.insn	2, 0x8000
	...
    39d8:	0269                	c.addi	x4,26 # 0x1a
    39da:	0000                	c.unimp
    39dc:	0010                	.insn	2, 0x0010
    39de:	0001                	c.addi	x0,0
    39e0:	0cdc                	c.addi4spn	x15,x2,596
    39e2:	8000                	.insn	2, 0x8000
	...
    39f0:	02b6                	c.slli	x5,0xd
    39f2:	0000                	c.unimp
    39f4:	0010                	.insn	2, 0x0010
    39f6:	20000003          	lb	x0,512(x0) # 0x200
    39fa:	8000                	.insn	2, 0x8000
	...
    3a08:	0274                	c.addi4spn	x13,x2,268
    3a0a:	0000                	c.unimp
    3a0c:	0012                	c.slli	x0,0x4
    3a0e:	0001                	c.addi	x0,0
    3a10:	0000                	c.unimp
    3a12:	8000                	.insn	2, 0x8000
	...
    3a20:	02c6                	c.slli	x5,0x11
    3a22:	0000                	c.unimp
    3a24:	0010                	.insn	2, 0x0010
    3a26:	fff1                	c.bnez	x15,0x3a02
	...
    3a38:	02d4                	c.addi4spn	x13,x2,324
    3a3a:	0000                	c.unimp
    3a3c:	0010                	.insn	2, 0x0010
    3a3e:	0001                	c.addi	x0,0
    3a40:	0040                	c.addi4spn	x8,x2,4
    3a42:	8000                	.insn	2, 0x8000
	...
    3a50:	02e0                	c.addi4spn	x8,x2,332
    3a52:	0000                	c.unimp
    3a54:	0010                	.insn	2, 0x0010
    3a56:	0001                	c.addi	x0,0
    3a58:	0c50                	c.addi4spn	x12,x2,532
    3a5a:	8000                	.insn	2, 0x8000
	...
    3a68:	02f0                	c.addi4spn	x12,x2,332
    3a6a:	0000                	c.unimp
    3a6c:	0010                	.insn	2, 0x0010
    3a6e:	0001                	c.addi	x0,0
    3a70:	0420                	c.addi4spn	x8,x2,520
    3a72:	8000                	.insn	2, 0x8000
	...
    3a80:	0302                	c.slli64	x6
    3a82:	0000                	c.unimp
    3a84:	0212                	c.slli	x4,0x4
    3a86:	0001                	c.addi	x0,0
    3a88:	0010                	.insn	2, 0x0010
    3a8a:	8000                	.insn	2, 0x8000
    3a8c:	0000                	c.unimp
    3a8e:	0000                	c.unimp
    3a90:	0014                	.insn	2, 0x0014
    3a92:	0000                	c.unimp
    3a94:	0000                	c.unimp
    3a96:	0000                	c.unimp
    3a98:	00000307          	.insn	4, 0x0307
    3a9c:	0010                	.insn	2, 0x0010
    3a9e:	10000003          	lb	x0,256(x0) # 0x100
    3aa2:	8000                	.insn	2, 0x8000
	...
    3ab0:	0319                	c.addi	x6,6
    3ab2:	0000                	c.unimp
    3ab4:	0010                	.insn	2, 0x0010
    3ab6:	20000003          	lb	x0,512(x0) # 0x200
    3aba:	8000                	.insn	2, 0x8000
	...
    3ac8:	00b9                	c.addi	x1,14
    3aca:	0000                	c.unimp
    3acc:	0010                	.insn	2, 0x0010
    3ace:	21100003          	lb	x0,529(x0) # 0x211
    3ad2:	8000                	.insn	2, 0x8000
	...
    3ae0:	0329                	c.addi	x6,10
    3ae2:	0000                	c.unimp
    3ae4:	0010                	.insn	2, 0x0010
    3ae6:	0001                	c.addi	x0,0
    3ae8:	0c50                	c.addi4spn	x12,x2,532
    3aea:	8000                	.insn	2, 0x8000
	...
    3af8:	0324                	c.addi4spn	x9,x2,392
    3afa:	0000                	c.unimp
    3afc:	0010                	.insn	2, 0x0010
    3afe:	b0000003          	lb	x0,-1280(x0) # 0xfffffffffffffb00
    3b02:	8000                	.insn	2, 0x8000
	...
    3b10:	0339                	c.addi	x6,14
    3b12:	0000                	c.unimp
    3b14:	0212                	c.slli	x4,0x4
    3b16:	0001                	c.addi	x0,0
    3b18:	0cb0                	c.addi4spn	x12,x2,600
    3b1a:	8000                	.insn	2, 0x8000
    3b1c:	0000                	c.unimp
    3b1e:	0000                	c.unimp
    3b20:	000c                	.insn	2, 0x000c
    3b22:	0000                	c.unimp
    3b24:	0000                	c.unimp
    3b26:	0000                	c.unimp
    3b28:	7300                	c.ld	x8,32(x14)
    3b2a:	6174                	c.ld	x13,192(x10)
    3b2c:	7472                	c.ldsp	x8,312(x2)
    3b2e:	6f2e                	c.ldsp	x30,200(x2)
    3b30:	2400                	c.fld	f8,8(x8)
    3b32:	0078                	c.addi4spn	x14,x2,12
    3b34:	616d                	c.addi16sp	x2,240
    3b36:	6e69                	c.lui	x28,0x1a
    3b38:	632e                	c.ldsp	x6,200(x2)
    3b3a:	6c00                	c.ld	x8,24(x8)
    3b3c:	7568                	c.ld	x10,232(x10)
    3b3e:	612d                	c.addi16sp	x2,224
    3b40:	696c                	c.ld	x11,208(x10)
    3b42:	302d6e67          	.insn	4, 0x302d6e67
    3b46:	2e31                	c.addiw	x28,12 # 0x1a00c
    3b48:	4d4d006f          	jal	x0,0xd401c
    3b4c:	5f45444f          	.insn	4, 0x5f45444f
    3b50:	00474953          	fadd.s	f18,f14,f4,rmm
    3b54:	444f4d53          	.insn	4, 0x444f4d53
    3b58:	5f45                	c.li	x30,-15
    3b5a:	00474953          	fadd.s	f18,f14,f4,rmm
    3b5e:	4d56                	c.lwsp	x26,84(x2)
    3b60:	5f45444f          	.insn	4, 0x5f45444f
    3b64:	00474953          	fadd.s	f18,f14,f4,rmm
    3b68:	6d69                	c.lui	x26,0x1a
    3b6a:	786d                	c.lui	x16,0xffffb
    3b6c:	6500                	c.ld	x8,8(x10)
    3b6e:	6764                	c.ld	x9,200(x14)
    3b70:	3165                	c.addiw	x2,-7
    3b72:	6500                	c.ld	x8,8(x10)
    3b74:	6764                	c.ld	x9,200(x14)
    3b76:	3265                	c.addiw	x4,-7 # 0xfffffffffffffff9
    3b78:	6600                	c.ld	x8,8(x12)
    3b7a:	646e                	c.ldsp	x8,216(x2)
    3b7c:	0031                	c.addi	x0,12
    3b7e:	6e66                	c.ldsp	x28,88(x2)
    3b80:	3264                	c.fld	f9,224(x12)
    3b82:	6900                	c.ld	x8,16(x10)
    3b84:	6d6d                	c.lui	x26,0x1b
    3b86:	0065                	c.addi	x0,25
    3b88:	6f70                	c.ld	x12,216(x14)
    3b8a:	62610073          	.insn	4, 0x62610073
    3b8e:	6d6d6973          	csrrsi	x18,0x6d6,26
    3b92:	6300                	c.ld	x8,0(x14)
    3b94:	7972                	c.ldsp	x18,312(x2)
    3b96:	6900                	c.ld	x8,16(x10)
    3b98:	6d6d                	c.lui	x26,0x1b
    3b9a:	3231                	c.addiw	x4,-20 # 0xffffffffffffffec
    3b9c:	6500                	c.ld	x8,8(x10)
    3b9e:	6576                	c.ldsp	x10,344(x2)
    3ba0:	006e                	c.slli	x0,0x1b
    3ba2:	68797263          	bgeu	x18,x7,0x4226
    3ba6:	6900                	c.ld	x8,16(x10)
    3ba8:	6d6d                	c.lui	x26,0x1b
    3baa:	7378                	c.ld	x14,224(x14)
    3bac:	0068                	c.addi4spn	x10,x2,12
    3bae:	6d69                	c.lui	x26,0x1a
    3bb0:	316d                	c.addiw	x2,-5
    3bb2:	7332                	c.ldsp	x6,296(x2)
    3bb4:	0068                	c.addi4spn	x10,x2,12
    3bb6:	73797263          	bgeu	x18,x23,0x42da
    3bba:	0068                	c.addi4spn	x10,x2,12
    3bbc:	6261                	c.lui	x4,0x18
    3bbe:	6d6d6973          	csrrsi	x18,0x6d6,26
    3bc2:	73006873          	csrrsi	x16,mhpmevent16h,0
    3bc6:	6769                	c.lui	x14,0x1a
    3bc8:	616e                	c.ldsp	x2,216(x2)
    3bca:	7574                	c.ld	x13,232(x10)
    3bcc:	6572                	c.ldsp	x10,280(x2)
    3bce:	785f 5f37 0031      	.insn	6, 0x00315f37785f
    3bd4:	6e69                	c.lui	x28,0x1a
    3bd6:	305f7473          	csrrci	x8,mtvec,30
    3bda:	7200                	c.ld	x8,32(x12)
    3bdc:	7476                	c.ldsp	x8,376(x2)
    3bde:	7365                	c.lui	x6,0xffff9
    3be0:	5f74                	c.lw	x13,124(x14)
    3be2:	6164                	c.ld	x9,192(x10)
    3be4:	6174                	c.ld	x13,192(x10)
    3be6:	6900                	c.ld	x8,16(x10)
    3be8:	736e                	c.ldsp	x6,248(x2)
    3bea:	5f74                	c.lw	x13,124(x14)
    3bec:	0031                	c.addi	x0,12
    3bee:	6e69                	c.lui	x28,0x1a
    3bf0:	325f7473          	csrrci	x8,mhpmevent5,30
    3bf4:	6900                	c.ld	x8,16(x10)
    3bf6:	736e                	c.ldsp	x6,248(x2)
    3bf8:	5f74                	c.lw	x13,124(x14)
    3bfa:	6e690033          	.insn	4, 0x6e690033
    3bfe:	345f7473          	csrrci	x8,0x345,30
    3c02:	6900                	c.ld	x8,16(x10)
    3c04:	736e                	c.ldsp	x6,248(x2)
    3c06:	5f74                	c.lw	x13,124(x14)
    3c08:	0035                	c.addi	x0,13
    3c0a:	6e69                	c.lui	x28,0x1a
    3c0c:	365f7473          	csrrci	x8,0x365,30
    3c10:	6900                	c.ld	x8,16(x10)
    3c12:	736e                	c.ldsp	x6,248(x2)
    3c14:	5f74                	c.lw	x13,124(x14)
    3c16:	6e690037          	lui	x0,0x6e690
    3c1a:	385f7473          	csrrci	x8,0x385,30
    3c1e:	6900                	c.ld	x8,16(x10)
    3c20:	736e                	c.ldsp	x6,248(x2)
    3c22:	5f74                	c.lw	x13,124(x14)
    3c24:	0039                	c.addi	x0,14
    3c26:	6e69                	c.lui	x28,0x1a
    3c28:	315f7473          	csrrci	x8,0x315,30
    3c2c:	0030                	c.addi4spn	x12,x2,8
    3c2e:	6e69                	c.lui	x28,0x1a
    3c30:	315f7473          	csrrci	x8,0x315,30
    3c34:	0031                	c.addi	x0,12
    3c36:	6e69                	c.lui	x28,0x1a
    3c38:	315f7473          	csrrci	x8,0x315,30
    3c3c:	0032                	c.slli	x0,0xc
    3c3e:	6e69                	c.lui	x28,0x1a
    3c40:	315f7473          	csrrci	x8,0x315,30
    3c44:	6e690033          	.insn	4, 0x6e690033
    3c48:	315f7473          	csrrci	x8,0x315,30
    3c4c:	0034                	c.addi4spn	x13,x2,8
    3c4e:	6e69                	c.lui	x28,0x1a
    3c50:	315f7473          	csrrci	x8,0x315,30
    3c54:	0035                	c.addi	x0,13
    3c56:	6e69                	c.lui	x28,0x1a
    3c58:	315f7473          	csrrci	x8,0x315,30
    3c5c:	0036                	c.slli	x0,0xd
    3c5e:	6e69                	c.lui	x28,0x1a
    3c60:	315f7473          	csrrci	x8,0x315,30
    3c64:	6e690037          	lui	x0,0x6e690
    3c68:	315f7473          	csrrci	x8,0x315,30
    3c6c:	0038                	c.addi4spn	x14,x2,8
    3c6e:	6e69                	c.lui	x28,0x1a
    3c70:	315f7473          	csrrci	x8,0x315,30
    3c74:	0039                	c.addi	x0,14
    3c76:	6e69                	c.lui	x28,0x1a
    3c78:	325f7473          	csrrci	x8,mhpmevent5,30
    3c7c:	0030                	c.addi4spn	x12,x2,8
    3c7e:	6e69                	c.lui	x28,0x1a
    3c80:	325f7473          	csrrci	x8,mhpmevent5,30
    3c84:	0031                	c.addi	x0,12
    3c86:	6e69                	c.lui	x28,0x1a
    3c88:	325f7473          	csrrci	x8,mhpmevent5,30
    3c8c:	0032                	c.slli	x0,0xc
    3c8e:	6e676973          	csrrsi	x18,0x6e6,14
    3c92:	7461                	c.lui	x8,0xffff8
    3c94:	7275                	c.lui	x4,0xffffd
    3c96:	5f65                	c.li	x30,-7
    3c98:	3378                	c.fld	f14,224(x14)
    3c9a:	305f 6900 736e      	.insn	6, 0x736e6900305f
    3ca0:	5f74                	c.lw	x13,124(x14)
    3ca2:	3332                	c.fldsp	f6,296(x2)
    3ca4:	6900                	c.ld	x8,16(x10)
    3ca6:	736e                	c.ldsp	x6,248(x2)
    3ca8:	5f74                	c.lw	x13,124(x14)
    3caa:	3432                	c.fldsp	f8,296(x2)
    3cac:	6900                	c.ld	x8,16(x10)
    3cae:	736e                	c.ldsp	x6,248(x2)
    3cb0:	5f74                	c.lw	x13,124(x14)
    3cb2:	3532                	c.fldsp	f10,296(x2)
    3cb4:	6900                	c.ld	x8,16(x10)
    3cb6:	736e                	c.ldsp	x6,248(x2)
    3cb8:	5f74                	c.lw	x13,124(x14)
    3cba:	3632                	c.fldsp	f12,296(x2)
    3cbc:	6900                	c.ld	x8,16(x10)
    3cbe:	736e                	c.ldsp	x6,248(x2)
    3cc0:	5f74                	c.lw	x13,124(x14)
    3cc2:	3732                	c.fldsp	f14,296(x2)
    3cc4:	6900                	c.ld	x8,16(x10)
    3cc6:	736e                	c.ldsp	x6,248(x2)
    3cc8:	5f74                	c.lw	x13,124(x14)
    3cca:	3832                	c.fldsp	f16,296(x2)
    3ccc:	6900                	c.ld	x8,16(x10)
    3cce:	736e                	c.ldsp	x6,248(x2)
    3cd0:	5f74                	c.lw	x13,124(x14)
    3cd2:	3932                	c.fldsp	f18,296(x2)
    3cd4:	6900                	c.ld	x8,16(x10)
    3cd6:	736e                	c.ldsp	x6,248(x2)
    3cd8:	5f74                	c.lw	x13,124(x14)
    3cda:	69003033          	.insn	4, 0x69003033
    3cde:	736e                	c.ldsp	x6,248(x2)
    3ce0:	5f74                	c.lw	x13,124(x14)
    3ce2:	65003133          	.insn	4, 0x65003133
    3ce6:	6978                	c.ld	x14,208(x10)
    3ce8:	5f74                	c.lw	x13,124(x14)
    3cea:	61656c63          	bltu	x10,x22,0x4302
    3cee:	756e                	c.ldsp	x10,248(x2)
    3cf0:	0070                	c.addi4spn	x12,x2,12
    3cf2:	6261                	c.lui	x4,0x18
    3cf4:	5f74726f          	jal	x4,0x4baea
    3cf8:	6574                	c.ld	x13,200(x10)
    3cfa:	00737473          	csrrci	x8,0x7,6
    3cfe:	746d                	c.lui	x8,0xffffb
    3d00:	6172                	c.ldsp	x2,280(x2)
    3d02:	5f70                	c.lw	x12,124(x14)
    3d04:	70676973          	csrrsi	x18,0x706,14
    3d08:	7274                	c.ld	x13,224(x12)
    3d0a:	7200                	c.ld	x8,32(x12)
    3d0c:	7476                	c.ldsp	x8,376(x2)
    3d0e:	7365                	c.lui	x6,0xffff9
    3d10:	5f74                	c.lw	x13,124(x14)
    3d12:	5f676973          	csrrsi	x18,0x5f6,14
    3d16:	6562                	c.ldsp	x10,24(x2)
    3d18:	006e6967          	.insn	4, 0x006e6967
    3d1c:	5f676973          	csrrsi	x18,0x5f6,14
    3d20:	6562                	c.ldsp	x10,24(x2)
    3d22:	5f6e6967          	.insn	4, 0x5f6e6967
    3d26:	616e6163          	bltu	x28,x22,0x4328
    3d2a:	7972                	c.ldsp	x18,312(x2)
    3d2c:	7300                	c.ld	x8,32(x14)
    3d2e:	6769                	c.lui	x14,0x1a
    3d30:	616e                	c.ldsp	x2,216(x2)
    3d32:	7574                	c.ld	x13,232(x10)
    3d34:	6572                	c.ldsp	x10,280(x2)
    3d36:	785f 5f37 0030      	.insn	6, 0x00305f37785f
    3d3c:	5f676973          	csrrsi	x18,0x5f6,14
    3d40:	6e65                	c.lui	x28,0x19
    3d42:	5f64                	c.lw	x9,124(x14)
    3d44:	616e6163          	bltu	x28,x22,0x4346
    3d48:	7972                	c.ldsp	x18,312(x2)
    3d4a:	7200                	c.ld	x8,32(x12)
    3d4c:	7476                	c.ldsp	x8,376(x2)
    3d4e:	7365                	c.lui	x6,0xffff9
    3d50:	5f74                	c.lw	x13,124(x14)
    3d52:	5f676973          	csrrsi	x18,0x5f6,14
    3d56:	6e65                	c.lui	x28,0x19
    3d58:	0064                	c.addi4spn	x9,x2,12
    3d5a:	7274                	c.ld	x13,224(x12)
    3d5c:	2e6d                	c.addiw	x28,27 # 0x1901b
    3d5e:	616d0063          	beq	x26,x22,0x435e
    3d62:	6e69                	c.lui	x28,0x1a
    3d64:	7261                	c.lui	x4,0xffff8
    3d66:	5f007367          	.insn	4, 0x5f007367
    3d6a:	7274                	c.ld	x13,224(x12)
    3d6c:	5f6d                	c.li	x30,-5
    3d6e:	6e69                	c.lui	x28,0x1a
    3d70:	7469                	c.lui	x8,0xffffa
    3d72:	5f00                	c.lw	x8,56(x14)
    3d74:	63617473          	csrrci	x8,0x636,2
    3d78:	6f705f6b          	.insn	4, 0x6f705f6b
    3d7c:	6e69                	c.lui	x28,0x1a
    3d7e:	6574                	c.ld	x13,200(x10)
    3d80:	0072                	c.slli	x0,0x1c
    3d82:	6e65                	c.lui	x28,0x19
    3d84:	5f64                	c.lw	x9,124(x14)
    3d86:	6e676973          	csrrsi	x18,0x6e6,14
    3d8a:	7461                	c.lui	x8,0xffff8
    3d8c:	7275                	c.lui	x4,0xffffd
    3d8e:	0065                	c.addi	x0,25
    3d90:	655f 6574 7478      	.insn	6, 0x74786574655f
    3d96:	5f00                	c.lw	x8,56(x14)
    3d98:	6d70                	c.ld	x12,216(x10)
    3d9a:	6d65                	c.lui	x26,0x19
    3d9c:	735f 6174 7472      	.insn	6, 0x74726174735f
    3da2:	5f00                	c.lw	x8,56(x14)
    3da4:	7362                	c.ldsp	x6,56(x2)
    3da6:	74735f73          	csrrwi	x30,mseccfg,6
    3daa:	7261                	c.lui	x4,0xffff8
    3dac:	0074                	c.addi4spn	x13,x2,12
    3dae:	6465                	c.lui	x8,0x19
    3db0:	7461                	c.lui	x8,0xffff8
    3db2:	0061                	c.addi	x0,24
    3db4:	685f 6165 5f70      	.insn	6, 0x5f706165685f
    3dba:	72617473          	csrrci	x8,mhpmevent6h,2
    3dbe:	0074                	c.addi4spn	x13,x2,12
    3dc0:	735f 6174 6b63      	.insn	6, 0x6b636174735f
    3dc6:	745f 706f 7200      	.insn	6, 0x7200706f745f
    3dcc:	7476                	c.ldsp	x8,376(x2)
    3dce:	7365                	c.lui	x6,0xffff9
    3dd0:	5f74                	c.lw	x13,124(x14)
    3dd2:	6e65                	c.lui	x28,0x19
    3dd4:	7274                	c.ld	x13,224(x12)
    3dd6:	5f79                	c.li	x30,-2
    3dd8:	6f70                	c.ld	x12,216(x14)
    3dda:	6e69                	c.lui	x28,0x1a
    3ddc:	0074                	c.addi4spn	x13,x2,12
    3dde:	6562                	c.ldsp	x10,24(x2)
    3de0:	5f6e6967          	.insn	4, 0x5f6e6967
    3de4:	6e676973          	csrrsi	x18,0x6e6,14
    3de8:	7461                	c.lui	x8,0xffff8
    3dea:	7275                	c.lui	x4,0xffffd
    3dec:	0065                	c.addi	x0,25
    3dee:	655f 746e 7972      	.insn	6, 0x7972746e655f
    3df4:	6f5f 6666 6573      	.insn	6, 0x657366666f5f
    3dfa:	0074                	c.addi4spn	x13,x2,12
    3dfc:	7672                	c.ldsp	x12,312(x2)
    3dfe:	6574                	c.ld	x13,200(x10)
    3e00:	695f7473          	csrrci	x8,0x695,30
    3e04:	696e                	c.ldsp	x18,216(x2)
    3e06:	0074                	c.addi4spn	x13,x2,12
    3e08:	7672                	c.ldsp	x12,312(x2)
    3e0a:	6574                	c.ld	x13,200(x10)
    3e0c:	635f7473          	csrrci	x8,0x635,30
    3e10:	5f65646f          	jal	x8,0x5a406
    3e14:	6e65                	c.lui	x28,0x19
    3e16:	0064                	c.addi4spn	x9,x2,12
    3e18:	7672                	c.ldsp	x12,312(x2)
    3e1a:	6574                	c.ld	x13,200(x10)
    3e1c:	635f7473          	csrrci	x8,0x635,30
    3e20:	5f65646f          	jal	x8,0x5a416
    3e24:	6562                	c.ldsp	x10,24(x2)
    3e26:	006e6967          	.insn	4, 0x006e6967
    3e2a:	616d                	c.addi16sp	x2,240
    3e2c:	6e69                	c.lui	x28,0x1a
    3e2e:	7200                	c.ld	x8,32(x12)
    3e30:	7476                	c.ldsp	x8,376(x2)
    3e32:	7365                	c.lui	x6,0xffff9
    3e34:	5f74                	c.lw	x13,124(x14)
    3e36:	6164                	c.ld	x9,192(x10)
    3e38:	6174                	c.ld	x13,192(x10)
    3e3a:	625f 6765 6e69      	.insn	6, 0x6e696765625f
    3e40:	7200                	c.ld	x8,32(x12)
    3e42:	7476                	c.ldsp	x8,376(x2)
    3e44:	7365                	c.lui	x6,0xffff9
    3e46:	5f74                	c.lw	x13,124(x14)
    3e48:	6164                	c.ld	x9,192(x10)
    3e4a:	6174                	c.ld	x13,192(x10)
    3e4c:	655f 646e 6300      	.insn	6, 0x6300646e655f
    3e52:	656c                	c.ld	x11,200(x10)
    3e54:	6e61                	c.lui	x28,0x18
    3e56:	7075                	c.lui	x0,0xffffd
    3e58:	655f 6970 6f6c      	.insn	6, 0x6f6c6970655f
    3e5e:	68007367          	.insn	4, 0x68007367
    3e62:	6c61                	c.lui	x24,0x18
    3e64:	0074                	c.addi4spn	x13,x2,12
    3e66:	2e00                	c.fld	f8,24(x12)
    3e68:	746d7973          	csrrci	x18,0x746,26
    3e6c:	6261                	c.lui	x4,0x18
    3e6e:	2e00                	c.fld	f8,24(x12)
    3e70:	74727473          	csrrci	x8,mseccfg,4
    3e74:	6261                	c.lui	x4,0x18
    3e76:	2e00                	c.fld	f8,24(x12)
    3e78:	74736873          	csrrsi	x16,mseccfg,6
    3e7c:	7472                	c.ldsp	x8,312(x2)
    3e7e:	6261                	c.lui	x4,0x18
    3e80:	2e00                	c.fld	f8,24(x12)
    3e82:	6574                	c.ld	x13,200(x10)
    3e84:	7478                	c.ld	x14,232(x8)
    3e86:	2e00                	c.fld	f8,24(x12)
    3e88:	646f7273          	csrrci	x4,hviprio1,30
    3e8c:	7461                	c.lui	x8,0xffff8
    3e8e:	2e61                	c.addiw	x28,24 # 0x18018
    3e90:	616d                	c.addi16sp	x2,240
    3e92:	6e69                	c.lui	x28,0x1a
    3e94:	7261                	c.lui	x4,0xffff8
    3e96:	2e007367          	.insn	4, 0x2e007367
    3e9a:	6164                	c.ld	x9,192(x10)
    3e9c:	6174                	c.ld	x13,192(x10)
    3e9e:	2e00                	c.fld	f8,24(x12)
    3ea0:	6d6d6f63          	bltu	x26,x22,0x457e
    3ea4:	6e65                	c.lui	x28,0x19
    3ea6:	0074                	c.addi4spn	x13,x2,12
    3ea8:	722e                	c.ldsp	x4,232(x2)
    3eaa:	7369                	c.lui	x6,0xffffa
    3eac:	612e7663          	bgeu	x28,x18,0x44b8
    3eb0:	7474                	c.ld	x13,232(x8)
    3eb2:	6972                	c.ldsp	x18,280(x2)
    3eb4:	7562                	c.ldsp	x10,56(x2)
    3eb6:	6574                	c.ld	x13,200(x10)
    3eb8:	00000073          	ecall
	...
    3f00:	0000001b          	addiw	x0,x0,0
    3f04:	0001                	c.addi	x0,0
    3f06:	0000                	c.unimp
    3f08:	0006                	c.slli	x0,0x1
	...
    3f12:	8000                	.insn	2, 0x8000
    3f14:	0000                	c.unimp
    3f16:	0000                	c.unimp
    3f18:	1000                	c.addi4spn	x8,x2,32
    3f1a:	0000                	c.unimp
    3f1c:	0000                	c.unimp
    3f1e:	0000                	c.unimp
    3f20:	0cdc                	c.addi4spn	x15,x2,596
	...
    3f2e:	0000                	c.unimp
    3f30:	0020                	c.addi4spn	x8,x2,8
	...
    3f3e:	0000                	c.unimp
    3f40:	0021                	c.addi	x0,8
    3f42:	0000                	c.unimp
    3f44:	0001                	c.addi	x0,0
    3f46:	0000                	c.unimp
    3f48:	0002                	c.slli64	x0
    3f4a:	0000                	c.unimp
    3f4c:	0000                	c.unimp
    3f4e:	0000                	c.unimp
    3f50:	0ce0                	c.addi4spn	x8,x2,604
    3f52:	8000                	.insn	2, 0x8000
    3f54:	0000                	c.unimp
    3f56:	0000                	c.unimp
    3f58:	1ce0                	c.addi4spn	x8,x2,636
    3f5a:	0000                	c.unimp
    3f5c:	0000                	c.unimp
    3f5e:	0000                	c.unimp
    3f60:	0001                	c.addi	x0,0
	...
    3f6e:	0000                	c.unimp
    3f70:	0008                	.insn	2, 0x0008
	...
    3f7e:	0000                	c.unimp
    3f80:	00000033          	add	x0,x0,x0
    3f84:	0001                	c.addi	x0,0
    3f86:	0000                	c.unimp
    3f88:	00000003          	lb	x0,0(x0) # 0x0
    3f8c:	0000                	c.unimp
    3f8e:	0000                	c.unimp
    3f90:	1000                	c.addi4spn	x8,x2,32
    3f92:	8000                	.insn	2, 0x8000
    3f94:	0000                	c.unimp
    3f96:	0000                	c.unimp
    3f98:	2000                	c.fld	f8,0(x8)
    3f9a:	0000                	c.unimp
    3f9c:	0000                	c.unimp
    3f9e:	0000                	c.unimp
    3fa0:	1110                	c.addi4spn	x12,x2,160
	...
    3fae:	0000                	c.unimp
    3fb0:	1000                	c.addi4spn	x8,x2,32
	...
    3fbe:	0000                	c.unimp
    3fc0:	0039                	c.addi	x0,14
    3fc2:	0000                	c.unimp
    3fc4:	0001                	c.addi	x0,0
    3fc6:	0000                	c.unimp
    3fc8:	0030                	c.addi4spn	x12,x2,8
	...
    3fd6:	0000                	c.unimp
    3fd8:	3110                	c.fld	f12,32(x10)
    3fda:	0000                	c.unimp
    3fdc:	0000                	c.unimp
    3fde:	0000                	c.unimp
    3fe0:	0026                	c.slli	x0,0x9
	...
    3fee:	0000                	c.unimp
    3ff0:	0001                	c.addi	x0,0
    3ff2:	0000                	c.unimp
    3ff4:	0000                	c.unimp
    3ff6:	0000                	c.unimp
    3ff8:	0001                	c.addi	x0,0
    3ffa:	0000                	c.unimp
    3ffc:	0000                	c.unimp
    3ffe:	0000                	c.unimp
    4000:	0042                	c.slli	x0,0x10
    4002:	0000                	c.unimp
    4004:	70000003          	lb	x0,1792(x0) # 0x700
	...
    4018:	3136                	c.fldsp	f2,360(x2)
    401a:	0000                	c.unimp
    401c:	0000                	c.unimp
    401e:	0000                	c.unimp
    4020:	002e                	c.slli	x0,0xb
	...
    402e:	0000                	c.unimp
    4030:	0001                	c.addi	x0,0
	...
    403e:	0000                	c.unimp
    4040:	0001                	c.addi	x0,0
    4042:	0000                	c.unimp
    4044:	0002                	c.slli64	x0
	...
    4056:	0000                	c.unimp
    4058:	3168                	c.fld	f10,224(x10)
    405a:	0000                	c.unimp
    405c:	0000                	c.unimp
    405e:	0000                	c.unimp
    4060:	09c0                	c.addi4spn	x8,x2,212
    4062:	0000                	c.unimp
    4064:	0000                	c.unimp
    4066:	0000                	c.unimp
    4068:	00000007          	.insn	4, 0x0007
    406c:	0000004f          	fnmadd.s	f0,f0,f0,f0,rne
    4070:	0008                	.insn	2, 0x0008
    4072:	0000                	c.unimp
    4074:	0000                	c.unimp
    4076:	0000                	c.unimp
    4078:	0018                	.insn	2, 0x0018
    407a:	0000                	c.unimp
    407c:	0000                	c.unimp
    407e:	0000                	c.unimp
    4080:	0009                	c.addi	x0,2
    4082:	0000                	c.unimp
    4084:	00000003          	lb	x0,0(x0) # 0x0
	...
    4098:	3b28                	c.fld	f10,112(x14)
    409a:	0000                	c.unimp
    409c:	0000                	c.unimp
    409e:	0000                	c.unimp
    40a0:	033e                	c.slli	x6,0xf
	...
    40ae:	0000                	c.unimp
    40b0:	0001                	c.addi	x0,0
	...
    40be:	0000                	c.unimp
    40c0:	0011                	c.addi	x0,4
    40c2:	0000                	c.unimp
    40c4:	00000003          	lb	x0,0(x0) # 0x0
	...
    40d8:	3e66                	c.fldsp	f28,120(x2)
    40da:	0000                	c.unimp
    40dc:	0000                	c.unimp
    40de:	0000                	c.unimp
    40e0:	0054                	c.addi4spn	x13,x2,4
	...
    40ee:	0000                	c.unimp
    40f0:	0001                	c.addi	x0,0
	...
