
bin/riscv-arch-test/lui-riscv64-nemu.bin:     file format binary

Contents of section .data:
 80000000 13040000 17b10000 1301c1ff ef00101b  ................
 80000010 ef000003 13051000 ef009019 13050000  ................
 80000020 67800000 13051000 ef009018 67800000  g...........g...
 80000030 00000000 00000000 00000000 00000000  ................
 80000040 b7c0edfe 9380d0ea 9390b000 9380707f  ..............p.
 80000050 9390b000 9380f036 9390a000 9380d02a  .......6.......*
 80000060 37e176ff 130161f5 1311b100 1301b17f  7.v...a.........
 80000070 1311b100 1301715b 1311a100 13016135  ......q[......a5
 80000080 b771bb7f 9381b1fa 9391b100 9381d13f  .q.............?
 80000090 9391b100 9381b16d 9391a100 9381b13a  .......m.......:
 800000a0 37b2ddbf 1302527d 1312b200 1302e25f  7.....R}......._
 800000b0 1312b200 1302d276 1312a200 1302523d  .......v......R=
 800000c0 b7e2eedf 9382a2be 9392b200 9382f26f  ...............o
 800000d0 9392b200 9382623b 9392a200 9382a23e  ......b;.......>
 800000e0 3773f76f 130353df 1313b300 1303f337  7s.o..S........7
 800000f0 1313b300 1303b35d 1313a300 1303531f  .......]......S.
 80000100 b7b3fbb7 9383a36f 9393b300 9383f35b  .......o.......[
 80000110 9393b300 9383d36e 9393a300 9383a32f  .......n......./
 80000120 37e4fd5b 1304d4b7 1314b400 1304f42d  7..[...........-
 80000130 1314b400 13046477 1314a400 1304d437  ......dw.......7
 80000140 b7f4fead 9384e4db 9394b400 9384f456  ...............V
 80000150 9394b400 9384b47b 9394a400 9384e41b  .......{........
 80000160 3775ff56 1305f56d 1315b500 1305752b  7u.V...m......u+
 80000170 1315b500 1305d57d 1315a500 1305f52d  .......}.......-
 80000180 b7c57fab 9385f5b6 9395b500 9385b555  ...............U
 80000190 9395b500 9385e57e 9395a500 9385f536  .......~.......6
 800001a0 37e6bfd5 130676db 1316b600 1306d66a  7.....v........j
 800001b0 1316b600 1306767f 1316a600 1306761b  ......v.......v.
 800001c0 b7f6dfea 9386b6ed 9396b600 93866675  ..............fu
 800001d0 9396b600 9386b67f 9396a600 9386b62d  ...............-
 800001e0 37f76ff5 1307d776 1317b700 1307b77a  7.o....v.......z
 800001f0 1317b700 1307d73f 1317a700 1307d736  .......?.......6
 80000200 b707b8fa 938767bb 9397b700 9387577d  ......g.......W}
 80000210 9397b700 9387e75f 9397a700 9387673b  ......._......g;
 80000220 37085c7d 1308b8dd 1318b800 1308a83e  7.\}...........>
 80000230 1318b800 1308f86f 1318a800 1308b81d  .......o........
 80000240 b708aebe 9388d8ee 9398b800 9388585f  ..............X_
 80000250 9398b800 9388f837 9398a800 9388d82e  .......7........
 80000260 370957df 130969f7 1319b900 1309a96f  7.W...i........o
 80000270 1319b900 1309f95b 1319a900 13096937  .......[......i7
 80000280 b789ab6f 9389b9fb 9399b900 9389d937  ...o...........7
 80000290 9399b900 9389f92d 9399a900 9389b93b  .......-.......;
 800002a0 37cad5b7 130adafd 131aba00 130aea5b  7..............[
 800002b0 131aba00 130afa56 131aaa00 130ada3d  .......V.......=
 800002c0 b7eaeadb 938aeafe 939aba00 938afa6d  ...............m
 800002d0 939aba00 938a7a2b 939aaa00 938aea3e  ......z+.......>
 800002e0 377bf56d 130b7bff 131bbb00 130bfb36  7{.m..{........6
 800002f0 131bbb00 130bbb55 131bab00 130b7b3f  .......U......{?
 80000300 b7bbfab6 938bbb7f 939bbb00 938b7b5b  ..............{[
 80000310 939bbb00 938bdb6a 939bab00 938bbb3f  .......j.......?
 80000320 376c7ddb 130cdcbf 131cbc00 130cbc6d  7l}............m
 80000330 131cbc00 130c6c75 131cac00 130cdc3f  ......lu.......?
 80000340 b7bcbeed 938cecdf 939cbc00 938cdc76  ...............v
 80000350 939cbc00 938cbc7a 939cac00 938cec1f  .......z........
 80000360 375ddf76 130dfd6f 131dbd00 130d6d3b  7].v...o......m;
 80000370 131dbd00 130d5d7d 131dad00 130dfd2f  ......]}......./
 80000380 b7bd6fbb 938dfdb7 939dbd00 938dbd5d  ..o............]
 80000390 939dbd00 938dad3e 939dad00 938dfd37  .......>.......7
 800003a0 37deb7dd 130efe5b 131ebe00 130ede6e  7......[.......n
 800003b0 131ebe00 130e5e5f 131eae00 130efe1b  ......^_........
 800003c0 b7fedbee 938efead 939ebe00 938e6e77  ..............nw
 800003d0 939ebe00 938eae6f 939eae00 938efe2d  .......o.......-
 800003e0 37ff6df7 130fff56 131fbf00 130fbf7b  7.m....V.......{
 800003f0 131fbf00 130fdf37 131faf00 130fff16  .......7........
 80000400 b70fb7fb 938f7fab 939fbf00 938fdf7d  ...............}
 80000410 939fbf00 938fef5b 939faf00 938f7f2b  .......[.......+
 80000420 97260000 938686be 13000000 13000000  .&..............
 80000430 13000000 13000000 13000000 13000000  ................
 80000440 37010000 23b02600 130b0000 63042b00  7...#.&.....c.+.
 80000450 6ff05fbd b7452d00 23b4b600 374b2d00  o._..E-.#...7K-.
 80000460 6304bb00 6ff01fbc 37f6ffff 23b8c600  c...o...7...#...
 80000470 37fbffff 6304cb00 6ff0dfba b7300000  7...c...o....0..
 80000480 23bc1600 373b0000 63041b00 6ff09fb9  #...7;..c...o...
 80000490 375c5555 23b08603 375b5555 63048b01  7\UU#...7[UUc...
 800004a0 6ff05fb8 b7a1aaaa 23b43602 37abaaaa  o._.....#.6.7...
 800004b0 63043b00 6ff01fb7 37520000 23b84602  c.;.o...7R..#.F.
 800004c0 375b0000 63044b00 6ff0dfb5 b7373333  7[..c.K.o....733
 800004d0 23bcf602 373b3333 6304fb00 6ff09fb4  #...7;33c...o...
 800004e0 37686666 23b00605 376b6666 63040b01  7hff#...7kffc...
 800004f0 6ff05fb3 b7fb3f00 23b47605 37fb3f00  o._...?.#.v.7.?.
 80000500 63047b01 6ff01fb2 b72f0000 23b8f605  c.{.o..../..#...
 80000510 372b0000 6304fb01 6ff0dfb0 374f5555  7+..c...o...7OUU
 80000520 23bce605 374b5555 6304eb01 6ff09faf  #...7KUUc...o...
 80000530 379eaaaa 23b0c607 379baaaa 6304cb01  7...#...7...c...
 80000540 6ff05fae 37450000 23b4a606 374b0000  o._.7E..#...7K..
 80000550 6304ab00 6ff01fad b7293333 23b83607  c...o....)33#.6.
 80000560 372b3333 63043b01 6ff0dfab 375a6666  7+33c.;.o...7Zff
 80000570 23bc4607 375b6666 63044b01 6ff09faa  #.F.7[ffc.K.o...
 80000580 b7342d00 23b09608 373b2d00 63049b00  .4-.#...7;-.c...
 80000590 6ff05fa9 b7ed3f00 23b4b609 37eb3f00  o._...?.#...7.?.
 800005a0 6304bb01 6ff01fa8 37635555 23b86608  c...o...7cUU#.f.
 800005b0 376b5555 63046b00 6ff0dfa6 37b4aaaa  7kUUc.k.o...7...
 800005c0 23bc8608 37bbaaaa 63048b00 6ff09fa5  #...7...c...o...
 800005d0 b7630000 23b0760a 376b0000 63047b00  .c..#.v.7k..c.{.
 800005e0 6ff05fa4 b7423333 23b4560a 374b3333  o._..B33#.V.7K33
 800005f0 63045b00 6ff01fa3 37796666 23b8260b  c.[.o...7yff#.&.
 80000600 377b6666 63042b01 6ff0dfa1 37572d00  7{ffc.+.o...7W-.
 80000610 23bce60a 375b2d00 6304eb00 6ff09fa0  #...7[-.c...o...
 80000620 b71a0000 23b0560d 371b0000 63045b01  ....#.V.7...c.[.
 80000630 6ff05f9f 370d4000 23b4a60d 370b4000  o._.7.@.#...7.@.
 80000640 6304ab01 6ff01f9e b7880000 23b8160d  c...o.......#...
 80000650 378b0000 63041b01 6ff0df9c b70c0100  7...c...o.......
 80000660 23bc960d 37010100 63049101 6ff09f9b  #...7...c...o...
 80000670 13000000 13000000 13000000 13000000  ................
 80000680 97200000 938080a6 13000000 13000000  . ..............
 80000690 13000000 13000000 13000000 13000000  ................
 800006a0 370b0200 23b06001 37010200 63046101  7...#.`.7...c.a.
 800006b0 6ff05f97 37000400 23b40000 13010000  o._.7...#.......
 800006c0 63040100 6ff01f96 b70e0800 23b8d001  c...o.......#...
 800006d0 37010800 6304d101 6ff0df94 b7f6ffef  7...c...o.......
 800006e0 23bcd000 37f1ffef 6304d100 6ff09f93  #...7...c...o...
 800006f0 37f5ffdf 23b0a002 37f1ffdf 6304a100  7...#...7...c...
 80000700 6ff05f92 37f5ffbf 23b4a002 37f1ffbf  o._.7...#...7...
 80000710 6304a100 6ff01f91 37f5ff7f 23b8a002  c...o...7...#...
 80000720 37f1ff7f 6304a100 6ff0df8f 37051000  7...c...o...7...
 80000730 23bca002 37011000 6304a100 6ff09f8e  #...7...c...o...
 80000740 37052000 23b0a004 37012000 6304a100  7. .#...7. .c...
 80000750 6ff05f8d 37058000 23b4a004 37018000  o._.7...#...7...
 80000760 6304a100 6ff01f8c 37050001 23b8a004  c...o...7...#...
 80000770 37010001 6304a100 6ff0df8a 37050002  7...c...o...7...
 80000780 23bca004 37010002 6304a100 6ff09f89  #...7...c...o...
 80000790 37050004 23b0a006 37010004 6304a100  7...#...7...c...
 800007a0 6ff05f88 37050008 23b4a006 37010008  o._.7...#...7...
 800007b0 6304a100 6ff01f87 37050010 23b8a006  c...o...7...#...
 800007c0 37010010 6304a100 6ff0df85 37050020  7...c...o...7.. 
 800007d0 23bca006 37010020 6304a100 6ff09f84  #...7.. c...o...
 800007e0 37050040 23b0a008 37010040 6304a100  7..@#...7..@c...
 800007f0 6ff05f83 37050080 23b4a008 37010080  o._.7...#...7...
 80000800 6304a100 6ff01f82 37e5ffff 23b8a008  c...o...7...#...
 80000810 37e1ffff 6304a100 6ff0df80 37d5ffff  7...c...o...7...
 80000820 23bca008 37d1ffff 6304a100 6ff08fff  #...7...c...o...
 80000830 37b5ffff 23b0a00a 37b1ffff 6304a100  7...#...7...c...
 80000840 6ff04ffe 3775ffff 23b4a00a 3771ffff  o.O.7u..#...7q..
 80000850 6304a100 6ff00ffd 37f5feff 23b8a00a  c...o...7...#...
 80000860 37f1feff 6304a100 6ff0cffb 37f5fdff  7...c...o...7...
 80000870 23bca00a 37f1fdff 6304a100 6ff08ffa  #...7...c...o...
 80000880 37f5fbff 23b0a00c 37f1fbff 6304a100  7...#...7...c...
 80000890 6ff04ff9 37f5f7ff 23b4a00c 37f1f7ff  o.O.7...#...7...
 800008a0 6304a100 6ff00ff8 37f5efff 23b8a00c  c...o...7...#...
 800008b0 37f1efff 6304a100 6ff0cff6 37f5dfff  7...c...o...7...
 800008c0 23bca00c 37f1dfff 6304a100 6ff08ff5  #...7...c...o...
 800008d0 37f5bfff 23b0a00e 37f1bfff 6304a100  7...#...7...c...
 800008e0 6ff04ff4 37f57fff 23b4a00e 37f17fff  o.O.7...#...7...
 800008f0 6304a100 6ff00ff3 37f5fffe 23b8a00e  c...o...7...#...
 80000900 37f1fffe 6304a100 6ff0cff1 37f5fffd  7...c...o...7...
 80000910 23bca00e 37f1fffd 6304a100 6ff08ff0  #...7...c...o...
 80000920 37f5fffb 23b0a010 37f1fffb 6304a100  7...#...7...c...
 80000930 6ff04fef 37f5fff7 23b4a010 37f1fff7  o.O.7...#...7...
 80000940 6304a100 6ff00fee 37050400 23b8a010  c...o...7...#...
 80000950 37010400 6304a100 6ff0cfec 6f008003  7...c...o...o...
 80000960 8334811f 03330120 33039300 37030000  .4...3. 3...7...
 80000970 13030300 1313b300 1303635d 1313b300  ..........c]....
 80000980 13036343 1313a300 1303032d 23be64fe  ..cC.......-#.d.
 80000990 6f004000 13050000 6f008001 00000000  o.@.....o.......
 800009a0 00000000 00000000 00000000 00000000  ................
 800009b0 13050500 73001000 6f000000 130101ff  ....s...o.......
 800009c0 17050000 13050502 23341100 eff04fe4  ........#4....O.
 800009d0 13050500 73001000 6f000000 00000000  ....s...o.......
 800009e0 00000000 00000000 00000000 00000000  ................
 800009f0 00000000 00000000 00000000 00000000  ................
 80000a00 00000000 00000000 00000000 00000000  ................
 80000a10 00000000 00000000 00000000 00000000  ................
 80000a20 00000000 00000000 00000000 00000000  ................
 80000a30 00000000 00000000 00000000 00000000  ................
 80000a40 00000000 00000000 00000000 00000000  ................
 80000a50 00000000 00000000 00000000 00000000  ................
 80000a60 00000000 00000000 00000000 00000000  ................
 80000a70 00000000 00000000 00000000 00000000  ................
 80000a80 00000000 00000000 00000000 00000000  ................
 80000a90 00000000 00000000 00000000 00000000  ................
 80000aa0 00000000 00000000 00000000 00000000  ................
 80000ab0 00000000 00000000 00000000 00000000  ................
 80000ac0 00000000 00000000 00000000 00000000  ................
 80000ad0 00000000 00000000 00000000 00000000  ................
 80000ae0 00000000 00000000 00000000 00000000  ................
 80000af0 00000000 00000000 00000000 00000000  ................
 80000b00 00000000 00000000 00000000 00000000  ................
 80000b10 00000000 00000000 00000000 00000000  ................
 80000b20 00000000 00000000 00000000 00000000  ................
 80000b30 00000000 00000000 00000000 00000000  ................
 80000b40 00000000 00000000 00000000 00000000  ................
 80000b50 00000000 00000000 00000000 00000000  ................
 80000b60 00000000 00000000 00000000 00000000  ................
 80000b70 00000000 00000000 00000000 00000000  ................
 80000b80 00000000 00000000 00000000 00000000  ................
 80000b90 00000000 00000000 00000000 00000000  ................
 80000ba0 00000000 00000000 00000000 00000000  ................
 80000bb0 00000000 00000000 00000000 00000000  ................
 80000bc0 00000000 00000000 00000000 00000000  ................
 80000bd0 00000000 00000000 00000000 00000000  ................
 80000be0 00000000 00000000 00000000 00000000  ................
 80000bf0 00000000 00000000 00000000 00000000  ................
 80000c00 00000000 00000000 00000000 00000000  ................
 80000c10 00000000 00000000 00000000 00000000  ................
 80000c20 00000000 00000000 00000000 00000000  ................
 80000c30 00000000 00000000 00000000 00000000  ................
 80000c40 00000000 00000000 00000000 00000000  ................
 80000c50 00000000 00000000 00000000 00000000  ................
 80000c60 00000000 00000000 00000000 00000000  ................
 80000c70 00000000 00000000 00000000 00000000  ................
 80000c80 00000000 00000000 00000000 00000000  ................
 80000c90 00000000 00000000 00000000 00000000  ................
 80000ca0 00000000 00000000 00000000 00000000  ................
 80000cb0 00000000 00000000 00000000 00000000  ................
 80000cc0 00000000 00000000 00000000 00000000  ................
 80000cd0 00000000 00000000 00000000 00000000  ................
 80000ce0 00000000 00000000 00000000 00000000  ................
 80000cf0 00000000 00000000 00000000 00000000  ................
 80000d00 00000000 00000000 00000000 00000000  ................
 80000d10 00000000 00000000 00000000 00000000  ................
 80000d20 00000000 00000000 00000000 00000000  ................
 80000d30 00000000 00000000 00000000 00000000  ................
 80000d40 00000000 00000000 00000000 00000000  ................
 80000d50 00000000 00000000 00000000 00000000  ................
 80000d60 00000000 00000000 00000000 00000000  ................
 80000d70 00000000 00000000 00000000 00000000  ................
 80000d80 00000000 00000000 00000000 00000000  ................
 80000d90 00000000 00000000 00000000 00000000  ................
 80000da0 00000000 00000000 00000000 00000000  ................
 80000db0 00000000 00000000 00000000 00000000  ................
 80000dc0 00000000 00000000 00000000 00000000  ................
 80000dd0 00000000 00000000 00000000 00000000  ................
 80000de0 00000000 00000000 00000000 00000000  ................
 80000df0 00000000 00000000 00000000 00000000  ................
 80000e00 00000000 00000000 00000000 00000000  ................
 80000e10 00000000 00000000 00000000 00000000  ................
 80000e20 00000000 00000000 00000000 00000000  ................
 80000e30 00000000 00000000 00000000 00000000  ................
 80000e40 00000000 00000000 00000000 00000000  ................
 80000e50 00000000 00000000 00000000 00000000  ................
 80000e60 00000000 00000000 00000000 00000000  ................
 80000e70 00000000 00000000 00000000 00000000  ................
 80000e80 00000000 00000000 00000000 00000000  ................
 80000e90 00000000 00000000 00000000 00000000  ................
 80000ea0 00000000 00000000 00000000 00000000  ................
 80000eb0 00000000 00000000 00000000 00000000  ................
 80000ec0 00000000 00000000 00000000 00000000  ................
 80000ed0 00000000 00000000 00000000 00000000  ................
 80000ee0 00000000 00000000 00000000 00000000  ................
 80000ef0 00000000 00000000 00000000 00000000  ................
 80000f00 00000000 00000000 00000000 00000000  ................
 80000f10 00000000 00000000 00000000 00000000  ................
 80000f20 00000000 00000000 00000000 00000000  ................
 80000f30 00000000 00000000 00000000 00000000  ................
 80000f40 00000000 00000000 00000000 00000000  ................
 80000f50 00000000 00000000 00000000 00000000  ................
 80000f60 00000000 00000000 00000000 00000000  ................
 80000f70 00000000 00000000 00000000 00000000  ................
 80000f80 00000000 00000000 00000000 00000000  ................
 80000f90 00000000 00000000 00000000 00000000  ................
 80000fa0 00000000 00000000 00000000 00000000  ................
 80000fb0 00000000 00000000 00000000 00000000  ................
 80000fc0 00000000 00000000 00000000 00000000  ................
 80000fd0 00000000 00000000 00000000 00000000  ................
 80000fe0 00000000 00000000 00000000 00000000  ................
 80000ff0 00000000 00000000 00000000 00000000  ................
 80001000 fecabeba fecabeba fecabeba fecabeba  ................
 80001010 efbeadde efbeadde 00000000 00000000  ................
 80001020 00000000 00000000 00000000 00000000  ................
 80001030 00000000 00000000 00000000 00000000  ................
 80001040 00000000 00000000 00000000 00000000  ................
 80001050 00000000 00000000 00000000 00000000  ................
 80001060 00000000 00000000 00000000 00000000  ................
 80001070 00000000 00000000 00000000 00000000  ................
 80001080 00000000 00000000 00000000 00000000  ................
 80001090 00000000 00000000 00000000 00000000  ................
 800010a0 00000000 00000000 00000000 00000000  ................
 800010b0 00000000 00000000 00000000 00000000  ................
 800010c0 00000000 00000000 00000000 00000000  ................
 800010d0 00000000 00000000 00000000 00000000  ................
 800010e0 00000000 00000000 00000000 00000000  ................
 800010f0 00000000 00000000 00000000 00000000  ................
 80001100 00000000 00000000 00000000 00000000  ................
 80001110 00000000 00000000 00000000 00000000  ................
 80001120 00000000 00000000 00000000 00000000  ................
 80001130 00000000 00000000 00000000 00000000  ................
 80001140 00000000 00000000 00000000 00000000  ................
 80001150 00000000 00000000 00000000 00000000  ................
 80001160 00000000 00000000 00000000 00000000  ................
 80001170 00000000 00000000 00000000 00000000  ................
 80001180 00000000 00000000 00000000 00000000  ................
 80001190 00000000 00000000 00000000 00000000  ................
 800011a0 00000000 00000000 00000000 00000000  ................
 800011b0 00000000 00000000 00000000 00000000  ................
 800011c0 00000000 00000000 00000000 00000000  ................
 800011d0 00000000 00000000 00000000 00000000  ................
 800011e0 00000000 00000000 00000000 00000000  ................
 800011f0 00000000 00000000 00000000 00000000  ................
 80001200 00000000 00000000 00000000 00000000  ................
 80001210 00000000 00000000 00000000 00000000  ................
 80001220 00000000 00000000 00000000 00000000  ................
 80001230 00000000 00000000 00000000 00000000  ................
 80001240 00000000 00000000 00000000 00000000  ................
 80001250 00000000 00000000 00000000 00000000  ................
 80001260 00000000 00000000 00000000 00000000  ................
 80001270 00000000 00000000 00000000 00000000  ................
 80001280 00000000 00000000 00000000 00000000  ................
 80001290 00000000 00000000 00000000 00000000  ................
 800012a0 00000000 00000000 00000000 00000000  ................
 800012b0 00000000 00000000 00000000 00000000  ................
 800012c0 00000000 00000000 00000000 00000000  ................
 800012d0 00000000 00000000 00000000 00000000  ................
 800012e0 00000000 00000000 00000000 00000000  ................
 800012f0 00000000 00000000 00000000 00000000  ................
 80001300 00000000 00000000 00000000 00000000  ................
 80001310 00000000 00000000 00000000 00000000  ................
 80001320 00000000 00000000 00000000 00000000  ................
 80001330 00000000 00000000 00000000 00000000  ................
 80001340 00000000 00000000 00000000 00000000  ................
 80001350 00000000 00000000 00000000 00000000  ................
 80001360 00000000 00000000 00000000 00000000  ................
 80001370 00000000 00000000 00000000 00000000  ................
 80001380 00000000 00000000 00000000 00000000  ................
 80001390 00000000 00000000 00000000 00000000  ................
 800013a0 00000000 00000000 00000000 00000000  ................
 800013b0 00000000 00000000 00000000 00000000  ................
 800013c0 00000000 00000000 00000000 00000000  ................
 800013d0 00000000 00000000 00000000 00000000  ................
 800013e0 00000000 00000000 00000000 00000000  ................
 800013f0 00000000 00000000 00000000 00000000  ................
 80001400 00000000 00000000 00000000 00000000  ................
 80001410 00000000 00000000 00000000 00000000  ................
 80001420 00000000 00000000 00000000 00000000  ................
 80001430 00000000 00000000 00000000 00000000  ................
 80001440 00000000 00000000 00000000 00000000  ................
 80001450 00000000 00000000 00000000 00000000  ................
 80001460 00000000 00000000 00000000 00000000  ................
 80001470 00000000 00000000 00000000 00000000  ................
 80001480 00000000 00000000 00000000 00000000  ................
 80001490 00000000 00000000 00000000 00000000  ................
 800014a0 00000000 00000000 00000000 00000000  ................
 800014b0 00000000 00000000 00000000 00000000  ................
 800014c0 00000000 00000000 00000000 00000000  ................
 800014d0 00000000 00000000 00000000 00000000  ................
 800014e0 00000000 00000000 00000000 00000000  ................
 800014f0 00000000 00000000 00000000 00000000  ................
 80001500 00000000 00000000 00000000 00000000  ................
 80001510 00000000 00000000 00000000 00000000  ................
 80001520 00000000 00000000 00000000 00000000  ................
 80001530 00000000 00000000 00000000 00000000  ................
 80001540 00000000 00000000 00000000 00000000  ................
 80001550 00000000 00000000 00000000 00000000  ................
 80001560 00000000 00000000 00000000 00000000  ................
 80001570 00000000 00000000 00000000 00000000  ................
 80001580 00000000 00000000 00000000 00000000  ................
 80001590 00000000 00000000 00000000 00000000  ................
 800015a0 00000000 00000000 00000000 00000000  ................
 800015b0 00000000 00000000 00000000 00000000  ................
 800015c0 00000000 00000000 00000000 00000000  ................
 800015d0 00000000 00000000 00000000 00000000  ................
 800015e0 00000000 00000000 00000000 00000000  ................
 800015f0 00000000 00000000 00000000 00000000  ................
 80001600 00000000 00000000 00000000 00000000  ................
 80001610 00000000 00000000 00000000 00000000  ................
 80001620 00000000 00000000 00000000 00000000  ................
 80001630 00000000 00000000 00000000 00000000  ................
 80001640 00000000 00000000 00000000 00000000  ................
 80001650 00000000 00000000 00000000 00000000  ................
 80001660 00000000 00000000 00000000 00000000  ................
 80001670 00000000 00000000 00000000 00000000  ................
 80001680 00000000 00000000 00000000 00000000  ................
 80001690 00000000 00000000 00000000 00000000  ................
 800016a0 00000000 00000000 00000000 00000000  ................
 800016b0 00000000 00000000 00000000 00000000  ................
 800016c0 00000000 00000000 00000000 00000000  ................
 800016d0 00000000 00000000 00000000 00000000  ................
 800016e0 00000000 00000000 00000000 00000000  ................
 800016f0 00000000 00000000 00000000 00000000  ................
 80001700 00000000 00000000 00000000 00000000  ................
 80001710 00000000 00000000 00000000 00000000  ................
 80001720 00000000 00000000 00000000 00000000  ................
 80001730 00000000 00000000 00000000 00000000  ................
 80001740 00000000 00000000 00000000 00000000  ................
 80001750 00000000 00000000 00000000 00000000  ................
 80001760 00000000 00000000 00000000 00000000  ................
 80001770 00000000 00000000 00000000 00000000  ................
 80001780 00000000 00000000 00000000 00000000  ................
 80001790 00000000 00000000 00000000 00000000  ................
 800017a0 00000000 00000000 00000000 00000000  ................
 800017b0 00000000 00000000 00000000 00000000  ................
 800017c0 00000000 00000000 00000000 00000000  ................
 800017d0 00000000 00000000 00000000 00000000  ................
 800017e0 00000000 00000000 00000000 00000000  ................
 800017f0 00000000 00000000 00000000 00000000  ................
 80001800 00000000 00000000 00000000 00000000  ................
 80001810 00000000 00000000 00000000 00000000  ................
 80001820 00000000 00000000 00000000 00000000  ................
 80001830 00000000 00000000 00000000 00000000  ................
 80001840 00000000 00000000 00000000 00000000  ................
 80001850 00000000 00000000 00000000 00000000  ................
 80001860 00000000 00000000 00000000 00000000  ................
 80001870 00000000 00000000 00000000 00000000  ................
 80001880 00000000 00000000 00000000 00000000  ................
 80001890 00000000 00000000 00000000 00000000  ................
 800018a0 00000000 00000000 00000000 00000000  ................
 800018b0 00000000 00000000 00000000 00000000  ................
 800018c0 00000000 00000000 00000000 00000000  ................
 800018d0 00000000 00000000 00000000 00000000  ................
 800018e0 00000000 00000000 00000000 00000000  ................
 800018f0 00000000 00000000 00000000 00000000  ................
 80001900 00000000 00000000 00000000 00000000  ................
 80001910 00000000 00000000 00000000 00000000  ................
 80001920 00000000 00000000 00000000 00000000  ................
 80001930 00000000 00000000 00000000 00000000  ................
 80001940 00000000 00000000 00000000 00000000  ................
 80001950 00000000 00000000 00000000 00000000  ................
 80001960 00000000 00000000 00000000 00000000  ................
 80001970 00000000 00000000 00000000 00000000  ................
 80001980 00000000 00000000 00000000 00000000  ................
 80001990 00000000 00000000 00000000 00000000  ................
 800019a0 00000000 00000000 00000000 00000000  ................
 800019b0 00000000 00000000 00000000 00000000  ................
 800019c0 00000000 00000000 00000000 00000000  ................
 800019d0 00000000 00000000 00000000 00000000  ................
 800019e0 00000000 00000000 00000000 00000000  ................
 800019f0 00000000 00000000 00000000 00000000  ................
 80001a00 00000000 00000000 00000000 00000000  ................
 80001a10 00000000 00000000 00000000 00000000  ................
 80001a20 00000000 00000000 00000000 00000000  ................
 80001a30 00000000 00000000 00000000 00000000  ................
 80001a40 00000000 00000000 00000000 00000000  ................
 80001a50 00000000 00000000 00000000 00000000  ................
 80001a60 00000000 00000000 00000000 00000000  ................
 80001a70 00000000 00000000 00000000 00000000  ................
 80001a80 00000000 00000000 00000000 00000000  ................
 80001a90 00000000 00000000 00000000 00000000  ................
 80001aa0 00000000 00000000 00000000 00000000  ................
 80001ab0 00000000 00000000 00000000 00000000  ................
 80001ac0 00000000 00000000 00000000 00000000  ................
 80001ad0 00000000 00000000 00000000 00000000  ................
 80001ae0 00000000 00000000 00000000 00000000  ................
 80001af0 00000000 00000000 00000000 00000000  ................
 80001b00 00000000 00000000 00000000 00000000  ................
 80001b10 00000000 00000000 00000000 00000000  ................
 80001b20 00000000 00000000 00000000 00000000  ................
 80001b30 00000000 00000000 00000000 00000000  ................
 80001b40 00000000 00000000 00000000 00000000  ................
 80001b50 00000000 00000000 00000000 00000000  ................
 80001b60 00000000 00000000 00000000 00000000  ................
 80001b70 00000000 00000000 00000000 00000000  ................
 80001b80 00000000 00000000 00000000 00000000  ................
 80001b90 00000000 00000000 00000000 00000000  ................
 80001ba0 00000000 00000000 00000000 00000000  ................
 80001bb0 00000000 00000000 00000000 00000000  ................
 80001bc0 00000000 00000000 00000000 00000000  ................
 80001bd0 00000000 00000000 00000000 00000000  ................
 80001be0 00000000 00000000 00000000 00000000  ................
 80001bf0 00000000 00000000 00000000 00000000  ................
 80001c00 00000000 00000000 00000000 00000000  ................
 80001c10 00000000 00000000 00000000 00000000  ................
 80001c20 00000000 00000000 00000000 00000000  ................
 80001c30 00000000 00000000 00000000 00000000  ................
 80001c40 00000000 00000000 00000000 00000000  ................
 80001c50 00000000 00000000 00000000 00000000  ................
 80001c60 00000000 00000000 00000000 00000000  ................
 80001c70 00000000 00000000 00000000 00000000  ................
 80001c80 00000000 00000000 00000000 00000000  ................
 80001c90 00000000 00000000 00000000 00000000  ................
 80001ca0 00000000 00000000 00000000 00000000  ................
 80001cb0 00000000 00000000 00000000 00000000  ................
 80001cc0 00000000 00000000 00000000 00000000  ................
 80001cd0 00000000 00000000 00000000 00000000  ................
 80001ce0 00000000 00000000 00000000 00000000  ................
 80001cf0 00000000 00000000 00000000 00000000  ................
 80001d00 00000000 00000000 00000000 00000000  ................
 80001d10 00000000 00000000 00000000 00000000  ................
 80001d20 00000000 00000000 00000000 00000000  ................
 80001d30 00000000 00000000 00000000 00000000  ................
 80001d40 00000000 00000000 00000000 00000000  ................
 80001d50 00000000 00000000 00000000 00000000  ................
 80001d60 00000000 00000000 00000000 00000000  ................
 80001d70 00000000 00000000 00000000 00000000  ................
 80001d80 00000000 00000000 00000000 00000000  ................
 80001d90 00000000 00000000 00000000 00000000  ................
 80001da0 00000000 00000000 00000000 00000000  ................
 80001db0 00000000 00000000 00000000 00000000  ................
 80001dc0 00000000 00000000 00000000 00000000  ................
 80001dd0 00000000 00000000 00000000 00000000  ................
 80001de0 00000000 00000000 00000000 00000000  ................
 80001df0 00000000 00000000 00000000 00000000  ................
 80001e00 00000000 00000000 00000000 00000000  ................
 80001e10 00000000 00000000 00000000 00000000  ................
 80001e20 00000000 00000000 00000000 00000000  ................
 80001e30 00000000 00000000 00000000 00000000  ................
 80001e40 00000000 00000000 00000000 00000000  ................
 80001e50 00000000 00000000 00000000 00000000  ................
 80001e60 00000000 00000000 00000000 00000000  ................
 80001e70 00000000 00000000 00000000 00000000  ................
 80001e80 00000000 00000000 00000000 00000000  ................
 80001e90 00000000 00000000 00000000 00000000  ................
 80001ea0 00000000 00000000 00000000 00000000  ................
 80001eb0 00000000 00000000 00000000 00000000  ................
 80001ec0 00000000 00000000 00000000 00000000  ................
 80001ed0 00000000 00000000 00000000 00000000  ................
 80001ee0 00000000 00000000 00000000 00000000  ................
 80001ef0 00000000 00000000 00000000 00000000  ................
 80001f00 00000000 00000000 00000000 00000000  ................
 80001f10 00000000 00000000 00000000 00000000  ................
 80001f20 00000000 00000000 00000000 00000000  ................
 80001f30 00000000 00000000 00000000 00000000  ................
 80001f40 00000000 00000000 00000000 00000000  ................
 80001f50 00000000 00000000 00000000 00000000  ................
 80001f60 00000000 00000000 00000000 00000000  ................
 80001f70 00000000 00000000 00000000 00000000  ................
 80001f80 00000000 00000000 00000000 00000000  ................
 80001f90 00000000 00000000 00000000 00000000  ................
 80001fa0 00000000 00000000 00000000 00000000  ................
 80001fb0 00000000 00000000 00000000 00000000  ................
 80001fc0 00000000 00000000 00000000 00000000  ................
 80001fd0 00000000 00000000 00000000 00000000  ................
 80001fe0 00000000 00000000 00000000 00000000  ................
 80001ff0 00000000 00000000 00000000 00000000  ................
 80002000 81b2d4e7 09a35c6f efbeadde efbeadde  ......\o........
 80002010 efbeadde efbeadde efbeadde efbeadde  ................
 80002020 efbeadde efbeadde efbeadde efbeadde  ................
 80002030 efbeadde efbeadde efbeadde efbeadde  ................
 80002040 efbeadde efbeadde efbeadde efbeadde  ................
 80002050 efbeadde efbeadde efbeadde efbeadde  ................
 80002060 efbeadde efbeadde efbeadde efbeadde  ................
 80002070 efbeadde efbeadde efbeadde efbeadde  ................
 80002080 efbeadde efbeadde efbeadde efbeadde  ................
 80002090 efbeadde efbeadde efbeadde efbeadde  ................
 800020a0 efbeadde efbeadde efbeadde efbeadde  ................
 800020b0 efbeadde efbeadde efbeadde efbeadde  ................
 800020c0 efbeadde efbeadde efbeadde efbeadde  ................
 800020d0 efbeadde efbeadde efbeadde efbeadde  ................
 800020e0 efbeadde efbeadde efbeadde efbeadde  ................
 800020f0 efbeadde efbeadde efbeadde efbeadde  ................
 80002100 efbeadde efbeadde efbeadde efbeadde  ................
 80002110 efbeadde efbeadde efbeadde efbeadde  ................
 80002120 efbeadde efbeadde efbeadde efbeadde  ................
 80002130 efbeadde efbeadde efbeadde efbeadde  ................
 80002140 efbeadde efbeadde efbeadde efbeadde  ................
 80002150 efbeadde efbeadde efbeadde efbeadde  ................
 80002160 efbeadde efbeadde efbeadde efbeadde  ................
 80002170 efbeadde efbeadde efbeadde efbeadde  ................
 80002180 efbeadde efbeadde efbeadde efbeadde  ................
 80002190 efbeadde efbeadde efbeadde efbeadde  ................
 800021a0 efbeadde efbeadde efbeadde efbeadde  ................
 800021b0 efbeadde efbeadde efbeadde efbeadde  ................
 800021c0 efbeadde efbeadde efbeadde efbeadde  ................
 800021d0 efbeadde efbeadde efbeadde efbeadde  ................
 800021e0 efbeadde efbeadde efbeadde efbeadde  ................
 800021f0 efbeadde efbeadde efbeadde efbeadde  ................
 80002200 81b2d4e7 09a35c6f 00000000 00000000  ......\o........

Disassembly of section .data:

0000000080000000 <.data>:
    80000000:	00000413          	addi	x8,x0,0
    80000004:	0000b117          	auipc	x2,0xb
    80000008:	ffc10113          	addi	x2,x2,-4 # 0x8000b000
    8000000c:	1b1000ef          	jal	x1,0x800009bc
    80000010:	030000ef          	jal	x1,0x80000040
    80000014:	00100513          	addi	x10,x0,1
    80000018:	199000ef          	jal	x1,0x800009b0
    8000001c:	00000513          	addi	x10,x0,0
    80000020:	00008067          	jalr	x0,0(x1)
    80000024:	00100513          	addi	x10,x0,1
    80000028:	189000ef          	jal	x1,0x800009b0
    8000002c:	00008067          	jalr	x0,0(x1)
	...
    80000040:	feedc0b7          	lui	x1,0xfeedc
    80000044:	ead08093          	addi	x1,x1,-339 # 0xfffffffffeedbead
    80000048:	00b09093          	slli	x1,x1,0xb
    8000004c:	7f708093          	addi	x1,x1,2039
    80000050:	00b09093          	slli	x1,x1,0xb
    80000054:	36f08093          	addi	x1,x1,879
    80000058:	00a09093          	slli	x1,x1,0xa
    8000005c:	2ad08093          	addi	x1,x1,685
    80000060:	ff76e137          	lui	x2,0xff76e
    80000064:	f5610113          	addi	x2,x2,-170 # 0xffffffffff76df56
    80000068:	00b11113          	slli	x2,x2,0xb
    8000006c:	7fb10113          	addi	x2,x2,2043
    80000070:	00b11113          	slli	x2,x2,0xb
    80000074:	5b710113          	addi	x2,x2,1463
    80000078:	00a11113          	slli	x2,x2,0xa
    8000007c:	35610113          	addi	x2,x2,854
    80000080:	7fbb71b7          	lui	x3,0x7fbb7
    80000084:	fab18193          	addi	x3,x3,-85 # 0x7fbb6fab
    80000088:	00b19193          	slli	x3,x3,0xb
    8000008c:	3fd18193          	addi	x3,x3,1021
    80000090:	00b19193          	slli	x3,x3,0xb
    80000094:	6db18193          	addi	x3,x3,1755
    80000098:	00a19193          	slli	x3,x3,0xa
    8000009c:	3ab18193          	addi	x3,x3,939
    800000a0:	bfddb237          	lui	x4,0xbfddb
    800000a4:	7d520213          	addi	x4,x4,2005 # 0xffffffffbfddb7d5
    800000a8:	00b21213          	slli	x4,x4,0xb
    800000ac:	5fe20213          	addi	x4,x4,1534 # 0x5fe
    800000b0:	00b21213          	slli	x4,x4,0xb
    800000b4:	76d20213          	addi	x4,x4,1901 # 0x76d
    800000b8:	00a21213          	slli	x4,x4,0xa
    800000bc:	3d520213          	addi	x4,x4,981 # 0x3d5
    800000c0:	dfeee2b7          	lui	x5,0xdfeee
    800000c4:	bea28293          	addi	x5,x5,-1046 # 0xffffffffdfeedbea
    800000c8:	00b29293          	slli	x5,x5,0xb
    800000cc:	6ff28293          	addi	x5,x5,1791
    800000d0:	00b29293          	slli	x5,x5,0xb
    800000d4:	3b628293          	addi	x5,x5,950
    800000d8:	00a29293          	slli	x5,x5,0xa
    800000dc:	3ea28293          	addi	x5,x5,1002
    800000e0:	6ff77337          	lui	x6,0x6ff77
    800000e4:	df530313          	addi	x6,x6,-523 # 0x6ff76df5
    800000e8:	00b31313          	slli	x6,x6,0xb
    800000ec:	37f30313          	addi	x6,x6,895
    800000f0:	00b31313          	slli	x6,x6,0xb
    800000f4:	5db30313          	addi	x6,x6,1499
    800000f8:	00a31313          	slli	x6,x6,0xa
    800000fc:	1f530313          	addi	x6,x6,501
    80000100:	b7fbb3b7          	lui	x7,0xb7fbb
    80000104:	6fa38393          	addi	x7,x7,1786 # 0xffffffffb7fbb6fa
    80000108:	00b39393          	slli	x7,x7,0xb
    8000010c:	5bf38393          	addi	x7,x7,1471
    80000110:	00b39393          	slli	x7,x7,0xb
    80000114:	6ed38393          	addi	x7,x7,1773
    80000118:	00a39393          	slli	x7,x7,0xa
    8000011c:	2fa38393          	addi	x7,x7,762
    80000120:	5bfde437          	lui	x8,0x5bfde
    80000124:	b7d40413          	addi	x8,x8,-1155 # 0x5bfddb7d
    80000128:	00b41413          	slli	x8,x8,0xb
    8000012c:	2df40413          	addi	x8,x8,735
    80000130:	00b41413          	slli	x8,x8,0xb
    80000134:	77640413          	addi	x8,x8,1910
    80000138:	00a41413          	slli	x8,x8,0xa
    8000013c:	37d40413          	addi	x8,x8,893
    80000140:	adfef4b7          	lui	x9,0xadfef
    80000144:	dbe48493          	addi	x9,x9,-578 # 0xffffffffadfeedbe
    80000148:	00b49493          	slli	x9,x9,0xb
    8000014c:	56f48493          	addi	x9,x9,1391
    80000150:	00b49493          	slli	x9,x9,0xb
    80000154:	7bb48493          	addi	x9,x9,1979
    80000158:	00a49493          	slli	x9,x9,0xa
    8000015c:	1be48493          	addi	x9,x9,446
    80000160:	56ff7537          	lui	x10,0x56ff7
    80000164:	6df50513          	addi	x10,x10,1759 # 0x56ff76df
    80000168:	00b51513          	slli	x10,x10,0xb
    8000016c:	2b750513          	addi	x10,x10,695
    80000170:	00b51513          	slli	x10,x10,0xb
    80000174:	7dd50513          	addi	x10,x10,2013
    80000178:	00a51513          	slli	x10,x10,0xa
    8000017c:	2df50513          	addi	x10,x10,735
    80000180:	ab7fc5b7          	lui	x11,0xab7fc
    80000184:	b6f58593          	addi	x11,x11,-1169 # 0xffffffffab7fbb6f
    80000188:	00b59593          	slli	x11,x11,0xb
    8000018c:	55b58593          	addi	x11,x11,1371
    80000190:	00b59593          	slli	x11,x11,0xb
    80000194:	7ee58593          	addi	x11,x11,2030
    80000198:	00a59593          	slli	x11,x11,0xa
    8000019c:	36f58593          	addi	x11,x11,879
    800001a0:	d5bfe637          	lui	x12,0xd5bfe
    800001a4:	db760613          	addi	x12,x12,-585 # 0xffffffffd5bfddb7
    800001a8:	00b61613          	slli	x12,x12,0xb
    800001ac:	6ad60613          	addi	x12,x12,1709
    800001b0:	00b61613          	slli	x12,x12,0xb
    800001b4:	7f760613          	addi	x12,x12,2039
    800001b8:	00a61613          	slli	x12,x12,0xa
    800001bc:	1b760613          	addi	x12,x12,439
    800001c0:	eadff6b7          	lui	x13,0xeadff
    800001c4:	edb68693          	addi	x13,x13,-293 # 0xffffffffeadfeedb
    800001c8:	00b69693          	slli	x13,x13,0xb
    800001cc:	75668693          	addi	x13,x13,1878
    800001d0:	00b69693          	slli	x13,x13,0xb
    800001d4:	7fb68693          	addi	x13,x13,2043
    800001d8:	00a69693          	slli	x13,x13,0xa
    800001dc:	2db68693          	addi	x13,x13,731
    800001e0:	f56ff737          	lui	x14,0xf56ff
    800001e4:	76d70713          	addi	x14,x14,1901 # 0xfffffffff56ff76d
    800001e8:	00b71713          	slli	x14,x14,0xb
    800001ec:	7ab70713          	addi	x14,x14,1963
    800001f0:	00b71713          	slli	x14,x14,0xb
    800001f4:	3fd70713          	addi	x14,x14,1021
    800001f8:	00a71713          	slli	x14,x14,0xa
    800001fc:	36d70713          	addi	x14,x14,877
    80000200:	fab807b7          	lui	x15,0xfab80
    80000204:	bb678793          	addi	x15,x15,-1098 # 0xfffffffffab7fbb6
    80000208:	00b79793          	slli	x15,x15,0xb
    8000020c:	7d578793          	addi	x15,x15,2005
    80000210:	00b79793          	slli	x15,x15,0xb
    80000214:	5fe78793          	addi	x15,x15,1534
    80000218:	00a79793          	slli	x15,x15,0xa
    8000021c:	3b678793          	addi	x15,x15,950
    80000220:	7d5c0837          	lui	x16,0x7d5c0
    80000224:	ddb80813          	addi	x16,x16,-549 # 0x7d5bfddb
    80000228:	00b81813          	slli	x16,x16,0xb
    8000022c:	3ea80813          	addi	x16,x16,1002
    80000230:	00b81813          	slli	x16,x16,0xb
    80000234:	6ff80813          	addi	x16,x16,1791
    80000238:	00a81813          	slli	x16,x16,0xa
    8000023c:	1db80813          	addi	x16,x16,475
    80000240:	beae08b7          	lui	x17,0xbeae0
    80000244:	eed88893          	addi	x17,x17,-275 # 0xffffffffbeadfeed
    80000248:	00b89893          	slli	x17,x17,0xb
    8000024c:	5f588893          	addi	x17,x17,1525
    80000250:	00b89893          	slli	x17,x17,0xb
    80000254:	37f88893          	addi	x17,x17,895
    80000258:	00a89893          	slli	x17,x17,0xa
    8000025c:	2ed88893          	addi	x17,x17,749
    80000260:	df570937          	lui	x18,0xdf570
    80000264:	f7690913          	addi	x18,x18,-138 # 0xffffffffdf56ff76
    80000268:	00b91913          	slli	x18,x18,0xb
    8000026c:	6fa90913          	addi	x18,x18,1786
    80000270:	00b91913          	slli	x18,x18,0xb
    80000274:	5bf90913          	addi	x18,x18,1471
    80000278:	00a91913          	slli	x18,x18,0xa
    8000027c:	37690913          	addi	x18,x18,886
    80000280:	6fab89b7          	lui	x19,0x6fab8
    80000284:	fbb98993          	addi	x19,x19,-69 # 0x6fab7fbb
    80000288:	00b99993          	slli	x19,x19,0xb
    8000028c:	37d98993          	addi	x19,x19,893
    80000290:	00b99993          	slli	x19,x19,0xb
    80000294:	2df98993          	addi	x19,x19,735
    80000298:	00a99993          	slli	x19,x19,0xa
    8000029c:	3bb98993          	addi	x19,x19,955
    800002a0:	b7d5ca37          	lui	x20,0xb7d5c
    800002a4:	fdda0a13          	addi	x20,x20,-35 # 0xffffffffb7d5bfdd
    800002a8:	00ba1a13          	slli	x20,x20,0xb
    800002ac:	5bea0a13          	addi	x20,x20,1470
    800002b0:	00ba1a13          	slli	x20,x20,0xb
    800002b4:	56fa0a13          	addi	x20,x20,1391
    800002b8:	00aa1a13          	slli	x20,x20,0xa
    800002bc:	3dda0a13          	addi	x20,x20,989
    800002c0:	dbeaeab7          	lui	x21,0xdbeae
    800002c4:	feea8a93          	addi	x21,x21,-18 # 0xffffffffdbeadfee
    800002c8:	00ba9a93          	slli	x21,x21,0xb
    800002cc:	6dfa8a93          	addi	x21,x21,1759
    800002d0:	00ba9a93          	slli	x21,x21,0xb
    800002d4:	2b7a8a93          	addi	x21,x21,695
    800002d8:	00aa9a93          	slli	x21,x21,0xa
    800002dc:	3eea8a93          	addi	x21,x21,1006
    800002e0:	6df57b37          	lui	x22,0x6df57
    800002e4:	ff7b0b13          	addi	x22,x22,-9 # 0x6df56ff7
    800002e8:	00bb1b13          	slli	x22,x22,0xb
    800002ec:	36fb0b13          	addi	x22,x22,879
    800002f0:	00bb1b13          	slli	x22,x22,0xb
    800002f4:	55bb0b13          	addi	x22,x22,1371
    800002f8:	00ab1b13          	slli	x22,x22,0xa
    800002fc:	3f7b0b13          	addi	x22,x22,1015
    80000300:	b6fabbb7          	lui	x23,0xb6fab
    80000304:	7fbb8b93          	addi	x23,x23,2043 # 0xffffffffb6fab7fb
    80000308:	00bb9b93          	slli	x23,x23,0xb
    8000030c:	5b7b8b93          	addi	x23,x23,1463
    80000310:	00bb9b93          	slli	x23,x23,0xb
    80000314:	6adb8b93          	addi	x23,x23,1709
    80000318:	00ab9b93          	slli	x23,x23,0xa
    8000031c:	3fbb8b93          	addi	x23,x23,1019
    80000320:	db7d6c37          	lui	x24,0xdb7d6
    80000324:	bfdc0c13          	addi	x24,x24,-1027 # 0xffffffffdb7d5bfd
    80000328:	00bc1c13          	slli	x24,x24,0xb
    8000032c:	6dbc0c13          	addi	x24,x24,1755
    80000330:	00bc1c13          	slli	x24,x24,0xb
    80000334:	756c0c13          	addi	x24,x24,1878
    80000338:	00ac1c13          	slli	x24,x24,0xa
    8000033c:	3fdc0c13          	addi	x24,x24,1021
    80000340:	edbebcb7          	lui	x25,0xedbeb
    80000344:	dfec8c93          	addi	x25,x25,-514 # 0xffffffffedbeadfe
    80000348:	00bc9c93          	slli	x25,x25,0xb
    8000034c:	76dc8c93          	addi	x25,x25,1901
    80000350:	00bc9c93          	slli	x25,x25,0xb
    80000354:	7abc8c93          	addi	x25,x25,1963
    80000358:	00ac9c93          	slli	x25,x25,0xa
    8000035c:	1fec8c93          	addi	x25,x25,510
    80000360:	76df5d37          	lui	x26,0x76df5
    80000364:	6ffd0d13          	addi	x26,x26,1791 # 0x76df56ff
    80000368:	00bd1d13          	slli	x26,x26,0xb
    8000036c:	3b6d0d13          	addi	x26,x26,950
    80000370:	00bd1d13          	slli	x26,x26,0xb
    80000374:	7d5d0d13          	addi	x26,x26,2005
    80000378:	00ad1d13          	slli	x26,x26,0xa
    8000037c:	2ffd0d13          	addi	x26,x26,767
    80000380:	bb6fbdb7          	lui	x27,0xbb6fb
    80000384:	b7fd8d93          	addi	x27,x27,-1153 # 0xffffffffbb6fab7f
    80000388:	00bd9d93          	slli	x27,x27,0xb
    8000038c:	5dbd8d93          	addi	x27,x27,1499
    80000390:	00bd9d93          	slli	x27,x27,0xb
    80000394:	3ead8d93          	addi	x27,x27,1002
    80000398:	00ad9d93          	slli	x27,x27,0xa
    8000039c:	37fd8d93          	addi	x27,x27,895
    800003a0:	ddb7de37          	lui	x28,0xddb7d
    800003a4:	5bfe0e13          	addi	x28,x28,1471 # 0xffffffffddb7d5bf
    800003a8:	00be1e13          	slli	x28,x28,0xb
    800003ac:	6ede0e13          	addi	x28,x28,1773
    800003b0:	00be1e13          	slli	x28,x28,0xb
    800003b4:	5f5e0e13          	addi	x28,x28,1525
    800003b8:	00ae1e13          	slli	x28,x28,0xa
    800003bc:	1bfe0e13          	addi	x28,x28,447
    800003c0:	eedbfeb7          	lui	x29,0xeedbf
    800003c4:	adfe8e93          	addi	x29,x29,-1313 # 0xffffffffeedbeadf
    800003c8:	00be9e93          	slli	x29,x29,0xb
    800003cc:	776e8e93          	addi	x29,x29,1910
    800003d0:	00be9e93          	slli	x29,x29,0xb
    800003d4:	6fae8e93          	addi	x29,x29,1786
    800003d8:	00ae9e93          	slli	x29,x29,0xa
    800003dc:	2dfe8e93          	addi	x29,x29,735
    800003e0:	f76dff37          	lui	x30,0xf76df
    800003e4:	56ff0f13          	addi	x30,x30,1391 # 0xfffffffff76df56f
    800003e8:	00bf1f13          	slli	x30,x30,0xb
    800003ec:	7bbf0f13          	addi	x30,x30,1979
    800003f0:	00bf1f13          	slli	x30,x30,0xb
    800003f4:	37df0f13          	addi	x30,x30,893
    800003f8:	00af1f13          	slli	x30,x30,0xa
    800003fc:	16ff0f13          	addi	x30,x30,367
    80000400:	fbb70fb7          	lui	x31,0xfbb70
    80000404:	ab7f8f93          	addi	x31,x31,-1353 # 0xfffffffffbb6fab7
    80000408:	00bf9f93          	slli	x31,x31,0xb
    8000040c:	7ddf8f93          	addi	x31,x31,2013
    80000410:	00bf9f93          	slli	x31,x31,0xb
    80000414:	5bef8f93          	addi	x31,x31,1470
    80000418:	00af9f93          	slli	x31,x31,0xa
    8000041c:	2b7f8f93          	addi	x31,x31,695
    80000420:	00002697          	auipc	x13,0x2
    80000424:	be868693          	addi	x13,x13,-1048 # 0x80002008
    80000428:	00000013          	addi	x0,x0,0
    8000042c:	00000013          	addi	x0,x0,0
    80000430:	00000013          	addi	x0,x0,0
    80000434:	00000013          	addi	x0,x0,0
    80000438:	00000013          	addi	x0,x0,0
    8000043c:	00000013          	addi	x0,x0,0
    80000440:	00000137          	lui	x2,0x0
    80000444:	0026b023          	sd	x2,0(x13)
    80000448:	00000b13          	addi	x22,x0,0
    8000044c:	002b0463          	beq	x22,x2,0x80000454
    80000450:	bd5ff06f          	jal	x0,0x80000024
    80000454:	002d45b7          	lui	x11,0x2d4
    80000458:	00b6b423          	sd	x11,8(x13)
    8000045c:	002d4b37          	lui	x22,0x2d4
    80000460:	00bb0463          	beq	x22,x11,0x80000468
    80000464:	bc1ff06f          	jal	x0,0x80000024
    80000468:	fffff637          	lui	x12,0xfffff
    8000046c:	00c6b823          	sd	x12,16(x13)
    80000470:	fffffb37          	lui	x22,0xfffff
    80000474:	00cb0463          	beq	x22,x12,0x8000047c
    80000478:	badff06f          	jal	x0,0x80000024
    8000047c:	000030b7          	lui	x1,0x3
    80000480:	0016bc23          	sd	x1,24(x13)
    80000484:	00003b37          	lui	x22,0x3
    80000488:	001b0463          	beq	x22,x1,0x80000490
    8000048c:	b99ff06f          	jal	x0,0x80000024
    80000490:	55555c37          	lui	x24,0x55555
    80000494:	0386b023          	sd	x24,32(x13)
    80000498:	55555b37          	lui	x22,0x55555
    8000049c:	018b0463          	beq	x22,x24,0x800004a4
    800004a0:	b85ff06f          	jal	x0,0x80000024
    800004a4:	aaaaa1b7          	lui	x3,0xaaaaa
    800004a8:	0236b423          	sd	x3,40(x13)
    800004ac:	aaaaab37          	lui	x22,0xaaaaa
    800004b0:	003b0463          	beq	x22,x3,0x800004b8
    800004b4:	b71ff06f          	jal	x0,0x80000024
    800004b8:	00005237          	lui	x4,0x5
    800004bc:	0246b823          	sd	x4,48(x13)
    800004c0:	00005b37          	lui	x22,0x5
    800004c4:	004b0463          	beq	x22,x4,0x800004cc
    800004c8:	b5dff06f          	jal	x0,0x80000024
    800004cc:	333337b7          	lui	x15,0x33333
    800004d0:	02f6bc23          	sd	x15,56(x13)
    800004d4:	33333b37          	lui	x22,0x33333
    800004d8:	00fb0463          	beq	x22,x15,0x800004e0
    800004dc:	b49ff06f          	jal	x0,0x80000024
    800004e0:	66666837          	lui	x16,0x66666
    800004e4:	0506b023          	sd	x16,64(x13)
    800004e8:	66666b37          	lui	x22,0x66666
    800004ec:	010b0463          	beq	x22,x16,0x800004f4
    800004f0:	b35ff06f          	jal	x0,0x80000024
    800004f4:	003ffbb7          	lui	x23,0x3ff
    800004f8:	0576b423          	sd	x23,72(x13)
    800004fc:	003ffb37          	lui	x22,0x3ff
    80000500:	017b0463          	beq	x22,x23,0x80000508
    80000504:	b21ff06f          	jal	x0,0x80000024
    80000508:	00002fb7          	lui	x31,0x2
    8000050c:	05f6b823          	sd	x31,80(x13)
    80000510:	00002b37          	lui	x22,0x2
    80000514:	01fb0463          	beq	x22,x31,0x8000051c
    80000518:	b0dff06f          	jal	x0,0x80000024
    8000051c:	55554f37          	lui	x30,0x55554
    80000520:	05e6bc23          	sd	x30,88(x13)
    80000524:	55554b37          	lui	x22,0x55554
    80000528:	01eb0463          	beq	x22,x30,0x80000530
    8000052c:	af9ff06f          	jal	x0,0x80000024
    80000530:	aaaa9e37          	lui	x28,0xaaaa9
    80000534:	07c6b023          	sd	x28,96(x13)
    80000538:	aaaa9b37          	lui	x22,0xaaaa9
    8000053c:	01cb0463          	beq	x22,x28,0x80000544
    80000540:	ae5ff06f          	jal	x0,0x80000024
    80000544:	00004537          	lui	x10,0x4
    80000548:	06a6b423          	sd	x10,104(x13)
    8000054c:	00004b37          	lui	x22,0x4
    80000550:	00ab0463          	beq	x22,x10,0x80000558
    80000554:	ad1ff06f          	jal	x0,0x80000024
    80000558:	333329b7          	lui	x19,0x33332
    8000055c:	0736b823          	sd	x19,112(x13)
    80000560:	33332b37          	lui	x22,0x33332
    80000564:	013b0463          	beq	x22,x19,0x8000056c
    80000568:	abdff06f          	jal	x0,0x80000024
    8000056c:	66665a37          	lui	x20,0x66665
    80000570:	0746bc23          	sd	x20,120(x13)
    80000574:	66665b37          	lui	x22,0x66665
    80000578:	014b0463          	beq	x22,x20,0x80000580
    8000057c:	aa9ff06f          	jal	x0,0x80000024
    80000580:	002d34b7          	lui	x9,0x2d3
    80000584:	0896b023          	sd	x9,128(x13)
    80000588:	002d3b37          	lui	x22,0x2d3
    8000058c:	009b0463          	beq	x22,x9,0x80000594
    80000590:	a95ff06f          	jal	x0,0x80000024
    80000594:	003fedb7          	lui	x27,0x3fe
    80000598:	09b6b423          	sd	x27,136(x13)
    8000059c:	003feb37          	lui	x22,0x3fe
    800005a0:	01bb0463          	beq	x22,x27,0x800005a8
    800005a4:	a81ff06f          	jal	x0,0x80000024
    800005a8:	55556337          	lui	x6,0x55556
    800005ac:	0866b823          	sd	x6,144(x13)
    800005b0:	55556b37          	lui	x22,0x55556
    800005b4:	006b0463          	beq	x22,x6,0x800005bc
    800005b8:	a6dff06f          	jal	x0,0x80000024
    800005bc:	aaaab437          	lui	x8,0xaaaab
    800005c0:	0886bc23          	sd	x8,152(x13)
    800005c4:	aaaabb37          	lui	x22,0xaaaab
    800005c8:	008b0463          	beq	x22,x8,0x800005d0
    800005cc:	a59ff06f          	jal	x0,0x80000024
    800005d0:	000063b7          	lui	x7,0x6
    800005d4:	0a76b023          	sd	x7,160(x13)
    800005d8:	00006b37          	lui	x22,0x6
    800005dc:	007b0463          	beq	x22,x7,0x800005e4
    800005e0:	a45ff06f          	jal	x0,0x80000024
    800005e4:	333342b7          	lui	x5,0x33334
    800005e8:	0a56b423          	sd	x5,168(x13)
    800005ec:	33334b37          	lui	x22,0x33334
    800005f0:	005b0463          	beq	x22,x5,0x800005f8
    800005f4:	a31ff06f          	jal	x0,0x80000024
    800005f8:	66667937          	lui	x18,0x66667
    800005fc:	0b26b823          	sd	x18,176(x13)
    80000600:	66667b37          	lui	x22,0x66667
    80000604:	012b0463          	beq	x22,x18,0x8000060c
    80000608:	a1dff06f          	jal	x0,0x80000024
    8000060c:	002d5737          	lui	x14,0x2d5
    80000610:	0ae6bc23          	sd	x14,184(x13)
    80000614:	002d5b37          	lui	x22,0x2d5
    80000618:	00eb0463          	beq	x22,x14,0x80000620
    8000061c:	a09ff06f          	jal	x0,0x80000024
    80000620:	00001ab7          	lui	x21,0x1
    80000624:	0d56b023          	sd	x21,192(x13)
    80000628:	00001b37          	lui	x22,0x1
    8000062c:	015b0463          	beq	x22,x21,0x80000634
    80000630:	9f5ff06f          	jal	x0,0x80000024
    80000634:	00400d37          	lui	x26,0x400
    80000638:	0da6b423          	sd	x26,200(x13)
    8000063c:	00400b37          	lui	x22,0x400
    80000640:	01ab0463          	beq	x22,x26,0x80000648
    80000644:	9e1ff06f          	jal	x0,0x80000024
    80000648:	000088b7          	lui	x17,0x8
    8000064c:	0d16b823          	sd	x17,208(x13)
    80000650:	00008b37          	lui	x22,0x8
    80000654:	011b0463          	beq	x22,x17,0x8000065c
    80000658:	9cdff06f          	jal	x0,0x80000024
    8000065c:	00010cb7          	lui	x25,0x10
    80000660:	0d96bc23          	sd	x25,216(x13)
    80000664:	00010137          	lui	x2,0x10
    80000668:	01910463          	beq	x2,x25,0x80000670
    8000066c:	9b9ff06f          	jal	x0,0x80000024
    80000670:	00000013          	addi	x0,x0,0
    80000674:	00000013          	addi	x0,x0,0
    80000678:	00000013          	addi	x0,x0,0
    8000067c:	00000013          	addi	x0,x0,0
    80000680:	00002097          	auipc	x1,0x2
    80000684:	a6808093          	addi	x1,x1,-1432 # 0x800020e8
    80000688:	00000013          	addi	x0,x0,0
    8000068c:	00000013          	addi	x0,x0,0
    80000690:	00000013          	addi	x0,x0,0
    80000694:	00000013          	addi	x0,x0,0
    80000698:	00000013          	addi	x0,x0,0
    8000069c:	00000013          	addi	x0,x0,0
    800006a0:	00020b37          	lui	x22,0x20
    800006a4:	0160b023          	sd	x22,0(x1)
    800006a8:	00020137          	lui	x2,0x20
    800006ac:	01610463          	beq	x2,x22,0x800006b4
    800006b0:	975ff06f          	jal	x0,0x80000024
    800006b4:	00040037          	lui	x0,0x40
    800006b8:	0000b423          	sd	x0,8(x1)
    800006bc:	00000113          	addi	x2,x0,0
    800006c0:	00010463          	beq	x2,x0,0x800006c8
    800006c4:	961ff06f          	jal	x0,0x80000024
    800006c8:	00080eb7          	lui	x29,0x80
    800006cc:	01d0b823          	sd	x29,16(x1)
    800006d0:	00080137          	lui	x2,0x80
    800006d4:	01d10463          	beq	x2,x29,0x800006dc
    800006d8:	94dff06f          	jal	x0,0x80000024
    800006dc:	effff6b7          	lui	x13,0xeffff
    800006e0:	00d0bc23          	sd	x13,24(x1)
    800006e4:	effff137          	lui	x2,0xeffff
    800006e8:	00d10463          	beq	x2,x13,0x800006f0
    800006ec:	939ff06f          	jal	x0,0x80000024
    800006f0:	dffff537          	lui	x10,0xdffff
    800006f4:	02a0b023          	sd	x10,32(x1)
    800006f8:	dffff137          	lui	x2,0xdffff
    800006fc:	00a10463          	beq	x2,x10,0x80000704
    80000700:	925ff06f          	jal	x0,0x80000024
    80000704:	bffff537          	lui	x10,0xbffff
    80000708:	02a0b423          	sd	x10,40(x1)
    8000070c:	bffff137          	lui	x2,0xbffff
    80000710:	00a10463          	beq	x2,x10,0x80000718
    80000714:	911ff06f          	jal	x0,0x80000024
    80000718:	7ffff537          	lui	x10,0x7ffff
    8000071c:	02a0b823          	sd	x10,48(x1)
    80000720:	7ffff137          	lui	x2,0x7ffff
    80000724:	00a10463          	beq	x2,x10,0x8000072c
    80000728:	8fdff06f          	jal	x0,0x80000024
    8000072c:	00100537          	lui	x10,0x100
    80000730:	02a0bc23          	sd	x10,56(x1)
    80000734:	00100137          	lui	x2,0x100
    80000738:	00a10463          	beq	x2,x10,0x80000740
    8000073c:	8e9ff06f          	jal	x0,0x80000024
    80000740:	00200537          	lui	x10,0x200
    80000744:	04a0b023          	sd	x10,64(x1)
    80000748:	00200137          	lui	x2,0x200
    8000074c:	00a10463          	beq	x2,x10,0x80000754
    80000750:	8d5ff06f          	jal	x0,0x80000024
    80000754:	00800537          	lui	x10,0x800
    80000758:	04a0b423          	sd	x10,72(x1)
    8000075c:	00800137          	lui	x2,0x800
    80000760:	00a10463          	beq	x2,x10,0x80000768
    80000764:	8c1ff06f          	jal	x0,0x80000024
    80000768:	01000537          	lui	x10,0x1000
    8000076c:	04a0b823          	sd	x10,80(x1)
    80000770:	01000137          	lui	x2,0x1000
    80000774:	00a10463          	beq	x2,x10,0x8000077c
    80000778:	8adff06f          	jal	x0,0x80000024
    8000077c:	02000537          	lui	x10,0x2000
    80000780:	04a0bc23          	sd	x10,88(x1)
    80000784:	02000137          	lui	x2,0x2000
    80000788:	00a10463          	beq	x2,x10,0x80000790
    8000078c:	899ff06f          	jal	x0,0x80000024
    80000790:	04000537          	lui	x10,0x4000
    80000794:	06a0b023          	sd	x10,96(x1)
    80000798:	04000137          	lui	x2,0x4000
    8000079c:	00a10463          	beq	x2,x10,0x800007a4
    800007a0:	885ff06f          	jal	x0,0x80000024
    800007a4:	08000537          	lui	x10,0x8000
    800007a8:	06a0b423          	sd	x10,104(x1)
    800007ac:	08000137          	lui	x2,0x8000
    800007b0:	00a10463          	beq	x2,x10,0x800007b8
    800007b4:	871ff06f          	jal	x0,0x80000024
    800007b8:	10000537          	lui	x10,0x10000
    800007bc:	06a0b823          	sd	x10,112(x1)
    800007c0:	10000137          	lui	x2,0x10000
    800007c4:	00a10463          	beq	x2,x10,0x800007cc
    800007c8:	85dff06f          	jal	x0,0x80000024
    800007cc:	20000537          	lui	x10,0x20000
    800007d0:	06a0bc23          	sd	x10,120(x1)
    800007d4:	20000137          	lui	x2,0x20000
    800007d8:	00a10463          	beq	x2,x10,0x800007e0
    800007dc:	849ff06f          	jal	x0,0x80000024
    800007e0:	40000537          	lui	x10,0x40000
    800007e4:	08a0b023          	sd	x10,128(x1)
    800007e8:	40000137          	lui	x2,0x40000
    800007ec:	00a10463          	beq	x2,x10,0x800007f4
    800007f0:	835ff06f          	jal	x0,0x80000024
    800007f4:	80000537          	lui	x10,0x80000
    800007f8:	08a0b423          	sd	x10,136(x1)
    800007fc:	80000137          	lui	x2,0x80000
    80000800:	00a10463          	beq	x2,x10,0x80000808
    80000804:	821ff06f          	jal	x0,0x80000024
    80000808:	ffffe537          	lui	x10,0xffffe
    8000080c:	08a0b823          	sd	x10,144(x1)
    80000810:	ffffe137          	lui	x2,0xffffe
    80000814:	00a10463          	beq	x2,x10,0x8000081c
    80000818:	80dff06f          	jal	x0,0x80000024
    8000081c:	ffffd537          	lui	x10,0xffffd
    80000820:	08a0bc23          	sd	x10,152(x1)
    80000824:	ffffd137          	lui	x2,0xffffd
    80000828:	00a10463          	beq	x2,x10,0x80000830
    8000082c:	ff8ff06f          	jal	x0,0x80000024
    80000830:	ffffb537          	lui	x10,0xffffb
    80000834:	0aa0b023          	sd	x10,160(x1)
    80000838:	ffffb137          	lui	x2,0xffffb
    8000083c:	00a10463          	beq	x2,x10,0x80000844
    80000840:	fe4ff06f          	jal	x0,0x80000024
    80000844:	ffff7537          	lui	x10,0xffff7
    80000848:	0aa0b423          	sd	x10,168(x1)
    8000084c:	ffff7137          	lui	x2,0xffff7
    80000850:	00a10463          	beq	x2,x10,0x80000858
    80000854:	fd0ff06f          	jal	x0,0x80000024
    80000858:	fffef537          	lui	x10,0xfffef
    8000085c:	0aa0b823          	sd	x10,176(x1)
    80000860:	fffef137          	lui	x2,0xfffef
    80000864:	00a10463          	beq	x2,x10,0x8000086c
    80000868:	fbcff06f          	jal	x0,0x80000024
    8000086c:	fffdf537          	lui	x10,0xfffdf
    80000870:	0aa0bc23          	sd	x10,184(x1)
    80000874:	fffdf137          	lui	x2,0xfffdf
    80000878:	00a10463          	beq	x2,x10,0x80000880
    8000087c:	fa8ff06f          	jal	x0,0x80000024
    80000880:	fffbf537          	lui	x10,0xfffbf
    80000884:	0ca0b023          	sd	x10,192(x1)
    80000888:	fffbf137          	lui	x2,0xfffbf
    8000088c:	00a10463          	beq	x2,x10,0x80000894
    80000890:	f94ff06f          	jal	x0,0x80000024
    80000894:	fff7f537          	lui	x10,0xfff7f
    80000898:	0ca0b423          	sd	x10,200(x1)
    8000089c:	fff7f137          	lui	x2,0xfff7f
    800008a0:	00a10463          	beq	x2,x10,0x800008a8
    800008a4:	f80ff06f          	jal	x0,0x80000024
    800008a8:	ffeff537          	lui	x10,0xffeff
    800008ac:	0ca0b823          	sd	x10,208(x1)
    800008b0:	ffeff137          	lui	x2,0xffeff
    800008b4:	00a10463          	beq	x2,x10,0x800008bc
    800008b8:	f6cff06f          	jal	x0,0x80000024
    800008bc:	ffdff537          	lui	x10,0xffdff
    800008c0:	0ca0bc23          	sd	x10,216(x1)
    800008c4:	ffdff137          	lui	x2,0xffdff
    800008c8:	00a10463          	beq	x2,x10,0x800008d0
    800008cc:	f58ff06f          	jal	x0,0x80000024
    800008d0:	ffbff537          	lui	x10,0xffbff
    800008d4:	0ea0b023          	sd	x10,224(x1)
    800008d8:	ffbff137          	lui	x2,0xffbff
    800008dc:	00a10463          	beq	x2,x10,0x800008e4
    800008e0:	f44ff06f          	jal	x0,0x80000024
    800008e4:	ff7ff537          	lui	x10,0xff7ff
    800008e8:	0ea0b423          	sd	x10,232(x1)
    800008ec:	ff7ff137          	lui	x2,0xff7ff
    800008f0:	00a10463          	beq	x2,x10,0x800008f8
    800008f4:	f30ff06f          	jal	x0,0x80000024
    800008f8:	fefff537          	lui	x10,0xfefff
    800008fc:	0ea0b823          	sd	x10,240(x1)
    80000900:	fefff137          	lui	x2,0xfefff
    80000904:	00a10463          	beq	x2,x10,0x8000090c
    80000908:	f1cff06f          	jal	x0,0x80000024
    8000090c:	fdfff537          	lui	x10,0xfdfff
    80000910:	0ea0bc23          	sd	x10,248(x1)
    80000914:	fdfff137          	lui	x2,0xfdfff
    80000918:	00a10463          	beq	x2,x10,0x80000920
    8000091c:	f08ff06f          	jal	x0,0x80000024
    80000920:	fbfff537          	lui	x10,0xfbfff
    80000924:	10a0b023          	sd	x10,256(x1)
    80000928:	fbfff137          	lui	x2,0xfbfff
    8000092c:	00a10463          	beq	x2,x10,0x80000934
    80000930:	ef4ff06f          	jal	x0,0x80000024
    80000934:	f7fff537          	lui	x10,0xf7fff
    80000938:	10a0b423          	sd	x10,264(x1)
    8000093c:	f7fff137          	lui	x2,0xf7fff
    80000940:	00a10463          	beq	x2,x10,0x80000948
    80000944:	ee0ff06f          	jal	x0,0x80000024
    80000948:	00040537          	lui	x10,0x40
    8000094c:	10a0b823          	sd	x10,272(x1)
    80000950:	00040137          	lui	x2,0x40
    80000954:	00a10463          	beq	x2,x10,0x8000095c
    80000958:	eccff06f          	jal	x0,0x80000024
    8000095c:	0380006f          	jal	x0,0x80000994
    80000960:	1f813483          	ld	x9,504(x2) # 0x401f8
    80000964:	20013303          	ld	x6,512(x2)
    80000968:	00930333          	add	x6,x6,x9
    8000096c:	00000337          	lui	x6,0x0
    80000970:	00030313          	addi	x6,x6,0 # 0x0
    80000974:	00b31313          	slli	x6,x6,0xb
    80000978:	5d630313          	addi	x6,x6,1494
    8000097c:	00b31313          	slli	x6,x6,0xb
    80000980:	43630313          	addi	x6,x6,1078
    80000984:	00a31313          	slli	x6,x6,0xa
    80000988:	2d030313          	addi	x6,x6,720
    8000098c:	fe64be23          	sd	x6,-4(x9) # 0x2d2ffc
    80000990:	0040006f          	jal	x0,0x80000994
    80000994:	00000513          	addi	x10,x0,0
    80000998:	0180006f          	jal	x0,0x800009b0
	...
    800009b0:	00050513          	addi	x10,x10,0 # 0x40000
    800009b4:	00100073          	ebreak
    800009b8:	0000006f          	jal	x0,0x800009b8
    800009bc:	ff010113          	addi	x2,x2,-16
    800009c0:	00000517          	auipc	x10,0x0
    800009c4:	02050513          	addi	x10,x10,32 # 0x800009e0
    800009c8:	00113423          	sd	x1,8(x2)
    800009cc:	e44ff0ef          	jal	x1,0x80000010
    800009d0:	00050513          	addi	x10,x10,0
    800009d4:	00100073          	ebreak
    800009d8:	0000006f          	jal	x0,0x800009d8
	...
    80001000:	cafe                	c.swsp	x31,84(x2)
    80001002:	babe                	c.fsdsp	f15,368(x2)
    80001004:	cafe                	c.swsp	x31,84(x2)
    80001006:	babe                	c.fsdsp	f15,368(x2)
    80001008:	cafe                	c.swsp	x31,84(x2)
    8000100a:	babe                	c.fsdsp	f15,368(x2)
    8000100c:	cafe                	c.swsp	x31,84(x2)
    8000100e:	babe                	c.fsdsp	f15,368(x2)
    80001010:	deadbeef          	jal	x29,0x7ffdc5fa
    80001014:	deadbeef          	jal	x29,0x7ffdc5fe
	...
    80002000:	b281                	c.j	0x80001940
    80002002:	e7d4                	c.sd	x13,136(x15)
    80002004:	a309                	c.j	0x80002506
    80002006:	6f5c                	c.ld	x15,152(x14)
    80002008:	deadbeef          	jal	x29,0x7ffdd5f2
    8000200c:	deadbeef          	jal	x29,0x7ffdd5f6
    80002010:	deadbeef          	jal	x29,0x7ffdd5fa
    80002014:	deadbeef          	jal	x29,0x7ffdd5fe
    80002018:	deadbeef          	jal	x29,0x7ffdd602
    8000201c:	deadbeef          	jal	x29,0x7ffdd606
    80002020:	deadbeef          	jal	x29,0x7ffdd60a
    80002024:	deadbeef          	jal	x29,0x7ffdd60e
    80002028:	deadbeef          	jal	x29,0x7ffdd612
    8000202c:	deadbeef          	jal	x29,0x7ffdd616
    80002030:	deadbeef          	jal	x29,0x7ffdd61a
    80002034:	deadbeef          	jal	x29,0x7ffdd61e
    80002038:	deadbeef          	jal	x29,0x7ffdd622
    8000203c:	deadbeef          	jal	x29,0x7ffdd626
    80002040:	deadbeef          	jal	x29,0x7ffdd62a
    80002044:	deadbeef          	jal	x29,0x7ffdd62e
    80002048:	deadbeef          	jal	x29,0x7ffdd632
    8000204c:	deadbeef          	jal	x29,0x7ffdd636
    80002050:	deadbeef          	jal	x29,0x7ffdd63a
    80002054:	deadbeef          	jal	x29,0x7ffdd63e
    80002058:	deadbeef          	jal	x29,0x7ffdd642
    8000205c:	deadbeef          	jal	x29,0x7ffdd646
    80002060:	deadbeef          	jal	x29,0x7ffdd64a
    80002064:	deadbeef          	jal	x29,0x7ffdd64e
    80002068:	deadbeef          	jal	x29,0x7ffdd652
    8000206c:	deadbeef          	jal	x29,0x7ffdd656
    80002070:	deadbeef          	jal	x29,0x7ffdd65a
    80002074:	deadbeef          	jal	x29,0x7ffdd65e
    80002078:	deadbeef          	jal	x29,0x7ffdd662
    8000207c:	deadbeef          	jal	x29,0x7ffdd666
    80002080:	deadbeef          	jal	x29,0x7ffdd66a
    80002084:	deadbeef          	jal	x29,0x7ffdd66e
    80002088:	deadbeef          	jal	x29,0x7ffdd672
    8000208c:	deadbeef          	jal	x29,0x7ffdd676
    80002090:	deadbeef          	jal	x29,0x7ffdd67a
    80002094:	deadbeef          	jal	x29,0x7ffdd67e
    80002098:	deadbeef          	jal	x29,0x7ffdd682
    8000209c:	deadbeef          	jal	x29,0x7ffdd686
    800020a0:	deadbeef          	jal	x29,0x7ffdd68a
    800020a4:	deadbeef          	jal	x29,0x7ffdd68e
    800020a8:	deadbeef          	jal	x29,0x7ffdd692
    800020ac:	deadbeef          	jal	x29,0x7ffdd696
    800020b0:	deadbeef          	jal	x29,0x7ffdd69a
    800020b4:	deadbeef          	jal	x29,0x7ffdd69e
    800020b8:	deadbeef          	jal	x29,0x7ffdd6a2
    800020bc:	deadbeef          	jal	x29,0x7ffdd6a6
    800020c0:	deadbeef          	jal	x29,0x7ffdd6aa
    800020c4:	deadbeef          	jal	x29,0x7ffdd6ae
    800020c8:	deadbeef          	jal	x29,0x7ffdd6b2
    800020cc:	deadbeef          	jal	x29,0x7ffdd6b6
    800020d0:	deadbeef          	jal	x29,0x7ffdd6ba
    800020d4:	deadbeef          	jal	x29,0x7ffdd6be
    800020d8:	deadbeef          	jal	x29,0x7ffdd6c2
    800020dc:	deadbeef          	jal	x29,0x7ffdd6c6
    800020e0:	deadbeef          	jal	x29,0x7ffdd6ca
    800020e4:	deadbeef          	jal	x29,0x7ffdd6ce
    800020e8:	deadbeef          	jal	x29,0x7ffdd6d2
    800020ec:	deadbeef          	jal	x29,0x7ffdd6d6
    800020f0:	deadbeef          	jal	x29,0x7ffdd6da
    800020f4:	deadbeef          	jal	x29,0x7ffdd6de
    800020f8:	deadbeef          	jal	x29,0x7ffdd6e2
    800020fc:	deadbeef          	jal	x29,0x7ffdd6e6
    80002100:	deadbeef          	jal	x29,0x7ffdd6ea
    80002104:	deadbeef          	jal	x29,0x7ffdd6ee
    80002108:	deadbeef          	jal	x29,0x7ffdd6f2
    8000210c:	deadbeef          	jal	x29,0x7ffdd6f6
    80002110:	deadbeef          	jal	x29,0x7ffdd6fa
    80002114:	deadbeef          	jal	x29,0x7ffdd6fe
    80002118:	deadbeef          	jal	x29,0x7ffdd702
    8000211c:	deadbeef          	jal	x29,0x7ffdd706
    80002120:	deadbeef          	jal	x29,0x7ffdd70a
    80002124:	deadbeef          	jal	x29,0x7ffdd70e
    80002128:	deadbeef          	jal	x29,0x7ffdd712
    8000212c:	deadbeef          	jal	x29,0x7ffdd716
    80002130:	deadbeef          	jal	x29,0x7ffdd71a
    80002134:	deadbeef          	jal	x29,0x7ffdd71e
    80002138:	deadbeef          	jal	x29,0x7ffdd722
    8000213c:	deadbeef          	jal	x29,0x7ffdd726
    80002140:	deadbeef          	jal	x29,0x7ffdd72a
    80002144:	deadbeef          	jal	x29,0x7ffdd72e
    80002148:	deadbeef          	jal	x29,0x7ffdd732
    8000214c:	deadbeef          	jal	x29,0x7ffdd736
    80002150:	deadbeef          	jal	x29,0x7ffdd73a
    80002154:	deadbeef          	jal	x29,0x7ffdd73e
    80002158:	deadbeef          	jal	x29,0x7ffdd742
    8000215c:	deadbeef          	jal	x29,0x7ffdd746
    80002160:	deadbeef          	jal	x29,0x7ffdd74a
    80002164:	deadbeef          	jal	x29,0x7ffdd74e
    80002168:	deadbeef          	jal	x29,0x7ffdd752
    8000216c:	deadbeef          	jal	x29,0x7ffdd756
    80002170:	deadbeef          	jal	x29,0x7ffdd75a
    80002174:	deadbeef          	jal	x29,0x7ffdd75e
    80002178:	deadbeef          	jal	x29,0x7ffdd762
    8000217c:	deadbeef          	jal	x29,0x7ffdd766
    80002180:	deadbeef          	jal	x29,0x7ffdd76a
    80002184:	deadbeef          	jal	x29,0x7ffdd76e
    80002188:	deadbeef          	jal	x29,0x7ffdd772
    8000218c:	deadbeef          	jal	x29,0x7ffdd776
    80002190:	deadbeef          	jal	x29,0x7ffdd77a
    80002194:	deadbeef          	jal	x29,0x7ffdd77e
    80002198:	deadbeef          	jal	x29,0x7ffdd782
    8000219c:	deadbeef          	jal	x29,0x7ffdd786
    800021a0:	deadbeef          	jal	x29,0x7ffdd78a
    800021a4:	deadbeef          	jal	x29,0x7ffdd78e
    800021a8:	deadbeef          	jal	x29,0x7ffdd792
    800021ac:	deadbeef          	jal	x29,0x7ffdd796
    800021b0:	deadbeef          	jal	x29,0x7ffdd79a
    800021b4:	deadbeef          	jal	x29,0x7ffdd79e
    800021b8:	deadbeef          	jal	x29,0x7ffdd7a2
    800021bc:	deadbeef          	jal	x29,0x7ffdd7a6
    800021c0:	deadbeef          	jal	x29,0x7ffdd7aa
    800021c4:	deadbeef          	jal	x29,0x7ffdd7ae
    800021c8:	deadbeef          	jal	x29,0x7ffdd7b2
    800021cc:	deadbeef          	jal	x29,0x7ffdd7b6
    800021d0:	deadbeef          	jal	x29,0x7ffdd7ba
    800021d4:	deadbeef          	jal	x29,0x7ffdd7be
    800021d8:	deadbeef          	jal	x29,0x7ffdd7c2
    800021dc:	deadbeef          	jal	x29,0x7ffdd7c6
    800021e0:	deadbeef          	jal	x29,0x7ffdd7ca
    800021e4:	deadbeef          	jal	x29,0x7ffdd7ce
    800021e8:	deadbeef          	jal	x29,0x7ffdd7d2
    800021ec:	deadbeef          	jal	x29,0x7ffdd7d6
    800021f0:	deadbeef          	jal	x29,0x7ffdd7da
    800021f4:	deadbeef          	jal	x29,0x7ffdd7de
    800021f8:	deadbeef          	jal	x29,0x7ffdd7e2
    800021fc:	deadbeef          	jal	x29,0x7ffdd7e6
    80002200:	b281                	c.j	0x80001b40
    80002202:	e7d4                	c.sd	x13,136(x15)
    80002204:	a309                	c.j	0x80002706
    80002206:	6f5c                	c.ld	x15,152(x14)
	...
