
elf/riscv-arch-test/lwu-align-riscv64-nemu.elf:     file format binary

Contents of section .data:
 1000 13040000 17b10000 1301c1ff ef00104b  ...............K
 1010 ef000003 13051000 ef009049 13050000  ...........I....
 1020 67800000 00000000 00000000 00000000  g...............
 1030 00000000 00000000 00000000 00000000  ................
 1040 b7c0edfe 9380d0ea 9390b000 9380707f  ..............p.
 1050 9390b000 9380f036 9390a000 9380d02a  .......6.......*
 1060 37e176ff 130161f5 1311b100 1301b17f  7.v...a.........
 1070 1311b100 1301715b 1311a100 13016135  ......q[......a5
 1080 b771bb7f 9381b1fa 9391b100 9381d13f  .q.............?
 1090 9391b100 9381b16d 9391a100 9381b13a  .......m.......:
 10a0 37b2ddbf 1302527d 1312b200 1302e25f  7.....R}......._
 10b0 1312b200 1302d276 1312a200 1302523d  .......v......R=
 10c0 b7e2eedf 9382a2be 9392b200 9382f26f  ...............o
 10d0 9392b200 9382623b 9392a200 9382a23e  ......b;.......>
 10e0 3773f76f 130353df 1313b300 1303f337  7s.o..S........7
 10f0 1313b300 1303b35d 1313a300 1303531f  .......]......S.
 1100 b7b3fbb7 9383a36f 9393b300 9383f35b  .......o.......[
 1110 9393b300 9383d36e 9393a300 9383a32f  .......n......./
 1120 37e4fd5b 1304d4b7 1314b400 1304f42d  7..[...........-
 1130 1314b400 13046477 1314a400 1304d437  ......dw.......7
 1140 b7f4fead 9384e4db 9394b400 9384f456  ...............V
 1150 9394b400 9384b47b 9394a400 9384e41b  .......{........
 1160 3775ff56 1305f56d 1315b500 1305752b  7u.V...m......u+
 1170 1315b500 1305d57d 1315a500 1305f52d  .......}.......-
 1180 b7c57fab 9385f5b6 9395b500 9385b555  ...............U
 1190 9395b500 9385e57e 9395a500 9385f536  .......~.......6
 11a0 37e6bfd5 130676db 1316b600 1306d66a  7.....v........j
 11b0 1316b600 1306767f 1316a600 1306761b  ......v.......v.
 11c0 b7f6dfea 9386b6ed 9396b600 93866675  ..............fu
 11d0 9396b600 9386b67f 9396a600 9386b62d  ...............-
 11e0 37f76ff5 1307d776 1317b700 1307b77a  7.o....v.......z
 11f0 1317b700 1307d73f 1317a700 1307d736  .......?.......6
 1200 b707b8fa 938767bb 9397b700 9387577d  ......g.......W}
 1210 9397b700 9387e75f 9397a700 9387673b  ......._......g;
 1220 37085c7d 1308b8dd 1318b800 1308a83e  7.\}...........>
 1230 1318b800 1308f86f 1318a800 1308b81d  .......o........
 1240 b708aebe 9388d8ee 9398b800 9388585f  ..............X_
 1250 9398b800 9388f837 9398a800 9388d82e  .......7........
 1260 370957df 130969f7 1319b900 1309a96f  7.W...i........o
 1270 1319b900 1309f95b 1319a900 13096937  .......[......i7
 1280 b789ab6f 9389b9fb 9399b900 9389d937  ...o...........7
 1290 9399b900 9389f92d 9399a900 9389b93b  .......-.......;
 12a0 37cad5b7 130adafd 131aba00 130aea5b  7..............[
 12b0 131aba00 130afa56 131aaa00 130ada3d  .......V.......=
 12c0 b7eaeadb 938aeafe 939aba00 938afa6d  ...............m
 12d0 939aba00 938a7a2b 939aaa00 938aea3e  ......z+.......>
 12e0 377bf56d 130b7bff 131bbb00 130bfb36  7{.m..{........6
 12f0 131bbb00 130bbb55 131bab00 130b7b3f  .......U......{?
 1300 b7bbfab6 938bbb7f 939bbb00 938b7b5b  ..............{[
 1310 939bbb00 938bdb6a 939bab00 938bbb3f  .......j.......?
 1320 376c7ddb 130cdcbf 131cbc00 130cbc6d  7l}............m
 1330 131cbc00 130c6c75 131cac00 130cdc3f  ......lu.......?
 1340 b7bcbeed 938cecdf 939cbc00 938cdc76  ...............v
 1350 939cbc00 938cbc7a 939cac00 938cec1f  .......z........
 1360 375ddf76 130dfd6f 131dbd00 130d6d3b  7].v...o......m;
 1370 131dbd00 130d5d7d 131dad00 130dfd2f  ......]}......./
 1380 b7bd6fbb 938dfdb7 939dbd00 938dbd5d  ..o............]
 1390 939dbd00 938dad3e 939dad00 938dfd37  .......>.......7
 13a0 37deb7dd 130efe5b 131ebe00 130ede6e  7......[.......n
 13b0 131ebe00 130e5e5f 131eae00 130efe1b  ......^_........
 13c0 b7fedbee 938efead 939ebe00 938e6e77  ..............nw
 13d0 939ebe00 938eae6f 939eae00 938efe2d  .......o.......-
 13e0 37ff6df7 130fff56 131fbf00 130fbf7b  7.m....V.......{
 13f0 131fbf00 130fdf37 131faf00 130fff16  .......7........
 1400 b70fb7fb 938f7fab 939fbf00 938fdf7d  ...............}
 1410 939fbf00 938fef5b 939faf00 938f7f2b  .......[.......+
 1420 17270000 130787be 13000000 13000000  .'..............
 1430 13000000 13000000 13000000 13000000  ................
 1440 171d0000 130d0d9c 13000000 13000000  ................
 1450 13000000 13000000 13000000 13000000  ................
 1460 036d0d20 13000000 13000000 2330a701  .m. ........#0..
 1470 13000000 13000000 13000000 13000000  ................
 1480 97180000 938878b8 13000000 13000000  ......x.........
 1490 13000000 13000000 13000000 13000000  ................
 14a0 83ee98ff 13000000 13000000 2334d701  ............#4..
 14b0 13000000 13000000 13000000 13000000  ................
 14c0 97160000 938626b4 13000000 13000000  ......&.........
 14d0 13000000 13000000 13000000 13000000  ................
 14e0 03e3e6ff 13000000 13000000 23386700  ............#8g.
 14f0 13000000 13000000 13000000 13000000  ................
 1500 97150000 938515b2 13000000 13000000  ................
 1510 13000000 13000000 13000000 13000000  ................
 1520 83eaf5fd 13000000 13000000 233c5701  ............#<W.
 1530 13000000 13000000 13000000 13000000  ................
 1540 97130000 938303ac 13000000 13000000  ................
 1550 13000000 13000000 13000000 13000000  ................
 1560 03e40300 13000000 13000000 23308702  ............#0..
 1570 13000000 13000000 13000000 13000000  ................
 1580 171f0000 130f0f28 13000000 13000000  .......(........
 1590 13000000 13000000 13000000 13000000  ................
 15a0 03620f80 13000000 13000000 23344702  .b..........#4G.
 15b0 13000000 13000000 13000000 13000000  ................
 15c0 97100000 93800024 13000000 13000000  .......$........
 15d0 13000000 13000000 13000000 13000000  ................
 15e0 03e00080 13000000 13000000 23380702  ............#8..
 15f0 13000000 13000000 13000000 13000000  ................
 1600 171b0000 130b0b20 13000000 13000000  ....... ........
 1610 13000000 13000000 13000000 13000000  ................
 1620 036a0b80 13000000 13000000 233c4703  .j..........#<G.
 1630 13000000 13000000 13000000 13000000  ................
 1640 97140000 9384041c 13000000 13000000  ................
 1650 13000000 13000000 13000000 13000000  ................
 1660 03e10480 13000000 13000000 23302704  ............#0'.
 1670 13000000 13000000 13000000 13000000  ................
 1680 171e0000 130e0e18 13000000 13000000  ................
 1690 13000000 13000000 13000000 13000000  ................
 16a0 836b0e80 13000000 13000000 23347705  .k..........#4w.
 16b0 13000000 13000000 13000000 13000000  ................
 16c0 171c0000 130c0c14 13000000 13000000  ................
 16d0 13000000 13000000 13000000 13000000  ................
 16e0 83650c80 13000000 13000000 2338b704  .e..........#8..
 16f0 13000000 13000000 13000000 13000000  ................
 1700 97110000 93810110 13000000 13000000  ................
 1710 13000000 13000000 13000000 13000000  ................
 1720 83e70180 13000000 13000000 233cf704  ............#<..
 1730 13000000 13000000 13000000 13000000  ................
 1740 17140000 1304040c 13000000 13000000  ................
 1750 13000000 13000000 13000000 13000000  ................
 1760 036c0480 13000000 13000000 23308707  .l..........#0..
 1770 13000000 13000000 13000000 13000000  ................
 1780 17120000 13020208 13000000 13000000  ................
 1790 13000000 13000000 13000000 13000000  ................
 17a0 83630280 13000000 13000000 23347706  .c..........#4w.
 17b0 13000000 13000000 13000000 13000000  ................
 17c0 17110000 13010104 13000000 13000000  ................
 17d0 13000000 13000000 13000000 13000000  ................
 17e0 03690180 13000000 13000000 23382707  .i..........#8'.
 17f0 13000000 13000000 13000000 13000000  ................
 1800 17150000 13050500 13000000 13000000  ................
 1810 13000000 13000000 13000000 13000000  ................
 1820 83610580 13000000 13000000 233c3706  .a..........#<7.
 1830 13000000 13000000 13000000 13000000  ................
 1840 971e0000 938e0efc 13000000 13000000  ................
 1850 13000000 13000000 13000000 13000000  ................
 1860 83e40e80 13000000 13000000 23309708  ............#0..
 1870 13000000 13000000 13000000 13000000  ................
 1880 17160000 130606f8 13000000 13000000  ................
 1890 13000000 13000000 13000000 13000000  ................
 18a0 03650680 13000000 13000000 2334a708  .e..........#4..
 18b0 13000000 13000000 13000000 13000000  ................
 18c0 971b0000 938b0bf4 13000000 13000000  ................
 18d0 13000000 13000000 13000000 13000000  ................
 18e0 83e90b80 13000000 13000000 23383709  ............#87.
 18f0 13000000 13000000 13000000 13000000  ................
 1900 97120000 938202f0 13000000 13000000  ................
 1910 13000000 13000000 13000000 13000000  ................
 1920 03ef0280 13000000 13000000 233ce709  ............#<..
 1930 13000000 13000000 13000000 13000000  ................
 1940 17180000 130808ec 13000000 13000000  ................
 1950 13000000 13000000 13000000 13000000  ................
 1960 83660880 13000000 13000000 2330d70a  .f..........#0..
 1970 13000000 13000000 13000000 13000000  ................
 1980 17130000 130303e8 13000000 13000000  ................
 1990 13000000 13000000 13000000 13000000  ................
 19a0 836f0380 13000000 13000000 2334f70b  .o..........#4..
 19b0 13000000 13000000 13000000 13000000  ................
 19c0 17110000 1301816f 13000000 13000000  .......o........
 19d0 13000000 13000000 13000000 13000000  ................
 19e0 97170000 938707e2 13000000 13000000  ................
 19f0 13000000 13000000 13000000 13000000  ................
 1a00 03e70780 13000000 13000000 2330e100  ............#0..
 1a10 13000000 13000000 13000000 13000000  ................
 1a20 971d0000 938d0dde 13000000 13000000  ................
 1a30 13000000 13000000 13000000 13000000  ................
 1a40 83ec0d80 13000000 13000000 23349101  ............#4..
 1a50 13000000 13000000 13000000 13000000  ................
 1a60 971f0000 938f0fda 13000000 13000000  ................
 1a70 13000000 13000000 13000000 13000000  ................
 1a80 03e60f80 13000000 13000000 2338c100  ............#8..
 1a90 13000000 13000000 13000000 13000000  ................
 1aa0 17190000 130909d6 13000000 13000000  ................
 1ab0 13000000 13000000 13000000 13000000  ................
 1ac0 836d0980 13000000 13000000 233cb101  .m..........#<..
 1ad0 13000000 13000000 13000000 13000000  ................
 1ae0 171a0000 130a0ad2 13000000 13000000  ................
 1af0 13000000 13000000 13000000 13000000  ................
 1b00 03680a80 13000000 13000000 23300103  .h..........#0..
 1b10 13000000 13000000 13000000 13000000  ................
 1b20 97190000 938909ce 13000000 13000000  ................
 1b30 13000000 13000000 13000000 13000000  ................
 1b40 03ee0980 13000000 13000000 2334c103  ............#4..
 1b50 13000000 13000000 13000000 13000000  ................
 1b60 971a0000 938a0aca 13000000 13000000  ................
 1b70 13000000 13000000 13000000 13000000  ................
 1b80 83e80a80 13000000 13000000 23381103  ............#8..
 1b90 13000000 13000000 13000000 13000000  ................
 1ba0 971c0000 938c0cc6 13000000 13000000  ................
 1bb0 13000000 13000000 13000000 13000000  ................
 1bc0 03eb0c80 13000000 13000000 233c6103  ............#<a.
 1bd0 13000000 13000000 13000000 13000000  ................
 1be0 17170000 130707c2 13000000 13000000  ................
 1bf0 13000000 13000000 13000000 13000000  ................
 1c00 83600780 13000000 13000000 23301104  .`..........#0..
 1c10 13000000 13000000 13000000 13000000  ................
 1c20 17140000 130404be 13000000 13000000  ................
 1c30 13000000 13000000 13000000 13000000  ................
 1c40 83620480 13000000 13000000 23345104  .b..........#4Q.
 1c50 6f008003 8334811f 03330120 33039300  o....4...3. 3...
 1c60 37030000 13030300 1313b300 1303635d  7.............c]
 1c70 1313b300 13036343 1313a300 1303032d  ......cC.......-
 1c80 23be64fe 6f004000 13050000 6f004002  #.d.o.@.....o.@.
 1c90 00000000 00000000 00000000 00000000  ................
 1ca0 00000000 00000000 00000000 00000000  ................
 1cb0 13050500 73001000 6f000000 130101ff  ....s...o.......
 1cc0 17050000 13050502 23341100 eff04fb4  ........#4....O.
 1cd0 13050500 73001000 6f000000 00000000  ....s...o.......
 1ce0 00000000 00000000 00000000 00000000  ................
 1cf0 00000000 00000000 00000000 00000000  ................
 1d00 00000000 00000000 00000000 00000000  ................
 1d10 00000000 00000000 00000000 00000000  ................
 1d20 00000000 00000000 00000000 00000000  ................
 1d30 00000000 00000000 00000000 00000000  ................
 1d40 00000000 00000000 00000000 00000000  ................
 1d50 00000000 00000000 00000000 00000000  ................
 1d60 00000000 00000000 00000000 00000000  ................
 1d70 00000000 00000000 00000000 00000000  ................
 1d80 00000000 00000000 00000000 00000000  ................
 1d90 00000000 00000000 00000000 00000000  ................
 1da0 00000000 00000000 00000000 00000000  ................
 1db0 00000000 00000000 00000000 00000000  ................
 1dc0 00000000 00000000 00000000 00000000  ................
 1dd0 00000000 00000000 00000000 00000000  ................
 1de0 00000000 00000000 00000000 00000000  ................
 1df0 00000000 00000000 00000000 00000000  ................
 1e00 00000000 00000000 00000000 00000000  ................
 1e10 00000000 00000000 00000000 00000000  ................
 1e20 00000000 00000000 00000000 00000000  ................
 1e30 00000000 00000000 00000000 00000000  ................
 1e40 00000000 00000000 00000000 00000000  ................
 1e50 00000000 00000000 00000000 00000000  ................
 1e60 00000000 00000000 00000000 00000000  ................
 1e70 00000000 00000000 00000000 00000000  ................
 1e80 00000000 00000000 00000000 00000000  ................
 1e90 00000000 00000000 00000000 00000000  ................
 1ea0 00000000 00000000 00000000 00000000  ................
 1eb0 00000000 00000000 00000000 00000000  ................
 1ec0 00000000 00000000 00000000 00000000  ................
 1ed0 00000000 00000000 00000000 00000000  ................
 1ee0 00000000 00000000 00000000 00000000  ................
 1ef0 00000000 00000000 00000000 00000000  ................
 1f00 00000000 00000000 00000000 00000000  ................
 1f10 00000000 00000000 00000000 00000000  ................
 1f20 00000000 00000000 00000000 00000000  ................
 1f30 00000000 00000000 00000000 00000000  ................
 1f40 00000000 00000000 00000000 00000000  ................
 1f50 00000000 00000000 00000000 00000000  ................
 1f60 00000000 00000000 00000000 00000000  ................
 1f70 00000000 00000000 00000000 00000000  ................
 1f80 00000000 00000000 00000000 00000000  ................
 1f90 00000000 00000000 00000000 00000000  ................
 1fa0 00000000 00000000 00000000 00000000  ................
 1fb0 00000000 00000000 00000000 00000000  ................
 1fc0 00000000 00000000 00000000 00000000  ................
 1fd0 00000000 00000000 00000000 00000000  ................
 1fe0 00000000 00000000 00000000 00000000  ................
 1ff0 00000000 00000000 00000000 00000000  ................
 2000 fecabeba fecabeba fecabeba fecabeba  ................
 2010 efbeadde efbeadde 00000000 00000000  ................
 2020 00000000 00000000 00000000 00000000  ................
 2030 00000000 00000000 00000000 00000000  ................
 2040 00000000 00000000 00000000 00000000  ................
 2050 00000000 00000000 00000000 00000000  ................
 2060 00000000 00000000 00000000 00000000  ................
 2070 00000000 00000000 00000000 00000000  ................
 2080 00000000 00000000 00000000 00000000  ................
 2090 00000000 00000000 00000000 00000000  ................
 20a0 00000000 00000000 00000000 00000000  ................
 20b0 00000000 00000000 00000000 00000000  ................
 20c0 00000000 00000000 00000000 00000000  ................
 20d0 00000000 00000000 00000000 00000000  ................
 20e0 00000000 00000000 00000000 00000000  ................
 20f0 00000000 00000000 00000000 00000000  ................
 2100 00000000 00000000 00000000 00000000  ................
 2110 00000000 00000000 00000000 00000000  ................
 2120 00000000 00000000 00000000 00000000  ................
 2130 00000000 00000000 00000000 00000000  ................
 2140 00000000 00000000 00000000 00000000  ................
 2150 00000000 00000000 00000000 00000000  ................
 2160 00000000 00000000 00000000 00000000  ................
 2170 00000000 00000000 00000000 00000000  ................
 2180 00000000 00000000 00000000 00000000  ................
 2190 00000000 00000000 00000000 00000000  ................
 21a0 00000000 00000000 00000000 00000000  ................
 21b0 00000000 00000000 00000000 00000000  ................
 21c0 00000000 00000000 00000000 00000000  ................
 21d0 00000000 00000000 00000000 00000000  ................
 21e0 00000000 00000000 00000000 00000000  ................
 21f0 00000000 00000000 00000000 00000000  ................
 2200 00000000 00000000 00000000 00000000  ................
 2210 00000000 00000000 00000000 00000000  ................
 2220 00000000 00000000 00000000 00000000  ................
 2230 00000000 00000000 00000000 00000000  ................
 2240 00000000 00000000 00000000 00000000  ................
 2250 00000000 00000000 00000000 00000000  ................
 2260 00000000 00000000 00000000 00000000  ................
 2270 00000000 00000000 00000000 00000000  ................
 2280 00000000 00000000 00000000 00000000  ................
 2290 00000000 00000000 00000000 00000000  ................
 22a0 00000000 00000000 00000000 00000000  ................
 22b0 00000000 00000000 00000000 00000000  ................
 22c0 00000000 00000000 00000000 00000000  ................
 22d0 00000000 00000000 00000000 00000000  ................
 22e0 00000000 00000000 00000000 00000000  ................
 22f0 00000000 00000000 00000000 00000000  ................
 2300 00000000 00000000 00000000 00000000  ................
 2310 00000000 00000000 00000000 00000000  ................
 2320 00000000 00000000 00000000 00000000  ................
 2330 00000000 00000000 00000000 00000000  ................
 2340 00000000 00000000 00000000 00000000  ................
 2350 00000000 00000000 00000000 00000000  ................
 2360 00000000 00000000 00000000 00000000  ................
 2370 00000000 00000000 00000000 00000000  ................
 2380 00000000 00000000 00000000 00000000  ................
 2390 00000000 00000000 00000000 00000000  ................
 23a0 00000000 00000000 00000000 00000000  ................
 23b0 00000000 00000000 00000000 00000000  ................
 23c0 00000000 00000000 00000000 00000000  ................
 23d0 00000000 00000000 00000000 00000000  ................
 23e0 00000000 00000000 00000000 00000000  ................
 23f0 00000000 00000000 00000000 00000000  ................
 2400 00000000 00000000 00000000 00000000  ................
 2410 00000000 00000000 00000000 00000000  ................
 2420 00000000 00000000 00000000 00000000  ................
 2430 00000000 00000000 00000000 00000000  ................
 2440 00000000 00000000 00000000 00000000  ................
 2450 00000000 00000000 00000000 00000000  ................
 2460 00000000 00000000 00000000 00000000  ................
 2470 00000000 00000000 00000000 00000000  ................
 2480 00000000 00000000 00000000 00000000  ................
 2490 00000000 00000000 00000000 00000000  ................
 24a0 00000000 00000000 00000000 00000000  ................
 24b0 00000000 00000000 00000000 00000000  ................
 24c0 00000000 00000000 00000000 00000000  ................
 24d0 00000000 00000000 00000000 00000000  ................
 24e0 00000000 00000000 00000000 00000000  ................
 24f0 00000000 00000000 00000000 00000000  ................
 2500 00000000 00000000 00000000 00000000  ................
 2510 00000000 00000000 00000000 00000000  ................
 2520 00000000 00000000 00000000 00000000  ................
 2530 00000000 00000000 00000000 00000000  ................
 2540 00000000 00000000 00000000 00000000  ................
 2550 00000000 00000000 00000000 00000000  ................
 2560 00000000 00000000 00000000 00000000  ................
 2570 00000000 00000000 00000000 00000000  ................
 2580 00000000 00000000 00000000 00000000  ................
 2590 00000000 00000000 00000000 00000000  ................
 25a0 00000000 00000000 00000000 00000000  ................
 25b0 00000000 00000000 00000000 00000000  ................
 25c0 00000000 00000000 00000000 00000000  ................
 25d0 00000000 00000000 00000000 00000000  ................
 25e0 00000000 00000000 00000000 00000000  ................
 25f0 00000000 00000000 00000000 00000000  ................
 2600 00000000 00000000 00000000 00000000  ................
 2610 00000000 00000000 00000000 00000000  ................
 2620 00000000 00000000 00000000 00000000  ................
 2630 00000000 00000000 00000000 00000000  ................
 2640 00000000 00000000 00000000 00000000  ................
 2650 00000000 00000000 00000000 00000000  ................
 2660 00000000 00000000 00000000 00000000  ................
 2670 00000000 00000000 00000000 00000000  ................
 2680 00000000 00000000 00000000 00000000  ................
 2690 00000000 00000000 00000000 00000000  ................
 26a0 00000000 00000000 00000000 00000000  ................
 26b0 00000000 00000000 00000000 00000000  ................
 26c0 00000000 00000000 00000000 00000000  ................
 26d0 00000000 00000000 00000000 00000000  ................
 26e0 00000000 00000000 00000000 00000000  ................
 26f0 00000000 00000000 00000000 00000000  ................
 2700 00000000 00000000 00000000 00000000  ................
 2710 00000000 00000000 00000000 00000000  ................
 2720 00000000 00000000 00000000 00000000  ................
 2730 00000000 00000000 00000000 00000000  ................
 2740 00000000 00000000 00000000 00000000  ................
 2750 00000000 00000000 00000000 00000000  ................
 2760 00000000 00000000 00000000 00000000  ................
 2770 00000000 00000000 00000000 00000000  ................
 2780 00000000 00000000 00000000 00000000  ................
 2790 00000000 00000000 00000000 00000000  ................
 27a0 00000000 00000000 00000000 00000000  ................
 27b0 00000000 00000000 00000000 00000000  ................
 27c0 00000000 00000000 00000000 00000000  ................
 27d0 00000000 00000000 00000000 00000000  ................
 27e0 00000000 00000000 00000000 00000000  ................
 27f0 00000000 00000000 00000000 00000000  ................
 2800 00000000 00000000 00000000 00000000  ................
 2810 00000000 00000000 00000000 00000000  ................
 2820 00000000 00000000 00000000 00000000  ................
 2830 00000000 00000000 00000000 00000000  ................
 2840 00000000 00000000 00000000 00000000  ................
 2850 00000000 00000000 00000000 00000000  ................
 2860 00000000 00000000 00000000 00000000  ................
 2870 00000000 00000000 00000000 00000000  ................
 2880 00000000 00000000 00000000 00000000  ................
 2890 00000000 00000000 00000000 00000000  ................
 28a0 00000000 00000000 00000000 00000000  ................
 28b0 00000000 00000000 00000000 00000000  ................
 28c0 00000000 00000000 00000000 00000000  ................
 28d0 00000000 00000000 00000000 00000000  ................
 28e0 00000000 00000000 00000000 00000000  ................
 28f0 00000000 00000000 00000000 00000000  ................
 2900 00000000 00000000 00000000 00000000  ................
 2910 00000000 00000000 00000000 00000000  ................
 2920 00000000 00000000 00000000 00000000  ................
 2930 00000000 00000000 00000000 00000000  ................
 2940 00000000 00000000 00000000 00000000  ................
 2950 00000000 00000000 00000000 00000000  ................
 2960 00000000 00000000 00000000 00000000  ................
 2970 00000000 00000000 00000000 00000000  ................
 2980 00000000 00000000 00000000 00000000  ................
 2990 00000000 00000000 00000000 00000000  ................
 29a0 00000000 00000000 00000000 00000000  ................
 29b0 00000000 00000000 00000000 00000000  ................
 29c0 00000000 00000000 00000000 00000000  ................
 29d0 00000000 00000000 00000000 00000000  ................
 29e0 00000000 00000000 00000000 00000000  ................
 29f0 00000000 00000000 00000000 00000000  ................
 2a00 00000000 00000000 00000000 00000000  ................
 2a10 00000000 00000000 00000000 00000000  ................
 2a20 00000000 00000000 00000000 00000000  ................
 2a30 00000000 00000000 00000000 00000000  ................
 2a40 00000000 00000000 00000000 00000000  ................
 2a50 00000000 00000000 00000000 00000000  ................
 2a60 00000000 00000000 00000000 00000000  ................
 2a70 00000000 00000000 00000000 00000000  ................
 2a80 00000000 00000000 00000000 00000000  ................
 2a90 00000000 00000000 00000000 00000000  ................
 2aa0 00000000 00000000 00000000 00000000  ................
 2ab0 00000000 00000000 00000000 00000000  ................
 2ac0 00000000 00000000 00000000 00000000  ................
 2ad0 00000000 00000000 00000000 00000000  ................
 2ae0 00000000 00000000 00000000 00000000  ................
 2af0 00000000 00000000 00000000 00000000  ................
 2b00 00000000 00000000 00000000 00000000  ................
 2b10 00000000 00000000 00000000 00000000  ................
 2b20 00000000 00000000 00000000 00000000  ................
 2b30 00000000 00000000 00000000 00000000  ................
 2b40 00000000 00000000 00000000 00000000  ................
 2b50 00000000 00000000 00000000 00000000  ................
 2b60 00000000 00000000 00000000 00000000  ................
 2b70 00000000 00000000 00000000 00000000  ................
 2b80 00000000 00000000 00000000 00000000  ................
 2b90 00000000 00000000 00000000 00000000  ................
 2ba0 00000000 00000000 00000000 00000000  ................
 2bb0 00000000 00000000 00000000 00000000  ................
 2bc0 00000000 00000000 00000000 00000000  ................
 2bd0 00000000 00000000 00000000 00000000  ................
 2be0 00000000 00000000 00000000 00000000  ................
 2bf0 00000000 00000000 00000000 00000000  ................
 2c00 00000000 00000000 00000000 00000000  ................
 2c10 00000000 00000000 00000000 00000000  ................
 2c20 00000000 00000000 00000000 00000000  ................
 2c30 00000000 00000000 00000000 00000000  ................
 2c40 00000000 00000000 00000000 00000000  ................
 2c50 00000000 00000000 00000000 00000000  ................
 2c60 00000000 00000000 00000000 00000000  ................
 2c70 00000000 00000000 00000000 00000000  ................
 2c80 00000000 00000000 00000000 00000000  ................
 2c90 00000000 00000000 00000000 00000000  ................
 2ca0 00000000 00000000 00000000 00000000  ................
 2cb0 00000000 00000000 00000000 00000000  ................
 2cc0 00000000 00000000 00000000 00000000  ................
 2cd0 00000000 00000000 00000000 00000000  ................
 2ce0 00000000 00000000 00000000 00000000  ................
 2cf0 00000000 00000000 00000000 00000000  ................
 2d00 00000000 00000000 00000000 00000000  ................
 2d10 00000000 00000000 00000000 00000000  ................
 2d20 00000000 00000000 00000000 00000000  ................
 2d30 00000000 00000000 00000000 00000000  ................
 2d40 00000000 00000000 00000000 00000000  ................
 2d50 00000000 00000000 00000000 00000000  ................
 2d60 00000000 00000000 00000000 00000000  ................
 2d70 00000000 00000000 00000000 00000000  ................
 2d80 00000000 00000000 00000000 00000000  ................
 2d90 00000000 00000000 00000000 00000000  ................
 2da0 00000000 00000000 00000000 00000000  ................
 2db0 00000000 00000000 00000000 00000000  ................
 2dc0 00000000 00000000 00000000 00000000  ................
 2dd0 00000000 00000000 00000000 00000000  ................
 2de0 00000000 00000000 00000000 00000000  ................
 2df0 00000000 00000000 00000000 00000000  ................
 2e00 00000000 00000000 00000000 00000000  ................
 2e10 00000000 00000000 00000000 00000000  ................
 2e20 00000000 00000000 00000000 00000000  ................
 2e30 00000000 00000000 00000000 00000000  ................
 2e40 00000000 00000000 00000000 00000000  ................
 2e50 00000000 00000000 00000000 00000000  ................
 2e60 00000000 00000000 00000000 00000000  ................
 2e70 00000000 00000000 00000000 00000000  ................
 2e80 00000000 00000000 00000000 00000000  ................
 2e90 00000000 00000000 00000000 00000000  ................
 2ea0 00000000 00000000 00000000 00000000  ................
 2eb0 00000000 00000000 00000000 00000000  ................
 2ec0 00000000 00000000 00000000 00000000  ................
 2ed0 00000000 00000000 00000000 00000000  ................
 2ee0 00000000 00000000 00000000 00000000  ................
 2ef0 00000000 00000000 00000000 00000000  ................
 2f00 00000000 00000000 00000000 00000000  ................
 2f10 00000000 00000000 00000000 00000000  ................
 2f20 00000000 00000000 00000000 00000000  ................
 2f30 00000000 00000000 00000000 00000000  ................
 2f40 00000000 00000000 00000000 00000000  ................
 2f50 00000000 00000000 00000000 00000000  ................
 2f60 00000000 00000000 00000000 00000000  ................
 2f70 00000000 00000000 00000000 00000000  ................
 2f80 00000000 00000000 00000000 00000000  ................
 2f90 00000000 00000000 00000000 00000000  ................
 2fa0 00000000 00000000 00000000 00000000  ................
 2fb0 00000000 00000000 00000000 00000000  ................
 2fc0 00000000 00000000 00000000 00000000  ................
 2fd0 00000000 00000000 00000000 00000000  ................
 2fe0 00000000 00000000 00000000 00000000  ................
 2ff0 00000000 00000000 00000000 00000000  ................
 3000 81b2d4e7 09a35c6f efbeadde efbeadde  ......\o........
 3010 efbeadde efbeadde efbeadde efbeadde  ................
 3020 efbeadde efbeadde efbeadde efbeadde  ................
 3030 efbeadde efbeadde efbeadde efbeadde  ................
 3040 efbeadde efbeadde efbeadde efbeadde  ................
 3050 efbeadde efbeadde efbeadde efbeadde  ................
 3060 efbeadde efbeadde efbeadde efbeadde  ................
 3070 efbeadde efbeadde efbeadde efbeadde  ................
 3080 efbeadde efbeadde efbeadde efbeadde  ................
 3090 efbeadde efbeadde efbeadde efbeadde  ................
 30a0 efbeadde efbeadde efbeadde efbeadde  ................
 30b0 efbeadde efbeadde efbeadde efbeadde  ................
 30c0 efbeadde efbeadde efbeadde efbeadde  ................
 30d0 efbeadde efbeadde efbeadde efbeadde  ................
 30e0 efbeadde efbeadde efbeadde efbeadde  ................
 30f0 efbeadde efbeadde efbeadde efbeadde  ................
 3100 efbeadde efbeadde 81b2d4e7 09a35c6f  ..............\o
 3110 4743433a 20285562 756e7475 2031312e  GCC: (Ubuntu 11.
 3120 322e302d 31367562 756e7475 31292031  2.0-16ubuntu1) 1
 3130 312e322e 3000412d 00000072 69736376  1.2.0.A-...riscv
 3140 00012300 00000572 76363469 3270305f  ..#....rv64i2p0_
 3150 6d327030 5f613270 305f6632 70305f64  m2p0_a2p0_f2p0_d
 3160 32703000 00000000 00000000 00000000  2p0.............
 3170 00000000 00000000 00000000 00000000  ................
 3180 00000000 03000100 00000080 00000000  ................
 3190 00000000 00000000 00000000 03000200  ................
 31a0 e00c0080 00000000 00000000 00000000  ................
 31b0 00000000 03000300 00100080 00000000  ................
 31c0 00000000 00000000 00000000 03000400  ................
 31d0 00000000 00000000 00000000 00000000  ................
 31e0 00000000 03000500 00000000 00000000  ................
 31f0 00000000 00000000 01000000 0400f1ff  ................
 3200 00000000 00000000 00000000 00000000  ................
 3210 09000000 00000100 00000080 00000000  ................
 3220 00000000 00000000 0c000000 0400f1ff  ................
 3230 00000000 00000000 00000000 00000000  ................
 3240 09000000 00000100 10000080 00000000  ................
 3250 00000000 00000000 13000000 0400f1ff  ................
 3260 00000000 00000000 00000000 00000000  ................
 3270 22000000 0000f1ff 03000000 00000000  "...............
 3280 00000000 00000000 2c000000 0000f1ff  ........,.......
 3290 01000000 00000000 00000000 00000000  ................
 32a0 36000000 0000f1ff 02000000 00000000  6...............
 32b0 00000000 00000000 09000000 00000100  ................
 32c0 40000080 00000000 00000000 00000000  @...............
 32d0 40000000 0000f1ff d0dad0ba 00000000  @...............
 32e0 00000000 00000000 45000000 0000f1ff  ........E.......
 32f0 04000000 00000000 00000000 00000000  ................
 3300 4b000000 0000f1ff 05000000 00000000  K...............
 3310 00000000 00000000 51000000 0000f1ff  ........Q.......
 3320 00000000 00000000 00000000 00000000  ................
 3330 56000000 0000f1ff 00000000 00000000  V...............
 3340 00000000 00000000 5b000000 0000f1ff  ........[.......
 3350 d0dad0ba 00000000 00000000 00000000  ................
 3360 60000000 0000f1ff 40000000 00000000  `.......@.......
 3370 00000000 00000000 64000000 0000f1ff  ........d.......
 3380 d0dad0ba 00000000 00000000 00000000  ................
 3390 6b000000 0000f1ff 01000000 00000000  k...............
 33a0 00000000 00000000 6f000000 0000f1ff  ........o.......
 33b0 d0faffff ffffffff 00000000 00000000  ................
 33c0 75000000 0000f1ff 01000000 00000000  u...............
 33d0 00000000 00000000 7a000000 0000f1ff  ........z.......
 33e0 00000000 00000000 00000000 00000000  ................
 33f0 7f000000 0000f1ff ad0dad0b 00000000  ................
 3400 00000000 00000000 86000000 0000f1ff  ................
 3410 adfdffff ffffffff 00000000 00000000  ................
 3420 8e000000 0000f1ff 01000000 00000000  ................
 3430 00000000 00000000 94000000 0000f1ff  ................
 3440 ad0dad0b 00000000 00000000 00000000  ................
 3450 9d000000 00000300 08200080 00000000  ......... ......
 3460 00000000 00000000 cf020000 0000f1ff  ................
 3470 50000000 00000000 00000000 00000000  P...............
 3480 ad000000 00000100 40040080 00000000  ........@.......
 3490 00000000 00000000 b4000000 00000300  ................
 34a0 00100080 00000000 00000000 00000000  ................
 34b0 c0000000 00000100 70040080 00000000  ........p.......
 34c0 00000000 00000000 c7000000 00000100  ................
 34d0 b0040080 00000000 00000000 00000000  ................
 34e0 ce000000 00000100 f0040080 00000000  ................
 34f0 00000000 00000000 d5000000 00000100  ................
 3500 30050080 00000000 00000000 00000000  0...............
 3510 dc000000 00000100 70050080 00000000  ........p.......
 3520 00000000 00000000 e3000000 00000100  ................
 3530 b0050080 00000000 00000000 00000000  ................
 3540 ea000000 00000100 f0050080 00000000  ................
 3550 00000000 00000000 f1000000 00000100  ................
 3560 30060080 00000000 00000000 00000000  0...............
 3570 f8000000 00000100 70060080 00000000  ........p.......
 3580 00000000 00000000 ff000000 00000100  ................
 3590 b0060080 00000000 00000000 00000000  ................
 35a0 07010000 00000100 f0060080 00000000  ................
 35b0 00000000 00000000 0f010000 00000100  ................
 35c0 30070080 00000000 00000000 00000000  0...............
 35d0 17010000 00000100 70070080 00000000  ........p.......
 35e0 00000000 00000000 1f010000 00000100  ................
 35f0 b0070080 00000000 00000000 00000000  ................
 3600 27010000 00000100 f0070080 00000000  '...............
 3610 00000000 00000000 2f010000 00000100  ......../.......
 3620 30080080 00000000 00000000 00000000  0...............
 3630 37010000 00000100 70080080 00000000  7.......p.......
 3640 00000000 00000000 3f010000 00000100  ........?.......
 3650 b0080080 00000000 00000000 00000000  ................
 3660 47010000 00000100 f0080080 00000000  G...............
 3670 00000000 00000000 4f010000 00000100  ........O.......
 3680 30090080 00000000 00000000 00000000  0...............
 3690 57010000 00000100 70090080 00000000  W.......p.......
 36a0 00000000 00000000 5f010000 00000300  ........_.......
 36b0 b8200080 00000000 00000000 00000000  . ..............
 36c0 6e010000 00000100 e0090080 00000000  n...............
 36d0 00000000 00000000 76010000 00000100  ........v.......
 36e0 100a0080 00000000 00000000 00000000  ................
 36f0 7e010000 00000100 500a0080 00000000  ~.......P.......
 3700 00000000 00000000 86010000 00000100  ................
 3710 900a0080 00000000 00000000 00000000  ................
 3720 8e010000 00000100 d00a0080 00000000  ................
 3730 00000000 00000000 96010000 00000100  ................
 3740 100b0080 00000000 00000000 00000000  ................
 3750 9e010000 00000100 500b0080 00000000  ........P.......
 3760 00000000 00000000 a6010000 00000100  ................
 3770 900b0080 00000000 00000000 00000000  ................
 3780 ae010000 00000100 d00b0080 00000000  ................
 3790 00000000 00000000 b6010000 00000100  ................
 37a0 100c0080 00000000 00000000 00000000  ................
 37b0 be010000 00000100 880c0080 00000000  ................
 37c0 00000000 00000000 cb010000 00000100  ................
 37d0 540c0080 00000000 00000000 00000000  T...............
 37e0 d7010000 00000300 10100080 00000000  ................
 37f0 00000000 00000000 e4010000 00000300  ................
 3800 00200080 00000000 00000000 00000000  . ..............
 3810 f5010000 00000300 00200080 00000000  ......... ......
 3820 00000000 00000000 06020000 00000300  ................
 3830 08200080 00000000 00000000 00000000  . ..............
 3840 16020000 00000300 08210080 00000000  .........!......
 3850 00000000 00000000 25020000 00000300  ........%.......
 3860 10210080 00000000 00000000 00000000  .!..............
 3870 34020000 0400f1ff 00000000 00000000  4...............
 3880 00000000 00000000 09000000 00000100  ................
 3890 b00c0080 00000000 00000000 00000000  ................
 38a0 09000000 00000100 bc0c0080 00000000  ................
 38b0 00000000 00000000 3a020000 01000200  ........:.......
 38c0 e00c0080 00000000 01000000 00000000  ................
 38d0 43020000 12020100 bc0c0080 00000000  C...............
 38e0 20000000 00000000 4d020000 10000300   .......M.......
 38f0 00b00080 00000000 00000000 00000000  ................
 3900 5c020000 10000300 10210080 00000000  \........!......
 3910 00000000 00000000 6a020000 10000100  ........j.......
 3920 dc0c0080 00000000 00000000 00000000  ................
 3930 71020000 1000f1ff 00000080 00000000  q...............
 3940 00000000 00000000 7d020000 10000300  ........}.......
 3950 10210080 00000000 00000000 00000000  .!..............
 3960 88020000 10000300 10210080 00000000  .........!......
 3970 00000000 00000000 8e020000 10000300  ................
 3980 00b00080 00000000 00000000 00000000  ................
 3990 9a020000 10000300 00300080 00000000  .........0......
 39a0 00000000 00000000 a5020000 10000100  ................
 39b0 40000080 00000000 00000000 00000000  @...............
 39c0 27030000 10000300 00b00080 00000000  '...............
 39d0 00000000 00000000 6b020000 10000100  ........k.......
 39e0 dc0c0080 00000000 00000000 00000000  ................
 39f0 b8020000 10000300 00200080 00000000  ......... ......
 3a00 00000000 00000000 76020000 12000100  ........v.......
 3a10 00000080 00000000 00000000 00000000  ................
 3a20 c8020000 1000f1ff 00000000 00000000  ................
 3a30 00000000 00000000 d6020000 10000100  ................
 3a40 40000080 00000000 00000000 00000000  @...............
 3a50 e2020000 10000100 500c0080 00000000  ........P.......
 3a60 00000000 00000000 f2020000 10000100  ................
 3a70 20040080 00000000 00000000 00000000   ...............
 3a80 04030000 12020100 10000080 00000000  ................
 3a90 14000000 00000000 09030000 10000300  ................
 3aa0 00100080 00000000 00000000 00000000  ................
 3ab0 1b030000 10000300 00200080 00000000  ......... ......
 3ac0 00000000 00000000 ba000000 10000300  ................
 3ad0 10210080 00000000 00000000 00000000  .!..............
 3ae0 2b030000 10000100 500c0080 00000000  +.......P.......
 3af0 00000000 00000000 26030000 10000300  ........&.......
 3b00 00b00080 00000000 00000000 00000000  ................
 3b10 3b030000 12020100 b00c0080 00000000  ;...............
 3b20 0c000000 00000000 00737461 72742e6f  .........start.o
 3b30 00247800 6d61696e 2e63006c 77752d61  .$x.main.c.lwu-a
 3b40 6c69676e 2d30312e 6f004d4d 4f44455f  lign-01.o.MMODE_
 3b50 53494700 534d4f44 455f5349 4700564d  SIG.SMODE_SIG.VM
 3b60 4f44455f 53494700 696d6d78 00656467  ODE_SIG.immx.edg
 3b70 65310065 64676532 00666e64 3100666e  e1.edge2.fnd1.fn
 3b80 64320069 6d6d6500 706f7300 61627369  d2.imme.pos.absi
 3b90 6d6d0063 72790069 6d6d3132 00657665  mm.cry.imm12.eve
 3ba0 6e006372 79680069 6d6d7873 6800696d  n.cryh.immxsh.im
 3bb0 6d313273 68006372 79736800 61627369  m12sh.crysh.absi
 3bc0 6d6d7368 00736967 6e617475 72655f78  mmsh.signature_x
 3bd0 31345f31 00696e73 745f3000 72767465  14_1.inst_0.rvte
 3be0 73745f64 61746100 696e7374 5f310069  st_data.inst_1.i
 3bf0 6e73745f 3200696e 73745f33 00696e73  nst_2.inst_3.ins
 3c00 745f3400 696e7374 5f350069 6e73745f  t_4.inst_5.inst_
 3c10 3600696e 73745f37 00696e73 745f3800  6.inst_7.inst_8.
 3c20 696e7374 5f390069 6e73745f 31300069  inst_9.inst_10.i
 3c30 6e73745f 31310069 6e73745f 31320069  nst_11.inst_12.i
 3c40 6e73745f 31330069 6e73745f 31340069  nst_13.inst_14.i
 3c50 6e73745f 31350069 6e73745f 31360069  nst_15.inst_16.i
 3c60 6e73745f 31370069 6e73745f 31380069  nst_17.inst_18.i
 3c70 6e73745f 31390069 6e73745f 32300069  nst_19.inst_20.i
 3c80 6e73745f 32310073 69676e61 74757265  nst_21.signature
 3c90 5f78325f 3000696e 73745f32 3200696e  _x2_0.inst_22.in
 3ca0 73745f32 3300696e 73745f32 3400696e  st_23.inst_24.in
 3cb0 73745f32 3500696e 73745f32 3600696e  st_25.inst_26.in
 3cc0 73745f32 3700696e 73745f32 3800696e  st_27.inst_28.in
 3cd0 73745f32 3900696e 73745f33 3000696e  st_29.inst_30.in
 3ce0 73745f33 31006578 69745f63 6c65616e  st_31.exit_clean
 3cf0 75700061 626f7274 5f746573 7473006d  up.abort_tests.m
 3d00 74726170 5f736967 70747200 72767465  trap_sigptr.rvte
 3d10 73745f73 69675f62 6567696e 00736967  st_sig_begin.sig
 3d20 5f626567 696e5f63 616e6172 79007369  _begin_canary.si
 3d30 676e6174 7572655f 7831345f 30007369  gnature_x14_0.si
 3d40 675f656e 645f6361 6e617279 00727674  g_end_canary.rvt
 3d50 6573745f 7369675f 656e6400 74726d2e  est_sig_end.trm.
 3d60 63006d61 696e6172 6773005f 74726d5f  c.mainargs._trm_
 3d70 696e6974 005f7374 61636b5f 706f696e  init._stack_poin
 3d80 74657200 656e645f 7369676e 61747572  ter.end_signatur
 3d90 65005f65 74657874 005f706d 656d5f73  e._etext._pmem_s
 3da0 74617274 005f6273 735f7374 61727400  tart._bss_start.
 3db0 65646174 61005f68 6561705f 73746172  edata._heap_star
 3dc0 74005f73 7461636b 5f746f70 00727674  t._stack_top.rvt
 3dd0 6573745f 656e7472 795f706f 696e7400  est_entry_point.
 3de0 62656769 6e5f7369 676e6174 75726500  begin_signature.
 3df0 5f656e74 72795f6f 66667365 74007276  _entry_offset.rv
 3e00 74657374 5f696e69 74007276 74657374  test_init.rvtest
 3e10 5f636f64 655f656e 64007276 74657374  _code_end.rvtest
 3e20 5f636f64 655f6265 67696e00 6d61696e  _code_begin.main
 3e30 00727674 6573745f 64617461 5f626567  .rvtest_data_beg
 3e40 696e0072 76746573 745f6461 74615f65  in.rvtest_data_e
 3e50 6e640063 6c65616e 75705f65 70696c6f  nd.cleanup_epilo
 3e60 67730068 616c7400 002e7379 6d746162  gs.halt...symtab
 3e70 002e7374 72746162 002e7368 73747274  ..strtab..shstrt
 3e80 6162002e 74657874 002e7372 6f646174  ab..text..srodat
 3e90 612e6d61 696e6172 6773002e 64617461  a.mainargs..data
 3ea0 002e636f 6d6d656e 74002e72 69736376  ..comment..riscv
 3eb0 2e617474 72696275 74657300 00000000  .attributes.....
 3ec0 00000000 00000000 00000000 00000000  ................
 3ed0 00000000 00000000 00000000 00000000  ................
 3ee0 00000000 00000000 00000000 00000000  ................
 3ef0 00000000 00000000 00000000 00000000  ................
 3f00 1b000000 01000000 06000000 00000000  ................
 3f10 00000080 00000000 00100000 00000000  ................
 3f20 dc0c0000 00000000 00000000 00000000  ................
 3f30 20000000 00000000 00000000 00000000   ...............
 3f40 21000000 01000000 02000000 00000000  !...............
 3f50 e00c0080 00000000 e01c0000 00000000  ................
 3f60 01000000 00000000 00000000 00000000  ................
 3f70 08000000 00000000 00000000 00000000  ................
 3f80 33000000 01000000 03000000 00000000  3...............
 3f90 00100080 00000000 00200000 00000000  ......... ......
 3fa0 10110000 00000000 00000000 00000000  ................
 3fb0 00100000 00000000 00000000 00000000  ................
 3fc0 39000000 01000000 30000000 00000000  9.......0.......
 3fd0 00000000 00000000 10310000 00000000  .........1......
 3fe0 26000000 00000000 00000000 00000000  &...............
 3ff0 01000000 00000000 01000000 00000000  ................
 4000 42000000 03000070 00000000 00000000  B......p........
 4010 00000000 00000000 36310000 00000000  ........61......
 4020 2e000000 00000000 00000000 00000000  ................
 4030 01000000 00000000 00000000 00000000  ................
 4040 01000000 02000000 00000000 00000000  ................
 4050 00000000 00000000 68310000 00000000  ........h1......
 4060 c0090000 00000000 07000000 4f000000  ............O...
 4070 08000000 00000000 18000000 00000000  ................
 4080 09000000 03000000 00000000 00000000  ................
 4090 00000000 00000000 283b0000 00000000  ........(;......
 40a0 40030000 00000000 00000000 00000000  @...............
 40b0 01000000 00000000 00000000 00000000  ................
 40c0 11000000 03000000 00000000 00000000  ................
 40d0 00000000 00000000 683e0000 00000000  ........h>......
 40e0 54000000 00000000 00000000 00000000  T...............
 40f0 01000000 00000000 00000000 00000000  ................

Disassembly of section .data:

0000000000001000 <.data+0x1000>:
    1000:	00000413          	addi	x8,x0,0
    1004:	0000b117          	auipc	x2,0xb
    1008:	ffc10113          	addi	x2,x2,-4 # 0xc000
    100c:	4b1000ef          	jal	x1,0x1cbc
    1010:	030000ef          	jal	x1,0x1040
    1014:	00100513          	addi	x10,x0,1
    1018:	499000ef          	jal	x1,0x1cb0
    101c:	00000513          	addi	x10,x0,0
    1020:	00008067          	jalr	x0,0(x1)
	...
    1040:	feedc0b7          	lui	x1,0xfeedc
    1044:	ead08093          	addi	x1,x1,-339 # 0xfffffffffeedbead
    1048:	00b09093          	slli	x1,x1,0xb
    104c:	7f708093          	addi	x1,x1,2039
    1050:	00b09093          	slli	x1,x1,0xb
    1054:	36f08093          	addi	x1,x1,879
    1058:	00a09093          	slli	x1,x1,0xa
    105c:	2ad08093          	addi	x1,x1,685
    1060:	ff76e137          	lui	x2,0xff76e
    1064:	f5610113          	addi	x2,x2,-170 # 0xffffffffff76df56
    1068:	00b11113          	slli	x2,x2,0xb
    106c:	7fb10113          	addi	x2,x2,2043
    1070:	00b11113          	slli	x2,x2,0xb
    1074:	5b710113          	addi	x2,x2,1463
    1078:	00a11113          	slli	x2,x2,0xa
    107c:	35610113          	addi	x2,x2,854
    1080:	7fbb71b7          	lui	x3,0x7fbb7
    1084:	fab18193          	addi	x3,x3,-85 # 0x7fbb6fab
    1088:	00b19193          	slli	x3,x3,0xb
    108c:	3fd18193          	addi	x3,x3,1021
    1090:	00b19193          	slli	x3,x3,0xb
    1094:	6db18193          	addi	x3,x3,1755
    1098:	00a19193          	slli	x3,x3,0xa
    109c:	3ab18193          	addi	x3,x3,939
    10a0:	bfddb237          	lui	x4,0xbfddb
    10a4:	7d520213          	addi	x4,x4,2005 # 0xffffffffbfddb7d5
    10a8:	00b21213          	slli	x4,x4,0xb
    10ac:	5fe20213          	addi	x4,x4,1534 # 0x5fe
    10b0:	00b21213          	slli	x4,x4,0xb
    10b4:	76d20213          	addi	x4,x4,1901 # 0x76d
    10b8:	00a21213          	slli	x4,x4,0xa
    10bc:	3d520213          	addi	x4,x4,981 # 0x3d5
    10c0:	dfeee2b7          	lui	x5,0xdfeee
    10c4:	bea28293          	addi	x5,x5,-1046 # 0xffffffffdfeedbea
    10c8:	00b29293          	slli	x5,x5,0xb
    10cc:	6ff28293          	addi	x5,x5,1791
    10d0:	00b29293          	slli	x5,x5,0xb
    10d4:	3b628293          	addi	x5,x5,950
    10d8:	00a29293          	slli	x5,x5,0xa
    10dc:	3ea28293          	addi	x5,x5,1002
    10e0:	6ff77337          	lui	x6,0x6ff77
    10e4:	df530313          	addi	x6,x6,-523 # 0x6ff76df5
    10e8:	00b31313          	slli	x6,x6,0xb
    10ec:	37f30313          	addi	x6,x6,895
    10f0:	00b31313          	slli	x6,x6,0xb
    10f4:	5db30313          	addi	x6,x6,1499
    10f8:	00a31313          	slli	x6,x6,0xa
    10fc:	1f530313          	addi	x6,x6,501
    1100:	b7fbb3b7          	lui	x7,0xb7fbb
    1104:	6fa38393          	addi	x7,x7,1786 # 0xffffffffb7fbb6fa
    1108:	00b39393          	slli	x7,x7,0xb
    110c:	5bf38393          	addi	x7,x7,1471
    1110:	00b39393          	slli	x7,x7,0xb
    1114:	6ed38393          	addi	x7,x7,1773
    1118:	00a39393          	slli	x7,x7,0xa
    111c:	2fa38393          	addi	x7,x7,762
    1120:	5bfde437          	lui	x8,0x5bfde
    1124:	b7d40413          	addi	x8,x8,-1155 # 0x5bfddb7d
    1128:	00b41413          	slli	x8,x8,0xb
    112c:	2df40413          	addi	x8,x8,735
    1130:	00b41413          	slli	x8,x8,0xb
    1134:	77640413          	addi	x8,x8,1910
    1138:	00a41413          	slli	x8,x8,0xa
    113c:	37d40413          	addi	x8,x8,893
    1140:	adfef4b7          	lui	x9,0xadfef
    1144:	dbe48493          	addi	x9,x9,-578 # 0xffffffffadfeedbe
    1148:	00b49493          	slli	x9,x9,0xb
    114c:	56f48493          	addi	x9,x9,1391
    1150:	00b49493          	slli	x9,x9,0xb
    1154:	7bb48493          	addi	x9,x9,1979
    1158:	00a49493          	slli	x9,x9,0xa
    115c:	1be48493          	addi	x9,x9,446
    1160:	56ff7537          	lui	x10,0x56ff7
    1164:	6df50513          	addi	x10,x10,1759 # 0x56ff76df
    1168:	00b51513          	slli	x10,x10,0xb
    116c:	2b750513          	addi	x10,x10,695
    1170:	00b51513          	slli	x10,x10,0xb
    1174:	7dd50513          	addi	x10,x10,2013
    1178:	00a51513          	slli	x10,x10,0xa
    117c:	2df50513          	addi	x10,x10,735
    1180:	ab7fc5b7          	lui	x11,0xab7fc
    1184:	b6f58593          	addi	x11,x11,-1169 # 0xffffffffab7fbb6f
    1188:	00b59593          	slli	x11,x11,0xb
    118c:	55b58593          	addi	x11,x11,1371
    1190:	00b59593          	slli	x11,x11,0xb
    1194:	7ee58593          	addi	x11,x11,2030
    1198:	00a59593          	slli	x11,x11,0xa
    119c:	36f58593          	addi	x11,x11,879
    11a0:	d5bfe637          	lui	x12,0xd5bfe
    11a4:	db760613          	addi	x12,x12,-585 # 0xffffffffd5bfddb7
    11a8:	00b61613          	slli	x12,x12,0xb
    11ac:	6ad60613          	addi	x12,x12,1709
    11b0:	00b61613          	slli	x12,x12,0xb
    11b4:	7f760613          	addi	x12,x12,2039
    11b8:	00a61613          	slli	x12,x12,0xa
    11bc:	1b760613          	addi	x12,x12,439
    11c0:	eadff6b7          	lui	x13,0xeadff
    11c4:	edb68693          	addi	x13,x13,-293 # 0xffffffffeadfeedb
    11c8:	00b69693          	slli	x13,x13,0xb
    11cc:	75668693          	addi	x13,x13,1878
    11d0:	00b69693          	slli	x13,x13,0xb
    11d4:	7fb68693          	addi	x13,x13,2043
    11d8:	00a69693          	slli	x13,x13,0xa
    11dc:	2db68693          	addi	x13,x13,731
    11e0:	f56ff737          	lui	x14,0xf56ff
    11e4:	76d70713          	addi	x14,x14,1901 # 0xfffffffff56ff76d
    11e8:	00b71713          	slli	x14,x14,0xb
    11ec:	7ab70713          	addi	x14,x14,1963
    11f0:	00b71713          	slli	x14,x14,0xb
    11f4:	3fd70713          	addi	x14,x14,1021
    11f8:	00a71713          	slli	x14,x14,0xa
    11fc:	36d70713          	addi	x14,x14,877
    1200:	fab807b7          	lui	x15,0xfab80
    1204:	bb678793          	addi	x15,x15,-1098 # 0xfffffffffab7fbb6
    1208:	00b79793          	slli	x15,x15,0xb
    120c:	7d578793          	addi	x15,x15,2005
    1210:	00b79793          	slli	x15,x15,0xb
    1214:	5fe78793          	addi	x15,x15,1534
    1218:	00a79793          	slli	x15,x15,0xa
    121c:	3b678793          	addi	x15,x15,950
    1220:	7d5c0837          	lui	x16,0x7d5c0
    1224:	ddb80813          	addi	x16,x16,-549 # 0x7d5bfddb
    1228:	00b81813          	slli	x16,x16,0xb
    122c:	3ea80813          	addi	x16,x16,1002
    1230:	00b81813          	slli	x16,x16,0xb
    1234:	6ff80813          	addi	x16,x16,1791
    1238:	00a81813          	slli	x16,x16,0xa
    123c:	1db80813          	addi	x16,x16,475
    1240:	beae08b7          	lui	x17,0xbeae0
    1244:	eed88893          	addi	x17,x17,-275 # 0xffffffffbeadfeed
    1248:	00b89893          	slli	x17,x17,0xb
    124c:	5f588893          	addi	x17,x17,1525
    1250:	00b89893          	slli	x17,x17,0xb
    1254:	37f88893          	addi	x17,x17,895
    1258:	00a89893          	slli	x17,x17,0xa
    125c:	2ed88893          	addi	x17,x17,749
    1260:	df570937          	lui	x18,0xdf570
    1264:	f7690913          	addi	x18,x18,-138 # 0xffffffffdf56ff76
    1268:	00b91913          	slli	x18,x18,0xb
    126c:	6fa90913          	addi	x18,x18,1786
    1270:	00b91913          	slli	x18,x18,0xb
    1274:	5bf90913          	addi	x18,x18,1471
    1278:	00a91913          	slli	x18,x18,0xa
    127c:	37690913          	addi	x18,x18,886
    1280:	6fab89b7          	lui	x19,0x6fab8
    1284:	fbb98993          	addi	x19,x19,-69 # 0x6fab7fbb
    1288:	00b99993          	slli	x19,x19,0xb
    128c:	37d98993          	addi	x19,x19,893
    1290:	00b99993          	slli	x19,x19,0xb
    1294:	2df98993          	addi	x19,x19,735
    1298:	00a99993          	slli	x19,x19,0xa
    129c:	3bb98993          	addi	x19,x19,955
    12a0:	b7d5ca37          	lui	x20,0xb7d5c
    12a4:	fdda0a13          	addi	x20,x20,-35 # 0xffffffffb7d5bfdd
    12a8:	00ba1a13          	slli	x20,x20,0xb
    12ac:	5bea0a13          	addi	x20,x20,1470
    12b0:	00ba1a13          	slli	x20,x20,0xb
    12b4:	56fa0a13          	addi	x20,x20,1391
    12b8:	00aa1a13          	slli	x20,x20,0xa
    12bc:	3dda0a13          	addi	x20,x20,989
    12c0:	dbeaeab7          	lui	x21,0xdbeae
    12c4:	feea8a93          	addi	x21,x21,-18 # 0xffffffffdbeadfee
    12c8:	00ba9a93          	slli	x21,x21,0xb
    12cc:	6dfa8a93          	addi	x21,x21,1759
    12d0:	00ba9a93          	slli	x21,x21,0xb
    12d4:	2b7a8a93          	addi	x21,x21,695
    12d8:	00aa9a93          	slli	x21,x21,0xa
    12dc:	3eea8a93          	addi	x21,x21,1006
    12e0:	6df57b37          	lui	x22,0x6df57
    12e4:	ff7b0b13          	addi	x22,x22,-9 # 0x6df56ff7
    12e8:	00bb1b13          	slli	x22,x22,0xb
    12ec:	36fb0b13          	addi	x22,x22,879
    12f0:	00bb1b13          	slli	x22,x22,0xb
    12f4:	55bb0b13          	addi	x22,x22,1371
    12f8:	00ab1b13          	slli	x22,x22,0xa
    12fc:	3f7b0b13          	addi	x22,x22,1015
    1300:	b6fabbb7          	lui	x23,0xb6fab
    1304:	7fbb8b93          	addi	x23,x23,2043 # 0xffffffffb6fab7fb
    1308:	00bb9b93          	slli	x23,x23,0xb
    130c:	5b7b8b93          	addi	x23,x23,1463
    1310:	00bb9b93          	slli	x23,x23,0xb
    1314:	6adb8b93          	addi	x23,x23,1709
    1318:	00ab9b93          	slli	x23,x23,0xa
    131c:	3fbb8b93          	addi	x23,x23,1019
    1320:	db7d6c37          	lui	x24,0xdb7d6
    1324:	bfdc0c13          	addi	x24,x24,-1027 # 0xffffffffdb7d5bfd
    1328:	00bc1c13          	slli	x24,x24,0xb
    132c:	6dbc0c13          	addi	x24,x24,1755
    1330:	00bc1c13          	slli	x24,x24,0xb
    1334:	756c0c13          	addi	x24,x24,1878
    1338:	00ac1c13          	slli	x24,x24,0xa
    133c:	3fdc0c13          	addi	x24,x24,1021
    1340:	edbebcb7          	lui	x25,0xedbeb
    1344:	dfec8c93          	addi	x25,x25,-514 # 0xffffffffedbeadfe
    1348:	00bc9c93          	slli	x25,x25,0xb
    134c:	76dc8c93          	addi	x25,x25,1901
    1350:	00bc9c93          	slli	x25,x25,0xb
    1354:	7abc8c93          	addi	x25,x25,1963
    1358:	00ac9c93          	slli	x25,x25,0xa
    135c:	1fec8c93          	addi	x25,x25,510
    1360:	76df5d37          	lui	x26,0x76df5
    1364:	6ffd0d13          	addi	x26,x26,1791 # 0x76df56ff
    1368:	00bd1d13          	slli	x26,x26,0xb
    136c:	3b6d0d13          	addi	x26,x26,950
    1370:	00bd1d13          	slli	x26,x26,0xb
    1374:	7d5d0d13          	addi	x26,x26,2005
    1378:	00ad1d13          	slli	x26,x26,0xa
    137c:	2ffd0d13          	addi	x26,x26,767
    1380:	bb6fbdb7          	lui	x27,0xbb6fb
    1384:	b7fd8d93          	addi	x27,x27,-1153 # 0xffffffffbb6fab7f
    1388:	00bd9d93          	slli	x27,x27,0xb
    138c:	5dbd8d93          	addi	x27,x27,1499
    1390:	00bd9d93          	slli	x27,x27,0xb
    1394:	3ead8d93          	addi	x27,x27,1002
    1398:	00ad9d93          	slli	x27,x27,0xa
    139c:	37fd8d93          	addi	x27,x27,895
    13a0:	ddb7de37          	lui	x28,0xddb7d
    13a4:	5bfe0e13          	addi	x28,x28,1471 # 0xffffffffddb7d5bf
    13a8:	00be1e13          	slli	x28,x28,0xb
    13ac:	6ede0e13          	addi	x28,x28,1773
    13b0:	00be1e13          	slli	x28,x28,0xb
    13b4:	5f5e0e13          	addi	x28,x28,1525
    13b8:	00ae1e13          	slli	x28,x28,0xa
    13bc:	1bfe0e13          	addi	x28,x28,447
    13c0:	eedbfeb7          	lui	x29,0xeedbf
    13c4:	adfe8e93          	addi	x29,x29,-1313 # 0xffffffffeedbeadf
    13c8:	00be9e93          	slli	x29,x29,0xb
    13cc:	776e8e93          	addi	x29,x29,1910
    13d0:	00be9e93          	slli	x29,x29,0xb
    13d4:	6fae8e93          	addi	x29,x29,1786
    13d8:	00ae9e93          	slli	x29,x29,0xa
    13dc:	2dfe8e93          	addi	x29,x29,735
    13e0:	f76dff37          	lui	x30,0xf76df
    13e4:	56ff0f13          	addi	x30,x30,1391 # 0xfffffffff76df56f
    13e8:	00bf1f13          	slli	x30,x30,0xb
    13ec:	7bbf0f13          	addi	x30,x30,1979
    13f0:	00bf1f13          	slli	x30,x30,0xb
    13f4:	37df0f13          	addi	x30,x30,893
    13f8:	00af1f13          	slli	x30,x30,0xa
    13fc:	16ff0f13          	addi	x30,x30,367
    1400:	fbb70fb7          	lui	x31,0xfbb70
    1404:	ab7f8f93          	addi	x31,x31,-1353 # 0xfffffffffbb6fab7
    1408:	00bf9f93          	slli	x31,x31,0xb
    140c:	7ddf8f93          	addi	x31,x31,2013
    1410:	00bf9f93          	slli	x31,x31,0xb
    1414:	5bef8f93          	addi	x31,x31,1470
    1418:	00af9f93          	slli	x31,x31,0xa
    141c:	2b7f8f93          	addi	x31,x31,695
    1420:	00002717          	auipc	x14,0x2
    1424:	be870713          	addi	x14,x14,-1048 # 0x3008
    1428:	00000013          	addi	x0,x0,0
    142c:	00000013          	addi	x0,x0,0
    1430:	00000013          	addi	x0,x0,0
    1434:	00000013          	addi	x0,x0,0
    1438:	00000013          	addi	x0,x0,0
    143c:	00000013          	addi	x0,x0,0
    1440:	00001d17          	auipc	x26,0x1
    1444:	9c0d0d13          	addi	x26,x26,-1600 # 0x1e00
    1448:	00000013          	addi	x0,x0,0
    144c:	00000013          	addi	x0,x0,0
    1450:	00000013          	addi	x0,x0,0
    1454:	00000013          	addi	x0,x0,0
    1458:	00000013          	addi	x0,x0,0
    145c:	00000013          	addi	x0,x0,0
    1460:	200d6d03          	lwu	x26,512(x26)
    1464:	00000013          	addi	x0,x0,0
    1468:	00000013          	addi	x0,x0,0
    146c:	01a73023          	sd	x26,0(x14)
    1470:	00000013          	addi	x0,x0,0
    1474:	00000013          	addi	x0,x0,0
    1478:	00000013          	addi	x0,x0,0
    147c:	00000013          	addi	x0,x0,0
    1480:	00001897          	auipc	x17,0x1
    1484:	b8788893          	addi	x17,x17,-1145 # 0x2007
    1488:	00000013          	addi	x0,x0,0
    148c:	00000013          	addi	x0,x0,0
    1490:	00000013          	addi	x0,x0,0
    1494:	00000013          	addi	x0,x0,0
    1498:	00000013          	addi	x0,x0,0
    149c:	00000013          	addi	x0,x0,0
    14a0:	ff98ee83          	lwu	x29,-7(x17)
    14a4:	00000013          	addi	x0,x0,0
    14a8:	00000013          	addi	x0,x0,0
    14ac:	01d73423          	sd	x29,8(x14)
    14b0:	00000013          	addi	x0,x0,0
    14b4:	00000013          	addi	x0,x0,0
    14b8:	00000013          	addi	x0,x0,0
    14bc:	00000013          	addi	x0,x0,0
    14c0:	00001697          	auipc	x13,0x1
    14c4:	b4268693          	addi	x13,x13,-1214 # 0x2002
    14c8:	00000013          	addi	x0,x0,0
    14cc:	00000013          	addi	x0,x0,0
    14d0:	00000013          	addi	x0,x0,0
    14d4:	00000013          	addi	x0,x0,0
    14d8:	00000013          	addi	x0,x0,0
    14dc:	00000013          	addi	x0,x0,0
    14e0:	ffe6e303          	lwu	x6,-2(x13)
    14e4:	00000013          	addi	x0,x0,0
    14e8:	00000013          	addi	x0,x0,0
    14ec:	00673823          	sd	x6,16(x14)
    14f0:	00000013          	addi	x0,x0,0
    14f4:	00000013          	addi	x0,x0,0
    14f8:	00000013          	addi	x0,x0,0
    14fc:	00000013          	addi	x0,x0,0
    1500:	00001597          	auipc	x11,0x1
    1504:	b2158593          	addi	x11,x11,-1247 # 0x2021
    1508:	00000013          	addi	x0,x0,0
    150c:	00000013          	addi	x0,x0,0
    1510:	00000013          	addi	x0,x0,0
    1514:	00000013          	addi	x0,x0,0
    1518:	00000013          	addi	x0,x0,0
    151c:	00000013          	addi	x0,x0,0
    1520:	fdf5ea83          	lwu	x21,-33(x11)
    1524:	00000013          	addi	x0,x0,0
    1528:	00000013          	addi	x0,x0,0
    152c:	01573c23          	sd	x21,24(x14)
    1530:	00000013          	addi	x0,x0,0
    1534:	00000013          	addi	x0,x0,0
    1538:	00000013          	addi	x0,x0,0
    153c:	00000013          	addi	x0,x0,0
    1540:	00001397          	auipc	x7,0x1
    1544:	ac038393          	addi	x7,x7,-1344 # 0x2000
    1548:	00000013          	addi	x0,x0,0
    154c:	00000013          	addi	x0,x0,0
    1550:	00000013          	addi	x0,x0,0
    1554:	00000013          	addi	x0,x0,0
    1558:	00000013          	addi	x0,x0,0
    155c:	00000013          	addi	x0,x0,0
    1560:	0003e403          	lwu	x8,0(x7)
    1564:	00000013          	addi	x0,x0,0
    1568:	00000013          	addi	x0,x0,0
    156c:	02873023          	sd	x8,32(x14)
    1570:	00000013          	addi	x0,x0,0
    1574:	00000013          	addi	x0,x0,0
    1578:	00000013          	addi	x0,x0,0
    157c:	00000013          	addi	x0,x0,0
    1580:	00001f17          	auipc	x30,0x1
    1584:	280f0f13          	addi	x30,x30,640 # 0x2800
    1588:	00000013          	addi	x0,x0,0
    158c:	00000013          	addi	x0,x0,0
    1590:	00000013          	addi	x0,x0,0
    1594:	00000013          	addi	x0,x0,0
    1598:	00000013          	addi	x0,x0,0
    159c:	00000013          	addi	x0,x0,0
    15a0:	800f6203          	lwu	x4,-2048(x30)
    15a4:	00000013          	addi	x0,x0,0
    15a8:	00000013          	addi	x0,x0,0
    15ac:	02473423          	sd	x4,40(x14)
    15b0:	00000013          	addi	x0,x0,0
    15b4:	00000013          	addi	x0,x0,0
    15b8:	00000013          	addi	x0,x0,0
    15bc:	00000013          	addi	x0,x0,0
    15c0:	00001097          	auipc	x1,0x1
    15c4:	24008093          	addi	x1,x1,576 # 0x2800
    15c8:	00000013          	addi	x0,x0,0
    15cc:	00000013          	addi	x0,x0,0
    15d0:	00000013          	addi	x0,x0,0
    15d4:	00000013          	addi	x0,x0,0
    15d8:	00000013          	addi	x0,x0,0
    15dc:	00000013          	addi	x0,x0,0
    15e0:	8000e003          	lwu	x0,-2048(x1)
    15e4:	00000013          	addi	x0,x0,0
    15e8:	00000013          	addi	x0,x0,0
    15ec:	02073823          	sd	x0,48(x14)
    15f0:	00000013          	addi	x0,x0,0
    15f4:	00000013          	addi	x0,x0,0
    15f8:	00000013          	addi	x0,x0,0
    15fc:	00000013          	addi	x0,x0,0
    1600:	00001b17          	auipc	x22,0x1
    1604:	200b0b13          	addi	x22,x22,512 # 0x2800
    1608:	00000013          	addi	x0,x0,0
    160c:	00000013          	addi	x0,x0,0
    1610:	00000013          	addi	x0,x0,0
    1614:	00000013          	addi	x0,x0,0
    1618:	00000013          	addi	x0,x0,0
    161c:	00000013          	addi	x0,x0,0
    1620:	800b6a03          	lwu	x20,-2048(x22)
    1624:	00000013          	addi	x0,x0,0
    1628:	00000013          	addi	x0,x0,0
    162c:	03473c23          	sd	x20,56(x14)
    1630:	00000013          	addi	x0,x0,0
    1634:	00000013          	addi	x0,x0,0
    1638:	00000013          	addi	x0,x0,0
    163c:	00000013          	addi	x0,x0,0
    1640:	00001497          	auipc	x9,0x1
    1644:	1c048493          	addi	x9,x9,448 # 0x2800
    1648:	00000013          	addi	x0,x0,0
    164c:	00000013          	addi	x0,x0,0
    1650:	00000013          	addi	x0,x0,0
    1654:	00000013          	addi	x0,x0,0
    1658:	00000013          	addi	x0,x0,0
    165c:	00000013          	addi	x0,x0,0
    1660:	8004e103          	lwu	x2,-2048(x9)
    1664:	00000013          	addi	x0,x0,0
    1668:	00000013          	addi	x0,x0,0
    166c:	04273023          	sd	x2,64(x14)
    1670:	00000013          	addi	x0,x0,0
    1674:	00000013          	addi	x0,x0,0
    1678:	00000013          	addi	x0,x0,0
    167c:	00000013          	addi	x0,x0,0
    1680:	00001e17          	auipc	x28,0x1
    1684:	180e0e13          	addi	x28,x28,384 # 0x2800
    1688:	00000013          	addi	x0,x0,0
    168c:	00000013          	addi	x0,x0,0
    1690:	00000013          	addi	x0,x0,0
    1694:	00000013          	addi	x0,x0,0
    1698:	00000013          	addi	x0,x0,0
    169c:	00000013          	addi	x0,x0,0
    16a0:	800e6b83          	lwu	x23,-2048(x28)
    16a4:	00000013          	addi	x0,x0,0
    16a8:	00000013          	addi	x0,x0,0
    16ac:	05773423          	sd	x23,72(x14)
    16b0:	00000013          	addi	x0,x0,0
    16b4:	00000013          	addi	x0,x0,0
    16b8:	00000013          	addi	x0,x0,0
    16bc:	00000013          	addi	x0,x0,0
    16c0:	00001c17          	auipc	x24,0x1
    16c4:	140c0c13          	addi	x24,x24,320 # 0x2800
    16c8:	00000013          	addi	x0,x0,0
    16cc:	00000013          	addi	x0,x0,0
    16d0:	00000013          	addi	x0,x0,0
    16d4:	00000013          	addi	x0,x0,0
    16d8:	00000013          	addi	x0,x0,0
    16dc:	00000013          	addi	x0,x0,0
    16e0:	800c6583          	lwu	x11,-2048(x24)
    16e4:	00000013          	addi	x0,x0,0
    16e8:	00000013          	addi	x0,x0,0
    16ec:	04b73823          	sd	x11,80(x14)
    16f0:	00000013          	addi	x0,x0,0
    16f4:	00000013          	addi	x0,x0,0
    16f8:	00000013          	addi	x0,x0,0
    16fc:	00000013          	addi	x0,x0,0
    1700:	00001197          	auipc	x3,0x1
    1704:	10018193          	addi	x3,x3,256 # 0x2800
    1708:	00000013          	addi	x0,x0,0
    170c:	00000013          	addi	x0,x0,0
    1710:	00000013          	addi	x0,x0,0
    1714:	00000013          	addi	x0,x0,0
    1718:	00000013          	addi	x0,x0,0
    171c:	00000013          	addi	x0,x0,0
    1720:	8001e783          	lwu	x15,-2048(x3)
    1724:	00000013          	addi	x0,x0,0
    1728:	00000013          	addi	x0,x0,0
    172c:	04f73c23          	sd	x15,88(x14)
    1730:	00000013          	addi	x0,x0,0
    1734:	00000013          	addi	x0,x0,0
    1738:	00000013          	addi	x0,x0,0
    173c:	00000013          	addi	x0,x0,0
    1740:	00001417          	auipc	x8,0x1
    1744:	0c040413          	addi	x8,x8,192 # 0x2800
    1748:	00000013          	addi	x0,x0,0
    174c:	00000013          	addi	x0,x0,0
    1750:	00000013          	addi	x0,x0,0
    1754:	00000013          	addi	x0,x0,0
    1758:	00000013          	addi	x0,x0,0
    175c:	00000013          	addi	x0,x0,0
    1760:	80046c03          	lwu	x24,-2048(x8)
    1764:	00000013          	addi	x0,x0,0
    1768:	00000013          	addi	x0,x0,0
    176c:	07873023          	sd	x24,96(x14)
    1770:	00000013          	addi	x0,x0,0
    1774:	00000013          	addi	x0,x0,0
    1778:	00000013          	addi	x0,x0,0
    177c:	00000013          	addi	x0,x0,0
    1780:	00001217          	auipc	x4,0x1
    1784:	08020213          	addi	x4,x4,128 # 0x2800
    1788:	00000013          	addi	x0,x0,0
    178c:	00000013          	addi	x0,x0,0
    1790:	00000013          	addi	x0,x0,0
    1794:	00000013          	addi	x0,x0,0
    1798:	00000013          	addi	x0,x0,0
    179c:	00000013          	addi	x0,x0,0
    17a0:	80026383          	lwu	x7,-2048(x4) # 0xfffffffffffff800
    17a4:	00000013          	addi	x0,x0,0
    17a8:	00000013          	addi	x0,x0,0
    17ac:	06773423          	sd	x7,104(x14)
    17b0:	00000013          	addi	x0,x0,0
    17b4:	00000013          	addi	x0,x0,0
    17b8:	00000013          	addi	x0,x0,0
    17bc:	00000013          	addi	x0,x0,0
    17c0:	00001117          	auipc	x2,0x1
    17c4:	04010113          	addi	x2,x2,64 # 0x2800
    17c8:	00000013          	addi	x0,x0,0
    17cc:	00000013          	addi	x0,x0,0
    17d0:	00000013          	addi	x0,x0,0
    17d4:	00000013          	addi	x0,x0,0
    17d8:	00000013          	addi	x0,x0,0
    17dc:	00000013          	addi	x0,x0,0
    17e0:	80016903          	lwu	x18,-2048(x2)
    17e4:	00000013          	addi	x0,x0,0
    17e8:	00000013          	addi	x0,x0,0
    17ec:	07273823          	sd	x18,112(x14)
    17f0:	00000013          	addi	x0,x0,0
    17f4:	00000013          	addi	x0,x0,0
    17f8:	00000013          	addi	x0,x0,0
    17fc:	00000013          	addi	x0,x0,0
    1800:	00001517          	auipc	x10,0x1
    1804:	00050513          	addi	x10,x10,0 # 0x2800
    1808:	00000013          	addi	x0,x0,0
    180c:	00000013          	addi	x0,x0,0
    1810:	00000013          	addi	x0,x0,0
    1814:	00000013          	addi	x0,x0,0
    1818:	00000013          	addi	x0,x0,0
    181c:	00000013          	addi	x0,x0,0
    1820:	80056183          	lwu	x3,-2048(x10)
    1824:	00000013          	addi	x0,x0,0
    1828:	00000013          	addi	x0,x0,0
    182c:	06373c23          	sd	x3,120(x14)
    1830:	00000013          	addi	x0,x0,0
    1834:	00000013          	addi	x0,x0,0
    1838:	00000013          	addi	x0,x0,0
    183c:	00000013          	addi	x0,x0,0
    1840:	00001e97          	auipc	x29,0x1
    1844:	fc0e8e93          	addi	x29,x29,-64 # 0x2800
    1848:	00000013          	addi	x0,x0,0
    184c:	00000013          	addi	x0,x0,0
    1850:	00000013          	addi	x0,x0,0
    1854:	00000013          	addi	x0,x0,0
    1858:	00000013          	addi	x0,x0,0
    185c:	00000013          	addi	x0,x0,0
    1860:	800ee483          	lwu	x9,-2048(x29)
    1864:	00000013          	addi	x0,x0,0
    1868:	00000013          	addi	x0,x0,0
    186c:	08973023          	sd	x9,128(x14)
    1870:	00000013          	addi	x0,x0,0
    1874:	00000013          	addi	x0,x0,0
    1878:	00000013          	addi	x0,x0,0
    187c:	00000013          	addi	x0,x0,0
    1880:	00001617          	auipc	x12,0x1
    1884:	f8060613          	addi	x12,x12,-128 # 0x2800
    1888:	00000013          	addi	x0,x0,0
    188c:	00000013          	addi	x0,x0,0
    1890:	00000013          	addi	x0,x0,0
    1894:	00000013          	addi	x0,x0,0
    1898:	00000013          	addi	x0,x0,0
    189c:	00000013          	addi	x0,x0,0
    18a0:	80066503          	lwu	x10,-2048(x12)
    18a4:	00000013          	addi	x0,x0,0
    18a8:	00000013          	addi	x0,x0,0
    18ac:	08a73423          	sd	x10,136(x14)
    18b0:	00000013          	addi	x0,x0,0
    18b4:	00000013          	addi	x0,x0,0
    18b8:	00000013          	addi	x0,x0,0
    18bc:	00000013          	addi	x0,x0,0
    18c0:	00001b97          	auipc	x23,0x1
    18c4:	f40b8b93          	addi	x23,x23,-192 # 0x2800
    18c8:	00000013          	addi	x0,x0,0
    18cc:	00000013          	addi	x0,x0,0
    18d0:	00000013          	addi	x0,x0,0
    18d4:	00000013          	addi	x0,x0,0
    18d8:	00000013          	addi	x0,x0,0
    18dc:	00000013          	addi	x0,x0,0
    18e0:	800be983          	lwu	x19,-2048(x23)
    18e4:	00000013          	addi	x0,x0,0
    18e8:	00000013          	addi	x0,x0,0
    18ec:	09373823          	sd	x19,144(x14)
    18f0:	00000013          	addi	x0,x0,0
    18f4:	00000013          	addi	x0,x0,0
    18f8:	00000013          	addi	x0,x0,0
    18fc:	00000013          	addi	x0,x0,0
    1900:	00001297          	auipc	x5,0x1
    1904:	f0028293          	addi	x5,x5,-256 # 0x2800
    1908:	00000013          	addi	x0,x0,0
    190c:	00000013          	addi	x0,x0,0
    1910:	00000013          	addi	x0,x0,0
    1914:	00000013          	addi	x0,x0,0
    1918:	00000013          	addi	x0,x0,0
    191c:	00000013          	addi	x0,x0,0
    1920:	8002ef03          	lwu	x30,-2048(x5)
    1924:	00000013          	addi	x0,x0,0
    1928:	00000013          	addi	x0,x0,0
    192c:	09e73c23          	sd	x30,152(x14)
    1930:	00000013          	addi	x0,x0,0
    1934:	00000013          	addi	x0,x0,0
    1938:	00000013          	addi	x0,x0,0
    193c:	00000013          	addi	x0,x0,0
    1940:	00001817          	auipc	x16,0x1
    1944:	ec080813          	addi	x16,x16,-320 # 0x2800
    1948:	00000013          	addi	x0,x0,0
    194c:	00000013          	addi	x0,x0,0
    1950:	00000013          	addi	x0,x0,0
    1954:	00000013          	addi	x0,x0,0
    1958:	00000013          	addi	x0,x0,0
    195c:	00000013          	addi	x0,x0,0
    1960:	80086683          	lwu	x13,-2048(x16)
    1964:	00000013          	addi	x0,x0,0
    1968:	00000013          	addi	x0,x0,0
    196c:	0ad73023          	sd	x13,160(x14)
    1970:	00000013          	addi	x0,x0,0
    1974:	00000013          	addi	x0,x0,0
    1978:	00000013          	addi	x0,x0,0
    197c:	00000013          	addi	x0,x0,0
    1980:	00001317          	auipc	x6,0x1
    1984:	e8030313          	addi	x6,x6,-384 # 0x2800
    1988:	00000013          	addi	x0,x0,0
    198c:	00000013          	addi	x0,x0,0
    1990:	00000013          	addi	x0,x0,0
    1994:	00000013          	addi	x0,x0,0
    1998:	00000013          	addi	x0,x0,0
    199c:	00000013          	addi	x0,x0,0
    19a0:	80036f83          	lwu	x31,-2048(x6)
    19a4:	00000013          	addi	x0,x0,0
    19a8:	00000013          	addi	x0,x0,0
    19ac:	0bf73423          	sd	x31,168(x14)
    19b0:	00000013          	addi	x0,x0,0
    19b4:	00000013          	addi	x0,x0,0
    19b8:	00000013          	addi	x0,x0,0
    19bc:	00000013          	addi	x0,x0,0
    19c0:	00001117          	auipc	x2,0x1
    19c4:	6f810113          	addi	x2,x2,1784 # 0x30b8
    19c8:	00000013          	addi	x0,x0,0
    19cc:	00000013          	addi	x0,x0,0
    19d0:	00000013          	addi	x0,x0,0
    19d4:	00000013          	addi	x0,x0,0
    19d8:	00000013          	addi	x0,x0,0
    19dc:	00000013          	addi	x0,x0,0
    19e0:	00001797          	auipc	x15,0x1
    19e4:	e2078793          	addi	x15,x15,-480 # 0x2800
    19e8:	00000013          	addi	x0,x0,0
    19ec:	00000013          	addi	x0,x0,0
    19f0:	00000013          	addi	x0,x0,0
    19f4:	00000013          	addi	x0,x0,0
    19f8:	00000013          	addi	x0,x0,0
    19fc:	00000013          	addi	x0,x0,0
    1a00:	8007e703          	lwu	x14,-2048(x15)
    1a04:	00000013          	addi	x0,x0,0
    1a08:	00000013          	addi	x0,x0,0
    1a0c:	00e13023          	sd	x14,0(x2)
    1a10:	00000013          	addi	x0,x0,0
    1a14:	00000013          	addi	x0,x0,0
    1a18:	00000013          	addi	x0,x0,0
    1a1c:	00000013          	addi	x0,x0,0
    1a20:	00001d97          	auipc	x27,0x1
    1a24:	de0d8d93          	addi	x27,x27,-544 # 0x2800
    1a28:	00000013          	addi	x0,x0,0
    1a2c:	00000013          	addi	x0,x0,0
    1a30:	00000013          	addi	x0,x0,0
    1a34:	00000013          	addi	x0,x0,0
    1a38:	00000013          	addi	x0,x0,0
    1a3c:	00000013          	addi	x0,x0,0
    1a40:	800dec83          	lwu	x25,-2048(x27)
    1a44:	00000013          	addi	x0,x0,0
    1a48:	00000013          	addi	x0,x0,0
    1a4c:	01913423          	sd	x25,8(x2)
    1a50:	00000013          	addi	x0,x0,0
    1a54:	00000013          	addi	x0,x0,0
    1a58:	00000013          	addi	x0,x0,0
    1a5c:	00000013          	addi	x0,x0,0
    1a60:	00001f97          	auipc	x31,0x1
    1a64:	da0f8f93          	addi	x31,x31,-608 # 0x2800
    1a68:	00000013          	addi	x0,x0,0
    1a6c:	00000013          	addi	x0,x0,0
    1a70:	00000013          	addi	x0,x0,0
    1a74:	00000013          	addi	x0,x0,0
    1a78:	00000013          	addi	x0,x0,0
    1a7c:	00000013          	addi	x0,x0,0
    1a80:	800fe603          	lwu	x12,-2048(x31)
    1a84:	00000013          	addi	x0,x0,0
    1a88:	00000013          	addi	x0,x0,0
    1a8c:	00c13823          	sd	x12,16(x2)
    1a90:	00000013          	addi	x0,x0,0
    1a94:	00000013          	addi	x0,x0,0
    1a98:	00000013          	addi	x0,x0,0
    1a9c:	00000013          	addi	x0,x0,0
    1aa0:	00001917          	auipc	x18,0x1
    1aa4:	d6090913          	addi	x18,x18,-672 # 0x2800
    1aa8:	00000013          	addi	x0,x0,0
    1aac:	00000013          	addi	x0,x0,0
    1ab0:	00000013          	addi	x0,x0,0
    1ab4:	00000013          	addi	x0,x0,0
    1ab8:	00000013          	addi	x0,x0,0
    1abc:	00000013          	addi	x0,x0,0
    1ac0:	80096d83          	lwu	x27,-2048(x18)
    1ac4:	00000013          	addi	x0,x0,0
    1ac8:	00000013          	addi	x0,x0,0
    1acc:	01b13c23          	sd	x27,24(x2)
    1ad0:	00000013          	addi	x0,x0,0
    1ad4:	00000013          	addi	x0,x0,0
    1ad8:	00000013          	addi	x0,x0,0
    1adc:	00000013          	addi	x0,x0,0
    1ae0:	00001a17          	auipc	x20,0x1
    1ae4:	d20a0a13          	addi	x20,x20,-736 # 0x2800
    1ae8:	00000013          	addi	x0,x0,0
    1aec:	00000013          	addi	x0,x0,0
    1af0:	00000013          	addi	x0,x0,0
    1af4:	00000013          	addi	x0,x0,0
    1af8:	00000013          	addi	x0,x0,0
    1afc:	00000013          	addi	x0,x0,0
    1b00:	800a6803          	lwu	x16,-2048(x20)
    1b04:	00000013          	addi	x0,x0,0
    1b08:	00000013          	addi	x0,x0,0
    1b0c:	03013023          	sd	x16,32(x2)
    1b10:	00000013          	addi	x0,x0,0
    1b14:	00000013          	addi	x0,x0,0
    1b18:	00000013          	addi	x0,x0,0
    1b1c:	00000013          	addi	x0,x0,0
    1b20:	00001997          	auipc	x19,0x1
    1b24:	ce098993          	addi	x19,x19,-800 # 0x2800
    1b28:	00000013          	addi	x0,x0,0
    1b2c:	00000013          	addi	x0,x0,0
    1b30:	00000013          	addi	x0,x0,0
    1b34:	00000013          	addi	x0,x0,0
    1b38:	00000013          	addi	x0,x0,0
    1b3c:	00000013          	addi	x0,x0,0
    1b40:	8009ee03          	lwu	x28,-2048(x19)
    1b44:	00000013          	addi	x0,x0,0
    1b48:	00000013          	addi	x0,x0,0
    1b4c:	03c13423          	sd	x28,40(x2)
    1b50:	00000013          	addi	x0,x0,0
    1b54:	00000013          	addi	x0,x0,0
    1b58:	00000013          	addi	x0,x0,0
    1b5c:	00000013          	addi	x0,x0,0
    1b60:	00001a97          	auipc	x21,0x1
    1b64:	ca0a8a93          	addi	x21,x21,-864 # 0x2800
    1b68:	00000013          	addi	x0,x0,0
    1b6c:	00000013          	addi	x0,x0,0
    1b70:	00000013          	addi	x0,x0,0
    1b74:	00000013          	addi	x0,x0,0
    1b78:	00000013          	addi	x0,x0,0
    1b7c:	00000013          	addi	x0,x0,0
    1b80:	800ae883          	lwu	x17,-2048(x21)
    1b84:	00000013          	addi	x0,x0,0
    1b88:	00000013          	addi	x0,x0,0
    1b8c:	03113823          	sd	x17,48(x2)
    1b90:	00000013          	addi	x0,x0,0
    1b94:	00000013          	addi	x0,x0,0
    1b98:	00000013          	addi	x0,x0,0
    1b9c:	00000013          	addi	x0,x0,0
    1ba0:	00001c97          	auipc	x25,0x1
    1ba4:	c60c8c93          	addi	x25,x25,-928 # 0x2800
    1ba8:	00000013          	addi	x0,x0,0
    1bac:	00000013          	addi	x0,x0,0
    1bb0:	00000013          	addi	x0,x0,0
    1bb4:	00000013          	addi	x0,x0,0
    1bb8:	00000013          	addi	x0,x0,0
    1bbc:	00000013          	addi	x0,x0,0
    1bc0:	800ceb03          	lwu	x22,-2048(x25)
    1bc4:	00000013          	addi	x0,x0,0
    1bc8:	00000013          	addi	x0,x0,0
    1bcc:	03613c23          	sd	x22,56(x2)
    1bd0:	00000013          	addi	x0,x0,0
    1bd4:	00000013          	addi	x0,x0,0
    1bd8:	00000013          	addi	x0,x0,0
    1bdc:	00000013          	addi	x0,x0,0
    1be0:	00001717          	auipc	x14,0x1
    1be4:	c2070713          	addi	x14,x14,-992 # 0x2800
    1be8:	00000013          	addi	x0,x0,0
    1bec:	00000013          	addi	x0,x0,0
    1bf0:	00000013          	addi	x0,x0,0
    1bf4:	00000013          	addi	x0,x0,0
    1bf8:	00000013          	addi	x0,x0,0
    1bfc:	00000013          	addi	x0,x0,0
    1c00:	80076083          	lwu	x1,-2048(x14)
    1c04:	00000013          	addi	x0,x0,0
    1c08:	00000013          	addi	x0,x0,0
    1c0c:	04113023          	sd	x1,64(x2)
    1c10:	00000013          	addi	x0,x0,0
    1c14:	00000013          	addi	x0,x0,0
    1c18:	00000013          	addi	x0,x0,0
    1c1c:	00000013          	addi	x0,x0,0
    1c20:	00001417          	auipc	x8,0x1
    1c24:	be040413          	addi	x8,x8,-1056 # 0x2800
    1c28:	00000013          	addi	x0,x0,0
    1c2c:	00000013          	addi	x0,x0,0
    1c30:	00000013          	addi	x0,x0,0
    1c34:	00000013          	addi	x0,x0,0
    1c38:	00000013          	addi	x0,x0,0
    1c3c:	00000013          	addi	x0,x0,0
    1c40:	80046283          	lwu	x5,-2048(x8)
    1c44:	00000013          	addi	x0,x0,0
    1c48:	00000013          	addi	x0,x0,0
    1c4c:	04513423          	sd	x5,72(x2)
    1c50:	0380006f          	jal	x0,0x1c88
    1c54:	1f813483          	ld	x9,504(x2)
    1c58:	20013303          	ld	x6,512(x2)
    1c5c:	00930333          	add	x6,x6,x9
    1c60:	00000337          	lui	x6,0x0
    1c64:	00030313          	addi	x6,x6,0 # 0x0
    1c68:	00b31313          	slli	x6,x6,0xb
    1c6c:	5d630313          	addi	x6,x6,1494
    1c70:	00b31313          	slli	x6,x6,0xb
    1c74:	43630313          	addi	x6,x6,1078
    1c78:	00a31313          	slli	x6,x6,0xa
    1c7c:	2d030313          	addi	x6,x6,720
    1c80:	fe64be23          	sd	x6,-4(x9)
    1c84:	0040006f          	jal	x0,0x1c88
    1c88:	00000513          	addi	x10,x0,0
    1c8c:	0240006f          	jal	x0,0x1cb0
	...
    1cb0:	00050513          	addi	x10,x10,0
    1cb4:	00100073          	ebreak
    1cb8:	0000006f          	jal	x0,0x1cb8
    1cbc:	ff010113          	addi	x2,x2,-16
    1cc0:	00000517          	auipc	x10,0x0
    1cc4:	02050513          	addi	x10,x10,32 # 0x1ce0
    1cc8:	00113423          	sd	x1,8(x2)
    1ccc:	b44ff0ef          	jal	x1,0x1010
    1cd0:	00050513          	addi	x10,x10,0
    1cd4:	00100073          	ebreak
    1cd8:	0000006f          	jal	x0,0x1cd8
	...
    2000:	cafe                	c.swsp	x31,84(x2)
    2002:	babe                	c.fsdsp	f15,368(x2)
    2004:	cafe                	c.swsp	x31,84(x2)
    2006:	babe                	c.fsdsp	f15,368(x2)
    2008:	cafe                	c.swsp	x31,84(x2)
    200a:	babe                	c.fsdsp	f15,368(x2)
    200c:	cafe                	c.swsp	x31,84(x2)
    200e:	babe                	c.fsdsp	f15,368(x2)
    2010:	deadbeef          	jal	x29,0xfffffffffffdd5fa
    2014:	deadbeef          	jal	x29,0xfffffffffffdd5fe
	...
    3000:	b281                	c.j	0x2940
    3002:	e7d4                	c.sd	x13,136(x15)
    3004:	a309                	c.j	0x3506
    3006:	6f5c                	c.ld	x15,152(x14)
    3008:	deadbeef          	jal	x29,0xfffffffffffde5f2
    300c:	deadbeef          	jal	x29,0xfffffffffffde5f6
    3010:	deadbeef          	jal	x29,0xfffffffffffde5fa
    3014:	deadbeef          	jal	x29,0xfffffffffffde5fe
    3018:	deadbeef          	jal	x29,0xfffffffffffde602
    301c:	deadbeef          	jal	x29,0xfffffffffffde606
    3020:	deadbeef          	jal	x29,0xfffffffffffde60a
    3024:	deadbeef          	jal	x29,0xfffffffffffde60e
    3028:	deadbeef          	jal	x29,0xfffffffffffde612
    302c:	deadbeef          	jal	x29,0xfffffffffffde616
    3030:	deadbeef          	jal	x29,0xfffffffffffde61a
    3034:	deadbeef          	jal	x29,0xfffffffffffde61e
    3038:	deadbeef          	jal	x29,0xfffffffffffde622
    303c:	deadbeef          	jal	x29,0xfffffffffffde626
    3040:	deadbeef          	jal	x29,0xfffffffffffde62a
    3044:	deadbeef          	jal	x29,0xfffffffffffde62e
    3048:	deadbeef          	jal	x29,0xfffffffffffde632
    304c:	deadbeef          	jal	x29,0xfffffffffffde636
    3050:	deadbeef          	jal	x29,0xfffffffffffde63a
    3054:	deadbeef          	jal	x29,0xfffffffffffde63e
    3058:	deadbeef          	jal	x29,0xfffffffffffde642
    305c:	deadbeef          	jal	x29,0xfffffffffffde646
    3060:	deadbeef          	jal	x29,0xfffffffffffde64a
    3064:	deadbeef          	jal	x29,0xfffffffffffde64e
    3068:	deadbeef          	jal	x29,0xfffffffffffde652
    306c:	deadbeef          	jal	x29,0xfffffffffffde656
    3070:	deadbeef          	jal	x29,0xfffffffffffde65a
    3074:	deadbeef          	jal	x29,0xfffffffffffde65e
    3078:	deadbeef          	jal	x29,0xfffffffffffde662
    307c:	deadbeef          	jal	x29,0xfffffffffffde666
    3080:	deadbeef          	jal	x29,0xfffffffffffde66a
    3084:	deadbeef          	jal	x29,0xfffffffffffde66e
    3088:	deadbeef          	jal	x29,0xfffffffffffde672
    308c:	deadbeef          	jal	x29,0xfffffffffffde676
    3090:	deadbeef          	jal	x29,0xfffffffffffde67a
    3094:	deadbeef          	jal	x29,0xfffffffffffde67e
    3098:	deadbeef          	jal	x29,0xfffffffffffde682
    309c:	deadbeef          	jal	x29,0xfffffffffffde686
    30a0:	deadbeef          	jal	x29,0xfffffffffffde68a
    30a4:	deadbeef          	jal	x29,0xfffffffffffde68e
    30a8:	deadbeef          	jal	x29,0xfffffffffffde692
    30ac:	deadbeef          	jal	x29,0xfffffffffffde696
    30b0:	deadbeef          	jal	x29,0xfffffffffffde69a
    30b4:	deadbeef          	jal	x29,0xfffffffffffde69e
    30b8:	deadbeef          	jal	x29,0xfffffffffffde6a2
    30bc:	deadbeef          	jal	x29,0xfffffffffffde6a6
    30c0:	deadbeef          	jal	x29,0xfffffffffffde6aa
    30c4:	deadbeef          	jal	x29,0xfffffffffffde6ae
    30c8:	deadbeef          	jal	x29,0xfffffffffffde6b2
    30cc:	deadbeef          	jal	x29,0xfffffffffffde6b6
    30d0:	deadbeef          	jal	x29,0xfffffffffffde6ba
    30d4:	deadbeef          	jal	x29,0xfffffffffffde6be
    30d8:	deadbeef          	jal	x29,0xfffffffffffde6c2
    30dc:	deadbeef          	jal	x29,0xfffffffffffde6c6
    30e0:	deadbeef          	jal	x29,0xfffffffffffde6ca
    30e4:	deadbeef          	jal	x29,0xfffffffffffde6ce
    30e8:	deadbeef          	jal	x29,0xfffffffffffde6d2
    30ec:	deadbeef          	jal	x29,0xfffffffffffde6d6
    30f0:	deadbeef          	jal	x29,0xfffffffffffde6da
    30f4:	deadbeef          	jal	x29,0xfffffffffffde6de
    30f8:	deadbeef          	jal	x29,0xfffffffffffde6e2
    30fc:	deadbeef          	jal	x29,0xfffffffffffde6e6
    3100:	deadbeef          	jal	x29,0xfffffffffffde6ea
    3104:	deadbeef          	jal	x29,0xfffffffffffde6ee
    3108:	b281                	c.j	0x2a48
    310a:	e7d4                	c.sd	x13,136(x15)
    310c:	a309                	c.j	0x360e
    310e:	6f5c                	c.ld	x15,152(x14)
    3110:	3a434347          	fmsub.d	f6,f6,f4,f7,rmm
    3114:	2820                	c.fld	f8,80(x8)
    3116:	6255                	c.lui	x4,0x15
    3118:	6e75                	c.lui	x28,0x1d
    311a:	7574                	c.ld	x13,232(x10)
    311c:	3120                	c.fld	f8,96(x10)
    311e:	2e31                	c.addiw	x28,12 # 0x1d00c
    3120:	2e32                	c.fldsp	f28,264(x2)
    3122:	2d30                	c.fld	f12,88(x10)
    3124:	3631                	c.addiw	x12,-20
    3126:	6275                	c.lui	x4,0x1d
    3128:	6e75                	c.lui	x28,0x1d
    312a:	7574                	c.ld	x13,232(x10)
    312c:	2931                	c.addiw	x18,12
    312e:	3120                	c.fld	f8,96(x10)
    3130:	2e31                	c.addiw	x28,12 # 0x1d00c
    3132:	2e32                	c.fldsp	f28,264(x2)
    3134:	0030                	c.addi4spn	x12,x2,8
    3136:	2d41                	c.addiw	x26,16
    3138:	0000                	c.unimp
    313a:	7200                	c.ld	x8,32(x12)
    313c:	7369                	c.lui	x6,0xffffa
    313e:	01007663          	bgeu	x0,x16,0x314a
    3142:	00000023          	sb	x0,0(x0) # 0x0
    3146:	7205                	c.lui	x4,0xfffe1
    3148:	3676                	c.fldsp	f12,376(x2)
    314a:	6934                	c.ld	x13,80(x10)
    314c:	7032                	.insn	2, 0x7032
    314e:	5f30                	c.lw	x12,120(x14)
    3150:	326d                	c.addiw	x4,-5 # 0xfffffffffffe0ffb
    3152:	3070                	c.fld	f12,224(x8)
    3154:	615f 7032 5f30      	.insn	6, 0x5f307032615f
    315a:	3266                	c.fldsp	f4,120(x2)
    315c:	3070                	c.fld	f12,224(x8)
    315e:	645f 7032 0030      	.insn	6, 0x00307032645f
	...
    3184:	00010003          	lb	x0,0(x2)
    3188:	0000                	c.unimp
    318a:	8000                	.insn	2, 0x8000
	...
    319c:	00020003          	lb	x0,0(x4) # 0x0
    31a0:	0ce0                	c.addi4spn	x8,x2,604
    31a2:	8000                	.insn	2, 0x8000
	...
    31b4:	00030003          	lb	x0,0(x6) # 0xffffffffffffa000
    31b8:	1000                	c.addi4spn	x8,x2,32
    31ba:	8000                	.insn	2, 0x8000
	...
    31cc:	00040003          	lb	x0,0(x8)
	...
    31e4:	00050003          	lb	x0,0(x10)
	...
    31f8:	0001                	c.addi	x0,0
    31fa:	0000                	c.unimp
    31fc:	0004                	.insn	2, 0x0004
    31fe:	fff1                	c.bnez	x15,0x31da
	...
    3210:	0009                	c.addi	x0,2
    3212:	0000                	c.unimp
    3214:	0000                	c.unimp
    3216:	0001                	c.addi	x0,0
    3218:	0000                	c.unimp
    321a:	8000                	.insn	2, 0x8000
	...
    3228:	000c                	.insn	2, 0x000c
    322a:	0000                	c.unimp
    322c:	0004                	.insn	2, 0x0004
    322e:	fff1                	c.bnez	x15,0x320a
	...
    3240:	0009                	c.addi	x0,2
    3242:	0000                	c.unimp
    3244:	0000                	c.unimp
    3246:	0001                	c.addi	x0,0
    3248:	0010                	.insn	2, 0x0010
    324a:	8000                	.insn	2, 0x8000
	...
    3258:	00000013          	addi	x0,x0,0
    325c:	0004                	.insn	2, 0x0004
    325e:	fff1                	c.bnez	x15,0x323a
	...
    3270:	0022                	c.slli	x0,0x8
    3272:	0000                	c.unimp
    3274:	0000                	c.unimp
    3276:	fff1                	c.bnez	x15,0x3252
    3278:	00000003          	lb	x0,0(x0) # 0x0
	...
    3288:	002c                	c.addi4spn	x11,x2,8
    328a:	0000                	c.unimp
    328c:	0000                	c.unimp
    328e:	fff1                	c.bnez	x15,0x326a
    3290:	0001                	c.addi	x0,0
	...
    329e:	0000                	c.unimp
    32a0:	0036                	c.slli	x0,0xd
    32a2:	0000                	c.unimp
    32a4:	0000                	c.unimp
    32a6:	fff1                	c.bnez	x15,0x3282
    32a8:	0002                	c.slli64	x0
	...
    32b6:	0000                	c.unimp
    32b8:	0009                	c.addi	x0,2
    32ba:	0000                	c.unimp
    32bc:	0000                	c.unimp
    32be:	0001                	c.addi	x0,0
    32c0:	0040                	c.addi4spn	x8,x2,4
    32c2:	8000                	.insn	2, 0x8000
	...
    32d0:	0040                	c.addi4spn	x8,x2,4
    32d2:	0000                	c.unimp
    32d4:	0000                	c.unimp
    32d6:	fff1                	c.bnez	x15,0x32b2
    32d8:	dad0                	c.sw	x12,52(x13)
    32da:	bad0                	c.fsd	f12,176(x13)
	...
    32e8:	0045                	c.addi	x0,17
    32ea:	0000                	c.unimp
    32ec:	0000                	c.unimp
    32ee:	fff1                	c.bnez	x15,0x32ca
    32f0:	0004                	.insn	2, 0x0004
	...
    32fe:	0000                	c.unimp
    3300:	0000004b          	fnmsub.s	f0,f0,f0,f0,rne
    3304:	0000                	c.unimp
    3306:	fff1                	c.bnez	x15,0x32e2
    3308:	0005                	c.addi	x0,1
	...
    3316:	0000                	c.unimp
    3318:	0051                	c.addi	x0,20
    331a:	0000                	c.unimp
    331c:	0000                	c.unimp
    331e:	fff1                	c.bnez	x15,0x32fa
	...
    3330:	0056                	c.slli	x0,0x15
    3332:	0000                	c.unimp
    3334:	0000                	c.unimp
    3336:	fff1                	c.bnez	x15,0x3312
	...
    3348:	0000005b          	.insn	4, 0x005b
    334c:	0000                	c.unimp
    334e:	fff1                	c.bnez	x15,0x332a
    3350:	dad0                	c.sw	x12,52(x13)
    3352:	bad0                	c.fsd	f12,176(x13)
	...
    3360:	0060                	c.addi4spn	x8,x2,12
    3362:	0000                	c.unimp
    3364:	0000                	c.unimp
    3366:	fff1                	c.bnez	x15,0x3342
    3368:	0040                	c.addi4spn	x8,x2,4
	...
    3376:	0000                	c.unimp
    3378:	0064                	c.addi4spn	x9,x2,12
    337a:	0000                	c.unimp
    337c:	0000                	c.unimp
    337e:	fff1                	c.bnez	x15,0x335a
    3380:	dad0                	c.sw	x12,52(x13)
    3382:	bad0                	c.fsd	f12,176(x13)
	...
    3390:	0000006b          	.insn	4, 0x006b
    3394:	0000                	c.unimp
    3396:	fff1                	c.bnez	x15,0x3372
    3398:	0001                	c.addi	x0,0
	...
    33a6:	0000                	c.unimp
    33a8:	0000006f          	jal	x0,0x33a8
    33ac:	0000                	c.unimp
    33ae:	fff1                	c.bnez	x15,0x338a
    33b0:	fad0                	c.sd	x12,176(x13)
    33b2:	ffff                	.insn	2, 0xffff
    33b4:	ffff                	.insn	2, 0xffff
    33b6:	ffff                	.insn	2, 0xffff
	...
    33c0:	0075                	c.addi	x0,29
    33c2:	0000                	c.unimp
    33c4:	0000                	c.unimp
    33c6:	fff1                	c.bnez	x15,0x33a2
    33c8:	0001                	c.addi	x0,0
	...
    33d6:	0000                	c.unimp
    33d8:	007a                	c.slli	x0,0x1e
    33da:	0000                	c.unimp
    33dc:	0000                	c.unimp
    33de:	fff1                	c.bnez	x15,0x33ba
	...
    33f0:	007f 0000 0000 fff1 	.insn	10, 0x0dadfff100000000007f
    33f8:	0dad 
    33fa:	0bad                	c.addi	x23,11
	...
    3408:	0086                	c.slli	x1,0x1
    340a:	0000                	c.unimp
    340c:	0000                	c.unimp
    340e:	fff1                	c.bnez	x15,0x33ea
    3410:	fdad                	c.bnez	x11,0x338a
    3412:	ffff                	.insn	2, 0xffff
    3414:	ffff                	.insn	2, 0xffff
    3416:	ffff                	.insn	2, 0xffff
	...
    3420:	008e                	c.slli	x1,0x3
    3422:	0000                	c.unimp
    3424:	0000                	c.unimp
    3426:	fff1                	c.bnez	x15,0x3402
    3428:	0001                	c.addi	x0,0
	...
    3436:	0000                	c.unimp
    3438:	0094                	c.addi4spn	x13,x2,64
    343a:	0000                	c.unimp
    343c:	0000                	c.unimp
    343e:	fff1                	c.bnez	x15,0x341a
    3440:	0dad                	c.addi	x27,11
    3442:	0bad                	c.addi	x23,11
	...
    3450:	009d                	c.addi	x1,7
    3452:	0000                	c.unimp
    3454:	0000                	c.unimp
    3456:	20080003          	lb	x0,512(x16)
    345a:	8000                	.insn	2, 0x8000
	...
    3468:	000002cf          	fnmadd.s	f5,f0,f0,f0,rne
    346c:	0000                	c.unimp
    346e:	fff1                	c.bnez	x15,0x344a
    3470:	0050                	c.addi4spn	x12,x2,4
	...
    347e:	0000                	c.unimp
    3480:	00ad                	c.addi	x1,11
    3482:	0000                	c.unimp
    3484:	0000                	c.unimp
    3486:	0001                	c.addi	x0,0
    3488:	0440                	c.addi4spn	x8,x2,516
    348a:	8000                	.insn	2, 0x8000
	...
    3498:	00b4                	c.addi4spn	x13,x2,72
    349a:	0000                	c.unimp
    349c:	0000                	c.unimp
    349e:	10000003          	lb	x0,256(x0) # 0x100
    34a2:	8000                	.insn	2, 0x8000
	...
    34b0:	00c0                	c.addi4spn	x8,x2,68
    34b2:	0000                	c.unimp
    34b4:	0000                	c.unimp
    34b6:	0001                	c.addi	x0,0
    34b8:	0470                	c.addi4spn	x12,x2,524
    34ba:	8000                	.insn	2, 0x8000
	...
    34c8:	000000c7          	fmsub.s	f1,f0,f0,f0,rne
    34cc:	0000                	c.unimp
    34ce:	0001                	c.addi	x0,0
    34d0:	04b0                	c.addi4spn	x12,x2,584
    34d2:	8000                	.insn	2, 0x8000
	...
    34e0:	00ce                	c.slli	x1,0x13
    34e2:	0000                	c.unimp
    34e4:	0000                	c.unimp
    34e6:	0001                	c.addi	x0,0
    34e8:	04f0                	c.addi4spn	x12,x2,588
    34ea:	8000                	.insn	2, 0x8000
	...
    34f8:	00d5                	c.addi	x1,21
    34fa:	0000                	c.unimp
    34fc:	0000                	c.unimp
    34fe:	0001                	c.addi	x0,0
    3500:	0530                	c.addi4spn	x12,x2,648
    3502:	8000                	.insn	2, 0x8000
	...
    3510:	00dc                	c.addi4spn	x15,x2,68
    3512:	0000                	c.unimp
    3514:	0000                	c.unimp
    3516:	0001                	c.addi	x0,0
    3518:	0570                	c.addi4spn	x12,x2,652
    351a:	8000                	.insn	2, 0x8000
	...
    3528:	000000e3          	beq	x0,x0,0x3d28
    352c:	0000                	c.unimp
    352e:	0001                	c.addi	x0,0
    3530:	05b0                	c.addi4spn	x12,x2,712
    3532:	8000                	.insn	2, 0x8000
	...
    3540:	00ea                	c.slli	x1,0x1a
    3542:	0000                	c.unimp
    3544:	0000                	c.unimp
    3546:	0001                	c.addi	x0,0
    3548:	05f0                	c.addi4spn	x12,x2,716
    354a:	8000                	.insn	2, 0x8000
	...
    3558:	00f1                	c.addi	x1,28
    355a:	0000                	c.unimp
    355c:	0000                	c.unimp
    355e:	0001                	c.addi	x0,0
    3560:	0630                	c.addi4spn	x12,x2,776
    3562:	8000                	.insn	2, 0x8000
	...
    3570:	00f8                	c.addi4spn	x14,x2,76
    3572:	0000                	c.unimp
    3574:	0000                	c.unimp
    3576:	0001                	c.addi	x0,0
    3578:	0670                	c.addi4spn	x12,x2,780
    357a:	8000                	.insn	2, 0x8000
	...
    3588:	00ff 0000 0000 0001 	.insn	10, 0x06b000010000000000ff
    3590:	06b0 
    3592:	8000                	.insn	2, 0x8000
	...
    35a0:	00000107          	.insn	4, 0x0107
    35a4:	0000                	c.unimp
    35a6:	0001                	c.addi	x0,0
    35a8:	06f0                	c.addi4spn	x12,x2,844
    35aa:	8000                	.insn	2, 0x8000
	...
    35b8:	0000010f          	.insn	4, 0x010f
    35bc:	0000                	c.unimp
    35be:	0001                	c.addi	x0,0
    35c0:	0730                	c.addi4spn	x12,x2,904
    35c2:	8000                	.insn	2, 0x8000
	...
    35d0:	00000117          	auipc	x2,0x0
    35d4:	0000                	c.unimp
    35d6:	0001                	c.addi	x0,0
    35d8:	0770                	c.addi4spn	x12,x2,908
    35da:	8000                	.insn	2, 0x8000
	...
    35e8:	011f 0000 0000      	.insn	6, 0x011f
    35ee:	0001                	c.addi	x0,0
    35f0:	07b0                	c.addi4spn	x12,x2,968
    35f2:	8000                	.insn	2, 0x8000
	...
    3600:	00000127          	.insn	4, 0x0127
    3604:	0000                	c.unimp
    3606:	0001                	c.addi	x0,0
    3608:	07f0                	c.addi4spn	x12,x2,972
    360a:	8000                	.insn	2, 0x8000
	...
    3618:	0000012f          	.insn	4, 0x012f
    361c:	0000                	c.unimp
    361e:	0001                	c.addi	x0,0
    3620:	0830                	c.addi4spn	x12,x2,24
    3622:	8000                	.insn	2, 0x8000
	...
    3630:	00000137          	lui	x2,0x0
    3634:	0000                	c.unimp
    3636:	0001                	c.addi	x0,0
    3638:	0870                	c.addi4spn	x12,x2,28
    363a:	8000                	.insn	2, 0x8000
	...
    3648:	0000013f 00010000 	.insn	8, 0x000100000000013f
    3650:	08b0                	c.addi4spn	x12,x2,88
    3652:	8000                	.insn	2, 0x8000
	...
    3660:	00000147          	fmsub.s	f2,f0,f0,f0,rne
    3664:	0000                	c.unimp
    3666:	0001                	c.addi	x0,0
    3668:	08f0                	c.addi4spn	x12,x2,92
    366a:	8000                	.insn	2, 0x8000
	...
    3678:	0000014f          	fnmadd.s	f2,f0,f0,f0,rne
    367c:	0000                	c.unimp
    367e:	0001                	c.addi	x0,0
    3680:	0930                	c.addi4spn	x12,x2,152
    3682:	8000                	.insn	2, 0x8000
	...
    3690:	00000157          	.insn	4, 0x0157
    3694:	0000                	c.unimp
    3696:	0001                	c.addi	x0,0
    3698:	0970                	c.addi4spn	x12,x2,156
    369a:	8000                	.insn	2, 0x8000
	...
    36a8:	015f 0000 0000      	.insn	6, 0x015f
    36ae:	20b80003          	lb	x0,523(x16)
    36b2:	8000                	.insn	2, 0x8000
	...
    36c0:	016e                	c.slli	x2,0x1b
    36c2:	0000                	c.unimp
    36c4:	0000                	c.unimp
    36c6:	0001                	c.addi	x0,0
    36c8:	09e0                	c.addi4spn	x8,x2,220
    36ca:	8000                	.insn	2, 0x8000
	...
    36d8:	0176                	c.slli	x2,0x1d
    36da:	0000                	c.unimp
    36dc:	0000                	c.unimp
    36de:	0001                	c.addi	x0,0
    36e0:	0a10                	c.addi4spn	x12,x2,272
    36e2:	8000                	.insn	2, 0x8000
	...
    36f0:	017e                	c.slli	x2,0x1f
    36f2:	0000                	c.unimp
    36f4:	0000                	c.unimp
    36f6:	0001                	c.addi	x0,0
    36f8:	0a50                	c.addi4spn	x12,x2,276
    36fa:	8000                	.insn	2, 0x8000
	...
    3708:	0186                	c.slli	x3,0x1
    370a:	0000                	c.unimp
    370c:	0000                	c.unimp
    370e:	0001                	c.addi	x0,0
    3710:	0a90                	c.addi4spn	x12,x2,336
    3712:	8000                	.insn	2, 0x8000
	...
    3720:	018e                	c.slli	x3,0x3
    3722:	0000                	c.unimp
    3724:	0000                	c.unimp
    3726:	0001                	c.addi	x0,0
    3728:	0ad0                	c.addi4spn	x12,x2,340
    372a:	8000                	.insn	2, 0x8000
	...
    3738:	0196                	c.slli	x3,0x5
    373a:	0000                	c.unimp
    373c:	0000                	c.unimp
    373e:	0001                	c.addi	x0,0
    3740:	0b10                	c.addi4spn	x12,x2,400
    3742:	8000                	.insn	2, 0x8000
	...
    3750:	019e                	c.slli	x3,0x7
    3752:	0000                	c.unimp
    3754:	0000                	c.unimp
    3756:	0001                	c.addi	x0,0
    3758:	0b50                	c.addi4spn	x12,x2,404
    375a:	8000                	.insn	2, 0x8000
	...
    3768:	01a6                	c.slli	x3,0x9
    376a:	0000                	c.unimp
    376c:	0000                	c.unimp
    376e:	0001                	c.addi	x0,0
    3770:	0b90                	c.addi4spn	x12,x2,464
    3772:	8000                	.insn	2, 0x8000
	...
    3780:	01ae                	c.slli	x3,0xb
    3782:	0000                	c.unimp
    3784:	0000                	c.unimp
    3786:	0001                	c.addi	x0,0
    3788:	0bd0                	c.addi4spn	x12,x2,468
    378a:	8000                	.insn	2, 0x8000
	...
    3798:	01b6                	c.slli	x3,0xd
    379a:	0000                	c.unimp
    379c:	0000                	c.unimp
    379e:	0001                	c.addi	x0,0
    37a0:	0c10                	c.addi4spn	x12,x2,528
    37a2:	8000                	.insn	2, 0x8000
	...
    37b0:	01be                	c.slli	x3,0xf
    37b2:	0000                	c.unimp
    37b4:	0000                	c.unimp
    37b6:	0001                	c.addi	x0,0
    37b8:	0c88                	c.addi4spn	x10,x2,592
    37ba:	8000                	.insn	2, 0x8000
	...
    37c8:	000001cb          	fnmsub.s	f3,f0,f0,f0,rne
    37cc:	0000                	c.unimp
    37ce:	0001                	c.addi	x0,0
    37d0:	0c54                	c.addi4spn	x13,x2,532
    37d2:	8000                	.insn	2, 0x8000
	...
    37e0:	000001d7          	.insn	4, 0x01d7
    37e4:	0000                	c.unimp
    37e6:	10100003          	lb	x0,257(x0) # 0x101
    37ea:	8000                	.insn	2, 0x8000
	...
    37f8:	01e4                	c.addi4spn	x9,x2,204
    37fa:	0000                	c.unimp
    37fc:	0000                	c.unimp
    37fe:	20000003          	lb	x0,512(x0) # 0x200
    3802:	8000                	.insn	2, 0x8000
	...
    3810:	01f5                	c.addi	x3,29
    3812:	0000                	c.unimp
    3814:	0000                	c.unimp
    3816:	20000003          	lb	x0,512(x0) # 0x200
    381a:	8000                	.insn	2, 0x8000
	...
    3828:	0206                	c.slli	x4,0x1
    382a:	0000                	c.unimp
    382c:	0000                	c.unimp
    382e:	20080003          	lb	x0,512(x16)
    3832:	8000                	.insn	2, 0x8000
	...
    3840:	0216                	c.slli	x4,0x5
    3842:	0000                	c.unimp
    3844:	0000                	c.unimp
    3846:	21080003          	lb	x0,528(x16)
    384a:	8000                	.insn	2, 0x8000
	...
    3858:	0225                	c.addi	x4,9 # 0x9
    385a:	0000                	c.unimp
    385c:	0000                	c.unimp
    385e:	21100003          	lb	x0,529(x0) # 0x211
    3862:	8000                	.insn	2, 0x8000
	...
    3870:	0234                	c.addi4spn	x13,x2,264
    3872:	0000                	c.unimp
    3874:	0004                	.insn	2, 0x0004
    3876:	fff1                	c.bnez	x15,0x3852
	...
    3888:	0009                	c.addi	x0,2
    388a:	0000                	c.unimp
    388c:	0000                	c.unimp
    388e:	0001                	c.addi	x0,0
    3890:	0cb0                	c.addi4spn	x12,x2,600
    3892:	8000                	.insn	2, 0x8000
	...
    38a0:	0009                	c.addi	x0,2
    38a2:	0000                	c.unimp
    38a4:	0000                	c.unimp
    38a6:	0001                	c.addi	x0,0
    38a8:	0cbc                	c.addi4spn	x15,x2,600
    38aa:	8000                	.insn	2, 0x8000
	...
    38b8:	023a                	c.slli	x4,0xe
    38ba:	0000                	c.unimp
    38bc:	0001                	c.addi	x0,0
    38be:	0002                	c.slli64	x0
    38c0:	0ce0                	c.addi4spn	x8,x2,604
    38c2:	8000                	.insn	2, 0x8000
    38c4:	0000                	c.unimp
    38c6:	0000                	c.unimp
    38c8:	0001                	c.addi	x0,0
    38ca:	0000                	c.unimp
    38cc:	0000                	c.unimp
    38ce:	0000                	c.unimp
    38d0:	00000243          	fmadd.s	f4,f0,f0,f0,rne
    38d4:	0212                	c.slli	x4,0x4
    38d6:	0001                	c.addi	x0,0
    38d8:	0cbc                	c.addi4spn	x15,x2,600
    38da:	8000                	.insn	2, 0x8000
    38dc:	0000                	c.unimp
    38de:	0000                	c.unimp
    38e0:	0020                	c.addi4spn	x8,x2,8
    38e2:	0000                	c.unimp
    38e4:	0000                	c.unimp
    38e6:	0000                	c.unimp
    38e8:	024d                	c.addi	x4,19 # 0x13
    38ea:	0000                	c.unimp
    38ec:	0010                	.insn	2, 0x0010
    38ee:	b0000003          	lb	x0,-1280(x0) # 0xfffffffffffffb00
    38f2:	8000                	.insn	2, 0x8000
	...
    3900:	025c                	c.addi4spn	x15,x2,260
    3902:	0000                	c.unimp
    3904:	0010                	.insn	2, 0x0010
    3906:	21100003          	lb	x0,529(x0) # 0x211
    390a:	8000                	.insn	2, 0x8000
	...
    3918:	026a                	c.slli	x4,0x1a
    391a:	0000                	c.unimp
    391c:	0010                	.insn	2, 0x0010
    391e:	0001                	c.addi	x0,0
    3920:	0cdc                	c.addi4spn	x15,x2,596
    3922:	8000                	.insn	2, 0x8000
	...
    3930:	0271                	c.addi	x4,28 # 0x1c
    3932:	0000                	c.unimp
    3934:	0010                	.insn	2, 0x0010
    3936:	fff1                	c.bnez	x15,0x3912
    3938:	0000                	c.unimp
    393a:	8000                	.insn	2, 0x8000
	...
    3948:	027d                	c.addi	x4,31 # 0x1f
    394a:	0000                	c.unimp
    394c:	0010                	.insn	2, 0x0010
    394e:	21100003          	lb	x0,529(x0) # 0x211
    3952:	8000                	.insn	2, 0x8000
	...
    3960:	0288                	c.addi4spn	x10,x2,320
    3962:	0000                	c.unimp
    3964:	0010                	.insn	2, 0x0010
    3966:	21100003          	lb	x0,529(x0) # 0x211
    396a:	8000                	.insn	2, 0x8000
	...
    3978:	028e                	c.slli	x5,0x3
    397a:	0000                	c.unimp
    397c:	0010                	.insn	2, 0x0010
    397e:	b0000003          	lb	x0,-1280(x0) # 0xfffffffffffffb00
    3982:	8000                	.insn	2, 0x8000
	...
    3990:	029a                	c.slli	x5,0x6
    3992:	0000                	c.unimp
    3994:	0010                	.insn	2, 0x0010
    3996:	30000003          	lb	x0,768(x0) # 0x300
    399a:	8000                	.insn	2, 0x8000
	...
    39a8:	02a5                	c.addi	x5,9
    39aa:	0000                	c.unimp
    39ac:	0010                	.insn	2, 0x0010
    39ae:	0001                	c.addi	x0,0
    39b0:	0040                	c.addi4spn	x8,x2,4
    39b2:	8000                	.insn	2, 0x8000
	...
    39c0:	00000327          	.insn	4, 0x0327
    39c4:	0010                	.insn	2, 0x0010
    39c6:	b0000003          	lb	x0,-1280(x0) # 0xfffffffffffffb00
    39ca:	8000                	.insn	2, 0x8000
	...
    39d8:	0000026b          	.insn	4, 0x026b
    39dc:	0010                	.insn	2, 0x0010
    39de:	0001                	c.addi	x0,0
    39e0:	0cdc                	c.addi4spn	x15,x2,596
    39e2:	8000                	.insn	2, 0x8000
	...
    39f0:	02b8                	c.addi4spn	x14,x2,328
    39f2:	0000                	c.unimp
    39f4:	0010                	.insn	2, 0x0010
    39f6:	20000003          	lb	x0,512(x0) # 0x200
    39fa:	8000                	.insn	2, 0x8000
	...
    3a08:	0276                	c.slli	x4,0x1d
    3a0a:	0000                	c.unimp
    3a0c:	0012                	c.slli	x0,0x4
    3a0e:	0001                	c.addi	x0,0
    3a10:	0000                	c.unimp
    3a12:	8000                	.insn	2, 0x8000
	...
    3a20:	02c8                	c.addi4spn	x10,x2,324
    3a22:	0000                	c.unimp
    3a24:	0010                	.insn	2, 0x0010
    3a26:	fff1                	c.bnez	x15,0x3a02
	...
    3a38:	02d6                	c.slli	x5,0x15
    3a3a:	0000                	c.unimp
    3a3c:	0010                	.insn	2, 0x0010
    3a3e:	0001                	c.addi	x0,0
    3a40:	0040                	c.addi4spn	x8,x2,4
    3a42:	8000                	.insn	2, 0x8000
	...
    3a50:	02e2                	c.slli	x5,0x18
    3a52:	0000                	c.unimp
    3a54:	0010                	.insn	2, 0x0010
    3a56:	0001                	c.addi	x0,0
    3a58:	0c50                	c.addi4spn	x12,x2,532
    3a5a:	8000                	.insn	2, 0x8000
	...
    3a68:	02f2                	c.slli	x5,0x1c
    3a6a:	0000                	c.unimp
    3a6c:	0010                	.insn	2, 0x0010
    3a6e:	0001                	c.addi	x0,0
    3a70:	0420                	c.addi4spn	x8,x2,520
    3a72:	8000                	.insn	2, 0x8000
	...
    3a80:	0304                	c.addi4spn	x9,x2,384
    3a82:	0000                	c.unimp
    3a84:	0212                	c.slli	x4,0x4
    3a86:	0001                	c.addi	x0,0
    3a88:	0010                	.insn	2, 0x0010
    3a8a:	8000                	.insn	2, 0x8000
    3a8c:	0000                	c.unimp
    3a8e:	0000                	c.unimp
    3a90:	0014                	.insn	2, 0x0014
    3a92:	0000                	c.unimp
    3a94:	0000                	c.unimp
    3a96:	0000                	c.unimp
    3a98:	0309                	c.addi	x6,2
    3a9a:	0000                	c.unimp
    3a9c:	0010                	.insn	2, 0x0010
    3a9e:	10000003          	lb	x0,256(x0) # 0x100
    3aa2:	8000                	.insn	2, 0x8000
	...
    3ab0:	0000031b          	addiw	x6,x0,0
    3ab4:	0010                	.insn	2, 0x0010
    3ab6:	20000003          	lb	x0,512(x0) # 0x200
    3aba:	8000                	.insn	2, 0x8000
	...
    3ac8:	00ba                	c.slli	x1,0xe
    3aca:	0000                	c.unimp
    3acc:	0010                	.insn	2, 0x0010
    3ace:	21100003          	lb	x0,529(x0) # 0x211
    3ad2:	8000                	.insn	2, 0x8000
	...
    3ae0:	0000032b          	.insn	4, 0x032b
    3ae4:	0010                	.insn	2, 0x0010
    3ae6:	0001                	c.addi	x0,0
    3ae8:	0c50                	c.addi4spn	x12,x2,532
    3aea:	8000                	.insn	2, 0x8000
	...
    3af8:	0326                	c.slli	x6,0x9
    3afa:	0000                	c.unimp
    3afc:	0010                	.insn	2, 0x0010
    3afe:	b0000003          	lb	x0,-1280(x0) # 0xfffffffffffffb00
    3b02:	8000                	.insn	2, 0x8000
	...
    3b10:	0000033b          	addw	x6,x0,x0
    3b14:	0212                	c.slli	x4,0x4
    3b16:	0001                	c.addi	x0,0
    3b18:	0cb0                	c.addi4spn	x12,x2,600
    3b1a:	8000                	.insn	2, 0x8000
    3b1c:	0000                	c.unimp
    3b1e:	0000                	c.unimp
    3b20:	000c                	.insn	2, 0x000c
    3b22:	0000                	c.unimp
    3b24:	0000                	c.unimp
    3b26:	0000                	c.unimp
    3b28:	7300                	c.ld	x8,32(x14)
    3b2a:	6174                	c.ld	x13,192(x10)
    3b2c:	7472                	c.ldsp	x8,312(x2)
    3b2e:	6f2e                	c.ldsp	x30,200(x2)
    3b30:	2400                	c.fld	f8,8(x8)
    3b32:	0078                	c.addi4spn	x14,x2,12
    3b34:	616d                	c.addi16sp	x2,240
    3b36:	6e69                	c.lui	x28,0x1a
    3b38:	632e                	c.ldsp	x6,200(x2)
    3b3a:	6c00                	c.ld	x8,24(x8)
    3b3c:	612d7577          	.insn	4, 0x612d7577
    3b40:	696c                	c.ld	x11,208(x10)
    3b42:	302d6e67          	.insn	4, 0x302d6e67
    3b46:	2e31                	c.addiw	x28,12 # 0x1a00c
    3b48:	4d4d006f          	jal	x0,0xd401c
    3b4c:	5f45444f          	.insn	4, 0x5f45444f
    3b50:	00474953          	fadd.s	f18,f14,f4,rmm
    3b54:	444f4d53          	.insn	4, 0x444f4d53
    3b58:	5f45                	c.li	x30,-15
    3b5a:	00474953          	fadd.s	f18,f14,f4,rmm
    3b5e:	4d56                	c.lwsp	x26,84(x2)
    3b60:	5f45444f          	.insn	4, 0x5f45444f
    3b64:	00474953          	fadd.s	f18,f14,f4,rmm
    3b68:	6d69                	c.lui	x26,0x1a
    3b6a:	786d                	c.lui	x16,0xffffb
    3b6c:	6500                	c.ld	x8,8(x10)
    3b6e:	6764                	c.ld	x9,200(x14)
    3b70:	3165                	c.addiw	x2,-7 # 0xfffffffffffffff9
    3b72:	6500                	c.ld	x8,8(x10)
    3b74:	6764                	c.ld	x9,200(x14)
    3b76:	3265                	c.addiw	x4,-7 # 0xfffffffffffffff9
    3b78:	6600                	c.ld	x8,8(x12)
    3b7a:	646e                	c.ldsp	x8,216(x2)
    3b7c:	0031                	c.addi	x0,12
    3b7e:	6e66                	c.ldsp	x28,88(x2)
    3b80:	3264                	c.fld	f9,224(x12)
    3b82:	6900                	c.ld	x8,16(x10)
    3b84:	6d6d                	c.lui	x26,0x1b
    3b86:	0065                	c.addi	x0,25
    3b88:	6f70                	c.ld	x12,216(x14)
    3b8a:	62610073          	.insn	4, 0x62610073
    3b8e:	6d6d6973          	csrrsi	x18,0x6d6,26
    3b92:	6300                	c.ld	x8,0(x14)
    3b94:	7972                	c.ldsp	x18,312(x2)
    3b96:	6900                	c.ld	x8,16(x10)
    3b98:	6d6d                	c.lui	x26,0x1b
    3b9a:	3231                	c.addiw	x4,-20 # 0xffffffffffffffec
    3b9c:	6500                	c.ld	x8,8(x10)
    3b9e:	6576                	c.ldsp	x10,344(x2)
    3ba0:	006e                	c.slli	x0,0x1b
    3ba2:	68797263          	bgeu	x18,x7,0x4226
    3ba6:	6900                	c.ld	x8,16(x10)
    3ba8:	6d6d                	c.lui	x26,0x1b
    3baa:	7378                	c.ld	x14,224(x14)
    3bac:	0068                	c.addi4spn	x10,x2,12
    3bae:	6d69                	c.lui	x26,0x1a
    3bb0:	316d                	c.addiw	x2,-5
    3bb2:	7332                	c.ldsp	x6,296(x2)
    3bb4:	0068                	c.addi4spn	x10,x2,12
    3bb6:	73797263          	bgeu	x18,x23,0x42da
    3bba:	0068                	c.addi4spn	x10,x2,12
    3bbc:	6261                	c.lui	x4,0x18
    3bbe:	6d6d6973          	csrrsi	x18,0x6d6,26
    3bc2:	73006873          	csrrsi	x16,mhpmevent16h,0
    3bc6:	6769                	c.lui	x14,0x1a
    3bc8:	616e                	c.ldsp	x2,216(x2)
    3bca:	7574                	c.ld	x13,232(x10)
    3bcc:	6572                	c.ldsp	x10,280(x2)
    3bce:	785f 3431 315f      	.insn	6, 0x315f3431785f
    3bd4:	6900                	c.ld	x8,16(x10)
    3bd6:	736e                	c.ldsp	x6,248(x2)
    3bd8:	5f74                	c.lw	x13,124(x14)
    3bda:	0030                	c.addi4spn	x12,x2,8
    3bdc:	7672                	c.ldsp	x12,312(x2)
    3bde:	6574                	c.ld	x13,200(x10)
    3be0:	645f7473          	csrrci	x8,hvip,30
    3be4:	7461                	c.lui	x8,0xffff8
    3be6:	0061                	c.addi	x0,24
    3be8:	6e69                	c.lui	x28,0x1a
    3bea:	315f7473          	csrrci	x8,0x315,30
    3bee:	6900                	c.ld	x8,16(x10)
    3bf0:	736e                	c.ldsp	x6,248(x2)
    3bf2:	5f74                	c.lw	x13,124(x14)
    3bf4:	0032                	c.slli	x0,0xc
    3bf6:	6e69                	c.lui	x28,0x1a
    3bf8:	335f7473          	csrrci	x8,mhpmevent21,30
    3bfc:	6900                	c.ld	x8,16(x10)
    3bfe:	736e                	c.ldsp	x6,248(x2)
    3c00:	5f74                	c.lw	x13,124(x14)
    3c02:	0034                	c.addi4spn	x13,x2,8
    3c04:	6e69                	c.lui	x28,0x1a
    3c06:	355f7473          	csrrci	x8,0x355,30
    3c0a:	6900                	c.ld	x8,16(x10)
    3c0c:	736e                	c.ldsp	x6,248(x2)
    3c0e:	5f74                	c.lw	x13,124(x14)
    3c10:	0036                	c.slli	x0,0xd
    3c12:	6e69                	c.lui	x28,0x1a
    3c14:	375f7473          	csrrci	x8,0x375,30
    3c18:	6900                	c.ld	x8,16(x10)
    3c1a:	736e                	c.ldsp	x6,248(x2)
    3c1c:	5f74                	c.lw	x13,124(x14)
    3c1e:	0038                	c.addi4spn	x14,x2,8
    3c20:	6e69                	c.lui	x28,0x1a
    3c22:	395f7473          	csrrci	x8,0x395,30
    3c26:	6900                	c.ld	x8,16(x10)
    3c28:	736e                	c.ldsp	x6,248(x2)
    3c2a:	5f74                	c.lw	x13,124(x14)
    3c2c:	3031                	.insn	2, 0x3031
    3c2e:	6900                	c.ld	x8,16(x10)
    3c30:	736e                	c.ldsp	x6,248(x2)
    3c32:	5f74                	c.lw	x13,124(x14)
    3c34:	3131                	c.addiw	x2,-20
    3c36:	6900                	c.ld	x8,16(x10)
    3c38:	736e                	c.ldsp	x6,248(x2)
    3c3a:	5f74                	c.lw	x13,124(x14)
    3c3c:	3231                	c.addiw	x4,-20 # 0x17fec
    3c3e:	6900                	c.ld	x8,16(x10)
    3c40:	736e                	c.ldsp	x6,248(x2)
    3c42:	5f74                	c.lw	x13,124(x14)
    3c44:	3331                	c.addiw	x6,-20
    3c46:	6900                	c.ld	x8,16(x10)
    3c48:	736e                	c.ldsp	x6,248(x2)
    3c4a:	5f74                	c.lw	x13,124(x14)
    3c4c:	3431                	c.addiw	x8,-20 # 0xffffffffffff7fec
    3c4e:	6900                	c.ld	x8,16(x10)
    3c50:	736e                	c.ldsp	x6,248(x2)
    3c52:	5f74                	c.lw	x13,124(x14)
    3c54:	3531                	c.addiw	x10,-20
    3c56:	6900                	c.ld	x8,16(x10)
    3c58:	736e                	c.ldsp	x6,248(x2)
    3c5a:	5f74                	c.lw	x13,124(x14)
    3c5c:	3631                	c.addiw	x12,-20
    3c5e:	6900                	c.ld	x8,16(x10)
    3c60:	736e                	c.ldsp	x6,248(x2)
    3c62:	5f74                	c.lw	x13,124(x14)
    3c64:	3731                	c.addiw	x14,-20 # 0x19fec
    3c66:	6900                	c.ld	x8,16(x10)
    3c68:	736e                	c.ldsp	x6,248(x2)
    3c6a:	5f74                	c.lw	x13,124(x14)
    3c6c:	3831                	c.addiw	x16,-20 # 0xffffffffffffafec
    3c6e:	6900                	c.ld	x8,16(x10)
    3c70:	736e                	c.ldsp	x6,248(x2)
    3c72:	5f74                	c.lw	x13,124(x14)
    3c74:	3931                	c.addiw	x18,-20
    3c76:	6900                	c.ld	x8,16(x10)
    3c78:	736e                	c.ldsp	x6,248(x2)
    3c7a:	5f74                	c.lw	x13,124(x14)
    3c7c:	3032                	c.fldsp	f0,296(x2)
    3c7e:	6900                	c.ld	x8,16(x10)
    3c80:	736e                	c.ldsp	x6,248(x2)
    3c82:	5f74                	c.lw	x13,124(x14)
    3c84:	3132                	c.fldsp	f2,296(x2)
    3c86:	7300                	c.ld	x8,32(x14)
    3c88:	6769                	c.lui	x14,0x1a
    3c8a:	616e                	c.ldsp	x2,216(x2)
    3c8c:	7574                	c.ld	x13,232(x10)
    3c8e:	6572                	c.ldsp	x10,280(x2)
    3c90:	785f 5f32 0030      	.insn	6, 0x00305f32785f
    3c96:	6e69                	c.lui	x28,0x1a
    3c98:	325f7473          	csrrci	x8,mhpmevent5,30
    3c9c:	0032                	c.slli	x0,0xc
    3c9e:	6e69                	c.lui	x28,0x1a
    3ca0:	325f7473          	csrrci	x8,mhpmevent5,30
    3ca4:	6e690033          	.insn	4, 0x6e690033
    3ca8:	325f7473          	csrrci	x8,mhpmevent5,30
    3cac:	0034                	c.addi4spn	x13,x2,8
    3cae:	6e69                	c.lui	x28,0x1a
    3cb0:	325f7473          	csrrci	x8,mhpmevent5,30
    3cb4:	0035                	c.addi	x0,13
    3cb6:	6e69                	c.lui	x28,0x1a
    3cb8:	325f7473          	csrrci	x8,mhpmevent5,30
    3cbc:	0036                	c.slli	x0,0xd
    3cbe:	6e69                	c.lui	x28,0x1a
    3cc0:	325f7473          	csrrci	x8,mhpmevent5,30
    3cc4:	6e690037          	lui	x0,0x6e690
    3cc8:	325f7473          	csrrci	x8,mhpmevent5,30
    3ccc:	0038                	c.addi4spn	x14,x2,8
    3cce:	6e69                	c.lui	x28,0x1a
    3cd0:	325f7473          	csrrci	x8,mhpmevent5,30
    3cd4:	0039                	c.addi	x0,14
    3cd6:	6e69                	c.lui	x28,0x1a
    3cd8:	335f7473          	csrrci	x8,mhpmevent21,30
    3cdc:	0030                	c.addi4spn	x12,x2,8
    3cde:	6e69                	c.lui	x28,0x1a
    3ce0:	335f7473          	csrrci	x8,mhpmevent21,30
    3ce4:	0031                	c.addi	x0,12
    3ce6:	7865                	c.lui	x16,0xffff9
    3ce8:	7469                	c.lui	x8,0xffffa
    3cea:	635f 656c 6e61      	.insn	6, 0x6e61656c635f
    3cf0:	7075                	c.lui	x0,0xffffd
    3cf2:	6100                	c.ld	x8,0(x10)
    3cf4:	6f62                	c.ldsp	x30,24(x2)
    3cf6:	7472                	c.ldsp	x8,312(x2)
    3cf8:	745f 7365 7374      	.insn	6, 0x73747365745f
    3cfe:	6d00                	c.ld	x8,24(x10)
    3d00:	7274                	c.ld	x13,224(x12)
    3d02:	7061                	c.lui	x0,0xffff8
    3d04:	735f 6769 7470      	.insn	6, 0x74706769735f
    3d0a:	0072                	c.slli	x0,0x1c
    3d0c:	7672                	c.ldsp	x12,312(x2)
    3d0e:	6574                	c.ld	x13,200(x10)
    3d10:	735f7473          	csrrci	x8,mhpmevent21h,30
    3d14:	6769                	c.lui	x14,0x1a
    3d16:	625f 6765 6e69      	.insn	6, 0x6e696765625f
    3d1c:	7300                	c.ld	x8,32(x14)
    3d1e:	6769                	c.lui	x14,0x1a
    3d20:	625f 6765 6e69      	.insn	6, 0x6e696765625f
    3d26:	635f 6e61 7261      	.insn	6, 0x72616e61635f
    3d2c:	0079                	c.addi	x0,30
    3d2e:	6e676973          	csrrsi	x18,0x6e6,14
    3d32:	7461                	c.lui	x8,0xffff8
    3d34:	7275                	c.lui	x4,0xffffd
    3d36:	5f65                	c.li	x30,-7
    3d38:	3178                	c.fld	f14,224(x10)
    3d3a:	5f34                	c.lw	x13,120(x14)
    3d3c:	0030                	c.addi4spn	x12,x2,8
    3d3e:	5f676973          	csrrsi	x18,0x5f6,14
    3d42:	6e65                	c.lui	x28,0x19
    3d44:	5f64                	c.lw	x9,124(x14)
    3d46:	616e6163          	bltu	x28,x22,0x4348
    3d4a:	7972                	c.ldsp	x18,312(x2)
    3d4c:	7200                	c.ld	x8,32(x12)
    3d4e:	7476                	c.ldsp	x8,376(x2)
    3d50:	7365                	c.lui	x6,0xffff9
    3d52:	5f74                	c.lw	x13,124(x14)
    3d54:	5f676973          	csrrsi	x18,0x5f6,14
    3d58:	6e65                	c.lui	x28,0x19
    3d5a:	0064                	c.addi4spn	x9,x2,12
    3d5c:	7274                	c.ld	x13,224(x12)
    3d5e:	2e6d                	c.addiw	x28,27 # 0x1901b
    3d60:	616d0063          	beq	x26,x22,0x4360
    3d64:	6e69                	c.lui	x28,0x1a
    3d66:	7261                	c.lui	x4,0xffff8
    3d68:	5f007367          	.insn	4, 0x5f007367
    3d6c:	7274                	c.ld	x13,224(x12)
    3d6e:	5f6d                	c.li	x30,-5
    3d70:	6e69                	c.lui	x28,0x1a
    3d72:	7469                	c.lui	x8,0xffffa
    3d74:	5f00                	c.lw	x8,56(x14)
    3d76:	63617473          	csrrci	x8,0x636,2
    3d7a:	6f705f6b          	.insn	4, 0x6f705f6b
    3d7e:	6e69                	c.lui	x28,0x1a
    3d80:	6574                	c.ld	x13,200(x10)
    3d82:	0072                	c.slli	x0,0x1c
    3d84:	6e65                	c.lui	x28,0x19
    3d86:	5f64                	c.lw	x9,124(x14)
    3d88:	6e676973          	csrrsi	x18,0x6e6,14
    3d8c:	7461                	c.lui	x8,0xffff8
    3d8e:	7275                	c.lui	x4,0xffffd
    3d90:	0065                	c.addi	x0,25
    3d92:	655f 6574 7478      	.insn	6, 0x74786574655f
    3d98:	5f00                	c.lw	x8,56(x14)
    3d9a:	6d70                	c.ld	x12,216(x10)
    3d9c:	6d65                	c.lui	x26,0x19
    3d9e:	735f 6174 7472      	.insn	6, 0x74726174735f
    3da4:	5f00                	c.lw	x8,56(x14)
    3da6:	7362                	c.ldsp	x6,56(x2)
    3da8:	74735f73          	csrrwi	x30,mseccfg,6
    3dac:	7261                	c.lui	x4,0xffff8
    3dae:	0074                	c.addi4spn	x13,x2,12
    3db0:	6465                	c.lui	x8,0x19
    3db2:	7461                	c.lui	x8,0xffff8
    3db4:	0061                	c.addi	x0,24
    3db6:	685f 6165 5f70      	.insn	6, 0x5f706165685f
    3dbc:	72617473          	csrrci	x8,mhpmevent6h,2
    3dc0:	0074                	c.addi4spn	x13,x2,12
    3dc2:	735f 6174 6b63      	.insn	6, 0x6b636174735f
    3dc8:	745f 706f 7200      	.insn	6, 0x7200706f745f
    3dce:	7476                	c.ldsp	x8,376(x2)
    3dd0:	7365                	c.lui	x6,0xffff9
    3dd2:	5f74                	c.lw	x13,124(x14)
    3dd4:	6e65                	c.lui	x28,0x19
    3dd6:	7274                	c.ld	x13,224(x12)
    3dd8:	5f79                	c.li	x30,-2
    3dda:	6f70                	c.ld	x12,216(x14)
    3ddc:	6e69                	c.lui	x28,0x1a
    3dde:	0074                	c.addi4spn	x13,x2,12
    3de0:	6562                	c.ldsp	x10,24(x2)
    3de2:	5f6e6967          	.insn	4, 0x5f6e6967
    3de6:	6e676973          	csrrsi	x18,0x6e6,14
    3dea:	7461                	c.lui	x8,0xffff8
    3dec:	7275                	c.lui	x4,0xffffd
    3dee:	0065                	c.addi	x0,25
    3df0:	655f 746e 7972      	.insn	6, 0x7972746e655f
    3df6:	6f5f 6666 6573      	.insn	6, 0x657366666f5f
    3dfc:	0074                	c.addi4spn	x13,x2,12
    3dfe:	7672                	c.ldsp	x12,312(x2)
    3e00:	6574                	c.ld	x13,200(x10)
    3e02:	695f7473          	csrrci	x8,0x695,30
    3e06:	696e                	c.ldsp	x18,216(x2)
    3e08:	0074                	c.addi4spn	x13,x2,12
    3e0a:	7672                	c.ldsp	x12,312(x2)
    3e0c:	6574                	c.ld	x13,200(x10)
    3e0e:	635f7473          	csrrci	x8,0x635,30
    3e12:	5f65646f          	jal	x8,0x5a408
    3e16:	6e65                	c.lui	x28,0x19
    3e18:	0064                	c.addi4spn	x9,x2,12
    3e1a:	7672                	c.ldsp	x12,312(x2)
    3e1c:	6574                	c.ld	x13,200(x10)
    3e1e:	635f7473          	csrrci	x8,0x635,30
    3e22:	5f65646f          	jal	x8,0x5a418
    3e26:	6562                	c.ldsp	x10,24(x2)
    3e28:	006e6967          	.insn	4, 0x006e6967
    3e2c:	616d                	c.addi16sp	x2,240
    3e2e:	6e69                	c.lui	x28,0x1a
    3e30:	7200                	c.ld	x8,32(x12)
    3e32:	7476                	c.ldsp	x8,376(x2)
    3e34:	7365                	c.lui	x6,0xffff9
    3e36:	5f74                	c.lw	x13,124(x14)
    3e38:	6164                	c.ld	x9,192(x10)
    3e3a:	6174                	c.ld	x13,192(x10)
    3e3c:	625f 6765 6e69      	.insn	6, 0x6e696765625f
    3e42:	7200                	c.ld	x8,32(x12)
    3e44:	7476                	c.ldsp	x8,376(x2)
    3e46:	7365                	c.lui	x6,0xffff9
    3e48:	5f74                	c.lw	x13,124(x14)
    3e4a:	6164                	c.ld	x9,192(x10)
    3e4c:	6174                	c.ld	x13,192(x10)
    3e4e:	655f 646e 6300      	.insn	6, 0x6300646e655f
    3e54:	656c                	c.ld	x11,200(x10)
    3e56:	6e61                	c.lui	x28,0x18
    3e58:	7075                	c.lui	x0,0xffffd
    3e5a:	655f 6970 6f6c      	.insn	6, 0x6f6c6970655f
    3e60:	68007367          	.insn	4, 0x68007367
    3e64:	6c61                	c.lui	x24,0x18
    3e66:	0074                	c.addi4spn	x13,x2,12
    3e68:	2e00                	c.fld	f8,24(x12)
    3e6a:	746d7973          	csrrci	x18,0x746,26
    3e6e:	6261                	c.lui	x4,0x18
    3e70:	2e00                	c.fld	f8,24(x12)
    3e72:	74727473          	csrrci	x8,mseccfg,4
    3e76:	6261                	c.lui	x4,0x18
    3e78:	2e00                	c.fld	f8,24(x12)
    3e7a:	74736873          	csrrsi	x16,mseccfg,6
    3e7e:	7472                	c.ldsp	x8,312(x2)
    3e80:	6261                	c.lui	x4,0x18
    3e82:	2e00                	c.fld	f8,24(x12)
    3e84:	6574                	c.ld	x13,200(x10)
    3e86:	7478                	c.ld	x14,232(x8)
    3e88:	2e00                	c.fld	f8,24(x12)
    3e8a:	646f7273          	csrrci	x4,hviprio1,30
    3e8e:	7461                	c.lui	x8,0xffff8
    3e90:	2e61                	c.addiw	x28,24 # 0x18018
    3e92:	616d                	c.addi16sp	x2,240
    3e94:	6e69                	c.lui	x28,0x1a
    3e96:	7261                	c.lui	x4,0xffff8
    3e98:	2e007367          	.insn	4, 0x2e007367
    3e9c:	6164                	c.ld	x9,192(x10)
    3e9e:	6174                	c.ld	x13,192(x10)
    3ea0:	2e00                	c.fld	f8,24(x12)
    3ea2:	6d6d6f63          	bltu	x26,x22,0x4580
    3ea6:	6e65                	c.lui	x28,0x19
    3ea8:	0074                	c.addi4spn	x13,x2,12
    3eaa:	722e                	c.ldsp	x4,232(x2)
    3eac:	7369                	c.lui	x6,0xffffa
    3eae:	612e7663          	bgeu	x28,x18,0x44ba
    3eb2:	7474                	c.ld	x13,232(x8)
    3eb4:	6972                	c.ldsp	x18,280(x2)
    3eb6:	7562                	c.ldsp	x10,56(x2)
    3eb8:	6574                	c.ld	x13,200(x10)
    3eba:	00000073          	ecall
	...
    3efe:	0000                	c.unimp
    3f00:	0000001b          	addiw	x0,x0,0
    3f04:	0001                	c.addi	x0,0
    3f06:	0000                	c.unimp
    3f08:	0006                	c.slli	x0,0x1
	...
    3f12:	8000                	.insn	2, 0x8000
    3f14:	0000                	c.unimp
    3f16:	0000                	c.unimp
    3f18:	1000                	c.addi4spn	x8,x2,32
    3f1a:	0000                	c.unimp
    3f1c:	0000                	c.unimp
    3f1e:	0000                	c.unimp
    3f20:	0cdc                	c.addi4spn	x15,x2,596
	...
    3f2e:	0000                	c.unimp
    3f30:	0020                	c.addi4spn	x8,x2,8
	...
    3f3e:	0000                	c.unimp
    3f40:	0021                	c.addi	x0,8
    3f42:	0000                	c.unimp
    3f44:	0001                	c.addi	x0,0
    3f46:	0000                	c.unimp
    3f48:	0002                	c.slli64	x0
    3f4a:	0000                	c.unimp
    3f4c:	0000                	c.unimp
    3f4e:	0000                	c.unimp
    3f50:	0ce0                	c.addi4spn	x8,x2,604
    3f52:	8000                	.insn	2, 0x8000
    3f54:	0000                	c.unimp
    3f56:	0000                	c.unimp
    3f58:	1ce0                	c.addi4spn	x8,x2,636
    3f5a:	0000                	c.unimp
    3f5c:	0000                	c.unimp
    3f5e:	0000                	c.unimp
    3f60:	0001                	c.addi	x0,0
	...
    3f6e:	0000                	c.unimp
    3f70:	0008                	.insn	2, 0x0008
	...
    3f7e:	0000                	c.unimp
    3f80:	00000033          	add	x0,x0,x0
    3f84:	0001                	c.addi	x0,0
    3f86:	0000                	c.unimp
    3f88:	00000003          	lb	x0,0(x0) # 0x0
    3f8c:	0000                	c.unimp
    3f8e:	0000                	c.unimp
    3f90:	1000                	c.addi4spn	x8,x2,32
    3f92:	8000                	.insn	2, 0x8000
    3f94:	0000                	c.unimp
    3f96:	0000                	c.unimp
    3f98:	2000                	c.fld	f8,0(x8)
    3f9a:	0000                	c.unimp
    3f9c:	0000                	c.unimp
    3f9e:	0000                	c.unimp
    3fa0:	1110                	c.addi4spn	x12,x2,160
	...
    3fae:	0000                	c.unimp
    3fb0:	1000                	c.addi4spn	x8,x2,32
	...
    3fbe:	0000                	c.unimp
    3fc0:	0039                	c.addi	x0,14
    3fc2:	0000                	c.unimp
    3fc4:	0001                	c.addi	x0,0
    3fc6:	0000                	c.unimp
    3fc8:	0030                	c.addi4spn	x12,x2,8
	...
    3fd6:	0000                	c.unimp
    3fd8:	3110                	c.fld	f12,32(x10)
    3fda:	0000                	c.unimp
    3fdc:	0000                	c.unimp
    3fde:	0000                	c.unimp
    3fe0:	0026                	c.slli	x0,0x9
	...
    3fee:	0000                	c.unimp
    3ff0:	0001                	c.addi	x0,0
    3ff2:	0000                	c.unimp
    3ff4:	0000                	c.unimp
    3ff6:	0000                	c.unimp
    3ff8:	0001                	c.addi	x0,0
    3ffa:	0000                	c.unimp
    3ffc:	0000                	c.unimp
    3ffe:	0000                	c.unimp
    4000:	0042                	c.slli	x0,0x10
    4002:	0000                	c.unimp
    4004:	70000003          	lb	x0,1792(x0) # 0x700
	...
    4018:	3136                	c.fldsp	f2,360(x2)
    401a:	0000                	c.unimp
    401c:	0000                	c.unimp
    401e:	0000                	c.unimp
    4020:	002e                	c.slli	x0,0xb
	...
    402e:	0000                	c.unimp
    4030:	0001                	c.addi	x0,0
	...
    403e:	0000                	c.unimp
    4040:	0001                	c.addi	x0,0
    4042:	0000                	c.unimp
    4044:	0002                	c.slli64	x0
	...
    4056:	0000                	c.unimp
    4058:	3168                	c.fld	f10,224(x10)
    405a:	0000                	c.unimp
    405c:	0000                	c.unimp
    405e:	0000                	c.unimp
    4060:	09c0                	c.addi4spn	x8,x2,212
    4062:	0000                	c.unimp
    4064:	0000                	c.unimp
    4066:	0000                	c.unimp
    4068:	00000007          	.insn	4, 0x0007
    406c:	0000004f          	fnmadd.s	f0,f0,f0,f0,rne
    4070:	0008                	.insn	2, 0x0008
    4072:	0000                	c.unimp
    4074:	0000                	c.unimp
    4076:	0000                	c.unimp
    4078:	0018                	.insn	2, 0x0018
    407a:	0000                	c.unimp
    407c:	0000                	c.unimp
    407e:	0000                	c.unimp
    4080:	0009                	c.addi	x0,2
    4082:	0000                	c.unimp
    4084:	00000003          	lb	x0,0(x0) # 0x0
	...
    4098:	3b28                	c.fld	f10,112(x14)
    409a:	0000                	c.unimp
    409c:	0000                	c.unimp
    409e:	0000                	c.unimp
    40a0:	0340                	c.addi4spn	x8,x2,388
	...
    40ae:	0000                	c.unimp
    40b0:	0001                	c.addi	x0,0
	...
    40be:	0000                	c.unimp
    40c0:	0011                	c.addi	x0,4
    40c2:	0000                	c.unimp
    40c4:	00000003          	lb	x0,0(x0) # 0x0
	...
    40d8:	3e68                	c.fld	f10,248(x12)
    40da:	0000                	c.unimp
    40dc:	0000                	c.unimp
    40de:	0000                	c.unimp
    40e0:	0054                	c.addi4spn	x13,x2,4
	...
    40ee:	0000                	c.unimp
    40f0:	0001                	c.addi	x0,0
	...
