
bin/riscv-arch-test/sd-align-riscv64-nemu.bin:     file format binary

Contents of section .data:
 80000000 13040000 17c10000 1301c1ff ef10805e  ...............^
 80000010 ef000003 13051000 ef10005d 13050000  ...........]....
 80000020 67800000 00000000 00000000 00000000  g...............
 80000030 00000000 00000000 00000000 00000000  ................
 80000040 b7c0edfe 9380d0ea 9390b000 9380707f  ..............p.
 80000050 9390b000 9380f036 9390a000 9380d02a  .......6.......*
 80000060 37e176ff 130161f5 1311b100 1301b17f  7.v...a.........
 80000070 1311b100 1301715b 1311a100 13016135  ......q[......a5
 80000080 b771bb7f 9381b1fa 9391b100 9381d13f  .q.............?
 80000090 9391b100 9381b16d 9391a100 9381b13a  .......m.......:
 800000a0 37b2ddbf 1302527d 1312b200 1302e25f  7.....R}......._
 800000b0 1312b200 1302d276 1312a200 1302523d  .......v......R=
 800000c0 b7e2eedf 9382a2be 9392b200 9382f26f  ...............o
 800000d0 9392b200 9382623b 9392a200 9382a23e  ......b;.......>
 800000e0 3773f76f 130353df 1313b300 1303f337  7s.o..S........7
 800000f0 1313b300 1303b35d 1313a300 1303531f  .......]......S.
 80000100 b7b3fbb7 9383a36f 9393b300 9383f35b  .......o.......[
 80000110 9393b300 9383d36e 9393a300 9383a32f  .......n......./
 80000120 37e4fd5b 1304d4b7 1314b400 1304f42d  7..[...........-
 80000130 1314b400 13046477 1314a400 1304d437  ......dw.......7
 80000140 b7f4fead 9384e4db 9394b400 9384f456  ...............V
 80000150 9394b400 9384b47b 9394a400 9384e41b  .......{........
 80000160 3775ff56 1305f56d 1315b500 1305752b  7u.V...m......u+
 80000170 1315b500 1305d57d 1315a500 1305f52d  .......}.......-
 80000180 b7c57fab 9385f5b6 9395b500 9385b555  ...............U
 80000190 9395b500 9385e57e 9395a500 9385f536  .......~.......6
 800001a0 37e6bfd5 130676db 1316b600 1306d66a  7.....v........j
 800001b0 1316b600 1306767f 1316a600 1306761b  ......v.......v.
 800001c0 b7f6dfea 9386b6ed 9396b600 93866675  ..............fu
 800001d0 9396b600 9386b67f 9396a600 9386b62d  ...............-
 800001e0 37f76ff5 1307d776 1317b700 1307b77a  7.o....v.......z
 800001f0 1317b700 1307d73f 1317a700 1307d736  .......?.......6
 80000200 b707b8fa 938767bb 9397b700 9387577d  ......g.......W}
 80000210 9397b700 9387e75f 9397a700 9387673b  ......._......g;
 80000220 37085c7d 1308b8dd 1318b800 1308a83e  7.\}...........>
 80000230 1318b800 1308f86f 1318a800 1308b81d  .......o........
 80000240 b708aebe 9388d8ee 9398b800 9388585f  ..............X_
 80000250 9398b800 9388f837 9398a800 9388d82e  .......7........
 80000260 370957df 130969f7 1319b900 1309a96f  7.W...i........o
 80000270 1319b900 1309f95b 1319a900 13096937  .......[......i7
 80000280 b789ab6f 9389b9fb 9399b900 9389d937  ...o...........7
 80000290 9399b900 9389f92d 9399a900 9389b93b  .......-.......;
 800002a0 37cad5b7 130adafd 131aba00 130aea5b  7..............[
 800002b0 131aba00 130afa56 131aaa00 130ada3d  .......V.......=
 800002c0 b7eaeadb 938aeafe 939aba00 938afa6d  ...............m
 800002d0 939aba00 938a7a2b 939aaa00 938aea3e  ......z+.......>
 800002e0 377bf56d 130b7bff 131bbb00 130bfb36  7{.m..{........6
 800002f0 131bbb00 130bbb55 131bab00 130b7b3f  .......U......{?
 80000300 b7bbfab6 938bbb7f 939bbb00 938b7b5b  ..............{[
 80000310 939bbb00 938bdb6a 939bab00 938bbb3f  .......j.......?
 80000320 376c7ddb 130cdcbf 131cbc00 130cbc6d  7l}............m
 80000330 131cbc00 130c6c75 131cac00 130cdc3f  ......lu.......?
 80000340 b7bcbeed 938cecdf 939cbc00 938cdc76  ...............v
 80000350 939cbc00 938cbc7a 939cac00 938cec1f  .......z........
 80000360 375ddf76 130dfd6f 131dbd00 130d6d3b  7].v...o......m;
 80000370 131dbd00 130d5d7d 131dad00 130dfd2f  ......]}......./
 80000380 b7bd6fbb 938dfdb7 939dbd00 938dbd5d  ..o............]
 80000390 939dbd00 938dad3e 939dad00 938dfd37  .......>.......7
 800003a0 37deb7dd 130efe5b 131ebe00 130ede6e  7......[.......n
 800003b0 131ebe00 130e5e5f 131eae00 130efe1b  ......^_........
 800003c0 b7fedbee 938efead 939ebe00 938e6e77  ..............nw
 800003d0 939ebe00 938eae6f 939eae00 938efe2d  .......o.......-
 800003e0 37ff6df7 130fff56 131fbf00 130fbf7b  7.m....V.......{
 800003f0 131fbf00 130fdf37 131faf00 130fff16  .......7........
 80000400 b70fb7fb 938f7fab 939fbf00 938fdf7d  ...............}
 80000410 939fbf00 938fef5b 939faf00 938f7f2b  .......[.......+
 80000420 973b0000 938b8bbe 13000000 13000000  .;..............
 80000430 13000000 13000000 13000000 13000000  ................
 80000440 930cf0ff 939cfc03 93830b00 130160ff  ..............`.
 80000450 b3832340 23bb93ff 13000000 13000000  ..#@#...........
 80000460 93000000 138e8b00 13010080 330e2e40  ............3..@
 80000470 23301e80 13000000 13000000 1307f0ff  #0..............
 80000480 13571700 138c0b01 13018000 330c2c40  .W..........3.,@
 80000490 2334ec00 13000000 13000000 93071000  #4..............
 800004a0 938e8b01 13014000 b38e2e40 23b2fe00  ......@....@#...
 800004b0 13000000 13000000 13031000 13133301  ..............3.
 800004c0 13850b02 13019000 33052540 a3346500  ........3.%@.4e.
 800004d0 13000000 13000000 93061000 9396d603  ................
 800004e0 93c6f6ff 93808b02 1301a0aa b3802040  .............. @
 800004f0 23b5d0aa 13000000 13000000 93021000  #...............
 80000500 93924201 93c2f2ff 138d0b03 1301b0ff  ..B.............
 80000510 330d2d40 a33d5dfe 13000000 13000000  3.-@.=].........
 80000520 93091000 9399d901 93848b03 13015000  ..............P.
 80000530 b3842440 a3b23401 13000000 13000000  ..$@..4.........
 80000540 93081000 93981801 13830b04 1301f07f  ................
 80000550 33032340 a33f137f 13000000 13000000  3.#@.?..........
 80000560 93051000 93956501 13898b04 13010000  ......e.........
 80000570 33092940 2330b900 13000000 13000000  3.)@#0..........
 80000580 130e2000 13870b05 13018000 33072740  .. .........3.'@
 80000590 2334c701 13000000 13000000 130f4000  #4............@.
 800005a0 138b8b05 130190ff 330b2b40 a33cebff  ........3.+@.<..
 800005b0 13000000 13000000 13098000 13820b06  ................
 800005c0 1301e0ff 33022240 233f22ff 13000000  ....3."@#?".....
 800005d0 13000000 930a0001 93858b06 1301a0aa  ................
 800005e0 b3852540 23b555ab 13000000 13000000  ..%@#.U.........
 800005f0 930e0002 13880b07 13018000 33082840  ............3.(@
 80000600 2334d801 13000000 13000000 130b0004  #4..............
 80000610 93818b07 13019000 b3812140 a3b46101  ..........!@..a.
 80000620 13000000 13000000 13040008 13860b08  ................
 80000630 1301b0ff 33062640 a33d86fe 13000000  ....3.&@.=......
 80000640 13000000 930f0010 93868b08 13015055  ..............PU
 80000650 b3862640 a3baf655 13000000 13000000  ..&@...U........
 80000660 13060020 138f0b09 13030020 330f6f40  ... ....... 3.o@
 80000670 2330cf20 13000000 13000000 13010040  #0. ...........@
 80000680 138a8b09 1303d0ff 330a6a40 a33e2afe  ........3.j@.>*.
 80000690 13000000 13000000 13000000 13000000  ................
 800006a0 97300000 938080a0 13000000 13000000  .0..............
 800006b0 13000000 13000000 13000000 13000000  ................
 800006c0 93031000 9393b300 93890000 13034000  ..............@.
 800006d0 b3896940 23b27900 13000000 13000000  ..i@#.y.........
 800006e0 13021000 1312c200 13818000 1303f0df  ................
 800006f0 33016140 a33f41de 13000000 13000000  3.a@.?A.........
 80000700 13000000 938c0001 1303e0ff b38c6c40  ..............l@
 80000710 23bf0cfe 13000000 13000000 93011000  #...............
 80000720 9391e100 13848001 130380ff 33046440  ............3.d@
 80000730 233c34fe 13000000 13000000 130a1000  #<4.............
 80000740 131afa00 93870002 1303f0ff b3876740  ..............g@
 80000750 a3bf47ff 13000000 13000000 130c1000  ..G.............
 80000760 131c0c01 93828002 13030001 b3826240  ..............b@
 80000770 23b88201 13000000 13000000 930d1000  #...............
 80000780 939d2d01 93880003 13030000 b3886840  ..-...........h@
 80000790 23b0b801 13000000 13000000 93041000  #...............
 800007a0 93944401 938b8003 1303f03f b38b6b40  ..D........?..k@
 800007b0 a3bf9b3e 13000000 13000000 130d1000  ...>............
 800007c0 131d5d01 938d0004 130370ff b38d6d40  ..].......p...m@
 800007d0 a3bbadff 13000000 13000000 13051000  ................
 800007e0 13157501 938f8004 13039000 b38f6f40  ..u...........o@
 800007f0 a3b4af00 13000000 13000000 930b1000  ................
 80000800 939b8b01 938a0005 13030000 b38a6a40  ..............j@
 80000810 23b07a01 13000000 13000000 13081000  #.z.............
 80000820 13189801 93858005 13030010 b3856540  ..............e@
 80000830 23b00511 13000000 13000000 93051000  #...............
 80000840 9395a501 13850006 1303f0fd 33056540  ............3.e@
 80000850 a33fb5fc 13000000 13000000 93051000  .?..............
 80000860 9395b501 13858006 130390ff 33056540  ............3.e@
 80000870 a33cb5fe 13000000 13000000 93051000  .<..............
 80000880 9395c501 13850007 1303f03f 33056540  ...........?3.e@
 80000890 a33fb53e 13000000 13000000 93051000  .?.>............
 800008a0 9395e501 13858007 130300c0 33056540  ............3.e@
 800008b0 2330b5c0 13000000 13000000 93051000  #0..............
 800008c0 9395f501 13850008 1303f0bf 33056540  ............3.e@
 800008d0 a33fb5be 13000000 13000000 93051000  .?..............
 800008e0 93950502 13858008 13030080 33056540  ............3.e@
 800008f0 2330b580 13000000 13000000 93051000  #0..............
 80000900 93951502 13850009 1303f0f7 33056540  ............3.e@
 80000910 a33fb5f6 13000000 13000000 93051000  .?..............
 80000920 93952502 13858009 1303a0ff 33056540  ..%.........3.e@
 80000930 233db5fe 13000000 13000000 93051000  #=..............
 80000940 93953502 1385000a 1303f0f7 33056540  ..5.........3.e@
 80000950 a33fb5f6 13000000 13000000 93051000  .?..............
 80000960 93954502 1385800a 1303f0df 33056540  ..E.........3.e@
 80000970 a33fb5de 13000000 13000000 93051000  .?..............
 80000980 93955502 1385000b 1303a0aa 33056540  ..U.........3.e@
 80000990 2335b5aa 13000000 13000000 93051000  #5..............
 800009a0 93956502 1385800b 130380ff 33056540  ..e.........3.e@
 800009b0 233cb5fe 13000000 13000000 93051000  #<..............
 800009c0 93957502 1385000c 1303f03f 33056540  ..u........?3.e@
 800009d0 a33fb53e 13000000 13000000 93051000  .?.>............
 800009e0 93958502 1385800c 13039000 33056540  ............3.e@
 800009f0 a334b500 13000000 13000000 93051000  .4..............
 80000a00 93959502 1385000d 13030008 33056540  ............3.e@
 80000a10 2330b508 13000000 13000000 93051000  #0..............
 80000a20 9395a502 1385800d 130300c0 33056540  ............3.e@
 80000a30 2330b5c0 13000000 13000000 93051000  #0..............
 80000a40 9395b502 1385000e 13030080 33056540  ............3.e@
 80000a50 2330b580 13000000 13000000 93051000  #0..............
 80000a60 9395c502 1385800e 13031000 33056540  ............3.e@
 80000a70 a330b500 13000000 13000000 93051000  .0..............
 80000a80 9395d502 1385000f 13034000 33056540  ..........@.3.e@
 80000a90 2332b500 13000000 13000000 93051000  #2..............
 80000aa0 9395e502 1385800f 13033000 33056540  ..........0.3.e@
 80000ab0 a331b500 13000000 13000000 93051000  .1..............
 80000ac0 9395f502 13850010 13030004 33056540  ............3.e@
 80000ad0 2330b504 13000000 13000000 93051000  #0..............
 80000ae0 93950503 13858010 1303f0ff 33056540  ............3.e@
 80000af0 a33fb5fe 13000000 13000000 93051000  .?..............
 80000b00 93951503 13850011 1303f0fe 33056540  ............3.e@
 80000b10 a337b5fe 13000000 13000000 93051000  .7..............
 80000b20 93952503 13858011 1303f0fe 33056540  ..%.........3.e@
 80000b30 a337b5fe 13000000 13000000 93051000  .7..............
 80000b40 93953503 13850012 1303c0ff 33056540  ..5.........3.e@
 80000b50 233eb5fe 13000000 13000000 93051000  #>..............
 80000b60 93954503 13858012 130300c0 33056540  ..E.........3.e@
 80000b70 2330b5c0 13000000 13000000 93051000  #0..............
 80000b80 93955503 13850013 13030001 33056540  ..U.........3.e@
 80000b90 2338b500 13000000 13000000 93051000  #8..............
 80000ba0 93956503 13858013 1303f03f 33056540  ..e........?3.e@
 80000bb0 a33fb53e 13000000 13000000 93051000  .?.>............
 80000bc0 93957503 13850014 13030001 33056540  ..u.........3.e@
 80000bd0 2338b500 13000000 13000000 93051000  #8..............
 80000be0 93958503 13858014 1303c0ff 33056540  ............3.e@
 80000bf0 233eb5fe 13000000 13000000 93051000  #>..............
 80000c00 93959503 13850015 13030000 33056540  ............3.e@
 80000c10 2330b500 13000000 13000000 93051000  #0..............
 80000c20 9395a503 13858015 13030040 33056540  ...........@3.e@
 80000c30 2330b540 13000000 13000000 93051000  #0.@............
 80000c40 9395b503 13850016 1303f07f 33056540  ............3.e@
 80000c50 a33fb57e 13000000 13000000 93051000  .?.~............
 80000c60 9395c503 13858016 13036000 33056540  ..........`.3.e@
 80000c70 2333b500 13000000 13000000 93051000  #3..............
 80000c80 9395d503 13850017 13039000 33056540  ............3.e@
 80000c90 a334b500 13000000 13000000 93051000  .4..............
 80000ca0 9395e503 13858017 1303f0f7 33056540  ............3.e@
 80000cb0 a33fb5f6 13000000 13000000 93051000  .?..............
 80000cc0 93952503 93c5f5ff 13850018 13035055  ..%...........PU
 80000cd0 33056540 a33ab554 13000000 13000000  3.e@.:.T........
 80000ce0 93051000 93953503 93c5f5ff 13858018  ......5.........
 80000cf0 13030004 33056540 2330b504 13000000  ....3.e@#0......
 80000d00 13000000 93051000 93954503 93c5f5ff  ..........E.....
 80000d10 13850019 13033000 33056540 a331b500  ......0.3.e@.1..
 80000d20 13000000 13000000 93051000 93955503  ..............U.
 80000d30 93c5f5ff 13858019 13030000 33056540  ............3.e@
 80000d40 2330b500 13000000 13000000 93051000  #0..............
 80000d50 93956503 93c5f5ff 1385001a 1303f0fb  ..e.............
 80000d60 33056540 a33fb5fa 13000000 13000000  3.e@.?..........
 80000d70 93051000 93957503 93c5f5ff 1385801a  ......u.........
 80000d80 13030020 33056540 2330b520 13000000  ... 3.e@#0. ....
 80000d90 13000000 93051000 93958503 93c5f5ff  ................
 80000da0 1385001b 13030001 33056540 2338b500  ........3.e@#8..
 80000db0 13000000 13000000 93051000 93959503  ................
 80000dc0 93c5f5ff 1385801b 1303f0bf 33056540  ............3.e@
 80000dd0 a33fb5be 13000000 13000000 93051000  .?..............
 80000de0 9395a503 93c5f5ff 1385001c 1303a0aa  ................
 80000df0 33056540 2335b5aa 13000000 13000000  3.e@#5..........
 80000e00 93051000 9395b503 93c5f5ff 1385801c  ................
 80000e10 13032000 33056540 2331b500 13000000  .. .3.e@#1......
 80000e20 13000000 93051000 9395c503 93c5f5ff  ................
 80000e30 1385001d 1303f0fd 33056540 a33fb5fc  ........3.e@.?..
 80000e40 13000000 13000000 93051000 9395e503  ................
 80000e50 93c5f5ff 1385801d 1303f03f 33056540  ...........?3.e@
 80000e60 a33fb53e 13000000 13000000 b7555555  .?.>.........UUU
 80000e70 93855555 9395b500 9385a52a 9395b500  ..UU.......*....
 80000e80 93855555 9395a500 93855515 1385001e  ..UU......U.....
 80000e90 130390ff 33056540 a33cb5fe 13000000  ....3.e@.<......
 80000ea0 13000000 b7b5aaaa 9385a5aa 9395b500  ................
 80000eb0 93855555 9395b500 9385a52a 9395a500  ..UU.......*....
 80000ec0 9385a52a 1385801e 13030000 33056540  ...*........3.e@
 80000ed0 2330b500 13000000 13000000 9305e0ff  #0..............
 80000ee0 1385001f 1303f03f 33056540 a33fb53e  .......?3.e@.?.>
 80000ef0 13000000 13000000 9305d0ff 1385801f  ................
 80000f00 130300c0 33056540 2330b5c0 13000000  ....3.e@#0......
 80000f10 13000000 9305b0ff 13850020 13030040  ........... ...@
 80000f20 33056540 2330b540 13000000 13000000  3.e@#0.@........
 80000f30 930570ff 13858020 1303f0fb 33056540  ..p.... ....3.e@
 80000f40 a33fb5fa 13000000 13000000 9305f0fe  .?..............
 80000f50 13850021 13030010 33056540 2330b510  ...!....3.e@#0..
 80000f60 13000000 13000000 9305f0fd 13858021  ...............!
 80000f70 13030002 33056540 2330b502 13000000  ....3.e@#0......
 80000f80 13000000 9305f0fb 13850022 130390ff  ..........."....
 80000f90 33056540 a33cb5fe 13000000 13000000  3.e@.<..........
 80000fa0 9305f0f7 13858022 1303f03f 33056540  ......."...?3.e@
 80000fb0 a33fb53e 13000000 13000000 9305f0ef  .?.>............
 80000fc0 13850023 13030001 33056540 2338b500  ...#....3.e@#8..
 80000fd0 13000000 13000000 9305f0df 13858023  ...............#
 80000fe0 13035000 33056540 a332b500 13000000  ..P.3.e@.2......
 80000ff0 13000000 9305f0bf 13850024 13033000  ...........$..0.
 80001000 33056540 a331b500 13000000 13000000  3.e@.1..........
 80001010 93051000 9395b500 93c5f5ff 13858024  ...............$
 80001020 1303a0ff 33056540 233db5fe 13000000  ....3.e@#=......
 80001030 13000000 93051000 9395c500 93c5f5ff  ................
 80001040 13850025 1303b0ff 33056540 a33db5fe  ...%....3.e@.=..
 80001050 13000000 13000000 93051000 9395d500  ................
 80001060 93c5f5ff 13858025 1303d0ff 33056540  .......%....3.e@
 80001070 a33eb5fe 13000000 13000000 93051000  .>..............
 80001080 9395e500 93c5f5ff 13850026 13030004  ...........&....
 80001090 33056540 2330b504 13000000 13000000  3.e@#0..........
 800010a0 93051000 9395f500 93c5f5ff 13858026  ...............&
 800010b0 130380ff 33056540 233cb5fe 13000000  ....3.e@#<......
 800010c0 13000000 93051000 93950501 93c5f5ff  ................
 800010d0 13850027 1303a0ff 33056540 233db5fe  ...'....3.e@#=..
 800010e0 13000000 13000000 93051000 93951501  ................
 800010f0 93c5f5ff 13858027 1303f0fd 33056540  .......'....3.e@
 80001100 a33fb5fc 13000000 13000000 93051000  .?..............
 80001110 93952501 93c5f5ff 13850028 1303c0ff  ..%........(....
 80001120 33056540 233eb5fe 13000000 13000000  3.e@#>..........
 80001130 93051000 93953501 93c5f5ff 13858028  ......5........(
 80001140 13035000 33056540 a332b500 13000000  ..P.3.e@.2......
 80001150 13000000 93051000 93955501 93c5f5ff  ..........U.....
 80001160 13850029 1303f0ef 33056540 a33fb5ee  ...)....3.e@.?..
 80001170 13000000 13000000 93051000 93956501  ..............e.
 80001180 93c5f5ff 13858029 1303a0aa 33056540  .......)....3.e@
 80001190 2335b5aa 13000000 13000000 93051000  #5..............
 800011a0 93957501 93c5f5ff 1385002a 130370ff  ..u........*..p.
 800011b0 33056540 a33bb5fe 13000000 13000000  3.e@.;..........
 800011c0 93051000 93958501 93c5f5ff 1385802a  ...............*
 800011d0 13030080 33056540 2330b580 13000000  ....3.e@#0......
 800011e0 13000000 93051000 93959501 93c5f5ff  ................
 800011f0 1385002b 13030040 33056540 2330b540  ...+...@3.e@#0.@
 80001200 13000000 13000000 93051000 9395a501  ................
 80001210 93c5f5ff 1385802b 1303f0fe 33056540  .......+....3.e@
 80001220 a337b5fe 13000000 13000000 93051000  .7..............
 80001230 9395b501 93c5f5ff 1385002c 1303f0fe  ...........,....
 80001240 33056540 a337b5fe 13000000 13000000  3.e@.7..........
 80001250 93051000 9395c501 93c5f5ff 1385802c  ...............,
 80001260 13032000 33056540 2331b500 13000000  .. .3.e@#1......
 80001270 13000000 93051000 9395d501 93c5f5ff  ................
 80001280 1385002d 1303f0ef 33056540 a33fb5ee  ...-....3.e@.?..
 80001290 13000000 13000000 93051000 9395e501  ................
 800012a0 93c5f5ff 1385802d 13035055 33056540  .......-..PU3.e@
 800012b0 a33ab554 13000000 13000000 93051000  .:.T............
 800012c0 9395f501 93c5f5ff 1385002e 1303f0ef  ................
 800012d0 33056540 a33fb5ee 13000000 13000000  3.e@.?..........
 800012e0 93051000 93950502 93c5f5ff 1385802e  ................
 800012f0 13030000 33056540 2330b500 13000000  ....3.e@#0......
 80001300 13000000 93051000 93951502 93c5f5ff  ................
 80001310 1385002f 1303f0f7 33056540 a33fb5f6  .../....3.e@.?..
 80001320 13000000 13000000 93051000 93952502  ..............%.
 80001330 93c5f5ff 1385802f 13030008 33056540  ......./....3.e@
 80001340 2330b508 13000000 13000000 93051000  #0..............
 80001350 93953502 93c5f5ff 13850030 13030000  ..5........0....
 80001360 33056540 2330b500 13000000 13000000  3.e@#0..........
 80001370 93051000 93954502 93c5f5ff 13858030  ......E........0
 80001380 13030001 33056540 2338b500 13000000  ....3.e@#8......
 80001390 13000000 93051000 93955502 93c5f5ff  ..........U.....
 800013a0 13850031 13039000 33056540 a334b500  ...1....3.e@.4..
 800013b0 13000000 13000000 93051000 93956502  ..............e.
 800013c0 93c5f5ff 13858031 1303f0f7 33056540  .......1....3.e@
 800013d0 a33fb5f6 13000000 13000000 93051000  .?..............
 800013e0 93957502 93c5f5ff 13850032 1303b0ff  ..u........2....
 800013f0 33056540 a33db5fe 13000000 13000000  3.e@.=..........
 80001400 93051000 93958502 93c5f5ff 13858032  ...............2
 80001410 13035055 33056540 a33ab554 13000000  ..PU3.e@.:.T....
 80001420 13000000 93051000 93959502 93c5f5ff  ................
 80001430 13850033 130390ff 33056540 a33cb5fe  ...3....3.e@.<..
 80001440 13000000 13000000 93051000 9395a502  ................
 80001450 93c5f5ff 13858033 1303f0bf 33056540  .......3....3.e@
 80001460 a33fb5be 13000000 13000000 93051000  .?..............
 80001470 9395b502 93c5f5ff 13850034 130370ff  ...........4..p.
 80001480 33056540 a33bb5fe 13000000 13000000  3.e@.;..........
 80001490 93051000 9395c502 93c5f5ff 13858034  ...............4
 800014a0 13030004 33056540 2330b504 13000000  ....3.e@#0......
 800014b0 13000000 93051000 9395d502 93c5f5ff  ................
 800014c0 13850035 13038000 33056540 2334b500  ...5....3.e@#4..
 800014d0 13000000 13000000 93051000 9395e502  ................
 800014e0 93c5f5ff 13858035 1303f0ff 33056540  .......5....3.e@
 800014f0 a33fb5fe 13000000 13000000 93051000  .?..............
 80001500 9395f502 93c5f5ff 13850036 13030008  ...........6....
 80001510 33056540 2330b508 13000000 13000000  3.e@#0..........
 80001520 93051000 93950503 93c5f5ff 13858036  ...............6
 80001530 13039000 33056540 a334b500 13000000  ....3.e@.4......
 80001540 13000000 93051000 93951503 93c5f5ff  ................
 80001550 13850037 13036000 33056540 2333b500  ...7..`.3.e@#3..
 80001560 13000000 13000000 93051000 9395d500  ................
 80001570 13858037 1303e0ff 33056540 233fb5fe  ...7....3.e@#?..
 80001580 13000000 13000000 6f008003 8334811f  ........o....4..
 80001590 03330120 33039300 37030000 13030300  .3. 3...7.......
 800015a0 1313b300 1303635d 1313b300 13036343  ......c]......cC
 800015b0 1313a300 1303032d 23be64fe 6f004000  .......-#.d.o.@.
 800015c0 13050000 6f004002 00000000 00000000  ....o.@.........
 800015d0 00000000 00000000 00000000 00000000  ................
 800015e0 00000000 00000000 13050500 73001000  ............s...
 800015f0 6f000000 130101ff 17050000 13050502  o...............
 80001600 23341100 efe0dfa0 13050500 73001000  #4..........s...
 80001610 6f000000 00000000 00000000 00000000  o...............
 80001620 00000000 00000000 00000000 00000000  ................
 80001630 00000000 00000000 00000000 00000000  ................
 80001640 00000000 00000000 00000000 00000000  ................
 80001650 00000000 00000000 00000000 00000000  ................
 80001660 00000000 00000000 00000000 00000000  ................
 80001670 00000000 00000000 00000000 00000000  ................
 80001680 00000000 00000000 00000000 00000000  ................
 80001690 00000000 00000000 00000000 00000000  ................
 800016a0 00000000 00000000 00000000 00000000  ................
 800016b0 00000000 00000000 00000000 00000000  ................
 800016c0 00000000 00000000 00000000 00000000  ................
 800016d0 00000000 00000000 00000000 00000000  ................
 800016e0 00000000 00000000 00000000 00000000  ................
 800016f0 00000000 00000000 00000000 00000000  ................
 80001700 00000000 00000000 00000000 00000000  ................
 80001710 00000000 00000000 00000000 00000000  ................
 80001720 00000000 00000000 00000000 00000000  ................
 80001730 00000000 00000000 00000000 00000000  ................
 80001740 00000000 00000000 00000000 00000000  ................
 80001750 00000000 00000000 00000000 00000000  ................
 80001760 00000000 00000000 00000000 00000000  ................
 80001770 00000000 00000000 00000000 00000000  ................
 80001780 00000000 00000000 00000000 00000000  ................
 80001790 00000000 00000000 00000000 00000000  ................
 800017a0 00000000 00000000 00000000 00000000  ................
 800017b0 00000000 00000000 00000000 00000000  ................
 800017c0 00000000 00000000 00000000 00000000  ................
 800017d0 00000000 00000000 00000000 00000000  ................
 800017e0 00000000 00000000 00000000 00000000  ................
 800017f0 00000000 00000000 00000000 00000000  ................
 80001800 00000000 00000000 00000000 00000000  ................
 80001810 00000000 00000000 00000000 00000000  ................
 80001820 00000000 00000000 00000000 00000000  ................
 80001830 00000000 00000000 00000000 00000000  ................
 80001840 00000000 00000000 00000000 00000000  ................
 80001850 00000000 00000000 00000000 00000000  ................
 80001860 00000000 00000000 00000000 00000000  ................
 80001870 00000000 00000000 00000000 00000000  ................
 80001880 00000000 00000000 00000000 00000000  ................
 80001890 00000000 00000000 00000000 00000000  ................
 800018a0 00000000 00000000 00000000 00000000  ................
 800018b0 00000000 00000000 00000000 00000000  ................
 800018c0 00000000 00000000 00000000 00000000  ................
 800018d0 00000000 00000000 00000000 00000000  ................
 800018e0 00000000 00000000 00000000 00000000  ................
 800018f0 00000000 00000000 00000000 00000000  ................
 80001900 00000000 00000000 00000000 00000000  ................
 80001910 00000000 00000000 00000000 00000000  ................
 80001920 00000000 00000000 00000000 00000000  ................
 80001930 00000000 00000000 00000000 00000000  ................
 80001940 00000000 00000000 00000000 00000000  ................
 80001950 00000000 00000000 00000000 00000000  ................
 80001960 00000000 00000000 00000000 00000000  ................
 80001970 00000000 00000000 00000000 00000000  ................
 80001980 00000000 00000000 00000000 00000000  ................
 80001990 00000000 00000000 00000000 00000000  ................
 800019a0 00000000 00000000 00000000 00000000  ................
 800019b0 00000000 00000000 00000000 00000000  ................
 800019c0 00000000 00000000 00000000 00000000  ................
 800019d0 00000000 00000000 00000000 00000000  ................
 800019e0 00000000 00000000 00000000 00000000  ................
 800019f0 00000000 00000000 00000000 00000000  ................
 80001a00 00000000 00000000 00000000 00000000  ................
 80001a10 00000000 00000000 00000000 00000000  ................
 80001a20 00000000 00000000 00000000 00000000  ................
 80001a30 00000000 00000000 00000000 00000000  ................
 80001a40 00000000 00000000 00000000 00000000  ................
 80001a50 00000000 00000000 00000000 00000000  ................
 80001a60 00000000 00000000 00000000 00000000  ................
 80001a70 00000000 00000000 00000000 00000000  ................
 80001a80 00000000 00000000 00000000 00000000  ................
 80001a90 00000000 00000000 00000000 00000000  ................
 80001aa0 00000000 00000000 00000000 00000000  ................
 80001ab0 00000000 00000000 00000000 00000000  ................
 80001ac0 00000000 00000000 00000000 00000000  ................
 80001ad0 00000000 00000000 00000000 00000000  ................
 80001ae0 00000000 00000000 00000000 00000000  ................
 80001af0 00000000 00000000 00000000 00000000  ................
 80001b00 00000000 00000000 00000000 00000000  ................
 80001b10 00000000 00000000 00000000 00000000  ................
 80001b20 00000000 00000000 00000000 00000000  ................
 80001b30 00000000 00000000 00000000 00000000  ................
 80001b40 00000000 00000000 00000000 00000000  ................
 80001b50 00000000 00000000 00000000 00000000  ................
 80001b60 00000000 00000000 00000000 00000000  ................
 80001b70 00000000 00000000 00000000 00000000  ................
 80001b80 00000000 00000000 00000000 00000000  ................
 80001b90 00000000 00000000 00000000 00000000  ................
 80001ba0 00000000 00000000 00000000 00000000  ................
 80001bb0 00000000 00000000 00000000 00000000  ................
 80001bc0 00000000 00000000 00000000 00000000  ................
 80001bd0 00000000 00000000 00000000 00000000  ................
 80001be0 00000000 00000000 00000000 00000000  ................
 80001bf0 00000000 00000000 00000000 00000000  ................
 80001c00 00000000 00000000 00000000 00000000  ................
 80001c10 00000000 00000000 00000000 00000000  ................
 80001c20 00000000 00000000 00000000 00000000  ................
 80001c30 00000000 00000000 00000000 00000000  ................
 80001c40 00000000 00000000 00000000 00000000  ................
 80001c50 00000000 00000000 00000000 00000000  ................
 80001c60 00000000 00000000 00000000 00000000  ................
 80001c70 00000000 00000000 00000000 00000000  ................
 80001c80 00000000 00000000 00000000 00000000  ................
 80001c90 00000000 00000000 00000000 00000000  ................
 80001ca0 00000000 00000000 00000000 00000000  ................
 80001cb0 00000000 00000000 00000000 00000000  ................
 80001cc0 00000000 00000000 00000000 00000000  ................
 80001cd0 00000000 00000000 00000000 00000000  ................
 80001ce0 00000000 00000000 00000000 00000000  ................
 80001cf0 00000000 00000000 00000000 00000000  ................
 80001d00 00000000 00000000 00000000 00000000  ................
 80001d10 00000000 00000000 00000000 00000000  ................
 80001d20 00000000 00000000 00000000 00000000  ................
 80001d30 00000000 00000000 00000000 00000000  ................
 80001d40 00000000 00000000 00000000 00000000  ................
 80001d50 00000000 00000000 00000000 00000000  ................
 80001d60 00000000 00000000 00000000 00000000  ................
 80001d70 00000000 00000000 00000000 00000000  ................
 80001d80 00000000 00000000 00000000 00000000  ................
 80001d90 00000000 00000000 00000000 00000000  ................
 80001da0 00000000 00000000 00000000 00000000  ................
 80001db0 00000000 00000000 00000000 00000000  ................
 80001dc0 00000000 00000000 00000000 00000000  ................
 80001dd0 00000000 00000000 00000000 00000000  ................
 80001de0 00000000 00000000 00000000 00000000  ................
 80001df0 00000000 00000000 00000000 00000000  ................
 80001e00 00000000 00000000 00000000 00000000  ................
 80001e10 00000000 00000000 00000000 00000000  ................
 80001e20 00000000 00000000 00000000 00000000  ................
 80001e30 00000000 00000000 00000000 00000000  ................
 80001e40 00000000 00000000 00000000 00000000  ................
 80001e50 00000000 00000000 00000000 00000000  ................
 80001e60 00000000 00000000 00000000 00000000  ................
 80001e70 00000000 00000000 00000000 00000000  ................
 80001e80 00000000 00000000 00000000 00000000  ................
 80001e90 00000000 00000000 00000000 00000000  ................
 80001ea0 00000000 00000000 00000000 00000000  ................
 80001eb0 00000000 00000000 00000000 00000000  ................
 80001ec0 00000000 00000000 00000000 00000000  ................
 80001ed0 00000000 00000000 00000000 00000000  ................
 80001ee0 00000000 00000000 00000000 00000000  ................
 80001ef0 00000000 00000000 00000000 00000000  ................
 80001f00 00000000 00000000 00000000 00000000  ................
 80001f10 00000000 00000000 00000000 00000000  ................
 80001f20 00000000 00000000 00000000 00000000  ................
 80001f30 00000000 00000000 00000000 00000000  ................
 80001f40 00000000 00000000 00000000 00000000  ................
 80001f50 00000000 00000000 00000000 00000000  ................
 80001f60 00000000 00000000 00000000 00000000  ................
 80001f70 00000000 00000000 00000000 00000000  ................
 80001f80 00000000 00000000 00000000 00000000  ................
 80001f90 00000000 00000000 00000000 00000000  ................
 80001fa0 00000000 00000000 00000000 00000000  ................
 80001fb0 00000000 00000000 00000000 00000000  ................
 80001fc0 00000000 00000000 00000000 00000000  ................
 80001fd0 00000000 00000000 00000000 00000000  ................
 80001fe0 00000000 00000000 00000000 00000000  ................
 80001ff0 00000000 00000000 00000000 00000000  ................
 80002000 fecabeba fecabeba fecabeba fecabeba  ................
 80002010 efbeadde efbeadde 00000000 00000000  ................
 80002020 00000000 00000000 00000000 00000000  ................
 80002030 00000000 00000000 00000000 00000000  ................
 80002040 00000000 00000000 00000000 00000000  ................
 80002050 00000000 00000000 00000000 00000000  ................
 80002060 00000000 00000000 00000000 00000000  ................
 80002070 00000000 00000000 00000000 00000000  ................
 80002080 00000000 00000000 00000000 00000000  ................
 80002090 00000000 00000000 00000000 00000000  ................
 800020a0 00000000 00000000 00000000 00000000  ................
 800020b0 00000000 00000000 00000000 00000000  ................
 800020c0 00000000 00000000 00000000 00000000  ................
 800020d0 00000000 00000000 00000000 00000000  ................
 800020e0 00000000 00000000 00000000 00000000  ................
 800020f0 00000000 00000000 00000000 00000000  ................
 80002100 00000000 00000000 00000000 00000000  ................
 80002110 00000000 00000000 00000000 00000000  ................
 80002120 00000000 00000000 00000000 00000000  ................
 80002130 00000000 00000000 00000000 00000000  ................
 80002140 00000000 00000000 00000000 00000000  ................
 80002150 00000000 00000000 00000000 00000000  ................
 80002160 00000000 00000000 00000000 00000000  ................
 80002170 00000000 00000000 00000000 00000000  ................
 80002180 00000000 00000000 00000000 00000000  ................
 80002190 00000000 00000000 00000000 00000000  ................
 800021a0 00000000 00000000 00000000 00000000  ................
 800021b0 00000000 00000000 00000000 00000000  ................
 800021c0 00000000 00000000 00000000 00000000  ................
 800021d0 00000000 00000000 00000000 00000000  ................
 800021e0 00000000 00000000 00000000 00000000  ................
 800021f0 00000000 00000000 00000000 00000000  ................
 80002200 00000000 00000000 00000000 00000000  ................
 80002210 00000000 00000000 00000000 00000000  ................
 80002220 00000000 00000000 00000000 00000000  ................
 80002230 00000000 00000000 00000000 00000000  ................
 80002240 00000000 00000000 00000000 00000000  ................
 80002250 00000000 00000000 00000000 00000000  ................
 80002260 00000000 00000000 00000000 00000000  ................
 80002270 00000000 00000000 00000000 00000000  ................
 80002280 00000000 00000000 00000000 00000000  ................
 80002290 00000000 00000000 00000000 00000000  ................
 800022a0 00000000 00000000 00000000 00000000  ................
 800022b0 00000000 00000000 00000000 00000000  ................
 800022c0 00000000 00000000 00000000 00000000  ................
 800022d0 00000000 00000000 00000000 00000000  ................
 800022e0 00000000 00000000 00000000 00000000  ................
 800022f0 00000000 00000000 00000000 00000000  ................
 80002300 00000000 00000000 00000000 00000000  ................
 80002310 00000000 00000000 00000000 00000000  ................
 80002320 00000000 00000000 00000000 00000000  ................
 80002330 00000000 00000000 00000000 00000000  ................
 80002340 00000000 00000000 00000000 00000000  ................
 80002350 00000000 00000000 00000000 00000000  ................
 80002360 00000000 00000000 00000000 00000000  ................
 80002370 00000000 00000000 00000000 00000000  ................
 80002380 00000000 00000000 00000000 00000000  ................
 80002390 00000000 00000000 00000000 00000000  ................
 800023a0 00000000 00000000 00000000 00000000  ................
 800023b0 00000000 00000000 00000000 00000000  ................
 800023c0 00000000 00000000 00000000 00000000  ................
 800023d0 00000000 00000000 00000000 00000000  ................
 800023e0 00000000 00000000 00000000 00000000  ................
 800023f0 00000000 00000000 00000000 00000000  ................
 80002400 00000000 00000000 00000000 00000000  ................
 80002410 00000000 00000000 00000000 00000000  ................
 80002420 00000000 00000000 00000000 00000000  ................
 80002430 00000000 00000000 00000000 00000000  ................
 80002440 00000000 00000000 00000000 00000000  ................
 80002450 00000000 00000000 00000000 00000000  ................
 80002460 00000000 00000000 00000000 00000000  ................
 80002470 00000000 00000000 00000000 00000000  ................
 80002480 00000000 00000000 00000000 00000000  ................
 80002490 00000000 00000000 00000000 00000000  ................
 800024a0 00000000 00000000 00000000 00000000  ................
 800024b0 00000000 00000000 00000000 00000000  ................
 800024c0 00000000 00000000 00000000 00000000  ................
 800024d0 00000000 00000000 00000000 00000000  ................
 800024e0 00000000 00000000 00000000 00000000  ................
 800024f0 00000000 00000000 00000000 00000000  ................
 80002500 00000000 00000000 00000000 00000000  ................
 80002510 00000000 00000000 00000000 00000000  ................
 80002520 00000000 00000000 00000000 00000000  ................
 80002530 00000000 00000000 00000000 00000000  ................
 80002540 00000000 00000000 00000000 00000000  ................
 80002550 00000000 00000000 00000000 00000000  ................
 80002560 00000000 00000000 00000000 00000000  ................
 80002570 00000000 00000000 00000000 00000000  ................
 80002580 00000000 00000000 00000000 00000000  ................
 80002590 00000000 00000000 00000000 00000000  ................
 800025a0 00000000 00000000 00000000 00000000  ................
 800025b0 00000000 00000000 00000000 00000000  ................
 800025c0 00000000 00000000 00000000 00000000  ................
 800025d0 00000000 00000000 00000000 00000000  ................
 800025e0 00000000 00000000 00000000 00000000  ................
 800025f0 00000000 00000000 00000000 00000000  ................
 80002600 00000000 00000000 00000000 00000000  ................
 80002610 00000000 00000000 00000000 00000000  ................
 80002620 00000000 00000000 00000000 00000000  ................
 80002630 00000000 00000000 00000000 00000000  ................
 80002640 00000000 00000000 00000000 00000000  ................
 80002650 00000000 00000000 00000000 00000000  ................
 80002660 00000000 00000000 00000000 00000000  ................
 80002670 00000000 00000000 00000000 00000000  ................
 80002680 00000000 00000000 00000000 00000000  ................
 80002690 00000000 00000000 00000000 00000000  ................
 800026a0 00000000 00000000 00000000 00000000  ................
 800026b0 00000000 00000000 00000000 00000000  ................
 800026c0 00000000 00000000 00000000 00000000  ................
 800026d0 00000000 00000000 00000000 00000000  ................
 800026e0 00000000 00000000 00000000 00000000  ................
 800026f0 00000000 00000000 00000000 00000000  ................
 80002700 00000000 00000000 00000000 00000000  ................
 80002710 00000000 00000000 00000000 00000000  ................
 80002720 00000000 00000000 00000000 00000000  ................
 80002730 00000000 00000000 00000000 00000000  ................
 80002740 00000000 00000000 00000000 00000000  ................
 80002750 00000000 00000000 00000000 00000000  ................
 80002760 00000000 00000000 00000000 00000000  ................
 80002770 00000000 00000000 00000000 00000000  ................
 80002780 00000000 00000000 00000000 00000000  ................
 80002790 00000000 00000000 00000000 00000000  ................
 800027a0 00000000 00000000 00000000 00000000  ................
 800027b0 00000000 00000000 00000000 00000000  ................
 800027c0 00000000 00000000 00000000 00000000  ................
 800027d0 00000000 00000000 00000000 00000000  ................
 800027e0 00000000 00000000 00000000 00000000  ................
 800027f0 00000000 00000000 00000000 00000000  ................
 80002800 00000000 00000000 00000000 00000000  ................
 80002810 00000000 00000000 00000000 00000000  ................
 80002820 00000000 00000000 00000000 00000000  ................
 80002830 00000000 00000000 00000000 00000000  ................
 80002840 00000000 00000000 00000000 00000000  ................
 80002850 00000000 00000000 00000000 00000000  ................
 80002860 00000000 00000000 00000000 00000000  ................
 80002870 00000000 00000000 00000000 00000000  ................
 80002880 00000000 00000000 00000000 00000000  ................
 80002890 00000000 00000000 00000000 00000000  ................
 800028a0 00000000 00000000 00000000 00000000  ................
 800028b0 00000000 00000000 00000000 00000000  ................
 800028c0 00000000 00000000 00000000 00000000  ................
 800028d0 00000000 00000000 00000000 00000000  ................
 800028e0 00000000 00000000 00000000 00000000  ................
 800028f0 00000000 00000000 00000000 00000000  ................
 80002900 00000000 00000000 00000000 00000000  ................
 80002910 00000000 00000000 00000000 00000000  ................
 80002920 00000000 00000000 00000000 00000000  ................
 80002930 00000000 00000000 00000000 00000000  ................
 80002940 00000000 00000000 00000000 00000000  ................
 80002950 00000000 00000000 00000000 00000000  ................
 80002960 00000000 00000000 00000000 00000000  ................
 80002970 00000000 00000000 00000000 00000000  ................
 80002980 00000000 00000000 00000000 00000000  ................
 80002990 00000000 00000000 00000000 00000000  ................
 800029a0 00000000 00000000 00000000 00000000  ................
 800029b0 00000000 00000000 00000000 00000000  ................
 800029c0 00000000 00000000 00000000 00000000  ................
 800029d0 00000000 00000000 00000000 00000000  ................
 800029e0 00000000 00000000 00000000 00000000  ................
 800029f0 00000000 00000000 00000000 00000000  ................
 80002a00 00000000 00000000 00000000 00000000  ................
 80002a10 00000000 00000000 00000000 00000000  ................
 80002a20 00000000 00000000 00000000 00000000  ................
 80002a30 00000000 00000000 00000000 00000000  ................
 80002a40 00000000 00000000 00000000 00000000  ................
 80002a50 00000000 00000000 00000000 00000000  ................
 80002a60 00000000 00000000 00000000 00000000  ................
 80002a70 00000000 00000000 00000000 00000000  ................
 80002a80 00000000 00000000 00000000 00000000  ................
 80002a90 00000000 00000000 00000000 00000000  ................
 80002aa0 00000000 00000000 00000000 00000000  ................
 80002ab0 00000000 00000000 00000000 00000000  ................
 80002ac0 00000000 00000000 00000000 00000000  ................
 80002ad0 00000000 00000000 00000000 00000000  ................
 80002ae0 00000000 00000000 00000000 00000000  ................
 80002af0 00000000 00000000 00000000 00000000  ................
 80002b00 00000000 00000000 00000000 00000000  ................
 80002b10 00000000 00000000 00000000 00000000  ................
 80002b20 00000000 00000000 00000000 00000000  ................
 80002b30 00000000 00000000 00000000 00000000  ................
 80002b40 00000000 00000000 00000000 00000000  ................
 80002b50 00000000 00000000 00000000 00000000  ................
 80002b60 00000000 00000000 00000000 00000000  ................
 80002b70 00000000 00000000 00000000 00000000  ................
 80002b80 00000000 00000000 00000000 00000000  ................
 80002b90 00000000 00000000 00000000 00000000  ................
 80002ba0 00000000 00000000 00000000 00000000  ................
 80002bb0 00000000 00000000 00000000 00000000  ................
 80002bc0 00000000 00000000 00000000 00000000  ................
 80002bd0 00000000 00000000 00000000 00000000  ................
 80002be0 00000000 00000000 00000000 00000000  ................
 80002bf0 00000000 00000000 00000000 00000000  ................
 80002c00 00000000 00000000 00000000 00000000  ................
 80002c10 00000000 00000000 00000000 00000000  ................
 80002c20 00000000 00000000 00000000 00000000  ................
 80002c30 00000000 00000000 00000000 00000000  ................
 80002c40 00000000 00000000 00000000 00000000  ................
 80002c50 00000000 00000000 00000000 00000000  ................
 80002c60 00000000 00000000 00000000 00000000  ................
 80002c70 00000000 00000000 00000000 00000000  ................
 80002c80 00000000 00000000 00000000 00000000  ................
 80002c90 00000000 00000000 00000000 00000000  ................
 80002ca0 00000000 00000000 00000000 00000000  ................
 80002cb0 00000000 00000000 00000000 00000000  ................
 80002cc0 00000000 00000000 00000000 00000000  ................
 80002cd0 00000000 00000000 00000000 00000000  ................
 80002ce0 00000000 00000000 00000000 00000000  ................
 80002cf0 00000000 00000000 00000000 00000000  ................
 80002d00 00000000 00000000 00000000 00000000  ................
 80002d10 00000000 00000000 00000000 00000000  ................
 80002d20 00000000 00000000 00000000 00000000  ................
 80002d30 00000000 00000000 00000000 00000000  ................
 80002d40 00000000 00000000 00000000 00000000  ................
 80002d50 00000000 00000000 00000000 00000000  ................
 80002d60 00000000 00000000 00000000 00000000  ................
 80002d70 00000000 00000000 00000000 00000000  ................
 80002d80 00000000 00000000 00000000 00000000  ................
 80002d90 00000000 00000000 00000000 00000000  ................
 80002da0 00000000 00000000 00000000 00000000  ................
 80002db0 00000000 00000000 00000000 00000000  ................
 80002dc0 00000000 00000000 00000000 00000000  ................
 80002dd0 00000000 00000000 00000000 00000000  ................
 80002de0 00000000 00000000 00000000 00000000  ................
 80002df0 00000000 00000000 00000000 00000000  ................
 80002e00 00000000 00000000 00000000 00000000  ................
 80002e10 00000000 00000000 00000000 00000000  ................
 80002e20 00000000 00000000 00000000 00000000  ................
 80002e30 00000000 00000000 00000000 00000000  ................
 80002e40 00000000 00000000 00000000 00000000  ................
 80002e50 00000000 00000000 00000000 00000000  ................
 80002e60 00000000 00000000 00000000 00000000  ................
 80002e70 00000000 00000000 00000000 00000000  ................
 80002e80 00000000 00000000 00000000 00000000  ................
 80002e90 00000000 00000000 00000000 00000000  ................
 80002ea0 00000000 00000000 00000000 00000000  ................
 80002eb0 00000000 00000000 00000000 00000000  ................
 80002ec0 00000000 00000000 00000000 00000000  ................
 80002ed0 00000000 00000000 00000000 00000000  ................
 80002ee0 00000000 00000000 00000000 00000000  ................
 80002ef0 00000000 00000000 00000000 00000000  ................
 80002f00 00000000 00000000 00000000 00000000  ................
 80002f10 00000000 00000000 00000000 00000000  ................
 80002f20 00000000 00000000 00000000 00000000  ................
 80002f30 00000000 00000000 00000000 00000000  ................
 80002f40 00000000 00000000 00000000 00000000  ................
 80002f50 00000000 00000000 00000000 00000000  ................
 80002f60 00000000 00000000 00000000 00000000  ................
 80002f70 00000000 00000000 00000000 00000000  ................
 80002f80 00000000 00000000 00000000 00000000  ................
 80002f90 00000000 00000000 00000000 00000000  ................
 80002fa0 00000000 00000000 00000000 00000000  ................
 80002fb0 00000000 00000000 00000000 00000000  ................
 80002fc0 00000000 00000000 00000000 00000000  ................
 80002fd0 00000000 00000000 00000000 00000000  ................
 80002fe0 00000000 00000000 00000000 00000000  ................
 80002ff0 00000000 00000000 00000000 00000000  ................
 80003000 81b2d4e7 09a35c6f efbeadde efbeadde  ......\o........
 80003010 efbeadde efbeadde efbeadde efbeadde  ................
 80003020 efbeadde efbeadde efbeadde efbeadde  ................
 80003030 efbeadde efbeadde efbeadde efbeadde  ................
 80003040 efbeadde efbeadde efbeadde efbeadde  ................
 80003050 efbeadde efbeadde efbeadde efbeadde  ................
 80003060 efbeadde efbeadde efbeadde efbeadde  ................
 80003070 efbeadde efbeadde efbeadde efbeadde  ................
 80003080 efbeadde efbeadde efbeadde efbeadde  ................
 80003090 efbeadde efbeadde efbeadde efbeadde  ................
 800030a0 efbeadde efbeadde efbeadde efbeadde  ................
 800030b0 efbeadde efbeadde efbeadde efbeadde  ................
 800030c0 efbeadde efbeadde efbeadde efbeadde  ................
 800030d0 efbeadde efbeadde efbeadde efbeadde  ................
 800030e0 efbeadde efbeadde efbeadde efbeadde  ................
 800030f0 efbeadde efbeadde efbeadde efbeadde  ................
 80003100 efbeadde efbeadde efbeadde efbeadde  ................
 80003110 efbeadde efbeadde efbeadde efbeadde  ................
 80003120 efbeadde efbeadde efbeadde efbeadde  ................
 80003130 efbeadde efbeadde efbeadde efbeadde  ................
 80003140 efbeadde efbeadde efbeadde efbeadde  ................
 80003150 efbeadde efbeadde efbeadde efbeadde  ................
 80003160 efbeadde efbeadde efbeadde efbeadde  ................
 80003170 efbeadde efbeadde efbeadde efbeadde  ................
 80003180 efbeadde efbeadde efbeadde efbeadde  ................
 80003190 efbeadde efbeadde efbeadde efbeadde  ................
 800031a0 efbeadde efbeadde efbeadde efbeadde  ................
 800031b0 efbeadde efbeadde efbeadde efbeadde  ................
 800031c0 efbeadde efbeadde efbeadde efbeadde  ................
 800031d0 efbeadde efbeadde efbeadde efbeadde  ................
 800031e0 efbeadde efbeadde efbeadde efbeadde  ................
 800031f0 efbeadde efbeadde efbeadde efbeadde  ................
 80003200 efbeadde efbeadde efbeadde efbeadde  ................
 80003210 efbeadde efbeadde efbeadde efbeadde  ................
 80003220 efbeadde efbeadde efbeadde efbeadde  ................
 80003230 efbeadde efbeadde efbeadde efbeadde  ................
 80003240 efbeadde efbeadde efbeadde efbeadde  ................
 80003250 efbeadde efbeadde efbeadde efbeadde  ................
 80003260 efbeadde efbeadde efbeadde efbeadde  ................
 80003270 efbeadde efbeadde efbeadde efbeadde  ................
 80003280 efbeadde efbeadde efbeadde efbeadde  ................
 80003290 efbeadde efbeadde efbeadde efbeadde  ................
 800032a0 efbeadde efbeadde efbeadde efbeadde  ................
 800032b0 efbeadde efbeadde efbeadde efbeadde  ................
 800032c0 efbeadde efbeadde efbeadde efbeadde  ................
 800032d0 efbeadde efbeadde efbeadde efbeadde  ................
 800032e0 efbeadde efbeadde efbeadde efbeadde  ................
 800032f0 efbeadde efbeadde efbeadde efbeadde  ................
 80003300 efbeadde efbeadde efbeadde efbeadde  ................
 80003310 efbeadde efbeadde efbeadde efbeadde  ................
 80003320 efbeadde efbeadde efbeadde efbeadde  ................
 80003330 efbeadde efbeadde efbeadde efbeadde  ................
 80003340 efbeadde efbeadde efbeadde efbeadde  ................
 80003350 efbeadde efbeadde efbeadde efbeadde  ................
 80003360 efbeadde efbeadde efbeadde efbeadde  ................
 80003370 efbeadde efbeadde efbeadde efbeadde  ................
 80003380 efbeadde efbeadde efbeadde efbeadde  ................
 80003390 efbeadde efbeadde efbeadde efbeadde  ................
 800033a0 efbeadde efbeadde efbeadde efbeadde  ................
 800033b0 efbeadde efbeadde efbeadde efbeadde  ................
 800033c0 efbeadde efbeadde efbeadde efbeadde  ................
 800033d0 efbeadde efbeadde efbeadde efbeadde  ................
 800033e0 efbeadde efbeadde efbeadde efbeadde  ................
 800033f0 efbeadde efbeadde efbeadde efbeadde  ................
 80003400 efbeadde efbeadde efbeadde efbeadde  ................
 80003410 efbeadde efbeadde efbeadde efbeadde  ................
 80003420 efbeadde efbeadde 81b2d4e7 09a35c6f  ..............\o

Disassembly of section .data:

0000000080000000 <.data>:
    80000000:	00000413          	addi	x8,x0,0
    80000004:	0000c117          	auipc	x2,0xc
    80000008:	ffc10113          	addi	x2,x2,-4 # 0x8000c000
    8000000c:	5e8010ef          	jal	x1,0x800015f4
    80000010:	030000ef          	jal	x1,0x80000040
    80000014:	00100513          	addi	x10,x0,1
    80000018:	5d0010ef          	jal	x1,0x800015e8
    8000001c:	00000513          	addi	x10,x0,0
    80000020:	00008067          	jalr	x0,0(x1)
	...
    80000040:	feedc0b7          	lui	x1,0xfeedc
    80000044:	ead08093          	addi	x1,x1,-339 # 0xfffffffffeedbead
    80000048:	00b09093          	slli	x1,x1,0xb
    8000004c:	7f708093          	addi	x1,x1,2039
    80000050:	00b09093          	slli	x1,x1,0xb
    80000054:	36f08093          	addi	x1,x1,879
    80000058:	00a09093          	slli	x1,x1,0xa
    8000005c:	2ad08093          	addi	x1,x1,685
    80000060:	ff76e137          	lui	x2,0xff76e
    80000064:	f5610113          	addi	x2,x2,-170 # 0xffffffffff76df56
    80000068:	00b11113          	slli	x2,x2,0xb
    8000006c:	7fb10113          	addi	x2,x2,2043
    80000070:	00b11113          	slli	x2,x2,0xb
    80000074:	5b710113          	addi	x2,x2,1463
    80000078:	00a11113          	slli	x2,x2,0xa
    8000007c:	35610113          	addi	x2,x2,854
    80000080:	7fbb71b7          	lui	x3,0x7fbb7
    80000084:	fab18193          	addi	x3,x3,-85 # 0x7fbb6fab
    80000088:	00b19193          	slli	x3,x3,0xb
    8000008c:	3fd18193          	addi	x3,x3,1021
    80000090:	00b19193          	slli	x3,x3,0xb
    80000094:	6db18193          	addi	x3,x3,1755
    80000098:	00a19193          	slli	x3,x3,0xa
    8000009c:	3ab18193          	addi	x3,x3,939
    800000a0:	bfddb237          	lui	x4,0xbfddb
    800000a4:	7d520213          	addi	x4,x4,2005 # 0xffffffffbfddb7d5
    800000a8:	00b21213          	slli	x4,x4,0xb
    800000ac:	5fe20213          	addi	x4,x4,1534 # 0x5fe
    800000b0:	00b21213          	slli	x4,x4,0xb
    800000b4:	76d20213          	addi	x4,x4,1901 # 0x76d
    800000b8:	00a21213          	slli	x4,x4,0xa
    800000bc:	3d520213          	addi	x4,x4,981 # 0x3d5
    800000c0:	dfeee2b7          	lui	x5,0xdfeee
    800000c4:	bea28293          	addi	x5,x5,-1046 # 0xffffffffdfeedbea
    800000c8:	00b29293          	slli	x5,x5,0xb
    800000cc:	6ff28293          	addi	x5,x5,1791
    800000d0:	00b29293          	slli	x5,x5,0xb
    800000d4:	3b628293          	addi	x5,x5,950
    800000d8:	00a29293          	slli	x5,x5,0xa
    800000dc:	3ea28293          	addi	x5,x5,1002
    800000e0:	6ff77337          	lui	x6,0x6ff77
    800000e4:	df530313          	addi	x6,x6,-523 # 0x6ff76df5
    800000e8:	00b31313          	slli	x6,x6,0xb
    800000ec:	37f30313          	addi	x6,x6,895
    800000f0:	00b31313          	slli	x6,x6,0xb
    800000f4:	5db30313          	addi	x6,x6,1499
    800000f8:	00a31313          	slli	x6,x6,0xa
    800000fc:	1f530313          	addi	x6,x6,501
    80000100:	b7fbb3b7          	lui	x7,0xb7fbb
    80000104:	6fa38393          	addi	x7,x7,1786 # 0xffffffffb7fbb6fa
    80000108:	00b39393          	slli	x7,x7,0xb
    8000010c:	5bf38393          	addi	x7,x7,1471
    80000110:	00b39393          	slli	x7,x7,0xb
    80000114:	6ed38393          	addi	x7,x7,1773
    80000118:	00a39393          	slli	x7,x7,0xa
    8000011c:	2fa38393          	addi	x7,x7,762
    80000120:	5bfde437          	lui	x8,0x5bfde
    80000124:	b7d40413          	addi	x8,x8,-1155 # 0x5bfddb7d
    80000128:	00b41413          	slli	x8,x8,0xb
    8000012c:	2df40413          	addi	x8,x8,735
    80000130:	00b41413          	slli	x8,x8,0xb
    80000134:	77640413          	addi	x8,x8,1910
    80000138:	00a41413          	slli	x8,x8,0xa
    8000013c:	37d40413          	addi	x8,x8,893
    80000140:	adfef4b7          	lui	x9,0xadfef
    80000144:	dbe48493          	addi	x9,x9,-578 # 0xffffffffadfeedbe
    80000148:	00b49493          	slli	x9,x9,0xb
    8000014c:	56f48493          	addi	x9,x9,1391
    80000150:	00b49493          	slli	x9,x9,0xb
    80000154:	7bb48493          	addi	x9,x9,1979
    80000158:	00a49493          	slli	x9,x9,0xa
    8000015c:	1be48493          	addi	x9,x9,446
    80000160:	56ff7537          	lui	x10,0x56ff7
    80000164:	6df50513          	addi	x10,x10,1759 # 0x56ff76df
    80000168:	00b51513          	slli	x10,x10,0xb
    8000016c:	2b750513          	addi	x10,x10,695
    80000170:	00b51513          	slli	x10,x10,0xb
    80000174:	7dd50513          	addi	x10,x10,2013
    80000178:	00a51513          	slli	x10,x10,0xa
    8000017c:	2df50513          	addi	x10,x10,735
    80000180:	ab7fc5b7          	lui	x11,0xab7fc
    80000184:	b6f58593          	addi	x11,x11,-1169 # 0xffffffffab7fbb6f
    80000188:	00b59593          	slli	x11,x11,0xb
    8000018c:	55b58593          	addi	x11,x11,1371
    80000190:	00b59593          	slli	x11,x11,0xb
    80000194:	7ee58593          	addi	x11,x11,2030
    80000198:	00a59593          	slli	x11,x11,0xa
    8000019c:	36f58593          	addi	x11,x11,879
    800001a0:	d5bfe637          	lui	x12,0xd5bfe
    800001a4:	db760613          	addi	x12,x12,-585 # 0xffffffffd5bfddb7
    800001a8:	00b61613          	slli	x12,x12,0xb
    800001ac:	6ad60613          	addi	x12,x12,1709
    800001b0:	00b61613          	slli	x12,x12,0xb
    800001b4:	7f760613          	addi	x12,x12,2039
    800001b8:	00a61613          	slli	x12,x12,0xa
    800001bc:	1b760613          	addi	x12,x12,439
    800001c0:	eadff6b7          	lui	x13,0xeadff
    800001c4:	edb68693          	addi	x13,x13,-293 # 0xffffffffeadfeedb
    800001c8:	00b69693          	slli	x13,x13,0xb
    800001cc:	75668693          	addi	x13,x13,1878
    800001d0:	00b69693          	slli	x13,x13,0xb
    800001d4:	7fb68693          	addi	x13,x13,2043
    800001d8:	00a69693          	slli	x13,x13,0xa
    800001dc:	2db68693          	addi	x13,x13,731
    800001e0:	f56ff737          	lui	x14,0xf56ff
    800001e4:	76d70713          	addi	x14,x14,1901 # 0xfffffffff56ff76d
    800001e8:	00b71713          	slli	x14,x14,0xb
    800001ec:	7ab70713          	addi	x14,x14,1963
    800001f0:	00b71713          	slli	x14,x14,0xb
    800001f4:	3fd70713          	addi	x14,x14,1021
    800001f8:	00a71713          	slli	x14,x14,0xa
    800001fc:	36d70713          	addi	x14,x14,877
    80000200:	fab807b7          	lui	x15,0xfab80
    80000204:	bb678793          	addi	x15,x15,-1098 # 0xfffffffffab7fbb6
    80000208:	00b79793          	slli	x15,x15,0xb
    8000020c:	7d578793          	addi	x15,x15,2005
    80000210:	00b79793          	slli	x15,x15,0xb
    80000214:	5fe78793          	addi	x15,x15,1534
    80000218:	00a79793          	slli	x15,x15,0xa
    8000021c:	3b678793          	addi	x15,x15,950
    80000220:	7d5c0837          	lui	x16,0x7d5c0
    80000224:	ddb80813          	addi	x16,x16,-549 # 0x7d5bfddb
    80000228:	00b81813          	slli	x16,x16,0xb
    8000022c:	3ea80813          	addi	x16,x16,1002
    80000230:	00b81813          	slli	x16,x16,0xb
    80000234:	6ff80813          	addi	x16,x16,1791
    80000238:	00a81813          	slli	x16,x16,0xa
    8000023c:	1db80813          	addi	x16,x16,475
    80000240:	beae08b7          	lui	x17,0xbeae0
    80000244:	eed88893          	addi	x17,x17,-275 # 0xffffffffbeadfeed
    80000248:	00b89893          	slli	x17,x17,0xb
    8000024c:	5f588893          	addi	x17,x17,1525
    80000250:	00b89893          	slli	x17,x17,0xb
    80000254:	37f88893          	addi	x17,x17,895
    80000258:	00a89893          	slli	x17,x17,0xa
    8000025c:	2ed88893          	addi	x17,x17,749
    80000260:	df570937          	lui	x18,0xdf570
    80000264:	f7690913          	addi	x18,x18,-138 # 0xffffffffdf56ff76
    80000268:	00b91913          	slli	x18,x18,0xb
    8000026c:	6fa90913          	addi	x18,x18,1786
    80000270:	00b91913          	slli	x18,x18,0xb
    80000274:	5bf90913          	addi	x18,x18,1471
    80000278:	00a91913          	slli	x18,x18,0xa
    8000027c:	37690913          	addi	x18,x18,886
    80000280:	6fab89b7          	lui	x19,0x6fab8
    80000284:	fbb98993          	addi	x19,x19,-69 # 0x6fab7fbb
    80000288:	00b99993          	slli	x19,x19,0xb
    8000028c:	37d98993          	addi	x19,x19,893
    80000290:	00b99993          	slli	x19,x19,0xb
    80000294:	2df98993          	addi	x19,x19,735
    80000298:	00a99993          	slli	x19,x19,0xa
    8000029c:	3bb98993          	addi	x19,x19,955
    800002a0:	b7d5ca37          	lui	x20,0xb7d5c
    800002a4:	fdda0a13          	addi	x20,x20,-35 # 0xffffffffb7d5bfdd
    800002a8:	00ba1a13          	slli	x20,x20,0xb
    800002ac:	5bea0a13          	addi	x20,x20,1470
    800002b0:	00ba1a13          	slli	x20,x20,0xb
    800002b4:	56fa0a13          	addi	x20,x20,1391
    800002b8:	00aa1a13          	slli	x20,x20,0xa
    800002bc:	3dda0a13          	addi	x20,x20,989
    800002c0:	dbeaeab7          	lui	x21,0xdbeae
    800002c4:	feea8a93          	addi	x21,x21,-18 # 0xffffffffdbeadfee
    800002c8:	00ba9a93          	slli	x21,x21,0xb
    800002cc:	6dfa8a93          	addi	x21,x21,1759
    800002d0:	00ba9a93          	slli	x21,x21,0xb
    800002d4:	2b7a8a93          	addi	x21,x21,695
    800002d8:	00aa9a93          	slli	x21,x21,0xa
    800002dc:	3eea8a93          	addi	x21,x21,1006
    800002e0:	6df57b37          	lui	x22,0x6df57
    800002e4:	ff7b0b13          	addi	x22,x22,-9 # 0x6df56ff7
    800002e8:	00bb1b13          	slli	x22,x22,0xb
    800002ec:	36fb0b13          	addi	x22,x22,879
    800002f0:	00bb1b13          	slli	x22,x22,0xb
    800002f4:	55bb0b13          	addi	x22,x22,1371
    800002f8:	00ab1b13          	slli	x22,x22,0xa
    800002fc:	3f7b0b13          	addi	x22,x22,1015
    80000300:	b6fabbb7          	lui	x23,0xb6fab
    80000304:	7fbb8b93          	addi	x23,x23,2043 # 0xffffffffb6fab7fb
    80000308:	00bb9b93          	slli	x23,x23,0xb
    8000030c:	5b7b8b93          	addi	x23,x23,1463
    80000310:	00bb9b93          	slli	x23,x23,0xb
    80000314:	6adb8b93          	addi	x23,x23,1709
    80000318:	00ab9b93          	slli	x23,x23,0xa
    8000031c:	3fbb8b93          	addi	x23,x23,1019
    80000320:	db7d6c37          	lui	x24,0xdb7d6
    80000324:	bfdc0c13          	addi	x24,x24,-1027 # 0xffffffffdb7d5bfd
    80000328:	00bc1c13          	slli	x24,x24,0xb
    8000032c:	6dbc0c13          	addi	x24,x24,1755
    80000330:	00bc1c13          	slli	x24,x24,0xb
    80000334:	756c0c13          	addi	x24,x24,1878
    80000338:	00ac1c13          	slli	x24,x24,0xa
    8000033c:	3fdc0c13          	addi	x24,x24,1021
    80000340:	edbebcb7          	lui	x25,0xedbeb
    80000344:	dfec8c93          	addi	x25,x25,-514 # 0xffffffffedbeadfe
    80000348:	00bc9c93          	slli	x25,x25,0xb
    8000034c:	76dc8c93          	addi	x25,x25,1901
    80000350:	00bc9c93          	slli	x25,x25,0xb
    80000354:	7abc8c93          	addi	x25,x25,1963
    80000358:	00ac9c93          	slli	x25,x25,0xa
    8000035c:	1fec8c93          	addi	x25,x25,510
    80000360:	76df5d37          	lui	x26,0x76df5
    80000364:	6ffd0d13          	addi	x26,x26,1791 # 0x76df56ff
    80000368:	00bd1d13          	slli	x26,x26,0xb
    8000036c:	3b6d0d13          	addi	x26,x26,950
    80000370:	00bd1d13          	slli	x26,x26,0xb
    80000374:	7d5d0d13          	addi	x26,x26,2005
    80000378:	00ad1d13          	slli	x26,x26,0xa
    8000037c:	2ffd0d13          	addi	x26,x26,767
    80000380:	bb6fbdb7          	lui	x27,0xbb6fb
    80000384:	b7fd8d93          	addi	x27,x27,-1153 # 0xffffffffbb6fab7f
    80000388:	00bd9d93          	slli	x27,x27,0xb
    8000038c:	5dbd8d93          	addi	x27,x27,1499
    80000390:	00bd9d93          	slli	x27,x27,0xb
    80000394:	3ead8d93          	addi	x27,x27,1002
    80000398:	00ad9d93          	slli	x27,x27,0xa
    8000039c:	37fd8d93          	addi	x27,x27,895
    800003a0:	ddb7de37          	lui	x28,0xddb7d
    800003a4:	5bfe0e13          	addi	x28,x28,1471 # 0xffffffffddb7d5bf
    800003a8:	00be1e13          	slli	x28,x28,0xb
    800003ac:	6ede0e13          	addi	x28,x28,1773
    800003b0:	00be1e13          	slli	x28,x28,0xb
    800003b4:	5f5e0e13          	addi	x28,x28,1525
    800003b8:	00ae1e13          	slli	x28,x28,0xa
    800003bc:	1bfe0e13          	addi	x28,x28,447
    800003c0:	eedbfeb7          	lui	x29,0xeedbf
    800003c4:	adfe8e93          	addi	x29,x29,-1313 # 0xffffffffeedbeadf
    800003c8:	00be9e93          	slli	x29,x29,0xb
    800003cc:	776e8e93          	addi	x29,x29,1910
    800003d0:	00be9e93          	slli	x29,x29,0xb
    800003d4:	6fae8e93          	addi	x29,x29,1786
    800003d8:	00ae9e93          	slli	x29,x29,0xa
    800003dc:	2dfe8e93          	addi	x29,x29,735
    800003e0:	f76dff37          	lui	x30,0xf76df
    800003e4:	56ff0f13          	addi	x30,x30,1391 # 0xfffffffff76df56f
    800003e8:	00bf1f13          	slli	x30,x30,0xb
    800003ec:	7bbf0f13          	addi	x30,x30,1979
    800003f0:	00bf1f13          	slli	x30,x30,0xb
    800003f4:	37df0f13          	addi	x30,x30,893
    800003f8:	00af1f13          	slli	x30,x30,0xa
    800003fc:	16ff0f13          	addi	x30,x30,367
    80000400:	fbb70fb7          	lui	x31,0xfbb70
    80000404:	ab7f8f93          	addi	x31,x31,-1353 # 0xfffffffffbb6fab7
    80000408:	00bf9f93          	slli	x31,x31,0xb
    8000040c:	7ddf8f93          	addi	x31,x31,2013
    80000410:	00bf9f93          	slli	x31,x31,0xb
    80000414:	5bef8f93          	addi	x31,x31,1470
    80000418:	00af9f93          	slli	x31,x31,0xa
    8000041c:	2b7f8f93          	addi	x31,x31,695
    80000420:	00003b97          	auipc	x23,0x3
    80000424:	be8b8b93          	addi	x23,x23,-1048 # 0x80003008
    80000428:	00000013          	addi	x0,x0,0
    8000042c:	00000013          	addi	x0,x0,0
    80000430:	00000013          	addi	x0,x0,0
    80000434:	00000013          	addi	x0,x0,0
    80000438:	00000013          	addi	x0,x0,0
    8000043c:	00000013          	addi	x0,x0,0
    80000440:	fff00c93          	addi	x25,x0,-1
    80000444:	03fc9c93          	slli	x25,x25,0x3f
    80000448:	000b8393          	addi	x7,x23,0
    8000044c:	ff600113          	addi	x2,x0,-10
    80000450:	402383b3          	sub	x7,x7,x2
    80000454:	ff93bb23          	sd	x25,-10(x7)
    80000458:	00000013          	addi	x0,x0,0
    8000045c:	00000013          	addi	x0,x0,0
    80000460:	00000093          	addi	x1,x0,0
    80000464:	008b8e13          	addi	x28,x23,8
    80000468:	80000113          	addi	x2,x0,-2048
    8000046c:	402e0e33          	sub	x28,x28,x2
    80000470:	801e3023          	sd	x1,-2048(x28)
    80000474:	00000013          	addi	x0,x0,0
    80000478:	00000013          	addi	x0,x0,0
    8000047c:	fff00713          	addi	x14,x0,-1
    80000480:	00175713          	srli	x14,x14,0x1
    80000484:	010b8c13          	addi	x24,x23,16
    80000488:	00800113          	addi	x2,x0,8
    8000048c:	402c0c33          	sub	x24,x24,x2
    80000490:	00ec3423          	sd	x14,8(x24)
    80000494:	00000013          	addi	x0,x0,0
    80000498:	00000013          	addi	x0,x0,0
    8000049c:	00100793          	addi	x15,x0,1
    800004a0:	018b8e93          	addi	x29,x23,24
    800004a4:	00400113          	addi	x2,x0,4
    800004a8:	402e8eb3          	sub	x29,x29,x2
    800004ac:	00feb223          	sd	x15,4(x29)
    800004b0:	00000013          	addi	x0,x0,0
    800004b4:	00000013          	addi	x0,x0,0
    800004b8:	00100313          	addi	x6,x0,1
    800004bc:	01331313          	slli	x6,x6,0x13
    800004c0:	020b8513          	addi	x10,x23,32
    800004c4:	00900113          	addi	x2,x0,9
    800004c8:	40250533          	sub	x10,x10,x2
    800004cc:	006534a3          	sd	x6,9(x10)
    800004d0:	00000013          	addi	x0,x0,0
    800004d4:	00000013          	addi	x0,x0,0
    800004d8:	00100693          	addi	x13,x0,1
    800004dc:	03d69693          	slli	x13,x13,0x3d
    800004e0:	fff6c693          	xori	x13,x13,-1
    800004e4:	028b8093          	addi	x1,x23,40
    800004e8:	aaa00113          	addi	x2,x0,-1366
    800004ec:	402080b3          	sub	x1,x1,x2
    800004f0:	aad0b523          	sd	x13,-1366(x1)
    800004f4:	00000013          	addi	x0,x0,0
    800004f8:	00000013          	addi	x0,x0,0
    800004fc:	00100293          	addi	x5,x0,1
    80000500:	01429293          	slli	x5,x5,0x14
    80000504:	fff2c293          	xori	x5,x5,-1
    80000508:	030b8d13          	addi	x26,x23,48
    8000050c:	ffb00113          	addi	x2,x0,-5
    80000510:	402d0d33          	sub	x26,x26,x2
    80000514:	fe5d3da3          	sd	x5,-5(x26)
    80000518:	00000013          	addi	x0,x0,0
    8000051c:	00000013          	addi	x0,x0,0
    80000520:	00100993          	addi	x19,x0,1
    80000524:	01d99993          	slli	x19,x19,0x1d
    80000528:	038b8493          	addi	x9,x23,56
    8000052c:	00500113          	addi	x2,x0,5
    80000530:	402484b3          	sub	x9,x9,x2
    80000534:	0134b2a3          	sd	x19,5(x9)
    80000538:	00000013          	addi	x0,x0,0
    8000053c:	00000013          	addi	x0,x0,0
    80000540:	00100893          	addi	x17,x0,1
    80000544:	01189893          	slli	x17,x17,0x11
    80000548:	040b8313          	addi	x6,x23,64
    8000054c:	7ff00113          	addi	x2,x0,2047
    80000550:	40230333          	sub	x6,x6,x2
    80000554:	7f133fa3          	sd	x17,2047(x6)
    80000558:	00000013          	addi	x0,x0,0
    8000055c:	00000013          	addi	x0,x0,0
    80000560:	00100593          	addi	x11,x0,1
    80000564:	01659593          	slli	x11,x11,0x16
    80000568:	048b8913          	addi	x18,x23,72
    8000056c:	00000113          	addi	x2,x0,0
    80000570:	40290933          	sub	x18,x18,x2
    80000574:	00b93023          	sd	x11,0(x18)
    80000578:	00000013          	addi	x0,x0,0
    8000057c:	00000013          	addi	x0,x0,0
    80000580:	00200e13          	addi	x28,x0,2
    80000584:	050b8713          	addi	x14,x23,80
    80000588:	00800113          	addi	x2,x0,8
    8000058c:	40270733          	sub	x14,x14,x2
    80000590:	01c73423          	sd	x28,8(x14)
    80000594:	00000013          	addi	x0,x0,0
    80000598:	00000013          	addi	x0,x0,0
    8000059c:	00400f13          	addi	x30,x0,4
    800005a0:	058b8b13          	addi	x22,x23,88
    800005a4:	ff900113          	addi	x2,x0,-7
    800005a8:	402b0b33          	sub	x22,x22,x2
    800005ac:	ffeb3ca3          	sd	x30,-7(x22)
    800005b0:	00000013          	addi	x0,x0,0
    800005b4:	00000013          	addi	x0,x0,0
    800005b8:	00800913          	addi	x18,x0,8
    800005bc:	060b8213          	addi	x4,x23,96
    800005c0:	ffe00113          	addi	x2,x0,-2
    800005c4:	40220233          	sub	x4,x4,x2
    800005c8:	ff223f23          	sd	x18,-2(x4) # 0xfffffffffffffffe
    800005cc:	00000013          	addi	x0,x0,0
    800005d0:	00000013          	addi	x0,x0,0
    800005d4:	01000a93          	addi	x21,x0,16
    800005d8:	068b8593          	addi	x11,x23,104
    800005dc:	aaa00113          	addi	x2,x0,-1366
    800005e0:	402585b3          	sub	x11,x11,x2
    800005e4:	ab55b523          	sd	x21,-1366(x11)
    800005e8:	00000013          	addi	x0,x0,0
    800005ec:	00000013          	addi	x0,x0,0
    800005f0:	02000e93          	addi	x29,x0,32
    800005f4:	070b8813          	addi	x16,x23,112
    800005f8:	00800113          	addi	x2,x0,8
    800005fc:	40280833          	sub	x16,x16,x2
    80000600:	01d83423          	sd	x29,8(x16)
    80000604:	00000013          	addi	x0,x0,0
    80000608:	00000013          	addi	x0,x0,0
    8000060c:	04000b13          	addi	x22,x0,64
    80000610:	078b8193          	addi	x3,x23,120
    80000614:	00900113          	addi	x2,x0,9
    80000618:	402181b3          	sub	x3,x3,x2
    8000061c:	0161b4a3          	sd	x22,9(x3)
    80000620:	00000013          	addi	x0,x0,0
    80000624:	00000013          	addi	x0,x0,0
    80000628:	08000413          	addi	x8,x0,128
    8000062c:	080b8613          	addi	x12,x23,128
    80000630:	ffb00113          	addi	x2,x0,-5
    80000634:	40260633          	sub	x12,x12,x2
    80000638:	fe863da3          	sd	x8,-5(x12)
    8000063c:	00000013          	addi	x0,x0,0
    80000640:	00000013          	addi	x0,x0,0
    80000644:	10000f93          	addi	x31,x0,256
    80000648:	088b8693          	addi	x13,x23,136
    8000064c:	55500113          	addi	x2,x0,1365
    80000650:	402686b3          	sub	x13,x13,x2
    80000654:	55f6baa3          	sd	x31,1365(x13)
    80000658:	00000013          	addi	x0,x0,0
    8000065c:	00000013          	addi	x0,x0,0
    80000660:	20000613          	addi	x12,x0,512
    80000664:	090b8f13          	addi	x30,x23,144
    80000668:	20000313          	addi	x6,x0,512
    8000066c:	406f0f33          	sub	x30,x30,x6
    80000670:	20cf3023          	sd	x12,512(x30)
    80000674:	00000013          	addi	x0,x0,0
    80000678:	00000013          	addi	x0,x0,0
    8000067c:	40000113          	addi	x2,x0,1024
    80000680:	098b8a13          	addi	x20,x23,152
    80000684:	ffd00313          	addi	x6,x0,-3
    80000688:	406a0a33          	sub	x20,x20,x6
    8000068c:	fe2a3ea3          	sd	x2,-3(x20)
    80000690:	00000013          	addi	x0,x0,0
    80000694:	00000013          	addi	x0,x0,0
    80000698:	00000013          	addi	x0,x0,0
    8000069c:	00000013          	addi	x0,x0,0
    800006a0:	00003097          	auipc	x1,0x3
    800006a4:	a0808093          	addi	x1,x1,-1528 # 0x800030a8
    800006a8:	00000013          	addi	x0,x0,0
    800006ac:	00000013          	addi	x0,x0,0
    800006b0:	00000013          	addi	x0,x0,0
    800006b4:	00000013          	addi	x0,x0,0
    800006b8:	00000013          	addi	x0,x0,0
    800006bc:	00000013          	addi	x0,x0,0
    800006c0:	00100393          	addi	x7,x0,1
    800006c4:	00b39393          	slli	x7,x7,0xb
    800006c8:	00008993          	addi	x19,x1,0
    800006cc:	00400313          	addi	x6,x0,4
    800006d0:	406989b3          	sub	x19,x19,x6
    800006d4:	0079b223          	sd	x7,4(x19)
    800006d8:	00000013          	addi	x0,x0,0
    800006dc:	00000013          	addi	x0,x0,0
    800006e0:	00100213          	addi	x4,x0,1
    800006e4:	00c21213          	slli	x4,x4,0xc
    800006e8:	00808113          	addi	x2,x1,8
    800006ec:	dff00313          	addi	x6,x0,-513
    800006f0:	40610133          	sub	x2,x2,x6
    800006f4:	de413fa3          	sd	x4,-513(x2)
    800006f8:	00000013          	addi	x0,x0,0
    800006fc:	00000013          	addi	x0,x0,0
    80000700:	00000013          	addi	x0,x0,0
    80000704:	01008c93          	addi	x25,x1,16
    80000708:	ffe00313          	addi	x6,x0,-2
    8000070c:	406c8cb3          	sub	x25,x25,x6
    80000710:	fe0cbf23          	sd	x0,-2(x25)
    80000714:	00000013          	addi	x0,x0,0
    80000718:	00000013          	addi	x0,x0,0
    8000071c:	00100193          	addi	x3,x0,1
    80000720:	00e19193          	slli	x3,x3,0xe
    80000724:	01808413          	addi	x8,x1,24
    80000728:	ff800313          	addi	x6,x0,-8
    8000072c:	40640433          	sub	x8,x8,x6
    80000730:	fe343c23          	sd	x3,-8(x8)
    80000734:	00000013          	addi	x0,x0,0
    80000738:	00000013          	addi	x0,x0,0
    8000073c:	00100a13          	addi	x20,x0,1
    80000740:	00fa1a13          	slli	x20,x20,0xf
    80000744:	02008793          	addi	x15,x1,32
    80000748:	fff00313          	addi	x6,x0,-1
    8000074c:	406787b3          	sub	x15,x15,x6
    80000750:	ff47bfa3          	sd	x20,-1(x15)
    80000754:	00000013          	addi	x0,x0,0
    80000758:	00000013          	addi	x0,x0,0
    8000075c:	00100c13          	addi	x24,x0,1
    80000760:	010c1c13          	slli	x24,x24,0x10
    80000764:	02808293          	addi	x5,x1,40
    80000768:	01000313          	addi	x6,x0,16
    8000076c:	406282b3          	sub	x5,x5,x6
    80000770:	0182b823          	sd	x24,16(x5)
    80000774:	00000013          	addi	x0,x0,0
    80000778:	00000013          	addi	x0,x0,0
    8000077c:	00100d93          	addi	x27,x0,1
    80000780:	012d9d93          	slli	x27,x27,0x12
    80000784:	03008893          	addi	x17,x1,48
    80000788:	00000313          	addi	x6,x0,0
    8000078c:	406888b3          	sub	x17,x17,x6
    80000790:	01b8b023          	sd	x27,0(x17)
    80000794:	00000013          	addi	x0,x0,0
    80000798:	00000013          	addi	x0,x0,0
    8000079c:	00100493          	addi	x9,x0,1
    800007a0:	01449493          	slli	x9,x9,0x14
    800007a4:	03808b93          	addi	x23,x1,56
    800007a8:	3ff00313          	addi	x6,x0,1023
    800007ac:	406b8bb3          	sub	x23,x23,x6
    800007b0:	3e9bbfa3          	sd	x9,1023(x23)
    800007b4:	00000013          	addi	x0,x0,0
    800007b8:	00000013          	addi	x0,x0,0
    800007bc:	00100d13          	addi	x26,x0,1
    800007c0:	015d1d13          	slli	x26,x26,0x15
    800007c4:	04008d93          	addi	x27,x1,64
    800007c8:	ff700313          	addi	x6,x0,-9
    800007cc:	406d8db3          	sub	x27,x27,x6
    800007d0:	ffadbba3          	sd	x26,-9(x27)
    800007d4:	00000013          	addi	x0,x0,0
    800007d8:	00000013          	addi	x0,x0,0
    800007dc:	00100513          	addi	x10,x0,1
    800007e0:	01751513          	slli	x10,x10,0x17
    800007e4:	04808f93          	addi	x31,x1,72
    800007e8:	00900313          	addi	x6,x0,9
    800007ec:	406f8fb3          	sub	x31,x31,x6
    800007f0:	00afb4a3          	sd	x10,9(x31)
    800007f4:	00000013          	addi	x0,x0,0
    800007f8:	00000013          	addi	x0,x0,0
    800007fc:	00100b93          	addi	x23,x0,1
    80000800:	018b9b93          	slli	x23,x23,0x18
    80000804:	05008a93          	addi	x21,x1,80
    80000808:	00000313          	addi	x6,x0,0
    8000080c:	406a8ab3          	sub	x21,x21,x6
    80000810:	017ab023          	sd	x23,0(x21)
    80000814:	00000013          	addi	x0,x0,0
    80000818:	00000013          	addi	x0,x0,0
    8000081c:	00100813          	addi	x16,x0,1
    80000820:	01981813          	slli	x16,x16,0x19
    80000824:	05808593          	addi	x11,x1,88
    80000828:	10000313          	addi	x6,x0,256
    8000082c:	406585b3          	sub	x11,x11,x6
    80000830:	1105b023          	sd	x16,256(x11)
    80000834:	00000013          	addi	x0,x0,0
    80000838:	00000013          	addi	x0,x0,0
    8000083c:	00100593          	addi	x11,x0,1
    80000840:	01a59593          	slli	x11,x11,0x1a
    80000844:	06008513          	addi	x10,x1,96
    80000848:	fdf00313          	addi	x6,x0,-33
    8000084c:	40650533          	sub	x10,x10,x6
    80000850:	fcb53fa3          	sd	x11,-33(x10)
    80000854:	00000013          	addi	x0,x0,0
    80000858:	00000013          	addi	x0,x0,0
    8000085c:	00100593          	addi	x11,x0,1
    80000860:	01b59593          	slli	x11,x11,0x1b
    80000864:	06808513          	addi	x10,x1,104
    80000868:	ff900313          	addi	x6,x0,-7
    8000086c:	40650533          	sub	x10,x10,x6
    80000870:	feb53ca3          	sd	x11,-7(x10)
    80000874:	00000013          	addi	x0,x0,0
    80000878:	00000013          	addi	x0,x0,0
    8000087c:	00100593          	addi	x11,x0,1
    80000880:	01c59593          	slli	x11,x11,0x1c
    80000884:	07008513          	addi	x10,x1,112
    80000888:	3ff00313          	addi	x6,x0,1023
    8000088c:	40650533          	sub	x10,x10,x6
    80000890:	3eb53fa3          	sd	x11,1023(x10)
    80000894:	00000013          	addi	x0,x0,0
    80000898:	00000013          	addi	x0,x0,0
    8000089c:	00100593          	addi	x11,x0,1
    800008a0:	01e59593          	slli	x11,x11,0x1e
    800008a4:	07808513          	addi	x10,x1,120
    800008a8:	c0000313          	addi	x6,x0,-1024
    800008ac:	40650533          	sub	x10,x10,x6
    800008b0:	c0b53023          	sd	x11,-1024(x10)
    800008b4:	00000013          	addi	x0,x0,0
    800008b8:	00000013          	addi	x0,x0,0
    800008bc:	00100593          	addi	x11,x0,1
    800008c0:	01f59593          	slli	x11,x11,0x1f
    800008c4:	08008513          	addi	x10,x1,128
    800008c8:	bff00313          	addi	x6,x0,-1025
    800008cc:	40650533          	sub	x10,x10,x6
    800008d0:	beb53fa3          	sd	x11,-1025(x10)
    800008d4:	00000013          	addi	x0,x0,0
    800008d8:	00000013          	addi	x0,x0,0
    800008dc:	00100593          	addi	x11,x0,1
    800008e0:	02059593          	slli	x11,x11,0x20
    800008e4:	08808513          	addi	x10,x1,136
    800008e8:	80000313          	addi	x6,x0,-2048
    800008ec:	40650533          	sub	x10,x10,x6
    800008f0:	80b53023          	sd	x11,-2048(x10)
    800008f4:	00000013          	addi	x0,x0,0
    800008f8:	00000013          	addi	x0,x0,0
    800008fc:	00100593          	addi	x11,x0,1
    80000900:	02159593          	slli	x11,x11,0x21
    80000904:	09008513          	addi	x10,x1,144
    80000908:	f7f00313          	addi	x6,x0,-129
    8000090c:	40650533          	sub	x10,x10,x6
    80000910:	f6b53fa3          	sd	x11,-129(x10)
    80000914:	00000013          	addi	x0,x0,0
    80000918:	00000013          	addi	x0,x0,0
    8000091c:	00100593          	addi	x11,x0,1
    80000920:	02259593          	slli	x11,x11,0x22
    80000924:	09808513          	addi	x10,x1,152
    80000928:	ffa00313          	addi	x6,x0,-6
    8000092c:	40650533          	sub	x10,x10,x6
    80000930:	feb53d23          	sd	x11,-6(x10)
    80000934:	00000013          	addi	x0,x0,0
    80000938:	00000013          	addi	x0,x0,0
    8000093c:	00100593          	addi	x11,x0,1
    80000940:	02359593          	slli	x11,x11,0x23
    80000944:	0a008513          	addi	x10,x1,160
    80000948:	f7f00313          	addi	x6,x0,-129
    8000094c:	40650533          	sub	x10,x10,x6
    80000950:	f6b53fa3          	sd	x11,-129(x10)
    80000954:	00000013          	addi	x0,x0,0
    80000958:	00000013          	addi	x0,x0,0
    8000095c:	00100593          	addi	x11,x0,1
    80000960:	02459593          	slli	x11,x11,0x24
    80000964:	0a808513          	addi	x10,x1,168
    80000968:	dff00313          	addi	x6,x0,-513
    8000096c:	40650533          	sub	x10,x10,x6
    80000970:	deb53fa3          	sd	x11,-513(x10)
    80000974:	00000013          	addi	x0,x0,0
    80000978:	00000013          	addi	x0,x0,0
    8000097c:	00100593          	addi	x11,x0,1
    80000980:	02559593          	slli	x11,x11,0x25
    80000984:	0b008513          	addi	x10,x1,176
    80000988:	aaa00313          	addi	x6,x0,-1366
    8000098c:	40650533          	sub	x10,x10,x6
    80000990:	aab53523          	sd	x11,-1366(x10)
    80000994:	00000013          	addi	x0,x0,0
    80000998:	00000013          	addi	x0,x0,0
    8000099c:	00100593          	addi	x11,x0,1
    800009a0:	02659593          	slli	x11,x11,0x26
    800009a4:	0b808513          	addi	x10,x1,184
    800009a8:	ff800313          	addi	x6,x0,-8
    800009ac:	40650533          	sub	x10,x10,x6
    800009b0:	feb53c23          	sd	x11,-8(x10)
    800009b4:	00000013          	addi	x0,x0,0
    800009b8:	00000013          	addi	x0,x0,0
    800009bc:	00100593          	addi	x11,x0,1
    800009c0:	02759593          	slli	x11,x11,0x27
    800009c4:	0c008513          	addi	x10,x1,192
    800009c8:	3ff00313          	addi	x6,x0,1023
    800009cc:	40650533          	sub	x10,x10,x6
    800009d0:	3eb53fa3          	sd	x11,1023(x10)
    800009d4:	00000013          	addi	x0,x0,0
    800009d8:	00000013          	addi	x0,x0,0
    800009dc:	00100593          	addi	x11,x0,1
    800009e0:	02859593          	slli	x11,x11,0x28
    800009e4:	0c808513          	addi	x10,x1,200
    800009e8:	00900313          	addi	x6,x0,9
    800009ec:	40650533          	sub	x10,x10,x6
    800009f0:	00b534a3          	sd	x11,9(x10)
    800009f4:	00000013          	addi	x0,x0,0
    800009f8:	00000013          	addi	x0,x0,0
    800009fc:	00100593          	addi	x11,x0,1
    80000a00:	02959593          	slli	x11,x11,0x29
    80000a04:	0d008513          	addi	x10,x1,208
    80000a08:	08000313          	addi	x6,x0,128
    80000a0c:	40650533          	sub	x10,x10,x6
    80000a10:	08b53023          	sd	x11,128(x10)
    80000a14:	00000013          	addi	x0,x0,0
    80000a18:	00000013          	addi	x0,x0,0
    80000a1c:	00100593          	addi	x11,x0,1
    80000a20:	02a59593          	slli	x11,x11,0x2a
    80000a24:	0d808513          	addi	x10,x1,216
    80000a28:	c0000313          	addi	x6,x0,-1024
    80000a2c:	40650533          	sub	x10,x10,x6
    80000a30:	c0b53023          	sd	x11,-1024(x10)
    80000a34:	00000013          	addi	x0,x0,0
    80000a38:	00000013          	addi	x0,x0,0
    80000a3c:	00100593          	addi	x11,x0,1
    80000a40:	02b59593          	slli	x11,x11,0x2b
    80000a44:	0e008513          	addi	x10,x1,224
    80000a48:	80000313          	addi	x6,x0,-2048
    80000a4c:	40650533          	sub	x10,x10,x6
    80000a50:	80b53023          	sd	x11,-2048(x10)
    80000a54:	00000013          	addi	x0,x0,0
    80000a58:	00000013          	addi	x0,x0,0
    80000a5c:	00100593          	addi	x11,x0,1
    80000a60:	02c59593          	slli	x11,x11,0x2c
    80000a64:	0e808513          	addi	x10,x1,232
    80000a68:	00100313          	addi	x6,x0,1
    80000a6c:	40650533          	sub	x10,x10,x6
    80000a70:	00b530a3          	sd	x11,1(x10)
    80000a74:	00000013          	addi	x0,x0,0
    80000a78:	00000013          	addi	x0,x0,0
    80000a7c:	00100593          	addi	x11,x0,1
    80000a80:	02d59593          	slli	x11,x11,0x2d
    80000a84:	0f008513          	addi	x10,x1,240
    80000a88:	00400313          	addi	x6,x0,4
    80000a8c:	40650533          	sub	x10,x10,x6
    80000a90:	00b53223          	sd	x11,4(x10)
    80000a94:	00000013          	addi	x0,x0,0
    80000a98:	00000013          	addi	x0,x0,0
    80000a9c:	00100593          	addi	x11,x0,1
    80000aa0:	02e59593          	slli	x11,x11,0x2e
    80000aa4:	0f808513          	addi	x10,x1,248
    80000aa8:	00300313          	addi	x6,x0,3
    80000aac:	40650533          	sub	x10,x10,x6
    80000ab0:	00b531a3          	sd	x11,3(x10)
    80000ab4:	00000013          	addi	x0,x0,0
    80000ab8:	00000013          	addi	x0,x0,0
    80000abc:	00100593          	addi	x11,x0,1
    80000ac0:	02f59593          	slli	x11,x11,0x2f
    80000ac4:	10008513          	addi	x10,x1,256
    80000ac8:	04000313          	addi	x6,x0,64
    80000acc:	40650533          	sub	x10,x10,x6
    80000ad0:	04b53023          	sd	x11,64(x10)
    80000ad4:	00000013          	addi	x0,x0,0
    80000ad8:	00000013          	addi	x0,x0,0
    80000adc:	00100593          	addi	x11,x0,1
    80000ae0:	03059593          	slli	x11,x11,0x30
    80000ae4:	10808513          	addi	x10,x1,264
    80000ae8:	fff00313          	addi	x6,x0,-1
    80000aec:	40650533          	sub	x10,x10,x6
    80000af0:	feb53fa3          	sd	x11,-1(x10)
    80000af4:	00000013          	addi	x0,x0,0
    80000af8:	00000013          	addi	x0,x0,0
    80000afc:	00100593          	addi	x11,x0,1
    80000b00:	03159593          	slli	x11,x11,0x31
    80000b04:	11008513          	addi	x10,x1,272
    80000b08:	fef00313          	addi	x6,x0,-17
    80000b0c:	40650533          	sub	x10,x10,x6
    80000b10:	feb537a3          	sd	x11,-17(x10)
    80000b14:	00000013          	addi	x0,x0,0
    80000b18:	00000013          	addi	x0,x0,0
    80000b1c:	00100593          	addi	x11,x0,1
    80000b20:	03259593          	slli	x11,x11,0x32
    80000b24:	11808513          	addi	x10,x1,280
    80000b28:	fef00313          	addi	x6,x0,-17
    80000b2c:	40650533          	sub	x10,x10,x6
    80000b30:	feb537a3          	sd	x11,-17(x10)
    80000b34:	00000013          	addi	x0,x0,0
    80000b38:	00000013          	addi	x0,x0,0
    80000b3c:	00100593          	addi	x11,x0,1
    80000b40:	03359593          	slli	x11,x11,0x33
    80000b44:	12008513          	addi	x10,x1,288
    80000b48:	ffc00313          	addi	x6,x0,-4
    80000b4c:	40650533          	sub	x10,x10,x6
    80000b50:	feb53e23          	sd	x11,-4(x10)
    80000b54:	00000013          	addi	x0,x0,0
    80000b58:	00000013          	addi	x0,x0,0
    80000b5c:	00100593          	addi	x11,x0,1
    80000b60:	03459593          	slli	x11,x11,0x34
    80000b64:	12808513          	addi	x10,x1,296
    80000b68:	c0000313          	addi	x6,x0,-1024
    80000b6c:	40650533          	sub	x10,x10,x6
    80000b70:	c0b53023          	sd	x11,-1024(x10)
    80000b74:	00000013          	addi	x0,x0,0
    80000b78:	00000013          	addi	x0,x0,0
    80000b7c:	00100593          	addi	x11,x0,1
    80000b80:	03559593          	slli	x11,x11,0x35
    80000b84:	13008513          	addi	x10,x1,304
    80000b88:	01000313          	addi	x6,x0,16
    80000b8c:	40650533          	sub	x10,x10,x6
    80000b90:	00b53823          	sd	x11,16(x10)
    80000b94:	00000013          	addi	x0,x0,0
    80000b98:	00000013          	addi	x0,x0,0
    80000b9c:	00100593          	addi	x11,x0,1
    80000ba0:	03659593          	slli	x11,x11,0x36
    80000ba4:	13808513          	addi	x10,x1,312
    80000ba8:	3ff00313          	addi	x6,x0,1023
    80000bac:	40650533          	sub	x10,x10,x6
    80000bb0:	3eb53fa3          	sd	x11,1023(x10)
    80000bb4:	00000013          	addi	x0,x0,0
    80000bb8:	00000013          	addi	x0,x0,0
    80000bbc:	00100593          	addi	x11,x0,1
    80000bc0:	03759593          	slli	x11,x11,0x37
    80000bc4:	14008513          	addi	x10,x1,320
    80000bc8:	01000313          	addi	x6,x0,16
    80000bcc:	40650533          	sub	x10,x10,x6
    80000bd0:	00b53823          	sd	x11,16(x10)
    80000bd4:	00000013          	addi	x0,x0,0
    80000bd8:	00000013          	addi	x0,x0,0
    80000bdc:	00100593          	addi	x11,x0,1
    80000be0:	03859593          	slli	x11,x11,0x38
    80000be4:	14808513          	addi	x10,x1,328
    80000be8:	ffc00313          	addi	x6,x0,-4
    80000bec:	40650533          	sub	x10,x10,x6
    80000bf0:	feb53e23          	sd	x11,-4(x10)
    80000bf4:	00000013          	addi	x0,x0,0
    80000bf8:	00000013          	addi	x0,x0,0
    80000bfc:	00100593          	addi	x11,x0,1
    80000c00:	03959593          	slli	x11,x11,0x39
    80000c04:	15008513          	addi	x10,x1,336
    80000c08:	00000313          	addi	x6,x0,0
    80000c0c:	40650533          	sub	x10,x10,x6
    80000c10:	00b53023          	sd	x11,0(x10)
    80000c14:	00000013          	addi	x0,x0,0
    80000c18:	00000013          	addi	x0,x0,0
    80000c1c:	00100593          	addi	x11,x0,1
    80000c20:	03a59593          	slli	x11,x11,0x3a
    80000c24:	15808513          	addi	x10,x1,344
    80000c28:	40000313          	addi	x6,x0,1024
    80000c2c:	40650533          	sub	x10,x10,x6
    80000c30:	40b53023          	sd	x11,1024(x10)
    80000c34:	00000013          	addi	x0,x0,0
    80000c38:	00000013          	addi	x0,x0,0
    80000c3c:	00100593          	addi	x11,x0,1
    80000c40:	03b59593          	slli	x11,x11,0x3b
    80000c44:	16008513          	addi	x10,x1,352
    80000c48:	7ff00313          	addi	x6,x0,2047
    80000c4c:	40650533          	sub	x10,x10,x6
    80000c50:	7eb53fa3          	sd	x11,2047(x10)
    80000c54:	00000013          	addi	x0,x0,0
    80000c58:	00000013          	addi	x0,x0,0
    80000c5c:	00100593          	addi	x11,x0,1
    80000c60:	03c59593          	slli	x11,x11,0x3c
    80000c64:	16808513          	addi	x10,x1,360
    80000c68:	00600313          	addi	x6,x0,6
    80000c6c:	40650533          	sub	x10,x10,x6
    80000c70:	00b53323          	sd	x11,6(x10)
    80000c74:	00000013          	addi	x0,x0,0
    80000c78:	00000013          	addi	x0,x0,0
    80000c7c:	00100593          	addi	x11,x0,1
    80000c80:	03d59593          	slli	x11,x11,0x3d
    80000c84:	17008513          	addi	x10,x1,368
    80000c88:	00900313          	addi	x6,x0,9
    80000c8c:	40650533          	sub	x10,x10,x6
    80000c90:	00b534a3          	sd	x11,9(x10)
    80000c94:	00000013          	addi	x0,x0,0
    80000c98:	00000013          	addi	x0,x0,0
    80000c9c:	00100593          	addi	x11,x0,1
    80000ca0:	03e59593          	slli	x11,x11,0x3e
    80000ca4:	17808513          	addi	x10,x1,376
    80000ca8:	f7f00313          	addi	x6,x0,-129
    80000cac:	40650533          	sub	x10,x10,x6
    80000cb0:	f6b53fa3          	sd	x11,-129(x10)
    80000cb4:	00000013          	addi	x0,x0,0
    80000cb8:	00000013          	addi	x0,x0,0
    80000cbc:	00100593          	addi	x11,x0,1
    80000cc0:	03259593          	slli	x11,x11,0x32
    80000cc4:	fff5c593          	xori	x11,x11,-1
    80000cc8:	18008513          	addi	x10,x1,384
    80000ccc:	55500313          	addi	x6,x0,1365
    80000cd0:	40650533          	sub	x10,x10,x6
    80000cd4:	54b53aa3          	sd	x11,1365(x10)
    80000cd8:	00000013          	addi	x0,x0,0
    80000cdc:	00000013          	addi	x0,x0,0
    80000ce0:	00100593          	addi	x11,x0,1
    80000ce4:	03359593          	slli	x11,x11,0x33
    80000ce8:	fff5c593          	xori	x11,x11,-1
    80000cec:	18808513          	addi	x10,x1,392
    80000cf0:	04000313          	addi	x6,x0,64
    80000cf4:	40650533          	sub	x10,x10,x6
    80000cf8:	04b53023          	sd	x11,64(x10)
    80000cfc:	00000013          	addi	x0,x0,0
    80000d00:	00000013          	addi	x0,x0,0
    80000d04:	00100593          	addi	x11,x0,1
    80000d08:	03459593          	slli	x11,x11,0x34
    80000d0c:	fff5c593          	xori	x11,x11,-1
    80000d10:	19008513          	addi	x10,x1,400
    80000d14:	00300313          	addi	x6,x0,3
    80000d18:	40650533          	sub	x10,x10,x6
    80000d1c:	00b531a3          	sd	x11,3(x10)
    80000d20:	00000013          	addi	x0,x0,0
    80000d24:	00000013          	addi	x0,x0,0
    80000d28:	00100593          	addi	x11,x0,1
    80000d2c:	03559593          	slli	x11,x11,0x35
    80000d30:	fff5c593          	xori	x11,x11,-1
    80000d34:	19808513          	addi	x10,x1,408
    80000d38:	00000313          	addi	x6,x0,0
    80000d3c:	40650533          	sub	x10,x10,x6
    80000d40:	00b53023          	sd	x11,0(x10)
    80000d44:	00000013          	addi	x0,x0,0
    80000d48:	00000013          	addi	x0,x0,0
    80000d4c:	00100593          	addi	x11,x0,1
    80000d50:	03659593          	slli	x11,x11,0x36
    80000d54:	fff5c593          	xori	x11,x11,-1
    80000d58:	1a008513          	addi	x10,x1,416
    80000d5c:	fbf00313          	addi	x6,x0,-65
    80000d60:	40650533          	sub	x10,x10,x6
    80000d64:	fab53fa3          	sd	x11,-65(x10)
    80000d68:	00000013          	addi	x0,x0,0
    80000d6c:	00000013          	addi	x0,x0,0
    80000d70:	00100593          	addi	x11,x0,1
    80000d74:	03759593          	slli	x11,x11,0x37
    80000d78:	fff5c593          	xori	x11,x11,-1
    80000d7c:	1a808513          	addi	x10,x1,424
    80000d80:	20000313          	addi	x6,x0,512
    80000d84:	40650533          	sub	x10,x10,x6
    80000d88:	20b53023          	sd	x11,512(x10)
    80000d8c:	00000013          	addi	x0,x0,0
    80000d90:	00000013          	addi	x0,x0,0
    80000d94:	00100593          	addi	x11,x0,1
    80000d98:	03859593          	slli	x11,x11,0x38
    80000d9c:	fff5c593          	xori	x11,x11,-1
    80000da0:	1b008513          	addi	x10,x1,432
    80000da4:	01000313          	addi	x6,x0,16
    80000da8:	40650533          	sub	x10,x10,x6
    80000dac:	00b53823          	sd	x11,16(x10)
    80000db0:	00000013          	addi	x0,x0,0
    80000db4:	00000013          	addi	x0,x0,0
    80000db8:	00100593          	addi	x11,x0,1
    80000dbc:	03959593          	slli	x11,x11,0x39
    80000dc0:	fff5c593          	xori	x11,x11,-1
    80000dc4:	1b808513          	addi	x10,x1,440
    80000dc8:	bff00313          	addi	x6,x0,-1025
    80000dcc:	40650533          	sub	x10,x10,x6
    80000dd0:	beb53fa3          	sd	x11,-1025(x10)
    80000dd4:	00000013          	addi	x0,x0,0
    80000dd8:	00000013          	addi	x0,x0,0
    80000ddc:	00100593          	addi	x11,x0,1
    80000de0:	03a59593          	slli	x11,x11,0x3a
    80000de4:	fff5c593          	xori	x11,x11,-1
    80000de8:	1c008513          	addi	x10,x1,448
    80000dec:	aaa00313          	addi	x6,x0,-1366
    80000df0:	40650533          	sub	x10,x10,x6
    80000df4:	aab53523          	sd	x11,-1366(x10)
    80000df8:	00000013          	addi	x0,x0,0
    80000dfc:	00000013          	addi	x0,x0,0
    80000e00:	00100593          	addi	x11,x0,1
    80000e04:	03b59593          	slli	x11,x11,0x3b
    80000e08:	fff5c593          	xori	x11,x11,-1
    80000e0c:	1c808513          	addi	x10,x1,456
    80000e10:	00200313          	addi	x6,x0,2
    80000e14:	40650533          	sub	x10,x10,x6
    80000e18:	00b53123          	sd	x11,2(x10)
    80000e1c:	00000013          	addi	x0,x0,0
    80000e20:	00000013          	addi	x0,x0,0
    80000e24:	00100593          	addi	x11,x0,1
    80000e28:	03c59593          	slli	x11,x11,0x3c
    80000e2c:	fff5c593          	xori	x11,x11,-1
    80000e30:	1d008513          	addi	x10,x1,464
    80000e34:	fdf00313          	addi	x6,x0,-33
    80000e38:	40650533          	sub	x10,x10,x6
    80000e3c:	fcb53fa3          	sd	x11,-33(x10)
    80000e40:	00000013          	addi	x0,x0,0
    80000e44:	00000013          	addi	x0,x0,0
    80000e48:	00100593          	addi	x11,x0,1
    80000e4c:	03e59593          	slli	x11,x11,0x3e
    80000e50:	fff5c593          	xori	x11,x11,-1
    80000e54:	1d808513          	addi	x10,x1,472
    80000e58:	3ff00313          	addi	x6,x0,1023
    80000e5c:	40650533          	sub	x10,x10,x6
    80000e60:	3eb53fa3          	sd	x11,1023(x10)
    80000e64:	00000013          	addi	x0,x0,0
    80000e68:	00000013          	addi	x0,x0,0
    80000e6c:	555555b7          	lui	x11,0x55555
    80000e70:	55558593          	addi	x11,x11,1365 # 0x55555555
    80000e74:	00b59593          	slli	x11,x11,0xb
    80000e78:	2aa58593          	addi	x11,x11,682
    80000e7c:	00b59593          	slli	x11,x11,0xb
    80000e80:	55558593          	addi	x11,x11,1365
    80000e84:	00a59593          	slli	x11,x11,0xa
    80000e88:	15558593          	addi	x11,x11,341
    80000e8c:	1e008513          	addi	x10,x1,480
    80000e90:	ff900313          	addi	x6,x0,-7
    80000e94:	40650533          	sub	x10,x10,x6
    80000e98:	feb53ca3          	sd	x11,-7(x10)
    80000e9c:	00000013          	addi	x0,x0,0
    80000ea0:	00000013          	addi	x0,x0,0
    80000ea4:	aaaab5b7          	lui	x11,0xaaaab
    80000ea8:	aaa58593          	addi	x11,x11,-1366 # 0xffffffffaaaaaaaa
    80000eac:	00b59593          	slli	x11,x11,0xb
    80000eb0:	55558593          	addi	x11,x11,1365
    80000eb4:	00b59593          	slli	x11,x11,0xb
    80000eb8:	2aa58593          	addi	x11,x11,682
    80000ebc:	00a59593          	slli	x11,x11,0xa
    80000ec0:	2aa58593          	addi	x11,x11,682
    80000ec4:	1e808513          	addi	x10,x1,488
    80000ec8:	00000313          	addi	x6,x0,0
    80000ecc:	40650533          	sub	x10,x10,x6
    80000ed0:	00b53023          	sd	x11,0(x10)
    80000ed4:	00000013          	addi	x0,x0,0
    80000ed8:	00000013          	addi	x0,x0,0
    80000edc:	ffe00593          	addi	x11,x0,-2
    80000ee0:	1f008513          	addi	x10,x1,496
    80000ee4:	3ff00313          	addi	x6,x0,1023
    80000ee8:	40650533          	sub	x10,x10,x6
    80000eec:	3eb53fa3          	sd	x11,1023(x10)
    80000ef0:	00000013          	addi	x0,x0,0
    80000ef4:	00000013          	addi	x0,x0,0
    80000ef8:	ffd00593          	addi	x11,x0,-3
    80000efc:	1f808513          	addi	x10,x1,504
    80000f00:	c0000313          	addi	x6,x0,-1024
    80000f04:	40650533          	sub	x10,x10,x6
    80000f08:	c0b53023          	sd	x11,-1024(x10)
    80000f0c:	00000013          	addi	x0,x0,0
    80000f10:	00000013          	addi	x0,x0,0
    80000f14:	ffb00593          	addi	x11,x0,-5
    80000f18:	20008513          	addi	x10,x1,512
    80000f1c:	40000313          	addi	x6,x0,1024
    80000f20:	40650533          	sub	x10,x10,x6
    80000f24:	40b53023          	sd	x11,1024(x10)
    80000f28:	00000013          	addi	x0,x0,0
    80000f2c:	00000013          	addi	x0,x0,0
    80000f30:	ff700593          	addi	x11,x0,-9
    80000f34:	20808513          	addi	x10,x1,520
    80000f38:	fbf00313          	addi	x6,x0,-65
    80000f3c:	40650533          	sub	x10,x10,x6
    80000f40:	fab53fa3          	sd	x11,-65(x10)
    80000f44:	00000013          	addi	x0,x0,0
    80000f48:	00000013          	addi	x0,x0,0
    80000f4c:	fef00593          	addi	x11,x0,-17
    80000f50:	21008513          	addi	x10,x1,528
    80000f54:	10000313          	addi	x6,x0,256
    80000f58:	40650533          	sub	x10,x10,x6
    80000f5c:	10b53023          	sd	x11,256(x10)
    80000f60:	00000013          	addi	x0,x0,0
    80000f64:	00000013          	addi	x0,x0,0
    80000f68:	fdf00593          	addi	x11,x0,-33
    80000f6c:	21808513          	addi	x10,x1,536
    80000f70:	02000313          	addi	x6,x0,32
    80000f74:	40650533          	sub	x10,x10,x6
    80000f78:	02b53023          	sd	x11,32(x10)
    80000f7c:	00000013          	addi	x0,x0,0
    80000f80:	00000013          	addi	x0,x0,0
    80000f84:	fbf00593          	addi	x11,x0,-65
    80000f88:	22008513          	addi	x10,x1,544
    80000f8c:	ff900313          	addi	x6,x0,-7
    80000f90:	40650533          	sub	x10,x10,x6
    80000f94:	feb53ca3          	sd	x11,-7(x10)
    80000f98:	00000013          	addi	x0,x0,0
    80000f9c:	00000013          	addi	x0,x0,0
    80000fa0:	f7f00593          	addi	x11,x0,-129
    80000fa4:	22808513          	addi	x10,x1,552
    80000fa8:	3ff00313          	addi	x6,x0,1023
    80000fac:	40650533          	sub	x10,x10,x6
    80000fb0:	3eb53fa3          	sd	x11,1023(x10)
    80000fb4:	00000013          	addi	x0,x0,0
    80000fb8:	00000013          	addi	x0,x0,0
    80000fbc:	eff00593          	addi	x11,x0,-257
    80000fc0:	23008513          	addi	x10,x1,560
    80000fc4:	01000313          	addi	x6,x0,16
    80000fc8:	40650533          	sub	x10,x10,x6
    80000fcc:	00b53823          	sd	x11,16(x10)
    80000fd0:	00000013          	addi	x0,x0,0
    80000fd4:	00000013          	addi	x0,x0,0
    80000fd8:	dff00593          	addi	x11,x0,-513
    80000fdc:	23808513          	addi	x10,x1,568
    80000fe0:	00500313          	addi	x6,x0,5
    80000fe4:	40650533          	sub	x10,x10,x6
    80000fe8:	00b532a3          	sd	x11,5(x10)
    80000fec:	00000013          	addi	x0,x0,0
    80000ff0:	00000013          	addi	x0,x0,0
    80000ff4:	bff00593          	addi	x11,x0,-1025
    80000ff8:	24008513          	addi	x10,x1,576
    80000ffc:	00300313          	addi	x6,x0,3
    80001000:	40650533          	sub	x10,x10,x6
    80001004:	00b531a3          	sd	x11,3(x10)
    80001008:	00000013          	addi	x0,x0,0
    8000100c:	00000013          	addi	x0,x0,0
    80001010:	00100593          	addi	x11,x0,1
    80001014:	00b59593          	slli	x11,x11,0xb
    80001018:	fff5c593          	xori	x11,x11,-1
    8000101c:	24808513          	addi	x10,x1,584
    80001020:	ffa00313          	addi	x6,x0,-6
    80001024:	40650533          	sub	x10,x10,x6
    80001028:	feb53d23          	sd	x11,-6(x10)
    8000102c:	00000013          	addi	x0,x0,0
    80001030:	00000013          	addi	x0,x0,0
    80001034:	00100593          	addi	x11,x0,1
    80001038:	00c59593          	slli	x11,x11,0xc
    8000103c:	fff5c593          	xori	x11,x11,-1
    80001040:	25008513          	addi	x10,x1,592
    80001044:	ffb00313          	addi	x6,x0,-5
    80001048:	40650533          	sub	x10,x10,x6
    8000104c:	feb53da3          	sd	x11,-5(x10)
    80001050:	00000013          	addi	x0,x0,0
    80001054:	00000013          	addi	x0,x0,0
    80001058:	00100593          	addi	x11,x0,1
    8000105c:	00d59593          	slli	x11,x11,0xd
    80001060:	fff5c593          	xori	x11,x11,-1
    80001064:	25808513          	addi	x10,x1,600
    80001068:	ffd00313          	addi	x6,x0,-3
    8000106c:	40650533          	sub	x10,x10,x6
    80001070:	feb53ea3          	sd	x11,-3(x10)
    80001074:	00000013          	addi	x0,x0,0
    80001078:	00000013          	addi	x0,x0,0
    8000107c:	00100593          	addi	x11,x0,1
    80001080:	00e59593          	slli	x11,x11,0xe
    80001084:	fff5c593          	xori	x11,x11,-1
    80001088:	26008513          	addi	x10,x1,608
    8000108c:	04000313          	addi	x6,x0,64
    80001090:	40650533          	sub	x10,x10,x6
    80001094:	04b53023          	sd	x11,64(x10)
    80001098:	00000013          	addi	x0,x0,0
    8000109c:	00000013          	addi	x0,x0,0
    800010a0:	00100593          	addi	x11,x0,1
    800010a4:	00f59593          	slli	x11,x11,0xf
    800010a8:	fff5c593          	xori	x11,x11,-1
    800010ac:	26808513          	addi	x10,x1,616
    800010b0:	ff800313          	addi	x6,x0,-8
    800010b4:	40650533          	sub	x10,x10,x6
    800010b8:	feb53c23          	sd	x11,-8(x10)
    800010bc:	00000013          	addi	x0,x0,0
    800010c0:	00000013          	addi	x0,x0,0
    800010c4:	00100593          	addi	x11,x0,1
    800010c8:	01059593          	slli	x11,x11,0x10
    800010cc:	fff5c593          	xori	x11,x11,-1
    800010d0:	27008513          	addi	x10,x1,624
    800010d4:	ffa00313          	addi	x6,x0,-6
    800010d8:	40650533          	sub	x10,x10,x6
    800010dc:	feb53d23          	sd	x11,-6(x10)
    800010e0:	00000013          	addi	x0,x0,0
    800010e4:	00000013          	addi	x0,x0,0
    800010e8:	00100593          	addi	x11,x0,1
    800010ec:	01159593          	slli	x11,x11,0x11
    800010f0:	fff5c593          	xori	x11,x11,-1
    800010f4:	27808513          	addi	x10,x1,632
    800010f8:	fdf00313          	addi	x6,x0,-33
    800010fc:	40650533          	sub	x10,x10,x6
    80001100:	fcb53fa3          	sd	x11,-33(x10)
    80001104:	00000013          	addi	x0,x0,0
    80001108:	00000013          	addi	x0,x0,0
    8000110c:	00100593          	addi	x11,x0,1
    80001110:	01259593          	slli	x11,x11,0x12
    80001114:	fff5c593          	xori	x11,x11,-1
    80001118:	28008513          	addi	x10,x1,640
    8000111c:	ffc00313          	addi	x6,x0,-4
    80001120:	40650533          	sub	x10,x10,x6
    80001124:	feb53e23          	sd	x11,-4(x10)
    80001128:	00000013          	addi	x0,x0,0
    8000112c:	00000013          	addi	x0,x0,0
    80001130:	00100593          	addi	x11,x0,1
    80001134:	01359593          	slli	x11,x11,0x13
    80001138:	fff5c593          	xori	x11,x11,-1
    8000113c:	28808513          	addi	x10,x1,648
    80001140:	00500313          	addi	x6,x0,5
    80001144:	40650533          	sub	x10,x10,x6
    80001148:	00b532a3          	sd	x11,5(x10)
    8000114c:	00000013          	addi	x0,x0,0
    80001150:	00000013          	addi	x0,x0,0
    80001154:	00100593          	addi	x11,x0,1
    80001158:	01559593          	slli	x11,x11,0x15
    8000115c:	fff5c593          	xori	x11,x11,-1
    80001160:	29008513          	addi	x10,x1,656
    80001164:	eff00313          	addi	x6,x0,-257
    80001168:	40650533          	sub	x10,x10,x6
    8000116c:	eeb53fa3          	sd	x11,-257(x10)
    80001170:	00000013          	addi	x0,x0,0
    80001174:	00000013          	addi	x0,x0,0
    80001178:	00100593          	addi	x11,x0,1
    8000117c:	01659593          	slli	x11,x11,0x16
    80001180:	fff5c593          	xori	x11,x11,-1
    80001184:	29808513          	addi	x10,x1,664
    80001188:	aaa00313          	addi	x6,x0,-1366
    8000118c:	40650533          	sub	x10,x10,x6
    80001190:	aab53523          	sd	x11,-1366(x10)
    80001194:	00000013          	addi	x0,x0,0
    80001198:	00000013          	addi	x0,x0,0
    8000119c:	00100593          	addi	x11,x0,1
    800011a0:	01759593          	slli	x11,x11,0x17
    800011a4:	fff5c593          	xori	x11,x11,-1
    800011a8:	2a008513          	addi	x10,x1,672
    800011ac:	ff700313          	addi	x6,x0,-9
    800011b0:	40650533          	sub	x10,x10,x6
    800011b4:	feb53ba3          	sd	x11,-9(x10)
    800011b8:	00000013          	addi	x0,x0,0
    800011bc:	00000013          	addi	x0,x0,0
    800011c0:	00100593          	addi	x11,x0,1
    800011c4:	01859593          	slli	x11,x11,0x18
    800011c8:	fff5c593          	xori	x11,x11,-1
    800011cc:	2a808513          	addi	x10,x1,680
    800011d0:	80000313          	addi	x6,x0,-2048
    800011d4:	40650533          	sub	x10,x10,x6
    800011d8:	80b53023          	sd	x11,-2048(x10)
    800011dc:	00000013          	addi	x0,x0,0
    800011e0:	00000013          	addi	x0,x0,0
    800011e4:	00100593          	addi	x11,x0,1
    800011e8:	01959593          	slli	x11,x11,0x19
    800011ec:	fff5c593          	xori	x11,x11,-1
    800011f0:	2b008513          	addi	x10,x1,688
    800011f4:	40000313          	addi	x6,x0,1024
    800011f8:	40650533          	sub	x10,x10,x6
    800011fc:	40b53023          	sd	x11,1024(x10)
    80001200:	00000013          	addi	x0,x0,0
    80001204:	00000013          	addi	x0,x0,0
    80001208:	00100593          	addi	x11,x0,1
    8000120c:	01a59593          	slli	x11,x11,0x1a
    80001210:	fff5c593          	xori	x11,x11,-1
    80001214:	2b808513          	addi	x10,x1,696
    80001218:	fef00313          	addi	x6,x0,-17
    8000121c:	40650533          	sub	x10,x10,x6
    80001220:	feb537a3          	sd	x11,-17(x10)
    80001224:	00000013          	addi	x0,x0,0
    80001228:	00000013          	addi	x0,x0,0
    8000122c:	00100593          	addi	x11,x0,1
    80001230:	01b59593          	slli	x11,x11,0x1b
    80001234:	fff5c593          	xori	x11,x11,-1
    80001238:	2c008513          	addi	x10,x1,704
    8000123c:	fef00313          	addi	x6,x0,-17
    80001240:	40650533          	sub	x10,x10,x6
    80001244:	feb537a3          	sd	x11,-17(x10)
    80001248:	00000013          	addi	x0,x0,0
    8000124c:	00000013          	addi	x0,x0,0
    80001250:	00100593          	addi	x11,x0,1
    80001254:	01c59593          	slli	x11,x11,0x1c
    80001258:	fff5c593          	xori	x11,x11,-1
    8000125c:	2c808513          	addi	x10,x1,712
    80001260:	00200313          	addi	x6,x0,2
    80001264:	40650533          	sub	x10,x10,x6
    80001268:	00b53123          	sd	x11,2(x10)
    8000126c:	00000013          	addi	x0,x0,0
    80001270:	00000013          	addi	x0,x0,0
    80001274:	00100593          	addi	x11,x0,1
    80001278:	01d59593          	slli	x11,x11,0x1d
    8000127c:	fff5c593          	xori	x11,x11,-1
    80001280:	2d008513          	addi	x10,x1,720
    80001284:	eff00313          	addi	x6,x0,-257
    80001288:	40650533          	sub	x10,x10,x6
    8000128c:	eeb53fa3          	sd	x11,-257(x10)
    80001290:	00000013          	addi	x0,x0,0
    80001294:	00000013          	addi	x0,x0,0
    80001298:	00100593          	addi	x11,x0,1
    8000129c:	01e59593          	slli	x11,x11,0x1e
    800012a0:	fff5c593          	xori	x11,x11,-1
    800012a4:	2d808513          	addi	x10,x1,728
    800012a8:	55500313          	addi	x6,x0,1365
    800012ac:	40650533          	sub	x10,x10,x6
    800012b0:	54b53aa3          	sd	x11,1365(x10)
    800012b4:	00000013          	addi	x0,x0,0
    800012b8:	00000013          	addi	x0,x0,0
    800012bc:	00100593          	addi	x11,x0,1
    800012c0:	01f59593          	slli	x11,x11,0x1f
    800012c4:	fff5c593          	xori	x11,x11,-1
    800012c8:	2e008513          	addi	x10,x1,736
    800012cc:	eff00313          	addi	x6,x0,-257
    800012d0:	40650533          	sub	x10,x10,x6
    800012d4:	eeb53fa3          	sd	x11,-257(x10)
    800012d8:	00000013          	addi	x0,x0,0
    800012dc:	00000013          	addi	x0,x0,0
    800012e0:	00100593          	addi	x11,x0,1
    800012e4:	02059593          	slli	x11,x11,0x20
    800012e8:	fff5c593          	xori	x11,x11,-1
    800012ec:	2e808513          	addi	x10,x1,744
    800012f0:	00000313          	addi	x6,x0,0
    800012f4:	40650533          	sub	x10,x10,x6
    800012f8:	00b53023          	sd	x11,0(x10)
    800012fc:	00000013          	addi	x0,x0,0
    80001300:	00000013          	addi	x0,x0,0
    80001304:	00100593          	addi	x11,x0,1
    80001308:	02159593          	slli	x11,x11,0x21
    8000130c:	fff5c593          	xori	x11,x11,-1
    80001310:	2f008513          	addi	x10,x1,752
    80001314:	f7f00313          	addi	x6,x0,-129
    80001318:	40650533          	sub	x10,x10,x6
    8000131c:	f6b53fa3          	sd	x11,-129(x10)
    80001320:	00000013          	addi	x0,x0,0
    80001324:	00000013          	addi	x0,x0,0
    80001328:	00100593          	addi	x11,x0,1
    8000132c:	02259593          	slli	x11,x11,0x22
    80001330:	fff5c593          	xori	x11,x11,-1
    80001334:	2f808513          	addi	x10,x1,760
    80001338:	08000313          	addi	x6,x0,128
    8000133c:	40650533          	sub	x10,x10,x6
    80001340:	08b53023          	sd	x11,128(x10)
    80001344:	00000013          	addi	x0,x0,0
    80001348:	00000013          	addi	x0,x0,0
    8000134c:	00100593          	addi	x11,x0,1
    80001350:	02359593          	slli	x11,x11,0x23
    80001354:	fff5c593          	xori	x11,x11,-1
    80001358:	30008513          	addi	x10,x1,768
    8000135c:	00000313          	addi	x6,x0,0
    80001360:	40650533          	sub	x10,x10,x6
    80001364:	00b53023          	sd	x11,0(x10)
    80001368:	00000013          	addi	x0,x0,0
    8000136c:	00000013          	addi	x0,x0,0
    80001370:	00100593          	addi	x11,x0,1
    80001374:	02459593          	slli	x11,x11,0x24
    80001378:	fff5c593          	xori	x11,x11,-1
    8000137c:	30808513          	addi	x10,x1,776
    80001380:	01000313          	addi	x6,x0,16
    80001384:	40650533          	sub	x10,x10,x6
    80001388:	00b53823          	sd	x11,16(x10)
    8000138c:	00000013          	addi	x0,x0,0
    80001390:	00000013          	addi	x0,x0,0
    80001394:	00100593          	addi	x11,x0,1
    80001398:	02559593          	slli	x11,x11,0x25
    8000139c:	fff5c593          	xori	x11,x11,-1
    800013a0:	31008513          	addi	x10,x1,784
    800013a4:	00900313          	addi	x6,x0,9
    800013a8:	40650533          	sub	x10,x10,x6
    800013ac:	00b534a3          	sd	x11,9(x10)
    800013b0:	00000013          	addi	x0,x0,0
    800013b4:	00000013          	addi	x0,x0,0
    800013b8:	00100593          	addi	x11,x0,1
    800013bc:	02659593          	slli	x11,x11,0x26
    800013c0:	fff5c593          	xori	x11,x11,-1
    800013c4:	31808513          	addi	x10,x1,792
    800013c8:	f7f00313          	addi	x6,x0,-129
    800013cc:	40650533          	sub	x10,x10,x6
    800013d0:	f6b53fa3          	sd	x11,-129(x10)
    800013d4:	00000013          	addi	x0,x0,0
    800013d8:	00000013          	addi	x0,x0,0
    800013dc:	00100593          	addi	x11,x0,1
    800013e0:	02759593          	slli	x11,x11,0x27
    800013e4:	fff5c593          	xori	x11,x11,-1
    800013e8:	32008513          	addi	x10,x1,800
    800013ec:	ffb00313          	addi	x6,x0,-5
    800013f0:	40650533          	sub	x10,x10,x6
    800013f4:	feb53da3          	sd	x11,-5(x10)
    800013f8:	00000013          	addi	x0,x0,0
    800013fc:	00000013          	addi	x0,x0,0
    80001400:	00100593          	addi	x11,x0,1
    80001404:	02859593          	slli	x11,x11,0x28
    80001408:	fff5c593          	xori	x11,x11,-1
    8000140c:	32808513          	addi	x10,x1,808
    80001410:	55500313          	addi	x6,x0,1365
    80001414:	40650533          	sub	x10,x10,x6
    80001418:	54b53aa3          	sd	x11,1365(x10)
    8000141c:	00000013          	addi	x0,x0,0
    80001420:	00000013          	addi	x0,x0,0
    80001424:	00100593          	addi	x11,x0,1
    80001428:	02959593          	slli	x11,x11,0x29
    8000142c:	fff5c593          	xori	x11,x11,-1
    80001430:	33008513          	addi	x10,x1,816
    80001434:	ff900313          	addi	x6,x0,-7
    80001438:	40650533          	sub	x10,x10,x6
    8000143c:	feb53ca3          	sd	x11,-7(x10)
    80001440:	00000013          	addi	x0,x0,0
    80001444:	00000013          	addi	x0,x0,0
    80001448:	00100593          	addi	x11,x0,1
    8000144c:	02a59593          	slli	x11,x11,0x2a
    80001450:	fff5c593          	xori	x11,x11,-1
    80001454:	33808513          	addi	x10,x1,824
    80001458:	bff00313          	addi	x6,x0,-1025
    8000145c:	40650533          	sub	x10,x10,x6
    80001460:	beb53fa3          	sd	x11,-1025(x10)
    80001464:	00000013          	addi	x0,x0,0
    80001468:	00000013          	addi	x0,x0,0
    8000146c:	00100593          	addi	x11,x0,1
    80001470:	02b59593          	slli	x11,x11,0x2b
    80001474:	fff5c593          	xori	x11,x11,-1
    80001478:	34008513          	addi	x10,x1,832
    8000147c:	ff700313          	addi	x6,x0,-9
    80001480:	40650533          	sub	x10,x10,x6
    80001484:	feb53ba3          	sd	x11,-9(x10)
    80001488:	00000013          	addi	x0,x0,0
    8000148c:	00000013          	addi	x0,x0,0
    80001490:	00100593          	addi	x11,x0,1
    80001494:	02c59593          	slli	x11,x11,0x2c
    80001498:	fff5c593          	xori	x11,x11,-1
    8000149c:	34808513          	addi	x10,x1,840
    800014a0:	04000313          	addi	x6,x0,64
    800014a4:	40650533          	sub	x10,x10,x6
    800014a8:	04b53023          	sd	x11,64(x10)
    800014ac:	00000013          	addi	x0,x0,0
    800014b0:	00000013          	addi	x0,x0,0
    800014b4:	00100593          	addi	x11,x0,1
    800014b8:	02d59593          	slli	x11,x11,0x2d
    800014bc:	fff5c593          	xori	x11,x11,-1
    800014c0:	35008513          	addi	x10,x1,848
    800014c4:	00800313          	addi	x6,x0,8
    800014c8:	40650533          	sub	x10,x10,x6
    800014cc:	00b53423          	sd	x11,8(x10)
    800014d0:	00000013          	addi	x0,x0,0
    800014d4:	00000013          	addi	x0,x0,0
    800014d8:	00100593          	addi	x11,x0,1
    800014dc:	02e59593          	slli	x11,x11,0x2e
    800014e0:	fff5c593          	xori	x11,x11,-1
    800014e4:	35808513          	addi	x10,x1,856
    800014e8:	fff00313          	addi	x6,x0,-1
    800014ec:	40650533          	sub	x10,x10,x6
    800014f0:	feb53fa3          	sd	x11,-1(x10)
    800014f4:	00000013          	addi	x0,x0,0
    800014f8:	00000013          	addi	x0,x0,0
    800014fc:	00100593          	addi	x11,x0,1
    80001500:	02f59593          	slli	x11,x11,0x2f
    80001504:	fff5c593          	xori	x11,x11,-1
    80001508:	36008513          	addi	x10,x1,864
    8000150c:	08000313          	addi	x6,x0,128
    80001510:	40650533          	sub	x10,x10,x6
    80001514:	08b53023          	sd	x11,128(x10)
    80001518:	00000013          	addi	x0,x0,0
    8000151c:	00000013          	addi	x0,x0,0
    80001520:	00100593          	addi	x11,x0,1
    80001524:	03059593          	slli	x11,x11,0x30
    80001528:	fff5c593          	xori	x11,x11,-1
    8000152c:	36808513          	addi	x10,x1,872
    80001530:	00900313          	addi	x6,x0,9
    80001534:	40650533          	sub	x10,x10,x6
    80001538:	00b534a3          	sd	x11,9(x10)
    8000153c:	00000013          	addi	x0,x0,0
    80001540:	00000013          	addi	x0,x0,0
    80001544:	00100593          	addi	x11,x0,1
    80001548:	03159593          	slli	x11,x11,0x31
    8000154c:	fff5c593          	xori	x11,x11,-1
    80001550:	37008513          	addi	x10,x1,880
    80001554:	00600313          	addi	x6,x0,6
    80001558:	40650533          	sub	x10,x10,x6
    8000155c:	00b53323          	sd	x11,6(x10)
    80001560:	00000013          	addi	x0,x0,0
    80001564:	00000013          	addi	x0,x0,0
    80001568:	00100593          	addi	x11,x0,1
    8000156c:	00d59593          	slli	x11,x11,0xd
    80001570:	37808513          	addi	x10,x1,888
    80001574:	ffe00313          	addi	x6,x0,-2
    80001578:	40650533          	sub	x10,x10,x6
    8000157c:	feb53f23          	sd	x11,-2(x10)
    80001580:	00000013          	addi	x0,x0,0
    80001584:	00000013          	addi	x0,x0,0
    80001588:	0380006f          	jal	x0,0x800015c0
    8000158c:	1f813483          	ld	x9,504(x2)
    80001590:	20013303          	ld	x6,512(x2)
    80001594:	00930333          	add	x6,x6,x9
    80001598:	00000337          	lui	x6,0x0
    8000159c:	00030313          	addi	x6,x6,0 # 0x0
    800015a0:	00b31313          	slli	x6,x6,0xb
    800015a4:	5d630313          	addi	x6,x6,1494
    800015a8:	00b31313          	slli	x6,x6,0xb
    800015ac:	43630313          	addi	x6,x6,1078
    800015b0:	00a31313          	slli	x6,x6,0xa
    800015b4:	2d030313          	addi	x6,x6,720
    800015b8:	fe64be23          	sd	x6,-4(x9)
    800015bc:	0040006f          	jal	x0,0x800015c0
    800015c0:	00000513          	addi	x10,x0,0
    800015c4:	0240006f          	jal	x0,0x800015e8
	...
    800015e8:	00050513          	addi	x10,x10,0
    800015ec:	00100073          	ebreak
    800015f0:	0000006f          	jal	x0,0x800015f0
    800015f4:	ff010113          	addi	x2,x2,-16
    800015f8:	00000517          	auipc	x10,0x0
    800015fc:	02050513          	addi	x10,x10,32 # 0x80001618
    80001600:	00113423          	sd	x1,8(x2)
    80001604:	a0dfe0ef          	jal	x1,0x80000010
    80001608:	00050513          	addi	x10,x10,0
    8000160c:	00100073          	ebreak
    80001610:	0000006f          	jal	x0,0x80001610
	...
    80002000:	cafe                	c.swsp	x31,84(x2)
    80002002:	babe                	c.fsdsp	f15,368(x2)
    80002004:	cafe                	c.swsp	x31,84(x2)
    80002006:	babe                	c.fsdsp	f15,368(x2)
    80002008:	cafe                	c.swsp	x31,84(x2)
    8000200a:	babe                	c.fsdsp	f15,368(x2)
    8000200c:	cafe                	c.swsp	x31,84(x2)
    8000200e:	babe                	c.fsdsp	f15,368(x2)
    80002010:	deadbeef          	jal	x29,0x7ffdd5fa
    80002014:	deadbeef          	jal	x29,0x7ffdd5fe
	...
    80003000:	b281                	c.j	0x80002940
    80003002:	e7d4                	c.sd	x13,136(x15)
    80003004:	a309                	c.j	0x80003506
    80003006:	6f5c                	c.ld	x15,152(x14)
    80003008:	deadbeef          	jal	x29,0x7ffde5f2
    8000300c:	deadbeef          	jal	x29,0x7ffde5f6
    80003010:	deadbeef          	jal	x29,0x7ffde5fa
    80003014:	deadbeef          	jal	x29,0x7ffde5fe
    80003018:	deadbeef          	jal	x29,0x7ffde602
    8000301c:	deadbeef          	jal	x29,0x7ffde606
    80003020:	deadbeef          	jal	x29,0x7ffde60a
    80003024:	deadbeef          	jal	x29,0x7ffde60e
    80003028:	deadbeef          	jal	x29,0x7ffde612
    8000302c:	deadbeef          	jal	x29,0x7ffde616
    80003030:	deadbeef          	jal	x29,0x7ffde61a
    80003034:	deadbeef          	jal	x29,0x7ffde61e
    80003038:	deadbeef          	jal	x29,0x7ffde622
    8000303c:	deadbeef          	jal	x29,0x7ffde626
    80003040:	deadbeef          	jal	x29,0x7ffde62a
    80003044:	deadbeef          	jal	x29,0x7ffde62e
    80003048:	deadbeef          	jal	x29,0x7ffde632
    8000304c:	deadbeef          	jal	x29,0x7ffde636
    80003050:	deadbeef          	jal	x29,0x7ffde63a
    80003054:	deadbeef          	jal	x29,0x7ffde63e
    80003058:	deadbeef          	jal	x29,0x7ffde642
    8000305c:	deadbeef          	jal	x29,0x7ffde646
    80003060:	deadbeef          	jal	x29,0x7ffde64a
    80003064:	deadbeef          	jal	x29,0x7ffde64e
    80003068:	deadbeef          	jal	x29,0x7ffde652
    8000306c:	deadbeef          	jal	x29,0x7ffde656
    80003070:	deadbeef          	jal	x29,0x7ffde65a
    80003074:	deadbeef          	jal	x29,0x7ffde65e
    80003078:	deadbeef          	jal	x29,0x7ffde662
    8000307c:	deadbeef          	jal	x29,0x7ffde666
    80003080:	deadbeef          	jal	x29,0x7ffde66a
    80003084:	deadbeef          	jal	x29,0x7ffde66e
    80003088:	deadbeef          	jal	x29,0x7ffde672
    8000308c:	deadbeef          	jal	x29,0x7ffde676
    80003090:	deadbeef          	jal	x29,0x7ffde67a
    80003094:	deadbeef          	jal	x29,0x7ffde67e
    80003098:	deadbeef          	jal	x29,0x7ffde682
    8000309c:	deadbeef          	jal	x29,0x7ffde686
    800030a0:	deadbeef          	jal	x29,0x7ffde68a
    800030a4:	deadbeef          	jal	x29,0x7ffde68e
    800030a8:	deadbeef          	jal	x29,0x7ffde692
    800030ac:	deadbeef          	jal	x29,0x7ffde696
    800030b0:	deadbeef          	jal	x29,0x7ffde69a
    800030b4:	deadbeef          	jal	x29,0x7ffde69e
    800030b8:	deadbeef          	jal	x29,0x7ffde6a2
    800030bc:	deadbeef          	jal	x29,0x7ffde6a6
    800030c0:	deadbeef          	jal	x29,0x7ffde6aa
    800030c4:	deadbeef          	jal	x29,0x7ffde6ae
    800030c8:	deadbeef          	jal	x29,0x7ffde6b2
    800030cc:	deadbeef          	jal	x29,0x7ffde6b6
    800030d0:	deadbeef          	jal	x29,0x7ffde6ba
    800030d4:	deadbeef          	jal	x29,0x7ffde6be
    800030d8:	deadbeef          	jal	x29,0x7ffde6c2
    800030dc:	deadbeef          	jal	x29,0x7ffde6c6
    800030e0:	deadbeef          	jal	x29,0x7ffde6ca
    800030e4:	deadbeef          	jal	x29,0x7ffde6ce
    800030e8:	deadbeef          	jal	x29,0x7ffde6d2
    800030ec:	deadbeef          	jal	x29,0x7ffde6d6
    800030f0:	deadbeef          	jal	x29,0x7ffde6da
    800030f4:	deadbeef          	jal	x29,0x7ffde6de
    800030f8:	deadbeef          	jal	x29,0x7ffde6e2
    800030fc:	deadbeef          	jal	x29,0x7ffde6e6
    80003100:	deadbeef          	jal	x29,0x7ffde6ea
    80003104:	deadbeef          	jal	x29,0x7ffde6ee
    80003108:	deadbeef          	jal	x29,0x7ffde6f2
    8000310c:	deadbeef          	jal	x29,0x7ffde6f6
    80003110:	deadbeef          	jal	x29,0x7ffde6fa
    80003114:	deadbeef          	jal	x29,0x7ffde6fe
    80003118:	deadbeef          	jal	x29,0x7ffde702
    8000311c:	deadbeef          	jal	x29,0x7ffde706
    80003120:	deadbeef          	jal	x29,0x7ffde70a
    80003124:	deadbeef          	jal	x29,0x7ffde70e
    80003128:	deadbeef          	jal	x29,0x7ffde712
    8000312c:	deadbeef          	jal	x29,0x7ffde716
    80003130:	deadbeef          	jal	x29,0x7ffde71a
    80003134:	deadbeef          	jal	x29,0x7ffde71e
    80003138:	deadbeef          	jal	x29,0x7ffde722
    8000313c:	deadbeef          	jal	x29,0x7ffde726
    80003140:	deadbeef          	jal	x29,0x7ffde72a
    80003144:	deadbeef          	jal	x29,0x7ffde72e
    80003148:	deadbeef          	jal	x29,0x7ffde732
    8000314c:	deadbeef          	jal	x29,0x7ffde736
    80003150:	deadbeef          	jal	x29,0x7ffde73a
    80003154:	deadbeef          	jal	x29,0x7ffde73e
    80003158:	deadbeef          	jal	x29,0x7ffde742
    8000315c:	deadbeef          	jal	x29,0x7ffde746
    80003160:	deadbeef          	jal	x29,0x7ffde74a
    80003164:	deadbeef          	jal	x29,0x7ffde74e
    80003168:	deadbeef          	jal	x29,0x7ffde752
    8000316c:	deadbeef          	jal	x29,0x7ffde756
    80003170:	deadbeef          	jal	x29,0x7ffde75a
    80003174:	deadbeef          	jal	x29,0x7ffde75e
    80003178:	deadbeef          	jal	x29,0x7ffde762
    8000317c:	deadbeef          	jal	x29,0x7ffde766
    80003180:	deadbeef          	jal	x29,0x7ffde76a
    80003184:	deadbeef          	jal	x29,0x7ffde76e
    80003188:	deadbeef          	jal	x29,0x7ffde772
    8000318c:	deadbeef          	jal	x29,0x7ffde776
    80003190:	deadbeef          	jal	x29,0x7ffde77a
    80003194:	deadbeef          	jal	x29,0x7ffde77e
    80003198:	deadbeef          	jal	x29,0x7ffde782
    8000319c:	deadbeef          	jal	x29,0x7ffde786
    800031a0:	deadbeef          	jal	x29,0x7ffde78a
    800031a4:	deadbeef          	jal	x29,0x7ffde78e
    800031a8:	deadbeef          	jal	x29,0x7ffde792
    800031ac:	deadbeef          	jal	x29,0x7ffde796
    800031b0:	deadbeef          	jal	x29,0x7ffde79a
    800031b4:	deadbeef          	jal	x29,0x7ffde79e
    800031b8:	deadbeef          	jal	x29,0x7ffde7a2
    800031bc:	deadbeef          	jal	x29,0x7ffde7a6
    800031c0:	deadbeef          	jal	x29,0x7ffde7aa
    800031c4:	deadbeef          	jal	x29,0x7ffde7ae
    800031c8:	deadbeef          	jal	x29,0x7ffde7b2
    800031cc:	deadbeef          	jal	x29,0x7ffde7b6
    800031d0:	deadbeef          	jal	x29,0x7ffde7ba
    800031d4:	deadbeef          	jal	x29,0x7ffde7be
    800031d8:	deadbeef          	jal	x29,0x7ffde7c2
    800031dc:	deadbeef          	jal	x29,0x7ffde7c6
    800031e0:	deadbeef          	jal	x29,0x7ffde7ca
    800031e4:	deadbeef          	jal	x29,0x7ffde7ce
    800031e8:	deadbeef          	jal	x29,0x7ffde7d2
    800031ec:	deadbeef          	jal	x29,0x7ffde7d6
    800031f0:	deadbeef          	jal	x29,0x7ffde7da
    800031f4:	deadbeef          	jal	x29,0x7ffde7de
    800031f8:	deadbeef          	jal	x29,0x7ffde7e2
    800031fc:	deadbeef          	jal	x29,0x7ffde7e6
    80003200:	deadbeef          	jal	x29,0x7ffde7ea
    80003204:	deadbeef          	jal	x29,0x7ffde7ee
    80003208:	deadbeef          	jal	x29,0x7ffde7f2
    8000320c:	deadbeef          	jal	x29,0x7ffde7f6
    80003210:	deadbeef          	jal	x29,0x7ffde7fa
    80003214:	deadbeef          	jal	x29,0x7ffde7fe
    80003218:	deadbeef          	jal	x29,0x7ffde802
    8000321c:	deadbeef          	jal	x29,0x7ffde806
    80003220:	deadbeef          	jal	x29,0x7ffde80a
    80003224:	deadbeef          	jal	x29,0x7ffde80e
    80003228:	deadbeef          	jal	x29,0x7ffde812
    8000322c:	deadbeef          	jal	x29,0x7ffde816
    80003230:	deadbeef          	jal	x29,0x7ffde81a
    80003234:	deadbeef          	jal	x29,0x7ffde81e
    80003238:	deadbeef          	jal	x29,0x7ffde822
    8000323c:	deadbeef          	jal	x29,0x7ffde826
    80003240:	deadbeef          	jal	x29,0x7ffde82a
    80003244:	deadbeef          	jal	x29,0x7ffde82e
    80003248:	deadbeef          	jal	x29,0x7ffde832
    8000324c:	deadbeef          	jal	x29,0x7ffde836
    80003250:	deadbeef          	jal	x29,0x7ffde83a
    80003254:	deadbeef          	jal	x29,0x7ffde83e
    80003258:	deadbeef          	jal	x29,0x7ffde842
    8000325c:	deadbeef          	jal	x29,0x7ffde846
    80003260:	deadbeef          	jal	x29,0x7ffde84a
    80003264:	deadbeef          	jal	x29,0x7ffde84e
    80003268:	deadbeef          	jal	x29,0x7ffde852
    8000326c:	deadbeef          	jal	x29,0x7ffde856
    80003270:	deadbeef          	jal	x29,0x7ffde85a
    80003274:	deadbeef          	jal	x29,0x7ffde85e
    80003278:	deadbeef          	jal	x29,0x7ffde862
    8000327c:	deadbeef          	jal	x29,0x7ffde866
    80003280:	deadbeef          	jal	x29,0x7ffde86a
    80003284:	deadbeef          	jal	x29,0x7ffde86e
    80003288:	deadbeef          	jal	x29,0x7ffde872
    8000328c:	deadbeef          	jal	x29,0x7ffde876
    80003290:	deadbeef          	jal	x29,0x7ffde87a
    80003294:	deadbeef          	jal	x29,0x7ffde87e
    80003298:	deadbeef          	jal	x29,0x7ffde882
    8000329c:	deadbeef          	jal	x29,0x7ffde886
    800032a0:	deadbeef          	jal	x29,0x7ffde88a
    800032a4:	deadbeef          	jal	x29,0x7ffde88e
    800032a8:	deadbeef          	jal	x29,0x7ffde892
    800032ac:	deadbeef          	jal	x29,0x7ffde896
    800032b0:	deadbeef          	jal	x29,0x7ffde89a
    800032b4:	deadbeef          	jal	x29,0x7ffde89e
    800032b8:	deadbeef          	jal	x29,0x7ffde8a2
    800032bc:	deadbeef          	jal	x29,0x7ffde8a6
    800032c0:	deadbeef          	jal	x29,0x7ffde8aa
    800032c4:	deadbeef          	jal	x29,0x7ffde8ae
    800032c8:	deadbeef          	jal	x29,0x7ffde8b2
    800032cc:	deadbeef          	jal	x29,0x7ffde8b6
    800032d0:	deadbeef          	jal	x29,0x7ffde8ba
    800032d4:	deadbeef          	jal	x29,0x7ffde8be
    800032d8:	deadbeef          	jal	x29,0x7ffde8c2
    800032dc:	deadbeef          	jal	x29,0x7ffde8c6
    800032e0:	deadbeef          	jal	x29,0x7ffde8ca
    800032e4:	deadbeef          	jal	x29,0x7ffde8ce
    800032e8:	deadbeef          	jal	x29,0x7ffde8d2
    800032ec:	deadbeef          	jal	x29,0x7ffde8d6
    800032f0:	deadbeef          	jal	x29,0x7ffde8da
    800032f4:	deadbeef          	jal	x29,0x7ffde8de
    800032f8:	deadbeef          	jal	x29,0x7ffde8e2
    800032fc:	deadbeef          	jal	x29,0x7ffde8e6
    80003300:	deadbeef          	jal	x29,0x7ffde8ea
    80003304:	deadbeef          	jal	x29,0x7ffde8ee
    80003308:	deadbeef          	jal	x29,0x7ffde8f2
    8000330c:	deadbeef          	jal	x29,0x7ffde8f6
    80003310:	deadbeef          	jal	x29,0x7ffde8fa
    80003314:	deadbeef          	jal	x29,0x7ffde8fe
    80003318:	deadbeef          	jal	x29,0x7ffde902
    8000331c:	deadbeef          	jal	x29,0x7ffde906
    80003320:	deadbeef          	jal	x29,0x7ffde90a
    80003324:	deadbeef          	jal	x29,0x7ffde90e
    80003328:	deadbeef          	jal	x29,0x7ffde912
    8000332c:	deadbeef          	jal	x29,0x7ffde916
    80003330:	deadbeef          	jal	x29,0x7ffde91a
    80003334:	deadbeef          	jal	x29,0x7ffde91e
    80003338:	deadbeef          	jal	x29,0x7ffde922
    8000333c:	deadbeef          	jal	x29,0x7ffde926
    80003340:	deadbeef          	jal	x29,0x7ffde92a
    80003344:	deadbeef          	jal	x29,0x7ffde92e
    80003348:	deadbeef          	jal	x29,0x7ffde932
    8000334c:	deadbeef          	jal	x29,0x7ffde936
    80003350:	deadbeef          	jal	x29,0x7ffde93a
    80003354:	deadbeef          	jal	x29,0x7ffde93e
    80003358:	deadbeef          	jal	x29,0x7ffde942
    8000335c:	deadbeef          	jal	x29,0x7ffde946
    80003360:	deadbeef          	jal	x29,0x7ffde94a
    80003364:	deadbeef          	jal	x29,0x7ffde94e
    80003368:	deadbeef          	jal	x29,0x7ffde952
    8000336c:	deadbeef          	jal	x29,0x7ffde956
    80003370:	deadbeef          	jal	x29,0x7ffde95a
    80003374:	deadbeef          	jal	x29,0x7ffde95e
    80003378:	deadbeef          	jal	x29,0x7ffde962
    8000337c:	deadbeef          	jal	x29,0x7ffde966
    80003380:	deadbeef          	jal	x29,0x7ffde96a
    80003384:	deadbeef          	jal	x29,0x7ffde96e
    80003388:	deadbeef          	jal	x29,0x7ffde972
    8000338c:	deadbeef          	jal	x29,0x7ffde976
    80003390:	deadbeef          	jal	x29,0x7ffde97a
    80003394:	deadbeef          	jal	x29,0x7ffde97e
    80003398:	deadbeef          	jal	x29,0x7ffde982
    8000339c:	deadbeef          	jal	x29,0x7ffde986
    800033a0:	deadbeef          	jal	x29,0x7ffde98a
    800033a4:	deadbeef          	jal	x29,0x7ffde98e
    800033a8:	deadbeef          	jal	x29,0x7ffde992
    800033ac:	deadbeef          	jal	x29,0x7ffde996
    800033b0:	deadbeef          	jal	x29,0x7ffde99a
    800033b4:	deadbeef          	jal	x29,0x7ffde99e
    800033b8:	deadbeef          	jal	x29,0x7ffde9a2
    800033bc:	deadbeef          	jal	x29,0x7ffde9a6
    800033c0:	deadbeef          	jal	x29,0x7ffde9aa
    800033c4:	deadbeef          	jal	x29,0x7ffde9ae
    800033c8:	deadbeef          	jal	x29,0x7ffde9b2
    800033cc:	deadbeef          	jal	x29,0x7ffde9b6
    800033d0:	deadbeef          	jal	x29,0x7ffde9ba
    800033d4:	deadbeef          	jal	x29,0x7ffde9be
    800033d8:	deadbeef          	jal	x29,0x7ffde9c2
    800033dc:	deadbeef          	jal	x29,0x7ffde9c6
    800033e0:	deadbeef          	jal	x29,0x7ffde9ca
    800033e4:	deadbeef          	jal	x29,0x7ffde9ce
    800033e8:	deadbeef          	jal	x29,0x7ffde9d2
    800033ec:	deadbeef          	jal	x29,0x7ffde9d6
    800033f0:	deadbeef          	jal	x29,0x7ffde9da
    800033f4:	deadbeef          	jal	x29,0x7ffde9de
    800033f8:	deadbeef          	jal	x29,0x7ffde9e2
    800033fc:	deadbeef          	jal	x29,0x7ffde9e6
    80003400:	deadbeef          	jal	x29,0x7ffde9ea
    80003404:	deadbeef          	jal	x29,0x7ffde9ee
    80003408:	deadbeef          	jal	x29,0x7ffde9f2
    8000340c:	deadbeef          	jal	x29,0x7ffde9f6
    80003410:	deadbeef          	jal	x29,0x7ffde9fa
    80003414:	deadbeef          	jal	x29,0x7ffde9fe
    80003418:	deadbeef          	jal	x29,0x7ffdea02
    8000341c:	deadbeef          	jal	x29,0x7ffdea06
    80003420:	deadbeef          	jal	x29,0x7ffdea0a
    80003424:	deadbeef          	jal	x29,0x7ffdea0e
    80003428:	b281                	c.j	0x80002d68
    8000342a:	e7d4                	c.sd	x13,136(x15)
    8000342c:	a309                	c.j	0x8000392e
    8000342e:	6f5c                	c.ld	x15,152(x14)
