
bin/riscv-arch-test/sh-align-riscv64-nemu.bin:     file format binary

Contents of section .data:
 80000000 13040000 17c10000 1301c1ff ef100061  ...............a
 80000010 ef000003 13051000 ef10805f 13050000  ..........._....
 80000020 67800000 00000000 00000000 00000000  g...............
 80000030 00000000 00000000 00000000 00000000  ................
 80000040 b7c0edfe 9380d0ea 9390b000 9380707f  ..............p.
 80000050 9390b000 9380f036 9390a000 9380d02a  .......6.......*
 80000060 37e176ff 130161f5 1311b100 1301b17f  7.v...a.........
 80000070 1311b100 1301715b 1311a100 13016135  ......q[......a5
 80000080 b771bb7f 9381b1fa 9391b100 9381d13f  .q.............?
 80000090 9391b100 9381b16d 9391a100 9381b13a  .......m.......:
 800000a0 37b2ddbf 1302527d 1312b200 1302e25f  7.....R}......._
 800000b0 1312b200 1302d276 1312a200 1302523d  .......v......R=
 800000c0 b7e2eedf 9382a2be 9392b200 9382f26f  ...............o
 800000d0 9392b200 9382623b 9392a200 9382a23e  ......b;.......>
 800000e0 3773f76f 130353df 1313b300 1303f337  7s.o..S........7
 800000f0 1313b300 1303b35d 1313a300 1303531f  .......]......S.
 80000100 b7b3fbb7 9383a36f 9393b300 9383f35b  .......o.......[
 80000110 9393b300 9383d36e 9393a300 9383a32f  .......n......./
 80000120 37e4fd5b 1304d4b7 1314b400 1304f42d  7..[...........-
 80000130 1314b400 13046477 1314a400 1304d437  ......dw.......7
 80000140 b7f4fead 9384e4db 9394b400 9384f456  ...............V
 80000150 9394b400 9384b47b 9394a400 9384e41b  .......{........
 80000160 3775ff56 1305f56d 1315b500 1305752b  7u.V...m......u+
 80000170 1315b500 1305d57d 1315a500 1305f52d  .......}.......-
 80000180 b7c57fab 9385f5b6 9395b500 9385b555  ...............U
 80000190 9395b500 9385e57e 9395a500 9385f536  .......~.......6
 800001a0 37e6bfd5 130676db 1316b600 1306d66a  7.....v........j
 800001b0 1316b600 1306767f 1316a600 1306761b  ......v.......v.
 800001c0 b7f6dfea 9386b6ed 9396b600 93866675  ..............fu
 800001d0 9396b600 9386b67f 9396a600 9386b62d  ...............-
 800001e0 37f76ff5 1307d776 1317b700 1307b77a  7.o....v.......z
 800001f0 1317b700 1307d73f 1317a700 1307d736  .......?.......6
 80000200 b707b8fa 938767bb 9397b700 9387577d  ......g.......W}
 80000210 9397b700 9387e75f 9397a700 9387673b  ......._......g;
 80000220 37085c7d 1308b8dd 1318b800 1308a83e  7.\}...........>
 80000230 1318b800 1308f86f 1318a800 1308b81d  .......o........
 80000240 b708aebe 9388d8ee 9398b800 9388585f  ..............X_
 80000250 9398b800 9388f837 9398a800 9388d82e  .......7........
 80000260 370957df 130969f7 1319b900 1309a96f  7.W...i........o
 80000270 1319b900 1309f95b 1319a900 13096937  .......[......i7
 80000280 b789ab6f 9389b9fb 9399b900 9389d937  ...o...........7
 80000290 9399b900 9389f92d 9399a900 9389b93b  .......-.......;
 800002a0 37cad5b7 130adafd 131aba00 130aea5b  7..............[
 800002b0 131aba00 130afa56 131aaa00 130ada3d  .......V.......=
 800002c0 b7eaeadb 938aeafe 939aba00 938afa6d  ...............m
 800002d0 939aba00 938a7a2b 939aaa00 938aea3e  ......z+.......>
 800002e0 377bf56d 130b7bff 131bbb00 130bfb36  7{.m..{........6
 800002f0 131bbb00 130bbb55 131bab00 130b7b3f  .......U......{?
 80000300 b7bbfab6 938bbb7f 939bbb00 938b7b5b  ..............{[
 80000310 939bbb00 938bdb6a 939bab00 938bbb3f  .......j.......?
 80000320 376c7ddb 130cdcbf 131cbc00 130cbc6d  7l}............m
 80000330 131cbc00 130c6c75 131cac00 130cdc3f  ......lu.......?
 80000340 b7bcbeed 938cecdf 939cbc00 938cdc76  ...............v
 80000350 939cbc00 938cbc7a 939cac00 938cec1f  .......z........
 80000360 375ddf76 130dfd6f 131dbd00 130d6d3b  7].v...o......m;
 80000370 131dbd00 130d5d7d 131dad00 130dfd2f  ......]}......./
 80000380 b7bd6fbb 938dfdb7 939dbd00 938dbd5d  ..o............]
 80000390 939dbd00 938dad3e 939dad00 938dfd37  .......>.......7
 800003a0 37deb7dd 130efe5b 131ebe00 130ede6e  7......[.......n
 800003b0 131ebe00 130e5e5f 131eae00 130efe1b  ......^_........
 800003c0 b7fedbee 938efead 939ebe00 938e6e77  ..............nw
 800003d0 939ebe00 938eae6f 939eae00 938efe2d  .......o.......-
 800003e0 37ff6df7 130fff56 131fbf00 130fbf7b  7.m....V.......{
 800003f0 131fbf00 130fdf37 131faf00 130fff16  .......7........
 80000400 b70fb7fb 938f7fab 939fbf00 938fdf7d  ...............}
 80000410 939fbf00 938fef5b 939faf00 938f7f2b  .......[.......+
 80000420 97330000 938383be 13000000 13000000  .3..............
 80000430 13000000 13000000 13000000 13000000  ................
 80000440 1305f0ff 1315f503 938e0300 93042000  .............. .
 80000450 b38e9e40 2391ae00 13000000 13000000  ...@#...........
 80000460 13070000 138e8300 93049000 330e9e40  ............3..@
 80000470 a314ee00 13000000 13000000 1304f0ff  ................
 80000480 13541400 13880301 93040008 33089840  .T..........3..@
 80000490 23108808 13000000 13000000 13081000  #...............
 800004a0 938f8301 93045000 b38f9f40 a3920f01  ......P....@....
 800004b0 13000000 13000000 13000000 93800302  ................
 800004c0 9304f07f b3809040 a39f007e 13000000  .......@...~....
 800004d0 13000000 93071000 9397a702 93c7f7ff  ................
 800004e0 1381a302 93040010 33019140 2310f110  ........3..@#...
 800004f0 13000000 13000000 9302f0ff 9392f203  ................
 80000500 13832303 9304d0ff 33039340 a31e53fe  ..#.....3..@..S.
 80000510 13000000 13000000 13011000 13119102  ................
 80000520 1385a303 93046000 33059540 23132500  ......`.3..@#.%.
 80000530 13000000 13000000 930c1000 939c5c03  ..............\.
 80000540 93812304 9304f07f b3819140 a39f917f  ..#........@....
 80000550 13000000 13000000 130d1000 131d1d02  ................
 80000560 138c8304 93040000 330c9c40 2310ac01  ........3..@#...
 80000570 13000000 13000000 930b2000 93870305  .......... .....
 80000580 93040020 b3879740 23907721 13000000  ... ...@#.w!....
 80000590 13000000 93014000 938d8305 930460ff  ......@.......`.
 800005a0 b38d9d40 239b3dfe 13000000 13000000  ...@#.=.........
 800005b0 130f8000 93860306 930470ff b3869640  ..........p....@
 800005c0 a39be6ff 13000000 13000000 13030001  ................
 800005d0 13878306 93040001 33079740 23186700  ........3..@#.g.
 800005e0 13000000 13000000 93080002 138f0307  ................
 800005f0 9304f0f7 330f9f40 a31f1ff7 13000000  ....3..@........
 80000600 13000000 130b0004 93898307 9304f0bf  ................
 80000610 b3899940 a39f69bf 13000000 13000000  ...@..i.........
 80000620 93050008 13860308 93045000 33069640  ..........P.3..@
 80000630 a312b600 13000000 13000000 93000010  ................
 80000640 138d8308 9304f0fe 330d9d40 a3171dfe  ........3..@....
 80000650 13000000 13000000 130a0020 13840309  ........... ....
 80000660 93040080 33049440 23104481 13000000  ....3..@#.D.....
 80000670 13000000 930f0040 13828309 93040002  .......@........
 80000680 33029240 2310f203 13000000 13000000  3..@#...........
 80000690 13091000 1319b900 938b030a 13010000  ................
 800006a0 b38b2b40 23902b01 13000000 13000000  ..+@#.+.........
 800006b0 13000000 13000000 13000000 13000000  ................
 800006c0 97300000 9380009f 13000000 13000000  .0..............
 800006d0 13000000 13000000 13000000 13000000  ................
 800006e0 13061000 1316c600 93840000 13019000  ................
 800006f0 b3842440 a394c400 13000000 13000000  ..$@............
 80000700 13021000 1312d200 13898000 13010020  ............... 
 80000710 33092940 23104920 13000000 13000000  3.)@#.I ........
 80000720 930d1000 939ded00 138a0001 13010004  ................
 80000730 330a2a40 2310ba05 13000000 13000000  3.*@#...........
 80000740 930a1000 939afa00 93838001 13010000  ................
 80000750 b3832340 23905301 13000000 13000000  ..#@#.S.........
 80000760 93041000 93940401 938c0002 130160ff  ..............`.
 80000770 b38c2c40 239b9cfe 13000000 13000000  ..,@#...........
 80000780 93091000 93991901 938a8002 1301d0ff  ................
 80000790 b38a2a40 a39e3aff 13000000 13000000  ..*@..:.........
 800007a0 930e1000 939e2e01 138b0003 1301f0df  ................
 800007b0 330b2b40 a31fdbdf 13000000 13000000  3.+@............
 800007c0 93031000 93933301 93888003 130180ff  ......3.........
 800007d0 b3882840 239c78fe 13000000 13000000  ..(@#.x.........
 800007e0 93061000 93964601 93820004 1301d0ff  ......F.........
 800007f0 b3822240 a39ed2fe 13000000 13000000  .."@............
 80000800 130c1000 131c5c01 93858004 1301f0fd  ......\.........
 80000810 b3852540 a39f85fd 13000000 13000000  ..%@............
 80000820 130e1000 131e6e01 13860005 130180ff  ......n.........
 80000830 33062640 231cc6ff 13000000 13000000  3.&@#...........
 80000840 93051000 93957501 13858005 13010002  ......u.........
 80000850 33052540 2310b502 13000000 13000000  3.%@#...........
 80000860 93051000 93958501 13850006 13016000  ..............`.
 80000870 33052540 2313b500 13000000 13000000  3.%@#...........
 80000880 93051000 93959501 13858006 13010040  ...............@
 80000890 33052540 2310b540 13000000 13000000  3.%@#..@........
 800008a0 93051000 9395a501 13850007 13017000  ..............p.
 800008b0 33052540 a313b500 13000000 13000000  3.%@............
 800008c0 93051000 9395b501 13858007 13010020  ............... 
 800008d0 33052540 2310b520 13000000 13000000  3.%@#.. ........
 800008e0 93051000 9395c501 13850008 13011000  ................
 800008f0 33052540 a310b500 13000000 13000000  3.%@............
 80000900 93051000 9395d501 13858008 13010080  ................
 80000910 33052540 2310b580 13000000 13000000  3.%@#...........
 80000920 93051000 9395e501 13850009 1301f0fb  ................
 80000930 33052540 a31fb5fa 13000000 13000000  3.%@............
 80000940 93051000 9395f501 13858009 13015000  ..............P.
 80000950 33052540 a312b500 13000000 13000000  3.%@............
 80000960 93051000 93950502 1385000a 13017000  ..............p.
 80000970 33052540 a313b500 13000000 13000000  3.%@............
 80000980 93051000 93952502 1385800a 1301f07f  ......%.........
 80000990 33052540 a31fb57e 13000000 13000000  3.%@...~........
 800009a0 93051000 93953502 1385000b 130100c0  ......5.........
 800009b0 33052540 2310b5c0 13000000 13000000  3.%@#...........
 800009c0 93051000 93954502 1385800b 13010010  ......E.........
 800009d0 33052540 2310b510 13000000 13000000  3.%@#...........
 800009e0 93051000 93955502 1385000c 1301f0bf  ......U.........
 800009f0 33052540 a31fb5be 13000000 13000000  3.%@............
 80000a00 93051000 93956502 1385800c 13010000  ......e.........
 80000a10 33052540 2310b500 13000000 13000000  3.%@#...........
 80000a20 93051000 93957502 1385000d 13014000  ......u.......@.
 80000a30 33052540 2312b500 13000000 13000000  3.%@#...........
 80000a40 93051000 93958502 1385800d 1301c0ff  ................
 80000a50 33052540 231eb5fe 13000000 13000000  3.%@#...........
 80000a60 93051000 9395a502 1385000e 1301f0ff  ................
 80000a70 33052540 a31fb5fe 13000000 13000000  3.%@............
 80000a80 93051000 9395b502 1385800e 1301f0df  ................
 80000a90 33052540 a31fb5de 13000000 13000000  3.%@............
 80000aa0 93051000 9395c502 1385000f 1301f0df  ................
 80000ab0 33052540 a31fb5de 13000000 13000000  3.%@............
 80000ac0 93051000 9395d502 1385800f 13010002  ................
 80000ad0 33052540 2310b502 13000000 13000000  3.%@#...........
 80000ae0 93051000 9395e502 13850010 13011000  ................
 80000af0 33052540 a310b500 13000000 13000000  3.%@............
 80000b00 93051000 9395f502 13858010 1301b0ff  ................
 80000b10 33052540 a31db5fe 13000000 13000000  3.%@............
 80000b20 93051000 93950503 13850011 13010002  ................
 80000b30 33052540 2310b502 13000000 13000000  3.%@#...........
 80000b40 93051000 93951503 13858011 1301f0f7  ................
 80000b50 33052540 a31fb5f6 13000000 13000000  3.%@............
 80000b60 93051000 93952503 13850012 1301f0ef  ......%.........
 80000b70 33052540 a31fb5ee 13000000 13000000  3.%@............
 80000b80 93051000 93953503 13858012 13010004  ......5.........
 80000b90 33052540 2310b504 13000000 13000000  3.%@#...........
 80000ba0 93051000 93954503 13850013 13013000  ......E.......0.
 80000bb0 33052540 a311b500 13000000 13000000  3.%@............
 80000bc0 93051000 93956503 13858013 13017000  ......e.......p.
 80000bd0 33052540 a313b500 13000000 13000000  3.%@............
 80000be0 93051000 93957503 13850014 13019000  ......u.........
 80000bf0 33052540 a314b500 13000000 13000000  3.%@............
 80000c00 93051000 93958503 13858014 13010002  ................
 80000c10 33052540 2310b502 13000000 13000000  3.%@#...........
 80000c20 93051000 93959503 13850015 13010000  ................
 80000c30 33052540 2310b500 13000000 13000000  3.%@#...........
 80000c40 93051000 9395a503 13858015 13010040  ...............@
 80000c50 33052540 2310b540 13000000 13000000  3.%@#..@........
 80000c60 93051000 9395b503 13850016 130160ff  ..............`.
 80000c70 33052540 231bb5fe 13000000 13000000  3.%@#...........
 80000c80 93051000 9395c503 13858016 1301a0aa  ................
 80000c90 33052540 2315b5aa 13000000 13000000  3.%@#...........
 80000ca0 93051000 9395d503 13850017 13010001  ................
 80000cb0 33052540 2318b500 13000000 13000000  3.%@#...........
 80000cc0 93051000 9395e503 13858017 13012000  .............. .
 80000cd0 33052540 2311b500 13000000 13000000  3.%@#...........
 80000ce0 93051000 93952503 93c5f5ff 13850018  ......%.........
 80000cf0 13010004 33052540 2310b504 13000000  ....3.%@#.......
 80000d00 13000000 93051000 93953503 93c5f5ff  ..........5.....
 80000d10 13858018 13012000 33052540 2311b500  ...... .3.%@#...
 80000d20 13000000 13000000 93051000 93954503  ..............E.
 80000d30 93c5f5ff 13850019 130100c0 33052540  ............3.%@
 80000d40 2310b5c0 13000000 13000000 93051000  #...............
 80000d50 93955503 93c5f5ff 13858019 1301f0bf  ..U.............
 80000d60 33052540 a31fb5be 13000000 13000000  3.%@............
 80000d70 93051000 93956503 93c5f5ff 1385001a  ......e.........
 80000d80 1301f03f 33052540 a31fb53e 13000000  ...?3.%@...>....
 80000d90 13000000 93051000 93957503 93c5f5ff  ..........u.....
 80000da0 1385801a 1301f0ff 33052540 a31fb5fe  ........3.%@....
 80000db0 13000000 13000000 93051000 93958503  ................
 80000dc0 93c5f5ff 1385001b 1301f0ef 33052540  ............3.%@
 80000dd0 a31fb5ee 13000000 13000000 93051000  ................
 80000de0 93959503 93c5f5ff 1385801b 130170ff  ..............p.
 80000df0 33052540 a31bb5fe 13000000 13000000  3.%@............
 80000e00 93051000 9395a503 93c5f5ff 1385001c  ................
 80000e10 1301d0ff 33052540 a31eb5fe 13000000  ....3.%@........
 80000e20 13000000 93051000 9395b503 93c5f5ff  ................
 80000e30 1385801c 1301a0aa 33052540 2315b5aa  ........3.%@#...
 80000e40 13000000 13000000 93051000 9395c503  ................
 80000e50 93c5f5ff 1385001d 130190ff 33052540  ............3.%@
 80000e60 a31cb5fe 13000000 13000000 93051000  ................
 80000e70 9395d503 93c5f5ff 1385801d 13013000  ..............0.
 80000e80 33052540 a311b500 13000000 13000000  3.%@............
 80000e90 93051000 9395e503 93c5f5ff 1385001e  ................
 80000ea0 1301d0ff 33052540 a31eb5fe 13000000  ....3.%@........
 80000eb0 13000000 b7555555 93855555 9395b500  .....UUU..UU....
 80000ec0 9385a52a 9395b500 93855555 9395a500  ...*......UU....
 80000ed0 93855515 1385801e 13010010 33052540  ..U.........3.%@
 80000ee0 2310b510 13000000 13000000 b7b5aaaa  #...............
 80000ef0 9385a5aa 9395b500 93855555 9395b500  ..........UU....
 80000f00 9385a52a 9395a500 9385a52a 1385001f  ...*.......*....
 80000f10 13015000 33052540 a312b500 13000000  ..P.3.%@........
 80000f20 13000000 9305d0ff 1385801f 1301a0ff  ................
 80000f30 33052540 231db5fe 13000000 13000000  3.%@#...........
 80000f40 9305b0ff 13850020 13010080 33052540  ....... ....3.%@
 80000f50 2310b580 13000000 13000000 930570ff  #.............p.
 80000f60 13858020 13010008 33052540 2310b508  ... ....3.%@#...
 80000f70 13000000 13000000 9305f0fe 13850021  ...............!
 80000f80 13010080 33052540 2310b580 13000000  ....3.%@#.......
 80000f90 13000000 9305f0fd 13858021 13010004  ...........!....
 80000fa0 33052540 2310b504 13000000 13000000  3.%@#...........
 80000fb0 9305f0fb 13850022 1301c0ff 33052540  ......."....3.%@
 80000fc0 231eb5fe 13000000 13000000 9305f0f7  #...............
 80000fd0 13858022 13013000 33052540 a311b500  ..."..0.3.%@....
 80000fe0 13000000 13000000 9305f0ef 13850023  ...............#
 80000ff0 130190ff 33052540 a31cb5fe 13000000  ....3.%@........
 80001000 13000000 9305f0df 13858023 1301f03f  ...........#...?
 80001010 33052540 a31fb53e 13000000 13000000  3.%@...>........
 80001020 9305f0bf 13850024 130100c0 33052540  .......$....3.%@
 80001030 2310b5c0 13000000 13000000 93051000  #...............
 80001040 9395b500 93c5f5ff 13858024 13015055  ...........$..PU
 80001050 33052540 a31ab554 13000000 13000000  3.%@...T........
 80001060 93051000 9395c500 93c5f5ff 13850025  ...............%
 80001070 13019000 33052540 a314b500 13000000  ....3.%@........
 80001080 13000000 93051000 9395d500 93c5f5ff  ................
 80001090 13858025 13010008 33052540 2310b508  ...%....3.%@#...
 800010a0 13000000 13000000 93051000 9395e500  ................
 800010b0 93c5f5ff 13850026 13015055 33052540  .......&..PU3.%@
 800010c0 a31ab554 13000000 13000000 93051000  ...T............
 800010d0 9395f500 93c5f5ff 13858026 130160ff  ...........&..`.
 800010e0 33052540 231bb5fe 13000000 13000000  3.%@#...........
 800010f0 93051000 93950501 93c5f5ff 13850027  ...............'
 80001100 13010080 33052540 2310b580 13000000  ....3.%@#.......
 80001110 13000000 93051000 93951501 93c5f5ff  ................
 80001120 13858027 1301f0fb 33052540 a31fb5fa  ...'....3.%@....
 80001130 13000000 13000000 93051000 93952501  ..............%.
 80001140 93c5f5ff 13850028 13010002 33052540  .......(....3.%@
 80001150 2310b502 13000000 13000000 93051000  #...............
 80001160 93953501 93c5f5ff 13858028 130180ff  ..5........(....
 80001170 33052540 231cb5fe 13000000 13000000  3.%@#...........
 80001180 93051000 93954501 93c5f5ff 13850029  ......E........)
 80001190 13015055 33052540 a31ab554 13000000  ..PU3.%@...T....
 800011a0 13000000 93051000 93955501 93c5f5ff  ..........U.....
 800011b0 13858029 13013000 33052540 a311b500  ...)..0.3.%@....
 800011c0 13000000 13000000 93051000 93956501  ..............e.
 800011d0 93c5f5ff 1385002a 13015000 33052540  .......*..P.3.%@
 800011e0 a312b500 13000000 13000000 93051000  ................
 800011f0 93957501 93c5f5ff 1385802a 13013000  ..u........*..0.
 80001200 33052540 a311b500 13000000 13000000  3.%@............
 80001210 93051000 93958501 93c5f5ff 1385002b  ...............+
 80001220 1301f0fb 33052540 a31fb5fa 13000000  ....3.%@........
 80001230 13000000 93051000 93959501 93c5f5ff  ................
 80001240 1385802b 13010080 33052540 2310b580  ...+....3.%@#...
 80001250 13000000 13000000 93051000 9395a501  ................
 80001260 93c5f5ff 1385002c 13016000 33052540  .......,..`.3.%@
 80001270 2313b500 13000000 13000000 93051000  #...............
 80001280 9395b501 93c5f5ff 1385802c 13011000  ...........,....
 80001290 33052540 a310b500 13000000 13000000  3.%@............
 800012a0 93051000 9395c501 93c5f5ff 1385002d  ...............-
 800012b0 1301f03f 33052540 a31fb53e 13000000  ...?3.%@...>....
 800012c0 13000000 93051000 9395d501 93c5f5ff  ................
 800012d0 1385802d 1301e0ff 33052540 231fb5fe  ...-....3.%@#...
 800012e0 13000000 13000000 93051000 9395e501  ................
 800012f0 93c5f5ff 1385002e 13012000 33052540  .......... .3.%@
 80001300 2311b500 13000000 13000000 93051000  #...............
 80001310 9395f501 93c5f5ff 1385802e 1301c0ff  ................
 80001320 33052540 231eb5fe 13000000 13000000  3.%@#...........
 80001330 93051000 93950502 93c5f5ff 1385002f  .............../
 80001340 13010020 33052540 2310b520 13000000  ... 3.%@#.. ....
 80001350 13000000 93051000 93951502 93c5f5ff  ................
 80001360 1385802f 13017000 33052540 a313b500  .../..p.3.%@....
 80001370 13000000 13000000 93051000 93952502  ..............%.
 80001380 93c5f5ff 13850030 13010000 33052540  .......0....3.%@
 80001390 2310b500 13000000 13000000 93051000  #...............
 800013a0 93953502 93c5f5ff 13858030 1301f0fb  ..5........0....
 800013b0 33052540 a31fb5fa 13000000 13000000  3.%@............
 800013c0 93051000 93954502 93c5f5ff 13850031  ......E........1
 800013d0 1301d0ff 33052540 a31eb5fe 13000000  ....3.%@........
 800013e0 13000000 93051000 93955502 93c5f5ff  ..........U.....
 800013f0 13858031 130100c0 33052540 2310b5c0  ...1....3.%@#...
 80001400 13000000 13000000 93051000 93956502  ..............e.
 80001410 93c5f5ff 13850032 1301f03f 33052540  .......2...?3.%@
 80001420 a31fb53e 13000000 13000000 93051000  ...>............
 80001430 93957502 93c5f5ff 13858032 130170ff  ..u........2..p.
 80001440 33052540 a31bb5fe 13000000 13000000  3.%@............
 80001450 93051000 93958502 93c5f5ff 13850033  ...............3
 80001460 1301f0bf 33052540 a31fb5be 13000000  ....3.%@........
 80001470 13000000 93051000 93959502 93c5f5ff  ................
 80001480 13858033 13015000 33052540 a312b500  ...3..P.3.%@....
 80001490 13000000 13000000 93051000 9395b502  ................
 800014a0 93c5f5ff 13850034 13018000 33052540  .......4....3.%@
 800014b0 2314b500 13000000 13000000 93051000  #...............
 800014c0 9395c502 93c5f5ff 13858034 1301f0bf  ...........4....
 800014d0 33052540 a31fb5be 13000000 13000000  3.%@............
 800014e0 93051000 9395d502 93c5f5ff 13850035  ...............5
 800014f0 130160ff 33052540 231bb5fe 13000000  ..`.3.%@#.......
 80001500 13000000 93051000 9395e502 93c5f5ff  ................
 80001510 13858035 13010008 33052540 2310b508  ...5....3.%@#...
 80001520 13000000 13000000 93051000 9395f502  ................
 80001530 93c5f5ff 13850036 130170ff 33052540  .......6..p.3.%@
 80001540 a31bb5fe 13000000 13000000 93051000  ................
 80001550 93950503 93c5f5ff 13858036 13016000  ...........6..`.
 80001560 33052540 2313b500 13000000 13000000  3.%@#...........
 80001570 93051000 93951503 93c5f5ff 13850037  ...............7
 80001580 13010020 33052540 2310b520 13000000  ... 3.%@#.. ....
 80001590 13000000 9305e0ff 13858037 1301f07f  ...........7....
 800015a0 33052540 a31fb57e 13000000 13000000  3.%@...~........
 800015b0 6f008003 8334811f 03330120 33039300  o....4...3. 3...
 800015c0 37030000 13030300 1313b300 1303635d  7.............c]
 800015d0 1313b300 13036343 1313a300 1303032d  ......cC.......-
 800015e0 23be64fe 6f004000 13050000 6f004002  #.d.o.@.....o.@.
 800015f0 00000000 00000000 00000000 00000000  ................
 80001600 00000000 00000000 00000000 00000000  ................
 80001610 13050500 73001000 6f000000 130101ff  ....s...o.......
 80001620 17050000 13050502 23341100 efe05f9e  ........#4...._.
 80001630 13050500 73001000 6f000000 00000000  ....s...o.......
 80001640 00000000 00000000 00000000 00000000  ................
 80001650 00000000 00000000 00000000 00000000  ................
 80001660 00000000 00000000 00000000 00000000  ................
 80001670 00000000 00000000 00000000 00000000  ................
 80001680 00000000 00000000 00000000 00000000  ................
 80001690 00000000 00000000 00000000 00000000  ................
 800016a0 00000000 00000000 00000000 00000000  ................
 800016b0 00000000 00000000 00000000 00000000  ................
 800016c0 00000000 00000000 00000000 00000000  ................
 800016d0 00000000 00000000 00000000 00000000  ................
 800016e0 00000000 00000000 00000000 00000000  ................
 800016f0 00000000 00000000 00000000 00000000  ................
 80001700 00000000 00000000 00000000 00000000  ................
 80001710 00000000 00000000 00000000 00000000  ................
 80001720 00000000 00000000 00000000 00000000  ................
 80001730 00000000 00000000 00000000 00000000  ................
 80001740 00000000 00000000 00000000 00000000  ................
 80001750 00000000 00000000 00000000 00000000  ................
 80001760 00000000 00000000 00000000 00000000  ................
 80001770 00000000 00000000 00000000 00000000  ................
 80001780 00000000 00000000 00000000 00000000  ................
 80001790 00000000 00000000 00000000 00000000  ................
 800017a0 00000000 00000000 00000000 00000000  ................
 800017b0 00000000 00000000 00000000 00000000  ................
 800017c0 00000000 00000000 00000000 00000000  ................
 800017d0 00000000 00000000 00000000 00000000  ................
 800017e0 00000000 00000000 00000000 00000000  ................
 800017f0 00000000 00000000 00000000 00000000  ................
 80001800 00000000 00000000 00000000 00000000  ................
 80001810 00000000 00000000 00000000 00000000  ................
 80001820 00000000 00000000 00000000 00000000  ................
 80001830 00000000 00000000 00000000 00000000  ................
 80001840 00000000 00000000 00000000 00000000  ................
 80001850 00000000 00000000 00000000 00000000  ................
 80001860 00000000 00000000 00000000 00000000  ................
 80001870 00000000 00000000 00000000 00000000  ................
 80001880 00000000 00000000 00000000 00000000  ................
 80001890 00000000 00000000 00000000 00000000  ................
 800018a0 00000000 00000000 00000000 00000000  ................
 800018b0 00000000 00000000 00000000 00000000  ................
 800018c0 00000000 00000000 00000000 00000000  ................
 800018d0 00000000 00000000 00000000 00000000  ................
 800018e0 00000000 00000000 00000000 00000000  ................
 800018f0 00000000 00000000 00000000 00000000  ................
 80001900 00000000 00000000 00000000 00000000  ................
 80001910 00000000 00000000 00000000 00000000  ................
 80001920 00000000 00000000 00000000 00000000  ................
 80001930 00000000 00000000 00000000 00000000  ................
 80001940 00000000 00000000 00000000 00000000  ................
 80001950 00000000 00000000 00000000 00000000  ................
 80001960 00000000 00000000 00000000 00000000  ................
 80001970 00000000 00000000 00000000 00000000  ................
 80001980 00000000 00000000 00000000 00000000  ................
 80001990 00000000 00000000 00000000 00000000  ................
 800019a0 00000000 00000000 00000000 00000000  ................
 800019b0 00000000 00000000 00000000 00000000  ................
 800019c0 00000000 00000000 00000000 00000000  ................
 800019d0 00000000 00000000 00000000 00000000  ................
 800019e0 00000000 00000000 00000000 00000000  ................
 800019f0 00000000 00000000 00000000 00000000  ................
 80001a00 00000000 00000000 00000000 00000000  ................
 80001a10 00000000 00000000 00000000 00000000  ................
 80001a20 00000000 00000000 00000000 00000000  ................
 80001a30 00000000 00000000 00000000 00000000  ................
 80001a40 00000000 00000000 00000000 00000000  ................
 80001a50 00000000 00000000 00000000 00000000  ................
 80001a60 00000000 00000000 00000000 00000000  ................
 80001a70 00000000 00000000 00000000 00000000  ................
 80001a80 00000000 00000000 00000000 00000000  ................
 80001a90 00000000 00000000 00000000 00000000  ................
 80001aa0 00000000 00000000 00000000 00000000  ................
 80001ab0 00000000 00000000 00000000 00000000  ................
 80001ac0 00000000 00000000 00000000 00000000  ................
 80001ad0 00000000 00000000 00000000 00000000  ................
 80001ae0 00000000 00000000 00000000 00000000  ................
 80001af0 00000000 00000000 00000000 00000000  ................
 80001b00 00000000 00000000 00000000 00000000  ................
 80001b10 00000000 00000000 00000000 00000000  ................
 80001b20 00000000 00000000 00000000 00000000  ................
 80001b30 00000000 00000000 00000000 00000000  ................
 80001b40 00000000 00000000 00000000 00000000  ................
 80001b50 00000000 00000000 00000000 00000000  ................
 80001b60 00000000 00000000 00000000 00000000  ................
 80001b70 00000000 00000000 00000000 00000000  ................
 80001b80 00000000 00000000 00000000 00000000  ................
 80001b90 00000000 00000000 00000000 00000000  ................
 80001ba0 00000000 00000000 00000000 00000000  ................
 80001bb0 00000000 00000000 00000000 00000000  ................
 80001bc0 00000000 00000000 00000000 00000000  ................
 80001bd0 00000000 00000000 00000000 00000000  ................
 80001be0 00000000 00000000 00000000 00000000  ................
 80001bf0 00000000 00000000 00000000 00000000  ................
 80001c00 00000000 00000000 00000000 00000000  ................
 80001c10 00000000 00000000 00000000 00000000  ................
 80001c20 00000000 00000000 00000000 00000000  ................
 80001c30 00000000 00000000 00000000 00000000  ................
 80001c40 00000000 00000000 00000000 00000000  ................
 80001c50 00000000 00000000 00000000 00000000  ................
 80001c60 00000000 00000000 00000000 00000000  ................
 80001c70 00000000 00000000 00000000 00000000  ................
 80001c80 00000000 00000000 00000000 00000000  ................
 80001c90 00000000 00000000 00000000 00000000  ................
 80001ca0 00000000 00000000 00000000 00000000  ................
 80001cb0 00000000 00000000 00000000 00000000  ................
 80001cc0 00000000 00000000 00000000 00000000  ................
 80001cd0 00000000 00000000 00000000 00000000  ................
 80001ce0 00000000 00000000 00000000 00000000  ................
 80001cf0 00000000 00000000 00000000 00000000  ................
 80001d00 00000000 00000000 00000000 00000000  ................
 80001d10 00000000 00000000 00000000 00000000  ................
 80001d20 00000000 00000000 00000000 00000000  ................
 80001d30 00000000 00000000 00000000 00000000  ................
 80001d40 00000000 00000000 00000000 00000000  ................
 80001d50 00000000 00000000 00000000 00000000  ................
 80001d60 00000000 00000000 00000000 00000000  ................
 80001d70 00000000 00000000 00000000 00000000  ................
 80001d80 00000000 00000000 00000000 00000000  ................
 80001d90 00000000 00000000 00000000 00000000  ................
 80001da0 00000000 00000000 00000000 00000000  ................
 80001db0 00000000 00000000 00000000 00000000  ................
 80001dc0 00000000 00000000 00000000 00000000  ................
 80001dd0 00000000 00000000 00000000 00000000  ................
 80001de0 00000000 00000000 00000000 00000000  ................
 80001df0 00000000 00000000 00000000 00000000  ................
 80001e00 00000000 00000000 00000000 00000000  ................
 80001e10 00000000 00000000 00000000 00000000  ................
 80001e20 00000000 00000000 00000000 00000000  ................
 80001e30 00000000 00000000 00000000 00000000  ................
 80001e40 00000000 00000000 00000000 00000000  ................
 80001e50 00000000 00000000 00000000 00000000  ................
 80001e60 00000000 00000000 00000000 00000000  ................
 80001e70 00000000 00000000 00000000 00000000  ................
 80001e80 00000000 00000000 00000000 00000000  ................
 80001e90 00000000 00000000 00000000 00000000  ................
 80001ea0 00000000 00000000 00000000 00000000  ................
 80001eb0 00000000 00000000 00000000 00000000  ................
 80001ec0 00000000 00000000 00000000 00000000  ................
 80001ed0 00000000 00000000 00000000 00000000  ................
 80001ee0 00000000 00000000 00000000 00000000  ................
 80001ef0 00000000 00000000 00000000 00000000  ................
 80001f00 00000000 00000000 00000000 00000000  ................
 80001f10 00000000 00000000 00000000 00000000  ................
 80001f20 00000000 00000000 00000000 00000000  ................
 80001f30 00000000 00000000 00000000 00000000  ................
 80001f40 00000000 00000000 00000000 00000000  ................
 80001f50 00000000 00000000 00000000 00000000  ................
 80001f60 00000000 00000000 00000000 00000000  ................
 80001f70 00000000 00000000 00000000 00000000  ................
 80001f80 00000000 00000000 00000000 00000000  ................
 80001f90 00000000 00000000 00000000 00000000  ................
 80001fa0 00000000 00000000 00000000 00000000  ................
 80001fb0 00000000 00000000 00000000 00000000  ................
 80001fc0 00000000 00000000 00000000 00000000  ................
 80001fd0 00000000 00000000 00000000 00000000  ................
 80001fe0 00000000 00000000 00000000 00000000  ................
 80001ff0 00000000 00000000 00000000 00000000  ................
 80002000 fecabeba fecabeba fecabeba fecabeba  ................
 80002010 efbeadde efbeadde 00000000 00000000  ................
 80002020 00000000 00000000 00000000 00000000  ................
 80002030 00000000 00000000 00000000 00000000  ................
 80002040 00000000 00000000 00000000 00000000  ................
 80002050 00000000 00000000 00000000 00000000  ................
 80002060 00000000 00000000 00000000 00000000  ................
 80002070 00000000 00000000 00000000 00000000  ................
 80002080 00000000 00000000 00000000 00000000  ................
 80002090 00000000 00000000 00000000 00000000  ................
 800020a0 00000000 00000000 00000000 00000000  ................
 800020b0 00000000 00000000 00000000 00000000  ................
 800020c0 00000000 00000000 00000000 00000000  ................
 800020d0 00000000 00000000 00000000 00000000  ................
 800020e0 00000000 00000000 00000000 00000000  ................
 800020f0 00000000 00000000 00000000 00000000  ................
 80002100 00000000 00000000 00000000 00000000  ................
 80002110 00000000 00000000 00000000 00000000  ................
 80002120 00000000 00000000 00000000 00000000  ................
 80002130 00000000 00000000 00000000 00000000  ................
 80002140 00000000 00000000 00000000 00000000  ................
 80002150 00000000 00000000 00000000 00000000  ................
 80002160 00000000 00000000 00000000 00000000  ................
 80002170 00000000 00000000 00000000 00000000  ................
 80002180 00000000 00000000 00000000 00000000  ................
 80002190 00000000 00000000 00000000 00000000  ................
 800021a0 00000000 00000000 00000000 00000000  ................
 800021b0 00000000 00000000 00000000 00000000  ................
 800021c0 00000000 00000000 00000000 00000000  ................
 800021d0 00000000 00000000 00000000 00000000  ................
 800021e0 00000000 00000000 00000000 00000000  ................
 800021f0 00000000 00000000 00000000 00000000  ................
 80002200 00000000 00000000 00000000 00000000  ................
 80002210 00000000 00000000 00000000 00000000  ................
 80002220 00000000 00000000 00000000 00000000  ................
 80002230 00000000 00000000 00000000 00000000  ................
 80002240 00000000 00000000 00000000 00000000  ................
 80002250 00000000 00000000 00000000 00000000  ................
 80002260 00000000 00000000 00000000 00000000  ................
 80002270 00000000 00000000 00000000 00000000  ................
 80002280 00000000 00000000 00000000 00000000  ................
 80002290 00000000 00000000 00000000 00000000  ................
 800022a0 00000000 00000000 00000000 00000000  ................
 800022b0 00000000 00000000 00000000 00000000  ................
 800022c0 00000000 00000000 00000000 00000000  ................
 800022d0 00000000 00000000 00000000 00000000  ................
 800022e0 00000000 00000000 00000000 00000000  ................
 800022f0 00000000 00000000 00000000 00000000  ................
 80002300 00000000 00000000 00000000 00000000  ................
 80002310 00000000 00000000 00000000 00000000  ................
 80002320 00000000 00000000 00000000 00000000  ................
 80002330 00000000 00000000 00000000 00000000  ................
 80002340 00000000 00000000 00000000 00000000  ................
 80002350 00000000 00000000 00000000 00000000  ................
 80002360 00000000 00000000 00000000 00000000  ................
 80002370 00000000 00000000 00000000 00000000  ................
 80002380 00000000 00000000 00000000 00000000  ................
 80002390 00000000 00000000 00000000 00000000  ................
 800023a0 00000000 00000000 00000000 00000000  ................
 800023b0 00000000 00000000 00000000 00000000  ................
 800023c0 00000000 00000000 00000000 00000000  ................
 800023d0 00000000 00000000 00000000 00000000  ................
 800023e0 00000000 00000000 00000000 00000000  ................
 800023f0 00000000 00000000 00000000 00000000  ................
 80002400 00000000 00000000 00000000 00000000  ................
 80002410 00000000 00000000 00000000 00000000  ................
 80002420 00000000 00000000 00000000 00000000  ................
 80002430 00000000 00000000 00000000 00000000  ................
 80002440 00000000 00000000 00000000 00000000  ................
 80002450 00000000 00000000 00000000 00000000  ................
 80002460 00000000 00000000 00000000 00000000  ................
 80002470 00000000 00000000 00000000 00000000  ................
 80002480 00000000 00000000 00000000 00000000  ................
 80002490 00000000 00000000 00000000 00000000  ................
 800024a0 00000000 00000000 00000000 00000000  ................
 800024b0 00000000 00000000 00000000 00000000  ................
 800024c0 00000000 00000000 00000000 00000000  ................
 800024d0 00000000 00000000 00000000 00000000  ................
 800024e0 00000000 00000000 00000000 00000000  ................
 800024f0 00000000 00000000 00000000 00000000  ................
 80002500 00000000 00000000 00000000 00000000  ................
 80002510 00000000 00000000 00000000 00000000  ................
 80002520 00000000 00000000 00000000 00000000  ................
 80002530 00000000 00000000 00000000 00000000  ................
 80002540 00000000 00000000 00000000 00000000  ................
 80002550 00000000 00000000 00000000 00000000  ................
 80002560 00000000 00000000 00000000 00000000  ................
 80002570 00000000 00000000 00000000 00000000  ................
 80002580 00000000 00000000 00000000 00000000  ................
 80002590 00000000 00000000 00000000 00000000  ................
 800025a0 00000000 00000000 00000000 00000000  ................
 800025b0 00000000 00000000 00000000 00000000  ................
 800025c0 00000000 00000000 00000000 00000000  ................
 800025d0 00000000 00000000 00000000 00000000  ................
 800025e0 00000000 00000000 00000000 00000000  ................
 800025f0 00000000 00000000 00000000 00000000  ................
 80002600 00000000 00000000 00000000 00000000  ................
 80002610 00000000 00000000 00000000 00000000  ................
 80002620 00000000 00000000 00000000 00000000  ................
 80002630 00000000 00000000 00000000 00000000  ................
 80002640 00000000 00000000 00000000 00000000  ................
 80002650 00000000 00000000 00000000 00000000  ................
 80002660 00000000 00000000 00000000 00000000  ................
 80002670 00000000 00000000 00000000 00000000  ................
 80002680 00000000 00000000 00000000 00000000  ................
 80002690 00000000 00000000 00000000 00000000  ................
 800026a0 00000000 00000000 00000000 00000000  ................
 800026b0 00000000 00000000 00000000 00000000  ................
 800026c0 00000000 00000000 00000000 00000000  ................
 800026d0 00000000 00000000 00000000 00000000  ................
 800026e0 00000000 00000000 00000000 00000000  ................
 800026f0 00000000 00000000 00000000 00000000  ................
 80002700 00000000 00000000 00000000 00000000  ................
 80002710 00000000 00000000 00000000 00000000  ................
 80002720 00000000 00000000 00000000 00000000  ................
 80002730 00000000 00000000 00000000 00000000  ................
 80002740 00000000 00000000 00000000 00000000  ................
 80002750 00000000 00000000 00000000 00000000  ................
 80002760 00000000 00000000 00000000 00000000  ................
 80002770 00000000 00000000 00000000 00000000  ................
 80002780 00000000 00000000 00000000 00000000  ................
 80002790 00000000 00000000 00000000 00000000  ................
 800027a0 00000000 00000000 00000000 00000000  ................
 800027b0 00000000 00000000 00000000 00000000  ................
 800027c0 00000000 00000000 00000000 00000000  ................
 800027d0 00000000 00000000 00000000 00000000  ................
 800027e0 00000000 00000000 00000000 00000000  ................
 800027f0 00000000 00000000 00000000 00000000  ................
 80002800 00000000 00000000 00000000 00000000  ................
 80002810 00000000 00000000 00000000 00000000  ................
 80002820 00000000 00000000 00000000 00000000  ................
 80002830 00000000 00000000 00000000 00000000  ................
 80002840 00000000 00000000 00000000 00000000  ................
 80002850 00000000 00000000 00000000 00000000  ................
 80002860 00000000 00000000 00000000 00000000  ................
 80002870 00000000 00000000 00000000 00000000  ................
 80002880 00000000 00000000 00000000 00000000  ................
 80002890 00000000 00000000 00000000 00000000  ................
 800028a0 00000000 00000000 00000000 00000000  ................
 800028b0 00000000 00000000 00000000 00000000  ................
 800028c0 00000000 00000000 00000000 00000000  ................
 800028d0 00000000 00000000 00000000 00000000  ................
 800028e0 00000000 00000000 00000000 00000000  ................
 800028f0 00000000 00000000 00000000 00000000  ................
 80002900 00000000 00000000 00000000 00000000  ................
 80002910 00000000 00000000 00000000 00000000  ................
 80002920 00000000 00000000 00000000 00000000  ................
 80002930 00000000 00000000 00000000 00000000  ................
 80002940 00000000 00000000 00000000 00000000  ................
 80002950 00000000 00000000 00000000 00000000  ................
 80002960 00000000 00000000 00000000 00000000  ................
 80002970 00000000 00000000 00000000 00000000  ................
 80002980 00000000 00000000 00000000 00000000  ................
 80002990 00000000 00000000 00000000 00000000  ................
 800029a0 00000000 00000000 00000000 00000000  ................
 800029b0 00000000 00000000 00000000 00000000  ................
 800029c0 00000000 00000000 00000000 00000000  ................
 800029d0 00000000 00000000 00000000 00000000  ................
 800029e0 00000000 00000000 00000000 00000000  ................
 800029f0 00000000 00000000 00000000 00000000  ................
 80002a00 00000000 00000000 00000000 00000000  ................
 80002a10 00000000 00000000 00000000 00000000  ................
 80002a20 00000000 00000000 00000000 00000000  ................
 80002a30 00000000 00000000 00000000 00000000  ................
 80002a40 00000000 00000000 00000000 00000000  ................
 80002a50 00000000 00000000 00000000 00000000  ................
 80002a60 00000000 00000000 00000000 00000000  ................
 80002a70 00000000 00000000 00000000 00000000  ................
 80002a80 00000000 00000000 00000000 00000000  ................
 80002a90 00000000 00000000 00000000 00000000  ................
 80002aa0 00000000 00000000 00000000 00000000  ................
 80002ab0 00000000 00000000 00000000 00000000  ................
 80002ac0 00000000 00000000 00000000 00000000  ................
 80002ad0 00000000 00000000 00000000 00000000  ................
 80002ae0 00000000 00000000 00000000 00000000  ................
 80002af0 00000000 00000000 00000000 00000000  ................
 80002b00 00000000 00000000 00000000 00000000  ................
 80002b10 00000000 00000000 00000000 00000000  ................
 80002b20 00000000 00000000 00000000 00000000  ................
 80002b30 00000000 00000000 00000000 00000000  ................
 80002b40 00000000 00000000 00000000 00000000  ................
 80002b50 00000000 00000000 00000000 00000000  ................
 80002b60 00000000 00000000 00000000 00000000  ................
 80002b70 00000000 00000000 00000000 00000000  ................
 80002b80 00000000 00000000 00000000 00000000  ................
 80002b90 00000000 00000000 00000000 00000000  ................
 80002ba0 00000000 00000000 00000000 00000000  ................
 80002bb0 00000000 00000000 00000000 00000000  ................
 80002bc0 00000000 00000000 00000000 00000000  ................
 80002bd0 00000000 00000000 00000000 00000000  ................
 80002be0 00000000 00000000 00000000 00000000  ................
 80002bf0 00000000 00000000 00000000 00000000  ................
 80002c00 00000000 00000000 00000000 00000000  ................
 80002c10 00000000 00000000 00000000 00000000  ................
 80002c20 00000000 00000000 00000000 00000000  ................
 80002c30 00000000 00000000 00000000 00000000  ................
 80002c40 00000000 00000000 00000000 00000000  ................
 80002c50 00000000 00000000 00000000 00000000  ................
 80002c60 00000000 00000000 00000000 00000000  ................
 80002c70 00000000 00000000 00000000 00000000  ................
 80002c80 00000000 00000000 00000000 00000000  ................
 80002c90 00000000 00000000 00000000 00000000  ................
 80002ca0 00000000 00000000 00000000 00000000  ................
 80002cb0 00000000 00000000 00000000 00000000  ................
 80002cc0 00000000 00000000 00000000 00000000  ................
 80002cd0 00000000 00000000 00000000 00000000  ................
 80002ce0 00000000 00000000 00000000 00000000  ................
 80002cf0 00000000 00000000 00000000 00000000  ................
 80002d00 00000000 00000000 00000000 00000000  ................
 80002d10 00000000 00000000 00000000 00000000  ................
 80002d20 00000000 00000000 00000000 00000000  ................
 80002d30 00000000 00000000 00000000 00000000  ................
 80002d40 00000000 00000000 00000000 00000000  ................
 80002d50 00000000 00000000 00000000 00000000  ................
 80002d60 00000000 00000000 00000000 00000000  ................
 80002d70 00000000 00000000 00000000 00000000  ................
 80002d80 00000000 00000000 00000000 00000000  ................
 80002d90 00000000 00000000 00000000 00000000  ................
 80002da0 00000000 00000000 00000000 00000000  ................
 80002db0 00000000 00000000 00000000 00000000  ................
 80002dc0 00000000 00000000 00000000 00000000  ................
 80002dd0 00000000 00000000 00000000 00000000  ................
 80002de0 00000000 00000000 00000000 00000000  ................
 80002df0 00000000 00000000 00000000 00000000  ................
 80002e00 00000000 00000000 00000000 00000000  ................
 80002e10 00000000 00000000 00000000 00000000  ................
 80002e20 00000000 00000000 00000000 00000000  ................
 80002e30 00000000 00000000 00000000 00000000  ................
 80002e40 00000000 00000000 00000000 00000000  ................
 80002e50 00000000 00000000 00000000 00000000  ................
 80002e60 00000000 00000000 00000000 00000000  ................
 80002e70 00000000 00000000 00000000 00000000  ................
 80002e80 00000000 00000000 00000000 00000000  ................
 80002e90 00000000 00000000 00000000 00000000  ................
 80002ea0 00000000 00000000 00000000 00000000  ................
 80002eb0 00000000 00000000 00000000 00000000  ................
 80002ec0 00000000 00000000 00000000 00000000  ................
 80002ed0 00000000 00000000 00000000 00000000  ................
 80002ee0 00000000 00000000 00000000 00000000  ................
 80002ef0 00000000 00000000 00000000 00000000  ................
 80002f00 00000000 00000000 00000000 00000000  ................
 80002f10 00000000 00000000 00000000 00000000  ................
 80002f20 00000000 00000000 00000000 00000000  ................
 80002f30 00000000 00000000 00000000 00000000  ................
 80002f40 00000000 00000000 00000000 00000000  ................
 80002f50 00000000 00000000 00000000 00000000  ................
 80002f60 00000000 00000000 00000000 00000000  ................
 80002f70 00000000 00000000 00000000 00000000  ................
 80002f80 00000000 00000000 00000000 00000000  ................
 80002f90 00000000 00000000 00000000 00000000  ................
 80002fa0 00000000 00000000 00000000 00000000  ................
 80002fb0 00000000 00000000 00000000 00000000  ................
 80002fc0 00000000 00000000 00000000 00000000  ................
 80002fd0 00000000 00000000 00000000 00000000  ................
 80002fe0 00000000 00000000 00000000 00000000  ................
 80002ff0 00000000 00000000 00000000 00000000  ................
 80003000 81b2d4e7 09a35c6f efbeadde efbeadde  ......\o........
 80003010 efbeadde efbeadde efbeadde efbeadde  ................
 80003020 efbeadde efbeadde efbeadde efbeadde  ................
 80003030 efbeadde efbeadde efbeadde efbeadde  ................
 80003040 efbeadde efbeadde efbeadde efbeadde  ................
 80003050 efbeadde efbeadde efbeadde efbeadde  ................
 80003060 efbeadde efbeadde efbeadde efbeadde  ................
 80003070 efbeadde efbeadde efbeadde efbeadde  ................
 80003080 efbeadde efbeadde efbeadde efbeadde  ................
 80003090 efbeadde efbeadde efbeadde efbeadde  ................
 800030a0 efbeadde efbeadde efbeadde efbeadde  ................
 800030b0 efbeadde efbeadde efbeadde efbeadde  ................
 800030c0 efbeadde efbeadde efbeadde efbeadde  ................
 800030d0 efbeadde efbeadde efbeadde efbeadde  ................
 800030e0 efbeadde efbeadde efbeadde efbeadde  ................
 800030f0 efbeadde efbeadde efbeadde efbeadde  ................
 80003100 efbeadde efbeadde efbeadde efbeadde  ................
 80003110 efbeadde efbeadde efbeadde efbeadde  ................
 80003120 efbeadde efbeadde efbeadde efbeadde  ................
 80003130 efbeadde efbeadde efbeadde efbeadde  ................
 80003140 efbeadde efbeadde efbeadde efbeadde  ................
 80003150 efbeadde efbeadde efbeadde efbeadde  ................
 80003160 efbeadde efbeadde efbeadde efbeadde  ................
 80003170 efbeadde efbeadde efbeadde efbeadde  ................
 80003180 efbeadde efbeadde efbeadde efbeadde  ................
 80003190 efbeadde efbeadde efbeadde efbeadde  ................
 800031a0 efbeadde efbeadde efbeadde efbeadde  ................
 800031b0 efbeadde efbeadde efbeadde efbeadde  ................
 800031c0 efbeadde efbeadde efbeadde efbeadde  ................
 800031d0 efbeadde efbeadde efbeadde efbeadde  ................
 800031e0 efbeadde efbeadde efbeadde efbeadde  ................
 800031f0 efbeadde efbeadde efbeadde efbeadde  ................
 80003200 efbeadde efbeadde efbeadde efbeadde  ................
 80003210 efbeadde efbeadde efbeadde efbeadde  ................
 80003220 efbeadde efbeadde efbeadde efbeadde  ................
 80003230 efbeadde efbeadde efbeadde efbeadde  ................
 80003240 efbeadde efbeadde efbeadde efbeadde  ................
 80003250 efbeadde efbeadde efbeadde efbeadde  ................
 80003260 efbeadde efbeadde efbeadde efbeadde  ................
 80003270 efbeadde efbeadde efbeadde efbeadde  ................
 80003280 efbeadde efbeadde efbeadde efbeadde  ................
 80003290 efbeadde efbeadde efbeadde efbeadde  ................
 800032a0 efbeadde efbeadde efbeadde efbeadde  ................
 800032b0 efbeadde efbeadde efbeadde efbeadde  ................
 800032c0 efbeadde efbeadde efbeadde efbeadde  ................
 800032d0 efbeadde efbeadde efbeadde efbeadde  ................
 800032e0 efbeadde efbeadde efbeadde efbeadde  ................
 800032f0 efbeadde efbeadde efbeadde efbeadde  ................
 80003300 efbeadde efbeadde efbeadde efbeadde  ................
 80003310 efbeadde efbeadde efbeadde efbeadde  ................
 80003320 efbeadde efbeadde efbeadde efbeadde  ................
 80003330 efbeadde efbeadde efbeadde efbeadde  ................
 80003340 efbeadde efbeadde efbeadde efbeadde  ................
 80003350 efbeadde efbeadde efbeadde efbeadde  ................
 80003360 efbeadde efbeadde efbeadde efbeadde  ................
 80003370 efbeadde efbeadde efbeadde efbeadde  ................
 80003380 efbeadde efbeadde efbeadde efbeadde  ................
 80003390 efbeadde efbeadde efbeadde efbeadde  ................
 800033a0 efbeadde efbeadde efbeadde efbeadde  ................
 800033b0 efbeadde efbeadde efbeadde efbeadde  ................
 800033c0 efbeadde efbeadde efbeadde efbeadde  ................
 800033d0 efbeadde efbeadde efbeadde efbeadde  ................
 800033e0 efbeadde efbeadde efbeadde efbeadde  ................
 800033f0 efbeadde efbeadde efbeadde efbeadde  ................
 80003400 efbeadde efbeadde efbeadde efbeadde  ................
 80003410 efbeadde efbeadde efbeadde efbeadde  ................
 80003420 efbeadde efbeadde efbeadde efbeadde  ................
 80003430 81b2d4e7 09a35c6f 00000000 00000000  ......\o........

Disassembly of section .data:

0000000080000000 <.data>:
    80000000:	00000413          	addi	x8,x0,0
    80000004:	0000c117          	auipc	x2,0xc
    80000008:	ffc10113          	addi	x2,x2,-4 # 0x8000c000
    8000000c:	610010ef          	jal	x1,0x8000161c
    80000010:	030000ef          	jal	x1,0x80000040
    80000014:	00100513          	addi	x10,x0,1
    80000018:	5f8010ef          	jal	x1,0x80001610
    8000001c:	00000513          	addi	x10,x0,0
    80000020:	00008067          	jalr	x0,0(x1)
	...
    80000040:	feedc0b7          	lui	x1,0xfeedc
    80000044:	ead08093          	addi	x1,x1,-339 # 0xfffffffffeedbead
    80000048:	00b09093          	slli	x1,x1,0xb
    8000004c:	7f708093          	addi	x1,x1,2039
    80000050:	00b09093          	slli	x1,x1,0xb
    80000054:	36f08093          	addi	x1,x1,879
    80000058:	00a09093          	slli	x1,x1,0xa
    8000005c:	2ad08093          	addi	x1,x1,685
    80000060:	ff76e137          	lui	x2,0xff76e
    80000064:	f5610113          	addi	x2,x2,-170 # 0xffffffffff76df56
    80000068:	00b11113          	slli	x2,x2,0xb
    8000006c:	7fb10113          	addi	x2,x2,2043
    80000070:	00b11113          	slli	x2,x2,0xb
    80000074:	5b710113          	addi	x2,x2,1463
    80000078:	00a11113          	slli	x2,x2,0xa
    8000007c:	35610113          	addi	x2,x2,854
    80000080:	7fbb71b7          	lui	x3,0x7fbb7
    80000084:	fab18193          	addi	x3,x3,-85 # 0x7fbb6fab
    80000088:	00b19193          	slli	x3,x3,0xb
    8000008c:	3fd18193          	addi	x3,x3,1021
    80000090:	00b19193          	slli	x3,x3,0xb
    80000094:	6db18193          	addi	x3,x3,1755
    80000098:	00a19193          	slli	x3,x3,0xa
    8000009c:	3ab18193          	addi	x3,x3,939
    800000a0:	bfddb237          	lui	x4,0xbfddb
    800000a4:	7d520213          	addi	x4,x4,2005 # 0xffffffffbfddb7d5
    800000a8:	00b21213          	slli	x4,x4,0xb
    800000ac:	5fe20213          	addi	x4,x4,1534 # 0x5fe
    800000b0:	00b21213          	slli	x4,x4,0xb
    800000b4:	76d20213          	addi	x4,x4,1901 # 0x76d
    800000b8:	00a21213          	slli	x4,x4,0xa
    800000bc:	3d520213          	addi	x4,x4,981 # 0x3d5
    800000c0:	dfeee2b7          	lui	x5,0xdfeee
    800000c4:	bea28293          	addi	x5,x5,-1046 # 0xffffffffdfeedbea
    800000c8:	00b29293          	slli	x5,x5,0xb
    800000cc:	6ff28293          	addi	x5,x5,1791
    800000d0:	00b29293          	slli	x5,x5,0xb
    800000d4:	3b628293          	addi	x5,x5,950
    800000d8:	00a29293          	slli	x5,x5,0xa
    800000dc:	3ea28293          	addi	x5,x5,1002
    800000e0:	6ff77337          	lui	x6,0x6ff77
    800000e4:	df530313          	addi	x6,x6,-523 # 0x6ff76df5
    800000e8:	00b31313          	slli	x6,x6,0xb
    800000ec:	37f30313          	addi	x6,x6,895
    800000f0:	00b31313          	slli	x6,x6,0xb
    800000f4:	5db30313          	addi	x6,x6,1499
    800000f8:	00a31313          	slli	x6,x6,0xa
    800000fc:	1f530313          	addi	x6,x6,501
    80000100:	b7fbb3b7          	lui	x7,0xb7fbb
    80000104:	6fa38393          	addi	x7,x7,1786 # 0xffffffffb7fbb6fa
    80000108:	00b39393          	slli	x7,x7,0xb
    8000010c:	5bf38393          	addi	x7,x7,1471
    80000110:	00b39393          	slli	x7,x7,0xb
    80000114:	6ed38393          	addi	x7,x7,1773
    80000118:	00a39393          	slli	x7,x7,0xa
    8000011c:	2fa38393          	addi	x7,x7,762
    80000120:	5bfde437          	lui	x8,0x5bfde
    80000124:	b7d40413          	addi	x8,x8,-1155 # 0x5bfddb7d
    80000128:	00b41413          	slli	x8,x8,0xb
    8000012c:	2df40413          	addi	x8,x8,735
    80000130:	00b41413          	slli	x8,x8,0xb
    80000134:	77640413          	addi	x8,x8,1910
    80000138:	00a41413          	slli	x8,x8,0xa
    8000013c:	37d40413          	addi	x8,x8,893
    80000140:	adfef4b7          	lui	x9,0xadfef
    80000144:	dbe48493          	addi	x9,x9,-578 # 0xffffffffadfeedbe
    80000148:	00b49493          	slli	x9,x9,0xb
    8000014c:	56f48493          	addi	x9,x9,1391
    80000150:	00b49493          	slli	x9,x9,0xb
    80000154:	7bb48493          	addi	x9,x9,1979
    80000158:	00a49493          	slli	x9,x9,0xa
    8000015c:	1be48493          	addi	x9,x9,446
    80000160:	56ff7537          	lui	x10,0x56ff7
    80000164:	6df50513          	addi	x10,x10,1759 # 0x56ff76df
    80000168:	00b51513          	slli	x10,x10,0xb
    8000016c:	2b750513          	addi	x10,x10,695
    80000170:	00b51513          	slli	x10,x10,0xb
    80000174:	7dd50513          	addi	x10,x10,2013
    80000178:	00a51513          	slli	x10,x10,0xa
    8000017c:	2df50513          	addi	x10,x10,735
    80000180:	ab7fc5b7          	lui	x11,0xab7fc
    80000184:	b6f58593          	addi	x11,x11,-1169 # 0xffffffffab7fbb6f
    80000188:	00b59593          	slli	x11,x11,0xb
    8000018c:	55b58593          	addi	x11,x11,1371
    80000190:	00b59593          	slli	x11,x11,0xb
    80000194:	7ee58593          	addi	x11,x11,2030
    80000198:	00a59593          	slli	x11,x11,0xa
    8000019c:	36f58593          	addi	x11,x11,879
    800001a0:	d5bfe637          	lui	x12,0xd5bfe
    800001a4:	db760613          	addi	x12,x12,-585 # 0xffffffffd5bfddb7
    800001a8:	00b61613          	slli	x12,x12,0xb
    800001ac:	6ad60613          	addi	x12,x12,1709
    800001b0:	00b61613          	slli	x12,x12,0xb
    800001b4:	7f760613          	addi	x12,x12,2039
    800001b8:	00a61613          	slli	x12,x12,0xa
    800001bc:	1b760613          	addi	x12,x12,439
    800001c0:	eadff6b7          	lui	x13,0xeadff
    800001c4:	edb68693          	addi	x13,x13,-293 # 0xffffffffeadfeedb
    800001c8:	00b69693          	slli	x13,x13,0xb
    800001cc:	75668693          	addi	x13,x13,1878
    800001d0:	00b69693          	slli	x13,x13,0xb
    800001d4:	7fb68693          	addi	x13,x13,2043
    800001d8:	00a69693          	slli	x13,x13,0xa
    800001dc:	2db68693          	addi	x13,x13,731
    800001e0:	f56ff737          	lui	x14,0xf56ff
    800001e4:	76d70713          	addi	x14,x14,1901 # 0xfffffffff56ff76d
    800001e8:	00b71713          	slli	x14,x14,0xb
    800001ec:	7ab70713          	addi	x14,x14,1963
    800001f0:	00b71713          	slli	x14,x14,0xb
    800001f4:	3fd70713          	addi	x14,x14,1021
    800001f8:	00a71713          	slli	x14,x14,0xa
    800001fc:	36d70713          	addi	x14,x14,877
    80000200:	fab807b7          	lui	x15,0xfab80
    80000204:	bb678793          	addi	x15,x15,-1098 # 0xfffffffffab7fbb6
    80000208:	00b79793          	slli	x15,x15,0xb
    8000020c:	7d578793          	addi	x15,x15,2005
    80000210:	00b79793          	slli	x15,x15,0xb
    80000214:	5fe78793          	addi	x15,x15,1534
    80000218:	00a79793          	slli	x15,x15,0xa
    8000021c:	3b678793          	addi	x15,x15,950
    80000220:	7d5c0837          	lui	x16,0x7d5c0
    80000224:	ddb80813          	addi	x16,x16,-549 # 0x7d5bfddb
    80000228:	00b81813          	slli	x16,x16,0xb
    8000022c:	3ea80813          	addi	x16,x16,1002
    80000230:	00b81813          	slli	x16,x16,0xb
    80000234:	6ff80813          	addi	x16,x16,1791
    80000238:	00a81813          	slli	x16,x16,0xa
    8000023c:	1db80813          	addi	x16,x16,475
    80000240:	beae08b7          	lui	x17,0xbeae0
    80000244:	eed88893          	addi	x17,x17,-275 # 0xffffffffbeadfeed
    80000248:	00b89893          	slli	x17,x17,0xb
    8000024c:	5f588893          	addi	x17,x17,1525
    80000250:	00b89893          	slli	x17,x17,0xb
    80000254:	37f88893          	addi	x17,x17,895
    80000258:	00a89893          	slli	x17,x17,0xa
    8000025c:	2ed88893          	addi	x17,x17,749
    80000260:	df570937          	lui	x18,0xdf570
    80000264:	f7690913          	addi	x18,x18,-138 # 0xffffffffdf56ff76
    80000268:	00b91913          	slli	x18,x18,0xb
    8000026c:	6fa90913          	addi	x18,x18,1786
    80000270:	00b91913          	slli	x18,x18,0xb
    80000274:	5bf90913          	addi	x18,x18,1471
    80000278:	00a91913          	slli	x18,x18,0xa
    8000027c:	37690913          	addi	x18,x18,886
    80000280:	6fab89b7          	lui	x19,0x6fab8
    80000284:	fbb98993          	addi	x19,x19,-69 # 0x6fab7fbb
    80000288:	00b99993          	slli	x19,x19,0xb
    8000028c:	37d98993          	addi	x19,x19,893
    80000290:	00b99993          	slli	x19,x19,0xb
    80000294:	2df98993          	addi	x19,x19,735
    80000298:	00a99993          	slli	x19,x19,0xa
    8000029c:	3bb98993          	addi	x19,x19,955
    800002a0:	b7d5ca37          	lui	x20,0xb7d5c
    800002a4:	fdda0a13          	addi	x20,x20,-35 # 0xffffffffb7d5bfdd
    800002a8:	00ba1a13          	slli	x20,x20,0xb
    800002ac:	5bea0a13          	addi	x20,x20,1470
    800002b0:	00ba1a13          	slli	x20,x20,0xb
    800002b4:	56fa0a13          	addi	x20,x20,1391
    800002b8:	00aa1a13          	slli	x20,x20,0xa
    800002bc:	3dda0a13          	addi	x20,x20,989
    800002c0:	dbeaeab7          	lui	x21,0xdbeae
    800002c4:	feea8a93          	addi	x21,x21,-18 # 0xffffffffdbeadfee
    800002c8:	00ba9a93          	slli	x21,x21,0xb
    800002cc:	6dfa8a93          	addi	x21,x21,1759
    800002d0:	00ba9a93          	slli	x21,x21,0xb
    800002d4:	2b7a8a93          	addi	x21,x21,695
    800002d8:	00aa9a93          	slli	x21,x21,0xa
    800002dc:	3eea8a93          	addi	x21,x21,1006
    800002e0:	6df57b37          	lui	x22,0x6df57
    800002e4:	ff7b0b13          	addi	x22,x22,-9 # 0x6df56ff7
    800002e8:	00bb1b13          	slli	x22,x22,0xb
    800002ec:	36fb0b13          	addi	x22,x22,879
    800002f0:	00bb1b13          	slli	x22,x22,0xb
    800002f4:	55bb0b13          	addi	x22,x22,1371
    800002f8:	00ab1b13          	slli	x22,x22,0xa
    800002fc:	3f7b0b13          	addi	x22,x22,1015
    80000300:	b6fabbb7          	lui	x23,0xb6fab
    80000304:	7fbb8b93          	addi	x23,x23,2043 # 0xffffffffb6fab7fb
    80000308:	00bb9b93          	slli	x23,x23,0xb
    8000030c:	5b7b8b93          	addi	x23,x23,1463
    80000310:	00bb9b93          	slli	x23,x23,0xb
    80000314:	6adb8b93          	addi	x23,x23,1709
    80000318:	00ab9b93          	slli	x23,x23,0xa
    8000031c:	3fbb8b93          	addi	x23,x23,1019
    80000320:	db7d6c37          	lui	x24,0xdb7d6
    80000324:	bfdc0c13          	addi	x24,x24,-1027 # 0xffffffffdb7d5bfd
    80000328:	00bc1c13          	slli	x24,x24,0xb
    8000032c:	6dbc0c13          	addi	x24,x24,1755
    80000330:	00bc1c13          	slli	x24,x24,0xb
    80000334:	756c0c13          	addi	x24,x24,1878
    80000338:	00ac1c13          	slli	x24,x24,0xa
    8000033c:	3fdc0c13          	addi	x24,x24,1021
    80000340:	edbebcb7          	lui	x25,0xedbeb
    80000344:	dfec8c93          	addi	x25,x25,-514 # 0xffffffffedbeadfe
    80000348:	00bc9c93          	slli	x25,x25,0xb
    8000034c:	76dc8c93          	addi	x25,x25,1901
    80000350:	00bc9c93          	slli	x25,x25,0xb
    80000354:	7abc8c93          	addi	x25,x25,1963
    80000358:	00ac9c93          	slli	x25,x25,0xa
    8000035c:	1fec8c93          	addi	x25,x25,510
    80000360:	76df5d37          	lui	x26,0x76df5
    80000364:	6ffd0d13          	addi	x26,x26,1791 # 0x76df56ff
    80000368:	00bd1d13          	slli	x26,x26,0xb
    8000036c:	3b6d0d13          	addi	x26,x26,950
    80000370:	00bd1d13          	slli	x26,x26,0xb
    80000374:	7d5d0d13          	addi	x26,x26,2005
    80000378:	00ad1d13          	slli	x26,x26,0xa
    8000037c:	2ffd0d13          	addi	x26,x26,767
    80000380:	bb6fbdb7          	lui	x27,0xbb6fb
    80000384:	b7fd8d93          	addi	x27,x27,-1153 # 0xffffffffbb6fab7f
    80000388:	00bd9d93          	slli	x27,x27,0xb
    8000038c:	5dbd8d93          	addi	x27,x27,1499
    80000390:	00bd9d93          	slli	x27,x27,0xb
    80000394:	3ead8d93          	addi	x27,x27,1002
    80000398:	00ad9d93          	slli	x27,x27,0xa
    8000039c:	37fd8d93          	addi	x27,x27,895
    800003a0:	ddb7de37          	lui	x28,0xddb7d
    800003a4:	5bfe0e13          	addi	x28,x28,1471 # 0xffffffffddb7d5bf
    800003a8:	00be1e13          	slli	x28,x28,0xb
    800003ac:	6ede0e13          	addi	x28,x28,1773
    800003b0:	00be1e13          	slli	x28,x28,0xb
    800003b4:	5f5e0e13          	addi	x28,x28,1525
    800003b8:	00ae1e13          	slli	x28,x28,0xa
    800003bc:	1bfe0e13          	addi	x28,x28,447
    800003c0:	eedbfeb7          	lui	x29,0xeedbf
    800003c4:	adfe8e93          	addi	x29,x29,-1313 # 0xffffffffeedbeadf
    800003c8:	00be9e93          	slli	x29,x29,0xb
    800003cc:	776e8e93          	addi	x29,x29,1910
    800003d0:	00be9e93          	slli	x29,x29,0xb
    800003d4:	6fae8e93          	addi	x29,x29,1786
    800003d8:	00ae9e93          	slli	x29,x29,0xa
    800003dc:	2dfe8e93          	addi	x29,x29,735
    800003e0:	f76dff37          	lui	x30,0xf76df
    800003e4:	56ff0f13          	addi	x30,x30,1391 # 0xfffffffff76df56f
    800003e8:	00bf1f13          	slli	x30,x30,0xb
    800003ec:	7bbf0f13          	addi	x30,x30,1979
    800003f0:	00bf1f13          	slli	x30,x30,0xb
    800003f4:	37df0f13          	addi	x30,x30,893
    800003f8:	00af1f13          	slli	x30,x30,0xa
    800003fc:	16ff0f13          	addi	x30,x30,367
    80000400:	fbb70fb7          	lui	x31,0xfbb70
    80000404:	ab7f8f93          	addi	x31,x31,-1353 # 0xfffffffffbb6fab7
    80000408:	00bf9f93          	slli	x31,x31,0xb
    8000040c:	7ddf8f93          	addi	x31,x31,2013
    80000410:	00bf9f93          	slli	x31,x31,0xb
    80000414:	5bef8f93          	addi	x31,x31,1470
    80000418:	00af9f93          	slli	x31,x31,0xa
    8000041c:	2b7f8f93          	addi	x31,x31,695
    80000420:	00003397          	auipc	x7,0x3
    80000424:	be838393          	addi	x7,x7,-1048 # 0x80003008
    80000428:	00000013          	addi	x0,x0,0
    8000042c:	00000013          	addi	x0,x0,0
    80000430:	00000013          	addi	x0,x0,0
    80000434:	00000013          	addi	x0,x0,0
    80000438:	00000013          	addi	x0,x0,0
    8000043c:	00000013          	addi	x0,x0,0
    80000440:	fff00513          	addi	x10,x0,-1
    80000444:	03f51513          	slli	x10,x10,0x3f
    80000448:	00038e93          	addi	x29,x7,0
    8000044c:	00200493          	addi	x9,x0,2
    80000450:	409e8eb3          	sub	x29,x29,x9
    80000454:	00ae9123          	sh	x10,2(x29)
    80000458:	00000013          	addi	x0,x0,0
    8000045c:	00000013          	addi	x0,x0,0
    80000460:	00000713          	addi	x14,x0,0
    80000464:	00838e13          	addi	x28,x7,8
    80000468:	00900493          	addi	x9,x0,9
    8000046c:	409e0e33          	sub	x28,x28,x9
    80000470:	00ee14a3          	sh	x14,9(x28)
    80000474:	00000013          	addi	x0,x0,0
    80000478:	00000013          	addi	x0,x0,0
    8000047c:	fff00413          	addi	x8,x0,-1
    80000480:	00145413          	srli	x8,x8,0x1
    80000484:	01038813          	addi	x16,x7,16
    80000488:	08000493          	addi	x9,x0,128
    8000048c:	40980833          	sub	x16,x16,x9
    80000490:	08881023          	sh	x8,128(x16)
    80000494:	00000013          	addi	x0,x0,0
    80000498:	00000013          	addi	x0,x0,0
    8000049c:	00100813          	addi	x16,x0,1
    800004a0:	01838f93          	addi	x31,x7,24
    800004a4:	00500493          	addi	x9,x0,5
    800004a8:	409f8fb3          	sub	x31,x31,x9
    800004ac:	010f92a3          	sh	x16,5(x31)
    800004b0:	00000013          	addi	x0,x0,0
    800004b4:	00000013          	addi	x0,x0,0
    800004b8:	00000013          	addi	x0,x0,0
    800004bc:	02038093          	addi	x1,x7,32
    800004c0:	7ff00493          	addi	x9,x0,2047
    800004c4:	409080b3          	sub	x1,x1,x9
    800004c8:	7e009fa3          	sh	x0,2047(x1)
    800004cc:	00000013          	addi	x0,x0,0
    800004d0:	00000013          	addi	x0,x0,0
    800004d4:	00100793          	addi	x15,x0,1
    800004d8:	02a79793          	slli	x15,x15,0x2a
    800004dc:	fff7c793          	xori	x15,x15,-1
    800004e0:	02a38113          	addi	x2,x7,42
    800004e4:	10000493          	addi	x9,x0,256
    800004e8:	40910133          	sub	x2,x2,x9
    800004ec:	10f11023          	sh	x15,256(x2)
    800004f0:	00000013          	addi	x0,x0,0
    800004f4:	00000013          	addi	x0,x0,0
    800004f8:	fff00293          	addi	x5,x0,-1
    800004fc:	03f29293          	slli	x5,x5,0x3f
    80000500:	03238313          	addi	x6,x7,50
    80000504:	ffd00493          	addi	x9,x0,-3
    80000508:	40930333          	sub	x6,x6,x9
    8000050c:	fe531ea3          	sh	x5,-3(x6)
    80000510:	00000013          	addi	x0,x0,0
    80000514:	00000013          	addi	x0,x0,0
    80000518:	00100113          	addi	x2,x0,1
    8000051c:	02911113          	slli	x2,x2,0x29
    80000520:	03a38513          	addi	x10,x7,58
    80000524:	00600493          	addi	x9,x0,6
    80000528:	40950533          	sub	x10,x10,x9
    8000052c:	00251323          	sh	x2,6(x10)
    80000530:	00000013          	addi	x0,x0,0
    80000534:	00000013          	addi	x0,x0,0
    80000538:	00100c93          	addi	x25,x0,1
    8000053c:	035c9c93          	slli	x25,x25,0x35
    80000540:	04238193          	addi	x3,x7,66
    80000544:	7ff00493          	addi	x9,x0,2047
    80000548:	409181b3          	sub	x3,x3,x9
    8000054c:	7f919fa3          	sh	x25,2047(x3)
    80000550:	00000013          	addi	x0,x0,0
    80000554:	00000013          	addi	x0,x0,0
    80000558:	00100d13          	addi	x26,x0,1
    8000055c:	021d1d13          	slli	x26,x26,0x21
    80000560:	04838c13          	addi	x24,x7,72
    80000564:	00000493          	addi	x9,x0,0
    80000568:	409c0c33          	sub	x24,x24,x9
    8000056c:	01ac1023          	sh	x26,0(x24)
    80000570:	00000013          	addi	x0,x0,0
    80000574:	00000013          	addi	x0,x0,0
    80000578:	00200b93          	addi	x23,x0,2
    8000057c:	05038793          	addi	x15,x7,80
    80000580:	20000493          	addi	x9,x0,512
    80000584:	409787b3          	sub	x15,x15,x9
    80000588:	21779023          	sh	x23,512(x15)
    8000058c:	00000013          	addi	x0,x0,0
    80000590:	00000013          	addi	x0,x0,0
    80000594:	00400193          	addi	x3,x0,4
    80000598:	05838d93          	addi	x27,x7,88
    8000059c:	ff600493          	addi	x9,x0,-10
    800005a0:	409d8db3          	sub	x27,x27,x9
    800005a4:	fe3d9b23          	sh	x3,-10(x27)
    800005a8:	00000013          	addi	x0,x0,0
    800005ac:	00000013          	addi	x0,x0,0
    800005b0:	00800f13          	addi	x30,x0,8
    800005b4:	06038693          	addi	x13,x7,96
    800005b8:	ff700493          	addi	x9,x0,-9
    800005bc:	409686b3          	sub	x13,x13,x9
    800005c0:	ffe69ba3          	sh	x30,-9(x13)
    800005c4:	00000013          	addi	x0,x0,0
    800005c8:	00000013          	addi	x0,x0,0
    800005cc:	01000313          	addi	x6,x0,16
    800005d0:	06838713          	addi	x14,x7,104
    800005d4:	01000493          	addi	x9,x0,16
    800005d8:	40970733          	sub	x14,x14,x9
    800005dc:	00671823          	sh	x6,16(x14)
    800005e0:	00000013          	addi	x0,x0,0
    800005e4:	00000013          	addi	x0,x0,0
    800005e8:	02000893          	addi	x17,x0,32
    800005ec:	07038f13          	addi	x30,x7,112
    800005f0:	f7f00493          	addi	x9,x0,-129
    800005f4:	409f0f33          	sub	x30,x30,x9
    800005f8:	f71f1fa3          	sh	x17,-129(x30)
    800005fc:	00000013          	addi	x0,x0,0
    80000600:	00000013          	addi	x0,x0,0
    80000604:	04000b13          	addi	x22,x0,64
    80000608:	07838993          	addi	x19,x7,120
    8000060c:	bff00493          	addi	x9,x0,-1025
    80000610:	409989b3          	sub	x19,x19,x9
    80000614:	bf699fa3          	sh	x22,-1025(x19)
    80000618:	00000013          	addi	x0,x0,0
    8000061c:	00000013          	addi	x0,x0,0
    80000620:	08000593          	addi	x11,x0,128
    80000624:	08038613          	addi	x12,x7,128
    80000628:	00500493          	addi	x9,x0,5
    8000062c:	40960633          	sub	x12,x12,x9
    80000630:	00b612a3          	sh	x11,5(x12)
    80000634:	00000013          	addi	x0,x0,0
    80000638:	00000013          	addi	x0,x0,0
    8000063c:	10000093          	addi	x1,x0,256
    80000640:	08838d13          	addi	x26,x7,136
    80000644:	fef00493          	addi	x9,x0,-17
    80000648:	409d0d33          	sub	x26,x26,x9
    8000064c:	fe1d17a3          	sh	x1,-17(x26)
    80000650:	00000013          	addi	x0,x0,0
    80000654:	00000013          	addi	x0,x0,0
    80000658:	20000a13          	addi	x20,x0,512
    8000065c:	09038413          	addi	x8,x7,144
    80000660:	80000493          	addi	x9,x0,-2048
    80000664:	40940433          	sub	x8,x8,x9
    80000668:	81441023          	sh	x20,-2048(x8)
    8000066c:	00000013          	addi	x0,x0,0
    80000670:	00000013          	addi	x0,x0,0
    80000674:	40000f93          	addi	x31,x0,1024
    80000678:	09838213          	addi	x4,x7,152
    8000067c:	02000493          	addi	x9,x0,32
    80000680:	40920233          	sub	x4,x4,x9
    80000684:	03f21023          	sh	x31,32(x4) # 0x20
    80000688:	00000013          	addi	x0,x0,0
    8000068c:	00000013          	addi	x0,x0,0
    80000690:	00100913          	addi	x18,x0,1
    80000694:	00b91913          	slli	x18,x18,0xb
    80000698:	0a038b93          	addi	x23,x7,160
    8000069c:	00000113          	addi	x2,x0,0
    800006a0:	402b8bb3          	sub	x23,x23,x2
    800006a4:	012b9023          	sh	x18,0(x23)
    800006a8:	00000013          	addi	x0,x0,0
    800006ac:	00000013          	addi	x0,x0,0
    800006b0:	00000013          	addi	x0,x0,0
    800006b4:	00000013          	addi	x0,x0,0
    800006b8:	00000013          	addi	x0,x0,0
    800006bc:	00000013          	addi	x0,x0,0
    800006c0:	00003097          	auipc	x1,0x3
    800006c4:	9f008093          	addi	x1,x1,-1552 # 0x800030b0
    800006c8:	00000013          	addi	x0,x0,0
    800006cc:	00000013          	addi	x0,x0,0
    800006d0:	00000013          	addi	x0,x0,0
    800006d4:	00000013          	addi	x0,x0,0
    800006d8:	00000013          	addi	x0,x0,0
    800006dc:	00000013          	addi	x0,x0,0
    800006e0:	00100613          	addi	x12,x0,1
    800006e4:	00c61613          	slli	x12,x12,0xc
    800006e8:	00008493          	addi	x9,x1,0
    800006ec:	00900113          	addi	x2,x0,9
    800006f0:	402484b3          	sub	x9,x9,x2
    800006f4:	00c494a3          	sh	x12,9(x9)
    800006f8:	00000013          	addi	x0,x0,0
    800006fc:	00000013          	addi	x0,x0,0
    80000700:	00100213          	addi	x4,x0,1
    80000704:	00d21213          	slli	x4,x4,0xd
    80000708:	00808913          	addi	x18,x1,8
    8000070c:	20000113          	addi	x2,x0,512
    80000710:	40290933          	sub	x18,x18,x2
    80000714:	20491023          	sh	x4,512(x18)
    80000718:	00000013          	addi	x0,x0,0
    8000071c:	00000013          	addi	x0,x0,0
    80000720:	00100d93          	addi	x27,x0,1
    80000724:	00ed9d93          	slli	x27,x27,0xe
    80000728:	01008a13          	addi	x20,x1,16
    8000072c:	04000113          	addi	x2,x0,64
    80000730:	402a0a33          	sub	x20,x20,x2
    80000734:	05ba1023          	sh	x27,64(x20)
    80000738:	00000013          	addi	x0,x0,0
    8000073c:	00000013          	addi	x0,x0,0
    80000740:	00100a93          	addi	x21,x0,1
    80000744:	00fa9a93          	slli	x21,x21,0xf
    80000748:	01808393          	addi	x7,x1,24
    8000074c:	00000113          	addi	x2,x0,0
    80000750:	402383b3          	sub	x7,x7,x2
    80000754:	01539023          	sh	x21,0(x7)
    80000758:	00000013          	addi	x0,x0,0
    8000075c:	00000013          	addi	x0,x0,0
    80000760:	00100493          	addi	x9,x0,1
    80000764:	01049493          	slli	x9,x9,0x10
    80000768:	02008c93          	addi	x25,x1,32
    8000076c:	ff600113          	addi	x2,x0,-10
    80000770:	402c8cb3          	sub	x25,x25,x2
    80000774:	fe9c9b23          	sh	x9,-10(x25)
    80000778:	00000013          	addi	x0,x0,0
    8000077c:	00000013          	addi	x0,x0,0
    80000780:	00100993          	addi	x19,x0,1
    80000784:	01199993          	slli	x19,x19,0x11
    80000788:	02808a93          	addi	x21,x1,40
    8000078c:	ffd00113          	addi	x2,x0,-3
    80000790:	402a8ab3          	sub	x21,x21,x2
    80000794:	ff3a9ea3          	sh	x19,-3(x21)
    80000798:	00000013          	addi	x0,x0,0
    8000079c:	00000013          	addi	x0,x0,0
    800007a0:	00100e93          	addi	x29,x0,1
    800007a4:	012e9e93          	slli	x29,x29,0x12
    800007a8:	03008b13          	addi	x22,x1,48
    800007ac:	dff00113          	addi	x2,x0,-513
    800007b0:	402b0b33          	sub	x22,x22,x2
    800007b4:	dfdb1fa3          	sh	x29,-513(x22)
    800007b8:	00000013          	addi	x0,x0,0
    800007bc:	00000013          	addi	x0,x0,0
    800007c0:	00100393          	addi	x7,x0,1
    800007c4:	01339393          	slli	x7,x7,0x13
    800007c8:	03808893          	addi	x17,x1,56
    800007cc:	ff800113          	addi	x2,x0,-8
    800007d0:	402888b3          	sub	x17,x17,x2
    800007d4:	fe789c23          	sh	x7,-8(x17)
    800007d8:	00000013          	addi	x0,x0,0
    800007dc:	00000013          	addi	x0,x0,0
    800007e0:	00100693          	addi	x13,x0,1
    800007e4:	01469693          	slli	x13,x13,0x14
    800007e8:	04008293          	addi	x5,x1,64
    800007ec:	ffd00113          	addi	x2,x0,-3
    800007f0:	402282b3          	sub	x5,x5,x2
    800007f4:	fed29ea3          	sh	x13,-3(x5)
    800007f8:	00000013          	addi	x0,x0,0
    800007fc:	00000013          	addi	x0,x0,0
    80000800:	00100c13          	addi	x24,x0,1
    80000804:	015c1c13          	slli	x24,x24,0x15
    80000808:	04808593          	addi	x11,x1,72
    8000080c:	fdf00113          	addi	x2,x0,-33
    80000810:	402585b3          	sub	x11,x11,x2
    80000814:	fd859fa3          	sh	x24,-33(x11)
    80000818:	00000013          	addi	x0,x0,0
    8000081c:	00000013          	addi	x0,x0,0
    80000820:	00100e13          	addi	x28,x0,1
    80000824:	016e1e13          	slli	x28,x28,0x16
    80000828:	05008613          	addi	x12,x1,80
    8000082c:	ff800113          	addi	x2,x0,-8
    80000830:	40260633          	sub	x12,x12,x2
    80000834:	ffc61c23          	sh	x28,-8(x12)
    80000838:	00000013          	addi	x0,x0,0
    8000083c:	00000013          	addi	x0,x0,0
    80000840:	00100593          	addi	x11,x0,1
    80000844:	01759593          	slli	x11,x11,0x17
    80000848:	05808513          	addi	x10,x1,88
    8000084c:	02000113          	addi	x2,x0,32
    80000850:	40250533          	sub	x10,x10,x2
    80000854:	02b51023          	sh	x11,32(x10)
    80000858:	00000013          	addi	x0,x0,0
    8000085c:	00000013          	addi	x0,x0,0
    80000860:	00100593          	addi	x11,x0,1
    80000864:	01859593          	slli	x11,x11,0x18
    80000868:	06008513          	addi	x10,x1,96
    8000086c:	00600113          	addi	x2,x0,6
    80000870:	40250533          	sub	x10,x10,x2
    80000874:	00b51323          	sh	x11,6(x10)
    80000878:	00000013          	addi	x0,x0,0
    8000087c:	00000013          	addi	x0,x0,0
    80000880:	00100593          	addi	x11,x0,1
    80000884:	01959593          	slli	x11,x11,0x19
    80000888:	06808513          	addi	x10,x1,104
    8000088c:	40000113          	addi	x2,x0,1024
    80000890:	40250533          	sub	x10,x10,x2
    80000894:	40b51023          	sh	x11,1024(x10)
    80000898:	00000013          	addi	x0,x0,0
    8000089c:	00000013          	addi	x0,x0,0
    800008a0:	00100593          	addi	x11,x0,1
    800008a4:	01a59593          	slli	x11,x11,0x1a
    800008a8:	07008513          	addi	x10,x1,112
    800008ac:	00700113          	addi	x2,x0,7
    800008b0:	40250533          	sub	x10,x10,x2
    800008b4:	00b513a3          	sh	x11,7(x10)
    800008b8:	00000013          	addi	x0,x0,0
    800008bc:	00000013          	addi	x0,x0,0
    800008c0:	00100593          	addi	x11,x0,1
    800008c4:	01b59593          	slli	x11,x11,0x1b
    800008c8:	07808513          	addi	x10,x1,120
    800008cc:	20000113          	addi	x2,x0,512
    800008d0:	40250533          	sub	x10,x10,x2
    800008d4:	20b51023          	sh	x11,512(x10)
    800008d8:	00000013          	addi	x0,x0,0
    800008dc:	00000013          	addi	x0,x0,0
    800008e0:	00100593          	addi	x11,x0,1
    800008e4:	01c59593          	slli	x11,x11,0x1c
    800008e8:	08008513          	addi	x10,x1,128
    800008ec:	00100113          	addi	x2,x0,1
    800008f0:	40250533          	sub	x10,x10,x2
    800008f4:	00b510a3          	sh	x11,1(x10)
    800008f8:	00000013          	addi	x0,x0,0
    800008fc:	00000013          	addi	x0,x0,0
    80000900:	00100593          	addi	x11,x0,1
    80000904:	01d59593          	slli	x11,x11,0x1d
    80000908:	08808513          	addi	x10,x1,136
    8000090c:	80000113          	addi	x2,x0,-2048
    80000910:	40250533          	sub	x10,x10,x2
    80000914:	80b51023          	sh	x11,-2048(x10)
    80000918:	00000013          	addi	x0,x0,0
    8000091c:	00000013          	addi	x0,x0,0
    80000920:	00100593          	addi	x11,x0,1
    80000924:	01e59593          	slli	x11,x11,0x1e
    80000928:	09008513          	addi	x10,x1,144
    8000092c:	fbf00113          	addi	x2,x0,-65
    80000930:	40250533          	sub	x10,x10,x2
    80000934:	fab51fa3          	sh	x11,-65(x10)
    80000938:	00000013          	addi	x0,x0,0
    8000093c:	00000013          	addi	x0,x0,0
    80000940:	00100593          	addi	x11,x0,1
    80000944:	01f59593          	slli	x11,x11,0x1f
    80000948:	09808513          	addi	x10,x1,152
    8000094c:	00500113          	addi	x2,x0,5
    80000950:	40250533          	sub	x10,x10,x2
    80000954:	00b512a3          	sh	x11,5(x10)
    80000958:	00000013          	addi	x0,x0,0
    8000095c:	00000013          	addi	x0,x0,0
    80000960:	00100593          	addi	x11,x0,1
    80000964:	02059593          	slli	x11,x11,0x20
    80000968:	0a008513          	addi	x10,x1,160
    8000096c:	00700113          	addi	x2,x0,7
    80000970:	40250533          	sub	x10,x10,x2
    80000974:	00b513a3          	sh	x11,7(x10)
    80000978:	00000013          	addi	x0,x0,0
    8000097c:	00000013          	addi	x0,x0,0
    80000980:	00100593          	addi	x11,x0,1
    80000984:	02259593          	slli	x11,x11,0x22
    80000988:	0a808513          	addi	x10,x1,168
    8000098c:	7ff00113          	addi	x2,x0,2047
    80000990:	40250533          	sub	x10,x10,x2
    80000994:	7eb51fa3          	sh	x11,2047(x10)
    80000998:	00000013          	addi	x0,x0,0
    8000099c:	00000013          	addi	x0,x0,0
    800009a0:	00100593          	addi	x11,x0,1
    800009a4:	02359593          	slli	x11,x11,0x23
    800009a8:	0b008513          	addi	x10,x1,176
    800009ac:	c0000113          	addi	x2,x0,-1024
    800009b0:	40250533          	sub	x10,x10,x2
    800009b4:	c0b51023          	sh	x11,-1024(x10)
    800009b8:	00000013          	addi	x0,x0,0
    800009bc:	00000013          	addi	x0,x0,0
    800009c0:	00100593          	addi	x11,x0,1
    800009c4:	02459593          	slli	x11,x11,0x24
    800009c8:	0b808513          	addi	x10,x1,184
    800009cc:	10000113          	addi	x2,x0,256
    800009d0:	40250533          	sub	x10,x10,x2
    800009d4:	10b51023          	sh	x11,256(x10)
    800009d8:	00000013          	addi	x0,x0,0
    800009dc:	00000013          	addi	x0,x0,0
    800009e0:	00100593          	addi	x11,x0,1
    800009e4:	02559593          	slli	x11,x11,0x25
    800009e8:	0c008513          	addi	x10,x1,192
    800009ec:	bff00113          	addi	x2,x0,-1025
    800009f0:	40250533          	sub	x10,x10,x2
    800009f4:	beb51fa3          	sh	x11,-1025(x10)
    800009f8:	00000013          	addi	x0,x0,0
    800009fc:	00000013          	addi	x0,x0,0
    80000a00:	00100593          	addi	x11,x0,1
    80000a04:	02659593          	slli	x11,x11,0x26
    80000a08:	0c808513          	addi	x10,x1,200
    80000a0c:	00000113          	addi	x2,x0,0
    80000a10:	40250533          	sub	x10,x10,x2
    80000a14:	00b51023          	sh	x11,0(x10)
    80000a18:	00000013          	addi	x0,x0,0
    80000a1c:	00000013          	addi	x0,x0,0
    80000a20:	00100593          	addi	x11,x0,1
    80000a24:	02759593          	slli	x11,x11,0x27
    80000a28:	0d008513          	addi	x10,x1,208
    80000a2c:	00400113          	addi	x2,x0,4
    80000a30:	40250533          	sub	x10,x10,x2
    80000a34:	00b51223          	sh	x11,4(x10)
    80000a38:	00000013          	addi	x0,x0,0
    80000a3c:	00000013          	addi	x0,x0,0
    80000a40:	00100593          	addi	x11,x0,1
    80000a44:	02859593          	slli	x11,x11,0x28
    80000a48:	0d808513          	addi	x10,x1,216
    80000a4c:	ffc00113          	addi	x2,x0,-4
    80000a50:	40250533          	sub	x10,x10,x2
    80000a54:	feb51e23          	sh	x11,-4(x10)
    80000a58:	00000013          	addi	x0,x0,0
    80000a5c:	00000013          	addi	x0,x0,0
    80000a60:	00100593          	addi	x11,x0,1
    80000a64:	02a59593          	slli	x11,x11,0x2a
    80000a68:	0e008513          	addi	x10,x1,224
    80000a6c:	fff00113          	addi	x2,x0,-1
    80000a70:	40250533          	sub	x10,x10,x2
    80000a74:	feb51fa3          	sh	x11,-1(x10)
    80000a78:	00000013          	addi	x0,x0,0
    80000a7c:	00000013          	addi	x0,x0,0
    80000a80:	00100593          	addi	x11,x0,1
    80000a84:	02b59593          	slli	x11,x11,0x2b
    80000a88:	0e808513          	addi	x10,x1,232
    80000a8c:	dff00113          	addi	x2,x0,-513
    80000a90:	40250533          	sub	x10,x10,x2
    80000a94:	deb51fa3          	sh	x11,-513(x10)
    80000a98:	00000013          	addi	x0,x0,0
    80000a9c:	00000013          	addi	x0,x0,0
    80000aa0:	00100593          	addi	x11,x0,1
    80000aa4:	02c59593          	slli	x11,x11,0x2c
    80000aa8:	0f008513          	addi	x10,x1,240
    80000aac:	dff00113          	addi	x2,x0,-513
    80000ab0:	40250533          	sub	x10,x10,x2
    80000ab4:	deb51fa3          	sh	x11,-513(x10)
    80000ab8:	00000013          	addi	x0,x0,0
    80000abc:	00000013          	addi	x0,x0,0
    80000ac0:	00100593          	addi	x11,x0,1
    80000ac4:	02d59593          	slli	x11,x11,0x2d
    80000ac8:	0f808513          	addi	x10,x1,248
    80000acc:	02000113          	addi	x2,x0,32
    80000ad0:	40250533          	sub	x10,x10,x2
    80000ad4:	02b51023          	sh	x11,32(x10)
    80000ad8:	00000013          	addi	x0,x0,0
    80000adc:	00000013          	addi	x0,x0,0
    80000ae0:	00100593          	addi	x11,x0,1
    80000ae4:	02e59593          	slli	x11,x11,0x2e
    80000ae8:	10008513          	addi	x10,x1,256
    80000aec:	00100113          	addi	x2,x0,1
    80000af0:	40250533          	sub	x10,x10,x2
    80000af4:	00b510a3          	sh	x11,1(x10)
    80000af8:	00000013          	addi	x0,x0,0
    80000afc:	00000013          	addi	x0,x0,0
    80000b00:	00100593          	addi	x11,x0,1
    80000b04:	02f59593          	slli	x11,x11,0x2f
    80000b08:	10808513          	addi	x10,x1,264
    80000b0c:	ffb00113          	addi	x2,x0,-5
    80000b10:	40250533          	sub	x10,x10,x2
    80000b14:	feb51da3          	sh	x11,-5(x10)
    80000b18:	00000013          	addi	x0,x0,0
    80000b1c:	00000013          	addi	x0,x0,0
    80000b20:	00100593          	addi	x11,x0,1
    80000b24:	03059593          	slli	x11,x11,0x30
    80000b28:	11008513          	addi	x10,x1,272
    80000b2c:	02000113          	addi	x2,x0,32
    80000b30:	40250533          	sub	x10,x10,x2
    80000b34:	02b51023          	sh	x11,32(x10)
    80000b38:	00000013          	addi	x0,x0,0
    80000b3c:	00000013          	addi	x0,x0,0
    80000b40:	00100593          	addi	x11,x0,1
    80000b44:	03159593          	slli	x11,x11,0x31
    80000b48:	11808513          	addi	x10,x1,280
    80000b4c:	f7f00113          	addi	x2,x0,-129
    80000b50:	40250533          	sub	x10,x10,x2
    80000b54:	f6b51fa3          	sh	x11,-129(x10)
    80000b58:	00000013          	addi	x0,x0,0
    80000b5c:	00000013          	addi	x0,x0,0
    80000b60:	00100593          	addi	x11,x0,1
    80000b64:	03259593          	slli	x11,x11,0x32
    80000b68:	12008513          	addi	x10,x1,288
    80000b6c:	eff00113          	addi	x2,x0,-257
    80000b70:	40250533          	sub	x10,x10,x2
    80000b74:	eeb51fa3          	sh	x11,-257(x10)
    80000b78:	00000013          	addi	x0,x0,0
    80000b7c:	00000013          	addi	x0,x0,0
    80000b80:	00100593          	addi	x11,x0,1
    80000b84:	03359593          	slli	x11,x11,0x33
    80000b88:	12808513          	addi	x10,x1,296
    80000b8c:	04000113          	addi	x2,x0,64
    80000b90:	40250533          	sub	x10,x10,x2
    80000b94:	04b51023          	sh	x11,64(x10)
    80000b98:	00000013          	addi	x0,x0,0
    80000b9c:	00000013          	addi	x0,x0,0
    80000ba0:	00100593          	addi	x11,x0,1
    80000ba4:	03459593          	slli	x11,x11,0x34
    80000ba8:	13008513          	addi	x10,x1,304
    80000bac:	00300113          	addi	x2,x0,3
    80000bb0:	40250533          	sub	x10,x10,x2
    80000bb4:	00b511a3          	sh	x11,3(x10)
    80000bb8:	00000013          	addi	x0,x0,0
    80000bbc:	00000013          	addi	x0,x0,0
    80000bc0:	00100593          	addi	x11,x0,1
    80000bc4:	03659593          	slli	x11,x11,0x36
    80000bc8:	13808513          	addi	x10,x1,312
    80000bcc:	00700113          	addi	x2,x0,7
    80000bd0:	40250533          	sub	x10,x10,x2
    80000bd4:	00b513a3          	sh	x11,7(x10)
    80000bd8:	00000013          	addi	x0,x0,0
    80000bdc:	00000013          	addi	x0,x0,0
    80000be0:	00100593          	addi	x11,x0,1
    80000be4:	03759593          	slli	x11,x11,0x37
    80000be8:	14008513          	addi	x10,x1,320
    80000bec:	00900113          	addi	x2,x0,9
    80000bf0:	40250533          	sub	x10,x10,x2
    80000bf4:	00b514a3          	sh	x11,9(x10)
    80000bf8:	00000013          	addi	x0,x0,0
    80000bfc:	00000013          	addi	x0,x0,0
    80000c00:	00100593          	addi	x11,x0,1
    80000c04:	03859593          	slli	x11,x11,0x38
    80000c08:	14808513          	addi	x10,x1,328
    80000c0c:	02000113          	addi	x2,x0,32
    80000c10:	40250533          	sub	x10,x10,x2
    80000c14:	02b51023          	sh	x11,32(x10)
    80000c18:	00000013          	addi	x0,x0,0
    80000c1c:	00000013          	addi	x0,x0,0
    80000c20:	00100593          	addi	x11,x0,1
    80000c24:	03959593          	slli	x11,x11,0x39
    80000c28:	15008513          	addi	x10,x1,336
    80000c2c:	00000113          	addi	x2,x0,0
    80000c30:	40250533          	sub	x10,x10,x2
    80000c34:	00b51023          	sh	x11,0(x10)
    80000c38:	00000013          	addi	x0,x0,0
    80000c3c:	00000013          	addi	x0,x0,0
    80000c40:	00100593          	addi	x11,x0,1
    80000c44:	03a59593          	slli	x11,x11,0x3a
    80000c48:	15808513          	addi	x10,x1,344
    80000c4c:	40000113          	addi	x2,x0,1024
    80000c50:	40250533          	sub	x10,x10,x2
    80000c54:	40b51023          	sh	x11,1024(x10)
    80000c58:	00000013          	addi	x0,x0,0
    80000c5c:	00000013          	addi	x0,x0,0
    80000c60:	00100593          	addi	x11,x0,1
    80000c64:	03b59593          	slli	x11,x11,0x3b
    80000c68:	16008513          	addi	x10,x1,352
    80000c6c:	ff600113          	addi	x2,x0,-10
    80000c70:	40250533          	sub	x10,x10,x2
    80000c74:	feb51b23          	sh	x11,-10(x10)
    80000c78:	00000013          	addi	x0,x0,0
    80000c7c:	00000013          	addi	x0,x0,0
    80000c80:	00100593          	addi	x11,x0,1
    80000c84:	03c59593          	slli	x11,x11,0x3c
    80000c88:	16808513          	addi	x10,x1,360
    80000c8c:	aaa00113          	addi	x2,x0,-1366
    80000c90:	40250533          	sub	x10,x10,x2
    80000c94:	aab51523          	sh	x11,-1366(x10)
    80000c98:	00000013          	addi	x0,x0,0
    80000c9c:	00000013          	addi	x0,x0,0
    80000ca0:	00100593          	addi	x11,x0,1
    80000ca4:	03d59593          	slli	x11,x11,0x3d
    80000ca8:	17008513          	addi	x10,x1,368
    80000cac:	01000113          	addi	x2,x0,16
    80000cb0:	40250533          	sub	x10,x10,x2
    80000cb4:	00b51823          	sh	x11,16(x10)
    80000cb8:	00000013          	addi	x0,x0,0
    80000cbc:	00000013          	addi	x0,x0,0
    80000cc0:	00100593          	addi	x11,x0,1
    80000cc4:	03e59593          	slli	x11,x11,0x3e
    80000cc8:	17808513          	addi	x10,x1,376
    80000ccc:	00200113          	addi	x2,x0,2
    80000cd0:	40250533          	sub	x10,x10,x2
    80000cd4:	00b51123          	sh	x11,2(x10)
    80000cd8:	00000013          	addi	x0,x0,0
    80000cdc:	00000013          	addi	x0,x0,0
    80000ce0:	00100593          	addi	x11,x0,1
    80000ce4:	03259593          	slli	x11,x11,0x32
    80000ce8:	fff5c593          	xori	x11,x11,-1
    80000cec:	18008513          	addi	x10,x1,384
    80000cf0:	04000113          	addi	x2,x0,64
    80000cf4:	40250533          	sub	x10,x10,x2
    80000cf8:	04b51023          	sh	x11,64(x10)
    80000cfc:	00000013          	addi	x0,x0,0
    80000d00:	00000013          	addi	x0,x0,0
    80000d04:	00100593          	addi	x11,x0,1
    80000d08:	03359593          	slli	x11,x11,0x33
    80000d0c:	fff5c593          	xori	x11,x11,-1
    80000d10:	18808513          	addi	x10,x1,392
    80000d14:	00200113          	addi	x2,x0,2
    80000d18:	40250533          	sub	x10,x10,x2
    80000d1c:	00b51123          	sh	x11,2(x10)
    80000d20:	00000013          	addi	x0,x0,0
    80000d24:	00000013          	addi	x0,x0,0
    80000d28:	00100593          	addi	x11,x0,1
    80000d2c:	03459593          	slli	x11,x11,0x34
    80000d30:	fff5c593          	xori	x11,x11,-1
    80000d34:	19008513          	addi	x10,x1,400
    80000d38:	c0000113          	addi	x2,x0,-1024
    80000d3c:	40250533          	sub	x10,x10,x2
    80000d40:	c0b51023          	sh	x11,-1024(x10)
    80000d44:	00000013          	addi	x0,x0,0
    80000d48:	00000013          	addi	x0,x0,0
    80000d4c:	00100593          	addi	x11,x0,1
    80000d50:	03559593          	slli	x11,x11,0x35
    80000d54:	fff5c593          	xori	x11,x11,-1
    80000d58:	19808513          	addi	x10,x1,408
    80000d5c:	bff00113          	addi	x2,x0,-1025
    80000d60:	40250533          	sub	x10,x10,x2
    80000d64:	beb51fa3          	sh	x11,-1025(x10)
    80000d68:	00000013          	addi	x0,x0,0
    80000d6c:	00000013          	addi	x0,x0,0
    80000d70:	00100593          	addi	x11,x0,1
    80000d74:	03659593          	slli	x11,x11,0x36
    80000d78:	fff5c593          	xori	x11,x11,-1
    80000d7c:	1a008513          	addi	x10,x1,416
    80000d80:	3ff00113          	addi	x2,x0,1023
    80000d84:	40250533          	sub	x10,x10,x2
    80000d88:	3eb51fa3          	sh	x11,1023(x10)
    80000d8c:	00000013          	addi	x0,x0,0
    80000d90:	00000013          	addi	x0,x0,0
    80000d94:	00100593          	addi	x11,x0,1
    80000d98:	03759593          	slli	x11,x11,0x37
    80000d9c:	fff5c593          	xori	x11,x11,-1
    80000da0:	1a808513          	addi	x10,x1,424
    80000da4:	fff00113          	addi	x2,x0,-1
    80000da8:	40250533          	sub	x10,x10,x2
    80000dac:	feb51fa3          	sh	x11,-1(x10)
    80000db0:	00000013          	addi	x0,x0,0
    80000db4:	00000013          	addi	x0,x0,0
    80000db8:	00100593          	addi	x11,x0,1
    80000dbc:	03859593          	slli	x11,x11,0x38
    80000dc0:	fff5c593          	xori	x11,x11,-1
    80000dc4:	1b008513          	addi	x10,x1,432
    80000dc8:	eff00113          	addi	x2,x0,-257
    80000dcc:	40250533          	sub	x10,x10,x2
    80000dd0:	eeb51fa3          	sh	x11,-257(x10)
    80000dd4:	00000013          	addi	x0,x0,0
    80000dd8:	00000013          	addi	x0,x0,0
    80000ddc:	00100593          	addi	x11,x0,1
    80000de0:	03959593          	slli	x11,x11,0x39
    80000de4:	fff5c593          	xori	x11,x11,-1
    80000de8:	1b808513          	addi	x10,x1,440
    80000dec:	ff700113          	addi	x2,x0,-9
    80000df0:	40250533          	sub	x10,x10,x2
    80000df4:	feb51ba3          	sh	x11,-9(x10)
    80000df8:	00000013          	addi	x0,x0,0
    80000dfc:	00000013          	addi	x0,x0,0
    80000e00:	00100593          	addi	x11,x0,1
    80000e04:	03a59593          	slli	x11,x11,0x3a
    80000e08:	fff5c593          	xori	x11,x11,-1
    80000e0c:	1c008513          	addi	x10,x1,448
    80000e10:	ffd00113          	addi	x2,x0,-3
    80000e14:	40250533          	sub	x10,x10,x2
    80000e18:	feb51ea3          	sh	x11,-3(x10)
    80000e1c:	00000013          	addi	x0,x0,0
    80000e20:	00000013          	addi	x0,x0,0
    80000e24:	00100593          	addi	x11,x0,1
    80000e28:	03b59593          	slli	x11,x11,0x3b
    80000e2c:	fff5c593          	xori	x11,x11,-1
    80000e30:	1c808513          	addi	x10,x1,456
    80000e34:	aaa00113          	addi	x2,x0,-1366
    80000e38:	40250533          	sub	x10,x10,x2
    80000e3c:	aab51523          	sh	x11,-1366(x10)
    80000e40:	00000013          	addi	x0,x0,0
    80000e44:	00000013          	addi	x0,x0,0
    80000e48:	00100593          	addi	x11,x0,1
    80000e4c:	03c59593          	slli	x11,x11,0x3c
    80000e50:	fff5c593          	xori	x11,x11,-1
    80000e54:	1d008513          	addi	x10,x1,464
    80000e58:	ff900113          	addi	x2,x0,-7
    80000e5c:	40250533          	sub	x10,x10,x2
    80000e60:	feb51ca3          	sh	x11,-7(x10)
    80000e64:	00000013          	addi	x0,x0,0
    80000e68:	00000013          	addi	x0,x0,0
    80000e6c:	00100593          	addi	x11,x0,1
    80000e70:	03d59593          	slli	x11,x11,0x3d
    80000e74:	fff5c593          	xori	x11,x11,-1
    80000e78:	1d808513          	addi	x10,x1,472
    80000e7c:	00300113          	addi	x2,x0,3
    80000e80:	40250533          	sub	x10,x10,x2
    80000e84:	00b511a3          	sh	x11,3(x10)
    80000e88:	00000013          	addi	x0,x0,0
    80000e8c:	00000013          	addi	x0,x0,0
    80000e90:	00100593          	addi	x11,x0,1
    80000e94:	03e59593          	slli	x11,x11,0x3e
    80000e98:	fff5c593          	xori	x11,x11,-1
    80000e9c:	1e008513          	addi	x10,x1,480
    80000ea0:	ffd00113          	addi	x2,x0,-3
    80000ea4:	40250533          	sub	x10,x10,x2
    80000ea8:	feb51ea3          	sh	x11,-3(x10)
    80000eac:	00000013          	addi	x0,x0,0
    80000eb0:	00000013          	addi	x0,x0,0
    80000eb4:	555555b7          	lui	x11,0x55555
    80000eb8:	55558593          	addi	x11,x11,1365 # 0x55555555
    80000ebc:	00b59593          	slli	x11,x11,0xb
    80000ec0:	2aa58593          	addi	x11,x11,682
    80000ec4:	00b59593          	slli	x11,x11,0xb
    80000ec8:	55558593          	addi	x11,x11,1365
    80000ecc:	00a59593          	slli	x11,x11,0xa
    80000ed0:	15558593          	addi	x11,x11,341
    80000ed4:	1e808513          	addi	x10,x1,488
    80000ed8:	10000113          	addi	x2,x0,256
    80000edc:	40250533          	sub	x10,x10,x2
    80000ee0:	10b51023          	sh	x11,256(x10)
    80000ee4:	00000013          	addi	x0,x0,0
    80000ee8:	00000013          	addi	x0,x0,0
    80000eec:	aaaab5b7          	lui	x11,0xaaaab
    80000ef0:	aaa58593          	addi	x11,x11,-1366 # 0xffffffffaaaaaaaa
    80000ef4:	00b59593          	slli	x11,x11,0xb
    80000ef8:	55558593          	addi	x11,x11,1365
    80000efc:	00b59593          	slli	x11,x11,0xb
    80000f00:	2aa58593          	addi	x11,x11,682
    80000f04:	00a59593          	slli	x11,x11,0xa
    80000f08:	2aa58593          	addi	x11,x11,682
    80000f0c:	1f008513          	addi	x10,x1,496
    80000f10:	00500113          	addi	x2,x0,5
    80000f14:	40250533          	sub	x10,x10,x2
    80000f18:	00b512a3          	sh	x11,5(x10)
    80000f1c:	00000013          	addi	x0,x0,0
    80000f20:	00000013          	addi	x0,x0,0
    80000f24:	ffd00593          	addi	x11,x0,-3
    80000f28:	1f808513          	addi	x10,x1,504
    80000f2c:	ffa00113          	addi	x2,x0,-6
    80000f30:	40250533          	sub	x10,x10,x2
    80000f34:	feb51d23          	sh	x11,-6(x10)
    80000f38:	00000013          	addi	x0,x0,0
    80000f3c:	00000013          	addi	x0,x0,0
    80000f40:	ffb00593          	addi	x11,x0,-5
    80000f44:	20008513          	addi	x10,x1,512
    80000f48:	80000113          	addi	x2,x0,-2048
    80000f4c:	40250533          	sub	x10,x10,x2
    80000f50:	80b51023          	sh	x11,-2048(x10)
    80000f54:	00000013          	addi	x0,x0,0
    80000f58:	00000013          	addi	x0,x0,0
    80000f5c:	ff700593          	addi	x11,x0,-9
    80000f60:	20808513          	addi	x10,x1,520
    80000f64:	08000113          	addi	x2,x0,128
    80000f68:	40250533          	sub	x10,x10,x2
    80000f6c:	08b51023          	sh	x11,128(x10)
    80000f70:	00000013          	addi	x0,x0,0
    80000f74:	00000013          	addi	x0,x0,0
    80000f78:	fef00593          	addi	x11,x0,-17
    80000f7c:	21008513          	addi	x10,x1,528
    80000f80:	80000113          	addi	x2,x0,-2048
    80000f84:	40250533          	sub	x10,x10,x2
    80000f88:	80b51023          	sh	x11,-2048(x10)
    80000f8c:	00000013          	addi	x0,x0,0
    80000f90:	00000013          	addi	x0,x0,0
    80000f94:	fdf00593          	addi	x11,x0,-33
    80000f98:	21808513          	addi	x10,x1,536
    80000f9c:	04000113          	addi	x2,x0,64
    80000fa0:	40250533          	sub	x10,x10,x2
    80000fa4:	04b51023          	sh	x11,64(x10)
    80000fa8:	00000013          	addi	x0,x0,0
    80000fac:	00000013          	addi	x0,x0,0
    80000fb0:	fbf00593          	addi	x11,x0,-65
    80000fb4:	22008513          	addi	x10,x1,544
    80000fb8:	ffc00113          	addi	x2,x0,-4
    80000fbc:	40250533          	sub	x10,x10,x2
    80000fc0:	feb51e23          	sh	x11,-4(x10)
    80000fc4:	00000013          	addi	x0,x0,0
    80000fc8:	00000013          	addi	x0,x0,0
    80000fcc:	f7f00593          	addi	x11,x0,-129
    80000fd0:	22808513          	addi	x10,x1,552
    80000fd4:	00300113          	addi	x2,x0,3
    80000fd8:	40250533          	sub	x10,x10,x2
    80000fdc:	00b511a3          	sh	x11,3(x10)
    80000fe0:	00000013          	addi	x0,x0,0
    80000fe4:	00000013          	addi	x0,x0,0
    80000fe8:	eff00593          	addi	x11,x0,-257
    80000fec:	23008513          	addi	x10,x1,560
    80000ff0:	ff900113          	addi	x2,x0,-7
    80000ff4:	40250533          	sub	x10,x10,x2
    80000ff8:	feb51ca3          	sh	x11,-7(x10)
    80000ffc:	00000013          	addi	x0,x0,0
    80001000:	00000013          	addi	x0,x0,0
    80001004:	dff00593          	addi	x11,x0,-513
    80001008:	23808513          	addi	x10,x1,568
    8000100c:	3ff00113          	addi	x2,x0,1023
    80001010:	40250533          	sub	x10,x10,x2
    80001014:	3eb51fa3          	sh	x11,1023(x10)
    80001018:	00000013          	addi	x0,x0,0
    8000101c:	00000013          	addi	x0,x0,0
    80001020:	bff00593          	addi	x11,x0,-1025
    80001024:	24008513          	addi	x10,x1,576
    80001028:	c0000113          	addi	x2,x0,-1024
    8000102c:	40250533          	sub	x10,x10,x2
    80001030:	c0b51023          	sh	x11,-1024(x10)
    80001034:	00000013          	addi	x0,x0,0
    80001038:	00000013          	addi	x0,x0,0
    8000103c:	00100593          	addi	x11,x0,1
    80001040:	00b59593          	slli	x11,x11,0xb
    80001044:	fff5c593          	xori	x11,x11,-1
    80001048:	24808513          	addi	x10,x1,584
    8000104c:	55500113          	addi	x2,x0,1365
    80001050:	40250533          	sub	x10,x10,x2
    80001054:	54b51aa3          	sh	x11,1365(x10)
    80001058:	00000013          	addi	x0,x0,0
    8000105c:	00000013          	addi	x0,x0,0
    80001060:	00100593          	addi	x11,x0,1
    80001064:	00c59593          	slli	x11,x11,0xc
    80001068:	fff5c593          	xori	x11,x11,-1
    8000106c:	25008513          	addi	x10,x1,592
    80001070:	00900113          	addi	x2,x0,9
    80001074:	40250533          	sub	x10,x10,x2
    80001078:	00b514a3          	sh	x11,9(x10)
    8000107c:	00000013          	addi	x0,x0,0
    80001080:	00000013          	addi	x0,x0,0
    80001084:	00100593          	addi	x11,x0,1
    80001088:	00d59593          	slli	x11,x11,0xd
    8000108c:	fff5c593          	xori	x11,x11,-1
    80001090:	25808513          	addi	x10,x1,600
    80001094:	08000113          	addi	x2,x0,128
    80001098:	40250533          	sub	x10,x10,x2
    8000109c:	08b51023          	sh	x11,128(x10)
    800010a0:	00000013          	addi	x0,x0,0
    800010a4:	00000013          	addi	x0,x0,0
    800010a8:	00100593          	addi	x11,x0,1
    800010ac:	00e59593          	slli	x11,x11,0xe
    800010b0:	fff5c593          	xori	x11,x11,-1
    800010b4:	26008513          	addi	x10,x1,608
    800010b8:	55500113          	addi	x2,x0,1365
    800010bc:	40250533          	sub	x10,x10,x2
    800010c0:	54b51aa3          	sh	x11,1365(x10)
    800010c4:	00000013          	addi	x0,x0,0
    800010c8:	00000013          	addi	x0,x0,0
    800010cc:	00100593          	addi	x11,x0,1
    800010d0:	00f59593          	slli	x11,x11,0xf
    800010d4:	fff5c593          	xori	x11,x11,-1
    800010d8:	26808513          	addi	x10,x1,616
    800010dc:	ff600113          	addi	x2,x0,-10
    800010e0:	40250533          	sub	x10,x10,x2
    800010e4:	feb51b23          	sh	x11,-10(x10)
    800010e8:	00000013          	addi	x0,x0,0
    800010ec:	00000013          	addi	x0,x0,0
    800010f0:	00100593          	addi	x11,x0,1
    800010f4:	01059593          	slli	x11,x11,0x10
    800010f8:	fff5c593          	xori	x11,x11,-1
    800010fc:	27008513          	addi	x10,x1,624
    80001100:	80000113          	addi	x2,x0,-2048
    80001104:	40250533          	sub	x10,x10,x2
    80001108:	80b51023          	sh	x11,-2048(x10)
    8000110c:	00000013          	addi	x0,x0,0
    80001110:	00000013          	addi	x0,x0,0
    80001114:	00100593          	addi	x11,x0,1
    80001118:	01159593          	slli	x11,x11,0x11
    8000111c:	fff5c593          	xori	x11,x11,-1
    80001120:	27808513          	addi	x10,x1,632
    80001124:	fbf00113          	addi	x2,x0,-65
    80001128:	40250533          	sub	x10,x10,x2
    8000112c:	fab51fa3          	sh	x11,-65(x10)
    80001130:	00000013          	addi	x0,x0,0
    80001134:	00000013          	addi	x0,x0,0
    80001138:	00100593          	addi	x11,x0,1
    8000113c:	01259593          	slli	x11,x11,0x12
    80001140:	fff5c593          	xori	x11,x11,-1
    80001144:	28008513          	addi	x10,x1,640
    80001148:	02000113          	addi	x2,x0,32
    8000114c:	40250533          	sub	x10,x10,x2
    80001150:	02b51023          	sh	x11,32(x10)
    80001154:	00000013          	addi	x0,x0,0
    80001158:	00000013          	addi	x0,x0,0
    8000115c:	00100593          	addi	x11,x0,1
    80001160:	01359593          	slli	x11,x11,0x13
    80001164:	fff5c593          	xori	x11,x11,-1
    80001168:	28808513          	addi	x10,x1,648
    8000116c:	ff800113          	addi	x2,x0,-8
    80001170:	40250533          	sub	x10,x10,x2
    80001174:	feb51c23          	sh	x11,-8(x10)
    80001178:	00000013          	addi	x0,x0,0
    8000117c:	00000013          	addi	x0,x0,0
    80001180:	00100593          	addi	x11,x0,1
    80001184:	01459593          	slli	x11,x11,0x14
    80001188:	fff5c593          	xori	x11,x11,-1
    8000118c:	29008513          	addi	x10,x1,656
    80001190:	55500113          	addi	x2,x0,1365
    80001194:	40250533          	sub	x10,x10,x2
    80001198:	54b51aa3          	sh	x11,1365(x10)
    8000119c:	00000013          	addi	x0,x0,0
    800011a0:	00000013          	addi	x0,x0,0
    800011a4:	00100593          	addi	x11,x0,1
    800011a8:	01559593          	slli	x11,x11,0x15
    800011ac:	fff5c593          	xori	x11,x11,-1
    800011b0:	29808513          	addi	x10,x1,664
    800011b4:	00300113          	addi	x2,x0,3
    800011b8:	40250533          	sub	x10,x10,x2
    800011bc:	00b511a3          	sh	x11,3(x10)
    800011c0:	00000013          	addi	x0,x0,0
    800011c4:	00000013          	addi	x0,x0,0
    800011c8:	00100593          	addi	x11,x0,1
    800011cc:	01659593          	slli	x11,x11,0x16
    800011d0:	fff5c593          	xori	x11,x11,-1
    800011d4:	2a008513          	addi	x10,x1,672
    800011d8:	00500113          	addi	x2,x0,5
    800011dc:	40250533          	sub	x10,x10,x2
    800011e0:	00b512a3          	sh	x11,5(x10)
    800011e4:	00000013          	addi	x0,x0,0
    800011e8:	00000013          	addi	x0,x0,0
    800011ec:	00100593          	addi	x11,x0,1
    800011f0:	01759593          	slli	x11,x11,0x17
    800011f4:	fff5c593          	xori	x11,x11,-1
    800011f8:	2a808513          	addi	x10,x1,680
    800011fc:	00300113          	addi	x2,x0,3
    80001200:	40250533          	sub	x10,x10,x2
    80001204:	00b511a3          	sh	x11,3(x10)
    80001208:	00000013          	addi	x0,x0,0
    8000120c:	00000013          	addi	x0,x0,0
    80001210:	00100593          	addi	x11,x0,1
    80001214:	01859593          	slli	x11,x11,0x18
    80001218:	fff5c593          	xori	x11,x11,-1
    8000121c:	2b008513          	addi	x10,x1,688
    80001220:	fbf00113          	addi	x2,x0,-65
    80001224:	40250533          	sub	x10,x10,x2
    80001228:	fab51fa3          	sh	x11,-65(x10)
    8000122c:	00000013          	addi	x0,x0,0
    80001230:	00000013          	addi	x0,x0,0
    80001234:	00100593          	addi	x11,x0,1
    80001238:	01959593          	slli	x11,x11,0x19
    8000123c:	fff5c593          	xori	x11,x11,-1
    80001240:	2b808513          	addi	x10,x1,696
    80001244:	80000113          	addi	x2,x0,-2048
    80001248:	40250533          	sub	x10,x10,x2
    8000124c:	80b51023          	sh	x11,-2048(x10)
    80001250:	00000013          	addi	x0,x0,0
    80001254:	00000013          	addi	x0,x0,0
    80001258:	00100593          	addi	x11,x0,1
    8000125c:	01a59593          	slli	x11,x11,0x1a
    80001260:	fff5c593          	xori	x11,x11,-1
    80001264:	2c008513          	addi	x10,x1,704
    80001268:	00600113          	addi	x2,x0,6
    8000126c:	40250533          	sub	x10,x10,x2
    80001270:	00b51323          	sh	x11,6(x10)
    80001274:	00000013          	addi	x0,x0,0
    80001278:	00000013          	addi	x0,x0,0
    8000127c:	00100593          	addi	x11,x0,1
    80001280:	01b59593          	slli	x11,x11,0x1b
    80001284:	fff5c593          	xori	x11,x11,-1
    80001288:	2c808513          	addi	x10,x1,712
    8000128c:	00100113          	addi	x2,x0,1
    80001290:	40250533          	sub	x10,x10,x2
    80001294:	00b510a3          	sh	x11,1(x10)
    80001298:	00000013          	addi	x0,x0,0
    8000129c:	00000013          	addi	x0,x0,0
    800012a0:	00100593          	addi	x11,x0,1
    800012a4:	01c59593          	slli	x11,x11,0x1c
    800012a8:	fff5c593          	xori	x11,x11,-1
    800012ac:	2d008513          	addi	x10,x1,720
    800012b0:	3ff00113          	addi	x2,x0,1023
    800012b4:	40250533          	sub	x10,x10,x2
    800012b8:	3eb51fa3          	sh	x11,1023(x10)
    800012bc:	00000013          	addi	x0,x0,0
    800012c0:	00000013          	addi	x0,x0,0
    800012c4:	00100593          	addi	x11,x0,1
    800012c8:	01d59593          	slli	x11,x11,0x1d
    800012cc:	fff5c593          	xori	x11,x11,-1
    800012d0:	2d808513          	addi	x10,x1,728
    800012d4:	ffe00113          	addi	x2,x0,-2
    800012d8:	40250533          	sub	x10,x10,x2
    800012dc:	feb51f23          	sh	x11,-2(x10)
    800012e0:	00000013          	addi	x0,x0,0
    800012e4:	00000013          	addi	x0,x0,0
    800012e8:	00100593          	addi	x11,x0,1
    800012ec:	01e59593          	slli	x11,x11,0x1e
    800012f0:	fff5c593          	xori	x11,x11,-1
    800012f4:	2e008513          	addi	x10,x1,736
    800012f8:	00200113          	addi	x2,x0,2
    800012fc:	40250533          	sub	x10,x10,x2
    80001300:	00b51123          	sh	x11,2(x10)
    80001304:	00000013          	addi	x0,x0,0
    80001308:	00000013          	addi	x0,x0,0
    8000130c:	00100593          	addi	x11,x0,1
    80001310:	01f59593          	slli	x11,x11,0x1f
    80001314:	fff5c593          	xori	x11,x11,-1
    80001318:	2e808513          	addi	x10,x1,744
    8000131c:	ffc00113          	addi	x2,x0,-4
    80001320:	40250533          	sub	x10,x10,x2
    80001324:	feb51e23          	sh	x11,-4(x10)
    80001328:	00000013          	addi	x0,x0,0
    8000132c:	00000013          	addi	x0,x0,0
    80001330:	00100593          	addi	x11,x0,1
    80001334:	02059593          	slli	x11,x11,0x20
    80001338:	fff5c593          	xori	x11,x11,-1
    8000133c:	2f008513          	addi	x10,x1,752
    80001340:	20000113          	addi	x2,x0,512
    80001344:	40250533          	sub	x10,x10,x2
    80001348:	20b51023          	sh	x11,512(x10)
    8000134c:	00000013          	addi	x0,x0,0
    80001350:	00000013          	addi	x0,x0,0
    80001354:	00100593          	addi	x11,x0,1
    80001358:	02159593          	slli	x11,x11,0x21
    8000135c:	fff5c593          	xori	x11,x11,-1
    80001360:	2f808513          	addi	x10,x1,760
    80001364:	00700113          	addi	x2,x0,7
    80001368:	40250533          	sub	x10,x10,x2
    8000136c:	00b513a3          	sh	x11,7(x10)
    80001370:	00000013          	addi	x0,x0,0
    80001374:	00000013          	addi	x0,x0,0
    80001378:	00100593          	addi	x11,x0,1
    8000137c:	02259593          	slli	x11,x11,0x22
    80001380:	fff5c593          	xori	x11,x11,-1
    80001384:	30008513          	addi	x10,x1,768
    80001388:	00000113          	addi	x2,x0,0
    8000138c:	40250533          	sub	x10,x10,x2
    80001390:	00b51023          	sh	x11,0(x10)
    80001394:	00000013          	addi	x0,x0,0
    80001398:	00000013          	addi	x0,x0,0
    8000139c:	00100593          	addi	x11,x0,1
    800013a0:	02359593          	slli	x11,x11,0x23
    800013a4:	fff5c593          	xori	x11,x11,-1
    800013a8:	30808513          	addi	x10,x1,776
    800013ac:	fbf00113          	addi	x2,x0,-65
    800013b0:	40250533          	sub	x10,x10,x2
    800013b4:	fab51fa3          	sh	x11,-65(x10)
    800013b8:	00000013          	addi	x0,x0,0
    800013bc:	00000013          	addi	x0,x0,0
    800013c0:	00100593          	addi	x11,x0,1
    800013c4:	02459593          	slli	x11,x11,0x24
    800013c8:	fff5c593          	xori	x11,x11,-1
    800013cc:	31008513          	addi	x10,x1,784
    800013d0:	ffd00113          	addi	x2,x0,-3
    800013d4:	40250533          	sub	x10,x10,x2
    800013d8:	feb51ea3          	sh	x11,-3(x10)
    800013dc:	00000013          	addi	x0,x0,0
    800013e0:	00000013          	addi	x0,x0,0
    800013e4:	00100593          	addi	x11,x0,1
    800013e8:	02559593          	slli	x11,x11,0x25
    800013ec:	fff5c593          	xori	x11,x11,-1
    800013f0:	31808513          	addi	x10,x1,792
    800013f4:	c0000113          	addi	x2,x0,-1024
    800013f8:	40250533          	sub	x10,x10,x2
    800013fc:	c0b51023          	sh	x11,-1024(x10)
    80001400:	00000013          	addi	x0,x0,0
    80001404:	00000013          	addi	x0,x0,0
    80001408:	00100593          	addi	x11,x0,1
    8000140c:	02659593          	slli	x11,x11,0x26
    80001410:	fff5c593          	xori	x11,x11,-1
    80001414:	32008513          	addi	x10,x1,800
    80001418:	3ff00113          	addi	x2,x0,1023
    8000141c:	40250533          	sub	x10,x10,x2
    80001420:	3eb51fa3          	sh	x11,1023(x10)
    80001424:	00000013          	addi	x0,x0,0
    80001428:	00000013          	addi	x0,x0,0
    8000142c:	00100593          	addi	x11,x0,1
    80001430:	02759593          	slli	x11,x11,0x27
    80001434:	fff5c593          	xori	x11,x11,-1
    80001438:	32808513          	addi	x10,x1,808
    8000143c:	ff700113          	addi	x2,x0,-9
    80001440:	40250533          	sub	x10,x10,x2
    80001444:	feb51ba3          	sh	x11,-9(x10)
    80001448:	00000013          	addi	x0,x0,0
    8000144c:	00000013          	addi	x0,x0,0
    80001450:	00100593          	addi	x11,x0,1
    80001454:	02859593          	slli	x11,x11,0x28
    80001458:	fff5c593          	xori	x11,x11,-1
    8000145c:	33008513          	addi	x10,x1,816
    80001460:	bff00113          	addi	x2,x0,-1025
    80001464:	40250533          	sub	x10,x10,x2
    80001468:	beb51fa3          	sh	x11,-1025(x10)
    8000146c:	00000013          	addi	x0,x0,0
    80001470:	00000013          	addi	x0,x0,0
    80001474:	00100593          	addi	x11,x0,1
    80001478:	02959593          	slli	x11,x11,0x29
    8000147c:	fff5c593          	xori	x11,x11,-1
    80001480:	33808513          	addi	x10,x1,824
    80001484:	00500113          	addi	x2,x0,5
    80001488:	40250533          	sub	x10,x10,x2
    8000148c:	00b512a3          	sh	x11,5(x10)
    80001490:	00000013          	addi	x0,x0,0
    80001494:	00000013          	addi	x0,x0,0
    80001498:	00100593          	addi	x11,x0,1
    8000149c:	02b59593          	slli	x11,x11,0x2b
    800014a0:	fff5c593          	xori	x11,x11,-1
    800014a4:	34008513          	addi	x10,x1,832
    800014a8:	00800113          	addi	x2,x0,8
    800014ac:	40250533          	sub	x10,x10,x2
    800014b0:	00b51423          	sh	x11,8(x10)
    800014b4:	00000013          	addi	x0,x0,0
    800014b8:	00000013          	addi	x0,x0,0
    800014bc:	00100593          	addi	x11,x0,1
    800014c0:	02c59593          	slli	x11,x11,0x2c
    800014c4:	fff5c593          	xori	x11,x11,-1
    800014c8:	34808513          	addi	x10,x1,840
    800014cc:	bff00113          	addi	x2,x0,-1025
    800014d0:	40250533          	sub	x10,x10,x2
    800014d4:	beb51fa3          	sh	x11,-1025(x10)
    800014d8:	00000013          	addi	x0,x0,0
    800014dc:	00000013          	addi	x0,x0,0
    800014e0:	00100593          	addi	x11,x0,1
    800014e4:	02d59593          	slli	x11,x11,0x2d
    800014e8:	fff5c593          	xori	x11,x11,-1
    800014ec:	35008513          	addi	x10,x1,848
    800014f0:	ff600113          	addi	x2,x0,-10
    800014f4:	40250533          	sub	x10,x10,x2
    800014f8:	feb51b23          	sh	x11,-10(x10)
    800014fc:	00000013          	addi	x0,x0,0
    80001500:	00000013          	addi	x0,x0,0
    80001504:	00100593          	addi	x11,x0,1
    80001508:	02e59593          	slli	x11,x11,0x2e
    8000150c:	fff5c593          	xori	x11,x11,-1
    80001510:	35808513          	addi	x10,x1,856
    80001514:	08000113          	addi	x2,x0,128
    80001518:	40250533          	sub	x10,x10,x2
    8000151c:	08b51023          	sh	x11,128(x10)
    80001520:	00000013          	addi	x0,x0,0
    80001524:	00000013          	addi	x0,x0,0
    80001528:	00100593          	addi	x11,x0,1
    8000152c:	02f59593          	slli	x11,x11,0x2f
    80001530:	fff5c593          	xori	x11,x11,-1
    80001534:	36008513          	addi	x10,x1,864
    80001538:	ff700113          	addi	x2,x0,-9
    8000153c:	40250533          	sub	x10,x10,x2
    80001540:	feb51ba3          	sh	x11,-9(x10)
    80001544:	00000013          	addi	x0,x0,0
    80001548:	00000013          	addi	x0,x0,0
    8000154c:	00100593          	addi	x11,x0,1
    80001550:	03059593          	slli	x11,x11,0x30
    80001554:	fff5c593          	xori	x11,x11,-1
    80001558:	36808513          	addi	x10,x1,872
    8000155c:	00600113          	addi	x2,x0,6
    80001560:	40250533          	sub	x10,x10,x2
    80001564:	00b51323          	sh	x11,6(x10)
    80001568:	00000013          	addi	x0,x0,0
    8000156c:	00000013          	addi	x0,x0,0
    80001570:	00100593          	addi	x11,x0,1
    80001574:	03159593          	slli	x11,x11,0x31
    80001578:	fff5c593          	xori	x11,x11,-1
    8000157c:	37008513          	addi	x10,x1,880
    80001580:	20000113          	addi	x2,x0,512
    80001584:	40250533          	sub	x10,x10,x2
    80001588:	20b51023          	sh	x11,512(x10)
    8000158c:	00000013          	addi	x0,x0,0
    80001590:	00000013          	addi	x0,x0,0
    80001594:	ffe00593          	addi	x11,x0,-2
    80001598:	37808513          	addi	x10,x1,888
    8000159c:	7ff00113          	addi	x2,x0,2047
    800015a0:	40250533          	sub	x10,x10,x2
    800015a4:	7eb51fa3          	sh	x11,2047(x10)
    800015a8:	00000013          	addi	x0,x0,0
    800015ac:	00000013          	addi	x0,x0,0
    800015b0:	0380006f          	jal	x0,0x800015e8
    800015b4:	1f813483          	ld	x9,504(x2)
    800015b8:	20013303          	ld	x6,512(x2)
    800015bc:	00930333          	add	x6,x6,x9
    800015c0:	00000337          	lui	x6,0x0
    800015c4:	00030313          	addi	x6,x6,0 # 0x0
    800015c8:	00b31313          	slli	x6,x6,0xb
    800015cc:	5d630313          	addi	x6,x6,1494
    800015d0:	00b31313          	slli	x6,x6,0xb
    800015d4:	43630313          	addi	x6,x6,1078
    800015d8:	00a31313          	slli	x6,x6,0xa
    800015dc:	2d030313          	addi	x6,x6,720
    800015e0:	fe64be23          	sd	x6,-4(x9)
    800015e4:	0040006f          	jal	x0,0x800015e8
    800015e8:	00000513          	addi	x10,x0,0
    800015ec:	0240006f          	jal	x0,0x80001610
	...
    80001610:	00050513          	addi	x10,x10,0
    80001614:	00100073          	ebreak
    80001618:	0000006f          	jal	x0,0x80001618
    8000161c:	ff010113          	addi	x2,x2,-16
    80001620:	00000517          	auipc	x10,0x0
    80001624:	02050513          	addi	x10,x10,32 # 0x80001640
    80001628:	00113423          	sd	x1,8(x2)
    8000162c:	9e5fe0ef          	jal	x1,0x80000010
    80001630:	00050513          	addi	x10,x10,0
    80001634:	00100073          	ebreak
    80001638:	0000006f          	jal	x0,0x80001638
	...
    80002000:	cafe                	c.swsp	x31,84(x2)
    80002002:	babe                	c.fsdsp	f15,368(x2)
    80002004:	cafe                	c.swsp	x31,84(x2)
    80002006:	babe                	c.fsdsp	f15,368(x2)
    80002008:	cafe                	c.swsp	x31,84(x2)
    8000200a:	babe                	c.fsdsp	f15,368(x2)
    8000200c:	cafe                	c.swsp	x31,84(x2)
    8000200e:	babe                	c.fsdsp	f15,368(x2)
    80002010:	deadbeef          	jal	x29,0x7ffdd5fa
    80002014:	deadbeef          	jal	x29,0x7ffdd5fe
	...
    80003000:	b281                	c.j	0x80002940
    80003002:	e7d4                	c.sd	x13,136(x15)
    80003004:	a309                	c.j	0x80003506
    80003006:	6f5c                	c.ld	x15,152(x14)
    80003008:	deadbeef          	jal	x29,0x7ffde5f2
    8000300c:	deadbeef          	jal	x29,0x7ffde5f6
    80003010:	deadbeef          	jal	x29,0x7ffde5fa
    80003014:	deadbeef          	jal	x29,0x7ffde5fe
    80003018:	deadbeef          	jal	x29,0x7ffde602
    8000301c:	deadbeef          	jal	x29,0x7ffde606
    80003020:	deadbeef          	jal	x29,0x7ffde60a
    80003024:	deadbeef          	jal	x29,0x7ffde60e
    80003028:	deadbeef          	jal	x29,0x7ffde612
    8000302c:	deadbeef          	jal	x29,0x7ffde616
    80003030:	deadbeef          	jal	x29,0x7ffde61a
    80003034:	deadbeef          	jal	x29,0x7ffde61e
    80003038:	deadbeef          	jal	x29,0x7ffde622
    8000303c:	deadbeef          	jal	x29,0x7ffde626
    80003040:	deadbeef          	jal	x29,0x7ffde62a
    80003044:	deadbeef          	jal	x29,0x7ffde62e
    80003048:	deadbeef          	jal	x29,0x7ffde632
    8000304c:	deadbeef          	jal	x29,0x7ffde636
    80003050:	deadbeef          	jal	x29,0x7ffde63a
    80003054:	deadbeef          	jal	x29,0x7ffde63e
    80003058:	deadbeef          	jal	x29,0x7ffde642
    8000305c:	deadbeef          	jal	x29,0x7ffde646
    80003060:	deadbeef          	jal	x29,0x7ffde64a
    80003064:	deadbeef          	jal	x29,0x7ffde64e
    80003068:	deadbeef          	jal	x29,0x7ffde652
    8000306c:	deadbeef          	jal	x29,0x7ffde656
    80003070:	deadbeef          	jal	x29,0x7ffde65a
    80003074:	deadbeef          	jal	x29,0x7ffde65e
    80003078:	deadbeef          	jal	x29,0x7ffde662
    8000307c:	deadbeef          	jal	x29,0x7ffde666
    80003080:	deadbeef          	jal	x29,0x7ffde66a
    80003084:	deadbeef          	jal	x29,0x7ffde66e
    80003088:	deadbeef          	jal	x29,0x7ffde672
    8000308c:	deadbeef          	jal	x29,0x7ffde676
    80003090:	deadbeef          	jal	x29,0x7ffde67a
    80003094:	deadbeef          	jal	x29,0x7ffde67e
    80003098:	deadbeef          	jal	x29,0x7ffde682
    8000309c:	deadbeef          	jal	x29,0x7ffde686
    800030a0:	deadbeef          	jal	x29,0x7ffde68a
    800030a4:	deadbeef          	jal	x29,0x7ffde68e
    800030a8:	deadbeef          	jal	x29,0x7ffde692
    800030ac:	deadbeef          	jal	x29,0x7ffde696
    800030b0:	deadbeef          	jal	x29,0x7ffde69a
    800030b4:	deadbeef          	jal	x29,0x7ffde69e
    800030b8:	deadbeef          	jal	x29,0x7ffde6a2
    800030bc:	deadbeef          	jal	x29,0x7ffde6a6
    800030c0:	deadbeef          	jal	x29,0x7ffde6aa
    800030c4:	deadbeef          	jal	x29,0x7ffde6ae
    800030c8:	deadbeef          	jal	x29,0x7ffde6b2
    800030cc:	deadbeef          	jal	x29,0x7ffde6b6
    800030d0:	deadbeef          	jal	x29,0x7ffde6ba
    800030d4:	deadbeef          	jal	x29,0x7ffde6be
    800030d8:	deadbeef          	jal	x29,0x7ffde6c2
    800030dc:	deadbeef          	jal	x29,0x7ffde6c6
    800030e0:	deadbeef          	jal	x29,0x7ffde6ca
    800030e4:	deadbeef          	jal	x29,0x7ffde6ce
    800030e8:	deadbeef          	jal	x29,0x7ffde6d2
    800030ec:	deadbeef          	jal	x29,0x7ffde6d6
    800030f0:	deadbeef          	jal	x29,0x7ffde6da
    800030f4:	deadbeef          	jal	x29,0x7ffde6de
    800030f8:	deadbeef          	jal	x29,0x7ffde6e2
    800030fc:	deadbeef          	jal	x29,0x7ffde6e6
    80003100:	deadbeef          	jal	x29,0x7ffde6ea
    80003104:	deadbeef          	jal	x29,0x7ffde6ee
    80003108:	deadbeef          	jal	x29,0x7ffde6f2
    8000310c:	deadbeef          	jal	x29,0x7ffde6f6
    80003110:	deadbeef          	jal	x29,0x7ffde6fa
    80003114:	deadbeef          	jal	x29,0x7ffde6fe
    80003118:	deadbeef          	jal	x29,0x7ffde702
    8000311c:	deadbeef          	jal	x29,0x7ffde706
    80003120:	deadbeef          	jal	x29,0x7ffde70a
    80003124:	deadbeef          	jal	x29,0x7ffde70e
    80003128:	deadbeef          	jal	x29,0x7ffde712
    8000312c:	deadbeef          	jal	x29,0x7ffde716
    80003130:	deadbeef          	jal	x29,0x7ffde71a
    80003134:	deadbeef          	jal	x29,0x7ffde71e
    80003138:	deadbeef          	jal	x29,0x7ffde722
    8000313c:	deadbeef          	jal	x29,0x7ffde726
    80003140:	deadbeef          	jal	x29,0x7ffde72a
    80003144:	deadbeef          	jal	x29,0x7ffde72e
    80003148:	deadbeef          	jal	x29,0x7ffde732
    8000314c:	deadbeef          	jal	x29,0x7ffde736
    80003150:	deadbeef          	jal	x29,0x7ffde73a
    80003154:	deadbeef          	jal	x29,0x7ffde73e
    80003158:	deadbeef          	jal	x29,0x7ffde742
    8000315c:	deadbeef          	jal	x29,0x7ffde746
    80003160:	deadbeef          	jal	x29,0x7ffde74a
    80003164:	deadbeef          	jal	x29,0x7ffde74e
    80003168:	deadbeef          	jal	x29,0x7ffde752
    8000316c:	deadbeef          	jal	x29,0x7ffde756
    80003170:	deadbeef          	jal	x29,0x7ffde75a
    80003174:	deadbeef          	jal	x29,0x7ffde75e
    80003178:	deadbeef          	jal	x29,0x7ffde762
    8000317c:	deadbeef          	jal	x29,0x7ffde766
    80003180:	deadbeef          	jal	x29,0x7ffde76a
    80003184:	deadbeef          	jal	x29,0x7ffde76e
    80003188:	deadbeef          	jal	x29,0x7ffde772
    8000318c:	deadbeef          	jal	x29,0x7ffde776
    80003190:	deadbeef          	jal	x29,0x7ffde77a
    80003194:	deadbeef          	jal	x29,0x7ffde77e
    80003198:	deadbeef          	jal	x29,0x7ffde782
    8000319c:	deadbeef          	jal	x29,0x7ffde786
    800031a0:	deadbeef          	jal	x29,0x7ffde78a
    800031a4:	deadbeef          	jal	x29,0x7ffde78e
    800031a8:	deadbeef          	jal	x29,0x7ffde792
    800031ac:	deadbeef          	jal	x29,0x7ffde796
    800031b0:	deadbeef          	jal	x29,0x7ffde79a
    800031b4:	deadbeef          	jal	x29,0x7ffde79e
    800031b8:	deadbeef          	jal	x29,0x7ffde7a2
    800031bc:	deadbeef          	jal	x29,0x7ffde7a6
    800031c0:	deadbeef          	jal	x29,0x7ffde7aa
    800031c4:	deadbeef          	jal	x29,0x7ffde7ae
    800031c8:	deadbeef          	jal	x29,0x7ffde7b2
    800031cc:	deadbeef          	jal	x29,0x7ffde7b6
    800031d0:	deadbeef          	jal	x29,0x7ffde7ba
    800031d4:	deadbeef          	jal	x29,0x7ffde7be
    800031d8:	deadbeef          	jal	x29,0x7ffde7c2
    800031dc:	deadbeef          	jal	x29,0x7ffde7c6
    800031e0:	deadbeef          	jal	x29,0x7ffde7ca
    800031e4:	deadbeef          	jal	x29,0x7ffde7ce
    800031e8:	deadbeef          	jal	x29,0x7ffde7d2
    800031ec:	deadbeef          	jal	x29,0x7ffde7d6
    800031f0:	deadbeef          	jal	x29,0x7ffde7da
    800031f4:	deadbeef          	jal	x29,0x7ffde7de
    800031f8:	deadbeef          	jal	x29,0x7ffde7e2
    800031fc:	deadbeef          	jal	x29,0x7ffde7e6
    80003200:	deadbeef          	jal	x29,0x7ffde7ea
    80003204:	deadbeef          	jal	x29,0x7ffde7ee
    80003208:	deadbeef          	jal	x29,0x7ffde7f2
    8000320c:	deadbeef          	jal	x29,0x7ffde7f6
    80003210:	deadbeef          	jal	x29,0x7ffde7fa
    80003214:	deadbeef          	jal	x29,0x7ffde7fe
    80003218:	deadbeef          	jal	x29,0x7ffde802
    8000321c:	deadbeef          	jal	x29,0x7ffde806
    80003220:	deadbeef          	jal	x29,0x7ffde80a
    80003224:	deadbeef          	jal	x29,0x7ffde80e
    80003228:	deadbeef          	jal	x29,0x7ffde812
    8000322c:	deadbeef          	jal	x29,0x7ffde816
    80003230:	deadbeef          	jal	x29,0x7ffde81a
    80003234:	deadbeef          	jal	x29,0x7ffde81e
    80003238:	deadbeef          	jal	x29,0x7ffde822
    8000323c:	deadbeef          	jal	x29,0x7ffde826
    80003240:	deadbeef          	jal	x29,0x7ffde82a
    80003244:	deadbeef          	jal	x29,0x7ffde82e
    80003248:	deadbeef          	jal	x29,0x7ffde832
    8000324c:	deadbeef          	jal	x29,0x7ffde836
    80003250:	deadbeef          	jal	x29,0x7ffde83a
    80003254:	deadbeef          	jal	x29,0x7ffde83e
    80003258:	deadbeef          	jal	x29,0x7ffde842
    8000325c:	deadbeef          	jal	x29,0x7ffde846
    80003260:	deadbeef          	jal	x29,0x7ffde84a
    80003264:	deadbeef          	jal	x29,0x7ffde84e
    80003268:	deadbeef          	jal	x29,0x7ffde852
    8000326c:	deadbeef          	jal	x29,0x7ffde856
    80003270:	deadbeef          	jal	x29,0x7ffde85a
    80003274:	deadbeef          	jal	x29,0x7ffde85e
    80003278:	deadbeef          	jal	x29,0x7ffde862
    8000327c:	deadbeef          	jal	x29,0x7ffde866
    80003280:	deadbeef          	jal	x29,0x7ffde86a
    80003284:	deadbeef          	jal	x29,0x7ffde86e
    80003288:	deadbeef          	jal	x29,0x7ffde872
    8000328c:	deadbeef          	jal	x29,0x7ffde876
    80003290:	deadbeef          	jal	x29,0x7ffde87a
    80003294:	deadbeef          	jal	x29,0x7ffde87e
    80003298:	deadbeef          	jal	x29,0x7ffde882
    8000329c:	deadbeef          	jal	x29,0x7ffde886
    800032a0:	deadbeef          	jal	x29,0x7ffde88a
    800032a4:	deadbeef          	jal	x29,0x7ffde88e
    800032a8:	deadbeef          	jal	x29,0x7ffde892
    800032ac:	deadbeef          	jal	x29,0x7ffde896
    800032b0:	deadbeef          	jal	x29,0x7ffde89a
    800032b4:	deadbeef          	jal	x29,0x7ffde89e
    800032b8:	deadbeef          	jal	x29,0x7ffde8a2
    800032bc:	deadbeef          	jal	x29,0x7ffde8a6
    800032c0:	deadbeef          	jal	x29,0x7ffde8aa
    800032c4:	deadbeef          	jal	x29,0x7ffde8ae
    800032c8:	deadbeef          	jal	x29,0x7ffde8b2
    800032cc:	deadbeef          	jal	x29,0x7ffde8b6
    800032d0:	deadbeef          	jal	x29,0x7ffde8ba
    800032d4:	deadbeef          	jal	x29,0x7ffde8be
    800032d8:	deadbeef          	jal	x29,0x7ffde8c2
    800032dc:	deadbeef          	jal	x29,0x7ffde8c6
    800032e0:	deadbeef          	jal	x29,0x7ffde8ca
    800032e4:	deadbeef          	jal	x29,0x7ffde8ce
    800032e8:	deadbeef          	jal	x29,0x7ffde8d2
    800032ec:	deadbeef          	jal	x29,0x7ffde8d6
    800032f0:	deadbeef          	jal	x29,0x7ffde8da
    800032f4:	deadbeef          	jal	x29,0x7ffde8de
    800032f8:	deadbeef          	jal	x29,0x7ffde8e2
    800032fc:	deadbeef          	jal	x29,0x7ffde8e6
    80003300:	deadbeef          	jal	x29,0x7ffde8ea
    80003304:	deadbeef          	jal	x29,0x7ffde8ee
    80003308:	deadbeef          	jal	x29,0x7ffde8f2
    8000330c:	deadbeef          	jal	x29,0x7ffde8f6
    80003310:	deadbeef          	jal	x29,0x7ffde8fa
    80003314:	deadbeef          	jal	x29,0x7ffde8fe
    80003318:	deadbeef          	jal	x29,0x7ffde902
    8000331c:	deadbeef          	jal	x29,0x7ffde906
    80003320:	deadbeef          	jal	x29,0x7ffde90a
    80003324:	deadbeef          	jal	x29,0x7ffde90e
    80003328:	deadbeef          	jal	x29,0x7ffde912
    8000332c:	deadbeef          	jal	x29,0x7ffde916
    80003330:	deadbeef          	jal	x29,0x7ffde91a
    80003334:	deadbeef          	jal	x29,0x7ffde91e
    80003338:	deadbeef          	jal	x29,0x7ffde922
    8000333c:	deadbeef          	jal	x29,0x7ffde926
    80003340:	deadbeef          	jal	x29,0x7ffde92a
    80003344:	deadbeef          	jal	x29,0x7ffde92e
    80003348:	deadbeef          	jal	x29,0x7ffde932
    8000334c:	deadbeef          	jal	x29,0x7ffde936
    80003350:	deadbeef          	jal	x29,0x7ffde93a
    80003354:	deadbeef          	jal	x29,0x7ffde93e
    80003358:	deadbeef          	jal	x29,0x7ffde942
    8000335c:	deadbeef          	jal	x29,0x7ffde946
    80003360:	deadbeef          	jal	x29,0x7ffde94a
    80003364:	deadbeef          	jal	x29,0x7ffde94e
    80003368:	deadbeef          	jal	x29,0x7ffde952
    8000336c:	deadbeef          	jal	x29,0x7ffde956
    80003370:	deadbeef          	jal	x29,0x7ffde95a
    80003374:	deadbeef          	jal	x29,0x7ffde95e
    80003378:	deadbeef          	jal	x29,0x7ffde962
    8000337c:	deadbeef          	jal	x29,0x7ffde966
    80003380:	deadbeef          	jal	x29,0x7ffde96a
    80003384:	deadbeef          	jal	x29,0x7ffde96e
    80003388:	deadbeef          	jal	x29,0x7ffde972
    8000338c:	deadbeef          	jal	x29,0x7ffde976
    80003390:	deadbeef          	jal	x29,0x7ffde97a
    80003394:	deadbeef          	jal	x29,0x7ffde97e
    80003398:	deadbeef          	jal	x29,0x7ffde982
    8000339c:	deadbeef          	jal	x29,0x7ffde986
    800033a0:	deadbeef          	jal	x29,0x7ffde98a
    800033a4:	deadbeef          	jal	x29,0x7ffde98e
    800033a8:	deadbeef          	jal	x29,0x7ffde992
    800033ac:	deadbeef          	jal	x29,0x7ffde996
    800033b0:	deadbeef          	jal	x29,0x7ffde99a
    800033b4:	deadbeef          	jal	x29,0x7ffde99e
    800033b8:	deadbeef          	jal	x29,0x7ffde9a2
    800033bc:	deadbeef          	jal	x29,0x7ffde9a6
    800033c0:	deadbeef          	jal	x29,0x7ffde9aa
    800033c4:	deadbeef          	jal	x29,0x7ffde9ae
    800033c8:	deadbeef          	jal	x29,0x7ffde9b2
    800033cc:	deadbeef          	jal	x29,0x7ffde9b6
    800033d0:	deadbeef          	jal	x29,0x7ffde9ba
    800033d4:	deadbeef          	jal	x29,0x7ffde9be
    800033d8:	deadbeef          	jal	x29,0x7ffde9c2
    800033dc:	deadbeef          	jal	x29,0x7ffde9c6
    800033e0:	deadbeef          	jal	x29,0x7ffde9ca
    800033e4:	deadbeef          	jal	x29,0x7ffde9ce
    800033e8:	deadbeef          	jal	x29,0x7ffde9d2
    800033ec:	deadbeef          	jal	x29,0x7ffde9d6
    800033f0:	deadbeef          	jal	x29,0x7ffde9da
    800033f4:	deadbeef          	jal	x29,0x7ffde9de
    800033f8:	deadbeef          	jal	x29,0x7ffde9e2
    800033fc:	deadbeef          	jal	x29,0x7ffde9e6
    80003400:	deadbeef          	jal	x29,0x7ffde9ea
    80003404:	deadbeef          	jal	x29,0x7ffde9ee
    80003408:	deadbeef          	jal	x29,0x7ffde9f2
    8000340c:	deadbeef          	jal	x29,0x7ffde9f6
    80003410:	deadbeef          	jal	x29,0x7ffde9fa
    80003414:	deadbeef          	jal	x29,0x7ffde9fe
    80003418:	deadbeef          	jal	x29,0x7ffdea02
    8000341c:	deadbeef          	jal	x29,0x7ffdea06
    80003420:	deadbeef          	jal	x29,0x7ffdea0a
    80003424:	deadbeef          	jal	x29,0x7ffdea0e
    80003428:	deadbeef          	jal	x29,0x7ffdea12
    8000342c:	deadbeef          	jal	x29,0x7ffdea16
    80003430:	b281                	c.j	0x80002d70
    80003432:	e7d4                	c.sd	x13,136(x15)
    80003434:	a309                	c.j	0x80003936
    80003436:	6f5c                	c.ld	x15,152(x14)
	...
