
elf/riscv-arch-test/sh-align-riscv64-nemu.elf:     file format binary

Contents of section .data:
 1000 13040000 17c10000 1301c1ff ef100061  ...............a
 1010 ef000003 13051000 ef10805f 13050000  ..........._....
 1020 67800000 00000000 00000000 00000000  g...............
 1030 00000000 00000000 00000000 00000000  ................
 1040 b7c0edfe 9380d0ea 9390b000 9380707f  ..............p.
 1050 9390b000 9380f036 9390a000 9380d02a  .......6.......*
 1060 37e176ff 130161f5 1311b100 1301b17f  7.v...a.........
 1070 1311b100 1301715b 1311a100 13016135  ......q[......a5
 1080 b771bb7f 9381b1fa 9391b100 9381d13f  .q.............?
 1090 9391b100 9381b16d 9391a100 9381b13a  .......m.......:
 10a0 37b2ddbf 1302527d 1312b200 1302e25f  7.....R}......._
 10b0 1312b200 1302d276 1312a200 1302523d  .......v......R=
 10c0 b7e2eedf 9382a2be 9392b200 9382f26f  ...............o
 10d0 9392b200 9382623b 9392a200 9382a23e  ......b;.......>
 10e0 3773f76f 130353df 1313b300 1303f337  7s.o..S........7
 10f0 1313b300 1303b35d 1313a300 1303531f  .......]......S.
 1100 b7b3fbb7 9383a36f 9393b300 9383f35b  .......o.......[
 1110 9393b300 9383d36e 9393a300 9383a32f  .......n......./
 1120 37e4fd5b 1304d4b7 1314b400 1304f42d  7..[...........-
 1130 1314b400 13046477 1314a400 1304d437  ......dw.......7
 1140 b7f4fead 9384e4db 9394b400 9384f456  ...............V
 1150 9394b400 9384b47b 9394a400 9384e41b  .......{........
 1160 3775ff56 1305f56d 1315b500 1305752b  7u.V...m......u+
 1170 1315b500 1305d57d 1315a500 1305f52d  .......}.......-
 1180 b7c57fab 9385f5b6 9395b500 9385b555  ...............U
 1190 9395b500 9385e57e 9395a500 9385f536  .......~.......6
 11a0 37e6bfd5 130676db 1316b600 1306d66a  7.....v........j
 11b0 1316b600 1306767f 1316a600 1306761b  ......v.......v.
 11c0 b7f6dfea 9386b6ed 9396b600 93866675  ..............fu
 11d0 9396b600 9386b67f 9396a600 9386b62d  ...............-
 11e0 37f76ff5 1307d776 1317b700 1307b77a  7.o....v.......z
 11f0 1317b700 1307d73f 1317a700 1307d736  .......?.......6
 1200 b707b8fa 938767bb 9397b700 9387577d  ......g.......W}
 1210 9397b700 9387e75f 9397a700 9387673b  ......._......g;
 1220 37085c7d 1308b8dd 1318b800 1308a83e  7.\}...........>
 1230 1318b800 1308f86f 1318a800 1308b81d  .......o........
 1240 b708aebe 9388d8ee 9398b800 9388585f  ..............X_
 1250 9398b800 9388f837 9398a800 9388d82e  .......7........
 1260 370957df 130969f7 1319b900 1309a96f  7.W...i........o
 1270 1319b900 1309f95b 1319a900 13096937  .......[......i7
 1280 b789ab6f 9389b9fb 9399b900 9389d937  ...o...........7
 1290 9399b900 9389f92d 9399a900 9389b93b  .......-.......;
 12a0 37cad5b7 130adafd 131aba00 130aea5b  7..............[
 12b0 131aba00 130afa56 131aaa00 130ada3d  .......V.......=
 12c0 b7eaeadb 938aeafe 939aba00 938afa6d  ...............m
 12d0 939aba00 938a7a2b 939aaa00 938aea3e  ......z+.......>
 12e0 377bf56d 130b7bff 131bbb00 130bfb36  7{.m..{........6
 12f0 131bbb00 130bbb55 131bab00 130b7b3f  .......U......{?
 1300 b7bbfab6 938bbb7f 939bbb00 938b7b5b  ..............{[
 1310 939bbb00 938bdb6a 939bab00 938bbb3f  .......j.......?
 1320 376c7ddb 130cdcbf 131cbc00 130cbc6d  7l}............m
 1330 131cbc00 130c6c75 131cac00 130cdc3f  ......lu.......?
 1340 b7bcbeed 938cecdf 939cbc00 938cdc76  ...............v
 1350 939cbc00 938cbc7a 939cac00 938cec1f  .......z........
 1360 375ddf76 130dfd6f 131dbd00 130d6d3b  7].v...o......m;
 1370 131dbd00 130d5d7d 131dad00 130dfd2f  ......]}......./
 1380 b7bd6fbb 938dfdb7 939dbd00 938dbd5d  ..o............]
 1390 939dbd00 938dad3e 939dad00 938dfd37  .......>.......7
 13a0 37deb7dd 130efe5b 131ebe00 130ede6e  7......[.......n
 13b0 131ebe00 130e5e5f 131eae00 130efe1b  ......^_........
 13c0 b7fedbee 938efead 939ebe00 938e6e77  ..............nw
 13d0 939ebe00 938eae6f 939eae00 938efe2d  .......o.......-
 13e0 37ff6df7 130fff56 131fbf00 130fbf7b  7.m....V.......{
 13f0 131fbf00 130fdf37 131faf00 130fff16  .......7........
 1400 b70fb7fb 938f7fab 939fbf00 938fdf7d  ...............}
 1410 939fbf00 938fef5b 939faf00 938f7f2b  .......[.......+
 1420 97330000 938383be 13000000 13000000  .3..............
 1430 13000000 13000000 13000000 13000000  ................
 1440 1305f0ff 1315f503 938e0300 93042000  .............. .
 1450 b38e9e40 2391ae00 13000000 13000000  ...@#...........
 1460 13070000 138e8300 93049000 330e9e40  ............3..@
 1470 a314ee00 13000000 13000000 1304f0ff  ................
 1480 13541400 13880301 93040008 33089840  .T..........3..@
 1490 23108808 13000000 13000000 13081000  #...............
 14a0 938f8301 93045000 b38f9f40 a3920f01  ......P....@....
 14b0 13000000 13000000 13000000 93800302  ................
 14c0 9304f07f b3809040 a39f007e 13000000  .......@...~....
 14d0 13000000 93071000 9397a702 93c7f7ff  ................
 14e0 1381a302 93040010 33019140 2310f110  ........3..@#...
 14f0 13000000 13000000 9302f0ff 9392f203  ................
 1500 13832303 9304d0ff 33039340 a31e53fe  ..#.....3..@..S.
 1510 13000000 13000000 13011000 13119102  ................
 1520 1385a303 93046000 33059540 23132500  ......`.3..@#.%.
 1530 13000000 13000000 930c1000 939c5c03  ..............\.
 1540 93812304 9304f07f b3819140 a39f917f  ..#........@....
 1550 13000000 13000000 130d1000 131d1d02  ................
 1560 138c8304 93040000 330c9c40 2310ac01  ........3..@#...
 1570 13000000 13000000 930b2000 93870305  .......... .....
 1580 93040020 b3879740 23907721 13000000  ... ...@#.w!....
 1590 13000000 93014000 938d8305 930460ff  ......@.......`.
 15a0 b38d9d40 239b3dfe 13000000 13000000  ...@#.=.........
 15b0 130f8000 93860306 930470ff b3869640  ..........p....@
 15c0 a39be6ff 13000000 13000000 13030001  ................
 15d0 13878306 93040001 33079740 23186700  ........3..@#.g.
 15e0 13000000 13000000 93080002 138f0307  ................
 15f0 9304f0f7 330f9f40 a31f1ff7 13000000  ....3..@........
 1600 13000000 130b0004 93898307 9304f0bf  ................
 1610 b3899940 a39f69bf 13000000 13000000  ...@..i.........
 1620 93050008 13860308 93045000 33069640  ..........P.3..@
 1630 a312b600 13000000 13000000 93000010  ................
 1640 138d8308 9304f0fe 330d9d40 a3171dfe  ........3..@....
 1650 13000000 13000000 130a0020 13840309  ........... ....
 1660 93040080 33049440 23104481 13000000  ....3..@#.D.....
 1670 13000000 930f0040 13828309 93040002  .......@........
 1680 33029240 2310f203 13000000 13000000  3..@#...........
 1690 13091000 1319b900 938b030a 13010000  ................
 16a0 b38b2b40 23902b01 13000000 13000000  ..+@#.+.........
 16b0 13000000 13000000 13000000 13000000  ................
 16c0 97300000 9380009f 13000000 13000000  .0..............
 16d0 13000000 13000000 13000000 13000000  ................
 16e0 13061000 1316c600 93840000 13019000  ................
 16f0 b3842440 a394c400 13000000 13000000  ..$@............
 1700 13021000 1312d200 13898000 13010020  ............... 
 1710 33092940 23104920 13000000 13000000  3.)@#.I ........
 1720 930d1000 939ded00 138a0001 13010004  ................
 1730 330a2a40 2310ba05 13000000 13000000  3.*@#...........
 1740 930a1000 939afa00 93838001 13010000  ................
 1750 b3832340 23905301 13000000 13000000  ..#@#.S.........
 1760 93041000 93940401 938c0002 130160ff  ..............`.
 1770 b38c2c40 239b9cfe 13000000 13000000  ..,@#...........
 1780 93091000 93991901 938a8002 1301d0ff  ................
 1790 b38a2a40 a39e3aff 13000000 13000000  ..*@..:.........
 17a0 930e1000 939e2e01 138b0003 1301f0df  ................
 17b0 330b2b40 a31fdbdf 13000000 13000000  3.+@............
 17c0 93031000 93933301 93888003 130180ff  ......3.........
 17d0 b3882840 239c78fe 13000000 13000000  ..(@#.x.........
 17e0 93061000 93964601 93820004 1301d0ff  ......F.........
 17f0 b3822240 a39ed2fe 13000000 13000000  .."@............
 1800 130c1000 131c5c01 93858004 1301f0fd  ......\.........
 1810 b3852540 a39f85fd 13000000 13000000  ..%@............
 1820 130e1000 131e6e01 13860005 130180ff  ......n.........
 1830 33062640 231cc6ff 13000000 13000000  3.&@#...........
 1840 93051000 93957501 13858005 13010002  ......u.........
 1850 33052540 2310b502 13000000 13000000  3.%@#...........
 1860 93051000 93958501 13850006 13016000  ..............`.
 1870 33052540 2313b500 13000000 13000000  3.%@#...........
 1880 93051000 93959501 13858006 13010040  ...............@
 1890 33052540 2310b540 13000000 13000000  3.%@#..@........
 18a0 93051000 9395a501 13850007 13017000  ..............p.
 18b0 33052540 a313b500 13000000 13000000  3.%@............
 18c0 93051000 9395b501 13858007 13010020  ............... 
 18d0 33052540 2310b520 13000000 13000000  3.%@#.. ........
 18e0 93051000 9395c501 13850008 13011000  ................
 18f0 33052540 a310b500 13000000 13000000  3.%@............
 1900 93051000 9395d501 13858008 13010080  ................
 1910 33052540 2310b580 13000000 13000000  3.%@#...........
 1920 93051000 9395e501 13850009 1301f0fb  ................
 1930 33052540 a31fb5fa 13000000 13000000  3.%@............
 1940 93051000 9395f501 13858009 13015000  ..............P.
 1950 33052540 a312b500 13000000 13000000  3.%@............
 1960 93051000 93950502 1385000a 13017000  ..............p.
 1970 33052540 a313b500 13000000 13000000  3.%@............
 1980 93051000 93952502 1385800a 1301f07f  ......%.........
 1990 33052540 a31fb57e 13000000 13000000  3.%@...~........
 19a0 93051000 93953502 1385000b 130100c0  ......5.........
 19b0 33052540 2310b5c0 13000000 13000000  3.%@#...........
 19c0 93051000 93954502 1385800b 13010010  ......E.........
 19d0 33052540 2310b510 13000000 13000000  3.%@#...........
 19e0 93051000 93955502 1385000c 1301f0bf  ......U.........
 19f0 33052540 a31fb5be 13000000 13000000  3.%@............
 1a00 93051000 93956502 1385800c 13010000  ......e.........
 1a10 33052540 2310b500 13000000 13000000  3.%@#...........
 1a20 93051000 93957502 1385000d 13014000  ......u.......@.
 1a30 33052540 2312b500 13000000 13000000  3.%@#...........
 1a40 93051000 93958502 1385800d 1301c0ff  ................
 1a50 33052540 231eb5fe 13000000 13000000  3.%@#...........
 1a60 93051000 9395a502 1385000e 1301f0ff  ................
 1a70 33052540 a31fb5fe 13000000 13000000  3.%@............
 1a80 93051000 9395b502 1385800e 1301f0df  ................
 1a90 33052540 a31fb5de 13000000 13000000  3.%@............
 1aa0 93051000 9395c502 1385000f 1301f0df  ................
 1ab0 33052540 a31fb5de 13000000 13000000  3.%@............
 1ac0 93051000 9395d502 1385800f 13010002  ................
 1ad0 33052540 2310b502 13000000 13000000  3.%@#...........
 1ae0 93051000 9395e502 13850010 13011000  ................
 1af0 33052540 a310b500 13000000 13000000  3.%@............
 1b00 93051000 9395f502 13858010 1301b0ff  ................
 1b10 33052540 a31db5fe 13000000 13000000  3.%@............
 1b20 93051000 93950503 13850011 13010002  ................
 1b30 33052540 2310b502 13000000 13000000  3.%@#...........
 1b40 93051000 93951503 13858011 1301f0f7  ................
 1b50 33052540 a31fb5f6 13000000 13000000  3.%@............
 1b60 93051000 93952503 13850012 1301f0ef  ......%.........
 1b70 33052540 a31fb5ee 13000000 13000000  3.%@............
 1b80 93051000 93953503 13858012 13010004  ......5.........
 1b90 33052540 2310b504 13000000 13000000  3.%@#...........
 1ba0 93051000 93954503 13850013 13013000  ......E.......0.
 1bb0 33052540 a311b500 13000000 13000000  3.%@............
 1bc0 93051000 93956503 13858013 13017000  ......e.......p.
 1bd0 33052540 a313b500 13000000 13000000  3.%@............
 1be0 93051000 93957503 13850014 13019000  ......u.........
 1bf0 33052540 a314b500 13000000 13000000  3.%@............
 1c00 93051000 93958503 13858014 13010002  ................
 1c10 33052540 2310b502 13000000 13000000  3.%@#...........
 1c20 93051000 93959503 13850015 13010000  ................
 1c30 33052540 2310b500 13000000 13000000  3.%@#...........
 1c40 93051000 9395a503 13858015 13010040  ...............@
 1c50 33052540 2310b540 13000000 13000000  3.%@#..@........
 1c60 93051000 9395b503 13850016 130160ff  ..............`.
 1c70 33052540 231bb5fe 13000000 13000000  3.%@#...........
 1c80 93051000 9395c503 13858016 1301a0aa  ................
 1c90 33052540 2315b5aa 13000000 13000000  3.%@#...........
 1ca0 93051000 9395d503 13850017 13010001  ................
 1cb0 33052540 2318b500 13000000 13000000  3.%@#...........
 1cc0 93051000 9395e503 13858017 13012000  .............. .
 1cd0 33052540 2311b500 13000000 13000000  3.%@#...........
 1ce0 93051000 93952503 93c5f5ff 13850018  ......%.........
 1cf0 13010004 33052540 2310b504 13000000  ....3.%@#.......
 1d00 13000000 93051000 93953503 93c5f5ff  ..........5.....
 1d10 13858018 13012000 33052540 2311b500  ...... .3.%@#...
 1d20 13000000 13000000 93051000 93954503  ..............E.
 1d30 93c5f5ff 13850019 130100c0 33052540  ............3.%@
 1d40 2310b5c0 13000000 13000000 93051000  #...............
 1d50 93955503 93c5f5ff 13858019 1301f0bf  ..U.............
 1d60 33052540 a31fb5be 13000000 13000000  3.%@............
 1d70 93051000 93956503 93c5f5ff 1385001a  ......e.........
 1d80 1301f03f 33052540 a31fb53e 13000000  ...?3.%@...>....
 1d90 13000000 93051000 93957503 93c5f5ff  ..........u.....
 1da0 1385801a 1301f0ff 33052540 a31fb5fe  ........3.%@....
 1db0 13000000 13000000 93051000 93958503  ................
 1dc0 93c5f5ff 1385001b 1301f0ef 33052540  ............3.%@
 1dd0 a31fb5ee 13000000 13000000 93051000  ................
 1de0 93959503 93c5f5ff 1385801b 130170ff  ..............p.
 1df0 33052540 a31bb5fe 13000000 13000000  3.%@............
 1e00 93051000 9395a503 93c5f5ff 1385001c  ................
 1e10 1301d0ff 33052540 a31eb5fe 13000000  ....3.%@........
 1e20 13000000 93051000 9395b503 93c5f5ff  ................
 1e30 1385801c 1301a0aa 33052540 2315b5aa  ........3.%@#...
 1e40 13000000 13000000 93051000 9395c503  ................
 1e50 93c5f5ff 1385001d 130190ff 33052540  ............3.%@
 1e60 a31cb5fe 13000000 13000000 93051000  ................
 1e70 9395d503 93c5f5ff 1385801d 13013000  ..............0.
 1e80 33052540 a311b500 13000000 13000000  3.%@............
 1e90 93051000 9395e503 93c5f5ff 1385001e  ................
 1ea0 1301d0ff 33052540 a31eb5fe 13000000  ....3.%@........
 1eb0 13000000 b7555555 93855555 9395b500  .....UUU..UU....
 1ec0 9385a52a 9395b500 93855555 9395a500  ...*......UU....
 1ed0 93855515 1385801e 13010010 33052540  ..U.........3.%@
 1ee0 2310b510 13000000 13000000 b7b5aaaa  #...............
 1ef0 9385a5aa 9395b500 93855555 9395b500  ..........UU....
 1f00 9385a52a 9395a500 9385a52a 1385001f  ...*.......*....
 1f10 13015000 33052540 a312b500 13000000  ..P.3.%@........
 1f20 13000000 9305d0ff 1385801f 1301a0ff  ................
 1f30 33052540 231db5fe 13000000 13000000  3.%@#...........
 1f40 9305b0ff 13850020 13010080 33052540  ....... ....3.%@
 1f50 2310b580 13000000 13000000 930570ff  #.............p.
 1f60 13858020 13010008 33052540 2310b508  ... ....3.%@#...
 1f70 13000000 13000000 9305f0fe 13850021  ...............!
 1f80 13010080 33052540 2310b580 13000000  ....3.%@#.......
 1f90 13000000 9305f0fd 13858021 13010004  ...........!....
 1fa0 33052540 2310b504 13000000 13000000  3.%@#...........
 1fb0 9305f0fb 13850022 1301c0ff 33052540  ......."....3.%@
 1fc0 231eb5fe 13000000 13000000 9305f0f7  #...............
 1fd0 13858022 13013000 33052540 a311b500  ..."..0.3.%@....
 1fe0 13000000 13000000 9305f0ef 13850023  ...............#
 1ff0 130190ff 33052540 a31cb5fe 13000000  ....3.%@........
 2000 13000000 9305f0df 13858023 1301f03f  ...........#...?
 2010 33052540 a31fb53e 13000000 13000000  3.%@...>........
 2020 9305f0bf 13850024 130100c0 33052540  .......$....3.%@
 2030 2310b5c0 13000000 13000000 93051000  #...............
 2040 9395b500 93c5f5ff 13858024 13015055  ...........$..PU
 2050 33052540 a31ab554 13000000 13000000  3.%@...T........
 2060 93051000 9395c500 93c5f5ff 13850025  ...............%
 2070 13019000 33052540 a314b500 13000000  ....3.%@........
 2080 13000000 93051000 9395d500 93c5f5ff  ................
 2090 13858025 13010008 33052540 2310b508  ...%....3.%@#...
 20a0 13000000 13000000 93051000 9395e500  ................
 20b0 93c5f5ff 13850026 13015055 33052540  .......&..PU3.%@
 20c0 a31ab554 13000000 13000000 93051000  ...T............
 20d0 9395f500 93c5f5ff 13858026 130160ff  ...........&..`.
 20e0 33052540 231bb5fe 13000000 13000000  3.%@#...........
 20f0 93051000 93950501 93c5f5ff 13850027  ...............'
 2100 13010080 33052540 2310b580 13000000  ....3.%@#.......
 2110 13000000 93051000 93951501 93c5f5ff  ................
 2120 13858027 1301f0fb 33052540 a31fb5fa  ...'....3.%@....
 2130 13000000 13000000 93051000 93952501  ..............%.
 2140 93c5f5ff 13850028 13010002 33052540  .......(....3.%@
 2150 2310b502 13000000 13000000 93051000  #...............
 2160 93953501 93c5f5ff 13858028 130180ff  ..5........(....
 2170 33052540 231cb5fe 13000000 13000000  3.%@#...........
 2180 93051000 93954501 93c5f5ff 13850029  ......E........)
 2190 13015055 33052540 a31ab554 13000000  ..PU3.%@...T....
 21a0 13000000 93051000 93955501 93c5f5ff  ..........U.....
 21b0 13858029 13013000 33052540 a311b500  ...)..0.3.%@....
 21c0 13000000 13000000 93051000 93956501  ..............e.
 21d0 93c5f5ff 1385002a 13015000 33052540  .......*..P.3.%@
 21e0 a312b500 13000000 13000000 93051000  ................
 21f0 93957501 93c5f5ff 1385802a 13013000  ..u........*..0.
 2200 33052540 a311b500 13000000 13000000  3.%@............
 2210 93051000 93958501 93c5f5ff 1385002b  ...............+
 2220 1301f0fb 33052540 a31fb5fa 13000000  ....3.%@........
 2230 13000000 93051000 93959501 93c5f5ff  ................
 2240 1385802b 13010080 33052540 2310b580  ...+....3.%@#...
 2250 13000000 13000000 93051000 9395a501  ................
 2260 93c5f5ff 1385002c 13016000 33052540  .......,..`.3.%@
 2270 2313b500 13000000 13000000 93051000  #...............
 2280 9395b501 93c5f5ff 1385802c 13011000  ...........,....
 2290 33052540 a310b500 13000000 13000000  3.%@............
 22a0 93051000 9395c501 93c5f5ff 1385002d  ...............-
 22b0 1301f03f 33052540 a31fb53e 13000000  ...?3.%@...>....
 22c0 13000000 93051000 9395d501 93c5f5ff  ................
 22d0 1385802d 1301e0ff 33052540 231fb5fe  ...-....3.%@#...
 22e0 13000000 13000000 93051000 9395e501  ................
 22f0 93c5f5ff 1385002e 13012000 33052540  .......... .3.%@
 2300 2311b500 13000000 13000000 93051000  #...............
 2310 9395f501 93c5f5ff 1385802e 1301c0ff  ................
 2320 33052540 231eb5fe 13000000 13000000  3.%@#...........
 2330 93051000 93950502 93c5f5ff 1385002f  .............../
 2340 13010020 33052540 2310b520 13000000  ... 3.%@#.. ....
 2350 13000000 93051000 93951502 93c5f5ff  ................
 2360 1385802f 13017000 33052540 a313b500  .../..p.3.%@....
 2370 13000000 13000000 93051000 93952502  ..............%.
 2380 93c5f5ff 13850030 13010000 33052540  .......0....3.%@
 2390 2310b500 13000000 13000000 93051000  #...............
 23a0 93953502 93c5f5ff 13858030 1301f0fb  ..5........0....
 23b0 33052540 a31fb5fa 13000000 13000000  3.%@............
 23c0 93051000 93954502 93c5f5ff 13850031  ......E........1
 23d0 1301d0ff 33052540 a31eb5fe 13000000  ....3.%@........
 23e0 13000000 93051000 93955502 93c5f5ff  ..........U.....
 23f0 13858031 130100c0 33052540 2310b5c0  ...1....3.%@#...
 2400 13000000 13000000 93051000 93956502  ..............e.
 2410 93c5f5ff 13850032 1301f03f 33052540  .......2...?3.%@
 2420 a31fb53e 13000000 13000000 93051000  ...>............
 2430 93957502 93c5f5ff 13858032 130170ff  ..u........2..p.
 2440 33052540 a31bb5fe 13000000 13000000  3.%@............
 2450 93051000 93958502 93c5f5ff 13850033  ...............3
 2460 1301f0bf 33052540 a31fb5be 13000000  ....3.%@........
 2470 13000000 93051000 93959502 93c5f5ff  ................
 2480 13858033 13015000 33052540 a312b500  ...3..P.3.%@....
 2490 13000000 13000000 93051000 9395b502  ................
 24a0 93c5f5ff 13850034 13018000 33052540  .......4....3.%@
 24b0 2314b500 13000000 13000000 93051000  #...............
 24c0 9395c502 93c5f5ff 13858034 1301f0bf  ...........4....
 24d0 33052540 a31fb5be 13000000 13000000  3.%@............
 24e0 93051000 9395d502 93c5f5ff 13850035  ...............5
 24f0 130160ff 33052540 231bb5fe 13000000  ..`.3.%@#.......
 2500 13000000 93051000 9395e502 93c5f5ff  ................
 2510 13858035 13010008 33052540 2310b508  ...5....3.%@#...
 2520 13000000 13000000 93051000 9395f502  ................
 2530 93c5f5ff 13850036 130170ff 33052540  .......6..p.3.%@
 2540 a31bb5fe 13000000 13000000 93051000  ................
 2550 93950503 93c5f5ff 13858036 13016000  ...........6..`.
 2560 33052540 2313b500 13000000 13000000  3.%@#...........
 2570 93051000 93951503 93c5f5ff 13850037  ...............7
 2580 13010020 33052540 2310b520 13000000  ... 3.%@#.. ....
 2590 13000000 9305e0ff 13858037 1301f07f  ...........7....
 25a0 33052540 a31fb57e 13000000 13000000  3.%@...~........
 25b0 6f008003 8334811f 03330120 33039300  o....4...3. 3...
 25c0 37030000 13030300 1313b300 1303635d  7.............c]
 25d0 1313b300 13036343 1313a300 1303032d  ......cC.......-
 25e0 23be64fe 6f004000 13050000 6f004002  #.d.o.@.....o.@.
 25f0 00000000 00000000 00000000 00000000  ................
 2600 00000000 00000000 00000000 00000000  ................
 2610 13050500 73001000 6f000000 130101ff  ....s...o.......
 2620 17050000 13050502 23341100 efe05f9e  ........#4...._.
 2630 13050500 73001000 6f000000 00000000  ....s...o.......
 2640 00000000 00000000 00000000 00000000  ................
 2650 00000000 00000000 00000000 00000000  ................
 2660 00000000 00000000 00000000 00000000  ................
 2670 00000000 00000000 00000000 00000000  ................
 2680 00000000 00000000 00000000 00000000  ................
 2690 00000000 00000000 00000000 00000000  ................
 26a0 00000000 00000000 00000000 00000000  ................
 26b0 00000000 00000000 00000000 00000000  ................
 26c0 00000000 00000000 00000000 00000000  ................
 26d0 00000000 00000000 00000000 00000000  ................
 26e0 00000000 00000000 00000000 00000000  ................
 26f0 00000000 00000000 00000000 00000000  ................
 2700 00000000 00000000 00000000 00000000  ................
 2710 00000000 00000000 00000000 00000000  ................
 2720 00000000 00000000 00000000 00000000  ................
 2730 00000000 00000000 00000000 00000000  ................
 2740 00000000 00000000 00000000 00000000  ................
 2750 00000000 00000000 00000000 00000000  ................
 2760 00000000 00000000 00000000 00000000  ................
 2770 00000000 00000000 00000000 00000000  ................
 2780 00000000 00000000 00000000 00000000  ................
 2790 00000000 00000000 00000000 00000000  ................
 27a0 00000000 00000000 00000000 00000000  ................
 27b0 00000000 00000000 00000000 00000000  ................
 27c0 00000000 00000000 00000000 00000000  ................
 27d0 00000000 00000000 00000000 00000000  ................
 27e0 00000000 00000000 00000000 00000000  ................
 27f0 00000000 00000000 00000000 00000000  ................
 2800 00000000 00000000 00000000 00000000  ................
 2810 00000000 00000000 00000000 00000000  ................
 2820 00000000 00000000 00000000 00000000  ................
 2830 00000000 00000000 00000000 00000000  ................
 2840 00000000 00000000 00000000 00000000  ................
 2850 00000000 00000000 00000000 00000000  ................
 2860 00000000 00000000 00000000 00000000  ................
 2870 00000000 00000000 00000000 00000000  ................
 2880 00000000 00000000 00000000 00000000  ................
 2890 00000000 00000000 00000000 00000000  ................
 28a0 00000000 00000000 00000000 00000000  ................
 28b0 00000000 00000000 00000000 00000000  ................
 28c0 00000000 00000000 00000000 00000000  ................
 28d0 00000000 00000000 00000000 00000000  ................
 28e0 00000000 00000000 00000000 00000000  ................
 28f0 00000000 00000000 00000000 00000000  ................
 2900 00000000 00000000 00000000 00000000  ................
 2910 00000000 00000000 00000000 00000000  ................
 2920 00000000 00000000 00000000 00000000  ................
 2930 00000000 00000000 00000000 00000000  ................
 2940 00000000 00000000 00000000 00000000  ................
 2950 00000000 00000000 00000000 00000000  ................
 2960 00000000 00000000 00000000 00000000  ................
 2970 00000000 00000000 00000000 00000000  ................
 2980 00000000 00000000 00000000 00000000  ................
 2990 00000000 00000000 00000000 00000000  ................
 29a0 00000000 00000000 00000000 00000000  ................
 29b0 00000000 00000000 00000000 00000000  ................
 29c0 00000000 00000000 00000000 00000000  ................
 29d0 00000000 00000000 00000000 00000000  ................
 29e0 00000000 00000000 00000000 00000000  ................
 29f0 00000000 00000000 00000000 00000000  ................
 2a00 00000000 00000000 00000000 00000000  ................
 2a10 00000000 00000000 00000000 00000000  ................
 2a20 00000000 00000000 00000000 00000000  ................
 2a30 00000000 00000000 00000000 00000000  ................
 2a40 00000000 00000000 00000000 00000000  ................
 2a50 00000000 00000000 00000000 00000000  ................
 2a60 00000000 00000000 00000000 00000000  ................
 2a70 00000000 00000000 00000000 00000000  ................
 2a80 00000000 00000000 00000000 00000000  ................
 2a90 00000000 00000000 00000000 00000000  ................
 2aa0 00000000 00000000 00000000 00000000  ................
 2ab0 00000000 00000000 00000000 00000000  ................
 2ac0 00000000 00000000 00000000 00000000  ................
 2ad0 00000000 00000000 00000000 00000000  ................
 2ae0 00000000 00000000 00000000 00000000  ................
 2af0 00000000 00000000 00000000 00000000  ................
 2b00 00000000 00000000 00000000 00000000  ................
 2b10 00000000 00000000 00000000 00000000  ................
 2b20 00000000 00000000 00000000 00000000  ................
 2b30 00000000 00000000 00000000 00000000  ................
 2b40 00000000 00000000 00000000 00000000  ................
 2b50 00000000 00000000 00000000 00000000  ................
 2b60 00000000 00000000 00000000 00000000  ................
 2b70 00000000 00000000 00000000 00000000  ................
 2b80 00000000 00000000 00000000 00000000  ................
 2b90 00000000 00000000 00000000 00000000  ................
 2ba0 00000000 00000000 00000000 00000000  ................
 2bb0 00000000 00000000 00000000 00000000  ................
 2bc0 00000000 00000000 00000000 00000000  ................
 2bd0 00000000 00000000 00000000 00000000  ................
 2be0 00000000 00000000 00000000 00000000  ................
 2bf0 00000000 00000000 00000000 00000000  ................
 2c00 00000000 00000000 00000000 00000000  ................
 2c10 00000000 00000000 00000000 00000000  ................
 2c20 00000000 00000000 00000000 00000000  ................
 2c30 00000000 00000000 00000000 00000000  ................
 2c40 00000000 00000000 00000000 00000000  ................
 2c50 00000000 00000000 00000000 00000000  ................
 2c60 00000000 00000000 00000000 00000000  ................
 2c70 00000000 00000000 00000000 00000000  ................
 2c80 00000000 00000000 00000000 00000000  ................
 2c90 00000000 00000000 00000000 00000000  ................
 2ca0 00000000 00000000 00000000 00000000  ................
 2cb0 00000000 00000000 00000000 00000000  ................
 2cc0 00000000 00000000 00000000 00000000  ................
 2cd0 00000000 00000000 00000000 00000000  ................
 2ce0 00000000 00000000 00000000 00000000  ................
 2cf0 00000000 00000000 00000000 00000000  ................
 2d00 00000000 00000000 00000000 00000000  ................
 2d10 00000000 00000000 00000000 00000000  ................
 2d20 00000000 00000000 00000000 00000000  ................
 2d30 00000000 00000000 00000000 00000000  ................
 2d40 00000000 00000000 00000000 00000000  ................
 2d50 00000000 00000000 00000000 00000000  ................
 2d60 00000000 00000000 00000000 00000000  ................
 2d70 00000000 00000000 00000000 00000000  ................
 2d80 00000000 00000000 00000000 00000000  ................
 2d90 00000000 00000000 00000000 00000000  ................
 2da0 00000000 00000000 00000000 00000000  ................
 2db0 00000000 00000000 00000000 00000000  ................
 2dc0 00000000 00000000 00000000 00000000  ................
 2dd0 00000000 00000000 00000000 00000000  ................
 2de0 00000000 00000000 00000000 00000000  ................
 2df0 00000000 00000000 00000000 00000000  ................
 2e00 00000000 00000000 00000000 00000000  ................
 2e10 00000000 00000000 00000000 00000000  ................
 2e20 00000000 00000000 00000000 00000000  ................
 2e30 00000000 00000000 00000000 00000000  ................
 2e40 00000000 00000000 00000000 00000000  ................
 2e50 00000000 00000000 00000000 00000000  ................
 2e60 00000000 00000000 00000000 00000000  ................
 2e70 00000000 00000000 00000000 00000000  ................
 2e80 00000000 00000000 00000000 00000000  ................
 2e90 00000000 00000000 00000000 00000000  ................
 2ea0 00000000 00000000 00000000 00000000  ................
 2eb0 00000000 00000000 00000000 00000000  ................
 2ec0 00000000 00000000 00000000 00000000  ................
 2ed0 00000000 00000000 00000000 00000000  ................
 2ee0 00000000 00000000 00000000 00000000  ................
 2ef0 00000000 00000000 00000000 00000000  ................
 2f00 00000000 00000000 00000000 00000000  ................
 2f10 00000000 00000000 00000000 00000000  ................
 2f20 00000000 00000000 00000000 00000000  ................
 2f30 00000000 00000000 00000000 00000000  ................
 2f40 00000000 00000000 00000000 00000000  ................
 2f50 00000000 00000000 00000000 00000000  ................
 2f60 00000000 00000000 00000000 00000000  ................
 2f70 00000000 00000000 00000000 00000000  ................
 2f80 00000000 00000000 00000000 00000000  ................
 2f90 00000000 00000000 00000000 00000000  ................
 2fa0 00000000 00000000 00000000 00000000  ................
 2fb0 00000000 00000000 00000000 00000000  ................
 2fc0 00000000 00000000 00000000 00000000  ................
 2fd0 00000000 00000000 00000000 00000000  ................
 2fe0 00000000 00000000 00000000 00000000  ................
 2ff0 00000000 00000000 00000000 00000000  ................
 3000 fecabeba fecabeba fecabeba fecabeba  ................
 3010 efbeadde efbeadde 00000000 00000000  ................
 3020 00000000 00000000 00000000 00000000  ................
 3030 00000000 00000000 00000000 00000000  ................
 3040 00000000 00000000 00000000 00000000  ................
 3050 00000000 00000000 00000000 00000000  ................
 3060 00000000 00000000 00000000 00000000  ................
 3070 00000000 00000000 00000000 00000000  ................
 3080 00000000 00000000 00000000 00000000  ................
 3090 00000000 00000000 00000000 00000000  ................
 30a0 00000000 00000000 00000000 00000000  ................
 30b0 00000000 00000000 00000000 00000000  ................
 30c0 00000000 00000000 00000000 00000000  ................
 30d0 00000000 00000000 00000000 00000000  ................
 30e0 00000000 00000000 00000000 00000000  ................
 30f0 00000000 00000000 00000000 00000000  ................
 3100 00000000 00000000 00000000 00000000  ................
 3110 00000000 00000000 00000000 00000000  ................
 3120 00000000 00000000 00000000 00000000  ................
 3130 00000000 00000000 00000000 00000000  ................
 3140 00000000 00000000 00000000 00000000  ................
 3150 00000000 00000000 00000000 00000000  ................
 3160 00000000 00000000 00000000 00000000  ................
 3170 00000000 00000000 00000000 00000000  ................
 3180 00000000 00000000 00000000 00000000  ................
 3190 00000000 00000000 00000000 00000000  ................
 31a0 00000000 00000000 00000000 00000000  ................
 31b0 00000000 00000000 00000000 00000000  ................
 31c0 00000000 00000000 00000000 00000000  ................
 31d0 00000000 00000000 00000000 00000000  ................
 31e0 00000000 00000000 00000000 00000000  ................
 31f0 00000000 00000000 00000000 00000000  ................
 3200 00000000 00000000 00000000 00000000  ................
 3210 00000000 00000000 00000000 00000000  ................
 3220 00000000 00000000 00000000 00000000  ................
 3230 00000000 00000000 00000000 00000000  ................
 3240 00000000 00000000 00000000 00000000  ................
 3250 00000000 00000000 00000000 00000000  ................
 3260 00000000 00000000 00000000 00000000  ................
 3270 00000000 00000000 00000000 00000000  ................
 3280 00000000 00000000 00000000 00000000  ................
 3290 00000000 00000000 00000000 00000000  ................
 32a0 00000000 00000000 00000000 00000000  ................
 32b0 00000000 00000000 00000000 00000000  ................
 32c0 00000000 00000000 00000000 00000000  ................
 32d0 00000000 00000000 00000000 00000000  ................
 32e0 00000000 00000000 00000000 00000000  ................
 32f0 00000000 00000000 00000000 00000000  ................
 3300 00000000 00000000 00000000 00000000  ................
 3310 00000000 00000000 00000000 00000000  ................
 3320 00000000 00000000 00000000 00000000  ................
 3330 00000000 00000000 00000000 00000000  ................
 3340 00000000 00000000 00000000 00000000  ................
 3350 00000000 00000000 00000000 00000000  ................
 3360 00000000 00000000 00000000 00000000  ................
 3370 00000000 00000000 00000000 00000000  ................
 3380 00000000 00000000 00000000 00000000  ................
 3390 00000000 00000000 00000000 00000000  ................
 33a0 00000000 00000000 00000000 00000000  ................
 33b0 00000000 00000000 00000000 00000000  ................
 33c0 00000000 00000000 00000000 00000000  ................
 33d0 00000000 00000000 00000000 00000000  ................
 33e0 00000000 00000000 00000000 00000000  ................
 33f0 00000000 00000000 00000000 00000000  ................
 3400 00000000 00000000 00000000 00000000  ................
 3410 00000000 00000000 00000000 00000000  ................
 3420 00000000 00000000 00000000 00000000  ................
 3430 00000000 00000000 00000000 00000000  ................
 3440 00000000 00000000 00000000 00000000  ................
 3450 00000000 00000000 00000000 00000000  ................
 3460 00000000 00000000 00000000 00000000  ................
 3470 00000000 00000000 00000000 00000000  ................
 3480 00000000 00000000 00000000 00000000  ................
 3490 00000000 00000000 00000000 00000000  ................
 34a0 00000000 00000000 00000000 00000000  ................
 34b0 00000000 00000000 00000000 00000000  ................
 34c0 00000000 00000000 00000000 00000000  ................
 34d0 00000000 00000000 00000000 00000000  ................
 34e0 00000000 00000000 00000000 00000000  ................
 34f0 00000000 00000000 00000000 00000000  ................
 3500 00000000 00000000 00000000 00000000  ................
 3510 00000000 00000000 00000000 00000000  ................
 3520 00000000 00000000 00000000 00000000  ................
 3530 00000000 00000000 00000000 00000000  ................
 3540 00000000 00000000 00000000 00000000  ................
 3550 00000000 00000000 00000000 00000000  ................
 3560 00000000 00000000 00000000 00000000  ................
 3570 00000000 00000000 00000000 00000000  ................
 3580 00000000 00000000 00000000 00000000  ................
 3590 00000000 00000000 00000000 00000000  ................
 35a0 00000000 00000000 00000000 00000000  ................
 35b0 00000000 00000000 00000000 00000000  ................
 35c0 00000000 00000000 00000000 00000000  ................
 35d0 00000000 00000000 00000000 00000000  ................
 35e0 00000000 00000000 00000000 00000000  ................
 35f0 00000000 00000000 00000000 00000000  ................
 3600 00000000 00000000 00000000 00000000  ................
 3610 00000000 00000000 00000000 00000000  ................
 3620 00000000 00000000 00000000 00000000  ................
 3630 00000000 00000000 00000000 00000000  ................
 3640 00000000 00000000 00000000 00000000  ................
 3650 00000000 00000000 00000000 00000000  ................
 3660 00000000 00000000 00000000 00000000  ................
 3670 00000000 00000000 00000000 00000000  ................
 3680 00000000 00000000 00000000 00000000  ................
 3690 00000000 00000000 00000000 00000000  ................
 36a0 00000000 00000000 00000000 00000000  ................
 36b0 00000000 00000000 00000000 00000000  ................
 36c0 00000000 00000000 00000000 00000000  ................
 36d0 00000000 00000000 00000000 00000000  ................
 36e0 00000000 00000000 00000000 00000000  ................
 36f0 00000000 00000000 00000000 00000000  ................
 3700 00000000 00000000 00000000 00000000  ................
 3710 00000000 00000000 00000000 00000000  ................
 3720 00000000 00000000 00000000 00000000  ................
 3730 00000000 00000000 00000000 00000000  ................
 3740 00000000 00000000 00000000 00000000  ................
 3750 00000000 00000000 00000000 00000000  ................
 3760 00000000 00000000 00000000 00000000  ................
 3770 00000000 00000000 00000000 00000000  ................
 3780 00000000 00000000 00000000 00000000  ................
 3790 00000000 00000000 00000000 00000000  ................
 37a0 00000000 00000000 00000000 00000000  ................
 37b0 00000000 00000000 00000000 00000000  ................
 37c0 00000000 00000000 00000000 00000000  ................
 37d0 00000000 00000000 00000000 00000000  ................
 37e0 00000000 00000000 00000000 00000000  ................
 37f0 00000000 00000000 00000000 00000000  ................
 3800 00000000 00000000 00000000 00000000  ................
 3810 00000000 00000000 00000000 00000000  ................
 3820 00000000 00000000 00000000 00000000  ................
 3830 00000000 00000000 00000000 00000000  ................
 3840 00000000 00000000 00000000 00000000  ................
 3850 00000000 00000000 00000000 00000000  ................
 3860 00000000 00000000 00000000 00000000  ................
 3870 00000000 00000000 00000000 00000000  ................
 3880 00000000 00000000 00000000 00000000  ................
 3890 00000000 00000000 00000000 00000000  ................
 38a0 00000000 00000000 00000000 00000000  ................
 38b0 00000000 00000000 00000000 00000000  ................
 38c0 00000000 00000000 00000000 00000000  ................
 38d0 00000000 00000000 00000000 00000000  ................
 38e0 00000000 00000000 00000000 00000000  ................
 38f0 00000000 00000000 00000000 00000000  ................
 3900 00000000 00000000 00000000 00000000  ................
 3910 00000000 00000000 00000000 00000000  ................
 3920 00000000 00000000 00000000 00000000  ................
 3930 00000000 00000000 00000000 00000000  ................
 3940 00000000 00000000 00000000 00000000  ................
 3950 00000000 00000000 00000000 00000000  ................
 3960 00000000 00000000 00000000 00000000  ................
 3970 00000000 00000000 00000000 00000000  ................
 3980 00000000 00000000 00000000 00000000  ................
 3990 00000000 00000000 00000000 00000000  ................
 39a0 00000000 00000000 00000000 00000000  ................
 39b0 00000000 00000000 00000000 00000000  ................
 39c0 00000000 00000000 00000000 00000000  ................
 39d0 00000000 00000000 00000000 00000000  ................
 39e0 00000000 00000000 00000000 00000000  ................
 39f0 00000000 00000000 00000000 00000000  ................
 3a00 00000000 00000000 00000000 00000000  ................
 3a10 00000000 00000000 00000000 00000000  ................
 3a20 00000000 00000000 00000000 00000000  ................
 3a30 00000000 00000000 00000000 00000000  ................
 3a40 00000000 00000000 00000000 00000000  ................
 3a50 00000000 00000000 00000000 00000000  ................
 3a60 00000000 00000000 00000000 00000000  ................
 3a70 00000000 00000000 00000000 00000000  ................
 3a80 00000000 00000000 00000000 00000000  ................
 3a90 00000000 00000000 00000000 00000000  ................
 3aa0 00000000 00000000 00000000 00000000  ................
 3ab0 00000000 00000000 00000000 00000000  ................
 3ac0 00000000 00000000 00000000 00000000  ................
 3ad0 00000000 00000000 00000000 00000000  ................
 3ae0 00000000 00000000 00000000 00000000  ................
 3af0 00000000 00000000 00000000 00000000  ................
 3b00 00000000 00000000 00000000 00000000  ................
 3b10 00000000 00000000 00000000 00000000  ................
 3b20 00000000 00000000 00000000 00000000  ................
 3b30 00000000 00000000 00000000 00000000  ................
 3b40 00000000 00000000 00000000 00000000  ................
 3b50 00000000 00000000 00000000 00000000  ................
 3b60 00000000 00000000 00000000 00000000  ................
 3b70 00000000 00000000 00000000 00000000  ................
 3b80 00000000 00000000 00000000 00000000  ................
 3b90 00000000 00000000 00000000 00000000  ................
 3ba0 00000000 00000000 00000000 00000000  ................
 3bb0 00000000 00000000 00000000 00000000  ................
 3bc0 00000000 00000000 00000000 00000000  ................
 3bd0 00000000 00000000 00000000 00000000  ................
 3be0 00000000 00000000 00000000 00000000  ................
 3bf0 00000000 00000000 00000000 00000000  ................
 3c00 00000000 00000000 00000000 00000000  ................
 3c10 00000000 00000000 00000000 00000000  ................
 3c20 00000000 00000000 00000000 00000000  ................
 3c30 00000000 00000000 00000000 00000000  ................
 3c40 00000000 00000000 00000000 00000000  ................
 3c50 00000000 00000000 00000000 00000000  ................
 3c60 00000000 00000000 00000000 00000000  ................
 3c70 00000000 00000000 00000000 00000000  ................
 3c80 00000000 00000000 00000000 00000000  ................
 3c90 00000000 00000000 00000000 00000000  ................
 3ca0 00000000 00000000 00000000 00000000  ................
 3cb0 00000000 00000000 00000000 00000000  ................
 3cc0 00000000 00000000 00000000 00000000  ................
 3cd0 00000000 00000000 00000000 00000000  ................
 3ce0 00000000 00000000 00000000 00000000  ................
 3cf0 00000000 00000000 00000000 00000000  ................
 3d00 00000000 00000000 00000000 00000000  ................
 3d10 00000000 00000000 00000000 00000000  ................
 3d20 00000000 00000000 00000000 00000000  ................
 3d30 00000000 00000000 00000000 00000000  ................
 3d40 00000000 00000000 00000000 00000000  ................
 3d50 00000000 00000000 00000000 00000000  ................
 3d60 00000000 00000000 00000000 00000000  ................
 3d70 00000000 00000000 00000000 00000000  ................
 3d80 00000000 00000000 00000000 00000000  ................
 3d90 00000000 00000000 00000000 00000000  ................
 3da0 00000000 00000000 00000000 00000000  ................
 3db0 00000000 00000000 00000000 00000000  ................
 3dc0 00000000 00000000 00000000 00000000  ................
 3dd0 00000000 00000000 00000000 00000000  ................
 3de0 00000000 00000000 00000000 00000000  ................
 3df0 00000000 00000000 00000000 00000000  ................
 3e00 00000000 00000000 00000000 00000000  ................
 3e10 00000000 00000000 00000000 00000000  ................
 3e20 00000000 00000000 00000000 00000000  ................
 3e30 00000000 00000000 00000000 00000000  ................
 3e40 00000000 00000000 00000000 00000000  ................
 3e50 00000000 00000000 00000000 00000000  ................
 3e60 00000000 00000000 00000000 00000000  ................
 3e70 00000000 00000000 00000000 00000000  ................
 3e80 00000000 00000000 00000000 00000000  ................
 3e90 00000000 00000000 00000000 00000000  ................
 3ea0 00000000 00000000 00000000 00000000  ................
 3eb0 00000000 00000000 00000000 00000000  ................
 3ec0 00000000 00000000 00000000 00000000  ................
 3ed0 00000000 00000000 00000000 00000000  ................
 3ee0 00000000 00000000 00000000 00000000  ................
 3ef0 00000000 00000000 00000000 00000000  ................
 3f00 00000000 00000000 00000000 00000000  ................
 3f10 00000000 00000000 00000000 00000000  ................
 3f20 00000000 00000000 00000000 00000000  ................
 3f30 00000000 00000000 00000000 00000000  ................
 3f40 00000000 00000000 00000000 00000000  ................
 3f50 00000000 00000000 00000000 00000000  ................
 3f60 00000000 00000000 00000000 00000000  ................
 3f70 00000000 00000000 00000000 00000000  ................
 3f80 00000000 00000000 00000000 00000000  ................
 3f90 00000000 00000000 00000000 00000000  ................
 3fa0 00000000 00000000 00000000 00000000  ................
 3fb0 00000000 00000000 00000000 00000000  ................
 3fc0 00000000 00000000 00000000 00000000  ................
 3fd0 00000000 00000000 00000000 00000000  ................
 3fe0 00000000 00000000 00000000 00000000  ................
 3ff0 00000000 00000000 00000000 00000000  ................
 4000 81b2d4e7 09a35c6f efbeadde efbeadde  ......\o........
 4010 efbeadde efbeadde efbeadde efbeadde  ................
 4020 efbeadde efbeadde efbeadde efbeadde  ................
 4030 efbeadde efbeadde efbeadde efbeadde  ................
 4040 efbeadde efbeadde efbeadde efbeadde  ................
 4050 efbeadde efbeadde efbeadde efbeadde  ................
 4060 efbeadde efbeadde efbeadde efbeadde  ................
 4070 efbeadde efbeadde efbeadde efbeadde  ................
 4080 efbeadde efbeadde efbeadde efbeadde  ................
 4090 efbeadde efbeadde efbeadde efbeadde  ................
 40a0 efbeadde efbeadde efbeadde efbeadde  ................
 40b0 efbeadde efbeadde efbeadde efbeadde  ................
 40c0 efbeadde efbeadde efbeadde efbeadde  ................
 40d0 efbeadde efbeadde efbeadde efbeadde  ................
 40e0 efbeadde efbeadde efbeadde efbeadde  ................
 40f0 efbeadde efbeadde efbeadde efbeadde  ................
 4100 efbeadde efbeadde efbeadde efbeadde  ................
 4110 efbeadde efbeadde efbeadde efbeadde  ................
 4120 efbeadde efbeadde efbeadde efbeadde  ................
 4130 efbeadde efbeadde efbeadde efbeadde  ................
 4140 efbeadde efbeadde efbeadde efbeadde  ................
 4150 efbeadde efbeadde efbeadde efbeadde  ................
 4160 efbeadde efbeadde efbeadde efbeadde  ................
 4170 efbeadde efbeadde efbeadde efbeadde  ................
 4180 efbeadde efbeadde efbeadde efbeadde  ................
 4190 efbeadde efbeadde efbeadde efbeadde  ................
 41a0 efbeadde efbeadde efbeadde efbeadde  ................
 41b0 efbeadde efbeadde efbeadde efbeadde  ................
 41c0 efbeadde efbeadde efbeadde efbeadde  ................
 41d0 efbeadde efbeadde efbeadde efbeadde  ................
 41e0 efbeadde efbeadde efbeadde efbeadde  ................
 41f0 efbeadde efbeadde efbeadde efbeadde  ................
 4200 efbeadde efbeadde efbeadde efbeadde  ................
 4210 efbeadde efbeadde efbeadde efbeadde  ................
 4220 efbeadde efbeadde efbeadde efbeadde  ................
 4230 efbeadde efbeadde efbeadde efbeadde  ................
 4240 efbeadde efbeadde efbeadde efbeadde  ................
 4250 efbeadde efbeadde efbeadde efbeadde  ................
 4260 efbeadde efbeadde efbeadde efbeadde  ................
 4270 efbeadde efbeadde efbeadde efbeadde  ................
 4280 efbeadde efbeadde efbeadde efbeadde  ................
 4290 efbeadde efbeadde efbeadde efbeadde  ................
 42a0 efbeadde efbeadde efbeadde efbeadde  ................
 42b0 efbeadde efbeadde efbeadde efbeadde  ................
 42c0 efbeadde efbeadde efbeadde efbeadde  ................
 42d0 efbeadde efbeadde efbeadde efbeadde  ................
 42e0 efbeadde efbeadde efbeadde efbeadde  ................
 42f0 efbeadde efbeadde efbeadde efbeadde  ................
 4300 efbeadde efbeadde efbeadde efbeadde  ................
 4310 efbeadde efbeadde efbeadde efbeadde  ................
 4320 efbeadde efbeadde efbeadde efbeadde  ................
 4330 efbeadde efbeadde efbeadde efbeadde  ................
 4340 efbeadde efbeadde efbeadde efbeadde  ................
 4350 efbeadde efbeadde efbeadde efbeadde  ................
 4360 efbeadde efbeadde efbeadde efbeadde  ................
 4370 efbeadde efbeadde efbeadde efbeadde  ................
 4380 efbeadde efbeadde efbeadde efbeadde  ................
 4390 efbeadde efbeadde efbeadde efbeadde  ................
 43a0 efbeadde efbeadde efbeadde efbeadde  ................
 43b0 efbeadde efbeadde efbeadde efbeadde  ................
 43c0 efbeadde efbeadde efbeadde efbeadde  ................
 43d0 efbeadde efbeadde efbeadde efbeadde  ................
 43e0 efbeadde efbeadde efbeadde efbeadde  ................
 43f0 efbeadde efbeadde efbeadde efbeadde  ................
 4400 efbeadde efbeadde efbeadde efbeadde  ................
 4410 efbeadde efbeadde efbeadde efbeadde  ................
 4420 efbeadde efbeadde efbeadde efbeadde  ................
 4430 81b2d4e7 09a35c6f 00000000 00000000  ......\o........
 4440 4743433a 20285562 756e7475 2031312e  GCC: (Ubuntu 11.
 4450 322e302d 31367562 756e7475 31292031  2.0-16ubuntu1) 1
 4460 312e322e 3000412d 00000072 69736376  1.2.0.A-...riscv
 4470 00012300 00000572 76363469 3270305f  ..#....rv64i2p0_
 4480 6d327030 5f613270 305f6632 70305f64  m2p0_a2p0_f2p0_d
 4490 32703000 00000000 00000000 00000000  2p0.............
 44a0 00000000 00000000 00000000 00000000  ................
 44b0 00000000 03000100 00000080 00000000  ................
 44c0 00000000 00000000 00000000 03000200  ................
 44d0 40160080 00000000 00000000 00000000  @...............
 44e0 00000000 03000300 00200080 00000000  ......... ......
 44f0 00000000 00000000 00000000 03000400  ................
 4500 00000000 00000000 00000000 00000000  ................
 4510 00000000 03000500 00000000 00000000  ................
 4520 00000000 00000000 01000000 0400f1ff  ................
 4530 00000000 00000000 00000000 00000000  ................
 4540 09000000 00000100 00000080 00000000  ................
 4550 00000000 00000000 0c000000 0400f1ff  ................
 4560 00000000 00000000 00000000 00000000  ................
 4570 09000000 00000100 10000080 00000000  ................
 4580 00000000 00000000 13000000 0400f1ff  ................
 4590 00000000 00000000 00000000 00000000  ................
 45a0 21000000 0000f1ff 03000000 00000000  !...............
 45b0 00000000 00000000 2b000000 0000f1ff  ........+.......
 45c0 01000000 00000000 00000000 00000000  ................
 45d0 35000000 0000f1ff 02000000 00000000  5...............
 45e0 00000000 00000000 09000000 00000100  ................
 45f0 40000080 00000000 00000000 00000000  @...............
 4600 3f000000 0000f1ff d0dad0ba 00000000  ?...............
 4610 00000000 00000000 44000000 0000f1ff  ........D.......
 4620 04000000 00000000 00000000 00000000  ................
 4630 4a000000 0000f1ff 05000000 00000000  J...............
 4640 00000000 00000000 50000000 0000f1ff  ........P.......
 4650 00000000 00000000 00000000 00000000  ................
 4660 55000000 0000f1ff 00000000 00000000  U...............
 4670 00000000 00000000 5a000000 0000f1ff  ........Z.......
 4680 d0dad0ba 00000000 00000000 00000000  ................
 4690 5f000000 0000f1ff 40000000 00000000  _.......@.......
 46a0 00000000 00000000 63000000 0000f1ff  ........c.......
 46b0 d0dad0ba 00000000 00000000 00000000  ................
 46c0 6a000000 0000f1ff 01000000 00000000  j...............
 46d0 00000000 00000000 6e000000 0000f1ff  ........n.......
 46e0 d0faffff ffffffff 00000000 00000000  ................
 46f0 74000000 0000f1ff 01000000 00000000  t...............
 4700 00000000 00000000 79000000 0000f1ff  ........y.......
 4710 00000000 00000000 00000000 00000000  ................
 4720 7e000000 0000f1ff ad0dad0b 00000000  ~...............
 4730 00000000 00000000 85000000 0000f1ff  ................
 4740 adfdffff ffffffff 00000000 00000000  ................
 4750 8d000000 0000f1ff 01000000 00000000  ................
 4760 00000000 00000000 93000000 0000f1ff  ................
 4770 ad0dad0b 00000000 00000000 00000000  ................
 4780 9c000000 00000300 08300080 00000000  .........0......
 4790 00000000 00000000 15060000 0000f1ff  ................
 47a0 00000000 00000000 00000000 00000000  ................
 47b0 ab000000 00000100 40040080 00000000  ........@.......
 47c0 00000000 00000000 b2000000 00000100  ................
 47d0 60040080 00000000 00000000 00000000  `...............
 47e0 b9000000 00000100 7c040080 00000000  ........|.......
 47f0 00000000 00000000 c0000000 00000100  ................
 4800 9c040080 00000000 00000000 00000000  ................
 4810 c7000000 00000100 b8040080 00000000  ................
 4820 00000000 00000000 ce000000 00000100  ................
 4830 d4040080 00000000 00000000 00000000  ................
 4840 d5000000 00000100 f8040080 00000000  ................
 4850 00000000 00000000 dc000000 00000100  ................
 4860 18050080 00000000 00000000 00000000  ................
 4870 e3000000 00000100 38050080 00000000  ........8.......
 4880 00000000 00000000 ea000000 00000100  ................
 4890 58050080 00000000 00000000 00000000  X...............
 48a0 f1000000 00000100 78050080 00000000  ........x.......
 48b0 00000000 00000000 f9000000 00000100  ................
 48c0 94050080 00000000 00000000 00000000  ................
 48d0 01010000 00000100 b0050080 00000000  ................
 48e0 00000000 00000000 09010000 00000100  ................
 48f0 cc050080 00000000 00000000 00000000  ................
 4900 11010000 00000100 e8050080 00000000  ................
 4910 00000000 00000000 19010000 00000100  ................
 4920 04060080 00000000 00000000 00000000  ................
 4930 21010000 00000100 20060080 00000000  !....... .......
 4940 00000000 00000000 29010000 00000100  ........).......
 4950 3c060080 00000000 00000000 00000000  <...............
 4960 31010000 00000100 58060080 00000000  1.......X.......
 4970 00000000 00000000 39010000 00000100  ........9.......
 4980 74060080 00000000 00000000 00000000  t...............
 4990 41010000 00000100 90060080 00000000  A...............
 49a0 00000000 00000000 49010000 00000300  ........I.......
 49b0 b0300080 00000000 00000000 00000000  .0..............
 49c0 58010000 00000100 e0060080 00000000  X...............
 49d0 00000000 00000000 60010000 00000100  ........`.......
 49e0 00070080 00000000 00000000 00000000  ................
 49f0 68010000 00000100 20070080 00000000  h....... .......
 4a00 00000000 00000000 70010000 00000100  ........p.......
 4a10 40070080 00000000 00000000 00000000  @...............
 4a20 78010000 00000100 60070080 00000000  x.......`.......
 4a30 00000000 00000000 80010000 00000100  ................
 4a40 80070080 00000000 00000000 00000000  ................
 4a50 88010000 00000100 a0070080 00000000  ................
 4a60 00000000 00000000 90010000 00000100  ................
 4a70 c0070080 00000000 00000000 00000000  ................
 4a80 98010000 00000100 e0070080 00000000  ................
 4a90 00000000 00000000 a0010000 00000100  ................
 4aa0 00080080 00000000 00000000 00000000  ................
 4ab0 a8010000 00000100 20080080 00000000  ........ .......
 4ac0 00000000 00000000 b0010000 00000100  ................
 4ad0 40080080 00000000 00000000 00000000  @...............
 4ae0 b8010000 00000100 60080080 00000000  ........`.......
 4af0 00000000 00000000 c0010000 00000100  ................
 4b00 80080080 00000000 00000000 00000000  ................
 4b10 c8010000 00000100 a0080080 00000000  ................
 4b20 00000000 00000000 d0010000 00000100  ................
 4b30 c0080080 00000000 00000000 00000000  ................
 4b40 d8010000 00000100 e0080080 00000000  ................
 4b50 00000000 00000000 e0010000 00000100  ................
 4b60 00090080 00000000 00000000 00000000  ................
 4b70 e8010000 00000100 20090080 00000000  ........ .......
 4b80 00000000 00000000 f0010000 00000100  ................
 4b90 40090080 00000000 00000000 00000000  @...............
 4ba0 f8010000 00000100 60090080 00000000  ........`.......
 4bb0 00000000 00000000 00020000 00000100  ................
 4bc0 80090080 00000000 00000000 00000000  ................
 4bd0 08020000 00000100 a0090080 00000000  ................
 4be0 00000000 00000000 10020000 00000100  ................
 4bf0 c0090080 00000000 00000000 00000000  ................
 4c00 18020000 00000100 e0090080 00000000  ................
 4c10 00000000 00000000 20020000 00000100  ........ .......
 4c20 000a0080 00000000 00000000 00000000  ................
 4c30 28020000 00000100 200a0080 00000000  (....... .......
 4c40 00000000 00000000 30020000 00000100  ........0.......
 4c50 400a0080 00000000 00000000 00000000  @...............
 4c60 38020000 00000100 600a0080 00000000  8.......`.......
 4c70 00000000 00000000 40020000 00000100  ........@.......
 4c80 800a0080 00000000 00000000 00000000  ................
 4c90 48020000 00000100 a00a0080 00000000  H...............
 4ca0 00000000 00000000 50020000 00000100  ........P.......
 4cb0 c00a0080 00000000 00000000 00000000  ................
 4cc0 58020000 00000100 e00a0080 00000000  X...............
 4cd0 00000000 00000000 60020000 00000100  ........`.......
 4ce0 000b0080 00000000 00000000 00000000  ................
 4cf0 68020000 00000100 200b0080 00000000  h....... .......
 4d00 00000000 00000000 70020000 00000100  ........p.......
 4d10 400b0080 00000000 00000000 00000000  @...............
 4d20 78020000 00000100 600b0080 00000000  x.......`.......
 4d30 00000000 00000000 80020000 00000100  ................
 4d40 800b0080 00000000 00000000 00000000  ................
 4d50 88020000 00000100 a00b0080 00000000  ................
 4d60 00000000 00000000 90020000 00000100  ................
 4d70 c00b0080 00000000 00000000 00000000  ................
 4d80 98020000 00000100 e00b0080 00000000  ................
 4d90 00000000 00000000 a0020000 00000100  ................
 4da0 000c0080 00000000 00000000 00000000  ................
 4db0 a8020000 00000100 200c0080 00000000  ........ .......
 4dc0 00000000 00000000 b0020000 00000100  ................
 4dd0 400c0080 00000000 00000000 00000000  @...............
 4de0 b8020000 00000100 600c0080 00000000  ........`.......
 4df0 00000000 00000000 c0020000 00000100  ................
 4e00 800c0080 00000000 00000000 00000000  ................
 4e10 c8020000 00000100 a00c0080 00000000  ................
 4e20 00000000 00000000 d0020000 00000100  ................
 4e30 c00c0080 00000000 00000000 00000000  ................
 4e40 d8020000 00000100 e00c0080 00000000  ................
 4e50 00000000 00000000 e0020000 00000100  ................
 4e60 040d0080 00000000 00000000 00000000  ................
 4e70 e8020000 00000100 280d0080 00000000  ........(.......
 4e80 00000000 00000000 f0020000 00000100  ................
 4e90 4c0d0080 00000000 00000000 00000000  L...............
 4ea0 f8020000 00000100 700d0080 00000000  ........p.......
 4eb0 00000000 00000000 00030000 00000100  ................
 4ec0 940d0080 00000000 00000000 00000000  ................
 4ed0 08030000 00000100 b80d0080 00000000  ................
 4ee0 00000000 00000000 10030000 00000100  ................
 4ef0 dc0d0080 00000000 00000000 00000000  ................
 4f00 18030000 00000100 000e0080 00000000  ................
 4f10 00000000 00000000 20030000 00000100  ........ .......
 4f20 240e0080 00000000 00000000 00000000  $...............
 4f30 28030000 00000100 480e0080 00000000  (.......H.......
 4f40 00000000 00000000 30030000 00000100  ........0.......
 4f50 6c0e0080 00000000 00000000 00000000  l...............
 4f60 38030000 00000100 900e0080 00000000  8...............
 4f70 00000000 00000000 40030000 00000100  ........@.......
 4f80 b40e0080 00000000 00000000 00000000  ................
 4f90 48030000 00000100 ec0e0080 00000000  H...............
 4fa0 00000000 00000000 50030000 00000100  ........P.......
 4fb0 240f0080 00000000 00000000 00000000  $...............
 4fc0 58030000 00000100 400f0080 00000000  X.......@.......
 4fd0 00000000 00000000 60030000 00000100  ........`.......
 4fe0 5c0f0080 00000000 00000000 00000000  \...............
 4ff0 68030000 00000100 780f0080 00000000  h.......x.......
 5000 00000000 00000000 70030000 00000100  ........p.......
 5010 940f0080 00000000 00000000 00000000  ................
 5020 78030000 00000100 b00f0080 00000000  x...............
 5030 00000000 00000000 80030000 00000100  ................
 5040 cc0f0080 00000000 00000000 00000000  ................
 5050 88030000 00000100 e80f0080 00000000  ................
 5060 00000000 00000000 90030000 00000100  ................
 5070 04100080 00000000 00000000 00000000  ................
 5080 98030000 00000100 20100080 00000000  ........ .......
 5090 00000000 00000000 a0030000 00000100  ................
 50a0 3c100080 00000000 00000000 00000000  <...............
 50b0 a8030000 00000100 60100080 00000000  ........`.......
 50c0 00000000 00000000 b0030000 00000100  ................
 50d0 84100080 00000000 00000000 00000000  ................
 50e0 b8030000 00000100 a8100080 00000000  ................
 50f0 00000000 00000000 c0030000 00000100  ................
 5100 cc100080 00000000 00000000 00000000  ................
 5110 c8030000 00000100 f0100080 00000000  ................
 5120 00000000 00000000 d0030000 00000100  ................
 5130 14110080 00000000 00000000 00000000  ................
 5140 d9030000 00000100 38110080 00000000  ........8.......
 5150 00000000 00000000 e2030000 00000100  ................
 5160 5c110080 00000000 00000000 00000000  \...............
 5170 eb030000 00000100 80110080 00000000  ................
 5180 00000000 00000000 f4030000 00000100  ................
 5190 a4110080 00000000 00000000 00000000  ................
 51a0 fd030000 00000100 c8110080 00000000  ................
 51b0 00000000 00000000 06040000 00000100  ................
 51c0 ec110080 00000000 00000000 00000000  ................
 51d0 0f040000 00000100 10120080 00000000  ................
 51e0 00000000 00000000 18040000 00000100  ................
 51f0 34120080 00000000 00000000 00000000  4...............
 5200 21040000 00000100 58120080 00000000  !.......X.......
 5210 00000000 00000000 2a040000 00000100  ........*.......
 5220 7c120080 00000000 00000000 00000000  |...............
 5230 33040000 00000100 a0120080 00000000  3...............
 5240 00000000 00000000 3c040000 00000100  ........<.......
 5250 c4120080 00000000 00000000 00000000  ................
 5260 45040000 00000100 e8120080 00000000  E...............
 5270 00000000 00000000 4e040000 00000100  ........N.......
 5280 0c130080 00000000 00000000 00000000  ................
 5290 57040000 00000100 30130080 00000000  W.......0.......
 52a0 00000000 00000000 60040000 00000100  ........`.......
 52b0 54130080 00000000 00000000 00000000  T...............
 52c0 69040000 00000100 78130080 00000000  i.......x.......
 52d0 00000000 00000000 72040000 00000100  ........r.......
 52e0 9c130080 00000000 00000000 00000000  ................
 52f0 7b040000 00000100 c0130080 00000000  {...............
 5300 00000000 00000000 84040000 00000100  ................
 5310 e4130080 00000000 00000000 00000000  ................
 5320 8d040000 00000100 08140080 00000000  ................
 5330 00000000 00000000 96040000 00000100  ................
 5340 2c140080 00000000 00000000 00000000  ,...............
 5350 9f040000 00000100 50140080 00000000  ........P.......
 5360 00000000 00000000 a8040000 00000100  ................
 5370 74140080 00000000 00000000 00000000  t...............
 5380 b1040000 00000100 98140080 00000000  ................
 5390 00000000 00000000 ba040000 00000100  ................
 53a0 bc140080 00000000 00000000 00000000  ................
 53b0 c3040000 00000100 e0140080 00000000  ................
 53c0 00000000 00000000 cc040000 00000100  ................
 53d0 04150080 00000000 00000000 00000000  ................
 53e0 d5040000 00000100 28150080 00000000  ........(.......
 53f0 00000000 00000000 de040000 00000100  ................
 5400 4c150080 00000000 00000000 00000000  L...............
 5410 e7040000 00000100 70150080 00000000  ........p.......
 5420 00000000 00000000 f0040000 00000100  ................
 5430 94150080 00000000 00000000 00000000  ................
 5440 f9040000 00000100 e8150080 00000000  ................
 5450 00000000 00000000 06050000 00000100  ................
 5460 b4150080 00000000 00000000 00000000  ................
 5470 12050000 00000300 00200080 00000000  ......... ......
 5480 00000000 00000000 1e050000 00000300  ................
 5490 10200080 00000000 00000000 00000000  . ..............
 54a0 2b050000 00000300 00300080 00000000  +........0......
 54b0 00000000 00000000 3c050000 00000300  ........<.......
 54c0 00300080 00000000 00000000 00000000  .0..............
 54d0 4d050000 00000300 08300080 00000000  M........0......
 54e0 00000000 00000000 5c050000 00000300  ........\.......
 54f0 30340080 00000000 00000000 00000000  04..............
 5500 6b050000 00000300 38340080 00000000  k.......84......
 5510 00000000 00000000 7a050000 0400f1ff  ........z.......
 5520 00000000 00000000 00000000 00000000  ................
 5530 09000000 00000100 10160080 00000000  ................
 5540 00000000 00000000 09000000 00000100  ................
 5550 1c160080 00000000 00000000 00000000  ................
 5560 80050000 01000200 40160080 00000000  ........@.......
 5570 01000000 00000000 89050000 12020100  ................
 5580 1c160080 00000000 20000000 00000000  ........ .......
 5590 93050000 10000300 00c00080 00000000  ................
 55a0 00000000 00000000 a2050000 10000300  ................
 55b0 40340080 00000000 00000000 00000000  @4..............
 55c0 b0050000 10000100 3c160080 00000000  ........<.......
 55d0 00000000 00000000 b7050000 1000f1ff  ................
 55e0 00000080 00000000 00000000 00000000  ................
 55f0 c3050000 10000300 40340080 00000000  ........@4......
 5600 00000000 00000000 ce050000 10000300  ................
 5610 40340080 00000000 00000000 00000000  @4..............
 5620 d4050000 10000300 00c00080 00000000  ................
 5630 00000000 00000000 e0050000 10000300  ................
 5640 00400080 00000000 00000000 00000000  .@..............
 5650 eb050000 10000100 40000080 00000000  ........@.......
 5660 00000000 00000000 6d060000 10000300  ........m.......
 5670 00c00080 00000000 00000000 00000000  ................
 5680 b1050000 10000100 3c160080 00000000  ........<.......
 5690 00000000 00000000 fe050000 10000300  ................
 56a0 00300080 00000000 00000000 00000000  .0..............
 56b0 bc050000 12000100 00000080 00000000  ................
 56c0 00000000 00000000 0e060000 1000f1ff  ................
 56d0 00000000 00000000 00000000 00000000  ................
 56e0 1c060000 10000100 40000080 00000000  ........@.......
 56f0 00000000 00000000 28060000 10000100  ........(.......
 5700 b0150080 00000000 00000000 00000000  ................
 5710 38060000 10000100 20040080 00000000  8....... .......
 5720 00000000 00000000 4a060000 12020100  ........J.......
 5730 10000080 00000000 14000000 00000000  ................
 5740 4f060000 10000300 00200080 00000000  O........ ......
 5750 00000000 00000000 61060000 10000300  ........a.......
 5760 00300080 00000000 00000000 00000000  .0..............
 5770 18050000 10000300 40340080 00000000  ........@4......
 5780 00000000 00000000 71060000 10000100  ........q.......
 5790 b0150080 00000000 00000000 00000000  ................
 57a0 6c060000 10000300 00c00080 00000000  l...............
 57b0 00000000 00000000 81060000 12020100  ................
 57c0 10160080 00000000 0c000000 00000000  ................
 57d0 00737461 72742e6f 00247800 6d61696e  .start.o.$x.main
 57e0 2e630073 682d616c 69676e2d 30312e6f  .c.sh-align-01.o
 57f0 004d4d4f 44455f53 49470053 4d4f4445  .MMODE_SIG.SMODE
 5800 5f534947 00564d4f 44455f53 49470069  _SIG.VMODE_SIG.i
 5810 6d6d7800 65646765 31006564 67653200  mmx.edge1.edge2.
 5820 666e6431 00666e64 3200696d 6d650070  fnd1.fnd2.imme.p
 5830 6f730061 6273696d 6d006372 7900696d  os.absimm.cry.im
 5840 6d313200 6576656e 00637279 6800696d  m12.even.cryh.im
 5850 6d787368 00696d6d 31327368 00637279  mxsh.imm12sh.cry
 5860 73680061 6273696d 6d736800 7369676e  sh.absimmsh.sign
 5870 61747572 655f7837 5f310069 6e73745f  ature_x7_1.inst_
 5880 3000696e 73745f31 00696e73 745f3200  0.inst_1.inst_2.
 5890 696e7374 5f330069 6e73745f 3400696e  inst_3.inst_4.in
 58a0 73745f35 00696e73 745f3600 696e7374  st_5.inst_6.inst
 58b0 5f370069 6e73745f 3800696e 73745f39  _7.inst_8.inst_9
 58c0 00696e73 745f3130 00696e73 745f3131  .inst_10.inst_11
 58d0 00696e73 745f3132 00696e73 745f3133  .inst_12.inst_13
 58e0 00696e73 745f3134 00696e73 745f3135  .inst_14.inst_15
 58f0 00696e73 745f3136 00696e73 745f3137  .inst_16.inst_17
 5900 00696e73 745f3138 00696e73 745f3139  .inst_18.inst_19
 5910 00696e73 745f3230 00736967 6e617475  .inst_20.signatu
 5920 72655f78 315f3000 696e7374 5f323100  re_x1_0.inst_21.
 5930 696e7374 5f323200 696e7374 5f323300  inst_22.inst_23.
 5940 696e7374 5f323400 696e7374 5f323500  inst_24.inst_25.
 5950 696e7374 5f323600 696e7374 5f323700  inst_26.inst_27.
 5960 696e7374 5f323800 696e7374 5f323900  inst_28.inst_29.
 5970 696e7374 5f333000 696e7374 5f333100  inst_30.inst_31.
 5980 696e7374 5f333200 696e7374 5f333300  inst_32.inst_33.
 5990 696e7374 5f333400 696e7374 5f333500  inst_34.inst_35.
 59a0 696e7374 5f333600 696e7374 5f333700  inst_36.inst_37.
 59b0 696e7374 5f333800 696e7374 5f333900  inst_38.inst_39.
 59c0 696e7374 5f343000 696e7374 5f343100  inst_40.inst_41.
 59d0 696e7374 5f343200 696e7374 5f343300  inst_42.inst_43.
 59e0 696e7374 5f343400 696e7374 5f343500  inst_44.inst_45.
 59f0 696e7374 5f343600 696e7374 5f343700  inst_46.inst_47.
 5a00 696e7374 5f343800 696e7374 5f343900  inst_48.inst_49.
 5a10 696e7374 5f353000 696e7374 5f353100  inst_50.inst_51.
 5a20 696e7374 5f353200 696e7374 5f353300  inst_52.inst_53.
 5a30 696e7374 5f353400 696e7374 5f353500  inst_54.inst_55.
 5a40 696e7374 5f353600 696e7374 5f353700  inst_56.inst_57.
 5a50 696e7374 5f353800 696e7374 5f353900  inst_58.inst_59.
 5a60 696e7374 5f363000 696e7374 5f363100  inst_60.inst_61.
 5a70 696e7374 5f363200 696e7374 5f363300  inst_62.inst_63.
 5a80 696e7374 5f363400 696e7374 5f363500  inst_64.inst_65.
 5a90 696e7374 5f363600 696e7374 5f363700  inst_66.inst_67.
 5aa0 696e7374 5f363800 696e7374 5f363900  inst_68.inst_69.
 5ab0 696e7374 5f373000 696e7374 5f373100  inst_70.inst_71.
 5ac0 696e7374 5f373200 696e7374 5f373300  inst_72.inst_73.
 5ad0 696e7374 5f373400 696e7374 5f373500  inst_74.inst_75.
 5ae0 696e7374 5f373600 696e7374 5f373700  inst_76.inst_77.
 5af0 696e7374 5f373800 696e7374 5f373900  inst_78.inst_79.
 5b00 696e7374 5f383000 696e7374 5f383100  inst_80.inst_81.
 5b10 696e7374 5f383200 696e7374 5f383300  inst_82.inst_83.
 5b20 696e7374 5f383400 696e7374 5f383500  inst_84.inst_85.
 5b30 696e7374 5f383600 696e7374 5f383700  inst_86.inst_87.
 5b40 696e7374 5f383800 696e7374 5f383900  inst_88.inst_89.
 5b50 696e7374 5f393000 696e7374 5f393100  inst_90.inst_91.
 5b60 696e7374 5f393200 696e7374 5f393300  inst_92.inst_93.
 5b70 696e7374 5f393400 696e7374 5f393500  inst_94.inst_95.
 5b80 696e7374 5f393600 696e7374 5f393700  inst_96.inst_97.
 5b90 696e7374 5f393800 696e7374 5f393900  inst_98.inst_99.
 5ba0 696e7374 5f313030 00696e73 745f3130  inst_100.inst_10
 5bb0 3100696e 73745f31 30320069 6e73745f  1.inst_102.inst_
 5bc0 31303300 696e7374 5f313034 00696e73  103.inst_104.ins
 5bd0 745f3130 3500696e 73745f31 30360069  t_105.inst_106.i
 5be0 6e73745f 31303700 696e7374 5f313038  nst_107.inst_108
 5bf0 00696e73 745f3130 3900696e 73745f31  .inst_109.inst_1
 5c00 31300069 6e73745f 31313100 696e7374  10.inst_111.inst
 5c10 5f313132 00696e73 745f3131 3300696e  _112.inst_113.in
 5c20 73745f31 31340069 6e73745f 31313500  st_114.inst_115.
 5c30 696e7374 5f313136 00696e73 745f3131  inst_116.inst_11
 5c40 3700696e 73745f31 31380069 6e73745f  7.inst_118.inst_
 5c50 31313900 696e7374 5f313230 00696e73  119.inst_120.ins
 5c60 745f3132 3100696e 73745f31 32320069  t_121.inst_122.i
 5c70 6e73745f 31323300 696e7374 5f313234  nst_123.inst_124
 5c80 00696e73 745f3132 3500696e 73745f31  .inst_125.inst_1
 5c90 32360069 6e73745f 31323700 696e7374  26.inst_127.inst
 5ca0 5f313238 00696e73 745f3132 3900696e  _128.inst_129.in
 5cb0 73745f31 33300069 6e73745f 31333100  st_130.inst_131.
 5cc0 696e7374 5f313332 00657869 745f636c  inst_132.exit_cl
 5cd0 65616e75 70006162 6f72745f 74657374  eanup.abort_test
 5ce0 73007276 74657374 5f646174 61006d74  s.rvtest_data.mt
 5cf0 7261705f 73696770 74720072 76746573  rap_sigptr.rvtes
 5d00 745f7369 675f6265 67696e00 7369675f  t_sig_begin.sig_
 5d10 62656769 6e5f6361 6e617279 00736967  begin_canary.sig
 5d20 6e617475 72655f78 375f3000 7369675f  nature_x7_0.sig_
 5d30 656e645f 63616e61 72790072 76746573  end_canary.rvtes
 5d40 745f7369 675f656e 64007472 6d2e6300  t_sig_end.trm.c.
 5d50 6d61696e 61726773 005f7472 6d5f696e  mainargs._trm_in
 5d60 6974005f 73746163 6b5f706f 696e7465  it._stack_pointe
 5d70 7200656e 645f7369 676e6174 75726500  r.end_signature.
 5d80 5f657465 7874005f 706d656d 5f737461  _etext._pmem_sta
 5d90 7274005f 6273735f 73746172 74006564  rt._bss_start.ed
 5da0 61746100 5f686561 705f7374 61727400  ata._heap_start.
 5db0 5f737461 636b5f74 6f700072 76746573  _stack_top.rvtes
 5dc0 745f656e 7472795f 706f696e 74006265  t_entry_point.be
 5dd0 67696e5f 7369676e 61747572 65005f65  gin_signature._e
 5de0 6e747279 5f6f6666 73657400 72767465  ntry_offset.rvte
 5df0 73745f69 6e697400 72767465 73745f63  st_init.rvtest_c
 5e00 6f64655f 656e6400 72767465 73745f63  ode_end.rvtest_c
 5e10 6f64655f 62656769 6e006d61 696e0072  ode_begin.main.r
 5e20 76746573 745f6461 74615f62 6567696e  vtest_data_begin
 5e30 00727674 6573745f 64617461 5f656e64  .rvtest_data_end
 5e40 00636c65 616e7570 5f657069 6c6f6773  .cleanup_epilogs
 5e50 0068616c 7400002e 73796d74 6162002e  .halt...symtab..
 5e60 73747274 6162002e 73687374 72746162  strtab..shstrtab
 5e70 002e7465 7874002e 73726f64 6174612e  ..text..srodata.
 5e80 6d61696e 61726773 002e6461 7461002e  mainargs..data..
 5e90 636f6d6d 656e7400 2e726973 63762e61  comment..riscv.a
 5ea0 74747269 62757465 73000000 00000000  ttributes.......
 5eb0 00000000 00000000 00000000 00000000  ................
 5ec0 00000000 00000000 00000000 00000000  ................
 5ed0 00000000 00000000 00000000 00000000  ................
 5ee0 00000000 00000000 00000000 00000000  ................
 5ef0 1b000000 01000000 06000000 00000000  ................
 5f00 00000080 00000000 00100000 00000000  ................
 5f10 3c160000 00000000 00000000 00000000  <...............
 5f20 20000000 00000000 00000000 00000000   ...............
 5f30 21000000 01000000 02000000 00000000  !...............
 5f40 40160080 00000000 40260000 00000000  @.......@&......
 5f50 01000000 00000000 00000000 00000000  ................
 5f60 08000000 00000000 00000000 00000000  ................
 5f70 33000000 01000000 03000000 00000000  3...............
 5f80 00200080 00000000 00300000 00000000  . .......0......
 5f90 40140000 00000000 00000000 00000000  @...............
 5fa0 00100000 00000000 00000000 00000000  ................
 5fb0 39000000 01000000 30000000 00000000  9.......0.......
 5fc0 00000000 00000000 40440000 00000000  ........@D......
 5fd0 26000000 00000000 00000000 00000000  &...............
 5fe0 01000000 00000000 01000000 00000000  ................
 5ff0 42000000 03000070 00000000 00000000  B......p........
 6000 00000000 00000000 66440000 00000000  ........fD......
 6010 2e000000 00000000 00000000 00000000  ................
 6020 01000000 00000000 00000000 00000000  ................
 6030 01000000 02000000 00000000 00000000  ................
 6040 00000000 00000000 98440000 00000000  .........D......
 6050 38130000 00000000 07000000 b4000000  8...............
 6060 08000000 00000000 18000000 00000000  ................
 6070 09000000 03000000 00000000 00000000  ................
 6080 00000000 00000000 d0570000 00000000  .........W......
 6090 86060000 00000000 00000000 00000000  ................
 60a0 01000000 00000000 00000000 00000000  ................
 60b0 11000000 03000000 00000000 00000000  ................
 60c0 00000000 00000000 565e0000 00000000  ........V^......
 60d0 54000000 00000000 00000000 00000000  T...............
 60e0 01000000 00000000 00000000 00000000  ................

Disassembly of section .data:

0000000000001000 <.data+0x1000>:
    1000:	00000413          	addi	x8,x0,0
    1004:	0000c117          	auipc	x2,0xc
    1008:	ffc10113          	addi	x2,x2,-4 # 0xd000
    100c:	610010ef          	jal	x1,0x261c
    1010:	030000ef          	jal	x1,0x1040
    1014:	00100513          	addi	x10,x0,1
    1018:	5f8010ef          	jal	x1,0x2610
    101c:	00000513          	addi	x10,x0,0
    1020:	00008067          	jalr	x0,0(x1)
	...
    1040:	feedc0b7          	lui	x1,0xfeedc
    1044:	ead08093          	addi	x1,x1,-339 # 0xfffffffffeedbead
    1048:	00b09093          	slli	x1,x1,0xb
    104c:	7f708093          	addi	x1,x1,2039
    1050:	00b09093          	slli	x1,x1,0xb
    1054:	36f08093          	addi	x1,x1,879
    1058:	00a09093          	slli	x1,x1,0xa
    105c:	2ad08093          	addi	x1,x1,685
    1060:	ff76e137          	lui	x2,0xff76e
    1064:	f5610113          	addi	x2,x2,-170 # 0xffffffffff76df56
    1068:	00b11113          	slli	x2,x2,0xb
    106c:	7fb10113          	addi	x2,x2,2043
    1070:	00b11113          	slli	x2,x2,0xb
    1074:	5b710113          	addi	x2,x2,1463
    1078:	00a11113          	slli	x2,x2,0xa
    107c:	35610113          	addi	x2,x2,854
    1080:	7fbb71b7          	lui	x3,0x7fbb7
    1084:	fab18193          	addi	x3,x3,-85 # 0x7fbb6fab
    1088:	00b19193          	slli	x3,x3,0xb
    108c:	3fd18193          	addi	x3,x3,1021
    1090:	00b19193          	slli	x3,x3,0xb
    1094:	6db18193          	addi	x3,x3,1755
    1098:	00a19193          	slli	x3,x3,0xa
    109c:	3ab18193          	addi	x3,x3,939
    10a0:	bfddb237          	lui	x4,0xbfddb
    10a4:	7d520213          	addi	x4,x4,2005 # 0xffffffffbfddb7d5
    10a8:	00b21213          	slli	x4,x4,0xb
    10ac:	5fe20213          	addi	x4,x4,1534 # 0x5fe
    10b0:	00b21213          	slli	x4,x4,0xb
    10b4:	76d20213          	addi	x4,x4,1901 # 0x76d
    10b8:	00a21213          	slli	x4,x4,0xa
    10bc:	3d520213          	addi	x4,x4,981 # 0x3d5
    10c0:	dfeee2b7          	lui	x5,0xdfeee
    10c4:	bea28293          	addi	x5,x5,-1046 # 0xffffffffdfeedbea
    10c8:	00b29293          	slli	x5,x5,0xb
    10cc:	6ff28293          	addi	x5,x5,1791
    10d0:	00b29293          	slli	x5,x5,0xb
    10d4:	3b628293          	addi	x5,x5,950
    10d8:	00a29293          	slli	x5,x5,0xa
    10dc:	3ea28293          	addi	x5,x5,1002
    10e0:	6ff77337          	lui	x6,0x6ff77
    10e4:	df530313          	addi	x6,x6,-523 # 0x6ff76df5
    10e8:	00b31313          	slli	x6,x6,0xb
    10ec:	37f30313          	addi	x6,x6,895
    10f0:	00b31313          	slli	x6,x6,0xb
    10f4:	5db30313          	addi	x6,x6,1499
    10f8:	00a31313          	slli	x6,x6,0xa
    10fc:	1f530313          	addi	x6,x6,501
    1100:	b7fbb3b7          	lui	x7,0xb7fbb
    1104:	6fa38393          	addi	x7,x7,1786 # 0xffffffffb7fbb6fa
    1108:	00b39393          	slli	x7,x7,0xb
    110c:	5bf38393          	addi	x7,x7,1471
    1110:	00b39393          	slli	x7,x7,0xb
    1114:	6ed38393          	addi	x7,x7,1773
    1118:	00a39393          	slli	x7,x7,0xa
    111c:	2fa38393          	addi	x7,x7,762
    1120:	5bfde437          	lui	x8,0x5bfde
    1124:	b7d40413          	addi	x8,x8,-1155 # 0x5bfddb7d
    1128:	00b41413          	slli	x8,x8,0xb
    112c:	2df40413          	addi	x8,x8,735
    1130:	00b41413          	slli	x8,x8,0xb
    1134:	77640413          	addi	x8,x8,1910
    1138:	00a41413          	slli	x8,x8,0xa
    113c:	37d40413          	addi	x8,x8,893
    1140:	adfef4b7          	lui	x9,0xadfef
    1144:	dbe48493          	addi	x9,x9,-578 # 0xffffffffadfeedbe
    1148:	00b49493          	slli	x9,x9,0xb
    114c:	56f48493          	addi	x9,x9,1391
    1150:	00b49493          	slli	x9,x9,0xb
    1154:	7bb48493          	addi	x9,x9,1979
    1158:	00a49493          	slli	x9,x9,0xa
    115c:	1be48493          	addi	x9,x9,446
    1160:	56ff7537          	lui	x10,0x56ff7
    1164:	6df50513          	addi	x10,x10,1759 # 0x56ff76df
    1168:	00b51513          	slli	x10,x10,0xb
    116c:	2b750513          	addi	x10,x10,695
    1170:	00b51513          	slli	x10,x10,0xb
    1174:	7dd50513          	addi	x10,x10,2013
    1178:	00a51513          	slli	x10,x10,0xa
    117c:	2df50513          	addi	x10,x10,735
    1180:	ab7fc5b7          	lui	x11,0xab7fc
    1184:	b6f58593          	addi	x11,x11,-1169 # 0xffffffffab7fbb6f
    1188:	00b59593          	slli	x11,x11,0xb
    118c:	55b58593          	addi	x11,x11,1371
    1190:	00b59593          	slli	x11,x11,0xb
    1194:	7ee58593          	addi	x11,x11,2030
    1198:	00a59593          	slli	x11,x11,0xa
    119c:	36f58593          	addi	x11,x11,879
    11a0:	d5bfe637          	lui	x12,0xd5bfe
    11a4:	db760613          	addi	x12,x12,-585 # 0xffffffffd5bfddb7
    11a8:	00b61613          	slli	x12,x12,0xb
    11ac:	6ad60613          	addi	x12,x12,1709
    11b0:	00b61613          	slli	x12,x12,0xb
    11b4:	7f760613          	addi	x12,x12,2039
    11b8:	00a61613          	slli	x12,x12,0xa
    11bc:	1b760613          	addi	x12,x12,439
    11c0:	eadff6b7          	lui	x13,0xeadff
    11c4:	edb68693          	addi	x13,x13,-293 # 0xffffffffeadfeedb
    11c8:	00b69693          	slli	x13,x13,0xb
    11cc:	75668693          	addi	x13,x13,1878
    11d0:	00b69693          	slli	x13,x13,0xb
    11d4:	7fb68693          	addi	x13,x13,2043
    11d8:	00a69693          	slli	x13,x13,0xa
    11dc:	2db68693          	addi	x13,x13,731
    11e0:	f56ff737          	lui	x14,0xf56ff
    11e4:	76d70713          	addi	x14,x14,1901 # 0xfffffffff56ff76d
    11e8:	00b71713          	slli	x14,x14,0xb
    11ec:	7ab70713          	addi	x14,x14,1963
    11f0:	00b71713          	slli	x14,x14,0xb
    11f4:	3fd70713          	addi	x14,x14,1021
    11f8:	00a71713          	slli	x14,x14,0xa
    11fc:	36d70713          	addi	x14,x14,877
    1200:	fab807b7          	lui	x15,0xfab80
    1204:	bb678793          	addi	x15,x15,-1098 # 0xfffffffffab7fbb6
    1208:	00b79793          	slli	x15,x15,0xb
    120c:	7d578793          	addi	x15,x15,2005
    1210:	00b79793          	slli	x15,x15,0xb
    1214:	5fe78793          	addi	x15,x15,1534
    1218:	00a79793          	slli	x15,x15,0xa
    121c:	3b678793          	addi	x15,x15,950
    1220:	7d5c0837          	lui	x16,0x7d5c0
    1224:	ddb80813          	addi	x16,x16,-549 # 0x7d5bfddb
    1228:	00b81813          	slli	x16,x16,0xb
    122c:	3ea80813          	addi	x16,x16,1002
    1230:	00b81813          	slli	x16,x16,0xb
    1234:	6ff80813          	addi	x16,x16,1791
    1238:	00a81813          	slli	x16,x16,0xa
    123c:	1db80813          	addi	x16,x16,475
    1240:	beae08b7          	lui	x17,0xbeae0
    1244:	eed88893          	addi	x17,x17,-275 # 0xffffffffbeadfeed
    1248:	00b89893          	slli	x17,x17,0xb
    124c:	5f588893          	addi	x17,x17,1525
    1250:	00b89893          	slli	x17,x17,0xb
    1254:	37f88893          	addi	x17,x17,895
    1258:	00a89893          	slli	x17,x17,0xa
    125c:	2ed88893          	addi	x17,x17,749
    1260:	df570937          	lui	x18,0xdf570
    1264:	f7690913          	addi	x18,x18,-138 # 0xffffffffdf56ff76
    1268:	00b91913          	slli	x18,x18,0xb
    126c:	6fa90913          	addi	x18,x18,1786
    1270:	00b91913          	slli	x18,x18,0xb
    1274:	5bf90913          	addi	x18,x18,1471
    1278:	00a91913          	slli	x18,x18,0xa
    127c:	37690913          	addi	x18,x18,886
    1280:	6fab89b7          	lui	x19,0x6fab8
    1284:	fbb98993          	addi	x19,x19,-69 # 0x6fab7fbb
    1288:	00b99993          	slli	x19,x19,0xb
    128c:	37d98993          	addi	x19,x19,893
    1290:	00b99993          	slli	x19,x19,0xb
    1294:	2df98993          	addi	x19,x19,735
    1298:	00a99993          	slli	x19,x19,0xa
    129c:	3bb98993          	addi	x19,x19,955
    12a0:	b7d5ca37          	lui	x20,0xb7d5c
    12a4:	fdda0a13          	addi	x20,x20,-35 # 0xffffffffb7d5bfdd
    12a8:	00ba1a13          	slli	x20,x20,0xb
    12ac:	5bea0a13          	addi	x20,x20,1470
    12b0:	00ba1a13          	slli	x20,x20,0xb
    12b4:	56fa0a13          	addi	x20,x20,1391
    12b8:	00aa1a13          	slli	x20,x20,0xa
    12bc:	3dda0a13          	addi	x20,x20,989
    12c0:	dbeaeab7          	lui	x21,0xdbeae
    12c4:	feea8a93          	addi	x21,x21,-18 # 0xffffffffdbeadfee
    12c8:	00ba9a93          	slli	x21,x21,0xb
    12cc:	6dfa8a93          	addi	x21,x21,1759
    12d0:	00ba9a93          	slli	x21,x21,0xb
    12d4:	2b7a8a93          	addi	x21,x21,695
    12d8:	00aa9a93          	slli	x21,x21,0xa
    12dc:	3eea8a93          	addi	x21,x21,1006
    12e0:	6df57b37          	lui	x22,0x6df57
    12e4:	ff7b0b13          	addi	x22,x22,-9 # 0x6df56ff7
    12e8:	00bb1b13          	slli	x22,x22,0xb
    12ec:	36fb0b13          	addi	x22,x22,879
    12f0:	00bb1b13          	slli	x22,x22,0xb
    12f4:	55bb0b13          	addi	x22,x22,1371
    12f8:	00ab1b13          	slli	x22,x22,0xa
    12fc:	3f7b0b13          	addi	x22,x22,1015
    1300:	b6fabbb7          	lui	x23,0xb6fab
    1304:	7fbb8b93          	addi	x23,x23,2043 # 0xffffffffb6fab7fb
    1308:	00bb9b93          	slli	x23,x23,0xb
    130c:	5b7b8b93          	addi	x23,x23,1463
    1310:	00bb9b93          	slli	x23,x23,0xb
    1314:	6adb8b93          	addi	x23,x23,1709
    1318:	00ab9b93          	slli	x23,x23,0xa
    131c:	3fbb8b93          	addi	x23,x23,1019
    1320:	db7d6c37          	lui	x24,0xdb7d6
    1324:	bfdc0c13          	addi	x24,x24,-1027 # 0xffffffffdb7d5bfd
    1328:	00bc1c13          	slli	x24,x24,0xb
    132c:	6dbc0c13          	addi	x24,x24,1755
    1330:	00bc1c13          	slli	x24,x24,0xb
    1334:	756c0c13          	addi	x24,x24,1878
    1338:	00ac1c13          	slli	x24,x24,0xa
    133c:	3fdc0c13          	addi	x24,x24,1021
    1340:	edbebcb7          	lui	x25,0xedbeb
    1344:	dfec8c93          	addi	x25,x25,-514 # 0xffffffffedbeadfe
    1348:	00bc9c93          	slli	x25,x25,0xb
    134c:	76dc8c93          	addi	x25,x25,1901
    1350:	00bc9c93          	slli	x25,x25,0xb
    1354:	7abc8c93          	addi	x25,x25,1963
    1358:	00ac9c93          	slli	x25,x25,0xa
    135c:	1fec8c93          	addi	x25,x25,510
    1360:	76df5d37          	lui	x26,0x76df5
    1364:	6ffd0d13          	addi	x26,x26,1791 # 0x76df56ff
    1368:	00bd1d13          	slli	x26,x26,0xb
    136c:	3b6d0d13          	addi	x26,x26,950
    1370:	00bd1d13          	slli	x26,x26,0xb
    1374:	7d5d0d13          	addi	x26,x26,2005
    1378:	00ad1d13          	slli	x26,x26,0xa
    137c:	2ffd0d13          	addi	x26,x26,767
    1380:	bb6fbdb7          	lui	x27,0xbb6fb
    1384:	b7fd8d93          	addi	x27,x27,-1153 # 0xffffffffbb6fab7f
    1388:	00bd9d93          	slli	x27,x27,0xb
    138c:	5dbd8d93          	addi	x27,x27,1499
    1390:	00bd9d93          	slli	x27,x27,0xb
    1394:	3ead8d93          	addi	x27,x27,1002
    1398:	00ad9d93          	slli	x27,x27,0xa
    139c:	37fd8d93          	addi	x27,x27,895
    13a0:	ddb7de37          	lui	x28,0xddb7d
    13a4:	5bfe0e13          	addi	x28,x28,1471 # 0xffffffffddb7d5bf
    13a8:	00be1e13          	slli	x28,x28,0xb
    13ac:	6ede0e13          	addi	x28,x28,1773
    13b0:	00be1e13          	slli	x28,x28,0xb
    13b4:	5f5e0e13          	addi	x28,x28,1525
    13b8:	00ae1e13          	slli	x28,x28,0xa
    13bc:	1bfe0e13          	addi	x28,x28,447
    13c0:	eedbfeb7          	lui	x29,0xeedbf
    13c4:	adfe8e93          	addi	x29,x29,-1313 # 0xffffffffeedbeadf
    13c8:	00be9e93          	slli	x29,x29,0xb
    13cc:	776e8e93          	addi	x29,x29,1910
    13d0:	00be9e93          	slli	x29,x29,0xb
    13d4:	6fae8e93          	addi	x29,x29,1786
    13d8:	00ae9e93          	slli	x29,x29,0xa
    13dc:	2dfe8e93          	addi	x29,x29,735
    13e0:	f76dff37          	lui	x30,0xf76df
    13e4:	56ff0f13          	addi	x30,x30,1391 # 0xfffffffff76df56f
    13e8:	00bf1f13          	slli	x30,x30,0xb
    13ec:	7bbf0f13          	addi	x30,x30,1979
    13f0:	00bf1f13          	slli	x30,x30,0xb
    13f4:	37df0f13          	addi	x30,x30,893
    13f8:	00af1f13          	slli	x30,x30,0xa
    13fc:	16ff0f13          	addi	x30,x30,367
    1400:	fbb70fb7          	lui	x31,0xfbb70
    1404:	ab7f8f93          	addi	x31,x31,-1353 # 0xfffffffffbb6fab7
    1408:	00bf9f93          	slli	x31,x31,0xb
    140c:	7ddf8f93          	addi	x31,x31,2013
    1410:	00bf9f93          	slli	x31,x31,0xb
    1414:	5bef8f93          	addi	x31,x31,1470
    1418:	00af9f93          	slli	x31,x31,0xa
    141c:	2b7f8f93          	addi	x31,x31,695
    1420:	00003397          	auipc	x7,0x3
    1424:	be838393          	addi	x7,x7,-1048 # 0x4008
    1428:	00000013          	addi	x0,x0,0
    142c:	00000013          	addi	x0,x0,0
    1430:	00000013          	addi	x0,x0,0
    1434:	00000013          	addi	x0,x0,0
    1438:	00000013          	addi	x0,x0,0
    143c:	00000013          	addi	x0,x0,0
    1440:	fff00513          	addi	x10,x0,-1
    1444:	03f51513          	slli	x10,x10,0x3f
    1448:	00038e93          	addi	x29,x7,0
    144c:	00200493          	addi	x9,x0,2
    1450:	409e8eb3          	sub	x29,x29,x9
    1454:	00ae9123          	sh	x10,2(x29)
    1458:	00000013          	addi	x0,x0,0
    145c:	00000013          	addi	x0,x0,0
    1460:	00000713          	addi	x14,x0,0
    1464:	00838e13          	addi	x28,x7,8
    1468:	00900493          	addi	x9,x0,9
    146c:	409e0e33          	sub	x28,x28,x9
    1470:	00ee14a3          	sh	x14,9(x28)
    1474:	00000013          	addi	x0,x0,0
    1478:	00000013          	addi	x0,x0,0
    147c:	fff00413          	addi	x8,x0,-1
    1480:	00145413          	srli	x8,x8,0x1
    1484:	01038813          	addi	x16,x7,16
    1488:	08000493          	addi	x9,x0,128
    148c:	40980833          	sub	x16,x16,x9
    1490:	08881023          	sh	x8,128(x16)
    1494:	00000013          	addi	x0,x0,0
    1498:	00000013          	addi	x0,x0,0
    149c:	00100813          	addi	x16,x0,1
    14a0:	01838f93          	addi	x31,x7,24
    14a4:	00500493          	addi	x9,x0,5
    14a8:	409f8fb3          	sub	x31,x31,x9
    14ac:	010f92a3          	sh	x16,5(x31)
    14b0:	00000013          	addi	x0,x0,0
    14b4:	00000013          	addi	x0,x0,0
    14b8:	00000013          	addi	x0,x0,0
    14bc:	02038093          	addi	x1,x7,32
    14c0:	7ff00493          	addi	x9,x0,2047
    14c4:	409080b3          	sub	x1,x1,x9
    14c8:	7e009fa3          	sh	x0,2047(x1)
    14cc:	00000013          	addi	x0,x0,0
    14d0:	00000013          	addi	x0,x0,0
    14d4:	00100793          	addi	x15,x0,1
    14d8:	02a79793          	slli	x15,x15,0x2a
    14dc:	fff7c793          	xori	x15,x15,-1
    14e0:	02a38113          	addi	x2,x7,42
    14e4:	10000493          	addi	x9,x0,256
    14e8:	40910133          	sub	x2,x2,x9
    14ec:	10f11023          	sh	x15,256(x2)
    14f0:	00000013          	addi	x0,x0,0
    14f4:	00000013          	addi	x0,x0,0
    14f8:	fff00293          	addi	x5,x0,-1
    14fc:	03f29293          	slli	x5,x5,0x3f
    1500:	03238313          	addi	x6,x7,50
    1504:	ffd00493          	addi	x9,x0,-3
    1508:	40930333          	sub	x6,x6,x9
    150c:	fe531ea3          	sh	x5,-3(x6)
    1510:	00000013          	addi	x0,x0,0
    1514:	00000013          	addi	x0,x0,0
    1518:	00100113          	addi	x2,x0,1
    151c:	02911113          	slli	x2,x2,0x29
    1520:	03a38513          	addi	x10,x7,58
    1524:	00600493          	addi	x9,x0,6
    1528:	40950533          	sub	x10,x10,x9
    152c:	00251323          	sh	x2,6(x10)
    1530:	00000013          	addi	x0,x0,0
    1534:	00000013          	addi	x0,x0,0
    1538:	00100c93          	addi	x25,x0,1
    153c:	035c9c93          	slli	x25,x25,0x35
    1540:	04238193          	addi	x3,x7,66
    1544:	7ff00493          	addi	x9,x0,2047
    1548:	409181b3          	sub	x3,x3,x9
    154c:	7f919fa3          	sh	x25,2047(x3)
    1550:	00000013          	addi	x0,x0,0
    1554:	00000013          	addi	x0,x0,0
    1558:	00100d13          	addi	x26,x0,1
    155c:	021d1d13          	slli	x26,x26,0x21
    1560:	04838c13          	addi	x24,x7,72
    1564:	00000493          	addi	x9,x0,0
    1568:	409c0c33          	sub	x24,x24,x9
    156c:	01ac1023          	sh	x26,0(x24)
    1570:	00000013          	addi	x0,x0,0
    1574:	00000013          	addi	x0,x0,0
    1578:	00200b93          	addi	x23,x0,2
    157c:	05038793          	addi	x15,x7,80
    1580:	20000493          	addi	x9,x0,512
    1584:	409787b3          	sub	x15,x15,x9
    1588:	21779023          	sh	x23,512(x15)
    158c:	00000013          	addi	x0,x0,0
    1590:	00000013          	addi	x0,x0,0
    1594:	00400193          	addi	x3,x0,4
    1598:	05838d93          	addi	x27,x7,88
    159c:	ff600493          	addi	x9,x0,-10
    15a0:	409d8db3          	sub	x27,x27,x9
    15a4:	fe3d9b23          	sh	x3,-10(x27)
    15a8:	00000013          	addi	x0,x0,0
    15ac:	00000013          	addi	x0,x0,0
    15b0:	00800f13          	addi	x30,x0,8
    15b4:	06038693          	addi	x13,x7,96
    15b8:	ff700493          	addi	x9,x0,-9
    15bc:	409686b3          	sub	x13,x13,x9
    15c0:	ffe69ba3          	sh	x30,-9(x13)
    15c4:	00000013          	addi	x0,x0,0
    15c8:	00000013          	addi	x0,x0,0
    15cc:	01000313          	addi	x6,x0,16
    15d0:	06838713          	addi	x14,x7,104
    15d4:	01000493          	addi	x9,x0,16
    15d8:	40970733          	sub	x14,x14,x9
    15dc:	00671823          	sh	x6,16(x14)
    15e0:	00000013          	addi	x0,x0,0
    15e4:	00000013          	addi	x0,x0,0
    15e8:	02000893          	addi	x17,x0,32
    15ec:	07038f13          	addi	x30,x7,112
    15f0:	f7f00493          	addi	x9,x0,-129
    15f4:	409f0f33          	sub	x30,x30,x9
    15f8:	f71f1fa3          	sh	x17,-129(x30)
    15fc:	00000013          	addi	x0,x0,0
    1600:	00000013          	addi	x0,x0,0
    1604:	04000b13          	addi	x22,x0,64
    1608:	07838993          	addi	x19,x7,120
    160c:	bff00493          	addi	x9,x0,-1025
    1610:	409989b3          	sub	x19,x19,x9
    1614:	bf699fa3          	sh	x22,-1025(x19)
    1618:	00000013          	addi	x0,x0,0
    161c:	00000013          	addi	x0,x0,0
    1620:	08000593          	addi	x11,x0,128
    1624:	08038613          	addi	x12,x7,128
    1628:	00500493          	addi	x9,x0,5
    162c:	40960633          	sub	x12,x12,x9
    1630:	00b612a3          	sh	x11,5(x12)
    1634:	00000013          	addi	x0,x0,0
    1638:	00000013          	addi	x0,x0,0
    163c:	10000093          	addi	x1,x0,256
    1640:	08838d13          	addi	x26,x7,136
    1644:	fef00493          	addi	x9,x0,-17
    1648:	409d0d33          	sub	x26,x26,x9
    164c:	fe1d17a3          	sh	x1,-17(x26)
    1650:	00000013          	addi	x0,x0,0
    1654:	00000013          	addi	x0,x0,0
    1658:	20000a13          	addi	x20,x0,512
    165c:	09038413          	addi	x8,x7,144
    1660:	80000493          	addi	x9,x0,-2048
    1664:	40940433          	sub	x8,x8,x9
    1668:	81441023          	sh	x20,-2048(x8)
    166c:	00000013          	addi	x0,x0,0
    1670:	00000013          	addi	x0,x0,0
    1674:	40000f93          	addi	x31,x0,1024
    1678:	09838213          	addi	x4,x7,152
    167c:	02000493          	addi	x9,x0,32
    1680:	40920233          	sub	x4,x4,x9
    1684:	03f21023          	sh	x31,32(x4) # 0x20
    1688:	00000013          	addi	x0,x0,0
    168c:	00000013          	addi	x0,x0,0
    1690:	00100913          	addi	x18,x0,1
    1694:	00b91913          	slli	x18,x18,0xb
    1698:	0a038b93          	addi	x23,x7,160
    169c:	00000113          	addi	x2,x0,0
    16a0:	402b8bb3          	sub	x23,x23,x2
    16a4:	012b9023          	sh	x18,0(x23)
    16a8:	00000013          	addi	x0,x0,0
    16ac:	00000013          	addi	x0,x0,0
    16b0:	00000013          	addi	x0,x0,0
    16b4:	00000013          	addi	x0,x0,0
    16b8:	00000013          	addi	x0,x0,0
    16bc:	00000013          	addi	x0,x0,0
    16c0:	00003097          	auipc	x1,0x3
    16c4:	9f008093          	addi	x1,x1,-1552 # 0x40b0
    16c8:	00000013          	addi	x0,x0,0
    16cc:	00000013          	addi	x0,x0,0
    16d0:	00000013          	addi	x0,x0,0
    16d4:	00000013          	addi	x0,x0,0
    16d8:	00000013          	addi	x0,x0,0
    16dc:	00000013          	addi	x0,x0,0
    16e0:	00100613          	addi	x12,x0,1
    16e4:	00c61613          	slli	x12,x12,0xc
    16e8:	00008493          	addi	x9,x1,0
    16ec:	00900113          	addi	x2,x0,9
    16f0:	402484b3          	sub	x9,x9,x2
    16f4:	00c494a3          	sh	x12,9(x9)
    16f8:	00000013          	addi	x0,x0,0
    16fc:	00000013          	addi	x0,x0,0
    1700:	00100213          	addi	x4,x0,1
    1704:	00d21213          	slli	x4,x4,0xd
    1708:	00808913          	addi	x18,x1,8
    170c:	20000113          	addi	x2,x0,512
    1710:	40290933          	sub	x18,x18,x2
    1714:	20491023          	sh	x4,512(x18)
    1718:	00000013          	addi	x0,x0,0
    171c:	00000013          	addi	x0,x0,0
    1720:	00100d93          	addi	x27,x0,1
    1724:	00ed9d93          	slli	x27,x27,0xe
    1728:	01008a13          	addi	x20,x1,16
    172c:	04000113          	addi	x2,x0,64
    1730:	402a0a33          	sub	x20,x20,x2
    1734:	05ba1023          	sh	x27,64(x20)
    1738:	00000013          	addi	x0,x0,0
    173c:	00000013          	addi	x0,x0,0
    1740:	00100a93          	addi	x21,x0,1
    1744:	00fa9a93          	slli	x21,x21,0xf
    1748:	01808393          	addi	x7,x1,24
    174c:	00000113          	addi	x2,x0,0
    1750:	402383b3          	sub	x7,x7,x2
    1754:	01539023          	sh	x21,0(x7)
    1758:	00000013          	addi	x0,x0,0
    175c:	00000013          	addi	x0,x0,0
    1760:	00100493          	addi	x9,x0,1
    1764:	01049493          	slli	x9,x9,0x10
    1768:	02008c93          	addi	x25,x1,32
    176c:	ff600113          	addi	x2,x0,-10
    1770:	402c8cb3          	sub	x25,x25,x2
    1774:	fe9c9b23          	sh	x9,-10(x25)
    1778:	00000013          	addi	x0,x0,0
    177c:	00000013          	addi	x0,x0,0
    1780:	00100993          	addi	x19,x0,1
    1784:	01199993          	slli	x19,x19,0x11
    1788:	02808a93          	addi	x21,x1,40
    178c:	ffd00113          	addi	x2,x0,-3
    1790:	402a8ab3          	sub	x21,x21,x2
    1794:	ff3a9ea3          	sh	x19,-3(x21)
    1798:	00000013          	addi	x0,x0,0
    179c:	00000013          	addi	x0,x0,0
    17a0:	00100e93          	addi	x29,x0,1
    17a4:	012e9e93          	slli	x29,x29,0x12
    17a8:	03008b13          	addi	x22,x1,48
    17ac:	dff00113          	addi	x2,x0,-513
    17b0:	402b0b33          	sub	x22,x22,x2
    17b4:	dfdb1fa3          	sh	x29,-513(x22)
    17b8:	00000013          	addi	x0,x0,0
    17bc:	00000013          	addi	x0,x0,0
    17c0:	00100393          	addi	x7,x0,1
    17c4:	01339393          	slli	x7,x7,0x13
    17c8:	03808893          	addi	x17,x1,56
    17cc:	ff800113          	addi	x2,x0,-8
    17d0:	402888b3          	sub	x17,x17,x2
    17d4:	fe789c23          	sh	x7,-8(x17)
    17d8:	00000013          	addi	x0,x0,0
    17dc:	00000013          	addi	x0,x0,0
    17e0:	00100693          	addi	x13,x0,1
    17e4:	01469693          	slli	x13,x13,0x14
    17e8:	04008293          	addi	x5,x1,64
    17ec:	ffd00113          	addi	x2,x0,-3
    17f0:	402282b3          	sub	x5,x5,x2
    17f4:	fed29ea3          	sh	x13,-3(x5)
    17f8:	00000013          	addi	x0,x0,0
    17fc:	00000013          	addi	x0,x0,0
    1800:	00100c13          	addi	x24,x0,1
    1804:	015c1c13          	slli	x24,x24,0x15
    1808:	04808593          	addi	x11,x1,72
    180c:	fdf00113          	addi	x2,x0,-33
    1810:	402585b3          	sub	x11,x11,x2
    1814:	fd859fa3          	sh	x24,-33(x11)
    1818:	00000013          	addi	x0,x0,0
    181c:	00000013          	addi	x0,x0,0
    1820:	00100e13          	addi	x28,x0,1
    1824:	016e1e13          	slli	x28,x28,0x16
    1828:	05008613          	addi	x12,x1,80
    182c:	ff800113          	addi	x2,x0,-8
    1830:	40260633          	sub	x12,x12,x2
    1834:	ffc61c23          	sh	x28,-8(x12)
    1838:	00000013          	addi	x0,x0,0
    183c:	00000013          	addi	x0,x0,0
    1840:	00100593          	addi	x11,x0,1
    1844:	01759593          	slli	x11,x11,0x17
    1848:	05808513          	addi	x10,x1,88
    184c:	02000113          	addi	x2,x0,32
    1850:	40250533          	sub	x10,x10,x2
    1854:	02b51023          	sh	x11,32(x10)
    1858:	00000013          	addi	x0,x0,0
    185c:	00000013          	addi	x0,x0,0
    1860:	00100593          	addi	x11,x0,1
    1864:	01859593          	slli	x11,x11,0x18
    1868:	06008513          	addi	x10,x1,96
    186c:	00600113          	addi	x2,x0,6
    1870:	40250533          	sub	x10,x10,x2
    1874:	00b51323          	sh	x11,6(x10)
    1878:	00000013          	addi	x0,x0,0
    187c:	00000013          	addi	x0,x0,0
    1880:	00100593          	addi	x11,x0,1
    1884:	01959593          	slli	x11,x11,0x19
    1888:	06808513          	addi	x10,x1,104
    188c:	40000113          	addi	x2,x0,1024
    1890:	40250533          	sub	x10,x10,x2
    1894:	40b51023          	sh	x11,1024(x10)
    1898:	00000013          	addi	x0,x0,0
    189c:	00000013          	addi	x0,x0,0
    18a0:	00100593          	addi	x11,x0,1
    18a4:	01a59593          	slli	x11,x11,0x1a
    18a8:	07008513          	addi	x10,x1,112
    18ac:	00700113          	addi	x2,x0,7
    18b0:	40250533          	sub	x10,x10,x2
    18b4:	00b513a3          	sh	x11,7(x10)
    18b8:	00000013          	addi	x0,x0,0
    18bc:	00000013          	addi	x0,x0,0
    18c0:	00100593          	addi	x11,x0,1
    18c4:	01b59593          	slli	x11,x11,0x1b
    18c8:	07808513          	addi	x10,x1,120
    18cc:	20000113          	addi	x2,x0,512
    18d0:	40250533          	sub	x10,x10,x2
    18d4:	20b51023          	sh	x11,512(x10)
    18d8:	00000013          	addi	x0,x0,0
    18dc:	00000013          	addi	x0,x0,0
    18e0:	00100593          	addi	x11,x0,1
    18e4:	01c59593          	slli	x11,x11,0x1c
    18e8:	08008513          	addi	x10,x1,128
    18ec:	00100113          	addi	x2,x0,1
    18f0:	40250533          	sub	x10,x10,x2
    18f4:	00b510a3          	sh	x11,1(x10)
    18f8:	00000013          	addi	x0,x0,0
    18fc:	00000013          	addi	x0,x0,0
    1900:	00100593          	addi	x11,x0,1
    1904:	01d59593          	slli	x11,x11,0x1d
    1908:	08808513          	addi	x10,x1,136
    190c:	80000113          	addi	x2,x0,-2048
    1910:	40250533          	sub	x10,x10,x2
    1914:	80b51023          	sh	x11,-2048(x10)
    1918:	00000013          	addi	x0,x0,0
    191c:	00000013          	addi	x0,x0,0
    1920:	00100593          	addi	x11,x0,1
    1924:	01e59593          	slli	x11,x11,0x1e
    1928:	09008513          	addi	x10,x1,144
    192c:	fbf00113          	addi	x2,x0,-65
    1930:	40250533          	sub	x10,x10,x2
    1934:	fab51fa3          	sh	x11,-65(x10)
    1938:	00000013          	addi	x0,x0,0
    193c:	00000013          	addi	x0,x0,0
    1940:	00100593          	addi	x11,x0,1
    1944:	01f59593          	slli	x11,x11,0x1f
    1948:	09808513          	addi	x10,x1,152
    194c:	00500113          	addi	x2,x0,5
    1950:	40250533          	sub	x10,x10,x2
    1954:	00b512a3          	sh	x11,5(x10)
    1958:	00000013          	addi	x0,x0,0
    195c:	00000013          	addi	x0,x0,0
    1960:	00100593          	addi	x11,x0,1
    1964:	02059593          	slli	x11,x11,0x20
    1968:	0a008513          	addi	x10,x1,160
    196c:	00700113          	addi	x2,x0,7
    1970:	40250533          	sub	x10,x10,x2
    1974:	00b513a3          	sh	x11,7(x10)
    1978:	00000013          	addi	x0,x0,0
    197c:	00000013          	addi	x0,x0,0
    1980:	00100593          	addi	x11,x0,1
    1984:	02259593          	slli	x11,x11,0x22
    1988:	0a808513          	addi	x10,x1,168
    198c:	7ff00113          	addi	x2,x0,2047
    1990:	40250533          	sub	x10,x10,x2
    1994:	7eb51fa3          	sh	x11,2047(x10)
    1998:	00000013          	addi	x0,x0,0
    199c:	00000013          	addi	x0,x0,0
    19a0:	00100593          	addi	x11,x0,1
    19a4:	02359593          	slli	x11,x11,0x23
    19a8:	0b008513          	addi	x10,x1,176
    19ac:	c0000113          	addi	x2,x0,-1024
    19b0:	40250533          	sub	x10,x10,x2
    19b4:	c0b51023          	sh	x11,-1024(x10)
    19b8:	00000013          	addi	x0,x0,0
    19bc:	00000013          	addi	x0,x0,0
    19c0:	00100593          	addi	x11,x0,1
    19c4:	02459593          	slli	x11,x11,0x24
    19c8:	0b808513          	addi	x10,x1,184
    19cc:	10000113          	addi	x2,x0,256
    19d0:	40250533          	sub	x10,x10,x2
    19d4:	10b51023          	sh	x11,256(x10)
    19d8:	00000013          	addi	x0,x0,0
    19dc:	00000013          	addi	x0,x0,0
    19e0:	00100593          	addi	x11,x0,1
    19e4:	02559593          	slli	x11,x11,0x25
    19e8:	0c008513          	addi	x10,x1,192
    19ec:	bff00113          	addi	x2,x0,-1025
    19f0:	40250533          	sub	x10,x10,x2
    19f4:	beb51fa3          	sh	x11,-1025(x10)
    19f8:	00000013          	addi	x0,x0,0
    19fc:	00000013          	addi	x0,x0,0
    1a00:	00100593          	addi	x11,x0,1
    1a04:	02659593          	slli	x11,x11,0x26
    1a08:	0c808513          	addi	x10,x1,200
    1a0c:	00000113          	addi	x2,x0,0
    1a10:	40250533          	sub	x10,x10,x2
    1a14:	00b51023          	sh	x11,0(x10)
    1a18:	00000013          	addi	x0,x0,0
    1a1c:	00000013          	addi	x0,x0,0
    1a20:	00100593          	addi	x11,x0,1
    1a24:	02759593          	slli	x11,x11,0x27
    1a28:	0d008513          	addi	x10,x1,208
    1a2c:	00400113          	addi	x2,x0,4
    1a30:	40250533          	sub	x10,x10,x2
    1a34:	00b51223          	sh	x11,4(x10)
    1a38:	00000013          	addi	x0,x0,0
    1a3c:	00000013          	addi	x0,x0,0
    1a40:	00100593          	addi	x11,x0,1
    1a44:	02859593          	slli	x11,x11,0x28
    1a48:	0d808513          	addi	x10,x1,216
    1a4c:	ffc00113          	addi	x2,x0,-4
    1a50:	40250533          	sub	x10,x10,x2
    1a54:	feb51e23          	sh	x11,-4(x10)
    1a58:	00000013          	addi	x0,x0,0
    1a5c:	00000013          	addi	x0,x0,0
    1a60:	00100593          	addi	x11,x0,1
    1a64:	02a59593          	slli	x11,x11,0x2a
    1a68:	0e008513          	addi	x10,x1,224
    1a6c:	fff00113          	addi	x2,x0,-1
    1a70:	40250533          	sub	x10,x10,x2
    1a74:	feb51fa3          	sh	x11,-1(x10)
    1a78:	00000013          	addi	x0,x0,0
    1a7c:	00000013          	addi	x0,x0,0
    1a80:	00100593          	addi	x11,x0,1
    1a84:	02b59593          	slli	x11,x11,0x2b
    1a88:	0e808513          	addi	x10,x1,232
    1a8c:	dff00113          	addi	x2,x0,-513
    1a90:	40250533          	sub	x10,x10,x2
    1a94:	deb51fa3          	sh	x11,-513(x10)
    1a98:	00000013          	addi	x0,x0,0
    1a9c:	00000013          	addi	x0,x0,0
    1aa0:	00100593          	addi	x11,x0,1
    1aa4:	02c59593          	slli	x11,x11,0x2c
    1aa8:	0f008513          	addi	x10,x1,240
    1aac:	dff00113          	addi	x2,x0,-513
    1ab0:	40250533          	sub	x10,x10,x2
    1ab4:	deb51fa3          	sh	x11,-513(x10)
    1ab8:	00000013          	addi	x0,x0,0
    1abc:	00000013          	addi	x0,x0,0
    1ac0:	00100593          	addi	x11,x0,1
    1ac4:	02d59593          	slli	x11,x11,0x2d
    1ac8:	0f808513          	addi	x10,x1,248
    1acc:	02000113          	addi	x2,x0,32
    1ad0:	40250533          	sub	x10,x10,x2
    1ad4:	02b51023          	sh	x11,32(x10)
    1ad8:	00000013          	addi	x0,x0,0
    1adc:	00000013          	addi	x0,x0,0
    1ae0:	00100593          	addi	x11,x0,1
    1ae4:	02e59593          	slli	x11,x11,0x2e
    1ae8:	10008513          	addi	x10,x1,256
    1aec:	00100113          	addi	x2,x0,1
    1af0:	40250533          	sub	x10,x10,x2
    1af4:	00b510a3          	sh	x11,1(x10)
    1af8:	00000013          	addi	x0,x0,0
    1afc:	00000013          	addi	x0,x0,0
    1b00:	00100593          	addi	x11,x0,1
    1b04:	02f59593          	slli	x11,x11,0x2f
    1b08:	10808513          	addi	x10,x1,264
    1b0c:	ffb00113          	addi	x2,x0,-5
    1b10:	40250533          	sub	x10,x10,x2
    1b14:	feb51da3          	sh	x11,-5(x10)
    1b18:	00000013          	addi	x0,x0,0
    1b1c:	00000013          	addi	x0,x0,0
    1b20:	00100593          	addi	x11,x0,1
    1b24:	03059593          	slli	x11,x11,0x30
    1b28:	11008513          	addi	x10,x1,272
    1b2c:	02000113          	addi	x2,x0,32
    1b30:	40250533          	sub	x10,x10,x2
    1b34:	02b51023          	sh	x11,32(x10)
    1b38:	00000013          	addi	x0,x0,0
    1b3c:	00000013          	addi	x0,x0,0
    1b40:	00100593          	addi	x11,x0,1
    1b44:	03159593          	slli	x11,x11,0x31
    1b48:	11808513          	addi	x10,x1,280
    1b4c:	f7f00113          	addi	x2,x0,-129
    1b50:	40250533          	sub	x10,x10,x2
    1b54:	f6b51fa3          	sh	x11,-129(x10)
    1b58:	00000013          	addi	x0,x0,0
    1b5c:	00000013          	addi	x0,x0,0
    1b60:	00100593          	addi	x11,x0,1
    1b64:	03259593          	slli	x11,x11,0x32
    1b68:	12008513          	addi	x10,x1,288
    1b6c:	eff00113          	addi	x2,x0,-257
    1b70:	40250533          	sub	x10,x10,x2
    1b74:	eeb51fa3          	sh	x11,-257(x10)
    1b78:	00000013          	addi	x0,x0,0
    1b7c:	00000013          	addi	x0,x0,0
    1b80:	00100593          	addi	x11,x0,1
    1b84:	03359593          	slli	x11,x11,0x33
    1b88:	12808513          	addi	x10,x1,296
    1b8c:	04000113          	addi	x2,x0,64
    1b90:	40250533          	sub	x10,x10,x2
    1b94:	04b51023          	sh	x11,64(x10)
    1b98:	00000013          	addi	x0,x0,0
    1b9c:	00000013          	addi	x0,x0,0
    1ba0:	00100593          	addi	x11,x0,1
    1ba4:	03459593          	slli	x11,x11,0x34
    1ba8:	13008513          	addi	x10,x1,304
    1bac:	00300113          	addi	x2,x0,3
    1bb0:	40250533          	sub	x10,x10,x2
    1bb4:	00b511a3          	sh	x11,3(x10)
    1bb8:	00000013          	addi	x0,x0,0
    1bbc:	00000013          	addi	x0,x0,0
    1bc0:	00100593          	addi	x11,x0,1
    1bc4:	03659593          	slli	x11,x11,0x36
    1bc8:	13808513          	addi	x10,x1,312
    1bcc:	00700113          	addi	x2,x0,7
    1bd0:	40250533          	sub	x10,x10,x2
    1bd4:	00b513a3          	sh	x11,7(x10)
    1bd8:	00000013          	addi	x0,x0,0
    1bdc:	00000013          	addi	x0,x0,0
    1be0:	00100593          	addi	x11,x0,1
    1be4:	03759593          	slli	x11,x11,0x37
    1be8:	14008513          	addi	x10,x1,320
    1bec:	00900113          	addi	x2,x0,9
    1bf0:	40250533          	sub	x10,x10,x2
    1bf4:	00b514a3          	sh	x11,9(x10)
    1bf8:	00000013          	addi	x0,x0,0
    1bfc:	00000013          	addi	x0,x0,0
    1c00:	00100593          	addi	x11,x0,1
    1c04:	03859593          	slli	x11,x11,0x38
    1c08:	14808513          	addi	x10,x1,328
    1c0c:	02000113          	addi	x2,x0,32
    1c10:	40250533          	sub	x10,x10,x2
    1c14:	02b51023          	sh	x11,32(x10)
    1c18:	00000013          	addi	x0,x0,0
    1c1c:	00000013          	addi	x0,x0,0
    1c20:	00100593          	addi	x11,x0,1
    1c24:	03959593          	slli	x11,x11,0x39
    1c28:	15008513          	addi	x10,x1,336
    1c2c:	00000113          	addi	x2,x0,0
    1c30:	40250533          	sub	x10,x10,x2
    1c34:	00b51023          	sh	x11,0(x10)
    1c38:	00000013          	addi	x0,x0,0
    1c3c:	00000013          	addi	x0,x0,0
    1c40:	00100593          	addi	x11,x0,1
    1c44:	03a59593          	slli	x11,x11,0x3a
    1c48:	15808513          	addi	x10,x1,344
    1c4c:	40000113          	addi	x2,x0,1024
    1c50:	40250533          	sub	x10,x10,x2
    1c54:	40b51023          	sh	x11,1024(x10)
    1c58:	00000013          	addi	x0,x0,0
    1c5c:	00000013          	addi	x0,x0,0
    1c60:	00100593          	addi	x11,x0,1
    1c64:	03b59593          	slli	x11,x11,0x3b
    1c68:	16008513          	addi	x10,x1,352
    1c6c:	ff600113          	addi	x2,x0,-10
    1c70:	40250533          	sub	x10,x10,x2
    1c74:	feb51b23          	sh	x11,-10(x10)
    1c78:	00000013          	addi	x0,x0,0
    1c7c:	00000013          	addi	x0,x0,0
    1c80:	00100593          	addi	x11,x0,1
    1c84:	03c59593          	slli	x11,x11,0x3c
    1c88:	16808513          	addi	x10,x1,360
    1c8c:	aaa00113          	addi	x2,x0,-1366
    1c90:	40250533          	sub	x10,x10,x2
    1c94:	aab51523          	sh	x11,-1366(x10)
    1c98:	00000013          	addi	x0,x0,0
    1c9c:	00000013          	addi	x0,x0,0
    1ca0:	00100593          	addi	x11,x0,1
    1ca4:	03d59593          	slli	x11,x11,0x3d
    1ca8:	17008513          	addi	x10,x1,368
    1cac:	01000113          	addi	x2,x0,16
    1cb0:	40250533          	sub	x10,x10,x2
    1cb4:	00b51823          	sh	x11,16(x10)
    1cb8:	00000013          	addi	x0,x0,0
    1cbc:	00000013          	addi	x0,x0,0
    1cc0:	00100593          	addi	x11,x0,1
    1cc4:	03e59593          	slli	x11,x11,0x3e
    1cc8:	17808513          	addi	x10,x1,376
    1ccc:	00200113          	addi	x2,x0,2
    1cd0:	40250533          	sub	x10,x10,x2
    1cd4:	00b51123          	sh	x11,2(x10)
    1cd8:	00000013          	addi	x0,x0,0
    1cdc:	00000013          	addi	x0,x0,0
    1ce0:	00100593          	addi	x11,x0,1
    1ce4:	03259593          	slli	x11,x11,0x32
    1ce8:	fff5c593          	xori	x11,x11,-1
    1cec:	18008513          	addi	x10,x1,384
    1cf0:	04000113          	addi	x2,x0,64
    1cf4:	40250533          	sub	x10,x10,x2
    1cf8:	04b51023          	sh	x11,64(x10)
    1cfc:	00000013          	addi	x0,x0,0
    1d00:	00000013          	addi	x0,x0,0
    1d04:	00100593          	addi	x11,x0,1
    1d08:	03359593          	slli	x11,x11,0x33
    1d0c:	fff5c593          	xori	x11,x11,-1
    1d10:	18808513          	addi	x10,x1,392
    1d14:	00200113          	addi	x2,x0,2
    1d18:	40250533          	sub	x10,x10,x2
    1d1c:	00b51123          	sh	x11,2(x10)
    1d20:	00000013          	addi	x0,x0,0
    1d24:	00000013          	addi	x0,x0,0
    1d28:	00100593          	addi	x11,x0,1
    1d2c:	03459593          	slli	x11,x11,0x34
    1d30:	fff5c593          	xori	x11,x11,-1
    1d34:	19008513          	addi	x10,x1,400
    1d38:	c0000113          	addi	x2,x0,-1024
    1d3c:	40250533          	sub	x10,x10,x2
    1d40:	c0b51023          	sh	x11,-1024(x10)
    1d44:	00000013          	addi	x0,x0,0
    1d48:	00000013          	addi	x0,x0,0
    1d4c:	00100593          	addi	x11,x0,1
    1d50:	03559593          	slli	x11,x11,0x35
    1d54:	fff5c593          	xori	x11,x11,-1
    1d58:	19808513          	addi	x10,x1,408
    1d5c:	bff00113          	addi	x2,x0,-1025
    1d60:	40250533          	sub	x10,x10,x2
    1d64:	beb51fa3          	sh	x11,-1025(x10)
    1d68:	00000013          	addi	x0,x0,0
    1d6c:	00000013          	addi	x0,x0,0
    1d70:	00100593          	addi	x11,x0,1
    1d74:	03659593          	slli	x11,x11,0x36
    1d78:	fff5c593          	xori	x11,x11,-1
    1d7c:	1a008513          	addi	x10,x1,416
    1d80:	3ff00113          	addi	x2,x0,1023
    1d84:	40250533          	sub	x10,x10,x2
    1d88:	3eb51fa3          	sh	x11,1023(x10)
    1d8c:	00000013          	addi	x0,x0,0
    1d90:	00000013          	addi	x0,x0,0
    1d94:	00100593          	addi	x11,x0,1
    1d98:	03759593          	slli	x11,x11,0x37
    1d9c:	fff5c593          	xori	x11,x11,-1
    1da0:	1a808513          	addi	x10,x1,424
    1da4:	fff00113          	addi	x2,x0,-1
    1da8:	40250533          	sub	x10,x10,x2
    1dac:	feb51fa3          	sh	x11,-1(x10)
    1db0:	00000013          	addi	x0,x0,0
    1db4:	00000013          	addi	x0,x0,0
    1db8:	00100593          	addi	x11,x0,1
    1dbc:	03859593          	slli	x11,x11,0x38
    1dc0:	fff5c593          	xori	x11,x11,-1
    1dc4:	1b008513          	addi	x10,x1,432
    1dc8:	eff00113          	addi	x2,x0,-257
    1dcc:	40250533          	sub	x10,x10,x2
    1dd0:	eeb51fa3          	sh	x11,-257(x10)
    1dd4:	00000013          	addi	x0,x0,0
    1dd8:	00000013          	addi	x0,x0,0
    1ddc:	00100593          	addi	x11,x0,1
    1de0:	03959593          	slli	x11,x11,0x39
    1de4:	fff5c593          	xori	x11,x11,-1
    1de8:	1b808513          	addi	x10,x1,440
    1dec:	ff700113          	addi	x2,x0,-9
    1df0:	40250533          	sub	x10,x10,x2
    1df4:	feb51ba3          	sh	x11,-9(x10)
    1df8:	00000013          	addi	x0,x0,0
    1dfc:	00000013          	addi	x0,x0,0
    1e00:	00100593          	addi	x11,x0,1
    1e04:	03a59593          	slli	x11,x11,0x3a
    1e08:	fff5c593          	xori	x11,x11,-1
    1e0c:	1c008513          	addi	x10,x1,448
    1e10:	ffd00113          	addi	x2,x0,-3
    1e14:	40250533          	sub	x10,x10,x2
    1e18:	feb51ea3          	sh	x11,-3(x10)
    1e1c:	00000013          	addi	x0,x0,0
    1e20:	00000013          	addi	x0,x0,0
    1e24:	00100593          	addi	x11,x0,1
    1e28:	03b59593          	slli	x11,x11,0x3b
    1e2c:	fff5c593          	xori	x11,x11,-1
    1e30:	1c808513          	addi	x10,x1,456
    1e34:	aaa00113          	addi	x2,x0,-1366
    1e38:	40250533          	sub	x10,x10,x2
    1e3c:	aab51523          	sh	x11,-1366(x10)
    1e40:	00000013          	addi	x0,x0,0
    1e44:	00000013          	addi	x0,x0,0
    1e48:	00100593          	addi	x11,x0,1
    1e4c:	03c59593          	slli	x11,x11,0x3c
    1e50:	fff5c593          	xori	x11,x11,-1
    1e54:	1d008513          	addi	x10,x1,464
    1e58:	ff900113          	addi	x2,x0,-7
    1e5c:	40250533          	sub	x10,x10,x2
    1e60:	feb51ca3          	sh	x11,-7(x10)
    1e64:	00000013          	addi	x0,x0,0
    1e68:	00000013          	addi	x0,x0,0
    1e6c:	00100593          	addi	x11,x0,1
    1e70:	03d59593          	slli	x11,x11,0x3d
    1e74:	fff5c593          	xori	x11,x11,-1
    1e78:	1d808513          	addi	x10,x1,472
    1e7c:	00300113          	addi	x2,x0,3
    1e80:	40250533          	sub	x10,x10,x2
    1e84:	00b511a3          	sh	x11,3(x10)
    1e88:	00000013          	addi	x0,x0,0
    1e8c:	00000013          	addi	x0,x0,0
    1e90:	00100593          	addi	x11,x0,1
    1e94:	03e59593          	slli	x11,x11,0x3e
    1e98:	fff5c593          	xori	x11,x11,-1
    1e9c:	1e008513          	addi	x10,x1,480
    1ea0:	ffd00113          	addi	x2,x0,-3
    1ea4:	40250533          	sub	x10,x10,x2
    1ea8:	feb51ea3          	sh	x11,-3(x10)
    1eac:	00000013          	addi	x0,x0,0
    1eb0:	00000013          	addi	x0,x0,0
    1eb4:	555555b7          	lui	x11,0x55555
    1eb8:	55558593          	addi	x11,x11,1365 # 0x55555555
    1ebc:	00b59593          	slli	x11,x11,0xb
    1ec0:	2aa58593          	addi	x11,x11,682
    1ec4:	00b59593          	slli	x11,x11,0xb
    1ec8:	55558593          	addi	x11,x11,1365
    1ecc:	00a59593          	slli	x11,x11,0xa
    1ed0:	15558593          	addi	x11,x11,341
    1ed4:	1e808513          	addi	x10,x1,488
    1ed8:	10000113          	addi	x2,x0,256
    1edc:	40250533          	sub	x10,x10,x2
    1ee0:	10b51023          	sh	x11,256(x10)
    1ee4:	00000013          	addi	x0,x0,0
    1ee8:	00000013          	addi	x0,x0,0
    1eec:	aaaab5b7          	lui	x11,0xaaaab
    1ef0:	aaa58593          	addi	x11,x11,-1366 # 0xffffffffaaaaaaaa
    1ef4:	00b59593          	slli	x11,x11,0xb
    1ef8:	55558593          	addi	x11,x11,1365
    1efc:	00b59593          	slli	x11,x11,0xb
    1f00:	2aa58593          	addi	x11,x11,682
    1f04:	00a59593          	slli	x11,x11,0xa
    1f08:	2aa58593          	addi	x11,x11,682
    1f0c:	1f008513          	addi	x10,x1,496
    1f10:	00500113          	addi	x2,x0,5
    1f14:	40250533          	sub	x10,x10,x2
    1f18:	00b512a3          	sh	x11,5(x10)
    1f1c:	00000013          	addi	x0,x0,0
    1f20:	00000013          	addi	x0,x0,0
    1f24:	ffd00593          	addi	x11,x0,-3
    1f28:	1f808513          	addi	x10,x1,504
    1f2c:	ffa00113          	addi	x2,x0,-6
    1f30:	40250533          	sub	x10,x10,x2
    1f34:	feb51d23          	sh	x11,-6(x10)
    1f38:	00000013          	addi	x0,x0,0
    1f3c:	00000013          	addi	x0,x0,0
    1f40:	ffb00593          	addi	x11,x0,-5
    1f44:	20008513          	addi	x10,x1,512
    1f48:	80000113          	addi	x2,x0,-2048
    1f4c:	40250533          	sub	x10,x10,x2
    1f50:	80b51023          	sh	x11,-2048(x10)
    1f54:	00000013          	addi	x0,x0,0
    1f58:	00000013          	addi	x0,x0,0
    1f5c:	ff700593          	addi	x11,x0,-9
    1f60:	20808513          	addi	x10,x1,520
    1f64:	08000113          	addi	x2,x0,128
    1f68:	40250533          	sub	x10,x10,x2
    1f6c:	08b51023          	sh	x11,128(x10)
    1f70:	00000013          	addi	x0,x0,0
    1f74:	00000013          	addi	x0,x0,0
    1f78:	fef00593          	addi	x11,x0,-17
    1f7c:	21008513          	addi	x10,x1,528
    1f80:	80000113          	addi	x2,x0,-2048
    1f84:	40250533          	sub	x10,x10,x2
    1f88:	80b51023          	sh	x11,-2048(x10)
    1f8c:	00000013          	addi	x0,x0,0
    1f90:	00000013          	addi	x0,x0,0
    1f94:	fdf00593          	addi	x11,x0,-33
    1f98:	21808513          	addi	x10,x1,536
    1f9c:	04000113          	addi	x2,x0,64
    1fa0:	40250533          	sub	x10,x10,x2
    1fa4:	04b51023          	sh	x11,64(x10)
    1fa8:	00000013          	addi	x0,x0,0
    1fac:	00000013          	addi	x0,x0,0
    1fb0:	fbf00593          	addi	x11,x0,-65
    1fb4:	22008513          	addi	x10,x1,544
    1fb8:	ffc00113          	addi	x2,x0,-4
    1fbc:	40250533          	sub	x10,x10,x2
    1fc0:	feb51e23          	sh	x11,-4(x10)
    1fc4:	00000013          	addi	x0,x0,0
    1fc8:	00000013          	addi	x0,x0,0
    1fcc:	f7f00593          	addi	x11,x0,-129
    1fd0:	22808513          	addi	x10,x1,552
    1fd4:	00300113          	addi	x2,x0,3
    1fd8:	40250533          	sub	x10,x10,x2
    1fdc:	00b511a3          	sh	x11,3(x10)
    1fe0:	00000013          	addi	x0,x0,0
    1fe4:	00000013          	addi	x0,x0,0
    1fe8:	eff00593          	addi	x11,x0,-257
    1fec:	23008513          	addi	x10,x1,560
    1ff0:	ff900113          	addi	x2,x0,-7
    1ff4:	40250533          	sub	x10,x10,x2
    1ff8:	feb51ca3          	sh	x11,-7(x10)
    1ffc:	00000013          	addi	x0,x0,0
    2000:	00000013          	addi	x0,x0,0
    2004:	dff00593          	addi	x11,x0,-513
    2008:	23808513          	addi	x10,x1,568
    200c:	3ff00113          	addi	x2,x0,1023
    2010:	40250533          	sub	x10,x10,x2
    2014:	3eb51fa3          	sh	x11,1023(x10)
    2018:	00000013          	addi	x0,x0,0
    201c:	00000013          	addi	x0,x0,0
    2020:	bff00593          	addi	x11,x0,-1025
    2024:	24008513          	addi	x10,x1,576
    2028:	c0000113          	addi	x2,x0,-1024
    202c:	40250533          	sub	x10,x10,x2
    2030:	c0b51023          	sh	x11,-1024(x10)
    2034:	00000013          	addi	x0,x0,0
    2038:	00000013          	addi	x0,x0,0
    203c:	00100593          	addi	x11,x0,1
    2040:	00b59593          	slli	x11,x11,0xb
    2044:	fff5c593          	xori	x11,x11,-1
    2048:	24808513          	addi	x10,x1,584
    204c:	55500113          	addi	x2,x0,1365
    2050:	40250533          	sub	x10,x10,x2
    2054:	54b51aa3          	sh	x11,1365(x10)
    2058:	00000013          	addi	x0,x0,0
    205c:	00000013          	addi	x0,x0,0
    2060:	00100593          	addi	x11,x0,1
    2064:	00c59593          	slli	x11,x11,0xc
    2068:	fff5c593          	xori	x11,x11,-1
    206c:	25008513          	addi	x10,x1,592
    2070:	00900113          	addi	x2,x0,9
    2074:	40250533          	sub	x10,x10,x2
    2078:	00b514a3          	sh	x11,9(x10)
    207c:	00000013          	addi	x0,x0,0
    2080:	00000013          	addi	x0,x0,0
    2084:	00100593          	addi	x11,x0,1
    2088:	00d59593          	slli	x11,x11,0xd
    208c:	fff5c593          	xori	x11,x11,-1
    2090:	25808513          	addi	x10,x1,600
    2094:	08000113          	addi	x2,x0,128
    2098:	40250533          	sub	x10,x10,x2
    209c:	08b51023          	sh	x11,128(x10)
    20a0:	00000013          	addi	x0,x0,0
    20a4:	00000013          	addi	x0,x0,0
    20a8:	00100593          	addi	x11,x0,1
    20ac:	00e59593          	slli	x11,x11,0xe
    20b0:	fff5c593          	xori	x11,x11,-1
    20b4:	26008513          	addi	x10,x1,608
    20b8:	55500113          	addi	x2,x0,1365
    20bc:	40250533          	sub	x10,x10,x2
    20c0:	54b51aa3          	sh	x11,1365(x10)
    20c4:	00000013          	addi	x0,x0,0
    20c8:	00000013          	addi	x0,x0,0
    20cc:	00100593          	addi	x11,x0,1
    20d0:	00f59593          	slli	x11,x11,0xf
    20d4:	fff5c593          	xori	x11,x11,-1
    20d8:	26808513          	addi	x10,x1,616
    20dc:	ff600113          	addi	x2,x0,-10
    20e0:	40250533          	sub	x10,x10,x2
    20e4:	feb51b23          	sh	x11,-10(x10)
    20e8:	00000013          	addi	x0,x0,0
    20ec:	00000013          	addi	x0,x0,0
    20f0:	00100593          	addi	x11,x0,1
    20f4:	01059593          	slli	x11,x11,0x10
    20f8:	fff5c593          	xori	x11,x11,-1
    20fc:	27008513          	addi	x10,x1,624
    2100:	80000113          	addi	x2,x0,-2048
    2104:	40250533          	sub	x10,x10,x2
    2108:	80b51023          	sh	x11,-2048(x10)
    210c:	00000013          	addi	x0,x0,0
    2110:	00000013          	addi	x0,x0,0
    2114:	00100593          	addi	x11,x0,1
    2118:	01159593          	slli	x11,x11,0x11
    211c:	fff5c593          	xori	x11,x11,-1
    2120:	27808513          	addi	x10,x1,632
    2124:	fbf00113          	addi	x2,x0,-65
    2128:	40250533          	sub	x10,x10,x2
    212c:	fab51fa3          	sh	x11,-65(x10)
    2130:	00000013          	addi	x0,x0,0
    2134:	00000013          	addi	x0,x0,0
    2138:	00100593          	addi	x11,x0,1
    213c:	01259593          	slli	x11,x11,0x12
    2140:	fff5c593          	xori	x11,x11,-1
    2144:	28008513          	addi	x10,x1,640
    2148:	02000113          	addi	x2,x0,32
    214c:	40250533          	sub	x10,x10,x2
    2150:	02b51023          	sh	x11,32(x10)
    2154:	00000013          	addi	x0,x0,0
    2158:	00000013          	addi	x0,x0,0
    215c:	00100593          	addi	x11,x0,1
    2160:	01359593          	slli	x11,x11,0x13
    2164:	fff5c593          	xori	x11,x11,-1
    2168:	28808513          	addi	x10,x1,648
    216c:	ff800113          	addi	x2,x0,-8
    2170:	40250533          	sub	x10,x10,x2
    2174:	feb51c23          	sh	x11,-8(x10)
    2178:	00000013          	addi	x0,x0,0
    217c:	00000013          	addi	x0,x0,0
    2180:	00100593          	addi	x11,x0,1
    2184:	01459593          	slli	x11,x11,0x14
    2188:	fff5c593          	xori	x11,x11,-1
    218c:	29008513          	addi	x10,x1,656
    2190:	55500113          	addi	x2,x0,1365
    2194:	40250533          	sub	x10,x10,x2
    2198:	54b51aa3          	sh	x11,1365(x10)
    219c:	00000013          	addi	x0,x0,0
    21a0:	00000013          	addi	x0,x0,0
    21a4:	00100593          	addi	x11,x0,1
    21a8:	01559593          	slli	x11,x11,0x15
    21ac:	fff5c593          	xori	x11,x11,-1
    21b0:	29808513          	addi	x10,x1,664
    21b4:	00300113          	addi	x2,x0,3
    21b8:	40250533          	sub	x10,x10,x2
    21bc:	00b511a3          	sh	x11,3(x10)
    21c0:	00000013          	addi	x0,x0,0
    21c4:	00000013          	addi	x0,x0,0
    21c8:	00100593          	addi	x11,x0,1
    21cc:	01659593          	slli	x11,x11,0x16
    21d0:	fff5c593          	xori	x11,x11,-1
    21d4:	2a008513          	addi	x10,x1,672
    21d8:	00500113          	addi	x2,x0,5
    21dc:	40250533          	sub	x10,x10,x2
    21e0:	00b512a3          	sh	x11,5(x10)
    21e4:	00000013          	addi	x0,x0,0
    21e8:	00000013          	addi	x0,x0,0
    21ec:	00100593          	addi	x11,x0,1
    21f0:	01759593          	slli	x11,x11,0x17
    21f4:	fff5c593          	xori	x11,x11,-1
    21f8:	2a808513          	addi	x10,x1,680
    21fc:	00300113          	addi	x2,x0,3
    2200:	40250533          	sub	x10,x10,x2
    2204:	00b511a3          	sh	x11,3(x10)
    2208:	00000013          	addi	x0,x0,0
    220c:	00000013          	addi	x0,x0,0
    2210:	00100593          	addi	x11,x0,1
    2214:	01859593          	slli	x11,x11,0x18
    2218:	fff5c593          	xori	x11,x11,-1
    221c:	2b008513          	addi	x10,x1,688
    2220:	fbf00113          	addi	x2,x0,-65
    2224:	40250533          	sub	x10,x10,x2
    2228:	fab51fa3          	sh	x11,-65(x10)
    222c:	00000013          	addi	x0,x0,0
    2230:	00000013          	addi	x0,x0,0
    2234:	00100593          	addi	x11,x0,1
    2238:	01959593          	slli	x11,x11,0x19
    223c:	fff5c593          	xori	x11,x11,-1
    2240:	2b808513          	addi	x10,x1,696
    2244:	80000113          	addi	x2,x0,-2048
    2248:	40250533          	sub	x10,x10,x2
    224c:	80b51023          	sh	x11,-2048(x10)
    2250:	00000013          	addi	x0,x0,0
    2254:	00000013          	addi	x0,x0,0
    2258:	00100593          	addi	x11,x0,1
    225c:	01a59593          	slli	x11,x11,0x1a
    2260:	fff5c593          	xori	x11,x11,-1
    2264:	2c008513          	addi	x10,x1,704
    2268:	00600113          	addi	x2,x0,6
    226c:	40250533          	sub	x10,x10,x2
    2270:	00b51323          	sh	x11,6(x10)
    2274:	00000013          	addi	x0,x0,0
    2278:	00000013          	addi	x0,x0,0
    227c:	00100593          	addi	x11,x0,1
    2280:	01b59593          	slli	x11,x11,0x1b
    2284:	fff5c593          	xori	x11,x11,-1
    2288:	2c808513          	addi	x10,x1,712
    228c:	00100113          	addi	x2,x0,1
    2290:	40250533          	sub	x10,x10,x2
    2294:	00b510a3          	sh	x11,1(x10)
    2298:	00000013          	addi	x0,x0,0
    229c:	00000013          	addi	x0,x0,0
    22a0:	00100593          	addi	x11,x0,1
    22a4:	01c59593          	slli	x11,x11,0x1c
    22a8:	fff5c593          	xori	x11,x11,-1
    22ac:	2d008513          	addi	x10,x1,720
    22b0:	3ff00113          	addi	x2,x0,1023
    22b4:	40250533          	sub	x10,x10,x2
    22b8:	3eb51fa3          	sh	x11,1023(x10)
    22bc:	00000013          	addi	x0,x0,0
    22c0:	00000013          	addi	x0,x0,0
    22c4:	00100593          	addi	x11,x0,1
    22c8:	01d59593          	slli	x11,x11,0x1d
    22cc:	fff5c593          	xori	x11,x11,-1
    22d0:	2d808513          	addi	x10,x1,728
    22d4:	ffe00113          	addi	x2,x0,-2
    22d8:	40250533          	sub	x10,x10,x2
    22dc:	feb51f23          	sh	x11,-2(x10)
    22e0:	00000013          	addi	x0,x0,0
    22e4:	00000013          	addi	x0,x0,0
    22e8:	00100593          	addi	x11,x0,1
    22ec:	01e59593          	slli	x11,x11,0x1e
    22f0:	fff5c593          	xori	x11,x11,-1
    22f4:	2e008513          	addi	x10,x1,736
    22f8:	00200113          	addi	x2,x0,2
    22fc:	40250533          	sub	x10,x10,x2
    2300:	00b51123          	sh	x11,2(x10)
    2304:	00000013          	addi	x0,x0,0
    2308:	00000013          	addi	x0,x0,0
    230c:	00100593          	addi	x11,x0,1
    2310:	01f59593          	slli	x11,x11,0x1f
    2314:	fff5c593          	xori	x11,x11,-1
    2318:	2e808513          	addi	x10,x1,744
    231c:	ffc00113          	addi	x2,x0,-4
    2320:	40250533          	sub	x10,x10,x2
    2324:	feb51e23          	sh	x11,-4(x10)
    2328:	00000013          	addi	x0,x0,0
    232c:	00000013          	addi	x0,x0,0
    2330:	00100593          	addi	x11,x0,1
    2334:	02059593          	slli	x11,x11,0x20
    2338:	fff5c593          	xori	x11,x11,-1
    233c:	2f008513          	addi	x10,x1,752
    2340:	20000113          	addi	x2,x0,512
    2344:	40250533          	sub	x10,x10,x2
    2348:	20b51023          	sh	x11,512(x10)
    234c:	00000013          	addi	x0,x0,0
    2350:	00000013          	addi	x0,x0,0
    2354:	00100593          	addi	x11,x0,1
    2358:	02159593          	slli	x11,x11,0x21
    235c:	fff5c593          	xori	x11,x11,-1
    2360:	2f808513          	addi	x10,x1,760
    2364:	00700113          	addi	x2,x0,7
    2368:	40250533          	sub	x10,x10,x2
    236c:	00b513a3          	sh	x11,7(x10)
    2370:	00000013          	addi	x0,x0,0
    2374:	00000013          	addi	x0,x0,0
    2378:	00100593          	addi	x11,x0,1
    237c:	02259593          	slli	x11,x11,0x22
    2380:	fff5c593          	xori	x11,x11,-1
    2384:	30008513          	addi	x10,x1,768
    2388:	00000113          	addi	x2,x0,0
    238c:	40250533          	sub	x10,x10,x2
    2390:	00b51023          	sh	x11,0(x10)
    2394:	00000013          	addi	x0,x0,0
    2398:	00000013          	addi	x0,x0,0
    239c:	00100593          	addi	x11,x0,1
    23a0:	02359593          	slli	x11,x11,0x23
    23a4:	fff5c593          	xori	x11,x11,-1
    23a8:	30808513          	addi	x10,x1,776
    23ac:	fbf00113          	addi	x2,x0,-65
    23b0:	40250533          	sub	x10,x10,x2
    23b4:	fab51fa3          	sh	x11,-65(x10)
    23b8:	00000013          	addi	x0,x0,0
    23bc:	00000013          	addi	x0,x0,0
    23c0:	00100593          	addi	x11,x0,1
    23c4:	02459593          	slli	x11,x11,0x24
    23c8:	fff5c593          	xori	x11,x11,-1
    23cc:	31008513          	addi	x10,x1,784
    23d0:	ffd00113          	addi	x2,x0,-3
    23d4:	40250533          	sub	x10,x10,x2
    23d8:	feb51ea3          	sh	x11,-3(x10)
    23dc:	00000013          	addi	x0,x0,0
    23e0:	00000013          	addi	x0,x0,0
    23e4:	00100593          	addi	x11,x0,1
    23e8:	02559593          	slli	x11,x11,0x25
    23ec:	fff5c593          	xori	x11,x11,-1
    23f0:	31808513          	addi	x10,x1,792
    23f4:	c0000113          	addi	x2,x0,-1024
    23f8:	40250533          	sub	x10,x10,x2
    23fc:	c0b51023          	sh	x11,-1024(x10)
    2400:	00000013          	addi	x0,x0,0
    2404:	00000013          	addi	x0,x0,0
    2408:	00100593          	addi	x11,x0,1
    240c:	02659593          	slli	x11,x11,0x26
    2410:	fff5c593          	xori	x11,x11,-1
    2414:	32008513          	addi	x10,x1,800
    2418:	3ff00113          	addi	x2,x0,1023
    241c:	40250533          	sub	x10,x10,x2
    2420:	3eb51fa3          	sh	x11,1023(x10)
    2424:	00000013          	addi	x0,x0,0
    2428:	00000013          	addi	x0,x0,0
    242c:	00100593          	addi	x11,x0,1
    2430:	02759593          	slli	x11,x11,0x27
    2434:	fff5c593          	xori	x11,x11,-1
    2438:	32808513          	addi	x10,x1,808
    243c:	ff700113          	addi	x2,x0,-9
    2440:	40250533          	sub	x10,x10,x2
    2444:	feb51ba3          	sh	x11,-9(x10)
    2448:	00000013          	addi	x0,x0,0
    244c:	00000013          	addi	x0,x0,0
    2450:	00100593          	addi	x11,x0,1
    2454:	02859593          	slli	x11,x11,0x28
    2458:	fff5c593          	xori	x11,x11,-1
    245c:	33008513          	addi	x10,x1,816
    2460:	bff00113          	addi	x2,x0,-1025
    2464:	40250533          	sub	x10,x10,x2
    2468:	beb51fa3          	sh	x11,-1025(x10)
    246c:	00000013          	addi	x0,x0,0
    2470:	00000013          	addi	x0,x0,0
    2474:	00100593          	addi	x11,x0,1
    2478:	02959593          	slli	x11,x11,0x29
    247c:	fff5c593          	xori	x11,x11,-1
    2480:	33808513          	addi	x10,x1,824
    2484:	00500113          	addi	x2,x0,5
    2488:	40250533          	sub	x10,x10,x2
    248c:	00b512a3          	sh	x11,5(x10)
    2490:	00000013          	addi	x0,x0,0
    2494:	00000013          	addi	x0,x0,0
    2498:	00100593          	addi	x11,x0,1
    249c:	02b59593          	slli	x11,x11,0x2b
    24a0:	fff5c593          	xori	x11,x11,-1
    24a4:	34008513          	addi	x10,x1,832
    24a8:	00800113          	addi	x2,x0,8
    24ac:	40250533          	sub	x10,x10,x2
    24b0:	00b51423          	sh	x11,8(x10)
    24b4:	00000013          	addi	x0,x0,0
    24b8:	00000013          	addi	x0,x0,0
    24bc:	00100593          	addi	x11,x0,1
    24c0:	02c59593          	slli	x11,x11,0x2c
    24c4:	fff5c593          	xori	x11,x11,-1
    24c8:	34808513          	addi	x10,x1,840
    24cc:	bff00113          	addi	x2,x0,-1025
    24d0:	40250533          	sub	x10,x10,x2
    24d4:	beb51fa3          	sh	x11,-1025(x10)
    24d8:	00000013          	addi	x0,x0,0
    24dc:	00000013          	addi	x0,x0,0
    24e0:	00100593          	addi	x11,x0,1
    24e4:	02d59593          	slli	x11,x11,0x2d
    24e8:	fff5c593          	xori	x11,x11,-1
    24ec:	35008513          	addi	x10,x1,848
    24f0:	ff600113          	addi	x2,x0,-10
    24f4:	40250533          	sub	x10,x10,x2
    24f8:	feb51b23          	sh	x11,-10(x10)
    24fc:	00000013          	addi	x0,x0,0
    2500:	00000013          	addi	x0,x0,0
    2504:	00100593          	addi	x11,x0,1
    2508:	02e59593          	slli	x11,x11,0x2e
    250c:	fff5c593          	xori	x11,x11,-1
    2510:	35808513          	addi	x10,x1,856
    2514:	08000113          	addi	x2,x0,128
    2518:	40250533          	sub	x10,x10,x2
    251c:	08b51023          	sh	x11,128(x10)
    2520:	00000013          	addi	x0,x0,0
    2524:	00000013          	addi	x0,x0,0
    2528:	00100593          	addi	x11,x0,1
    252c:	02f59593          	slli	x11,x11,0x2f
    2530:	fff5c593          	xori	x11,x11,-1
    2534:	36008513          	addi	x10,x1,864
    2538:	ff700113          	addi	x2,x0,-9
    253c:	40250533          	sub	x10,x10,x2
    2540:	feb51ba3          	sh	x11,-9(x10)
    2544:	00000013          	addi	x0,x0,0
    2548:	00000013          	addi	x0,x0,0
    254c:	00100593          	addi	x11,x0,1
    2550:	03059593          	slli	x11,x11,0x30
    2554:	fff5c593          	xori	x11,x11,-1
    2558:	36808513          	addi	x10,x1,872
    255c:	00600113          	addi	x2,x0,6
    2560:	40250533          	sub	x10,x10,x2
    2564:	00b51323          	sh	x11,6(x10)
    2568:	00000013          	addi	x0,x0,0
    256c:	00000013          	addi	x0,x0,0
    2570:	00100593          	addi	x11,x0,1
    2574:	03159593          	slli	x11,x11,0x31
    2578:	fff5c593          	xori	x11,x11,-1
    257c:	37008513          	addi	x10,x1,880
    2580:	20000113          	addi	x2,x0,512
    2584:	40250533          	sub	x10,x10,x2
    2588:	20b51023          	sh	x11,512(x10)
    258c:	00000013          	addi	x0,x0,0
    2590:	00000013          	addi	x0,x0,0
    2594:	ffe00593          	addi	x11,x0,-2
    2598:	37808513          	addi	x10,x1,888
    259c:	7ff00113          	addi	x2,x0,2047
    25a0:	40250533          	sub	x10,x10,x2
    25a4:	7eb51fa3          	sh	x11,2047(x10)
    25a8:	00000013          	addi	x0,x0,0
    25ac:	00000013          	addi	x0,x0,0
    25b0:	0380006f          	jal	x0,0x25e8
    25b4:	1f813483          	ld	x9,504(x2)
    25b8:	20013303          	ld	x6,512(x2)
    25bc:	00930333          	add	x6,x6,x9
    25c0:	00000337          	lui	x6,0x0
    25c4:	00030313          	addi	x6,x6,0 # 0x0
    25c8:	00b31313          	slli	x6,x6,0xb
    25cc:	5d630313          	addi	x6,x6,1494
    25d0:	00b31313          	slli	x6,x6,0xb
    25d4:	43630313          	addi	x6,x6,1078
    25d8:	00a31313          	slli	x6,x6,0xa
    25dc:	2d030313          	addi	x6,x6,720
    25e0:	fe64be23          	sd	x6,-4(x9)
    25e4:	0040006f          	jal	x0,0x25e8
    25e8:	00000513          	addi	x10,x0,0
    25ec:	0240006f          	jal	x0,0x2610
	...
    2610:	00050513          	addi	x10,x10,0
    2614:	00100073          	ebreak
    2618:	0000006f          	jal	x0,0x2618
    261c:	ff010113          	addi	x2,x2,-16
    2620:	00000517          	auipc	x10,0x0
    2624:	02050513          	addi	x10,x10,32 # 0x2640
    2628:	00113423          	sd	x1,8(x2)
    262c:	9e5fe0ef          	jal	x1,0x1010
    2630:	00050513          	addi	x10,x10,0
    2634:	00100073          	ebreak
    2638:	0000006f          	jal	x0,0x2638
	...
    3000:	cafe                	c.swsp	x31,84(x2)
    3002:	babe                	c.fsdsp	f15,368(x2)
    3004:	cafe                	c.swsp	x31,84(x2)
    3006:	babe                	c.fsdsp	f15,368(x2)
    3008:	cafe                	c.swsp	x31,84(x2)
    300a:	babe                	c.fsdsp	f15,368(x2)
    300c:	cafe                	c.swsp	x31,84(x2)
    300e:	babe                	c.fsdsp	f15,368(x2)
    3010:	deadbeef          	jal	x29,0xfffffffffffde5fa
    3014:	deadbeef          	jal	x29,0xfffffffffffde5fe
	...
    4000:	b281                	c.j	0x3940
    4002:	e7d4                	c.sd	x13,136(x15)
    4004:	a309                	c.j	0x4506
    4006:	6f5c                	c.ld	x15,152(x14)
    4008:	deadbeef          	jal	x29,0xfffffffffffdf5f2
    400c:	deadbeef          	jal	x29,0xfffffffffffdf5f6
    4010:	deadbeef          	jal	x29,0xfffffffffffdf5fa
    4014:	deadbeef          	jal	x29,0xfffffffffffdf5fe
    4018:	deadbeef          	jal	x29,0xfffffffffffdf602
    401c:	deadbeef          	jal	x29,0xfffffffffffdf606
    4020:	deadbeef          	jal	x29,0xfffffffffffdf60a
    4024:	deadbeef          	jal	x29,0xfffffffffffdf60e
    4028:	deadbeef          	jal	x29,0xfffffffffffdf612
    402c:	deadbeef          	jal	x29,0xfffffffffffdf616
    4030:	deadbeef          	jal	x29,0xfffffffffffdf61a
    4034:	deadbeef          	jal	x29,0xfffffffffffdf61e
    4038:	deadbeef          	jal	x29,0xfffffffffffdf622
    403c:	deadbeef          	jal	x29,0xfffffffffffdf626
    4040:	deadbeef          	jal	x29,0xfffffffffffdf62a
    4044:	deadbeef          	jal	x29,0xfffffffffffdf62e
    4048:	deadbeef          	jal	x29,0xfffffffffffdf632
    404c:	deadbeef          	jal	x29,0xfffffffffffdf636
    4050:	deadbeef          	jal	x29,0xfffffffffffdf63a
    4054:	deadbeef          	jal	x29,0xfffffffffffdf63e
    4058:	deadbeef          	jal	x29,0xfffffffffffdf642
    405c:	deadbeef          	jal	x29,0xfffffffffffdf646
    4060:	deadbeef          	jal	x29,0xfffffffffffdf64a
    4064:	deadbeef          	jal	x29,0xfffffffffffdf64e
    4068:	deadbeef          	jal	x29,0xfffffffffffdf652
    406c:	deadbeef          	jal	x29,0xfffffffffffdf656
    4070:	deadbeef          	jal	x29,0xfffffffffffdf65a
    4074:	deadbeef          	jal	x29,0xfffffffffffdf65e
    4078:	deadbeef          	jal	x29,0xfffffffffffdf662
    407c:	deadbeef          	jal	x29,0xfffffffffffdf666
    4080:	deadbeef          	jal	x29,0xfffffffffffdf66a
    4084:	deadbeef          	jal	x29,0xfffffffffffdf66e
    4088:	deadbeef          	jal	x29,0xfffffffffffdf672
    408c:	deadbeef          	jal	x29,0xfffffffffffdf676
    4090:	deadbeef          	jal	x29,0xfffffffffffdf67a
    4094:	deadbeef          	jal	x29,0xfffffffffffdf67e
    4098:	deadbeef          	jal	x29,0xfffffffffffdf682
    409c:	deadbeef          	jal	x29,0xfffffffffffdf686
    40a0:	deadbeef          	jal	x29,0xfffffffffffdf68a
    40a4:	deadbeef          	jal	x29,0xfffffffffffdf68e
    40a8:	deadbeef          	jal	x29,0xfffffffffffdf692
    40ac:	deadbeef          	jal	x29,0xfffffffffffdf696
    40b0:	deadbeef          	jal	x29,0xfffffffffffdf69a
    40b4:	deadbeef          	jal	x29,0xfffffffffffdf69e
    40b8:	deadbeef          	jal	x29,0xfffffffffffdf6a2
    40bc:	deadbeef          	jal	x29,0xfffffffffffdf6a6
    40c0:	deadbeef          	jal	x29,0xfffffffffffdf6aa
    40c4:	deadbeef          	jal	x29,0xfffffffffffdf6ae
    40c8:	deadbeef          	jal	x29,0xfffffffffffdf6b2
    40cc:	deadbeef          	jal	x29,0xfffffffffffdf6b6
    40d0:	deadbeef          	jal	x29,0xfffffffffffdf6ba
    40d4:	deadbeef          	jal	x29,0xfffffffffffdf6be
    40d8:	deadbeef          	jal	x29,0xfffffffffffdf6c2
    40dc:	deadbeef          	jal	x29,0xfffffffffffdf6c6
    40e0:	deadbeef          	jal	x29,0xfffffffffffdf6ca
    40e4:	deadbeef          	jal	x29,0xfffffffffffdf6ce
    40e8:	deadbeef          	jal	x29,0xfffffffffffdf6d2
    40ec:	deadbeef          	jal	x29,0xfffffffffffdf6d6
    40f0:	deadbeef          	jal	x29,0xfffffffffffdf6da
    40f4:	deadbeef          	jal	x29,0xfffffffffffdf6de
    40f8:	deadbeef          	jal	x29,0xfffffffffffdf6e2
    40fc:	deadbeef          	jal	x29,0xfffffffffffdf6e6
    4100:	deadbeef          	jal	x29,0xfffffffffffdf6ea
    4104:	deadbeef          	jal	x29,0xfffffffffffdf6ee
    4108:	deadbeef          	jal	x29,0xfffffffffffdf6f2
    410c:	deadbeef          	jal	x29,0xfffffffffffdf6f6
    4110:	deadbeef          	jal	x29,0xfffffffffffdf6fa
    4114:	deadbeef          	jal	x29,0xfffffffffffdf6fe
    4118:	deadbeef          	jal	x29,0xfffffffffffdf702
    411c:	deadbeef          	jal	x29,0xfffffffffffdf706
    4120:	deadbeef          	jal	x29,0xfffffffffffdf70a
    4124:	deadbeef          	jal	x29,0xfffffffffffdf70e
    4128:	deadbeef          	jal	x29,0xfffffffffffdf712
    412c:	deadbeef          	jal	x29,0xfffffffffffdf716
    4130:	deadbeef          	jal	x29,0xfffffffffffdf71a
    4134:	deadbeef          	jal	x29,0xfffffffffffdf71e
    4138:	deadbeef          	jal	x29,0xfffffffffffdf722
    413c:	deadbeef          	jal	x29,0xfffffffffffdf726
    4140:	deadbeef          	jal	x29,0xfffffffffffdf72a
    4144:	deadbeef          	jal	x29,0xfffffffffffdf72e
    4148:	deadbeef          	jal	x29,0xfffffffffffdf732
    414c:	deadbeef          	jal	x29,0xfffffffffffdf736
    4150:	deadbeef          	jal	x29,0xfffffffffffdf73a
    4154:	deadbeef          	jal	x29,0xfffffffffffdf73e
    4158:	deadbeef          	jal	x29,0xfffffffffffdf742
    415c:	deadbeef          	jal	x29,0xfffffffffffdf746
    4160:	deadbeef          	jal	x29,0xfffffffffffdf74a
    4164:	deadbeef          	jal	x29,0xfffffffffffdf74e
    4168:	deadbeef          	jal	x29,0xfffffffffffdf752
    416c:	deadbeef          	jal	x29,0xfffffffffffdf756
    4170:	deadbeef          	jal	x29,0xfffffffffffdf75a
    4174:	deadbeef          	jal	x29,0xfffffffffffdf75e
    4178:	deadbeef          	jal	x29,0xfffffffffffdf762
    417c:	deadbeef          	jal	x29,0xfffffffffffdf766
    4180:	deadbeef          	jal	x29,0xfffffffffffdf76a
    4184:	deadbeef          	jal	x29,0xfffffffffffdf76e
    4188:	deadbeef          	jal	x29,0xfffffffffffdf772
    418c:	deadbeef          	jal	x29,0xfffffffffffdf776
    4190:	deadbeef          	jal	x29,0xfffffffffffdf77a
    4194:	deadbeef          	jal	x29,0xfffffffffffdf77e
    4198:	deadbeef          	jal	x29,0xfffffffffffdf782
    419c:	deadbeef          	jal	x29,0xfffffffffffdf786
    41a0:	deadbeef          	jal	x29,0xfffffffffffdf78a
    41a4:	deadbeef          	jal	x29,0xfffffffffffdf78e
    41a8:	deadbeef          	jal	x29,0xfffffffffffdf792
    41ac:	deadbeef          	jal	x29,0xfffffffffffdf796
    41b0:	deadbeef          	jal	x29,0xfffffffffffdf79a
    41b4:	deadbeef          	jal	x29,0xfffffffffffdf79e
    41b8:	deadbeef          	jal	x29,0xfffffffffffdf7a2
    41bc:	deadbeef          	jal	x29,0xfffffffffffdf7a6
    41c0:	deadbeef          	jal	x29,0xfffffffffffdf7aa
    41c4:	deadbeef          	jal	x29,0xfffffffffffdf7ae
    41c8:	deadbeef          	jal	x29,0xfffffffffffdf7b2
    41cc:	deadbeef          	jal	x29,0xfffffffffffdf7b6
    41d0:	deadbeef          	jal	x29,0xfffffffffffdf7ba
    41d4:	deadbeef          	jal	x29,0xfffffffffffdf7be
    41d8:	deadbeef          	jal	x29,0xfffffffffffdf7c2
    41dc:	deadbeef          	jal	x29,0xfffffffffffdf7c6
    41e0:	deadbeef          	jal	x29,0xfffffffffffdf7ca
    41e4:	deadbeef          	jal	x29,0xfffffffffffdf7ce
    41e8:	deadbeef          	jal	x29,0xfffffffffffdf7d2
    41ec:	deadbeef          	jal	x29,0xfffffffffffdf7d6
    41f0:	deadbeef          	jal	x29,0xfffffffffffdf7da
    41f4:	deadbeef          	jal	x29,0xfffffffffffdf7de
    41f8:	deadbeef          	jal	x29,0xfffffffffffdf7e2
    41fc:	deadbeef          	jal	x29,0xfffffffffffdf7e6
    4200:	deadbeef          	jal	x29,0xfffffffffffdf7ea
    4204:	deadbeef          	jal	x29,0xfffffffffffdf7ee
    4208:	deadbeef          	jal	x29,0xfffffffffffdf7f2
    420c:	deadbeef          	jal	x29,0xfffffffffffdf7f6
    4210:	deadbeef          	jal	x29,0xfffffffffffdf7fa
    4214:	deadbeef          	jal	x29,0xfffffffffffdf7fe
    4218:	deadbeef          	jal	x29,0xfffffffffffdf802
    421c:	deadbeef          	jal	x29,0xfffffffffffdf806
    4220:	deadbeef          	jal	x29,0xfffffffffffdf80a
    4224:	deadbeef          	jal	x29,0xfffffffffffdf80e
    4228:	deadbeef          	jal	x29,0xfffffffffffdf812
    422c:	deadbeef          	jal	x29,0xfffffffffffdf816
    4230:	deadbeef          	jal	x29,0xfffffffffffdf81a
    4234:	deadbeef          	jal	x29,0xfffffffffffdf81e
    4238:	deadbeef          	jal	x29,0xfffffffffffdf822
    423c:	deadbeef          	jal	x29,0xfffffffffffdf826
    4240:	deadbeef          	jal	x29,0xfffffffffffdf82a
    4244:	deadbeef          	jal	x29,0xfffffffffffdf82e
    4248:	deadbeef          	jal	x29,0xfffffffffffdf832
    424c:	deadbeef          	jal	x29,0xfffffffffffdf836
    4250:	deadbeef          	jal	x29,0xfffffffffffdf83a
    4254:	deadbeef          	jal	x29,0xfffffffffffdf83e
    4258:	deadbeef          	jal	x29,0xfffffffffffdf842
    425c:	deadbeef          	jal	x29,0xfffffffffffdf846
    4260:	deadbeef          	jal	x29,0xfffffffffffdf84a
    4264:	deadbeef          	jal	x29,0xfffffffffffdf84e
    4268:	deadbeef          	jal	x29,0xfffffffffffdf852
    426c:	deadbeef          	jal	x29,0xfffffffffffdf856
    4270:	deadbeef          	jal	x29,0xfffffffffffdf85a
    4274:	deadbeef          	jal	x29,0xfffffffffffdf85e
    4278:	deadbeef          	jal	x29,0xfffffffffffdf862
    427c:	deadbeef          	jal	x29,0xfffffffffffdf866
    4280:	deadbeef          	jal	x29,0xfffffffffffdf86a
    4284:	deadbeef          	jal	x29,0xfffffffffffdf86e
    4288:	deadbeef          	jal	x29,0xfffffffffffdf872
    428c:	deadbeef          	jal	x29,0xfffffffffffdf876
    4290:	deadbeef          	jal	x29,0xfffffffffffdf87a
    4294:	deadbeef          	jal	x29,0xfffffffffffdf87e
    4298:	deadbeef          	jal	x29,0xfffffffffffdf882
    429c:	deadbeef          	jal	x29,0xfffffffffffdf886
    42a0:	deadbeef          	jal	x29,0xfffffffffffdf88a
    42a4:	deadbeef          	jal	x29,0xfffffffffffdf88e
    42a8:	deadbeef          	jal	x29,0xfffffffffffdf892
    42ac:	deadbeef          	jal	x29,0xfffffffffffdf896
    42b0:	deadbeef          	jal	x29,0xfffffffffffdf89a
    42b4:	deadbeef          	jal	x29,0xfffffffffffdf89e
    42b8:	deadbeef          	jal	x29,0xfffffffffffdf8a2
    42bc:	deadbeef          	jal	x29,0xfffffffffffdf8a6
    42c0:	deadbeef          	jal	x29,0xfffffffffffdf8aa
    42c4:	deadbeef          	jal	x29,0xfffffffffffdf8ae
    42c8:	deadbeef          	jal	x29,0xfffffffffffdf8b2
    42cc:	deadbeef          	jal	x29,0xfffffffffffdf8b6
    42d0:	deadbeef          	jal	x29,0xfffffffffffdf8ba
    42d4:	deadbeef          	jal	x29,0xfffffffffffdf8be
    42d8:	deadbeef          	jal	x29,0xfffffffffffdf8c2
    42dc:	deadbeef          	jal	x29,0xfffffffffffdf8c6
    42e0:	deadbeef          	jal	x29,0xfffffffffffdf8ca
    42e4:	deadbeef          	jal	x29,0xfffffffffffdf8ce
    42e8:	deadbeef          	jal	x29,0xfffffffffffdf8d2
    42ec:	deadbeef          	jal	x29,0xfffffffffffdf8d6
    42f0:	deadbeef          	jal	x29,0xfffffffffffdf8da
    42f4:	deadbeef          	jal	x29,0xfffffffffffdf8de
    42f8:	deadbeef          	jal	x29,0xfffffffffffdf8e2
    42fc:	deadbeef          	jal	x29,0xfffffffffffdf8e6
    4300:	deadbeef          	jal	x29,0xfffffffffffdf8ea
    4304:	deadbeef          	jal	x29,0xfffffffffffdf8ee
    4308:	deadbeef          	jal	x29,0xfffffffffffdf8f2
    430c:	deadbeef          	jal	x29,0xfffffffffffdf8f6
    4310:	deadbeef          	jal	x29,0xfffffffffffdf8fa
    4314:	deadbeef          	jal	x29,0xfffffffffffdf8fe
    4318:	deadbeef          	jal	x29,0xfffffffffffdf902
    431c:	deadbeef          	jal	x29,0xfffffffffffdf906
    4320:	deadbeef          	jal	x29,0xfffffffffffdf90a
    4324:	deadbeef          	jal	x29,0xfffffffffffdf90e
    4328:	deadbeef          	jal	x29,0xfffffffffffdf912
    432c:	deadbeef          	jal	x29,0xfffffffffffdf916
    4330:	deadbeef          	jal	x29,0xfffffffffffdf91a
    4334:	deadbeef          	jal	x29,0xfffffffffffdf91e
    4338:	deadbeef          	jal	x29,0xfffffffffffdf922
    433c:	deadbeef          	jal	x29,0xfffffffffffdf926
    4340:	deadbeef          	jal	x29,0xfffffffffffdf92a
    4344:	deadbeef          	jal	x29,0xfffffffffffdf92e
    4348:	deadbeef          	jal	x29,0xfffffffffffdf932
    434c:	deadbeef          	jal	x29,0xfffffffffffdf936
    4350:	deadbeef          	jal	x29,0xfffffffffffdf93a
    4354:	deadbeef          	jal	x29,0xfffffffffffdf93e
    4358:	deadbeef          	jal	x29,0xfffffffffffdf942
    435c:	deadbeef          	jal	x29,0xfffffffffffdf946
    4360:	deadbeef          	jal	x29,0xfffffffffffdf94a
    4364:	deadbeef          	jal	x29,0xfffffffffffdf94e
    4368:	deadbeef          	jal	x29,0xfffffffffffdf952
    436c:	deadbeef          	jal	x29,0xfffffffffffdf956
    4370:	deadbeef          	jal	x29,0xfffffffffffdf95a
    4374:	deadbeef          	jal	x29,0xfffffffffffdf95e
    4378:	deadbeef          	jal	x29,0xfffffffffffdf962
    437c:	deadbeef          	jal	x29,0xfffffffffffdf966
    4380:	deadbeef          	jal	x29,0xfffffffffffdf96a
    4384:	deadbeef          	jal	x29,0xfffffffffffdf96e
    4388:	deadbeef          	jal	x29,0xfffffffffffdf972
    438c:	deadbeef          	jal	x29,0xfffffffffffdf976
    4390:	deadbeef          	jal	x29,0xfffffffffffdf97a
    4394:	deadbeef          	jal	x29,0xfffffffffffdf97e
    4398:	deadbeef          	jal	x29,0xfffffffffffdf982
    439c:	deadbeef          	jal	x29,0xfffffffffffdf986
    43a0:	deadbeef          	jal	x29,0xfffffffffffdf98a
    43a4:	deadbeef          	jal	x29,0xfffffffffffdf98e
    43a8:	deadbeef          	jal	x29,0xfffffffffffdf992
    43ac:	deadbeef          	jal	x29,0xfffffffffffdf996
    43b0:	deadbeef          	jal	x29,0xfffffffffffdf99a
    43b4:	deadbeef          	jal	x29,0xfffffffffffdf99e
    43b8:	deadbeef          	jal	x29,0xfffffffffffdf9a2
    43bc:	deadbeef          	jal	x29,0xfffffffffffdf9a6
    43c0:	deadbeef          	jal	x29,0xfffffffffffdf9aa
    43c4:	deadbeef          	jal	x29,0xfffffffffffdf9ae
    43c8:	deadbeef          	jal	x29,0xfffffffffffdf9b2
    43cc:	deadbeef          	jal	x29,0xfffffffffffdf9b6
    43d0:	deadbeef          	jal	x29,0xfffffffffffdf9ba
    43d4:	deadbeef          	jal	x29,0xfffffffffffdf9be
    43d8:	deadbeef          	jal	x29,0xfffffffffffdf9c2
    43dc:	deadbeef          	jal	x29,0xfffffffffffdf9c6
    43e0:	deadbeef          	jal	x29,0xfffffffffffdf9ca
    43e4:	deadbeef          	jal	x29,0xfffffffffffdf9ce
    43e8:	deadbeef          	jal	x29,0xfffffffffffdf9d2
    43ec:	deadbeef          	jal	x29,0xfffffffffffdf9d6
    43f0:	deadbeef          	jal	x29,0xfffffffffffdf9da
    43f4:	deadbeef          	jal	x29,0xfffffffffffdf9de
    43f8:	deadbeef          	jal	x29,0xfffffffffffdf9e2
    43fc:	deadbeef          	jal	x29,0xfffffffffffdf9e6
    4400:	deadbeef          	jal	x29,0xfffffffffffdf9ea
    4404:	deadbeef          	jal	x29,0xfffffffffffdf9ee
    4408:	deadbeef          	jal	x29,0xfffffffffffdf9f2
    440c:	deadbeef          	jal	x29,0xfffffffffffdf9f6
    4410:	deadbeef          	jal	x29,0xfffffffffffdf9fa
    4414:	deadbeef          	jal	x29,0xfffffffffffdf9fe
    4418:	deadbeef          	jal	x29,0xfffffffffffdfa02
    441c:	deadbeef          	jal	x29,0xfffffffffffdfa06
    4420:	deadbeef          	jal	x29,0xfffffffffffdfa0a
    4424:	deadbeef          	jal	x29,0xfffffffffffdfa0e
    4428:	deadbeef          	jal	x29,0xfffffffffffdfa12
    442c:	deadbeef          	jal	x29,0xfffffffffffdfa16
    4430:	b281                	c.j	0x3d70
    4432:	e7d4                	c.sd	x13,136(x15)
    4434:	a309                	c.j	0x4936
    4436:	6f5c                	c.ld	x15,152(x14)
	...
    4440:	3a434347          	fmsub.d	f6,f6,f4,f7,rmm
    4444:	2820                	c.fld	f8,80(x8)
    4446:	6255                	c.lui	x4,0x15
    4448:	6e75                	c.lui	x28,0x1d
    444a:	7574                	c.ld	x13,232(x10)
    444c:	3120                	c.fld	f8,96(x10)
    444e:	2e31                	c.addiw	x28,12 # 0x1d00c
    4450:	2e32                	c.fldsp	f28,264(x2)
    4452:	2d30                	c.fld	f12,88(x10)
    4454:	3631                	c.addiw	x12,-20
    4456:	6275                	c.lui	x4,0x1d
    4458:	6e75                	c.lui	x28,0x1d
    445a:	7574                	c.ld	x13,232(x10)
    445c:	2931                	c.addiw	x18,12
    445e:	3120                	c.fld	f8,96(x10)
    4460:	2e31                	c.addiw	x28,12 # 0x1d00c
    4462:	2e32                	c.fldsp	f28,264(x2)
    4464:	0030                	c.addi4spn	x12,x2,8
    4466:	2d41                	c.addiw	x26,16
    4468:	0000                	c.unimp
    446a:	7200                	c.ld	x8,32(x12)
    446c:	7369                	c.lui	x6,0xffffa
    446e:	01007663          	bgeu	x0,x16,0x447a
    4472:	00000023          	sb	x0,0(x0) # 0x0
    4476:	7205                	c.lui	x4,0xfffe1
    4478:	3676                	c.fldsp	f12,376(x2)
    447a:	6934                	c.ld	x13,80(x10)
    447c:	7032                	.insn	2, 0x7032
    447e:	5f30                	c.lw	x12,120(x14)
    4480:	326d                	c.addiw	x4,-5 # 0xfffffffffffe0ffb
    4482:	3070                	c.fld	f12,224(x8)
    4484:	615f 7032 5f30      	.insn	6, 0x5f307032615f
    448a:	3266                	c.fldsp	f4,120(x2)
    448c:	3070                	c.fld	f12,224(x8)
    448e:	645f 7032 0030      	.insn	6, 0x00307032645f
	...
    44b4:	00010003          	lb	x0,0(x2)
    44b8:	0000                	c.unimp
    44ba:	8000                	.insn	2, 0x8000
	...
    44cc:	00020003          	lb	x0,0(x4) # 0x0
    44d0:	1640                	c.addi4spn	x8,x2,804
    44d2:	8000                	.insn	2, 0x8000
	...
    44e4:	00030003          	lb	x0,0(x6) # 0xffffffffffffa000
    44e8:	2000                	c.fld	f8,0(x8)
    44ea:	8000                	.insn	2, 0x8000
	...
    44fc:	00040003          	lb	x0,0(x8)
	...
    4514:	00050003          	lb	x0,0(x10)
	...
    4528:	0001                	c.addi	x0,0
    452a:	0000                	c.unimp
    452c:	0004                	.insn	2, 0x0004
    452e:	fff1                	c.bnez	x15,0x450a
	...
    4540:	0009                	c.addi	x0,2
    4542:	0000                	c.unimp
    4544:	0000                	c.unimp
    4546:	0001                	c.addi	x0,0
    4548:	0000                	c.unimp
    454a:	8000                	.insn	2, 0x8000
	...
    4558:	000c                	.insn	2, 0x000c
    455a:	0000                	c.unimp
    455c:	0004                	.insn	2, 0x0004
    455e:	fff1                	c.bnez	x15,0x453a
	...
    4570:	0009                	c.addi	x0,2
    4572:	0000                	c.unimp
    4574:	0000                	c.unimp
    4576:	0001                	c.addi	x0,0
    4578:	0010                	.insn	2, 0x0010
    457a:	8000                	.insn	2, 0x8000
	...
    4588:	00000013          	addi	x0,x0,0
    458c:	0004                	.insn	2, 0x0004
    458e:	fff1                	c.bnez	x15,0x456a
	...
    45a0:	0021                	c.addi	x0,8
    45a2:	0000                	c.unimp
    45a4:	0000                	c.unimp
    45a6:	fff1                	c.bnez	x15,0x4582
    45a8:	00000003          	lb	x0,0(x0) # 0x0
	...
    45b8:	0000002b          	.insn	4, 0x002b
    45bc:	0000                	c.unimp
    45be:	fff1                	c.bnez	x15,0x459a
    45c0:	0001                	c.addi	x0,0
	...
    45ce:	0000                	c.unimp
    45d0:	0035                	c.addi	x0,13
    45d2:	0000                	c.unimp
    45d4:	0000                	c.unimp
    45d6:	fff1                	c.bnez	x15,0x45b2
    45d8:	0002                	c.slli64	x0
	...
    45e6:	0000                	c.unimp
    45e8:	0009                	c.addi	x0,2
    45ea:	0000                	c.unimp
    45ec:	0000                	c.unimp
    45ee:	0001                	c.addi	x0,0
    45f0:	0040                	c.addi4spn	x8,x2,4
    45f2:	8000                	.insn	2, 0x8000
	...
    4600:	0000003f fff10000 	.insn	8, 0xfff100000000003f
    4608:	dad0                	c.sw	x12,52(x13)
    460a:	bad0                	c.fsd	f12,176(x13)
	...
    4618:	0044                	c.addi4spn	x9,x2,4
    461a:	0000                	c.unimp
    461c:	0000                	c.unimp
    461e:	fff1                	c.bnez	x15,0x45fa
    4620:	0004                	.insn	2, 0x0004
	...
    462e:	0000                	c.unimp
    4630:	004a                	c.slli	x0,0x12
    4632:	0000                	c.unimp
    4634:	0000                	c.unimp
    4636:	fff1                	c.bnez	x15,0x4612
    4638:	0005                	c.addi	x0,1
	...
    4646:	0000                	c.unimp
    4648:	0050                	c.addi4spn	x12,x2,4
    464a:	0000                	c.unimp
    464c:	0000                	c.unimp
    464e:	fff1                	c.bnez	x15,0x462a
	...
    4660:	0055                	c.addi	x0,21
    4662:	0000                	c.unimp
    4664:	0000                	c.unimp
    4666:	fff1                	c.bnez	x15,0x4642
	...
    4678:	005a                	c.slli	x0,0x16
    467a:	0000                	c.unimp
    467c:	0000                	c.unimp
    467e:	fff1                	c.bnez	x15,0x465a
    4680:	dad0                	c.sw	x12,52(x13)
    4682:	bad0                	c.fsd	f12,176(x13)
	...
    4690:	005f 0000 0000      	.insn	6, 0x005f
    4696:	fff1                	c.bnez	x15,0x4672
    4698:	0040                	c.addi4spn	x8,x2,4
	...
    46a6:	0000                	c.unimp
    46a8:	00000063          	beq	x0,x0,0x46a8
    46ac:	0000                	c.unimp
    46ae:	fff1                	c.bnez	x15,0x468a
    46b0:	dad0                	c.sw	x12,52(x13)
    46b2:	bad0                	c.fsd	f12,176(x13)
	...
    46c0:	006a                	c.slli	x0,0x1a
    46c2:	0000                	c.unimp
    46c4:	0000                	c.unimp
    46c6:	fff1                	c.bnez	x15,0x46a2
    46c8:	0001                	c.addi	x0,0
	...
    46d6:	0000                	c.unimp
    46d8:	006e                	c.slli	x0,0x1b
    46da:	0000                	c.unimp
    46dc:	0000                	c.unimp
    46de:	fff1                	c.bnez	x15,0x46ba
    46e0:	fad0                	c.sd	x12,176(x13)
    46e2:	ffff                	.insn	2, 0xffff
    46e4:	ffff                	.insn	2, 0xffff
    46e6:	ffff                	.insn	2, 0xffff
	...
    46f0:	0074                	c.addi4spn	x13,x2,12
    46f2:	0000                	c.unimp
    46f4:	0000                	c.unimp
    46f6:	fff1                	c.bnez	x15,0x46d2
    46f8:	0001                	c.addi	x0,0
	...
    4706:	0000                	c.unimp
    4708:	0079                	c.addi	x0,30
    470a:	0000                	c.unimp
    470c:	0000                	c.unimp
    470e:	fff1                	c.bnez	x15,0x46ea
	...
    4720:	007e                	c.slli	x0,0x1f
    4722:	0000                	c.unimp
    4724:	0000                	c.unimp
    4726:	fff1                	c.bnez	x15,0x4702
    4728:	0dad                	c.addi	x27,11
    472a:	0bad                	c.addi	x23,11
	...
    4738:	0085                	c.addi	x1,1
    473a:	0000                	c.unimp
    473c:	0000                	c.unimp
    473e:	fff1                	c.bnez	x15,0x471a
    4740:	fdad                	c.bnez	x11,0x46ba
    4742:	ffff                	.insn	2, 0xffff
    4744:	ffff                	.insn	2, 0xffff
    4746:	ffff                	.insn	2, 0xffff
	...
    4750:	008d                	c.addi	x1,3
    4752:	0000                	c.unimp
    4754:	0000                	c.unimp
    4756:	fff1                	c.bnez	x15,0x4732
    4758:	0001                	c.addi	x0,0
	...
    4766:	0000                	c.unimp
    4768:	00000093          	addi	x1,x0,0
    476c:	0000                	c.unimp
    476e:	fff1                	c.bnez	x15,0x474a
    4770:	0dad                	c.addi	x27,11
    4772:	0bad                	c.addi	x23,11
	...
    4780:	009c                	c.addi4spn	x15,x2,64
    4782:	0000                	c.unimp
    4784:	0000                	c.unimp
    4786:	30080003          	lb	x0,768(x16)
    478a:	8000                	.insn	2, 0x8000
	...
    4798:	0615                	c.addi	x12,5
    479a:	0000                	c.unimp
    479c:	0000                	c.unimp
    479e:	fff1                	c.bnez	x15,0x477a
	...
    47b0:	000000ab          	.insn	4, 0x00ab
    47b4:	0000                	c.unimp
    47b6:	0001                	c.addi	x0,0
    47b8:	0440                	c.addi4spn	x8,x2,516
    47ba:	8000                	.insn	2, 0x8000
	...
    47c8:	00b2                	c.slli	x1,0xc
    47ca:	0000                	c.unimp
    47cc:	0000                	c.unimp
    47ce:	0001                	c.addi	x0,0
    47d0:	0460                	c.addi4spn	x8,x2,524
    47d2:	8000                	.insn	2, 0x8000
	...
    47e0:	00b9                	c.addi	x1,14
    47e2:	0000                	c.unimp
    47e4:	0000                	c.unimp
    47e6:	0001                	c.addi	x0,0
    47e8:	047c                	c.addi4spn	x15,x2,524
    47ea:	8000                	.insn	2, 0x8000
	...
    47f8:	00c0                	c.addi4spn	x8,x2,68
    47fa:	0000                	c.unimp
    47fc:	0000                	c.unimp
    47fe:	0001                	c.addi	x0,0
    4800:	049c                	c.addi4spn	x15,x2,576
    4802:	8000                	.insn	2, 0x8000
	...
    4810:	000000c7          	fmsub.s	f1,f0,f0,f0,rne
    4814:	0000                	c.unimp
    4816:	0001                	c.addi	x0,0
    4818:	04b8                	c.addi4spn	x14,x2,584
    481a:	8000                	.insn	2, 0x8000
	...
    4828:	00ce                	c.slli	x1,0x13
    482a:	0000                	c.unimp
    482c:	0000                	c.unimp
    482e:	0001                	c.addi	x0,0
    4830:	04d4                	c.addi4spn	x13,x2,580
    4832:	8000                	.insn	2, 0x8000
	...
    4840:	00d5                	c.addi	x1,21
    4842:	0000                	c.unimp
    4844:	0000                	c.unimp
    4846:	0001                	c.addi	x0,0
    4848:	04f8                	c.addi4spn	x14,x2,588
    484a:	8000                	.insn	2, 0x8000
	...
    4858:	00dc                	c.addi4spn	x15,x2,68
    485a:	0000                	c.unimp
    485c:	0000                	c.unimp
    485e:	0001                	c.addi	x0,0
    4860:	0518                	c.addi4spn	x14,x2,640
    4862:	8000                	.insn	2, 0x8000
	...
    4870:	000000e3          	beq	x0,x0,0x5070
    4874:	0000                	c.unimp
    4876:	0001                	c.addi	x0,0
    4878:	0538                	c.addi4spn	x14,x2,648
    487a:	8000                	.insn	2, 0x8000
	...
    4888:	00ea                	c.slli	x1,0x1a
    488a:	0000                	c.unimp
    488c:	0000                	c.unimp
    488e:	0001                	c.addi	x0,0
    4890:	0558                	c.addi4spn	x14,x2,644
    4892:	8000                	.insn	2, 0x8000
	...
    48a0:	00f1                	c.addi	x1,28
    48a2:	0000                	c.unimp
    48a4:	0000                	c.unimp
    48a6:	0001                	c.addi	x0,0
    48a8:	0578                	c.addi4spn	x14,x2,652
    48aa:	8000                	.insn	2, 0x8000
	...
    48b8:	00f9                	c.addi	x1,30
    48ba:	0000                	c.unimp
    48bc:	0000                	c.unimp
    48be:	0001                	c.addi	x0,0
    48c0:	0594                	c.addi4spn	x13,x2,704
    48c2:	8000                	.insn	2, 0x8000
	...
    48d0:	0101                	c.addi	x2,0
    48d2:	0000                	c.unimp
    48d4:	0000                	c.unimp
    48d6:	0001                	c.addi	x0,0
    48d8:	05b0                	c.addi4spn	x12,x2,712
    48da:	8000                	.insn	2, 0x8000
	...
    48e8:	0109                	c.addi	x2,2
    48ea:	0000                	c.unimp
    48ec:	0000                	c.unimp
    48ee:	0001                	c.addi	x0,0
    48f0:	05cc                	c.addi4spn	x11,x2,708
    48f2:	8000                	.insn	2, 0x8000
	...
    4900:	0111                	c.addi	x2,4
    4902:	0000                	c.unimp
    4904:	0000                	c.unimp
    4906:	0001                	c.addi	x0,0
    4908:	05e8                	c.addi4spn	x10,x2,716
    490a:	8000                	.insn	2, 0x8000
	...
    4918:	0119                	c.addi	x2,6
    491a:	0000                	c.unimp
    491c:	0000                	c.unimp
    491e:	0001                	c.addi	x0,0
    4920:	0604                	c.addi4spn	x9,x2,768
    4922:	8000                	.insn	2, 0x8000
	...
    4930:	0121                	c.addi	x2,8
    4932:	0000                	c.unimp
    4934:	0000                	c.unimp
    4936:	0001                	c.addi	x0,0
    4938:	0620                	c.addi4spn	x8,x2,776
    493a:	8000                	.insn	2, 0x8000
	...
    4948:	0129                	c.addi	x2,10
    494a:	0000                	c.unimp
    494c:	0000                	c.unimp
    494e:	0001                	c.addi	x0,0
    4950:	063c                	c.addi4spn	x15,x2,776
    4952:	8000                	.insn	2, 0x8000
	...
    4960:	0131                	c.addi	x2,12
    4962:	0000                	c.unimp
    4964:	0000                	c.unimp
    4966:	0001                	c.addi	x0,0
    4968:	0658                	c.addi4spn	x14,x2,772
    496a:	8000                	.insn	2, 0x8000
	...
    4978:	0139                	c.addi	x2,14
    497a:	0000                	c.unimp
    497c:	0000                	c.unimp
    497e:	0001                	c.addi	x0,0
    4980:	0674                	c.addi4spn	x13,x2,780
    4982:	8000                	.insn	2, 0x8000
	...
    4990:	0141                	c.addi	x2,16
    4992:	0000                	c.unimp
    4994:	0000                	c.unimp
    4996:	0001                	c.addi	x0,0
    4998:	0690                	c.addi4spn	x12,x2,832
    499a:	8000                	.insn	2, 0x8000
	...
    49a8:	0149                	c.addi	x2,18
    49aa:	0000                	c.unimp
    49ac:	0000                	c.unimp
    49ae:	30b00003          	lb	x0,779(x0) # 0x30b
    49b2:	8000                	.insn	2, 0x8000
	...
    49c0:	0158                	c.addi4spn	x14,x2,132
    49c2:	0000                	c.unimp
    49c4:	0000                	c.unimp
    49c6:	0001                	c.addi	x0,0
    49c8:	06e0                	c.addi4spn	x8,x2,844
    49ca:	8000                	.insn	2, 0x8000
	...
    49d8:	0160                	c.addi4spn	x8,x2,140
    49da:	0000                	c.unimp
    49dc:	0000                	c.unimp
    49de:	0001                	c.addi	x0,0
    49e0:	0700                	c.addi4spn	x8,x2,896
    49e2:	8000                	.insn	2, 0x8000
	...
    49f0:	0168                	c.addi4spn	x10,x2,140
    49f2:	0000                	c.unimp
    49f4:	0000                	c.unimp
    49f6:	0001                	c.addi	x0,0
    49f8:	0720                	c.addi4spn	x8,x2,904
    49fa:	8000                	.insn	2, 0x8000
	...
    4a08:	0170                	c.addi4spn	x12,x2,140
    4a0a:	0000                	c.unimp
    4a0c:	0000                	c.unimp
    4a0e:	0001                	c.addi	x0,0
    4a10:	0740                	c.addi4spn	x8,x2,900
    4a12:	8000                	.insn	2, 0x8000
	...
    4a20:	0178                	c.addi4spn	x14,x2,140
    4a22:	0000                	c.unimp
    4a24:	0000                	c.unimp
    4a26:	0001                	c.addi	x0,0
    4a28:	0760                	c.addi4spn	x8,x2,908
    4a2a:	8000                	.insn	2, 0x8000
	...
    4a38:	0180                	c.addi4spn	x8,x2,192
    4a3a:	0000                	c.unimp
    4a3c:	0000                	c.unimp
    4a3e:	0001                	c.addi	x0,0
    4a40:	0780                	c.addi4spn	x8,x2,960
    4a42:	8000                	.insn	2, 0x8000
	...
    4a50:	0188                	c.addi4spn	x10,x2,192
    4a52:	0000                	c.unimp
    4a54:	0000                	c.unimp
    4a56:	0001                	c.addi	x0,0
    4a58:	07a0                	c.addi4spn	x8,x2,968
    4a5a:	8000                	.insn	2, 0x8000
	...
    4a68:	0190                	c.addi4spn	x12,x2,192
    4a6a:	0000                	c.unimp
    4a6c:	0000                	c.unimp
    4a6e:	0001                	c.addi	x0,0
    4a70:	07c0                	c.addi4spn	x8,x2,964
    4a72:	8000                	.insn	2, 0x8000
	...
    4a80:	0198                	c.addi4spn	x14,x2,192
    4a82:	0000                	c.unimp
    4a84:	0000                	c.unimp
    4a86:	0001                	c.addi	x0,0
    4a88:	07e0                	c.addi4spn	x8,x2,972
    4a8a:	8000                	.insn	2, 0x8000
	...
    4a98:	01a0                	c.addi4spn	x8,x2,200
    4a9a:	0000                	c.unimp
    4a9c:	0000                	c.unimp
    4a9e:	0001                	c.addi	x0,0
    4aa0:	0800                	c.addi4spn	x8,x2,16
    4aa2:	8000                	.insn	2, 0x8000
	...
    4ab0:	01a8                	c.addi4spn	x10,x2,200
    4ab2:	0000                	c.unimp
    4ab4:	0000                	c.unimp
    4ab6:	0001                	c.addi	x0,0
    4ab8:	0820                	c.addi4spn	x8,x2,24
    4aba:	8000                	.insn	2, 0x8000
	...
    4ac8:	01b0                	c.addi4spn	x12,x2,200
    4aca:	0000                	c.unimp
    4acc:	0000                	c.unimp
    4ace:	0001                	c.addi	x0,0
    4ad0:	0840                	c.addi4spn	x8,x2,20
    4ad2:	8000                	.insn	2, 0x8000
	...
    4ae0:	01b8                	c.addi4spn	x14,x2,200
    4ae2:	0000                	c.unimp
    4ae4:	0000                	c.unimp
    4ae6:	0001                	c.addi	x0,0
    4ae8:	0860                	c.addi4spn	x8,x2,28
    4aea:	8000                	.insn	2, 0x8000
	...
    4af8:	01c0                	c.addi4spn	x8,x2,196
    4afa:	0000                	c.unimp
    4afc:	0000                	c.unimp
    4afe:	0001                	c.addi	x0,0
    4b00:	0880                	c.addi4spn	x8,x2,80
    4b02:	8000                	.insn	2, 0x8000
	...
    4b10:	01c8                	c.addi4spn	x10,x2,196
    4b12:	0000                	c.unimp
    4b14:	0000                	c.unimp
    4b16:	0001                	c.addi	x0,0
    4b18:	08a0                	c.addi4spn	x8,x2,88
    4b1a:	8000                	.insn	2, 0x8000
	...
    4b28:	01d0                	c.addi4spn	x12,x2,196
    4b2a:	0000                	c.unimp
    4b2c:	0000                	c.unimp
    4b2e:	0001                	c.addi	x0,0
    4b30:	08c0                	c.addi4spn	x8,x2,84
    4b32:	8000                	.insn	2, 0x8000
	...
    4b40:	01d8                	c.addi4spn	x14,x2,196
    4b42:	0000                	c.unimp
    4b44:	0000                	c.unimp
    4b46:	0001                	c.addi	x0,0
    4b48:	08e0                	c.addi4spn	x8,x2,92
    4b4a:	8000                	.insn	2, 0x8000
	...
    4b58:	01e0                	c.addi4spn	x8,x2,204
    4b5a:	0000                	c.unimp
    4b5c:	0000                	c.unimp
    4b5e:	0001                	c.addi	x0,0
    4b60:	0900                	c.addi4spn	x8,x2,144
    4b62:	8000                	.insn	2, 0x8000
	...
    4b70:	01e8                	c.addi4spn	x10,x2,204
    4b72:	0000                	c.unimp
    4b74:	0000                	c.unimp
    4b76:	0001                	c.addi	x0,0
    4b78:	0920                	c.addi4spn	x8,x2,152
    4b7a:	8000                	.insn	2, 0x8000
	...
    4b88:	01f0                	c.addi4spn	x12,x2,204
    4b8a:	0000                	c.unimp
    4b8c:	0000                	c.unimp
    4b8e:	0001                	c.addi	x0,0
    4b90:	0940                	c.addi4spn	x8,x2,148
    4b92:	8000                	.insn	2, 0x8000
	...
    4ba0:	01f8                	c.addi4spn	x14,x2,204
    4ba2:	0000                	c.unimp
    4ba4:	0000                	c.unimp
    4ba6:	0001                	c.addi	x0,0
    4ba8:	0960                	c.addi4spn	x8,x2,156
    4baa:	8000                	.insn	2, 0x8000
	...
    4bb8:	0200                	c.addi4spn	x8,x2,256
    4bba:	0000                	c.unimp
    4bbc:	0000                	c.unimp
    4bbe:	0001                	c.addi	x0,0
    4bc0:	0980                	c.addi4spn	x8,x2,208
    4bc2:	8000                	.insn	2, 0x8000
	...
    4bd0:	0208                	c.addi4spn	x10,x2,256
    4bd2:	0000                	c.unimp
    4bd4:	0000                	c.unimp
    4bd6:	0001                	c.addi	x0,0
    4bd8:	09a0                	c.addi4spn	x8,x2,216
    4bda:	8000                	.insn	2, 0x8000
	...
    4be8:	0210                	c.addi4spn	x12,x2,256
    4bea:	0000                	c.unimp
    4bec:	0000                	c.unimp
    4bee:	0001                	c.addi	x0,0
    4bf0:	09c0                	c.addi4spn	x8,x2,212
    4bf2:	8000                	.insn	2, 0x8000
	...
    4c00:	0218                	c.addi4spn	x14,x2,256
    4c02:	0000                	c.unimp
    4c04:	0000                	c.unimp
    4c06:	0001                	c.addi	x0,0
    4c08:	09e0                	c.addi4spn	x8,x2,220
    4c0a:	8000                	.insn	2, 0x8000
	...
    4c18:	0220                	c.addi4spn	x8,x2,264
    4c1a:	0000                	c.unimp
    4c1c:	0000                	c.unimp
    4c1e:	0001                	c.addi	x0,0
    4c20:	0a00                	c.addi4spn	x8,x2,272
    4c22:	8000                	.insn	2, 0x8000
	...
    4c30:	0228                	c.addi4spn	x10,x2,264
    4c32:	0000                	c.unimp
    4c34:	0000                	c.unimp
    4c36:	0001                	c.addi	x0,0
    4c38:	0a20                	c.addi4spn	x8,x2,280
    4c3a:	8000                	.insn	2, 0x8000
	...
    4c48:	0230                	c.addi4spn	x12,x2,264
    4c4a:	0000                	c.unimp
    4c4c:	0000                	c.unimp
    4c4e:	0001                	c.addi	x0,0
    4c50:	0a40                	c.addi4spn	x8,x2,276
    4c52:	8000                	.insn	2, 0x8000
	...
    4c60:	0238                	c.addi4spn	x14,x2,264
    4c62:	0000                	c.unimp
    4c64:	0000                	c.unimp
    4c66:	0001                	c.addi	x0,0
    4c68:	0a60                	c.addi4spn	x8,x2,284
    4c6a:	8000                	.insn	2, 0x8000
	...
    4c78:	0240                	c.addi4spn	x8,x2,260
    4c7a:	0000                	c.unimp
    4c7c:	0000                	c.unimp
    4c7e:	0001                	c.addi	x0,0
    4c80:	0a80                	c.addi4spn	x8,x2,336
    4c82:	8000                	.insn	2, 0x8000
	...
    4c90:	0248                	c.addi4spn	x10,x2,260
    4c92:	0000                	c.unimp
    4c94:	0000                	c.unimp
    4c96:	0001                	c.addi	x0,0
    4c98:	0aa0                	c.addi4spn	x8,x2,344
    4c9a:	8000                	.insn	2, 0x8000
	...
    4ca8:	0250                	c.addi4spn	x12,x2,260
    4caa:	0000                	c.unimp
    4cac:	0000                	c.unimp
    4cae:	0001                	c.addi	x0,0
    4cb0:	0ac0                	c.addi4spn	x8,x2,340
    4cb2:	8000                	.insn	2, 0x8000
	...
    4cc0:	0258                	c.addi4spn	x14,x2,260
    4cc2:	0000                	c.unimp
    4cc4:	0000                	c.unimp
    4cc6:	0001                	c.addi	x0,0
    4cc8:	0ae0                	c.addi4spn	x8,x2,348
    4cca:	8000                	.insn	2, 0x8000
	...
    4cd8:	0260                	c.addi4spn	x8,x2,268
    4cda:	0000                	c.unimp
    4cdc:	0000                	c.unimp
    4cde:	0001                	c.addi	x0,0
    4ce0:	0b00                	c.addi4spn	x8,x2,400
    4ce2:	8000                	.insn	2, 0x8000
	...
    4cf0:	0268                	c.addi4spn	x10,x2,268
    4cf2:	0000                	c.unimp
    4cf4:	0000                	c.unimp
    4cf6:	0001                	c.addi	x0,0
    4cf8:	0b20                	c.addi4spn	x8,x2,408
    4cfa:	8000                	.insn	2, 0x8000
	...
    4d08:	0270                	c.addi4spn	x12,x2,268
    4d0a:	0000                	c.unimp
    4d0c:	0000                	c.unimp
    4d0e:	0001                	c.addi	x0,0
    4d10:	0b40                	c.addi4spn	x8,x2,404
    4d12:	8000                	.insn	2, 0x8000
	...
    4d20:	0278                	c.addi4spn	x14,x2,268
    4d22:	0000                	c.unimp
    4d24:	0000                	c.unimp
    4d26:	0001                	c.addi	x0,0
    4d28:	0b60                	c.addi4spn	x8,x2,412
    4d2a:	8000                	.insn	2, 0x8000
	...
    4d38:	0280                	c.addi4spn	x8,x2,320
    4d3a:	0000                	c.unimp
    4d3c:	0000                	c.unimp
    4d3e:	0001                	c.addi	x0,0
    4d40:	0b80                	c.addi4spn	x8,x2,464
    4d42:	8000                	.insn	2, 0x8000
	...
    4d50:	0288                	c.addi4spn	x10,x2,320
    4d52:	0000                	c.unimp
    4d54:	0000                	c.unimp
    4d56:	0001                	c.addi	x0,0
    4d58:	0ba0                	c.addi4spn	x8,x2,472
    4d5a:	8000                	.insn	2, 0x8000
	...
    4d68:	0290                	c.addi4spn	x12,x2,320
    4d6a:	0000                	c.unimp
    4d6c:	0000                	c.unimp
    4d6e:	0001                	c.addi	x0,0
    4d70:	0bc0                	c.addi4spn	x8,x2,468
    4d72:	8000                	.insn	2, 0x8000
	...
    4d80:	0298                	c.addi4spn	x14,x2,320
    4d82:	0000                	c.unimp
    4d84:	0000                	c.unimp
    4d86:	0001                	c.addi	x0,0
    4d88:	0be0                	c.addi4spn	x8,x2,476
    4d8a:	8000                	.insn	2, 0x8000
	...
    4d98:	02a0                	c.addi4spn	x8,x2,328
    4d9a:	0000                	c.unimp
    4d9c:	0000                	c.unimp
    4d9e:	0001                	c.addi	x0,0
    4da0:	0c00                	c.addi4spn	x8,x2,528
    4da2:	8000                	.insn	2, 0x8000
	...
    4db0:	02a8                	c.addi4spn	x10,x2,328
    4db2:	0000                	c.unimp
    4db4:	0000                	c.unimp
    4db6:	0001                	c.addi	x0,0
    4db8:	0c20                	c.addi4spn	x8,x2,536
    4dba:	8000                	.insn	2, 0x8000
	...
    4dc8:	02b0                	c.addi4spn	x12,x2,328
    4dca:	0000                	c.unimp
    4dcc:	0000                	c.unimp
    4dce:	0001                	c.addi	x0,0
    4dd0:	0c40                	c.addi4spn	x8,x2,532
    4dd2:	8000                	.insn	2, 0x8000
	...
    4de0:	02b8                	c.addi4spn	x14,x2,328
    4de2:	0000                	c.unimp
    4de4:	0000                	c.unimp
    4de6:	0001                	c.addi	x0,0
    4de8:	0c60                	c.addi4spn	x8,x2,540
    4dea:	8000                	.insn	2, 0x8000
	...
    4df8:	02c0                	c.addi4spn	x8,x2,324
    4dfa:	0000                	c.unimp
    4dfc:	0000                	c.unimp
    4dfe:	0001                	c.addi	x0,0
    4e00:	0c80                	c.addi4spn	x8,x2,592
    4e02:	8000                	.insn	2, 0x8000
	...
    4e10:	02c8                	c.addi4spn	x10,x2,324
    4e12:	0000                	c.unimp
    4e14:	0000                	c.unimp
    4e16:	0001                	c.addi	x0,0
    4e18:	0ca0                	c.addi4spn	x8,x2,600
    4e1a:	8000                	.insn	2, 0x8000
	...
    4e28:	02d0                	c.addi4spn	x12,x2,324
    4e2a:	0000                	c.unimp
    4e2c:	0000                	c.unimp
    4e2e:	0001                	c.addi	x0,0
    4e30:	0cc0                	c.addi4spn	x8,x2,596
    4e32:	8000                	.insn	2, 0x8000
	...
    4e40:	02d8                	c.addi4spn	x14,x2,324
    4e42:	0000                	c.unimp
    4e44:	0000                	c.unimp
    4e46:	0001                	c.addi	x0,0
    4e48:	0ce0                	c.addi4spn	x8,x2,604
    4e4a:	8000                	.insn	2, 0x8000
	...
    4e58:	02e0                	c.addi4spn	x8,x2,332
    4e5a:	0000                	c.unimp
    4e5c:	0000                	c.unimp
    4e5e:	0001                	c.addi	x0,0
    4e60:	0d04                	c.addi4spn	x9,x2,656
    4e62:	8000                	.insn	2, 0x8000
	...
    4e70:	02e8                	c.addi4spn	x10,x2,332
    4e72:	0000                	c.unimp
    4e74:	0000                	c.unimp
    4e76:	0001                	c.addi	x0,0
    4e78:	0d28                	c.addi4spn	x10,x2,664
    4e7a:	8000                	.insn	2, 0x8000
	...
    4e88:	02f0                	c.addi4spn	x12,x2,332
    4e8a:	0000                	c.unimp
    4e8c:	0000                	c.unimp
    4e8e:	0001                	c.addi	x0,0
    4e90:	0d4c                	c.addi4spn	x11,x2,660
    4e92:	8000                	.insn	2, 0x8000
	...
    4ea0:	02f8                	c.addi4spn	x14,x2,332
    4ea2:	0000                	c.unimp
    4ea4:	0000                	c.unimp
    4ea6:	0001                	c.addi	x0,0
    4ea8:	0d70                	c.addi4spn	x12,x2,668
    4eaa:	8000                	.insn	2, 0x8000
	...
    4eb8:	0300                	c.addi4spn	x8,x2,384
    4eba:	0000                	c.unimp
    4ebc:	0000                	c.unimp
    4ebe:	0001                	c.addi	x0,0
    4ec0:	0d94                	c.addi4spn	x13,x2,720
    4ec2:	8000                	.insn	2, 0x8000
	...
    4ed0:	0308                	c.addi4spn	x10,x2,384
    4ed2:	0000                	c.unimp
    4ed4:	0000                	c.unimp
    4ed6:	0001                	c.addi	x0,0
    4ed8:	0db8                	c.addi4spn	x14,x2,728
    4eda:	8000                	.insn	2, 0x8000
	...
    4ee8:	0310                	c.addi4spn	x12,x2,384
    4eea:	0000                	c.unimp
    4eec:	0000                	c.unimp
    4eee:	0001                	c.addi	x0,0
    4ef0:	0ddc                	c.addi4spn	x15,x2,724
    4ef2:	8000                	.insn	2, 0x8000
	...
    4f00:	0318                	c.addi4spn	x14,x2,384
    4f02:	0000                	c.unimp
    4f04:	0000                	c.unimp
    4f06:	0001                	c.addi	x0,0
    4f08:	0e00                	c.addi4spn	x8,x2,784
    4f0a:	8000                	.insn	2, 0x8000
	...
    4f18:	0320                	c.addi4spn	x8,x2,392
    4f1a:	0000                	c.unimp
    4f1c:	0000                	c.unimp
    4f1e:	0001                	c.addi	x0,0
    4f20:	0e24                	c.addi4spn	x9,x2,792
    4f22:	8000                	.insn	2, 0x8000
	...
    4f30:	0328                	c.addi4spn	x10,x2,392
    4f32:	0000                	c.unimp
    4f34:	0000                	c.unimp
    4f36:	0001                	c.addi	x0,0
    4f38:	0e48                	c.addi4spn	x10,x2,788
    4f3a:	8000                	.insn	2, 0x8000
	...
    4f48:	0330                	c.addi4spn	x12,x2,392
    4f4a:	0000                	c.unimp
    4f4c:	0000                	c.unimp
    4f4e:	0001                	c.addi	x0,0
    4f50:	0e6c                	c.addi4spn	x11,x2,796
    4f52:	8000                	.insn	2, 0x8000
	...
    4f60:	0338                	c.addi4spn	x14,x2,392
    4f62:	0000                	c.unimp
    4f64:	0000                	c.unimp
    4f66:	0001                	c.addi	x0,0
    4f68:	0e90                	c.addi4spn	x12,x2,848
    4f6a:	8000                	.insn	2, 0x8000
	...
    4f78:	0340                	c.addi4spn	x8,x2,388
    4f7a:	0000                	c.unimp
    4f7c:	0000                	c.unimp
    4f7e:	0001                	c.addi	x0,0
    4f80:	0eb4                	c.addi4spn	x13,x2,856
    4f82:	8000                	.insn	2, 0x8000
	...
    4f90:	0348                	c.addi4spn	x10,x2,388
    4f92:	0000                	c.unimp
    4f94:	0000                	c.unimp
    4f96:	0001                	c.addi	x0,0
    4f98:	0eec                	c.addi4spn	x11,x2,860
    4f9a:	8000                	.insn	2, 0x8000
	...
    4fa8:	0350                	c.addi4spn	x12,x2,388
    4faa:	0000                	c.unimp
    4fac:	0000                	c.unimp
    4fae:	0001                	c.addi	x0,0
    4fb0:	0f24                	c.addi4spn	x9,x2,920
    4fb2:	8000                	.insn	2, 0x8000
	...
    4fc0:	0358                	c.addi4spn	x14,x2,388
    4fc2:	0000                	c.unimp
    4fc4:	0000                	c.unimp
    4fc6:	0001                	c.addi	x0,0
    4fc8:	0f40                	c.addi4spn	x8,x2,916
    4fca:	8000                	.insn	2, 0x8000
	...
    4fd8:	0360                	c.addi4spn	x8,x2,396
    4fda:	0000                	c.unimp
    4fdc:	0000                	c.unimp
    4fde:	0001                	c.addi	x0,0
    4fe0:	0f5c                	c.addi4spn	x15,x2,916
    4fe2:	8000                	.insn	2, 0x8000
	...
    4ff0:	0368                	c.addi4spn	x10,x2,396
    4ff2:	0000                	c.unimp
    4ff4:	0000                	c.unimp
    4ff6:	0001                	c.addi	x0,0
    4ff8:	0f78                	c.addi4spn	x14,x2,924
    4ffa:	8000                	.insn	2, 0x8000
	...
    5008:	0370                	c.addi4spn	x12,x2,396
    500a:	0000                	c.unimp
    500c:	0000                	c.unimp
    500e:	0001                	c.addi	x0,0
    5010:	0f94                	c.addi4spn	x13,x2,976
    5012:	8000                	.insn	2, 0x8000
	...
    5020:	0378                	c.addi4spn	x14,x2,396
    5022:	0000                	c.unimp
    5024:	0000                	c.unimp
    5026:	0001                	c.addi	x0,0
    5028:	0fb0                	c.addi4spn	x12,x2,984
    502a:	8000                	.insn	2, 0x8000
	...
    5038:	0380                	c.addi4spn	x8,x2,448
    503a:	0000                	c.unimp
    503c:	0000                	c.unimp
    503e:	0001                	c.addi	x0,0
    5040:	0fcc                	c.addi4spn	x11,x2,980
    5042:	8000                	.insn	2, 0x8000
	...
    5050:	0388                	c.addi4spn	x10,x2,448
    5052:	0000                	c.unimp
    5054:	0000                	c.unimp
    5056:	0001                	c.addi	x0,0
    5058:	0fe8                	c.addi4spn	x10,x2,988
    505a:	8000                	.insn	2, 0x8000
	...
    5068:	0390                	c.addi4spn	x12,x2,448
    506a:	0000                	c.unimp
    506c:	0000                	c.unimp
    506e:	0001                	c.addi	x0,0
    5070:	1004                	c.addi4spn	x9,x2,32
    5072:	8000                	.insn	2, 0x8000
	...
    5080:	0398                	c.addi4spn	x14,x2,448
    5082:	0000                	c.unimp
    5084:	0000                	c.unimp
    5086:	0001                	c.addi	x0,0
    5088:	1020                	c.addi4spn	x8,x2,40
    508a:	8000                	.insn	2, 0x8000
	...
    5098:	03a0                	c.addi4spn	x8,x2,456
    509a:	0000                	c.unimp
    509c:	0000                	c.unimp
    509e:	0001                	c.addi	x0,0
    50a0:	103c                	c.addi4spn	x15,x2,40
    50a2:	8000                	.insn	2, 0x8000
	...
    50b0:	03a8                	c.addi4spn	x10,x2,456
    50b2:	0000                	c.unimp
    50b4:	0000                	c.unimp
    50b6:	0001                	c.addi	x0,0
    50b8:	1060                	c.addi4spn	x8,x2,44
    50ba:	8000                	.insn	2, 0x8000
	...
    50c8:	03b0                	c.addi4spn	x12,x2,456
    50ca:	0000                	c.unimp
    50cc:	0000                	c.unimp
    50ce:	0001                	c.addi	x0,0
    50d0:	1084                	c.addi4spn	x9,x2,96
    50d2:	8000                	.insn	2, 0x8000
	...
    50e0:	03b8                	c.addi4spn	x14,x2,456
    50e2:	0000                	c.unimp
    50e4:	0000                	c.unimp
    50e6:	0001                	c.addi	x0,0
    50e8:	10a8                	c.addi4spn	x10,x2,104
    50ea:	8000                	.insn	2, 0x8000
	...
    50f8:	03c0                	c.addi4spn	x8,x2,452
    50fa:	0000                	c.unimp
    50fc:	0000                	c.unimp
    50fe:	0001                	c.addi	x0,0
    5100:	10cc                	c.addi4spn	x11,x2,100
    5102:	8000                	.insn	2, 0x8000
	...
    5110:	03c8                	c.addi4spn	x10,x2,452
    5112:	0000                	c.unimp
    5114:	0000                	c.unimp
    5116:	0001                	c.addi	x0,0
    5118:	10f0                	c.addi4spn	x12,x2,108
    511a:	8000                	.insn	2, 0x8000
	...
    5128:	03d0                	c.addi4spn	x12,x2,452
    512a:	0000                	c.unimp
    512c:	0000                	c.unimp
    512e:	0001                	c.addi	x0,0
    5130:	1114                	c.addi4spn	x13,x2,160
    5132:	8000                	.insn	2, 0x8000
	...
    5140:	03d9                	c.addi	x7,22
    5142:	0000                	c.unimp
    5144:	0000                	c.unimp
    5146:	0001                	c.addi	x0,0
    5148:	1138                	c.addi4spn	x14,x2,168
    514a:	8000                	.insn	2, 0x8000
	...
    5158:	03e2                	c.slli	x7,0x18
    515a:	0000                	c.unimp
    515c:	0000                	c.unimp
    515e:	0001                	c.addi	x0,0
    5160:	115c                	c.addi4spn	x15,x2,164
    5162:	8000                	.insn	2, 0x8000
	...
    5170:	000003eb          	.insn	4, 0x03eb
    5174:	0000                	c.unimp
    5176:	0001                	c.addi	x0,0
    5178:	1180                	c.addi4spn	x8,x2,224
    517a:	8000                	.insn	2, 0x8000
	...
    5188:	03f4                	c.addi4spn	x13,x2,460
    518a:	0000                	c.unimp
    518c:	0000                	c.unimp
    518e:	0001                	c.addi	x0,0
    5190:	11a4                	c.addi4spn	x9,x2,232
    5192:	8000                	.insn	2, 0x8000
	...
    51a0:	03fd                	c.addi	x7,31
    51a2:	0000                	c.unimp
    51a4:	0000                	c.unimp
    51a6:	0001                	c.addi	x0,0
    51a8:	11c8                	c.addi4spn	x10,x2,228
    51aa:	8000                	.insn	2, 0x8000
	...
    51b8:	0406                	c.slli	x8,0x1
    51ba:	0000                	c.unimp
    51bc:	0000                	c.unimp
    51be:	0001                	c.addi	x0,0
    51c0:	11ec                	c.addi4spn	x11,x2,236
    51c2:	8000                	.insn	2, 0x8000
	...
    51d0:	0000040f          	.insn	4, 0x040f
    51d4:	0000                	c.unimp
    51d6:	0001                	c.addi	x0,0
    51d8:	1210                	c.addi4spn	x12,x2,288
    51da:	8000                	.insn	2, 0x8000
	...
    51e8:	0418                	c.addi4spn	x14,x2,512
    51ea:	0000                	c.unimp
    51ec:	0000                	c.unimp
    51ee:	0001                	c.addi	x0,0
    51f0:	1234                	c.addi4spn	x13,x2,296
    51f2:	8000                	.insn	2, 0x8000
	...
    5200:	0421                	c.addi	x8,8
    5202:	0000                	c.unimp
    5204:	0000                	c.unimp
    5206:	0001                	c.addi	x0,0
    5208:	1258                	c.addi4spn	x14,x2,292
    520a:	8000                	.insn	2, 0x8000
	...
    5218:	042a                	c.slli	x8,0xa
    521a:	0000                	c.unimp
    521c:	0000                	c.unimp
    521e:	0001                	c.addi	x0,0
    5220:	127c                	c.addi4spn	x15,x2,300
    5222:	8000                	.insn	2, 0x8000
	...
    5230:	00000433          	add	x8,x0,x0
    5234:	0000                	c.unimp
    5236:	0001                	c.addi	x0,0
    5238:	12a0                	c.addi4spn	x8,x2,360
    523a:	8000                	.insn	2, 0x8000
	...
    5248:	043c                	c.addi4spn	x15,x2,520
    524a:	0000                	c.unimp
    524c:	0000                	c.unimp
    524e:	0001                	c.addi	x0,0
    5250:	12c4                	c.addi4spn	x9,x2,356
    5252:	8000                	.insn	2, 0x8000
	...
    5260:	0445                	c.addi	x8,17
    5262:	0000                	c.unimp
    5264:	0000                	c.unimp
    5266:	0001                	c.addi	x0,0
    5268:	12e8                	c.addi4spn	x10,x2,364
    526a:	8000                	.insn	2, 0x8000
	...
    5278:	044e                	c.slli	x8,0x13
    527a:	0000                	c.unimp
    527c:	0000                	c.unimp
    527e:	0001                	c.addi	x0,0
    5280:	130c                	c.addi4spn	x11,x2,416
    5282:	8000                	.insn	2, 0x8000
	...
    5290:	00000457          	.insn	4, 0x0457
    5294:	0000                	c.unimp
    5296:	0001                	c.addi	x0,0
    5298:	1330                	c.addi4spn	x12,x2,424
    529a:	8000                	.insn	2, 0x8000
	...
    52a8:	0460                	c.addi4spn	x8,x2,524
    52aa:	0000                	c.unimp
    52ac:	0000                	c.unimp
    52ae:	0001                	c.addi	x0,0
    52b0:	1354                	c.addi4spn	x13,x2,420
    52b2:	8000                	.insn	2, 0x8000
	...
    52c0:	0469                	c.addi	x8,26
    52c2:	0000                	c.unimp
    52c4:	0000                	c.unimp
    52c6:	0001                	c.addi	x0,0
    52c8:	1378                	c.addi4spn	x14,x2,428
    52ca:	8000                	.insn	2, 0x8000
	...
    52d8:	0472                	c.slli	x8,0x1c
    52da:	0000                	c.unimp
    52dc:	0000                	c.unimp
    52de:	0001                	c.addi	x0,0
    52e0:	139c                	c.addi4spn	x15,x2,480
    52e2:	8000                	.insn	2, 0x8000
	...
    52f0:	0000047b          	.insn	4, 0x047b
    52f4:	0000                	c.unimp
    52f6:	0001                	c.addi	x0,0
    52f8:	13c0                	c.addi4spn	x8,x2,484
    52fa:	8000                	.insn	2, 0x8000
	...
    5308:	0484                	c.addi4spn	x9,x2,576
    530a:	0000                	c.unimp
    530c:	0000                	c.unimp
    530e:	0001                	c.addi	x0,0
    5310:	13e4                	c.addi4spn	x9,x2,492
    5312:	8000                	.insn	2, 0x8000
	...
    5320:	048d                	c.addi	x9,3
    5322:	0000                	c.unimp
    5324:	0000                	c.unimp
    5326:	0001                	c.addi	x0,0
    5328:	1408                	c.addi4spn	x10,x2,544
    532a:	8000                	.insn	2, 0x8000
	...
    5338:	0496                	c.slli	x9,0x5
    533a:	0000                	c.unimp
    533c:	0000                	c.unimp
    533e:	0001                	c.addi	x0,0
    5340:	142c                	c.addi4spn	x11,x2,552
    5342:	8000                	.insn	2, 0x8000
	...
    5350:	049f 0000 0000      	.insn	6, 0x049f
    5356:	0001                	c.addi	x0,0
    5358:	1450                	c.addi4spn	x12,x2,548
    535a:	8000                	.insn	2, 0x8000
	...
    5368:	04a8                	c.addi4spn	x10,x2,584
    536a:	0000                	c.unimp
    536c:	0000                	c.unimp
    536e:	0001                	c.addi	x0,0
    5370:	1474                	c.addi4spn	x13,x2,556
    5372:	8000                	.insn	2, 0x8000
	...
    5380:	04b1                	c.addi	x9,12
    5382:	0000                	c.unimp
    5384:	0000                	c.unimp
    5386:	0001                	c.addi	x0,0
    5388:	1498                	c.addi4spn	x14,x2,608
    538a:	8000                	.insn	2, 0x8000
	...
    5398:	04ba                	c.slli	x9,0xe
    539a:	0000                	c.unimp
    539c:	0000                	c.unimp
    539e:	0001                	c.addi	x0,0
    53a0:	14bc                	c.addi4spn	x15,x2,616
    53a2:	8000                	.insn	2, 0x8000
	...
    53b0:	000004c3          	fmadd.s	f9,f0,f0,f0,rne
    53b4:	0000                	c.unimp
    53b6:	0001                	c.addi	x0,0
    53b8:	14e0                	c.addi4spn	x8,x2,620
    53ba:	8000                	.insn	2, 0x8000
	...
    53c8:	04cc                	c.addi4spn	x11,x2,580
    53ca:	0000                	c.unimp
    53cc:	0000                	c.unimp
    53ce:	0001                	c.addi	x0,0
    53d0:	1504                	c.addi4spn	x9,x2,672
    53d2:	8000                	.insn	2, 0x8000
	...
    53e0:	04d5                	c.addi	x9,21
    53e2:	0000                	c.unimp
    53e4:	0000                	c.unimp
    53e6:	0001                	c.addi	x0,0
    53e8:	1528                	c.addi4spn	x10,x2,680
    53ea:	8000                	.insn	2, 0x8000
	...
    53f8:	04de                	c.slli	x9,0x17
    53fa:	0000                	c.unimp
    53fc:	0000                	c.unimp
    53fe:	0001                	c.addi	x0,0
    5400:	154c                	c.addi4spn	x11,x2,676
    5402:	8000                	.insn	2, 0x8000
	...
    5410:	000004e7          	jalr	x9,0(x0) # 0x0
    5414:	0000                	c.unimp
    5416:	0001                	c.addi	x0,0
    5418:	1570                	c.addi4spn	x12,x2,684
    541a:	8000                	.insn	2, 0x8000
	...
    5428:	04f0                	c.addi4spn	x12,x2,588
    542a:	0000                	c.unimp
    542c:	0000                	c.unimp
    542e:	0001                	c.addi	x0,0
    5430:	1594                	c.addi4spn	x13,x2,736
    5432:	8000                	.insn	2, 0x8000
	...
    5440:	04f9                	c.addi	x9,30
    5442:	0000                	c.unimp
    5444:	0000                	c.unimp
    5446:	0001                	c.addi	x0,0
    5448:	15e8                	c.addi4spn	x10,x2,748
    544a:	8000                	.insn	2, 0x8000
	...
    5458:	0506                	c.slli	x10,0x1
    545a:	0000                	c.unimp
    545c:	0000                	c.unimp
    545e:	0001                	c.addi	x0,0
    5460:	15b4                	c.addi4spn	x13,x2,744
    5462:	8000                	.insn	2, 0x8000
	...
    5470:	0512                	c.slli	x10,0x4
    5472:	0000                	c.unimp
    5474:	0000                	c.unimp
    5476:	20000003          	lb	x0,512(x0) # 0x200
    547a:	8000                	.insn	2, 0x8000
	...
    5488:	051e                	c.slli	x10,0x7
    548a:	0000                	c.unimp
    548c:	0000                	c.unimp
    548e:	20100003          	lb	x0,513(x0) # 0x201
    5492:	8000                	.insn	2, 0x8000
	...
    54a0:	0000052b          	.insn	4, 0x052b
    54a4:	0000                	c.unimp
    54a6:	30000003          	lb	x0,768(x0) # 0x300
    54aa:	8000                	.insn	2, 0x8000
	...
    54b8:	053c                	c.addi4spn	x15,x2,648
    54ba:	0000                	c.unimp
    54bc:	0000                	c.unimp
    54be:	30000003          	lb	x0,768(x0) # 0x300
    54c2:	8000                	.insn	2, 0x8000
	...
    54d0:	054d                	c.addi	x10,19
    54d2:	0000                	c.unimp
    54d4:	0000                	c.unimp
    54d6:	30080003          	lb	x0,768(x16)
    54da:	8000                	.insn	2, 0x8000
	...
    54e8:	055c                	c.addi4spn	x15,x2,644
    54ea:	0000                	c.unimp
    54ec:	0000                	c.unimp
    54ee:	34300003          	lb	x0,835(x0) # 0x343
    54f2:	8000                	.insn	2, 0x8000
	...
    5500:	0000056b          	.insn	4, 0x056b
    5504:	0000                	c.unimp
    5506:	34380003          	lb	x0,835(x16)
    550a:	8000                	.insn	2, 0x8000
	...
    5518:	057a                	c.slli	x10,0x1e
    551a:	0000                	c.unimp
    551c:	0004                	.insn	2, 0x0004
    551e:	fff1                	c.bnez	x15,0x54fa
	...
    5530:	0009                	c.addi	x0,2
    5532:	0000                	c.unimp
    5534:	0000                	c.unimp
    5536:	0001                	c.addi	x0,0
    5538:	1610                	c.addi4spn	x12,x2,800
    553a:	8000                	.insn	2, 0x8000
	...
    5548:	0009                	c.addi	x0,2
    554a:	0000                	c.unimp
    554c:	0000                	c.unimp
    554e:	0001                	c.addi	x0,0
    5550:	161c                	c.addi4spn	x15,x2,800
    5552:	8000                	.insn	2, 0x8000
	...
    5560:	0580                	c.addi4spn	x8,x2,704
    5562:	0000                	c.unimp
    5564:	0001                	c.addi	x0,0
    5566:	0002                	c.slli64	x0
    5568:	1640                	c.addi4spn	x8,x2,804
    556a:	8000                	.insn	2, 0x8000
    556c:	0000                	c.unimp
    556e:	0000                	c.unimp
    5570:	0001                	c.addi	x0,0
    5572:	0000                	c.unimp
    5574:	0000                	c.unimp
    5576:	0000                	c.unimp
    5578:	0589                	c.addi	x11,2
    557a:	0000                	c.unimp
    557c:	0212                	c.slli	x4,0x4
    557e:	0001                	c.addi	x0,0
    5580:	161c                	c.addi4spn	x15,x2,800
    5582:	8000                	.insn	2, 0x8000
    5584:	0000                	c.unimp
    5586:	0000                	c.unimp
    5588:	0020                	c.addi4spn	x8,x2,8
    558a:	0000                	c.unimp
    558c:	0000                	c.unimp
    558e:	0000                	c.unimp
    5590:	00000593          	addi	x11,x0,0
    5594:	0010                	.insn	2, 0x0010
    5596:	c0000003          	lb	x0,-1024(x0) # 0xfffffffffffffc00
    559a:	8000                	.insn	2, 0x8000
	...
    55a8:	05a2                	c.slli	x11,0x8
    55aa:	0000                	c.unimp
    55ac:	0010                	.insn	2, 0x0010
    55ae:	34400003          	lb	x0,836(x0) # 0x344
    55b2:	8000                	.insn	2, 0x8000
	...
    55c0:	05b0                	c.addi4spn	x12,x2,712
    55c2:	0000                	c.unimp
    55c4:	0010                	.insn	2, 0x0010
    55c6:	0001                	c.addi	x0,0
    55c8:	163c                	c.addi4spn	x15,x2,808
    55ca:	8000                	.insn	2, 0x8000
	...
    55d8:	000005b7          	lui	x11,0x0
    55dc:	0010                	.insn	2, 0x0010
    55de:	fff1                	c.bnez	x15,0x55ba
    55e0:	0000                	c.unimp
    55e2:	8000                	.insn	2, 0x8000
	...
    55f0:	000005c3          	fmadd.s	f11,f0,f0,f0,rne
    55f4:	0010                	.insn	2, 0x0010
    55f6:	34400003          	lb	x0,836(x0) # 0x344
    55fa:	8000                	.insn	2, 0x8000
	...
    5608:	05ce                	c.slli	x11,0x13
    560a:	0000                	c.unimp
    560c:	0010                	.insn	2, 0x0010
    560e:	34400003          	lb	x0,836(x0) # 0x344
    5612:	8000                	.insn	2, 0x8000
	...
    5620:	05d4                	c.addi4spn	x13,x2,708
    5622:	0000                	c.unimp
    5624:	0010                	.insn	2, 0x0010
    5626:	c0000003          	lb	x0,-1024(x0) # 0xfffffffffffffc00
    562a:	8000                	.insn	2, 0x8000
	...
    5638:	05e0                	c.addi4spn	x8,x2,716
    563a:	0000                	c.unimp
    563c:	0010                	.insn	2, 0x0010
    563e:	40000003          	lb	x0,1024(x0) # 0x400
    5642:	8000                	.insn	2, 0x8000
	...
    5650:	000005eb          	.insn	4, 0x05eb
    5654:	0010                	.insn	2, 0x0010
    5656:	0001                	c.addi	x0,0
    5658:	0040                	c.addi4spn	x8,x2,4
    565a:	8000                	.insn	2, 0x8000
	...
    5668:	066d                	c.addi	x12,27
    566a:	0000                	c.unimp
    566c:	0010                	.insn	2, 0x0010
    566e:	c0000003          	lb	x0,-1024(x0) # 0xfffffffffffffc00
    5672:	8000                	.insn	2, 0x8000
	...
    5680:	05b1                	c.addi	x11,12 # 0xc
    5682:	0000                	c.unimp
    5684:	0010                	.insn	2, 0x0010
    5686:	0001                	c.addi	x0,0
    5688:	163c                	c.addi4spn	x15,x2,808
    568a:	8000                	.insn	2, 0x8000
	...
    5698:	05fe                	c.slli	x11,0x1f
    569a:	0000                	c.unimp
    569c:	0010                	.insn	2, 0x0010
    569e:	30000003          	lb	x0,768(x0) # 0x300
    56a2:	8000                	.insn	2, 0x8000
	...
    56b0:	05bc                	c.addi4spn	x15,x2,712
    56b2:	0000                	c.unimp
    56b4:	0012                	c.slli	x0,0x4
    56b6:	0001                	c.addi	x0,0
    56b8:	0000                	c.unimp
    56ba:	8000                	.insn	2, 0x8000
	...
    56c8:	060e                	c.slli	x12,0x3
    56ca:	0000                	c.unimp
    56cc:	0010                	.insn	2, 0x0010
    56ce:	fff1                	c.bnez	x15,0x56aa
	...
    56e0:	061c                	c.addi4spn	x15,x2,768
    56e2:	0000                	c.unimp
    56e4:	0010                	.insn	2, 0x0010
    56e6:	0001                	c.addi	x0,0
    56e8:	0040                	c.addi4spn	x8,x2,4
    56ea:	8000                	.insn	2, 0x8000
	...
    56f8:	0628                	c.addi4spn	x10,x2,776
    56fa:	0000                	c.unimp
    56fc:	0010                	.insn	2, 0x0010
    56fe:	0001                	c.addi	x0,0
    5700:	15b0                	c.addi4spn	x12,x2,744
    5702:	8000                	.insn	2, 0x8000
	...
    5710:	0638                	c.addi4spn	x14,x2,776
    5712:	0000                	c.unimp
    5714:	0010                	.insn	2, 0x0010
    5716:	0001                	c.addi	x0,0
    5718:	0420                	c.addi4spn	x8,x2,520
    571a:	8000                	.insn	2, 0x8000
	...
    5728:	064a                	c.slli	x12,0x12
    572a:	0000                	c.unimp
    572c:	0212                	c.slli	x4,0x4
    572e:	0001                	c.addi	x0,0
    5730:	0010                	.insn	2, 0x0010
    5732:	8000                	.insn	2, 0x8000
    5734:	0000                	c.unimp
    5736:	0000                	c.unimp
    5738:	0014                	.insn	2, 0x0014
    573a:	0000                	c.unimp
    573c:	0000                	c.unimp
    573e:	0000                	c.unimp
    5740:	0000064f          	fnmadd.s	f12,f0,f0,f0,rne
    5744:	0010                	.insn	2, 0x0010
    5746:	20000003          	lb	x0,512(x0) # 0x200
    574a:	8000                	.insn	2, 0x8000
	...
    5758:	0661                	c.addi	x12,24
    575a:	0000                	c.unimp
    575c:	0010                	.insn	2, 0x0010
    575e:	30000003          	lb	x0,768(x0) # 0x300
    5762:	8000                	.insn	2, 0x8000
	...
    5770:	0518                	c.addi4spn	x14,x2,640
    5772:	0000                	c.unimp
    5774:	0010                	.insn	2, 0x0010
    5776:	34400003          	lb	x0,836(x0) # 0x344
    577a:	8000                	.insn	2, 0x8000
	...
    5788:	0671                	c.addi	x12,28
    578a:	0000                	c.unimp
    578c:	0010                	.insn	2, 0x0010
    578e:	0001                	c.addi	x0,0
    5790:	15b0                	c.addi4spn	x12,x2,744
    5792:	8000                	.insn	2, 0x8000
	...
    57a0:	066c                	c.addi4spn	x11,x2,780
    57a2:	0000                	c.unimp
    57a4:	0010                	.insn	2, 0x0010
    57a6:	c0000003          	lb	x0,-1024(x0) # 0xfffffffffffffc00
    57aa:	8000                	.insn	2, 0x8000
	...
    57b8:	0681                	c.addi	x13,0
    57ba:	0000                	c.unimp
    57bc:	0212                	c.slli	x4,0x4
    57be:	0001                	c.addi	x0,0
    57c0:	1610                	c.addi4spn	x12,x2,800
    57c2:	8000                	.insn	2, 0x8000
    57c4:	0000                	c.unimp
    57c6:	0000                	c.unimp
    57c8:	000c                	.insn	2, 0x000c
    57ca:	0000                	c.unimp
    57cc:	0000                	c.unimp
    57ce:	0000                	c.unimp
    57d0:	7300                	c.ld	x8,32(x14)
    57d2:	6174                	c.ld	x13,192(x10)
    57d4:	7472                	c.ldsp	x8,312(x2)
    57d6:	6f2e                	c.ldsp	x30,200(x2)
    57d8:	2400                	c.fld	f8,8(x8)
    57da:	0078                	c.addi4spn	x14,x2,12
    57dc:	616d                	c.addi16sp	x2,240
    57de:	6e69                	c.lui	x28,0x1a
    57e0:	632e                	c.ldsp	x6,200(x2)
    57e2:	7300                	c.ld	x8,32(x14)
    57e4:	2d68                	c.fld	f10,216(x10)
    57e6:	6c61                	c.lui	x24,0x18
    57e8:	6769                	c.lui	x14,0x1a
    57ea:	2d6e                	c.fldsp	f26,216(x2)
    57ec:	3130                	c.fld	f12,96(x10)
    57ee:	6f2e                	c.ldsp	x30,200(x2)
    57f0:	4d00                	c.lw	x8,24(x10)
    57f2:	4f4d                	c.li	x30,19
    57f4:	4544                	c.lw	x9,12(x10)
    57f6:	535f 4749 5300      	.insn	6, 0x53004749535f
    57fc:	4f4d                	c.li	x30,19
    57fe:	4544                	c.lw	x9,12(x10)
    5800:	535f 4749 5600      	.insn	6, 0x56004749535f
    5806:	4f4d                	c.li	x30,19
    5808:	4544                	c.lw	x9,12(x10)
    580a:	535f 4749 6900      	.insn	6, 0x69004749535f
    5810:	6d6d                	c.lui	x26,0x1b
    5812:	0078                	c.addi4spn	x14,x2,12
    5814:	6465                	c.lui	x8,0x19
    5816:	00316567          	.insn	4, 0x00316567
    581a:	6465                	c.lui	x8,0x19
    581c:	00326567          	.insn	4, 0x00326567
    5820:	6e66                	c.ldsp	x28,88(x2)
    5822:	3164                	c.fld	f9,224(x10)
    5824:	6600                	c.ld	x8,8(x12)
    5826:	646e                	c.ldsp	x8,216(x2)
    5828:	0032                	c.slli	x0,0xc
    582a:	6d69                	c.lui	x26,0x1a
    582c:	656d                	c.lui	x10,0x1b
    582e:	7000                	c.ld	x8,32(x8)
    5830:	6100736f          	jal	x6,0xce40
    5834:	7362                	c.ldsp	x6,56(x2)
    5836:	6d69                	c.lui	x26,0x1a
    5838:	006d                	c.addi	x0,27
    583a:	00797263          	bgeu	x18,x7,0x583e
    583e:	6d69                	c.lui	x26,0x1a
    5840:	316d                	c.addiw	x2,-5
    5842:	0032                	c.slli	x0,0xc
    5844:	7665                	c.lui	x12,0xffff9
    5846:	6e65                	c.lui	x28,0x19
    5848:	6300                	c.ld	x8,0(x14)
    584a:	7972                	c.ldsp	x18,312(x2)
    584c:	0068                	c.addi4spn	x10,x2,12
    584e:	6d69                	c.lui	x26,0x1a
    5850:	786d                	c.lui	x16,0xffffb
    5852:	69006873          	csrrsi	x16,0x690,0
    5856:	6d6d                	c.lui	x26,0x1b
    5858:	3231                	c.addiw	x4,-20 # 0xffffffffffffffec
    585a:	63006873          	csrrsi	x16,0x630,0
    585e:	7972                	c.ldsp	x18,312(x2)
    5860:	61006873          	csrrsi	x16,0x610,0
    5864:	7362                	c.ldsp	x6,56(x2)
    5866:	6d69                	c.lui	x26,0x1a
    5868:	736d                	c.lui	x6,0xffffb
    586a:	0068                	c.addi4spn	x10,x2,12
    586c:	6e676973          	csrrsi	x18,0x6e6,14
    5870:	7461                	c.lui	x8,0xffff8
    5872:	7275                	c.lui	x4,0xffffd
    5874:	5f65                	c.li	x30,-7
    5876:	3778                	c.fld	f14,232(x14)
    5878:	315f 6900 736e      	.insn	6, 0x736e6900315f
    587e:	5f74                	c.lw	x13,124(x14)
    5880:	0030                	c.addi4spn	x12,x2,8
    5882:	6e69                	c.lui	x28,0x1a
    5884:	315f7473          	csrrci	x8,0x315,30
    5888:	6900                	c.ld	x8,16(x10)
    588a:	736e                	c.ldsp	x6,248(x2)
    588c:	5f74                	c.lw	x13,124(x14)
    588e:	0032                	c.slli	x0,0xc
    5890:	6e69                	c.lui	x28,0x1a
    5892:	335f7473          	csrrci	x8,mhpmevent21,30
    5896:	6900                	c.ld	x8,16(x10)
    5898:	736e                	c.ldsp	x6,248(x2)
    589a:	5f74                	c.lw	x13,124(x14)
    589c:	0034                	c.addi4spn	x13,x2,8
    589e:	6e69                	c.lui	x28,0x1a
    58a0:	355f7473          	csrrci	x8,0x355,30
    58a4:	6900                	c.ld	x8,16(x10)
    58a6:	736e                	c.ldsp	x6,248(x2)
    58a8:	5f74                	c.lw	x13,124(x14)
    58aa:	0036                	c.slli	x0,0xd
    58ac:	6e69                	c.lui	x28,0x1a
    58ae:	375f7473          	csrrci	x8,0x375,30
    58b2:	6900                	c.ld	x8,16(x10)
    58b4:	736e                	c.ldsp	x6,248(x2)
    58b6:	5f74                	c.lw	x13,124(x14)
    58b8:	0038                	c.addi4spn	x14,x2,8
    58ba:	6e69                	c.lui	x28,0x1a
    58bc:	395f7473          	csrrci	x8,0x395,30
    58c0:	6900                	c.ld	x8,16(x10)
    58c2:	736e                	c.ldsp	x6,248(x2)
    58c4:	5f74                	c.lw	x13,124(x14)
    58c6:	3031                	.insn	2, 0x3031
    58c8:	6900                	c.ld	x8,16(x10)
    58ca:	736e                	c.ldsp	x6,248(x2)
    58cc:	5f74                	c.lw	x13,124(x14)
    58ce:	3131                	c.addiw	x2,-20
    58d0:	6900                	c.ld	x8,16(x10)
    58d2:	736e                	c.ldsp	x6,248(x2)
    58d4:	5f74                	c.lw	x13,124(x14)
    58d6:	3231                	c.addiw	x4,-20 # 0xffffffffffffcfec
    58d8:	6900                	c.ld	x8,16(x10)
    58da:	736e                	c.ldsp	x6,248(x2)
    58dc:	5f74                	c.lw	x13,124(x14)
    58de:	3331                	c.addiw	x6,-20 # 0xffffffffffffafec
    58e0:	6900                	c.ld	x8,16(x10)
    58e2:	736e                	c.ldsp	x6,248(x2)
    58e4:	5f74                	c.lw	x13,124(x14)
    58e6:	3431                	c.addiw	x8,-20 # 0xffffffffffff7fec
    58e8:	6900                	c.ld	x8,16(x10)
    58ea:	736e                	c.ldsp	x6,248(x2)
    58ec:	5f74                	c.lw	x13,124(x14)
    58ee:	3531                	c.addiw	x10,-20 # 0x1afec
    58f0:	6900                	c.ld	x8,16(x10)
    58f2:	736e                	c.ldsp	x6,248(x2)
    58f4:	5f74                	c.lw	x13,124(x14)
    58f6:	3631                	c.addiw	x12,-20 # 0xffffffffffff8fec
    58f8:	6900                	c.ld	x8,16(x10)
    58fa:	736e                	c.ldsp	x6,248(x2)
    58fc:	5f74                	c.lw	x13,124(x14)
    58fe:	3731                	c.addiw	x14,-20 # 0x19fec
    5900:	6900                	c.ld	x8,16(x10)
    5902:	736e                	c.ldsp	x6,248(x2)
    5904:	5f74                	c.lw	x13,124(x14)
    5906:	3831                	c.addiw	x16,-20 # 0xffffffffffffafec
    5908:	6900                	c.ld	x8,16(x10)
    590a:	736e                	c.ldsp	x6,248(x2)
    590c:	5f74                	c.lw	x13,124(x14)
    590e:	3931                	c.addiw	x18,-20
    5910:	6900                	c.ld	x8,16(x10)
    5912:	736e                	c.ldsp	x6,248(x2)
    5914:	5f74                	c.lw	x13,124(x14)
    5916:	3032                	c.fldsp	f0,296(x2)
    5918:	7300                	c.ld	x8,32(x14)
    591a:	6769                	c.lui	x14,0x1a
    591c:	616e                	c.ldsp	x2,216(x2)
    591e:	7574                	c.ld	x13,232(x10)
    5920:	6572                	c.ldsp	x10,280(x2)
    5922:	785f 5f31 0030      	.insn	6, 0x00305f31785f
    5928:	6e69                	c.lui	x28,0x1a
    592a:	325f7473          	csrrci	x8,mhpmevent5,30
    592e:	0031                	c.addi	x0,12
    5930:	6e69                	c.lui	x28,0x1a
    5932:	325f7473          	csrrci	x8,mhpmevent5,30
    5936:	0032                	c.slli	x0,0xc
    5938:	6e69                	c.lui	x28,0x1a
    593a:	325f7473          	csrrci	x8,mhpmevent5,30
    593e:	6e690033          	.insn	4, 0x6e690033
    5942:	325f7473          	csrrci	x8,mhpmevent5,30
    5946:	0034                	c.addi4spn	x13,x2,8
    5948:	6e69                	c.lui	x28,0x1a
    594a:	325f7473          	csrrci	x8,mhpmevent5,30
    594e:	0035                	c.addi	x0,13
    5950:	6e69                	c.lui	x28,0x1a
    5952:	325f7473          	csrrci	x8,mhpmevent5,30
    5956:	0036                	c.slli	x0,0xd
    5958:	6e69                	c.lui	x28,0x1a
    595a:	325f7473          	csrrci	x8,mhpmevent5,30
    595e:	6e690037          	lui	x0,0x6e690
    5962:	325f7473          	csrrci	x8,mhpmevent5,30
    5966:	0038                	c.addi4spn	x14,x2,8
    5968:	6e69                	c.lui	x28,0x1a
    596a:	325f7473          	csrrci	x8,mhpmevent5,30
    596e:	0039                	c.addi	x0,14
    5970:	6e69                	c.lui	x28,0x1a
    5972:	335f7473          	csrrci	x8,mhpmevent21,30
    5976:	0030                	c.addi4spn	x12,x2,8
    5978:	6e69                	c.lui	x28,0x1a
    597a:	335f7473          	csrrci	x8,mhpmevent21,30
    597e:	0031                	c.addi	x0,12
    5980:	6e69                	c.lui	x28,0x1a
    5982:	335f7473          	csrrci	x8,mhpmevent21,30
    5986:	0032                	c.slli	x0,0xc
    5988:	6e69                	c.lui	x28,0x1a
    598a:	335f7473          	csrrci	x8,mhpmevent21,30
    598e:	6e690033          	.insn	4, 0x6e690033
    5992:	335f7473          	csrrci	x8,mhpmevent21,30
    5996:	0034                	c.addi4spn	x13,x2,8
    5998:	6e69                	c.lui	x28,0x1a
    599a:	335f7473          	csrrci	x8,mhpmevent21,30
    599e:	0035                	c.addi	x0,13
    59a0:	6e69                	c.lui	x28,0x1a
    59a2:	335f7473          	csrrci	x8,mhpmevent21,30
    59a6:	0036                	c.slli	x0,0xd
    59a8:	6e69                	c.lui	x28,0x1a
    59aa:	335f7473          	csrrci	x8,mhpmevent21,30
    59ae:	6e690037          	lui	x0,0x6e690
    59b2:	335f7473          	csrrci	x8,mhpmevent21,30
    59b6:	0038                	c.addi4spn	x14,x2,8
    59b8:	6e69                	c.lui	x28,0x1a
    59ba:	335f7473          	csrrci	x8,mhpmevent21,30
    59be:	0039                	c.addi	x0,14
    59c0:	6e69                	c.lui	x28,0x1a
    59c2:	345f7473          	csrrci	x8,0x345,30
    59c6:	0030                	c.addi4spn	x12,x2,8
    59c8:	6e69                	c.lui	x28,0x1a
    59ca:	345f7473          	csrrci	x8,0x345,30
    59ce:	0031                	c.addi	x0,12
    59d0:	6e69                	c.lui	x28,0x1a
    59d2:	345f7473          	csrrci	x8,0x345,30
    59d6:	0032                	c.slli	x0,0xc
    59d8:	6e69                	c.lui	x28,0x1a
    59da:	345f7473          	csrrci	x8,0x345,30
    59de:	6e690033          	.insn	4, 0x6e690033
    59e2:	345f7473          	csrrci	x8,0x345,30
    59e6:	0034                	c.addi4spn	x13,x2,8
    59e8:	6e69                	c.lui	x28,0x1a
    59ea:	345f7473          	csrrci	x8,0x345,30
    59ee:	0035                	c.addi	x0,13
    59f0:	6e69                	c.lui	x28,0x1a
    59f2:	345f7473          	csrrci	x8,0x345,30
    59f6:	0036                	c.slli	x0,0xd
    59f8:	6e69                	c.lui	x28,0x1a
    59fa:	345f7473          	csrrci	x8,0x345,30
    59fe:	6e690037          	lui	x0,0x6e690
    5a02:	345f7473          	csrrci	x8,0x345,30
    5a06:	0038                	c.addi4spn	x14,x2,8
    5a08:	6e69                	c.lui	x28,0x1a
    5a0a:	345f7473          	csrrci	x8,0x345,30
    5a0e:	0039                	c.addi	x0,14
    5a10:	6e69                	c.lui	x28,0x1a
    5a12:	355f7473          	csrrci	x8,0x355,30
    5a16:	0030                	c.addi4spn	x12,x2,8
    5a18:	6e69                	c.lui	x28,0x1a
    5a1a:	355f7473          	csrrci	x8,0x355,30
    5a1e:	0031                	c.addi	x0,12
    5a20:	6e69                	c.lui	x28,0x1a
    5a22:	355f7473          	csrrci	x8,0x355,30
    5a26:	0032                	c.slli	x0,0xc
    5a28:	6e69                	c.lui	x28,0x1a
    5a2a:	355f7473          	csrrci	x8,0x355,30
    5a2e:	6e690033          	.insn	4, 0x6e690033
    5a32:	355f7473          	csrrci	x8,0x355,30
    5a36:	0034                	c.addi4spn	x13,x2,8
    5a38:	6e69                	c.lui	x28,0x1a
    5a3a:	355f7473          	csrrci	x8,0x355,30
    5a3e:	0035                	c.addi	x0,13
    5a40:	6e69                	c.lui	x28,0x1a
    5a42:	355f7473          	csrrci	x8,0x355,30
    5a46:	0036                	c.slli	x0,0xd
    5a48:	6e69                	c.lui	x28,0x1a
    5a4a:	355f7473          	csrrci	x8,0x355,30
    5a4e:	6e690037          	lui	x0,0x6e690
    5a52:	355f7473          	csrrci	x8,0x355,30
    5a56:	0038                	c.addi4spn	x14,x2,8
    5a58:	6e69                	c.lui	x28,0x1a
    5a5a:	355f7473          	csrrci	x8,0x355,30
    5a5e:	0039                	c.addi	x0,14
    5a60:	6e69                	c.lui	x28,0x1a
    5a62:	365f7473          	csrrci	x8,0x365,30
    5a66:	0030                	c.addi4spn	x12,x2,8
    5a68:	6e69                	c.lui	x28,0x1a
    5a6a:	365f7473          	csrrci	x8,0x365,30
    5a6e:	0031                	c.addi	x0,12
    5a70:	6e69                	c.lui	x28,0x1a
    5a72:	365f7473          	csrrci	x8,0x365,30
    5a76:	0032                	c.slli	x0,0xc
    5a78:	6e69                	c.lui	x28,0x1a
    5a7a:	365f7473          	csrrci	x8,0x365,30
    5a7e:	6e690033          	.insn	4, 0x6e690033
    5a82:	365f7473          	csrrci	x8,0x365,30
    5a86:	0034                	c.addi4spn	x13,x2,8
    5a88:	6e69                	c.lui	x28,0x1a
    5a8a:	365f7473          	csrrci	x8,0x365,30
    5a8e:	0035                	c.addi	x0,13
    5a90:	6e69                	c.lui	x28,0x1a
    5a92:	365f7473          	csrrci	x8,0x365,30
    5a96:	0036                	c.slli	x0,0xd
    5a98:	6e69                	c.lui	x28,0x1a
    5a9a:	365f7473          	csrrci	x8,0x365,30
    5a9e:	6e690037          	lui	x0,0x6e690
    5aa2:	365f7473          	csrrci	x8,0x365,30
    5aa6:	0038                	c.addi4spn	x14,x2,8
    5aa8:	6e69                	c.lui	x28,0x1a
    5aaa:	365f7473          	csrrci	x8,0x365,30
    5aae:	0039                	c.addi	x0,14
    5ab0:	6e69                	c.lui	x28,0x1a
    5ab2:	375f7473          	csrrci	x8,0x375,30
    5ab6:	0030                	c.addi4spn	x12,x2,8
    5ab8:	6e69                	c.lui	x28,0x1a
    5aba:	375f7473          	csrrci	x8,0x375,30
    5abe:	0031                	c.addi	x0,12
    5ac0:	6e69                	c.lui	x28,0x1a
    5ac2:	375f7473          	csrrci	x8,0x375,30
    5ac6:	0032                	c.slli	x0,0xc
    5ac8:	6e69                	c.lui	x28,0x1a
    5aca:	375f7473          	csrrci	x8,0x375,30
    5ace:	6e690033          	.insn	4, 0x6e690033
    5ad2:	375f7473          	csrrci	x8,0x375,30
    5ad6:	0034                	c.addi4spn	x13,x2,8
    5ad8:	6e69                	c.lui	x28,0x1a
    5ada:	375f7473          	csrrci	x8,0x375,30
    5ade:	0035                	c.addi	x0,13
    5ae0:	6e69                	c.lui	x28,0x1a
    5ae2:	375f7473          	csrrci	x8,0x375,30
    5ae6:	0036                	c.slli	x0,0xd
    5ae8:	6e69                	c.lui	x28,0x1a
    5aea:	375f7473          	csrrci	x8,0x375,30
    5aee:	6e690037          	lui	x0,0x6e690
    5af2:	375f7473          	csrrci	x8,0x375,30
    5af6:	0038                	c.addi4spn	x14,x2,8
    5af8:	6e69                	c.lui	x28,0x1a
    5afa:	375f7473          	csrrci	x8,0x375,30
    5afe:	0039                	c.addi	x0,14
    5b00:	6e69                	c.lui	x28,0x1a
    5b02:	385f7473          	csrrci	x8,0x385,30
    5b06:	0030                	c.addi4spn	x12,x2,8
    5b08:	6e69                	c.lui	x28,0x1a
    5b0a:	385f7473          	csrrci	x8,0x385,30
    5b0e:	0031                	c.addi	x0,12
    5b10:	6e69                	c.lui	x28,0x1a
    5b12:	385f7473          	csrrci	x8,0x385,30
    5b16:	0032                	c.slli	x0,0xc
    5b18:	6e69                	c.lui	x28,0x1a
    5b1a:	385f7473          	csrrci	x8,0x385,30
    5b1e:	6e690033          	.insn	4, 0x6e690033
    5b22:	385f7473          	csrrci	x8,0x385,30
    5b26:	0034                	c.addi4spn	x13,x2,8
    5b28:	6e69                	c.lui	x28,0x1a
    5b2a:	385f7473          	csrrci	x8,0x385,30
    5b2e:	0035                	c.addi	x0,13
    5b30:	6e69                	c.lui	x28,0x1a
    5b32:	385f7473          	csrrci	x8,0x385,30
    5b36:	0036                	c.slli	x0,0xd
    5b38:	6e69                	c.lui	x28,0x1a
    5b3a:	385f7473          	csrrci	x8,0x385,30
    5b3e:	6e690037          	lui	x0,0x6e690
    5b42:	385f7473          	csrrci	x8,0x385,30
    5b46:	0038                	c.addi4spn	x14,x2,8
    5b48:	6e69                	c.lui	x28,0x1a
    5b4a:	385f7473          	csrrci	x8,0x385,30
    5b4e:	0039                	c.addi	x0,14
    5b50:	6e69                	c.lui	x28,0x1a
    5b52:	395f7473          	csrrci	x8,0x395,30
    5b56:	0030                	c.addi4spn	x12,x2,8
    5b58:	6e69                	c.lui	x28,0x1a
    5b5a:	395f7473          	csrrci	x8,0x395,30
    5b5e:	0031                	c.addi	x0,12
    5b60:	6e69                	c.lui	x28,0x1a
    5b62:	395f7473          	csrrci	x8,0x395,30
    5b66:	0032                	c.slli	x0,0xc
    5b68:	6e69                	c.lui	x28,0x1a
    5b6a:	395f7473          	csrrci	x8,0x395,30
    5b6e:	6e690033          	.insn	4, 0x6e690033
    5b72:	395f7473          	csrrci	x8,0x395,30
    5b76:	0034                	c.addi4spn	x13,x2,8
    5b78:	6e69                	c.lui	x28,0x1a
    5b7a:	395f7473          	csrrci	x8,0x395,30
    5b7e:	0035                	c.addi	x0,13
    5b80:	6e69                	c.lui	x28,0x1a
    5b82:	395f7473          	csrrci	x8,0x395,30
    5b86:	0036                	c.slli	x0,0xd
    5b88:	6e69                	c.lui	x28,0x1a
    5b8a:	395f7473          	csrrci	x8,0x395,30
    5b8e:	6e690037          	lui	x0,0x6e690
    5b92:	395f7473          	csrrci	x8,0x395,30
    5b96:	0038                	c.addi4spn	x14,x2,8
    5b98:	6e69                	c.lui	x28,0x1a
    5b9a:	395f7473          	csrrci	x8,0x395,30
    5b9e:	0039                	c.addi	x0,14
    5ba0:	6e69                	c.lui	x28,0x1a
    5ba2:	315f7473          	csrrci	x8,0x315,30
    5ba6:	3030                	c.fld	f12,96(x8)
    5ba8:	6900                	c.ld	x8,16(x10)
    5baa:	736e                	c.ldsp	x6,248(x2)
    5bac:	5f74                	c.lw	x13,124(x14)
    5bae:	3031                	.insn	2, 0x3031
    5bb0:	0031                	c.addi	x0,12
    5bb2:	6e69                	c.lui	x28,0x1a
    5bb4:	315f7473          	csrrci	x8,0x315,30
    5bb8:	3230                	c.fld	f12,96(x12)
    5bba:	6900                	c.ld	x8,16(x10)
    5bbc:	736e                	c.ldsp	x6,248(x2)
    5bbe:	5f74                	c.lw	x13,124(x14)
    5bc0:	3031                	.insn	2, 0x3031
    5bc2:	6e690033          	.insn	4, 0x6e690033
    5bc6:	315f7473          	csrrci	x8,0x315,30
    5bca:	3430                	c.fld	f12,104(x8)
    5bcc:	6900                	c.ld	x8,16(x10)
    5bce:	736e                	c.ldsp	x6,248(x2)
    5bd0:	5f74                	c.lw	x13,124(x14)
    5bd2:	3031                	.insn	2, 0x3031
    5bd4:	0035                	c.addi	x0,13
    5bd6:	6e69                	c.lui	x28,0x1a
    5bd8:	315f7473          	csrrci	x8,0x315,30
    5bdc:	3630                	c.fld	f12,104(x12)
    5bde:	6900                	c.ld	x8,16(x10)
    5be0:	736e                	c.ldsp	x6,248(x2)
    5be2:	5f74                	c.lw	x13,124(x14)
    5be4:	3031                	.insn	2, 0x3031
    5be6:	6e690037          	lui	x0,0x6e690
    5bea:	315f7473          	csrrci	x8,0x315,30
    5bee:	3830                	c.fld	f12,112(x8)
    5bf0:	6900                	c.ld	x8,16(x10)
    5bf2:	736e                	c.ldsp	x6,248(x2)
    5bf4:	5f74                	c.lw	x13,124(x14)
    5bf6:	3031                	.insn	2, 0x3031
    5bf8:	0039                	c.addi	x0,14
    5bfa:	6e69                	c.lui	x28,0x1a
    5bfc:	315f7473          	csrrci	x8,0x315,30
    5c00:	3031                	.insn	2, 0x3031
    5c02:	6900                	c.ld	x8,16(x10)
    5c04:	736e                	c.ldsp	x6,248(x2)
    5c06:	5f74                	c.lw	x13,124(x14)
    5c08:	3131                	c.addiw	x2,-20
    5c0a:	0031                	c.addi	x0,12
    5c0c:	6e69                	c.lui	x28,0x1a
    5c0e:	315f7473          	csrrci	x8,0x315,30
    5c12:	3231                	c.addiw	x4,-20 # 0xffffffffffffffec
    5c14:	6900                	c.ld	x8,16(x10)
    5c16:	736e                	c.ldsp	x6,248(x2)
    5c18:	5f74                	c.lw	x13,124(x14)
    5c1a:	3131                	c.addiw	x2,-20
    5c1c:	6e690033          	.insn	4, 0x6e690033
    5c20:	315f7473          	csrrci	x8,0x315,30
    5c24:	3431                	c.addiw	x8,-20
    5c26:	6900                	c.ld	x8,16(x10)
    5c28:	736e                	c.ldsp	x6,248(x2)
    5c2a:	5f74                	c.lw	x13,124(x14)
    5c2c:	3131                	c.addiw	x2,-20
    5c2e:	0035                	c.addi	x0,13
    5c30:	6e69                	c.lui	x28,0x1a
    5c32:	315f7473          	csrrci	x8,0x315,30
    5c36:	3631                	c.addiw	x12,-20
    5c38:	6900                	c.ld	x8,16(x10)
    5c3a:	736e                	c.ldsp	x6,248(x2)
    5c3c:	5f74                	c.lw	x13,124(x14)
    5c3e:	3131                	c.addiw	x2,-20
    5c40:	6e690037          	lui	x0,0x6e690
    5c44:	315f7473          	csrrci	x8,0x315,30
    5c48:	3831                	c.addiw	x16,-20
    5c4a:	6900                	c.ld	x8,16(x10)
    5c4c:	736e                	c.ldsp	x6,248(x2)
    5c4e:	5f74                	c.lw	x13,124(x14)
    5c50:	3131                	c.addiw	x2,-20
    5c52:	0039                	c.addi	x0,14
    5c54:	6e69                	c.lui	x28,0x1a
    5c56:	315f7473          	csrrci	x8,0x315,30
    5c5a:	3032                	c.fldsp	f0,296(x2)
    5c5c:	6900                	c.ld	x8,16(x10)
    5c5e:	736e                	c.ldsp	x6,248(x2)
    5c60:	5f74                	c.lw	x13,124(x14)
    5c62:	3231                	c.addiw	x4,-20 # 0xffffffffffffffec
    5c64:	0031                	c.addi	x0,12
    5c66:	6e69                	c.lui	x28,0x1a
    5c68:	315f7473          	csrrci	x8,0x315,30
    5c6c:	3232                	c.fldsp	f4,296(x2)
    5c6e:	6900                	c.ld	x8,16(x10)
    5c70:	736e                	c.ldsp	x6,248(x2)
    5c72:	5f74                	c.lw	x13,124(x14)
    5c74:	3231                	c.addiw	x4,-20 # 0xffffffffffffffec
    5c76:	6e690033          	.insn	4, 0x6e690033
    5c7a:	315f7473          	csrrci	x8,0x315,30
    5c7e:	3432                	c.fldsp	f8,296(x2)
    5c80:	6900                	c.ld	x8,16(x10)
    5c82:	736e                	c.ldsp	x6,248(x2)
    5c84:	5f74                	c.lw	x13,124(x14)
    5c86:	3231                	c.addiw	x4,-20 # 0xffffffffffffffec
    5c88:	0035                	c.addi	x0,13
    5c8a:	6e69                	c.lui	x28,0x1a
    5c8c:	315f7473          	csrrci	x8,0x315,30
    5c90:	3632                	c.fldsp	f12,296(x2)
    5c92:	6900                	c.ld	x8,16(x10)
    5c94:	736e                	c.ldsp	x6,248(x2)
    5c96:	5f74                	c.lw	x13,124(x14)
    5c98:	3231                	c.addiw	x4,-20 # 0xffffffffffffffec
    5c9a:	6e690037          	lui	x0,0x6e690
    5c9e:	315f7473          	csrrci	x8,0x315,30
    5ca2:	3832                	c.fldsp	f16,296(x2)
    5ca4:	6900                	c.ld	x8,16(x10)
    5ca6:	736e                	c.ldsp	x6,248(x2)
    5ca8:	5f74                	c.lw	x13,124(x14)
    5caa:	3231                	c.addiw	x4,-20 # 0xffffffffffffffec
    5cac:	0039                	c.addi	x0,14
    5cae:	6e69                	c.lui	x28,0x1a
    5cb0:	315f7473          	csrrci	x8,0x315,30
    5cb4:	69003033          	.insn	4, 0x69003033
    5cb8:	736e                	c.ldsp	x6,248(x2)
    5cba:	5f74                	c.lw	x13,124(x14)
    5cbc:	3331                	c.addiw	x6,-20
    5cbe:	0031                	c.addi	x0,12
    5cc0:	6e69                	c.lui	x28,0x1a
    5cc2:	315f7473          	csrrci	x8,0x315,30
    5cc6:	65003233          	.insn	4, 0x65003233
    5cca:	6978                	c.ld	x14,208(x10)
    5ccc:	5f74                	c.lw	x13,124(x14)
    5cce:	61656c63          	bltu	x10,x22,0x62e6
    5cd2:	756e                	c.ldsp	x10,248(x2)
    5cd4:	0070                	c.addi4spn	x12,x2,12
    5cd6:	6261                	c.lui	x4,0x18
    5cd8:	5f74726f          	jal	x4,0x4dace
    5cdc:	6574                	c.ld	x13,200(x10)
    5cde:	00737473          	csrrci	x8,0x7,6
    5ce2:	7672                	c.ldsp	x12,312(x2)
    5ce4:	6574                	c.ld	x13,200(x10)
    5ce6:	645f7473          	csrrci	x8,hvip,30
    5cea:	7461                	c.lui	x8,0xffff8
    5cec:	0061                	c.addi	x0,24
    5cee:	746d                	c.lui	x8,0xffffb
    5cf0:	6172                	c.ldsp	x2,280(x2)
    5cf2:	5f70                	c.lw	x12,124(x14)
    5cf4:	70676973          	csrrsi	x18,0x706,14
    5cf8:	7274                	c.ld	x13,224(x12)
    5cfa:	7200                	c.ld	x8,32(x12)
    5cfc:	7476                	c.ldsp	x8,376(x2)
    5cfe:	7365                	c.lui	x6,0xffff9
    5d00:	5f74                	c.lw	x13,124(x14)
    5d02:	5f676973          	csrrsi	x18,0x5f6,14
    5d06:	6562                	c.ldsp	x10,24(x2)
    5d08:	006e6967          	.insn	4, 0x006e6967
    5d0c:	5f676973          	csrrsi	x18,0x5f6,14
    5d10:	6562                	c.ldsp	x10,24(x2)
    5d12:	5f6e6967          	.insn	4, 0x5f6e6967
    5d16:	616e6163          	bltu	x28,x22,0x6318
    5d1a:	7972                	c.ldsp	x18,312(x2)
    5d1c:	7300                	c.ld	x8,32(x14)
    5d1e:	6769                	c.lui	x14,0x1a
    5d20:	616e                	c.ldsp	x2,216(x2)
    5d22:	7574                	c.ld	x13,232(x10)
    5d24:	6572                	c.ldsp	x10,280(x2)
    5d26:	785f 5f37 0030      	.insn	6, 0x00305f37785f
    5d2c:	5f676973          	csrrsi	x18,0x5f6,14
    5d30:	6e65                	c.lui	x28,0x19
    5d32:	5f64                	c.lw	x9,124(x14)
    5d34:	616e6163          	bltu	x28,x22,0x6336
    5d38:	7972                	c.ldsp	x18,312(x2)
    5d3a:	7200                	c.ld	x8,32(x12)
    5d3c:	7476                	c.ldsp	x8,376(x2)
    5d3e:	7365                	c.lui	x6,0xffff9
    5d40:	5f74                	c.lw	x13,124(x14)
    5d42:	5f676973          	csrrsi	x18,0x5f6,14
    5d46:	6e65                	c.lui	x28,0x19
    5d48:	0064                	c.addi4spn	x9,x2,12
    5d4a:	7274                	c.ld	x13,224(x12)
    5d4c:	2e6d                	c.addiw	x28,27 # 0x1901b
    5d4e:	616d0063          	beq	x26,x22,0x634e
    5d52:	6e69                	c.lui	x28,0x1a
    5d54:	7261                	c.lui	x4,0xffff8
    5d56:	5f007367          	.insn	4, 0x5f007367
    5d5a:	7274                	c.ld	x13,224(x12)
    5d5c:	5f6d                	c.li	x30,-5
    5d5e:	6e69                	c.lui	x28,0x1a
    5d60:	7469                	c.lui	x8,0xffffa
    5d62:	5f00                	c.lw	x8,56(x14)
    5d64:	63617473          	csrrci	x8,0x636,2
    5d68:	6f705f6b          	.insn	4, 0x6f705f6b
    5d6c:	6e69                	c.lui	x28,0x1a
    5d6e:	6574                	c.ld	x13,200(x10)
    5d70:	0072                	c.slli	x0,0x1c
    5d72:	6e65                	c.lui	x28,0x19
    5d74:	5f64                	c.lw	x9,124(x14)
    5d76:	6e676973          	csrrsi	x18,0x6e6,14
    5d7a:	7461                	c.lui	x8,0xffff8
    5d7c:	7275                	c.lui	x4,0xffffd
    5d7e:	0065                	c.addi	x0,25
    5d80:	655f 6574 7478      	.insn	6, 0x74786574655f
    5d86:	5f00                	c.lw	x8,56(x14)
    5d88:	6d70                	c.ld	x12,216(x10)
    5d8a:	6d65                	c.lui	x26,0x19
    5d8c:	735f 6174 7472      	.insn	6, 0x74726174735f
    5d92:	5f00                	c.lw	x8,56(x14)
    5d94:	7362                	c.ldsp	x6,56(x2)
    5d96:	74735f73          	csrrwi	x30,mseccfg,6
    5d9a:	7261                	c.lui	x4,0xffff8
    5d9c:	0074                	c.addi4spn	x13,x2,12
    5d9e:	6465                	c.lui	x8,0x19
    5da0:	7461                	c.lui	x8,0xffff8
    5da2:	0061                	c.addi	x0,24
    5da4:	685f 6165 5f70      	.insn	6, 0x5f706165685f
    5daa:	72617473          	csrrci	x8,mhpmevent6h,2
    5dae:	0074                	c.addi4spn	x13,x2,12
    5db0:	735f 6174 6b63      	.insn	6, 0x6b636174735f
    5db6:	745f 706f 7200      	.insn	6, 0x7200706f745f
    5dbc:	7476                	c.ldsp	x8,376(x2)
    5dbe:	7365                	c.lui	x6,0xffff9
    5dc0:	5f74                	c.lw	x13,124(x14)
    5dc2:	6e65                	c.lui	x28,0x19
    5dc4:	7274                	c.ld	x13,224(x12)
    5dc6:	5f79                	c.li	x30,-2
    5dc8:	6f70                	c.ld	x12,216(x14)
    5dca:	6e69                	c.lui	x28,0x1a
    5dcc:	0074                	c.addi4spn	x13,x2,12
    5dce:	6562                	c.ldsp	x10,24(x2)
    5dd0:	5f6e6967          	.insn	4, 0x5f6e6967
    5dd4:	6e676973          	csrrsi	x18,0x6e6,14
    5dd8:	7461                	c.lui	x8,0xffff8
    5dda:	7275                	c.lui	x4,0xffffd
    5ddc:	0065                	c.addi	x0,25
    5dde:	655f 746e 7972      	.insn	6, 0x7972746e655f
    5de4:	6f5f 6666 6573      	.insn	6, 0x657366666f5f
    5dea:	0074                	c.addi4spn	x13,x2,12
    5dec:	7672                	c.ldsp	x12,312(x2)
    5dee:	6574                	c.ld	x13,200(x10)
    5df0:	695f7473          	csrrci	x8,0x695,30
    5df4:	696e                	c.ldsp	x18,216(x2)
    5df6:	0074                	c.addi4spn	x13,x2,12
    5df8:	7672                	c.ldsp	x12,312(x2)
    5dfa:	6574                	c.ld	x13,200(x10)
    5dfc:	635f7473          	csrrci	x8,0x635,30
    5e00:	5f65646f          	jal	x8,0x5c3f6
    5e04:	6e65                	c.lui	x28,0x19
    5e06:	0064                	c.addi4spn	x9,x2,12
    5e08:	7672                	c.ldsp	x12,312(x2)
    5e0a:	6574                	c.ld	x13,200(x10)
    5e0c:	635f7473          	csrrci	x8,0x635,30
    5e10:	5f65646f          	jal	x8,0x5c406
    5e14:	6562                	c.ldsp	x10,24(x2)
    5e16:	006e6967          	.insn	4, 0x006e6967
    5e1a:	616d                	c.addi16sp	x2,240
    5e1c:	6e69                	c.lui	x28,0x1a
    5e1e:	7200                	c.ld	x8,32(x12)
    5e20:	7476                	c.ldsp	x8,376(x2)
    5e22:	7365                	c.lui	x6,0xffff9
    5e24:	5f74                	c.lw	x13,124(x14)
    5e26:	6164                	c.ld	x9,192(x10)
    5e28:	6174                	c.ld	x13,192(x10)
    5e2a:	625f 6765 6e69      	.insn	6, 0x6e696765625f
    5e30:	7200                	c.ld	x8,32(x12)
    5e32:	7476                	c.ldsp	x8,376(x2)
    5e34:	7365                	c.lui	x6,0xffff9
    5e36:	5f74                	c.lw	x13,124(x14)
    5e38:	6164                	c.ld	x9,192(x10)
    5e3a:	6174                	c.ld	x13,192(x10)
    5e3c:	655f 646e 6300      	.insn	6, 0x6300646e655f
    5e42:	656c                	c.ld	x11,200(x10)
    5e44:	6e61                	c.lui	x28,0x18
    5e46:	7075                	c.lui	x0,0xffffd
    5e48:	655f 6970 6f6c      	.insn	6, 0x6f6c6970655f
    5e4e:	68007367          	.insn	4, 0x68007367
    5e52:	6c61                	c.lui	x24,0x18
    5e54:	0074                	c.addi4spn	x13,x2,12
    5e56:	2e00                	c.fld	f8,24(x12)
    5e58:	746d7973          	csrrci	x18,0x746,26
    5e5c:	6261                	c.lui	x4,0x18
    5e5e:	2e00                	c.fld	f8,24(x12)
    5e60:	74727473          	csrrci	x8,mseccfg,4
    5e64:	6261                	c.lui	x4,0x18
    5e66:	2e00                	c.fld	f8,24(x12)
    5e68:	74736873          	csrrsi	x16,mseccfg,6
    5e6c:	7472                	c.ldsp	x8,312(x2)
    5e6e:	6261                	c.lui	x4,0x18
    5e70:	2e00                	c.fld	f8,24(x12)
    5e72:	6574                	c.ld	x13,200(x10)
    5e74:	7478                	c.ld	x14,232(x8)
    5e76:	2e00                	c.fld	f8,24(x12)
    5e78:	646f7273          	csrrci	x4,hviprio1,30
    5e7c:	7461                	c.lui	x8,0xffff8
    5e7e:	2e61                	c.addiw	x28,24 # 0x18018
    5e80:	616d                	c.addi16sp	x2,240
    5e82:	6e69                	c.lui	x28,0x1a
    5e84:	7261                	c.lui	x4,0xffff8
    5e86:	2e007367          	.insn	4, 0x2e007367
    5e8a:	6164                	c.ld	x9,192(x10)
    5e8c:	6174                	c.ld	x13,192(x10)
    5e8e:	2e00                	c.fld	f8,24(x12)
    5e90:	6d6d6f63          	bltu	x26,x22,0x656e
    5e94:	6e65                	c.lui	x28,0x19
    5e96:	0074                	c.addi4spn	x13,x2,12
    5e98:	722e                	c.ldsp	x4,232(x2)
    5e9a:	7369                	c.lui	x6,0xffffa
    5e9c:	612e7663          	bgeu	x28,x18,0x64a8
    5ea0:	7474                	c.ld	x13,232(x8)
    5ea2:	6972                	c.ldsp	x18,280(x2)
    5ea4:	7562                	c.ldsp	x10,56(x2)
    5ea6:	6574                	c.ld	x13,200(x10)
    5ea8:	00000073          	ecall
	...
    5ef0:	0000001b          	addiw	x0,x0,0
    5ef4:	0001                	c.addi	x0,0
    5ef6:	0000                	c.unimp
    5ef8:	0006                	c.slli	x0,0x1
	...
    5f02:	8000                	.insn	2, 0x8000
    5f04:	0000                	c.unimp
    5f06:	0000                	c.unimp
    5f08:	1000                	c.addi4spn	x8,x2,32
    5f0a:	0000                	c.unimp
    5f0c:	0000                	c.unimp
    5f0e:	0000                	c.unimp
    5f10:	163c                	c.addi4spn	x15,x2,808
	...
    5f1e:	0000                	c.unimp
    5f20:	0020                	c.addi4spn	x8,x2,8
	...
    5f2e:	0000                	c.unimp
    5f30:	0021                	c.addi	x0,8
    5f32:	0000                	c.unimp
    5f34:	0001                	c.addi	x0,0
    5f36:	0000                	c.unimp
    5f38:	0002                	c.slli64	x0
    5f3a:	0000                	c.unimp
    5f3c:	0000                	c.unimp
    5f3e:	0000                	c.unimp
    5f40:	1640                	c.addi4spn	x8,x2,804
    5f42:	8000                	.insn	2, 0x8000
    5f44:	0000                	c.unimp
    5f46:	0000                	c.unimp
    5f48:	2640                	c.fld	f8,136(x12)
    5f4a:	0000                	c.unimp
    5f4c:	0000                	c.unimp
    5f4e:	0000                	c.unimp
    5f50:	0001                	c.addi	x0,0
	...
    5f5e:	0000                	c.unimp
    5f60:	0008                	.insn	2, 0x0008
	...
    5f6e:	0000                	c.unimp
    5f70:	00000033          	add	x0,x0,x0
    5f74:	0001                	c.addi	x0,0
    5f76:	0000                	c.unimp
    5f78:	00000003          	lb	x0,0(x0) # 0x0
    5f7c:	0000                	c.unimp
    5f7e:	0000                	c.unimp
    5f80:	2000                	c.fld	f8,0(x8)
    5f82:	8000                	.insn	2, 0x8000
    5f84:	0000                	c.unimp
    5f86:	0000                	c.unimp
    5f88:	3000                	c.fld	f8,32(x8)
    5f8a:	0000                	c.unimp
    5f8c:	0000                	c.unimp
    5f8e:	0000                	c.unimp
    5f90:	1440                	c.addi4spn	x8,x2,548
	...
    5f9e:	0000                	c.unimp
    5fa0:	1000                	c.addi4spn	x8,x2,32
	...
    5fae:	0000                	c.unimp
    5fb0:	0039                	c.addi	x0,14
    5fb2:	0000                	c.unimp
    5fb4:	0001                	c.addi	x0,0
    5fb6:	0000                	c.unimp
    5fb8:	0030                	c.addi4spn	x12,x2,8
	...
    5fc6:	0000                	c.unimp
    5fc8:	4440                	c.lw	x8,12(x8)
    5fca:	0000                	c.unimp
    5fcc:	0000                	c.unimp
    5fce:	0000                	c.unimp
    5fd0:	0026                	c.slli	x0,0x9
	...
    5fde:	0000                	c.unimp
    5fe0:	0001                	c.addi	x0,0
    5fe2:	0000                	c.unimp
    5fe4:	0000                	c.unimp
    5fe6:	0000                	c.unimp
    5fe8:	0001                	c.addi	x0,0
    5fea:	0000                	c.unimp
    5fec:	0000                	c.unimp
    5fee:	0000                	c.unimp
    5ff0:	0042                	c.slli	x0,0x10
    5ff2:	0000                	c.unimp
    5ff4:	70000003          	lb	x0,1792(x0) # 0x700
	...
    6008:	4466                	c.lwsp	x8,88(x2)
    600a:	0000                	c.unimp
    600c:	0000                	c.unimp
    600e:	0000                	c.unimp
    6010:	002e                	c.slli	x0,0xb
	...
    601e:	0000                	c.unimp
    6020:	0001                	c.addi	x0,0
	...
    602e:	0000                	c.unimp
    6030:	0001                	c.addi	x0,0
    6032:	0000                	c.unimp
    6034:	0002                	c.slli64	x0
	...
    6046:	0000                	c.unimp
    6048:	4498                	c.lw	x14,8(x9)
    604a:	0000                	c.unimp
    604c:	0000                	c.unimp
    604e:	0000                	c.unimp
    6050:	1338                	c.addi4spn	x14,x2,424
    6052:	0000                	c.unimp
    6054:	0000                	c.unimp
    6056:	0000                	c.unimp
    6058:	00000007          	.insn	4, 0x0007
    605c:	00b4                	c.addi4spn	x13,x2,72
    605e:	0000                	c.unimp
    6060:	0008                	.insn	2, 0x0008
    6062:	0000                	c.unimp
    6064:	0000                	c.unimp
    6066:	0000                	c.unimp
    6068:	0018                	.insn	2, 0x0018
    606a:	0000                	c.unimp
    606c:	0000                	c.unimp
    606e:	0000                	c.unimp
    6070:	0009                	c.addi	x0,2
    6072:	0000                	c.unimp
    6074:	00000003          	lb	x0,0(x0) # 0x0
	...
    6088:	57d0                	c.lw	x12,44(x15)
    608a:	0000                	c.unimp
    608c:	0000                	c.unimp
    608e:	0000                	c.unimp
    6090:	0686                	c.slli	x13,0x1
	...
    609e:	0000                	c.unimp
    60a0:	0001                	c.addi	x0,0
	...
    60ae:	0000                	c.unimp
    60b0:	0011                	c.addi	x0,4
    60b2:	0000                	c.unimp
    60b4:	00000003          	lb	x0,0(x0) # 0x0
	...
    60c8:	5e56                	c.lwsp	x28,116(x2)
    60ca:	0000                	c.unimp
    60cc:	0000                	c.unimp
    60ce:	0000                	c.unimp
    60d0:	0054                	c.addi4spn	x13,x2,4
	...
    60de:	0000                	c.unimp
    60e0:	0001                	c.addi	x0,0
	...
