
bin/riscv-arch-test/slliw-riscv64-nemu.bin:     file format binary

Contents of section .data:
 80000000 13040000 17c10000 1301c1ff ef108075  ...............u
 80000010 ef000003 13051000 ef100074 13050000  ...........t....
 80000020 67800000 13051000 ef100073 67800000  g..........sg...
 80000030 00000000 00000000 00000000 00000000  ................
 80000040 b7c0edfe 9380d0ea 9390b000 9380707f  ..............p.
 80000050 9390b000 9380f036 9390a000 9380d02a  .......6.......*
 80000060 37e176ff 130161f5 1311b100 1301b17f  7.v...a.........
 80000070 1311b100 1301715b 1311a100 13016135  ......q[......a5
 80000080 b771bb7f 9381b1fa 9391b100 9381d13f  .q.............?
 80000090 9391b100 9381b16d 9391a100 9381b13a  .......m.......:
 800000a0 37b2ddbf 1302527d 1312b200 1302e25f  7.....R}......._
 800000b0 1312b200 1302d276 1312a200 1302523d  .......v......R=
 800000c0 b7e2eedf 9382a2be 9392b200 9382f26f  ...............o
 800000d0 9392b200 9382623b 9392a200 9382a23e  ......b;.......>
 800000e0 3773f76f 130353df 1313b300 1303f337  7s.o..S........7
 800000f0 1313b300 1303b35d 1313a300 1303531f  .......]......S.
 80000100 b7b3fbb7 9383a36f 9393b300 9383f35b  .......o.......[
 80000110 9393b300 9383d36e 9393a300 9383a32f  .......n......./
 80000120 37e4fd5b 1304d4b7 1314b400 1304f42d  7..[...........-
 80000130 1314b400 13046477 1314a400 1304d437  ......dw.......7
 80000140 b7f4fead 9384e4db 9394b400 9384f456  ...............V
 80000150 9394b400 9384b47b 9394a400 9384e41b  .......{........
 80000160 3775ff56 1305f56d 1315b500 1305752b  7u.V...m......u+
 80000170 1315b500 1305d57d 1315a500 1305f52d  .......}.......-
 80000180 b7c57fab 9385f5b6 9395b500 9385b555  ...............U
 80000190 9395b500 9385e57e 9395a500 9385f536  .......~.......6
 800001a0 37e6bfd5 130676db 1316b600 1306d66a  7.....v........j
 800001b0 1316b600 1306767f 1316a600 1306761b  ......v.......v.
 800001c0 b7f6dfea 9386b6ed 9396b600 93866675  ..............fu
 800001d0 9396b600 9386b67f 9396a600 9386b62d  ...............-
 800001e0 37f76ff5 1307d776 1317b700 1307b77a  7.o....v.......z
 800001f0 1317b700 1307d73f 1317a700 1307d736  .......?.......6
 80000200 b707b8fa 938767bb 9397b700 9387577d  ......g.......W}
 80000210 9397b700 9387e75f 9397a700 9387673b  ......._......g;
 80000220 37085c7d 1308b8dd 1318b800 1308a83e  7.\}...........>
 80000230 1318b800 1308f86f 1318a800 1308b81d  .......o........
 80000240 b708aebe 9388d8ee 9398b800 9388585f  ..............X_
 80000250 9398b800 9388f837 9398a800 9388d82e  .......7........
 80000260 370957df 130969f7 1319b900 1309a96f  7.W...i........o
 80000270 1319b900 1309f95b 1319a900 13096937  .......[......i7
 80000280 b789ab6f 9389b9fb 9399b900 9389d937  ...o...........7
 80000290 9399b900 9389f92d 9399a900 9389b93b  .......-.......;
 800002a0 37cad5b7 130adafd 131aba00 130aea5b  7..............[
 800002b0 131aba00 130afa56 131aaa00 130ada3d  .......V.......=
 800002c0 b7eaeadb 938aeafe 939aba00 938afa6d  ...............m
 800002d0 939aba00 938a7a2b 939aaa00 938aea3e  ......z+.......>
 800002e0 377bf56d 130b7bff 131bbb00 130bfb36  7{.m..{........6
 800002f0 131bbb00 130bbb55 131bab00 130b7b3f  .......U......{?
 80000300 b7bbfab6 938bbb7f 939bbb00 938b7b5b  ..............{[
 80000310 939bbb00 938bdb6a 939bab00 938bbb3f  .......j.......?
 80000320 376c7ddb 130cdcbf 131cbc00 130cbc6d  7l}............m
 80000330 131cbc00 130c6c75 131cac00 130cdc3f  ......lu.......?
 80000340 b7bcbeed 938cecdf 939cbc00 938cdc76  ...............v
 80000350 939cbc00 938cbc7a 939cac00 938cec1f  .......z........
 80000360 375ddf76 130dfd6f 131dbd00 130d6d3b  7].v...o......m;
 80000370 131dbd00 130d5d7d 131dad00 130dfd2f  ......]}......./
 80000380 b7bd6fbb 938dfdb7 939dbd00 938dbd5d  ..o............]
 80000390 939dbd00 938dad3e 939dad00 938dfd37  .......>.......7
 800003a0 37deb7dd 130efe5b 131ebe00 130ede6e  7......[.......n
 800003b0 131ebe00 130e5e5f 131eae00 130efe1b  ......^_........
 800003c0 b7fedbee 938efead 939ebe00 938e6e77  ..............nw
 800003d0 939ebe00 938eae6f 939eae00 938efe2d  .......o.......-
 800003e0 37ff6df7 130fff56 131fbf00 130fbf7b  7.m....V.......{
 800003f0 131fbf00 130fdf37 131faf00 130fff16  .......7........
 80000400 b70fb7fb 938f7fab 939fbf00 938fdf7d  ...............}
 80000410 939fbf00 938fef5b 939faf00 938f7f2b  .......[.......+
 80000420 97300000 938080be 13000000 13000000  .0..............
 80000430 13000000 13000000 13000000 13000000  ................
 80000440 13051000 13152501 1345f5ff 1b156500  ......%..E....e.
 80000450 23b0a000 370200ff 1b0202fc 6304a200  #...7.......c...
 80000460 6ff05fbc 130e6000 9b1d7e01 23b4b001  o._...`...~.#...
 80000470 37020003 6304b201 6ff0dfba 13071000  7...c...o.......
 80000480 13170702 1347f7ff 1b160700 23b8c000  .....G......#...
 80000490 1302f0ff 6304c200 6ff0dfb8 93051000  ....c...o.......
 800004a0 93957503 1b9f0500 23bce001 13020000  ..u.....#.......
 800004b0 6304e201 6ff01fb7 13081000 13184803  c...o.........H.
 800004c0 1348f8ff 1b11f801 23b02002 37020080  .H......#. .7...
 800004d0 63042200 6ff01fb5 930f1000 939fef02  c.".o...........
 800004e0 1b9aff01 23b44003 13020000 63044201  ....#.@.....c.B.
 800004f0 6ff05fb3 130f5000 9b175f00 23b8f002  o._...P..._.#...
 80000500 1302000a 6304f200 6ff0dfb1 9301f0ff  ....c...o.......
 80000510 9391f103 9b93d101 23bc7002 13020000  ........#.p.....
 80000520 63047200 6ff01fb0 930c0000 1b981c01  c.r.o...........
 80000530 23b00005 13020000 63040201 6ff09fae  #.......c...o...
 80000540 9306f0ff 93d61600 9b9b4600 23b47005  ..........F.#.p.
 80000550 130200ff 63047201 6ff0dfac 13061000  ....c.r.o.......
 80000560 9b197601 23b83005 37028000 63043201  ..v.#.0.7...c.2.
 80000570 6ff05fab 93032000 9b9eb301 23bcd005  o._... .....#...
 80000580 37020010 6304d201 6ff0dfa9 13000000  7...c...o.......
 80000590 1b170000 23b0e006 13020000 6304e200  ....#.......c...
 800005a0 6ff05fa8 93088000 9b9f7800 23b4f007  o._.......x.#...
 800005b0 13020040 6304f201 6ff0dfa6 130a0001  ...@c...o.......
 800005c0 9b147a00 23b89006 37120000 1b020280  ..z.#...7.......
 800005d0 63049200 6ff01fa5 930e0002 1b9d5e01  c...o.........^.
 800005e0 23bca007 37020004 6304a201 6ff09fa3  #...7...c...o...
 800005f0 13090004 1b14b900 23b08008 37020200  ........#...7...
 80000600 63048200 6ff01fa2 13010008 9b126100  c...o.........a.
 80000610 23b45008 37220000 63045200 6ff09fa0  #.P.7"..c.R.o...
 80000620 930b0010 9b98eb00 23b81009 37024000  ........#...7.@.
 80000630 63041201 6ff01f9f 930a0020 1b9eea00  c...o...... ....
 80000640 23bcc009 37028000 6304c201 6ff09f9d  #...7...c...o...
 80000650 130c0040 1b134c00 23b0600a 37420000  ...@..L.#.`.7B..
 80000660 63046200 6ff01f9c 13000000 13000000  c.b.o...........
 80000670 13000000 13000000 13000000 13000000  ................
 80000680 17310000 130101a3 13000000 13000000  .1..............
 80000690 13000000 13000000 13000000 13000000  ................
 800006a0 13041000 1314b400 1b122401 23304100  ..........$.#0A.
 800006b0 b7030020 63844300 6ff0df96 93091000  ... c.C.o.......
 800006c0 9399c900 9b965901 2334d100 93030000  ......Y.#4......
 800006d0 6384d300 6ff01f95 93041000 9394d400  c...o...........
 800006e0 1b901400 23380100 93030000 63840300  ....#8......c...
 800006f0 6ff05f93 93001000 9390e000 9b9c8000  o._.............
 80000700 233c9101 b7034000 63849301 6ff09f91  #<....@.c...o...
 80000710 13031000 1313f300 1b1bd301 23306103  ............#0a.
 80000720 93030000 63846301 6ff0df8f 130b1000  ....c.c.o.......
 80000730 131b0b01 1b1c2b01 23348103 93030000  ......+.#4......
 80000740 63848301 6ff01f8e 130d1000 131d1d01  c...o...........
 80000750 1b19fd00 23382103 93030000 63842301  ....#8!.....c.#.
 80000760 6ff05f8c 13021000 13122201 9b102201  o._......."...".
 80000770 233c1102 93030000 63841300 6ff09f8a  #<......c...o...
 80000780 930d1000 939d3d01 9b95cd00 2330b104  ......=.....#0..
 80000790 b7030080 6384b300 6ff0df88 93071000  ....c...o.......
 800007a0 93974701 9b9a8700 23345105 b7030010  ..G.....#4Q.....
 800007b0 63845301 6ff01f87 93021000 93925201  c.S.o.........R.
 800007c0 9b91c200 23383104 93030000 63843300  ....#81.....c.3.
 800007d0 6ff05f85 13051000 13156501 9b159500  o._.......e.....
 800007e0 233cb104 b7030080 6384b300 6ff09f83  #<......c...o...
 800007f0 13051000 13157501 9b150501 2330b106  ......u.....#0..
 80000800 93030000 6384b300 6ff0df81 13051000  ....c...o.......
 80000810 13158501 9b151501 2334b106 93030000  ........#4......
 80000820 6384b300 6ff01f80 13051000 13159501  c...o...........
 80000830 9b151501 2338b106 93030000 6384b300  ....#8......c...
 80000840 6ff04ffe 13051000 1315a501 9b153500  o.O...........5.
 80000850 233cb106 b7030020 6384b300 6ff08ffc  #<..... c...o...
 80000860 13051000 1315b501 9b15d500 2330b108  ............#0..
 80000870 93030000 6384b300 6ff0cffa 13051000  ....c...o.......
 80000880 1315c501 9b152500 2334b108 b7030040  ......%.#4.....@
 80000890 6384b300 6ff00ff9 13051000 1315d501  c...o...........
 800008a0 9b15d501 2338b108 93030000 6384b300  ....#8......c...
 800008b0 6ff04ff7 13051000 1315e501 9b15f501  o.O.............
 800008c0 233cb108 93030000 6384b300 6ff08ff5  #<......c...o...
 800008d0 13051000 1315f501 9b153500 2330b10a  ..........5.#0..
 800008e0 93030000 6384b300 6ff0cff3 13051000  ....c...o.......
 800008f0 13150502 9b152501 2334b10a 93030000  ......%.#4......
 80000900 6384b300 6ff00ff2 13051000 13151502  c...o...........
 80000910 9b15b500 2338b10a 93030000 6384b300  ....#8......c...
 80000920 6ff04ff0 13051000 13152502 9b155501  o.O.......%...U.
 80000930 233cb10a 93030000 6384b300 6ff08fee  #<......c...o...
 80000940 13051000 13153502 9b153500 2330b10c  ......5...5.#0..
 80000950 93030000 6384b300 6ff0cfec 13051000  ....c...o.......
 80000960 13154502 9b15b501 2334b10c 93030000  ..E.....#4......
 80000970 6384b300 6ff00feb 13051000 13155502  c...o.........U.
 80000980 9b151500 2338b10c 93030000 6384b300  ....#8......c...
 80000990 6ff04fe9 13051000 13156502 9b152500  o.O.......e...%.
 800009a0 233cb10c 93030000 6384b300 6ff08fe7  #<......c...o...
 800009b0 13051000 13157502 9b15d501 2330b10e  ......u.....#0..
 800009c0 93030000 6384b300 6ff0cfe5 13051000  ....c...o.......
 800009d0 13158502 9b150500 2334b10e 93030000  ........#4......
 800009e0 6384b300 6ff00fe4 13051000 13159502  c...o...........
 800009f0 9b15d500 2338b10e 93030000 6384b300  ....#8......c...
 80000a00 6ff04fe2 13051000 1315a502 9b156500  o.O...........e.
 80000a10 233cb10e 93030000 6384b300 6ff08fe0  #<......c...o...
 80000a20 13051000 1315b502 9b157500 2330b110  ..........u.#0..
 80000a30 93030000 6384b300 6ff0cfde 13051000  ....c...o.......
 80000a40 1315c502 9b159500 2334b110 93030000  ........#4......
 80000a50 6384b300 6ff00fdd 13051000 1315d502  c...o...........
 80000a60 9b155501 2338b110 93030000 6384b300  ..U.#8......c...
 80000a70 6ff04fdb 13051000 1315f502 9b154500  o.O...........E.
 80000a80 233cb110 93030000 6384b300 6ff08fd9  #<......c...o...
 80000a90 13051000 13150503 9b157501 2330b112  ..........u.#0..
 80000aa0 93030000 6384b300 6ff0cfd7 13051000  ....c...o.......
 80000ab0 13151503 9b159500 2334b112 93030000  ........#4......
 80000ac0 6384b300 6ff00fd6 13051000 13152503  c...o.........%.
 80000ad0 9b15f501 2338b112 93030000 6384b300  ....#8......c...
 80000ae0 6ff04fd4 13051000 13153503 9b15f500  o.O.......5.....
 80000af0 233cb112 93030000 6384b300 6ff08fd2  #<......c...o...
 80000b00 13051000 13154503 9b15f501 2330b114  ......E.....#0..
 80000b10 93030000 6384b300 6ff0cfd0 13051000  ....c...o.......
 80000b20 13155503 9b158500 2334b114 93030000  ..U.....#4......
 80000b30 6384b300 6ff00fcf 13051000 13156503  c...o.........e.
 80000b40 9b152500 2338b114 93030000 6384b300  ..%.#8......c...
 80000b50 6ff04fcd 13051000 13158503 9b15b500  o.O.............
 80000b60 233cb114 93030000 6384b300 6ff08fcb  #<......c...o...
 80000b70 13051000 13159503 9b155500 2330b116  ..........U.#0..
 80000b80 93030000 6384b300 6ff0cfc9 13051000  ....c...o.......
 80000b90 1315a503 9b153501 2334b116 93030000  ......5.#4......
 80000ba0 6384b300 6ff00fc8 13051000 1315b503  c...o...........
 80000bb0 9b15e501 2338b116 93030000 6384b300  ....#8......c...
 80000bc0 6ff04fc6 13051000 1315c503 9b151500  o.O.............
 80000bd0 233cb116 93030000 6384b300 6ff08fc4  #<......c...o...
 80000be0 13051000 1315d503 9b15f501 2330b118  ............#0..
 80000bf0 93030000 6384b300 6ff0cfc2 13051000  ....c...o.......
 80000c00 1315e503 9b15e500 2334b118 93030000  ........#4......
 80000c10 6384b300 6ff00fc1 1305e0ff 9b15e501  c...o...........
 80000c20 2338b118 b7030080 6384b300 6ff08fbf  #8......c...o...
 80000c30 1305d0ff 9b157501 233cb118 b70380fe  ......u.#<......
 80000c40 6384b300 6ff00fbe 1305b0ff 9b155500  c...o.........U.
 80000c50 2330b11a 930300f6 6384b300 6ff08fbc  #0......c...o...
 80000c60 130570ff 9b153500 2334b11a 930380fb  ..p...5.#4......
 80000c70 6384b300 6ff00fbb 1305f0fe 9b152500  c...o.........%.
 80000c80 2338b11a 9303c0fb 6384b300 6ff08fb9  #8......c...o...
 80000c90 1305f0fd 9b155501 233cb11a b703e0fb  ......U.#<......
 80000ca0 6384b300 6ff00fb8 1305f0fb 9b157500  c...o.........u.
 80000cb0 2330b11c b7e3ffff 9b8303f8 6384b300  #0..........c...
 80000cc0 6ff04fb6 1305f0f7 9b154500 2334b11c  o.O.......E.#4..
 80000cd0 b7f3ffff 9b83037f 6384b300 6ff08fb4  ........c...o...
 80000ce0 1305f0ef 9b156500 2338b11c b7c3ffff  ......e.#8......
 80000cf0 9b8303fc 6384b300 6ff0cfb2 1305f0df  ....c...o.......
 80000d00 9b158500 233cb11c b703feff 9b8303f0  ....#<..........
 80000d10 6384b300 6ff00fb1 1305f0bf 9b15c500  c...o...........
 80000d20 2330b11e b7f3bfff 6384b300 6ff08faf  #0......c...o...
 80000d30 13051000 1315b500 1345f5ff 9b152500  .........E....%.
 80000d40 2334b11e b7e3ffff 9b83c3ff 6384b300  #4..........c...
 80000d50 6ff04fad 13051000 1315c500 1345f5ff  o.O..........E..
 80000d60 9b15c500 2338b11e b7f3fffe 6384b300  ....#8......c...
 80000d70 6ff04fab 13051000 1315d500 1345f5ff  o.O..........E..
 80000d80 9b15f500 233cb11e b783ffef 6384b300  ....#<......c...
 80000d90 6ff04fa9 13051000 1315e500 1345f5ff  o.O..........E..
 80000da0 9b15a500 2330b120 b70300ff 9b8303c0  ....#0. ........
 80000db0 6384b300 6ff00fa7 13051000 1315f500  c...o...........
 80000dc0 1345f5ff 9b155501 2334b120 b703e0ff  .E....U.#4. ....
 80000dd0 6384b300 6ff00fa5 13051000 13155503  c...o.........U.
 80000de0 1345f5ff 9b151501 2338b120 b703feff  .E......#8. ....
 80000df0 6384b300 6ff00fa3 13051000 13156503  c...o.........e.
 80000e00 1345f5ff 9b159500 233cb120 930300e0  .E......#<. ....
 80000e10 6384b300 6ff00fa1 13051000 13157503  c...o.........u.
 80000e20 1345f5ff 9b15e500 2330b122 b7c3ffff  .E......#0."....
 80000e30 6384b300 6ff00f9f 13051000 13158503  c...o...........
 80000e40 1345f5ff 9b15b501 2334b122 b70300f8  .E......#4."....
 80000e50 6384b300 6ff00f9d 13051000 13159503  c...o...........
 80000e60 1345f5ff 9b15d501 2338b122 b70300e0  .E......#8."....
 80000e70 6384b300 6ff00f9b 13051000 1315a503  c...o...........
 80000e80 1345f5ff 9b151500 233cb122 9303e0ff  .E......#<."....
 80000e90 6384b300 6ff00f99 13051000 1315b503  c...o...........
 80000ea0 1345f5ff 9b151500 2330b124 9303e0ff  .E......#0.$....
 80000eb0 6384b300 6ff00f97 13051000 1315c503  c...o...........
 80000ec0 1345f5ff 9b151501 2334b124 b703feff  .E......#4.$....
 80000ed0 6384b300 6ff00f95 13051000 1315d503  c...o...........
 80000ee0 1345f5ff 9b150501 2338b124 b703ffff  .E......#8.$....
 80000ef0 6384b300 6ff00f93 13051000 1315e503  c...o...........
 80000f00 1345f5ff 9b150500 233cb124 9303f0ff  .E......#<.$....
 80000f10 6384b300 6ff00f91 37555555 13055555  c...o...7UUU..UU
 80000f20 1315b500 1305a52a 1315b500 13055555  .......*......UU
 80000f30 1315a500 13055515 9b154500 2330b126  ......U...E.#0.&
 80000f40 b7535555 9b830355 6384b300 6ff08f8d  .SUU...Uc...o...
 80000f50 37b5aaaa 1305a5aa 1315b500 13055555  7.............UU
 80000f60 1315b500 1305a52a 1315a500 1305a52a  .......*.......*
 80000f70 9b155501 2334b126 b7034055 6384b300  ..U.#4.&..@Uc...
 80000f80 6ff04f8a 13053000 9b15d500 2338b126  o.O...0.....#8.&
 80000f90 b7630000 6384b300 6ff0cf88 37353333  .c..c...o...7533
 80000fa0 13053533 1315b500 13059519 1315b500  ..53............
 80000fb0 1305c54c 1315a500 13053533 9b150500  ...L......53....
 80000fc0 233cb126 b7333333 9b833333 6384b300  #<.&.333..33c...
 80000fd0 6ff04f85 37656666 13056566 1315b500  o.O.7eff..ef....
 80000fe0 13053533 1315b500 13059519 1315a500  ..53............
 80000ff0 13056526 9b155501 2330b128 b703c0cc  ..e&..U.#0.(....
 80001000 6384b300 6ff00f82 37050000 1305f5ff  c...o...7.......
 80001010 1315b500 13057525 1315b500 1305356c  ......u%......5l
 80001020 1315a500 1305d50c 9b153500 2334b128  ..........5.#4.(
 80001030 b763d857 9b838366 6384b300 6fe09ffe  .c.W...fc...o...
 80001040 37050000 13050500 1315b500 1305855a  7..............Z
 80001050 1315b500 1305c513 1315a500 13053533  ..............53
 80001060 9b151500 2338b128 b7e3096a 9b836366  ....#8.(...j..cf
 80001070 6384b300 6fe01ffb 37555555 13055555  c...o...7UUU..UU
 80001080 1315b500 1305a52a 1315b500 13055555  .......*......UU
 80001090 1315a500 13054515 9b155500 233cb128  ......E...U.#<.(
 800010a0 b7b3aaaa 9b8303a8 6384b300 6fe09ff7  ........c...o...
 800010b0 37353333 13053533 1315b500 13059519  7533..53........
 800010c0 1315b500 1305c54c 1315a500 13052533  .......L......%3
 800010d0 9b15d500 2330b12a b7436666 6384b300  ....#0.*.Cffc...
 800010e0 6fe05ff4 37656666 13056566 1315b500  o._.7eff..ef....
 800010f0 13053533 1315b500 13059519 1315a500  ..53............
 80001100 13055526 9b15f500 2334b12a b7833233  ..U&....#4.*..23
 80001110 6384b300 6fe01ff1 37050000 13050500  c...o...7.......
 80001120 1315b500 1305855a 1315b500 1305c513  .......Z........
 80001130 1315a500 13052533 9b153500 2338b12a  ......%3..5.#8.*
 80001140 b7a327a8 9b830399 6384b300 6fe09fed  ..'.....c...o...
 80001150 37555555 13055555 1315b500 1305a52a  7UUU..UU.......*
 80001160 1315b500 13055555 1315a500 13056515  ......UU......e.
 80001170 9b151501 233cb12a b703acaa 6384b300  ....#<.*....c...
 80001180 6fe05fea 37b5aaaa 1305a5aa 1315b500  o._.7...........
 80001190 13055555 1315b500 1305a52a 1315a500  ..UU.......*....
 800011a0 1305b52a 9b15d501 2330b12c b7030060  ...*....#0.,...`
 800011b0 6384b300 6fe01fe7 37353333 13053533  c...o...7533..53
 800011c0 1315b500 13059519 1315b500 1305c54c  ...............L
 800011d0 1315a500 13054533 9b153501 2334b12c  ......E3..5.#4.,
 800011e0 b703a099 6384b300 6fe0dfe3 37656666  ....c...o...7eff
 800011f0 13056566 1315b500 13053533 1315b500  ..ef......53....
 80001200 13059519 1315a500 13057526 9b150500  ..........u&....
 80001210 2338b12c b7636666 9b837366 6384b300  #8.,.cff..sfc...
 80001220 6fe05fe0 37050000 1305f5ff 1315b500  o._.7...........
 80001230 13057525 1315b500 1305356c 1315a500  ..u%......5l....
 80001240 1305e50c 9b151500 233cb12c b723f695  ........#<.,.#..
 80001250 9b83c399 6384b300 6fe0dfdc 37050000  ....c...o...7...
 80001260 13050500 1315b500 1305855a 1315b500  ...........Z....
 80001270 1305c513 1315a500 13054533 9b15a500  ..........E3....
 80001280 2330b12e b7d3cc13 6384b300 6fe09fd9  #0......c...o...
 80001290 13051000 13150501 1345f5ff 9b15d501  .........E......
 800012a0 2334b12e b70300e0 6384b300 6fe09fd7  #4......c...o...
 800012b0 13051000 13151501 1345f5ff 9b15e501  .........E......
 800012c0 2338b12e b70300c0 6384b300 6fe09fd5  #8......c...o...
 800012d0 13051000 13153501 1345f5ff 9b156500  ......5..E....e.
 800012e0 233cb12e b70300fe 9b8303fc 6384b300  #<..........c...
 800012f0 6fe05fd3 13051000 13154501 1345f5ff  o._.......E..E..
 80001300 9b15d500 2330b130 b7e3ffff 6384b300  ....#0.0....c...
 80001310 6fe05fd1 13051000 13155501 1345f5ff  o._.......U..E..
 80001320 9b15b501 2334b130 b70300f8 6384b300  ....#4.0....c...
 80001330 6fe05fcf 13051000 13156501 1345f5ff  o._.......e..E..
 80001340 9b157501 2338b130 b70380ff 6384b300  ..u.#8.0....c...
 80001350 6fe05fcd 13051000 13157501 1345f5ff  o._.......u..E..
 80001360 9b154500 233cb130 b70300f8 9b8303ff  ..E.#<.0........
 80001370 6384b300 6fe01fcb 13051000 13158501  c...o...........
 80001380 1345f5ff 9b15a500 2330b132 930300c0  .E......#0.2....
 80001390 6384b300 6fe01fc9 13051000 13159501  c...o...........
 800013a0 1345f5ff 9b15b501 2334b132 b70300f8  .E......#4.2....
 800013b0 6384b300 6fe01fc7 13051000 1315a501  c...o...........
 800013c0 1345f5ff 9b15c500 2338b132 b7f3ffff  .E......#8.2....
 800013d0 6384b300 6fe01fc5 13051000 1315b501  c...o...........
 800013e0 1345f5ff 9b15c500 233cb132 b7f3ffff  .E......#<.2....
 800013f0 6384b300 6fe01fc3 13051000 1315c501  c...o...........
 80001400 1345f5ff 9b15f500 2330b134 b783ffff  .E......#0.4....
 80001410 6384b300 6fe01fc1 13051000 1315d501  c...o...........
 80001420 1345f5ff 9b151500 2334b134 b70300c0  .E......#4.4....
 80001430 9b83e3ff 6384b300 6fe0dfbe 13051000  ....c...o.......
 80001440 1315e501 1345f5ff 9b150501 2338b134  .....E......#8.4
 80001450 b703ffff 6384b300 6fe0dfbc 13051000  ....c...o.......
 80001460 1315f501 1345f5ff 9b15b501 233cb134  .....E......#<.4
 80001470 b70300f8 6384b300 6fe0dfba 13051000  ....c...o.......
 80001480 13151502 1345f5ff 9b153501 2330b136  .....E....5.#0.6
 80001490 b703f8ff 6384b300 6fe0dfb8 13051000  ....c...o.......
 800014a0 13152502 1345f5ff 9b152501 2334b136  ..%..E....%.#4.6
 800014b0 b703fcff 6384b300 6fe0dfb6 13051000  ....c...o.......
 800014c0 13153502 1345f5ff 9b15b500 2338b136  ..5..E......#8.6
 800014d0 93030080 6384b300 6fe0dfb4 13051000  ....c...o.......
 800014e0 13154502 1345f5ff 9b153500 233cb136  ..E..E....5.#<.6
 800014f0 930380ff 6384b300 6fe0dfb2 13051000  ....c...o.......
 80001500 13155502 1345f5ff 9b15c500 2330b138  ..U..E......#0.8
 80001510 b7f3ffff 6384b300 6fe0dfb0 13051000  ....c...o.......
 80001520 13156502 1345f5ff 9b154500 2334b138  ..e..E....E.#4.8
 80001530 930300ff 6384b300 6fe0dfae 13051000  ....c...o.......
 80001540 13157502 1345f5ff 9b150501 2338b138  ..u..E......#8.8
 80001550 b703ffff 6384b300 6fe0dfac 13051000  ....c...o.......
 80001560 13158502 1345f5ff 9b157500 233cb138  .....E....u.#<.8
 80001570 930300f8 6384b300 6fe0dfaa 13051000  ....c...o.......
 80001580 13159502 1345f5ff 9b15f501 2330b13a  .....E......#0.:
 80001590 b7030080 6384b300 6fe0dfa8 13051000  ....c...o.......
 800015a0 1315a502 1345f5ff 9b151501 2334b13a  .....E......#4.:
 800015b0 b703feff 6384b300 6fe0dfa6 13051000  ....c...o.......
 800015c0 1315b502 1345f5ff 9b157501 2338b13a  .....E....u.#8.:
 800015d0 b70380ff 6384b300 6fe0dfa4 13051000  ....c...o.......
 800015e0 1315c502 1345f5ff 9b159500 233cb13a  .....E......#<.:
 800015f0 930300e0 6384b300 6fe0dfa2 13051000  ....c...o.......
 80001600 1315d502 1345f5ff 9b151500 2330b13c  .....E......#0.<
 80001610 9303e0ff 6384b300 6fe0dfa0 13051000  ....c...o.......
 80001620 1315e502 1345f5ff 9b150500 2334b13c  .....E......#4.<
 80001630 9303f0ff 6384b300 6fe0df9e 13051000  ....c...o.......
 80001640 1315f502 1345f5ff 9b153500 2338b13c  .....E....5.#8.<
 80001650 930380ff 6384b300 6fe0df9c 13051000  ....c...o.......
 80001660 13150503 1345f5ff 9b15e501 233cb13c  .....E......#<.<
 80001670 b70300c0 6384b300 6fe0df9a 13051000  ....c...o.......
 80001680 13151503 1345f5ff 9b15b501 2330b13e  .....E......#0.>
 80001690 b70300f8 6384b300 6fe0df98 13051000  ....c...o.......
 800016a0 13152503 1345f5ff 9b15b500 2334b13e  ..%..E......#4.>
 800016b0 93030080 6384b300 6fe0df96 13051000  ....c...o.......
 800016c0 13153503 1345f5ff 9b151501 2338b13e  ..5..E......#8.>
 800016d0 b703feff 6384b300 6fe0df94 13054000  ....c...o.....@.
 800016e0 9b150500 233cb13e 93034000 6384b300  ....#<.>..@.c...
 800016f0 6fe05f93 13051000 1315d500 9b151500  o._.............
 80001700 2330b140 b7430000 6384b300 6fe09f91  #0.@.C..c...o...
 80001710 6f008003 8334811f 03330120 33039300  o....4...3. 3...
 80001720 37030000 13030300 1313b300 1303635d  7.............c]
 80001730 1313b300 13036343 1313a300 1303032d  ......cC.......-
 80001740 23be64fe 6f004000 13050000 6f00c000  #.d.o.@.....o...
 80001750 00000000 00000000 13050500 73001000  ............s...
 80001760 6f000000 130101ff 17050000 13050502  o...............
 80001770 23341100 efe0df89 13050500 73001000  #4..........s...
 80001780 6f000000 00000000 00000000 00000000  o...............
 80001790 00000000 00000000 00000000 00000000  ................
 800017a0 00000000 00000000 00000000 00000000  ................
 800017b0 00000000 00000000 00000000 00000000  ................
 800017c0 00000000 00000000 00000000 00000000  ................
 800017d0 00000000 00000000 00000000 00000000  ................
 800017e0 00000000 00000000 00000000 00000000  ................
 800017f0 00000000 00000000 00000000 00000000  ................
 80001800 00000000 00000000 00000000 00000000  ................
 80001810 00000000 00000000 00000000 00000000  ................
 80001820 00000000 00000000 00000000 00000000  ................
 80001830 00000000 00000000 00000000 00000000  ................
 80001840 00000000 00000000 00000000 00000000  ................
 80001850 00000000 00000000 00000000 00000000  ................
 80001860 00000000 00000000 00000000 00000000  ................
 80001870 00000000 00000000 00000000 00000000  ................
 80001880 00000000 00000000 00000000 00000000  ................
 80001890 00000000 00000000 00000000 00000000  ................
 800018a0 00000000 00000000 00000000 00000000  ................
 800018b0 00000000 00000000 00000000 00000000  ................
 800018c0 00000000 00000000 00000000 00000000  ................
 800018d0 00000000 00000000 00000000 00000000  ................
 800018e0 00000000 00000000 00000000 00000000  ................
 800018f0 00000000 00000000 00000000 00000000  ................
 80001900 00000000 00000000 00000000 00000000  ................
 80001910 00000000 00000000 00000000 00000000  ................
 80001920 00000000 00000000 00000000 00000000  ................
 80001930 00000000 00000000 00000000 00000000  ................
 80001940 00000000 00000000 00000000 00000000  ................
 80001950 00000000 00000000 00000000 00000000  ................
 80001960 00000000 00000000 00000000 00000000  ................
 80001970 00000000 00000000 00000000 00000000  ................
 80001980 00000000 00000000 00000000 00000000  ................
 80001990 00000000 00000000 00000000 00000000  ................
 800019a0 00000000 00000000 00000000 00000000  ................
 800019b0 00000000 00000000 00000000 00000000  ................
 800019c0 00000000 00000000 00000000 00000000  ................
 800019d0 00000000 00000000 00000000 00000000  ................
 800019e0 00000000 00000000 00000000 00000000  ................
 800019f0 00000000 00000000 00000000 00000000  ................
 80001a00 00000000 00000000 00000000 00000000  ................
 80001a10 00000000 00000000 00000000 00000000  ................
 80001a20 00000000 00000000 00000000 00000000  ................
 80001a30 00000000 00000000 00000000 00000000  ................
 80001a40 00000000 00000000 00000000 00000000  ................
 80001a50 00000000 00000000 00000000 00000000  ................
 80001a60 00000000 00000000 00000000 00000000  ................
 80001a70 00000000 00000000 00000000 00000000  ................
 80001a80 00000000 00000000 00000000 00000000  ................
 80001a90 00000000 00000000 00000000 00000000  ................
 80001aa0 00000000 00000000 00000000 00000000  ................
 80001ab0 00000000 00000000 00000000 00000000  ................
 80001ac0 00000000 00000000 00000000 00000000  ................
 80001ad0 00000000 00000000 00000000 00000000  ................
 80001ae0 00000000 00000000 00000000 00000000  ................
 80001af0 00000000 00000000 00000000 00000000  ................
 80001b00 00000000 00000000 00000000 00000000  ................
 80001b10 00000000 00000000 00000000 00000000  ................
 80001b20 00000000 00000000 00000000 00000000  ................
 80001b30 00000000 00000000 00000000 00000000  ................
 80001b40 00000000 00000000 00000000 00000000  ................
 80001b50 00000000 00000000 00000000 00000000  ................
 80001b60 00000000 00000000 00000000 00000000  ................
 80001b70 00000000 00000000 00000000 00000000  ................
 80001b80 00000000 00000000 00000000 00000000  ................
 80001b90 00000000 00000000 00000000 00000000  ................
 80001ba0 00000000 00000000 00000000 00000000  ................
 80001bb0 00000000 00000000 00000000 00000000  ................
 80001bc0 00000000 00000000 00000000 00000000  ................
 80001bd0 00000000 00000000 00000000 00000000  ................
 80001be0 00000000 00000000 00000000 00000000  ................
 80001bf0 00000000 00000000 00000000 00000000  ................
 80001c00 00000000 00000000 00000000 00000000  ................
 80001c10 00000000 00000000 00000000 00000000  ................
 80001c20 00000000 00000000 00000000 00000000  ................
 80001c30 00000000 00000000 00000000 00000000  ................
 80001c40 00000000 00000000 00000000 00000000  ................
 80001c50 00000000 00000000 00000000 00000000  ................
 80001c60 00000000 00000000 00000000 00000000  ................
 80001c70 00000000 00000000 00000000 00000000  ................
 80001c80 00000000 00000000 00000000 00000000  ................
 80001c90 00000000 00000000 00000000 00000000  ................
 80001ca0 00000000 00000000 00000000 00000000  ................
 80001cb0 00000000 00000000 00000000 00000000  ................
 80001cc0 00000000 00000000 00000000 00000000  ................
 80001cd0 00000000 00000000 00000000 00000000  ................
 80001ce0 00000000 00000000 00000000 00000000  ................
 80001cf0 00000000 00000000 00000000 00000000  ................
 80001d00 00000000 00000000 00000000 00000000  ................
 80001d10 00000000 00000000 00000000 00000000  ................
 80001d20 00000000 00000000 00000000 00000000  ................
 80001d30 00000000 00000000 00000000 00000000  ................
 80001d40 00000000 00000000 00000000 00000000  ................
 80001d50 00000000 00000000 00000000 00000000  ................
 80001d60 00000000 00000000 00000000 00000000  ................
 80001d70 00000000 00000000 00000000 00000000  ................
 80001d80 00000000 00000000 00000000 00000000  ................
 80001d90 00000000 00000000 00000000 00000000  ................
 80001da0 00000000 00000000 00000000 00000000  ................
 80001db0 00000000 00000000 00000000 00000000  ................
 80001dc0 00000000 00000000 00000000 00000000  ................
 80001dd0 00000000 00000000 00000000 00000000  ................
 80001de0 00000000 00000000 00000000 00000000  ................
 80001df0 00000000 00000000 00000000 00000000  ................
 80001e00 00000000 00000000 00000000 00000000  ................
 80001e10 00000000 00000000 00000000 00000000  ................
 80001e20 00000000 00000000 00000000 00000000  ................
 80001e30 00000000 00000000 00000000 00000000  ................
 80001e40 00000000 00000000 00000000 00000000  ................
 80001e50 00000000 00000000 00000000 00000000  ................
 80001e60 00000000 00000000 00000000 00000000  ................
 80001e70 00000000 00000000 00000000 00000000  ................
 80001e80 00000000 00000000 00000000 00000000  ................
 80001e90 00000000 00000000 00000000 00000000  ................
 80001ea0 00000000 00000000 00000000 00000000  ................
 80001eb0 00000000 00000000 00000000 00000000  ................
 80001ec0 00000000 00000000 00000000 00000000  ................
 80001ed0 00000000 00000000 00000000 00000000  ................
 80001ee0 00000000 00000000 00000000 00000000  ................
 80001ef0 00000000 00000000 00000000 00000000  ................
 80001f00 00000000 00000000 00000000 00000000  ................
 80001f10 00000000 00000000 00000000 00000000  ................
 80001f20 00000000 00000000 00000000 00000000  ................
 80001f30 00000000 00000000 00000000 00000000  ................
 80001f40 00000000 00000000 00000000 00000000  ................
 80001f50 00000000 00000000 00000000 00000000  ................
 80001f60 00000000 00000000 00000000 00000000  ................
 80001f70 00000000 00000000 00000000 00000000  ................
 80001f80 00000000 00000000 00000000 00000000  ................
 80001f90 00000000 00000000 00000000 00000000  ................
 80001fa0 00000000 00000000 00000000 00000000  ................
 80001fb0 00000000 00000000 00000000 00000000  ................
 80001fc0 00000000 00000000 00000000 00000000  ................
 80001fd0 00000000 00000000 00000000 00000000  ................
 80001fe0 00000000 00000000 00000000 00000000  ................
 80001ff0 00000000 00000000 00000000 00000000  ................
 80002000 fecabeba fecabeba fecabeba fecabeba  ................
 80002010 efbeadde efbeadde 00000000 00000000  ................
 80002020 00000000 00000000 00000000 00000000  ................
 80002030 00000000 00000000 00000000 00000000  ................
 80002040 00000000 00000000 00000000 00000000  ................
 80002050 00000000 00000000 00000000 00000000  ................
 80002060 00000000 00000000 00000000 00000000  ................
 80002070 00000000 00000000 00000000 00000000  ................
 80002080 00000000 00000000 00000000 00000000  ................
 80002090 00000000 00000000 00000000 00000000  ................
 800020a0 00000000 00000000 00000000 00000000  ................
 800020b0 00000000 00000000 00000000 00000000  ................
 800020c0 00000000 00000000 00000000 00000000  ................
 800020d0 00000000 00000000 00000000 00000000  ................
 800020e0 00000000 00000000 00000000 00000000  ................
 800020f0 00000000 00000000 00000000 00000000  ................
 80002100 00000000 00000000 00000000 00000000  ................
 80002110 00000000 00000000 00000000 00000000  ................
 80002120 00000000 00000000 00000000 00000000  ................
 80002130 00000000 00000000 00000000 00000000  ................
 80002140 00000000 00000000 00000000 00000000  ................
 80002150 00000000 00000000 00000000 00000000  ................
 80002160 00000000 00000000 00000000 00000000  ................
 80002170 00000000 00000000 00000000 00000000  ................
 80002180 00000000 00000000 00000000 00000000  ................
 80002190 00000000 00000000 00000000 00000000  ................
 800021a0 00000000 00000000 00000000 00000000  ................
 800021b0 00000000 00000000 00000000 00000000  ................
 800021c0 00000000 00000000 00000000 00000000  ................
 800021d0 00000000 00000000 00000000 00000000  ................
 800021e0 00000000 00000000 00000000 00000000  ................
 800021f0 00000000 00000000 00000000 00000000  ................
 80002200 00000000 00000000 00000000 00000000  ................
 80002210 00000000 00000000 00000000 00000000  ................
 80002220 00000000 00000000 00000000 00000000  ................
 80002230 00000000 00000000 00000000 00000000  ................
 80002240 00000000 00000000 00000000 00000000  ................
 80002250 00000000 00000000 00000000 00000000  ................
 80002260 00000000 00000000 00000000 00000000  ................
 80002270 00000000 00000000 00000000 00000000  ................
 80002280 00000000 00000000 00000000 00000000  ................
 80002290 00000000 00000000 00000000 00000000  ................
 800022a0 00000000 00000000 00000000 00000000  ................
 800022b0 00000000 00000000 00000000 00000000  ................
 800022c0 00000000 00000000 00000000 00000000  ................
 800022d0 00000000 00000000 00000000 00000000  ................
 800022e0 00000000 00000000 00000000 00000000  ................
 800022f0 00000000 00000000 00000000 00000000  ................
 80002300 00000000 00000000 00000000 00000000  ................
 80002310 00000000 00000000 00000000 00000000  ................
 80002320 00000000 00000000 00000000 00000000  ................
 80002330 00000000 00000000 00000000 00000000  ................
 80002340 00000000 00000000 00000000 00000000  ................
 80002350 00000000 00000000 00000000 00000000  ................
 80002360 00000000 00000000 00000000 00000000  ................
 80002370 00000000 00000000 00000000 00000000  ................
 80002380 00000000 00000000 00000000 00000000  ................
 80002390 00000000 00000000 00000000 00000000  ................
 800023a0 00000000 00000000 00000000 00000000  ................
 800023b0 00000000 00000000 00000000 00000000  ................
 800023c0 00000000 00000000 00000000 00000000  ................
 800023d0 00000000 00000000 00000000 00000000  ................
 800023e0 00000000 00000000 00000000 00000000  ................
 800023f0 00000000 00000000 00000000 00000000  ................
 80002400 00000000 00000000 00000000 00000000  ................
 80002410 00000000 00000000 00000000 00000000  ................
 80002420 00000000 00000000 00000000 00000000  ................
 80002430 00000000 00000000 00000000 00000000  ................
 80002440 00000000 00000000 00000000 00000000  ................
 80002450 00000000 00000000 00000000 00000000  ................
 80002460 00000000 00000000 00000000 00000000  ................
 80002470 00000000 00000000 00000000 00000000  ................
 80002480 00000000 00000000 00000000 00000000  ................
 80002490 00000000 00000000 00000000 00000000  ................
 800024a0 00000000 00000000 00000000 00000000  ................
 800024b0 00000000 00000000 00000000 00000000  ................
 800024c0 00000000 00000000 00000000 00000000  ................
 800024d0 00000000 00000000 00000000 00000000  ................
 800024e0 00000000 00000000 00000000 00000000  ................
 800024f0 00000000 00000000 00000000 00000000  ................
 80002500 00000000 00000000 00000000 00000000  ................
 80002510 00000000 00000000 00000000 00000000  ................
 80002520 00000000 00000000 00000000 00000000  ................
 80002530 00000000 00000000 00000000 00000000  ................
 80002540 00000000 00000000 00000000 00000000  ................
 80002550 00000000 00000000 00000000 00000000  ................
 80002560 00000000 00000000 00000000 00000000  ................
 80002570 00000000 00000000 00000000 00000000  ................
 80002580 00000000 00000000 00000000 00000000  ................
 80002590 00000000 00000000 00000000 00000000  ................
 800025a0 00000000 00000000 00000000 00000000  ................
 800025b0 00000000 00000000 00000000 00000000  ................
 800025c0 00000000 00000000 00000000 00000000  ................
 800025d0 00000000 00000000 00000000 00000000  ................
 800025e0 00000000 00000000 00000000 00000000  ................
 800025f0 00000000 00000000 00000000 00000000  ................
 80002600 00000000 00000000 00000000 00000000  ................
 80002610 00000000 00000000 00000000 00000000  ................
 80002620 00000000 00000000 00000000 00000000  ................
 80002630 00000000 00000000 00000000 00000000  ................
 80002640 00000000 00000000 00000000 00000000  ................
 80002650 00000000 00000000 00000000 00000000  ................
 80002660 00000000 00000000 00000000 00000000  ................
 80002670 00000000 00000000 00000000 00000000  ................
 80002680 00000000 00000000 00000000 00000000  ................
 80002690 00000000 00000000 00000000 00000000  ................
 800026a0 00000000 00000000 00000000 00000000  ................
 800026b0 00000000 00000000 00000000 00000000  ................
 800026c0 00000000 00000000 00000000 00000000  ................
 800026d0 00000000 00000000 00000000 00000000  ................
 800026e0 00000000 00000000 00000000 00000000  ................
 800026f0 00000000 00000000 00000000 00000000  ................
 80002700 00000000 00000000 00000000 00000000  ................
 80002710 00000000 00000000 00000000 00000000  ................
 80002720 00000000 00000000 00000000 00000000  ................
 80002730 00000000 00000000 00000000 00000000  ................
 80002740 00000000 00000000 00000000 00000000  ................
 80002750 00000000 00000000 00000000 00000000  ................
 80002760 00000000 00000000 00000000 00000000  ................
 80002770 00000000 00000000 00000000 00000000  ................
 80002780 00000000 00000000 00000000 00000000  ................
 80002790 00000000 00000000 00000000 00000000  ................
 800027a0 00000000 00000000 00000000 00000000  ................
 800027b0 00000000 00000000 00000000 00000000  ................
 800027c0 00000000 00000000 00000000 00000000  ................
 800027d0 00000000 00000000 00000000 00000000  ................
 800027e0 00000000 00000000 00000000 00000000  ................
 800027f0 00000000 00000000 00000000 00000000  ................
 80002800 00000000 00000000 00000000 00000000  ................
 80002810 00000000 00000000 00000000 00000000  ................
 80002820 00000000 00000000 00000000 00000000  ................
 80002830 00000000 00000000 00000000 00000000  ................
 80002840 00000000 00000000 00000000 00000000  ................
 80002850 00000000 00000000 00000000 00000000  ................
 80002860 00000000 00000000 00000000 00000000  ................
 80002870 00000000 00000000 00000000 00000000  ................
 80002880 00000000 00000000 00000000 00000000  ................
 80002890 00000000 00000000 00000000 00000000  ................
 800028a0 00000000 00000000 00000000 00000000  ................
 800028b0 00000000 00000000 00000000 00000000  ................
 800028c0 00000000 00000000 00000000 00000000  ................
 800028d0 00000000 00000000 00000000 00000000  ................
 800028e0 00000000 00000000 00000000 00000000  ................
 800028f0 00000000 00000000 00000000 00000000  ................
 80002900 00000000 00000000 00000000 00000000  ................
 80002910 00000000 00000000 00000000 00000000  ................
 80002920 00000000 00000000 00000000 00000000  ................
 80002930 00000000 00000000 00000000 00000000  ................
 80002940 00000000 00000000 00000000 00000000  ................
 80002950 00000000 00000000 00000000 00000000  ................
 80002960 00000000 00000000 00000000 00000000  ................
 80002970 00000000 00000000 00000000 00000000  ................
 80002980 00000000 00000000 00000000 00000000  ................
 80002990 00000000 00000000 00000000 00000000  ................
 800029a0 00000000 00000000 00000000 00000000  ................
 800029b0 00000000 00000000 00000000 00000000  ................
 800029c0 00000000 00000000 00000000 00000000  ................
 800029d0 00000000 00000000 00000000 00000000  ................
 800029e0 00000000 00000000 00000000 00000000  ................
 800029f0 00000000 00000000 00000000 00000000  ................
 80002a00 00000000 00000000 00000000 00000000  ................
 80002a10 00000000 00000000 00000000 00000000  ................
 80002a20 00000000 00000000 00000000 00000000  ................
 80002a30 00000000 00000000 00000000 00000000  ................
 80002a40 00000000 00000000 00000000 00000000  ................
 80002a50 00000000 00000000 00000000 00000000  ................
 80002a60 00000000 00000000 00000000 00000000  ................
 80002a70 00000000 00000000 00000000 00000000  ................
 80002a80 00000000 00000000 00000000 00000000  ................
 80002a90 00000000 00000000 00000000 00000000  ................
 80002aa0 00000000 00000000 00000000 00000000  ................
 80002ab0 00000000 00000000 00000000 00000000  ................
 80002ac0 00000000 00000000 00000000 00000000  ................
 80002ad0 00000000 00000000 00000000 00000000  ................
 80002ae0 00000000 00000000 00000000 00000000  ................
 80002af0 00000000 00000000 00000000 00000000  ................
 80002b00 00000000 00000000 00000000 00000000  ................
 80002b10 00000000 00000000 00000000 00000000  ................
 80002b20 00000000 00000000 00000000 00000000  ................
 80002b30 00000000 00000000 00000000 00000000  ................
 80002b40 00000000 00000000 00000000 00000000  ................
 80002b50 00000000 00000000 00000000 00000000  ................
 80002b60 00000000 00000000 00000000 00000000  ................
 80002b70 00000000 00000000 00000000 00000000  ................
 80002b80 00000000 00000000 00000000 00000000  ................
 80002b90 00000000 00000000 00000000 00000000  ................
 80002ba0 00000000 00000000 00000000 00000000  ................
 80002bb0 00000000 00000000 00000000 00000000  ................
 80002bc0 00000000 00000000 00000000 00000000  ................
 80002bd0 00000000 00000000 00000000 00000000  ................
 80002be0 00000000 00000000 00000000 00000000  ................
 80002bf0 00000000 00000000 00000000 00000000  ................
 80002c00 00000000 00000000 00000000 00000000  ................
 80002c10 00000000 00000000 00000000 00000000  ................
 80002c20 00000000 00000000 00000000 00000000  ................
 80002c30 00000000 00000000 00000000 00000000  ................
 80002c40 00000000 00000000 00000000 00000000  ................
 80002c50 00000000 00000000 00000000 00000000  ................
 80002c60 00000000 00000000 00000000 00000000  ................
 80002c70 00000000 00000000 00000000 00000000  ................
 80002c80 00000000 00000000 00000000 00000000  ................
 80002c90 00000000 00000000 00000000 00000000  ................
 80002ca0 00000000 00000000 00000000 00000000  ................
 80002cb0 00000000 00000000 00000000 00000000  ................
 80002cc0 00000000 00000000 00000000 00000000  ................
 80002cd0 00000000 00000000 00000000 00000000  ................
 80002ce0 00000000 00000000 00000000 00000000  ................
 80002cf0 00000000 00000000 00000000 00000000  ................
 80002d00 00000000 00000000 00000000 00000000  ................
 80002d10 00000000 00000000 00000000 00000000  ................
 80002d20 00000000 00000000 00000000 00000000  ................
 80002d30 00000000 00000000 00000000 00000000  ................
 80002d40 00000000 00000000 00000000 00000000  ................
 80002d50 00000000 00000000 00000000 00000000  ................
 80002d60 00000000 00000000 00000000 00000000  ................
 80002d70 00000000 00000000 00000000 00000000  ................
 80002d80 00000000 00000000 00000000 00000000  ................
 80002d90 00000000 00000000 00000000 00000000  ................
 80002da0 00000000 00000000 00000000 00000000  ................
 80002db0 00000000 00000000 00000000 00000000  ................
 80002dc0 00000000 00000000 00000000 00000000  ................
 80002dd0 00000000 00000000 00000000 00000000  ................
 80002de0 00000000 00000000 00000000 00000000  ................
 80002df0 00000000 00000000 00000000 00000000  ................
 80002e00 00000000 00000000 00000000 00000000  ................
 80002e10 00000000 00000000 00000000 00000000  ................
 80002e20 00000000 00000000 00000000 00000000  ................
 80002e30 00000000 00000000 00000000 00000000  ................
 80002e40 00000000 00000000 00000000 00000000  ................
 80002e50 00000000 00000000 00000000 00000000  ................
 80002e60 00000000 00000000 00000000 00000000  ................
 80002e70 00000000 00000000 00000000 00000000  ................
 80002e80 00000000 00000000 00000000 00000000  ................
 80002e90 00000000 00000000 00000000 00000000  ................
 80002ea0 00000000 00000000 00000000 00000000  ................
 80002eb0 00000000 00000000 00000000 00000000  ................
 80002ec0 00000000 00000000 00000000 00000000  ................
 80002ed0 00000000 00000000 00000000 00000000  ................
 80002ee0 00000000 00000000 00000000 00000000  ................
 80002ef0 00000000 00000000 00000000 00000000  ................
 80002f00 00000000 00000000 00000000 00000000  ................
 80002f10 00000000 00000000 00000000 00000000  ................
 80002f20 00000000 00000000 00000000 00000000  ................
 80002f30 00000000 00000000 00000000 00000000  ................
 80002f40 00000000 00000000 00000000 00000000  ................
 80002f50 00000000 00000000 00000000 00000000  ................
 80002f60 00000000 00000000 00000000 00000000  ................
 80002f70 00000000 00000000 00000000 00000000  ................
 80002f80 00000000 00000000 00000000 00000000  ................
 80002f90 00000000 00000000 00000000 00000000  ................
 80002fa0 00000000 00000000 00000000 00000000  ................
 80002fb0 00000000 00000000 00000000 00000000  ................
 80002fc0 00000000 00000000 00000000 00000000  ................
 80002fd0 00000000 00000000 00000000 00000000  ................
 80002fe0 00000000 00000000 00000000 00000000  ................
 80002ff0 00000000 00000000 00000000 00000000  ................
 80003000 81b2d4e7 09a35c6f efbeadde efbeadde  ......\o........
 80003010 efbeadde efbeadde efbeadde efbeadde  ................
 80003020 efbeadde efbeadde efbeadde efbeadde  ................
 80003030 efbeadde efbeadde efbeadde efbeadde  ................
 80003040 efbeadde efbeadde efbeadde efbeadde  ................
 80003050 efbeadde efbeadde efbeadde efbeadde  ................
 80003060 efbeadde efbeadde efbeadde efbeadde  ................
 80003070 efbeadde efbeadde efbeadde efbeadde  ................
 80003080 efbeadde efbeadde efbeadde efbeadde  ................
 80003090 efbeadde efbeadde efbeadde efbeadde  ................
 800030a0 efbeadde efbeadde efbeadde efbeadde  ................
 800030b0 efbeadde efbeadde efbeadde efbeadde  ................
 800030c0 efbeadde efbeadde efbeadde efbeadde  ................
 800030d0 efbeadde efbeadde efbeadde efbeadde  ................
 800030e0 efbeadde efbeadde efbeadde efbeadde  ................
 800030f0 efbeadde efbeadde efbeadde efbeadde  ................
 80003100 efbeadde efbeadde efbeadde efbeadde  ................
 80003110 efbeadde efbeadde efbeadde efbeadde  ................
 80003120 efbeadde efbeadde efbeadde efbeadde  ................
 80003130 efbeadde efbeadde efbeadde efbeadde  ................
 80003140 efbeadde efbeadde efbeadde efbeadde  ................
 80003150 efbeadde efbeadde efbeadde efbeadde  ................
 80003160 efbeadde efbeadde efbeadde efbeadde  ................
 80003170 efbeadde efbeadde efbeadde efbeadde  ................
 80003180 efbeadde efbeadde efbeadde efbeadde  ................
 80003190 efbeadde efbeadde efbeadde efbeadde  ................
 800031a0 efbeadde efbeadde efbeadde efbeadde  ................
 800031b0 efbeadde efbeadde efbeadde efbeadde  ................
 800031c0 efbeadde efbeadde efbeadde efbeadde  ................
 800031d0 efbeadde efbeadde efbeadde efbeadde  ................
 800031e0 efbeadde efbeadde efbeadde efbeadde  ................
 800031f0 efbeadde efbeadde efbeadde efbeadde  ................
 80003200 efbeadde efbeadde efbeadde efbeadde  ................
 80003210 efbeadde efbeadde efbeadde efbeadde  ................
 80003220 efbeadde efbeadde efbeadde efbeadde  ................
 80003230 efbeadde efbeadde efbeadde efbeadde  ................
 80003240 efbeadde efbeadde efbeadde efbeadde  ................
 80003250 efbeadde efbeadde efbeadde efbeadde  ................
 80003260 efbeadde efbeadde efbeadde efbeadde  ................
 80003270 efbeadde efbeadde efbeadde efbeadde  ................
 80003280 efbeadde efbeadde efbeadde efbeadde  ................
 80003290 efbeadde efbeadde efbeadde efbeadde  ................
 800032a0 efbeadde efbeadde efbeadde efbeadde  ................
 800032b0 efbeadde efbeadde efbeadde efbeadde  ................
 800032c0 efbeadde efbeadde efbeadde efbeadde  ................
 800032d0 efbeadde efbeadde efbeadde efbeadde  ................
 800032e0 efbeadde efbeadde efbeadde efbeadde  ................
 800032f0 efbeadde efbeadde efbeadde efbeadde  ................
 80003300 efbeadde efbeadde efbeadde efbeadde  ................
 80003310 efbeadde efbeadde efbeadde efbeadde  ................
 80003320 efbeadde efbeadde efbeadde efbeadde  ................
 80003330 efbeadde efbeadde efbeadde efbeadde  ................
 80003340 efbeadde efbeadde efbeadde efbeadde  ................
 80003350 efbeadde efbeadde efbeadde efbeadde  ................
 80003360 efbeadde efbeadde efbeadde efbeadde  ................
 80003370 efbeadde efbeadde efbeadde efbeadde  ................
 80003380 efbeadde efbeadde efbeadde efbeadde  ................
 80003390 efbeadde efbeadde efbeadde efbeadde  ................
 800033a0 efbeadde efbeadde efbeadde efbeadde  ................
 800033b0 efbeadde efbeadde efbeadde efbeadde  ................
 800033c0 efbeadde efbeadde efbeadde efbeadde  ................
 800033d0 efbeadde efbeadde efbeadde efbeadde  ................
 800033e0 efbeadde efbeadde efbeadde efbeadde  ................
 800033f0 efbeadde efbeadde efbeadde efbeadde  ................
 80003400 efbeadde efbeadde efbeadde efbeadde  ................
 80003410 efbeadde efbeadde efbeadde efbeadde  ................
 80003420 efbeadde efbeadde efbeadde efbeadde  ................
 80003430 efbeadde efbeadde efbeadde efbeadde  ................
 80003440 efbeadde efbeadde efbeadde efbeadde  ................
 80003450 efbeadde efbeadde efbeadde efbeadde  ................
 80003460 efbeadde efbeadde efbeadde efbeadde  ................
 80003470 efbeadde efbeadde efbeadde efbeadde  ................
 80003480 efbeadde efbeadde efbeadde efbeadde  ................
 80003490 efbeadde efbeadde efbeadde efbeadde  ................
 800034a0 efbeadde efbeadde efbeadde efbeadde  ................
 800034b0 efbeadde efbeadde 81b2d4e7 09a35c6f  ..............\o

Disassembly of section .data:

0000000080000000 <.data>:
    80000000:	00000413          	addi	x8,x0,0
    80000004:	0000c117          	auipc	x2,0xc
    80000008:	ffc10113          	addi	x2,x2,-4 # 0x8000c000
    8000000c:	758010ef          	jal	x1,0x80001764
    80000010:	030000ef          	jal	x1,0x80000040
    80000014:	00100513          	addi	x10,x0,1
    80000018:	740010ef          	jal	x1,0x80001758
    8000001c:	00000513          	addi	x10,x0,0
    80000020:	00008067          	jalr	x0,0(x1)
    80000024:	00100513          	addi	x10,x0,1
    80000028:	730010ef          	jal	x1,0x80001758
    8000002c:	00008067          	jalr	x0,0(x1)
	...
    80000040:	feedc0b7          	lui	x1,0xfeedc
    80000044:	ead08093          	addi	x1,x1,-339 # 0xfffffffffeedbead
    80000048:	00b09093          	slli	x1,x1,0xb
    8000004c:	7f708093          	addi	x1,x1,2039
    80000050:	00b09093          	slli	x1,x1,0xb
    80000054:	36f08093          	addi	x1,x1,879
    80000058:	00a09093          	slli	x1,x1,0xa
    8000005c:	2ad08093          	addi	x1,x1,685
    80000060:	ff76e137          	lui	x2,0xff76e
    80000064:	f5610113          	addi	x2,x2,-170 # 0xffffffffff76df56
    80000068:	00b11113          	slli	x2,x2,0xb
    8000006c:	7fb10113          	addi	x2,x2,2043
    80000070:	00b11113          	slli	x2,x2,0xb
    80000074:	5b710113          	addi	x2,x2,1463
    80000078:	00a11113          	slli	x2,x2,0xa
    8000007c:	35610113          	addi	x2,x2,854
    80000080:	7fbb71b7          	lui	x3,0x7fbb7
    80000084:	fab18193          	addi	x3,x3,-85 # 0x7fbb6fab
    80000088:	00b19193          	slli	x3,x3,0xb
    8000008c:	3fd18193          	addi	x3,x3,1021
    80000090:	00b19193          	slli	x3,x3,0xb
    80000094:	6db18193          	addi	x3,x3,1755
    80000098:	00a19193          	slli	x3,x3,0xa
    8000009c:	3ab18193          	addi	x3,x3,939
    800000a0:	bfddb237          	lui	x4,0xbfddb
    800000a4:	7d520213          	addi	x4,x4,2005 # 0xffffffffbfddb7d5
    800000a8:	00b21213          	slli	x4,x4,0xb
    800000ac:	5fe20213          	addi	x4,x4,1534 # 0x5fe
    800000b0:	00b21213          	slli	x4,x4,0xb
    800000b4:	76d20213          	addi	x4,x4,1901 # 0x76d
    800000b8:	00a21213          	slli	x4,x4,0xa
    800000bc:	3d520213          	addi	x4,x4,981 # 0x3d5
    800000c0:	dfeee2b7          	lui	x5,0xdfeee
    800000c4:	bea28293          	addi	x5,x5,-1046 # 0xffffffffdfeedbea
    800000c8:	00b29293          	slli	x5,x5,0xb
    800000cc:	6ff28293          	addi	x5,x5,1791
    800000d0:	00b29293          	slli	x5,x5,0xb
    800000d4:	3b628293          	addi	x5,x5,950
    800000d8:	00a29293          	slli	x5,x5,0xa
    800000dc:	3ea28293          	addi	x5,x5,1002
    800000e0:	6ff77337          	lui	x6,0x6ff77
    800000e4:	df530313          	addi	x6,x6,-523 # 0x6ff76df5
    800000e8:	00b31313          	slli	x6,x6,0xb
    800000ec:	37f30313          	addi	x6,x6,895
    800000f0:	00b31313          	slli	x6,x6,0xb
    800000f4:	5db30313          	addi	x6,x6,1499
    800000f8:	00a31313          	slli	x6,x6,0xa
    800000fc:	1f530313          	addi	x6,x6,501
    80000100:	b7fbb3b7          	lui	x7,0xb7fbb
    80000104:	6fa38393          	addi	x7,x7,1786 # 0xffffffffb7fbb6fa
    80000108:	00b39393          	slli	x7,x7,0xb
    8000010c:	5bf38393          	addi	x7,x7,1471
    80000110:	00b39393          	slli	x7,x7,0xb
    80000114:	6ed38393          	addi	x7,x7,1773
    80000118:	00a39393          	slli	x7,x7,0xa
    8000011c:	2fa38393          	addi	x7,x7,762
    80000120:	5bfde437          	lui	x8,0x5bfde
    80000124:	b7d40413          	addi	x8,x8,-1155 # 0x5bfddb7d
    80000128:	00b41413          	slli	x8,x8,0xb
    8000012c:	2df40413          	addi	x8,x8,735
    80000130:	00b41413          	slli	x8,x8,0xb
    80000134:	77640413          	addi	x8,x8,1910
    80000138:	00a41413          	slli	x8,x8,0xa
    8000013c:	37d40413          	addi	x8,x8,893
    80000140:	adfef4b7          	lui	x9,0xadfef
    80000144:	dbe48493          	addi	x9,x9,-578 # 0xffffffffadfeedbe
    80000148:	00b49493          	slli	x9,x9,0xb
    8000014c:	56f48493          	addi	x9,x9,1391
    80000150:	00b49493          	slli	x9,x9,0xb
    80000154:	7bb48493          	addi	x9,x9,1979
    80000158:	00a49493          	slli	x9,x9,0xa
    8000015c:	1be48493          	addi	x9,x9,446
    80000160:	56ff7537          	lui	x10,0x56ff7
    80000164:	6df50513          	addi	x10,x10,1759 # 0x56ff76df
    80000168:	00b51513          	slli	x10,x10,0xb
    8000016c:	2b750513          	addi	x10,x10,695
    80000170:	00b51513          	slli	x10,x10,0xb
    80000174:	7dd50513          	addi	x10,x10,2013
    80000178:	00a51513          	slli	x10,x10,0xa
    8000017c:	2df50513          	addi	x10,x10,735
    80000180:	ab7fc5b7          	lui	x11,0xab7fc
    80000184:	b6f58593          	addi	x11,x11,-1169 # 0xffffffffab7fbb6f
    80000188:	00b59593          	slli	x11,x11,0xb
    8000018c:	55b58593          	addi	x11,x11,1371
    80000190:	00b59593          	slli	x11,x11,0xb
    80000194:	7ee58593          	addi	x11,x11,2030
    80000198:	00a59593          	slli	x11,x11,0xa
    8000019c:	36f58593          	addi	x11,x11,879
    800001a0:	d5bfe637          	lui	x12,0xd5bfe
    800001a4:	db760613          	addi	x12,x12,-585 # 0xffffffffd5bfddb7
    800001a8:	00b61613          	slli	x12,x12,0xb
    800001ac:	6ad60613          	addi	x12,x12,1709
    800001b0:	00b61613          	slli	x12,x12,0xb
    800001b4:	7f760613          	addi	x12,x12,2039
    800001b8:	00a61613          	slli	x12,x12,0xa
    800001bc:	1b760613          	addi	x12,x12,439
    800001c0:	eadff6b7          	lui	x13,0xeadff
    800001c4:	edb68693          	addi	x13,x13,-293 # 0xffffffffeadfeedb
    800001c8:	00b69693          	slli	x13,x13,0xb
    800001cc:	75668693          	addi	x13,x13,1878
    800001d0:	00b69693          	slli	x13,x13,0xb
    800001d4:	7fb68693          	addi	x13,x13,2043
    800001d8:	00a69693          	slli	x13,x13,0xa
    800001dc:	2db68693          	addi	x13,x13,731
    800001e0:	f56ff737          	lui	x14,0xf56ff
    800001e4:	76d70713          	addi	x14,x14,1901 # 0xfffffffff56ff76d
    800001e8:	00b71713          	slli	x14,x14,0xb
    800001ec:	7ab70713          	addi	x14,x14,1963
    800001f0:	00b71713          	slli	x14,x14,0xb
    800001f4:	3fd70713          	addi	x14,x14,1021
    800001f8:	00a71713          	slli	x14,x14,0xa
    800001fc:	36d70713          	addi	x14,x14,877
    80000200:	fab807b7          	lui	x15,0xfab80
    80000204:	bb678793          	addi	x15,x15,-1098 # 0xfffffffffab7fbb6
    80000208:	00b79793          	slli	x15,x15,0xb
    8000020c:	7d578793          	addi	x15,x15,2005
    80000210:	00b79793          	slli	x15,x15,0xb
    80000214:	5fe78793          	addi	x15,x15,1534
    80000218:	00a79793          	slli	x15,x15,0xa
    8000021c:	3b678793          	addi	x15,x15,950
    80000220:	7d5c0837          	lui	x16,0x7d5c0
    80000224:	ddb80813          	addi	x16,x16,-549 # 0x7d5bfddb
    80000228:	00b81813          	slli	x16,x16,0xb
    8000022c:	3ea80813          	addi	x16,x16,1002
    80000230:	00b81813          	slli	x16,x16,0xb
    80000234:	6ff80813          	addi	x16,x16,1791
    80000238:	00a81813          	slli	x16,x16,0xa
    8000023c:	1db80813          	addi	x16,x16,475
    80000240:	beae08b7          	lui	x17,0xbeae0
    80000244:	eed88893          	addi	x17,x17,-275 # 0xffffffffbeadfeed
    80000248:	00b89893          	slli	x17,x17,0xb
    8000024c:	5f588893          	addi	x17,x17,1525
    80000250:	00b89893          	slli	x17,x17,0xb
    80000254:	37f88893          	addi	x17,x17,895
    80000258:	00a89893          	slli	x17,x17,0xa
    8000025c:	2ed88893          	addi	x17,x17,749
    80000260:	df570937          	lui	x18,0xdf570
    80000264:	f7690913          	addi	x18,x18,-138 # 0xffffffffdf56ff76
    80000268:	00b91913          	slli	x18,x18,0xb
    8000026c:	6fa90913          	addi	x18,x18,1786
    80000270:	00b91913          	slli	x18,x18,0xb
    80000274:	5bf90913          	addi	x18,x18,1471
    80000278:	00a91913          	slli	x18,x18,0xa
    8000027c:	37690913          	addi	x18,x18,886
    80000280:	6fab89b7          	lui	x19,0x6fab8
    80000284:	fbb98993          	addi	x19,x19,-69 # 0x6fab7fbb
    80000288:	00b99993          	slli	x19,x19,0xb
    8000028c:	37d98993          	addi	x19,x19,893
    80000290:	00b99993          	slli	x19,x19,0xb
    80000294:	2df98993          	addi	x19,x19,735
    80000298:	00a99993          	slli	x19,x19,0xa
    8000029c:	3bb98993          	addi	x19,x19,955
    800002a0:	b7d5ca37          	lui	x20,0xb7d5c
    800002a4:	fdda0a13          	addi	x20,x20,-35 # 0xffffffffb7d5bfdd
    800002a8:	00ba1a13          	slli	x20,x20,0xb
    800002ac:	5bea0a13          	addi	x20,x20,1470
    800002b0:	00ba1a13          	slli	x20,x20,0xb
    800002b4:	56fa0a13          	addi	x20,x20,1391
    800002b8:	00aa1a13          	slli	x20,x20,0xa
    800002bc:	3dda0a13          	addi	x20,x20,989
    800002c0:	dbeaeab7          	lui	x21,0xdbeae
    800002c4:	feea8a93          	addi	x21,x21,-18 # 0xffffffffdbeadfee
    800002c8:	00ba9a93          	slli	x21,x21,0xb
    800002cc:	6dfa8a93          	addi	x21,x21,1759
    800002d0:	00ba9a93          	slli	x21,x21,0xb
    800002d4:	2b7a8a93          	addi	x21,x21,695
    800002d8:	00aa9a93          	slli	x21,x21,0xa
    800002dc:	3eea8a93          	addi	x21,x21,1006
    800002e0:	6df57b37          	lui	x22,0x6df57
    800002e4:	ff7b0b13          	addi	x22,x22,-9 # 0x6df56ff7
    800002e8:	00bb1b13          	slli	x22,x22,0xb
    800002ec:	36fb0b13          	addi	x22,x22,879
    800002f0:	00bb1b13          	slli	x22,x22,0xb
    800002f4:	55bb0b13          	addi	x22,x22,1371
    800002f8:	00ab1b13          	slli	x22,x22,0xa
    800002fc:	3f7b0b13          	addi	x22,x22,1015
    80000300:	b6fabbb7          	lui	x23,0xb6fab
    80000304:	7fbb8b93          	addi	x23,x23,2043 # 0xffffffffb6fab7fb
    80000308:	00bb9b93          	slli	x23,x23,0xb
    8000030c:	5b7b8b93          	addi	x23,x23,1463
    80000310:	00bb9b93          	slli	x23,x23,0xb
    80000314:	6adb8b93          	addi	x23,x23,1709
    80000318:	00ab9b93          	slli	x23,x23,0xa
    8000031c:	3fbb8b93          	addi	x23,x23,1019
    80000320:	db7d6c37          	lui	x24,0xdb7d6
    80000324:	bfdc0c13          	addi	x24,x24,-1027 # 0xffffffffdb7d5bfd
    80000328:	00bc1c13          	slli	x24,x24,0xb
    8000032c:	6dbc0c13          	addi	x24,x24,1755
    80000330:	00bc1c13          	slli	x24,x24,0xb
    80000334:	756c0c13          	addi	x24,x24,1878
    80000338:	00ac1c13          	slli	x24,x24,0xa
    8000033c:	3fdc0c13          	addi	x24,x24,1021
    80000340:	edbebcb7          	lui	x25,0xedbeb
    80000344:	dfec8c93          	addi	x25,x25,-514 # 0xffffffffedbeadfe
    80000348:	00bc9c93          	slli	x25,x25,0xb
    8000034c:	76dc8c93          	addi	x25,x25,1901
    80000350:	00bc9c93          	slli	x25,x25,0xb
    80000354:	7abc8c93          	addi	x25,x25,1963
    80000358:	00ac9c93          	slli	x25,x25,0xa
    8000035c:	1fec8c93          	addi	x25,x25,510
    80000360:	76df5d37          	lui	x26,0x76df5
    80000364:	6ffd0d13          	addi	x26,x26,1791 # 0x76df56ff
    80000368:	00bd1d13          	slli	x26,x26,0xb
    8000036c:	3b6d0d13          	addi	x26,x26,950
    80000370:	00bd1d13          	slli	x26,x26,0xb
    80000374:	7d5d0d13          	addi	x26,x26,2005
    80000378:	00ad1d13          	slli	x26,x26,0xa
    8000037c:	2ffd0d13          	addi	x26,x26,767
    80000380:	bb6fbdb7          	lui	x27,0xbb6fb
    80000384:	b7fd8d93          	addi	x27,x27,-1153 # 0xffffffffbb6fab7f
    80000388:	00bd9d93          	slli	x27,x27,0xb
    8000038c:	5dbd8d93          	addi	x27,x27,1499
    80000390:	00bd9d93          	slli	x27,x27,0xb
    80000394:	3ead8d93          	addi	x27,x27,1002
    80000398:	00ad9d93          	slli	x27,x27,0xa
    8000039c:	37fd8d93          	addi	x27,x27,895
    800003a0:	ddb7de37          	lui	x28,0xddb7d
    800003a4:	5bfe0e13          	addi	x28,x28,1471 # 0xffffffffddb7d5bf
    800003a8:	00be1e13          	slli	x28,x28,0xb
    800003ac:	6ede0e13          	addi	x28,x28,1773
    800003b0:	00be1e13          	slli	x28,x28,0xb
    800003b4:	5f5e0e13          	addi	x28,x28,1525
    800003b8:	00ae1e13          	slli	x28,x28,0xa
    800003bc:	1bfe0e13          	addi	x28,x28,447
    800003c0:	eedbfeb7          	lui	x29,0xeedbf
    800003c4:	adfe8e93          	addi	x29,x29,-1313 # 0xffffffffeedbeadf
    800003c8:	00be9e93          	slli	x29,x29,0xb
    800003cc:	776e8e93          	addi	x29,x29,1910
    800003d0:	00be9e93          	slli	x29,x29,0xb
    800003d4:	6fae8e93          	addi	x29,x29,1786
    800003d8:	00ae9e93          	slli	x29,x29,0xa
    800003dc:	2dfe8e93          	addi	x29,x29,735
    800003e0:	f76dff37          	lui	x30,0xf76df
    800003e4:	56ff0f13          	addi	x30,x30,1391 # 0xfffffffff76df56f
    800003e8:	00bf1f13          	slli	x30,x30,0xb
    800003ec:	7bbf0f13          	addi	x30,x30,1979
    800003f0:	00bf1f13          	slli	x30,x30,0xb
    800003f4:	37df0f13          	addi	x30,x30,893
    800003f8:	00af1f13          	slli	x30,x30,0xa
    800003fc:	16ff0f13          	addi	x30,x30,367
    80000400:	fbb70fb7          	lui	x31,0xfbb70
    80000404:	ab7f8f93          	addi	x31,x31,-1353 # 0xfffffffffbb6fab7
    80000408:	00bf9f93          	slli	x31,x31,0xb
    8000040c:	7ddf8f93          	addi	x31,x31,2013
    80000410:	00bf9f93          	slli	x31,x31,0xb
    80000414:	5bef8f93          	addi	x31,x31,1470
    80000418:	00af9f93          	slli	x31,x31,0xa
    8000041c:	2b7f8f93          	addi	x31,x31,695
    80000420:	00003097          	auipc	x1,0x3
    80000424:	be808093          	addi	x1,x1,-1048 # 0x80003008
    80000428:	00000013          	addi	x0,x0,0
    8000042c:	00000013          	addi	x0,x0,0
    80000430:	00000013          	addi	x0,x0,0
    80000434:	00000013          	addi	x0,x0,0
    80000438:	00000013          	addi	x0,x0,0
    8000043c:	00000013          	addi	x0,x0,0
    80000440:	00100513          	addi	x10,x0,1
    80000444:	01251513          	slli	x10,x10,0x12
    80000448:	fff54513          	xori	x10,x10,-1
    8000044c:	0065151b          	slliw	x10,x10,0x6
    80000450:	00a0b023          	sd	x10,0(x1)
    80000454:	ff000237          	lui	x4,0xff000
    80000458:	fc02021b          	addiw	x4,x4,-64 # 0xfffffffffeffffc0
    8000045c:	00a20463          	beq	x4,x10,0x80000464
    80000460:	bc5ff06f          	jal	x0,0x80000024
    80000464:	00600e13          	addi	x28,x0,6
    80000468:	017e1d9b          	slliw	x27,x28,0x17
    8000046c:	01b0b423          	sd	x27,8(x1)
    80000470:	03000237          	lui	x4,0x3000
    80000474:	01b20463          	beq	x4,x27,0x8000047c
    80000478:	badff06f          	jal	x0,0x80000024
    8000047c:	00100713          	addi	x14,x0,1
    80000480:	02071713          	slli	x14,x14,0x20
    80000484:	fff74713          	xori	x14,x14,-1
    80000488:	0007161b          	slliw	x12,x14,0x0
    8000048c:	00c0b823          	sd	x12,16(x1)
    80000490:	fff00213          	addi	x4,x0,-1
    80000494:	00c20463          	beq	x4,x12,0x8000049c
    80000498:	b8dff06f          	jal	x0,0x80000024
    8000049c:	00100593          	addi	x11,x0,1
    800004a0:	03759593          	slli	x11,x11,0x37
    800004a4:	00059f1b          	slliw	x30,x11,0x0
    800004a8:	01e0bc23          	sd	x30,24(x1)
    800004ac:	00000213          	addi	x4,x0,0
    800004b0:	01e20463          	beq	x4,x30,0x800004b8
    800004b4:	b71ff06f          	jal	x0,0x80000024
    800004b8:	00100813          	addi	x16,x0,1
    800004bc:	03481813          	slli	x16,x16,0x34
    800004c0:	fff84813          	xori	x16,x16,-1
    800004c4:	01f8111b          	slliw	x2,x16,0x1f
    800004c8:	0220b023          	sd	x2,32(x1)
    800004cc:	80000237          	lui	x4,0x80000
    800004d0:	00220463          	beq	x4,x2,0x800004d8
    800004d4:	b51ff06f          	jal	x0,0x80000024
    800004d8:	00100f93          	addi	x31,x0,1
    800004dc:	02ef9f93          	slli	x31,x31,0x2e
    800004e0:	01ff9a1b          	slliw	x20,x31,0x1f
    800004e4:	0340b423          	sd	x20,40(x1)
    800004e8:	00000213          	addi	x4,x0,0
    800004ec:	01420463          	beq	x4,x20,0x800004f4
    800004f0:	b35ff06f          	jal	x0,0x80000024
    800004f4:	00500f13          	addi	x30,x0,5
    800004f8:	005f179b          	slliw	x15,x30,0x5
    800004fc:	02f0b823          	sd	x15,48(x1)
    80000500:	0a000213          	addi	x4,x0,160
    80000504:	00f20463          	beq	x4,x15,0x8000050c
    80000508:	b1dff06f          	jal	x0,0x80000024
    8000050c:	fff00193          	addi	x3,x0,-1
    80000510:	03f19193          	slli	x3,x3,0x3f
    80000514:	01d1939b          	slliw	x7,x3,0x1d
    80000518:	0270bc23          	sd	x7,56(x1)
    8000051c:	00000213          	addi	x4,x0,0
    80000520:	00720463          	beq	x4,x7,0x80000528
    80000524:	b01ff06f          	jal	x0,0x80000024
    80000528:	00000c93          	addi	x25,x0,0
    8000052c:	011c981b          	slliw	x16,x25,0x11
    80000530:	0500b023          	sd	x16,64(x1)
    80000534:	00000213          	addi	x4,x0,0
    80000538:	01020463          	beq	x4,x16,0x80000540
    8000053c:	ae9ff06f          	jal	x0,0x80000024
    80000540:	fff00693          	addi	x13,x0,-1
    80000544:	0016d693          	srli	x13,x13,0x1
    80000548:	00469b9b          	slliw	x23,x13,0x4
    8000054c:	0570b423          	sd	x23,72(x1)
    80000550:	ff000213          	addi	x4,x0,-16
    80000554:	01720463          	beq	x4,x23,0x8000055c
    80000558:	acdff06f          	jal	x0,0x80000024
    8000055c:	00100613          	addi	x12,x0,1
    80000560:	0176199b          	slliw	x19,x12,0x17
    80000564:	0530b823          	sd	x19,80(x1)
    80000568:	00800237          	lui	x4,0x800
    8000056c:	01320463          	beq	x4,x19,0x80000574
    80000570:	ab5ff06f          	jal	x0,0x80000024
    80000574:	00200393          	addi	x7,x0,2
    80000578:	01b39e9b          	slliw	x29,x7,0x1b
    8000057c:	05d0bc23          	sd	x29,88(x1)
    80000580:	10000237          	lui	x4,0x10000
    80000584:	01d20463          	beq	x4,x29,0x8000058c
    80000588:	a9dff06f          	jal	x0,0x80000024
    8000058c:	00000013          	addi	x0,x0,0
    80000590:	0000171b          	slliw	x14,x0,0x0
    80000594:	06e0b023          	sd	x14,96(x1)
    80000598:	00000213          	addi	x4,x0,0
    8000059c:	00e20463          	beq	x4,x14,0x800005a4
    800005a0:	a85ff06f          	jal	x0,0x80000024
    800005a4:	00800893          	addi	x17,x0,8
    800005a8:	00789f9b          	slliw	x31,x17,0x7
    800005ac:	07f0b423          	sd	x31,104(x1)
    800005b0:	40000213          	addi	x4,x0,1024
    800005b4:	01f20463          	beq	x4,x31,0x800005bc
    800005b8:	a6dff06f          	jal	x0,0x80000024
    800005bc:	01000a13          	addi	x20,x0,16
    800005c0:	007a149b          	slliw	x9,x20,0x7
    800005c4:	0690b823          	sd	x9,112(x1)
    800005c8:	00001237          	lui	x4,0x1
    800005cc:	8002021b          	addiw	x4,x4,-2048 # 0x800
    800005d0:	00920463          	beq	x4,x9,0x800005d8
    800005d4:	a51ff06f          	jal	x0,0x80000024
    800005d8:	02000e93          	addi	x29,x0,32
    800005dc:	015e9d1b          	slliw	x26,x29,0x15
    800005e0:	07a0bc23          	sd	x26,120(x1)
    800005e4:	04000237          	lui	x4,0x4000
    800005e8:	01a20463          	beq	x4,x26,0x800005f0
    800005ec:	a39ff06f          	jal	x0,0x80000024
    800005f0:	04000913          	addi	x18,x0,64
    800005f4:	00b9141b          	slliw	x8,x18,0xb
    800005f8:	0880b023          	sd	x8,128(x1)
    800005fc:	00020237          	lui	x4,0x20
    80000600:	00820463          	beq	x4,x8,0x80000608
    80000604:	a21ff06f          	jal	x0,0x80000024
    80000608:	08000113          	addi	x2,x0,128
    8000060c:	0061129b          	slliw	x5,x2,0x6
    80000610:	0850b423          	sd	x5,136(x1)
    80000614:	00002237          	lui	x4,0x2
    80000618:	00520463          	beq	x4,x5,0x80000620
    8000061c:	a09ff06f          	jal	x0,0x80000024
    80000620:	10000b93          	addi	x23,x0,256
    80000624:	00eb989b          	slliw	x17,x23,0xe
    80000628:	0910b823          	sd	x17,144(x1)
    8000062c:	00400237          	lui	x4,0x400
    80000630:	01120463          	beq	x4,x17,0x80000638
    80000634:	9f1ff06f          	jal	x0,0x80000024
    80000638:	20000a93          	addi	x21,x0,512
    8000063c:	00ea9e1b          	slliw	x28,x21,0xe
    80000640:	09c0bc23          	sd	x28,152(x1)
    80000644:	00800237          	lui	x4,0x800
    80000648:	01c20463          	beq	x4,x28,0x80000650
    8000064c:	9d9ff06f          	jal	x0,0x80000024
    80000650:	40000c13          	addi	x24,x0,1024
    80000654:	004c131b          	slliw	x6,x24,0x4
    80000658:	0a60b023          	sd	x6,160(x1)
    8000065c:	00004237          	lui	x4,0x4
    80000660:	00620463          	beq	x4,x6,0x80000668
    80000664:	9c1ff06f          	jal	x0,0x80000024
    80000668:	00000013          	addi	x0,x0,0
    8000066c:	00000013          	addi	x0,x0,0
    80000670:	00000013          	addi	x0,x0,0
    80000674:	00000013          	addi	x0,x0,0
    80000678:	00000013          	addi	x0,x0,0
    8000067c:	00000013          	addi	x0,x0,0
    80000680:	00003117          	auipc	x2,0x3
    80000684:	a3010113          	addi	x2,x2,-1488 # 0x800030b0
    80000688:	00000013          	addi	x0,x0,0
    8000068c:	00000013          	addi	x0,x0,0
    80000690:	00000013          	addi	x0,x0,0
    80000694:	00000013          	addi	x0,x0,0
    80000698:	00000013          	addi	x0,x0,0
    8000069c:	00000013          	addi	x0,x0,0
    800006a0:	00100413          	addi	x8,x0,1
    800006a4:	00b41413          	slli	x8,x8,0xb
    800006a8:	0124121b          	slliw	x4,x8,0x12
    800006ac:	00413023          	sd	x4,0(x2)
    800006b0:	200003b7          	lui	x7,0x20000
    800006b4:	00438463          	beq	x7,x4,0x800006bc
    800006b8:	96dff06f          	jal	x0,0x80000024
    800006bc:	00100993          	addi	x19,x0,1
    800006c0:	00c99993          	slli	x19,x19,0xc
    800006c4:	0159969b          	slliw	x13,x19,0x15
    800006c8:	00d13423          	sd	x13,8(x2)
    800006cc:	00000393          	addi	x7,x0,0
    800006d0:	00d38463          	beq	x7,x13,0x800006d8
    800006d4:	951ff06f          	jal	x0,0x80000024
    800006d8:	00100493          	addi	x9,x0,1
    800006dc:	00d49493          	slli	x9,x9,0xd
    800006e0:	0014901b          	slliw	x0,x9,0x1
    800006e4:	00013823          	sd	x0,16(x2)
    800006e8:	00000393          	addi	x7,x0,0
    800006ec:	00038463          	beq	x7,x0,0x800006f4
    800006f0:	935ff06f          	jal	x0,0x80000024
    800006f4:	00100093          	addi	x1,x0,1
    800006f8:	00e09093          	slli	x1,x1,0xe
    800006fc:	00809c9b          	slliw	x25,x1,0x8
    80000700:	01913c23          	sd	x25,24(x2)
    80000704:	004003b7          	lui	x7,0x400
    80000708:	01938463          	beq	x7,x25,0x80000710
    8000070c:	919ff06f          	jal	x0,0x80000024
    80000710:	00100313          	addi	x6,x0,1
    80000714:	00f31313          	slli	x6,x6,0xf
    80000718:	01d31b1b          	slliw	x22,x6,0x1d
    8000071c:	03613023          	sd	x22,32(x2)
    80000720:	00000393          	addi	x7,x0,0
    80000724:	01638463          	beq	x7,x22,0x8000072c
    80000728:	8fdff06f          	jal	x0,0x80000024
    8000072c:	00100b13          	addi	x22,x0,1
    80000730:	010b1b13          	slli	x22,x22,0x10
    80000734:	012b1c1b          	slliw	x24,x22,0x12
    80000738:	03813423          	sd	x24,40(x2)
    8000073c:	00000393          	addi	x7,x0,0
    80000740:	01838463          	beq	x7,x24,0x80000748
    80000744:	8e1ff06f          	jal	x0,0x80000024
    80000748:	00100d13          	addi	x26,x0,1
    8000074c:	011d1d13          	slli	x26,x26,0x11
    80000750:	00fd191b          	slliw	x18,x26,0xf
    80000754:	03213823          	sd	x18,48(x2)
    80000758:	00000393          	addi	x7,x0,0
    8000075c:	01238463          	beq	x7,x18,0x80000764
    80000760:	8c5ff06f          	jal	x0,0x80000024
    80000764:	00100213          	addi	x4,x0,1
    80000768:	01221213          	slli	x4,x4,0x12
    8000076c:	0122109b          	slliw	x1,x4,0x12
    80000770:	02113c23          	sd	x1,56(x2)
    80000774:	00000393          	addi	x7,x0,0
    80000778:	00138463          	beq	x7,x1,0x80000780
    8000077c:	8a9ff06f          	jal	x0,0x80000024
    80000780:	00100d93          	addi	x27,x0,1
    80000784:	013d9d93          	slli	x27,x27,0x13
    80000788:	00cd959b          	slliw	x11,x27,0xc
    8000078c:	04b13023          	sd	x11,64(x2)
    80000790:	800003b7          	lui	x7,0x80000
    80000794:	00b38463          	beq	x7,x11,0x8000079c
    80000798:	88dff06f          	jal	x0,0x80000024
    8000079c:	00100793          	addi	x15,x0,1
    800007a0:	01479793          	slli	x15,x15,0x14
    800007a4:	00879a9b          	slliw	x21,x15,0x8
    800007a8:	05513423          	sd	x21,72(x2)
    800007ac:	100003b7          	lui	x7,0x10000
    800007b0:	01538463          	beq	x7,x21,0x800007b8
    800007b4:	871ff06f          	jal	x0,0x80000024
    800007b8:	00100293          	addi	x5,x0,1
    800007bc:	01529293          	slli	x5,x5,0x15
    800007c0:	00c2919b          	slliw	x3,x5,0xc
    800007c4:	04313823          	sd	x3,80(x2)
    800007c8:	00000393          	addi	x7,x0,0
    800007cc:	00338463          	beq	x7,x3,0x800007d4
    800007d0:	855ff06f          	jal	x0,0x80000024
    800007d4:	00100513          	addi	x10,x0,1
    800007d8:	01651513          	slli	x10,x10,0x16
    800007dc:	0095159b          	slliw	x11,x10,0x9
    800007e0:	04b13c23          	sd	x11,88(x2)
    800007e4:	800003b7          	lui	x7,0x80000
    800007e8:	00b38463          	beq	x7,x11,0x800007f0
    800007ec:	839ff06f          	jal	x0,0x80000024
    800007f0:	00100513          	addi	x10,x0,1
    800007f4:	01751513          	slli	x10,x10,0x17
    800007f8:	0105159b          	slliw	x11,x10,0x10
    800007fc:	06b13023          	sd	x11,96(x2)
    80000800:	00000393          	addi	x7,x0,0
    80000804:	00b38463          	beq	x7,x11,0x8000080c
    80000808:	81dff06f          	jal	x0,0x80000024
    8000080c:	00100513          	addi	x10,x0,1
    80000810:	01851513          	slli	x10,x10,0x18
    80000814:	0115159b          	slliw	x11,x10,0x11
    80000818:	06b13423          	sd	x11,104(x2)
    8000081c:	00000393          	addi	x7,x0,0
    80000820:	00b38463          	beq	x7,x11,0x80000828
    80000824:	801ff06f          	jal	x0,0x80000024
    80000828:	00100513          	addi	x10,x0,1
    8000082c:	01951513          	slli	x10,x10,0x19
    80000830:	0115159b          	slliw	x11,x10,0x11
    80000834:	06b13823          	sd	x11,112(x2)
    80000838:	00000393          	addi	x7,x0,0
    8000083c:	00b38463          	beq	x7,x11,0x80000844
    80000840:	fe4ff06f          	jal	x0,0x80000024
    80000844:	00100513          	addi	x10,x0,1
    80000848:	01a51513          	slli	x10,x10,0x1a
    8000084c:	0035159b          	slliw	x11,x10,0x3
    80000850:	06b13c23          	sd	x11,120(x2)
    80000854:	200003b7          	lui	x7,0x20000
    80000858:	00b38463          	beq	x7,x11,0x80000860
    8000085c:	fc8ff06f          	jal	x0,0x80000024
    80000860:	00100513          	addi	x10,x0,1
    80000864:	01b51513          	slli	x10,x10,0x1b
    80000868:	00d5159b          	slliw	x11,x10,0xd
    8000086c:	08b13023          	sd	x11,128(x2)
    80000870:	00000393          	addi	x7,x0,0
    80000874:	00b38463          	beq	x7,x11,0x8000087c
    80000878:	facff06f          	jal	x0,0x80000024
    8000087c:	00100513          	addi	x10,x0,1
    80000880:	01c51513          	slli	x10,x10,0x1c
    80000884:	0025159b          	slliw	x11,x10,0x2
    80000888:	08b13423          	sd	x11,136(x2)
    8000088c:	400003b7          	lui	x7,0x40000
    80000890:	00b38463          	beq	x7,x11,0x80000898
    80000894:	f90ff06f          	jal	x0,0x80000024
    80000898:	00100513          	addi	x10,x0,1
    8000089c:	01d51513          	slli	x10,x10,0x1d
    800008a0:	01d5159b          	slliw	x11,x10,0x1d
    800008a4:	08b13823          	sd	x11,144(x2)
    800008a8:	00000393          	addi	x7,x0,0
    800008ac:	00b38463          	beq	x7,x11,0x800008b4
    800008b0:	f74ff06f          	jal	x0,0x80000024
    800008b4:	00100513          	addi	x10,x0,1
    800008b8:	01e51513          	slli	x10,x10,0x1e
    800008bc:	01f5159b          	slliw	x11,x10,0x1f
    800008c0:	08b13c23          	sd	x11,152(x2)
    800008c4:	00000393          	addi	x7,x0,0
    800008c8:	00b38463          	beq	x7,x11,0x800008d0
    800008cc:	f58ff06f          	jal	x0,0x80000024
    800008d0:	00100513          	addi	x10,x0,1
    800008d4:	01f51513          	slli	x10,x10,0x1f
    800008d8:	0035159b          	slliw	x11,x10,0x3
    800008dc:	0ab13023          	sd	x11,160(x2)
    800008e0:	00000393          	addi	x7,x0,0
    800008e4:	00b38463          	beq	x7,x11,0x800008ec
    800008e8:	f3cff06f          	jal	x0,0x80000024
    800008ec:	00100513          	addi	x10,x0,1
    800008f0:	02051513          	slli	x10,x10,0x20
    800008f4:	0125159b          	slliw	x11,x10,0x12
    800008f8:	0ab13423          	sd	x11,168(x2)
    800008fc:	00000393          	addi	x7,x0,0
    80000900:	00b38463          	beq	x7,x11,0x80000908
    80000904:	f20ff06f          	jal	x0,0x80000024
    80000908:	00100513          	addi	x10,x0,1
    8000090c:	02151513          	slli	x10,x10,0x21
    80000910:	00b5159b          	slliw	x11,x10,0xb
    80000914:	0ab13823          	sd	x11,176(x2)
    80000918:	00000393          	addi	x7,x0,0
    8000091c:	00b38463          	beq	x7,x11,0x80000924
    80000920:	f04ff06f          	jal	x0,0x80000024
    80000924:	00100513          	addi	x10,x0,1
    80000928:	02251513          	slli	x10,x10,0x22
    8000092c:	0155159b          	slliw	x11,x10,0x15
    80000930:	0ab13c23          	sd	x11,184(x2)
    80000934:	00000393          	addi	x7,x0,0
    80000938:	00b38463          	beq	x7,x11,0x80000940
    8000093c:	ee8ff06f          	jal	x0,0x80000024
    80000940:	00100513          	addi	x10,x0,1
    80000944:	02351513          	slli	x10,x10,0x23
    80000948:	0035159b          	slliw	x11,x10,0x3
    8000094c:	0cb13023          	sd	x11,192(x2)
    80000950:	00000393          	addi	x7,x0,0
    80000954:	00b38463          	beq	x7,x11,0x8000095c
    80000958:	eccff06f          	jal	x0,0x80000024
    8000095c:	00100513          	addi	x10,x0,1
    80000960:	02451513          	slli	x10,x10,0x24
    80000964:	01b5159b          	slliw	x11,x10,0x1b
    80000968:	0cb13423          	sd	x11,200(x2)
    8000096c:	00000393          	addi	x7,x0,0
    80000970:	00b38463          	beq	x7,x11,0x80000978
    80000974:	eb0ff06f          	jal	x0,0x80000024
    80000978:	00100513          	addi	x10,x0,1
    8000097c:	02551513          	slli	x10,x10,0x25
    80000980:	0015159b          	slliw	x11,x10,0x1
    80000984:	0cb13823          	sd	x11,208(x2)
    80000988:	00000393          	addi	x7,x0,0
    8000098c:	00b38463          	beq	x7,x11,0x80000994
    80000990:	e94ff06f          	jal	x0,0x80000024
    80000994:	00100513          	addi	x10,x0,1
    80000998:	02651513          	slli	x10,x10,0x26
    8000099c:	0025159b          	slliw	x11,x10,0x2
    800009a0:	0cb13c23          	sd	x11,216(x2)
    800009a4:	00000393          	addi	x7,x0,0
    800009a8:	00b38463          	beq	x7,x11,0x800009b0
    800009ac:	e78ff06f          	jal	x0,0x80000024
    800009b0:	00100513          	addi	x10,x0,1
    800009b4:	02751513          	slli	x10,x10,0x27
    800009b8:	01d5159b          	slliw	x11,x10,0x1d
    800009bc:	0eb13023          	sd	x11,224(x2)
    800009c0:	00000393          	addi	x7,x0,0
    800009c4:	00b38463          	beq	x7,x11,0x800009cc
    800009c8:	e5cff06f          	jal	x0,0x80000024
    800009cc:	00100513          	addi	x10,x0,1
    800009d0:	02851513          	slli	x10,x10,0x28
    800009d4:	0005159b          	slliw	x11,x10,0x0
    800009d8:	0eb13423          	sd	x11,232(x2)
    800009dc:	00000393          	addi	x7,x0,0
    800009e0:	00b38463          	beq	x7,x11,0x800009e8
    800009e4:	e40ff06f          	jal	x0,0x80000024
    800009e8:	00100513          	addi	x10,x0,1
    800009ec:	02951513          	slli	x10,x10,0x29
    800009f0:	00d5159b          	slliw	x11,x10,0xd
    800009f4:	0eb13823          	sd	x11,240(x2)
    800009f8:	00000393          	addi	x7,x0,0
    800009fc:	00b38463          	beq	x7,x11,0x80000a04
    80000a00:	e24ff06f          	jal	x0,0x80000024
    80000a04:	00100513          	addi	x10,x0,1
    80000a08:	02a51513          	slli	x10,x10,0x2a
    80000a0c:	0065159b          	slliw	x11,x10,0x6
    80000a10:	0eb13c23          	sd	x11,248(x2)
    80000a14:	00000393          	addi	x7,x0,0
    80000a18:	00b38463          	beq	x7,x11,0x80000a20
    80000a1c:	e08ff06f          	jal	x0,0x80000024
    80000a20:	00100513          	addi	x10,x0,1
    80000a24:	02b51513          	slli	x10,x10,0x2b
    80000a28:	0075159b          	slliw	x11,x10,0x7
    80000a2c:	10b13023          	sd	x11,256(x2)
    80000a30:	00000393          	addi	x7,x0,0
    80000a34:	00b38463          	beq	x7,x11,0x80000a3c
    80000a38:	decff06f          	jal	x0,0x80000024
    80000a3c:	00100513          	addi	x10,x0,1
    80000a40:	02c51513          	slli	x10,x10,0x2c
    80000a44:	0095159b          	slliw	x11,x10,0x9
    80000a48:	10b13423          	sd	x11,264(x2)
    80000a4c:	00000393          	addi	x7,x0,0
    80000a50:	00b38463          	beq	x7,x11,0x80000a58
    80000a54:	dd0ff06f          	jal	x0,0x80000024
    80000a58:	00100513          	addi	x10,x0,1
    80000a5c:	02d51513          	slli	x10,x10,0x2d
    80000a60:	0155159b          	slliw	x11,x10,0x15
    80000a64:	10b13823          	sd	x11,272(x2)
    80000a68:	00000393          	addi	x7,x0,0
    80000a6c:	00b38463          	beq	x7,x11,0x80000a74
    80000a70:	db4ff06f          	jal	x0,0x80000024
    80000a74:	00100513          	addi	x10,x0,1
    80000a78:	02f51513          	slli	x10,x10,0x2f
    80000a7c:	0045159b          	slliw	x11,x10,0x4
    80000a80:	10b13c23          	sd	x11,280(x2)
    80000a84:	00000393          	addi	x7,x0,0
    80000a88:	00b38463          	beq	x7,x11,0x80000a90
    80000a8c:	d98ff06f          	jal	x0,0x80000024
    80000a90:	00100513          	addi	x10,x0,1
    80000a94:	03051513          	slli	x10,x10,0x30
    80000a98:	0175159b          	slliw	x11,x10,0x17
    80000a9c:	12b13023          	sd	x11,288(x2)
    80000aa0:	00000393          	addi	x7,x0,0
    80000aa4:	00b38463          	beq	x7,x11,0x80000aac
    80000aa8:	d7cff06f          	jal	x0,0x80000024
    80000aac:	00100513          	addi	x10,x0,1
    80000ab0:	03151513          	slli	x10,x10,0x31
    80000ab4:	0095159b          	slliw	x11,x10,0x9
    80000ab8:	12b13423          	sd	x11,296(x2)
    80000abc:	00000393          	addi	x7,x0,0
    80000ac0:	00b38463          	beq	x7,x11,0x80000ac8
    80000ac4:	d60ff06f          	jal	x0,0x80000024
    80000ac8:	00100513          	addi	x10,x0,1
    80000acc:	03251513          	slli	x10,x10,0x32
    80000ad0:	01f5159b          	slliw	x11,x10,0x1f
    80000ad4:	12b13823          	sd	x11,304(x2)
    80000ad8:	00000393          	addi	x7,x0,0
    80000adc:	00b38463          	beq	x7,x11,0x80000ae4
    80000ae0:	d44ff06f          	jal	x0,0x80000024
    80000ae4:	00100513          	addi	x10,x0,1
    80000ae8:	03351513          	slli	x10,x10,0x33
    80000aec:	00f5159b          	slliw	x11,x10,0xf
    80000af0:	12b13c23          	sd	x11,312(x2)
    80000af4:	00000393          	addi	x7,x0,0
    80000af8:	00b38463          	beq	x7,x11,0x80000b00
    80000afc:	d28ff06f          	jal	x0,0x80000024
    80000b00:	00100513          	addi	x10,x0,1
    80000b04:	03451513          	slli	x10,x10,0x34
    80000b08:	01f5159b          	slliw	x11,x10,0x1f
    80000b0c:	14b13023          	sd	x11,320(x2)
    80000b10:	00000393          	addi	x7,x0,0
    80000b14:	00b38463          	beq	x7,x11,0x80000b1c
    80000b18:	d0cff06f          	jal	x0,0x80000024
    80000b1c:	00100513          	addi	x10,x0,1
    80000b20:	03551513          	slli	x10,x10,0x35
    80000b24:	0085159b          	slliw	x11,x10,0x8
    80000b28:	14b13423          	sd	x11,328(x2)
    80000b2c:	00000393          	addi	x7,x0,0
    80000b30:	00b38463          	beq	x7,x11,0x80000b38
    80000b34:	cf0ff06f          	jal	x0,0x80000024
    80000b38:	00100513          	addi	x10,x0,1
    80000b3c:	03651513          	slli	x10,x10,0x36
    80000b40:	0025159b          	slliw	x11,x10,0x2
    80000b44:	14b13823          	sd	x11,336(x2)
    80000b48:	00000393          	addi	x7,x0,0
    80000b4c:	00b38463          	beq	x7,x11,0x80000b54
    80000b50:	cd4ff06f          	jal	x0,0x80000024
    80000b54:	00100513          	addi	x10,x0,1
    80000b58:	03851513          	slli	x10,x10,0x38
    80000b5c:	00b5159b          	slliw	x11,x10,0xb
    80000b60:	14b13c23          	sd	x11,344(x2)
    80000b64:	00000393          	addi	x7,x0,0
    80000b68:	00b38463          	beq	x7,x11,0x80000b70
    80000b6c:	cb8ff06f          	jal	x0,0x80000024
    80000b70:	00100513          	addi	x10,x0,1
    80000b74:	03951513          	slli	x10,x10,0x39
    80000b78:	0055159b          	slliw	x11,x10,0x5
    80000b7c:	16b13023          	sd	x11,352(x2)
    80000b80:	00000393          	addi	x7,x0,0
    80000b84:	00b38463          	beq	x7,x11,0x80000b8c
    80000b88:	c9cff06f          	jal	x0,0x80000024
    80000b8c:	00100513          	addi	x10,x0,1
    80000b90:	03a51513          	slli	x10,x10,0x3a
    80000b94:	0135159b          	slliw	x11,x10,0x13
    80000b98:	16b13423          	sd	x11,360(x2)
    80000b9c:	00000393          	addi	x7,x0,0
    80000ba0:	00b38463          	beq	x7,x11,0x80000ba8
    80000ba4:	c80ff06f          	jal	x0,0x80000024
    80000ba8:	00100513          	addi	x10,x0,1
    80000bac:	03b51513          	slli	x10,x10,0x3b
    80000bb0:	01e5159b          	slliw	x11,x10,0x1e
    80000bb4:	16b13823          	sd	x11,368(x2)
    80000bb8:	00000393          	addi	x7,x0,0
    80000bbc:	00b38463          	beq	x7,x11,0x80000bc4
    80000bc0:	c64ff06f          	jal	x0,0x80000024
    80000bc4:	00100513          	addi	x10,x0,1
    80000bc8:	03c51513          	slli	x10,x10,0x3c
    80000bcc:	0015159b          	slliw	x11,x10,0x1
    80000bd0:	16b13c23          	sd	x11,376(x2)
    80000bd4:	00000393          	addi	x7,x0,0
    80000bd8:	00b38463          	beq	x7,x11,0x80000be0
    80000bdc:	c48ff06f          	jal	x0,0x80000024
    80000be0:	00100513          	addi	x10,x0,1
    80000be4:	03d51513          	slli	x10,x10,0x3d
    80000be8:	01f5159b          	slliw	x11,x10,0x1f
    80000bec:	18b13023          	sd	x11,384(x2)
    80000bf0:	00000393          	addi	x7,x0,0
    80000bf4:	00b38463          	beq	x7,x11,0x80000bfc
    80000bf8:	c2cff06f          	jal	x0,0x80000024
    80000bfc:	00100513          	addi	x10,x0,1
    80000c00:	03e51513          	slli	x10,x10,0x3e
    80000c04:	00e5159b          	slliw	x11,x10,0xe
    80000c08:	18b13423          	sd	x11,392(x2)
    80000c0c:	00000393          	addi	x7,x0,0
    80000c10:	00b38463          	beq	x7,x11,0x80000c18
    80000c14:	c10ff06f          	jal	x0,0x80000024
    80000c18:	ffe00513          	addi	x10,x0,-2
    80000c1c:	01e5159b          	slliw	x11,x10,0x1e
    80000c20:	18b13823          	sd	x11,400(x2)
    80000c24:	800003b7          	lui	x7,0x80000
    80000c28:	00b38463          	beq	x7,x11,0x80000c30
    80000c2c:	bf8ff06f          	jal	x0,0x80000024
    80000c30:	ffd00513          	addi	x10,x0,-3
    80000c34:	0175159b          	slliw	x11,x10,0x17
    80000c38:	18b13c23          	sd	x11,408(x2)
    80000c3c:	fe8003b7          	lui	x7,0xfe800
    80000c40:	00b38463          	beq	x7,x11,0x80000c48
    80000c44:	be0ff06f          	jal	x0,0x80000024
    80000c48:	ffb00513          	addi	x10,x0,-5
    80000c4c:	0055159b          	slliw	x11,x10,0x5
    80000c50:	1ab13023          	sd	x11,416(x2)
    80000c54:	f6000393          	addi	x7,x0,-160
    80000c58:	00b38463          	beq	x7,x11,0x80000c60
    80000c5c:	bc8ff06f          	jal	x0,0x80000024
    80000c60:	ff700513          	addi	x10,x0,-9
    80000c64:	0035159b          	slliw	x11,x10,0x3
    80000c68:	1ab13423          	sd	x11,424(x2)
    80000c6c:	fb800393          	addi	x7,x0,-72
    80000c70:	00b38463          	beq	x7,x11,0x80000c78
    80000c74:	bb0ff06f          	jal	x0,0x80000024
    80000c78:	fef00513          	addi	x10,x0,-17
    80000c7c:	0025159b          	slliw	x11,x10,0x2
    80000c80:	1ab13823          	sd	x11,432(x2)
    80000c84:	fbc00393          	addi	x7,x0,-68
    80000c88:	00b38463          	beq	x7,x11,0x80000c90
    80000c8c:	b98ff06f          	jal	x0,0x80000024
    80000c90:	fdf00513          	addi	x10,x0,-33
    80000c94:	0155159b          	slliw	x11,x10,0x15
    80000c98:	1ab13c23          	sd	x11,440(x2)
    80000c9c:	fbe003b7          	lui	x7,0xfbe00
    80000ca0:	00b38463          	beq	x7,x11,0x80000ca8
    80000ca4:	b80ff06f          	jal	x0,0x80000024
    80000ca8:	fbf00513          	addi	x10,x0,-65
    80000cac:	0075159b          	slliw	x11,x10,0x7
    80000cb0:	1cb13023          	sd	x11,448(x2)
    80000cb4:	ffffe3b7          	lui	x7,0xffffe
    80000cb8:	f803839b          	addiw	x7,x7,-128 # 0xffffffffffffdf80
    80000cbc:	00b38463          	beq	x7,x11,0x80000cc4
    80000cc0:	b64ff06f          	jal	x0,0x80000024
    80000cc4:	f7f00513          	addi	x10,x0,-129
    80000cc8:	0045159b          	slliw	x11,x10,0x4
    80000ccc:	1cb13423          	sd	x11,456(x2)
    80000cd0:	fffff3b7          	lui	x7,0xfffff
    80000cd4:	7f03839b          	addiw	x7,x7,2032 # 0xfffffffffffff7f0
    80000cd8:	00b38463          	beq	x7,x11,0x80000ce0
    80000cdc:	b48ff06f          	jal	x0,0x80000024
    80000ce0:	eff00513          	addi	x10,x0,-257
    80000ce4:	0065159b          	slliw	x11,x10,0x6
    80000ce8:	1cb13823          	sd	x11,464(x2)
    80000cec:	ffffc3b7          	lui	x7,0xffffc
    80000cf0:	fc03839b          	addiw	x7,x7,-64 # 0xffffffffffffbfc0
    80000cf4:	00b38463          	beq	x7,x11,0x80000cfc
    80000cf8:	b2cff06f          	jal	x0,0x80000024
    80000cfc:	dff00513          	addi	x10,x0,-513
    80000d00:	0085159b          	slliw	x11,x10,0x8
    80000d04:	1cb13c23          	sd	x11,472(x2)
    80000d08:	fffe03b7          	lui	x7,0xfffe0
    80000d0c:	f003839b          	addiw	x7,x7,-256 # 0xfffffffffffdff00
    80000d10:	00b38463          	beq	x7,x11,0x80000d18
    80000d14:	b10ff06f          	jal	x0,0x80000024
    80000d18:	bff00513          	addi	x10,x0,-1025
    80000d1c:	00c5159b          	slliw	x11,x10,0xc
    80000d20:	1eb13023          	sd	x11,480(x2)
    80000d24:	ffbff3b7          	lui	x7,0xffbff
    80000d28:	00b38463          	beq	x7,x11,0x80000d30
    80000d2c:	af8ff06f          	jal	x0,0x80000024
    80000d30:	00100513          	addi	x10,x0,1
    80000d34:	00b51513          	slli	x10,x10,0xb
    80000d38:	fff54513          	xori	x10,x10,-1
    80000d3c:	0025159b          	slliw	x11,x10,0x2
    80000d40:	1eb13423          	sd	x11,488(x2)
    80000d44:	ffffe3b7          	lui	x7,0xffffe
    80000d48:	ffc3839b          	addiw	x7,x7,-4 # 0xffffffffffffdffc
    80000d4c:	00b38463          	beq	x7,x11,0x80000d54
    80000d50:	ad4ff06f          	jal	x0,0x80000024
    80000d54:	00100513          	addi	x10,x0,1
    80000d58:	00c51513          	slli	x10,x10,0xc
    80000d5c:	fff54513          	xori	x10,x10,-1
    80000d60:	00c5159b          	slliw	x11,x10,0xc
    80000d64:	1eb13823          	sd	x11,496(x2)
    80000d68:	fefff3b7          	lui	x7,0xfefff
    80000d6c:	00b38463          	beq	x7,x11,0x80000d74
    80000d70:	ab4ff06f          	jal	x0,0x80000024
    80000d74:	00100513          	addi	x10,x0,1
    80000d78:	00d51513          	slli	x10,x10,0xd
    80000d7c:	fff54513          	xori	x10,x10,-1
    80000d80:	00f5159b          	slliw	x11,x10,0xf
    80000d84:	1eb13c23          	sd	x11,504(x2)
    80000d88:	efff83b7          	lui	x7,0xefff8
    80000d8c:	00b38463          	beq	x7,x11,0x80000d94
    80000d90:	a94ff06f          	jal	x0,0x80000024
    80000d94:	00100513          	addi	x10,x0,1
    80000d98:	00e51513          	slli	x10,x10,0xe
    80000d9c:	fff54513          	xori	x10,x10,-1
    80000da0:	00a5159b          	slliw	x11,x10,0xa
    80000da4:	20b13023          	sd	x11,512(x2)
    80000da8:	ff0003b7          	lui	x7,0xff000
    80000dac:	c003839b          	addiw	x7,x7,-1024 # 0xfffffffffefffc00
    80000db0:	00b38463          	beq	x7,x11,0x80000db8
    80000db4:	a70ff06f          	jal	x0,0x80000024
    80000db8:	00100513          	addi	x10,x0,1
    80000dbc:	00f51513          	slli	x10,x10,0xf
    80000dc0:	fff54513          	xori	x10,x10,-1
    80000dc4:	0155159b          	slliw	x11,x10,0x15
    80000dc8:	20b13423          	sd	x11,520(x2)
    80000dcc:	ffe003b7          	lui	x7,0xffe00
    80000dd0:	00b38463          	beq	x7,x11,0x80000dd8
    80000dd4:	a50ff06f          	jal	x0,0x80000024
    80000dd8:	00100513          	addi	x10,x0,1
    80000ddc:	03551513          	slli	x10,x10,0x35
    80000de0:	fff54513          	xori	x10,x10,-1
    80000de4:	0115159b          	slliw	x11,x10,0x11
    80000de8:	20b13823          	sd	x11,528(x2)
    80000dec:	fffe03b7          	lui	x7,0xfffe0
    80000df0:	00b38463          	beq	x7,x11,0x80000df8
    80000df4:	a30ff06f          	jal	x0,0x80000024
    80000df8:	00100513          	addi	x10,x0,1
    80000dfc:	03651513          	slli	x10,x10,0x36
    80000e00:	fff54513          	xori	x10,x10,-1
    80000e04:	0095159b          	slliw	x11,x10,0x9
    80000e08:	20b13c23          	sd	x11,536(x2)
    80000e0c:	e0000393          	addi	x7,x0,-512
    80000e10:	00b38463          	beq	x7,x11,0x80000e18
    80000e14:	a10ff06f          	jal	x0,0x80000024
    80000e18:	00100513          	addi	x10,x0,1
    80000e1c:	03751513          	slli	x10,x10,0x37
    80000e20:	fff54513          	xori	x10,x10,-1
    80000e24:	00e5159b          	slliw	x11,x10,0xe
    80000e28:	22b13023          	sd	x11,544(x2)
    80000e2c:	ffffc3b7          	lui	x7,0xffffc
    80000e30:	00b38463          	beq	x7,x11,0x80000e38
    80000e34:	9f0ff06f          	jal	x0,0x80000024
    80000e38:	00100513          	addi	x10,x0,1
    80000e3c:	03851513          	slli	x10,x10,0x38
    80000e40:	fff54513          	xori	x10,x10,-1
    80000e44:	01b5159b          	slliw	x11,x10,0x1b
    80000e48:	22b13423          	sd	x11,552(x2)
    80000e4c:	f80003b7          	lui	x7,0xf8000
    80000e50:	00b38463          	beq	x7,x11,0x80000e58
    80000e54:	9d0ff06f          	jal	x0,0x80000024
    80000e58:	00100513          	addi	x10,x0,1
    80000e5c:	03951513          	slli	x10,x10,0x39
    80000e60:	fff54513          	xori	x10,x10,-1
    80000e64:	01d5159b          	slliw	x11,x10,0x1d
    80000e68:	22b13823          	sd	x11,560(x2)
    80000e6c:	e00003b7          	lui	x7,0xe0000
    80000e70:	00b38463          	beq	x7,x11,0x80000e78
    80000e74:	9b0ff06f          	jal	x0,0x80000024
    80000e78:	00100513          	addi	x10,x0,1
    80000e7c:	03a51513          	slli	x10,x10,0x3a
    80000e80:	fff54513          	xori	x10,x10,-1
    80000e84:	0015159b          	slliw	x11,x10,0x1
    80000e88:	22b13c23          	sd	x11,568(x2)
    80000e8c:	ffe00393          	addi	x7,x0,-2
    80000e90:	00b38463          	beq	x7,x11,0x80000e98
    80000e94:	990ff06f          	jal	x0,0x80000024
    80000e98:	00100513          	addi	x10,x0,1
    80000e9c:	03b51513          	slli	x10,x10,0x3b
    80000ea0:	fff54513          	xori	x10,x10,-1
    80000ea4:	0015159b          	slliw	x11,x10,0x1
    80000ea8:	24b13023          	sd	x11,576(x2)
    80000eac:	ffe00393          	addi	x7,x0,-2
    80000eb0:	00b38463          	beq	x7,x11,0x80000eb8
    80000eb4:	970ff06f          	jal	x0,0x80000024
    80000eb8:	00100513          	addi	x10,x0,1
    80000ebc:	03c51513          	slli	x10,x10,0x3c
    80000ec0:	fff54513          	xori	x10,x10,-1
    80000ec4:	0115159b          	slliw	x11,x10,0x11
    80000ec8:	24b13423          	sd	x11,584(x2)
    80000ecc:	fffe03b7          	lui	x7,0xfffe0
    80000ed0:	00b38463          	beq	x7,x11,0x80000ed8
    80000ed4:	950ff06f          	jal	x0,0x80000024
    80000ed8:	00100513          	addi	x10,x0,1
    80000edc:	03d51513          	slli	x10,x10,0x3d
    80000ee0:	fff54513          	xori	x10,x10,-1
    80000ee4:	0105159b          	slliw	x11,x10,0x10
    80000ee8:	24b13823          	sd	x11,592(x2)
    80000eec:	ffff03b7          	lui	x7,0xffff0
    80000ef0:	00b38463          	beq	x7,x11,0x80000ef8
    80000ef4:	930ff06f          	jal	x0,0x80000024
    80000ef8:	00100513          	addi	x10,x0,1
    80000efc:	03e51513          	slli	x10,x10,0x3e
    80000f00:	fff54513          	xori	x10,x10,-1
    80000f04:	0005159b          	slliw	x11,x10,0x0
    80000f08:	24b13c23          	sd	x11,600(x2)
    80000f0c:	fff00393          	addi	x7,x0,-1
    80000f10:	00b38463          	beq	x7,x11,0x80000f18
    80000f14:	910ff06f          	jal	x0,0x80000024
    80000f18:	55555537          	lui	x10,0x55555
    80000f1c:	55550513          	addi	x10,x10,1365 # 0x55555555
    80000f20:	00b51513          	slli	x10,x10,0xb
    80000f24:	2aa50513          	addi	x10,x10,682
    80000f28:	00b51513          	slli	x10,x10,0xb
    80000f2c:	55550513          	addi	x10,x10,1365
    80000f30:	00a51513          	slli	x10,x10,0xa
    80000f34:	15550513          	addi	x10,x10,341
    80000f38:	0045159b          	slliw	x11,x10,0x4
    80000f3c:	26b13023          	sd	x11,608(x2)
    80000f40:	555553b7          	lui	x7,0x55555
    80000f44:	5503839b          	addiw	x7,x7,1360 # 0x55555550
    80000f48:	00b38463          	beq	x7,x11,0x80000f50
    80000f4c:	8d8ff06f          	jal	x0,0x80000024
    80000f50:	aaaab537          	lui	x10,0xaaaab
    80000f54:	aaa50513          	addi	x10,x10,-1366 # 0xffffffffaaaaaaaa
    80000f58:	00b51513          	slli	x10,x10,0xb
    80000f5c:	55550513          	addi	x10,x10,1365
    80000f60:	00b51513          	slli	x10,x10,0xb
    80000f64:	2aa50513          	addi	x10,x10,682
    80000f68:	00a51513          	slli	x10,x10,0xa
    80000f6c:	2aa50513          	addi	x10,x10,682
    80000f70:	0155159b          	slliw	x11,x10,0x15
    80000f74:	26b13423          	sd	x11,616(x2)
    80000f78:	554003b7          	lui	x7,0x55400
    80000f7c:	00b38463          	beq	x7,x11,0x80000f84
    80000f80:	8a4ff06f          	jal	x0,0x80000024
    80000f84:	00300513          	addi	x10,x0,3
    80000f88:	00d5159b          	slliw	x11,x10,0xd
    80000f8c:	26b13823          	sd	x11,624(x2)
    80000f90:	000063b7          	lui	x7,0x6
    80000f94:	00b38463          	beq	x7,x11,0x80000f9c
    80000f98:	88cff06f          	jal	x0,0x80000024
    80000f9c:	33333537          	lui	x10,0x33333
    80000fa0:	33350513          	addi	x10,x10,819 # 0x33333333
    80000fa4:	00b51513          	slli	x10,x10,0xb
    80000fa8:	19950513          	addi	x10,x10,409
    80000fac:	00b51513          	slli	x10,x10,0xb
    80000fb0:	4cc50513          	addi	x10,x10,1228
    80000fb4:	00a51513          	slli	x10,x10,0xa
    80000fb8:	33350513          	addi	x10,x10,819
    80000fbc:	0005159b          	slliw	x11,x10,0x0
    80000fc0:	26b13c23          	sd	x11,632(x2)
    80000fc4:	333333b7          	lui	x7,0x33333
    80000fc8:	3333839b          	addiw	x7,x7,819 # 0x33333333
    80000fcc:	00b38463          	beq	x7,x11,0x80000fd4
    80000fd0:	854ff06f          	jal	x0,0x80000024
    80000fd4:	66666537          	lui	x10,0x66666
    80000fd8:	66650513          	addi	x10,x10,1638 # 0x66666666
    80000fdc:	00b51513          	slli	x10,x10,0xb
    80000fe0:	33350513          	addi	x10,x10,819
    80000fe4:	00b51513          	slli	x10,x10,0xb
    80000fe8:	19950513          	addi	x10,x10,409
    80000fec:	00a51513          	slli	x10,x10,0xa
    80000ff0:	26650513          	addi	x10,x10,614
    80000ff4:	0155159b          	slliw	x11,x10,0x15
    80000ff8:	28b13023          	sd	x11,640(x2)
    80000ffc:	ccc003b7          	lui	x7,0xccc00
    80001000:	00b38463          	beq	x7,x11,0x80001008
    80001004:	820ff06f          	jal	x0,0x80000024
    80001008:	00000537          	lui	x10,0x0
    8000100c:	fff50513          	addi	x10,x10,-1 # 0xffffffffffffffff
    80001010:	00b51513          	slli	x10,x10,0xb
    80001014:	25750513          	addi	x10,x10,599
    80001018:	00b51513          	slli	x10,x10,0xb
    8000101c:	6c350513          	addi	x10,x10,1731
    80001020:	00a51513          	slli	x10,x10,0xa
    80001024:	0cd50513          	addi	x10,x10,205
    80001028:	0035159b          	slliw	x11,x10,0x3
    8000102c:	28b13423          	sd	x11,648(x2)
    80001030:	57d863b7          	lui	x7,0x57d86
    80001034:	6683839b          	addiw	x7,x7,1640 # 0x57d86668
    80001038:	00b38463          	beq	x7,x11,0x80001040
    8000103c:	fe9fe06f          	jal	x0,0x80000024
    80001040:	00000537          	lui	x10,0x0
    80001044:	00050513          	addi	x10,x10,0 # 0x0
    80001048:	00b51513          	slli	x10,x10,0xb
    8000104c:	5a850513          	addi	x10,x10,1448
    80001050:	00b51513          	slli	x10,x10,0xb
    80001054:	13c50513          	addi	x10,x10,316
    80001058:	00a51513          	slli	x10,x10,0xa
    8000105c:	33350513          	addi	x10,x10,819
    80001060:	0015159b          	slliw	x11,x10,0x1
    80001064:	28b13823          	sd	x11,656(x2)
    80001068:	6a09e3b7          	lui	x7,0x6a09e
    8000106c:	6663839b          	addiw	x7,x7,1638 # 0x6a09e666
    80001070:	00b38463          	beq	x7,x11,0x80001078
    80001074:	fb1fe06f          	jal	x0,0x80000024
    80001078:	55555537          	lui	x10,0x55555
    8000107c:	55550513          	addi	x10,x10,1365 # 0x55555555
    80001080:	00b51513          	slli	x10,x10,0xb
    80001084:	2aa50513          	addi	x10,x10,682
    80001088:	00b51513          	slli	x10,x10,0xb
    8000108c:	55550513          	addi	x10,x10,1365
    80001090:	00a51513          	slli	x10,x10,0xa
    80001094:	15450513          	addi	x10,x10,340
    80001098:	0055159b          	slliw	x11,x10,0x5
    8000109c:	28b13c23          	sd	x11,664(x2)
    800010a0:	aaaab3b7          	lui	x7,0xaaaab
    800010a4:	a803839b          	addiw	x7,x7,-1408 # 0xffffffffaaaaaa80
    800010a8:	00b38463          	beq	x7,x11,0x800010b0
    800010ac:	f79fe06f          	jal	x0,0x80000024
    800010b0:	33333537          	lui	x10,0x33333
    800010b4:	33350513          	addi	x10,x10,819 # 0x33333333
    800010b8:	00b51513          	slli	x10,x10,0xb
    800010bc:	19950513          	addi	x10,x10,409
    800010c0:	00b51513          	slli	x10,x10,0xb
    800010c4:	4cc50513          	addi	x10,x10,1228
    800010c8:	00a51513          	slli	x10,x10,0xa
    800010cc:	33250513          	addi	x10,x10,818
    800010d0:	00d5159b          	slliw	x11,x10,0xd
    800010d4:	2ab13023          	sd	x11,672(x2)
    800010d8:	666643b7          	lui	x7,0x66664
    800010dc:	00b38463          	beq	x7,x11,0x800010e4
    800010e0:	f45fe06f          	jal	x0,0x80000024
    800010e4:	66666537          	lui	x10,0x66666
    800010e8:	66650513          	addi	x10,x10,1638 # 0x66666666
    800010ec:	00b51513          	slli	x10,x10,0xb
    800010f0:	33350513          	addi	x10,x10,819
    800010f4:	00b51513          	slli	x10,x10,0xb
    800010f8:	19950513          	addi	x10,x10,409
    800010fc:	00a51513          	slli	x10,x10,0xa
    80001100:	26550513          	addi	x10,x10,613
    80001104:	00f5159b          	slliw	x11,x10,0xf
    80001108:	2ab13423          	sd	x11,680(x2)
    8000110c:	333283b7          	lui	x7,0x33328
    80001110:	00b38463          	beq	x7,x11,0x80001118
    80001114:	f11fe06f          	jal	x0,0x80000024
    80001118:	00000537          	lui	x10,0x0
    8000111c:	00050513          	addi	x10,x10,0 # 0x0
    80001120:	00b51513          	slli	x10,x10,0xb
    80001124:	5a850513          	addi	x10,x10,1448
    80001128:	00b51513          	slli	x10,x10,0xb
    8000112c:	13c50513          	addi	x10,x10,316
    80001130:	00a51513          	slli	x10,x10,0xa
    80001134:	33250513          	addi	x10,x10,818
    80001138:	0035159b          	slliw	x11,x10,0x3
    8000113c:	2ab13823          	sd	x11,688(x2)
    80001140:	a827a3b7          	lui	x7,0xa827a
    80001144:	9903839b          	addiw	x7,x7,-1648 # 0xffffffffa8279990
    80001148:	00b38463          	beq	x7,x11,0x80001150
    8000114c:	ed9fe06f          	jal	x0,0x80000024
    80001150:	55555537          	lui	x10,0x55555
    80001154:	55550513          	addi	x10,x10,1365 # 0x55555555
    80001158:	00b51513          	slli	x10,x10,0xb
    8000115c:	2aa50513          	addi	x10,x10,682
    80001160:	00b51513          	slli	x10,x10,0xb
    80001164:	55550513          	addi	x10,x10,1365
    80001168:	00a51513          	slli	x10,x10,0xa
    8000116c:	15650513          	addi	x10,x10,342
    80001170:	0115159b          	slliw	x11,x10,0x11
    80001174:	2ab13c23          	sd	x11,696(x2)
    80001178:	aaac03b7          	lui	x7,0xaaac0
    8000117c:	00b38463          	beq	x7,x11,0x80001184
    80001180:	ea5fe06f          	jal	x0,0x80000024
    80001184:	aaaab537          	lui	x10,0xaaaab
    80001188:	aaa50513          	addi	x10,x10,-1366 # 0xffffffffaaaaaaaa
    8000118c:	00b51513          	slli	x10,x10,0xb
    80001190:	55550513          	addi	x10,x10,1365
    80001194:	00b51513          	slli	x10,x10,0xb
    80001198:	2aa50513          	addi	x10,x10,682
    8000119c:	00a51513          	slli	x10,x10,0xa
    800011a0:	2ab50513          	addi	x10,x10,683
    800011a4:	01d5159b          	slliw	x11,x10,0x1d
    800011a8:	2cb13023          	sd	x11,704(x2)
    800011ac:	600003b7          	lui	x7,0x60000
    800011b0:	00b38463          	beq	x7,x11,0x800011b8
    800011b4:	e71fe06f          	jal	x0,0x80000024
    800011b8:	33333537          	lui	x10,0x33333
    800011bc:	33350513          	addi	x10,x10,819 # 0x33333333
    800011c0:	00b51513          	slli	x10,x10,0xb
    800011c4:	19950513          	addi	x10,x10,409
    800011c8:	00b51513          	slli	x10,x10,0xb
    800011cc:	4cc50513          	addi	x10,x10,1228
    800011d0:	00a51513          	slli	x10,x10,0xa
    800011d4:	33450513          	addi	x10,x10,820
    800011d8:	0135159b          	slliw	x11,x10,0x13
    800011dc:	2cb13423          	sd	x11,712(x2)
    800011e0:	99a003b7          	lui	x7,0x99a00
    800011e4:	00b38463          	beq	x7,x11,0x800011ec
    800011e8:	e3dfe06f          	jal	x0,0x80000024
    800011ec:	66666537          	lui	x10,0x66666
    800011f0:	66650513          	addi	x10,x10,1638 # 0x66666666
    800011f4:	00b51513          	slli	x10,x10,0xb
    800011f8:	33350513          	addi	x10,x10,819
    800011fc:	00b51513          	slli	x10,x10,0xb
    80001200:	19950513          	addi	x10,x10,409
    80001204:	00a51513          	slli	x10,x10,0xa
    80001208:	26750513          	addi	x10,x10,615
    8000120c:	0005159b          	slliw	x11,x10,0x0
    80001210:	2cb13823          	sd	x11,720(x2)
    80001214:	666663b7          	lui	x7,0x66666
    80001218:	6673839b          	addiw	x7,x7,1639 # 0x66666667
    8000121c:	00b38463          	beq	x7,x11,0x80001224
    80001220:	e05fe06f          	jal	x0,0x80000024
    80001224:	00000537          	lui	x10,0x0
    80001228:	fff50513          	addi	x10,x10,-1 # 0xffffffffffffffff
    8000122c:	00b51513          	slli	x10,x10,0xb
    80001230:	25750513          	addi	x10,x10,599
    80001234:	00b51513          	slli	x10,x10,0xb
    80001238:	6c350513          	addi	x10,x10,1731
    8000123c:	00a51513          	slli	x10,x10,0xa
    80001240:	0ce50513          	addi	x10,x10,206
    80001244:	0015159b          	slliw	x11,x10,0x1
    80001248:	2cb13c23          	sd	x11,728(x2)
    8000124c:	95f623b7          	lui	x7,0x95f62
    80001250:	99c3839b          	addiw	x7,x7,-1636 # 0xffffffff95f6199c
    80001254:	00b38463          	beq	x7,x11,0x8000125c
    80001258:	dcdfe06f          	jal	x0,0x80000024
    8000125c:	00000537          	lui	x10,0x0
    80001260:	00050513          	addi	x10,x10,0 # 0x0
    80001264:	00b51513          	slli	x10,x10,0xb
    80001268:	5a850513          	addi	x10,x10,1448
    8000126c:	00b51513          	slli	x10,x10,0xb
    80001270:	13c50513          	addi	x10,x10,316
    80001274:	00a51513          	slli	x10,x10,0xa
    80001278:	33450513          	addi	x10,x10,820
    8000127c:	00a5159b          	slliw	x11,x10,0xa
    80001280:	2eb13023          	sd	x11,736(x2)
    80001284:	13ccd3b7          	lui	x7,0x13ccd
    80001288:	00b38463          	beq	x7,x11,0x80001290
    8000128c:	d99fe06f          	jal	x0,0x80000024
    80001290:	00100513          	addi	x10,x0,1
    80001294:	01051513          	slli	x10,x10,0x10
    80001298:	fff54513          	xori	x10,x10,-1
    8000129c:	01d5159b          	slliw	x11,x10,0x1d
    800012a0:	2eb13423          	sd	x11,744(x2)
    800012a4:	e00003b7          	lui	x7,0xe0000
    800012a8:	00b38463          	beq	x7,x11,0x800012b0
    800012ac:	d79fe06f          	jal	x0,0x80000024
    800012b0:	00100513          	addi	x10,x0,1
    800012b4:	01151513          	slli	x10,x10,0x11
    800012b8:	fff54513          	xori	x10,x10,-1
    800012bc:	01e5159b          	slliw	x11,x10,0x1e
    800012c0:	2eb13823          	sd	x11,752(x2)
    800012c4:	c00003b7          	lui	x7,0xc0000
    800012c8:	00b38463          	beq	x7,x11,0x800012d0
    800012cc:	d59fe06f          	jal	x0,0x80000024
    800012d0:	00100513          	addi	x10,x0,1
    800012d4:	01351513          	slli	x10,x10,0x13
    800012d8:	fff54513          	xori	x10,x10,-1
    800012dc:	0065159b          	slliw	x11,x10,0x6
    800012e0:	2eb13c23          	sd	x11,760(x2)
    800012e4:	fe0003b7          	lui	x7,0xfe000
    800012e8:	fc03839b          	addiw	x7,x7,-64 # 0xfffffffffdffffc0
    800012ec:	00b38463          	beq	x7,x11,0x800012f4
    800012f0:	d35fe06f          	jal	x0,0x80000024
    800012f4:	00100513          	addi	x10,x0,1
    800012f8:	01451513          	slli	x10,x10,0x14
    800012fc:	fff54513          	xori	x10,x10,-1
    80001300:	00d5159b          	slliw	x11,x10,0xd
    80001304:	30b13023          	sd	x11,768(x2)
    80001308:	ffffe3b7          	lui	x7,0xffffe
    8000130c:	00b38463          	beq	x7,x11,0x80001314
    80001310:	d15fe06f          	jal	x0,0x80000024
    80001314:	00100513          	addi	x10,x0,1
    80001318:	01551513          	slli	x10,x10,0x15
    8000131c:	fff54513          	xori	x10,x10,-1
    80001320:	01b5159b          	slliw	x11,x10,0x1b
    80001324:	30b13423          	sd	x11,776(x2)
    80001328:	f80003b7          	lui	x7,0xf8000
    8000132c:	00b38463          	beq	x7,x11,0x80001334
    80001330:	cf5fe06f          	jal	x0,0x80000024
    80001334:	00100513          	addi	x10,x0,1
    80001338:	01651513          	slli	x10,x10,0x16
    8000133c:	fff54513          	xori	x10,x10,-1
    80001340:	0175159b          	slliw	x11,x10,0x17
    80001344:	30b13823          	sd	x11,784(x2)
    80001348:	ff8003b7          	lui	x7,0xff800
    8000134c:	00b38463          	beq	x7,x11,0x80001354
    80001350:	cd5fe06f          	jal	x0,0x80000024
    80001354:	00100513          	addi	x10,x0,1
    80001358:	01751513          	slli	x10,x10,0x17
    8000135c:	fff54513          	xori	x10,x10,-1
    80001360:	0045159b          	slliw	x11,x10,0x4
    80001364:	30b13c23          	sd	x11,792(x2)
    80001368:	f80003b7          	lui	x7,0xf8000
    8000136c:	ff03839b          	addiw	x7,x7,-16 # 0xfffffffff7fffff0
    80001370:	00b38463          	beq	x7,x11,0x80001378
    80001374:	cb1fe06f          	jal	x0,0x80000024
    80001378:	00100513          	addi	x10,x0,1
    8000137c:	01851513          	slli	x10,x10,0x18
    80001380:	fff54513          	xori	x10,x10,-1
    80001384:	00a5159b          	slliw	x11,x10,0xa
    80001388:	32b13023          	sd	x11,800(x2)
    8000138c:	c0000393          	addi	x7,x0,-1024
    80001390:	00b38463          	beq	x7,x11,0x80001398
    80001394:	c91fe06f          	jal	x0,0x80000024
    80001398:	00100513          	addi	x10,x0,1
    8000139c:	01951513          	slli	x10,x10,0x19
    800013a0:	fff54513          	xori	x10,x10,-1
    800013a4:	01b5159b          	slliw	x11,x10,0x1b
    800013a8:	32b13423          	sd	x11,808(x2)
    800013ac:	f80003b7          	lui	x7,0xf8000
    800013b0:	00b38463          	beq	x7,x11,0x800013b8
    800013b4:	c71fe06f          	jal	x0,0x80000024
    800013b8:	00100513          	addi	x10,x0,1
    800013bc:	01a51513          	slli	x10,x10,0x1a
    800013c0:	fff54513          	xori	x10,x10,-1
    800013c4:	00c5159b          	slliw	x11,x10,0xc
    800013c8:	32b13823          	sd	x11,816(x2)
    800013cc:	fffff3b7          	lui	x7,0xfffff
    800013d0:	00b38463          	beq	x7,x11,0x800013d8
    800013d4:	c51fe06f          	jal	x0,0x80000024
    800013d8:	00100513          	addi	x10,x0,1
    800013dc:	01b51513          	slli	x10,x10,0x1b
    800013e0:	fff54513          	xori	x10,x10,-1
    800013e4:	00c5159b          	slliw	x11,x10,0xc
    800013e8:	32b13c23          	sd	x11,824(x2)
    800013ec:	fffff3b7          	lui	x7,0xfffff
    800013f0:	00b38463          	beq	x7,x11,0x800013f8
    800013f4:	c31fe06f          	jal	x0,0x80000024
    800013f8:	00100513          	addi	x10,x0,1
    800013fc:	01c51513          	slli	x10,x10,0x1c
    80001400:	fff54513          	xori	x10,x10,-1
    80001404:	00f5159b          	slliw	x11,x10,0xf
    80001408:	34b13023          	sd	x11,832(x2)
    8000140c:	ffff83b7          	lui	x7,0xffff8
    80001410:	00b38463          	beq	x7,x11,0x80001418
    80001414:	c11fe06f          	jal	x0,0x80000024
    80001418:	00100513          	addi	x10,x0,1
    8000141c:	01d51513          	slli	x10,x10,0x1d
    80001420:	fff54513          	xori	x10,x10,-1
    80001424:	0015159b          	slliw	x11,x10,0x1
    80001428:	34b13423          	sd	x11,840(x2)
    8000142c:	c00003b7          	lui	x7,0xc0000
    80001430:	ffe3839b          	addiw	x7,x7,-2 # 0xffffffffbffffffe
    80001434:	00b38463          	beq	x7,x11,0x8000143c
    80001438:	bedfe06f          	jal	x0,0x80000024
    8000143c:	00100513          	addi	x10,x0,1
    80001440:	01e51513          	slli	x10,x10,0x1e
    80001444:	fff54513          	xori	x10,x10,-1
    80001448:	0105159b          	slliw	x11,x10,0x10
    8000144c:	34b13823          	sd	x11,848(x2)
    80001450:	ffff03b7          	lui	x7,0xffff0
    80001454:	00b38463          	beq	x7,x11,0x8000145c
    80001458:	bcdfe06f          	jal	x0,0x80000024
    8000145c:	00100513          	addi	x10,x0,1
    80001460:	01f51513          	slli	x10,x10,0x1f
    80001464:	fff54513          	xori	x10,x10,-1
    80001468:	01b5159b          	slliw	x11,x10,0x1b
    8000146c:	34b13c23          	sd	x11,856(x2)
    80001470:	f80003b7          	lui	x7,0xf8000
    80001474:	00b38463          	beq	x7,x11,0x8000147c
    80001478:	badfe06f          	jal	x0,0x80000024
    8000147c:	00100513          	addi	x10,x0,1
    80001480:	02151513          	slli	x10,x10,0x21
    80001484:	fff54513          	xori	x10,x10,-1
    80001488:	0135159b          	slliw	x11,x10,0x13
    8000148c:	36b13023          	sd	x11,864(x2)
    80001490:	fff803b7          	lui	x7,0xfff80
    80001494:	00b38463          	beq	x7,x11,0x8000149c
    80001498:	b8dfe06f          	jal	x0,0x80000024
    8000149c:	00100513          	addi	x10,x0,1
    800014a0:	02251513          	slli	x10,x10,0x22
    800014a4:	fff54513          	xori	x10,x10,-1
    800014a8:	0125159b          	slliw	x11,x10,0x12
    800014ac:	36b13423          	sd	x11,872(x2)
    800014b0:	fffc03b7          	lui	x7,0xfffc0
    800014b4:	00b38463          	beq	x7,x11,0x800014bc
    800014b8:	b6dfe06f          	jal	x0,0x80000024
    800014bc:	00100513          	addi	x10,x0,1
    800014c0:	02351513          	slli	x10,x10,0x23
    800014c4:	fff54513          	xori	x10,x10,-1
    800014c8:	00b5159b          	slliw	x11,x10,0xb
    800014cc:	36b13823          	sd	x11,880(x2)
    800014d0:	80000393          	addi	x7,x0,-2048
    800014d4:	00b38463          	beq	x7,x11,0x800014dc
    800014d8:	b4dfe06f          	jal	x0,0x80000024
    800014dc:	00100513          	addi	x10,x0,1
    800014e0:	02451513          	slli	x10,x10,0x24
    800014e4:	fff54513          	xori	x10,x10,-1
    800014e8:	0035159b          	slliw	x11,x10,0x3
    800014ec:	36b13c23          	sd	x11,888(x2)
    800014f0:	ff800393          	addi	x7,x0,-8
    800014f4:	00b38463          	beq	x7,x11,0x800014fc
    800014f8:	b2dfe06f          	jal	x0,0x80000024
    800014fc:	00100513          	addi	x10,x0,1
    80001500:	02551513          	slli	x10,x10,0x25
    80001504:	fff54513          	xori	x10,x10,-1
    80001508:	00c5159b          	slliw	x11,x10,0xc
    8000150c:	38b13023          	sd	x11,896(x2)
    80001510:	fffff3b7          	lui	x7,0xfffff
    80001514:	00b38463          	beq	x7,x11,0x8000151c
    80001518:	b0dfe06f          	jal	x0,0x80000024
    8000151c:	00100513          	addi	x10,x0,1
    80001520:	02651513          	slli	x10,x10,0x26
    80001524:	fff54513          	xori	x10,x10,-1
    80001528:	0045159b          	slliw	x11,x10,0x4
    8000152c:	38b13423          	sd	x11,904(x2)
    80001530:	ff000393          	addi	x7,x0,-16
    80001534:	00b38463          	beq	x7,x11,0x8000153c
    80001538:	aedfe06f          	jal	x0,0x80000024
    8000153c:	00100513          	addi	x10,x0,1
    80001540:	02751513          	slli	x10,x10,0x27
    80001544:	fff54513          	xori	x10,x10,-1
    80001548:	0105159b          	slliw	x11,x10,0x10
    8000154c:	38b13823          	sd	x11,912(x2)
    80001550:	ffff03b7          	lui	x7,0xffff0
    80001554:	00b38463          	beq	x7,x11,0x8000155c
    80001558:	acdfe06f          	jal	x0,0x80000024
    8000155c:	00100513          	addi	x10,x0,1
    80001560:	02851513          	slli	x10,x10,0x28
    80001564:	fff54513          	xori	x10,x10,-1
    80001568:	0075159b          	slliw	x11,x10,0x7
    8000156c:	38b13c23          	sd	x11,920(x2)
    80001570:	f8000393          	addi	x7,x0,-128
    80001574:	00b38463          	beq	x7,x11,0x8000157c
    80001578:	aadfe06f          	jal	x0,0x80000024
    8000157c:	00100513          	addi	x10,x0,1
    80001580:	02951513          	slli	x10,x10,0x29
    80001584:	fff54513          	xori	x10,x10,-1
    80001588:	01f5159b          	slliw	x11,x10,0x1f
    8000158c:	3ab13023          	sd	x11,928(x2)
    80001590:	800003b7          	lui	x7,0x80000
    80001594:	00b38463          	beq	x7,x11,0x8000159c
    80001598:	a8dfe06f          	jal	x0,0x80000024
    8000159c:	00100513          	addi	x10,x0,1
    800015a0:	02a51513          	slli	x10,x10,0x2a
    800015a4:	fff54513          	xori	x10,x10,-1
    800015a8:	0115159b          	slliw	x11,x10,0x11
    800015ac:	3ab13423          	sd	x11,936(x2)
    800015b0:	fffe03b7          	lui	x7,0xfffe0
    800015b4:	00b38463          	beq	x7,x11,0x800015bc
    800015b8:	a6dfe06f          	jal	x0,0x80000024
    800015bc:	00100513          	addi	x10,x0,1
    800015c0:	02b51513          	slli	x10,x10,0x2b
    800015c4:	fff54513          	xori	x10,x10,-1
    800015c8:	0175159b          	slliw	x11,x10,0x17
    800015cc:	3ab13823          	sd	x11,944(x2)
    800015d0:	ff8003b7          	lui	x7,0xff800
    800015d4:	00b38463          	beq	x7,x11,0x800015dc
    800015d8:	a4dfe06f          	jal	x0,0x80000024
    800015dc:	00100513          	addi	x10,x0,1
    800015e0:	02c51513          	slli	x10,x10,0x2c
    800015e4:	fff54513          	xori	x10,x10,-1
    800015e8:	0095159b          	slliw	x11,x10,0x9
    800015ec:	3ab13c23          	sd	x11,952(x2)
    800015f0:	e0000393          	addi	x7,x0,-512
    800015f4:	00b38463          	beq	x7,x11,0x800015fc
    800015f8:	a2dfe06f          	jal	x0,0x80000024
    800015fc:	00100513          	addi	x10,x0,1
    80001600:	02d51513          	slli	x10,x10,0x2d
    80001604:	fff54513          	xori	x10,x10,-1
    80001608:	0015159b          	slliw	x11,x10,0x1
    8000160c:	3cb13023          	sd	x11,960(x2)
    80001610:	ffe00393          	addi	x7,x0,-2
    80001614:	00b38463          	beq	x7,x11,0x8000161c
    80001618:	a0dfe06f          	jal	x0,0x80000024
    8000161c:	00100513          	addi	x10,x0,1
    80001620:	02e51513          	slli	x10,x10,0x2e
    80001624:	fff54513          	xori	x10,x10,-1
    80001628:	0005159b          	slliw	x11,x10,0x0
    8000162c:	3cb13423          	sd	x11,968(x2)
    80001630:	fff00393          	addi	x7,x0,-1
    80001634:	00b38463          	beq	x7,x11,0x8000163c
    80001638:	9edfe06f          	jal	x0,0x80000024
    8000163c:	00100513          	addi	x10,x0,1
    80001640:	02f51513          	slli	x10,x10,0x2f
    80001644:	fff54513          	xori	x10,x10,-1
    80001648:	0035159b          	slliw	x11,x10,0x3
    8000164c:	3cb13823          	sd	x11,976(x2)
    80001650:	ff800393          	addi	x7,x0,-8
    80001654:	00b38463          	beq	x7,x11,0x8000165c
    80001658:	9cdfe06f          	jal	x0,0x80000024
    8000165c:	00100513          	addi	x10,x0,1
    80001660:	03051513          	slli	x10,x10,0x30
    80001664:	fff54513          	xori	x10,x10,-1
    80001668:	01e5159b          	slliw	x11,x10,0x1e
    8000166c:	3cb13c23          	sd	x11,984(x2)
    80001670:	c00003b7          	lui	x7,0xc0000
    80001674:	00b38463          	beq	x7,x11,0x8000167c
    80001678:	9adfe06f          	jal	x0,0x80000024
    8000167c:	00100513          	addi	x10,x0,1
    80001680:	03151513          	slli	x10,x10,0x31
    80001684:	fff54513          	xori	x10,x10,-1
    80001688:	01b5159b          	slliw	x11,x10,0x1b
    8000168c:	3eb13023          	sd	x11,992(x2)
    80001690:	f80003b7          	lui	x7,0xf8000
    80001694:	00b38463          	beq	x7,x11,0x8000169c
    80001698:	98dfe06f          	jal	x0,0x80000024
    8000169c:	00100513          	addi	x10,x0,1
    800016a0:	03251513          	slli	x10,x10,0x32
    800016a4:	fff54513          	xori	x10,x10,-1
    800016a8:	00b5159b          	slliw	x11,x10,0xb
    800016ac:	3eb13423          	sd	x11,1000(x2)
    800016b0:	80000393          	addi	x7,x0,-2048
    800016b4:	00b38463          	beq	x7,x11,0x800016bc
    800016b8:	96dfe06f          	jal	x0,0x80000024
    800016bc:	00100513          	addi	x10,x0,1
    800016c0:	03351513          	slli	x10,x10,0x33
    800016c4:	fff54513          	xori	x10,x10,-1
    800016c8:	0115159b          	slliw	x11,x10,0x11
    800016cc:	3eb13823          	sd	x11,1008(x2)
    800016d0:	fffe03b7          	lui	x7,0xfffe0
    800016d4:	00b38463          	beq	x7,x11,0x800016dc
    800016d8:	94dfe06f          	jal	x0,0x80000024
    800016dc:	00400513          	addi	x10,x0,4
    800016e0:	0005159b          	slliw	x11,x10,0x0
    800016e4:	3eb13c23          	sd	x11,1016(x2)
    800016e8:	00400393          	addi	x7,x0,4
    800016ec:	00b38463          	beq	x7,x11,0x800016f4
    800016f0:	935fe06f          	jal	x0,0x80000024
    800016f4:	00100513          	addi	x10,x0,1
    800016f8:	00d51513          	slli	x10,x10,0xd
    800016fc:	0015159b          	slliw	x11,x10,0x1
    80001700:	40b13023          	sd	x11,1024(x2)
    80001704:	000043b7          	lui	x7,0x4
    80001708:	00b38463          	beq	x7,x11,0x80001710
    8000170c:	919fe06f          	jal	x0,0x80000024
    80001710:	0380006f          	jal	x0,0x80001748
    80001714:	1f813483          	ld	x9,504(x2)
    80001718:	20013303          	ld	x6,512(x2)
    8000171c:	00930333          	add	x6,x6,x9
    80001720:	00000337          	lui	x6,0x0
    80001724:	00030313          	addi	x6,x6,0 # 0x0
    80001728:	00b31313          	slli	x6,x6,0xb
    8000172c:	5d630313          	addi	x6,x6,1494
    80001730:	00b31313          	slli	x6,x6,0xb
    80001734:	43630313          	addi	x6,x6,1078
    80001738:	00a31313          	slli	x6,x6,0xa
    8000173c:	2d030313          	addi	x6,x6,720
    80001740:	fe64be23          	sd	x6,-4(x9)
    80001744:	0040006f          	jal	x0,0x80001748
    80001748:	00000513          	addi	x10,x0,0
    8000174c:	00c0006f          	jal	x0,0x80001758
	...
    80001758:	00050513          	addi	x10,x10,0
    8000175c:	00100073          	ebreak
    80001760:	0000006f          	jal	x0,0x80001760
    80001764:	ff010113          	addi	x2,x2,-16
    80001768:	00000517          	auipc	x10,0x0
    8000176c:	02050513          	addi	x10,x10,32 # 0x80001788
    80001770:	00113423          	sd	x1,8(x2)
    80001774:	89dfe0ef          	jal	x1,0x80000010
    80001778:	00050513          	addi	x10,x10,0
    8000177c:	00100073          	ebreak
    80001780:	0000006f          	jal	x0,0x80001780
	...
    80002000:	cafe                	c.swsp	x31,84(x2)
    80002002:	babe                	c.fsdsp	f15,368(x2)
    80002004:	cafe                	c.swsp	x31,84(x2)
    80002006:	babe                	c.fsdsp	f15,368(x2)
    80002008:	cafe                	c.swsp	x31,84(x2)
    8000200a:	babe                	c.fsdsp	f15,368(x2)
    8000200c:	cafe                	c.swsp	x31,84(x2)
    8000200e:	babe                	c.fsdsp	f15,368(x2)
    80002010:	deadbeef          	jal	x29,0x7ffdd5fa
    80002014:	deadbeef          	jal	x29,0x7ffdd5fe
	...
    80003000:	b281                	c.j	0x80002940
    80003002:	e7d4                	c.sd	x13,136(x15)
    80003004:	a309                	c.j	0x80003506
    80003006:	6f5c                	c.ld	x15,152(x14)
    80003008:	deadbeef          	jal	x29,0x7ffde5f2
    8000300c:	deadbeef          	jal	x29,0x7ffde5f6
    80003010:	deadbeef          	jal	x29,0x7ffde5fa
    80003014:	deadbeef          	jal	x29,0x7ffde5fe
    80003018:	deadbeef          	jal	x29,0x7ffde602
    8000301c:	deadbeef          	jal	x29,0x7ffde606
    80003020:	deadbeef          	jal	x29,0x7ffde60a
    80003024:	deadbeef          	jal	x29,0x7ffde60e
    80003028:	deadbeef          	jal	x29,0x7ffde612
    8000302c:	deadbeef          	jal	x29,0x7ffde616
    80003030:	deadbeef          	jal	x29,0x7ffde61a
    80003034:	deadbeef          	jal	x29,0x7ffde61e
    80003038:	deadbeef          	jal	x29,0x7ffde622
    8000303c:	deadbeef          	jal	x29,0x7ffde626
    80003040:	deadbeef          	jal	x29,0x7ffde62a
    80003044:	deadbeef          	jal	x29,0x7ffde62e
    80003048:	deadbeef          	jal	x29,0x7ffde632
    8000304c:	deadbeef          	jal	x29,0x7ffde636
    80003050:	deadbeef          	jal	x29,0x7ffde63a
    80003054:	deadbeef          	jal	x29,0x7ffde63e
    80003058:	deadbeef          	jal	x29,0x7ffde642
    8000305c:	deadbeef          	jal	x29,0x7ffde646
    80003060:	deadbeef          	jal	x29,0x7ffde64a
    80003064:	deadbeef          	jal	x29,0x7ffde64e
    80003068:	deadbeef          	jal	x29,0x7ffde652
    8000306c:	deadbeef          	jal	x29,0x7ffde656
    80003070:	deadbeef          	jal	x29,0x7ffde65a
    80003074:	deadbeef          	jal	x29,0x7ffde65e
    80003078:	deadbeef          	jal	x29,0x7ffde662
    8000307c:	deadbeef          	jal	x29,0x7ffde666
    80003080:	deadbeef          	jal	x29,0x7ffde66a
    80003084:	deadbeef          	jal	x29,0x7ffde66e
    80003088:	deadbeef          	jal	x29,0x7ffde672
    8000308c:	deadbeef          	jal	x29,0x7ffde676
    80003090:	deadbeef          	jal	x29,0x7ffde67a
    80003094:	deadbeef          	jal	x29,0x7ffde67e
    80003098:	deadbeef          	jal	x29,0x7ffde682
    8000309c:	deadbeef          	jal	x29,0x7ffde686
    800030a0:	deadbeef          	jal	x29,0x7ffde68a
    800030a4:	deadbeef          	jal	x29,0x7ffde68e
    800030a8:	deadbeef          	jal	x29,0x7ffde692
    800030ac:	deadbeef          	jal	x29,0x7ffde696
    800030b0:	deadbeef          	jal	x29,0x7ffde69a
    800030b4:	deadbeef          	jal	x29,0x7ffde69e
    800030b8:	deadbeef          	jal	x29,0x7ffde6a2
    800030bc:	deadbeef          	jal	x29,0x7ffde6a6
    800030c0:	deadbeef          	jal	x29,0x7ffde6aa
    800030c4:	deadbeef          	jal	x29,0x7ffde6ae
    800030c8:	deadbeef          	jal	x29,0x7ffde6b2
    800030cc:	deadbeef          	jal	x29,0x7ffde6b6
    800030d0:	deadbeef          	jal	x29,0x7ffde6ba
    800030d4:	deadbeef          	jal	x29,0x7ffde6be
    800030d8:	deadbeef          	jal	x29,0x7ffde6c2
    800030dc:	deadbeef          	jal	x29,0x7ffde6c6
    800030e0:	deadbeef          	jal	x29,0x7ffde6ca
    800030e4:	deadbeef          	jal	x29,0x7ffde6ce
    800030e8:	deadbeef          	jal	x29,0x7ffde6d2
    800030ec:	deadbeef          	jal	x29,0x7ffde6d6
    800030f0:	deadbeef          	jal	x29,0x7ffde6da
    800030f4:	deadbeef          	jal	x29,0x7ffde6de
    800030f8:	deadbeef          	jal	x29,0x7ffde6e2
    800030fc:	deadbeef          	jal	x29,0x7ffde6e6
    80003100:	deadbeef          	jal	x29,0x7ffde6ea
    80003104:	deadbeef          	jal	x29,0x7ffde6ee
    80003108:	deadbeef          	jal	x29,0x7ffde6f2
    8000310c:	deadbeef          	jal	x29,0x7ffde6f6
    80003110:	deadbeef          	jal	x29,0x7ffde6fa
    80003114:	deadbeef          	jal	x29,0x7ffde6fe
    80003118:	deadbeef          	jal	x29,0x7ffde702
    8000311c:	deadbeef          	jal	x29,0x7ffde706
    80003120:	deadbeef          	jal	x29,0x7ffde70a
    80003124:	deadbeef          	jal	x29,0x7ffde70e
    80003128:	deadbeef          	jal	x29,0x7ffde712
    8000312c:	deadbeef          	jal	x29,0x7ffde716
    80003130:	deadbeef          	jal	x29,0x7ffde71a
    80003134:	deadbeef          	jal	x29,0x7ffde71e
    80003138:	deadbeef          	jal	x29,0x7ffde722
    8000313c:	deadbeef          	jal	x29,0x7ffde726
    80003140:	deadbeef          	jal	x29,0x7ffde72a
    80003144:	deadbeef          	jal	x29,0x7ffde72e
    80003148:	deadbeef          	jal	x29,0x7ffde732
    8000314c:	deadbeef          	jal	x29,0x7ffde736
    80003150:	deadbeef          	jal	x29,0x7ffde73a
    80003154:	deadbeef          	jal	x29,0x7ffde73e
    80003158:	deadbeef          	jal	x29,0x7ffde742
    8000315c:	deadbeef          	jal	x29,0x7ffde746
    80003160:	deadbeef          	jal	x29,0x7ffde74a
    80003164:	deadbeef          	jal	x29,0x7ffde74e
    80003168:	deadbeef          	jal	x29,0x7ffde752
    8000316c:	deadbeef          	jal	x29,0x7ffde756
    80003170:	deadbeef          	jal	x29,0x7ffde75a
    80003174:	deadbeef          	jal	x29,0x7ffde75e
    80003178:	deadbeef          	jal	x29,0x7ffde762
    8000317c:	deadbeef          	jal	x29,0x7ffde766
    80003180:	deadbeef          	jal	x29,0x7ffde76a
    80003184:	deadbeef          	jal	x29,0x7ffde76e
    80003188:	deadbeef          	jal	x29,0x7ffde772
    8000318c:	deadbeef          	jal	x29,0x7ffde776
    80003190:	deadbeef          	jal	x29,0x7ffde77a
    80003194:	deadbeef          	jal	x29,0x7ffde77e
    80003198:	deadbeef          	jal	x29,0x7ffde782
    8000319c:	deadbeef          	jal	x29,0x7ffde786
    800031a0:	deadbeef          	jal	x29,0x7ffde78a
    800031a4:	deadbeef          	jal	x29,0x7ffde78e
    800031a8:	deadbeef          	jal	x29,0x7ffde792
    800031ac:	deadbeef          	jal	x29,0x7ffde796
    800031b0:	deadbeef          	jal	x29,0x7ffde79a
    800031b4:	deadbeef          	jal	x29,0x7ffde79e
    800031b8:	deadbeef          	jal	x29,0x7ffde7a2
    800031bc:	deadbeef          	jal	x29,0x7ffde7a6
    800031c0:	deadbeef          	jal	x29,0x7ffde7aa
    800031c4:	deadbeef          	jal	x29,0x7ffde7ae
    800031c8:	deadbeef          	jal	x29,0x7ffde7b2
    800031cc:	deadbeef          	jal	x29,0x7ffde7b6
    800031d0:	deadbeef          	jal	x29,0x7ffde7ba
    800031d4:	deadbeef          	jal	x29,0x7ffde7be
    800031d8:	deadbeef          	jal	x29,0x7ffde7c2
    800031dc:	deadbeef          	jal	x29,0x7ffde7c6
    800031e0:	deadbeef          	jal	x29,0x7ffde7ca
    800031e4:	deadbeef          	jal	x29,0x7ffde7ce
    800031e8:	deadbeef          	jal	x29,0x7ffde7d2
    800031ec:	deadbeef          	jal	x29,0x7ffde7d6
    800031f0:	deadbeef          	jal	x29,0x7ffde7da
    800031f4:	deadbeef          	jal	x29,0x7ffde7de
    800031f8:	deadbeef          	jal	x29,0x7ffde7e2
    800031fc:	deadbeef          	jal	x29,0x7ffde7e6
    80003200:	deadbeef          	jal	x29,0x7ffde7ea
    80003204:	deadbeef          	jal	x29,0x7ffde7ee
    80003208:	deadbeef          	jal	x29,0x7ffde7f2
    8000320c:	deadbeef          	jal	x29,0x7ffde7f6
    80003210:	deadbeef          	jal	x29,0x7ffde7fa
    80003214:	deadbeef          	jal	x29,0x7ffde7fe
    80003218:	deadbeef          	jal	x29,0x7ffde802
    8000321c:	deadbeef          	jal	x29,0x7ffde806
    80003220:	deadbeef          	jal	x29,0x7ffde80a
    80003224:	deadbeef          	jal	x29,0x7ffde80e
    80003228:	deadbeef          	jal	x29,0x7ffde812
    8000322c:	deadbeef          	jal	x29,0x7ffde816
    80003230:	deadbeef          	jal	x29,0x7ffde81a
    80003234:	deadbeef          	jal	x29,0x7ffde81e
    80003238:	deadbeef          	jal	x29,0x7ffde822
    8000323c:	deadbeef          	jal	x29,0x7ffde826
    80003240:	deadbeef          	jal	x29,0x7ffde82a
    80003244:	deadbeef          	jal	x29,0x7ffde82e
    80003248:	deadbeef          	jal	x29,0x7ffde832
    8000324c:	deadbeef          	jal	x29,0x7ffde836
    80003250:	deadbeef          	jal	x29,0x7ffde83a
    80003254:	deadbeef          	jal	x29,0x7ffde83e
    80003258:	deadbeef          	jal	x29,0x7ffde842
    8000325c:	deadbeef          	jal	x29,0x7ffde846
    80003260:	deadbeef          	jal	x29,0x7ffde84a
    80003264:	deadbeef          	jal	x29,0x7ffde84e
    80003268:	deadbeef          	jal	x29,0x7ffde852
    8000326c:	deadbeef          	jal	x29,0x7ffde856
    80003270:	deadbeef          	jal	x29,0x7ffde85a
    80003274:	deadbeef          	jal	x29,0x7ffde85e
    80003278:	deadbeef          	jal	x29,0x7ffde862
    8000327c:	deadbeef          	jal	x29,0x7ffde866
    80003280:	deadbeef          	jal	x29,0x7ffde86a
    80003284:	deadbeef          	jal	x29,0x7ffde86e
    80003288:	deadbeef          	jal	x29,0x7ffde872
    8000328c:	deadbeef          	jal	x29,0x7ffde876
    80003290:	deadbeef          	jal	x29,0x7ffde87a
    80003294:	deadbeef          	jal	x29,0x7ffde87e
    80003298:	deadbeef          	jal	x29,0x7ffde882
    8000329c:	deadbeef          	jal	x29,0x7ffde886
    800032a0:	deadbeef          	jal	x29,0x7ffde88a
    800032a4:	deadbeef          	jal	x29,0x7ffde88e
    800032a8:	deadbeef          	jal	x29,0x7ffde892
    800032ac:	deadbeef          	jal	x29,0x7ffde896
    800032b0:	deadbeef          	jal	x29,0x7ffde89a
    800032b4:	deadbeef          	jal	x29,0x7ffde89e
    800032b8:	deadbeef          	jal	x29,0x7ffde8a2
    800032bc:	deadbeef          	jal	x29,0x7ffde8a6
    800032c0:	deadbeef          	jal	x29,0x7ffde8aa
    800032c4:	deadbeef          	jal	x29,0x7ffde8ae
    800032c8:	deadbeef          	jal	x29,0x7ffde8b2
    800032cc:	deadbeef          	jal	x29,0x7ffde8b6
    800032d0:	deadbeef          	jal	x29,0x7ffde8ba
    800032d4:	deadbeef          	jal	x29,0x7ffde8be
    800032d8:	deadbeef          	jal	x29,0x7ffde8c2
    800032dc:	deadbeef          	jal	x29,0x7ffde8c6
    800032e0:	deadbeef          	jal	x29,0x7ffde8ca
    800032e4:	deadbeef          	jal	x29,0x7ffde8ce
    800032e8:	deadbeef          	jal	x29,0x7ffde8d2
    800032ec:	deadbeef          	jal	x29,0x7ffde8d6
    800032f0:	deadbeef          	jal	x29,0x7ffde8da
    800032f4:	deadbeef          	jal	x29,0x7ffde8de
    800032f8:	deadbeef          	jal	x29,0x7ffde8e2
    800032fc:	deadbeef          	jal	x29,0x7ffde8e6
    80003300:	deadbeef          	jal	x29,0x7ffde8ea
    80003304:	deadbeef          	jal	x29,0x7ffde8ee
    80003308:	deadbeef          	jal	x29,0x7ffde8f2
    8000330c:	deadbeef          	jal	x29,0x7ffde8f6
    80003310:	deadbeef          	jal	x29,0x7ffde8fa
    80003314:	deadbeef          	jal	x29,0x7ffde8fe
    80003318:	deadbeef          	jal	x29,0x7ffde902
    8000331c:	deadbeef          	jal	x29,0x7ffde906
    80003320:	deadbeef          	jal	x29,0x7ffde90a
    80003324:	deadbeef          	jal	x29,0x7ffde90e
    80003328:	deadbeef          	jal	x29,0x7ffde912
    8000332c:	deadbeef          	jal	x29,0x7ffde916
    80003330:	deadbeef          	jal	x29,0x7ffde91a
    80003334:	deadbeef          	jal	x29,0x7ffde91e
    80003338:	deadbeef          	jal	x29,0x7ffde922
    8000333c:	deadbeef          	jal	x29,0x7ffde926
    80003340:	deadbeef          	jal	x29,0x7ffde92a
    80003344:	deadbeef          	jal	x29,0x7ffde92e
    80003348:	deadbeef          	jal	x29,0x7ffde932
    8000334c:	deadbeef          	jal	x29,0x7ffde936
    80003350:	deadbeef          	jal	x29,0x7ffde93a
    80003354:	deadbeef          	jal	x29,0x7ffde93e
    80003358:	deadbeef          	jal	x29,0x7ffde942
    8000335c:	deadbeef          	jal	x29,0x7ffde946
    80003360:	deadbeef          	jal	x29,0x7ffde94a
    80003364:	deadbeef          	jal	x29,0x7ffde94e
    80003368:	deadbeef          	jal	x29,0x7ffde952
    8000336c:	deadbeef          	jal	x29,0x7ffde956
    80003370:	deadbeef          	jal	x29,0x7ffde95a
    80003374:	deadbeef          	jal	x29,0x7ffde95e
    80003378:	deadbeef          	jal	x29,0x7ffde962
    8000337c:	deadbeef          	jal	x29,0x7ffde966
    80003380:	deadbeef          	jal	x29,0x7ffde96a
    80003384:	deadbeef          	jal	x29,0x7ffde96e
    80003388:	deadbeef          	jal	x29,0x7ffde972
    8000338c:	deadbeef          	jal	x29,0x7ffde976
    80003390:	deadbeef          	jal	x29,0x7ffde97a
    80003394:	deadbeef          	jal	x29,0x7ffde97e
    80003398:	deadbeef          	jal	x29,0x7ffde982
    8000339c:	deadbeef          	jal	x29,0x7ffde986
    800033a0:	deadbeef          	jal	x29,0x7ffde98a
    800033a4:	deadbeef          	jal	x29,0x7ffde98e
    800033a8:	deadbeef          	jal	x29,0x7ffde992
    800033ac:	deadbeef          	jal	x29,0x7ffde996
    800033b0:	deadbeef          	jal	x29,0x7ffde99a
    800033b4:	deadbeef          	jal	x29,0x7ffde99e
    800033b8:	deadbeef          	jal	x29,0x7ffde9a2
    800033bc:	deadbeef          	jal	x29,0x7ffde9a6
    800033c0:	deadbeef          	jal	x29,0x7ffde9aa
    800033c4:	deadbeef          	jal	x29,0x7ffde9ae
    800033c8:	deadbeef          	jal	x29,0x7ffde9b2
    800033cc:	deadbeef          	jal	x29,0x7ffde9b6
    800033d0:	deadbeef          	jal	x29,0x7ffde9ba
    800033d4:	deadbeef          	jal	x29,0x7ffde9be
    800033d8:	deadbeef          	jal	x29,0x7ffde9c2
    800033dc:	deadbeef          	jal	x29,0x7ffde9c6
    800033e0:	deadbeef          	jal	x29,0x7ffde9ca
    800033e4:	deadbeef          	jal	x29,0x7ffde9ce
    800033e8:	deadbeef          	jal	x29,0x7ffde9d2
    800033ec:	deadbeef          	jal	x29,0x7ffde9d6
    800033f0:	deadbeef          	jal	x29,0x7ffde9da
    800033f4:	deadbeef          	jal	x29,0x7ffde9de
    800033f8:	deadbeef          	jal	x29,0x7ffde9e2
    800033fc:	deadbeef          	jal	x29,0x7ffde9e6
    80003400:	deadbeef          	jal	x29,0x7ffde9ea
    80003404:	deadbeef          	jal	x29,0x7ffde9ee
    80003408:	deadbeef          	jal	x29,0x7ffde9f2
    8000340c:	deadbeef          	jal	x29,0x7ffde9f6
    80003410:	deadbeef          	jal	x29,0x7ffde9fa
    80003414:	deadbeef          	jal	x29,0x7ffde9fe
    80003418:	deadbeef          	jal	x29,0x7ffdea02
    8000341c:	deadbeef          	jal	x29,0x7ffdea06
    80003420:	deadbeef          	jal	x29,0x7ffdea0a
    80003424:	deadbeef          	jal	x29,0x7ffdea0e
    80003428:	deadbeef          	jal	x29,0x7ffdea12
    8000342c:	deadbeef          	jal	x29,0x7ffdea16
    80003430:	deadbeef          	jal	x29,0x7ffdea1a
    80003434:	deadbeef          	jal	x29,0x7ffdea1e
    80003438:	deadbeef          	jal	x29,0x7ffdea22
    8000343c:	deadbeef          	jal	x29,0x7ffdea26
    80003440:	deadbeef          	jal	x29,0x7ffdea2a
    80003444:	deadbeef          	jal	x29,0x7ffdea2e
    80003448:	deadbeef          	jal	x29,0x7ffdea32
    8000344c:	deadbeef          	jal	x29,0x7ffdea36
    80003450:	deadbeef          	jal	x29,0x7ffdea3a
    80003454:	deadbeef          	jal	x29,0x7ffdea3e
    80003458:	deadbeef          	jal	x29,0x7ffdea42
    8000345c:	deadbeef          	jal	x29,0x7ffdea46
    80003460:	deadbeef          	jal	x29,0x7ffdea4a
    80003464:	deadbeef          	jal	x29,0x7ffdea4e
    80003468:	deadbeef          	jal	x29,0x7ffdea52
    8000346c:	deadbeef          	jal	x29,0x7ffdea56
    80003470:	deadbeef          	jal	x29,0x7ffdea5a
    80003474:	deadbeef          	jal	x29,0x7ffdea5e
    80003478:	deadbeef          	jal	x29,0x7ffdea62
    8000347c:	deadbeef          	jal	x29,0x7ffdea66
    80003480:	deadbeef          	jal	x29,0x7ffdea6a
    80003484:	deadbeef          	jal	x29,0x7ffdea6e
    80003488:	deadbeef          	jal	x29,0x7ffdea72
    8000348c:	deadbeef          	jal	x29,0x7ffdea76
    80003490:	deadbeef          	jal	x29,0x7ffdea7a
    80003494:	deadbeef          	jal	x29,0x7ffdea7e
    80003498:	deadbeef          	jal	x29,0x7ffdea82
    8000349c:	deadbeef          	jal	x29,0x7ffdea86
    800034a0:	deadbeef          	jal	x29,0x7ffdea8a
    800034a4:	deadbeef          	jal	x29,0x7ffdea8e
    800034a8:	deadbeef          	jal	x29,0x7ffdea92
    800034ac:	deadbeef          	jal	x29,0x7ffdea96
    800034b0:	deadbeef          	jal	x29,0x7ffdea9a
    800034b4:	deadbeef          	jal	x29,0x7ffdea9e
    800034b8:	b281                	c.j	0x80002df8
    800034ba:	e7d4                	c.sd	x13,136(x15)
    800034bc:	a309                	c.j	0x800039be
    800034be:	6f5c                	c.ld	x15,152(x14)
