
bin/riscv-arch-test/slli-riscv64-nemu.bin:     file format binary

Contents of section .data:
 80000000 13040000 17c10000 1301c1ff ef10101d  ................
 80000010 ef000003 13051000 ef10901b 13050000  ................
 80000020 67800000 13051000 ef10901a 67800000  g...........g...
 80000030 00000000 00000000 00000000 00000000  ................
 80000040 b7c0edfe 9380d0ea 9390b000 9380707f  ..............p.
 80000050 9390b000 9380f036 9390a000 9380d02a  .......6.......*
 80000060 37e176ff 130161f5 1311b100 1301b17f  7.v...a.........
 80000070 1311b100 1301715b 1311a100 13016135  ......q[......a5
 80000080 b771bb7f 9381b1fa 9391b100 9381d13f  .q.............?
 80000090 9391b100 9381b16d 9391a100 9381b13a  .......m.......:
 800000a0 37b2ddbf 1302527d 1312b200 1302e25f  7.....R}......._
 800000b0 1312b200 1302d276 1312a200 1302523d  .......v......R=
 800000c0 b7e2eedf 9382a2be 9392b200 9382f26f  ...............o
 800000d0 9392b200 9382623b 9392a200 9382a23e  ......b;.......>
 800000e0 3773f76f 130353df 1313b300 1303f337  7s.o..S........7
 800000f0 1313b300 1303b35d 1313a300 1303531f  .......]......S.
 80000100 b7b3fbb7 9383a36f 9393b300 9383f35b  .......o.......[
 80000110 9393b300 9383d36e 9393a300 9383a32f  .......n......./
 80000120 37e4fd5b 1304d4b7 1314b400 1304f42d  7..[...........-
 80000130 1314b400 13046477 1314a400 1304d437  ......dw.......7
 80000140 b7f4fead 9384e4db 9394b400 9384f456  ...............V
 80000150 9394b400 9384b47b 9394a400 9384e41b  .......{........
 80000160 3775ff56 1305f56d 1315b500 1305752b  7u.V...m......u+
 80000170 1315b500 1305d57d 1315a500 1305f52d  .......}.......-
 80000180 b7c57fab 9385f5b6 9395b500 9385b555  ...............U
 80000190 9395b500 9385e57e 9395a500 9385f536  .......~.......6
 800001a0 37e6bfd5 130676db 1316b600 1306d66a  7.....v........j
 800001b0 1316b600 1306767f 1316a600 1306761b  ......v.......v.
 800001c0 b7f6dfea 9386b6ed 9396b600 93866675  ..............fu
 800001d0 9396b600 9386b67f 9396a600 9386b62d  ...............-
 800001e0 37f76ff5 1307d776 1317b700 1307b77a  7.o....v.......z
 800001f0 1317b700 1307d73f 1317a700 1307d736  .......?.......6
 80000200 b707b8fa 938767bb 9397b700 9387577d  ......g.......W}
 80000210 9397b700 9387e75f 9397a700 9387673b  ......._......g;
 80000220 37085c7d 1308b8dd 1318b800 1308a83e  7.\}...........>
 80000230 1318b800 1308f86f 1318a800 1308b81d  .......o........
 80000240 b708aebe 9388d8ee 9398b800 9388585f  ..............X_
 80000250 9398b800 9388f837 9398a800 9388d82e  .......7........
 80000260 370957df 130969f7 1319b900 1309a96f  7.W...i........o
 80000270 1319b900 1309f95b 1319a900 13096937  .......[......i7
 80000280 b789ab6f 9389b9fb 9399b900 9389d937  ...o...........7
 80000290 9399b900 9389f92d 9399a900 9389b93b  .......-.......;
 800002a0 37cad5b7 130adafd 131aba00 130aea5b  7..............[
 800002b0 131aba00 130afa56 131aaa00 130ada3d  .......V.......=
 800002c0 b7eaeadb 938aeafe 939aba00 938afa6d  ...............m
 800002d0 939aba00 938a7a2b 939aaa00 938aea3e  ......z+.......>
 800002e0 377bf56d 130b7bff 131bbb00 130bfb36  7{.m..{........6
 800002f0 131bbb00 130bbb55 131bab00 130b7b3f  .......U......{?
 80000300 b7bbfab6 938bbb7f 939bbb00 938b7b5b  ..............{[
 80000310 939bbb00 938bdb6a 939bab00 938bbb3f  .......j.......?
 80000320 376c7ddb 130cdcbf 131cbc00 130cbc6d  7l}............m
 80000330 131cbc00 130c6c75 131cac00 130cdc3f  ......lu.......?
 80000340 b7bcbeed 938cecdf 939cbc00 938cdc76  ...............v
 80000350 939cbc00 938cbc7a 939cac00 938cec1f  .......z........
 80000360 375ddf76 130dfd6f 131dbd00 130d6d3b  7].v...o......m;
 80000370 131dbd00 130d5d7d 131dad00 130dfd2f  ......]}......./
 80000380 b7bd6fbb 938dfdb7 939dbd00 938dbd5d  ..o............]
 80000390 939dbd00 938dad3e 939dad00 938dfd37  .......>.......7
 800003a0 37deb7dd 130efe5b 131ebe00 130ede6e  7......[.......n
 800003b0 131ebe00 130e5e5f 131eae00 130efe1b  ......^_........
 800003c0 b7fedbee 938efead 939ebe00 938e6e77  ..............nw
 800003d0 939ebe00 938eae6f 939eae00 938efe2d  .......o.......-
 800003e0 37ff6df7 130fff56 131fbf00 130fbf7b  7.m....V.......{
 800003f0 131fbf00 130fdf37 131faf00 130fff16  .......7........
 80000400 b70fb7fb 938f7fab 939fbf00 938fdf7d  ...............}
 80000410 939fbf00 938fef5b 939faf00 938f7f2b  .......[.......+
 80000420 97310000 938181be 13000000 13000000  .1..............
 80000430 13000000 13000000 13000000 13000000  ................
 80000440 9302f0ef 9392f200 23b05100 b7887fff  ........#.Q.....
 80000450 63845800 6ff01fbd 13044000 9316e400  c.X.o.....@.....
 80000460 23b4d100 b7080100 6384d800 6ff09fbb  #.......c...o...
 80000470 930e70ff 939a0e00 23b85101 930870ff  ..p.....#.Q...p.
 80000480 63845801 6ff01fba 130e4000 13180e00  c.X.o.....@.....
 80000490 23bc0101 93084000 63840801 6ff09fb8  #.....@.c...o...
 800004a0 93071000 9397d701 93c7f7ff 1395f703  ................
 800004b0 23b0a102 9b08f0ff 9398f803 6384a800  #...........c...
 800004c0 6ff05fb6 93091000 93994903 1396f903  o._.......I.....
 800004d0 23b4c102 93080000 6384c800 6ff09fb4  #.......c...o...
 800004e0 130b2000 13142b00 23b88102 93088000  .. ...+.#.......
 800004f0 63848800 6ff01fb3 1303f0ff 1313f303  c...o...........
 80000500 9313b300 23bc7102 93080000 63847800  ....#.q.....c.x.
 80000510 6ff05fb1 930d0000 139cfd00 23b08105  o._.........#...
 80000520 93080000 63848801 6ff0dfaf 930bf0ff  ....c...o.......
 80000530 93db1b00 93957b00 23b4b104 930800f8  ......{.#.......
 80000540 6384b800 6ff01fae 13071000 9314b703  c...o...........
 80000550 23b89104 9b081000 9398b803 63849800  #...........c...
 80000560 6ff05fac 130d8000 1317fd02 23bce104  o._.........#...
 80000570 9b081000 93982803 6384e800 6ff09faa  ......(.c...o...
 80000580 93030001 1390e300 23b00106 93080000  ........#.......
 80000590 63840800 6ff01fa9 130f0002 13195f00  c...o........._.
 800005a0 23b42107 93080040 63842801 6ff09fa7  #.!....@c.(.o...
 800005b0 130c0004 131efc02 23b8c107 9b081000  ........#.......
 800005c0 93985803 6384c801 6ff0dfa5 13020008  ..X.c...o.......
 800005d0 93102201 23bc1106 b7080002 63841800  ..".#.......c...
 800005e0 6ff05fa4 13050010 931cd503 23b09109  o._.........#...
 800005f0 93080000 63849801 6ff0dfa2 13080020  ....c...o...... 
 80000600 9319f801 23b43109 9b081000 93988802  ....#.1.........
 80000610 63843801 6ff01fa1 13010040 931fa100  c.8.o......@....
 80000620 23b8f109 b7081000 6384f801 6ff09f9f  #.......c...o...
 80000630 13000000 13000000 13000000 13000000  ................
 80000640 97320000 938202a6 13000000 13000000  .2..............
 80000650 13000000 13000000 13000000 13000000  ................
 80000660 93001000 9390b000 1392f001 23b04200  ............#.B.
 80000670 9b031000 9393a302 63844300 6ff09f9a  ........c.C.o...
 80000680 93011000 9391c100 939e0100 23b4d201  ............#...
 80000690 b7130000 6384d301 6ff0df98 930c1000  ....c...o.......
 800006a0 939cdc00 1393ac00 23b86200 b7038000  ........#.b.....
 800006b0 63846300 6ff01f97 13061000 1316e600  c.c.o...........
 800006c0 931b9600 23bc7201 b7038000 63847301  ....#.r.....c.s.
 800006d0 6ff05f95 930a1000 939afa00 9391ca00  o._.............
 800006e0 23b03202 b7030008 63843300 6ff09f93  #.2.....c.3.o...
 800006f0 93041000 93940401 9398b403 23b41203  ............#...
 80000700 93030000 63841301 6ff0df91 93061000  ....c...o.......
 80000710 93961601 9397e600 23b8f202 9b031000  ........#.......
 80000720 9393f301 6384f300 6ff0df8f 93051000  ....c...o.......
 80000730 93952501 139b3501 23bc6203 9b031000  ..%...5.#.b.....
 80000740 93935302 63846301 6ff0df8d 130a1000  ..S.c.c.o.......
 80000750 131a3a01 131d7a00 23b0a205 b7030004  ..:...z.#.......
 80000760 6384a301 6ff01f8c 930f1000 939f4f01  c...o.........O.
 80000770 13912f01 23b42204 9b031000 93936302  ../.#.".......c.
 80000780 63842300 6ff01f8a 93081000 93985801  c.#.o.........X.
 80000790 139ac800 23b84205 9b031000 93931302  ....#.B.........
 800007a0 63844301 6ff01f88 13000000 931df001  c.C.o...........
 800007b0 23bcb205 93030000 6384b301 6ff09f86  #.......c...o...
 800007c0 13091000 13197901 131f9900 23b0e207  ......y.....#...
 800007d0 9b031000 93930302 6384e301 6ff09f84  ........c...o...
 800007e0 13051000 13158501 9315e500 23b4b206  ............#...
 800007f0 9b031000 93936302 6384b300 6ff09f82  ......c.c...o...
 80000800 13051000 13159501 93157500 23b8b206  ..........u.#...
 80000810 9b031000 93930302 6384b300 6ff09f80  ........c...o...
 80000820 13051000 1315a501 93150500 23bcb206  ............#...
 80000830 b7030004 6384b300 6ff0cffe 13051000  ....c...o.......
 80000840 1315b501 9315f503 23b0b208 93030000  ........#.......
 80000850 6384b300 6ff00ffd 13051000 1315c501  c...o...........
 80000860 93151501 23b4b208 9b031000 9393d302  ....#...........
 80000870 6384b300 6ff00ffb 13051000 1315d501  c...o...........
 80000880 9315a500 23b8b208 9b031000 93937302  ....#.........s.
 80000890 6384b300 6ff00ff9 13051000 1315e501  c...o...........
 800008a0 93151501 23bcb208 9b031000 9393f302  ....#...........
 800008b0 6384b300 6ff00ff7 13051000 1315f501  c...o...........
 800008c0 93158500 23b0b20a 9b031000 93937302  ....#.........s.
 800008d0 6384b300 6ff00ff5 13051000 13150502  c...o...........
 800008e0 9315a500 23b4b20a 9b031000 9393a302  ....#...........
 800008f0 6384b300 6ff00ff3 13051000 13151502  c...o...........
 80000900 93155501 23b8b20a 9b031000 93936303  ..U.#.........c.
 80000910 6384b300 6ff00ff1 13051000 13152502  c...o.........%.
 80000920 93157500 23bcb20a 9b031000 93939302  ..u.#...........
 80000930 6384b300 6ff00fef 13051000 13153502  c...o.........5.
 80000940 93157503 23b0b20c 93030000 6384b300  ..u.#.......c...
 80000950 6ff04fed 13051000 13154502 9315f500  o.O.......E.....
 80000960 23b4b20c 9b031000 93933303 6384b300  #.........3.c...
 80000970 6ff04feb 13051000 13155502 93155501  o.O.......U...U.
 80000980 23b8b20c 9b031000 9393a303 6384b300  #...........c...
 80000990 6ff04fe9 13051000 13156502 9315a502  o.O.......e.....
 800009a0 23bcb20c 93030000 6384b300 6ff08fe7  #.......c...o...
 800009b0 13051000 13157502 93153500 23b0b20e  ......u...5.#...
 800009c0 9b031000 9393a302 6384b300 6ff08fe5  ........c...o...
 800009d0 13051000 13158502 9315f503 23b4b20e  ............#...
 800009e0 93030000 6384b300 6ff0cfe3 13051000  ....c...o.......
 800009f0 13159502 93151501 23b8b20e 9b031000  ........#.......
 80000a00 9393a303 6384b300 6ff0cfe1 13051000  ....c...o.......
 80000a10 1315a502 93157500 23bcb20e 9b031000  ......u.#.......
 80000a20 93931303 6384b300 6ff0cfdf 13051000  ....c...o.......
 80000a30 1315b502 93153501 23b0b210 9b031000  ......5.#.......
 80000a40 9393e303 6384b300 6ff0cfdd 13051000  ....c...o.......
 80000a50 1315c502 9315f502 23b4b210 93030000  ........#.......
 80000a60 6384b300 6ff00fdc 13051000 1315d502  c...o...........
 80000a70 9315e503 23b8b210 93030000 6384b300  ....#.......c...
 80000a80 6ff04fda 13051000 1315e502 93159500  o.O.............
 80000a90 23bcb210 9b031000 93937303 6384b300  #.........s.c...
 80000aa0 6ff04fd8 13051000 1315f502 93155501  o.O...........U.
 80000ab0 23b0b212 93030000 6384b300 6ff08fd6  #.......c...o...
 80000ac0 13051000 13150503 93151500 23b4b212  ............#...
 80000ad0 9b031000 93931303 6384b300 6ff08fd4  ........c...o...
 80000ae0 13051000 13151503 93154500 23b8b212  ..........E.#...
 80000af0 9b031000 93935303 6384b300 6ff08fd2  ......S.c...o...
 80000b00 13051000 13152503 93151500 23bcb212  ......%.....#...
 80000b10 9b031000 93933303 6384b300 6ff08fd0  ......3.c...o...
 80000b20 13051000 13153503 93156500 23b0b214  ......5...e.#...
 80000b30 9b031000 93939303 6384b300 6ff08fce  ........c...o...
 80000b40 13051000 13155503 9315c500 23b4b214  ......U.....#...
 80000b50 93030000 6384b300 6ff0cfcc 13051000  ....c...o.......
 80000b60 13156503 9315f503 23b8b214 93030000  ..e.....#.......
 80000b70 6384b300 6ff00fcb 13051000 13157503  c...o.........u.
 80000b80 93152500 23bcb214 9b031000 93939303  ..%.#...........
 80000b90 6384b300 6ff00fc9 13051000 13158503  c...o...........
 80000ba0 9315f500 23b0b216 93030000 6384b300  ....#.......c...
 80000bb0 6ff04fc7 13051000 13159503 93155500  o.O...........U.
 80000bc0 23b4b216 9b031000 9393e303 6384b300  #...........c...
 80000bd0 6ff04fc5 13051000 1315a503 9315f502  o.O.............
 80000be0 23b8b216 93030000 6384b300 6ff08fc3  #.......c...o...
 80000bf0 13051000 1315b503 93153501 23bcb216  ..........5.#...
 80000c00 93030000 6384b300 6ff0cfc1 13051000  ....c...o.......
 80000c10 1315c503 93155501 23b0b218 93030000  ......U.#.......
 80000c20 6384b300 6ff00fc0 13051000 1315d503  c...o...........
 80000c30 93151500 23b4b218 9b031000 9393e303  ....#...........
 80000c40 6384b300 6ff00fbe 13051000 1315e503  c...o...........
 80000c50 9315b503 23b8b218 93030000 6384b300  ....#.......c...
 80000c60 6ff04fbc 1305e0ff 93157503 23bcb218  o.O.......u.#...
 80000c70 9b03f0ff 93938303 6384b300 6ff08fba  ........c...o...
 80000c80 1305d0ff 93153501 23b0b21a b703e8ff  ......5.#.......
 80000c90 6384b300 6ff00fb9 1305b0ff 9315b503  c...o...........
 80000ca0 23b4b21a 9b03b0ff 9393b303 6384b300  #...........c...
 80000cb0 6ff04fb7 1305f0fe 93152501 23b8b21a  o.O.......%.#...
 80000cc0 b703bcff 6384b300 6ff0cfb5 1305f0fd  ....c...o.......
 80000cd0 9315f503 23bcb21a 9b03f0ff 9393f303  ....#...........
 80000ce0 6384b300 6ff00fb4 1305f0fb 93153501  c...o.........5.
 80000cf0 23b0b21c b703f8fd 6384b300 6ff08fb2  #.......c...o...
 80000d00 1305f0f7 9315b503 23b4b21c 9b03f0ff  ........#.......
 80000d10 9393b303 6384b300 6ff0cfb0 1305f0df  ....c...o.......
 80000d20 93152501 23b8b21c b703fcf7 6384b300  ..%.#.......c...
 80000d30 6ff04faf 1305f0bf 9315e503 23bcb21c  o.O.........#...
 80000d40 9b03f0ff 9393e303 6384b300 6ff08fad  ........c...o...
 80000d50 13051000 1315b500 1345f5ff 93151500  .........E......
 80000d60 23b0b21e b7f3ffff 9b83e3ff 6384b300  #...........c...
 80000d70 6ff04fab 13051000 1315c500 1345f5ff  o.O..........E..
 80000d80 9315f501 23b4b21e b7f3ffff 9b83f3ff  ....#...........
 80000d90 9393f301 6384b300 6ff0cfa8 13051000  ....c...o.......
 80000da0 1315d500 1345f5ff 93152500 23b8b21e  .....E....%.#...
 80000db0 b783ffff 9b83c3ff 6384b300 6ff08fa6  ........c...o...
 80000dc0 13051000 1315e500 1345f5ff 9315c500  .........E......
 80000dd0 23bcb21e b7f3fffb 6384b300 6ff08fa4  #.......c...o...
 80000de0 13051000 1315f500 1345f5ff 9315d500  .........E......
 80000df0 23b0b220 b7e3ffef 6384b300 6ff08fa2  #.. ....c...o...
 80000e00 13051000 13150501 1345f5ff 93152500  .........E....%.
 80000e10 23b4b220 b703fcff 9b83c3ff 6384b300  #.. ........c...
 80000e20 6ff04fa0 13051000 13151501 1345f5ff  o.O..........E..
 80000e30 9315d503 23b8b220 9b03f0ff 9393d303  ....#.. ........
 80000e40 6384b300 6ff00f9e 13051000 13152501  c...o.........%.
 80000e50 1345f5ff 9315f503 23bcb220 9b03f0ff  .E......#.. ....
 80000e60 9393f303 6384b300 6ff0cf9b 13051000  ....c...o.......
 80000e70 13153501 1345f5ff 9315c500 23b0b222  ..5..E......#.."
 80000e80 b703f8ff 9b83f3ff 9393c300 6384b300  ............c...
 80000e90 6ff04f99 13051000 13154501 1345f5ff  o.O.......E..E..
 80000ea0 9315e500 23b4b222 b703f0ff 9b83f3ff  ....#.."........
 80000eb0 9393e300 6384b300 6ff0cf96 13051000  ....c...o.......
 80000ec0 13155501 1345f5ff 9315f503 23b8b222  ..U..E......#.."
 80000ed0 9b03f0ff 9393f303 6384b300 6ff08f94  ........c...o...
 80000ee0 13051000 13155503 1345f5ff 9315f500  ......U..E......
 80000ef0 23bcb222 b783ffff 6384b300 6ff08f92  #.."....c...o...
 80000f00 13051000 13156503 1345f5ff 9315e503  ......e..E......
 80000f10 23b0b224 9b03f0ff 9393e303 6384b300  #..$........c...
 80000f20 6ff04f90 13051000 13157503 1345f5ff  o.O.......u..E..
 80000f30 93153500 23b4b224 9b03f0ff 9393a303  ..5.#..$........
 80000f40 938383ff 6384b300 6ff0cf8d 13051000  ....c...o.......
 80000f50 13158503 1345f5ff 9315c500 23b8b224  .....E......#..$
 80000f60 b7f3ffff 6384b300 6ff0cf8b 13051000  ....c...o.......
 80000f70 13159503 1345f5ff 93150500 23bcb224  .....E......#..$
 80000f80 9b03f0ff 93939303 9383f3ff 6384b300  ............c...
 80000f90 6ff04f89 13051000 1315a503 1345f5ff  o.O..........E..
 80000fa0 93153500 23b0b226 9b03f0ff 9393d303  ..5.#..&........
 80000fb0 938383ff 6384b300 6ff0cf86 13051000  ....c...o.......
 80000fc0 1315b503 1345f5ff 93152500 23b4b226  .....E....%.#..&
 80000fd0 9b03f0ff 9393d303 9383c3ff 6384b300  ............c...
 80000fe0 6ff04f84 13051000 1315c503 1345f5ff  o.O..........E..
 80000ff0 93154500 23b8b226 930300ff 6384b300  ..E.#..&....c...
 80001000 6ff04f82 13051000 1315d503 1345f5ff  o.O..........E..
 80001010 93150501 23bcb226 b703ffff 6384b300  ....#..&....c...
 80001020 6ff04f80 13051000 1315e503 1345f5ff  o.O..........E..
 80001030 9315e503 23b0b228 9b03f0ff 9393e303  ....#..(........
 80001040 6384b300 6fe01ffe 37555555 13055555  c...o...7UUU..UU
 80001050 1315b500 1305a52a 1315b500 13055555  .......*......UU
 80001060 1315a500 13055515 93152500 23b4b228  ......U...%.#..(
 80001070 b7535505 9b835355 9393c300 93835355  .SU...SU......SU
 80001080 9393c300 93835355 9393c300 93834355  ......SU......CU
 80001090 6384b300 6fe01ff9 37b5aaaa 1305a5aa  c...o...7.......
 800010a0 1315b500 13055555 1315b500 1305a52a  ......UU.......*
 800010b0 1315a500 1305a52a 93152500 23b8b228  .......*..%.#..(
 800010c0 b7b3aafa 9b83b3aa 9393c300 9383b3aa  ................
 800010d0 9393c300 9383b3aa 9393c300 938383aa  ................
 800010e0 6384b300 6fe01ff4 13053000 93150501  c...o.....0.....
 800010f0 23bcb228 b7030300 6384b300 6fe09ff2  #..(....c...o...
 80001100 13055000 9315b503 23b0b22a 9b035000  ..P.....#..*..P.
 80001110 9393b303 6384b300 6fe0dff0 37353333  ....c...o...7533
 80001120 13053533 1315b500 13059519 1315b500  ..53............
 80001130 1305c54c 1315a500 13053533 9315a502  ...L......53....
 80001140 23b4b22a b733f3ff 9b833333 9393a302  #..*.3....33....
 80001150 6384b300 6fe01fed 37656666 13056566  c...o...7eff..ef
 80001160 1315b500 13053533 1315b500 13059519  ......53........
 80001170 1315a500 13056526 9315a500 23b8b22a  ......e&....#..*
 80001180 b7d3ccfc 9b83d3cc 9393c300 9383d3cc  ................
 80001190 9393c300 9383d3cc 9393d300 93830380  ................
 800011a0 6384b300 6fe01fe8 37050000 1305f5ff  c...o...7.......
 800011b0 1315b500 13057525 1315b500 1305356c  ......u%......5l
 800011c0 1315a500 1305d50c 9315b503 23bcb22a  ............#..*
 800011d0 9b03d000 9393b303 6384b300 6fe09fe4  ........c...o...
 800011e0 37050000 13050500 1315b500 1305855a  7..............Z
 800011f0 1315b500 1305c513 1315a500 13053533  ..............53
 80001200 93159500 23b0b22c b753500b 9b8333f3  ....#..,.SP...3.
 80001210 9393d300 93830360 6384b300 6fe09fe0  .......`c...o...
 80001220 37555555 13055555 1315b500 1305a52a  7UUU..UU.......*
 80001230 1315b500 13055555 1315a500 13054515  ......UU......E.
 80001240 93150501 23b4b22c b7531500 9b835355  ....#..,.S....SU
 80001250 9393c300 93835355 9393c300 93835355  ......SU......SU
 80001260 93932301 6384b300 6fe0dfdb 37353333  ..#.c...o...7533
 80001270 13053533 1315b500 13059519 1315b500  ..53............
 80001280 1305c54c 1315a500 13052533 93157503  ...L......%3..u.
 80001290 23b8b22c 9b0390f9 93938303 6384b300  #..,........c...
 800012a0 6fe05fd8 37656666 13056566 1315b500  o._.7eff..ef....
 800012b0 13053533 1315b500 13059519 1315a500  ..53............
 800012c0 13055526 9315e503 23bcb22c 9b031000  ..U&....#..,....
 800012d0 9393e303 6384b300 6fe0dfd4 37050000  ....c...o...7...
 800012e0 13050500 1315b500 1305855a 1315b500  ...........Z....
 800012f0 1305c513 1315a500 13052533 93153501  ..........%3..5.
 80001300 23b0b22e b783825a 9b839399 93934301  #......Z......C.
 80001310 6384b300 6fe01fd1 37555555 13055555  c...o...7UUU..UU
 80001320 1315b500 1305a52a 1315b500 13055555  .......*......UU
 80001330 1315a500 13056515 93152501 23b4b22e  ......e...%.#...
 80001340 b7b30a00 9b83b3aa 9393c300 9383b3aa  ................
 80001350 9393c300 9383b3aa 93933301 6384b300  ..........3.c...
 80001360 6fe05fcc 37b5aaaa 1305a5aa 1315b500  o._.7...........
 80001370 13055555 1315b500 1305a52a 1315a500  ..UU.......*....
 80001380 1305b52a 9315f500 23b8b22e b7b3aa00  ...*....#.......
 80001390 9b83b3aa 9393c300 9383b3aa 9393c300  ................
 800013a0 9383b3aa 9393f300 6384b300 6fe09fc7  ........c...o...
 800013b0 13056000 93157500 23bcb22e 93030030  ..`...u.#......0
 800013c0 6384b300 6fe01fc6 37353333 13053533  c...o...7533..53
 800013d0 1315b500 13059519 1315b500 1305c54c  ...............L
 800013e0 1315a500 13054533 93157500 23b0b230  ......E3..u.#..0
 800013f0 b7d3ccfc 9b83d3cc 9393c300 9383d3cc  ................
 80001400 9393c300 9383d3cc 9393d300 938303a0  ................
 80001410 6384b300 6fe01fc1 37656666 13056566  c...o...7eff..ef
 80001420 1315b500 13053533 1315b500 13059519  ......53........
 80001430 1315a500 13057526 93150502 23b4b230  ......u&....#..0
 80001440 b7636666 9b837366 93930302 6384b300  .cff..sf....c...
 80001450 6fe05fbd 37050000 1305f5ff 1315b500  o._.7...........
 80001460 13057525 1315b500 1305356c 1315a500  ..u%......5l....
 80001470 1305e50c 93158500 23b8b230 b7b3aff4  ........#..0....
 80001480 9b83d30c 9393c300 938303e0 6384b300  ............c...
 80001490 6fe05fb9 13051000 13156501 1345f5ff  o._.......e..E..
 800014a0 93156500 23bcb230 b70300f0 9b8303fc  ..e.#..0........
 800014b0 6384b300 6fe01fb7 37050000 13050500  c...o...7.......
 800014c0 1315b500 1305855a 1315b500 1305c513  .......Z........
 800014d0 1315a500 13054533 9315e503 23b0b232  ......E3....#..2
 800014e0 93030000 6384b300 6fe0dfb3 13051000  ....c...o.......
 800014f0 13157501 1345f5ff 93157503 23b4b232  ..u..E....u.#..2
 80001500 9b03f0ff 93937303 6384b300 6fe09fb1  ......s.c...o...
 80001510 13051000 13158501 1345f5ff 9315a502  .........E......
 80001520 23b8b232 9b03f0ff 9393a302 6384b300  #..2........c...
 80001530 6fe05faf 13051000 13159501 1345f5ff  o._..........E..
 80001540 93151501 23bcb232 b70300fe 9b83f3ff  ....#..2........
 80001550 93931301 6384b300 6fe0dfac 13051000  ....c...o.......
 80001560 1315a501 1345f5ff 93158500 23b0b234  .....E......#..4
 80001570 9b03f0ff 93932302 938303f0 6384b300  ......#.....c...
 80001580 6fe05faa 13051000 1315b501 1345f5ff  o._..........E..
 80001590 93150500 23b4b234 b70300f8 9b83f3ff  ....#..4........
 800015a0 6384b300 6fe01fa8 13051000 1315c501  c...o...........
 800015b0 1345f5ff 9315b500 23b8b234 9b03f0ff  .E......#..4....
 800015c0 93937302 93830380 6384b300 6fe09fa5  ..s.....c...o...
 800015d0 13051000 1315e501 1345f5ff 93159500  .........E......
 800015e0 23bcb234 9b03f0ff 93937302 938303e0  #..4......s.....
 800015f0 6384b300 6fe01fa3 13051000 1315f501  c...o...........
 80001600 1345f5ff 93152500 23b0b236 9b03f0ff  .E....%.#..6....
 80001610 93931302 9383c3ff 6384b300 6fe09fa0  ........c...o...
 80001620 13051000 13150502 1345f5ff 93157503  .........E....u.
 80001630 23b4b236 9b03f0ff 93937303 6384b300  #..6......s.c...
 80001640 6fe05f9e 13051000 13151502 1345f5ff  o._..........E..
 80001650 93157500 23b8b236 9b03f0ff 93938302  ..u.#..6........
 80001660 938303f8 6384b300 6fe0df9b 13051000  ....c...o.......
 80001670 13152502 1345f5ff 93154500 23bcb236  ..%..E....E.#..6
 80001680 9b03f0ff 93936302 938303ff 6384b300  ......c.....c...
 80001690 6fe05f99 13051000 13153502 1345f5ff  o._.......5..E..
 800016a0 93153500 23b0b238 9b03f0ff 93936302  ..5.#..8......c.
 800016b0 938383ff 6384b300 6fe0df96 13051000  ....c...o.......
 800016c0 13154502 1345f5ff 9315e503 23b4b238  ..E..E......#..8
 800016d0 9b03f0ff 9393e303 6384b300 6fe09f94  ........c...o...
 800016e0 13051000 13155502 1345f5ff 9315d500  ......U..E......
 800016f0 23b8b238 9b03f0ff 93935302 9383f3ff  #..8......S.....
 80001700 9393d300 6384b300 6fe0df91 13051000  ....c...o.......
 80001710 13156502 1345f5ff 93156500 23bcb238  ..e..E....e.#..8
 80001720 9b03f0ff 9393c302 938303fc 6384b300  ............c...
 80001730 6fe05f8f 13051000 13157502 1345f5ff  o._.......u..E..
 80001740 9315a502 23b0b23a 9b03f0ff 9393a302  ....#..:........
 80001750 6384b300 6fe01f8d 13051000 13158502  c...o...........
 80001760 1345f5ff 93157500 23b4b23a 9b03f0ff  .E....u.#..:....
 80001770 9393f302 938303f8 6384b300 6fe09f8a  ........c...o...
 80001780 13051000 13159502 1345f5ff 9315f503  .........E......
 80001790 23b8b23a 9b03f0ff 9393f303 6384b300  #..:........c...
 800017a0 6fe05f88 13051000 1315a502 1345f5ff  o._..........E..
 800017b0 9315d503 23bcb23a 9b03f0ff 9393d303  ....#..:........
 800017c0 6384b300 6fe01f86 13051000 1315b502  c...o...........
 800017d0 1345f5ff 9315b503 23b0b23c 9b03f0ff  .E......#..<....
 800017e0 9393b303 6384b300 6fe0df83 13051000  ....c...o.......
 800017f0 1315c502 1345f5ff 93153500 23b4b23c  .....E....5.#..<
 80001800 9b03f0ff 9393f302 938383ff 6384b300  ............c...
 80001810 6fe05f81 13051000 1315d502 1345f5ff  o._..........E..
 80001820 93152501 23b8b23c 9b031000 9393d302  ..%.#..<........
 80001830 9383f3ff 93932301 6384b300 6fe08ffe  ......#.c...o...
 80001840 13051000 1315e502 1345f5ff 93153501  .........E....5.
 80001850 23bcb23c b703f8ff 6384b300 6fe08ffc  #..<....c...o...
 80001860 13051000 1315f502 1345f5ff 93150501  .........E......
 80001870 23b0b23e 9b031000 9393f302 9383f3ff  #..>............
 80001880 93930301 6384b300 6fe0cff9 13051000  ....c...o.......
 80001890 13150503 1345f5ff 93155500 23b4b23e  .....E....U.#..>
 800018a0 9b03f0ff 93935303 938303fe 6384b300  ......S.....c...
 800018b0 6fe04ff7 13051000 13151503 1345f5ff  o.O..........E..
 800018c0 9315b503 23b8b23e 9b03f0ff 9393b303  ....#..>........
 800018d0 6384b300 6fe00ff5 13051000 13152503  c...o.........%.
 800018e0 1345f5ff 93156500 23bcb23e 9b03f0ff  .E....e.#..>....
 800018f0 93938303 938303fc 6384b300 6fe08ff2  ........c...o...
 80001900 13051000 13153503 1345f5ff 9315d500  ......5..E......
 80001910 23b0b240 b7e3ffff 6384b300 6fe08ff0  #..@....c...o...
 80001920 13051000 13154503 1345f5ff 93152500  ......E..E....%.
 80001930 23b4b240 9b03f0ff 93936303 9383c3ff  #..@......c.....
 80001940 6384b300 6fe00fee 13050001 9315e500  c...o...........
 80001950 23b8b240 b7030400 6384b300 6fe08fec  #..@....c...o...
 80001960 13051000 13156501 9315f501 23bcb240  ......e.....#..@
 80001970 9b031000 93935303 6384b300 6fe08fea  ......S.c...o...
 80001980 6f008003 8334811f 03330120 33039300  o....4...3. 3...
 80001990 37030000 13030300 1313b300 1303635d  7.............c]
 800019a0 1313b300 13036343 1313a300 1303032d  ......cC.......-
 800019b0 23be64fe 6f004000 13050000 6f004001  #.d.o.@.....o.@.
 800019c0 00000000 00000000 00000000 00000000  ................
 800019d0 13050500 73001000 6f000000 130101ff  ....s...o.......
 800019e0 17050000 13050502 23341100 efe04fe2  ........#4....O.
 800019f0 13050500 73001000 6f000000 00000000  ....s...o.......
 80001a00 00000000 00000000 00000000 00000000  ................
 80001a10 00000000 00000000 00000000 00000000  ................
 80001a20 00000000 00000000 00000000 00000000  ................
 80001a30 00000000 00000000 00000000 00000000  ................
 80001a40 00000000 00000000 00000000 00000000  ................
 80001a50 00000000 00000000 00000000 00000000  ................
 80001a60 00000000 00000000 00000000 00000000  ................
 80001a70 00000000 00000000 00000000 00000000  ................
 80001a80 00000000 00000000 00000000 00000000  ................
 80001a90 00000000 00000000 00000000 00000000  ................
 80001aa0 00000000 00000000 00000000 00000000  ................
 80001ab0 00000000 00000000 00000000 00000000  ................
 80001ac0 00000000 00000000 00000000 00000000  ................
 80001ad0 00000000 00000000 00000000 00000000  ................
 80001ae0 00000000 00000000 00000000 00000000  ................
 80001af0 00000000 00000000 00000000 00000000  ................
 80001b00 00000000 00000000 00000000 00000000  ................
 80001b10 00000000 00000000 00000000 00000000  ................
 80001b20 00000000 00000000 00000000 00000000  ................
 80001b30 00000000 00000000 00000000 00000000  ................
 80001b40 00000000 00000000 00000000 00000000  ................
 80001b50 00000000 00000000 00000000 00000000  ................
 80001b60 00000000 00000000 00000000 00000000  ................
 80001b70 00000000 00000000 00000000 00000000  ................
 80001b80 00000000 00000000 00000000 00000000  ................
 80001b90 00000000 00000000 00000000 00000000  ................
 80001ba0 00000000 00000000 00000000 00000000  ................
 80001bb0 00000000 00000000 00000000 00000000  ................
 80001bc0 00000000 00000000 00000000 00000000  ................
 80001bd0 00000000 00000000 00000000 00000000  ................
 80001be0 00000000 00000000 00000000 00000000  ................
 80001bf0 00000000 00000000 00000000 00000000  ................
 80001c00 00000000 00000000 00000000 00000000  ................
 80001c10 00000000 00000000 00000000 00000000  ................
 80001c20 00000000 00000000 00000000 00000000  ................
 80001c30 00000000 00000000 00000000 00000000  ................
 80001c40 00000000 00000000 00000000 00000000  ................
 80001c50 00000000 00000000 00000000 00000000  ................
 80001c60 00000000 00000000 00000000 00000000  ................
 80001c70 00000000 00000000 00000000 00000000  ................
 80001c80 00000000 00000000 00000000 00000000  ................
 80001c90 00000000 00000000 00000000 00000000  ................
 80001ca0 00000000 00000000 00000000 00000000  ................
 80001cb0 00000000 00000000 00000000 00000000  ................
 80001cc0 00000000 00000000 00000000 00000000  ................
 80001cd0 00000000 00000000 00000000 00000000  ................
 80001ce0 00000000 00000000 00000000 00000000  ................
 80001cf0 00000000 00000000 00000000 00000000  ................
 80001d00 00000000 00000000 00000000 00000000  ................
 80001d10 00000000 00000000 00000000 00000000  ................
 80001d20 00000000 00000000 00000000 00000000  ................
 80001d30 00000000 00000000 00000000 00000000  ................
 80001d40 00000000 00000000 00000000 00000000  ................
 80001d50 00000000 00000000 00000000 00000000  ................
 80001d60 00000000 00000000 00000000 00000000  ................
 80001d70 00000000 00000000 00000000 00000000  ................
 80001d80 00000000 00000000 00000000 00000000  ................
 80001d90 00000000 00000000 00000000 00000000  ................
 80001da0 00000000 00000000 00000000 00000000  ................
 80001db0 00000000 00000000 00000000 00000000  ................
 80001dc0 00000000 00000000 00000000 00000000  ................
 80001dd0 00000000 00000000 00000000 00000000  ................
 80001de0 00000000 00000000 00000000 00000000  ................
 80001df0 00000000 00000000 00000000 00000000  ................
 80001e00 00000000 00000000 00000000 00000000  ................
 80001e10 00000000 00000000 00000000 00000000  ................
 80001e20 00000000 00000000 00000000 00000000  ................
 80001e30 00000000 00000000 00000000 00000000  ................
 80001e40 00000000 00000000 00000000 00000000  ................
 80001e50 00000000 00000000 00000000 00000000  ................
 80001e60 00000000 00000000 00000000 00000000  ................
 80001e70 00000000 00000000 00000000 00000000  ................
 80001e80 00000000 00000000 00000000 00000000  ................
 80001e90 00000000 00000000 00000000 00000000  ................
 80001ea0 00000000 00000000 00000000 00000000  ................
 80001eb0 00000000 00000000 00000000 00000000  ................
 80001ec0 00000000 00000000 00000000 00000000  ................
 80001ed0 00000000 00000000 00000000 00000000  ................
 80001ee0 00000000 00000000 00000000 00000000  ................
 80001ef0 00000000 00000000 00000000 00000000  ................
 80001f00 00000000 00000000 00000000 00000000  ................
 80001f10 00000000 00000000 00000000 00000000  ................
 80001f20 00000000 00000000 00000000 00000000  ................
 80001f30 00000000 00000000 00000000 00000000  ................
 80001f40 00000000 00000000 00000000 00000000  ................
 80001f50 00000000 00000000 00000000 00000000  ................
 80001f60 00000000 00000000 00000000 00000000  ................
 80001f70 00000000 00000000 00000000 00000000  ................
 80001f80 00000000 00000000 00000000 00000000  ................
 80001f90 00000000 00000000 00000000 00000000  ................
 80001fa0 00000000 00000000 00000000 00000000  ................
 80001fb0 00000000 00000000 00000000 00000000  ................
 80001fc0 00000000 00000000 00000000 00000000  ................
 80001fd0 00000000 00000000 00000000 00000000  ................
 80001fe0 00000000 00000000 00000000 00000000  ................
 80001ff0 00000000 00000000 00000000 00000000  ................
 80002000 fecabeba fecabeba fecabeba fecabeba  ................
 80002010 efbeadde efbeadde 00000000 00000000  ................
 80002020 00000000 00000000 00000000 00000000  ................
 80002030 00000000 00000000 00000000 00000000  ................
 80002040 00000000 00000000 00000000 00000000  ................
 80002050 00000000 00000000 00000000 00000000  ................
 80002060 00000000 00000000 00000000 00000000  ................
 80002070 00000000 00000000 00000000 00000000  ................
 80002080 00000000 00000000 00000000 00000000  ................
 80002090 00000000 00000000 00000000 00000000  ................
 800020a0 00000000 00000000 00000000 00000000  ................
 800020b0 00000000 00000000 00000000 00000000  ................
 800020c0 00000000 00000000 00000000 00000000  ................
 800020d0 00000000 00000000 00000000 00000000  ................
 800020e0 00000000 00000000 00000000 00000000  ................
 800020f0 00000000 00000000 00000000 00000000  ................
 80002100 00000000 00000000 00000000 00000000  ................
 80002110 00000000 00000000 00000000 00000000  ................
 80002120 00000000 00000000 00000000 00000000  ................
 80002130 00000000 00000000 00000000 00000000  ................
 80002140 00000000 00000000 00000000 00000000  ................
 80002150 00000000 00000000 00000000 00000000  ................
 80002160 00000000 00000000 00000000 00000000  ................
 80002170 00000000 00000000 00000000 00000000  ................
 80002180 00000000 00000000 00000000 00000000  ................
 80002190 00000000 00000000 00000000 00000000  ................
 800021a0 00000000 00000000 00000000 00000000  ................
 800021b0 00000000 00000000 00000000 00000000  ................
 800021c0 00000000 00000000 00000000 00000000  ................
 800021d0 00000000 00000000 00000000 00000000  ................
 800021e0 00000000 00000000 00000000 00000000  ................
 800021f0 00000000 00000000 00000000 00000000  ................
 80002200 00000000 00000000 00000000 00000000  ................
 80002210 00000000 00000000 00000000 00000000  ................
 80002220 00000000 00000000 00000000 00000000  ................
 80002230 00000000 00000000 00000000 00000000  ................
 80002240 00000000 00000000 00000000 00000000  ................
 80002250 00000000 00000000 00000000 00000000  ................
 80002260 00000000 00000000 00000000 00000000  ................
 80002270 00000000 00000000 00000000 00000000  ................
 80002280 00000000 00000000 00000000 00000000  ................
 80002290 00000000 00000000 00000000 00000000  ................
 800022a0 00000000 00000000 00000000 00000000  ................
 800022b0 00000000 00000000 00000000 00000000  ................
 800022c0 00000000 00000000 00000000 00000000  ................
 800022d0 00000000 00000000 00000000 00000000  ................
 800022e0 00000000 00000000 00000000 00000000  ................
 800022f0 00000000 00000000 00000000 00000000  ................
 80002300 00000000 00000000 00000000 00000000  ................
 80002310 00000000 00000000 00000000 00000000  ................
 80002320 00000000 00000000 00000000 00000000  ................
 80002330 00000000 00000000 00000000 00000000  ................
 80002340 00000000 00000000 00000000 00000000  ................
 80002350 00000000 00000000 00000000 00000000  ................
 80002360 00000000 00000000 00000000 00000000  ................
 80002370 00000000 00000000 00000000 00000000  ................
 80002380 00000000 00000000 00000000 00000000  ................
 80002390 00000000 00000000 00000000 00000000  ................
 800023a0 00000000 00000000 00000000 00000000  ................
 800023b0 00000000 00000000 00000000 00000000  ................
 800023c0 00000000 00000000 00000000 00000000  ................
 800023d0 00000000 00000000 00000000 00000000  ................
 800023e0 00000000 00000000 00000000 00000000  ................
 800023f0 00000000 00000000 00000000 00000000  ................
 80002400 00000000 00000000 00000000 00000000  ................
 80002410 00000000 00000000 00000000 00000000  ................
 80002420 00000000 00000000 00000000 00000000  ................
 80002430 00000000 00000000 00000000 00000000  ................
 80002440 00000000 00000000 00000000 00000000  ................
 80002450 00000000 00000000 00000000 00000000  ................
 80002460 00000000 00000000 00000000 00000000  ................
 80002470 00000000 00000000 00000000 00000000  ................
 80002480 00000000 00000000 00000000 00000000  ................
 80002490 00000000 00000000 00000000 00000000  ................
 800024a0 00000000 00000000 00000000 00000000  ................
 800024b0 00000000 00000000 00000000 00000000  ................
 800024c0 00000000 00000000 00000000 00000000  ................
 800024d0 00000000 00000000 00000000 00000000  ................
 800024e0 00000000 00000000 00000000 00000000  ................
 800024f0 00000000 00000000 00000000 00000000  ................
 80002500 00000000 00000000 00000000 00000000  ................
 80002510 00000000 00000000 00000000 00000000  ................
 80002520 00000000 00000000 00000000 00000000  ................
 80002530 00000000 00000000 00000000 00000000  ................
 80002540 00000000 00000000 00000000 00000000  ................
 80002550 00000000 00000000 00000000 00000000  ................
 80002560 00000000 00000000 00000000 00000000  ................
 80002570 00000000 00000000 00000000 00000000  ................
 80002580 00000000 00000000 00000000 00000000  ................
 80002590 00000000 00000000 00000000 00000000  ................
 800025a0 00000000 00000000 00000000 00000000  ................
 800025b0 00000000 00000000 00000000 00000000  ................
 800025c0 00000000 00000000 00000000 00000000  ................
 800025d0 00000000 00000000 00000000 00000000  ................
 800025e0 00000000 00000000 00000000 00000000  ................
 800025f0 00000000 00000000 00000000 00000000  ................
 80002600 00000000 00000000 00000000 00000000  ................
 80002610 00000000 00000000 00000000 00000000  ................
 80002620 00000000 00000000 00000000 00000000  ................
 80002630 00000000 00000000 00000000 00000000  ................
 80002640 00000000 00000000 00000000 00000000  ................
 80002650 00000000 00000000 00000000 00000000  ................
 80002660 00000000 00000000 00000000 00000000  ................
 80002670 00000000 00000000 00000000 00000000  ................
 80002680 00000000 00000000 00000000 00000000  ................
 80002690 00000000 00000000 00000000 00000000  ................
 800026a0 00000000 00000000 00000000 00000000  ................
 800026b0 00000000 00000000 00000000 00000000  ................
 800026c0 00000000 00000000 00000000 00000000  ................
 800026d0 00000000 00000000 00000000 00000000  ................
 800026e0 00000000 00000000 00000000 00000000  ................
 800026f0 00000000 00000000 00000000 00000000  ................
 80002700 00000000 00000000 00000000 00000000  ................
 80002710 00000000 00000000 00000000 00000000  ................
 80002720 00000000 00000000 00000000 00000000  ................
 80002730 00000000 00000000 00000000 00000000  ................
 80002740 00000000 00000000 00000000 00000000  ................
 80002750 00000000 00000000 00000000 00000000  ................
 80002760 00000000 00000000 00000000 00000000  ................
 80002770 00000000 00000000 00000000 00000000  ................
 80002780 00000000 00000000 00000000 00000000  ................
 80002790 00000000 00000000 00000000 00000000  ................
 800027a0 00000000 00000000 00000000 00000000  ................
 800027b0 00000000 00000000 00000000 00000000  ................
 800027c0 00000000 00000000 00000000 00000000  ................
 800027d0 00000000 00000000 00000000 00000000  ................
 800027e0 00000000 00000000 00000000 00000000  ................
 800027f0 00000000 00000000 00000000 00000000  ................
 80002800 00000000 00000000 00000000 00000000  ................
 80002810 00000000 00000000 00000000 00000000  ................
 80002820 00000000 00000000 00000000 00000000  ................
 80002830 00000000 00000000 00000000 00000000  ................
 80002840 00000000 00000000 00000000 00000000  ................
 80002850 00000000 00000000 00000000 00000000  ................
 80002860 00000000 00000000 00000000 00000000  ................
 80002870 00000000 00000000 00000000 00000000  ................
 80002880 00000000 00000000 00000000 00000000  ................
 80002890 00000000 00000000 00000000 00000000  ................
 800028a0 00000000 00000000 00000000 00000000  ................
 800028b0 00000000 00000000 00000000 00000000  ................
 800028c0 00000000 00000000 00000000 00000000  ................
 800028d0 00000000 00000000 00000000 00000000  ................
 800028e0 00000000 00000000 00000000 00000000  ................
 800028f0 00000000 00000000 00000000 00000000  ................
 80002900 00000000 00000000 00000000 00000000  ................
 80002910 00000000 00000000 00000000 00000000  ................
 80002920 00000000 00000000 00000000 00000000  ................
 80002930 00000000 00000000 00000000 00000000  ................
 80002940 00000000 00000000 00000000 00000000  ................
 80002950 00000000 00000000 00000000 00000000  ................
 80002960 00000000 00000000 00000000 00000000  ................
 80002970 00000000 00000000 00000000 00000000  ................
 80002980 00000000 00000000 00000000 00000000  ................
 80002990 00000000 00000000 00000000 00000000  ................
 800029a0 00000000 00000000 00000000 00000000  ................
 800029b0 00000000 00000000 00000000 00000000  ................
 800029c0 00000000 00000000 00000000 00000000  ................
 800029d0 00000000 00000000 00000000 00000000  ................
 800029e0 00000000 00000000 00000000 00000000  ................
 800029f0 00000000 00000000 00000000 00000000  ................
 80002a00 00000000 00000000 00000000 00000000  ................
 80002a10 00000000 00000000 00000000 00000000  ................
 80002a20 00000000 00000000 00000000 00000000  ................
 80002a30 00000000 00000000 00000000 00000000  ................
 80002a40 00000000 00000000 00000000 00000000  ................
 80002a50 00000000 00000000 00000000 00000000  ................
 80002a60 00000000 00000000 00000000 00000000  ................
 80002a70 00000000 00000000 00000000 00000000  ................
 80002a80 00000000 00000000 00000000 00000000  ................
 80002a90 00000000 00000000 00000000 00000000  ................
 80002aa0 00000000 00000000 00000000 00000000  ................
 80002ab0 00000000 00000000 00000000 00000000  ................
 80002ac0 00000000 00000000 00000000 00000000  ................
 80002ad0 00000000 00000000 00000000 00000000  ................
 80002ae0 00000000 00000000 00000000 00000000  ................
 80002af0 00000000 00000000 00000000 00000000  ................
 80002b00 00000000 00000000 00000000 00000000  ................
 80002b10 00000000 00000000 00000000 00000000  ................
 80002b20 00000000 00000000 00000000 00000000  ................
 80002b30 00000000 00000000 00000000 00000000  ................
 80002b40 00000000 00000000 00000000 00000000  ................
 80002b50 00000000 00000000 00000000 00000000  ................
 80002b60 00000000 00000000 00000000 00000000  ................
 80002b70 00000000 00000000 00000000 00000000  ................
 80002b80 00000000 00000000 00000000 00000000  ................
 80002b90 00000000 00000000 00000000 00000000  ................
 80002ba0 00000000 00000000 00000000 00000000  ................
 80002bb0 00000000 00000000 00000000 00000000  ................
 80002bc0 00000000 00000000 00000000 00000000  ................
 80002bd0 00000000 00000000 00000000 00000000  ................
 80002be0 00000000 00000000 00000000 00000000  ................
 80002bf0 00000000 00000000 00000000 00000000  ................
 80002c00 00000000 00000000 00000000 00000000  ................
 80002c10 00000000 00000000 00000000 00000000  ................
 80002c20 00000000 00000000 00000000 00000000  ................
 80002c30 00000000 00000000 00000000 00000000  ................
 80002c40 00000000 00000000 00000000 00000000  ................
 80002c50 00000000 00000000 00000000 00000000  ................
 80002c60 00000000 00000000 00000000 00000000  ................
 80002c70 00000000 00000000 00000000 00000000  ................
 80002c80 00000000 00000000 00000000 00000000  ................
 80002c90 00000000 00000000 00000000 00000000  ................
 80002ca0 00000000 00000000 00000000 00000000  ................
 80002cb0 00000000 00000000 00000000 00000000  ................
 80002cc0 00000000 00000000 00000000 00000000  ................
 80002cd0 00000000 00000000 00000000 00000000  ................
 80002ce0 00000000 00000000 00000000 00000000  ................
 80002cf0 00000000 00000000 00000000 00000000  ................
 80002d00 00000000 00000000 00000000 00000000  ................
 80002d10 00000000 00000000 00000000 00000000  ................
 80002d20 00000000 00000000 00000000 00000000  ................
 80002d30 00000000 00000000 00000000 00000000  ................
 80002d40 00000000 00000000 00000000 00000000  ................
 80002d50 00000000 00000000 00000000 00000000  ................
 80002d60 00000000 00000000 00000000 00000000  ................
 80002d70 00000000 00000000 00000000 00000000  ................
 80002d80 00000000 00000000 00000000 00000000  ................
 80002d90 00000000 00000000 00000000 00000000  ................
 80002da0 00000000 00000000 00000000 00000000  ................
 80002db0 00000000 00000000 00000000 00000000  ................
 80002dc0 00000000 00000000 00000000 00000000  ................
 80002dd0 00000000 00000000 00000000 00000000  ................
 80002de0 00000000 00000000 00000000 00000000  ................
 80002df0 00000000 00000000 00000000 00000000  ................
 80002e00 00000000 00000000 00000000 00000000  ................
 80002e10 00000000 00000000 00000000 00000000  ................
 80002e20 00000000 00000000 00000000 00000000  ................
 80002e30 00000000 00000000 00000000 00000000  ................
 80002e40 00000000 00000000 00000000 00000000  ................
 80002e50 00000000 00000000 00000000 00000000  ................
 80002e60 00000000 00000000 00000000 00000000  ................
 80002e70 00000000 00000000 00000000 00000000  ................
 80002e80 00000000 00000000 00000000 00000000  ................
 80002e90 00000000 00000000 00000000 00000000  ................
 80002ea0 00000000 00000000 00000000 00000000  ................
 80002eb0 00000000 00000000 00000000 00000000  ................
 80002ec0 00000000 00000000 00000000 00000000  ................
 80002ed0 00000000 00000000 00000000 00000000  ................
 80002ee0 00000000 00000000 00000000 00000000  ................
 80002ef0 00000000 00000000 00000000 00000000  ................
 80002f00 00000000 00000000 00000000 00000000  ................
 80002f10 00000000 00000000 00000000 00000000  ................
 80002f20 00000000 00000000 00000000 00000000  ................
 80002f30 00000000 00000000 00000000 00000000  ................
 80002f40 00000000 00000000 00000000 00000000  ................
 80002f50 00000000 00000000 00000000 00000000  ................
 80002f60 00000000 00000000 00000000 00000000  ................
 80002f70 00000000 00000000 00000000 00000000  ................
 80002f80 00000000 00000000 00000000 00000000  ................
 80002f90 00000000 00000000 00000000 00000000  ................
 80002fa0 00000000 00000000 00000000 00000000  ................
 80002fb0 00000000 00000000 00000000 00000000  ................
 80002fc0 00000000 00000000 00000000 00000000  ................
 80002fd0 00000000 00000000 00000000 00000000  ................
 80002fe0 00000000 00000000 00000000 00000000  ................
 80002ff0 00000000 00000000 00000000 00000000  ................
 80003000 81b2d4e7 09a35c6f efbeadde efbeadde  ......\o........
 80003010 efbeadde efbeadde efbeadde efbeadde  ................
 80003020 efbeadde efbeadde efbeadde efbeadde  ................
 80003030 efbeadde efbeadde efbeadde efbeadde  ................
 80003040 efbeadde efbeadde efbeadde efbeadde  ................
 80003050 efbeadde efbeadde efbeadde efbeadde  ................
 80003060 efbeadde efbeadde efbeadde efbeadde  ................
 80003070 efbeadde efbeadde efbeadde efbeadde  ................
 80003080 efbeadde efbeadde efbeadde efbeadde  ................
 80003090 efbeadde efbeadde efbeadde efbeadde  ................
 800030a0 efbeadde efbeadde efbeadde efbeadde  ................
 800030b0 efbeadde efbeadde efbeadde efbeadde  ................
 800030c0 efbeadde efbeadde efbeadde efbeadde  ................
 800030d0 efbeadde efbeadde efbeadde efbeadde  ................
 800030e0 efbeadde efbeadde efbeadde efbeadde  ................
 800030f0 efbeadde efbeadde efbeadde efbeadde  ................
 80003100 efbeadde efbeadde efbeadde efbeadde  ................
 80003110 efbeadde efbeadde efbeadde efbeadde  ................
 80003120 efbeadde efbeadde efbeadde efbeadde  ................
 80003130 efbeadde efbeadde efbeadde efbeadde  ................
 80003140 efbeadde efbeadde efbeadde efbeadde  ................
 80003150 efbeadde efbeadde efbeadde efbeadde  ................
 80003160 efbeadde efbeadde efbeadde efbeadde  ................
 80003170 efbeadde efbeadde efbeadde efbeadde  ................
 80003180 efbeadde efbeadde efbeadde efbeadde  ................
 80003190 efbeadde efbeadde efbeadde efbeadde  ................
 800031a0 efbeadde efbeadde efbeadde efbeadde  ................
 800031b0 efbeadde efbeadde efbeadde efbeadde  ................
 800031c0 efbeadde efbeadde efbeadde efbeadde  ................
 800031d0 efbeadde efbeadde efbeadde efbeadde  ................
 800031e0 efbeadde efbeadde efbeadde efbeadde  ................
 800031f0 efbeadde efbeadde efbeadde efbeadde  ................
 80003200 efbeadde efbeadde efbeadde efbeadde  ................
 80003210 efbeadde efbeadde efbeadde efbeadde  ................
 80003220 efbeadde efbeadde efbeadde efbeadde  ................
 80003230 efbeadde efbeadde efbeadde efbeadde  ................
 80003240 efbeadde efbeadde efbeadde efbeadde  ................
 80003250 efbeadde efbeadde efbeadde efbeadde  ................
 80003260 efbeadde efbeadde efbeadde efbeadde  ................
 80003270 efbeadde efbeadde efbeadde efbeadde  ................
 80003280 efbeadde efbeadde efbeadde efbeadde  ................
 80003290 efbeadde efbeadde efbeadde efbeadde  ................
 800032a0 efbeadde efbeadde efbeadde efbeadde  ................
 800032b0 efbeadde efbeadde efbeadde efbeadde  ................
 800032c0 efbeadde efbeadde efbeadde efbeadde  ................
 800032d0 efbeadde efbeadde efbeadde efbeadde  ................
 800032e0 efbeadde efbeadde efbeadde efbeadde  ................
 800032f0 efbeadde efbeadde efbeadde efbeadde  ................
 80003300 efbeadde efbeadde efbeadde efbeadde  ................
 80003310 efbeadde efbeadde efbeadde efbeadde  ................
 80003320 efbeadde efbeadde efbeadde efbeadde  ................
 80003330 efbeadde efbeadde efbeadde efbeadde  ................
 80003340 efbeadde efbeadde efbeadde efbeadde  ................
 80003350 efbeadde efbeadde efbeadde efbeadde  ................
 80003360 efbeadde efbeadde efbeadde efbeadde  ................
 80003370 efbeadde efbeadde efbeadde efbeadde  ................
 80003380 efbeadde efbeadde efbeadde efbeadde  ................
 80003390 efbeadde efbeadde efbeadde efbeadde  ................
 800033a0 efbeadde efbeadde efbeadde efbeadde  ................
 800033b0 efbeadde efbeadde efbeadde efbeadde  ................
 800033c0 efbeadde efbeadde efbeadde efbeadde  ................
 800033d0 efbeadde efbeadde efbeadde efbeadde  ................
 800033e0 efbeadde efbeadde efbeadde efbeadde  ................
 800033f0 efbeadde efbeadde efbeadde efbeadde  ................
 80003400 efbeadde efbeadde efbeadde efbeadde  ................
 80003410 efbeadde efbeadde efbeadde efbeadde  ................
 80003420 efbeadde efbeadde efbeadde efbeadde  ................
 80003430 efbeadde efbeadde efbeadde efbeadde  ................
 80003440 efbeadde efbeadde efbeadde efbeadde  ................
 80003450 efbeadde efbeadde efbeadde efbeadde  ................
 80003460 efbeadde efbeadde efbeadde efbeadde  ................
 80003470 efbeadde efbeadde efbeadde efbeadde  ................
 80003480 efbeadde efbeadde efbeadde efbeadde  ................
 80003490 efbeadde efbeadde efbeadde efbeadde  ................
 800034a0 efbeadde efbeadde efbeadde efbeadde  ................
 800034b0 efbeadde efbeadde efbeadde efbeadde  ................
 800034c0 81b2d4e7 09a35c6f 00000000 00000000  ......\o........

Disassembly of section .data:

0000000080000000 <.data>:
    80000000:	00000413          	addi	x8,x0,0
    80000004:	0000c117          	auipc	x2,0xc
    80000008:	ffc10113          	addi	x2,x2,-4 # 0x8000c000
    8000000c:	1d1010ef          	jal	x1,0x800019dc
    80000010:	030000ef          	jal	x1,0x80000040
    80000014:	00100513          	addi	x10,x0,1
    80000018:	1b9010ef          	jal	x1,0x800019d0
    8000001c:	00000513          	addi	x10,x0,0
    80000020:	00008067          	jalr	x0,0(x1)
    80000024:	00100513          	addi	x10,x0,1
    80000028:	1a9010ef          	jal	x1,0x800019d0
    8000002c:	00008067          	jalr	x0,0(x1)
	...
    80000040:	feedc0b7          	lui	x1,0xfeedc
    80000044:	ead08093          	addi	x1,x1,-339 # 0xfffffffffeedbead
    80000048:	00b09093          	slli	x1,x1,0xb
    8000004c:	7f708093          	addi	x1,x1,2039
    80000050:	00b09093          	slli	x1,x1,0xb
    80000054:	36f08093          	addi	x1,x1,879
    80000058:	00a09093          	slli	x1,x1,0xa
    8000005c:	2ad08093          	addi	x1,x1,685
    80000060:	ff76e137          	lui	x2,0xff76e
    80000064:	f5610113          	addi	x2,x2,-170 # 0xffffffffff76df56
    80000068:	00b11113          	slli	x2,x2,0xb
    8000006c:	7fb10113          	addi	x2,x2,2043
    80000070:	00b11113          	slli	x2,x2,0xb
    80000074:	5b710113          	addi	x2,x2,1463
    80000078:	00a11113          	slli	x2,x2,0xa
    8000007c:	35610113          	addi	x2,x2,854
    80000080:	7fbb71b7          	lui	x3,0x7fbb7
    80000084:	fab18193          	addi	x3,x3,-85 # 0x7fbb6fab
    80000088:	00b19193          	slli	x3,x3,0xb
    8000008c:	3fd18193          	addi	x3,x3,1021
    80000090:	00b19193          	slli	x3,x3,0xb
    80000094:	6db18193          	addi	x3,x3,1755
    80000098:	00a19193          	slli	x3,x3,0xa
    8000009c:	3ab18193          	addi	x3,x3,939
    800000a0:	bfddb237          	lui	x4,0xbfddb
    800000a4:	7d520213          	addi	x4,x4,2005 # 0xffffffffbfddb7d5
    800000a8:	00b21213          	slli	x4,x4,0xb
    800000ac:	5fe20213          	addi	x4,x4,1534 # 0x5fe
    800000b0:	00b21213          	slli	x4,x4,0xb
    800000b4:	76d20213          	addi	x4,x4,1901 # 0x76d
    800000b8:	00a21213          	slli	x4,x4,0xa
    800000bc:	3d520213          	addi	x4,x4,981 # 0x3d5
    800000c0:	dfeee2b7          	lui	x5,0xdfeee
    800000c4:	bea28293          	addi	x5,x5,-1046 # 0xffffffffdfeedbea
    800000c8:	00b29293          	slli	x5,x5,0xb
    800000cc:	6ff28293          	addi	x5,x5,1791
    800000d0:	00b29293          	slli	x5,x5,0xb
    800000d4:	3b628293          	addi	x5,x5,950
    800000d8:	00a29293          	slli	x5,x5,0xa
    800000dc:	3ea28293          	addi	x5,x5,1002
    800000e0:	6ff77337          	lui	x6,0x6ff77
    800000e4:	df530313          	addi	x6,x6,-523 # 0x6ff76df5
    800000e8:	00b31313          	slli	x6,x6,0xb
    800000ec:	37f30313          	addi	x6,x6,895
    800000f0:	00b31313          	slli	x6,x6,0xb
    800000f4:	5db30313          	addi	x6,x6,1499
    800000f8:	00a31313          	slli	x6,x6,0xa
    800000fc:	1f530313          	addi	x6,x6,501
    80000100:	b7fbb3b7          	lui	x7,0xb7fbb
    80000104:	6fa38393          	addi	x7,x7,1786 # 0xffffffffb7fbb6fa
    80000108:	00b39393          	slli	x7,x7,0xb
    8000010c:	5bf38393          	addi	x7,x7,1471
    80000110:	00b39393          	slli	x7,x7,0xb
    80000114:	6ed38393          	addi	x7,x7,1773
    80000118:	00a39393          	slli	x7,x7,0xa
    8000011c:	2fa38393          	addi	x7,x7,762
    80000120:	5bfde437          	lui	x8,0x5bfde
    80000124:	b7d40413          	addi	x8,x8,-1155 # 0x5bfddb7d
    80000128:	00b41413          	slli	x8,x8,0xb
    8000012c:	2df40413          	addi	x8,x8,735
    80000130:	00b41413          	slli	x8,x8,0xb
    80000134:	77640413          	addi	x8,x8,1910
    80000138:	00a41413          	slli	x8,x8,0xa
    8000013c:	37d40413          	addi	x8,x8,893
    80000140:	adfef4b7          	lui	x9,0xadfef
    80000144:	dbe48493          	addi	x9,x9,-578 # 0xffffffffadfeedbe
    80000148:	00b49493          	slli	x9,x9,0xb
    8000014c:	56f48493          	addi	x9,x9,1391
    80000150:	00b49493          	slli	x9,x9,0xb
    80000154:	7bb48493          	addi	x9,x9,1979
    80000158:	00a49493          	slli	x9,x9,0xa
    8000015c:	1be48493          	addi	x9,x9,446
    80000160:	56ff7537          	lui	x10,0x56ff7
    80000164:	6df50513          	addi	x10,x10,1759 # 0x56ff76df
    80000168:	00b51513          	slli	x10,x10,0xb
    8000016c:	2b750513          	addi	x10,x10,695
    80000170:	00b51513          	slli	x10,x10,0xb
    80000174:	7dd50513          	addi	x10,x10,2013
    80000178:	00a51513          	slli	x10,x10,0xa
    8000017c:	2df50513          	addi	x10,x10,735
    80000180:	ab7fc5b7          	lui	x11,0xab7fc
    80000184:	b6f58593          	addi	x11,x11,-1169 # 0xffffffffab7fbb6f
    80000188:	00b59593          	slli	x11,x11,0xb
    8000018c:	55b58593          	addi	x11,x11,1371
    80000190:	00b59593          	slli	x11,x11,0xb
    80000194:	7ee58593          	addi	x11,x11,2030
    80000198:	00a59593          	slli	x11,x11,0xa
    8000019c:	36f58593          	addi	x11,x11,879
    800001a0:	d5bfe637          	lui	x12,0xd5bfe
    800001a4:	db760613          	addi	x12,x12,-585 # 0xffffffffd5bfddb7
    800001a8:	00b61613          	slli	x12,x12,0xb
    800001ac:	6ad60613          	addi	x12,x12,1709
    800001b0:	00b61613          	slli	x12,x12,0xb
    800001b4:	7f760613          	addi	x12,x12,2039
    800001b8:	00a61613          	slli	x12,x12,0xa
    800001bc:	1b760613          	addi	x12,x12,439
    800001c0:	eadff6b7          	lui	x13,0xeadff
    800001c4:	edb68693          	addi	x13,x13,-293 # 0xffffffffeadfeedb
    800001c8:	00b69693          	slli	x13,x13,0xb
    800001cc:	75668693          	addi	x13,x13,1878
    800001d0:	00b69693          	slli	x13,x13,0xb
    800001d4:	7fb68693          	addi	x13,x13,2043
    800001d8:	00a69693          	slli	x13,x13,0xa
    800001dc:	2db68693          	addi	x13,x13,731
    800001e0:	f56ff737          	lui	x14,0xf56ff
    800001e4:	76d70713          	addi	x14,x14,1901 # 0xfffffffff56ff76d
    800001e8:	00b71713          	slli	x14,x14,0xb
    800001ec:	7ab70713          	addi	x14,x14,1963
    800001f0:	00b71713          	slli	x14,x14,0xb
    800001f4:	3fd70713          	addi	x14,x14,1021
    800001f8:	00a71713          	slli	x14,x14,0xa
    800001fc:	36d70713          	addi	x14,x14,877
    80000200:	fab807b7          	lui	x15,0xfab80
    80000204:	bb678793          	addi	x15,x15,-1098 # 0xfffffffffab7fbb6
    80000208:	00b79793          	slli	x15,x15,0xb
    8000020c:	7d578793          	addi	x15,x15,2005
    80000210:	00b79793          	slli	x15,x15,0xb
    80000214:	5fe78793          	addi	x15,x15,1534
    80000218:	00a79793          	slli	x15,x15,0xa
    8000021c:	3b678793          	addi	x15,x15,950
    80000220:	7d5c0837          	lui	x16,0x7d5c0
    80000224:	ddb80813          	addi	x16,x16,-549 # 0x7d5bfddb
    80000228:	00b81813          	slli	x16,x16,0xb
    8000022c:	3ea80813          	addi	x16,x16,1002
    80000230:	00b81813          	slli	x16,x16,0xb
    80000234:	6ff80813          	addi	x16,x16,1791
    80000238:	00a81813          	slli	x16,x16,0xa
    8000023c:	1db80813          	addi	x16,x16,475
    80000240:	beae08b7          	lui	x17,0xbeae0
    80000244:	eed88893          	addi	x17,x17,-275 # 0xffffffffbeadfeed
    80000248:	00b89893          	slli	x17,x17,0xb
    8000024c:	5f588893          	addi	x17,x17,1525
    80000250:	00b89893          	slli	x17,x17,0xb
    80000254:	37f88893          	addi	x17,x17,895
    80000258:	00a89893          	slli	x17,x17,0xa
    8000025c:	2ed88893          	addi	x17,x17,749
    80000260:	df570937          	lui	x18,0xdf570
    80000264:	f7690913          	addi	x18,x18,-138 # 0xffffffffdf56ff76
    80000268:	00b91913          	slli	x18,x18,0xb
    8000026c:	6fa90913          	addi	x18,x18,1786
    80000270:	00b91913          	slli	x18,x18,0xb
    80000274:	5bf90913          	addi	x18,x18,1471
    80000278:	00a91913          	slli	x18,x18,0xa
    8000027c:	37690913          	addi	x18,x18,886
    80000280:	6fab89b7          	lui	x19,0x6fab8
    80000284:	fbb98993          	addi	x19,x19,-69 # 0x6fab7fbb
    80000288:	00b99993          	slli	x19,x19,0xb
    8000028c:	37d98993          	addi	x19,x19,893
    80000290:	00b99993          	slli	x19,x19,0xb
    80000294:	2df98993          	addi	x19,x19,735
    80000298:	00a99993          	slli	x19,x19,0xa
    8000029c:	3bb98993          	addi	x19,x19,955
    800002a0:	b7d5ca37          	lui	x20,0xb7d5c
    800002a4:	fdda0a13          	addi	x20,x20,-35 # 0xffffffffb7d5bfdd
    800002a8:	00ba1a13          	slli	x20,x20,0xb
    800002ac:	5bea0a13          	addi	x20,x20,1470
    800002b0:	00ba1a13          	slli	x20,x20,0xb
    800002b4:	56fa0a13          	addi	x20,x20,1391
    800002b8:	00aa1a13          	slli	x20,x20,0xa
    800002bc:	3dda0a13          	addi	x20,x20,989
    800002c0:	dbeaeab7          	lui	x21,0xdbeae
    800002c4:	feea8a93          	addi	x21,x21,-18 # 0xffffffffdbeadfee
    800002c8:	00ba9a93          	slli	x21,x21,0xb
    800002cc:	6dfa8a93          	addi	x21,x21,1759
    800002d0:	00ba9a93          	slli	x21,x21,0xb
    800002d4:	2b7a8a93          	addi	x21,x21,695
    800002d8:	00aa9a93          	slli	x21,x21,0xa
    800002dc:	3eea8a93          	addi	x21,x21,1006
    800002e0:	6df57b37          	lui	x22,0x6df57
    800002e4:	ff7b0b13          	addi	x22,x22,-9 # 0x6df56ff7
    800002e8:	00bb1b13          	slli	x22,x22,0xb
    800002ec:	36fb0b13          	addi	x22,x22,879
    800002f0:	00bb1b13          	slli	x22,x22,0xb
    800002f4:	55bb0b13          	addi	x22,x22,1371
    800002f8:	00ab1b13          	slli	x22,x22,0xa
    800002fc:	3f7b0b13          	addi	x22,x22,1015
    80000300:	b6fabbb7          	lui	x23,0xb6fab
    80000304:	7fbb8b93          	addi	x23,x23,2043 # 0xffffffffb6fab7fb
    80000308:	00bb9b93          	slli	x23,x23,0xb
    8000030c:	5b7b8b93          	addi	x23,x23,1463
    80000310:	00bb9b93          	slli	x23,x23,0xb
    80000314:	6adb8b93          	addi	x23,x23,1709
    80000318:	00ab9b93          	slli	x23,x23,0xa
    8000031c:	3fbb8b93          	addi	x23,x23,1019
    80000320:	db7d6c37          	lui	x24,0xdb7d6
    80000324:	bfdc0c13          	addi	x24,x24,-1027 # 0xffffffffdb7d5bfd
    80000328:	00bc1c13          	slli	x24,x24,0xb
    8000032c:	6dbc0c13          	addi	x24,x24,1755
    80000330:	00bc1c13          	slli	x24,x24,0xb
    80000334:	756c0c13          	addi	x24,x24,1878
    80000338:	00ac1c13          	slli	x24,x24,0xa
    8000033c:	3fdc0c13          	addi	x24,x24,1021
    80000340:	edbebcb7          	lui	x25,0xedbeb
    80000344:	dfec8c93          	addi	x25,x25,-514 # 0xffffffffedbeadfe
    80000348:	00bc9c93          	slli	x25,x25,0xb
    8000034c:	76dc8c93          	addi	x25,x25,1901
    80000350:	00bc9c93          	slli	x25,x25,0xb
    80000354:	7abc8c93          	addi	x25,x25,1963
    80000358:	00ac9c93          	slli	x25,x25,0xa
    8000035c:	1fec8c93          	addi	x25,x25,510
    80000360:	76df5d37          	lui	x26,0x76df5
    80000364:	6ffd0d13          	addi	x26,x26,1791 # 0x76df56ff
    80000368:	00bd1d13          	slli	x26,x26,0xb
    8000036c:	3b6d0d13          	addi	x26,x26,950
    80000370:	00bd1d13          	slli	x26,x26,0xb
    80000374:	7d5d0d13          	addi	x26,x26,2005
    80000378:	00ad1d13          	slli	x26,x26,0xa
    8000037c:	2ffd0d13          	addi	x26,x26,767
    80000380:	bb6fbdb7          	lui	x27,0xbb6fb
    80000384:	b7fd8d93          	addi	x27,x27,-1153 # 0xffffffffbb6fab7f
    80000388:	00bd9d93          	slli	x27,x27,0xb
    8000038c:	5dbd8d93          	addi	x27,x27,1499
    80000390:	00bd9d93          	slli	x27,x27,0xb
    80000394:	3ead8d93          	addi	x27,x27,1002
    80000398:	00ad9d93          	slli	x27,x27,0xa
    8000039c:	37fd8d93          	addi	x27,x27,895
    800003a0:	ddb7de37          	lui	x28,0xddb7d
    800003a4:	5bfe0e13          	addi	x28,x28,1471 # 0xffffffffddb7d5bf
    800003a8:	00be1e13          	slli	x28,x28,0xb
    800003ac:	6ede0e13          	addi	x28,x28,1773
    800003b0:	00be1e13          	slli	x28,x28,0xb
    800003b4:	5f5e0e13          	addi	x28,x28,1525
    800003b8:	00ae1e13          	slli	x28,x28,0xa
    800003bc:	1bfe0e13          	addi	x28,x28,447
    800003c0:	eedbfeb7          	lui	x29,0xeedbf
    800003c4:	adfe8e93          	addi	x29,x29,-1313 # 0xffffffffeedbeadf
    800003c8:	00be9e93          	slli	x29,x29,0xb
    800003cc:	776e8e93          	addi	x29,x29,1910
    800003d0:	00be9e93          	slli	x29,x29,0xb
    800003d4:	6fae8e93          	addi	x29,x29,1786
    800003d8:	00ae9e93          	slli	x29,x29,0xa
    800003dc:	2dfe8e93          	addi	x29,x29,735
    800003e0:	f76dff37          	lui	x30,0xf76df
    800003e4:	56ff0f13          	addi	x30,x30,1391 # 0xfffffffff76df56f
    800003e8:	00bf1f13          	slli	x30,x30,0xb
    800003ec:	7bbf0f13          	addi	x30,x30,1979
    800003f0:	00bf1f13          	slli	x30,x30,0xb
    800003f4:	37df0f13          	addi	x30,x30,893
    800003f8:	00af1f13          	slli	x30,x30,0xa
    800003fc:	16ff0f13          	addi	x30,x30,367
    80000400:	fbb70fb7          	lui	x31,0xfbb70
    80000404:	ab7f8f93          	addi	x31,x31,-1353 # 0xfffffffffbb6fab7
    80000408:	00bf9f93          	slli	x31,x31,0xb
    8000040c:	7ddf8f93          	addi	x31,x31,2013
    80000410:	00bf9f93          	slli	x31,x31,0xb
    80000414:	5bef8f93          	addi	x31,x31,1470
    80000418:	00af9f93          	slli	x31,x31,0xa
    8000041c:	2b7f8f93          	addi	x31,x31,695
    80000420:	00003197          	auipc	x3,0x3
    80000424:	be818193          	addi	x3,x3,-1048 # 0x80003008
    80000428:	00000013          	addi	x0,x0,0
    8000042c:	00000013          	addi	x0,x0,0
    80000430:	00000013          	addi	x0,x0,0
    80000434:	00000013          	addi	x0,x0,0
    80000438:	00000013          	addi	x0,x0,0
    8000043c:	00000013          	addi	x0,x0,0
    80000440:	eff00293          	addi	x5,x0,-257
    80000444:	00f29293          	slli	x5,x5,0xf
    80000448:	0051b023          	sd	x5,0(x3)
    8000044c:	ff7f88b7          	lui	x17,0xff7f8
    80000450:	00588463          	beq	x17,x5,0x80000458
    80000454:	bd1ff06f          	jal	x0,0x80000024
    80000458:	00400413          	addi	x8,x0,4
    8000045c:	00e41693          	slli	x13,x8,0xe
    80000460:	00d1b423          	sd	x13,8(x3)
    80000464:	000108b7          	lui	x17,0x10
    80000468:	00d88463          	beq	x17,x13,0x80000470
    8000046c:	bb9ff06f          	jal	x0,0x80000024
    80000470:	ff700e93          	addi	x29,x0,-9
    80000474:	000e9a93          	slli	x21,x29,0x0
    80000478:	0151b823          	sd	x21,16(x3)
    8000047c:	ff700893          	addi	x17,x0,-9
    80000480:	01588463          	beq	x17,x21,0x80000488
    80000484:	ba1ff06f          	jal	x0,0x80000024
    80000488:	00400e13          	addi	x28,x0,4
    8000048c:	000e1813          	slli	x16,x28,0x0
    80000490:	0101bc23          	sd	x16,24(x3)
    80000494:	00400893          	addi	x17,x0,4
    80000498:	01088463          	beq	x17,x16,0x800004a0
    8000049c:	b89ff06f          	jal	x0,0x80000024
    800004a0:	00100793          	addi	x15,x0,1
    800004a4:	01d79793          	slli	x15,x15,0x1d
    800004a8:	fff7c793          	xori	x15,x15,-1
    800004ac:	03f79513          	slli	x10,x15,0x3f
    800004b0:	02a1b023          	sd	x10,32(x3)
    800004b4:	fff0089b          	addiw	x17,x0,-1
    800004b8:	03f89893          	slli	x17,x17,0x3f
    800004bc:	00a88463          	beq	x17,x10,0x800004c4
    800004c0:	b65ff06f          	jal	x0,0x80000024
    800004c4:	00100993          	addi	x19,x0,1
    800004c8:	03499993          	slli	x19,x19,0x34
    800004cc:	03f99613          	slli	x12,x19,0x3f
    800004d0:	02c1b423          	sd	x12,40(x3)
    800004d4:	00000893          	addi	x17,x0,0
    800004d8:	00c88463          	beq	x17,x12,0x800004e0
    800004dc:	b49ff06f          	jal	x0,0x80000024
    800004e0:	00200b13          	addi	x22,x0,2
    800004e4:	002b1413          	slli	x8,x22,0x2
    800004e8:	0281b823          	sd	x8,48(x3)
    800004ec:	00800893          	addi	x17,x0,8
    800004f0:	00888463          	beq	x17,x8,0x800004f8
    800004f4:	b31ff06f          	jal	x0,0x80000024
    800004f8:	fff00313          	addi	x6,x0,-1
    800004fc:	03f31313          	slli	x6,x6,0x3f
    80000500:	00b31393          	slli	x7,x6,0xb
    80000504:	0271bc23          	sd	x7,56(x3)
    80000508:	00000893          	addi	x17,x0,0
    8000050c:	00788463          	beq	x17,x7,0x80000514
    80000510:	b15ff06f          	jal	x0,0x80000024
    80000514:	00000d93          	addi	x27,x0,0
    80000518:	00fd9c13          	slli	x24,x27,0xf
    8000051c:	0581b023          	sd	x24,64(x3)
    80000520:	00000893          	addi	x17,x0,0
    80000524:	01888463          	beq	x17,x24,0x8000052c
    80000528:	afdff06f          	jal	x0,0x80000024
    8000052c:	fff00b93          	addi	x23,x0,-1
    80000530:	001bdb93          	srli	x23,x23,0x1
    80000534:	007b9593          	slli	x11,x23,0x7
    80000538:	04b1b423          	sd	x11,72(x3)
    8000053c:	f8000893          	addi	x17,x0,-128
    80000540:	00b88463          	beq	x17,x11,0x80000548
    80000544:	ae1ff06f          	jal	x0,0x80000024
    80000548:	00100713          	addi	x14,x0,1
    8000054c:	03b71493          	slli	x9,x14,0x3b
    80000550:	0491b823          	sd	x9,80(x3)
    80000554:	0010089b          	addiw	x17,x0,1
    80000558:	03b89893          	slli	x17,x17,0x3b
    8000055c:	00988463          	beq	x17,x9,0x80000564
    80000560:	ac5ff06f          	jal	x0,0x80000024
    80000564:	00800d13          	addi	x26,x0,8
    80000568:	02fd1713          	slli	x14,x26,0x2f
    8000056c:	04e1bc23          	sd	x14,88(x3)
    80000570:	0010089b          	addiw	x17,x0,1
    80000574:	03289893          	slli	x17,x17,0x32
    80000578:	00e88463          	beq	x17,x14,0x80000580
    8000057c:	aa9ff06f          	jal	x0,0x80000024
    80000580:	01000393          	addi	x7,x0,16
    80000584:	00e39013          	slli	x0,x7,0xe
    80000588:	0601b023          	sd	x0,96(x3)
    8000058c:	00000893          	addi	x17,x0,0
    80000590:	00088463          	beq	x17,x0,0x80000598
    80000594:	a91ff06f          	jal	x0,0x80000024
    80000598:	02000f13          	addi	x30,x0,32
    8000059c:	005f1913          	slli	x18,x30,0x5
    800005a0:	0721b423          	sd	x18,104(x3)
    800005a4:	40000893          	addi	x17,x0,1024
    800005a8:	01288463          	beq	x17,x18,0x800005b0
    800005ac:	a79ff06f          	jal	x0,0x80000024
    800005b0:	04000c13          	addi	x24,x0,64
    800005b4:	02fc1e13          	slli	x28,x24,0x2f
    800005b8:	07c1b823          	sd	x28,112(x3)
    800005bc:	0010089b          	addiw	x17,x0,1
    800005c0:	03589893          	slli	x17,x17,0x35
    800005c4:	01c88463          	beq	x17,x28,0x800005cc
    800005c8:	a5dff06f          	jal	x0,0x80000024
    800005cc:	08000213          	addi	x4,x0,128
    800005d0:	01221093          	slli	x1,x4,0x12
    800005d4:	0611bc23          	sd	x1,120(x3)
    800005d8:	020008b7          	lui	x17,0x2000
    800005dc:	00188463          	beq	x17,x1,0x800005e4
    800005e0:	a45ff06f          	jal	x0,0x80000024
    800005e4:	10000513          	addi	x10,x0,256
    800005e8:	03d51c93          	slli	x25,x10,0x3d
    800005ec:	0991b023          	sd	x25,128(x3)
    800005f0:	00000893          	addi	x17,x0,0
    800005f4:	01988463          	beq	x17,x25,0x800005fc
    800005f8:	a2dff06f          	jal	x0,0x80000024
    800005fc:	20000813          	addi	x16,x0,512
    80000600:	01f81993          	slli	x19,x16,0x1f
    80000604:	0931b423          	sd	x19,136(x3)
    80000608:	0010089b          	addiw	x17,x0,1
    8000060c:	02889893          	slli	x17,x17,0x28
    80000610:	01388463          	beq	x17,x19,0x80000618
    80000614:	a11ff06f          	jal	x0,0x80000024
    80000618:	40000113          	addi	x2,x0,1024
    8000061c:	00a11f93          	slli	x31,x2,0xa
    80000620:	09f1b823          	sd	x31,144(x3)
    80000624:	001008b7          	lui	x17,0x100
    80000628:	01f88463          	beq	x17,x31,0x80000630
    8000062c:	9f9ff06f          	jal	x0,0x80000024
    80000630:	00000013          	addi	x0,x0,0
    80000634:	00000013          	addi	x0,x0,0
    80000638:	00000013          	addi	x0,x0,0
    8000063c:	00000013          	addi	x0,x0,0
    80000640:	00003297          	auipc	x5,0x3
    80000644:	a6028293          	addi	x5,x5,-1440 # 0x800030a0
    80000648:	00000013          	addi	x0,x0,0
    8000064c:	00000013          	addi	x0,x0,0
    80000650:	00000013          	addi	x0,x0,0
    80000654:	00000013          	addi	x0,x0,0
    80000658:	00000013          	addi	x0,x0,0
    8000065c:	00000013          	addi	x0,x0,0
    80000660:	00100093          	addi	x1,x0,1
    80000664:	00b09093          	slli	x1,x1,0xb
    80000668:	01f09213          	slli	x4,x1,0x1f
    8000066c:	0042b023          	sd	x4,0(x5)
    80000670:	0010039b          	addiw	x7,x0,1
    80000674:	02a39393          	slli	x7,x7,0x2a
    80000678:	00438463          	beq	x7,x4,0x80000680
    8000067c:	9a9ff06f          	jal	x0,0x80000024
    80000680:	00100193          	addi	x3,x0,1
    80000684:	00c19193          	slli	x3,x3,0xc
    80000688:	00019e93          	slli	x29,x3,0x0
    8000068c:	01d2b423          	sd	x29,8(x5)
    80000690:	000013b7          	lui	x7,0x1
    80000694:	01d38463          	beq	x7,x29,0x8000069c
    80000698:	98dff06f          	jal	x0,0x80000024
    8000069c:	00100c93          	addi	x25,x0,1
    800006a0:	00dc9c93          	slli	x25,x25,0xd
    800006a4:	00ac9313          	slli	x6,x25,0xa
    800006a8:	0062b823          	sd	x6,16(x5)
    800006ac:	008003b7          	lui	x7,0x800
    800006b0:	00638463          	beq	x7,x6,0x800006b8
    800006b4:	971ff06f          	jal	x0,0x80000024
    800006b8:	00100613          	addi	x12,x0,1
    800006bc:	00e61613          	slli	x12,x12,0xe
    800006c0:	00961b93          	slli	x23,x12,0x9
    800006c4:	0172bc23          	sd	x23,24(x5)
    800006c8:	008003b7          	lui	x7,0x800
    800006cc:	01738463          	beq	x7,x23,0x800006d4
    800006d0:	955ff06f          	jal	x0,0x80000024
    800006d4:	00100a93          	addi	x21,x0,1
    800006d8:	00fa9a93          	slli	x21,x21,0xf
    800006dc:	00ca9193          	slli	x3,x21,0xc
    800006e0:	0232b023          	sd	x3,32(x5)
    800006e4:	080003b7          	lui	x7,0x8000
    800006e8:	00338463          	beq	x7,x3,0x800006f0
    800006ec:	939ff06f          	jal	x0,0x80000024
    800006f0:	00100493          	addi	x9,x0,1
    800006f4:	01049493          	slli	x9,x9,0x10
    800006f8:	03b49893          	slli	x17,x9,0x3b
    800006fc:	0312b423          	sd	x17,40(x5)
    80000700:	00000393          	addi	x7,x0,0
    80000704:	01138463          	beq	x7,x17,0x8000070c
    80000708:	91dff06f          	jal	x0,0x80000024
    8000070c:	00100693          	addi	x13,x0,1
    80000710:	01169693          	slli	x13,x13,0x11
    80000714:	00e69793          	slli	x15,x13,0xe
    80000718:	02f2b823          	sd	x15,48(x5)
    8000071c:	0010039b          	addiw	x7,x0,1
    80000720:	01f39393          	slli	x7,x7,0x1f
    80000724:	00f38463          	beq	x7,x15,0x8000072c
    80000728:	8fdff06f          	jal	x0,0x80000024
    8000072c:	00100593          	addi	x11,x0,1
    80000730:	01259593          	slli	x11,x11,0x12
    80000734:	01359b13          	slli	x22,x11,0x13
    80000738:	0362bc23          	sd	x22,56(x5)
    8000073c:	0010039b          	addiw	x7,x0,1
    80000740:	02539393          	slli	x7,x7,0x25
    80000744:	01638463          	beq	x7,x22,0x8000074c
    80000748:	8ddff06f          	jal	x0,0x80000024
    8000074c:	00100a13          	addi	x20,x0,1
    80000750:	013a1a13          	slli	x20,x20,0x13
    80000754:	007a1d13          	slli	x26,x20,0x7
    80000758:	05a2b023          	sd	x26,64(x5)
    8000075c:	040003b7          	lui	x7,0x4000
    80000760:	01a38463          	beq	x7,x26,0x80000768
    80000764:	8c1ff06f          	jal	x0,0x80000024
    80000768:	00100f93          	addi	x31,x0,1
    8000076c:	014f9f93          	slli	x31,x31,0x14
    80000770:	012f9113          	slli	x2,x31,0x12
    80000774:	0422b423          	sd	x2,72(x5)
    80000778:	0010039b          	addiw	x7,x0,1
    8000077c:	02639393          	slli	x7,x7,0x26
    80000780:	00238463          	beq	x7,x2,0x80000788
    80000784:	8a1ff06f          	jal	x0,0x80000024
    80000788:	00100893          	addi	x17,x0,1
    8000078c:	01589893          	slli	x17,x17,0x15
    80000790:	00c89a13          	slli	x20,x17,0xc
    80000794:	0542b823          	sd	x20,80(x5)
    80000798:	0010039b          	addiw	x7,x0,1
    8000079c:	02139393          	slli	x7,x7,0x21
    800007a0:	01438463          	beq	x7,x20,0x800007a8
    800007a4:	881ff06f          	jal	x0,0x80000024
    800007a8:	00000013          	addi	x0,x0,0
    800007ac:	01f01d93          	slli	x27,x0,0x1f
    800007b0:	05b2bc23          	sd	x27,88(x5)
    800007b4:	00000393          	addi	x7,x0,0
    800007b8:	01b38463          	beq	x7,x27,0x800007c0
    800007bc:	869ff06f          	jal	x0,0x80000024
    800007c0:	00100913          	addi	x18,x0,1
    800007c4:	01791913          	slli	x18,x18,0x17
    800007c8:	00991f13          	slli	x30,x18,0x9
    800007cc:	07e2b023          	sd	x30,96(x5)
    800007d0:	0010039b          	addiw	x7,x0,1
    800007d4:	02039393          	slli	x7,x7,0x20
    800007d8:	01e38463          	beq	x7,x30,0x800007e0
    800007dc:	849ff06f          	jal	x0,0x80000024
    800007e0:	00100513          	addi	x10,x0,1
    800007e4:	01851513          	slli	x10,x10,0x18
    800007e8:	00e51593          	slli	x11,x10,0xe
    800007ec:	06b2b423          	sd	x11,104(x5)
    800007f0:	0010039b          	addiw	x7,x0,1
    800007f4:	02639393          	slli	x7,x7,0x26
    800007f8:	00b38463          	beq	x7,x11,0x80000800
    800007fc:	829ff06f          	jal	x0,0x80000024
    80000800:	00100513          	addi	x10,x0,1
    80000804:	01951513          	slli	x10,x10,0x19
    80000808:	00751593          	slli	x11,x10,0x7
    8000080c:	06b2b823          	sd	x11,112(x5)
    80000810:	0010039b          	addiw	x7,x0,1
    80000814:	02039393          	slli	x7,x7,0x20
    80000818:	00b38463          	beq	x7,x11,0x80000820
    8000081c:	809ff06f          	jal	x0,0x80000024
    80000820:	00100513          	addi	x10,x0,1
    80000824:	01a51513          	slli	x10,x10,0x1a
    80000828:	00051593          	slli	x11,x10,0x0
    8000082c:	06b2bc23          	sd	x11,120(x5)
    80000830:	040003b7          	lui	x7,0x4000
    80000834:	00b38463          	beq	x7,x11,0x8000083c
    80000838:	fecff06f          	jal	x0,0x80000024
    8000083c:	00100513          	addi	x10,x0,1
    80000840:	01b51513          	slli	x10,x10,0x1b
    80000844:	03f51593          	slli	x11,x10,0x3f
    80000848:	08b2b023          	sd	x11,128(x5)
    8000084c:	00000393          	addi	x7,x0,0
    80000850:	00b38463          	beq	x7,x11,0x80000858
    80000854:	fd0ff06f          	jal	x0,0x80000024
    80000858:	00100513          	addi	x10,x0,1
    8000085c:	01c51513          	slli	x10,x10,0x1c
    80000860:	01151593          	slli	x11,x10,0x11
    80000864:	08b2b423          	sd	x11,136(x5)
    80000868:	0010039b          	addiw	x7,x0,1
    8000086c:	02d39393          	slli	x7,x7,0x2d
    80000870:	00b38463          	beq	x7,x11,0x80000878
    80000874:	fb0ff06f          	jal	x0,0x80000024
    80000878:	00100513          	addi	x10,x0,1
    8000087c:	01d51513          	slli	x10,x10,0x1d
    80000880:	00a51593          	slli	x11,x10,0xa
    80000884:	08b2b823          	sd	x11,144(x5)
    80000888:	0010039b          	addiw	x7,x0,1
    8000088c:	02739393          	slli	x7,x7,0x27
    80000890:	00b38463          	beq	x7,x11,0x80000898
    80000894:	f90ff06f          	jal	x0,0x80000024
    80000898:	00100513          	addi	x10,x0,1
    8000089c:	01e51513          	slli	x10,x10,0x1e
    800008a0:	01151593          	slli	x11,x10,0x11
    800008a4:	08b2bc23          	sd	x11,152(x5)
    800008a8:	0010039b          	addiw	x7,x0,1
    800008ac:	02f39393          	slli	x7,x7,0x2f
    800008b0:	00b38463          	beq	x7,x11,0x800008b8
    800008b4:	f70ff06f          	jal	x0,0x80000024
    800008b8:	00100513          	addi	x10,x0,1
    800008bc:	01f51513          	slli	x10,x10,0x1f
    800008c0:	00851593          	slli	x11,x10,0x8
    800008c4:	0ab2b023          	sd	x11,160(x5)
    800008c8:	0010039b          	addiw	x7,x0,1
    800008cc:	02739393          	slli	x7,x7,0x27
    800008d0:	00b38463          	beq	x7,x11,0x800008d8
    800008d4:	f50ff06f          	jal	x0,0x80000024
    800008d8:	00100513          	addi	x10,x0,1
    800008dc:	02051513          	slli	x10,x10,0x20
    800008e0:	00a51593          	slli	x11,x10,0xa
    800008e4:	0ab2b423          	sd	x11,168(x5)
    800008e8:	0010039b          	addiw	x7,x0,1
    800008ec:	02a39393          	slli	x7,x7,0x2a
    800008f0:	00b38463          	beq	x7,x11,0x800008f8
    800008f4:	f30ff06f          	jal	x0,0x80000024
    800008f8:	00100513          	addi	x10,x0,1
    800008fc:	02151513          	slli	x10,x10,0x21
    80000900:	01551593          	slli	x11,x10,0x15
    80000904:	0ab2b823          	sd	x11,176(x5)
    80000908:	0010039b          	addiw	x7,x0,1
    8000090c:	03639393          	slli	x7,x7,0x36
    80000910:	00b38463          	beq	x7,x11,0x80000918
    80000914:	f10ff06f          	jal	x0,0x80000024
    80000918:	00100513          	addi	x10,x0,1
    8000091c:	02251513          	slli	x10,x10,0x22
    80000920:	00751593          	slli	x11,x10,0x7
    80000924:	0ab2bc23          	sd	x11,184(x5)
    80000928:	0010039b          	addiw	x7,x0,1
    8000092c:	02939393          	slli	x7,x7,0x29
    80000930:	00b38463          	beq	x7,x11,0x80000938
    80000934:	ef0ff06f          	jal	x0,0x80000024
    80000938:	00100513          	addi	x10,x0,1
    8000093c:	02351513          	slli	x10,x10,0x23
    80000940:	03751593          	slli	x11,x10,0x37
    80000944:	0cb2b023          	sd	x11,192(x5)
    80000948:	00000393          	addi	x7,x0,0
    8000094c:	00b38463          	beq	x7,x11,0x80000954
    80000950:	ed4ff06f          	jal	x0,0x80000024
    80000954:	00100513          	addi	x10,x0,1
    80000958:	02451513          	slli	x10,x10,0x24
    8000095c:	00f51593          	slli	x11,x10,0xf
    80000960:	0cb2b423          	sd	x11,200(x5)
    80000964:	0010039b          	addiw	x7,x0,1
    80000968:	03339393          	slli	x7,x7,0x33
    8000096c:	00b38463          	beq	x7,x11,0x80000974
    80000970:	eb4ff06f          	jal	x0,0x80000024
    80000974:	00100513          	addi	x10,x0,1
    80000978:	02551513          	slli	x10,x10,0x25
    8000097c:	01551593          	slli	x11,x10,0x15
    80000980:	0cb2b823          	sd	x11,208(x5)
    80000984:	0010039b          	addiw	x7,x0,1
    80000988:	03a39393          	slli	x7,x7,0x3a
    8000098c:	00b38463          	beq	x7,x11,0x80000994
    80000990:	e94ff06f          	jal	x0,0x80000024
    80000994:	00100513          	addi	x10,x0,1
    80000998:	02651513          	slli	x10,x10,0x26
    8000099c:	02a51593          	slli	x11,x10,0x2a
    800009a0:	0cb2bc23          	sd	x11,216(x5)
    800009a4:	00000393          	addi	x7,x0,0
    800009a8:	00b38463          	beq	x7,x11,0x800009b0
    800009ac:	e78ff06f          	jal	x0,0x80000024
    800009b0:	00100513          	addi	x10,x0,1
    800009b4:	02751513          	slli	x10,x10,0x27
    800009b8:	00351593          	slli	x11,x10,0x3
    800009bc:	0eb2b023          	sd	x11,224(x5)
    800009c0:	0010039b          	addiw	x7,x0,1
    800009c4:	02a39393          	slli	x7,x7,0x2a
    800009c8:	00b38463          	beq	x7,x11,0x800009d0
    800009cc:	e58ff06f          	jal	x0,0x80000024
    800009d0:	00100513          	addi	x10,x0,1
    800009d4:	02851513          	slli	x10,x10,0x28
    800009d8:	03f51593          	slli	x11,x10,0x3f
    800009dc:	0eb2b423          	sd	x11,232(x5)
    800009e0:	00000393          	addi	x7,x0,0
    800009e4:	00b38463          	beq	x7,x11,0x800009ec
    800009e8:	e3cff06f          	jal	x0,0x80000024
    800009ec:	00100513          	addi	x10,x0,1
    800009f0:	02951513          	slli	x10,x10,0x29
    800009f4:	01151593          	slli	x11,x10,0x11
    800009f8:	0eb2b823          	sd	x11,240(x5)
    800009fc:	0010039b          	addiw	x7,x0,1
    80000a00:	03a39393          	slli	x7,x7,0x3a
    80000a04:	00b38463          	beq	x7,x11,0x80000a0c
    80000a08:	e1cff06f          	jal	x0,0x80000024
    80000a0c:	00100513          	addi	x10,x0,1
    80000a10:	02a51513          	slli	x10,x10,0x2a
    80000a14:	00751593          	slli	x11,x10,0x7
    80000a18:	0eb2bc23          	sd	x11,248(x5)
    80000a1c:	0010039b          	addiw	x7,x0,1
    80000a20:	03139393          	slli	x7,x7,0x31
    80000a24:	00b38463          	beq	x7,x11,0x80000a2c
    80000a28:	dfcff06f          	jal	x0,0x80000024
    80000a2c:	00100513          	addi	x10,x0,1
    80000a30:	02b51513          	slli	x10,x10,0x2b
    80000a34:	01351593          	slli	x11,x10,0x13
    80000a38:	10b2b023          	sd	x11,256(x5)
    80000a3c:	0010039b          	addiw	x7,x0,1
    80000a40:	03e39393          	slli	x7,x7,0x3e
    80000a44:	00b38463          	beq	x7,x11,0x80000a4c
    80000a48:	ddcff06f          	jal	x0,0x80000024
    80000a4c:	00100513          	addi	x10,x0,1
    80000a50:	02c51513          	slli	x10,x10,0x2c
    80000a54:	02f51593          	slli	x11,x10,0x2f
    80000a58:	10b2b423          	sd	x11,264(x5)
    80000a5c:	00000393          	addi	x7,x0,0
    80000a60:	00b38463          	beq	x7,x11,0x80000a68
    80000a64:	dc0ff06f          	jal	x0,0x80000024
    80000a68:	00100513          	addi	x10,x0,1
    80000a6c:	02d51513          	slli	x10,x10,0x2d
    80000a70:	03e51593          	slli	x11,x10,0x3e
    80000a74:	10b2b823          	sd	x11,272(x5)
    80000a78:	00000393          	addi	x7,x0,0
    80000a7c:	00b38463          	beq	x7,x11,0x80000a84
    80000a80:	da4ff06f          	jal	x0,0x80000024
    80000a84:	00100513          	addi	x10,x0,1
    80000a88:	02e51513          	slli	x10,x10,0x2e
    80000a8c:	00951593          	slli	x11,x10,0x9
    80000a90:	10b2bc23          	sd	x11,280(x5)
    80000a94:	0010039b          	addiw	x7,x0,1
    80000a98:	03739393          	slli	x7,x7,0x37
    80000a9c:	00b38463          	beq	x7,x11,0x80000aa4
    80000aa0:	d84ff06f          	jal	x0,0x80000024
    80000aa4:	00100513          	addi	x10,x0,1
    80000aa8:	02f51513          	slli	x10,x10,0x2f
    80000aac:	01551593          	slli	x11,x10,0x15
    80000ab0:	12b2b023          	sd	x11,288(x5)
    80000ab4:	00000393          	addi	x7,x0,0
    80000ab8:	00b38463          	beq	x7,x11,0x80000ac0
    80000abc:	d68ff06f          	jal	x0,0x80000024
    80000ac0:	00100513          	addi	x10,x0,1
    80000ac4:	03051513          	slli	x10,x10,0x30
    80000ac8:	00151593          	slli	x11,x10,0x1
    80000acc:	12b2b423          	sd	x11,296(x5)
    80000ad0:	0010039b          	addiw	x7,x0,1
    80000ad4:	03139393          	slli	x7,x7,0x31
    80000ad8:	00b38463          	beq	x7,x11,0x80000ae0
    80000adc:	d48ff06f          	jal	x0,0x80000024
    80000ae0:	00100513          	addi	x10,x0,1
    80000ae4:	03151513          	slli	x10,x10,0x31
    80000ae8:	00451593          	slli	x11,x10,0x4
    80000aec:	12b2b823          	sd	x11,304(x5)
    80000af0:	0010039b          	addiw	x7,x0,1
    80000af4:	03539393          	slli	x7,x7,0x35
    80000af8:	00b38463          	beq	x7,x11,0x80000b00
    80000afc:	d28ff06f          	jal	x0,0x80000024
    80000b00:	00100513          	addi	x10,x0,1
    80000b04:	03251513          	slli	x10,x10,0x32
    80000b08:	00151593          	slli	x11,x10,0x1
    80000b0c:	12b2bc23          	sd	x11,312(x5)
    80000b10:	0010039b          	addiw	x7,x0,1
    80000b14:	03339393          	slli	x7,x7,0x33
    80000b18:	00b38463          	beq	x7,x11,0x80000b20
    80000b1c:	d08ff06f          	jal	x0,0x80000024
    80000b20:	00100513          	addi	x10,x0,1
    80000b24:	03351513          	slli	x10,x10,0x33
    80000b28:	00651593          	slli	x11,x10,0x6
    80000b2c:	14b2b023          	sd	x11,320(x5)
    80000b30:	0010039b          	addiw	x7,x0,1
    80000b34:	03939393          	slli	x7,x7,0x39
    80000b38:	00b38463          	beq	x7,x11,0x80000b40
    80000b3c:	ce8ff06f          	jal	x0,0x80000024
    80000b40:	00100513          	addi	x10,x0,1
    80000b44:	03551513          	slli	x10,x10,0x35
    80000b48:	00c51593          	slli	x11,x10,0xc
    80000b4c:	14b2b423          	sd	x11,328(x5)
    80000b50:	00000393          	addi	x7,x0,0
    80000b54:	00b38463          	beq	x7,x11,0x80000b5c
    80000b58:	cccff06f          	jal	x0,0x80000024
    80000b5c:	00100513          	addi	x10,x0,1
    80000b60:	03651513          	slli	x10,x10,0x36
    80000b64:	03f51593          	slli	x11,x10,0x3f
    80000b68:	14b2b823          	sd	x11,336(x5)
    80000b6c:	00000393          	addi	x7,x0,0
    80000b70:	00b38463          	beq	x7,x11,0x80000b78
    80000b74:	cb0ff06f          	jal	x0,0x80000024
    80000b78:	00100513          	addi	x10,x0,1
    80000b7c:	03751513          	slli	x10,x10,0x37
    80000b80:	00251593          	slli	x11,x10,0x2
    80000b84:	14b2bc23          	sd	x11,344(x5)
    80000b88:	0010039b          	addiw	x7,x0,1
    80000b8c:	03939393          	slli	x7,x7,0x39
    80000b90:	00b38463          	beq	x7,x11,0x80000b98
    80000b94:	c90ff06f          	jal	x0,0x80000024
    80000b98:	00100513          	addi	x10,x0,1
    80000b9c:	03851513          	slli	x10,x10,0x38
    80000ba0:	00f51593          	slli	x11,x10,0xf
    80000ba4:	16b2b023          	sd	x11,352(x5)
    80000ba8:	00000393          	addi	x7,x0,0
    80000bac:	00b38463          	beq	x7,x11,0x80000bb4
    80000bb0:	c74ff06f          	jal	x0,0x80000024
    80000bb4:	00100513          	addi	x10,x0,1
    80000bb8:	03951513          	slli	x10,x10,0x39
    80000bbc:	00551593          	slli	x11,x10,0x5
    80000bc0:	16b2b423          	sd	x11,360(x5)
    80000bc4:	0010039b          	addiw	x7,x0,1
    80000bc8:	03e39393          	slli	x7,x7,0x3e
    80000bcc:	00b38463          	beq	x7,x11,0x80000bd4
    80000bd0:	c54ff06f          	jal	x0,0x80000024
    80000bd4:	00100513          	addi	x10,x0,1
    80000bd8:	03a51513          	slli	x10,x10,0x3a
    80000bdc:	02f51593          	slli	x11,x10,0x2f
    80000be0:	16b2b823          	sd	x11,368(x5)
    80000be4:	00000393          	addi	x7,x0,0
    80000be8:	00b38463          	beq	x7,x11,0x80000bf0
    80000bec:	c38ff06f          	jal	x0,0x80000024
    80000bf0:	00100513          	addi	x10,x0,1
    80000bf4:	03b51513          	slli	x10,x10,0x3b
    80000bf8:	01351593          	slli	x11,x10,0x13
    80000bfc:	16b2bc23          	sd	x11,376(x5)
    80000c00:	00000393          	addi	x7,x0,0
    80000c04:	00b38463          	beq	x7,x11,0x80000c0c
    80000c08:	c1cff06f          	jal	x0,0x80000024
    80000c0c:	00100513          	addi	x10,x0,1
    80000c10:	03c51513          	slli	x10,x10,0x3c
    80000c14:	01551593          	slli	x11,x10,0x15
    80000c18:	18b2b023          	sd	x11,384(x5)
    80000c1c:	00000393          	addi	x7,x0,0
    80000c20:	00b38463          	beq	x7,x11,0x80000c28
    80000c24:	c00ff06f          	jal	x0,0x80000024
    80000c28:	00100513          	addi	x10,x0,1
    80000c2c:	03d51513          	slli	x10,x10,0x3d
    80000c30:	00151593          	slli	x11,x10,0x1
    80000c34:	18b2b423          	sd	x11,392(x5)
    80000c38:	0010039b          	addiw	x7,x0,1
    80000c3c:	03e39393          	slli	x7,x7,0x3e
    80000c40:	00b38463          	beq	x7,x11,0x80000c48
    80000c44:	be0ff06f          	jal	x0,0x80000024
    80000c48:	00100513          	addi	x10,x0,1
    80000c4c:	03e51513          	slli	x10,x10,0x3e
    80000c50:	03b51593          	slli	x11,x10,0x3b
    80000c54:	18b2b823          	sd	x11,400(x5)
    80000c58:	00000393          	addi	x7,x0,0
    80000c5c:	00b38463          	beq	x7,x11,0x80000c64
    80000c60:	bc4ff06f          	jal	x0,0x80000024
    80000c64:	ffe00513          	addi	x10,x0,-2
    80000c68:	03751593          	slli	x11,x10,0x37
    80000c6c:	18b2bc23          	sd	x11,408(x5)
    80000c70:	fff0039b          	addiw	x7,x0,-1
    80000c74:	03839393          	slli	x7,x7,0x38
    80000c78:	00b38463          	beq	x7,x11,0x80000c80
    80000c7c:	ba8ff06f          	jal	x0,0x80000024
    80000c80:	ffd00513          	addi	x10,x0,-3
    80000c84:	01351593          	slli	x11,x10,0x13
    80000c88:	1ab2b023          	sd	x11,416(x5)
    80000c8c:	ffe803b7          	lui	x7,0xffe80
    80000c90:	00b38463          	beq	x7,x11,0x80000c98
    80000c94:	b90ff06f          	jal	x0,0x80000024
    80000c98:	ffb00513          	addi	x10,x0,-5
    80000c9c:	03b51593          	slli	x11,x10,0x3b
    80000ca0:	1ab2b423          	sd	x11,424(x5)
    80000ca4:	ffb0039b          	addiw	x7,x0,-5
    80000ca8:	03b39393          	slli	x7,x7,0x3b
    80000cac:	00b38463          	beq	x7,x11,0x80000cb4
    80000cb0:	b74ff06f          	jal	x0,0x80000024
    80000cb4:	fef00513          	addi	x10,x0,-17
    80000cb8:	01251593          	slli	x11,x10,0x12
    80000cbc:	1ab2b823          	sd	x11,432(x5)
    80000cc0:	ffbc03b7          	lui	x7,0xffbc0
    80000cc4:	00b38463          	beq	x7,x11,0x80000ccc
    80000cc8:	b5cff06f          	jal	x0,0x80000024
    80000ccc:	fdf00513          	addi	x10,x0,-33
    80000cd0:	03f51593          	slli	x11,x10,0x3f
    80000cd4:	1ab2bc23          	sd	x11,440(x5)
    80000cd8:	fff0039b          	addiw	x7,x0,-1
    80000cdc:	03f39393          	slli	x7,x7,0x3f
    80000ce0:	00b38463          	beq	x7,x11,0x80000ce8
    80000ce4:	b40ff06f          	jal	x0,0x80000024
    80000ce8:	fbf00513          	addi	x10,x0,-65
    80000cec:	01351593          	slli	x11,x10,0x13
    80000cf0:	1cb2b023          	sd	x11,448(x5)
    80000cf4:	fdf803b7          	lui	x7,0xfdf80
    80000cf8:	00b38463          	beq	x7,x11,0x80000d00
    80000cfc:	b28ff06f          	jal	x0,0x80000024
    80000d00:	f7f00513          	addi	x10,x0,-129
    80000d04:	03b51593          	slli	x11,x10,0x3b
    80000d08:	1cb2b423          	sd	x11,456(x5)
    80000d0c:	fff0039b          	addiw	x7,x0,-1
    80000d10:	03b39393          	slli	x7,x7,0x3b
    80000d14:	00b38463          	beq	x7,x11,0x80000d1c
    80000d18:	b0cff06f          	jal	x0,0x80000024
    80000d1c:	dff00513          	addi	x10,x0,-513
    80000d20:	01251593          	slli	x11,x10,0x12
    80000d24:	1cb2b823          	sd	x11,464(x5)
    80000d28:	f7fc03b7          	lui	x7,0xf7fc0
    80000d2c:	00b38463          	beq	x7,x11,0x80000d34
    80000d30:	af4ff06f          	jal	x0,0x80000024
    80000d34:	bff00513          	addi	x10,x0,-1025
    80000d38:	03e51593          	slli	x11,x10,0x3e
    80000d3c:	1cb2bc23          	sd	x11,472(x5)
    80000d40:	fff0039b          	addiw	x7,x0,-1
    80000d44:	03e39393          	slli	x7,x7,0x3e
    80000d48:	00b38463          	beq	x7,x11,0x80000d50
    80000d4c:	ad8ff06f          	jal	x0,0x80000024
    80000d50:	00100513          	addi	x10,x0,1
    80000d54:	00b51513          	slli	x10,x10,0xb
    80000d58:	fff54513          	xori	x10,x10,-1
    80000d5c:	00151593          	slli	x11,x10,0x1
    80000d60:	1eb2b023          	sd	x11,480(x5)
    80000d64:	fffff3b7          	lui	x7,0xfffff
    80000d68:	ffe3839b          	addiw	x7,x7,-2 # 0xffffffffffffeffe
    80000d6c:	00b38463          	beq	x7,x11,0x80000d74
    80000d70:	ab4ff06f          	jal	x0,0x80000024
    80000d74:	00100513          	addi	x10,x0,1
    80000d78:	00c51513          	slli	x10,x10,0xc
    80000d7c:	fff54513          	xori	x10,x10,-1
    80000d80:	01f51593          	slli	x11,x10,0x1f
    80000d84:	1eb2b423          	sd	x11,488(x5)
    80000d88:	fffff3b7          	lui	x7,0xfffff
    80000d8c:	fff3839b          	addiw	x7,x7,-1 # 0xffffffffffffefff
    80000d90:	01f39393          	slli	x7,x7,0x1f
    80000d94:	00b38463          	beq	x7,x11,0x80000d9c
    80000d98:	a8cff06f          	jal	x0,0x80000024
    80000d9c:	00100513          	addi	x10,x0,1
    80000da0:	00d51513          	slli	x10,x10,0xd
    80000da4:	fff54513          	xori	x10,x10,-1
    80000da8:	00251593          	slli	x11,x10,0x2
    80000dac:	1eb2b823          	sd	x11,496(x5)
    80000db0:	ffff83b7          	lui	x7,0xffff8
    80000db4:	ffc3839b          	addiw	x7,x7,-4 # 0xffffffffffff7ffc
    80000db8:	00b38463          	beq	x7,x11,0x80000dc0
    80000dbc:	a68ff06f          	jal	x0,0x80000024
    80000dc0:	00100513          	addi	x10,x0,1
    80000dc4:	00e51513          	slli	x10,x10,0xe
    80000dc8:	fff54513          	xori	x10,x10,-1
    80000dcc:	00c51593          	slli	x11,x10,0xc
    80000dd0:	1eb2bc23          	sd	x11,504(x5)
    80000dd4:	fbfff3b7          	lui	x7,0xfbfff
    80000dd8:	00b38463          	beq	x7,x11,0x80000de0
    80000ddc:	a48ff06f          	jal	x0,0x80000024
    80000de0:	00100513          	addi	x10,x0,1
    80000de4:	00f51513          	slli	x10,x10,0xf
    80000de8:	fff54513          	xori	x10,x10,-1
    80000dec:	00d51593          	slli	x11,x10,0xd
    80000df0:	20b2b023          	sd	x11,512(x5)
    80000df4:	efffe3b7          	lui	x7,0xefffe
    80000df8:	00b38463          	beq	x7,x11,0x80000e00
    80000dfc:	a28ff06f          	jal	x0,0x80000024
    80000e00:	00100513          	addi	x10,x0,1
    80000e04:	01051513          	slli	x10,x10,0x10
    80000e08:	fff54513          	xori	x10,x10,-1
    80000e0c:	00251593          	slli	x11,x10,0x2
    80000e10:	20b2b423          	sd	x11,520(x5)
    80000e14:	fffc03b7          	lui	x7,0xfffc0
    80000e18:	ffc3839b          	addiw	x7,x7,-4 # 0xfffffffffffbfffc
    80000e1c:	00b38463          	beq	x7,x11,0x80000e24
    80000e20:	a04ff06f          	jal	x0,0x80000024
    80000e24:	00100513          	addi	x10,x0,1
    80000e28:	01151513          	slli	x10,x10,0x11
    80000e2c:	fff54513          	xori	x10,x10,-1
    80000e30:	03d51593          	slli	x11,x10,0x3d
    80000e34:	20b2b823          	sd	x11,528(x5)
    80000e38:	fff0039b          	addiw	x7,x0,-1
    80000e3c:	03d39393          	slli	x7,x7,0x3d
    80000e40:	00b38463          	beq	x7,x11,0x80000e48
    80000e44:	9e0ff06f          	jal	x0,0x80000024
    80000e48:	00100513          	addi	x10,x0,1
    80000e4c:	01251513          	slli	x10,x10,0x12
    80000e50:	fff54513          	xori	x10,x10,-1
    80000e54:	03f51593          	slli	x11,x10,0x3f
    80000e58:	20b2bc23          	sd	x11,536(x5)
    80000e5c:	fff0039b          	addiw	x7,x0,-1
    80000e60:	03f39393          	slli	x7,x7,0x3f
    80000e64:	00b38463          	beq	x7,x11,0x80000e6c
    80000e68:	9bcff06f          	jal	x0,0x80000024
    80000e6c:	00100513          	addi	x10,x0,1
    80000e70:	01351513          	slli	x10,x10,0x13
    80000e74:	fff54513          	xori	x10,x10,-1
    80000e78:	00c51593          	slli	x11,x10,0xc
    80000e7c:	22b2b023          	sd	x11,544(x5)
    80000e80:	fff803b7          	lui	x7,0xfff80
    80000e84:	fff3839b          	addiw	x7,x7,-1 # 0xfffffffffff7ffff
    80000e88:	00c39393          	slli	x7,x7,0xc
    80000e8c:	00b38463          	beq	x7,x11,0x80000e94
    80000e90:	994ff06f          	jal	x0,0x80000024
    80000e94:	00100513          	addi	x10,x0,1
    80000e98:	01451513          	slli	x10,x10,0x14
    80000e9c:	fff54513          	xori	x10,x10,-1
    80000ea0:	00e51593          	slli	x11,x10,0xe
    80000ea4:	22b2b423          	sd	x11,552(x5)
    80000ea8:	fff003b7          	lui	x7,0xfff00
    80000eac:	fff3839b          	addiw	x7,x7,-1 # 0xffffffffffefffff
    80000eb0:	00e39393          	slli	x7,x7,0xe
    80000eb4:	00b38463          	beq	x7,x11,0x80000ebc
    80000eb8:	96cff06f          	jal	x0,0x80000024
    80000ebc:	00100513          	addi	x10,x0,1
    80000ec0:	01551513          	slli	x10,x10,0x15
    80000ec4:	fff54513          	xori	x10,x10,-1
    80000ec8:	03f51593          	slli	x11,x10,0x3f
    80000ecc:	22b2b823          	sd	x11,560(x5)
    80000ed0:	fff0039b          	addiw	x7,x0,-1
    80000ed4:	03f39393          	slli	x7,x7,0x3f
    80000ed8:	00b38463          	beq	x7,x11,0x80000ee0
    80000edc:	948ff06f          	jal	x0,0x80000024
    80000ee0:	00100513          	addi	x10,x0,1
    80000ee4:	03551513          	slli	x10,x10,0x35
    80000ee8:	fff54513          	xori	x10,x10,-1
    80000eec:	00f51593          	slli	x11,x10,0xf
    80000ef0:	22b2bc23          	sd	x11,568(x5)
    80000ef4:	ffff83b7          	lui	x7,0xffff8
    80000ef8:	00b38463          	beq	x7,x11,0x80000f00
    80000efc:	928ff06f          	jal	x0,0x80000024
    80000f00:	00100513          	addi	x10,x0,1
    80000f04:	03651513          	slli	x10,x10,0x36
    80000f08:	fff54513          	xori	x10,x10,-1
    80000f0c:	03e51593          	slli	x11,x10,0x3e
    80000f10:	24b2b023          	sd	x11,576(x5)
    80000f14:	fff0039b          	addiw	x7,x0,-1
    80000f18:	03e39393          	slli	x7,x7,0x3e
    80000f1c:	00b38463          	beq	x7,x11,0x80000f24
    80000f20:	904ff06f          	jal	x0,0x80000024
    80000f24:	00100513          	addi	x10,x0,1
    80000f28:	03751513          	slli	x10,x10,0x37
    80000f2c:	fff54513          	xori	x10,x10,-1
    80000f30:	00351593          	slli	x11,x10,0x3
    80000f34:	24b2b423          	sd	x11,584(x5)
    80000f38:	fff0039b          	addiw	x7,x0,-1
    80000f3c:	03a39393          	slli	x7,x7,0x3a
    80000f40:	ff838393          	addi	x7,x7,-8 # 0xffffffffffff7ff8
    80000f44:	00b38463          	beq	x7,x11,0x80000f4c
    80000f48:	8dcff06f          	jal	x0,0x80000024
    80000f4c:	00100513          	addi	x10,x0,1
    80000f50:	03851513          	slli	x10,x10,0x38
    80000f54:	fff54513          	xori	x10,x10,-1
    80000f58:	00c51593          	slli	x11,x10,0xc
    80000f5c:	24b2b823          	sd	x11,592(x5)
    80000f60:	fffff3b7          	lui	x7,0xfffff
    80000f64:	00b38463          	beq	x7,x11,0x80000f6c
    80000f68:	8bcff06f          	jal	x0,0x80000024
    80000f6c:	00100513          	addi	x10,x0,1
    80000f70:	03951513          	slli	x10,x10,0x39
    80000f74:	fff54513          	xori	x10,x10,-1
    80000f78:	00051593          	slli	x11,x10,0x0
    80000f7c:	24b2bc23          	sd	x11,600(x5)
    80000f80:	fff0039b          	addiw	x7,x0,-1
    80000f84:	03939393          	slli	x7,x7,0x39
    80000f88:	fff38393          	addi	x7,x7,-1 # 0xffffffffffffefff
    80000f8c:	00b38463          	beq	x7,x11,0x80000f94
    80000f90:	894ff06f          	jal	x0,0x80000024
    80000f94:	00100513          	addi	x10,x0,1
    80000f98:	03a51513          	slli	x10,x10,0x3a
    80000f9c:	fff54513          	xori	x10,x10,-1
    80000fa0:	00351593          	slli	x11,x10,0x3
    80000fa4:	26b2b023          	sd	x11,608(x5)
    80000fa8:	fff0039b          	addiw	x7,x0,-1
    80000fac:	03d39393          	slli	x7,x7,0x3d
    80000fb0:	ff838393          	addi	x7,x7,-8
    80000fb4:	00b38463          	beq	x7,x11,0x80000fbc
    80000fb8:	86cff06f          	jal	x0,0x80000024
    80000fbc:	00100513          	addi	x10,x0,1
    80000fc0:	03b51513          	slli	x10,x10,0x3b
    80000fc4:	fff54513          	xori	x10,x10,-1
    80000fc8:	00251593          	slli	x11,x10,0x2
    80000fcc:	26b2b423          	sd	x11,616(x5)
    80000fd0:	fff0039b          	addiw	x7,x0,-1
    80000fd4:	03d39393          	slli	x7,x7,0x3d
    80000fd8:	ffc38393          	addi	x7,x7,-4
    80000fdc:	00b38463          	beq	x7,x11,0x80000fe4
    80000fe0:	844ff06f          	jal	x0,0x80000024
    80000fe4:	00100513          	addi	x10,x0,1
    80000fe8:	03c51513          	slli	x10,x10,0x3c
    80000fec:	fff54513          	xori	x10,x10,-1
    80000ff0:	00451593          	slli	x11,x10,0x4
    80000ff4:	26b2b823          	sd	x11,624(x5)
    80000ff8:	ff000393          	addi	x7,x0,-16
    80000ffc:	00b38463          	beq	x7,x11,0x80001004
    80001000:	824ff06f          	jal	x0,0x80000024
    80001004:	00100513          	addi	x10,x0,1
    80001008:	03d51513          	slli	x10,x10,0x3d
    8000100c:	fff54513          	xori	x10,x10,-1
    80001010:	01051593          	slli	x11,x10,0x10
    80001014:	26b2bc23          	sd	x11,632(x5)
    80001018:	ffff03b7          	lui	x7,0xffff0
    8000101c:	00b38463          	beq	x7,x11,0x80001024
    80001020:	804ff06f          	jal	x0,0x80000024
    80001024:	00100513          	addi	x10,x0,1
    80001028:	03e51513          	slli	x10,x10,0x3e
    8000102c:	fff54513          	xori	x10,x10,-1
    80001030:	03e51593          	slli	x11,x10,0x3e
    80001034:	28b2b023          	sd	x11,640(x5)
    80001038:	fff0039b          	addiw	x7,x0,-1
    8000103c:	03e39393          	slli	x7,x7,0x3e
    80001040:	00b38463          	beq	x7,x11,0x80001048
    80001044:	fe1fe06f          	jal	x0,0x80000024
    80001048:	55555537          	lui	x10,0x55555
    8000104c:	55550513          	addi	x10,x10,1365 # 0x55555555
    80001050:	00b51513          	slli	x10,x10,0xb
    80001054:	2aa50513          	addi	x10,x10,682
    80001058:	00b51513          	slli	x10,x10,0xb
    8000105c:	55550513          	addi	x10,x10,1365
    80001060:	00a51513          	slli	x10,x10,0xa
    80001064:	15550513          	addi	x10,x10,341
    80001068:	00251593          	slli	x11,x10,0x2
    8000106c:	28b2b423          	sd	x11,648(x5)
    80001070:	055553b7          	lui	x7,0x5555
    80001074:	5553839b          	addiw	x7,x7,1365 # 0x5555555
    80001078:	00c39393          	slli	x7,x7,0xc
    8000107c:	55538393          	addi	x7,x7,1365
    80001080:	00c39393          	slli	x7,x7,0xc
    80001084:	55538393          	addi	x7,x7,1365
    80001088:	00c39393          	slli	x7,x7,0xc
    8000108c:	55438393          	addi	x7,x7,1364
    80001090:	00b38463          	beq	x7,x11,0x80001098
    80001094:	f91fe06f          	jal	x0,0x80000024
    80001098:	aaaab537          	lui	x10,0xaaaab
    8000109c:	aaa50513          	addi	x10,x10,-1366 # 0xffffffffaaaaaaaa
    800010a0:	00b51513          	slli	x10,x10,0xb
    800010a4:	55550513          	addi	x10,x10,1365
    800010a8:	00b51513          	slli	x10,x10,0xb
    800010ac:	2aa50513          	addi	x10,x10,682
    800010b0:	00a51513          	slli	x10,x10,0xa
    800010b4:	2aa50513          	addi	x10,x10,682
    800010b8:	00251593          	slli	x11,x10,0x2
    800010bc:	28b2b823          	sd	x11,656(x5)
    800010c0:	faaab3b7          	lui	x7,0xfaaab
    800010c4:	aab3839b          	addiw	x7,x7,-1365 # 0xfffffffffaaaaaab
    800010c8:	00c39393          	slli	x7,x7,0xc
    800010cc:	aab38393          	addi	x7,x7,-1365
    800010d0:	00c39393          	slli	x7,x7,0xc
    800010d4:	aab38393          	addi	x7,x7,-1365
    800010d8:	00c39393          	slli	x7,x7,0xc
    800010dc:	aa838393          	addi	x7,x7,-1368
    800010e0:	00b38463          	beq	x7,x11,0x800010e8
    800010e4:	f41fe06f          	jal	x0,0x80000024
    800010e8:	00300513          	addi	x10,x0,3
    800010ec:	01051593          	slli	x11,x10,0x10
    800010f0:	28b2bc23          	sd	x11,664(x5)
    800010f4:	000303b7          	lui	x7,0x30
    800010f8:	00b38463          	beq	x7,x11,0x80001100
    800010fc:	f29fe06f          	jal	x0,0x80000024
    80001100:	00500513          	addi	x10,x0,5
    80001104:	03b51593          	slli	x11,x10,0x3b
    80001108:	2ab2b023          	sd	x11,672(x5)
    8000110c:	0050039b          	addiw	x7,x0,5
    80001110:	03b39393          	slli	x7,x7,0x3b
    80001114:	00b38463          	beq	x7,x11,0x8000111c
    80001118:	f0dfe06f          	jal	x0,0x80000024
    8000111c:	33333537          	lui	x10,0x33333
    80001120:	33350513          	addi	x10,x10,819 # 0x33333333
    80001124:	00b51513          	slli	x10,x10,0xb
    80001128:	19950513          	addi	x10,x10,409
    8000112c:	00b51513          	slli	x10,x10,0xb
    80001130:	4cc50513          	addi	x10,x10,1228
    80001134:	00a51513          	slli	x10,x10,0xa
    80001138:	33350513          	addi	x10,x10,819
    8000113c:	02a51593          	slli	x11,x10,0x2a
    80001140:	2ab2b423          	sd	x11,680(x5)
    80001144:	fff333b7          	lui	x7,0xfff33
    80001148:	3333839b          	addiw	x7,x7,819 # 0xfffffffffff33333
    8000114c:	02a39393          	slli	x7,x7,0x2a
    80001150:	00b38463          	beq	x7,x11,0x80001158
    80001154:	ed1fe06f          	jal	x0,0x80000024
    80001158:	66666537          	lui	x10,0x66666
    8000115c:	66650513          	addi	x10,x10,1638 # 0x66666666
    80001160:	00b51513          	slli	x10,x10,0xb
    80001164:	33350513          	addi	x10,x10,819
    80001168:	00b51513          	slli	x10,x10,0xb
    8000116c:	19950513          	addi	x10,x10,409
    80001170:	00a51513          	slli	x10,x10,0xa
    80001174:	26650513          	addi	x10,x10,614
    80001178:	00a51593          	slli	x11,x10,0xa
    8000117c:	2ab2b823          	sd	x11,688(x5)
    80001180:	fcccd3b7          	lui	x7,0xfcccd
    80001184:	ccd3839b          	addiw	x7,x7,-819 # 0xfffffffffccccccd
    80001188:	00c39393          	slli	x7,x7,0xc
    8000118c:	ccd38393          	addi	x7,x7,-819
    80001190:	00c39393          	slli	x7,x7,0xc
    80001194:	ccd38393          	addi	x7,x7,-819
    80001198:	00d39393          	slli	x7,x7,0xd
    8000119c:	80038393          	addi	x7,x7,-2048
    800011a0:	00b38463          	beq	x7,x11,0x800011a8
    800011a4:	e81fe06f          	jal	x0,0x80000024
    800011a8:	00000537          	lui	x10,0x0
    800011ac:	fff50513          	addi	x10,x10,-1 # 0xffffffffffffffff
    800011b0:	00b51513          	slli	x10,x10,0xb
    800011b4:	25750513          	addi	x10,x10,599
    800011b8:	00b51513          	slli	x10,x10,0xb
    800011bc:	6c350513          	addi	x10,x10,1731
    800011c0:	00a51513          	slli	x10,x10,0xa
    800011c4:	0cd50513          	addi	x10,x10,205
    800011c8:	03b51593          	slli	x11,x10,0x3b
    800011cc:	2ab2bc23          	sd	x11,696(x5)
    800011d0:	00d0039b          	addiw	x7,x0,13
    800011d4:	03b39393          	slli	x7,x7,0x3b
    800011d8:	00b38463          	beq	x7,x11,0x800011e0
    800011dc:	e49fe06f          	jal	x0,0x80000024
    800011e0:	00000537          	lui	x10,0x0
    800011e4:	00050513          	addi	x10,x10,0 # 0x0
    800011e8:	00b51513          	slli	x10,x10,0xb
    800011ec:	5a850513          	addi	x10,x10,1448
    800011f0:	00b51513          	slli	x10,x10,0xb
    800011f4:	13c50513          	addi	x10,x10,316
    800011f8:	00a51513          	slli	x10,x10,0xa
    800011fc:	33350513          	addi	x10,x10,819
    80001200:	00951593          	slli	x11,x10,0x9
    80001204:	2cb2b023          	sd	x11,704(x5)
    80001208:	0b5053b7          	lui	x7,0xb505
    8000120c:	f333839b          	addiw	x7,x7,-205 # 0xb504f33
    80001210:	00d39393          	slli	x7,x7,0xd
    80001214:	60038393          	addi	x7,x7,1536
    80001218:	00b38463          	beq	x7,x11,0x80001220
    8000121c:	e09fe06f          	jal	x0,0x80000024
    80001220:	55555537          	lui	x10,0x55555
    80001224:	55550513          	addi	x10,x10,1365 # 0x55555555
    80001228:	00b51513          	slli	x10,x10,0xb
    8000122c:	2aa50513          	addi	x10,x10,682
    80001230:	00b51513          	slli	x10,x10,0xb
    80001234:	55550513          	addi	x10,x10,1365
    80001238:	00a51513          	slli	x10,x10,0xa
    8000123c:	15450513          	addi	x10,x10,340
    80001240:	01051593          	slli	x11,x10,0x10
    80001244:	2cb2b423          	sd	x11,712(x5)
    80001248:	001553b7          	lui	x7,0x155
    8000124c:	5553839b          	addiw	x7,x7,1365 # 0x155555
    80001250:	00c39393          	slli	x7,x7,0xc
    80001254:	55538393          	addi	x7,x7,1365
    80001258:	00c39393          	slli	x7,x7,0xc
    8000125c:	55538393          	addi	x7,x7,1365
    80001260:	01239393          	slli	x7,x7,0x12
    80001264:	00b38463          	beq	x7,x11,0x8000126c
    80001268:	dbdfe06f          	jal	x0,0x80000024
    8000126c:	33333537          	lui	x10,0x33333
    80001270:	33350513          	addi	x10,x10,819 # 0x33333333
    80001274:	00b51513          	slli	x10,x10,0xb
    80001278:	19950513          	addi	x10,x10,409
    8000127c:	00b51513          	slli	x10,x10,0xb
    80001280:	4cc50513          	addi	x10,x10,1228
    80001284:	00a51513          	slli	x10,x10,0xa
    80001288:	33250513          	addi	x10,x10,818
    8000128c:	03751593          	slli	x11,x10,0x37
    80001290:	2cb2b823          	sd	x11,720(x5)
    80001294:	f990039b          	addiw	x7,x0,-103
    80001298:	03839393          	slli	x7,x7,0x38
    8000129c:	00b38463          	beq	x7,x11,0x800012a4
    800012a0:	d85fe06f          	jal	x0,0x80000024
    800012a4:	66666537          	lui	x10,0x66666
    800012a8:	66650513          	addi	x10,x10,1638 # 0x66666666
    800012ac:	00b51513          	slli	x10,x10,0xb
    800012b0:	33350513          	addi	x10,x10,819
    800012b4:	00b51513          	slli	x10,x10,0xb
    800012b8:	19950513          	addi	x10,x10,409
    800012bc:	00a51513          	slli	x10,x10,0xa
    800012c0:	26550513          	addi	x10,x10,613
    800012c4:	03e51593          	slli	x11,x10,0x3e
    800012c8:	2cb2bc23          	sd	x11,728(x5)
    800012cc:	0010039b          	addiw	x7,x0,1
    800012d0:	03e39393          	slli	x7,x7,0x3e
    800012d4:	00b38463          	beq	x7,x11,0x800012dc
    800012d8:	d4dfe06f          	jal	x0,0x80000024
    800012dc:	00000537          	lui	x10,0x0
    800012e0:	00050513          	addi	x10,x10,0 # 0x0
    800012e4:	00b51513          	slli	x10,x10,0xb
    800012e8:	5a850513          	addi	x10,x10,1448
    800012ec:	00b51513          	slli	x10,x10,0xb
    800012f0:	13c50513          	addi	x10,x10,316
    800012f4:	00a51513          	slli	x10,x10,0xa
    800012f8:	33250513          	addi	x10,x10,818
    800012fc:	01351593          	slli	x11,x10,0x13
    80001300:	2eb2b023          	sd	x11,736(x5)
    80001304:	5a8283b7          	lui	x7,0x5a828
    80001308:	9993839b          	addiw	x7,x7,-1639 # 0x5a827999
    8000130c:	01439393          	slli	x7,x7,0x14
    80001310:	00b38463          	beq	x7,x11,0x80001318
    80001314:	d11fe06f          	jal	x0,0x80000024
    80001318:	55555537          	lui	x10,0x55555
    8000131c:	55550513          	addi	x10,x10,1365 # 0x55555555
    80001320:	00b51513          	slli	x10,x10,0xb
    80001324:	2aa50513          	addi	x10,x10,682
    80001328:	00b51513          	slli	x10,x10,0xb
    8000132c:	55550513          	addi	x10,x10,1365
    80001330:	00a51513          	slli	x10,x10,0xa
    80001334:	15650513          	addi	x10,x10,342
    80001338:	01251593          	slli	x11,x10,0x12
    8000133c:	2eb2b423          	sd	x11,744(x5)
    80001340:	000ab3b7          	lui	x7,0xab
    80001344:	aab3839b          	addiw	x7,x7,-1365 # 0xaaaab
    80001348:	00c39393          	slli	x7,x7,0xc
    8000134c:	aab38393          	addi	x7,x7,-1365
    80001350:	00c39393          	slli	x7,x7,0xc
    80001354:	aab38393          	addi	x7,x7,-1365
    80001358:	01339393          	slli	x7,x7,0x13
    8000135c:	00b38463          	beq	x7,x11,0x80001364
    80001360:	cc5fe06f          	jal	x0,0x80000024
    80001364:	aaaab537          	lui	x10,0xaaaab
    80001368:	aaa50513          	addi	x10,x10,-1366 # 0xffffffffaaaaaaaa
    8000136c:	00b51513          	slli	x10,x10,0xb
    80001370:	55550513          	addi	x10,x10,1365
    80001374:	00b51513          	slli	x10,x10,0xb
    80001378:	2aa50513          	addi	x10,x10,682
    8000137c:	00a51513          	slli	x10,x10,0xa
    80001380:	2ab50513          	addi	x10,x10,683
    80001384:	00f51593          	slli	x11,x10,0xf
    80001388:	2eb2b823          	sd	x11,752(x5)
    8000138c:	00aab3b7          	lui	x7,0xaab
    80001390:	aab3839b          	addiw	x7,x7,-1365 # 0xaaaaab
    80001394:	00c39393          	slli	x7,x7,0xc
    80001398:	aab38393          	addi	x7,x7,-1365
    8000139c:	00c39393          	slli	x7,x7,0xc
    800013a0:	aab38393          	addi	x7,x7,-1365
    800013a4:	00f39393          	slli	x7,x7,0xf
    800013a8:	00b38463          	beq	x7,x11,0x800013b0
    800013ac:	c79fe06f          	jal	x0,0x80000024
    800013b0:	00600513          	addi	x10,x0,6
    800013b4:	00751593          	slli	x11,x10,0x7
    800013b8:	2eb2bc23          	sd	x11,760(x5)
    800013bc:	30000393          	addi	x7,x0,768
    800013c0:	00b38463          	beq	x7,x11,0x800013c8
    800013c4:	c61fe06f          	jal	x0,0x80000024
    800013c8:	33333537          	lui	x10,0x33333
    800013cc:	33350513          	addi	x10,x10,819 # 0x33333333
    800013d0:	00b51513          	slli	x10,x10,0xb
    800013d4:	19950513          	addi	x10,x10,409
    800013d8:	00b51513          	slli	x10,x10,0xb
    800013dc:	4cc50513          	addi	x10,x10,1228
    800013e0:	00a51513          	slli	x10,x10,0xa
    800013e4:	33450513          	addi	x10,x10,820
    800013e8:	00751593          	slli	x11,x10,0x7
    800013ec:	30b2b023          	sd	x11,768(x5)
    800013f0:	fcccd3b7          	lui	x7,0xfcccd
    800013f4:	ccd3839b          	addiw	x7,x7,-819 # 0xfffffffffccccccd
    800013f8:	00c39393          	slli	x7,x7,0xc
    800013fc:	ccd38393          	addi	x7,x7,-819
    80001400:	00c39393          	slli	x7,x7,0xc
    80001404:	ccd38393          	addi	x7,x7,-819
    80001408:	00d39393          	slli	x7,x7,0xd
    8000140c:	a0038393          	addi	x7,x7,-1536
    80001410:	00b38463          	beq	x7,x11,0x80001418
    80001414:	c11fe06f          	jal	x0,0x80000024
    80001418:	66666537          	lui	x10,0x66666
    8000141c:	66650513          	addi	x10,x10,1638 # 0x66666666
    80001420:	00b51513          	slli	x10,x10,0xb
    80001424:	33350513          	addi	x10,x10,819
    80001428:	00b51513          	slli	x10,x10,0xb
    8000142c:	19950513          	addi	x10,x10,409
    80001430:	00a51513          	slli	x10,x10,0xa
    80001434:	26750513          	addi	x10,x10,615
    80001438:	02051593          	slli	x11,x10,0x20
    8000143c:	30b2b423          	sd	x11,776(x5)
    80001440:	666663b7          	lui	x7,0x66666
    80001444:	6673839b          	addiw	x7,x7,1639 # 0x66666667
    80001448:	02039393          	slli	x7,x7,0x20
    8000144c:	00b38463          	beq	x7,x11,0x80001454
    80001450:	bd5fe06f          	jal	x0,0x80000024
    80001454:	00000537          	lui	x10,0x0
    80001458:	fff50513          	addi	x10,x10,-1 # 0xffffffffffffffff
    8000145c:	00b51513          	slli	x10,x10,0xb
    80001460:	25750513          	addi	x10,x10,599
    80001464:	00b51513          	slli	x10,x10,0xb
    80001468:	6c350513          	addi	x10,x10,1731
    8000146c:	00a51513          	slli	x10,x10,0xa
    80001470:	0ce50513          	addi	x10,x10,206
    80001474:	00851593          	slli	x11,x10,0x8
    80001478:	30b2b823          	sd	x11,784(x5)
    8000147c:	f4afb3b7          	lui	x7,0xf4afb
    80001480:	0cd3839b          	addiw	x7,x7,205 # 0xfffffffff4afb0cd
    80001484:	00c39393          	slli	x7,x7,0xc
    80001488:	e0038393          	addi	x7,x7,-512
    8000148c:	00b38463          	beq	x7,x11,0x80001494
    80001490:	b95fe06f          	jal	x0,0x80000024
    80001494:	00100513          	addi	x10,x0,1
    80001498:	01651513          	slli	x10,x10,0x16
    8000149c:	fff54513          	xori	x10,x10,-1
    800014a0:	00651593          	slli	x11,x10,0x6
    800014a4:	30b2bc23          	sd	x11,792(x5)
    800014a8:	f00003b7          	lui	x7,0xf0000
    800014ac:	fc03839b          	addiw	x7,x7,-64 # 0xffffffffefffffc0
    800014b0:	00b38463          	beq	x7,x11,0x800014b8
    800014b4:	b71fe06f          	jal	x0,0x80000024
    800014b8:	00000537          	lui	x10,0x0
    800014bc:	00050513          	addi	x10,x10,0 # 0x0
    800014c0:	00b51513          	slli	x10,x10,0xb
    800014c4:	5a850513          	addi	x10,x10,1448
    800014c8:	00b51513          	slli	x10,x10,0xb
    800014cc:	13c50513          	addi	x10,x10,316
    800014d0:	00a51513          	slli	x10,x10,0xa
    800014d4:	33450513          	addi	x10,x10,820
    800014d8:	03e51593          	slli	x11,x10,0x3e
    800014dc:	32b2b023          	sd	x11,800(x5)
    800014e0:	00000393          	addi	x7,x0,0
    800014e4:	00b38463          	beq	x7,x11,0x800014ec
    800014e8:	b3dfe06f          	jal	x0,0x80000024
    800014ec:	00100513          	addi	x10,x0,1
    800014f0:	01751513          	slli	x10,x10,0x17
    800014f4:	fff54513          	xori	x10,x10,-1
    800014f8:	03751593          	slli	x11,x10,0x37
    800014fc:	32b2b423          	sd	x11,808(x5)
    80001500:	fff0039b          	addiw	x7,x0,-1
    80001504:	03739393          	slli	x7,x7,0x37
    80001508:	00b38463          	beq	x7,x11,0x80001510
    8000150c:	b19fe06f          	jal	x0,0x80000024
    80001510:	00100513          	addi	x10,x0,1
    80001514:	01851513          	slli	x10,x10,0x18
    80001518:	fff54513          	xori	x10,x10,-1
    8000151c:	02a51593          	slli	x11,x10,0x2a
    80001520:	32b2b823          	sd	x11,816(x5)
    80001524:	fff0039b          	addiw	x7,x0,-1
    80001528:	02a39393          	slli	x7,x7,0x2a
    8000152c:	00b38463          	beq	x7,x11,0x80001534
    80001530:	af5fe06f          	jal	x0,0x80000024
    80001534:	00100513          	addi	x10,x0,1
    80001538:	01951513          	slli	x10,x10,0x19
    8000153c:	fff54513          	xori	x10,x10,-1
    80001540:	01151593          	slli	x11,x10,0x11
    80001544:	32b2bc23          	sd	x11,824(x5)
    80001548:	fe0003b7          	lui	x7,0xfe000
    8000154c:	fff3839b          	addiw	x7,x7,-1 # 0xfffffffffdffffff
    80001550:	01139393          	slli	x7,x7,0x11
    80001554:	00b38463          	beq	x7,x11,0x8000155c
    80001558:	acdfe06f          	jal	x0,0x80000024
    8000155c:	00100513          	addi	x10,x0,1
    80001560:	01a51513          	slli	x10,x10,0x1a
    80001564:	fff54513          	xori	x10,x10,-1
    80001568:	00851593          	slli	x11,x10,0x8
    8000156c:	34b2b023          	sd	x11,832(x5)
    80001570:	fff0039b          	addiw	x7,x0,-1
    80001574:	02239393          	slli	x7,x7,0x22
    80001578:	f0038393          	addi	x7,x7,-256
    8000157c:	00b38463          	beq	x7,x11,0x80001584
    80001580:	aa5fe06f          	jal	x0,0x80000024
    80001584:	00100513          	addi	x10,x0,1
    80001588:	01b51513          	slli	x10,x10,0x1b
    8000158c:	fff54513          	xori	x10,x10,-1
    80001590:	00051593          	slli	x11,x10,0x0
    80001594:	34b2b423          	sd	x11,840(x5)
    80001598:	f80003b7          	lui	x7,0xf8000
    8000159c:	fff3839b          	addiw	x7,x7,-1 # 0xfffffffff7ffffff
    800015a0:	00b38463          	beq	x7,x11,0x800015a8
    800015a4:	a81fe06f          	jal	x0,0x80000024
    800015a8:	00100513          	addi	x10,x0,1
    800015ac:	01c51513          	slli	x10,x10,0x1c
    800015b0:	fff54513          	xori	x10,x10,-1
    800015b4:	00b51593          	slli	x11,x10,0xb
    800015b8:	34b2b823          	sd	x11,848(x5)
    800015bc:	fff0039b          	addiw	x7,x0,-1
    800015c0:	02739393          	slli	x7,x7,0x27
    800015c4:	80038393          	addi	x7,x7,-2048
    800015c8:	00b38463          	beq	x7,x11,0x800015d0
    800015cc:	a59fe06f          	jal	x0,0x80000024
    800015d0:	00100513          	addi	x10,x0,1
    800015d4:	01e51513          	slli	x10,x10,0x1e
    800015d8:	fff54513          	xori	x10,x10,-1
    800015dc:	00951593          	slli	x11,x10,0x9
    800015e0:	34b2bc23          	sd	x11,856(x5)
    800015e4:	fff0039b          	addiw	x7,x0,-1
    800015e8:	02739393          	slli	x7,x7,0x27
    800015ec:	e0038393          	addi	x7,x7,-512
    800015f0:	00b38463          	beq	x7,x11,0x800015f8
    800015f4:	a31fe06f          	jal	x0,0x80000024
    800015f8:	00100513          	addi	x10,x0,1
    800015fc:	01f51513          	slli	x10,x10,0x1f
    80001600:	fff54513          	xori	x10,x10,-1
    80001604:	00251593          	slli	x11,x10,0x2
    80001608:	36b2b023          	sd	x11,864(x5)
    8000160c:	fff0039b          	addiw	x7,x0,-1
    80001610:	02139393          	slli	x7,x7,0x21
    80001614:	ffc38393          	addi	x7,x7,-4
    80001618:	00b38463          	beq	x7,x11,0x80001620
    8000161c:	a09fe06f          	jal	x0,0x80000024
    80001620:	00100513          	addi	x10,x0,1
    80001624:	02051513          	slli	x10,x10,0x20
    80001628:	fff54513          	xori	x10,x10,-1
    8000162c:	03751593          	slli	x11,x10,0x37
    80001630:	36b2b423          	sd	x11,872(x5)
    80001634:	fff0039b          	addiw	x7,x0,-1
    80001638:	03739393          	slli	x7,x7,0x37
    8000163c:	00b38463          	beq	x7,x11,0x80001644
    80001640:	9e5fe06f          	jal	x0,0x80000024
    80001644:	00100513          	addi	x10,x0,1
    80001648:	02151513          	slli	x10,x10,0x21
    8000164c:	fff54513          	xori	x10,x10,-1
    80001650:	00751593          	slli	x11,x10,0x7
    80001654:	36b2b823          	sd	x11,880(x5)
    80001658:	fff0039b          	addiw	x7,x0,-1
    8000165c:	02839393          	slli	x7,x7,0x28
    80001660:	f8038393          	addi	x7,x7,-128
    80001664:	00b38463          	beq	x7,x11,0x8000166c
    80001668:	9bdfe06f          	jal	x0,0x80000024
    8000166c:	00100513          	addi	x10,x0,1
    80001670:	02251513          	slli	x10,x10,0x22
    80001674:	fff54513          	xori	x10,x10,-1
    80001678:	00451593          	slli	x11,x10,0x4
    8000167c:	36b2bc23          	sd	x11,888(x5)
    80001680:	fff0039b          	addiw	x7,x0,-1
    80001684:	02639393          	slli	x7,x7,0x26
    80001688:	ff038393          	addi	x7,x7,-16
    8000168c:	00b38463          	beq	x7,x11,0x80001694
    80001690:	995fe06f          	jal	x0,0x80000024
    80001694:	00100513          	addi	x10,x0,1
    80001698:	02351513          	slli	x10,x10,0x23
    8000169c:	fff54513          	xori	x10,x10,-1
    800016a0:	00351593          	slli	x11,x10,0x3
    800016a4:	38b2b023          	sd	x11,896(x5)
    800016a8:	fff0039b          	addiw	x7,x0,-1
    800016ac:	02639393          	slli	x7,x7,0x26
    800016b0:	ff838393          	addi	x7,x7,-8
    800016b4:	00b38463          	beq	x7,x11,0x800016bc
    800016b8:	96dfe06f          	jal	x0,0x80000024
    800016bc:	00100513          	addi	x10,x0,1
    800016c0:	02451513          	slli	x10,x10,0x24
    800016c4:	fff54513          	xori	x10,x10,-1
    800016c8:	03e51593          	slli	x11,x10,0x3e
    800016cc:	38b2b423          	sd	x11,904(x5)
    800016d0:	fff0039b          	addiw	x7,x0,-1
    800016d4:	03e39393          	slli	x7,x7,0x3e
    800016d8:	00b38463          	beq	x7,x11,0x800016e0
    800016dc:	949fe06f          	jal	x0,0x80000024
    800016e0:	00100513          	addi	x10,x0,1
    800016e4:	02551513          	slli	x10,x10,0x25
    800016e8:	fff54513          	xori	x10,x10,-1
    800016ec:	00d51593          	slli	x11,x10,0xd
    800016f0:	38b2b823          	sd	x11,912(x5)
    800016f4:	fff0039b          	addiw	x7,x0,-1
    800016f8:	02539393          	slli	x7,x7,0x25
    800016fc:	fff38393          	addi	x7,x7,-1
    80001700:	00d39393          	slli	x7,x7,0xd
    80001704:	00b38463          	beq	x7,x11,0x8000170c
    80001708:	91dfe06f          	jal	x0,0x80000024
    8000170c:	00100513          	addi	x10,x0,1
    80001710:	02651513          	slli	x10,x10,0x26
    80001714:	fff54513          	xori	x10,x10,-1
    80001718:	00651593          	slli	x11,x10,0x6
    8000171c:	38b2bc23          	sd	x11,920(x5)
    80001720:	fff0039b          	addiw	x7,x0,-1
    80001724:	02c39393          	slli	x7,x7,0x2c
    80001728:	fc038393          	addi	x7,x7,-64
    8000172c:	00b38463          	beq	x7,x11,0x80001734
    80001730:	8f5fe06f          	jal	x0,0x80000024
    80001734:	00100513          	addi	x10,x0,1
    80001738:	02751513          	slli	x10,x10,0x27
    8000173c:	fff54513          	xori	x10,x10,-1
    80001740:	02a51593          	slli	x11,x10,0x2a
    80001744:	3ab2b023          	sd	x11,928(x5)
    80001748:	fff0039b          	addiw	x7,x0,-1
    8000174c:	02a39393          	slli	x7,x7,0x2a
    80001750:	00b38463          	beq	x7,x11,0x80001758
    80001754:	8d1fe06f          	jal	x0,0x80000024
    80001758:	00100513          	addi	x10,x0,1
    8000175c:	02851513          	slli	x10,x10,0x28
    80001760:	fff54513          	xori	x10,x10,-1
    80001764:	00751593          	slli	x11,x10,0x7
    80001768:	3ab2b423          	sd	x11,936(x5)
    8000176c:	fff0039b          	addiw	x7,x0,-1
    80001770:	02f39393          	slli	x7,x7,0x2f
    80001774:	f8038393          	addi	x7,x7,-128
    80001778:	00b38463          	beq	x7,x11,0x80001780
    8000177c:	8a9fe06f          	jal	x0,0x80000024
    80001780:	00100513          	addi	x10,x0,1
    80001784:	02951513          	slli	x10,x10,0x29
    80001788:	fff54513          	xori	x10,x10,-1
    8000178c:	03f51593          	slli	x11,x10,0x3f
    80001790:	3ab2b823          	sd	x11,944(x5)
    80001794:	fff0039b          	addiw	x7,x0,-1
    80001798:	03f39393          	slli	x7,x7,0x3f
    8000179c:	00b38463          	beq	x7,x11,0x800017a4
    800017a0:	885fe06f          	jal	x0,0x80000024
    800017a4:	00100513          	addi	x10,x0,1
    800017a8:	02a51513          	slli	x10,x10,0x2a
    800017ac:	fff54513          	xori	x10,x10,-1
    800017b0:	03d51593          	slli	x11,x10,0x3d
    800017b4:	3ab2bc23          	sd	x11,952(x5)
    800017b8:	fff0039b          	addiw	x7,x0,-1
    800017bc:	03d39393          	slli	x7,x7,0x3d
    800017c0:	00b38463          	beq	x7,x11,0x800017c8
    800017c4:	861fe06f          	jal	x0,0x80000024
    800017c8:	00100513          	addi	x10,x0,1
    800017cc:	02b51513          	slli	x10,x10,0x2b
    800017d0:	fff54513          	xori	x10,x10,-1
    800017d4:	03b51593          	slli	x11,x10,0x3b
    800017d8:	3cb2b023          	sd	x11,960(x5)
    800017dc:	fff0039b          	addiw	x7,x0,-1
    800017e0:	03b39393          	slli	x7,x7,0x3b
    800017e4:	00b38463          	beq	x7,x11,0x800017ec
    800017e8:	83dfe06f          	jal	x0,0x80000024
    800017ec:	00100513          	addi	x10,x0,1
    800017f0:	02c51513          	slli	x10,x10,0x2c
    800017f4:	fff54513          	xori	x10,x10,-1
    800017f8:	00351593          	slli	x11,x10,0x3
    800017fc:	3cb2b423          	sd	x11,968(x5)
    80001800:	fff0039b          	addiw	x7,x0,-1
    80001804:	02f39393          	slli	x7,x7,0x2f
    80001808:	ff838393          	addi	x7,x7,-8
    8000180c:	00b38463          	beq	x7,x11,0x80001814
    80001810:	815fe06f          	jal	x0,0x80000024
    80001814:	00100513          	addi	x10,x0,1
    80001818:	02d51513          	slli	x10,x10,0x2d
    8000181c:	fff54513          	xori	x10,x10,-1
    80001820:	01251593          	slli	x11,x10,0x12
    80001824:	3cb2b823          	sd	x11,976(x5)
    80001828:	0010039b          	addiw	x7,x0,1
    8000182c:	02d39393          	slli	x7,x7,0x2d
    80001830:	fff38393          	addi	x7,x7,-1
    80001834:	01239393          	slli	x7,x7,0x12
    80001838:	00b38463          	beq	x7,x11,0x80001840
    8000183c:	fe8fe06f          	jal	x0,0x80000024
    80001840:	00100513          	addi	x10,x0,1
    80001844:	02e51513          	slli	x10,x10,0x2e
    80001848:	fff54513          	xori	x10,x10,-1
    8000184c:	01351593          	slli	x11,x10,0x13
    80001850:	3cb2bc23          	sd	x11,984(x5)
    80001854:	fff803b7          	lui	x7,0xfff80
    80001858:	00b38463          	beq	x7,x11,0x80001860
    8000185c:	fc8fe06f          	jal	x0,0x80000024
    80001860:	00100513          	addi	x10,x0,1
    80001864:	02f51513          	slli	x10,x10,0x2f
    80001868:	fff54513          	xori	x10,x10,-1
    8000186c:	01051593          	slli	x11,x10,0x10
    80001870:	3eb2b023          	sd	x11,992(x5)
    80001874:	0010039b          	addiw	x7,x0,1
    80001878:	02f39393          	slli	x7,x7,0x2f
    8000187c:	fff38393          	addi	x7,x7,-1 # 0xfffffffffff7ffff
    80001880:	01039393          	slli	x7,x7,0x10
    80001884:	00b38463          	beq	x7,x11,0x8000188c
    80001888:	f9cfe06f          	jal	x0,0x80000024
    8000188c:	00100513          	addi	x10,x0,1
    80001890:	03051513          	slli	x10,x10,0x30
    80001894:	fff54513          	xori	x10,x10,-1
    80001898:	00551593          	slli	x11,x10,0x5
    8000189c:	3eb2b423          	sd	x11,1000(x5)
    800018a0:	fff0039b          	addiw	x7,x0,-1
    800018a4:	03539393          	slli	x7,x7,0x35
    800018a8:	fe038393          	addi	x7,x7,-32
    800018ac:	00b38463          	beq	x7,x11,0x800018b4
    800018b0:	f74fe06f          	jal	x0,0x80000024
    800018b4:	00100513          	addi	x10,x0,1
    800018b8:	03151513          	slli	x10,x10,0x31
    800018bc:	fff54513          	xori	x10,x10,-1
    800018c0:	03b51593          	slli	x11,x10,0x3b
    800018c4:	3eb2b823          	sd	x11,1008(x5)
    800018c8:	fff0039b          	addiw	x7,x0,-1
    800018cc:	03b39393          	slli	x7,x7,0x3b
    800018d0:	00b38463          	beq	x7,x11,0x800018d8
    800018d4:	f50fe06f          	jal	x0,0x80000024
    800018d8:	00100513          	addi	x10,x0,1
    800018dc:	03251513          	slli	x10,x10,0x32
    800018e0:	fff54513          	xori	x10,x10,-1
    800018e4:	00651593          	slli	x11,x10,0x6
    800018e8:	3eb2bc23          	sd	x11,1016(x5)
    800018ec:	fff0039b          	addiw	x7,x0,-1
    800018f0:	03839393          	slli	x7,x7,0x38
    800018f4:	fc038393          	addi	x7,x7,-64
    800018f8:	00b38463          	beq	x7,x11,0x80001900
    800018fc:	f28fe06f          	jal	x0,0x80000024
    80001900:	00100513          	addi	x10,x0,1
    80001904:	03351513          	slli	x10,x10,0x33
    80001908:	fff54513          	xori	x10,x10,-1
    8000190c:	00d51593          	slli	x11,x10,0xd
    80001910:	40b2b023          	sd	x11,1024(x5)
    80001914:	ffffe3b7          	lui	x7,0xffffe
    80001918:	00b38463          	beq	x7,x11,0x80001920
    8000191c:	f08fe06f          	jal	x0,0x80000024
    80001920:	00100513          	addi	x10,x0,1
    80001924:	03451513          	slli	x10,x10,0x34
    80001928:	fff54513          	xori	x10,x10,-1
    8000192c:	00251593          	slli	x11,x10,0x2
    80001930:	40b2b423          	sd	x11,1032(x5)
    80001934:	fff0039b          	addiw	x7,x0,-1
    80001938:	03639393          	slli	x7,x7,0x36
    8000193c:	ffc38393          	addi	x7,x7,-4 # 0xffffffffffffdffc
    80001940:	00b38463          	beq	x7,x11,0x80001948
    80001944:	ee0fe06f          	jal	x0,0x80000024
    80001948:	01000513          	addi	x10,x0,16
    8000194c:	00e51593          	slli	x11,x10,0xe
    80001950:	40b2b823          	sd	x11,1040(x5)
    80001954:	000403b7          	lui	x7,0x40
    80001958:	00b38463          	beq	x7,x11,0x80001960
    8000195c:	ec8fe06f          	jal	x0,0x80000024
    80001960:	00100513          	addi	x10,x0,1
    80001964:	01651513          	slli	x10,x10,0x16
    80001968:	01f51593          	slli	x11,x10,0x1f
    8000196c:	40b2bc23          	sd	x11,1048(x5)
    80001970:	0010039b          	addiw	x7,x0,1
    80001974:	03539393          	slli	x7,x7,0x35
    80001978:	00b38463          	beq	x7,x11,0x80001980
    8000197c:	ea8fe06f          	jal	x0,0x80000024
    80001980:	0380006f          	jal	x0,0x800019b8
    80001984:	1f813483          	ld	x9,504(x2)
    80001988:	20013303          	ld	x6,512(x2)
    8000198c:	00930333          	add	x6,x6,x9
    80001990:	00000337          	lui	x6,0x0
    80001994:	00030313          	addi	x6,x6,0 # 0x0
    80001998:	00b31313          	slli	x6,x6,0xb
    8000199c:	5d630313          	addi	x6,x6,1494
    800019a0:	00b31313          	slli	x6,x6,0xb
    800019a4:	43630313          	addi	x6,x6,1078
    800019a8:	00a31313          	slli	x6,x6,0xa
    800019ac:	2d030313          	addi	x6,x6,720
    800019b0:	fe64be23          	sd	x6,-4(x9)
    800019b4:	0040006f          	jal	x0,0x800019b8
    800019b8:	00000513          	addi	x10,x0,0
    800019bc:	0140006f          	jal	x0,0x800019d0
	...
    800019d0:	00050513          	addi	x10,x10,0
    800019d4:	00100073          	ebreak
    800019d8:	0000006f          	jal	x0,0x800019d8
    800019dc:	ff010113          	addi	x2,x2,-16
    800019e0:	00000517          	auipc	x10,0x0
    800019e4:	02050513          	addi	x10,x10,32 # 0x80001a00
    800019e8:	00113423          	sd	x1,8(x2)
    800019ec:	e24fe0ef          	jal	x1,0x80000010
    800019f0:	00050513          	addi	x10,x10,0
    800019f4:	00100073          	ebreak
    800019f8:	0000006f          	jal	x0,0x800019f8
	...
    80002000:	cafe                	c.swsp	x31,84(x2)
    80002002:	babe                	c.fsdsp	f15,368(x2)
    80002004:	cafe                	c.swsp	x31,84(x2)
    80002006:	babe                	c.fsdsp	f15,368(x2)
    80002008:	cafe                	c.swsp	x31,84(x2)
    8000200a:	babe                	c.fsdsp	f15,368(x2)
    8000200c:	cafe                	c.swsp	x31,84(x2)
    8000200e:	babe                	c.fsdsp	f15,368(x2)
    80002010:	deadbeef          	jal	x29,0x7ffdd5fa
    80002014:	deadbeef          	jal	x29,0x7ffdd5fe
	...
    80003000:	b281                	c.j	0x80002940
    80003002:	e7d4                	c.sd	x13,136(x15)
    80003004:	a309                	c.j	0x80003506
    80003006:	6f5c                	c.ld	x15,152(x14)
    80003008:	deadbeef          	jal	x29,0x7ffde5f2
    8000300c:	deadbeef          	jal	x29,0x7ffde5f6
    80003010:	deadbeef          	jal	x29,0x7ffde5fa
    80003014:	deadbeef          	jal	x29,0x7ffde5fe
    80003018:	deadbeef          	jal	x29,0x7ffde602
    8000301c:	deadbeef          	jal	x29,0x7ffde606
    80003020:	deadbeef          	jal	x29,0x7ffde60a
    80003024:	deadbeef          	jal	x29,0x7ffde60e
    80003028:	deadbeef          	jal	x29,0x7ffde612
    8000302c:	deadbeef          	jal	x29,0x7ffde616
    80003030:	deadbeef          	jal	x29,0x7ffde61a
    80003034:	deadbeef          	jal	x29,0x7ffde61e
    80003038:	deadbeef          	jal	x29,0x7ffde622
    8000303c:	deadbeef          	jal	x29,0x7ffde626
    80003040:	deadbeef          	jal	x29,0x7ffde62a
    80003044:	deadbeef          	jal	x29,0x7ffde62e
    80003048:	deadbeef          	jal	x29,0x7ffde632
    8000304c:	deadbeef          	jal	x29,0x7ffde636
    80003050:	deadbeef          	jal	x29,0x7ffde63a
    80003054:	deadbeef          	jal	x29,0x7ffde63e
    80003058:	deadbeef          	jal	x29,0x7ffde642
    8000305c:	deadbeef          	jal	x29,0x7ffde646
    80003060:	deadbeef          	jal	x29,0x7ffde64a
    80003064:	deadbeef          	jal	x29,0x7ffde64e
    80003068:	deadbeef          	jal	x29,0x7ffde652
    8000306c:	deadbeef          	jal	x29,0x7ffde656
    80003070:	deadbeef          	jal	x29,0x7ffde65a
    80003074:	deadbeef          	jal	x29,0x7ffde65e
    80003078:	deadbeef          	jal	x29,0x7ffde662
    8000307c:	deadbeef          	jal	x29,0x7ffde666
    80003080:	deadbeef          	jal	x29,0x7ffde66a
    80003084:	deadbeef          	jal	x29,0x7ffde66e
    80003088:	deadbeef          	jal	x29,0x7ffde672
    8000308c:	deadbeef          	jal	x29,0x7ffde676
    80003090:	deadbeef          	jal	x29,0x7ffde67a
    80003094:	deadbeef          	jal	x29,0x7ffde67e
    80003098:	deadbeef          	jal	x29,0x7ffde682
    8000309c:	deadbeef          	jal	x29,0x7ffde686
    800030a0:	deadbeef          	jal	x29,0x7ffde68a
    800030a4:	deadbeef          	jal	x29,0x7ffde68e
    800030a8:	deadbeef          	jal	x29,0x7ffde692
    800030ac:	deadbeef          	jal	x29,0x7ffde696
    800030b0:	deadbeef          	jal	x29,0x7ffde69a
    800030b4:	deadbeef          	jal	x29,0x7ffde69e
    800030b8:	deadbeef          	jal	x29,0x7ffde6a2
    800030bc:	deadbeef          	jal	x29,0x7ffde6a6
    800030c0:	deadbeef          	jal	x29,0x7ffde6aa
    800030c4:	deadbeef          	jal	x29,0x7ffde6ae
    800030c8:	deadbeef          	jal	x29,0x7ffde6b2
    800030cc:	deadbeef          	jal	x29,0x7ffde6b6
    800030d0:	deadbeef          	jal	x29,0x7ffde6ba
    800030d4:	deadbeef          	jal	x29,0x7ffde6be
    800030d8:	deadbeef          	jal	x29,0x7ffde6c2
    800030dc:	deadbeef          	jal	x29,0x7ffde6c6
    800030e0:	deadbeef          	jal	x29,0x7ffde6ca
    800030e4:	deadbeef          	jal	x29,0x7ffde6ce
    800030e8:	deadbeef          	jal	x29,0x7ffde6d2
    800030ec:	deadbeef          	jal	x29,0x7ffde6d6
    800030f0:	deadbeef          	jal	x29,0x7ffde6da
    800030f4:	deadbeef          	jal	x29,0x7ffde6de
    800030f8:	deadbeef          	jal	x29,0x7ffde6e2
    800030fc:	deadbeef          	jal	x29,0x7ffde6e6
    80003100:	deadbeef          	jal	x29,0x7ffde6ea
    80003104:	deadbeef          	jal	x29,0x7ffde6ee
    80003108:	deadbeef          	jal	x29,0x7ffde6f2
    8000310c:	deadbeef          	jal	x29,0x7ffde6f6
    80003110:	deadbeef          	jal	x29,0x7ffde6fa
    80003114:	deadbeef          	jal	x29,0x7ffde6fe
    80003118:	deadbeef          	jal	x29,0x7ffde702
    8000311c:	deadbeef          	jal	x29,0x7ffde706
    80003120:	deadbeef          	jal	x29,0x7ffde70a
    80003124:	deadbeef          	jal	x29,0x7ffde70e
    80003128:	deadbeef          	jal	x29,0x7ffde712
    8000312c:	deadbeef          	jal	x29,0x7ffde716
    80003130:	deadbeef          	jal	x29,0x7ffde71a
    80003134:	deadbeef          	jal	x29,0x7ffde71e
    80003138:	deadbeef          	jal	x29,0x7ffde722
    8000313c:	deadbeef          	jal	x29,0x7ffde726
    80003140:	deadbeef          	jal	x29,0x7ffde72a
    80003144:	deadbeef          	jal	x29,0x7ffde72e
    80003148:	deadbeef          	jal	x29,0x7ffde732
    8000314c:	deadbeef          	jal	x29,0x7ffde736
    80003150:	deadbeef          	jal	x29,0x7ffde73a
    80003154:	deadbeef          	jal	x29,0x7ffde73e
    80003158:	deadbeef          	jal	x29,0x7ffde742
    8000315c:	deadbeef          	jal	x29,0x7ffde746
    80003160:	deadbeef          	jal	x29,0x7ffde74a
    80003164:	deadbeef          	jal	x29,0x7ffde74e
    80003168:	deadbeef          	jal	x29,0x7ffde752
    8000316c:	deadbeef          	jal	x29,0x7ffde756
    80003170:	deadbeef          	jal	x29,0x7ffde75a
    80003174:	deadbeef          	jal	x29,0x7ffde75e
    80003178:	deadbeef          	jal	x29,0x7ffde762
    8000317c:	deadbeef          	jal	x29,0x7ffde766
    80003180:	deadbeef          	jal	x29,0x7ffde76a
    80003184:	deadbeef          	jal	x29,0x7ffde76e
    80003188:	deadbeef          	jal	x29,0x7ffde772
    8000318c:	deadbeef          	jal	x29,0x7ffde776
    80003190:	deadbeef          	jal	x29,0x7ffde77a
    80003194:	deadbeef          	jal	x29,0x7ffde77e
    80003198:	deadbeef          	jal	x29,0x7ffde782
    8000319c:	deadbeef          	jal	x29,0x7ffde786
    800031a0:	deadbeef          	jal	x29,0x7ffde78a
    800031a4:	deadbeef          	jal	x29,0x7ffde78e
    800031a8:	deadbeef          	jal	x29,0x7ffde792
    800031ac:	deadbeef          	jal	x29,0x7ffde796
    800031b0:	deadbeef          	jal	x29,0x7ffde79a
    800031b4:	deadbeef          	jal	x29,0x7ffde79e
    800031b8:	deadbeef          	jal	x29,0x7ffde7a2
    800031bc:	deadbeef          	jal	x29,0x7ffde7a6
    800031c0:	deadbeef          	jal	x29,0x7ffde7aa
    800031c4:	deadbeef          	jal	x29,0x7ffde7ae
    800031c8:	deadbeef          	jal	x29,0x7ffde7b2
    800031cc:	deadbeef          	jal	x29,0x7ffde7b6
    800031d0:	deadbeef          	jal	x29,0x7ffde7ba
    800031d4:	deadbeef          	jal	x29,0x7ffde7be
    800031d8:	deadbeef          	jal	x29,0x7ffde7c2
    800031dc:	deadbeef          	jal	x29,0x7ffde7c6
    800031e0:	deadbeef          	jal	x29,0x7ffde7ca
    800031e4:	deadbeef          	jal	x29,0x7ffde7ce
    800031e8:	deadbeef          	jal	x29,0x7ffde7d2
    800031ec:	deadbeef          	jal	x29,0x7ffde7d6
    800031f0:	deadbeef          	jal	x29,0x7ffde7da
    800031f4:	deadbeef          	jal	x29,0x7ffde7de
    800031f8:	deadbeef          	jal	x29,0x7ffde7e2
    800031fc:	deadbeef          	jal	x29,0x7ffde7e6
    80003200:	deadbeef          	jal	x29,0x7ffde7ea
    80003204:	deadbeef          	jal	x29,0x7ffde7ee
    80003208:	deadbeef          	jal	x29,0x7ffde7f2
    8000320c:	deadbeef          	jal	x29,0x7ffde7f6
    80003210:	deadbeef          	jal	x29,0x7ffde7fa
    80003214:	deadbeef          	jal	x29,0x7ffde7fe
    80003218:	deadbeef          	jal	x29,0x7ffde802
    8000321c:	deadbeef          	jal	x29,0x7ffde806
    80003220:	deadbeef          	jal	x29,0x7ffde80a
    80003224:	deadbeef          	jal	x29,0x7ffde80e
    80003228:	deadbeef          	jal	x29,0x7ffde812
    8000322c:	deadbeef          	jal	x29,0x7ffde816
    80003230:	deadbeef          	jal	x29,0x7ffde81a
    80003234:	deadbeef          	jal	x29,0x7ffde81e
    80003238:	deadbeef          	jal	x29,0x7ffde822
    8000323c:	deadbeef          	jal	x29,0x7ffde826
    80003240:	deadbeef          	jal	x29,0x7ffde82a
    80003244:	deadbeef          	jal	x29,0x7ffde82e
    80003248:	deadbeef          	jal	x29,0x7ffde832
    8000324c:	deadbeef          	jal	x29,0x7ffde836
    80003250:	deadbeef          	jal	x29,0x7ffde83a
    80003254:	deadbeef          	jal	x29,0x7ffde83e
    80003258:	deadbeef          	jal	x29,0x7ffde842
    8000325c:	deadbeef          	jal	x29,0x7ffde846
    80003260:	deadbeef          	jal	x29,0x7ffde84a
    80003264:	deadbeef          	jal	x29,0x7ffde84e
    80003268:	deadbeef          	jal	x29,0x7ffde852
    8000326c:	deadbeef          	jal	x29,0x7ffde856
    80003270:	deadbeef          	jal	x29,0x7ffde85a
    80003274:	deadbeef          	jal	x29,0x7ffde85e
    80003278:	deadbeef          	jal	x29,0x7ffde862
    8000327c:	deadbeef          	jal	x29,0x7ffde866
    80003280:	deadbeef          	jal	x29,0x7ffde86a
    80003284:	deadbeef          	jal	x29,0x7ffde86e
    80003288:	deadbeef          	jal	x29,0x7ffde872
    8000328c:	deadbeef          	jal	x29,0x7ffde876
    80003290:	deadbeef          	jal	x29,0x7ffde87a
    80003294:	deadbeef          	jal	x29,0x7ffde87e
    80003298:	deadbeef          	jal	x29,0x7ffde882
    8000329c:	deadbeef          	jal	x29,0x7ffde886
    800032a0:	deadbeef          	jal	x29,0x7ffde88a
    800032a4:	deadbeef          	jal	x29,0x7ffde88e
    800032a8:	deadbeef          	jal	x29,0x7ffde892
    800032ac:	deadbeef          	jal	x29,0x7ffde896
    800032b0:	deadbeef          	jal	x29,0x7ffde89a
    800032b4:	deadbeef          	jal	x29,0x7ffde89e
    800032b8:	deadbeef          	jal	x29,0x7ffde8a2
    800032bc:	deadbeef          	jal	x29,0x7ffde8a6
    800032c0:	deadbeef          	jal	x29,0x7ffde8aa
    800032c4:	deadbeef          	jal	x29,0x7ffde8ae
    800032c8:	deadbeef          	jal	x29,0x7ffde8b2
    800032cc:	deadbeef          	jal	x29,0x7ffde8b6
    800032d0:	deadbeef          	jal	x29,0x7ffde8ba
    800032d4:	deadbeef          	jal	x29,0x7ffde8be
    800032d8:	deadbeef          	jal	x29,0x7ffde8c2
    800032dc:	deadbeef          	jal	x29,0x7ffde8c6
    800032e0:	deadbeef          	jal	x29,0x7ffde8ca
    800032e4:	deadbeef          	jal	x29,0x7ffde8ce
    800032e8:	deadbeef          	jal	x29,0x7ffde8d2
    800032ec:	deadbeef          	jal	x29,0x7ffde8d6
    800032f0:	deadbeef          	jal	x29,0x7ffde8da
    800032f4:	deadbeef          	jal	x29,0x7ffde8de
    800032f8:	deadbeef          	jal	x29,0x7ffde8e2
    800032fc:	deadbeef          	jal	x29,0x7ffde8e6
    80003300:	deadbeef          	jal	x29,0x7ffde8ea
    80003304:	deadbeef          	jal	x29,0x7ffde8ee
    80003308:	deadbeef          	jal	x29,0x7ffde8f2
    8000330c:	deadbeef          	jal	x29,0x7ffde8f6
    80003310:	deadbeef          	jal	x29,0x7ffde8fa
    80003314:	deadbeef          	jal	x29,0x7ffde8fe
    80003318:	deadbeef          	jal	x29,0x7ffde902
    8000331c:	deadbeef          	jal	x29,0x7ffde906
    80003320:	deadbeef          	jal	x29,0x7ffde90a
    80003324:	deadbeef          	jal	x29,0x7ffde90e
    80003328:	deadbeef          	jal	x29,0x7ffde912
    8000332c:	deadbeef          	jal	x29,0x7ffde916
    80003330:	deadbeef          	jal	x29,0x7ffde91a
    80003334:	deadbeef          	jal	x29,0x7ffde91e
    80003338:	deadbeef          	jal	x29,0x7ffde922
    8000333c:	deadbeef          	jal	x29,0x7ffde926
    80003340:	deadbeef          	jal	x29,0x7ffde92a
    80003344:	deadbeef          	jal	x29,0x7ffde92e
    80003348:	deadbeef          	jal	x29,0x7ffde932
    8000334c:	deadbeef          	jal	x29,0x7ffde936
    80003350:	deadbeef          	jal	x29,0x7ffde93a
    80003354:	deadbeef          	jal	x29,0x7ffde93e
    80003358:	deadbeef          	jal	x29,0x7ffde942
    8000335c:	deadbeef          	jal	x29,0x7ffde946
    80003360:	deadbeef          	jal	x29,0x7ffde94a
    80003364:	deadbeef          	jal	x29,0x7ffde94e
    80003368:	deadbeef          	jal	x29,0x7ffde952
    8000336c:	deadbeef          	jal	x29,0x7ffde956
    80003370:	deadbeef          	jal	x29,0x7ffde95a
    80003374:	deadbeef          	jal	x29,0x7ffde95e
    80003378:	deadbeef          	jal	x29,0x7ffde962
    8000337c:	deadbeef          	jal	x29,0x7ffde966
    80003380:	deadbeef          	jal	x29,0x7ffde96a
    80003384:	deadbeef          	jal	x29,0x7ffde96e
    80003388:	deadbeef          	jal	x29,0x7ffde972
    8000338c:	deadbeef          	jal	x29,0x7ffde976
    80003390:	deadbeef          	jal	x29,0x7ffde97a
    80003394:	deadbeef          	jal	x29,0x7ffde97e
    80003398:	deadbeef          	jal	x29,0x7ffde982
    8000339c:	deadbeef          	jal	x29,0x7ffde986
    800033a0:	deadbeef          	jal	x29,0x7ffde98a
    800033a4:	deadbeef          	jal	x29,0x7ffde98e
    800033a8:	deadbeef          	jal	x29,0x7ffde992
    800033ac:	deadbeef          	jal	x29,0x7ffde996
    800033b0:	deadbeef          	jal	x29,0x7ffde99a
    800033b4:	deadbeef          	jal	x29,0x7ffde99e
    800033b8:	deadbeef          	jal	x29,0x7ffde9a2
    800033bc:	deadbeef          	jal	x29,0x7ffde9a6
    800033c0:	deadbeef          	jal	x29,0x7ffde9aa
    800033c4:	deadbeef          	jal	x29,0x7ffde9ae
    800033c8:	deadbeef          	jal	x29,0x7ffde9b2
    800033cc:	deadbeef          	jal	x29,0x7ffde9b6
    800033d0:	deadbeef          	jal	x29,0x7ffde9ba
    800033d4:	deadbeef          	jal	x29,0x7ffde9be
    800033d8:	deadbeef          	jal	x29,0x7ffde9c2
    800033dc:	deadbeef          	jal	x29,0x7ffde9c6
    800033e0:	deadbeef          	jal	x29,0x7ffde9ca
    800033e4:	deadbeef          	jal	x29,0x7ffde9ce
    800033e8:	deadbeef          	jal	x29,0x7ffde9d2
    800033ec:	deadbeef          	jal	x29,0x7ffde9d6
    800033f0:	deadbeef          	jal	x29,0x7ffde9da
    800033f4:	deadbeef          	jal	x29,0x7ffde9de
    800033f8:	deadbeef          	jal	x29,0x7ffde9e2
    800033fc:	deadbeef          	jal	x29,0x7ffde9e6
    80003400:	deadbeef          	jal	x29,0x7ffde9ea
    80003404:	deadbeef          	jal	x29,0x7ffde9ee
    80003408:	deadbeef          	jal	x29,0x7ffde9f2
    8000340c:	deadbeef          	jal	x29,0x7ffde9f6
    80003410:	deadbeef          	jal	x29,0x7ffde9fa
    80003414:	deadbeef          	jal	x29,0x7ffde9fe
    80003418:	deadbeef          	jal	x29,0x7ffdea02
    8000341c:	deadbeef          	jal	x29,0x7ffdea06
    80003420:	deadbeef          	jal	x29,0x7ffdea0a
    80003424:	deadbeef          	jal	x29,0x7ffdea0e
    80003428:	deadbeef          	jal	x29,0x7ffdea12
    8000342c:	deadbeef          	jal	x29,0x7ffdea16
    80003430:	deadbeef          	jal	x29,0x7ffdea1a
    80003434:	deadbeef          	jal	x29,0x7ffdea1e
    80003438:	deadbeef          	jal	x29,0x7ffdea22
    8000343c:	deadbeef          	jal	x29,0x7ffdea26
    80003440:	deadbeef          	jal	x29,0x7ffdea2a
    80003444:	deadbeef          	jal	x29,0x7ffdea2e
    80003448:	deadbeef          	jal	x29,0x7ffdea32
    8000344c:	deadbeef          	jal	x29,0x7ffdea36
    80003450:	deadbeef          	jal	x29,0x7ffdea3a
    80003454:	deadbeef          	jal	x29,0x7ffdea3e
    80003458:	deadbeef          	jal	x29,0x7ffdea42
    8000345c:	deadbeef          	jal	x29,0x7ffdea46
    80003460:	deadbeef          	jal	x29,0x7ffdea4a
    80003464:	deadbeef          	jal	x29,0x7ffdea4e
    80003468:	deadbeef          	jal	x29,0x7ffdea52
    8000346c:	deadbeef          	jal	x29,0x7ffdea56
    80003470:	deadbeef          	jal	x29,0x7ffdea5a
    80003474:	deadbeef          	jal	x29,0x7ffdea5e
    80003478:	deadbeef          	jal	x29,0x7ffdea62
    8000347c:	deadbeef          	jal	x29,0x7ffdea66
    80003480:	deadbeef          	jal	x29,0x7ffdea6a
    80003484:	deadbeef          	jal	x29,0x7ffdea6e
    80003488:	deadbeef          	jal	x29,0x7ffdea72
    8000348c:	deadbeef          	jal	x29,0x7ffdea76
    80003490:	deadbeef          	jal	x29,0x7ffdea7a
    80003494:	deadbeef          	jal	x29,0x7ffdea7e
    80003498:	deadbeef          	jal	x29,0x7ffdea82
    8000349c:	deadbeef          	jal	x29,0x7ffdea86
    800034a0:	deadbeef          	jal	x29,0x7ffdea8a
    800034a4:	deadbeef          	jal	x29,0x7ffdea8e
    800034a8:	deadbeef          	jal	x29,0x7ffdea92
    800034ac:	deadbeef          	jal	x29,0x7ffdea96
    800034b0:	deadbeef          	jal	x29,0x7ffdea9a
    800034b4:	deadbeef          	jal	x29,0x7ffdea9e
    800034b8:	deadbeef          	jal	x29,0x7ffdeaa2
    800034bc:	deadbeef          	jal	x29,0x7ffdeaa6
    800034c0:	b281                	c.j	0x80002e00
    800034c2:	e7d4                	c.sd	x13,136(x15)
    800034c4:	a309                	c.j	0x800039c6
    800034c6:	6f5c                	c.ld	x15,152(x14)
	...
