
elf/riscv-arch-test/sllw-riscv64-nemu.elf:     file format binary

Contents of section .data:
 1000 13040000 17c10000 1301c1ff ef101020  ............... 
 1010 ef000003 13051000 ef10901e 13050000  ................
 1020 67800000 13051000 ef10901d 67800000  g...........g...
 1030 00000000 00000000 00000000 00000000  ................
 1040 b7c0edfe 9380d0ea 9390b000 9380707f  ..............p.
 1050 9390b000 9380f036 9390a000 9380d02a  .......6.......*
 1060 37e176ff 130161f5 1311b100 1301b17f  7.v...a.........
 1070 1311b100 1301715b 1311a100 13016135  ......q[......a5
 1080 b771bb7f 9381b1fa 9391b100 9381d13f  .q.............?
 1090 9391b100 9381b16d 9391a100 9381b13a  .......m.......:
 10a0 37b2ddbf 1302527d 1312b200 1302e25f  7.....R}......._
 10b0 1312b200 1302d276 1312a200 1302523d  .......v......R=
 10c0 b7e2eedf 9382a2be 9392b200 9382f26f  ...............o
 10d0 9392b200 9382623b 9392a200 9382a23e  ......b;.......>
 10e0 3773f76f 130353df 1313b300 1303f337  7s.o..S........7
 10f0 1313b300 1303b35d 1313a300 1303531f  .......]......S.
 1100 b7b3fbb7 9383a36f 9393b300 9383f35b  .......o.......[
 1110 9393b300 9383d36e 9393a300 9383a32f  .......n......./
 1120 37e4fd5b 1304d4b7 1314b400 1304f42d  7..[...........-
 1130 1314b400 13046477 1314a400 1304d437  ......dw.......7
 1140 b7f4fead 9384e4db 9394b400 9384f456  ...............V
 1150 9394b400 9384b47b 9394a400 9384e41b  .......{........
 1160 3775ff56 1305f56d 1315b500 1305752b  7u.V...m......u+
 1170 1315b500 1305d57d 1315a500 1305f52d  .......}.......-
 1180 b7c57fab 9385f5b6 9395b500 9385b555  ...............U
 1190 9395b500 9385e57e 9395a500 9385f536  .......~.......6
 11a0 37e6bfd5 130676db 1316b600 1306d66a  7.....v........j
 11b0 1316b600 1306767f 1316a600 1306761b  ......v.......v.
 11c0 b7f6dfea 9386b6ed 9396b600 93866675  ..............fu
 11d0 9396b600 9386b67f 9396a600 9386b62d  ...............-
 11e0 37f76ff5 1307d776 1317b700 1307b77a  7.o....v.......z
 11f0 1317b700 1307d73f 1317a700 1307d736  .......?.......6
 1200 b707b8fa 938767bb 9397b700 9387577d  ......g.......W}
 1210 9397b700 9387e75f 9397a700 9387673b  ......._......g;
 1220 37085c7d 1308b8dd 1318b800 1308a83e  7.\}...........>
 1230 1318b800 1308f86f 1318a800 1308b81d  .......o........
 1240 b708aebe 9388d8ee 9398b800 9388585f  ..............X_
 1250 9398b800 9388f837 9398a800 9388d82e  .......7........
 1260 370957df 130969f7 1319b900 1309a96f  7.W...i........o
 1270 1319b900 1309f95b 1319a900 13096937  .......[......i7
 1280 b789ab6f 9389b9fb 9399b900 9389d937  ...o...........7
 1290 9399b900 9389f92d 9399a900 9389b93b  .......-.......;
 12a0 37cad5b7 130adafd 131aba00 130aea5b  7..............[
 12b0 131aba00 130afa56 131aaa00 130ada3d  .......V.......=
 12c0 b7eaeadb 938aeafe 939aba00 938afa6d  ...............m
 12d0 939aba00 938a7a2b 939aaa00 938aea3e  ......z+.......>
 12e0 377bf56d 130b7bff 131bbb00 130bfb36  7{.m..{........6
 12f0 131bbb00 130bbb55 131bab00 130b7b3f  .......U......{?
 1300 b7bbfab6 938bbb7f 939bbb00 938b7b5b  ..............{[
 1310 939bbb00 938bdb6a 939bab00 938bbb3f  .......j.......?
 1320 376c7ddb 130cdcbf 131cbc00 130cbc6d  7l}............m
 1330 131cbc00 130c6c75 131cac00 130cdc3f  ......lu.......?
 1340 b7bcbeed 938cecdf 939cbc00 938cdc76  ...............v
 1350 939cbc00 938cbc7a 939cac00 938cec1f  .......z........
 1360 375ddf76 130dfd6f 131dbd00 130d6d3b  7].v...o......m;
 1370 131dbd00 130d5d7d 131dad00 130dfd2f  ......]}......./
 1380 b7bd6fbb 938dfdb7 939dbd00 938dbd5d  ..o............]
 1390 939dbd00 938dad3e 939dad00 938dfd37  .......>.......7
 13a0 37deb7dd 130efe5b 131ebe00 130ede6e  7......[.......n
 13b0 131ebe00 130e5e5f 131eae00 130efe1b  ......^_........
 13c0 b7fedbee 938efead 939ebe00 938e6e77  ..............nw
 13d0 939ebe00 938eae6f 939eae00 938efe2d  .......o.......-
 13e0 37ff6df7 130fff56 131fbf00 130fbf7b  7.m....V.......{
 13f0 131fbf00 130fdf37 131faf00 130fff16  .......7........
 1400 b70fb7fb 938f7fab 939fbf00 938fdf7d  ...............}
 1410 939fbf00 938fef5b 939faf00 938f7f2b  .......[.......+
 1420 17320000 130282be 13000000 13000000  .2..............
 1430 13000000 13000000 13000000 13000000  ................
 1440 93031000 9393f302 93c3f3ff 93031000  ................
 1450 9393f302 93c3f3ff 3b977300 2330e200  ........;.s.#0..
 1460 b7060080 6384e600 6ff0dfbb 930d1000  ....c...o.......
 1470 939dad03 130f7001 3b9fed01 2334e201  ......p.;...#4..
 1480 93060000 6384e601 6ff0dfb9 9302a0ff  ....c...o.......
 1490 9302a0ff bb925200 23385200 b70600e8  ......R.#8R.....
 14a0 63845600 6ff01fb8 13091000 1319c901  c.V.o...........
 14b0 93070000 3b1bf900 233c6201 b7060010  ....;...#<b.....
 14c0 63846601 6ff01fb6 130d5000 130b5000  c.f.o.....P...P.
 14d0 3b1d6d01 2330a203 9306000a 6384a601  ;.m.#0......c...
 14e0 6ff05fb4 1307f0ff 1317f703 930b2000  o._........... .
 14f0 bb1e7701 2334d203 93060000 6384d601  ..w.#4......c...
 1500 6ff05fb2 13060000 13071001 bb14e600  o._.............
 1510 23389202 93060000 63849600 6ff09fb0  #8......c...o...
 1520 1305f0ff 13551500 13000000 bb100500  .....U..........
 1530 233c1202 9306f0ff 63841600 6ff09fae  #<......c...o...
 1540 930f1000 13045001 bb998f00 23303205  ......P.....#02.
 1550 b7062000 63843601 6ff0dfac 930b2000  .. .c.6.o..... .
 1560 930d7001 bb98bb01 23341205 b7060001  ..p.....#4......
 1570 63841601 6ff01fab 93084000 130d8000  c...o.....@.....
 1580 bb9ca801 23389205 93060040 63849601  ....#8.....@c...
 1590 6ff05fa9 93058000 13060000 3b98c500  o._.........;...
 15a0 233c0205 93068000 63840601 6ff09fa7  #<......c...o...
 15b0 130c0001 93010000 bb1d3c00 2330b207  ..........<.#0..
 15c0 93060001 6384b601 6ff0dfa5 13080002  ....c...o.......
 15d0 13052000 bb13a800 23347206 93060008  .. .....#4r.....
 15e0 63847600 6ff01fa4 13010004 93001001  c.v.o...........
 15f0 3b101100 23380206 93060000 63840600  ;...#8......c...
 1600 6ff05fa2 130e0008 930a0000 3b135e01  o._.........;.^.
 1610 233c6206 93060008 63846600 6ff09fa0  #<b.....c.f.o...
 1620 97320000 938282a6 13000000 13000000  .2..............
 1630 13000000 13000000 13000000 13000000  ................
 1640 13040010 93086000 bb161401 23b0d200  ......`.....#...
 1650 b7430000 6384d300 6ff0df9c 930a0020  .C..c...o...... 
 1660 93063000 3b9ada00 23b44201 b7130000  ..0.;...#.B.....
 1670 63844301 6ff01f9b 930c0040 130e8000  c.C.o......@....
 1680 3b99cc01 23b82201 b7030400 63842301  ;...#.".....c.#.
 1690 6ff05f99 93071000 9397b700 93051000  o._.............
 16a0 3b91b700 23bc2200 b7130000 63842300  ;...#.".....c.#.
 16b0 6ff05f97 93091000 9399c900 93049000  o._.............
 16c0 3b9e9900 23b0c203 b7032000 6384c301  ;...#..... .c...
 16d0 6ff05f95 13031000 1313d300 130a2001  o._........... .
 16e0 bb1f4301 23b4f203 b7030080 6384f301  ..C.#.......c...
 16f0 6ff05f93 93001000 9390e000 13088000  o._.............
 1700 bb910001 23b83202 b7034000 63843300  ....#.2...@.c.3.
 1710 6ff05f91 93061000 9396f600 930ed000  o._.............
 1720 bb95d601 23bcb202 b7030010 6384b300  ....#.......c...
 1730 6ff05f8f 130b1000 131b0b01 13010000  o._.............
 1740 3b152b00 23b0a204 b7030100 6384a300  ;.+.#.......c...
 1750 6ff05f8d 93011000 93911101 9309a000  o._.............
 1760 3b923101 23b44204 b7030008 63844300  ;.1.#.B.....c.C.
 1770 6ff05f8b 130a1000 131a2a01 13035000  o._.......*...P.
 1780 3b146a00 23b88204 b7038000 63848300  ;.j.#.......c...
 1790 6ff05f89 93041000 93943401 930fb001  o._.......4.....
 17a0 3b96f401 23bcc204 93030000 6384c300  ;...#.......c...
 17b0 6ff05f87 130f1000 131f4f01 13024000  o._.......O...@.
 17c0 3b1c4f00 23b08207 b7030001 63848301  ;.O.#.......c...
 17d0 6ff05f85 930e1000 939e5e01 930c8000  o._.......^.....
 17e0 bb9b9e01 23b47207 b7030020 63847301  ....#.r.... c.s.
 17f0 6ff05f83 13000000 130c6000 bb1a8001  o._.......`.....
 1800 23b85207 93030000 63845301 6ff09f81  #.R.....c.S.o...
 1810 13021000 13127201 13095001 bb172201  ......r...P...".
 1820 23bcf206 93030000 6384f300 6ff08fff  #.......c...o...
 1830 13051000 13158501 9305b000 3b16b500  ............;...
 1840 23b0c208 93030000 6384c300 6ff08ffd  #.......c...o...
 1850 13051000 13159501 93055001 3b16b500  ..........P.;...
 1860 23b4c208 93030000 6384c300 6ff08ffb  #.......c...o...
 1870 13051000 1315a501 93052001 3b16b500  .......... .;...
 1880 23b8c208 93030000 6384c300 6ff08ff9  #.......c...o...
 1890 13051000 1315b501 9305e000 3b16b500  ............;...
 18a0 23bcc208 93030000 6384c300 6ff08ff7  #.......c...o...
 18b0 13051000 1315d501 9305d001 3b16b500  ............;...
 18c0 23b0c20a 93030000 6384c300 6ff08ff5  #.......c...o...
 18d0 13051000 1315e501 9305e000 3b16b500  ............;...
 18e0 23b4c20a 93030000 6384c300 6ff08ff3  #.......c...o...
 18f0 13051000 1315f501 93052001 3b16b500  .......... .;...
 1900 23b8c20a 93030000 6384c300 6ff08ff1  #.......c...o...
 1910 13051000 13150502 93053001 3b16b500  ..........0.;...
 1920 23bcc20a 93030000 6384c300 6ff08fef  #.......c...o...
 1930 13051000 13151502 9305f001 3b16b500  ............;...
 1940 23b0c20c 93030000 6384c300 6ff08fed  #.......c...o...
 1950 13051000 13152502 9305b001 3b16b500  ......%.....;...
 1960 23b4c20c 93030000 6384c300 6ff08feb  #.......c...o...
 1970 13051000 13153502 93057001 3b16b500  ......5...p.;...
 1980 23b8c20c 93030000 6384c300 6ff08fe9  #.......c...o...
 1990 13051000 13154502 93059000 3b16b500  ......E.....;...
 19a0 23bcc20c 93030000 6384c300 6ff08fe7  #.......c...o...
 19b0 13051000 13155502 93051000 3b16b500  ......U.....;...
 19c0 23b0c20e 93030000 6384c300 6ff08fe5  #.......c...o...
 19d0 13051000 13156502 93050000 3b16b500  ......e.....;...
 19e0 23b4c20e 93030000 6384c300 6ff08fe3  #.......c...o...
 19f0 13051000 13157502 93058000 3b16b500  ......u.....;...
 1a00 23b8c20e 93030000 6384c300 6ff08fe1  #.......c...o...
 1a10 13051000 13158502 93058000 3b16b500  ............;...
 1a20 23bcc20e 93030000 6384c300 6ff08fdf  #.......c...o...
 1a30 13051000 13159502 93050000 3b16b500  ............;...
 1a40 23b0c210 93030000 6384c300 6ff08fdd  #.......c...o...
 1a50 13051000 1315a502 9305b000 3b16b500  ............;...
 1a60 23b4c210 93030000 6384c300 6ff08fdb  #.......c...o...
 1a70 13051000 1315b502 93054000 3b16b500  ..........@.;...
 1a80 23b8c210 93030000 6384c300 6ff08fd9  #.......c...o...
 1a90 13051000 1315c502 93056000 3b16b500  ..........`.;...
 1aa0 23bcc210 93030000 6384c300 6ff08fd7  #.......c...o...
 1ab0 13051000 1315d502 9305c000 3b16b500  ............;...
 1ac0 23b0c212 93030000 6384c300 6ff08fd5  #.......c...o...
 1ad0 13051000 1315e502 9305d000 3b16b500  ............;...
 1ae0 23b4c212 93030000 6384c300 6ff08fd3  #.......c...o...
 1af0 13051000 1315f502 9305e001 3b16b500  ............;...
 1b00 23b8c212 93030000 6384c300 6ff08fd1  #.......c...o...
 1b10 13051000 13150503 93051000 3b16b500  ............;...
 1b20 23bcc212 93030000 6384c300 6ff08fcf  #.......c...o...
 1b30 13051000 13151503 9305e000 3b16b500  ............;...
 1b40 23b0c214 93030000 6384c300 6ff08fcd  #.......c...o...
 1b50 13051000 13152503 93055001 3b16b500  ......%...P.;...
 1b60 23b4c214 93030000 6384c300 6ff08fcb  #.......c...o...
 1b70 13051000 13153503 9305b000 3b16b500  ......5.....;...
 1b80 23b8c214 93030000 6384c300 6ff08fc9  #.......c...o...
 1b90 13051000 13154503 93050001 3b16b500  ......E.....;...
 1ba0 23bcc214 93030000 6384c300 6ff08fc7  #.......c...o...
 1bb0 13051000 13155503 93053001 3b16b500  ......U...0.;...
 1bc0 23b0c216 93030000 6384c300 6ff08fc5  #.......c...o...
 1bd0 13051000 13156503 93051001 3b16b500  ......e.....;...
 1be0 23b4c216 93030000 6384c300 6ff08fc3  #.......c...o...
 1bf0 13051000 13157503 93058000 3b16b500  ......u.....;...
 1c00 23b8c216 93030000 6384c300 6ff08fc1  #.......c...o...
 1c10 13051000 13158503 93051001 3b16b500  ............;...
 1c20 23bcc216 93030000 6384c300 6ff08fbf  #.......c...o...
 1c30 13051000 13159503 93051000 3b16b500  ............;...
 1c40 23b0c218 93030000 6384c300 6ff08fbd  #.......c...o...
 1c50 13051000 1315b503 93056000 3b16b500  ..........`.;...
 1c60 23b4c218 93030000 6384c300 6ff08fbb  #.......c...o...
 1c70 13051000 1315c503 93053001 3b16b500  ..........0.;...
 1c80 23b8c218 93030000 6384c300 6ff08fb9  #.......c...o...
 1c90 13051000 1315d503 9305a000 3b16b500  ............;...
 1ca0 23bcc218 93030000 6384c300 6ff08fb7  #.......c...o...
 1cb0 13051000 1315e503 9305f001 3b16b500  ............;...
 1cc0 23b0c21a 93030000 6384c300 6ff08fb5  #.......c...o...
 1cd0 1305e0ff 9305d000 3b16b500 23b4c21a  ........;...#...
 1ce0 b7c3ffff 6384c300 6ff0cfb3 1305d0ff  ....c...o.......
 1cf0 9305d000 3b16b500 23b8c21a b7a3ffff  ....;...#.......
 1d00 6384c300 6ff00fb2 1305b0ff 9305d000  c...o...........
 1d10 3b16b500 23bcc21a b763ffff 6384c300  ;...#....c..c...
 1d20 6ff04fb0 130570ff 93053000 3b16b500  o.O...p...0.;...
 1d30 23b0c21c 930380fb 6384c300 6ff08fae  #.......c...o...
 1d40 1305f0fe 93054000 3b16b500 23b4c21c  ......@.;...#...
 1d50 930300ef 6384c300 6ff0cfac 1305f0fd  ....c...o.......
 1d60 93057000 3b16b500 23b8c21c b7f3ffff  ..p.;...#.......
 1d70 9b8303f8 6384c300 6ff0cfaa 1305f0fb  ....c...o.......
 1d80 93057000 3b16b500 23bcc21c b7e3ffff  ..p.;...#.......
 1d90 9b8303f8 6384c300 6ff0cfa8 1305f0f7  ....c...o.......
 1da0 93052001 3b16b500 23b0c21e b703fcfd  .. .;...#.......
 1db0 6384c300 6ff00fa7 1305f0ef 93058000  c...o...........
 1dc0 3b16b500 23b4c21e b703ffff 9b8303f0  ;...#...........
 1dd0 6384c300 6ff00fa5 1305f0df 93056000  c...o.........`.
 1de0 3b16b500 23b8c21e b783ffff 9b8303fc  ;...#...........
 1df0 6384c300 6ff00fa3 1305f0bf 93052000  c...o......... .
 1e00 3b16b500 23bcc21e b7f3ffff 9b83c3ff  ;...#...........
 1e10 6384c300 6ff00fa1 13051000 1315b500  c...o...........
 1e20 1345f5ff 9305e001 3b16b500 23b0c220  .E......;...#.. 
 1e30 b70300c0 6384c300 6ff0cf9e 13051000  ....c...o.......
 1e40 1315c500 1345f5ff 93055000 3b16b500  .....E....P.;...
 1e50 23b4c220 b703feff 9b8303fe 6384c300  #.. ........c...
 1e60 6ff04f9c 13051000 1315d500 1345f5ff  o.O..........E..
 1e70 93055000 3b16b500 23b8c220 b703fcff  ..P.;...#.. ....
 1e80 9b8303fe 6384c300 6ff0cf99 13051000  ....c...o.......
 1e90 1315e500 1345f5ff 93057000 3b16b500  .....E....p.;...
 1ea0 23bcc220 b703e0ff 9b8303f8 6384c300  #.. ........c...
 1eb0 6ff04f97 13051000 1315f500 1345f5ff  o.O..........E..
 1ec0 93053001 3b16b500 23b0c222 b703f8ff  ..0.;...#.."....
 1ed0 6384c300 6ff00f95 13051000 13150501  c...o...........
 1ee0 1345f5ff 93051001 3b16b500 23b4c222  .E......;...#.."
 1ef0 b703feff 6384c300 6ff0cf92 13051000  ....c...o.......
 1f00 13151501 1345f5ff 9305d001 3b16b500  .....E......;...
 1f10 23b8c222 b70300e0 6384c300 6ff08f90  #.."....c...o...
 1f20 13051000 13152501 1345f5ff 93058000  ......%..E......
 1f30 3b16b500 23bcc222 b70300fc 9b8303f0  ;...#.."........
 1f40 6384c300 6ff00f8e 13051000 13157503  c...o.........u.
 1f50 1345f5ff 93056000 3b16b500 23b0c224  .E....`.;...#..$
 1f60 930300fc 6384c300 6ff0cf8b 13051000  ....c...o.......
 1f70 13158503 1345f5ff 93057001 3b16b500  .....E....p.;...
 1f80 23b4c224 b70380ff 6384c300 6ff08f89  #..$....c...o...
 1f90 13051000 13159503 1345f5ff 9305b001  .........E......
 1fa0 3b16b500 23b8c224 b70300f8 6384c300  ;...#..$....c...
 1fb0 6ff04f87 13051000 1315a503 1345f5ff  o.O..........E..
 1fc0 93057000 3b16b500 23bcc224 930300f8  ..p.;...#..$....
 1fd0 6384c300 6ff00f85 13051000 1315b503  c...o...........
 1fe0 1345f5ff 9305d000 3b16b500 23b0c226  .E......;...#..&
 1ff0 b7e3ffff 6384c300 6ff0cf82 13051000  ....c...o.......
 2000 1315c503 1345f5ff 9305d001 3b16b500  .....E......;...
 2010 23b4c226 b70300e0 6384c300 6ff08f80  #..&....c...o...
 2020 13051000 1315d503 1345f5ff 9305f001  .........E......
 2030 3b16b500 23b8c226 b7030080 6384c300  ;...#..&....c...
 2040 6fe05ffe 13051000 1315e503 1345f5ff  o._..........E..
 2050 93053001 3b16b500 23bcc226 b703f8ff  ..0.;...#..&....
 2060 6384c300 6fe01ffc 37555555 13055555  c...o...7UUU..UU
 2070 1315b500 1305a52a 1315b500 13055555  .......*......UU
 2080 1315a500 13055515 93052000 3b16b500  ......U... .;...
 2090 23b0c228 b7535555 9b834355 6384c300  #..(.SUU..CUc...
 20a0 6fe05ff8 37b5aaaa 1305a5aa 1315b500  o._.7...........
 20b0 13055555 1315b500 1305a52a 1315a500  ..UU.......*....
 20c0 1305a52a 9305f000 3b16b500 23b4c228  ...*....;...#..(
 20d0 b7035555 6384c300 6fe0dff4 13053000  ..UUc...o.....0.
 20e0 93057001 3b16b500 23b8c228 b7038001  ..p.;...#..(....
 20f0 6384c300 6fe01ff3 37353333 13053533  c...o...7533..53
 2100 1315b500 13059519 1315b500 1305c54c  ...............L
 2110 1315a500 13053533 93053001 3b16b500  ......53..0.;...
 2120 23bcc228 b7039899 6384c300 6fe09fef  #..(....c...o...
 2130 37656666 13056566 1315b500 13053533  7eff..ef......53
 2140 1315b500 13059519 1315a500 13056526  ..............e&
 2150 93051001 3b16b500 23b0c22a b703cccc  ....;...#..*....
 2160 6384c300 6fe01fec 37050000 1305f5ff  c...o...7.......
 2170 1315b500 13057525 1315b500 1305356c  ......u%......5l
 2180 1315a500 1305d50c 9305b001 3b16b500  ............;...
 2190 23b4c22a b7030068 6384c300 6fe09fe8  #..*...hc...o...
 21a0 37050000 13050500 1315b500 1305855a  7..............Z
 21b0 1315b500 1305c513 1315a500 13053533  ..............53
 21c0 93054000 3b16b500 23b8c22a b7334f50  ..@.;...#..*.3OP
 21d0 9b830333 6384c300 6fe0dfe4 37555555  ...3c...o...7UUU
 21e0 13055555 1315b500 1305a52a 1315b500  ..UU.......*....
 21f0 13055555 1315a500 13054515 93051000  ..UU......E.....
 2200 3b16b500 23bcc22a b7b3aaaa 9b8383aa  ;...#..*........
 2210 6384c300 6fe01fe1 37353333 13053533  c...o...7533..53
 2220 1315b500 13059519 1315b500 1305c54c  ...............L
 2230 1315a500 13052533 9305e000 3b16b500  ......%3....;...
 2240 23b0c22c b783cccc 6384c300 6fe09fdd  #..,....c...o...
 2250 37656666 13056566 1315b500 13053533  7eff..ef......53
 2260 1315b500 13059519 1315a500 13055526  ..............U&
 2270 93054000 3b16b500 23b4c22c b7636666  ..@.;...#..,.cff
 2280 9b830365 6384c300 6fe0dfd9 37050000  ...ec...o...7...
 2290 13050500 1315b500 1305855a 1315b500  ...........Z....
 22a0 1305c513 1315a500 13052533 93051001  ..........%3....
 22b0 3b16b500 23b8c22c b70364e6 6384c300  ;...#..,..d.c...
 22c0 6fe05fd6 37555555 13055555 1315b500  o._.7UUU..UU....
 22d0 1305a52a 1315b500 13055555 1315a500  ...*......UU....
 22e0 13056515 93051000 3b16b500 23bcc22c  ..e.....;...#..,
 22f0 b7b3aaaa 9b83c3aa 6384c300 6fe09fd2  ........c...o...
 2300 37b5aaaa 1305a5aa 1315b500 13055555  7.............UU
 2310 1315b500 1305a52a 1315a500 1305b52a  .......*.......*
 2320 93050001 3b16b500 23b0c22e b703abaa  ....;...#.......
 2330 6384c300 6fe01fcf 13056000 9305f001  c...o.....`.....
 2340 3b16b500 23b4c22e 93030000 6384c300  ;...#.......c...
 2350 6fe05fcd 37353333 13053533 1315b500  o._.7533..53....
 2360 13059519 1315b500 1305c54c 1315a500  ...........L....
 2370 13054533 9305a000 3b16b500 23b8c22e  ..E3....;...#...
 2380 b7d3cccc 6384c300 6fe0dfc9 37656666  ....c...o...7eff
 2390 13056566 1315b500 13053533 1315b500  ..ef......53....
 23a0 13059519 1315a500 13057526 9305d001  ..........u&....
 23b0 3b16b500 23bcc22e b70300e0 6384c300  ;...#.......c...
 23c0 6fe05fc6 37050000 1305f5ff 1315b500  o._.7...........
 23d0 13057525 1315b500 1305356c 1315a500  ..u%......5l....
 23e0 1305e50c 93053000 3b16b500 23b0c230  ......0.;...#..0
 23f0 b763d857 9b830367 6384c300 6fe09fc2  .c.W...gc...o...
 2400 37050000 13050500 1315b500 1305855a  7..............Z
 2410 1315b500 1305c513 1315a500 13054533  ..............E3
 2420 9305f001 3b16b500 23b4c230 93030000  ....;...#..0....
 2430 6384c300 6fe01fbf 13051000 13153501  c...o.........5.
 2440 1345f5ff 93051001 3b16b500 23b8c230  .E......;...#..0
 2450 b703feff 6384c300 6fe0dfbc 13051000  ....c...o.......
 2460 13154501 1345f5ff 93055001 3b16b500  ..E..E....P.;...
 2470 23bcc230 b703e0ff 6384c300 6fe09fba  #..0....c...o...
 2480 13051000 13155501 1345f5ff 93052001  ......U..E.... .
 2490 3b16b500 23b0c232 b703fcff 6384c300  ;...#..2....c...
 24a0 6fe05fb8 13051000 13156501 1345f5ff  o._.......e..E..
 24b0 93052001 3b16b500 23b4c232 b703fcff  .. .;...#..2....
 24c0 6384c300 6fe01fb6 13051000 13157501  c...o.........u.
 24d0 1345f5ff 93051000 3b16b500 23b8c232  .E......;...#..2
 24e0 b70300ff 9b83e3ff 6384c300 6fe09fb3  ........c...o...
 24f0 13051000 13158501 1345f5ff 93050000  .........E......
 2500 3b16b500 23bcc232 b70300ff 9b83f3ff  ;...#..2........
 2510 6384c300 6fe01fb1 13051000 13159501  c...o...........
 2520 1345f5ff 9305d000 3b16b500 23b0c234  .E......;...#..4
 2530 b7e3ffff 6384c300 6fe0dfae 13051000  ....c...o.......
 2540 1315a501 1345f5ff 93055001 3b16b500  .....E....P.;...
 2550 23b4c234 b703e0ff 6384c300 6fe09fac  #..4....c...o...
 2560 13051000 1315b501 1345f5ff 93054000  .........E....@.
 2570 3b16b500 23b8c234 b7030080 9b8303ff  ;...#..4........
 2580 6384c300 6fe01faa 13051000 1315c501  c...o...........
 2590 1345f5ff 9305d000 3b16b500 23bcc234  .E......;...#..4
 25a0 b7e3ffff 6384c300 6fe0dfa7 13051000  ....c...o.......
 25b0 1315d501 1345f5ff 93051001 3b16b500  .....E......;...
 25c0 23b0c236 b703feff 6384c300 6fe09fa5  #..6....c...o...
 25d0 13051000 1315e501 1345f5ff 9305a000  .........E......
 25e0 3b16b500 23b4c236 930300c0 6384c300  ;...#..6....c...
 25f0 6fe05fa3 13051000 1315f501 1345f5ff  o._..........E..
 2600 93053000 3b16b500 23b8c236 930380ff  ..0.;...#..6....
 2610 6384c300 6fe01fa1 13051000 13150502  c...o...........
 2620 1345f5ff 93059000 3b16b500 23bcc236  .E......;...#..6
 2630 930300e0 6384c300 6fe0df9e 13051000  ....c...o.......
 2640 13151502 1345f5ff 93059000 3b16b500  .....E......;...
 2650 23b0c238 930300e0 6384c300 6fe09f9c  #..8....c...o...
 2660 13051000 13152502 1345f5ff 9305b001  ......%..E......
 2670 3b16b500 23b4c238 b70300f8 6384c300  ;...#..8....c...
 2680 6fe05f9a 13051000 13153502 1345f5ff  o._.......5..E..
 2690 93057001 3b16b500 23b8c238 b70380ff  ..p.;...#..8....
 26a0 6384c300 6fe01f98 13051000 13154502  c...o.........E.
 26b0 1345f5ff 93052000 3b16b500 23bcc238  .E.... .;...#..8
 26c0 9303c0ff 6384c300 6fe0df95 13051000  ....c...o.......
 26d0 13155502 1345f5ff 93057001 3b16b500  ..U..E....p.;...
 26e0 23b0c23a b70380ff 6384c300 6fe09f93  #..:....c...o...
 26f0 13051000 13156502 1345f5ff 9305d000  ......e..E......
 2700 3b16b500 23b4c23a b7e3ffff 6384c300  ;...#..:....c...
 2710 6fe05f91 13051000 13157502 1345f5ff  o._.......u..E..
 2720 93055000 3b16b500 23b8c23a 930300fe  ..P.;...#..:....
 2730 6384c300 6fe01f8f 13051000 13158502  c...o...........
 2740 1345f5ff 93056000 3b16b500 23bcc23a  .E....`.;...#..:
 2750 930300fc 6384c300 6fe0df8c 13051000  ....c...o.......
 2760 13159502 1345f5ff 9305c000 3b16b500  .....E......;...
 2770 23b0c23c b7f3ffff 6384c300 6fe09f8a  #..<....c...o...
 2780 13051000 1315a502 1345f5ff 93057000  .........E....p.
 2790 3b16b500 23b4c23c 930300f8 6384c300  ;...#..<....c...
 27a0 6fe05f88 13051000 1315b502 1345f5ff  o._..........E..
 27b0 93057001 3b16b500 23b8c23c b70380ff  ..p.;...#..<....
 27c0 6384c300 6fe01f86 13051000 1315c502  c...o...........
 27d0 1345f5ff 9305f001 3b16b500 23bcc23c  .E......;...#..<
 27e0 b7030080 6384c300 6fe0df83 13051000  ....c...o.......
 27f0 1315d502 1345f5ff 93054000 3b16b500  .....E....@.;...
 2800 23b0c23e 930300ff 6384c300 6fe09f81  #..>....c...o...
 2810 13051000 1315e502 1345f5ff 9305d001  .........E......
 2820 3b16b500 23b4c23e b70300e0 6384c300  ;...#..>....c...
 2830 6fe04fff 13051000 13150503 1345f5ff  o.O..........E..
 2840 93050001 3b16b500 23b8c23e b703ffff  ....;...#..>....
 2850 6384c300 6fe00ffd 13051000 13151503  c...o...........
 2860 1345f5ff 93056000 3b16b500 23bcc23e  .E....`.;...#..>
 2870 930300fc 6384c300 6fe0cffa 13051000  ....c...o.......
 2880 13152503 1345f5ff 9305d000 3b16b500  ..%..E......;...
 2890 23b0c240 b7e3ffff 6384c300 6fe08ff8  #..@....c...o...
 28a0 13051000 13153503 1345f5ff 93051000  ......5..E......
 28b0 3b16b500 23b4c240 9303e0ff 6384c300  ;...#..@....c...
 28c0 6fe04ff6 13051000 13154503 1345f5ff  o.O.......E..E..
 28d0 93052001 3b16b500 23b8c240 b703fcff  .. .;...#..@....
 28e0 6384c300 6fe00ff4 13051000 13155503  c...o.........U.
 28f0 1345f5ff 9305e001 3b16b500 23bcc240  .E......;...#..@
 2900 b70300c0 6384c300 6fe0cff1 13051000  ....c...o.......
 2910 13156503 1345f5ff 9305e000 3b16b500  ..e..E......;...
 2920 23b0c242 b7c3ffff 6384c300 6fe08fef  #..B....c...o...
 2930 13051000 1315f502 1345f5ff 9305f000  .........E......
 2940 3b16b500 23b4c242 b783ffff 6384c300  ;...#..B....c...
 2950 6fe04fed 1305f0ff 13551500 93057001  o.O......U....p.
 2960 3b16b500 23b8c242 b70380ff 6384c300  ;...#..B....c...
 2970 6fe04feb 13050004 93051001 3b16b500  o.O.........;...
 2980 23bcc242 b7038000 6384c300 6fe08fe9  #..B....c...o...
 2990 13051000 13156501 93056000 3b16b500  ......e...`.;...
 29a0 23b0c244 b7030010 6384c300 6fe08fe7  #..D....c...o...
 29b0 6f008003 8334811f 03330120 33039300  o....4...3. 3...
 29c0 37030000 13030300 1313b300 1303635d  7.............c]
 29d0 1313b300 13036343 1313a300 1303032d  ......cC.......-
 29e0 23be64fe 6f004000 13050000 6f004001  #.d.o.@.....o.@.
 29f0 00000000 00000000 00000000 00000000  ................
 2a00 13050500 73001000 6f000000 130101ff  ....s...o.......
 2a10 17050000 13050502 23341100 efe04fdf  ........#4....O.
 2a20 13050500 73001000 6f000000 00000000  ....s...o.......
 2a30 00000000 00000000 00000000 00000000  ................
 2a40 00000000 00000000 00000000 00000000  ................
 2a50 00000000 00000000 00000000 00000000  ................
 2a60 00000000 00000000 00000000 00000000  ................
 2a70 00000000 00000000 00000000 00000000  ................
 2a80 00000000 00000000 00000000 00000000  ................
 2a90 00000000 00000000 00000000 00000000  ................
 2aa0 00000000 00000000 00000000 00000000  ................
 2ab0 00000000 00000000 00000000 00000000  ................
 2ac0 00000000 00000000 00000000 00000000  ................
 2ad0 00000000 00000000 00000000 00000000  ................
 2ae0 00000000 00000000 00000000 00000000  ................
 2af0 00000000 00000000 00000000 00000000  ................
 2b00 00000000 00000000 00000000 00000000  ................
 2b10 00000000 00000000 00000000 00000000  ................
 2b20 00000000 00000000 00000000 00000000  ................
 2b30 00000000 00000000 00000000 00000000  ................
 2b40 00000000 00000000 00000000 00000000  ................
 2b50 00000000 00000000 00000000 00000000  ................
 2b60 00000000 00000000 00000000 00000000  ................
 2b70 00000000 00000000 00000000 00000000  ................
 2b80 00000000 00000000 00000000 00000000  ................
 2b90 00000000 00000000 00000000 00000000  ................
 2ba0 00000000 00000000 00000000 00000000  ................
 2bb0 00000000 00000000 00000000 00000000  ................
 2bc0 00000000 00000000 00000000 00000000  ................
 2bd0 00000000 00000000 00000000 00000000  ................
 2be0 00000000 00000000 00000000 00000000  ................
 2bf0 00000000 00000000 00000000 00000000  ................
 2c00 00000000 00000000 00000000 00000000  ................
 2c10 00000000 00000000 00000000 00000000  ................
 2c20 00000000 00000000 00000000 00000000  ................
 2c30 00000000 00000000 00000000 00000000  ................
 2c40 00000000 00000000 00000000 00000000  ................
 2c50 00000000 00000000 00000000 00000000  ................
 2c60 00000000 00000000 00000000 00000000  ................
 2c70 00000000 00000000 00000000 00000000  ................
 2c80 00000000 00000000 00000000 00000000  ................
 2c90 00000000 00000000 00000000 00000000  ................
 2ca0 00000000 00000000 00000000 00000000  ................
 2cb0 00000000 00000000 00000000 00000000  ................
 2cc0 00000000 00000000 00000000 00000000  ................
 2cd0 00000000 00000000 00000000 00000000  ................
 2ce0 00000000 00000000 00000000 00000000  ................
 2cf0 00000000 00000000 00000000 00000000  ................
 2d00 00000000 00000000 00000000 00000000  ................
 2d10 00000000 00000000 00000000 00000000  ................
 2d20 00000000 00000000 00000000 00000000  ................
 2d30 00000000 00000000 00000000 00000000  ................
 2d40 00000000 00000000 00000000 00000000  ................
 2d50 00000000 00000000 00000000 00000000  ................
 2d60 00000000 00000000 00000000 00000000  ................
 2d70 00000000 00000000 00000000 00000000  ................
 2d80 00000000 00000000 00000000 00000000  ................
 2d90 00000000 00000000 00000000 00000000  ................
 2da0 00000000 00000000 00000000 00000000  ................
 2db0 00000000 00000000 00000000 00000000  ................
 2dc0 00000000 00000000 00000000 00000000  ................
 2dd0 00000000 00000000 00000000 00000000  ................
 2de0 00000000 00000000 00000000 00000000  ................
 2df0 00000000 00000000 00000000 00000000  ................
 2e00 00000000 00000000 00000000 00000000  ................
 2e10 00000000 00000000 00000000 00000000  ................
 2e20 00000000 00000000 00000000 00000000  ................
 2e30 00000000 00000000 00000000 00000000  ................
 2e40 00000000 00000000 00000000 00000000  ................
 2e50 00000000 00000000 00000000 00000000  ................
 2e60 00000000 00000000 00000000 00000000  ................
 2e70 00000000 00000000 00000000 00000000  ................
 2e80 00000000 00000000 00000000 00000000  ................
 2e90 00000000 00000000 00000000 00000000  ................
 2ea0 00000000 00000000 00000000 00000000  ................
 2eb0 00000000 00000000 00000000 00000000  ................
 2ec0 00000000 00000000 00000000 00000000  ................
 2ed0 00000000 00000000 00000000 00000000  ................
 2ee0 00000000 00000000 00000000 00000000  ................
 2ef0 00000000 00000000 00000000 00000000  ................
 2f00 00000000 00000000 00000000 00000000  ................
 2f10 00000000 00000000 00000000 00000000  ................
 2f20 00000000 00000000 00000000 00000000  ................
 2f30 00000000 00000000 00000000 00000000  ................
 2f40 00000000 00000000 00000000 00000000  ................
 2f50 00000000 00000000 00000000 00000000  ................
 2f60 00000000 00000000 00000000 00000000  ................
 2f70 00000000 00000000 00000000 00000000  ................
 2f80 00000000 00000000 00000000 00000000  ................
 2f90 00000000 00000000 00000000 00000000  ................
 2fa0 00000000 00000000 00000000 00000000  ................
 2fb0 00000000 00000000 00000000 00000000  ................
 2fc0 00000000 00000000 00000000 00000000  ................
 2fd0 00000000 00000000 00000000 00000000  ................
 2fe0 00000000 00000000 00000000 00000000  ................
 2ff0 00000000 00000000 00000000 00000000  ................
 3000 fecabeba fecabeba fecabeba fecabeba  ................
 3010 efbeadde efbeadde 00000000 00000000  ................
 3020 00000000 00000000 00000000 00000000  ................
 3030 00000000 00000000 00000000 00000000  ................
 3040 00000000 00000000 00000000 00000000  ................
 3050 00000000 00000000 00000000 00000000  ................
 3060 00000000 00000000 00000000 00000000  ................
 3070 00000000 00000000 00000000 00000000  ................
 3080 00000000 00000000 00000000 00000000  ................
 3090 00000000 00000000 00000000 00000000  ................
 30a0 00000000 00000000 00000000 00000000  ................
 30b0 00000000 00000000 00000000 00000000  ................
 30c0 00000000 00000000 00000000 00000000  ................
 30d0 00000000 00000000 00000000 00000000  ................
 30e0 00000000 00000000 00000000 00000000  ................
 30f0 00000000 00000000 00000000 00000000  ................
 3100 00000000 00000000 00000000 00000000  ................
 3110 00000000 00000000 00000000 00000000  ................
 3120 00000000 00000000 00000000 00000000  ................
 3130 00000000 00000000 00000000 00000000  ................
 3140 00000000 00000000 00000000 00000000  ................
 3150 00000000 00000000 00000000 00000000  ................
 3160 00000000 00000000 00000000 00000000  ................
 3170 00000000 00000000 00000000 00000000  ................
 3180 00000000 00000000 00000000 00000000  ................
 3190 00000000 00000000 00000000 00000000  ................
 31a0 00000000 00000000 00000000 00000000  ................
 31b0 00000000 00000000 00000000 00000000  ................
 31c0 00000000 00000000 00000000 00000000  ................
 31d0 00000000 00000000 00000000 00000000  ................
 31e0 00000000 00000000 00000000 00000000  ................
 31f0 00000000 00000000 00000000 00000000  ................
 3200 00000000 00000000 00000000 00000000  ................
 3210 00000000 00000000 00000000 00000000  ................
 3220 00000000 00000000 00000000 00000000  ................
 3230 00000000 00000000 00000000 00000000  ................
 3240 00000000 00000000 00000000 00000000  ................
 3250 00000000 00000000 00000000 00000000  ................
 3260 00000000 00000000 00000000 00000000  ................
 3270 00000000 00000000 00000000 00000000  ................
 3280 00000000 00000000 00000000 00000000  ................
 3290 00000000 00000000 00000000 00000000  ................
 32a0 00000000 00000000 00000000 00000000  ................
 32b0 00000000 00000000 00000000 00000000  ................
 32c0 00000000 00000000 00000000 00000000  ................
 32d0 00000000 00000000 00000000 00000000  ................
 32e0 00000000 00000000 00000000 00000000  ................
 32f0 00000000 00000000 00000000 00000000  ................
 3300 00000000 00000000 00000000 00000000  ................
 3310 00000000 00000000 00000000 00000000  ................
 3320 00000000 00000000 00000000 00000000  ................
 3330 00000000 00000000 00000000 00000000  ................
 3340 00000000 00000000 00000000 00000000  ................
 3350 00000000 00000000 00000000 00000000  ................
 3360 00000000 00000000 00000000 00000000  ................
 3370 00000000 00000000 00000000 00000000  ................
 3380 00000000 00000000 00000000 00000000  ................
 3390 00000000 00000000 00000000 00000000  ................
 33a0 00000000 00000000 00000000 00000000  ................
 33b0 00000000 00000000 00000000 00000000  ................
 33c0 00000000 00000000 00000000 00000000  ................
 33d0 00000000 00000000 00000000 00000000  ................
 33e0 00000000 00000000 00000000 00000000  ................
 33f0 00000000 00000000 00000000 00000000  ................
 3400 00000000 00000000 00000000 00000000  ................
 3410 00000000 00000000 00000000 00000000  ................
 3420 00000000 00000000 00000000 00000000  ................
 3430 00000000 00000000 00000000 00000000  ................
 3440 00000000 00000000 00000000 00000000  ................
 3450 00000000 00000000 00000000 00000000  ................
 3460 00000000 00000000 00000000 00000000  ................
 3470 00000000 00000000 00000000 00000000  ................
 3480 00000000 00000000 00000000 00000000  ................
 3490 00000000 00000000 00000000 00000000  ................
 34a0 00000000 00000000 00000000 00000000  ................
 34b0 00000000 00000000 00000000 00000000  ................
 34c0 00000000 00000000 00000000 00000000  ................
 34d0 00000000 00000000 00000000 00000000  ................
 34e0 00000000 00000000 00000000 00000000  ................
 34f0 00000000 00000000 00000000 00000000  ................
 3500 00000000 00000000 00000000 00000000  ................
 3510 00000000 00000000 00000000 00000000  ................
 3520 00000000 00000000 00000000 00000000  ................
 3530 00000000 00000000 00000000 00000000  ................
 3540 00000000 00000000 00000000 00000000  ................
 3550 00000000 00000000 00000000 00000000  ................
 3560 00000000 00000000 00000000 00000000  ................
 3570 00000000 00000000 00000000 00000000  ................
 3580 00000000 00000000 00000000 00000000  ................
 3590 00000000 00000000 00000000 00000000  ................
 35a0 00000000 00000000 00000000 00000000  ................
 35b0 00000000 00000000 00000000 00000000  ................
 35c0 00000000 00000000 00000000 00000000  ................
 35d0 00000000 00000000 00000000 00000000  ................
 35e0 00000000 00000000 00000000 00000000  ................
 35f0 00000000 00000000 00000000 00000000  ................
 3600 00000000 00000000 00000000 00000000  ................
 3610 00000000 00000000 00000000 00000000  ................
 3620 00000000 00000000 00000000 00000000  ................
 3630 00000000 00000000 00000000 00000000  ................
 3640 00000000 00000000 00000000 00000000  ................
 3650 00000000 00000000 00000000 00000000  ................
 3660 00000000 00000000 00000000 00000000  ................
 3670 00000000 00000000 00000000 00000000  ................
 3680 00000000 00000000 00000000 00000000  ................
 3690 00000000 00000000 00000000 00000000  ................
 36a0 00000000 00000000 00000000 00000000  ................
 36b0 00000000 00000000 00000000 00000000  ................
 36c0 00000000 00000000 00000000 00000000  ................
 36d0 00000000 00000000 00000000 00000000  ................
 36e0 00000000 00000000 00000000 00000000  ................
 36f0 00000000 00000000 00000000 00000000  ................
 3700 00000000 00000000 00000000 00000000  ................
 3710 00000000 00000000 00000000 00000000  ................
 3720 00000000 00000000 00000000 00000000  ................
 3730 00000000 00000000 00000000 00000000  ................
 3740 00000000 00000000 00000000 00000000  ................
 3750 00000000 00000000 00000000 00000000  ................
 3760 00000000 00000000 00000000 00000000  ................
 3770 00000000 00000000 00000000 00000000  ................
 3780 00000000 00000000 00000000 00000000  ................
 3790 00000000 00000000 00000000 00000000  ................
 37a0 00000000 00000000 00000000 00000000  ................
 37b0 00000000 00000000 00000000 00000000  ................
 37c0 00000000 00000000 00000000 00000000  ................
 37d0 00000000 00000000 00000000 00000000  ................
 37e0 00000000 00000000 00000000 00000000  ................
 37f0 00000000 00000000 00000000 00000000  ................
 3800 00000000 00000000 00000000 00000000  ................
 3810 00000000 00000000 00000000 00000000  ................
 3820 00000000 00000000 00000000 00000000  ................
 3830 00000000 00000000 00000000 00000000  ................
 3840 00000000 00000000 00000000 00000000  ................
 3850 00000000 00000000 00000000 00000000  ................
 3860 00000000 00000000 00000000 00000000  ................
 3870 00000000 00000000 00000000 00000000  ................
 3880 00000000 00000000 00000000 00000000  ................
 3890 00000000 00000000 00000000 00000000  ................
 38a0 00000000 00000000 00000000 00000000  ................
 38b0 00000000 00000000 00000000 00000000  ................
 38c0 00000000 00000000 00000000 00000000  ................
 38d0 00000000 00000000 00000000 00000000  ................
 38e0 00000000 00000000 00000000 00000000  ................
 38f0 00000000 00000000 00000000 00000000  ................
 3900 00000000 00000000 00000000 00000000  ................
 3910 00000000 00000000 00000000 00000000  ................
 3920 00000000 00000000 00000000 00000000  ................
 3930 00000000 00000000 00000000 00000000  ................
 3940 00000000 00000000 00000000 00000000  ................
 3950 00000000 00000000 00000000 00000000  ................
 3960 00000000 00000000 00000000 00000000  ................
 3970 00000000 00000000 00000000 00000000  ................
 3980 00000000 00000000 00000000 00000000  ................
 3990 00000000 00000000 00000000 00000000  ................
 39a0 00000000 00000000 00000000 00000000  ................
 39b0 00000000 00000000 00000000 00000000  ................
 39c0 00000000 00000000 00000000 00000000  ................
 39d0 00000000 00000000 00000000 00000000  ................
 39e0 00000000 00000000 00000000 00000000  ................
 39f0 00000000 00000000 00000000 00000000  ................
 3a00 00000000 00000000 00000000 00000000  ................
 3a10 00000000 00000000 00000000 00000000  ................
 3a20 00000000 00000000 00000000 00000000  ................
 3a30 00000000 00000000 00000000 00000000  ................
 3a40 00000000 00000000 00000000 00000000  ................
 3a50 00000000 00000000 00000000 00000000  ................
 3a60 00000000 00000000 00000000 00000000  ................
 3a70 00000000 00000000 00000000 00000000  ................
 3a80 00000000 00000000 00000000 00000000  ................
 3a90 00000000 00000000 00000000 00000000  ................
 3aa0 00000000 00000000 00000000 00000000  ................
 3ab0 00000000 00000000 00000000 00000000  ................
 3ac0 00000000 00000000 00000000 00000000  ................
 3ad0 00000000 00000000 00000000 00000000  ................
 3ae0 00000000 00000000 00000000 00000000  ................
 3af0 00000000 00000000 00000000 00000000  ................
 3b00 00000000 00000000 00000000 00000000  ................
 3b10 00000000 00000000 00000000 00000000  ................
 3b20 00000000 00000000 00000000 00000000  ................
 3b30 00000000 00000000 00000000 00000000  ................
 3b40 00000000 00000000 00000000 00000000  ................
 3b50 00000000 00000000 00000000 00000000  ................
 3b60 00000000 00000000 00000000 00000000  ................
 3b70 00000000 00000000 00000000 00000000  ................
 3b80 00000000 00000000 00000000 00000000  ................
 3b90 00000000 00000000 00000000 00000000  ................
 3ba0 00000000 00000000 00000000 00000000  ................
 3bb0 00000000 00000000 00000000 00000000  ................
 3bc0 00000000 00000000 00000000 00000000  ................
 3bd0 00000000 00000000 00000000 00000000  ................
 3be0 00000000 00000000 00000000 00000000  ................
 3bf0 00000000 00000000 00000000 00000000  ................
 3c00 00000000 00000000 00000000 00000000  ................
 3c10 00000000 00000000 00000000 00000000  ................
 3c20 00000000 00000000 00000000 00000000  ................
 3c30 00000000 00000000 00000000 00000000  ................
 3c40 00000000 00000000 00000000 00000000  ................
 3c50 00000000 00000000 00000000 00000000  ................
 3c60 00000000 00000000 00000000 00000000  ................
 3c70 00000000 00000000 00000000 00000000  ................
 3c80 00000000 00000000 00000000 00000000  ................
 3c90 00000000 00000000 00000000 00000000  ................
 3ca0 00000000 00000000 00000000 00000000  ................
 3cb0 00000000 00000000 00000000 00000000  ................
 3cc0 00000000 00000000 00000000 00000000  ................
 3cd0 00000000 00000000 00000000 00000000  ................
 3ce0 00000000 00000000 00000000 00000000  ................
 3cf0 00000000 00000000 00000000 00000000  ................
 3d00 00000000 00000000 00000000 00000000  ................
 3d10 00000000 00000000 00000000 00000000  ................
 3d20 00000000 00000000 00000000 00000000  ................
 3d30 00000000 00000000 00000000 00000000  ................
 3d40 00000000 00000000 00000000 00000000  ................
 3d50 00000000 00000000 00000000 00000000  ................
 3d60 00000000 00000000 00000000 00000000  ................
 3d70 00000000 00000000 00000000 00000000  ................
 3d80 00000000 00000000 00000000 00000000  ................
 3d90 00000000 00000000 00000000 00000000  ................
 3da0 00000000 00000000 00000000 00000000  ................
 3db0 00000000 00000000 00000000 00000000  ................
 3dc0 00000000 00000000 00000000 00000000  ................
 3dd0 00000000 00000000 00000000 00000000  ................
 3de0 00000000 00000000 00000000 00000000  ................
 3df0 00000000 00000000 00000000 00000000  ................
 3e00 00000000 00000000 00000000 00000000  ................
 3e10 00000000 00000000 00000000 00000000  ................
 3e20 00000000 00000000 00000000 00000000  ................
 3e30 00000000 00000000 00000000 00000000  ................
 3e40 00000000 00000000 00000000 00000000  ................
 3e50 00000000 00000000 00000000 00000000  ................
 3e60 00000000 00000000 00000000 00000000  ................
 3e70 00000000 00000000 00000000 00000000  ................
 3e80 00000000 00000000 00000000 00000000  ................
 3e90 00000000 00000000 00000000 00000000  ................
 3ea0 00000000 00000000 00000000 00000000  ................
 3eb0 00000000 00000000 00000000 00000000  ................
 3ec0 00000000 00000000 00000000 00000000  ................
 3ed0 00000000 00000000 00000000 00000000  ................
 3ee0 00000000 00000000 00000000 00000000  ................
 3ef0 00000000 00000000 00000000 00000000  ................
 3f00 00000000 00000000 00000000 00000000  ................
 3f10 00000000 00000000 00000000 00000000  ................
 3f20 00000000 00000000 00000000 00000000  ................
 3f30 00000000 00000000 00000000 00000000  ................
 3f40 00000000 00000000 00000000 00000000  ................
 3f50 00000000 00000000 00000000 00000000  ................
 3f60 00000000 00000000 00000000 00000000  ................
 3f70 00000000 00000000 00000000 00000000  ................
 3f80 00000000 00000000 00000000 00000000  ................
 3f90 00000000 00000000 00000000 00000000  ................
 3fa0 00000000 00000000 00000000 00000000  ................
 3fb0 00000000 00000000 00000000 00000000  ................
 3fc0 00000000 00000000 00000000 00000000  ................
 3fd0 00000000 00000000 00000000 00000000  ................
 3fe0 00000000 00000000 00000000 00000000  ................
 3ff0 00000000 00000000 00000000 00000000  ................
 4000 81b2d4e7 09a35c6f efbeadde efbeadde  ......\o........
 4010 efbeadde efbeadde efbeadde efbeadde  ................
 4020 efbeadde efbeadde efbeadde efbeadde  ................
 4030 efbeadde efbeadde efbeadde efbeadde  ................
 4040 efbeadde efbeadde efbeadde efbeadde  ................
 4050 efbeadde efbeadde efbeadde efbeadde  ................
 4060 efbeadde efbeadde efbeadde efbeadde  ................
 4070 efbeadde efbeadde efbeadde efbeadde  ................
 4080 efbeadde efbeadde efbeadde efbeadde  ................
 4090 efbeadde efbeadde efbeadde efbeadde  ................
 40a0 efbeadde efbeadde efbeadde efbeadde  ................
 40b0 efbeadde efbeadde efbeadde efbeadde  ................
 40c0 efbeadde efbeadde efbeadde efbeadde  ................
 40d0 efbeadde efbeadde efbeadde efbeadde  ................
 40e0 efbeadde efbeadde efbeadde efbeadde  ................
 40f0 efbeadde efbeadde efbeadde efbeadde  ................
 4100 efbeadde efbeadde efbeadde efbeadde  ................
 4110 efbeadde efbeadde efbeadde efbeadde  ................
 4120 efbeadde efbeadde efbeadde efbeadde  ................
 4130 efbeadde efbeadde efbeadde efbeadde  ................
 4140 efbeadde efbeadde efbeadde efbeadde  ................
 4150 efbeadde efbeadde efbeadde efbeadde  ................
 4160 efbeadde efbeadde efbeadde efbeadde  ................
 4170 efbeadde efbeadde efbeadde efbeadde  ................
 4180 efbeadde efbeadde efbeadde efbeadde  ................
 4190 efbeadde efbeadde efbeadde efbeadde  ................
 41a0 efbeadde efbeadde efbeadde efbeadde  ................
 41b0 efbeadde efbeadde efbeadde efbeadde  ................
 41c0 efbeadde efbeadde efbeadde efbeadde  ................
 41d0 efbeadde efbeadde efbeadde efbeadde  ................
 41e0 efbeadde efbeadde efbeadde efbeadde  ................
 41f0 efbeadde efbeadde efbeadde efbeadde  ................
 4200 efbeadde efbeadde efbeadde efbeadde  ................
 4210 efbeadde efbeadde efbeadde efbeadde  ................
 4220 efbeadde efbeadde efbeadde efbeadde  ................
 4230 efbeadde efbeadde efbeadde efbeadde  ................
 4240 efbeadde efbeadde efbeadde efbeadde  ................
 4250 efbeadde efbeadde efbeadde efbeadde  ................
 4260 efbeadde efbeadde efbeadde efbeadde  ................
 4270 efbeadde efbeadde efbeadde efbeadde  ................
 4280 efbeadde efbeadde efbeadde efbeadde  ................
 4290 efbeadde efbeadde efbeadde efbeadde  ................
 42a0 efbeadde efbeadde efbeadde efbeadde  ................
 42b0 efbeadde efbeadde efbeadde efbeadde  ................
 42c0 efbeadde efbeadde efbeadde efbeadde  ................
 42d0 efbeadde efbeadde efbeadde efbeadde  ................
 42e0 efbeadde efbeadde efbeadde efbeadde  ................
 42f0 efbeadde efbeadde efbeadde efbeadde  ................
 4300 efbeadde efbeadde efbeadde efbeadde  ................
 4310 efbeadde efbeadde efbeadde efbeadde  ................
 4320 efbeadde efbeadde efbeadde efbeadde  ................
 4330 efbeadde efbeadde efbeadde efbeadde  ................
 4340 efbeadde efbeadde efbeadde efbeadde  ................
 4350 efbeadde efbeadde efbeadde efbeadde  ................
 4360 efbeadde efbeadde efbeadde efbeadde  ................
 4370 efbeadde efbeadde efbeadde efbeadde  ................
 4380 efbeadde efbeadde efbeadde efbeadde  ................
 4390 efbeadde efbeadde efbeadde efbeadde  ................
 43a0 efbeadde efbeadde efbeadde efbeadde  ................
 43b0 efbeadde efbeadde efbeadde efbeadde  ................
 43c0 efbeadde efbeadde efbeadde efbeadde  ................
 43d0 efbeadde efbeadde efbeadde efbeadde  ................
 43e0 efbeadde efbeadde efbeadde efbeadde  ................
 43f0 efbeadde efbeadde efbeadde efbeadde  ................
 4400 efbeadde efbeadde efbeadde efbeadde  ................
 4410 efbeadde efbeadde efbeadde efbeadde  ................
 4420 efbeadde efbeadde efbeadde efbeadde  ................
 4430 efbeadde efbeadde efbeadde efbeadde  ................
 4440 efbeadde efbeadde efbeadde efbeadde  ................
 4450 efbeadde efbeadde efbeadde efbeadde  ................
 4460 efbeadde efbeadde efbeadde efbeadde  ................
 4470 efbeadde efbeadde efbeadde efbeadde  ................
 4480 efbeadde efbeadde efbeadde efbeadde  ................
 4490 efbeadde efbeadde efbeadde efbeadde  ................
 44a0 efbeadde efbeadde efbeadde efbeadde  ................
 44b0 efbeadde efbeadde efbeadde efbeadde  ................
 44c0 efbeadde efbeadde efbeadde efbeadde  ................
 44d0 81b2d4e7 09a35c6f 00000000 00000000  ......\o........
 44e0 4743433a 20285562 756e7475 2031312e  GCC: (Ubuntu 11.
 44f0 322e302d 31367562 756e7475 31292031  2.0-16ubuntu1) 1
 4500 312e322e 3000412d 00000072 69736376  1.2.0.A-...riscv
 4510 00012300 00000572 76363469 3270305f  ..#....rv64i2p0_
 4520 6d327030 5f613270 305f6632 70305f64  m2p0_a2p0_f2p0_d
 4530 32703000 00000000 00000000 00000000  2p0.............
 4540 00000000 00000000 00000000 00000000  ................
 4550 00000000 03000100 00000080 00000000  ................
 4560 00000000 00000000 00000000 03000200  ................
 4570 301a0080 00000000 00000000 00000000  0...............
 4580 00000000 03000300 00200080 00000000  ......... ......
 4590 00000000 00000000 00000000 03000400  ................
 45a0 00000000 00000000 00000000 00000000  ................
 45b0 00000000 03000500 00000000 00000000  ................
 45c0 00000000 00000000 01000000 0400f1ff  ................
 45d0 00000000 00000000 00000000 00000000  ................
 45e0 09000000 00000100 00000080 00000000  ................
 45f0 00000000 00000000 0c000000 0400f1ff  ................
 4600 00000000 00000000 00000000 00000000  ................
 4610 09000000 00000100 10000080 00000000  ................
 4620 00000000 00000000 09000000 00000100  ................
 4630 24000080 00000000 00000000 00000000  $...............
 4640 13000000 0400f1ff 00000000 00000000  ................
 4650 00000000 00000000 1d000000 0000f1ff  ................
 4660 03000000 00000000 00000000 00000000  ................
 4670 27000000 0000f1ff 01000000 00000000  '...............
 4680 00000000 00000000 31000000 0000f1ff  ........1.......
 4690 02000000 00000000 00000000 00000000  ................
 46a0 09000000 00000100 40000080 00000000  ........@.......
 46b0 00000000 00000000 3b000000 0000f1ff  ........;.......
 46c0 d0dad0ba 00000000 00000000 00000000  ................
 46d0 40000000 0000f1ff 04000000 00000000  @...............
 46e0 00000000 00000000 46000000 0000f1ff  ........F.......
 46f0 05000000 00000000 00000000 00000000  ................
 4700 4c000000 0000f1ff 00000000 00000000  L...............
 4710 00000000 00000000 51000000 0000f1ff  ........Q.......
 4720 00000000 00000000 00000000 00000000  ................
 4730 56000000 0000f1ff d0dad0ba 00000000  V...............
 4740 00000000 00000000 5b000000 0000f1ff  ........[.......
 4750 40000000 00000000 00000000 00000000  @...............
 4760 5f000000 0000f1ff d0dad0ba 00000000  _...............
 4770 00000000 00000000 66000000 0000f1ff  ........f.......
 4780 01000000 00000000 00000000 00000000  ................
 4790 6a000000 0000f1ff d0faffff ffffffff  j...............
 47a0 00000000 00000000 70000000 0000f1ff  ........p.......
 47b0 01000000 00000000 00000000 00000000  ................
 47c0 75000000 0000f1ff 00000000 00000000  u...............
 47d0 00000000 00000000 7a000000 0000f1ff  ........z.......
 47e0 ad0dad0b 00000000 00000000 00000000  ................
 47f0 81000000 0000f1ff adfdffff ffffffff  ................
 4800 00000000 00000000 89000000 0000f1ff  ................
 4810 01000000 00000000 00000000 00000000  ................
 4820 8f000000 0000f1ff ad0dad0b 00000000  ................
 4830 00000000 00000000 98000000 00000300  ................
 4840 08300080 00000000 00000000 00000000  .0..............
 4850 d2060000 0000f1ff 48040000 00000000  ........H.......
 4860 00000000 00000000 a7000000 00000100  ................
 4870 40040080 00000000 00000000 00000000  @...............
 4880 ae000000 00000100 6c040080 00000000  ........l.......
 4890 00000000 00000000 b5000000 00000100  ................
 48a0 8c040080 00000000 00000000 00000000  ................
 48b0 bc000000 00000100 a8040080 00000000  ................
 48c0 00000000 00000000 c3000000 00000100  ................
 48d0 c8040080 00000000 00000000 00000000  ................
 48e0 ca000000 00000100 e4040080 00000000  ................
 48f0 00000000 00000000 d1000000 00000100  ................
 4900 04050080 00000000 00000000 00000000  ................
 4910 d8000000 00000100 20050080 00000000  ........ .......
 4920 00000000 00000000 df000000 00000100  ................
 4930 40050080 00000000 00000000 00000000  @...............
 4940 e6000000 00000100 5c050080 00000000  ........\.......
 4950 00000000 00000000 ed000000 00000100  ................
 4960 78050080 00000000 00000000 00000000  x...............
 4970 f5000000 00000100 94050080 00000000  ................
 4980 00000000 00000000 fd000000 00000100  ................
 4990 b0050080 00000000 00000000 00000000  ................
 49a0 05010000 00000100 cc050080 00000000  ................
 49b0 00000000 00000000 0d010000 00000100  ................
 49c0 e8050080 00000000 00000000 00000000  ................
 49d0 15010000 00000100 04060080 00000000  ................
 49e0 00000000 00000000 1d010000 00000300  ................
 49f0 88300080 00000000 00000000 00000000  .0..............
 4a00 2c010000 00000100 40060080 00000000  ,.......@.......
 4a10 00000000 00000000 34010000 00000100  ........4.......
 4a20 5c060080 00000000 00000000 00000000  \...............
 4a30 3c010000 00000100 78060080 00000000  <.......x.......
 4a40 00000000 00000000 44010000 00000100  ........D.......
 4a50 94060080 00000000 00000000 00000000  ................
 4a60 4c010000 00000100 b4060080 00000000  L...............
 4a70 00000000 00000000 54010000 00000100  ........T.......
 4a80 d4060080 00000000 00000000 00000000  ................
 4a90 5c010000 00000100 f4060080 00000000  \...............
 4aa0 00000000 00000000 64010000 00000100  ........d.......
 4ab0 14070080 00000000 00000000 00000000  ................
 4ac0 6c010000 00000100 34070080 00000000  l.......4.......
 4ad0 00000000 00000000 74010000 00000100  ........t.......
 4ae0 54070080 00000000 00000000 00000000  T...............
 4af0 7c010000 00000100 74070080 00000000  |.......t.......
 4b00 00000000 00000000 84010000 00000100  ................
 4b10 94070080 00000000 00000000 00000000  ................
 4b20 8c010000 00000100 b4070080 00000000  ................
 4b30 00000000 00000000 94010000 00000100  ................
 4b40 d4070080 00000000 00000000 00000000  ................
 4b50 9c010000 00000100 f4070080 00000000  ................
 4b60 00000000 00000000 a4010000 00000100  ................
 4b70 10080080 00000000 00000000 00000000  ................
 4b80 ac010000 00000100 30080080 00000000  ........0.......
 4b90 00000000 00000000 b4010000 00000100  ................
 4ba0 50080080 00000000 00000000 00000000  P...............
 4bb0 bc010000 00000100 70080080 00000000  ........p.......
 4bc0 00000000 00000000 c4010000 00000100  ................
 4bd0 90080080 00000000 00000000 00000000  ................
 4be0 cc010000 00000100 b0080080 00000000  ................
 4bf0 00000000 00000000 d4010000 00000100  ................
 4c00 d0080080 00000000 00000000 00000000  ................
 4c10 dc010000 00000100 f0080080 00000000  ................
 4c20 00000000 00000000 e4010000 00000100  ................
 4c30 10090080 00000000 00000000 00000000  ................
 4c40 ec010000 00000100 30090080 00000000  ........0.......
 4c50 00000000 00000000 f4010000 00000100  ................
 4c60 50090080 00000000 00000000 00000000  P...............
 4c70 fc010000 00000100 70090080 00000000  ........p.......
 4c80 00000000 00000000 04020000 00000100  ................
 4c90 90090080 00000000 00000000 00000000  ................
 4ca0 0c020000 00000100 b0090080 00000000  ................
 4cb0 00000000 00000000 14020000 00000100  ................
 4cc0 d0090080 00000000 00000000 00000000  ................
 4cd0 1c020000 00000100 f0090080 00000000  ................
 4ce0 00000000 00000000 24020000 00000100  ........$.......
 4cf0 100a0080 00000000 00000000 00000000  ................
 4d00 2c020000 00000100 300a0080 00000000  ,.......0.......
 4d10 00000000 00000000 34020000 00000100  ........4.......
 4d20 500a0080 00000000 00000000 00000000  P...............
 4d30 3c020000 00000100 700a0080 00000000  <.......p.......
 4d40 00000000 00000000 44020000 00000100  ........D.......
 4d50 900a0080 00000000 00000000 00000000  ................
 4d60 4c020000 00000100 b00a0080 00000000  L...............
 4d70 00000000 00000000 54020000 00000100  ........T.......
 4d80 d00a0080 00000000 00000000 00000000  ................
 4d90 5c020000 00000100 f00a0080 00000000  \...............
 4da0 00000000 00000000 64020000 00000100  ........d.......
 4db0 100b0080 00000000 00000000 00000000  ................
 4dc0 6c020000 00000100 300b0080 00000000  l.......0.......
 4dd0 00000000 00000000 74020000 00000100  ........t.......
 4de0 500b0080 00000000 00000000 00000000  P...............
 4df0 7c020000 00000100 700b0080 00000000  |.......p.......
 4e00 00000000 00000000 84020000 00000100  ................
 4e10 900b0080 00000000 00000000 00000000  ................
 4e20 8c020000 00000100 b00b0080 00000000  ................
 4e30 00000000 00000000 94020000 00000100  ................
 4e40 d00b0080 00000000 00000000 00000000  ................
 4e50 9c020000 00000100 f00b0080 00000000  ................
 4e60 00000000 00000000 a4020000 00000100  ................
 4e70 100c0080 00000000 00000000 00000000  ................
 4e80 ac020000 00000100 300c0080 00000000  ........0.......
 4e90 00000000 00000000 b4020000 00000100  ................
 4ea0 500c0080 00000000 00000000 00000000  P...............
 4eb0 bc020000 00000100 700c0080 00000000  ........p.......
 4ec0 00000000 00000000 c4020000 00000100  ................
 4ed0 900c0080 00000000 00000000 00000000  ................
 4ee0 cc020000 00000100 b00c0080 00000000  ................
 4ef0 00000000 00000000 d4020000 00000100  ................
 4f00 d00c0080 00000000 00000000 00000000  ................
 4f10 dc020000 00000100 ec0c0080 00000000  ................
 4f20 00000000 00000000 e4020000 00000100  ................
 4f30 080d0080 00000000 00000000 00000000  ................
 4f40 ec020000 00000100 240d0080 00000000  ........$.......
 4f50 00000000 00000000 f4020000 00000100  ................
 4f60 400d0080 00000000 00000000 00000000  @...............
 4f70 fc020000 00000100 5c0d0080 00000000  ........\.......
 4f80 00000000 00000000 04030000 00000100  ................
 4f90 7c0d0080 00000000 00000000 00000000  |...............
 4fa0 0c030000 00000100 9c0d0080 00000000  ................
 4fb0 00000000 00000000 14030000 00000100  ................
 4fc0 b80d0080 00000000 00000000 00000000  ................
 4fd0 1c030000 00000100 d80d0080 00000000  ................
 4fe0 00000000 00000000 24030000 00000100  ........$.......
 4ff0 f80d0080 00000000 00000000 00000000  ................
 5000 2c030000 00000100 180e0080 00000000  ,...............
 5010 00000000 00000000 34030000 00000100  ........4.......
 5020 3c0e0080 00000000 00000000 00000000  <...............
 5030 3c030000 00000100 640e0080 00000000  <.......d.......
 5040 00000000 00000000 44030000 00000100  ........D.......
 5050 8c0e0080 00000000 00000000 00000000  ................
 5060 4c030000 00000100 b40e0080 00000000  L...............
 5070 00000000 00000000 54030000 00000100  ........T.......
 5080 d80e0080 00000000 00000000 00000000  ................
 5090 5c030000 00000100 fc0e0080 00000000  \...............
 50a0 00000000 00000000 64030000 00000100  ........d.......
 50b0 200f0080 00000000 00000000 00000000   ...............
 50c0 6c030000 00000100 480f0080 00000000  l.......H.......
 50d0 00000000 00000000 74030000 00000100  ........t.......
 50e0 6c0f0080 00000000 00000000 00000000  l...............
 50f0 7c030000 00000100 900f0080 00000000  |...............
 5100 00000000 00000000 84030000 00000100  ................
 5110 b40f0080 00000000 00000000 00000000  ................
 5120 8c030000 00000100 d80f0080 00000000  ................
 5130 00000000 00000000 94030000 00000100  ................
 5140 fc0f0080 00000000 00000000 00000000  ................
 5150 9c030000 00000100 20100080 00000000  ........ .......
 5160 00000000 00000000 a4030000 00000100  ................
 5170 44100080 00000000 00000000 00000000  D...............
 5180 ac030000 00000100 68100080 00000000  ........h.......
 5190 00000000 00000000 b4030000 00000100  ................
 51a0 a4100080 00000000 00000000 00000000  ................
 51b0 bc030000 00000100 dc100080 00000000  ................
 51c0 00000000 00000000 c4030000 00000100  ................
 51d0 f8100080 00000000 00000000 00000000  ................
 51e0 cc030000 00000100 30110080 00000000  ........0.......
 51f0 00000000 00000000 d5030000 00000100  ................
 5200 68110080 00000000 00000000 00000000  h...............
 5210 de030000 00000100 a0110080 00000000  ................
 5220 00000000 00000000 e7030000 00000100  ................
 5230 dc110080 00000000 00000000 00000000  ................
 5240 f0030000 00000100 18120080 00000000  ................
 5250 00000000 00000000 f9030000 00000100  ................
 5260 50120080 00000000 00000000 00000000  P...............
 5270 02040000 00000100 8c120080 00000000  ................
 5280 00000000 00000000 0b040000 00000100  ................
 5290 c4120080 00000000 00000000 00000000  ................
 52a0 14040000 00000100 00130080 00000000  ................
 52b0 00000000 00000000 1d040000 00000100  ................
 52c0 38130080 00000000 00000000 00000000  8...............
 52d0 26040000 00000100 54130080 00000000  &.......T.......
 52e0 00000000 00000000 2f040000 00000100  ......../.......
 52f0 8c130080 00000000 00000000 00000000  ................
 5300 38040000 00000100 c4130080 00000000  8...............
 5310 00000000 00000000 41040000 00000100  ........A.......
 5320 00140080 00000000 00000000 00000000  ................
 5330 4a040000 00000100 38140080 00000000  J.......8.......
 5340 00000000 00000000 53040000 00000100  ........S.......
 5350 5c140080 00000000 00000000 00000000  \...............
 5360 5c040000 00000100 80140080 00000000  \...............
 5370 00000000 00000000 65040000 00000100  ........e.......
 5380 a4140080 00000000 00000000 00000000  ................
 5390 6e040000 00000100 c8140080 00000000  n...............
 53a0 00000000 00000000 77040000 00000100  ........w.......
 53b0 f0140080 00000000 00000000 00000000  ................
 53c0 80040000 00000100 18150080 00000000  ................
 53d0 00000000 00000000 89040000 00000100  ................
 53e0 3c150080 00000000 00000000 00000000  <...............
 53f0 92040000 00000100 60150080 00000000  ........`.......
 5400 00000000 00000000 9b040000 00000100  ................
 5410 88150080 00000000 00000000 00000000  ................
 5420 a4040000 00000100 ac150080 00000000  ................
 5430 00000000 00000000 ad040000 00000100  ................
 5440 d0150080 00000000 00000000 00000000  ................
 5450 b6040000 00000100 f4150080 00000000  ................
 5460 00000000 00000000 bf040000 00000100  ................
 5470 18160080 00000000 00000000 00000000  ................
 5480 c8040000 00000100 3c160080 00000000  ........<.......
 5490 00000000 00000000 d1040000 00000100  ................
 54a0 60160080 00000000 00000000 00000000  `...............
 54b0 da040000 00000100 84160080 00000000  ................
 54c0 00000000 00000000 e3040000 00000100  ................
 54d0 a8160080 00000000 00000000 00000000  ................
 54e0 ec040000 00000100 cc160080 00000000  ................
 54f0 00000000 00000000 f5040000 00000100  ................
 5500 f0160080 00000000 00000000 00000000  ................
 5510 fe040000 00000100 14170080 00000000  ................
 5520 00000000 00000000 07050000 00000100  ................
 5530 38170080 00000000 00000000 00000000  8...............
 5540 10050000 00000100 5c170080 00000000  ........\.......
 5550 00000000 00000000 19050000 00000100  ................
 5560 80170080 00000000 00000000 00000000  ................
 5570 22050000 00000100 a4170080 00000000  "...............
 5580 00000000 00000000 2b050000 00000100  ........+.......
 5590 c8170080 00000000 00000000 00000000  ................
 55a0 34050000 00000100 ec170080 00000000  4...............
 55b0 00000000 00000000 3d050000 00000100  ........=.......
 55c0 10180080 00000000 00000000 00000000  ................
 55d0 46050000 00000100 34180080 00000000  F.......4.......
 55e0 00000000 00000000 4f050000 00000100  ........O.......
 55f0 58180080 00000000 00000000 00000000  X...............
 5600 58050000 00000100 7c180080 00000000  X.......|.......
 5610 00000000 00000000 61050000 00000100  ........a.......
 5620 a0180080 00000000 00000000 00000000  ................
 5630 6a050000 00000100 c4180080 00000000  j...............
 5640 00000000 00000000 73050000 00000100  ........s.......
 5650 e8180080 00000000 00000000 00000000  ................
 5660 7c050000 00000100 0c190080 00000000  |...............
 5670 00000000 00000000 85050000 00000100  ................
 5680 30190080 00000000 00000000 00000000  0...............
 5690 8e050000 00000100 54190080 00000000  ........T.......
 56a0 00000000 00000000 97050000 00000100  ................
 56b0 74190080 00000000 00000000 00000000  t...............
 56c0 a0050000 00000100 90190080 00000000  ................
 56d0 00000000 00000000 a9050000 00000100  ................
 56e0 e8190080 00000000 00000000 00000000  ................
 56f0 b6050000 00000100 b4190080 00000000  ................
 5700 00000000 00000000 c2050000 00000300  ................
 5710 00200080 00000000 00000000 00000000  . ..............
 5720 ce050000 00000300 10200080 00000000  ......... ......
 5730 00000000 00000000 db050000 00000300  ................
 5740 00300080 00000000 00000000 00000000  .0..............
 5750 ec050000 00000300 00300080 00000000  .........0......
 5760 00000000 00000000 fd050000 00000300  ................
 5770 08300080 00000000 00000000 00000000  .0..............
 5780 0c060000 00000300 d0340080 00000000  .........4......
 5790 00000000 00000000 1b060000 00000300  ................
 57a0 d8340080 00000000 00000000 00000000  .4..............
 57b0 2a060000 0400f1ff 00000000 00000000  *...............
 57c0 00000000 00000000 09000000 00000100  ................
 57d0 001a0080 00000000 00000000 00000000  ................
 57e0 09000000 00000100 0c1a0080 00000000  ................
 57f0 00000000 00000000 30060000 01000200  ........0.......
 5800 301a0080 00000000 01000000 00000000  0...............
 5810 39060000 12020100 24000080 00000000  9.......$.......
 5820 0c000000 00000000 46060000 12020100  ........F.......
 5830 0c1a0080 00000000 20000000 00000000  ........ .......
 5840 50060000 10000300 00c00080 00000000  P...............
 5850 00000000 00000000 5f060000 10000300  ........_.......
 5860 e0340080 00000000 00000000 00000000  .4..............
 5870 6d060000 10000100 2c1a0080 00000000  m.......,.......
 5880 00000000 00000000 74060000 1000f1ff  ........t.......
 5890 00000080 00000000 00000000 00000000  ................
 58a0 80060000 10000300 e0340080 00000000  .........4......
 58b0 00000000 00000000 8b060000 10000300  ................
 58c0 e0340080 00000000 00000000 00000000  .4..............
 58d0 91060000 10000300 00c00080 00000000  ................
 58e0 00000000 00000000 9d060000 10000300  ................
 58f0 00400080 00000000 00000000 00000000  .@..............
 5900 a8060000 10000100 40000080 00000000  ........@.......
 5910 00000000 00000000 2a070000 10000300  ........*.......
 5920 00c00080 00000000 00000000 00000000  ................
 5930 6e060000 10000100 2c1a0080 00000000  n.......,.......
 5940 00000000 00000000 bb060000 10000300  ................
 5950 00300080 00000000 00000000 00000000  .0..............
 5960 79060000 12000100 00000080 00000000  y...............
 5970 00000000 00000000 cb060000 1000f1ff  ................
 5980 00000000 00000000 00000000 00000000  ................
 5990 d9060000 10000100 40000080 00000000  ........@.......
 59a0 00000000 00000000 e5060000 10000100  ................
 59b0 b0190080 00000000 00000000 00000000  ................
 59c0 f5060000 10000100 20040080 00000000  ........ .......
 59d0 00000000 00000000 07070000 12020100  ................
 59e0 10000080 00000000 14000000 00000000  ................
 59f0 0c070000 10000300 00200080 00000000  ......... ......
 5a00 00000000 00000000 1e070000 10000300  ................
 5a10 00300080 00000000 00000000 00000000  .0..............
 5a20 c8050000 10000300 e0340080 00000000  .........4......
 5a30 00000000 00000000 2e070000 10000100  ................
 5a40 b0190080 00000000 00000000 00000000  ................
 5a50 29070000 10000300 00c00080 00000000  )...............
 5a60 00000000 00000000 3e070000 12020100  ........>.......
 5a70 001a0080 00000000 0c000000 00000000  ................
 5a80 00737461 72742e6f 00247800 6d61696e  .start.o.$x.main
 5a90 2e630073 6c6c772d 30312e6f 004d4d4f  .c.sllw-01.o.MMO
 5aa0 44455f53 49470053 4d4f4445 5f534947  DE_SIG.SMODE_SIG
 5ab0 00564d4f 44455f53 49470069 6d6d7800  .VMODE_SIG.immx.
 5ac0 65646765 31006564 67653200 666e6431  edge1.edge2.fnd1
 5ad0 00666e64 3200696d 6d650070 6f730061  .fnd2.imme.pos.a
 5ae0 6273696d 6d006372 7900696d 6d313200  bsimm.cry.imm12.
 5af0 6576656e 00637279 6800696d 6d787368  even.cryh.immxsh
 5b00 00696d6d 31327368 00637279 73680061  .imm12sh.crysh.a
 5b10 6273696d 6d736800 7369676e 61747572  bsimmsh.signatur
 5b20 655f7834 5f310069 6e73745f 3000696e  e_x4_1.inst_0.in
 5b30 73745f31 00696e73 745f3200 696e7374  st_1.inst_2.inst
 5b40 5f330069 6e73745f 3400696e 73745f35  _3.inst_4.inst_5
 5b50 00696e73 745f3600 696e7374 5f370069  .inst_6.inst_7.i
 5b60 6e73745f 3800696e 73745f39 00696e73  nst_8.inst_9.ins
 5b70 745f3130 00696e73 745f3131 00696e73  t_10.inst_11.ins
 5b80 745f3132 00696e73 745f3133 00696e73  t_12.inst_13.ins
 5b90 745f3134 00696e73 745f3135 00736967  t_14.inst_15.sig
 5ba0 6e617475 72655f78 355f3000 696e7374  nature_x5_0.inst
 5bb0 5f313600 696e7374 5f313700 696e7374  _16.inst_17.inst
 5bc0 5f313800 696e7374 5f313900 696e7374  _18.inst_19.inst
 5bd0 5f323000 696e7374 5f323100 696e7374  _20.inst_21.inst
 5be0 5f323200 696e7374 5f323300 696e7374  _22.inst_23.inst
 5bf0 5f323400 696e7374 5f323500 696e7374  _24.inst_25.inst
 5c00 5f323600 696e7374 5f323700 696e7374  _26.inst_27.inst
 5c10 5f323800 696e7374 5f323900 696e7374  _28.inst_29.inst
 5c20 5f333000 696e7374 5f333100 696e7374  _30.inst_31.inst
 5c30 5f333200 696e7374 5f333300 696e7374  _32.inst_33.inst
 5c40 5f333400 696e7374 5f333500 696e7374  _34.inst_35.inst
 5c50 5f333600 696e7374 5f333700 696e7374  _36.inst_37.inst
 5c60 5f333800 696e7374 5f333900 696e7374  _38.inst_39.inst
 5c70 5f343000 696e7374 5f343100 696e7374  _40.inst_41.inst
 5c80 5f343200 696e7374 5f343300 696e7374  _42.inst_43.inst
 5c90 5f343400 696e7374 5f343500 696e7374  _44.inst_45.inst
 5ca0 5f343600 696e7374 5f343700 696e7374  _46.inst_47.inst
 5cb0 5f343800 696e7374 5f343900 696e7374  _48.inst_49.inst
 5cc0 5f353000 696e7374 5f353100 696e7374  _50.inst_51.inst
 5cd0 5f353200 696e7374 5f353300 696e7374  _52.inst_53.inst
 5ce0 5f353400 696e7374 5f353500 696e7374  _54.inst_55.inst
 5cf0 5f353600 696e7374 5f353700 696e7374  _56.inst_57.inst
 5d00 5f353800 696e7374 5f353900 696e7374  _58.inst_59.inst
 5d10 5f363000 696e7374 5f363100 696e7374  _60.inst_61.inst
 5d20 5f363200 696e7374 5f363300 696e7374  _62.inst_63.inst
 5d30 5f363400 696e7374 5f363500 696e7374  _64.inst_65.inst
 5d40 5f363600 696e7374 5f363700 696e7374  _66.inst_67.inst
 5d50 5f363800 696e7374 5f363900 696e7374  _68.inst_69.inst
 5d60 5f373000 696e7374 5f373100 696e7374  _70.inst_71.inst
 5d70 5f373200 696e7374 5f373300 696e7374  _72.inst_73.inst
 5d80 5f373400 696e7374 5f373500 696e7374  _74.inst_75.inst
 5d90 5f373600 696e7374 5f373700 696e7374  _76.inst_77.inst
 5da0 5f373800 696e7374 5f373900 696e7374  _78.inst_79.inst
 5db0 5f383000 696e7374 5f383100 696e7374  _80.inst_81.inst
 5dc0 5f383200 696e7374 5f383300 696e7374  _82.inst_83.inst
 5dd0 5f383400 696e7374 5f383500 696e7374  _84.inst_85.inst
 5de0 5f383600 696e7374 5f383700 696e7374  _86.inst_87.inst
 5df0 5f383800 696e7374 5f383900 696e7374  _88.inst_89.inst
 5e00 5f393000 696e7374 5f393100 696e7374  _90.inst_91.inst
 5e10 5f393200 696e7374 5f393300 696e7374  _92.inst_93.inst
 5e20 5f393400 696e7374 5f393500 696e7374  _94.inst_95.inst
 5e30 5f393600 696e7374 5f393700 696e7374  _96.inst_97.inst
 5e40 5f393800 696e7374 5f393900 696e7374  _98.inst_99.inst
 5e50 5f313030 00696e73 745f3130 3100696e  _100.inst_101.in
 5e60 73745f31 30320069 6e73745f 31303300  st_102.inst_103.
 5e70 696e7374 5f313034 00696e73 745f3130  inst_104.inst_10
 5e80 3500696e 73745f31 30360069 6e73745f  5.inst_106.inst_
 5e90 31303700 696e7374 5f313038 00696e73  107.inst_108.ins
 5ea0 745f3130 3900696e 73745f31 31300069  t_109.inst_110.i
 5eb0 6e73745f 31313100 696e7374 5f313132  nst_111.inst_112
 5ec0 00696e73 745f3131 3300696e 73745f31  .inst_113.inst_1
 5ed0 31340069 6e73745f 31313500 696e7374  14.inst_115.inst
 5ee0 5f313136 00696e73 745f3131 3700696e  _116.inst_117.in
 5ef0 73745f31 31380069 6e73745f 31313900  st_118.inst_119.
 5f00 696e7374 5f313230 00696e73 745f3132  inst_120.inst_12
 5f10 3100696e 73745f31 32320069 6e73745f  1.inst_122.inst_
 5f20 31323300 696e7374 5f313234 00696e73  123.inst_124.ins
 5f30 745f3132 3500696e 73745f31 32360069  t_125.inst_126.i
 5f40 6e73745f 31323700 696e7374 5f313238  nst_127.inst_128
 5f50 00696e73 745f3132 3900696e 73745f31  .inst_129.inst_1
 5f60 33300069 6e73745f 31333100 696e7374  30.inst_131.inst
 5f70 5f313332 00696e73 745f3133 3300696e  _132.inst_133.in
 5f80 73745f31 33340069 6e73745f 31333500  st_134.inst_135.
 5f90 696e7374 5f313336 00696e73 745f3133  inst_136.inst_13
 5fa0 3700696e 73745f31 33380069 6e73745f  7.inst_138.inst_
 5fb0 31333900 696e7374 5f313430 00696e73  139.inst_140.ins
 5fc0 745f3134 3100696e 73745f31 34320069  t_141.inst_142.i
 5fd0 6e73745f 31343300 696e7374 5f313434  nst_143.inst_144
 5fe0 00696e73 745f3134 3500696e 73745f31  .inst_145.inst_1
 5ff0 34360069 6e73745f 31343700 696e7374  46.inst_147.inst
 6000 5f313438 00696e73 745f3134 3900696e  _148.inst_149.in
 6010 73745f31 35300069 6e73745f 31353100  st_150.inst_151.
 6020 696e7374 5f313532 00657869 745f636c  inst_152.exit_cl
 6030 65616e75 70006162 6f72745f 74657374  eanup.abort_test
 6040 73007276 74657374 5f646174 61006d74  s.rvtest_data.mt
 6050 7261705f 73696770 74720072 76746573  rap_sigptr.rvtes
 6060 745f7369 675f6265 67696e00 7369675f  t_sig_begin.sig_
 6070 62656769 6e5f6361 6e617279 00736967  begin_canary.sig
 6080 6e617475 72655f78 345f3000 7369675f  nature_x4_0.sig_
 6090 656e645f 63616e61 72790072 76746573  end_canary.rvtes
 60a0 745f7369 675f656e 64007472 6d2e6300  t_sig_end.trm.c.
 60b0 6d61696e 61726773 00727674 6573745f  mainargs.rvtest_
 60c0 6572726f 72005f74 726d5f69 6e697400  error._trm_init.
 60d0 5f737461 636b5f70 6f696e74 65720065  _stack_pointer.e
 60e0 6e645f73 69676e61 74757265 005f6574  nd_signature._et
 60f0 65787400 5f706d65 6d5f7374 61727400  ext._pmem_start.
 6100 5f627373 5f737461 72740065 64617461  _bss_start.edata
 6110 005f6865 61705f73 74617274 005f7374  ._heap_start._st
 6120 61636b5f 746f7000 72767465 73745f65  ack_top.rvtest_e
 6130 6e747279 5f706f69 6e740062 6567696e  ntry_point.begin
 6140 5f736967 6e617475 7265005f 656e7472  _signature._entr
 6150 795f6f66 66736574 00727674 6573745f  y_offset.rvtest_
 6160 696e6974 00727674 6573745f 636f6465  init.rvtest_code
 6170 5f656e64 00727674 6573745f 636f6465  _end.rvtest_code
 6180 5f626567 696e006d 61696e00 72767465  _begin.main.rvte
 6190 73745f64 6174615f 62656769 6e007276  st_data_begin.rv
 61a0 74657374 5f646174 615f656e 6400636c  test_data_end.cl
 61b0 65616e75 705f6570 696c6f67 73006861  eanup_epilogs.ha
 61c0 6c740000 2e73796d 74616200 2e737472  lt...symtab..str
 61d0 74616200 2e736873 74727461 62002e74  tab..shstrtab..t
 61e0 65787400 2e73726f 64617461 2e6d6169  ext..srodata.mai
 61f0 6e617267 73002e64 61746100 2e636f6d  nargs..data..com
 6200 6d656e74 002e7269 7363762e 61747472  ment..riscv.attr
 6210 69627574 65730000 00000000 00000000  ibutes..........
 6220 00000000 00000000 00000000 00000000  ................
 6230 00000000 00000000 00000000 00000000  ................
 6240 00000000 00000000 00000000 00000000  ................
 6250 00000000 00000000 1b000000 01000000  ................
 6260 06000000 00000000 00000080 00000000  ................
 6270 00100000 00000000 2c1a0000 00000000  ........,.......
 6280 00000000 00000000 20000000 00000000  ........ .......
 6290 00000000 00000000 21000000 01000000  ........!.......
 62a0 02000000 00000000 301a0080 00000000  ........0.......
 62b0 302a0000 00000000 01000000 00000000  0*..............
 62c0 00000000 00000000 08000000 00000000  ................
 62d0 00000000 00000000 33000000 01000000  ........3.......
 62e0 03000000 00000000 00200080 00000000  ......... ......
 62f0 00300000 00000000 e0140000 00000000  .0..............
 6300 00000000 00000000 00100000 00000000  ................
 6310 00000000 00000000 39000000 01000000  ........9.......
 6320 30000000 00000000 00000000 00000000  0...............
 6330 e0440000 00000000 26000000 00000000  .D......&.......
 6340 00000000 00000000 01000000 00000000  ................
 6350 01000000 00000000 42000000 03000070  ........B......p
 6360 00000000 00000000 00000000 00000000  ................
 6370 06450000 00000000 2e000000 00000000  .E..............
 6380 00000000 00000000 01000000 00000000  ................
 6390 00000000 00000000 01000000 02000000  ................
 63a0 00000000 00000000 00000000 00000000  ................
 63b0 38450000 00000000 48150000 00000000  8E......H.......
 63c0 07000000 c9000000 08000000 00000000  ................
 63d0 18000000 00000000 09000000 03000000  ................
 63e0 00000000 00000000 00000000 00000000  ................
 63f0 805a0000 00000000 43070000 00000000  .Z......C.......
 6400 00000000 00000000 01000000 00000000  ................
 6410 00000000 00000000 11000000 03000000  ................
 6420 00000000 00000000 00000000 00000000  ................
 6430 c3610000 00000000 54000000 00000000  .a......T.......
 6440 00000000 00000000 01000000 00000000  ................
 6450 00000000 00000000                    ........        

Disassembly of section .data:

0000000000001000 <.data+0x1000>:
    1000:	00000413          	addi	x8,x0,0
    1004:	0000c117          	auipc	x2,0xc
    1008:	ffc10113          	addi	x2,x2,-4 # 0xd000
    100c:	201010ef          	jal	x1,0x2a0c
    1010:	030000ef          	jal	x1,0x1040
    1014:	00100513          	addi	x10,x0,1
    1018:	1e9010ef          	jal	x1,0x2a00
    101c:	00000513          	addi	x10,x0,0
    1020:	00008067          	jalr	x0,0(x1)
    1024:	00100513          	addi	x10,x0,1
    1028:	1d9010ef          	jal	x1,0x2a00
    102c:	00008067          	jalr	x0,0(x1)
	...
    1040:	feedc0b7          	lui	x1,0xfeedc
    1044:	ead08093          	addi	x1,x1,-339 # 0xfffffffffeedbead
    1048:	00b09093          	slli	x1,x1,0xb
    104c:	7f708093          	addi	x1,x1,2039
    1050:	00b09093          	slli	x1,x1,0xb
    1054:	36f08093          	addi	x1,x1,879
    1058:	00a09093          	slli	x1,x1,0xa
    105c:	2ad08093          	addi	x1,x1,685
    1060:	ff76e137          	lui	x2,0xff76e
    1064:	f5610113          	addi	x2,x2,-170 # 0xffffffffff76df56
    1068:	00b11113          	slli	x2,x2,0xb
    106c:	7fb10113          	addi	x2,x2,2043
    1070:	00b11113          	slli	x2,x2,0xb
    1074:	5b710113          	addi	x2,x2,1463
    1078:	00a11113          	slli	x2,x2,0xa
    107c:	35610113          	addi	x2,x2,854
    1080:	7fbb71b7          	lui	x3,0x7fbb7
    1084:	fab18193          	addi	x3,x3,-85 # 0x7fbb6fab
    1088:	00b19193          	slli	x3,x3,0xb
    108c:	3fd18193          	addi	x3,x3,1021
    1090:	00b19193          	slli	x3,x3,0xb
    1094:	6db18193          	addi	x3,x3,1755
    1098:	00a19193          	slli	x3,x3,0xa
    109c:	3ab18193          	addi	x3,x3,939
    10a0:	bfddb237          	lui	x4,0xbfddb
    10a4:	7d520213          	addi	x4,x4,2005 # 0xffffffffbfddb7d5
    10a8:	00b21213          	slli	x4,x4,0xb
    10ac:	5fe20213          	addi	x4,x4,1534 # 0x5fe
    10b0:	00b21213          	slli	x4,x4,0xb
    10b4:	76d20213          	addi	x4,x4,1901 # 0x76d
    10b8:	00a21213          	slli	x4,x4,0xa
    10bc:	3d520213          	addi	x4,x4,981 # 0x3d5
    10c0:	dfeee2b7          	lui	x5,0xdfeee
    10c4:	bea28293          	addi	x5,x5,-1046 # 0xffffffffdfeedbea
    10c8:	00b29293          	slli	x5,x5,0xb
    10cc:	6ff28293          	addi	x5,x5,1791
    10d0:	00b29293          	slli	x5,x5,0xb
    10d4:	3b628293          	addi	x5,x5,950
    10d8:	00a29293          	slli	x5,x5,0xa
    10dc:	3ea28293          	addi	x5,x5,1002
    10e0:	6ff77337          	lui	x6,0x6ff77
    10e4:	df530313          	addi	x6,x6,-523 # 0x6ff76df5
    10e8:	00b31313          	slli	x6,x6,0xb
    10ec:	37f30313          	addi	x6,x6,895
    10f0:	00b31313          	slli	x6,x6,0xb
    10f4:	5db30313          	addi	x6,x6,1499
    10f8:	00a31313          	slli	x6,x6,0xa
    10fc:	1f530313          	addi	x6,x6,501
    1100:	b7fbb3b7          	lui	x7,0xb7fbb
    1104:	6fa38393          	addi	x7,x7,1786 # 0xffffffffb7fbb6fa
    1108:	00b39393          	slli	x7,x7,0xb
    110c:	5bf38393          	addi	x7,x7,1471
    1110:	00b39393          	slli	x7,x7,0xb
    1114:	6ed38393          	addi	x7,x7,1773
    1118:	00a39393          	slli	x7,x7,0xa
    111c:	2fa38393          	addi	x7,x7,762
    1120:	5bfde437          	lui	x8,0x5bfde
    1124:	b7d40413          	addi	x8,x8,-1155 # 0x5bfddb7d
    1128:	00b41413          	slli	x8,x8,0xb
    112c:	2df40413          	addi	x8,x8,735
    1130:	00b41413          	slli	x8,x8,0xb
    1134:	77640413          	addi	x8,x8,1910
    1138:	00a41413          	slli	x8,x8,0xa
    113c:	37d40413          	addi	x8,x8,893
    1140:	adfef4b7          	lui	x9,0xadfef
    1144:	dbe48493          	addi	x9,x9,-578 # 0xffffffffadfeedbe
    1148:	00b49493          	slli	x9,x9,0xb
    114c:	56f48493          	addi	x9,x9,1391
    1150:	00b49493          	slli	x9,x9,0xb
    1154:	7bb48493          	addi	x9,x9,1979
    1158:	00a49493          	slli	x9,x9,0xa
    115c:	1be48493          	addi	x9,x9,446
    1160:	56ff7537          	lui	x10,0x56ff7
    1164:	6df50513          	addi	x10,x10,1759 # 0x56ff76df
    1168:	00b51513          	slli	x10,x10,0xb
    116c:	2b750513          	addi	x10,x10,695
    1170:	00b51513          	slli	x10,x10,0xb
    1174:	7dd50513          	addi	x10,x10,2013
    1178:	00a51513          	slli	x10,x10,0xa
    117c:	2df50513          	addi	x10,x10,735
    1180:	ab7fc5b7          	lui	x11,0xab7fc
    1184:	b6f58593          	addi	x11,x11,-1169 # 0xffffffffab7fbb6f
    1188:	00b59593          	slli	x11,x11,0xb
    118c:	55b58593          	addi	x11,x11,1371
    1190:	00b59593          	slli	x11,x11,0xb
    1194:	7ee58593          	addi	x11,x11,2030
    1198:	00a59593          	slli	x11,x11,0xa
    119c:	36f58593          	addi	x11,x11,879
    11a0:	d5bfe637          	lui	x12,0xd5bfe
    11a4:	db760613          	addi	x12,x12,-585 # 0xffffffffd5bfddb7
    11a8:	00b61613          	slli	x12,x12,0xb
    11ac:	6ad60613          	addi	x12,x12,1709
    11b0:	00b61613          	slli	x12,x12,0xb
    11b4:	7f760613          	addi	x12,x12,2039
    11b8:	00a61613          	slli	x12,x12,0xa
    11bc:	1b760613          	addi	x12,x12,439
    11c0:	eadff6b7          	lui	x13,0xeadff
    11c4:	edb68693          	addi	x13,x13,-293 # 0xffffffffeadfeedb
    11c8:	00b69693          	slli	x13,x13,0xb
    11cc:	75668693          	addi	x13,x13,1878
    11d0:	00b69693          	slli	x13,x13,0xb
    11d4:	7fb68693          	addi	x13,x13,2043
    11d8:	00a69693          	slli	x13,x13,0xa
    11dc:	2db68693          	addi	x13,x13,731
    11e0:	f56ff737          	lui	x14,0xf56ff
    11e4:	76d70713          	addi	x14,x14,1901 # 0xfffffffff56ff76d
    11e8:	00b71713          	slli	x14,x14,0xb
    11ec:	7ab70713          	addi	x14,x14,1963
    11f0:	00b71713          	slli	x14,x14,0xb
    11f4:	3fd70713          	addi	x14,x14,1021
    11f8:	00a71713          	slli	x14,x14,0xa
    11fc:	36d70713          	addi	x14,x14,877
    1200:	fab807b7          	lui	x15,0xfab80
    1204:	bb678793          	addi	x15,x15,-1098 # 0xfffffffffab7fbb6
    1208:	00b79793          	slli	x15,x15,0xb
    120c:	7d578793          	addi	x15,x15,2005
    1210:	00b79793          	slli	x15,x15,0xb
    1214:	5fe78793          	addi	x15,x15,1534
    1218:	00a79793          	slli	x15,x15,0xa
    121c:	3b678793          	addi	x15,x15,950
    1220:	7d5c0837          	lui	x16,0x7d5c0
    1224:	ddb80813          	addi	x16,x16,-549 # 0x7d5bfddb
    1228:	00b81813          	slli	x16,x16,0xb
    122c:	3ea80813          	addi	x16,x16,1002
    1230:	00b81813          	slli	x16,x16,0xb
    1234:	6ff80813          	addi	x16,x16,1791
    1238:	00a81813          	slli	x16,x16,0xa
    123c:	1db80813          	addi	x16,x16,475
    1240:	beae08b7          	lui	x17,0xbeae0
    1244:	eed88893          	addi	x17,x17,-275 # 0xffffffffbeadfeed
    1248:	00b89893          	slli	x17,x17,0xb
    124c:	5f588893          	addi	x17,x17,1525
    1250:	00b89893          	slli	x17,x17,0xb
    1254:	37f88893          	addi	x17,x17,895
    1258:	00a89893          	slli	x17,x17,0xa
    125c:	2ed88893          	addi	x17,x17,749
    1260:	df570937          	lui	x18,0xdf570
    1264:	f7690913          	addi	x18,x18,-138 # 0xffffffffdf56ff76
    1268:	00b91913          	slli	x18,x18,0xb
    126c:	6fa90913          	addi	x18,x18,1786
    1270:	00b91913          	slli	x18,x18,0xb
    1274:	5bf90913          	addi	x18,x18,1471
    1278:	00a91913          	slli	x18,x18,0xa
    127c:	37690913          	addi	x18,x18,886
    1280:	6fab89b7          	lui	x19,0x6fab8
    1284:	fbb98993          	addi	x19,x19,-69 # 0x6fab7fbb
    1288:	00b99993          	slli	x19,x19,0xb
    128c:	37d98993          	addi	x19,x19,893
    1290:	00b99993          	slli	x19,x19,0xb
    1294:	2df98993          	addi	x19,x19,735
    1298:	00a99993          	slli	x19,x19,0xa
    129c:	3bb98993          	addi	x19,x19,955
    12a0:	b7d5ca37          	lui	x20,0xb7d5c
    12a4:	fdda0a13          	addi	x20,x20,-35 # 0xffffffffb7d5bfdd
    12a8:	00ba1a13          	slli	x20,x20,0xb
    12ac:	5bea0a13          	addi	x20,x20,1470
    12b0:	00ba1a13          	slli	x20,x20,0xb
    12b4:	56fa0a13          	addi	x20,x20,1391
    12b8:	00aa1a13          	slli	x20,x20,0xa
    12bc:	3dda0a13          	addi	x20,x20,989
    12c0:	dbeaeab7          	lui	x21,0xdbeae
    12c4:	feea8a93          	addi	x21,x21,-18 # 0xffffffffdbeadfee
    12c8:	00ba9a93          	slli	x21,x21,0xb
    12cc:	6dfa8a93          	addi	x21,x21,1759
    12d0:	00ba9a93          	slli	x21,x21,0xb
    12d4:	2b7a8a93          	addi	x21,x21,695
    12d8:	00aa9a93          	slli	x21,x21,0xa
    12dc:	3eea8a93          	addi	x21,x21,1006
    12e0:	6df57b37          	lui	x22,0x6df57
    12e4:	ff7b0b13          	addi	x22,x22,-9 # 0x6df56ff7
    12e8:	00bb1b13          	slli	x22,x22,0xb
    12ec:	36fb0b13          	addi	x22,x22,879
    12f0:	00bb1b13          	slli	x22,x22,0xb
    12f4:	55bb0b13          	addi	x22,x22,1371
    12f8:	00ab1b13          	slli	x22,x22,0xa
    12fc:	3f7b0b13          	addi	x22,x22,1015
    1300:	b6fabbb7          	lui	x23,0xb6fab
    1304:	7fbb8b93          	addi	x23,x23,2043 # 0xffffffffb6fab7fb
    1308:	00bb9b93          	slli	x23,x23,0xb
    130c:	5b7b8b93          	addi	x23,x23,1463
    1310:	00bb9b93          	slli	x23,x23,0xb
    1314:	6adb8b93          	addi	x23,x23,1709
    1318:	00ab9b93          	slli	x23,x23,0xa
    131c:	3fbb8b93          	addi	x23,x23,1019
    1320:	db7d6c37          	lui	x24,0xdb7d6
    1324:	bfdc0c13          	addi	x24,x24,-1027 # 0xffffffffdb7d5bfd
    1328:	00bc1c13          	slli	x24,x24,0xb
    132c:	6dbc0c13          	addi	x24,x24,1755
    1330:	00bc1c13          	slli	x24,x24,0xb
    1334:	756c0c13          	addi	x24,x24,1878
    1338:	00ac1c13          	slli	x24,x24,0xa
    133c:	3fdc0c13          	addi	x24,x24,1021
    1340:	edbebcb7          	lui	x25,0xedbeb
    1344:	dfec8c93          	addi	x25,x25,-514 # 0xffffffffedbeadfe
    1348:	00bc9c93          	slli	x25,x25,0xb
    134c:	76dc8c93          	addi	x25,x25,1901
    1350:	00bc9c93          	slli	x25,x25,0xb
    1354:	7abc8c93          	addi	x25,x25,1963
    1358:	00ac9c93          	slli	x25,x25,0xa
    135c:	1fec8c93          	addi	x25,x25,510
    1360:	76df5d37          	lui	x26,0x76df5
    1364:	6ffd0d13          	addi	x26,x26,1791 # 0x76df56ff
    1368:	00bd1d13          	slli	x26,x26,0xb
    136c:	3b6d0d13          	addi	x26,x26,950
    1370:	00bd1d13          	slli	x26,x26,0xb
    1374:	7d5d0d13          	addi	x26,x26,2005
    1378:	00ad1d13          	slli	x26,x26,0xa
    137c:	2ffd0d13          	addi	x26,x26,767
    1380:	bb6fbdb7          	lui	x27,0xbb6fb
    1384:	b7fd8d93          	addi	x27,x27,-1153 # 0xffffffffbb6fab7f
    1388:	00bd9d93          	slli	x27,x27,0xb
    138c:	5dbd8d93          	addi	x27,x27,1499
    1390:	00bd9d93          	slli	x27,x27,0xb
    1394:	3ead8d93          	addi	x27,x27,1002
    1398:	00ad9d93          	slli	x27,x27,0xa
    139c:	37fd8d93          	addi	x27,x27,895
    13a0:	ddb7de37          	lui	x28,0xddb7d
    13a4:	5bfe0e13          	addi	x28,x28,1471 # 0xffffffffddb7d5bf
    13a8:	00be1e13          	slli	x28,x28,0xb
    13ac:	6ede0e13          	addi	x28,x28,1773
    13b0:	00be1e13          	slli	x28,x28,0xb
    13b4:	5f5e0e13          	addi	x28,x28,1525
    13b8:	00ae1e13          	slli	x28,x28,0xa
    13bc:	1bfe0e13          	addi	x28,x28,447
    13c0:	eedbfeb7          	lui	x29,0xeedbf
    13c4:	adfe8e93          	addi	x29,x29,-1313 # 0xffffffffeedbeadf
    13c8:	00be9e93          	slli	x29,x29,0xb
    13cc:	776e8e93          	addi	x29,x29,1910
    13d0:	00be9e93          	slli	x29,x29,0xb
    13d4:	6fae8e93          	addi	x29,x29,1786
    13d8:	00ae9e93          	slli	x29,x29,0xa
    13dc:	2dfe8e93          	addi	x29,x29,735
    13e0:	f76dff37          	lui	x30,0xf76df
    13e4:	56ff0f13          	addi	x30,x30,1391 # 0xfffffffff76df56f
    13e8:	00bf1f13          	slli	x30,x30,0xb
    13ec:	7bbf0f13          	addi	x30,x30,1979
    13f0:	00bf1f13          	slli	x30,x30,0xb
    13f4:	37df0f13          	addi	x30,x30,893
    13f8:	00af1f13          	slli	x30,x30,0xa
    13fc:	16ff0f13          	addi	x30,x30,367
    1400:	fbb70fb7          	lui	x31,0xfbb70
    1404:	ab7f8f93          	addi	x31,x31,-1353 # 0xfffffffffbb6fab7
    1408:	00bf9f93          	slli	x31,x31,0xb
    140c:	7ddf8f93          	addi	x31,x31,2013
    1410:	00bf9f93          	slli	x31,x31,0xb
    1414:	5bef8f93          	addi	x31,x31,1470
    1418:	00af9f93          	slli	x31,x31,0xa
    141c:	2b7f8f93          	addi	x31,x31,695
    1420:	00003217          	auipc	x4,0x3
    1424:	be820213          	addi	x4,x4,-1048 # 0x4008
    1428:	00000013          	addi	x0,x0,0
    142c:	00000013          	addi	x0,x0,0
    1430:	00000013          	addi	x0,x0,0
    1434:	00000013          	addi	x0,x0,0
    1438:	00000013          	addi	x0,x0,0
    143c:	00000013          	addi	x0,x0,0
    1440:	00100393          	addi	x7,x0,1
    1444:	02f39393          	slli	x7,x7,0x2f
    1448:	fff3c393          	xori	x7,x7,-1
    144c:	00100393          	addi	x7,x0,1
    1450:	02f39393          	slli	x7,x7,0x2f
    1454:	fff3c393          	xori	x7,x7,-1
    1458:	0073973b          	sllw	x14,x7,x7
    145c:	00e23023          	sd	x14,0(x4) # 0x0
    1460:	800006b7          	lui	x13,0x80000
    1464:	00e68463          	beq	x13,x14,0x146c
    1468:	bbdff06f          	jal	x0,0x1024
    146c:	00100d93          	addi	x27,x0,1
    1470:	03ad9d93          	slli	x27,x27,0x3a
    1474:	01700f13          	addi	x30,x0,23
    1478:	01ed9f3b          	sllw	x30,x27,x30
    147c:	01e23423          	sd	x30,8(x4) # 0x8
    1480:	00000693          	addi	x13,x0,0
    1484:	01e68463          	beq	x13,x30,0x148c
    1488:	b9dff06f          	jal	x0,0x1024
    148c:	ffa00293          	addi	x5,x0,-6
    1490:	ffa00293          	addi	x5,x0,-6
    1494:	005292bb          	sllw	x5,x5,x5
    1498:	00523823          	sd	x5,16(x4) # 0x10
    149c:	e80006b7          	lui	x13,0xe8000
    14a0:	00568463          	beq	x13,x5,0x14a8
    14a4:	b81ff06f          	jal	x0,0x1024
    14a8:	00100913          	addi	x18,x0,1
    14ac:	01c91913          	slli	x18,x18,0x1c
    14b0:	00000793          	addi	x15,x0,0
    14b4:	00f91b3b          	sllw	x22,x18,x15
    14b8:	01623c23          	sd	x22,24(x4) # 0x18
    14bc:	100006b7          	lui	x13,0x10000
    14c0:	01668463          	beq	x13,x22,0x14c8
    14c4:	b61ff06f          	jal	x0,0x1024
    14c8:	00500d13          	addi	x26,x0,5
    14cc:	00500b13          	addi	x22,x0,5
    14d0:	016d1d3b          	sllw	x26,x26,x22
    14d4:	03a23023          	sd	x26,32(x4) # 0x20
    14d8:	0a000693          	addi	x13,x0,160
    14dc:	01a68463          	beq	x13,x26,0x14e4
    14e0:	b45ff06f          	jal	x0,0x1024
    14e4:	fff00713          	addi	x14,x0,-1
    14e8:	03f71713          	slli	x14,x14,0x3f
    14ec:	00200b93          	addi	x23,x0,2
    14f0:	01771ebb          	sllw	x29,x14,x23
    14f4:	03d23423          	sd	x29,40(x4) # 0x28
    14f8:	00000693          	addi	x13,x0,0
    14fc:	01d68463          	beq	x13,x29,0x1504
    1500:	b25ff06f          	jal	x0,0x1024
    1504:	00000613          	addi	x12,x0,0
    1508:	01100713          	addi	x14,x0,17
    150c:	00e614bb          	sllw	x9,x12,x14
    1510:	02923823          	sd	x9,48(x4) # 0x30
    1514:	00000693          	addi	x13,x0,0
    1518:	00968463          	beq	x13,x9,0x1520
    151c:	b09ff06f          	jal	x0,0x1024
    1520:	fff00513          	addi	x10,x0,-1
    1524:	00155513          	srli	x10,x10,0x1
    1528:	00000013          	addi	x0,x0,0
    152c:	000510bb          	sllw	x1,x10,x0
    1530:	02123c23          	sd	x1,56(x4) # 0x38
    1534:	fff00693          	addi	x13,x0,-1
    1538:	00168463          	beq	x13,x1,0x1540
    153c:	ae9ff06f          	jal	x0,0x1024
    1540:	00100f93          	addi	x31,x0,1
    1544:	01500413          	addi	x8,x0,21
    1548:	008f99bb          	sllw	x19,x31,x8
    154c:	05323023          	sd	x19,64(x4) # 0x40
    1550:	002006b7          	lui	x13,0x200
    1554:	01368463          	beq	x13,x19,0x155c
    1558:	acdff06f          	jal	x0,0x1024
    155c:	00200b93          	addi	x23,x0,2
    1560:	01700d93          	addi	x27,x0,23
    1564:	01bb98bb          	sllw	x17,x23,x27
    1568:	05123423          	sd	x17,72(x4) # 0x48
    156c:	010006b7          	lui	x13,0x1000
    1570:	01168463          	beq	x13,x17,0x1578
    1574:	ab1ff06f          	jal	x0,0x1024
    1578:	00400893          	addi	x17,x0,4
    157c:	00800d13          	addi	x26,x0,8
    1580:	01a89cbb          	sllw	x25,x17,x26
    1584:	05923823          	sd	x25,80(x4) # 0x50
    1588:	40000693          	addi	x13,x0,1024
    158c:	01968463          	beq	x13,x25,0x1594
    1590:	a95ff06f          	jal	x0,0x1024
    1594:	00800593          	addi	x11,x0,8
    1598:	00000613          	addi	x12,x0,0
    159c:	00c5983b          	sllw	x16,x11,x12
    15a0:	05023c23          	sd	x16,88(x4) # 0x58
    15a4:	00800693          	addi	x13,x0,8
    15a8:	01068463          	beq	x13,x16,0x15b0
    15ac:	a79ff06f          	jal	x0,0x1024
    15b0:	01000c13          	addi	x24,x0,16
    15b4:	00000193          	addi	x3,x0,0
    15b8:	003c1dbb          	sllw	x27,x24,x3
    15bc:	07b23023          	sd	x27,96(x4) # 0x60
    15c0:	01000693          	addi	x13,x0,16
    15c4:	01b68463          	beq	x13,x27,0x15cc
    15c8:	a5dff06f          	jal	x0,0x1024
    15cc:	02000813          	addi	x16,x0,32
    15d0:	00200513          	addi	x10,x0,2
    15d4:	00a813bb          	sllw	x7,x16,x10
    15d8:	06723423          	sd	x7,104(x4) # 0x68
    15dc:	08000693          	addi	x13,x0,128
    15e0:	00768463          	beq	x13,x7,0x15e8
    15e4:	a41ff06f          	jal	x0,0x1024
    15e8:	04000113          	addi	x2,x0,64
    15ec:	01100093          	addi	x1,x0,17
    15f0:	0011103b          	sllw	x0,x2,x1
    15f4:	06023823          	sd	x0,112(x4) # 0x70
    15f8:	00000693          	addi	x13,x0,0
    15fc:	00068463          	beq	x13,x0,0x1604
    1600:	a25ff06f          	jal	x0,0x1024
    1604:	08000e13          	addi	x28,x0,128
    1608:	00000a93          	addi	x21,x0,0
    160c:	015e133b          	sllw	x6,x28,x21
    1610:	06623c23          	sd	x6,120(x4) # 0x78
    1614:	08000693          	addi	x13,x0,128
    1618:	00668463          	beq	x13,x6,0x1620
    161c:	a09ff06f          	jal	x0,0x1024
    1620:	00003297          	auipc	x5,0x3
    1624:	a6828293          	addi	x5,x5,-1432 # 0x4088
    1628:	00000013          	addi	x0,x0,0
    162c:	00000013          	addi	x0,x0,0
    1630:	00000013          	addi	x0,x0,0
    1634:	00000013          	addi	x0,x0,0
    1638:	00000013          	addi	x0,x0,0
    163c:	00000013          	addi	x0,x0,0
    1640:	10000413          	addi	x8,x0,256
    1644:	00600893          	addi	x17,x0,6
    1648:	011416bb          	sllw	x13,x8,x17
    164c:	00d2b023          	sd	x13,0(x5)
    1650:	000043b7          	lui	x7,0x4
    1654:	00d38463          	beq	x7,x13,0x165c
    1658:	9cdff06f          	jal	x0,0x1024
    165c:	20000a93          	addi	x21,x0,512
    1660:	00300693          	addi	x13,x0,3
    1664:	00da9a3b          	sllw	x20,x21,x13
    1668:	0142b423          	sd	x20,8(x5)
    166c:	000013b7          	lui	x7,0x1
    1670:	01438463          	beq	x7,x20,0x1678
    1674:	9b1ff06f          	jal	x0,0x1024
    1678:	40000c93          	addi	x25,x0,1024
    167c:	00800e13          	addi	x28,x0,8
    1680:	01cc993b          	sllw	x18,x25,x28
    1684:	0122b823          	sd	x18,16(x5)
    1688:	000403b7          	lui	x7,0x40
    168c:	01238463          	beq	x7,x18,0x1694
    1690:	995ff06f          	jal	x0,0x1024
    1694:	00100793          	addi	x15,x0,1
    1698:	00b79793          	slli	x15,x15,0xb
    169c:	00100593          	addi	x11,x0,1
    16a0:	00b7913b          	sllw	x2,x15,x11
    16a4:	0022bc23          	sd	x2,24(x5)
    16a8:	000013b7          	lui	x7,0x1
    16ac:	00238463          	beq	x7,x2,0x16b4
    16b0:	975ff06f          	jal	x0,0x1024
    16b4:	00100993          	addi	x19,x0,1
    16b8:	00c99993          	slli	x19,x19,0xc
    16bc:	00900493          	addi	x9,x0,9
    16c0:	00999e3b          	sllw	x28,x19,x9
    16c4:	03c2b023          	sd	x28,32(x5)
    16c8:	002003b7          	lui	x7,0x200
    16cc:	01c38463          	beq	x7,x28,0x16d4
    16d0:	955ff06f          	jal	x0,0x1024
    16d4:	00100313          	addi	x6,x0,1
    16d8:	00d31313          	slli	x6,x6,0xd
    16dc:	01200a13          	addi	x20,x0,18
    16e0:	01431fbb          	sllw	x31,x6,x20
    16e4:	03f2b423          	sd	x31,40(x5)
    16e8:	800003b7          	lui	x7,0x80000
    16ec:	01f38463          	beq	x7,x31,0x16f4
    16f0:	935ff06f          	jal	x0,0x1024
    16f4:	00100093          	addi	x1,x0,1
    16f8:	00e09093          	slli	x1,x1,0xe
    16fc:	00800813          	addi	x16,x0,8
    1700:	010091bb          	sllw	x3,x1,x16
    1704:	0232b823          	sd	x3,48(x5)
    1708:	004003b7          	lui	x7,0x400
    170c:	00338463          	beq	x7,x3,0x1714
    1710:	915ff06f          	jal	x0,0x1024
    1714:	00100693          	addi	x13,x0,1
    1718:	00f69693          	slli	x13,x13,0xf
    171c:	00d00e93          	addi	x29,x0,13
    1720:	01d695bb          	sllw	x11,x13,x29
    1724:	02b2bc23          	sd	x11,56(x5)
    1728:	100003b7          	lui	x7,0x10000
    172c:	00b38463          	beq	x7,x11,0x1734
    1730:	8f5ff06f          	jal	x0,0x1024
    1734:	00100b13          	addi	x22,x0,1
    1738:	010b1b13          	slli	x22,x22,0x10
    173c:	00000113          	addi	x2,x0,0
    1740:	002b153b          	sllw	x10,x22,x2
    1744:	04a2b023          	sd	x10,64(x5)
    1748:	000103b7          	lui	x7,0x10
    174c:	00a38463          	beq	x7,x10,0x1754
    1750:	8d5ff06f          	jal	x0,0x1024
    1754:	00100193          	addi	x3,x0,1
    1758:	01119193          	slli	x3,x3,0x11
    175c:	00a00993          	addi	x19,x0,10
    1760:	0131923b          	sllw	x4,x3,x19
    1764:	0442b423          	sd	x4,72(x5)
    1768:	080003b7          	lui	x7,0x8000
    176c:	00438463          	beq	x7,x4,0x1774
    1770:	8b5ff06f          	jal	x0,0x1024
    1774:	00100a13          	addi	x20,x0,1
    1778:	012a1a13          	slli	x20,x20,0x12
    177c:	00500313          	addi	x6,x0,5
    1780:	006a143b          	sllw	x8,x20,x6
    1784:	0482b823          	sd	x8,80(x5)
    1788:	008003b7          	lui	x7,0x800
    178c:	00838463          	beq	x7,x8,0x1794
    1790:	895ff06f          	jal	x0,0x1024
    1794:	00100493          	addi	x9,x0,1
    1798:	01349493          	slli	x9,x9,0x13
    179c:	01b00f93          	addi	x31,x0,27
    17a0:	01f4963b          	sllw	x12,x9,x31
    17a4:	04c2bc23          	sd	x12,88(x5)
    17a8:	00000393          	addi	x7,x0,0
    17ac:	00c38463          	beq	x7,x12,0x17b4
    17b0:	875ff06f          	jal	x0,0x1024
    17b4:	00100f13          	addi	x30,x0,1
    17b8:	014f1f13          	slli	x30,x30,0x14
    17bc:	00400213          	addi	x4,x0,4
    17c0:	004f1c3b          	sllw	x24,x30,x4
    17c4:	0782b023          	sd	x24,96(x5)
    17c8:	010003b7          	lui	x7,0x1000
    17cc:	01838463          	beq	x7,x24,0x17d4
    17d0:	855ff06f          	jal	x0,0x1024
    17d4:	00100e93          	addi	x29,x0,1
    17d8:	015e9e93          	slli	x29,x29,0x15
    17dc:	00800c93          	addi	x25,x0,8
    17e0:	019e9bbb          	sllw	x23,x29,x25
    17e4:	0772b423          	sd	x23,104(x5)
    17e8:	200003b7          	lui	x7,0x20000
    17ec:	01738463          	beq	x7,x23,0x17f4
    17f0:	835ff06f          	jal	x0,0x1024
    17f4:	00000013          	addi	x0,x0,0
    17f8:	00600c13          	addi	x24,x0,6
    17fc:	01801abb          	sllw	x21,x0,x24
    1800:	0752b823          	sd	x21,112(x5)
    1804:	00000393          	addi	x7,x0,0
    1808:	01538463          	beq	x7,x21,0x1810
    180c:	819ff06f          	jal	x0,0x1024
    1810:	00100213          	addi	x4,x0,1
    1814:	01721213          	slli	x4,x4,0x17
    1818:	01500913          	addi	x18,x0,21
    181c:	012217bb          	sllw	x15,x4,x18
    1820:	06f2bc23          	sd	x15,120(x5)
    1824:	00000393          	addi	x7,x0,0
    1828:	00f38463          	beq	x7,x15,0x1830
    182c:	ff8ff06f          	jal	x0,0x1024
    1830:	00100513          	addi	x10,x0,1
    1834:	01851513          	slli	x10,x10,0x18
    1838:	00b00593          	addi	x11,x0,11
    183c:	00b5163b          	sllw	x12,x10,x11
    1840:	08c2b023          	sd	x12,128(x5)
    1844:	00000393          	addi	x7,x0,0
    1848:	00c38463          	beq	x7,x12,0x1850
    184c:	fd8ff06f          	jal	x0,0x1024
    1850:	00100513          	addi	x10,x0,1
    1854:	01951513          	slli	x10,x10,0x19
    1858:	01500593          	addi	x11,x0,21
    185c:	00b5163b          	sllw	x12,x10,x11
    1860:	08c2b423          	sd	x12,136(x5)
    1864:	00000393          	addi	x7,x0,0
    1868:	00c38463          	beq	x7,x12,0x1870
    186c:	fb8ff06f          	jal	x0,0x1024
    1870:	00100513          	addi	x10,x0,1
    1874:	01a51513          	slli	x10,x10,0x1a
    1878:	01200593          	addi	x11,x0,18
    187c:	00b5163b          	sllw	x12,x10,x11
    1880:	08c2b823          	sd	x12,144(x5)
    1884:	00000393          	addi	x7,x0,0
    1888:	00c38463          	beq	x7,x12,0x1890
    188c:	f98ff06f          	jal	x0,0x1024
    1890:	00100513          	addi	x10,x0,1
    1894:	01b51513          	slli	x10,x10,0x1b
    1898:	00e00593          	addi	x11,x0,14
    189c:	00b5163b          	sllw	x12,x10,x11
    18a0:	08c2bc23          	sd	x12,152(x5)
    18a4:	00000393          	addi	x7,x0,0
    18a8:	00c38463          	beq	x7,x12,0x18b0
    18ac:	f78ff06f          	jal	x0,0x1024
    18b0:	00100513          	addi	x10,x0,1
    18b4:	01d51513          	slli	x10,x10,0x1d
    18b8:	01d00593          	addi	x11,x0,29
    18bc:	00b5163b          	sllw	x12,x10,x11
    18c0:	0ac2b023          	sd	x12,160(x5)
    18c4:	00000393          	addi	x7,x0,0
    18c8:	00c38463          	beq	x7,x12,0x18d0
    18cc:	f58ff06f          	jal	x0,0x1024
    18d0:	00100513          	addi	x10,x0,1
    18d4:	01e51513          	slli	x10,x10,0x1e
    18d8:	00e00593          	addi	x11,x0,14
    18dc:	00b5163b          	sllw	x12,x10,x11
    18e0:	0ac2b423          	sd	x12,168(x5)
    18e4:	00000393          	addi	x7,x0,0
    18e8:	00c38463          	beq	x7,x12,0x18f0
    18ec:	f38ff06f          	jal	x0,0x1024
    18f0:	00100513          	addi	x10,x0,1
    18f4:	01f51513          	slli	x10,x10,0x1f
    18f8:	01200593          	addi	x11,x0,18
    18fc:	00b5163b          	sllw	x12,x10,x11
    1900:	0ac2b823          	sd	x12,176(x5)
    1904:	00000393          	addi	x7,x0,0
    1908:	00c38463          	beq	x7,x12,0x1910
    190c:	f18ff06f          	jal	x0,0x1024
    1910:	00100513          	addi	x10,x0,1
    1914:	02051513          	slli	x10,x10,0x20
    1918:	01300593          	addi	x11,x0,19
    191c:	00b5163b          	sllw	x12,x10,x11
    1920:	0ac2bc23          	sd	x12,184(x5)
    1924:	00000393          	addi	x7,x0,0
    1928:	00c38463          	beq	x7,x12,0x1930
    192c:	ef8ff06f          	jal	x0,0x1024
    1930:	00100513          	addi	x10,x0,1
    1934:	02151513          	slli	x10,x10,0x21
    1938:	01f00593          	addi	x11,x0,31
    193c:	00b5163b          	sllw	x12,x10,x11
    1940:	0cc2b023          	sd	x12,192(x5)
    1944:	00000393          	addi	x7,x0,0
    1948:	00c38463          	beq	x7,x12,0x1950
    194c:	ed8ff06f          	jal	x0,0x1024
    1950:	00100513          	addi	x10,x0,1
    1954:	02251513          	slli	x10,x10,0x22
    1958:	01b00593          	addi	x11,x0,27
    195c:	00b5163b          	sllw	x12,x10,x11
    1960:	0cc2b423          	sd	x12,200(x5)
    1964:	00000393          	addi	x7,x0,0
    1968:	00c38463          	beq	x7,x12,0x1970
    196c:	eb8ff06f          	jal	x0,0x1024
    1970:	00100513          	addi	x10,x0,1
    1974:	02351513          	slli	x10,x10,0x23
    1978:	01700593          	addi	x11,x0,23
    197c:	00b5163b          	sllw	x12,x10,x11
    1980:	0cc2b823          	sd	x12,208(x5)
    1984:	00000393          	addi	x7,x0,0
    1988:	00c38463          	beq	x7,x12,0x1990
    198c:	e98ff06f          	jal	x0,0x1024
    1990:	00100513          	addi	x10,x0,1
    1994:	02451513          	slli	x10,x10,0x24
    1998:	00900593          	addi	x11,x0,9
    199c:	00b5163b          	sllw	x12,x10,x11
    19a0:	0cc2bc23          	sd	x12,216(x5)
    19a4:	00000393          	addi	x7,x0,0
    19a8:	00c38463          	beq	x7,x12,0x19b0
    19ac:	e78ff06f          	jal	x0,0x1024
    19b0:	00100513          	addi	x10,x0,1
    19b4:	02551513          	slli	x10,x10,0x25
    19b8:	00100593          	addi	x11,x0,1
    19bc:	00b5163b          	sllw	x12,x10,x11
    19c0:	0ec2b023          	sd	x12,224(x5)
    19c4:	00000393          	addi	x7,x0,0
    19c8:	00c38463          	beq	x7,x12,0x19d0
    19cc:	e58ff06f          	jal	x0,0x1024
    19d0:	00100513          	addi	x10,x0,1
    19d4:	02651513          	slli	x10,x10,0x26
    19d8:	00000593          	addi	x11,x0,0
    19dc:	00b5163b          	sllw	x12,x10,x11
    19e0:	0ec2b423          	sd	x12,232(x5)
    19e4:	00000393          	addi	x7,x0,0
    19e8:	00c38463          	beq	x7,x12,0x19f0
    19ec:	e38ff06f          	jal	x0,0x1024
    19f0:	00100513          	addi	x10,x0,1
    19f4:	02751513          	slli	x10,x10,0x27
    19f8:	00800593          	addi	x11,x0,8
    19fc:	00b5163b          	sllw	x12,x10,x11
    1a00:	0ec2b823          	sd	x12,240(x5)
    1a04:	00000393          	addi	x7,x0,0
    1a08:	00c38463          	beq	x7,x12,0x1a10
    1a0c:	e18ff06f          	jal	x0,0x1024
    1a10:	00100513          	addi	x10,x0,1
    1a14:	02851513          	slli	x10,x10,0x28
    1a18:	00800593          	addi	x11,x0,8
    1a1c:	00b5163b          	sllw	x12,x10,x11
    1a20:	0ec2bc23          	sd	x12,248(x5)
    1a24:	00000393          	addi	x7,x0,0
    1a28:	00c38463          	beq	x7,x12,0x1a30
    1a2c:	df8ff06f          	jal	x0,0x1024
    1a30:	00100513          	addi	x10,x0,1
    1a34:	02951513          	slli	x10,x10,0x29
    1a38:	00000593          	addi	x11,x0,0
    1a3c:	00b5163b          	sllw	x12,x10,x11
    1a40:	10c2b023          	sd	x12,256(x5)
    1a44:	00000393          	addi	x7,x0,0
    1a48:	00c38463          	beq	x7,x12,0x1a50
    1a4c:	dd8ff06f          	jal	x0,0x1024
    1a50:	00100513          	addi	x10,x0,1
    1a54:	02a51513          	slli	x10,x10,0x2a
    1a58:	00b00593          	addi	x11,x0,11
    1a5c:	00b5163b          	sllw	x12,x10,x11
    1a60:	10c2b423          	sd	x12,264(x5)
    1a64:	00000393          	addi	x7,x0,0
    1a68:	00c38463          	beq	x7,x12,0x1a70
    1a6c:	db8ff06f          	jal	x0,0x1024
    1a70:	00100513          	addi	x10,x0,1
    1a74:	02b51513          	slli	x10,x10,0x2b
    1a78:	00400593          	addi	x11,x0,4
    1a7c:	00b5163b          	sllw	x12,x10,x11
    1a80:	10c2b823          	sd	x12,272(x5)
    1a84:	00000393          	addi	x7,x0,0
    1a88:	00c38463          	beq	x7,x12,0x1a90
    1a8c:	d98ff06f          	jal	x0,0x1024
    1a90:	00100513          	addi	x10,x0,1
    1a94:	02c51513          	slli	x10,x10,0x2c
    1a98:	00600593          	addi	x11,x0,6
    1a9c:	00b5163b          	sllw	x12,x10,x11
    1aa0:	10c2bc23          	sd	x12,280(x5)
    1aa4:	00000393          	addi	x7,x0,0
    1aa8:	00c38463          	beq	x7,x12,0x1ab0
    1aac:	d78ff06f          	jal	x0,0x1024
    1ab0:	00100513          	addi	x10,x0,1
    1ab4:	02d51513          	slli	x10,x10,0x2d
    1ab8:	00c00593          	addi	x11,x0,12
    1abc:	00b5163b          	sllw	x12,x10,x11
    1ac0:	12c2b023          	sd	x12,288(x5)
    1ac4:	00000393          	addi	x7,x0,0
    1ac8:	00c38463          	beq	x7,x12,0x1ad0
    1acc:	d58ff06f          	jal	x0,0x1024
    1ad0:	00100513          	addi	x10,x0,1
    1ad4:	02e51513          	slli	x10,x10,0x2e
    1ad8:	00d00593          	addi	x11,x0,13
    1adc:	00b5163b          	sllw	x12,x10,x11
    1ae0:	12c2b423          	sd	x12,296(x5)
    1ae4:	00000393          	addi	x7,x0,0
    1ae8:	00c38463          	beq	x7,x12,0x1af0
    1aec:	d38ff06f          	jal	x0,0x1024
    1af0:	00100513          	addi	x10,x0,1
    1af4:	02f51513          	slli	x10,x10,0x2f
    1af8:	01e00593          	addi	x11,x0,30
    1afc:	00b5163b          	sllw	x12,x10,x11
    1b00:	12c2b823          	sd	x12,304(x5)
    1b04:	00000393          	addi	x7,x0,0
    1b08:	00c38463          	beq	x7,x12,0x1b10
    1b0c:	d18ff06f          	jal	x0,0x1024
    1b10:	00100513          	addi	x10,x0,1
    1b14:	03051513          	slli	x10,x10,0x30
    1b18:	00100593          	addi	x11,x0,1
    1b1c:	00b5163b          	sllw	x12,x10,x11
    1b20:	12c2bc23          	sd	x12,312(x5)
    1b24:	00000393          	addi	x7,x0,0
    1b28:	00c38463          	beq	x7,x12,0x1b30
    1b2c:	cf8ff06f          	jal	x0,0x1024
    1b30:	00100513          	addi	x10,x0,1
    1b34:	03151513          	slli	x10,x10,0x31
    1b38:	00e00593          	addi	x11,x0,14
    1b3c:	00b5163b          	sllw	x12,x10,x11
    1b40:	14c2b023          	sd	x12,320(x5)
    1b44:	00000393          	addi	x7,x0,0
    1b48:	00c38463          	beq	x7,x12,0x1b50
    1b4c:	cd8ff06f          	jal	x0,0x1024
    1b50:	00100513          	addi	x10,x0,1
    1b54:	03251513          	slli	x10,x10,0x32
    1b58:	01500593          	addi	x11,x0,21
    1b5c:	00b5163b          	sllw	x12,x10,x11
    1b60:	14c2b423          	sd	x12,328(x5)
    1b64:	00000393          	addi	x7,x0,0
    1b68:	00c38463          	beq	x7,x12,0x1b70
    1b6c:	cb8ff06f          	jal	x0,0x1024
    1b70:	00100513          	addi	x10,x0,1
    1b74:	03351513          	slli	x10,x10,0x33
    1b78:	00b00593          	addi	x11,x0,11
    1b7c:	00b5163b          	sllw	x12,x10,x11
    1b80:	14c2b823          	sd	x12,336(x5)
    1b84:	00000393          	addi	x7,x0,0
    1b88:	00c38463          	beq	x7,x12,0x1b90
    1b8c:	c98ff06f          	jal	x0,0x1024
    1b90:	00100513          	addi	x10,x0,1
    1b94:	03451513          	slli	x10,x10,0x34
    1b98:	01000593          	addi	x11,x0,16
    1b9c:	00b5163b          	sllw	x12,x10,x11
    1ba0:	14c2bc23          	sd	x12,344(x5)
    1ba4:	00000393          	addi	x7,x0,0
    1ba8:	00c38463          	beq	x7,x12,0x1bb0
    1bac:	c78ff06f          	jal	x0,0x1024
    1bb0:	00100513          	addi	x10,x0,1
    1bb4:	03551513          	slli	x10,x10,0x35
    1bb8:	01300593          	addi	x11,x0,19
    1bbc:	00b5163b          	sllw	x12,x10,x11
    1bc0:	16c2b023          	sd	x12,352(x5)
    1bc4:	00000393          	addi	x7,x0,0
    1bc8:	00c38463          	beq	x7,x12,0x1bd0
    1bcc:	c58ff06f          	jal	x0,0x1024
    1bd0:	00100513          	addi	x10,x0,1
    1bd4:	03651513          	slli	x10,x10,0x36
    1bd8:	01100593          	addi	x11,x0,17
    1bdc:	00b5163b          	sllw	x12,x10,x11
    1be0:	16c2b423          	sd	x12,360(x5)
    1be4:	00000393          	addi	x7,x0,0
    1be8:	00c38463          	beq	x7,x12,0x1bf0
    1bec:	c38ff06f          	jal	x0,0x1024
    1bf0:	00100513          	addi	x10,x0,1
    1bf4:	03751513          	slli	x10,x10,0x37
    1bf8:	00800593          	addi	x11,x0,8
    1bfc:	00b5163b          	sllw	x12,x10,x11
    1c00:	16c2b823          	sd	x12,368(x5)
    1c04:	00000393          	addi	x7,x0,0
    1c08:	00c38463          	beq	x7,x12,0x1c10
    1c0c:	c18ff06f          	jal	x0,0x1024
    1c10:	00100513          	addi	x10,x0,1
    1c14:	03851513          	slli	x10,x10,0x38
    1c18:	01100593          	addi	x11,x0,17
    1c1c:	00b5163b          	sllw	x12,x10,x11
    1c20:	16c2bc23          	sd	x12,376(x5)
    1c24:	00000393          	addi	x7,x0,0
    1c28:	00c38463          	beq	x7,x12,0x1c30
    1c2c:	bf8ff06f          	jal	x0,0x1024
    1c30:	00100513          	addi	x10,x0,1
    1c34:	03951513          	slli	x10,x10,0x39
    1c38:	00100593          	addi	x11,x0,1
    1c3c:	00b5163b          	sllw	x12,x10,x11
    1c40:	18c2b023          	sd	x12,384(x5)
    1c44:	00000393          	addi	x7,x0,0
    1c48:	00c38463          	beq	x7,x12,0x1c50
    1c4c:	bd8ff06f          	jal	x0,0x1024
    1c50:	00100513          	addi	x10,x0,1
    1c54:	03b51513          	slli	x10,x10,0x3b
    1c58:	00600593          	addi	x11,x0,6
    1c5c:	00b5163b          	sllw	x12,x10,x11
    1c60:	18c2b423          	sd	x12,392(x5)
    1c64:	00000393          	addi	x7,x0,0
    1c68:	00c38463          	beq	x7,x12,0x1c70
    1c6c:	bb8ff06f          	jal	x0,0x1024
    1c70:	00100513          	addi	x10,x0,1
    1c74:	03c51513          	slli	x10,x10,0x3c
    1c78:	01300593          	addi	x11,x0,19
    1c7c:	00b5163b          	sllw	x12,x10,x11
    1c80:	18c2b823          	sd	x12,400(x5)
    1c84:	00000393          	addi	x7,x0,0
    1c88:	00c38463          	beq	x7,x12,0x1c90
    1c8c:	b98ff06f          	jal	x0,0x1024
    1c90:	00100513          	addi	x10,x0,1
    1c94:	03d51513          	slli	x10,x10,0x3d
    1c98:	00a00593          	addi	x11,x0,10
    1c9c:	00b5163b          	sllw	x12,x10,x11
    1ca0:	18c2bc23          	sd	x12,408(x5)
    1ca4:	00000393          	addi	x7,x0,0
    1ca8:	00c38463          	beq	x7,x12,0x1cb0
    1cac:	b78ff06f          	jal	x0,0x1024
    1cb0:	00100513          	addi	x10,x0,1
    1cb4:	03e51513          	slli	x10,x10,0x3e
    1cb8:	01f00593          	addi	x11,x0,31
    1cbc:	00b5163b          	sllw	x12,x10,x11
    1cc0:	1ac2b023          	sd	x12,416(x5)
    1cc4:	00000393          	addi	x7,x0,0
    1cc8:	00c38463          	beq	x7,x12,0x1cd0
    1ccc:	b58ff06f          	jal	x0,0x1024
    1cd0:	ffe00513          	addi	x10,x0,-2
    1cd4:	00d00593          	addi	x11,x0,13
    1cd8:	00b5163b          	sllw	x12,x10,x11
    1cdc:	1ac2b423          	sd	x12,424(x5)
    1ce0:	ffffc3b7          	lui	x7,0xffffc
    1ce4:	00c38463          	beq	x7,x12,0x1cec
    1ce8:	b3cff06f          	jal	x0,0x1024
    1cec:	ffd00513          	addi	x10,x0,-3
    1cf0:	00d00593          	addi	x11,x0,13
    1cf4:	00b5163b          	sllw	x12,x10,x11
    1cf8:	1ac2b823          	sd	x12,432(x5)
    1cfc:	ffffa3b7          	lui	x7,0xffffa
    1d00:	00c38463          	beq	x7,x12,0x1d08
    1d04:	b20ff06f          	jal	x0,0x1024
    1d08:	ffb00513          	addi	x10,x0,-5
    1d0c:	00d00593          	addi	x11,x0,13
    1d10:	00b5163b          	sllw	x12,x10,x11
    1d14:	1ac2bc23          	sd	x12,440(x5)
    1d18:	ffff63b7          	lui	x7,0xffff6
    1d1c:	00c38463          	beq	x7,x12,0x1d24
    1d20:	b04ff06f          	jal	x0,0x1024
    1d24:	ff700513          	addi	x10,x0,-9
    1d28:	00300593          	addi	x11,x0,3
    1d2c:	00b5163b          	sllw	x12,x10,x11
    1d30:	1cc2b023          	sd	x12,448(x5)
    1d34:	fb800393          	addi	x7,x0,-72
    1d38:	00c38463          	beq	x7,x12,0x1d40
    1d3c:	ae8ff06f          	jal	x0,0x1024
    1d40:	fef00513          	addi	x10,x0,-17
    1d44:	00400593          	addi	x11,x0,4
    1d48:	00b5163b          	sllw	x12,x10,x11
    1d4c:	1cc2b423          	sd	x12,456(x5)
    1d50:	ef000393          	addi	x7,x0,-272
    1d54:	00c38463          	beq	x7,x12,0x1d5c
    1d58:	accff06f          	jal	x0,0x1024
    1d5c:	fdf00513          	addi	x10,x0,-33
    1d60:	00700593          	addi	x11,x0,7
    1d64:	00b5163b          	sllw	x12,x10,x11
    1d68:	1cc2b823          	sd	x12,464(x5)
    1d6c:	fffff3b7          	lui	x7,0xfffff
    1d70:	f803839b          	addiw	x7,x7,-128 # 0xffffffffffffef80
    1d74:	00c38463          	beq	x7,x12,0x1d7c
    1d78:	aacff06f          	jal	x0,0x1024
    1d7c:	fbf00513          	addi	x10,x0,-65
    1d80:	00700593          	addi	x11,x0,7
    1d84:	00b5163b          	sllw	x12,x10,x11
    1d88:	1cc2bc23          	sd	x12,472(x5)
    1d8c:	ffffe3b7          	lui	x7,0xffffe
    1d90:	f803839b          	addiw	x7,x7,-128 # 0xffffffffffffdf80
    1d94:	00c38463          	beq	x7,x12,0x1d9c
    1d98:	a8cff06f          	jal	x0,0x1024
    1d9c:	f7f00513          	addi	x10,x0,-129
    1da0:	01200593          	addi	x11,x0,18
    1da4:	00b5163b          	sllw	x12,x10,x11
    1da8:	1ec2b023          	sd	x12,480(x5)
    1dac:	fdfc03b7          	lui	x7,0xfdfc0
    1db0:	00c38463          	beq	x7,x12,0x1db8
    1db4:	a70ff06f          	jal	x0,0x1024
    1db8:	eff00513          	addi	x10,x0,-257
    1dbc:	00800593          	addi	x11,x0,8
    1dc0:	00b5163b          	sllw	x12,x10,x11
    1dc4:	1ec2b423          	sd	x12,488(x5)
    1dc8:	ffff03b7          	lui	x7,0xffff0
    1dcc:	f003839b          	addiw	x7,x7,-256 # 0xfffffffffffeff00
    1dd0:	00c38463          	beq	x7,x12,0x1dd8
    1dd4:	a50ff06f          	jal	x0,0x1024
    1dd8:	dff00513          	addi	x10,x0,-513
    1ddc:	00600593          	addi	x11,x0,6
    1de0:	00b5163b          	sllw	x12,x10,x11
    1de4:	1ec2b823          	sd	x12,496(x5)
    1de8:	ffff83b7          	lui	x7,0xffff8
    1dec:	fc03839b          	addiw	x7,x7,-64 # 0xffffffffffff7fc0
    1df0:	00c38463          	beq	x7,x12,0x1df8
    1df4:	a30ff06f          	jal	x0,0x1024
    1df8:	bff00513          	addi	x10,x0,-1025
    1dfc:	00200593          	addi	x11,x0,2
    1e00:	00b5163b          	sllw	x12,x10,x11
    1e04:	1ec2bc23          	sd	x12,504(x5)
    1e08:	fffff3b7          	lui	x7,0xfffff
    1e0c:	ffc3839b          	addiw	x7,x7,-4 # 0xffffffffffffeffc
    1e10:	00c38463          	beq	x7,x12,0x1e18
    1e14:	a10ff06f          	jal	x0,0x1024
    1e18:	00100513          	addi	x10,x0,1
    1e1c:	00b51513          	slli	x10,x10,0xb
    1e20:	fff54513          	xori	x10,x10,-1
    1e24:	01e00593          	addi	x11,x0,30
    1e28:	00b5163b          	sllw	x12,x10,x11
    1e2c:	20c2b023          	sd	x12,512(x5)
    1e30:	c00003b7          	lui	x7,0xc0000
    1e34:	00c38463          	beq	x7,x12,0x1e3c
    1e38:	9ecff06f          	jal	x0,0x1024
    1e3c:	00100513          	addi	x10,x0,1
    1e40:	00c51513          	slli	x10,x10,0xc
    1e44:	fff54513          	xori	x10,x10,-1
    1e48:	00500593          	addi	x11,x0,5
    1e4c:	00b5163b          	sllw	x12,x10,x11
    1e50:	20c2b423          	sd	x12,520(x5)
    1e54:	fffe03b7          	lui	x7,0xfffe0
    1e58:	fe03839b          	addiw	x7,x7,-32 # 0xfffffffffffdffe0
    1e5c:	00c38463          	beq	x7,x12,0x1e64
    1e60:	9c4ff06f          	jal	x0,0x1024
    1e64:	00100513          	addi	x10,x0,1
    1e68:	00d51513          	slli	x10,x10,0xd
    1e6c:	fff54513          	xori	x10,x10,-1
    1e70:	00500593          	addi	x11,x0,5
    1e74:	00b5163b          	sllw	x12,x10,x11
    1e78:	20c2b823          	sd	x12,528(x5)
    1e7c:	fffc03b7          	lui	x7,0xfffc0
    1e80:	fe03839b          	addiw	x7,x7,-32 # 0xfffffffffffbffe0
    1e84:	00c38463          	beq	x7,x12,0x1e8c
    1e88:	99cff06f          	jal	x0,0x1024
    1e8c:	00100513          	addi	x10,x0,1
    1e90:	00e51513          	slli	x10,x10,0xe
    1e94:	fff54513          	xori	x10,x10,-1
    1e98:	00700593          	addi	x11,x0,7
    1e9c:	00b5163b          	sllw	x12,x10,x11
    1ea0:	20c2bc23          	sd	x12,536(x5)
    1ea4:	ffe003b7          	lui	x7,0xffe00
    1ea8:	f803839b          	addiw	x7,x7,-128 # 0xffffffffffdfff80
    1eac:	00c38463          	beq	x7,x12,0x1eb4
    1eb0:	974ff06f          	jal	x0,0x1024
    1eb4:	00100513          	addi	x10,x0,1
    1eb8:	00f51513          	slli	x10,x10,0xf
    1ebc:	fff54513          	xori	x10,x10,-1
    1ec0:	01300593          	addi	x11,x0,19
    1ec4:	00b5163b          	sllw	x12,x10,x11
    1ec8:	22c2b023          	sd	x12,544(x5)
    1ecc:	fff803b7          	lui	x7,0xfff80
    1ed0:	00c38463          	beq	x7,x12,0x1ed8
    1ed4:	950ff06f          	jal	x0,0x1024
    1ed8:	00100513          	addi	x10,x0,1
    1edc:	01051513          	slli	x10,x10,0x10
    1ee0:	fff54513          	xori	x10,x10,-1
    1ee4:	01100593          	addi	x11,x0,17
    1ee8:	00b5163b          	sllw	x12,x10,x11
    1eec:	22c2b423          	sd	x12,552(x5)
    1ef0:	fffe03b7          	lui	x7,0xfffe0
    1ef4:	00c38463          	beq	x7,x12,0x1efc
    1ef8:	92cff06f          	jal	x0,0x1024
    1efc:	00100513          	addi	x10,x0,1
    1f00:	01151513          	slli	x10,x10,0x11
    1f04:	fff54513          	xori	x10,x10,-1
    1f08:	01d00593          	addi	x11,x0,29
    1f0c:	00b5163b          	sllw	x12,x10,x11
    1f10:	22c2b823          	sd	x12,560(x5)
    1f14:	e00003b7          	lui	x7,0xe0000
    1f18:	00c38463          	beq	x7,x12,0x1f20
    1f1c:	908ff06f          	jal	x0,0x1024
    1f20:	00100513          	addi	x10,x0,1
    1f24:	01251513          	slli	x10,x10,0x12
    1f28:	fff54513          	xori	x10,x10,-1
    1f2c:	00800593          	addi	x11,x0,8
    1f30:	00b5163b          	sllw	x12,x10,x11
    1f34:	22c2bc23          	sd	x12,568(x5)
    1f38:	fc0003b7          	lui	x7,0xfc000
    1f3c:	f003839b          	addiw	x7,x7,-256 # 0xfffffffffbffff00
    1f40:	00c38463          	beq	x7,x12,0x1f48
    1f44:	8e0ff06f          	jal	x0,0x1024
    1f48:	00100513          	addi	x10,x0,1
    1f4c:	03751513          	slli	x10,x10,0x37
    1f50:	fff54513          	xori	x10,x10,-1
    1f54:	00600593          	addi	x11,x0,6
    1f58:	00b5163b          	sllw	x12,x10,x11
    1f5c:	24c2b023          	sd	x12,576(x5)
    1f60:	fc000393          	addi	x7,x0,-64
    1f64:	00c38463          	beq	x7,x12,0x1f6c
    1f68:	8bcff06f          	jal	x0,0x1024
    1f6c:	00100513          	addi	x10,x0,1
    1f70:	03851513          	slli	x10,x10,0x38
    1f74:	fff54513          	xori	x10,x10,-1
    1f78:	01700593          	addi	x11,x0,23
    1f7c:	00b5163b          	sllw	x12,x10,x11
    1f80:	24c2b423          	sd	x12,584(x5)
    1f84:	ff8003b7          	lui	x7,0xff800
    1f88:	00c38463          	beq	x7,x12,0x1f90
    1f8c:	898ff06f          	jal	x0,0x1024
    1f90:	00100513          	addi	x10,x0,1
    1f94:	03951513          	slli	x10,x10,0x39
    1f98:	fff54513          	xori	x10,x10,-1
    1f9c:	01b00593          	addi	x11,x0,27
    1fa0:	00b5163b          	sllw	x12,x10,x11
    1fa4:	24c2b823          	sd	x12,592(x5)
    1fa8:	f80003b7          	lui	x7,0xf8000
    1fac:	00c38463          	beq	x7,x12,0x1fb4
    1fb0:	874ff06f          	jal	x0,0x1024
    1fb4:	00100513          	addi	x10,x0,1
    1fb8:	03a51513          	slli	x10,x10,0x3a
    1fbc:	fff54513          	xori	x10,x10,-1
    1fc0:	00700593          	addi	x11,x0,7
    1fc4:	00b5163b          	sllw	x12,x10,x11
    1fc8:	24c2bc23          	sd	x12,600(x5)
    1fcc:	f8000393          	addi	x7,x0,-128
    1fd0:	00c38463          	beq	x7,x12,0x1fd8
    1fd4:	850ff06f          	jal	x0,0x1024
    1fd8:	00100513          	addi	x10,x0,1
    1fdc:	03b51513          	slli	x10,x10,0x3b
    1fe0:	fff54513          	xori	x10,x10,-1
    1fe4:	00d00593          	addi	x11,x0,13
    1fe8:	00b5163b          	sllw	x12,x10,x11
    1fec:	26c2b023          	sd	x12,608(x5)
    1ff0:	ffffe3b7          	lui	x7,0xffffe
    1ff4:	00c38463          	beq	x7,x12,0x1ffc
    1ff8:	82cff06f          	jal	x0,0x1024
    1ffc:	00100513          	addi	x10,x0,1
    2000:	03c51513          	slli	x10,x10,0x3c
    2004:	fff54513          	xori	x10,x10,-1
    2008:	01d00593          	addi	x11,x0,29
    200c:	00b5163b          	sllw	x12,x10,x11
    2010:	26c2b423          	sd	x12,616(x5)
    2014:	e00003b7          	lui	x7,0xe0000
    2018:	00c38463          	beq	x7,x12,0x2020
    201c:	808ff06f          	jal	x0,0x1024
    2020:	00100513          	addi	x10,x0,1
    2024:	03d51513          	slli	x10,x10,0x3d
    2028:	fff54513          	xori	x10,x10,-1
    202c:	01f00593          	addi	x11,x0,31
    2030:	00b5163b          	sllw	x12,x10,x11
    2034:	26c2b823          	sd	x12,624(x5)
    2038:	800003b7          	lui	x7,0x80000
    203c:	00c38463          	beq	x7,x12,0x2044
    2040:	fe5fe06f          	jal	x0,0x1024
    2044:	00100513          	addi	x10,x0,1
    2048:	03e51513          	slli	x10,x10,0x3e
    204c:	fff54513          	xori	x10,x10,-1
    2050:	01300593          	addi	x11,x0,19
    2054:	00b5163b          	sllw	x12,x10,x11
    2058:	26c2bc23          	sd	x12,632(x5)
    205c:	fff803b7          	lui	x7,0xfff80
    2060:	00c38463          	beq	x7,x12,0x2068
    2064:	fc1fe06f          	jal	x0,0x1024
    2068:	55555537          	lui	x10,0x55555
    206c:	55550513          	addi	x10,x10,1365 # 0x55555555
    2070:	00b51513          	slli	x10,x10,0xb
    2074:	2aa50513          	addi	x10,x10,682
    2078:	00b51513          	slli	x10,x10,0xb
    207c:	55550513          	addi	x10,x10,1365
    2080:	00a51513          	slli	x10,x10,0xa
    2084:	15550513          	addi	x10,x10,341
    2088:	00200593          	addi	x11,x0,2
    208c:	00b5163b          	sllw	x12,x10,x11
    2090:	28c2b023          	sd	x12,640(x5)
    2094:	555553b7          	lui	x7,0x55555
    2098:	5543839b          	addiw	x7,x7,1364 # 0x55555554
    209c:	00c38463          	beq	x7,x12,0x20a4
    20a0:	f85fe06f          	jal	x0,0x1024
    20a4:	aaaab537          	lui	x10,0xaaaab
    20a8:	aaa50513          	addi	x10,x10,-1366 # 0xffffffffaaaaaaaa
    20ac:	00b51513          	slli	x10,x10,0xb
    20b0:	55550513          	addi	x10,x10,1365
    20b4:	00b51513          	slli	x10,x10,0xb
    20b8:	2aa50513          	addi	x10,x10,682
    20bc:	00a51513          	slli	x10,x10,0xa
    20c0:	2aa50513          	addi	x10,x10,682
    20c4:	00f00593          	addi	x11,x0,15
    20c8:	00b5163b          	sllw	x12,x10,x11
    20cc:	28c2b423          	sd	x12,648(x5)
    20d0:	555503b7          	lui	x7,0x55550
    20d4:	00c38463          	beq	x7,x12,0x20dc
    20d8:	f4dfe06f          	jal	x0,0x1024
    20dc:	00300513          	addi	x10,x0,3
    20e0:	01700593          	addi	x11,x0,23
    20e4:	00b5163b          	sllw	x12,x10,x11
    20e8:	28c2b823          	sd	x12,656(x5)
    20ec:	018003b7          	lui	x7,0x1800
    20f0:	00c38463          	beq	x7,x12,0x20f8
    20f4:	f31fe06f          	jal	x0,0x1024
    20f8:	33333537          	lui	x10,0x33333
    20fc:	33350513          	addi	x10,x10,819 # 0x33333333
    2100:	00b51513          	slli	x10,x10,0xb
    2104:	19950513          	addi	x10,x10,409
    2108:	00b51513          	slli	x10,x10,0xb
    210c:	4cc50513          	addi	x10,x10,1228
    2110:	00a51513          	slli	x10,x10,0xa
    2114:	33350513          	addi	x10,x10,819
    2118:	01300593          	addi	x11,x0,19
    211c:	00b5163b          	sllw	x12,x10,x11
    2120:	28c2bc23          	sd	x12,664(x5)
    2124:	999803b7          	lui	x7,0x99980
    2128:	00c38463          	beq	x7,x12,0x2130
    212c:	ef9fe06f          	jal	x0,0x1024
    2130:	66666537          	lui	x10,0x66666
    2134:	66650513          	addi	x10,x10,1638 # 0x66666666
    2138:	00b51513          	slli	x10,x10,0xb
    213c:	33350513          	addi	x10,x10,819
    2140:	00b51513          	slli	x10,x10,0xb
    2144:	19950513          	addi	x10,x10,409
    2148:	00a51513          	slli	x10,x10,0xa
    214c:	26650513          	addi	x10,x10,614
    2150:	01100593          	addi	x11,x0,17
    2154:	00b5163b          	sllw	x12,x10,x11
    2158:	2ac2b023          	sd	x12,672(x5)
    215c:	cccc03b7          	lui	x7,0xcccc0
    2160:	00c38463          	beq	x7,x12,0x2168
    2164:	ec1fe06f          	jal	x0,0x1024
    2168:	00000537          	lui	x10,0x0
    216c:	fff50513          	addi	x10,x10,-1 # 0xffffffffffffffff
    2170:	00b51513          	slli	x10,x10,0xb
    2174:	25750513          	addi	x10,x10,599
    2178:	00b51513          	slli	x10,x10,0xb
    217c:	6c350513          	addi	x10,x10,1731
    2180:	00a51513          	slli	x10,x10,0xa
    2184:	0cd50513          	addi	x10,x10,205
    2188:	01b00593          	addi	x11,x0,27
    218c:	00b5163b          	sllw	x12,x10,x11
    2190:	2ac2b423          	sd	x12,680(x5)
    2194:	680003b7          	lui	x7,0x68000
    2198:	00c38463          	beq	x7,x12,0x21a0
    219c:	e89fe06f          	jal	x0,0x1024
    21a0:	00000537          	lui	x10,0x0
    21a4:	00050513          	addi	x10,x10,0 # 0x0
    21a8:	00b51513          	slli	x10,x10,0xb
    21ac:	5a850513          	addi	x10,x10,1448
    21b0:	00b51513          	slli	x10,x10,0xb
    21b4:	13c50513          	addi	x10,x10,316
    21b8:	00a51513          	slli	x10,x10,0xa
    21bc:	33350513          	addi	x10,x10,819
    21c0:	00400593          	addi	x11,x0,4
    21c4:	00b5163b          	sllw	x12,x10,x11
    21c8:	2ac2b823          	sd	x12,688(x5)
    21cc:	504f33b7          	lui	x7,0x504f3
    21d0:	3303839b          	addiw	x7,x7,816 # 0x504f3330
    21d4:	00c38463          	beq	x7,x12,0x21dc
    21d8:	e4dfe06f          	jal	x0,0x1024
    21dc:	55555537          	lui	x10,0x55555
    21e0:	55550513          	addi	x10,x10,1365 # 0x55555555
    21e4:	00b51513          	slli	x10,x10,0xb
    21e8:	2aa50513          	addi	x10,x10,682
    21ec:	00b51513          	slli	x10,x10,0xb
    21f0:	55550513          	addi	x10,x10,1365
    21f4:	00a51513          	slli	x10,x10,0xa
    21f8:	15450513          	addi	x10,x10,340
    21fc:	00100593          	addi	x11,x0,1
    2200:	00b5163b          	sllw	x12,x10,x11
    2204:	2ac2bc23          	sd	x12,696(x5)
    2208:	aaaab3b7          	lui	x7,0xaaaab
    220c:	aa83839b          	addiw	x7,x7,-1368 # 0xffffffffaaaaaaa8
    2210:	00c38463          	beq	x7,x12,0x2218
    2214:	e11fe06f          	jal	x0,0x1024
    2218:	33333537          	lui	x10,0x33333
    221c:	33350513          	addi	x10,x10,819 # 0x33333333
    2220:	00b51513          	slli	x10,x10,0xb
    2224:	19950513          	addi	x10,x10,409
    2228:	00b51513          	slli	x10,x10,0xb
    222c:	4cc50513          	addi	x10,x10,1228
    2230:	00a51513          	slli	x10,x10,0xa
    2234:	33250513          	addi	x10,x10,818
    2238:	00e00593          	addi	x11,x0,14
    223c:	00b5163b          	sllw	x12,x10,x11
    2240:	2cc2b023          	sd	x12,704(x5)
    2244:	cccc83b7          	lui	x7,0xcccc8
    2248:	00c38463          	beq	x7,x12,0x2250
    224c:	dd9fe06f          	jal	x0,0x1024
    2250:	66666537          	lui	x10,0x66666
    2254:	66650513          	addi	x10,x10,1638 # 0x66666666
    2258:	00b51513          	slli	x10,x10,0xb
    225c:	33350513          	addi	x10,x10,819
    2260:	00b51513          	slli	x10,x10,0xb
    2264:	19950513          	addi	x10,x10,409
    2268:	00a51513          	slli	x10,x10,0xa
    226c:	26550513          	addi	x10,x10,613
    2270:	00400593          	addi	x11,x0,4
    2274:	00b5163b          	sllw	x12,x10,x11
    2278:	2cc2b423          	sd	x12,712(x5)
    227c:	666663b7          	lui	x7,0x66666
    2280:	6503839b          	addiw	x7,x7,1616 # 0x66666650
    2284:	00c38463          	beq	x7,x12,0x228c
    2288:	d9dfe06f          	jal	x0,0x1024
    228c:	00000537          	lui	x10,0x0
    2290:	00050513          	addi	x10,x10,0 # 0x0
    2294:	00b51513          	slli	x10,x10,0xb
    2298:	5a850513          	addi	x10,x10,1448
    229c:	00b51513          	slli	x10,x10,0xb
    22a0:	13c50513          	addi	x10,x10,316
    22a4:	00a51513          	slli	x10,x10,0xa
    22a8:	33250513          	addi	x10,x10,818
    22ac:	01100593          	addi	x11,x0,17
    22b0:	00b5163b          	sllw	x12,x10,x11
    22b4:	2cc2b823          	sd	x12,720(x5)
    22b8:	e66403b7          	lui	x7,0xe6640
    22bc:	00c38463          	beq	x7,x12,0x22c4
    22c0:	d65fe06f          	jal	x0,0x1024
    22c4:	55555537          	lui	x10,0x55555
    22c8:	55550513          	addi	x10,x10,1365 # 0x55555555
    22cc:	00b51513          	slli	x10,x10,0xb
    22d0:	2aa50513          	addi	x10,x10,682
    22d4:	00b51513          	slli	x10,x10,0xb
    22d8:	55550513          	addi	x10,x10,1365
    22dc:	00a51513          	slli	x10,x10,0xa
    22e0:	15650513          	addi	x10,x10,342
    22e4:	00100593          	addi	x11,x0,1
    22e8:	00b5163b          	sllw	x12,x10,x11
    22ec:	2cc2bc23          	sd	x12,728(x5)
    22f0:	aaaab3b7          	lui	x7,0xaaaab
    22f4:	aac3839b          	addiw	x7,x7,-1364 # 0xffffffffaaaaaaac
    22f8:	00c38463          	beq	x7,x12,0x2300
    22fc:	d29fe06f          	jal	x0,0x1024
    2300:	aaaab537          	lui	x10,0xaaaab
    2304:	aaa50513          	addi	x10,x10,-1366 # 0xffffffffaaaaaaaa
    2308:	00b51513          	slli	x10,x10,0xb
    230c:	55550513          	addi	x10,x10,1365
    2310:	00b51513          	slli	x10,x10,0xb
    2314:	2aa50513          	addi	x10,x10,682
    2318:	00a51513          	slli	x10,x10,0xa
    231c:	2ab50513          	addi	x10,x10,683
    2320:	01000593          	addi	x11,x0,16
    2324:	00b5163b          	sllw	x12,x10,x11
    2328:	2ec2b023          	sd	x12,736(x5)
    232c:	aaab03b7          	lui	x7,0xaaab0
    2330:	00c38463          	beq	x7,x12,0x2338
    2334:	cf1fe06f          	jal	x0,0x1024
    2338:	00600513          	addi	x10,x0,6
    233c:	01f00593          	addi	x11,x0,31
    2340:	00b5163b          	sllw	x12,x10,x11
    2344:	2ec2b423          	sd	x12,744(x5)
    2348:	00000393          	addi	x7,x0,0
    234c:	00c38463          	beq	x7,x12,0x2354
    2350:	cd5fe06f          	jal	x0,0x1024
    2354:	33333537          	lui	x10,0x33333
    2358:	33350513          	addi	x10,x10,819 # 0x33333333
    235c:	00b51513          	slli	x10,x10,0xb
    2360:	19950513          	addi	x10,x10,409
    2364:	00b51513          	slli	x10,x10,0xb
    2368:	4cc50513          	addi	x10,x10,1228
    236c:	00a51513          	slli	x10,x10,0xa
    2370:	33450513          	addi	x10,x10,820
    2374:	00a00593          	addi	x11,x0,10
    2378:	00b5163b          	sllw	x12,x10,x11
    237c:	2ec2b823          	sd	x12,752(x5)
    2380:	ccccd3b7          	lui	x7,0xccccd
    2384:	00c38463          	beq	x7,x12,0x238c
    2388:	c9dfe06f          	jal	x0,0x1024
    238c:	66666537          	lui	x10,0x66666
    2390:	66650513          	addi	x10,x10,1638 # 0x66666666
    2394:	00b51513          	slli	x10,x10,0xb
    2398:	33350513          	addi	x10,x10,819
    239c:	00b51513          	slli	x10,x10,0xb
    23a0:	19950513          	addi	x10,x10,409
    23a4:	00a51513          	slli	x10,x10,0xa
    23a8:	26750513          	addi	x10,x10,615
    23ac:	01d00593          	addi	x11,x0,29
    23b0:	00b5163b          	sllw	x12,x10,x11
    23b4:	2ec2bc23          	sd	x12,760(x5)
    23b8:	e00003b7          	lui	x7,0xe0000
    23bc:	00c38463          	beq	x7,x12,0x23c4
    23c0:	c65fe06f          	jal	x0,0x1024
    23c4:	00000537          	lui	x10,0x0
    23c8:	fff50513          	addi	x10,x10,-1 # 0xffffffffffffffff
    23cc:	00b51513          	slli	x10,x10,0xb
    23d0:	25750513          	addi	x10,x10,599
    23d4:	00b51513          	slli	x10,x10,0xb
    23d8:	6c350513          	addi	x10,x10,1731
    23dc:	00a51513          	slli	x10,x10,0xa
    23e0:	0ce50513          	addi	x10,x10,206
    23e4:	00300593          	addi	x11,x0,3
    23e8:	00b5163b          	sllw	x12,x10,x11
    23ec:	30c2b023          	sd	x12,768(x5)
    23f0:	57d863b7          	lui	x7,0x57d86
    23f4:	6703839b          	addiw	x7,x7,1648 # 0x57d86670
    23f8:	00c38463          	beq	x7,x12,0x2400
    23fc:	c29fe06f          	jal	x0,0x1024
    2400:	00000537          	lui	x10,0x0
    2404:	00050513          	addi	x10,x10,0 # 0x0
    2408:	00b51513          	slli	x10,x10,0xb
    240c:	5a850513          	addi	x10,x10,1448
    2410:	00b51513          	slli	x10,x10,0xb
    2414:	13c50513          	addi	x10,x10,316
    2418:	00a51513          	slli	x10,x10,0xa
    241c:	33450513          	addi	x10,x10,820
    2420:	01f00593          	addi	x11,x0,31
    2424:	00b5163b          	sllw	x12,x10,x11
    2428:	30c2b423          	sd	x12,776(x5)
    242c:	00000393          	addi	x7,x0,0
    2430:	00c38463          	beq	x7,x12,0x2438
    2434:	bf1fe06f          	jal	x0,0x1024
    2438:	00100513          	addi	x10,x0,1
    243c:	01351513          	slli	x10,x10,0x13
    2440:	fff54513          	xori	x10,x10,-1
    2444:	01100593          	addi	x11,x0,17
    2448:	00b5163b          	sllw	x12,x10,x11
    244c:	30c2b823          	sd	x12,784(x5)
    2450:	fffe03b7          	lui	x7,0xfffe0
    2454:	00c38463          	beq	x7,x12,0x245c
    2458:	bcdfe06f          	jal	x0,0x1024
    245c:	00100513          	addi	x10,x0,1
    2460:	01451513          	slli	x10,x10,0x14
    2464:	fff54513          	xori	x10,x10,-1
    2468:	01500593          	addi	x11,x0,21
    246c:	00b5163b          	sllw	x12,x10,x11
    2470:	30c2bc23          	sd	x12,792(x5)
    2474:	ffe003b7          	lui	x7,0xffe00
    2478:	00c38463          	beq	x7,x12,0x2480
    247c:	ba9fe06f          	jal	x0,0x1024
    2480:	00100513          	addi	x10,x0,1
    2484:	01551513          	slli	x10,x10,0x15
    2488:	fff54513          	xori	x10,x10,-1
    248c:	01200593          	addi	x11,x0,18
    2490:	00b5163b          	sllw	x12,x10,x11
    2494:	32c2b023          	sd	x12,800(x5)
    2498:	fffc03b7          	lui	x7,0xfffc0
    249c:	00c38463          	beq	x7,x12,0x24a4
    24a0:	b85fe06f          	jal	x0,0x1024
    24a4:	00100513          	addi	x10,x0,1
    24a8:	01651513          	slli	x10,x10,0x16
    24ac:	fff54513          	xori	x10,x10,-1
    24b0:	01200593          	addi	x11,x0,18
    24b4:	00b5163b          	sllw	x12,x10,x11
    24b8:	32c2b423          	sd	x12,808(x5)
    24bc:	fffc03b7          	lui	x7,0xfffc0
    24c0:	00c38463          	beq	x7,x12,0x24c8
    24c4:	b61fe06f          	jal	x0,0x1024
    24c8:	00100513          	addi	x10,x0,1
    24cc:	01751513          	slli	x10,x10,0x17
    24d0:	fff54513          	xori	x10,x10,-1
    24d4:	00100593          	addi	x11,x0,1
    24d8:	00b5163b          	sllw	x12,x10,x11
    24dc:	32c2b823          	sd	x12,816(x5)
    24e0:	ff0003b7          	lui	x7,0xff000
    24e4:	ffe3839b          	addiw	x7,x7,-2 # 0xfffffffffefffffe
    24e8:	00c38463          	beq	x7,x12,0x24f0
    24ec:	b39fe06f          	jal	x0,0x1024
    24f0:	00100513          	addi	x10,x0,1
    24f4:	01851513          	slli	x10,x10,0x18
    24f8:	fff54513          	xori	x10,x10,-1
    24fc:	00000593          	addi	x11,x0,0
    2500:	00b5163b          	sllw	x12,x10,x11
    2504:	32c2bc23          	sd	x12,824(x5)
    2508:	ff0003b7          	lui	x7,0xff000
    250c:	fff3839b          	addiw	x7,x7,-1 # 0xfffffffffeffffff
    2510:	00c38463          	beq	x7,x12,0x2518
    2514:	b11fe06f          	jal	x0,0x1024
    2518:	00100513          	addi	x10,x0,1
    251c:	01951513          	slli	x10,x10,0x19
    2520:	fff54513          	xori	x10,x10,-1
    2524:	00d00593          	addi	x11,x0,13
    2528:	00b5163b          	sllw	x12,x10,x11
    252c:	34c2b023          	sd	x12,832(x5)
    2530:	ffffe3b7          	lui	x7,0xffffe
    2534:	00c38463          	beq	x7,x12,0x253c
    2538:	aedfe06f          	jal	x0,0x1024
    253c:	00100513          	addi	x10,x0,1
    2540:	01a51513          	slli	x10,x10,0x1a
    2544:	fff54513          	xori	x10,x10,-1
    2548:	01500593          	addi	x11,x0,21
    254c:	00b5163b          	sllw	x12,x10,x11
    2550:	34c2b423          	sd	x12,840(x5)
    2554:	ffe003b7          	lui	x7,0xffe00
    2558:	00c38463          	beq	x7,x12,0x2560
    255c:	ac9fe06f          	jal	x0,0x1024
    2560:	00100513          	addi	x10,x0,1
    2564:	01b51513          	slli	x10,x10,0x1b
    2568:	fff54513          	xori	x10,x10,-1
    256c:	00400593          	addi	x11,x0,4
    2570:	00b5163b          	sllw	x12,x10,x11
    2574:	34c2b823          	sd	x12,848(x5)
    2578:	800003b7          	lui	x7,0x80000
    257c:	ff03839b          	addiw	x7,x7,-16 # 0x7ffffff0
    2580:	00c38463          	beq	x7,x12,0x2588
    2584:	aa1fe06f          	jal	x0,0x1024
    2588:	00100513          	addi	x10,x0,1
    258c:	01c51513          	slli	x10,x10,0x1c
    2590:	fff54513          	xori	x10,x10,-1
    2594:	00d00593          	addi	x11,x0,13
    2598:	00b5163b          	sllw	x12,x10,x11
    259c:	34c2bc23          	sd	x12,856(x5)
    25a0:	ffffe3b7          	lui	x7,0xffffe
    25a4:	00c38463          	beq	x7,x12,0x25ac
    25a8:	a7dfe06f          	jal	x0,0x1024
    25ac:	00100513          	addi	x10,x0,1
    25b0:	01d51513          	slli	x10,x10,0x1d
    25b4:	fff54513          	xori	x10,x10,-1
    25b8:	01100593          	addi	x11,x0,17
    25bc:	00b5163b          	sllw	x12,x10,x11
    25c0:	36c2b023          	sd	x12,864(x5)
    25c4:	fffe03b7          	lui	x7,0xfffe0
    25c8:	00c38463          	beq	x7,x12,0x25d0
    25cc:	a59fe06f          	jal	x0,0x1024
    25d0:	00100513          	addi	x10,x0,1
    25d4:	01e51513          	slli	x10,x10,0x1e
    25d8:	fff54513          	xori	x10,x10,-1
    25dc:	00a00593          	addi	x11,x0,10
    25e0:	00b5163b          	sllw	x12,x10,x11
    25e4:	36c2b423          	sd	x12,872(x5)
    25e8:	c0000393          	addi	x7,x0,-1024
    25ec:	00c38463          	beq	x7,x12,0x25f4
    25f0:	a35fe06f          	jal	x0,0x1024
    25f4:	00100513          	addi	x10,x0,1
    25f8:	01f51513          	slli	x10,x10,0x1f
    25fc:	fff54513          	xori	x10,x10,-1
    2600:	00300593          	addi	x11,x0,3
    2604:	00b5163b          	sllw	x12,x10,x11
    2608:	36c2b823          	sd	x12,880(x5)
    260c:	ff800393          	addi	x7,x0,-8
    2610:	00c38463          	beq	x7,x12,0x2618
    2614:	a11fe06f          	jal	x0,0x1024
    2618:	00100513          	addi	x10,x0,1
    261c:	02051513          	slli	x10,x10,0x20
    2620:	fff54513          	xori	x10,x10,-1
    2624:	00900593          	addi	x11,x0,9
    2628:	00b5163b          	sllw	x12,x10,x11
    262c:	36c2bc23          	sd	x12,888(x5)
    2630:	e0000393          	addi	x7,x0,-512
    2634:	00c38463          	beq	x7,x12,0x263c
    2638:	9edfe06f          	jal	x0,0x1024
    263c:	00100513          	addi	x10,x0,1
    2640:	02151513          	slli	x10,x10,0x21
    2644:	fff54513          	xori	x10,x10,-1
    2648:	00900593          	addi	x11,x0,9
    264c:	00b5163b          	sllw	x12,x10,x11
    2650:	38c2b023          	sd	x12,896(x5)
    2654:	e0000393          	addi	x7,x0,-512
    2658:	00c38463          	beq	x7,x12,0x2660
    265c:	9c9fe06f          	jal	x0,0x1024
    2660:	00100513          	addi	x10,x0,1
    2664:	02251513          	slli	x10,x10,0x22
    2668:	fff54513          	xori	x10,x10,-1
    266c:	01b00593          	addi	x11,x0,27
    2670:	00b5163b          	sllw	x12,x10,x11
    2674:	38c2b423          	sd	x12,904(x5)
    2678:	f80003b7          	lui	x7,0xf8000
    267c:	00c38463          	beq	x7,x12,0x2684
    2680:	9a5fe06f          	jal	x0,0x1024
    2684:	00100513          	addi	x10,x0,1
    2688:	02351513          	slli	x10,x10,0x23
    268c:	fff54513          	xori	x10,x10,-1
    2690:	01700593          	addi	x11,x0,23
    2694:	00b5163b          	sllw	x12,x10,x11
    2698:	38c2b823          	sd	x12,912(x5)
    269c:	ff8003b7          	lui	x7,0xff800
    26a0:	00c38463          	beq	x7,x12,0x26a8
    26a4:	981fe06f          	jal	x0,0x1024
    26a8:	00100513          	addi	x10,x0,1
    26ac:	02451513          	slli	x10,x10,0x24
    26b0:	fff54513          	xori	x10,x10,-1
    26b4:	00200593          	addi	x11,x0,2
    26b8:	00b5163b          	sllw	x12,x10,x11
    26bc:	38c2bc23          	sd	x12,920(x5)
    26c0:	ffc00393          	addi	x7,x0,-4
    26c4:	00c38463          	beq	x7,x12,0x26cc
    26c8:	95dfe06f          	jal	x0,0x1024
    26cc:	00100513          	addi	x10,x0,1
    26d0:	02551513          	slli	x10,x10,0x25
    26d4:	fff54513          	xori	x10,x10,-1
    26d8:	01700593          	addi	x11,x0,23
    26dc:	00b5163b          	sllw	x12,x10,x11
    26e0:	3ac2b023          	sd	x12,928(x5)
    26e4:	ff8003b7          	lui	x7,0xff800
    26e8:	00c38463          	beq	x7,x12,0x26f0
    26ec:	939fe06f          	jal	x0,0x1024
    26f0:	00100513          	addi	x10,x0,1
    26f4:	02651513          	slli	x10,x10,0x26
    26f8:	fff54513          	xori	x10,x10,-1
    26fc:	00d00593          	addi	x11,x0,13
    2700:	00b5163b          	sllw	x12,x10,x11
    2704:	3ac2b423          	sd	x12,936(x5)
    2708:	ffffe3b7          	lui	x7,0xffffe
    270c:	00c38463          	beq	x7,x12,0x2714
    2710:	915fe06f          	jal	x0,0x1024
    2714:	00100513          	addi	x10,x0,1
    2718:	02751513          	slli	x10,x10,0x27
    271c:	fff54513          	xori	x10,x10,-1
    2720:	00500593          	addi	x11,x0,5
    2724:	00b5163b          	sllw	x12,x10,x11
    2728:	3ac2b823          	sd	x12,944(x5)
    272c:	fe000393          	addi	x7,x0,-32
    2730:	00c38463          	beq	x7,x12,0x2738
    2734:	8f1fe06f          	jal	x0,0x1024
    2738:	00100513          	addi	x10,x0,1
    273c:	02851513          	slli	x10,x10,0x28
    2740:	fff54513          	xori	x10,x10,-1
    2744:	00600593          	addi	x11,x0,6
    2748:	00b5163b          	sllw	x12,x10,x11
    274c:	3ac2bc23          	sd	x12,952(x5)
    2750:	fc000393          	addi	x7,x0,-64
    2754:	00c38463          	beq	x7,x12,0x275c
    2758:	8cdfe06f          	jal	x0,0x1024
    275c:	00100513          	addi	x10,x0,1
    2760:	02951513          	slli	x10,x10,0x29
    2764:	fff54513          	xori	x10,x10,-1
    2768:	00c00593          	addi	x11,x0,12
    276c:	00b5163b          	sllw	x12,x10,x11
    2770:	3cc2b023          	sd	x12,960(x5)
    2774:	fffff3b7          	lui	x7,0xfffff
    2778:	00c38463          	beq	x7,x12,0x2780
    277c:	8a9fe06f          	jal	x0,0x1024
    2780:	00100513          	addi	x10,x0,1
    2784:	02a51513          	slli	x10,x10,0x2a
    2788:	fff54513          	xori	x10,x10,-1
    278c:	00700593          	addi	x11,x0,7
    2790:	00b5163b          	sllw	x12,x10,x11
    2794:	3cc2b423          	sd	x12,968(x5)
    2798:	f8000393          	addi	x7,x0,-128
    279c:	00c38463          	beq	x7,x12,0x27a4
    27a0:	885fe06f          	jal	x0,0x1024
    27a4:	00100513          	addi	x10,x0,1
    27a8:	02b51513          	slli	x10,x10,0x2b
    27ac:	fff54513          	xori	x10,x10,-1
    27b0:	01700593          	addi	x11,x0,23
    27b4:	00b5163b          	sllw	x12,x10,x11
    27b8:	3cc2b823          	sd	x12,976(x5)
    27bc:	ff8003b7          	lui	x7,0xff800
    27c0:	00c38463          	beq	x7,x12,0x27c8
    27c4:	861fe06f          	jal	x0,0x1024
    27c8:	00100513          	addi	x10,x0,1
    27cc:	02c51513          	slli	x10,x10,0x2c
    27d0:	fff54513          	xori	x10,x10,-1
    27d4:	01f00593          	addi	x11,x0,31
    27d8:	00b5163b          	sllw	x12,x10,x11
    27dc:	3cc2bc23          	sd	x12,984(x5)
    27e0:	800003b7          	lui	x7,0x80000
    27e4:	00c38463          	beq	x7,x12,0x27ec
    27e8:	83dfe06f          	jal	x0,0x1024
    27ec:	00100513          	addi	x10,x0,1
    27f0:	02d51513          	slli	x10,x10,0x2d
    27f4:	fff54513          	xori	x10,x10,-1
    27f8:	00400593          	addi	x11,x0,4
    27fc:	00b5163b          	sllw	x12,x10,x11
    2800:	3ec2b023          	sd	x12,992(x5)
    2804:	ff000393          	addi	x7,x0,-16
    2808:	00c38463          	beq	x7,x12,0x2810
    280c:	819fe06f          	jal	x0,0x1024
    2810:	00100513          	addi	x10,x0,1
    2814:	02e51513          	slli	x10,x10,0x2e
    2818:	fff54513          	xori	x10,x10,-1
    281c:	01d00593          	addi	x11,x0,29
    2820:	00b5163b          	sllw	x12,x10,x11
    2824:	3ec2b423          	sd	x12,1000(x5)
    2828:	e00003b7          	lui	x7,0xe0000
    282c:	00c38463          	beq	x7,x12,0x2834
    2830:	ff4fe06f          	jal	x0,0x1024
    2834:	00100513          	addi	x10,x0,1
    2838:	03051513          	slli	x10,x10,0x30
    283c:	fff54513          	xori	x10,x10,-1
    2840:	01000593          	addi	x11,x0,16
    2844:	00b5163b          	sllw	x12,x10,x11
    2848:	3ec2b823          	sd	x12,1008(x5)
    284c:	ffff03b7          	lui	x7,0xffff0
    2850:	00c38463          	beq	x7,x12,0x2858
    2854:	fd0fe06f          	jal	x0,0x1024
    2858:	00100513          	addi	x10,x0,1
    285c:	03151513          	slli	x10,x10,0x31
    2860:	fff54513          	xori	x10,x10,-1
    2864:	00600593          	addi	x11,x0,6
    2868:	00b5163b          	sllw	x12,x10,x11
    286c:	3ec2bc23          	sd	x12,1016(x5)
    2870:	fc000393          	addi	x7,x0,-64
    2874:	00c38463          	beq	x7,x12,0x287c
    2878:	facfe06f          	jal	x0,0x1024
    287c:	00100513          	addi	x10,x0,1
    2880:	03251513          	slli	x10,x10,0x32
    2884:	fff54513          	xori	x10,x10,-1
    2888:	00d00593          	addi	x11,x0,13
    288c:	00b5163b          	sllw	x12,x10,x11
    2890:	40c2b023          	sd	x12,1024(x5)
    2894:	ffffe3b7          	lui	x7,0xffffe
    2898:	00c38463          	beq	x7,x12,0x28a0
    289c:	f88fe06f          	jal	x0,0x1024
    28a0:	00100513          	addi	x10,x0,1
    28a4:	03351513          	slli	x10,x10,0x33
    28a8:	fff54513          	xori	x10,x10,-1
    28ac:	00100593          	addi	x11,x0,1
    28b0:	00b5163b          	sllw	x12,x10,x11
    28b4:	40c2b423          	sd	x12,1032(x5)
    28b8:	ffe00393          	addi	x7,x0,-2
    28bc:	00c38463          	beq	x7,x12,0x28c4
    28c0:	f64fe06f          	jal	x0,0x1024
    28c4:	00100513          	addi	x10,x0,1
    28c8:	03451513          	slli	x10,x10,0x34
    28cc:	fff54513          	xori	x10,x10,-1
    28d0:	01200593          	addi	x11,x0,18
    28d4:	00b5163b          	sllw	x12,x10,x11
    28d8:	40c2b823          	sd	x12,1040(x5)
    28dc:	fffc03b7          	lui	x7,0xfffc0
    28e0:	00c38463          	beq	x7,x12,0x28e8
    28e4:	f40fe06f          	jal	x0,0x1024
    28e8:	00100513          	addi	x10,x0,1
    28ec:	03551513          	slli	x10,x10,0x35
    28f0:	fff54513          	xori	x10,x10,-1
    28f4:	01e00593          	addi	x11,x0,30
    28f8:	00b5163b          	sllw	x12,x10,x11
    28fc:	40c2bc23          	sd	x12,1048(x5)
    2900:	c00003b7          	lui	x7,0xc0000
    2904:	00c38463          	beq	x7,x12,0x290c
    2908:	f1cfe06f          	jal	x0,0x1024
    290c:	00100513          	addi	x10,x0,1
    2910:	03651513          	slli	x10,x10,0x36
    2914:	fff54513          	xori	x10,x10,-1
    2918:	00e00593          	addi	x11,x0,14
    291c:	00b5163b          	sllw	x12,x10,x11
    2920:	42c2b023          	sd	x12,1056(x5)
    2924:	ffffc3b7          	lui	x7,0xffffc
    2928:	00c38463          	beq	x7,x12,0x2930
    292c:	ef8fe06f          	jal	x0,0x1024
    2930:	00100513          	addi	x10,x0,1
    2934:	02f51513          	slli	x10,x10,0x2f
    2938:	fff54513          	xori	x10,x10,-1
    293c:	00f00593          	addi	x11,x0,15
    2940:	00b5163b          	sllw	x12,x10,x11
    2944:	42c2b423          	sd	x12,1064(x5)
    2948:	ffff83b7          	lui	x7,0xffff8
    294c:	00c38463          	beq	x7,x12,0x2954
    2950:	ed4fe06f          	jal	x0,0x1024
    2954:	fff00513          	addi	x10,x0,-1
    2958:	00155513          	srli	x10,x10,0x1
    295c:	01700593          	addi	x11,x0,23
    2960:	00b5163b          	sllw	x12,x10,x11
    2964:	42c2b823          	sd	x12,1072(x5)
    2968:	ff8003b7          	lui	x7,0xff800
    296c:	00c38463          	beq	x7,x12,0x2974
    2970:	eb4fe06f          	jal	x0,0x1024
    2974:	04000513          	addi	x10,x0,64
    2978:	01100593          	addi	x11,x0,17
    297c:	00b5163b          	sllw	x12,x10,x11
    2980:	42c2bc23          	sd	x12,1080(x5)
    2984:	008003b7          	lui	x7,0x800
    2988:	00c38463          	beq	x7,x12,0x2990
    298c:	e98fe06f          	jal	x0,0x1024
    2990:	00100513          	addi	x10,x0,1
    2994:	01651513          	slli	x10,x10,0x16
    2998:	00600593          	addi	x11,x0,6
    299c:	00b5163b          	sllw	x12,x10,x11
    29a0:	44c2b023          	sd	x12,1088(x5)
    29a4:	100003b7          	lui	x7,0x10000
    29a8:	00c38463          	beq	x7,x12,0x29b0
    29ac:	e78fe06f          	jal	x0,0x1024
    29b0:	0380006f          	jal	x0,0x29e8
    29b4:	1f813483          	ld	x9,504(x2)
    29b8:	20013303          	ld	x6,512(x2)
    29bc:	00930333          	add	x6,x6,x9
    29c0:	00000337          	lui	x6,0x0
    29c4:	00030313          	addi	x6,x6,0 # 0x0
    29c8:	00b31313          	slli	x6,x6,0xb
    29cc:	5d630313          	addi	x6,x6,1494
    29d0:	00b31313          	slli	x6,x6,0xb
    29d4:	43630313          	addi	x6,x6,1078
    29d8:	00a31313          	slli	x6,x6,0xa
    29dc:	2d030313          	addi	x6,x6,720
    29e0:	fe64be23          	sd	x6,-4(x9)
    29e4:	0040006f          	jal	x0,0x29e8
    29e8:	00000513          	addi	x10,x0,0
    29ec:	0140006f          	jal	x0,0x2a00
	...
    2a00:	00050513          	addi	x10,x10,0
    2a04:	00100073          	ebreak
    2a08:	0000006f          	jal	x0,0x2a08
    2a0c:	ff010113          	addi	x2,x2,-16
    2a10:	00000517          	auipc	x10,0x0
    2a14:	02050513          	addi	x10,x10,32 # 0x2a30
    2a18:	00113423          	sd	x1,8(x2)
    2a1c:	df4fe0ef          	jal	x1,0x1010
    2a20:	00050513          	addi	x10,x10,0
    2a24:	00100073          	ebreak
    2a28:	0000006f          	jal	x0,0x2a28
	...
    3000:	cafe                	c.swsp	x31,84(x2)
    3002:	babe                	c.fsdsp	f15,368(x2)
    3004:	cafe                	c.swsp	x31,84(x2)
    3006:	babe                	c.fsdsp	f15,368(x2)
    3008:	cafe                	c.swsp	x31,84(x2)
    300a:	babe                	c.fsdsp	f15,368(x2)
    300c:	cafe                	c.swsp	x31,84(x2)
    300e:	babe                	c.fsdsp	f15,368(x2)
    3010:	deadbeef          	jal	x29,0xfffffffffffde5fa
    3014:	deadbeef          	jal	x29,0xfffffffffffde5fe
	...
    4000:	b281                	c.j	0x3940
    4002:	e7d4                	c.sd	x13,136(x15)
    4004:	a309                	c.j	0x4506
    4006:	6f5c                	c.ld	x15,152(x14)
    4008:	deadbeef          	jal	x29,0xfffffffffffdf5f2
    400c:	deadbeef          	jal	x29,0xfffffffffffdf5f6
    4010:	deadbeef          	jal	x29,0xfffffffffffdf5fa
    4014:	deadbeef          	jal	x29,0xfffffffffffdf5fe
    4018:	deadbeef          	jal	x29,0xfffffffffffdf602
    401c:	deadbeef          	jal	x29,0xfffffffffffdf606
    4020:	deadbeef          	jal	x29,0xfffffffffffdf60a
    4024:	deadbeef          	jal	x29,0xfffffffffffdf60e
    4028:	deadbeef          	jal	x29,0xfffffffffffdf612
    402c:	deadbeef          	jal	x29,0xfffffffffffdf616
    4030:	deadbeef          	jal	x29,0xfffffffffffdf61a
    4034:	deadbeef          	jal	x29,0xfffffffffffdf61e
    4038:	deadbeef          	jal	x29,0xfffffffffffdf622
    403c:	deadbeef          	jal	x29,0xfffffffffffdf626
    4040:	deadbeef          	jal	x29,0xfffffffffffdf62a
    4044:	deadbeef          	jal	x29,0xfffffffffffdf62e
    4048:	deadbeef          	jal	x29,0xfffffffffffdf632
    404c:	deadbeef          	jal	x29,0xfffffffffffdf636
    4050:	deadbeef          	jal	x29,0xfffffffffffdf63a
    4054:	deadbeef          	jal	x29,0xfffffffffffdf63e
    4058:	deadbeef          	jal	x29,0xfffffffffffdf642
    405c:	deadbeef          	jal	x29,0xfffffffffffdf646
    4060:	deadbeef          	jal	x29,0xfffffffffffdf64a
    4064:	deadbeef          	jal	x29,0xfffffffffffdf64e
    4068:	deadbeef          	jal	x29,0xfffffffffffdf652
    406c:	deadbeef          	jal	x29,0xfffffffffffdf656
    4070:	deadbeef          	jal	x29,0xfffffffffffdf65a
    4074:	deadbeef          	jal	x29,0xfffffffffffdf65e
    4078:	deadbeef          	jal	x29,0xfffffffffffdf662
    407c:	deadbeef          	jal	x29,0xfffffffffffdf666
    4080:	deadbeef          	jal	x29,0xfffffffffffdf66a
    4084:	deadbeef          	jal	x29,0xfffffffffffdf66e
    4088:	deadbeef          	jal	x29,0xfffffffffffdf672
    408c:	deadbeef          	jal	x29,0xfffffffffffdf676
    4090:	deadbeef          	jal	x29,0xfffffffffffdf67a
    4094:	deadbeef          	jal	x29,0xfffffffffffdf67e
    4098:	deadbeef          	jal	x29,0xfffffffffffdf682
    409c:	deadbeef          	jal	x29,0xfffffffffffdf686
    40a0:	deadbeef          	jal	x29,0xfffffffffffdf68a
    40a4:	deadbeef          	jal	x29,0xfffffffffffdf68e
    40a8:	deadbeef          	jal	x29,0xfffffffffffdf692
    40ac:	deadbeef          	jal	x29,0xfffffffffffdf696
    40b0:	deadbeef          	jal	x29,0xfffffffffffdf69a
    40b4:	deadbeef          	jal	x29,0xfffffffffffdf69e
    40b8:	deadbeef          	jal	x29,0xfffffffffffdf6a2
    40bc:	deadbeef          	jal	x29,0xfffffffffffdf6a6
    40c0:	deadbeef          	jal	x29,0xfffffffffffdf6aa
    40c4:	deadbeef          	jal	x29,0xfffffffffffdf6ae
    40c8:	deadbeef          	jal	x29,0xfffffffffffdf6b2
    40cc:	deadbeef          	jal	x29,0xfffffffffffdf6b6
    40d0:	deadbeef          	jal	x29,0xfffffffffffdf6ba
    40d4:	deadbeef          	jal	x29,0xfffffffffffdf6be
    40d8:	deadbeef          	jal	x29,0xfffffffffffdf6c2
    40dc:	deadbeef          	jal	x29,0xfffffffffffdf6c6
    40e0:	deadbeef          	jal	x29,0xfffffffffffdf6ca
    40e4:	deadbeef          	jal	x29,0xfffffffffffdf6ce
    40e8:	deadbeef          	jal	x29,0xfffffffffffdf6d2
    40ec:	deadbeef          	jal	x29,0xfffffffffffdf6d6
    40f0:	deadbeef          	jal	x29,0xfffffffffffdf6da
    40f4:	deadbeef          	jal	x29,0xfffffffffffdf6de
    40f8:	deadbeef          	jal	x29,0xfffffffffffdf6e2
    40fc:	deadbeef          	jal	x29,0xfffffffffffdf6e6
    4100:	deadbeef          	jal	x29,0xfffffffffffdf6ea
    4104:	deadbeef          	jal	x29,0xfffffffffffdf6ee
    4108:	deadbeef          	jal	x29,0xfffffffffffdf6f2
    410c:	deadbeef          	jal	x29,0xfffffffffffdf6f6
    4110:	deadbeef          	jal	x29,0xfffffffffffdf6fa
    4114:	deadbeef          	jal	x29,0xfffffffffffdf6fe
    4118:	deadbeef          	jal	x29,0xfffffffffffdf702
    411c:	deadbeef          	jal	x29,0xfffffffffffdf706
    4120:	deadbeef          	jal	x29,0xfffffffffffdf70a
    4124:	deadbeef          	jal	x29,0xfffffffffffdf70e
    4128:	deadbeef          	jal	x29,0xfffffffffffdf712
    412c:	deadbeef          	jal	x29,0xfffffffffffdf716
    4130:	deadbeef          	jal	x29,0xfffffffffffdf71a
    4134:	deadbeef          	jal	x29,0xfffffffffffdf71e
    4138:	deadbeef          	jal	x29,0xfffffffffffdf722
    413c:	deadbeef          	jal	x29,0xfffffffffffdf726
    4140:	deadbeef          	jal	x29,0xfffffffffffdf72a
    4144:	deadbeef          	jal	x29,0xfffffffffffdf72e
    4148:	deadbeef          	jal	x29,0xfffffffffffdf732
    414c:	deadbeef          	jal	x29,0xfffffffffffdf736
    4150:	deadbeef          	jal	x29,0xfffffffffffdf73a
    4154:	deadbeef          	jal	x29,0xfffffffffffdf73e
    4158:	deadbeef          	jal	x29,0xfffffffffffdf742
    415c:	deadbeef          	jal	x29,0xfffffffffffdf746
    4160:	deadbeef          	jal	x29,0xfffffffffffdf74a
    4164:	deadbeef          	jal	x29,0xfffffffffffdf74e
    4168:	deadbeef          	jal	x29,0xfffffffffffdf752
    416c:	deadbeef          	jal	x29,0xfffffffffffdf756
    4170:	deadbeef          	jal	x29,0xfffffffffffdf75a
    4174:	deadbeef          	jal	x29,0xfffffffffffdf75e
    4178:	deadbeef          	jal	x29,0xfffffffffffdf762
    417c:	deadbeef          	jal	x29,0xfffffffffffdf766
    4180:	deadbeef          	jal	x29,0xfffffffffffdf76a
    4184:	deadbeef          	jal	x29,0xfffffffffffdf76e
    4188:	deadbeef          	jal	x29,0xfffffffffffdf772
    418c:	deadbeef          	jal	x29,0xfffffffffffdf776
    4190:	deadbeef          	jal	x29,0xfffffffffffdf77a
    4194:	deadbeef          	jal	x29,0xfffffffffffdf77e
    4198:	deadbeef          	jal	x29,0xfffffffffffdf782
    419c:	deadbeef          	jal	x29,0xfffffffffffdf786
    41a0:	deadbeef          	jal	x29,0xfffffffffffdf78a
    41a4:	deadbeef          	jal	x29,0xfffffffffffdf78e
    41a8:	deadbeef          	jal	x29,0xfffffffffffdf792
    41ac:	deadbeef          	jal	x29,0xfffffffffffdf796
    41b0:	deadbeef          	jal	x29,0xfffffffffffdf79a
    41b4:	deadbeef          	jal	x29,0xfffffffffffdf79e
    41b8:	deadbeef          	jal	x29,0xfffffffffffdf7a2
    41bc:	deadbeef          	jal	x29,0xfffffffffffdf7a6
    41c0:	deadbeef          	jal	x29,0xfffffffffffdf7aa
    41c4:	deadbeef          	jal	x29,0xfffffffffffdf7ae
    41c8:	deadbeef          	jal	x29,0xfffffffffffdf7b2
    41cc:	deadbeef          	jal	x29,0xfffffffffffdf7b6
    41d0:	deadbeef          	jal	x29,0xfffffffffffdf7ba
    41d4:	deadbeef          	jal	x29,0xfffffffffffdf7be
    41d8:	deadbeef          	jal	x29,0xfffffffffffdf7c2
    41dc:	deadbeef          	jal	x29,0xfffffffffffdf7c6
    41e0:	deadbeef          	jal	x29,0xfffffffffffdf7ca
    41e4:	deadbeef          	jal	x29,0xfffffffffffdf7ce
    41e8:	deadbeef          	jal	x29,0xfffffffffffdf7d2
    41ec:	deadbeef          	jal	x29,0xfffffffffffdf7d6
    41f0:	deadbeef          	jal	x29,0xfffffffffffdf7da
    41f4:	deadbeef          	jal	x29,0xfffffffffffdf7de
    41f8:	deadbeef          	jal	x29,0xfffffffffffdf7e2
    41fc:	deadbeef          	jal	x29,0xfffffffffffdf7e6
    4200:	deadbeef          	jal	x29,0xfffffffffffdf7ea
    4204:	deadbeef          	jal	x29,0xfffffffffffdf7ee
    4208:	deadbeef          	jal	x29,0xfffffffffffdf7f2
    420c:	deadbeef          	jal	x29,0xfffffffffffdf7f6
    4210:	deadbeef          	jal	x29,0xfffffffffffdf7fa
    4214:	deadbeef          	jal	x29,0xfffffffffffdf7fe
    4218:	deadbeef          	jal	x29,0xfffffffffffdf802
    421c:	deadbeef          	jal	x29,0xfffffffffffdf806
    4220:	deadbeef          	jal	x29,0xfffffffffffdf80a
    4224:	deadbeef          	jal	x29,0xfffffffffffdf80e
    4228:	deadbeef          	jal	x29,0xfffffffffffdf812
    422c:	deadbeef          	jal	x29,0xfffffffffffdf816
    4230:	deadbeef          	jal	x29,0xfffffffffffdf81a
    4234:	deadbeef          	jal	x29,0xfffffffffffdf81e
    4238:	deadbeef          	jal	x29,0xfffffffffffdf822
    423c:	deadbeef          	jal	x29,0xfffffffffffdf826
    4240:	deadbeef          	jal	x29,0xfffffffffffdf82a
    4244:	deadbeef          	jal	x29,0xfffffffffffdf82e
    4248:	deadbeef          	jal	x29,0xfffffffffffdf832
    424c:	deadbeef          	jal	x29,0xfffffffffffdf836
    4250:	deadbeef          	jal	x29,0xfffffffffffdf83a
    4254:	deadbeef          	jal	x29,0xfffffffffffdf83e
    4258:	deadbeef          	jal	x29,0xfffffffffffdf842
    425c:	deadbeef          	jal	x29,0xfffffffffffdf846
    4260:	deadbeef          	jal	x29,0xfffffffffffdf84a
    4264:	deadbeef          	jal	x29,0xfffffffffffdf84e
    4268:	deadbeef          	jal	x29,0xfffffffffffdf852
    426c:	deadbeef          	jal	x29,0xfffffffffffdf856
    4270:	deadbeef          	jal	x29,0xfffffffffffdf85a
    4274:	deadbeef          	jal	x29,0xfffffffffffdf85e
    4278:	deadbeef          	jal	x29,0xfffffffffffdf862
    427c:	deadbeef          	jal	x29,0xfffffffffffdf866
    4280:	deadbeef          	jal	x29,0xfffffffffffdf86a
    4284:	deadbeef          	jal	x29,0xfffffffffffdf86e
    4288:	deadbeef          	jal	x29,0xfffffffffffdf872
    428c:	deadbeef          	jal	x29,0xfffffffffffdf876
    4290:	deadbeef          	jal	x29,0xfffffffffffdf87a
    4294:	deadbeef          	jal	x29,0xfffffffffffdf87e
    4298:	deadbeef          	jal	x29,0xfffffffffffdf882
    429c:	deadbeef          	jal	x29,0xfffffffffffdf886
    42a0:	deadbeef          	jal	x29,0xfffffffffffdf88a
    42a4:	deadbeef          	jal	x29,0xfffffffffffdf88e
    42a8:	deadbeef          	jal	x29,0xfffffffffffdf892
    42ac:	deadbeef          	jal	x29,0xfffffffffffdf896
    42b0:	deadbeef          	jal	x29,0xfffffffffffdf89a
    42b4:	deadbeef          	jal	x29,0xfffffffffffdf89e
    42b8:	deadbeef          	jal	x29,0xfffffffffffdf8a2
    42bc:	deadbeef          	jal	x29,0xfffffffffffdf8a6
    42c0:	deadbeef          	jal	x29,0xfffffffffffdf8aa
    42c4:	deadbeef          	jal	x29,0xfffffffffffdf8ae
    42c8:	deadbeef          	jal	x29,0xfffffffffffdf8b2
    42cc:	deadbeef          	jal	x29,0xfffffffffffdf8b6
    42d0:	deadbeef          	jal	x29,0xfffffffffffdf8ba
    42d4:	deadbeef          	jal	x29,0xfffffffffffdf8be
    42d8:	deadbeef          	jal	x29,0xfffffffffffdf8c2
    42dc:	deadbeef          	jal	x29,0xfffffffffffdf8c6
    42e0:	deadbeef          	jal	x29,0xfffffffffffdf8ca
    42e4:	deadbeef          	jal	x29,0xfffffffffffdf8ce
    42e8:	deadbeef          	jal	x29,0xfffffffffffdf8d2
    42ec:	deadbeef          	jal	x29,0xfffffffffffdf8d6
    42f0:	deadbeef          	jal	x29,0xfffffffffffdf8da
    42f4:	deadbeef          	jal	x29,0xfffffffffffdf8de
    42f8:	deadbeef          	jal	x29,0xfffffffffffdf8e2
    42fc:	deadbeef          	jal	x29,0xfffffffffffdf8e6
    4300:	deadbeef          	jal	x29,0xfffffffffffdf8ea
    4304:	deadbeef          	jal	x29,0xfffffffffffdf8ee
    4308:	deadbeef          	jal	x29,0xfffffffffffdf8f2
    430c:	deadbeef          	jal	x29,0xfffffffffffdf8f6
    4310:	deadbeef          	jal	x29,0xfffffffffffdf8fa
    4314:	deadbeef          	jal	x29,0xfffffffffffdf8fe
    4318:	deadbeef          	jal	x29,0xfffffffffffdf902
    431c:	deadbeef          	jal	x29,0xfffffffffffdf906
    4320:	deadbeef          	jal	x29,0xfffffffffffdf90a
    4324:	deadbeef          	jal	x29,0xfffffffffffdf90e
    4328:	deadbeef          	jal	x29,0xfffffffffffdf912
    432c:	deadbeef          	jal	x29,0xfffffffffffdf916
    4330:	deadbeef          	jal	x29,0xfffffffffffdf91a
    4334:	deadbeef          	jal	x29,0xfffffffffffdf91e
    4338:	deadbeef          	jal	x29,0xfffffffffffdf922
    433c:	deadbeef          	jal	x29,0xfffffffffffdf926
    4340:	deadbeef          	jal	x29,0xfffffffffffdf92a
    4344:	deadbeef          	jal	x29,0xfffffffffffdf92e
    4348:	deadbeef          	jal	x29,0xfffffffffffdf932
    434c:	deadbeef          	jal	x29,0xfffffffffffdf936
    4350:	deadbeef          	jal	x29,0xfffffffffffdf93a
    4354:	deadbeef          	jal	x29,0xfffffffffffdf93e
    4358:	deadbeef          	jal	x29,0xfffffffffffdf942
    435c:	deadbeef          	jal	x29,0xfffffffffffdf946
    4360:	deadbeef          	jal	x29,0xfffffffffffdf94a
    4364:	deadbeef          	jal	x29,0xfffffffffffdf94e
    4368:	deadbeef          	jal	x29,0xfffffffffffdf952
    436c:	deadbeef          	jal	x29,0xfffffffffffdf956
    4370:	deadbeef          	jal	x29,0xfffffffffffdf95a
    4374:	deadbeef          	jal	x29,0xfffffffffffdf95e
    4378:	deadbeef          	jal	x29,0xfffffffffffdf962
    437c:	deadbeef          	jal	x29,0xfffffffffffdf966
    4380:	deadbeef          	jal	x29,0xfffffffffffdf96a
    4384:	deadbeef          	jal	x29,0xfffffffffffdf96e
    4388:	deadbeef          	jal	x29,0xfffffffffffdf972
    438c:	deadbeef          	jal	x29,0xfffffffffffdf976
    4390:	deadbeef          	jal	x29,0xfffffffffffdf97a
    4394:	deadbeef          	jal	x29,0xfffffffffffdf97e
    4398:	deadbeef          	jal	x29,0xfffffffffffdf982
    439c:	deadbeef          	jal	x29,0xfffffffffffdf986
    43a0:	deadbeef          	jal	x29,0xfffffffffffdf98a
    43a4:	deadbeef          	jal	x29,0xfffffffffffdf98e
    43a8:	deadbeef          	jal	x29,0xfffffffffffdf992
    43ac:	deadbeef          	jal	x29,0xfffffffffffdf996
    43b0:	deadbeef          	jal	x29,0xfffffffffffdf99a
    43b4:	deadbeef          	jal	x29,0xfffffffffffdf99e
    43b8:	deadbeef          	jal	x29,0xfffffffffffdf9a2
    43bc:	deadbeef          	jal	x29,0xfffffffffffdf9a6
    43c0:	deadbeef          	jal	x29,0xfffffffffffdf9aa
    43c4:	deadbeef          	jal	x29,0xfffffffffffdf9ae
    43c8:	deadbeef          	jal	x29,0xfffffffffffdf9b2
    43cc:	deadbeef          	jal	x29,0xfffffffffffdf9b6
    43d0:	deadbeef          	jal	x29,0xfffffffffffdf9ba
    43d4:	deadbeef          	jal	x29,0xfffffffffffdf9be
    43d8:	deadbeef          	jal	x29,0xfffffffffffdf9c2
    43dc:	deadbeef          	jal	x29,0xfffffffffffdf9c6
    43e0:	deadbeef          	jal	x29,0xfffffffffffdf9ca
    43e4:	deadbeef          	jal	x29,0xfffffffffffdf9ce
    43e8:	deadbeef          	jal	x29,0xfffffffffffdf9d2
    43ec:	deadbeef          	jal	x29,0xfffffffffffdf9d6
    43f0:	deadbeef          	jal	x29,0xfffffffffffdf9da
    43f4:	deadbeef          	jal	x29,0xfffffffffffdf9de
    43f8:	deadbeef          	jal	x29,0xfffffffffffdf9e2
    43fc:	deadbeef          	jal	x29,0xfffffffffffdf9e6
    4400:	deadbeef          	jal	x29,0xfffffffffffdf9ea
    4404:	deadbeef          	jal	x29,0xfffffffffffdf9ee
    4408:	deadbeef          	jal	x29,0xfffffffffffdf9f2
    440c:	deadbeef          	jal	x29,0xfffffffffffdf9f6
    4410:	deadbeef          	jal	x29,0xfffffffffffdf9fa
    4414:	deadbeef          	jal	x29,0xfffffffffffdf9fe
    4418:	deadbeef          	jal	x29,0xfffffffffffdfa02
    441c:	deadbeef          	jal	x29,0xfffffffffffdfa06
    4420:	deadbeef          	jal	x29,0xfffffffffffdfa0a
    4424:	deadbeef          	jal	x29,0xfffffffffffdfa0e
    4428:	deadbeef          	jal	x29,0xfffffffffffdfa12
    442c:	deadbeef          	jal	x29,0xfffffffffffdfa16
    4430:	deadbeef          	jal	x29,0xfffffffffffdfa1a
    4434:	deadbeef          	jal	x29,0xfffffffffffdfa1e
    4438:	deadbeef          	jal	x29,0xfffffffffffdfa22
    443c:	deadbeef          	jal	x29,0xfffffffffffdfa26
    4440:	deadbeef          	jal	x29,0xfffffffffffdfa2a
    4444:	deadbeef          	jal	x29,0xfffffffffffdfa2e
    4448:	deadbeef          	jal	x29,0xfffffffffffdfa32
    444c:	deadbeef          	jal	x29,0xfffffffffffdfa36
    4450:	deadbeef          	jal	x29,0xfffffffffffdfa3a
    4454:	deadbeef          	jal	x29,0xfffffffffffdfa3e
    4458:	deadbeef          	jal	x29,0xfffffffffffdfa42
    445c:	deadbeef          	jal	x29,0xfffffffffffdfa46
    4460:	deadbeef          	jal	x29,0xfffffffffffdfa4a
    4464:	deadbeef          	jal	x29,0xfffffffffffdfa4e
    4468:	deadbeef          	jal	x29,0xfffffffffffdfa52
    446c:	deadbeef          	jal	x29,0xfffffffffffdfa56
    4470:	deadbeef          	jal	x29,0xfffffffffffdfa5a
    4474:	deadbeef          	jal	x29,0xfffffffffffdfa5e
    4478:	deadbeef          	jal	x29,0xfffffffffffdfa62
    447c:	deadbeef          	jal	x29,0xfffffffffffdfa66
    4480:	deadbeef          	jal	x29,0xfffffffffffdfa6a
    4484:	deadbeef          	jal	x29,0xfffffffffffdfa6e
    4488:	deadbeef          	jal	x29,0xfffffffffffdfa72
    448c:	deadbeef          	jal	x29,0xfffffffffffdfa76
    4490:	deadbeef          	jal	x29,0xfffffffffffdfa7a
    4494:	deadbeef          	jal	x29,0xfffffffffffdfa7e
    4498:	deadbeef          	jal	x29,0xfffffffffffdfa82
    449c:	deadbeef          	jal	x29,0xfffffffffffdfa86
    44a0:	deadbeef          	jal	x29,0xfffffffffffdfa8a
    44a4:	deadbeef          	jal	x29,0xfffffffffffdfa8e
    44a8:	deadbeef          	jal	x29,0xfffffffffffdfa92
    44ac:	deadbeef          	jal	x29,0xfffffffffffdfa96
    44b0:	deadbeef          	jal	x29,0xfffffffffffdfa9a
    44b4:	deadbeef          	jal	x29,0xfffffffffffdfa9e
    44b8:	deadbeef          	jal	x29,0xfffffffffffdfaa2
    44bc:	deadbeef          	jal	x29,0xfffffffffffdfaa6
    44c0:	deadbeef          	jal	x29,0xfffffffffffdfaaa
    44c4:	deadbeef          	jal	x29,0xfffffffffffdfaae
    44c8:	deadbeef          	jal	x29,0xfffffffffffdfab2
    44cc:	deadbeef          	jal	x29,0xfffffffffffdfab6
    44d0:	b281                	c.j	0x3e10
    44d2:	e7d4                	c.sd	x13,136(x15)
    44d4:	a309                	c.j	0x49d6
    44d6:	6f5c                	c.ld	x15,152(x14)
	...
    44e0:	3a434347          	fmsub.d	f6,f6,f4,f7,rmm
    44e4:	2820                	c.fld	f8,80(x8)
    44e6:	6255                	c.lui	x4,0x15
    44e8:	6e75                	c.lui	x28,0x1d
    44ea:	7574                	c.ld	x13,232(x10)
    44ec:	3120                	c.fld	f8,96(x10)
    44ee:	2e31                	c.addiw	x28,12 # 0x1d00c
    44f0:	2e32                	c.fldsp	f28,264(x2)
    44f2:	2d30                	c.fld	f12,88(x10)
    44f4:	3631                	c.addiw	x12,-20
    44f6:	6275                	c.lui	x4,0x1d
    44f8:	6e75                	c.lui	x28,0x1d
    44fa:	7574                	c.ld	x13,232(x10)
    44fc:	2931                	c.addiw	x18,12
    44fe:	3120                	c.fld	f8,96(x10)
    4500:	2e31                	c.addiw	x28,12 # 0x1d00c
    4502:	2e32                	c.fldsp	f28,264(x2)
    4504:	0030                	c.addi4spn	x12,x2,8
    4506:	2d41                	c.addiw	x26,16
    4508:	0000                	c.unimp
    450a:	7200                	c.ld	x8,32(x12)
    450c:	7369                	c.lui	x6,0xffffa
    450e:	01007663          	bgeu	x0,x16,0x451a
    4512:	00000023          	sb	x0,0(x0) # 0x0
    4516:	7205                	c.lui	x4,0xfffe1
    4518:	3676                	c.fldsp	f12,376(x2)
    451a:	6934                	c.ld	x13,80(x10)
    451c:	7032                	.insn	2, 0x7032
    451e:	5f30                	c.lw	x12,120(x14)
    4520:	326d                	c.addiw	x4,-5 # 0xfffffffffffe0ffb
    4522:	3070                	c.fld	f12,224(x8)
    4524:	615f 7032 5f30      	.insn	6, 0x5f307032615f
    452a:	3266                	c.fldsp	f4,120(x2)
    452c:	3070                	c.fld	f12,224(x8)
    452e:	645f 7032 0030      	.insn	6, 0x00307032645f
	...
    4554:	00010003          	lb	x0,0(x2)
    4558:	0000                	c.unimp
    455a:	8000                	.insn	2, 0x8000
	...
    456c:	00020003          	lb	x0,0(x4) # 0x0
    4570:	1a30                	c.addi4spn	x12,x2,312
    4572:	8000                	.insn	2, 0x8000
	...
    4584:	00030003          	lb	x0,0(x6) # 0xffffffffffffa000
    4588:	2000                	c.fld	f8,0(x8)
    458a:	8000                	.insn	2, 0x8000
	...
    459c:	00040003          	lb	x0,0(x8)
	...
    45b4:	00050003          	lb	x0,0(x10)
	...
    45c8:	0001                	c.addi	x0,0
    45ca:	0000                	c.unimp
    45cc:	0004                	.insn	2, 0x0004
    45ce:	fff1                	c.bnez	x15,0x45aa
	...
    45e0:	0009                	c.addi	x0,2
    45e2:	0000                	c.unimp
    45e4:	0000                	c.unimp
    45e6:	0001                	c.addi	x0,0
    45e8:	0000                	c.unimp
    45ea:	8000                	.insn	2, 0x8000
	...
    45f8:	000c                	.insn	2, 0x000c
    45fa:	0000                	c.unimp
    45fc:	0004                	.insn	2, 0x0004
    45fe:	fff1                	c.bnez	x15,0x45da
	...
    4610:	0009                	c.addi	x0,2
    4612:	0000                	c.unimp
    4614:	0000                	c.unimp
    4616:	0001                	c.addi	x0,0
    4618:	0010                	.insn	2, 0x0010
    461a:	8000                	.insn	2, 0x8000
	...
    4628:	0009                	c.addi	x0,2
    462a:	0000                	c.unimp
    462c:	0000                	c.unimp
    462e:	0001                	c.addi	x0,0
    4630:	0024                	c.addi4spn	x9,x2,8
    4632:	8000                	.insn	2, 0x8000
	...
    4640:	00000013          	addi	x0,x0,0
    4644:	0004                	.insn	2, 0x0004
    4646:	fff1                	c.bnez	x15,0x4622
	...
    4658:	001d                	c.addi	x0,7
    465a:	0000                	c.unimp
    465c:	0000                	c.unimp
    465e:	fff1                	c.bnez	x15,0x463a
    4660:	00000003          	lb	x0,0(x0) # 0x0
	...
    4670:	00000027          	.insn	4, 0x0027
    4674:	0000                	c.unimp
    4676:	fff1                	c.bnez	x15,0x4652
    4678:	0001                	c.addi	x0,0
	...
    4686:	0000                	c.unimp
    4688:	0031                	c.addi	x0,12
    468a:	0000                	c.unimp
    468c:	0000                	c.unimp
    468e:	fff1                	c.bnez	x15,0x466a
    4690:	0002                	c.slli64	x0
	...
    469e:	0000                	c.unimp
    46a0:	0009                	c.addi	x0,2
    46a2:	0000                	c.unimp
    46a4:	0000                	c.unimp
    46a6:	0001                	c.addi	x0,0
    46a8:	0040                	c.addi4spn	x8,x2,4
    46aa:	8000                	.insn	2, 0x8000
	...
    46b8:	0000003b          	addw	x0,x0,x0
    46bc:	0000                	c.unimp
    46be:	fff1                	c.bnez	x15,0x469a
    46c0:	dad0                	c.sw	x12,52(x13)
    46c2:	bad0                	c.fsd	f12,176(x13)
	...
    46d0:	0040                	c.addi4spn	x8,x2,4
    46d2:	0000                	c.unimp
    46d4:	0000                	c.unimp
    46d6:	fff1                	c.bnez	x15,0x46b2
    46d8:	0004                	.insn	2, 0x0004
	...
    46e6:	0000                	c.unimp
    46e8:	0046                	c.slli	x0,0x11
    46ea:	0000                	c.unimp
    46ec:	0000                	c.unimp
    46ee:	fff1                	c.bnez	x15,0x46ca
    46f0:	0005                	c.addi	x0,1
	...
    46fe:	0000                	c.unimp
    4700:	004c                	c.addi4spn	x11,x2,4
    4702:	0000                	c.unimp
    4704:	0000                	c.unimp
    4706:	fff1                	c.bnez	x15,0x46e2
	...
    4718:	0051                	c.addi	x0,20
    471a:	0000                	c.unimp
    471c:	0000                	c.unimp
    471e:	fff1                	c.bnez	x15,0x46fa
	...
    4730:	0056                	c.slli	x0,0x15
    4732:	0000                	c.unimp
    4734:	0000                	c.unimp
    4736:	fff1                	c.bnez	x15,0x4712
    4738:	dad0                	c.sw	x12,52(x13)
    473a:	bad0                	c.fsd	f12,176(x13)
	...
    4748:	0000005b          	.insn	4, 0x005b
    474c:	0000                	c.unimp
    474e:	fff1                	c.bnez	x15,0x472a
    4750:	0040                	c.addi4spn	x8,x2,4
	...
    475e:	0000                	c.unimp
    4760:	005f 0000 0000      	.insn	6, 0x005f
    4766:	fff1                	c.bnez	x15,0x4742
    4768:	dad0                	c.sw	x12,52(x13)
    476a:	bad0                	c.fsd	f12,176(x13)
	...
    4778:	0066                	c.slli	x0,0x19
    477a:	0000                	c.unimp
    477c:	0000                	c.unimp
    477e:	fff1                	c.bnez	x15,0x475a
    4780:	0001                	c.addi	x0,0
	...
    478e:	0000                	c.unimp
    4790:	006a                	c.slli	x0,0x1a
    4792:	0000                	c.unimp
    4794:	0000                	c.unimp
    4796:	fff1                	c.bnez	x15,0x4772
    4798:	fad0                	c.sd	x12,176(x13)
    479a:	ffff                	.insn	2, 0xffff
    479c:	ffff                	.insn	2, 0xffff
    479e:	ffff                	.insn	2, 0xffff
	...
    47a8:	0070                	c.addi4spn	x12,x2,12
    47aa:	0000                	c.unimp
    47ac:	0000                	c.unimp
    47ae:	fff1                	c.bnez	x15,0x478a
    47b0:	0001                	c.addi	x0,0
	...
    47be:	0000                	c.unimp
    47c0:	0075                	c.addi	x0,29
    47c2:	0000                	c.unimp
    47c4:	0000                	c.unimp
    47c6:	fff1                	c.bnez	x15,0x47a2
	...
    47d8:	007a                	c.slli	x0,0x1e
    47da:	0000                	c.unimp
    47dc:	0000                	c.unimp
    47de:	fff1                	c.bnez	x15,0x47ba
    47e0:	0dad                	c.addi	x27,11
    47e2:	0bad                	c.addi	x23,11
	...
    47f0:	0081                	c.addi	x1,0
    47f2:	0000                	c.unimp
    47f4:	0000                	c.unimp
    47f6:	fff1                	c.bnez	x15,0x47d2
    47f8:	fdad                	c.bnez	x11,0x4772
    47fa:	ffff                	.insn	2, 0xffff
    47fc:	ffff                	.insn	2, 0xffff
    47fe:	ffff                	.insn	2, 0xffff
	...
    4808:	0089                	c.addi	x1,2
    480a:	0000                	c.unimp
    480c:	0000                	c.unimp
    480e:	fff1                	c.bnez	x15,0x47ea
    4810:	0001                	c.addi	x0,0
	...
    481e:	0000                	c.unimp
    4820:	0000008f          	.insn	4, 0x008f
    4824:	0000                	c.unimp
    4826:	fff1                	c.bnez	x15,0x4802
    4828:	0dad                	c.addi	x27,11
    482a:	0bad                	c.addi	x23,11
	...
    4838:	0098                	c.addi4spn	x14,x2,64
    483a:	0000                	c.unimp
    483c:	0000                	c.unimp
    483e:	30080003          	lb	x0,768(x16)
    4842:	8000                	.insn	2, 0x8000
	...
    4850:	06d2                	c.slli	x13,0x14
    4852:	0000                	c.unimp
    4854:	0000                	c.unimp
    4856:	fff1                	c.bnez	x15,0x4832
    4858:	0448                	c.addi4spn	x10,x2,516
	...
    4866:	0000                	c.unimp
    4868:	000000a7          	.insn	4, 0x00a7
    486c:	0000                	c.unimp
    486e:	0001                	c.addi	x0,0
    4870:	0440                	c.addi4spn	x8,x2,516
    4872:	8000                	.insn	2, 0x8000
	...
    4880:	00ae                	c.slli	x1,0xb
    4882:	0000                	c.unimp
    4884:	0000                	c.unimp
    4886:	0001                	c.addi	x0,0
    4888:	046c                	c.addi4spn	x11,x2,524
    488a:	8000                	.insn	2, 0x8000
	...
    4898:	00b5                	c.addi	x1,13
    489a:	0000                	c.unimp
    489c:	0000                	c.unimp
    489e:	0001                	c.addi	x0,0
    48a0:	048c                	c.addi4spn	x11,x2,576
    48a2:	8000                	.insn	2, 0x8000
	...
    48b0:	00bc                	c.addi4spn	x15,x2,72
    48b2:	0000                	c.unimp
    48b4:	0000                	c.unimp
    48b6:	0001                	c.addi	x0,0
    48b8:	04a8                	c.addi4spn	x10,x2,584
    48ba:	8000                	.insn	2, 0x8000
	...
    48c8:	000000c3          	fmadd.s	f1,f0,f0,f0,rne
    48cc:	0000                	c.unimp
    48ce:	0001                	c.addi	x0,0
    48d0:	04c8                	c.addi4spn	x10,x2,580
    48d2:	8000                	.insn	2, 0x8000
	...
    48e0:	00ca                	c.slli	x1,0x12
    48e2:	0000                	c.unimp
    48e4:	0000                	c.unimp
    48e6:	0001                	c.addi	x0,0
    48e8:	04e4                	c.addi4spn	x9,x2,588
    48ea:	8000                	.insn	2, 0x8000
	...
    48f8:	00d1                	c.addi	x1,20
    48fa:	0000                	c.unimp
    48fc:	0000                	c.unimp
    48fe:	0001                	c.addi	x0,0
    4900:	0504                	c.addi4spn	x9,x2,640
    4902:	8000                	.insn	2, 0x8000
	...
    4910:	00d8                	c.addi4spn	x14,x2,68
    4912:	0000                	c.unimp
    4914:	0000                	c.unimp
    4916:	0001                	c.addi	x0,0
    4918:	0520                	c.addi4spn	x8,x2,648
    491a:	8000                	.insn	2, 0x8000
	...
    4928:	00df 0000 0000      	.insn	6, 0x00df
    492e:	0001                	c.addi	x0,0
    4930:	0540                	c.addi4spn	x8,x2,644
    4932:	8000                	.insn	2, 0x8000
	...
    4940:	00e6                	c.slli	x1,0x19
    4942:	0000                	c.unimp
    4944:	0000                	c.unimp
    4946:	0001                	c.addi	x0,0
    4948:	055c                	c.addi4spn	x15,x2,644
    494a:	8000                	.insn	2, 0x8000
	...
    4958:	00ed                	c.addi	x1,27
    495a:	0000                	c.unimp
    495c:	0000                	c.unimp
    495e:	0001                	c.addi	x0,0
    4960:	0578                	c.addi4spn	x14,x2,652
    4962:	8000                	.insn	2, 0x8000
	...
    4970:	00f5                	c.addi	x1,29
    4972:	0000                	c.unimp
    4974:	0000                	c.unimp
    4976:	0001                	c.addi	x0,0
    4978:	0594                	c.addi4spn	x13,x2,704
    497a:	8000                	.insn	2, 0x8000
	...
    4988:	00fd                	c.addi	x1,31
    498a:	0000                	c.unimp
    498c:	0000                	c.unimp
    498e:	0001                	c.addi	x0,0
    4990:	05b0                	c.addi4spn	x12,x2,712
    4992:	8000                	.insn	2, 0x8000
	...
    49a0:	0105                	c.addi	x2,1
    49a2:	0000                	c.unimp
    49a4:	0000                	c.unimp
    49a6:	0001                	c.addi	x0,0
    49a8:	05cc                	c.addi4spn	x11,x2,708
    49aa:	8000                	.insn	2, 0x8000
	...
    49b8:	010d                	c.addi	x2,3
    49ba:	0000                	c.unimp
    49bc:	0000                	c.unimp
    49be:	0001                	c.addi	x0,0
    49c0:	05e8                	c.addi4spn	x10,x2,716
    49c2:	8000                	.insn	2, 0x8000
	...
    49d0:	0115                	c.addi	x2,5
    49d2:	0000                	c.unimp
    49d4:	0000                	c.unimp
    49d6:	0001                	c.addi	x0,0
    49d8:	0604                	c.addi4spn	x9,x2,768
    49da:	8000                	.insn	2, 0x8000
	...
    49e8:	011d                	c.addi	x2,7
    49ea:	0000                	c.unimp
    49ec:	0000                	c.unimp
    49ee:	30880003          	lb	x0,776(x16)
    49f2:	8000                	.insn	2, 0x8000
	...
    4a00:	012c                	c.addi4spn	x11,x2,136
    4a02:	0000                	c.unimp
    4a04:	0000                	c.unimp
    4a06:	0001                	c.addi	x0,0
    4a08:	0640                	c.addi4spn	x8,x2,772
    4a0a:	8000                	.insn	2, 0x8000
	...
    4a18:	0134                	c.addi4spn	x13,x2,136
    4a1a:	0000                	c.unimp
    4a1c:	0000                	c.unimp
    4a1e:	0001                	c.addi	x0,0
    4a20:	065c                	c.addi4spn	x15,x2,772
    4a22:	8000                	.insn	2, 0x8000
	...
    4a30:	013c                	c.addi4spn	x15,x2,136
    4a32:	0000                	c.unimp
    4a34:	0000                	c.unimp
    4a36:	0001                	c.addi	x0,0
    4a38:	0678                	c.addi4spn	x14,x2,780
    4a3a:	8000                	.insn	2, 0x8000
	...
    4a48:	0144                	c.addi4spn	x9,x2,132
    4a4a:	0000                	c.unimp
    4a4c:	0000                	c.unimp
    4a4e:	0001                	c.addi	x0,0
    4a50:	0694                	c.addi4spn	x13,x2,832
    4a52:	8000                	.insn	2, 0x8000
	...
    4a60:	014c                	c.addi4spn	x11,x2,132
    4a62:	0000                	c.unimp
    4a64:	0000                	c.unimp
    4a66:	0001                	c.addi	x0,0
    4a68:	06b4                	c.addi4spn	x13,x2,840
    4a6a:	8000                	.insn	2, 0x8000
	...
    4a78:	0154                	c.addi4spn	x13,x2,132
    4a7a:	0000                	c.unimp
    4a7c:	0000                	c.unimp
    4a7e:	0001                	c.addi	x0,0
    4a80:	06d4                	c.addi4spn	x13,x2,836
    4a82:	8000                	.insn	2, 0x8000
	...
    4a90:	015c                	c.addi4spn	x15,x2,132
    4a92:	0000                	c.unimp
    4a94:	0000                	c.unimp
    4a96:	0001                	c.addi	x0,0
    4a98:	06f4                	c.addi4spn	x13,x2,844
    4a9a:	8000                	.insn	2, 0x8000
	...
    4aa8:	0164                	c.addi4spn	x9,x2,140
    4aaa:	0000                	c.unimp
    4aac:	0000                	c.unimp
    4aae:	0001                	c.addi	x0,0
    4ab0:	0714                	c.addi4spn	x13,x2,896
    4ab2:	8000                	.insn	2, 0x8000
	...
    4ac0:	016c                	c.addi4spn	x11,x2,140
    4ac2:	0000                	c.unimp
    4ac4:	0000                	c.unimp
    4ac6:	0001                	c.addi	x0,0
    4ac8:	0734                	c.addi4spn	x13,x2,904
    4aca:	8000                	.insn	2, 0x8000
	...
    4ad8:	0174                	c.addi4spn	x13,x2,140
    4ada:	0000                	c.unimp
    4adc:	0000                	c.unimp
    4ade:	0001                	c.addi	x0,0
    4ae0:	0754                	c.addi4spn	x13,x2,900
    4ae2:	8000                	.insn	2, 0x8000
	...
    4af0:	017c                	c.addi4spn	x15,x2,140
    4af2:	0000                	c.unimp
    4af4:	0000                	c.unimp
    4af6:	0001                	c.addi	x0,0
    4af8:	0774                	c.addi4spn	x13,x2,908
    4afa:	8000                	.insn	2, 0x8000
	...
    4b08:	0184                	c.addi4spn	x9,x2,192
    4b0a:	0000                	c.unimp
    4b0c:	0000                	c.unimp
    4b0e:	0001                	c.addi	x0,0
    4b10:	0794                	c.addi4spn	x13,x2,960
    4b12:	8000                	.insn	2, 0x8000
	...
    4b20:	018c                	c.addi4spn	x11,x2,192
    4b22:	0000                	c.unimp
    4b24:	0000                	c.unimp
    4b26:	0001                	c.addi	x0,0
    4b28:	07b4                	c.addi4spn	x13,x2,968
    4b2a:	8000                	.insn	2, 0x8000
	...
    4b38:	0194                	c.addi4spn	x13,x2,192
    4b3a:	0000                	c.unimp
    4b3c:	0000                	c.unimp
    4b3e:	0001                	c.addi	x0,0
    4b40:	07d4                	c.addi4spn	x13,x2,964
    4b42:	8000                	.insn	2, 0x8000
	...
    4b50:	019c                	c.addi4spn	x15,x2,192
    4b52:	0000                	c.unimp
    4b54:	0000                	c.unimp
    4b56:	0001                	c.addi	x0,0
    4b58:	07f4                	c.addi4spn	x13,x2,972
    4b5a:	8000                	.insn	2, 0x8000
	...
    4b68:	01a4                	c.addi4spn	x9,x2,200
    4b6a:	0000                	c.unimp
    4b6c:	0000                	c.unimp
    4b6e:	0001                	c.addi	x0,0
    4b70:	0810                	c.addi4spn	x12,x2,16
    4b72:	8000                	.insn	2, 0x8000
	...
    4b80:	01ac                	c.addi4spn	x11,x2,200
    4b82:	0000                	c.unimp
    4b84:	0000                	c.unimp
    4b86:	0001                	c.addi	x0,0
    4b88:	0830                	c.addi4spn	x12,x2,24
    4b8a:	8000                	.insn	2, 0x8000
	...
    4b98:	01b4                	c.addi4spn	x13,x2,200
    4b9a:	0000                	c.unimp
    4b9c:	0000                	c.unimp
    4b9e:	0001                	c.addi	x0,0
    4ba0:	0850                	c.addi4spn	x12,x2,20
    4ba2:	8000                	.insn	2, 0x8000
	...
    4bb0:	01bc                	c.addi4spn	x15,x2,200
    4bb2:	0000                	c.unimp
    4bb4:	0000                	c.unimp
    4bb6:	0001                	c.addi	x0,0
    4bb8:	0870                	c.addi4spn	x12,x2,28
    4bba:	8000                	.insn	2, 0x8000
	...
    4bc8:	01c4                	c.addi4spn	x9,x2,196
    4bca:	0000                	c.unimp
    4bcc:	0000                	c.unimp
    4bce:	0001                	c.addi	x0,0
    4bd0:	0890                	c.addi4spn	x12,x2,80
    4bd2:	8000                	.insn	2, 0x8000
	...
    4be0:	01cc                	c.addi4spn	x11,x2,196
    4be2:	0000                	c.unimp
    4be4:	0000                	c.unimp
    4be6:	0001                	c.addi	x0,0
    4be8:	08b0                	c.addi4spn	x12,x2,88
    4bea:	8000                	.insn	2, 0x8000
	...
    4bf8:	01d4                	c.addi4spn	x13,x2,196
    4bfa:	0000                	c.unimp
    4bfc:	0000                	c.unimp
    4bfe:	0001                	c.addi	x0,0
    4c00:	08d0                	c.addi4spn	x12,x2,84
    4c02:	8000                	.insn	2, 0x8000
	...
    4c10:	01dc                	c.addi4spn	x15,x2,196
    4c12:	0000                	c.unimp
    4c14:	0000                	c.unimp
    4c16:	0001                	c.addi	x0,0
    4c18:	08f0                	c.addi4spn	x12,x2,92
    4c1a:	8000                	.insn	2, 0x8000
	...
    4c28:	01e4                	c.addi4spn	x9,x2,204
    4c2a:	0000                	c.unimp
    4c2c:	0000                	c.unimp
    4c2e:	0001                	c.addi	x0,0
    4c30:	0910                	c.addi4spn	x12,x2,144
    4c32:	8000                	.insn	2, 0x8000
	...
    4c40:	01ec                	c.addi4spn	x11,x2,204
    4c42:	0000                	c.unimp
    4c44:	0000                	c.unimp
    4c46:	0001                	c.addi	x0,0
    4c48:	0930                	c.addi4spn	x12,x2,152
    4c4a:	8000                	.insn	2, 0x8000
	...
    4c58:	01f4                	c.addi4spn	x13,x2,204
    4c5a:	0000                	c.unimp
    4c5c:	0000                	c.unimp
    4c5e:	0001                	c.addi	x0,0
    4c60:	0950                	c.addi4spn	x12,x2,148
    4c62:	8000                	.insn	2, 0x8000
	...
    4c70:	01fc                	c.addi4spn	x15,x2,204
    4c72:	0000                	c.unimp
    4c74:	0000                	c.unimp
    4c76:	0001                	c.addi	x0,0
    4c78:	0970                	c.addi4spn	x12,x2,156
    4c7a:	8000                	.insn	2, 0x8000
	...
    4c88:	0204                	c.addi4spn	x9,x2,256
    4c8a:	0000                	c.unimp
    4c8c:	0000                	c.unimp
    4c8e:	0001                	c.addi	x0,0
    4c90:	0990                	c.addi4spn	x12,x2,208
    4c92:	8000                	.insn	2, 0x8000
	...
    4ca0:	020c                	c.addi4spn	x11,x2,256
    4ca2:	0000                	c.unimp
    4ca4:	0000                	c.unimp
    4ca6:	0001                	c.addi	x0,0
    4ca8:	09b0                	c.addi4spn	x12,x2,216
    4caa:	8000                	.insn	2, 0x8000
	...
    4cb8:	0214                	c.addi4spn	x13,x2,256
    4cba:	0000                	c.unimp
    4cbc:	0000                	c.unimp
    4cbe:	0001                	c.addi	x0,0
    4cc0:	09d0                	c.addi4spn	x12,x2,212
    4cc2:	8000                	.insn	2, 0x8000
	...
    4cd0:	021c                	c.addi4spn	x15,x2,256
    4cd2:	0000                	c.unimp
    4cd4:	0000                	c.unimp
    4cd6:	0001                	c.addi	x0,0
    4cd8:	09f0                	c.addi4spn	x12,x2,220
    4cda:	8000                	.insn	2, 0x8000
	...
    4ce8:	0224                	c.addi4spn	x9,x2,264
    4cea:	0000                	c.unimp
    4cec:	0000                	c.unimp
    4cee:	0001                	c.addi	x0,0
    4cf0:	0a10                	c.addi4spn	x12,x2,272
    4cf2:	8000                	.insn	2, 0x8000
	...
    4d00:	022c                	c.addi4spn	x11,x2,264
    4d02:	0000                	c.unimp
    4d04:	0000                	c.unimp
    4d06:	0001                	c.addi	x0,0
    4d08:	0a30                	c.addi4spn	x12,x2,280
    4d0a:	8000                	.insn	2, 0x8000
	...
    4d18:	0234                	c.addi4spn	x13,x2,264
    4d1a:	0000                	c.unimp
    4d1c:	0000                	c.unimp
    4d1e:	0001                	c.addi	x0,0
    4d20:	0a50                	c.addi4spn	x12,x2,276
    4d22:	8000                	.insn	2, 0x8000
	...
    4d30:	023c                	c.addi4spn	x15,x2,264
    4d32:	0000                	c.unimp
    4d34:	0000                	c.unimp
    4d36:	0001                	c.addi	x0,0
    4d38:	0a70                	c.addi4spn	x12,x2,284
    4d3a:	8000                	.insn	2, 0x8000
	...
    4d48:	0244                	c.addi4spn	x9,x2,260
    4d4a:	0000                	c.unimp
    4d4c:	0000                	c.unimp
    4d4e:	0001                	c.addi	x0,0
    4d50:	0a90                	c.addi4spn	x12,x2,336
    4d52:	8000                	.insn	2, 0x8000
	...
    4d60:	024c                	c.addi4spn	x11,x2,260
    4d62:	0000                	c.unimp
    4d64:	0000                	c.unimp
    4d66:	0001                	c.addi	x0,0
    4d68:	0ab0                	c.addi4spn	x12,x2,344
    4d6a:	8000                	.insn	2, 0x8000
	...
    4d78:	0254                	c.addi4spn	x13,x2,260
    4d7a:	0000                	c.unimp
    4d7c:	0000                	c.unimp
    4d7e:	0001                	c.addi	x0,0
    4d80:	0ad0                	c.addi4spn	x12,x2,340
    4d82:	8000                	.insn	2, 0x8000
	...
    4d90:	025c                	c.addi4spn	x15,x2,260
    4d92:	0000                	c.unimp
    4d94:	0000                	c.unimp
    4d96:	0001                	c.addi	x0,0
    4d98:	0af0                	c.addi4spn	x12,x2,348
    4d9a:	8000                	.insn	2, 0x8000
	...
    4da8:	0264                	c.addi4spn	x9,x2,268
    4daa:	0000                	c.unimp
    4dac:	0000                	c.unimp
    4dae:	0001                	c.addi	x0,0
    4db0:	0b10                	c.addi4spn	x12,x2,400
    4db2:	8000                	.insn	2, 0x8000
	...
    4dc0:	026c                	c.addi4spn	x11,x2,268
    4dc2:	0000                	c.unimp
    4dc4:	0000                	c.unimp
    4dc6:	0001                	c.addi	x0,0
    4dc8:	0b30                	c.addi4spn	x12,x2,408
    4dca:	8000                	.insn	2, 0x8000
	...
    4dd8:	0274                	c.addi4spn	x13,x2,268
    4dda:	0000                	c.unimp
    4ddc:	0000                	c.unimp
    4dde:	0001                	c.addi	x0,0
    4de0:	0b50                	c.addi4spn	x12,x2,404
    4de2:	8000                	.insn	2, 0x8000
	...
    4df0:	027c                	c.addi4spn	x15,x2,268
    4df2:	0000                	c.unimp
    4df4:	0000                	c.unimp
    4df6:	0001                	c.addi	x0,0
    4df8:	0b70                	c.addi4spn	x12,x2,412
    4dfa:	8000                	.insn	2, 0x8000
	...
    4e08:	0284                	c.addi4spn	x9,x2,320
    4e0a:	0000                	c.unimp
    4e0c:	0000                	c.unimp
    4e0e:	0001                	c.addi	x0,0
    4e10:	0b90                	c.addi4spn	x12,x2,464
    4e12:	8000                	.insn	2, 0x8000
	...
    4e20:	028c                	c.addi4spn	x11,x2,320
    4e22:	0000                	c.unimp
    4e24:	0000                	c.unimp
    4e26:	0001                	c.addi	x0,0
    4e28:	0bb0                	c.addi4spn	x12,x2,472
    4e2a:	8000                	.insn	2, 0x8000
	...
    4e38:	0294                	c.addi4spn	x13,x2,320
    4e3a:	0000                	c.unimp
    4e3c:	0000                	c.unimp
    4e3e:	0001                	c.addi	x0,0
    4e40:	0bd0                	c.addi4spn	x12,x2,468
    4e42:	8000                	.insn	2, 0x8000
	...
    4e50:	029c                	c.addi4spn	x15,x2,320
    4e52:	0000                	c.unimp
    4e54:	0000                	c.unimp
    4e56:	0001                	c.addi	x0,0
    4e58:	0bf0                	c.addi4spn	x12,x2,476
    4e5a:	8000                	.insn	2, 0x8000
	...
    4e68:	02a4                	c.addi4spn	x9,x2,328
    4e6a:	0000                	c.unimp
    4e6c:	0000                	c.unimp
    4e6e:	0001                	c.addi	x0,0
    4e70:	0c10                	c.addi4spn	x12,x2,528
    4e72:	8000                	.insn	2, 0x8000
	...
    4e80:	02ac                	c.addi4spn	x11,x2,328
    4e82:	0000                	c.unimp
    4e84:	0000                	c.unimp
    4e86:	0001                	c.addi	x0,0
    4e88:	0c30                	c.addi4spn	x12,x2,536
    4e8a:	8000                	.insn	2, 0x8000
	...
    4e98:	02b4                	c.addi4spn	x13,x2,328
    4e9a:	0000                	c.unimp
    4e9c:	0000                	c.unimp
    4e9e:	0001                	c.addi	x0,0
    4ea0:	0c50                	c.addi4spn	x12,x2,532
    4ea2:	8000                	.insn	2, 0x8000
	...
    4eb0:	02bc                	c.addi4spn	x15,x2,328
    4eb2:	0000                	c.unimp
    4eb4:	0000                	c.unimp
    4eb6:	0001                	c.addi	x0,0
    4eb8:	0c70                	c.addi4spn	x12,x2,540
    4eba:	8000                	.insn	2, 0x8000
	...
    4ec8:	02c4                	c.addi4spn	x9,x2,324
    4eca:	0000                	c.unimp
    4ecc:	0000                	c.unimp
    4ece:	0001                	c.addi	x0,0
    4ed0:	0c90                	c.addi4spn	x12,x2,592
    4ed2:	8000                	.insn	2, 0x8000
	...
    4ee0:	02cc                	c.addi4spn	x11,x2,324
    4ee2:	0000                	c.unimp
    4ee4:	0000                	c.unimp
    4ee6:	0001                	c.addi	x0,0
    4ee8:	0cb0                	c.addi4spn	x12,x2,600
    4eea:	8000                	.insn	2, 0x8000
	...
    4ef8:	02d4                	c.addi4spn	x13,x2,324
    4efa:	0000                	c.unimp
    4efc:	0000                	c.unimp
    4efe:	0001                	c.addi	x0,0
    4f00:	0cd0                	c.addi4spn	x12,x2,596
    4f02:	8000                	.insn	2, 0x8000
	...
    4f10:	02dc                	c.addi4spn	x15,x2,324
    4f12:	0000                	c.unimp
    4f14:	0000                	c.unimp
    4f16:	0001                	c.addi	x0,0
    4f18:	0cec                	c.addi4spn	x11,x2,604
    4f1a:	8000                	.insn	2, 0x8000
	...
    4f28:	02e4                	c.addi4spn	x9,x2,332
    4f2a:	0000                	c.unimp
    4f2c:	0000                	c.unimp
    4f2e:	0001                	c.addi	x0,0
    4f30:	0d08                	c.addi4spn	x10,x2,656
    4f32:	8000                	.insn	2, 0x8000
	...
    4f40:	02ec                	c.addi4spn	x11,x2,332
    4f42:	0000                	c.unimp
    4f44:	0000                	c.unimp
    4f46:	0001                	c.addi	x0,0
    4f48:	0d24                	c.addi4spn	x9,x2,664
    4f4a:	8000                	.insn	2, 0x8000
	...
    4f58:	02f4                	c.addi4spn	x13,x2,332
    4f5a:	0000                	c.unimp
    4f5c:	0000                	c.unimp
    4f5e:	0001                	c.addi	x0,0
    4f60:	0d40                	c.addi4spn	x8,x2,660
    4f62:	8000                	.insn	2, 0x8000
	...
    4f70:	02fc                	c.addi4spn	x15,x2,332
    4f72:	0000                	c.unimp
    4f74:	0000                	c.unimp
    4f76:	0001                	c.addi	x0,0
    4f78:	0d5c                	c.addi4spn	x15,x2,660
    4f7a:	8000                	.insn	2, 0x8000
	...
    4f88:	0304                	c.addi4spn	x9,x2,384
    4f8a:	0000                	c.unimp
    4f8c:	0000                	c.unimp
    4f8e:	0001                	c.addi	x0,0
    4f90:	0d7c                	c.addi4spn	x15,x2,668
    4f92:	8000                	.insn	2, 0x8000
	...
    4fa0:	030c                	c.addi4spn	x11,x2,384
    4fa2:	0000                	c.unimp
    4fa4:	0000                	c.unimp
    4fa6:	0001                	c.addi	x0,0
    4fa8:	0d9c                	c.addi4spn	x15,x2,720
    4faa:	8000                	.insn	2, 0x8000
	...
    4fb8:	0314                	c.addi4spn	x13,x2,384
    4fba:	0000                	c.unimp
    4fbc:	0000                	c.unimp
    4fbe:	0001                	c.addi	x0,0
    4fc0:	0db8                	c.addi4spn	x14,x2,728
    4fc2:	8000                	.insn	2, 0x8000
	...
    4fd0:	031c                	c.addi4spn	x15,x2,384
    4fd2:	0000                	c.unimp
    4fd4:	0000                	c.unimp
    4fd6:	0001                	c.addi	x0,0
    4fd8:	0dd8                	c.addi4spn	x14,x2,724
    4fda:	8000                	.insn	2, 0x8000
	...
    4fe8:	0324                	c.addi4spn	x9,x2,392
    4fea:	0000                	c.unimp
    4fec:	0000                	c.unimp
    4fee:	0001                	c.addi	x0,0
    4ff0:	0df8                	c.addi4spn	x14,x2,732
    4ff2:	8000                	.insn	2, 0x8000
	...
    5000:	032c                	c.addi4spn	x11,x2,392
    5002:	0000                	c.unimp
    5004:	0000                	c.unimp
    5006:	0001                	c.addi	x0,0
    5008:	0e18                	c.addi4spn	x14,x2,784
    500a:	8000                	.insn	2, 0x8000
	...
    5018:	0334                	c.addi4spn	x13,x2,392
    501a:	0000                	c.unimp
    501c:	0000                	c.unimp
    501e:	0001                	c.addi	x0,0
    5020:	0e3c                	c.addi4spn	x15,x2,792
    5022:	8000                	.insn	2, 0x8000
	...
    5030:	033c                	c.addi4spn	x15,x2,392
    5032:	0000                	c.unimp
    5034:	0000                	c.unimp
    5036:	0001                	c.addi	x0,0
    5038:	0e64                	c.addi4spn	x9,x2,796
    503a:	8000                	.insn	2, 0x8000
	...
    5048:	0344                	c.addi4spn	x9,x2,388
    504a:	0000                	c.unimp
    504c:	0000                	c.unimp
    504e:	0001                	c.addi	x0,0
    5050:	0e8c                	c.addi4spn	x11,x2,848
    5052:	8000                	.insn	2, 0x8000
	...
    5060:	034c                	c.addi4spn	x11,x2,388
    5062:	0000                	c.unimp
    5064:	0000                	c.unimp
    5066:	0001                	c.addi	x0,0
    5068:	0eb4                	c.addi4spn	x13,x2,856
    506a:	8000                	.insn	2, 0x8000
	...
    5078:	0354                	c.addi4spn	x13,x2,388
    507a:	0000                	c.unimp
    507c:	0000                	c.unimp
    507e:	0001                	c.addi	x0,0
    5080:	0ed8                	c.addi4spn	x14,x2,852
    5082:	8000                	.insn	2, 0x8000
	...
    5090:	035c                	c.addi4spn	x15,x2,388
    5092:	0000                	c.unimp
    5094:	0000                	c.unimp
    5096:	0001                	c.addi	x0,0
    5098:	0efc                	c.addi4spn	x15,x2,860
    509a:	8000                	.insn	2, 0x8000
	...
    50a8:	0364                	c.addi4spn	x9,x2,396
    50aa:	0000                	c.unimp
    50ac:	0000                	c.unimp
    50ae:	0001                	c.addi	x0,0
    50b0:	0f20                	c.addi4spn	x8,x2,920
    50b2:	8000                	.insn	2, 0x8000
	...
    50c0:	036c                	c.addi4spn	x11,x2,396
    50c2:	0000                	c.unimp
    50c4:	0000                	c.unimp
    50c6:	0001                	c.addi	x0,0
    50c8:	0f48                	c.addi4spn	x10,x2,916
    50ca:	8000                	.insn	2, 0x8000
	...
    50d8:	0374                	c.addi4spn	x13,x2,396
    50da:	0000                	c.unimp
    50dc:	0000                	c.unimp
    50de:	0001                	c.addi	x0,0
    50e0:	0f6c                	c.addi4spn	x11,x2,924
    50e2:	8000                	.insn	2, 0x8000
	...
    50f0:	037c                	c.addi4spn	x15,x2,396
    50f2:	0000                	c.unimp
    50f4:	0000                	c.unimp
    50f6:	0001                	c.addi	x0,0
    50f8:	0f90                	c.addi4spn	x12,x2,976
    50fa:	8000                	.insn	2, 0x8000
	...
    5108:	0384                	c.addi4spn	x9,x2,448
    510a:	0000                	c.unimp
    510c:	0000                	c.unimp
    510e:	0001                	c.addi	x0,0
    5110:	0fb4                	c.addi4spn	x13,x2,984
    5112:	8000                	.insn	2, 0x8000
	...
    5120:	038c                	c.addi4spn	x11,x2,448
    5122:	0000                	c.unimp
    5124:	0000                	c.unimp
    5126:	0001                	c.addi	x0,0
    5128:	0fd8                	c.addi4spn	x14,x2,980
    512a:	8000                	.insn	2, 0x8000
	...
    5138:	0394                	c.addi4spn	x13,x2,448
    513a:	0000                	c.unimp
    513c:	0000                	c.unimp
    513e:	0001                	c.addi	x0,0
    5140:	0ffc                	c.addi4spn	x15,x2,988
    5142:	8000                	.insn	2, 0x8000
	...
    5150:	039c                	c.addi4spn	x15,x2,448
    5152:	0000                	c.unimp
    5154:	0000                	c.unimp
    5156:	0001                	c.addi	x0,0
    5158:	1020                	c.addi4spn	x8,x2,40
    515a:	8000                	.insn	2, 0x8000
	...
    5168:	03a4                	c.addi4spn	x9,x2,456
    516a:	0000                	c.unimp
    516c:	0000                	c.unimp
    516e:	0001                	c.addi	x0,0
    5170:	1044                	c.addi4spn	x9,x2,36
    5172:	8000                	.insn	2, 0x8000
	...
    5180:	03ac                	c.addi4spn	x11,x2,456
    5182:	0000                	c.unimp
    5184:	0000                	c.unimp
    5186:	0001                	c.addi	x0,0
    5188:	1068                	c.addi4spn	x10,x2,44
    518a:	8000                	.insn	2, 0x8000
	...
    5198:	03b4                	c.addi4spn	x13,x2,456
    519a:	0000                	c.unimp
    519c:	0000                	c.unimp
    519e:	0001                	c.addi	x0,0
    51a0:	10a4                	c.addi4spn	x9,x2,104
    51a2:	8000                	.insn	2, 0x8000
	...
    51b0:	03bc                	c.addi4spn	x15,x2,456
    51b2:	0000                	c.unimp
    51b4:	0000                	c.unimp
    51b6:	0001                	c.addi	x0,0
    51b8:	10dc                	c.addi4spn	x15,x2,100
    51ba:	8000                	.insn	2, 0x8000
	...
    51c8:	03c4                	c.addi4spn	x9,x2,452
    51ca:	0000                	c.unimp
    51cc:	0000                	c.unimp
    51ce:	0001                	c.addi	x0,0
    51d0:	10f8                	c.addi4spn	x14,x2,108
    51d2:	8000                	.insn	2, 0x8000
	...
    51e0:	03cc                	c.addi4spn	x11,x2,452
    51e2:	0000                	c.unimp
    51e4:	0000                	c.unimp
    51e6:	0001                	c.addi	x0,0
    51e8:	1130                	c.addi4spn	x12,x2,168
    51ea:	8000                	.insn	2, 0x8000
	...
    51f8:	03d5                	c.addi	x7,21 # 0x10000015
    51fa:	0000                	c.unimp
    51fc:	0000                	c.unimp
    51fe:	0001                	c.addi	x0,0
    5200:	1168                	c.addi4spn	x10,x2,172
    5202:	8000                	.insn	2, 0x8000
	...
    5210:	03de                	c.slli	x7,0x17
    5212:	0000                	c.unimp
    5214:	0000                	c.unimp
    5216:	0001                	c.addi	x0,0
    5218:	11a0                	c.addi4spn	x8,x2,232
    521a:	8000                	.insn	2, 0x8000
	...
    5228:	000003e7          	jalr	x7,0(x0) # 0x0
    522c:	0000                	c.unimp
    522e:	0001                	c.addi	x0,0
    5230:	11dc                	c.addi4spn	x15,x2,228
    5232:	8000                	.insn	2, 0x8000
	...
    5240:	03f0                	c.addi4spn	x12,x2,460
    5242:	0000                	c.unimp
    5244:	0000                	c.unimp
    5246:	0001                	c.addi	x0,0
    5248:	1218                	c.addi4spn	x14,x2,288
    524a:	8000                	.insn	2, 0x8000
	...
    5258:	03f9                	c.addi	x7,30
    525a:	0000                	c.unimp
    525c:	0000                	c.unimp
    525e:	0001                	c.addi	x0,0
    5260:	1250                	c.addi4spn	x12,x2,292
    5262:	8000                	.insn	2, 0x8000
	...
    5270:	0402                	c.slli64	x8
    5272:	0000                	c.unimp
    5274:	0000                	c.unimp
    5276:	0001                	c.addi	x0,0
    5278:	128c                	c.addi4spn	x11,x2,352
    527a:	8000                	.insn	2, 0x8000
	...
    5288:	0000040b          	.insn	4, 0x040b
    528c:	0000                	c.unimp
    528e:	0001                	c.addi	x0,0
    5290:	12c4                	c.addi4spn	x9,x2,356
    5292:	8000                	.insn	2, 0x8000
	...
    52a0:	0414                	c.addi4spn	x13,x2,512
    52a2:	0000                	c.unimp
    52a4:	0000                	c.unimp
    52a6:	0001                	c.addi	x0,0
    52a8:	1300                	c.addi4spn	x8,x2,416
    52aa:	8000                	.insn	2, 0x8000
	...
    52b8:	041d                	c.addi	x8,7
    52ba:	0000                	c.unimp
    52bc:	0000                	c.unimp
    52be:	0001                	c.addi	x0,0
    52c0:	1338                	c.addi4spn	x14,x2,424
    52c2:	8000                	.insn	2, 0x8000
	...
    52d0:	0426                	c.slli	x8,0x9
    52d2:	0000                	c.unimp
    52d4:	0000                	c.unimp
    52d6:	0001                	c.addi	x0,0
    52d8:	1354                	c.addi4spn	x13,x2,420
    52da:	8000                	.insn	2, 0x8000
	...
    52e8:	0000042f          	.insn	4, 0x042f
    52ec:	0000                	c.unimp
    52ee:	0001                	c.addi	x0,0
    52f0:	138c                	c.addi4spn	x11,x2,480
    52f2:	8000                	.insn	2, 0x8000
	...
    5300:	0438                	c.addi4spn	x14,x2,520
    5302:	0000                	c.unimp
    5304:	0000                	c.unimp
    5306:	0001                	c.addi	x0,0
    5308:	13c4                	c.addi4spn	x9,x2,484
    530a:	8000                	.insn	2, 0x8000
	...
    5318:	0441                	c.addi	x8,16
    531a:	0000                	c.unimp
    531c:	0000                	c.unimp
    531e:	0001                	c.addi	x0,0
    5320:	1400                	c.addi4spn	x8,x2,544
    5322:	8000                	.insn	2, 0x8000
	...
    5330:	044a                	c.slli	x8,0x12
    5332:	0000                	c.unimp
    5334:	0000                	c.unimp
    5336:	0001                	c.addi	x0,0
    5338:	1438                	c.addi4spn	x14,x2,552
    533a:	8000                	.insn	2, 0x8000
	...
    5348:	00000453          	fadd.s	f8,f0,f0,rne
    534c:	0000                	c.unimp
    534e:	0001                	c.addi	x0,0
    5350:	145c                	c.addi4spn	x15,x2,548
    5352:	8000                	.insn	2, 0x8000
	...
    5360:	045c                	c.addi4spn	x15,x2,516
    5362:	0000                	c.unimp
    5364:	0000                	c.unimp
    5366:	0001                	c.addi	x0,0
    5368:	1480                	c.addi4spn	x8,x2,608
    536a:	8000                	.insn	2, 0x8000
	...
    5378:	0465                	c.addi	x8,25
    537a:	0000                	c.unimp
    537c:	0000                	c.unimp
    537e:	0001                	c.addi	x0,0
    5380:	14a4                	c.addi4spn	x9,x2,616
    5382:	8000                	.insn	2, 0x8000
	...
    5390:	046e                	c.slli	x8,0x1b
    5392:	0000                	c.unimp
    5394:	0000                	c.unimp
    5396:	0001                	c.addi	x0,0
    5398:	14c8                	c.addi4spn	x10,x2,612
    539a:	8000                	.insn	2, 0x8000
	...
    53a8:	00000477          	.insn	4, 0x0477
    53ac:	0000                	c.unimp
    53ae:	0001                	c.addi	x0,0
    53b0:	14f0                	c.addi4spn	x12,x2,620
    53b2:	8000                	.insn	2, 0x8000
	...
    53c0:	0480                	c.addi4spn	x8,x2,576
    53c2:	0000                	c.unimp
    53c4:	0000                	c.unimp
    53c6:	0001                	c.addi	x0,0
    53c8:	1518                	c.addi4spn	x14,x2,672
    53ca:	8000                	.insn	2, 0x8000
	...
    53d8:	0489                	c.addi	x9,2
    53da:	0000                	c.unimp
    53dc:	0000                	c.unimp
    53de:	0001                	c.addi	x0,0
    53e0:	153c                	c.addi4spn	x15,x2,680
    53e2:	8000                	.insn	2, 0x8000
	...
    53f0:	0492                	c.slli	x9,0x4
    53f2:	0000                	c.unimp
    53f4:	0000                	c.unimp
    53f6:	0001                	c.addi	x0,0
    53f8:	1560                	c.addi4spn	x8,x2,684
    53fa:	8000                	.insn	2, 0x8000
	...
    5408:	0000049b          	addiw	x9,x0,0
    540c:	0000                	c.unimp
    540e:	0001                	c.addi	x0,0
    5410:	1588                	c.addi4spn	x10,x2,736
    5412:	8000                	.insn	2, 0x8000
	...
    5420:	04a4                	c.addi4spn	x9,x2,584
    5422:	0000                	c.unimp
    5424:	0000                	c.unimp
    5426:	0001                	c.addi	x0,0
    5428:	15ac                	c.addi4spn	x11,x2,744
    542a:	8000                	.insn	2, 0x8000
	...
    5438:	04ad                	c.addi	x9,11
    543a:	0000                	c.unimp
    543c:	0000                	c.unimp
    543e:	0001                	c.addi	x0,0
    5440:	15d0                	c.addi4spn	x12,x2,740
    5442:	8000                	.insn	2, 0x8000
	...
    5450:	04b6                	c.slli	x9,0xd
    5452:	0000                	c.unimp
    5454:	0000                	c.unimp
    5456:	0001                	c.addi	x0,0
    5458:	15f4                	c.addi4spn	x13,x2,748
    545a:	8000                	.insn	2, 0x8000
	...
    5468:	000004bf 00010000 	.insn	8, 0x00010000000004bf
    5470:	1618                	c.addi4spn	x14,x2,800
    5472:	8000                	.insn	2, 0x8000
	...
    5480:	04c8                	c.addi4spn	x10,x2,580
    5482:	0000                	c.unimp
    5484:	0000                	c.unimp
    5486:	0001                	c.addi	x0,0
    5488:	163c                	c.addi4spn	x15,x2,808
    548a:	8000                	.insn	2, 0x8000
	...
    5498:	04d1                	c.addi	x9,20
    549a:	0000                	c.unimp
    549c:	0000                	c.unimp
    549e:	0001                	c.addi	x0,0
    54a0:	1660                	c.addi4spn	x8,x2,812
    54a2:	8000                	.insn	2, 0x8000
	...
    54b0:	04da                	c.slli	x9,0x16
    54b2:	0000                	c.unimp
    54b4:	0000                	c.unimp
    54b6:	0001                	c.addi	x0,0
    54b8:	1684                	c.addi4spn	x9,x2,864
    54ba:	8000                	.insn	2, 0x8000
	...
    54c8:	000004e3          	beq	x0,x0,0x5cd0
    54cc:	0000                	c.unimp
    54ce:	0001                	c.addi	x0,0
    54d0:	16a8                	c.addi4spn	x10,x2,872
    54d2:	8000                	.insn	2, 0x8000
	...
    54e0:	04ec                	c.addi4spn	x11,x2,588
    54e2:	0000                	c.unimp
    54e4:	0000                	c.unimp
    54e6:	0001                	c.addi	x0,0
    54e8:	16cc                	c.addi4spn	x11,x2,868
    54ea:	8000                	.insn	2, 0x8000
	...
    54f8:	04f5                	c.addi	x9,29
    54fa:	0000                	c.unimp
    54fc:	0000                	c.unimp
    54fe:	0001                	c.addi	x0,0
    5500:	16f0                	c.addi4spn	x12,x2,876
    5502:	8000                	.insn	2, 0x8000
	...
    5510:	04fe                	c.slli	x9,0x1f
    5512:	0000                	c.unimp
    5514:	0000                	c.unimp
    5516:	0001                	c.addi	x0,0
    5518:	1714                	c.addi4spn	x13,x2,928
    551a:	8000                	.insn	2, 0x8000
	...
    5528:	00000507          	.insn	4, 0x0507
    552c:	0000                	c.unimp
    552e:	0001                	c.addi	x0,0
    5530:	1738                	c.addi4spn	x14,x2,936
    5532:	8000                	.insn	2, 0x8000
	...
    5540:	0510                	c.addi4spn	x12,x2,640
    5542:	0000                	c.unimp
    5544:	0000                	c.unimp
    5546:	0001                	c.addi	x0,0
    5548:	175c                	c.addi4spn	x15,x2,932
    554a:	8000                	.insn	2, 0x8000
	...
    5558:	0519                	c.addi	x10,6
    555a:	0000                	c.unimp
    555c:	0000                	c.unimp
    555e:	0001                	c.addi	x0,0
    5560:	1780                	c.addi4spn	x8,x2,992
    5562:	8000                	.insn	2, 0x8000
	...
    5570:	0522                	c.slli	x10,0x8
    5572:	0000                	c.unimp
    5574:	0000                	c.unimp
    5576:	0001                	c.addi	x0,0
    5578:	17a4                	c.addi4spn	x9,x2,1000
    557a:	8000                	.insn	2, 0x8000
	...
    5588:	0000052b          	.insn	4, 0x052b
    558c:	0000                	c.unimp
    558e:	0001                	c.addi	x0,0
    5590:	17c8                	c.addi4spn	x10,x2,996
    5592:	8000                	.insn	2, 0x8000
	...
    55a0:	0534                	c.addi4spn	x13,x2,648
    55a2:	0000                	c.unimp
    55a4:	0000                	c.unimp
    55a6:	0001                	c.addi	x0,0
    55a8:	17ec                	c.addi4spn	x11,x2,1004
    55aa:	8000                	.insn	2, 0x8000
	...
    55b8:	053d                	c.addi	x10,15
    55ba:	0000                	c.unimp
    55bc:	0000                	c.unimp
    55be:	0001                	c.addi	x0,0
    55c0:	1810                	c.addi4spn	x12,x2,48
    55c2:	8000                	.insn	2, 0x8000
	...
    55d0:	0546                	c.slli	x10,0x11
    55d2:	0000                	c.unimp
    55d4:	0000                	c.unimp
    55d6:	0001                	c.addi	x0,0
    55d8:	1834                	c.addi4spn	x13,x2,56
    55da:	8000                	.insn	2, 0x8000
	...
    55e8:	0000054f          	fnmadd.s	f10,f0,f0,f0,rne
    55ec:	0000                	c.unimp
    55ee:	0001                	c.addi	x0,0
    55f0:	1858                	c.addi4spn	x14,x2,52
    55f2:	8000                	.insn	2, 0x8000
	...
    5600:	0558                	c.addi4spn	x14,x2,644
    5602:	0000                	c.unimp
    5604:	0000                	c.unimp
    5606:	0001                	c.addi	x0,0
    5608:	187c                	c.addi4spn	x15,x2,60
    560a:	8000                	.insn	2, 0x8000
	...
    5618:	0561                	c.addi	x10,24
    561a:	0000                	c.unimp
    561c:	0000                	c.unimp
    561e:	0001                	c.addi	x0,0
    5620:	18a0                	c.addi4spn	x8,x2,120
    5622:	8000                	.insn	2, 0x8000
	...
    5630:	056a                	c.slli	x10,0x1a
    5632:	0000                	c.unimp
    5634:	0000                	c.unimp
    5636:	0001                	c.addi	x0,0
    5638:	18c4                	c.addi4spn	x9,x2,116
    563a:	8000                	.insn	2, 0x8000
	...
    5648:	00000573          	.insn	4, 0x0573
    564c:	0000                	c.unimp
    564e:	0001                	c.addi	x0,0
    5650:	18e8                	c.addi4spn	x10,x2,124
    5652:	8000                	.insn	2, 0x8000
	...
    5660:	057c                	c.addi4spn	x15,x2,652
    5662:	0000                	c.unimp
    5664:	0000                	c.unimp
    5666:	0001                	c.addi	x0,0
    5668:	190c                	c.addi4spn	x11,x2,176
    566a:	8000                	.insn	2, 0x8000
	...
    5678:	0585                	c.addi	x11,1
    567a:	0000                	c.unimp
    567c:	0000                	c.unimp
    567e:	0001                	c.addi	x0,0
    5680:	1930                	c.addi4spn	x12,x2,184
    5682:	8000                	.insn	2, 0x8000
	...
    5690:	058e                	c.slli	x11,0x3
    5692:	0000                	c.unimp
    5694:	0000                	c.unimp
    5696:	0001                	c.addi	x0,0
    5698:	1954                	c.addi4spn	x13,x2,180
    569a:	8000                	.insn	2, 0x8000
	...
    56a8:	00000597          	auipc	x11,0x0
    56ac:	0000                	c.unimp
    56ae:	0001                	c.addi	x0,0
    56b0:	1974                	c.addi4spn	x13,x2,188
    56b2:	8000                	.insn	2, 0x8000
	...
    56c0:	05a0                	c.addi4spn	x8,x2,712
    56c2:	0000                	c.unimp
    56c4:	0000                	c.unimp
    56c6:	0001                	c.addi	x0,0
    56c8:	1990                	c.addi4spn	x12,x2,240
    56ca:	8000                	.insn	2, 0x8000
	...
    56d8:	05a9                	c.addi	x11,10 # 0x56b2
    56da:	0000                	c.unimp
    56dc:	0000                	c.unimp
    56de:	0001                	c.addi	x0,0
    56e0:	19e8                	c.addi4spn	x10,x2,252
    56e2:	8000                	.insn	2, 0x8000
	...
    56f0:	05b6                	c.slli	x11,0xd
    56f2:	0000                	c.unimp
    56f4:	0000                	c.unimp
    56f6:	0001                	c.addi	x0,0
    56f8:	19b4                	c.addi4spn	x13,x2,248
    56fa:	8000                	.insn	2, 0x8000
	...
    5708:	05c2                	c.slli	x11,0x10
    570a:	0000                	c.unimp
    570c:	0000                	c.unimp
    570e:	20000003          	lb	x0,512(x0) # 0x200
    5712:	8000                	.insn	2, 0x8000
	...
    5720:	05ce                	c.slli	x11,0x13
    5722:	0000                	c.unimp
    5724:	0000                	c.unimp
    5726:	20100003          	lb	x0,513(x0) # 0x201
    572a:	8000                	.insn	2, 0x8000
	...
    5738:	000005db          	.insn	4, 0x05db
    573c:	0000                	c.unimp
    573e:	30000003          	lb	x0,768(x0) # 0x300
    5742:	8000                	.insn	2, 0x8000
	...
    5750:	05ec                	c.addi4spn	x11,x2,716
    5752:	0000                	c.unimp
    5754:	0000                	c.unimp
    5756:	30000003          	lb	x0,768(x0) # 0x300
    575a:	8000                	.insn	2, 0x8000
	...
    5768:	05fd                	c.addi	x11,31
    576a:	0000                	c.unimp
    576c:	0000                	c.unimp
    576e:	30080003          	lb	x0,768(x16)
    5772:	8000                	.insn	2, 0x8000
	...
    5780:	060c                	c.addi4spn	x11,x2,768
    5782:	0000                	c.unimp
    5784:	0000                	c.unimp
    5786:	34d00003          	lb	x0,845(x0) # 0x34d
    578a:	8000                	.insn	2, 0x8000
	...
    5798:	0000061b          	addiw	x12,x0,0
    579c:	0000                	c.unimp
    579e:	34d80003          	lb	x0,845(x16)
    57a2:	8000                	.insn	2, 0x8000
	...
    57b0:	062a                	c.slli	x12,0xa
    57b2:	0000                	c.unimp
    57b4:	0004                	.insn	2, 0x0004
    57b6:	fff1                	c.bnez	x15,0x5792
	...
    57c8:	0009                	c.addi	x0,2
    57ca:	0000                	c.unimp
    57cc:	0000                	c.unimp
    57ce:	0001                	c.addi	x0,0
    57d0:	1a00                	c.addi4spn	x8,x2,304
    57d2:	8000                	.insn	2, 0x8000
	...
    57e0:	0009                	c.addi	x0,2
    57e2:	0000                	c.unimp
    57e4:	0000                	c.unimp
    57e6:	0001                	c.addi	x0,0
    57e8:	1a0c                	c.addi4spn	x11,x2,304
    57ea:	8000                	.insn	2, 0x8000
	...
    57f8:	0630                	c.addi4spn	x12,x2,776
    57fa:	0000                	c.unimp
    57fc:	0001                	c.addi	x0,0
    57fe:	0002                	c.slli64	x0
    5800:	1a30                	c.addi4spn	x12,x2,312
    5802:	8000                	.insn	2, 0x8000
    5804:	0000                	c.unimp
    5806:	0000                	c.unimp
    5808:	0001                	c.addi	x0,0
    580a:	0000                	c.unimp
    580c:	0000                	c.unimp
    580e:	0000                	c.unimp
    5810:	0639                	c.addi	x12,14
    5812:	0000                	c.unimp
    5814:	0212                	c.slli	x4,0x4
    5816:	0001                	c.addi	x0,0
    5818:	0024                	c.addi4spn	x9,x2,8
    581a:	8000                	.insn	2, 0x8000
    581c:	0000                	c.unimp
    581e:	0000                	c.unimp
    5820:	000c                	.insn	2, 0x000c
    5822:	0000                	c.unimp
    5824:	0000                	c.unimp
    5826:	0000                	c.unimp
    5828:	0646                	c.slli	x12,0x11
    582a:	0000                	c.unimp
    582c:	0212                	c.slli	x4,0x4
    582e:	0001                	c.addi	x0,0
    5830:	1a0c                	c.addi4spn	x11,x2,304
    5832:	8000                	.insn	2, 0x8000
    5834:	0000                	c.unimp
    5836:	0000                	c.unimp
    5838:	0020                	c.addi4spn	x8,x2,8
    583a:	0000                	c.unimp
    583c:	0000                	c.unimp
    583e:	0000                	c.unimp
    5840:	0650                	c.addi4spn	x12,x2,772
    5842:	0000                	c.unimp
    5844:	0010                	.insn	2, 0x0010
    5846:	c0000003          	lb	x0,-1024(x0) # 0xfffffffffffffc00
    584a:	8000                	.insn	2, 0x8000
	...
    5858:	065f 0000 0010      	.insn	6, 0x00100000065f
    585e:	34e00003          	lb	x0,846(x0) # 0x34e
    5862:	8000                	.insn	2, 0x8000
	...
    5870:	066d                	c.addi	x12,27
    5872:	0000                	c.unimp
    5874:	0010                	.insn	2, 0x0010
    5876:	0001                	c.addi	x0,0
    5878:	1a2c                	c.addi4spn	x11,x2,312
    587a:	8000                	.insn	2, 0x8000
	...
    5888:	0674                	c.addi4spn	x13,x2,780
    588a:	0000                	c.unimp
    588c:	0010                	.insn	2, 0x0010
    588e:	fff1                	c.bnez	x15,0x586a
    5890:	0000                	c.unimp
    5892:	8000                	.insn	2, 0x8000
	...
    58a0:	0680                	c.addi4spn	x8,x2,832
    58a2:	0000                	c.unimp
    58a4:	0010                	.insn	2, 0x0010
    58a6:	34e00003          	lb	x0,846(x0) # 0x34e
    58aa:	8000                	.insn	2, 0x8000
	...
    58b8:	0000068b          	.insn	4, 0x068b
    58bc:	0010                	.insn	2, 0x0010
    58be:	34e00003          	lb	x0,846(x0) # 0x34e
    58c2:	8000                	.insn	2, 0x8000
	...
    58d0:	0691                	c.addi	x13,4 # 0x1000004
    58d2:	0000                	c.unimp
    58d4:	0010                	.insn	2, 0x0010
    58d6:	c0000003          	lb	x0,-1024(x0) # 0xfffffffffffffc00
    58da:	8000                	.insn	2, 0x8000
	...
    58e8:	069d                	c.addi	x13,7
    58ea:	0000                	c.unimp
    58ec:	0010                	.insn	2, 0x0010
    58ee:	40000003          	lb	x0,1024(x0) # 0x400
    58f2:	8000                	.insn	2, 0x8000
	...
    5900:	06a8                	c.addi4spn	x10,x2,840
    5902:	0000                	c.unimp
    5904:	0010                	.insn	2, 0x0010
    5906:	0001                	c.addi	x0,0
    5908:	0040                	c.addi4spn	x8,x2,4
    590a:	8000                	.insn	2, 0x8000
	...
    5918:	072a                	c.slli	x14,0xa
    591a:	0000                	c.unimp
    591c:	0010                	.insn	2, 0x0010
    591e:	c0000003          	lb	x0,-1024(x0) # 0xfffffffffffffc00
    5922:	8000                	.insn	2, 0x8000
	...
    5930:	066e                	c.slli	x12,0x1b
    5932:	0000                	c.unimp
    5934:	0010                	.insn	2, 0x0010
    5936:	0001                	c.addi	x0,0
    5938:	1a2c                	c.addi4spn	x11,x2,312
    593a:	8000                	.insn	2, 0x8000
	...
    5948:	000006bb          	addw	x13,x0,x0
    594c:	0010                	.insn	2, 0x0010
    594e:	30000003          	lb	x0,768(x0) # 0x300
    5952:	8000                	.insn	2, 0x8000
	...
    5960:	0679                	c.addi	x12,30
    5962:	0000                	c.unimp
    5964:	0012                	c.slli	x0,0x4
    5966:	0001                	c.addi	x0,0
    5968:	0000                	c.unimp
    596a:	8000                	.insn	2, 0x8000
	...
    5978:	000006cb          	fnmsub.s	f13,f0,f0,f0,rne
    597c:	0010                	.insn	2, 0x0010
    597e:	fff1                	c.bnez	x15,0x595a
	...
    5990:	06d9                	c.addi	x13,22
    5992:	0000                	c.unimp
    5994:	0010                	.insn	2, 0x0010
    5996:	0001                	c.addi	x0,0
    5998:	0040                	c.addi4spn	x8,x2,4
    599a:	8000                	.insn	2, 0x8000
	...
    59a8:	06e5                	c.addi	x13,25
    59aa:	0000                	c.unimp
    59ac:	0010                	.insn	2, 0x0010
    59ae:	0001                	c.addi	x0,0
    59b0:	19b0                	c.addi4spn	x12,x2,248
    59b2:	8000                	.insn	2, 0x8000
	...
    59c0:	06f5                	c.addi	x13,29
    59c2:	0000                	c.unimp
    59c4:	0010                	.insn	2, 0x0010
    59c6:	0001                	c.addi	x0,0
    59c8:	0420                	c.addi4spn	x8,x2,520
    59ca:	8000                	.insn	2, 0x8000
	...
    59d8:	00000707          	.insn	4, 0x0707
    59dc:	0212                	c.slli	x4,0x4
    59de:	0001                	c.addi	x0,0
    59e0:	0010                	.insn	2, 0x0010
    59e2:	8000                	.insn	2, 0x8000
    59e4:	0000                	c.unimp
    59e6:	0000                	c.unimp
    59e8:	0014                	.insn	2, 0x0014
    59ea:	0000                	c.unimp
    59ec:	0000                	c.unimp
    59ee:	0000                	c.unimp
    59f0:	070c                	c.addi4spn	x11,x2,896
    59f2:	0000                	c.unimp
    59f4:	0010                	.insn	2, 0x0010
    59f6:	20000003          	lb	x0,512(x0) # 0x200
    59fa:	8000                	.insn	2, 0x8000
	...
    5a08:	071e                	c.slli	x14,0x7
    5a0a:	0000                	c.unimp
    5a0c:	0010                	.insn	2, 0x0010
    5a0e:	30000003          	lb	x0,768(x0) # 0x300
    5a12:	8000                	.insn	2, 0x8000
	...
    5a20:	05c8                	c.addi4spn	x10,x2,708
    5a22:	0000                	c.unimp
    5a24:	0010                	.insn	2, 0x0010
    5a26:	34e00003          	lb	x0,846(x0) # 0x34e
    5a2a:	8000                	.insn	2, 0x8000
	...
    5a38:	072e                	c.slli	x14,0xb
    5a3a:	0000                	c.unimp
    5a3c:	0010                	.insn	2, 0x0010
    5a3e:	0001                	c.addi	x0,0
    5a40:	19b0                	c.addi4spn	x12,x2,248
    5a42:	8000                	.insn	2, 0x8000
	...
    5a50:	0729                	c.addi	x14,10
    5a52:	0000                	c.unimp
    5a54:	0010                	.insn	2, 0x0010
    5a56:	c0000003          	lb	x0,-1024(x0) # 0xfffffffffffffc00
    5a5a:	8000                	.insn	2, 0x8000
	...
    5a68:	073e                	c.slli	x14,0xf
    5a6a:	0000                	c.unimp
    5a6c:	0212                	c.slli	x4,0x4
    5a6e:	0001                	c.addi	x0,0
    5a70:	1a00                	c.addi4spn	x8,x2,304
    5a72:	8000                	.insn	2, 0x8000
    5a74:	0000                	c.unimp
    5a76:	0000                	c.unimp
    5a78:	000c                	.insn	2, 0x000c
    5a7a:	0000                	c.unimp
    5a7c:	0000                	c.unimp
    5a7e:	0000                	c.unimp
    5a80:	7300                	c.ld	x8,32(x14)
    5a82:	6174                	c.ld	x13,192(x10)
    5a84:	7472                	c.ldsp	x8,312(x2)
    5a86:	6f2e                	c.ldsp	x30,200(x2)
    5a88:	2400                	c.fld	f8,8(x8)
    5a8a:	0078                	c.addi4spn	x14,x2,12
    5a8c:	616d                	c.addi16sp	x2,240
    5a8e:	6e69                	c.lui	x28,0x1a
    5a90:	632e                	c.ldsp	x6,200(x2)
    5a92:	7300                	c.ld	x8,32(x14)
    5a94:	6c6c                	c.ld	x11,216(x8)
    5a96:	31302d77          	.insn	4, 0x31302d77
    5a9a:	6f2e                	c.ldsp	x30,200(x2)
    5a9c:	4d00                	c.lw	x8,24(x10)
    5a9e:	4f4d                	c.li	x30,19
    5aa0:	4544                	c.lw	x9,12(x10)
    5aa2:	535f 4749 5300      	.insn	6, 0x53004749535f
    5aa8:	4f4d                	c.li	x30,19
    5aaa:	4544                	c.lw	x9,12(x10)
    5aac:	535f 4749 5600      	.insn	6, 0x56004749535f
    5ab2:	4f4d                	c.li	x30,19
    5ab4:	4544                	c.lw	x9,12(x10)
    5ab6:	535f 4749 6900      	.insn	6, 0x69004749535f
    5abc:	6d6d                	c.lui	x26,0x1b
    5abe:	0078                	c.addi4spn	x14,x2,12
    5ac0:	6465                	c.lui	x8,0x19
    5ac2:	00316567          	.insn	4, 0x00316567
    5ac6:	6465                	c.lui	x8,0x19
    5ac8:	00326567          	.insn	4, 0x00326567
    5acc:	6e66                	c.ldsp	x28,88(x2)
    5ace:	3164                	c.fld	f9,224(x10)
    5ad0:	6600                	c.ld	x8,8(x12)
    5ad2:	646e                	c.ldsp	x8,216(x2)
    5ad4:	0032                	c.slli	x0,0xc
    5ad6:	6d69                	c.lui	x26,0x1a
    5ad8:	656d                	c.lui	x10,0x1b
    5ada:	7000                	c.ld	x8,32(x8)
    5adc:	6100736f          	jal	x6,0xd0ec
    5ae0:	7362                	c.ldsp	x6,56(x2)
    5ae2:	6d69                	c.lui	x26,0x1a
    5ae4:	006d                	c.addi	x0,27
    5ae6:	00797263          	bgeu	x18,x7,0x5aea
    5aea:	6d69                	c.lui	x26,0x1a
    5aec:	316d                	c.addiw	x2,-5
    5aee:	0032                	c.slli	x0,0xc
    5af0:	7665                	c.lui	x12,0xffff9
    5af2:	6e65                	c.lui	x28,0x19
    5af4:	6300                	c.ld	x8,0(x14)
    5af6:	7972                	c.ldsp	x18,312(x2)
    5af8:	0068                	c.addi4spn	x10,x2,12
    5afa:	6d69                	c.lui	x26,0x1a
    5afc:	786d                	c.lui	x16,0xffffb
    5afe:	69006873          	csrrsi	x16,0x690,0
    5b02:	6d6d                	c.lui	x26,0x1b
    5b04:	3231                	c.addiw	x4,-20 # 0xffffffffffffffec
    5b06:	63006873          	csrrsi	x16,0x630,0
    5b0a:	7972                	c.ldsp	x18,312(x2)
    5b0c:	61006873          	csrrsi	x16,0x610,0
    5b10:	7362                	c.ldsp	x6,56(x2)
    5b12:	6d69                	c.lui	x26,0x1a
    5b14:	736d                	c.lui	x6,0xffffb
    5b16:	0068                	c.addi4spn	x10,x2,12
    5b18:	6e676973          	csrrsi	x18,0x6e6,14
    5b1c:	7461                	c.lui	x8,0xffff8
    5b1e:	7275                	c.lui	x4,0xffffd
    5b20:	5f65                	c.li	x30,-7
    5b22:	3478                	c.fld	f14,232(x8)
    5b24:	315f 6900 736e      	.insn	6, 0x736e6900315f
    5b2a:	5f74                	c.lw	x13,124(x14)
    5b2c:	0030                	c.addi4spn	x12,x2,8
    5b2e:	6e69                	c.lui	x28,0x1a
    5b30:	315f7473          	csrrci	x8,0x315,30
    5b34:	6900                	c.ld	x8,16(x10)
    5b36:	736e                	c.ldsp	x6,248(x2)
    5b38:	5f74                	c.lw	x13,124(x14)
    5b3a:	0032                	c.slli	x0,0xc
    5b3c:	6e69                	c.lui	x28,0x1a
    5b3e:	335f7473          	csrrci	x8,mhpmevent21,30
    5b42:	6900                	c.ld	x8,16(x10)
    5b44:	736e                	c.ldsp	x6,248(x2)
    5b46:	5f74                	c.lw	x13,124(x14)
    5b48:	0034                	c.addi4spn	x13,x2,8
    5b4a:	6e69                	c.lui	x28,0x1a
    5b4c:	355f7473          	csrrci	x8,0x355,30
    5b50:	6900                	c.ld	x8,16(x10)
    5b52:	736e                	c.ldsp	x6,248(x2)
    5b54:	5f74                	c.lw	x13,124(x14)
    5b56:	0036                	c.slli	x0,0xd
    5b58:	6e69                	c.lui	x28,0x1a
    5b5a:	375f7473          	csrrci	x8,0x375,30
    5b5e:	6900                	c.ld	x8,16(x10)
    5b60:	736e                	c.ldsp	x6,248(x2)
    5b62:	5f74                	c.lw	x13,124(x14)
    5b64:	0038                	c.addi4spn	x14,x2,8
    5b66:	6e69                	c.lui	x28,0x1a
    5b68:	395f7473          	csrrci	x8,0x395,30
    5b6c:	6900                	c.ld	x8,16(x10)
    5b6e:	736e                	c.ldsp	x6,248(x2)
    5b70:	5f74                	c.lw	x13,124(x14)
    5b72:	3031                	.insn	2, 0x3031
    5b74:	6900                	c.ld	x8,16(x10)
    5b76:	736e                	c.ldsp	x6,248(x2)
    5b78:	5f74                	c.lw	x13,124(x14)
    5b7a:	3131                	c.addiw	x2,-20
    5b7c:	6900                	c.ld	x8,16(x10)
    5b7e:	736e                	c.ldsp	x6,248(x2)
    5b80:	5f74                	c.lw	x13,124(x14)
    5b82:	3231                	c.addiw	x4,-20 # 0xffffffffffffcfec
    5b84:	6900                	c.ld	x8,16(x10)
    5b86:	736e                	c.ldsp	x6,248(x2)
    5b88:	5f74                	c.lw	x13,124(x14)
    5b8a:	3331                	c.addiw	x6,-20 # 0xffffffffffffafec
    5b8c:	6900                	c.ld	x8,16(x10)
    5b8e:	736e                	c.ldsp	x6,248(x2)
    5b90:	5f74                	c.lw	x13,124(x14)
    5b92:	3431                	c.addiw	x8,-20 # 0xffffffffffff7fec
    5b94:	6900                	c.ld	x8,16(x10)
    5b96:	736e                	c.ldsp	x6,248(x2)
    5b98:	5f74                	c.lw	x13,124(x14)
    5b9a:	3531                	c.addiw	x10,-20 # 0x1afec
    5b9c:	7300                	c.ld	x8,32(x14)
    5b9e:	6769                	c.lui	x14,0x1a
    5ba0:	616e                	c.ldsp	x2,216(x2)
    5ba2:	7574                	c.ld	x13,232(x10)
    5ba4:	6572                	c.ldsp	x10,280(x2)
    5ba6:	785f 5f35 0030      	.insn	6, 0x00305f35785f
    5bac:	6e69                	c.lui	x28,0x1a
    5bae:	315f7473          	csrrci	x8,0x315,30
    5bb2:	0036                	c.slli	x0,0xd
    5bb4:	6e69                	c.lui	x28,0x1a
    5bb6:	315f7473          	csrrci	x8,0x315,30
    5bba:	6e690037          	lui	x0,0x6e690
    5bbe:	315f7473          	csrrci	x8,0x315,30
    5bc2:	0038                	c.addi4spn	x14,x2,8
    5bc4:	6e69                	c.lui	x28,0x1a
    5bc6:	315f7473          	csrrci	x8,0x315,30
    5bca:	0039                	c.addi	x0,14
    5bcc:	6e69                	c.lui	x28,0x1a
    5bce:	325f7473          	csrrci	x8,mhpmevent5,30
    5bd2:	0030                	c.addi4spn	x12,x2,8
    5bd4:	6e69                	c.lui	x28,0x1a
    5bd6:	325f7473          	csrrci	x8,mhpmevent5,30
    5bda:	0031                	c.addi	x0,12
    5bdc:	6e69                	c.lui	x28,0x1a
    5bde:	325f7473          	csrrci	x8,mhpmevent5,30
    5be2:	0032                	c.slli	x0,0xc
    5be4:	6e69                	c.lui	x28,0x1a
    5be6:	325f7473          	csrrci	x8,mhpmevent5,30
    5bea:	6e690033          	.insn	4, 0x6e690033
    5bee:	325f7473          	csrrci	x8,mhpmevent5,30
    5bf2:	0034                	c.addi4spn	x13,x2,8
    5bf4:	6e69                	c.lui	x28,0x1a
    5bf6:	325f7473          	csrrci	x8,mhpmevent5,30
    5bfa:	0035                	c.addi	x0,13
    5bfc:	6e69                	c.lui	x28,0x1a
    5bfe:	325f7473          	csrrci	x8,mhpmevent5,30
    5c02:	0036                	c.slli	x0,0xd
    5c04:	6e69                	c.lui	x28,0x1a
    5c06:	325f7473          	csrrci	x8,mhpmevent5,30
    5c0a:	6e690037          	lui	x0,0x6e690
    5c0e:	325f7473          	csrrci	x8,mhpmevent5,30
    5c12:	0038                	c.addi4spn	x14,x2,8
    5c14:	6e69                	c.lui	x28,0x1a
    5c16:	325f7473          	csrrci	x8,mhpmevent5,30
    5c1a:	0039                	c.addi	x0,14
    5c1c:	6e69                	c.lui	x28,0x1a
    5c1e:	335f7473          	csrrci	x8,mhpmevent21,30
    5c22:	0030                	c.addi4spn	x12,x2,8
    5c24:	6e69                	c.lui	x28,0x1a
    5c26:	335f7473          	csrrci	x8,mhpmevent21,30
    5c2a:	0031                	c.addi	x0,12
    5c2c:	6e69                	c.lui	x28,0x1a
    5c2e:	335f7473          	csrrci	x8,mhpmevent21,30
    5c32:	0032                	c.slli	x0,0xc
    5c34:	6e69                	c.lui	x28,0x1a
    5c36:	335f7473          	csrrci	x8,mhpmevent21,30
    5c3a:	6e690033          	.insn	4, 0x6e690033
    5c3e:	335f7473          	csrrci	x8,mhpmevent21,30
    5c42:	0034                	c.addi4spn	x13,x2,8
    5c44:	6e69                	c.lui	x28,0x1a
    5c46:	335f7473          	csrrci	x8,mhpmevent21,30
    5c4a:	0035                	c.addi	x0,13
    5c4c:	6e69                	c.lui	x28,0x1a
    5c4e:	335f7473          	csrrci	x8,mhpmevent21,30
    5c52:	0036                	c.slli	x0,0xd
    5c54:	6e69                	c.lui	x28,0x1a
    5c56:	335f7473          	csrrci	x8,mhpmevent21,30
    5c5a:	6e690037          	lui	x0,0x6e690
    5c5e:	335f7473          	csrrci	x8,mhpmevent21,30
    5c62:	0038                	c.addi4spn	x14,x2,8
    5c64:	6e69                	c.lui	x28,0x1a
    5c66:	335f7473          	csrrci	x8,mhpmevent21,30
    5c6a:	0039                	c.addi	x0,14
    5c6c:	6e69                	c.lui	x28,0x1a
    5c6e:	345f7473          	csrrci	x8,0x345,30
    5c72:	0030                	c.addi4spn	x12,x2,8
    5c74:	6e69                	c.lui	x28,0x1a
    5c76:	345f7473          	csrrci	x8,0x345,30
    5c7a:	0031                	c.addi	x0,12
    5c7c:	6e69                	c.lui	x28,0x1a
    5c7e:	345f7473          	csrrci	x8,0x345,30
    5c82:	0032                	c.slli	x0,0xc
    5c84:	6e69                	c.lui	x28,0x1a
    5c86:	345f7473          	csrrci	x8,0x345,30
    5c8a:	6e690033          	.insn	4, 0x6e690033
    5c8e:	345f7473          	csrrci	x8,0x345,30
    5c92:	0034                	c.addi4spn	x13,x2,8
    5c94:	6e69                	c.lui	x28,0x1a
    5c96:	345f7473          	csrrci	x8,0x345,30
    5c9a:	0035                	c.addi	x0,13
    5c9c:	6e69                	c.lui	x28,0x1a
    5c9e:	345f7473          	csrrci	x8,0x345,30
    5ca2:	0036                	c.slli	x0,0xd
    5ca4:	6e69                	c.lui	x28,0x1a
    5ca6:	345f7473          	csrrci	x8,0x345,30
    5caa:	6e690037          	lui	x0,0x6e690
    5cae:	345f7473          	csrrci	x8,0x345,30
    5cb2:	0038                	c.addi4spn	x14,x2,8
    5cb4:	6e69                	c.lui	x28,0x1a
    5cb6:	345f7473          	csrrci	x8,0x345,30
    5cba:	0039                	c.addi	x0,14
    5cbc:	6e69                	c.lui	x28,0x1a
    5cbe:	355f7473          	csrrci	x8,0x355,30
    5cc2:	0030                	c.addi4spn	x12,x2,8
    5cc4:	6e69                	c.lui	x28,0x1a
    5cc6:	355f7473          	csrrci	x8,0x355,30
    5cca:	0031                	c.addi	x0,12
    5ccc:	6e69                	c.lui	x28,0x1a
    5cce:	355f7473          	csrrci	x8,0x355,30
    5cd2:	0032                	c.slli	x0,0xc
    5cd4:	6e69                	c.lui	x28,0x1a
    5cd6:	355f7473          	csrrci	x8,0x355,30
    5cda:	6e690033          	.insn	4, 0x6e690033
    5cde:	355f7473          	csrrci	x8,0x355,30
    5ce2:	0034                	c.addi4spn	x13,x2,8
    5ce4:	6e69                	c.lui	x28,0x1a
    5ce6:	355f7473          	csrrci	x8,0x355,30
    5cea:	0035                	c.addi	x0,13
    5cec:	6e69                	c.lui	x28,0x1a
    5cee:	355f7473          	csrrci	x8,0x355,30
    5cf2:	0036                	c.slli	x0,0xd
    5cf4:	6e69                	c.lui	x28,0x1a
    5cf6:	355f7473          	csrrci	x8,0x355,30
    5cfa:	6e690037          	lui	x0,0x6e690
    5cfe:	355f7473          	csrrci	x8,0x355,30
    5d02:	0038                	c.addi4spn	x14,x2,8
    5d04:	6e69                	c.lui	x28,0x1a
    5d06:	355f7473          	csrrci	x8,0x355,30
    5d0a:	0039                	c.addi	x0,14
    5d0c:	6e69                	c.lui	x28,0x1a
    5d0e:	365f7473          	csrrci	x8,0x365,30
    5d12:	0030                	c.addi4spn	x12,x2,8
    5d14:	6e69                	c.lui	x28,0x1a
    5d16:	365f7473          	csrrci	x8,0x365,30
    5d1a:	0031                	c.addi	x0,12
    5d1c:	6e69                	c.lui	x28,0x1a
    5d1e:	365f7473          	csrrci	x8,0x365,30
    5d22:	0032                	c.slli	x0,0xc
    5d24:	6e69                	c.lui	x28,0x1a
    5d26:	365f7473          	csrrci	x8,0x365,30
    5d2a:	6e690033          	.insn	4, 0x6e690033
    5d2e:	365f7473          	csrrci	x8,0x365,30
    5d32:	0034                	c.addi4spn	x13,x2,8
    5d34:	6e69                	c.lui	x28,0x1a
    5d36:	365f7473          	csrrci	x8,0x365,30
    5d3a:	0035                	c.addi	x0,13
    5d3c:	6e69                	c.lui	x28,0x1a
    5d3e:	365f7473          	csrrci	x8,0x365,30
    5d42:	0036                	c.slli	x0,0xd
    5d44:	6e69                	c.lui	x28,0x1a
    5d46:	365f7473          	csrrci	x8,0x365,30
    5d4a:	6e690037          	lui	x0,0x6e690
    5d4e:	365f7473          	csrrci	x8,0x365,30
    5d52:	0038                	c.addi4spn	x14,x2,8
    5d54:	6e69                	c.lui	x28,0x1a
    5d56:	365f7473          	csrrci	x8,0x365,30
    5d5a:	0039                	c.addi	x0,14
    5d5c:	6e69                	c.lui	x28,0x1a
    5d5e:	375f7473          	csrrci	x8,0x375,30
    5d62:	0030                	c.addi4spn	x12,x2,8
    5d64:	6e69                	c.lui	x28,0x1a
    5d66:	375f7473          	csrrci	x8,0x375,30
    5d6a:	0031                	c.addi	x0,12
    5d6c:	6e69                	c.lui	x28,0x1a
    5d6e:	375f7473          	csrrci	x8,0x375,30
    5d72:	0032                	c.slli	x0,0xc
    5d74:	6e69                	c.lui	x28,0x1a
    5d76:	375f7473          	csrrci	x8,0x375,30
    5d7a:	6e690033          	.insn	4, 0x6e690033
    5d7e:	375f7473          	csrrci	x8,0x375,30
    5d82:	0034                	c.addi4spn	x13,x2,8
    5d84:	6e69                	c.lui	x28,0x1a
    5d86:	375f7473          	csrrci	x8,0x375,30
    5d8a:	0035                	c.addi	x0,13
    5d8c:	6e69                	c.lui	x28,0x1a
    5d8e:	375f7473          	csrrci	x8,0x375,30
    5d92:	0036                	c.slli	x0,0xd
    5d94:	6e69                	c.lui	x28,0x1a
    5d96:	375f7473          	csrrci	x8,0x375,30
    5d9a:	6e690037          	lui	x0,0x6e690
    5d9e:	375f7473          	csrrci	x8,0x375,30
    5da2:	0038                	c.addi4spn	x14,x2,8
    5da4:	6e69                	c.lui	x28,0x1a
    5da6:	375f7473          	csrrci	x8,0x375,30
    5daa:	0039                	c.addi	x0,14
    5dac:	6e69                	c.lui	x28,0x1a
    5dae:	385f7473          	csrrci	x8,0x385,30
    5db2:	0030                	c.addi4spn	x12,x2,8
    5db4:	6e69                	c.lui	x28,0x1a
    5db6:	385f7473          	csrrci	x8,0x385,30
    5dba:	0031                	c.addi	x0,12
    5dbc:	6e69                	c.lui	x28,0x1a
    5dbe:	385f7473          	csrrci	x8,0x385,30
    5dc2:	0032                	c.slli	x0,0xc
    5dc4:	6e69                	c.lui	x28,0x1a
    5dc6:	385f7473          	csrrci	x8,0x385,30
    5dca:	6e690033          	.insn	4, 0x6e690033
    5dce:	385f7473          	csrrci	x8,0x385,30
    5dd2:	0034                	c.addi4spn	x13,x2,8
    5dd4:	6e69                	c.lui	x28,0x1a
    5dd6:	385f7473          	csrrci	x8,0x385,30
    5dda:	0035                	c.addi	x0,13
    5ddc:	6e69                	c.lui	x28,0x1a
    5dde:	385f7473          	csrrci	x8,0x385,30
    5de2:	0036                	c.slli	x0,0xd
    5de4:	6e69                	c.lui	x28,0x1a
    5de6:	385f7473          	csrrci	x8,0x385,30
    5dea:	6e690037          	lui	x0,0x6e690
    5dee:	385f7473          	csrrci	x8,0x385,30
    5df2:	0038                	c.addi4spn	x14,x2,8
    5df4:	6e69                	c.lui	x28,0x1a
    5df6:	385f7473          	csrrci	x8,0x385,30
    5dfa:	0039                	c.addi	x0,14
    5dfc:	6e69                	c.lui	x28,0x1a
    5dfe:	395f7473          	csrrci	x8,0x395,30
    5e02:	0030                	c.addi4spn	x12,x2,8
    5e04:	6e69                	c.lui	x28,0x1a
    5e06:	395f7473          	csrrci	x8,0x395,30
    5e0a:	0031                	c.addi	x0,12
    5e0c:	6e69                	c.lui	x28,0x1a
    5e0e:	395f7473          	csrrci	x8,0x395,30
    5e12:	0032                	c.slli	x0,0xc
    5e14:	6e69                	c.lui	x28,0x1a
    5e16:	395f7473          	csrrci	x8,0x395,30
    5e1a:	6e690033          	.insn	4, 0x6e690033
    5e1e:	395f7473          	csrrci	x8,0x395,30
    5e22:	0034                	c.addi4spn	x13,x2,8
    5e24:	6e69                	c.lui	x28,0x1a
    5e26:	395f7473          	csrrci	x8,0x395,30
    5e2a:	0035                	c.addi	x0,13
    5e2c:	6e69                	c.lui	x28,0x1a
    5e2e:	395f7473          	csrrci	x8,0x395,30
    5e32:	0036                	c.slli	x0,0xd
    5e34:	6e69                	c.lui	x28,0x1a
    5e36:	395f7473          	csrrci	x8,0x395,30
    5e3a:	6e690037          	lui	x0,0x6e690
    5e3e:	395f7473          	csrrci	x8,0x395,30
    5e42:	0038                	c.addi4spn	x14,x2,8
    5e44:	6e69                	c.lui	x28,0x1a
    5e46:	395f7473          	csrrci	x8,0x395,30
    5e4a:	0039                	c.addi	x0,14
    5e4c:	6e69                	c.lui	x28,0x1a
    5e4e:	315f7473          	csrrci	x8,0x315,30
    5e52:	3030                	c.fld	f12,96(x8)
    5e54:	6900                	c.ld	x8,16(x10)
    5e56:	736e                	c.ldsp	x6,248(x2)
    5e58:	5f74                	c.lw	x13,124(x14)
    5e5a:	3031                	.insn	2, 0x3031
    5e5c:	0031                	c.addi	x0,12
    5e5e:	6e69                	c.lui	x28,0x1a
    5e60:	315f7473          	csrrci	x8,0x315,30
    5e64:	3230                	c.fld	f12,96(x12)
    5e66:	6900                	c.ld	x8,16(x10)
    5e68:	736e                	c.ldsp	x6,248(x2)
    5e6a:	5f74                	c.lw	x13,124(x14)
    5e6c:	3031                	.insn	2, 0x3031
    5e6e:	6e690033          	.insn	4, 0x6e690033
    5e72:	315f7473          	csrrci	x8,0x315,30
    5e76:	3430                	c.fld	f12,104(x8)
    5e78:	6900                	c.ld	x8,16(x10)
    5e7a:	736e                	c.ldsp	x6,248(x2)
    5e7c:	5f74                	c.lw	x13,124(x14)
    5e7e:	3031                	.insn	2, 0x3031
    5e80:	0035                	c.addi	x0,13
    5e82:	6e69                	c.lui	x28,0x1a
    5e84:	315f7473          	csrrci	x8,0x315,30
    5e88:	3630                	c.fld	f12,104(x12)
    5e8a:	6900                	c.ld	x8,16(x10)
    5e8c:	736e                	c.ldsp	x6,248(x2)
    5e8e:	5f74                	c.lw	x13,124(x14)
    5e90:	3031                	.insn	2, 0x3031
    5e92:	6e690037          	lui	x0,0x6e690
    5e96:	315f7473          	csrrci	x8,0x315,30
    5e9a:	3830                	c.fld	f12,112(x8)
    5e9c:	6900                	c.ld	x8,16(x10)
    5e9e:	736e                	c.ldsp	x6,248(x2)
    5ea0:	5f74                	c.lw	x13,124(x14)
    5ea2:	3031                	.insn	2, 0x3031
    5ea4:	0039                	c.addi	x0,14
    5ea6:	6e69                	c.lui	x28,0x1a
    5ea8:	315f7473          	csrrci	x8,0x315,30
    5eac:	3031                	.insn	2, 0x3031
    5eae:	6900                	c.ld	x8,16(x10)
    5eb0:	736e                	c.ldsp	x6,248(x2)
    5eb2:	5f74                	c.lw	x13,124(x14)
    5eb4:	3131                	c.addiw	x2,-20
    5eb6:	0031                	c.addi	x0,12
    5eb8:	6e69                	c.lui	x28,0x1a
    5eba:	315f7473          	csrrci	x8,0x315,30
    5ebe:	3231                	c.addiw	x4,-20 # 0xffffffffffffffec
    5ec0:	6900                	c.ld	x8,16(x10)
    5ec2:	736e                	c.ldsp	x6,248(x2)
    5ec4:	5f74                	c.lw	x13,124(x14)
    5ec6:	3131                	c.addiw	x2,-20
    5ec8:	6e690033          	.insn	4, 0x6e690033
    5ecc:	315f7473          	csrrci	x8,0x315,30
    5ed0:	3431                	c.addiw	x8,-20
    5ed2:	6900                	c.ld	x8,16(x10)
    5ed4:	736e                	c.ldsp	x6,248(x2)
    5ed6:	5f74                	c.lw	x13,124(x14)
    5ed8:	3131                	c.addiw	x2,-20
    5eda:	0035                	c.addi	x0,13
    5edc:	6e69                	c.lui	x28,0x1a
    5ede:	315f7473          	csrrci	x8,0x315,30
    5ee2:	3631                	c.addiw	x12,-20 # 0xffffffffffff8fec
    5ee4:	6900                	c.ld	x8,16(x10)
    5ee6:	736e                	c.ldsp	x6,248(x2)
    5ee8:	5f74                	c.lw	x13,124(x14)
    5eea:	3131                	c.addiw	x2,-20
    5eec:	6e690037          	lui	x0,0x6e690
    5ef0:	315f7473          	csrrci	x8,0x315,30
    5ef4:	3831                	c.addiw	x16,-20 # 0xffffffffffffafec
    5ef6:	6900                	c.ld	x8,16(x10)
    5ef8:	736e                	c.ldsp	x6,248(x2)
    5efa:	5f74                	c.lw	x13,124(x14)
    5efc:	3131                	c.addiw	x2,-20
    5efe:	0039                	c.addi	x0,14
    5f00:	6e69                	c.lui	x28,0x1a
    5f02:	315f7473          	csrrci	x8,0x315,30
    5f06:	3032                	c.fldsp	f0,296(x2)
    5f08:	6900                	c.ld	x8,16(x10)
    5f0a:	736e                	c.ldsp	x6,248(x2)
    5f0c:	5f74                	c.lw	x13,124(x14)
    5f0e:	3231                	c.addiw	x4,-20 # 0xffffffffffffffec
    5f10:	0031                	c.addi	x0,12
    5f12:	6e69                	c.lui	x28,0x1a
    5f14:	315f7473          	csrrci	x8,0x315,30
    5f18:	3232                	c.fldsp	f4,296(x2)
    5f1a:	6900                	c.ld	x8,16(x10)
    5f1c:	736e                	c.ldsp	x6,248(x2)
    5f1e:	5f74                	c.lw	x13,124(x14)
    5f20:	3231                	c.addiw	x4,-20 # 0xffffffffffffffec
    5f22:	6e690033          	.insn	4, 0x6e690033
    5f26:	315f7473          	csrrci	x8,0x315,30
    5f2a:	3432                	c.fldsp	f8,296(x2)
    5f2c:	6900                	c.ld	x8,16(x10)
    5f2e:	736e                	c.ldsp	x6,248(x2)
    5f30:	5f74                	c.lw	x13,124(x14)
    5f32:	3231                	c.addiw	x4,-20 # 0xffffffffffffffec
    5f34:	0035                	c.addi	x0,13
    5f36:	6e69                	c.lui	x28,0x1a
    5f38:	315f7473          	csrrci	x8,0x315,30
    5f3c:	3632                	c.fldsp	f12,296(x2)
    5f3e:	6900                	c.ld	x8,16(x10)
    5f40:	736e                	c.ldsp	x6,248(x2)
    5f42:	5f74                	c.lw	x13,124(x14)
    5f44:	3231                	c.addiw	x4,-20 # 0xffffffffffffffec
    5f46:	6e690037          	lui	x0,0x6e690
    5f4a:	315f7473          	csrrci	x8,0x315,30
    5f4e:	3832                	c.fldsp	f16,296(x2)
    5f50:	6900                	c.ld	x8,16(x10)
    5f52:	736e                	c.ldsp	x6,248(x2)
    5f54:	5f74                	c.lw	x13,124(x14)
    5f56:	3231                	c.addiw	x4,-20 # 0xffffffffffffffec
    5f58:	0039                	c.addi	x0,14
    5f5a:	6e69                	c.lui	x28,0x1a
    5f5c:	315f7473          	csrrci	x8,0x315,30
    5f60:	69003033          	.insn	4, 0x69003033
    5f64:	736e                	c.ldsp	x6,248(x2)
    5f66:	5f74                	c.lw	x13,124(x14)
    5f68:	3331                	c.addiw	x6,-20
    5f6a:	0031                	c.addi	x0,12
    5f6c:	6e69                	c.lui	x28,0x1a
    5f6e:	315f7473          	csrrci	x8,0x315,30
    5f72:	69003233          	.insn	4, 0x69003233
    5f76:	736e                	c.ldsp	x6,248(x2)
    5f78:	5f74                	c.lw	x13,124(x14)
    5f7a:	3331                	c.addiw	x6,-20
    5f7c:	6e690033          	.insn	4, 0x6e690033
    5f80:	315f7473          	csrrci	x8,0x315,30
    5f84:	69003433          	.insn	4, 0x69003433
    5f88:	736e                	c.ldsp	x6,248(x2)
    5f8a:	5f74                	c.lw	x13,124(x14)
    5f8c:	3331                	c.addiw	x6,-20
    5f8e:	0035                	c.addi	x0,13
    5f90:	6e69                	c.lui	x28,0x1a
    5f92:	315f7473          	csrrci	x8,0x315,30
    5f96:	69003633          	.insn	4, 0x69003633
    5f9a:	736e                	c.ldsp	x6,248(x2)
    5f9c:	5f74                	c.lw	x13,124(x14)
    5f9e:	3331                	c.addiw	x6,-20
    5fa0:	6e690037          	lui	x0,0x6e690
    5fa4:	315f7473          	csrrci	x8,0x315,30
    5fa8:	69003833          	.insn	4, 0x69003833
    5fac:	736e                	c.ldsp	x6,248(x2)
    5fae:	5f74                	c.lw	x13,124(x14)
    5fb0:	3331                	c.addiw	x6,-20
    5fb2:	0039                	c.addi	x0,14
    5fb4:	6e69                	c.lui	x28,0x1a
    5fb6:	315f7473          	csrrci	x8,0x315,30
    5fba:	3034                	c.fld	f13,96(x8)
    5fbc:	6900                	c.ld	x8,16(x10)
    5fbe:	736e                	c.ldsp	x6,248(x2)
    5fc0:	5f74                	c.lw	x13,124(x14)
    5fc2:	3431                	c.addiw	x8,-20
    5fc4:	0031                	c.addi	x0,12
    5fc6:	6e69                	c.lui	x28,0x1a
    5fc8:	315f7473          	csrrci	x8,0x315,30
    5fcc:	3234                	c.fld	f13,96(x12)
    5fce:	6900                	c.ld	x8,16(x10)
    5fd0:	736e                	c.ldsp	x6,248(x2)
    5fd2:	5f74                	c.lw	x13,124(x14)
    5fd4:	3431                	c.addiw	x8,-20
    5fd6:	6e690033          	.insn	4, 0x6e690033
    5fda:	315f7473          	csrrci	x8,0x315,30
    5fde:	3434                	c.fld	f13,104(x8)
    5fe0:	6900                	c.ld	x8,16(x10)
    5fe2:	736e                	c.ldsp	x6,248(x2)
    5fe4:	5f74                	c.lw	x13,124(x14)
    5fe6:	3431                	c.addiw	x8,-20
    5fe8:	0035                	c.addi	x0,13
    5fea:	6e69                	c.lui	x28,0x1a
    5fec:	315f7473          	csrrci	x8,0x315,30
    5ff0:	3634                	c.fld	f13,104(x12)
    5ff2:	6900                	c.ld	x8,16(x10)
    5ff4:	736e                	c.ldsp	x6,248(x2)
    5ff6:	5f74                	c.lw	x13,124(x14)
    5ff8:	3431                	c.addiw	x8,-20
    5ffa:	6e690037          	lui	x0,0x6e690
    5ffe:	315f7473          	csrrci	x8,0x315,30
    6002:	3834                	c.fld	f13,112(x8)
    6004:	6900                	c.ld	x8,16(x10)
    6006:	736e                	c.ldsp	x6,248(x2)
    6008:	5f74                	c.lw	x13,124(x14)
    600a:	3431                	c.addiw	x8,-20
    600c:	0039                	c.addi	x0,14
    600e:	6e69                	c.lui	x28,0x1a
    6010:	315f7473          	csrrci	x8,0x315,30
    6014:	3035                	.insn	2, 0x3035
    6016:	6900                	c.ld	x8,16(x10)
    6018:	736e                	c.ldsp	x6,248(x2)
    601a:	5f74                	c.lw	x13,124(x14)
    601c:	3531                	c.addiw	x10,-20
    601e:	0031                	c.addi	x0,12
    6020:	6e69                	c.lui	x28,0x1a
    6022:	315f7473          	csrrci	x8,0x315,30
    6026:	3235                	c.addiw	x4,-19 # 0xffffffffffffffed
    6028:	6500                	c.ld	x8,8(x10)
    602a:	6978                	c.ld	x14,208(x10)
    602c:	5f74                	c.lw	x13,124(x14)
    602e:	61656c63          	bltu	x10,x22,0x6646
    6032:	756e                	c.ldsp	x10,248(x2)
    6034:	0070                	c.addi4spn	x12,x2,12
    6036:	6261                	c.lui	x4,0x18
    6038:	5f74726f          	jal	x4,0x4de2e
    603c:	6574                	c.ld	x13,200(x10)
    603e:	00737473          	csrrci	x8,0x7,6
    6042:	7672                	c.ldsp	x12,312(x2)
    6044:	6574                	c.ld	x13,200(x10)
    6046:	645f7473          	csrrci	x8,hvip,30
    604a:	7461                	c.lui	x8,0xffff8
    604c:	0061                	c.addi	x0,24
    604e:	746d                	c.lui	x8,0xffffb
    6050:	6172                	c.ldsp	x2,280(x2)
    6052:	5f70                	c.lw	x12,124(x14)
    6054:	70676973          	csrrsi	x18,0x706,14
    6058:	7274                	c.ld	x13,224(x12)
    605a:	7200                	c.ld	x8,32(x12)
    605c:	7476                	c.ldsp	x8,376(x2)
    605e:	7365                	c.lui	x6,0xffff9
    6060:	5f74                	c.lw	x13,124(x14)
    6062:	5f676973          	csrrsi	x18,0x5f6,14
    6066:	6562                	c.ldsp	x10,24(x2)
    6068:	006e6967          	.insn	4, 0x006e6967
    606c:	5f676973          	csrrsi	x18,0x5f6,14
    6070:	6562                	c.ldsp	x10,24(x2)
    6072:	5f6e6967          	.insn	4, 0x5f6e6967
    6076:	616e6163          	bltu	x28,x22,0x6678
    607a:	7972                	c.ldsp	x18,312(x2)
    607c:	7300                	c.ld	x8,32(x14)
    607e:	6769                	c.lui	x14,0x1a
    6080:	616e                	c.ldsp	x2,216(x2)
    6082:	7574                	c.ld	x13,232(x10)
    6084:	6572                	c.ldsp	x10,280(x2)
    6086:	785f 5f34 0030      	.insn	6, 0x00305f34785f
    608c:	5f676973          	csrrsi	x18,0x5f6,14
    6090:	6e65                	c.lui	x28,0x19
    6092:	5f64                	c.lw	x9,124(x14)
    6094:	616e6163          	bltu	x28,x22,0x6696
    6098:	7972                	c.ldsp	x18,312(x2)
    609a:	7200                	c.ld	x8,32(x12)
    609c:	7476                	c.ldsp	x8,376(x2)
    609e:	7365                	c.lui	x6,0xffff9
    60a0:	5f74                	c.lw	x13,124(x14)
    60a2:	5f676973          	csrrsi	x18,0x5f6,14
    60a6:	6e65                	c.lui	x28,0x19
    60a8:	0064                	c.addi4spn	x9,x2,12
    60aa:	7274                	c.ld	x13,224(x12)
    60ac:	2e6d                	c.addiw	x28,27 # 0x1901b
    60ae:	616d0063          	beq	x26,x22,0x66ae
    60b2:	6e69                	c.lui	x28,0x1a
    60b4:	7261                	c.lui	x4,0xffff8
    60b6:	72007367          	.insn	4, 0x72007367
    60ba:	7476                	c.ldsp	x8,376(x2)
    60bc:	7365                	c.lui	x6,0xffff9
    60be:	5f74                	c.lw	x13,124(x14)
    60c0:	7265                	c.lui	x4,0xffff9
    60c2:	6f72                	c.ldsp	x30,280(x2)
    60c4:	0072                	c.slli	x0,0x1c
    60c6:	745f 6d72 695f      	.insn	6, 0x695f6d72745f
    60cc:	696e                	c.ldsp	x18,216(x2)
    60ce:	0074                	c.addi4spn	x13,x2,12
    60d0:	735f 6174 6b63      	.insn	6, 0x6b636174735f
    60d6:	705f 696f 746e      	.insn	6, 0x746e696f705f
    60dc:	7265                	c.lui	x4,0xffff9
    60de:	6500                	c.ld	x8,8(x10)
    60e0:	646e                	c.ldsp	x8,216(x2)
    60e2:	735f 6769 616e      	.insn	6, 0x616e6769735f
    60e8:	7574                	c.ld	x13,232(x10)
    60ea:	6572                	c.ldsp	x10,280(x2)
    60ec:	5f00                	c.lw	x8,56(x14)
    60ee:	7465                	c.lui	x8,0xffff9
    60f0:	7865                	c.lui	x16,0xffff9
    60f2:	0074                	c.addi4spn	x13,x2,12
    60f4:	705f 656d 5f6d      	.insn	6, 0x5f6d656d705f
    60fa:	72617473          	csrrci	x8,mhpmevent6h,2
    60fe:	0074                	c.addi4spn	x13,x2,12
    6100:	625f 7373 735f      	.insn	6, 0x735f7373625f
    6106:	6174                	c.ld	x13,192(x10)
    6108:	7472                	c.ldsp	x8,312(x2)
    610a:	6500                	c.ld	x8,8(x10)
    610c:	6164                	c.ld	x9,192(x10)
    610e:	6174                	c.ld	x13,192(x10)
    6110:	5f00                	c.lw	x8,56(x14)
    6112:	6568                	c.ld	x10,200(x10)
    6114:	7061                	c.lui	x0,0xffff8
    6116:	735f 6174 7472      	.insn	6, 0x74726174735f
    611c:	5f00                	c.lw	x8,56(x14)
    611e:	63617473          	csrrci	x8,0x636,2
    6122:	6f745f6b          	.insn	4, 0x6f745f6b
    6126:	0070                	c.addi4spn	x12,x2,12
    6128:	7672                	c.ldsp	x12,312(x2)
    612a:	6574                	c.ld	x13,200(x10)
    612c:	655f7473          	csrrci	x8,hviph,30
    6130:	746e                	c.ldsp	x8,248(x2)
    6132:	7972                	c.ldsp	x18,312(x2)
    6134:	705f 696f 746e      	.insn	6, 0x746e696f705f
    613a:	6200                	c.ld	x8,0(x12)
    613c:	6765                	c.lui	x14,0x19
    613e:	6e69                	c.lui	x28,0x1a
    6140:	735f 6769 616e      	.insn	6, 0x616e6769735f
    6146:	7574                	c.ld	x13,232(x10)
    6148:	6572                	c.ldsp	x10,280(x2)
    614a:	5f00                	c.lw	x8,56(x14)
    614c:	6e65                	c.lui	x28,0x19
    614e:	7274                	c.ld	x13,224(x12)
    6150:	5f79                	c.li	x30,-2
    6152:	7366666f          	jal	x12,0x6c888
    6156:	7465                	c.lui	x8,0xffff9
    6158:	7200                	c.ld	x8,32(x12)
    615a:	7476                	c.ldsp	x8,376(x2)
    615c:	7365                	c.lui	x6,0xffff9
    615e:	5f74                	c.lw	x13,124(x14)
    6160:	6e69                	c.lui	x28,0x1a
    6162:	7469                	c.lui	x8,0xffffa
    6164:	7200                	c.ld	x8,32(x12)
    6166:	7476                	c.ldsp	x8,376(x2)
    6168:	7365                	c.lui	x6,0xffff9
    616a:	5f74                	c.lw	x13,124(x14)
    616c:	65646f63          	bltu	x8,x22,0x67ca
    6170:	655f 646e 7200      	.insn	6, 0x7200646e655f
    6176:	7476                	c.ldsp	x8,376(x2)
    6178:	7365                	c.lui	x6,0xffff9
    617a:	5f74                	c.lw	x13,124(x14)
    617c:	65646f63          	bltu	x8,x22,0x67da
    6180:	625f 6765 6e69      	.insn	6, 0x6e696765625f
    6186:	6d00                	c.ld	x8,24(x10)
    6188:	6961                	c.lui	x18,0x18
    618a:	006e                	c.slli	x0,0x1b
    618c:	7672                	c.ldsp	x12,312(x2)
    618e:	6574                	c.ld	x13,200(x10)
    6190:	645f7473          	csrrci	x8,hvip,30
    6194:	7461                	c.lui	x8,0xffff8
    6196:	5f61                	c.li	x30,-8
    6198:	6562                	c.ldsp	x10,24(x2)
    619a:	006e6967          	.insn	4, 0x006e6967
    619e:	7672                	c.ldsp	x12,312(x2)
    61a0:	6574                	c.ld	x13,200(x10)
    61a2:	645f7473          	csrrci	x8,hvip,30
    61a6:	7461                	c.lui	x8,0xffff8
    61a8:	5f61                	c.li	x30,-8
    61aa:	6e65                	c.lui	x28,0x19
    61ac:	0064                	c.addi4spn	x9,x2,12
    61ae:	61656c63          	bltu	x10,x22,0x67c6
    61b2:	756e                	c.ldsp	x10,248(x2)
    61b4:	5f70                	c.lw	x12,124(x14)
    61b6:	7065                	c.lui	x0,0xffff9
    61b8:	6c69                	c.lui	x24,0x1a
    61ba:	0073676f          	jal	x14,0x3c9c0
    61be:	6168                	c.ld	x10,192(x10)
    61c0:	746c                	c.ld	x11,232(x8)
    61c2:	0000                	c.unimp
    61c4:	732e                	c.ldsp	x6,232(x2)
    61c6:	6d79                	c.lui	x26,0x1e
    61c8:	6174                	c.ld	x13,192(x10)
    61ca:	0062                	c.slli	x0,0x18
    61cc:	732e                	c.ldsp	x6,232(x2)
    61ce:	7274                	c.ld	x13,224(x12)
    61d0:	6174                	c.ld	x13,192(x10)
    61d2:	0062                	c.slli	x0,0x18
    61d4:	732e                	c.ldsp	x6,232(x2)
    61d6:	7368                	c.ld	x10,224(x14)
    61d8:	7274                	c.ld	x13,224(x12)
    61da:	6174                	c.ld	x13,192(x10)
    61dc:	0062                	c.slli	x0,0x18
    61de:	742e                	c.ldsp	x8,232(x2)
    61e0:	7865                	c.lui	x16,0xffff9
    61e2:	0074                	c.addi4spn	x13,x2,12
    61e4:	732e                	c.ldsp	x6,232(x2)
    61e6:	6f72                	c.ldsp	x30,280(x2)
    61e8:	6164                	c.ld	x9,192(x10)
    61ea:	6174                	c.ld	x13,192(x10)
    61ec:	6d2e                	c.ldsp	x26,200(x2)
    61ee:	6961                	c.lui	x18,0x18
    61f0:	616e                	c.ldsp	x2,216(x2)
    61f2:	6772                	c.ldsp	x14,280(x2)
    61f4:	642e0073          	.insn	4, 0x642e0073
    61f8:	7461                	c.lui	x8,0xffff8
    61fa:	0061                	c.addi	x0,24
    61fc:	632e                	c.ldsp	x6,200(x2)
    61fe:	656d6d6f          	jal	x26,0xdc854
    6202:	746e                	c.ldsp	x8,248(x2)
    6204:	2e00                	c.fld	f8,24(x12)
    6206:	6972                	c.ldsp	x18,280(x2)
    6208:	2e766373          	csrrsi	x6,0x2e7,12
    620c:	7461                	c.lui	x8,0xffff8
    620e:	7274                	c.ld	x13,224(x12)
    6210:	6269                	c.lui	x4,0x1a
    6212:	7475                	c.lui	x8,0xffffd
    6214:	7365                	c.lui	x6,0xffff9
	...
    6256:	0000                	c.unimp
    6258:	0000001b          	addiw	x0,x0,0
    625c:	0001                	c.addi	x0,0
    625e:	0000                	c.unimp
    6260:	0006                	c.slli	x0,0x1
	...
    626a:	8000                	.insn	2, 0x8000
    626c:	0000                	c.unimp
    626e:	0000                	c.unimp
    6270:	1000                	c.addi4spn	x8,x2,32
    6272:	0000                	c.unimp
    6274:	0000                	c.unimp
    6276:	0000                	c.unimp
    6278:	1a2c                	c.addi4spn	x11,x2,312
	...
    6286:	0000                	c.unimp
    6288:	0020                	c.addi4spn	x8,x2,8
	...
    6296:	0000                	c.unimp
    6298:	0021                	c.addi	x0,8
    629a:	0000                	c.unimp
    629c:	0001                	c.addi	x0,0
    629e:	0000                	c.unimp
    62a0:	0002                	c.slli64	x0
    62a2:	0000                	c.unimp
    62a4:	0000                	c.unimp
    62a6:	0000                	c.unimp
    62a8:	1a30                	c.addi4spn	x12,x2,312
    62aa:	8000                	.insn	2, 0x8000
    62ac:	0000                	c.unimp
    62ae:	0000                	c.unimp
    62b0:	2a30                	c.fld	f12,80(x12)
    62b2:	0000                	c.unimp
    62b4:	0000                	c.unimp
    62b6:	0000                	c.unimp
    62b8:	0001                	c.addi	x0,0
	...
    62c6:	0000                	c.unimp
    62c8:	0008                	.insn	2, 0x0008
	...
    62d6:	0000                	c.unimp
    62d8:	00000033          	add	x0,x0,x0
    62dc:	0001                	c.addi	x0,0
    62de:	0000                	c.unimp
    62e0:	00000003          	lb	x0,0(x0) # 0x0
    62e4:	0000                	c.unimp
    62e6:	0000                	c.unimp
    62e8:	2000                	c.fld	f8,0(x8)
    62ea:	8000                	.insn	2, 0x8000
    62ec:	0000                	c.unimp
    62ee:	0000                	c.unimp
    62f0:	3000                	c.fld	f8,32(x8)
    62f2:	0000                	c.unimp
    62f4:	0000                	c.unimp
    62f6:	0000                	c.unimp
    62f8:	14e0                	c.addi4spn	x8,x2,620
	...
    6306:	0000                	c.unimp
    6308:	1000                	c.addi4spn	x8,x2,32
	...
    6316:	0000                	c.unimp
    6318:	0039                	c.addi	x0,14
    631a:	0000                	c.unimp
    631c:	0001                	c.addi	x0,0
    631e:	0000                	c.unimp
    6320:	0030                	c.addi4spn	x12,x2,8
	...
    632e:	0000                	c.unimp
    6330:	44e0                	c.lw	x8,76(x9)
    6332:	0000                	c.unimp
    6334:	0000                	c.unimp
    6336:	0000                	c.unimp
    6338:	0026                	c.slli	x0,0x9
	...
    6346:	0000                	c.unimp
    6348:	0001                	c.addi	x0,0
    634a:	0000                	c.unimp
    634c:	0000                	c.unimp
    634e:	0000                	c.unimp
    6350:	0001                	c.addi	x0,0
    6352:	0000                	c.unimp
    6354:	0000                	c.unimp
    6356:	0000                	c.unimp
    6358:	0042                	c.slli	x0,0x10
    635a:	0000                	c.unimp
    635c:	70000003          	lb	x0,1792(x0) # 0x700
	...
    6370:	4506                	c.lwsp	x10,64(x2)
    6372:	0000                	c.unimp
    6374:	0000                	c.unimp
    6376:	0000                	c.unimp
    6378:	002e                	c.slli	x0,0xb
	...
    6386:	0000                	c.unimp
    6388:	0001                	c.addi	x0,0
	...
    6396:	0000                	c.unimp
    6398:	0001                	c.addi	x0,0
    639a:	0000                	c.unimp
    639c:	0002                	c.slli64	x0
	...
    63ae:	0000                	c.unimp
    63b0:	4538                	c.lw	x14,72(x10)
    63b2:	0000                	c.unimp
    63b4:	0000                	c.unimp
    63b6:	0000                	c.unimp
    63b8:	1548                	c.addi4spn	x10,x2,676
    63ba:	0000                	c.unimp
    63bc:	0000                	c.unimp
    63be:	0000                	c.unimp
    63c0:	00000007          	.insn	4, 0x0007
    63c4:	00c9                	c.addi	x1,18
    63c6:	0000                	c.unimp
    63c8:	0008                	.insn	2, 0x0008
    63ca:	0000                	c.unimp
    63cc:	0000                	c.unimp
    63ce:	0000                	c.unimp
    63d0:	0018                	.insn	2, 0x0018
    63d2:	0000                	c.unimp
    63d4:	0000                	c.unimp
    63d6:	0000                	c.unimp
    63d8:	0009                	c.addi	x0,2
    63da:	0000                	c.unimp
    63dc:	00000003          	lb	x0,0(x0) # 0x0
	...
    63f0:	5a80                	c.lw	x8,48(x13)
    63f2:	0000                	c.unimp
    63f4:	0000                	c.unimp
    63f6:	0000                	c.unimp
    63f8:	00000743          	fmadd.s	f14,f0,f0,f0,rne
	...
    6408:	0001                	c.addi	x0,0
	...
    6416:	0000                	c.unimp
    6418:	0011                	c.addi	x0,4
    641a:	0000                	c.unimp
    641c:	00000003          	lb	x0,0(x0) # 0x0
	...
    6430:	000061c3          	fmadd.s	f3,f0,f0,f0,unknown
    6434:	0000                	c.unimp
    6436:	0000                	c.unimp
    6438:	0054                	c.addi4spn	x13,x2,4
	...
    6446:	0000                	c.unimp
    6448:	0001                	c.addi	x0,0
	...
