
bin/riscv-arch-test/sra-riscv64-nemu.bin:     file format binary

Contents of section .data:
 80000000 13040000 17c10000 1301c1ff ef10503f  ..............P?
 80000010 ef000003 13051000 ef10d03d 13050000  ...........=....
 80000020 67800000 13051000 ef10d03c 67800000  g..........<g...
 80000030 00000000 00000000 00000000 00000000  ................
 80000040 b7c0edfe 9380d0ea 9390b000 9380707f  ..............p.
 80000050 9390b000 9380f036 9390a000 9380d02a  .......6.......*
 80000060 37e176ff 130161f5 1311b100 1301b17f  7.v...a.........
 80000070 1311b100 1301715b 1311a100 13016135  ......q[......a5
 80000080 b771bb7f 9381b1fa 9391b100 9381d13f  .q.............?
 80000090 9391b100 9381b16d 9391a100 9381b13a  .......m.......:
 800000a0 37b2ddbf 1302527d 1312b200 1302e25f  7.....R}......._
 800000b0 1312b200 1302d276 1312a200 1302523d  .......v......R=
 800000c0 b7e2eedf 9382a2be 9392b200 9382f26f  ...............o
 800000d0 9392b200 9382623b 9392a200 9382a23e  ......b;.......>
 800000e0 3773f76f 130353df 1313b300 1303f337  7s.o..S........7
 800000f0 1313b300 1303b35d 1313a300 1303531f  .......]......S.
 80000100 b7b3fbb7 9383a36f 9393b300 9383f35b  .......o.......[
 80000110 9393b300 9383d36e 9393a300 9383a32f  .......n......./
 80000120 37e4fd5b 1304d4b7 1314b400 1304f42d  7..[...........-
 80000130 1314b400 13046477 1314a400 1304d437  ......dw.......7
 80000140 b7f4fead 9384e4db 9394b400 9384f456  ...............V
 80000150 9394b400 9384b47b 9394a400 9384e41b  .......{........
 80000160 3775ff56 1305f56d 1315b500 1305752b  7u.V...m......u+
 80000170 1315b500 1305d57d 1315a500 1305f52d  .......}.......-
 80000180 b7c57fab 9385f5b6 9395b500 9385b555  ...............U
 80000190 9395b500 9385e57e 9395a500 9385f536  .......~.......6
 800001a0 37e6bfd5 130676db 1316b600 1306d66a  7.....v........j
 800001b0 1316b600 1306767f 1316a600 1306761b  ......v.......v.
 800001c0 b7f6dfea 9386b6ed 9396b600 93866675  ..............fu
 800001d0 9396b600 9386b67f 9396a600 9386b62d  ...............-
 800001e0 37f76ff5 1307d776 1317b700 1307b77a  7.o....v.......z
 800001f0 1317b700 1307d73f 1317a700 1307d736  .......?.......6
 80000200 b707b8fa 938767bb 9397b700 9387577d  ......g.......W}
 80000210 9397b700 9387e75f 9397a700 9387673b  ......._......g;
 80000220 37085c7d 1308b8dd 1318b800 1308a83e  7.\}...........>
 80000230 1318b800 1308f86f 1318a800 1308b81d  .......o........
 80000240 b708aebe 9388d8ee 9398b800 9388585f  ..............X_
 80000250 9398b800 9388f837 9398a800 9388d82e  .......7........
 80000260 370957df 130969f7 1319b900 1309a96f  7.W...i........o
 80000270 1319b900 1309f95b 1319a900 13096937  .......[......i7
 80000280 b789ab6f 9389b9fb 9399b900 9389d937  ...o...........7
 80000290 9399b900 9389f92d 9399a900 9389b93b  .......-.......;
 800002a0 37cad5b7 130adafd 131aba00 130aea5b  7..............[
 800002b0 131aba00 130afa56 131aaa00 130ada3d  .......V.......=
 800002c0 b7eaeadb 938aeafe 939aba00 938afa6d  ...............m
 800002d0 939aba00 938a7a2b 939aaa00 938aea3e  ......z+.......>
 800002e0 377bf56d 130b7bff 131bbb00 130bfb36  7{.m..{........6
 800002f0 131bbb00 130bbb55 131bab00 130b7b3f  .......U......{?
 80000300 b7bbfab6 938bbb7f 939bbb00 938b7b5b  ..............{[
 80000310 939bbb00 938bdb6a 939bab00 938bbb3f  .......j.......?
 80000320 376c7ddb 130cdcbf 131cbc00 130cbc6d  7l}............m
 80000330 131cbc00 130c6c75 131cac00 130cdc3f  ......lu.......?
 80000340 b7bcbeed 938cecdf 939cbc00 938cdc76  ...............v
 80000350 939cbc00 938cbc7a 939cac00 938cec1f  .......z........
 80000360 375ddf76 130dfd6f 131dbd00 130d6d3b  7].v...o......m;
 80000370 131dbd00 130d5d7d 131dad00 130dfd2f  ......]}......./
 80000380 b7bd6fbb 938dfdb7 939dbd00 938dbd5d  ..o............]
 80000390 939dbd00 938dad3e 939dad00 938dfd37  .......>.......7
 800003a0 37deb7dd 130efe5b 131ebe00 130ede6e  7......[.......n
 800003b0 131ebe00 130e5e5f 131eae00 130efe1b  ......^_........
 800003c0 b7fedbee 938efead 939ebe00 938e6e77  ..............nw
 800003d0 939ebe00 938eae6f 939eae00 938efe2d  .......o.......-
 800003e0 37ff6df7 130fff56 131fbf00 130fbf7b  7.m....V.......{
 800003f0 131fbf00 130fdf37 131faf00 130fff16  .......7........
 80000400 b70fb7fb 938f7fab 939fbf00 938fdf7d  ...............}
 80000410 939fbf00 938fef5b 939faf00 938f7f2b  .......[.......+
 80000420 97340000 938484be 13000000 13000000  .4..............
 80000430 13000000 13000000 13000000 13000000  ................
 80000440 930b1000 939b3b02 93cbfbff 930b1000  ......;.........
 80000450 939b3b02 93cbfbff b3d37b41 23b07400  ..;.......{A#.t.
 80000460 1305f0ff 63047500 6ff0dfbb 93071000  ....c.u.o.......
 80000470 93970702 93013000 b3d13740 23b43400  ......0...7@#.4.
 80000480 37050020 63043500 6ff0dfb9 13021000  7.. c.5.o.......
 80000490 13120202 1342f2ff 13021000 13120202  .....B..........
 800004a0 1342f2ff 33524240 23b84400 1305f0ff  .B..3RB@#.D.....
 800004b0 63044500 6ff01fb7 b73d3333 938d3d33  c.E.o....=33..=3
 800004c0 939dbd00 938d9d19 939dbd00 938dcd4c  ...............L
 800004d0 939dad00 938d3d33 130c0000 33df8d41  ......=3....3..A
 800004e0 23bce401 37353303 1b053533 1315c500  #...753...53....
 800004f0 13053533 1315c500 13053533 1315c500  ..53......53....
 80000500 13053533 6304e501 6ff0dfb1 130a1000  ..53c...o.......
 80000510 13091000 335a2a41 23b04403 13050000  ....3Z*A#.D.....
 80000520 63044501 6ff01fb0 1301f0ff 1311f103  c.E.o...........
 80000530 93072000 335cf140 23b48403 1b05f0ff  .. .3\.@#.......
 80000540 1315d503 63048501 6ff0dfad 93060000  ....c...o.......
 80000550 1304e000 33dd8640 23b8a403 13050000  ....3..@#.......
 80000560 6304a501 6ff01fac 1307f0ff 13571700  c...o........W..
 80000570 13000000 335e0740 23bcc403 1b05f0ff  ....3^.@#.......
 80000580 1315f503 1305f5ff 6304c501 6ff09fa9  ........c...o...
 80000590 930c2000 130ba000 33d36c41 23b06404  .. .....3.lA#.d.
 800005a0 13050000 63046500 6ff0dfa7 930e4000  ....c.e.o.....@.
 800005b0 13067000 33d9ce40 23b42405 13050000  ..p.3..@#.$.....
 800005c0 63042501 6ff01fa6 93018000 130ea000  c.%.o...........
 800005d0 b3d5c141 23b8b404 13050000 6304b500  ...A#.......c...
 800005e0 6ff05fa4 13000000 13086000 33540041  o._.......`.3T.A
 800005f0 23bc8404 13050000 63048500 6ff09fa2  #.......c...o...
 80000600 130c0002 93021000 33565c40 23b0c406  ........3V\@#...
 80000610 13050001 6304c500 6ff0dfa0 930f0004  ....c...o.......
 80000620 930a8000 33d15f41 23b42406 13050000  ....3._A#.$.....
 80000630 63042500 6ff01f9f 13040008 9300e000  c.%.o...........
 80000640 b35a1440 23b85407 13050000 63045501  .Z.@#.T.....c.U.
 80000650 6ff05f9d 93000010 130f3000 33d7e041  o._.......0.3..A
 80000660 23bce406 13020002 6304e200 6ff09f9b  #.......c...o...
 80000670 13080020 1305b000 3350a840 23b00408  ... ....3P.@#...
 80000680 13020000 63040200 6ff0df99 13000000  ....c...o.......
 80000690 13000000 13000000 13000000 13000000  ................
 800006a0 97310000 9381019f 13000000 13000000  .1..............
 800006b0 13000000 13000000 13000000 13000000  ................
 800006c0 130d0040 930ee000 3355dd41 23b0a100  ...@....3U.A#...
 800006d0 13020000 6304a200 6ff0df94 93041000  ....c...o.......
 800006e0 9394b400 930da002 b3dfb441 23b4f101  ...........A#...
 800006f0 13020000 6304f201 6ff0df92 130b1000  ....c...o.......
 80000700 131bcb00 93094000 b3503b41 23b81100  ......@..P;A#...
 80000710 13020010 63041200 6ff0df90 93081000  ....c...o.......
 80000720 9398d800 93069000 b3d4d840 23bc9100  ...........@#...
 80000730 13020001 63049200 6ff0df8e 13091000  ....c...o.......
 80000740 1319e900 9303f001 b3567940 23b0d102  .........Vy@#...
 80000750 13020000 6304d200 6ff0df8c 93031000  ....c...o.......
 80000760 9393f300 930f9000 b3d9f341 23b43103  ...........A#.1.
 80000770 13020004 63043201 6ff0df8a 930a1000  ....c.2.o.......
 80000780 939a0a01 130d3000 b3dbaa41 23b87103  ......0....A#.q.
 80000790 37220000 63047201 6ff0df88 13051000  7"..c.r.o.......
 800007a0 13151501 93053000 b35eb540 23bcd103  ......0..^.@#...
 800007b0 37420000 6304d201 6ff0df86 93091000  7B..c...o.......
 800007c0 93992901 13018000 b3dd2940 23b0b105  ..).......)@#...
 800007d0 13020040 6304b201 6ff0df84 13061000  ...@c...o.......
 800007e0 13163601 13037000 b3586640 23b41105  ..6...p..Xf@#...
 800007f0 37120000 63041201 6ff0df82 93021000  7...c...o.......
 80000800 93924201 13070002 33dbe240 23b86105  ..B.....3..@#.a.
 80000810 13020000 63046201 6ff0df80 13031000  ....c.b.o.......
 80000820 13135301 93044000 33589340 23bc0105  ..S...@.3X.@#...
 80000830 37020200 63040201 6ff0cffe 130f1000  7...c...o.......
 80000840 131f6f01 930ca002 b3529f41 23b05106  ..o......R.A#.Q.
 80000850 13020000 63045200 6ff0cffc 130e1000  ....c.R.o.......
 80000860 131e7e01 130a5001 b3574e41 23b4f106  ..~...P..WNA#...
 80000870 13024000 6304f200 6ff0cffa 93051000  ..@.c...o.......
 80000880 93958501 93085001 b3dc1541 23b89107  ......P....A#...
 80000890 93008000 63849001 6ff0cff8 13051000  ....c...o.......
 800008a0 13159501 9305f001 3356b540 23bcc106  ........3V.@#...
 800008b0 93000000 6384c000 6ff0cff6 13051000  ....c...o.......
 800008c0 1315a501 93050001 3356b540 23b0c108  ........3V.@#...
 800008d0 93000040 6384c000 6ff0cff4 13051000  ...@c...o.......
 800008e0 1315b501 93052000 3356b540 23b4c108  ...... .3V.@#...
 800008f0 b7000002 6384c000 6ff0cff2 13051000  ....c...o.......
 80000900 1315c501 9305d000 3356b540 23b8c108  ........3V.@#...
 80000910 b7800000 6384c000 6ff0cff0 13051000  ....c...o.......
 80000920 1315d501 93053000 3356b540 23bcc108  ......0.3V.@#...
 80000930 b7000004 6384c000 6ff0cfee 13051000  ....c...o.......
 80000940 1315e501 9305c000 3356b540 23b0c10a  ........3V.@#...
 80000950 b7000400 6384c000 6ff0cfec 13051000  ....c...o.......
 80000960 1315f501 9305b000 3356b540 23b4c10a  ........3V.@#...
 80000970 b7001000 6384c000 6ff0cfea 13051000  ....c...o.......
 80000980 13151502 9305a000 3356b540 23b8c10a  ........3V.@#...
 80000990 b7008000 6384c000 6ff0cfe8 13051000  ....c...o.......
 800009a0 13152502 9305e000 3356b540 23bcc10a  ..%.....3V.@#...
 800009b0 b7001000 6384c000 6ff0cfe6 13051000  ....c...o.......
 800009c0 13153502 9305f000 3356b540 23b0c10c  ..5.....3V.@#...
 800009d0 b7001000 6384c000 6ff0cfe4 13051000  ....c...o.......
 800009e0 13154502 93050002 3356b540 23b4c10c  ..E.....3V.@#...
 800009f0 93000001 6384c000 6ff0cfe2 13051000  ....c...o.......
 80000a00 13155502 9305f002 3356b540 23b8c10c  ..U.....3V.@#...
 80000a10 93000000 6384c000 6ff0cfe0 13051000  ....c...o.......
 80000a20 13156502 9305a002 3356b540 23bcc10c  ..e.....3V.@#...
 80000a30 93000000 6384c000 6ff0cfde 13051000  ....c...o.......
 80000a40 13157502 93050001 3356b540 23b0c10e  ..u.....3V.@#...
 80000a50 b7008000 6384c000 6ff0cfdc 13051000  ....c...o.......
 80000a60 13158502 9305c000 3356b540 23b4c10e  ........3V.@#...
 80000a70 b7000010 6384c000 6ff0cfda 13051000  ....c...o.......
 80000a80 13159502 9305a002 3356b540 23b8c10e  ........3V.@#...
 80000a90 93000000 6384c000 6ff0cfd8 13051000  ....c...o.......
 80000aa0 1315a502 93055000 3356b540 23bcc10e  ......P.3V.@#...
 80000ab0 9b001000 93905002 6384c000 6ff08fd6  ......P.c...o...
 80000ac0 13051000 1315b502 93058000 3356b540  ............3V.@
 80000ad0 23b0c110 9b001000 93903002 6384c000  #.........0.c...
 80000ae0 6ff04fd4 13051000 1315c502 93057003  o.O...........p.
 80000af0 3356b540 23b4c110 93000000 6384c000  3V.@#.......c...
 80000b00 6ff04fd2 13051000 1315d502 93057003  o.O...........p.
 80000b10 3356b540 23b8c110 93000000 6384c000  3V.@#.......c...
 80000b20 6ff04fd0 13051000 1315e502 9305c000  o.O.............
 80000b30 3356b540 23bcc110 9b001000 93902002  3V.@#......... .
 80000b40 6384c000 6ff00fce 13051000 1315f502  c...o...........
 80000b50 9305a002 3356b540 23b0c112 93000002  ....3V.@#.......
 80000b60 6384c000 6ff00fcc 13051000 13150503  c...o...........
 80000b70 9305a002 3356b540 23b4c112 93000004  ....3V.@#.......
 80000b80 6384c000 6ff00fca 13051000 13151503  c...o...........
 80000b90 9305e000 3356b540 23b8c112 9b001000  ....3V.@#.......
 80000ba0 93903002 6384c000 6ff0cfc7 13051000  ..0.c...o.......
 80000bb0 13152503 9305c000 3356b540 23bcc112  ..%.....3V.@#...
 80000bc0 9b001000 93906002 6384c000 6ff08fc5  ......`.c...o...
 80000bd0 13051000 13153503 9305d003 3356b540  ......5.....3V.@
 80000be0 23b0c114 93000000 6384c000 6ff08fc3  #.......c...o...
 80000bf0 13051000 13154503 9305c000 3356b540  ......E.....3V.@
 80000c00 23b4c114 9b001000 93908002 6384c000  #...........c...
 80000c10 6ff04fc1 13051000 13155503 9305e000  o.O.......U.....
 80000c20 3356b540 23b8c114 9b001000 93907002  3V.@#.........p.
 80000c30 6384c000 6ff00fbf 13051000 13156503  c...o.........e.
 80000c40 9305d003 3356b540 23bcc114 93000000  ....3V.@#.......
 80000c50 6384c000 6ff00fbd 13051000 13157503  c...o.........u.
 80000c60 93055001 3356b540 23b0c116 9b001000  ..P.3V.@#.......
 80000c70 93902002 6384c000 6ff0cfba 13051000  .. .c...o.......
 80000c80 13158503 93054000 3356b540 23b4c116  ......@.3V.@#...
 80000c90 9b001000 93904003 6384c000 6ff08fb8  ......@.c...o...
 80000ca0 13051000 13159503 93051000 3356b540  ............3V.@
 80000cb0 23b8c116 9b001000 93908003 6384c000  #...........c...
 80000cc0 6ff04fb6 13051000 1315a503 9305d003  o.O.............
 80000cd0 3356b540 23bcc116 93000000 6384c000  3V.@#.......c...
 80000ce0 6ff04fb4 13051000 1315b503 93053000  o.O...........0.
 80000cf0 3356b540 23b0c118 9b001000 93908003  3V.@#...........
 80000d00 6384c000 6ff00fb2 13051000 1315c503  c...o...........
 80000d10 93050001 3356b540 23b4c118 9b001000  ....3V.@#.......
 80000d20 9390c002 6384c000 6ff0cfaf 13051000  ....c...o.......
 80000d30 1315d503 9305f002 3356b540 23b8c118  ........3V.@#...
 80000d40 b7400000 6384c000 6ff0cfad 13051000  .@..c...o.......
 80000d50 1315e503 93052001 3356b540 23bcc118  ...... .3V.@#...
 80000d60 9b001000 9390c002 6384c000 6ff08fab  ........c...o...
 80000d70 1305e0ff 9305d003 3356b540 23b0c11a  ........3V.@#...
 80000d80 9300f0ff 6384c000 6ff0cfa9 1305d0ff  ....c...o.......
 80000d90 93050001 3356b540 23b4c11a 9300f0ff  ....3V.@#.......
 80000da0 6384c000 6ff00fa8 1305b0ff 93055001  c...o.........P.
 80000db0 3356b540 23b8c11a 9300f0ff 6384c000  3V.@#.......c...
 80000dc0 6ff04fa6 130570ff 93052000 3356b540  o.O...p... .3V.@
 80000dd0 23bcc11a 9300d0ff 6384c000 6ff08fa4  #.......c...o...
 80000de0 1305f0fe 9305a000 3356b540 23b0c11c  ........3V.@#...
 80000df0 9300f0ff 6384c000 6ff0cfa2 1305f0fd  ....c...o.......
 80000e00 93050002 3356b540 23b4c11c 9300f0ff  ....3V.@#.......
 80000e10 6384c000 6ff00fa1 1305f0fb 93050000  c...o...........
 80000e20 3356b540 23b8c11c 9300f0fb 6384c000  3V.@#.......c...
 80000e30 6ff04f9f 1305f0f7 93057000 3356b540  o.O.......p.3V.@
 80000e40 23bcc11c 9300e0ff 6384c000 6ff08f9d  #.......c...o...
 80000e50 1305f0ef 93057000 3356b540 23b0c11e  ......p.3V.@#...
 80000e60 9300d0ff 6384c000 6ff0cf9b 1305f0df  ....c...o.......
 80000e70 9305f003 3356b540 23b4c11e 9300f0ff  ....3V.@#.......
 80000e80 6384c000 6ff00f9a 1305f0bf 93057003  c...o.........p.
 80000e90 3356b540 23b8c11e 9300f0ff 6384c000  3V.@#.......c...
 80000ea0 6ff04f98 13051000 1315b500 1345f5ff  o.O..........E..
 80000eb0 93058000 3356b540 23bcc11e 930070ff  ....3V.@#.....p.
 80000ec0 6384c000 6ff00f96 13051000 1315c500  c...o...........
 80000ed0 1345f5ff 93058000 3356b540 23b0c120  .E......3V.@#.. 
 80000ee0 9300f0fe 6384c000 6ff0cf93 13051000  ....c...o.......
 80000ef0 1315d500 1345f5ff 93057000 3356b540  .....E....p.3V.@
 80000f00 23b4c120 9300f0fb 6384c000 6ff08f91  #.. ....c...o...
 80000f10 13051000 1315e500 1345f5ff 93053000  .........E....0.
 80000f20 3356b540 23b8c120 b7f0ffff 9b80f07f  3V.@#.. ........
 80000f30 6384c000 6ff00f8f 13051000 1315f500  c...o...........
 80000f40 1345f5ff 9305c000 3356b540 23bcc120  .E......3V.@#.. 
 80000f50 930070ff 6384c000 6ff0cf8c 13051000  ..p.c...o.......
 80000f60 13150501 1345f5ff 9305e003 3356b540  .....E......3V.@
 80000f70 23b0c122 9300f0ff 6384c000 6ff08f8a  #.."....c...o...
 80000f80 13051000 13151501 1345f5ff 93050002  .........E......
 80000f90 3356b540 23b4c122 9300f0ff 6384c000  3V.@#.."....c...
 80000fa0 6ff04f88 13051000 13152501 1345f5ff  o.O.......%..E..
 80000fb0 9305c000 3356b540 23b8c122 9300f0fb  ....3V.@#.."....
 80000fc0 6384c000 6ff00f86 13051000 13157503  c...o.........u.
 80000fd0 1345f5ff 93056000 3356b540 23bcc122  .E....`.3V.@#.."
 80000fe0 9b00f0ff 93901003 9380f0ff 6384c000  ............c...
 80000ff0 6ff04f83 13051000 13158503 1345f5ff  o.O..........E..
 80001000 9305e000 3356b540 23b0c124 9b00f0ff  ....3V.@#..$....
 80001010 9390a002 9380f0ff 6384c000 6ff08f80  ........c...o...
 80001020 13051000 13159503 1345f5ff 93055000  .........E....P.
 80001030 3356b540 23b4c124 9b00f0ff 93904003  3V.@#..$......@.
 80001040 9380f0ff 6384c000 6fe0dffd 13051000  ....c...o.......
 80001050 1315a503 1345f5ff 93052000 3356b540  .....E.... .3V.@
 80001060 23b8c124 9b00f0ff 93908003 9380f0ff  #..$............
 80001070 6384c000 6fe01ffb 13051000 1315b503  c...o...........
 80001080 1345f5ff 93057000 3356b540 23bcc124  .E....p.3V.@#..$
 80001090 9b00f0ff 93904003 9380f0ff 6384c000  ......@.....c...
 800010a0 6fe05ff8 13051000 1315c503 1345f5ff  o._..........E..
 800010b0 93054000 3356b540 23b0c126 9b00f0ff  ..@.3V.@#..&....
 800010c0 93908003 9380f0ff 6384c000 6fe09ff5  ........c...o...
 800010d0 13051000 1315d503 1345f5ff 93053000  .........E....0.
 800010e0 3356b540 23b4c126 9b00f0ff 9390a003  3V.@#..&........
 800010f0 9380f0ff 6384c000 6fe0dff2 13051000  ....c...o.......
 80001100 1315e503 1345f5ff 93051000 3356b540  .....E......3V.@
 80001110 23b8c126 9b00f0ff 9390d003 9380f0ff  #..&............
 80001120 6384c000 6fe01ff0 37555555 13055555  c...o...7UUU..UU
 80001130 1315b500 1305a52a 1315b500 13055555  .......*......UU
 80001140 1315a500 13055515 93059000 3356b540  ......U.....3V.@
 80001150 23bcc126 b7b0aa2a 9b80b0aa 9390c000  #..&...*........
 80001160 9380b0aa 9390c000 9380a0aa 6384c000  ............c...
 80001170 6fe05feb 37b5aaaa 1305a5aa 1315b500  o._.7...........
 80001180 13055555 1315b500 1305a52a 1315a500  ..UU.......*....
 80001190 1305a52a 93057000 3356b540 23b0c128  ...*..p.3V.@#..(
 800011a0 b750f5ff 9b805055 9390c000 93805055  .P....PU......PU
 800011b0 9390c000 93805055 9390c000 93805055  ......PU......PU
 800011c0 6384c000 6fe01fe6 13053000 93051000  c...o.....0.....
 800011d0 3356b540 23b4c128 93001000 6384c000  3V.@#..(....c...
 800011e0 6fe05fe4 13055000 93050002 3356b540  o._...P.....3V.@
 800011f0 23b8c128 93000000 6384c000 6fe09fe2  #..(....c...o...
 80001200 37656666 13056566 1315b500 13053533  7eff..ef......53
 80001210 1315b500 13059519 1315a500 13056526  ..............e&
 80001220 9305c000 3356b540 23bcc128 b7303303  ....3V.@#..(.03.
 80001230 9b803033 9390c000 93803033 9390d000  ..03......03....
 80001240 93806066 6384c000 6fe0dfdd 37050000  ..`fc...o...7...
 80001250 1305f5ff 1315b500 13057525 1315b500  ..........u%....
 80001260 1305356c 1315a500 1305d50c 9305b000  ..5l............
 80001270 3356b540 23b0c12a b760e9ff 9b8010f6  3V.@#..*.`......
 80001280 6384c000 6fe01fda 37050000 13050500  c...o...7.......
 80001290 1315b500 1305855a 1315b500 1305c513  .......Z........
 800012a0 1315a500 13053533 9305f001 3356b540  ......53....3V.@
 800012b0 23b4c12a 93001000 6384c000 6fe09fd6  #..*....c...o...
 800012c0 37555555 13055555 1315b500 1305a52a  7UUU..UU.......*
 800012d0 1315b500 13055555 1315a500 13054515  ......UU......E.
 800012e0 93057003 3356b540 23b8c12a 9300a00a  ..p.3V.@#..*....
 800012f0 6384c000 6fe01fd3 37353333 13053533  c...o...7533..53
 80001300 1315b500 13059519 1315b500 1305c54c  ...............L
 80001310 1315a500 13052533 93050002 3356b540  ......%3....3V.@
 80001320 23bcc12a b7303333 9b803033 6384c000  #..*.033..03c...
 80001330 6fe05fcf 37656666 13056566 1315b500  o._.7eff..ef....
 80001340 13053533 1315b500 13059519 1315a500  ..53............
 80001350 13055526 93059000 3356b540 23b0c12c  ..U&....3V.@#..,
 80001360 b7303333 9b803033 9390c000 93803033  .033..03......03
 80001370 9390c000 93803033 6384c000 6fe09fca  ......03c...o...
 80001380 37050000 13050500 1315b500 1305855a  7..............Z
 80001390 1315b500 1305c513 1315a500 13052533  ..............%3
 800013a0 93055001 3356b540 23b4c12c 9300805a  ..P.3V.@#..,...Z
 800013b0 6384c000 6fe01fc7 37555555 13055555  c...o...7UUU..UU
 800013c0 1315b500 1305a52a 1315b500 13055555  .......*......UU
 800013d0 1315a500 13056515 9305e000 3356b540  ......e.....3V.@
 800013e0 23b8c12c b7505501 9b805055 9390c000  #..,.PU...PU....
 800013f0 93805055 9390c000 93805055 6384c000  ..PU......PUc...
 80001400 6fe05fc2 37b5aaaa 1305a5aa 1315b500  o._.7...........
 80001410 13055555 1315b500 1305a52a 1315a500  ..UU.......*....
 80001420 1305b52a 9305e000 3356b540 23bcc12c  ...*....3V.@#..,
 80001430 b7b0aafe 9b80b0aa 9390c000 9380b0aa  ................
 80001440 9390c000 9380a0aa 6384c000 6fe09fbd  ........c...o...
 80001450 13056000 9305e003 3356b540 23b0c12e  ..`.....3V.@#...
 80001460 93000000 6384c000 6fe0dfbb 37353333  ....c...o...7533
 80001470 13053533 1315b500 13059519 1315b500  ..53............
 80001480 1305c54c 1315a500 13054533 93052001  ...L......E3.. .
 80001490 3356b540 23b4c12e b7d00c00 9b80d0cc  3V.@#...........
 800014a0 9390c000 9380d0cc 9390c000 9380c0cc  ................
 800014b0 6384c000 6fe01fb7 37656666 13056566  c...o...7eff..ef
 800014c0 1315b500 13053533 1315b500 13059519  ......53........
 800014d0 1315a500 13057526 9305e000 3356b540  ......u&....3V.@
 800014e0 23b8c12e b7d0cc00 9b80d0cc 9390c000  #...............
 800014f0 9380d0cc 9390d000 93809099 6384c000  ............c...
 80001500 6fe05fb2 37050000 1305f5ff 1315b500  o._.7...........
 80001510 13057525 1315b500 1305356c 1315a500  ..u%......5l....
 80001520 1305e50c 93051001 3356b540 23bcc12e  ........3V.@#...
 80001530 b7a0ffff 9b80d057 6384c000 6fe09fae  .......Wc...o...
 80001540 37050000 13050500 1315b500 1305855a  7..............Z
 80001550 1315b500 1305c513 1315a500 13054533  ..............E3
 80001560 9305a002 3356b540 23b0c130 93000000  ....3V.@#..0....
 80001570 6384c000 6fe01fab 13051000 1315b503  c...o...........
 80001580 1345f5ff 9305b003 3356b540 23b4c130  .E......3V.@#..0
 80001590 9300e0ff 6384c000 6fe0dfa8 13051000  ....c...o.......
 800015a0 13153501 1345f5ff 93050002 3356b540  ..5..E......3V.@
 800015b0 23b8c130 9300f0ff 6384c000 6fe09fa6  #..0....c...o...
 800015c0 13051000 13154501 1345f5ff 93051001  ......E..E......
 800015d0 3356b540 23bcc130 930070ff 6384c000  3V.@#..0..p.c...
 800015e0 6fe05fa4 13051000 13155501 1345f5ff  o._.......U..E..
 800015f0 93055000 3356b540 23b0c132 b700ffff  ..P.3V.@#..2....
 80001600 9b80f0ff 6384c000 6fe0dfa1 13051000  ....c...o.......
 80001610 13156501 1345f5ff 93050002 3356b540  ..e..E......3V.@
 80001620 23b4c132 9300f0ff 6384c000 6fe09f9f  #..2....c...o...
 80001630 13051000 13157501 1345f5ff 9305c000  ......u..E......
 80001640 3356b540 23b8c132 b7f0ffff 9b80f07f  3V.@#..2........
 80001650 6384c000 6fe01f9d 13051000 13158501  c...o...........
 80001660 1345f5ff 9305a000 3356b540 23bcc132  .E......3V.@#..2
 80001670 b7c0ffff 9b80f0ff 6384c000 6fe09f9a  ........c...o...
 80001680 13051000 13159501 1345f5ff 9305c000  .........E......
 80001690 3356b540 23b0c134 b7e0ffff 9b80f0ff  3V.@#..4........
 800016a0 6384c000 6fe01f98 13051000 1315a501  c...o...........
 800016b0 1345f5ff 93053000 3356b540 23b4c134  .E....0.3V.@#..4
 800016c0 b70080ff 9b80f0ff 6384c000 6fe09f95  ........c...o...
 800016d0 13051000 1315b501 1345f5ff 9305d003  .........E......
 800016e0 3356b540 23b8c134 9300f0ff 6384c000  3V.@#..4....c...
 800016f0 6fe05f93 13051000 1315c501 1345f5ff  o._..........E..
 80001700 93051001 3356b540 23bcc134 b7f0ffff  ....3V.@#..4....
 80001710 9b80f07f 6384c000 6fe0df90 13051000  ....c...o.......
 80001720 1315d501 1345f5ff 9305f002 3356b540  .....E......3V.@
 80001730 23b0c136 9300f0ff 6384c000 6fe09f8e  #..6....c...o...
 80001740 13051000 1315e501 1345f5ff 93059000  .........E......
 80001750 3356b540 23b4c136 b700e0ff 9b80f0ff  3V.@#..6........
 80001760 6384c000 6fe01f8c 13051000 1315f501  c...o...........
 80001770 1345f5ff 9305d000 3356b540 23b8c136  .E......3V.@#..6
 80001780 b700fcff 9b80f0ff 6384c000 6fe09f89  ........c...o...
 80001790 13051000 13151502 1345f5ff 9305a000  .........E......
 800017a0 3356b540 23bcc136 b70080ff 9b80f0ff  3V.@#..6........
 800017b0 6384c000 6fe01f87 13051000 13152502  c...o.........%.
 800017c0 1345f5ff 9305b003 3356b540 23b0c138  .E......3V.@#..8
 800017d0 9300f0ff 6384c000 6fe0df84 13051000  ....c...o.......
 800017e0 13154502 1345f5ff 9305e000 3356b540  ..E..E......3V.@
 800017f0 23b4c138 b700c0ff 9b80f0ff 6384c000  #..8........c...
 80001800 6fe05f82 13051000 13155502 1345f5ff  o._.......U..E..
 80001810 9305f002 3356b540 23b8c138 9300f0ff  ....3V.@#..8....
 80001820 6384c000 6fe01f80 13051000 13156502  c...o.........e.
 80001830 1345f5ff 9305a000 3356b540 23bcc138  .E......3V.@#..8
 80001840 b70000f0 9b80f0ff 6384c000 6fe08ffd  ........c...o...
 80001850 13051000 13157502 1345f5ff 93057003  ......u..E....p.
 80001860 3356b540 23b0c13a 9300f0ff 6384c000  3V.@#..:....c...
 80001870 6fe04ffb 13051000 13158502 1345f5ff  o.O..........E..
 80001880 93059000 3356b540 23b4c13a 9b00f0ff  ....3V.@#..:....
 80001890 9390f001 9380f0ff 6384c000 6fe08ff8  ........c...o...
 800018a0 13051000 13159502 1345f5ff 9305d000  .........E......
 800018b0 3356b540 23b8c13a b70000f0 9b80f0ff  3V.@#..:........
 800018c0 6384c000 6fe00ff6 13051000 1315a502  c...o...........
 800018d0 1345f5ff 9305f001 3356b540 23bcc13a  .E......3V.@#..:
 800018e0 b7f0ffff 9b80f07f 6384c000 6fe08ff3  ........c...o...
 800018f0 13051000 1315b502 1345f5ff 93052001  .........E.... .
 80001900 3356b540 23b0c13c b70000fe 9b80f0ff  3V.@#..<........
 80001910 6384c000 6fe00ff1 13051000 1315c502  c...o...........
 80001920 1345f5ff 93057000 3356b540 23b4c13c  .E....p.3V.@#..<
 80001930 9b00f0ff 93905002 9380f0ff 6384c000  ......P.....c...
 80001940 6fe04fee 13051000 1315d502 1345f5ff  o.O..........E..
 80001950 93051000 3356b540 23b8c13c 9b00f0ff  ....3V.@#..<....
 80001960 9390c002 9380f0ff 6384c000 6fe08feb  ........c...o...
 80001970 13051000 1315e502 1345f5ff 9305f000  .........E......
 80001980 3356b540 23bcc13c 9b00f0ff 9390f001  3V.@#..<........
 80001990 9380f0ff 6384c000 6fe0cfe8 13051000  ....c...o.......
 800019a0 1315f502 1345f5ff 9305b000 3356b540  .....E......3V.@
 800019b0 23b0c13e 9b00f0ff 93904002 9380f0ff  #..>......@.....
 800019c0 6384c000 6fe00fe6 13051000 13150503  c...o...........
 800019d0 1345f5ff 93053000 3356b540 23b4c13e  .E....0.3V.@#..>
 800019e0 9b00f0ff 9390d002 9380f0ff 6384c000  ............c...
 800019f0 6fe04fe3 13051000 13151503 1345f5ff  o.O..........E..
 80001a00 9305f003 3356b540 23b8c13e 9300f0ff  ....3V.@#..>....
 80001a10 6384c000 6fe00fe1 13051000 13152503  c...o.........%.
 80001a20 1345f5ff 93057000 3356b540 23bcc13e  .E....p.3V.@#..>
 80001a30 9b00f0ff 9390b002 9380f0ff 6384c000  ............c...
 80001a40 6fe04fde 13051000 13153503 1345f5ff  o.O.......5..E..
 80001a50 93051000 3356b540 23b0c140 9b00f0ff  ....3V.@#..@....
 80001a60 93902003 9380f0ff 6384c000 6fe08fdb  .. .....c...o...
 80001a70 13051000 13154503 1345f5ff 9305f000  ......E..E......
 80001a80 3356b540 23b4c140 9b00f0ff 93905002  3V.@#..@......P.
 80001a90 9380f0ff 6384c000 6fe0cfd8 13051000  ....c...o.......
 80001aa0 13155503 1345f5ff 9305a000 3356b540  ..U..E......3V.@
 80001ab0 23b8c140 9b00f0ff 9390b002 9380f0ff  #..@............
 80001ac0 6384c000 6fe00fd6 13051000 13156503  c...o.........e.
 80001ad0 1345f5ff 9305e000 3356b540 23bcc140  .E......3V.@#..@
 80001ae0 9b00f0ff 93908002 9380f0ff 6384c000  ............c...
 80001af0 6fe04fd3 13051000 13153502 1345f5ff  o.O.......5..E..
 80001b00 93057000 3356b540 23b0c142 b70000f0  ..p.3V.@#..B....
 80001b10 9b80f0ff 6384c000 6fe0cfd0 13051000  ....c...o.......
 80001b20 13150502 1345f5ff 93050000 3356b540  .....E......3V.@
 80001b30 23b4c142 9b00f0ff 93900002 9380f0ff  #..B............
 80001b40 6384c000 6fe00fce 1305f0ff 13551500  c...o........U..
 80001b50 93053000 3356b540 23b8c142 9b001000  ..0.3V.@#..B....
 80001b60 9390c003 9380f0ff 6384c000 6fe08fcb  ........c...o...
 80001b70 13050001 93056000 3356b540 23bcc142  ......`.3V.@#..B
 80001b80 93000000 6384c000 6fe0cfc9 13050020  ....c...o...... 
 80001b90 9305b000 3356b540 23b0c144 93000000  ....3V.@#..D....
 80001ba0 6384c000 6fe00fc8 6f008003 8334811f  c...o...o....4..
 80001bb0 03330120 33039300 37030000 13030300  .3. 3...7.......
 80001bc0 1313b300 1303635d 1313b300 13036343  ......c]......cC
 80001bd0 1313a300 1303032d 23be64fe 6f004000  .......-#.d.o.@.
 80001be0 13050000 6f000001 00000000 00000000  ....o...........
 80001bf0 00000000 13050500 73001000 6f000000  ........s...o...
 80001c00 130101ff 17050000 1305c501 23341100  ............#4..
 80001c10 efe00fc0 13050500 73001000 6f000000  ........s...o...
 80001c20 00000000 00000000 00000000 00000000  ................
 80001c30 00000000 00000000 00000000 00000000  ................
 80001c40 00000000 00000000 00000000 00000000  ................
 80001c50 00000000 00000000 00000000 00000000  ................
 80001c60 00000000 00000000 00000000 00000000  ................
 80001c70 00000000 00000000 00000000 00000000  ................
 80001c80 00000000 00000000 00000000 00000000  ................
 80001c90 00000000 00000000 00000000 00000000  ................
 80001ca0 00000000 00000000 00000000 00000000  ................
 80001cb0 00000000 00000000 00000000 00000000  ................
 80001cc0 00000000 00000000 00000000 00000000  ................
 80001cd0 00000000 00000000 00000000 00000000  ................
 80001ce0 00000000 00000000 00000000 00000000  ................
 80001cf0 00000000 00000000 00000000 00000000  ................
 80001d00 00000000 00000000 00000000 00000000  ................
 80001d10 00000000 00000000 00000000 00000000  ................
 80001d20 00000000 00000000 00000000 00000000  ................
 80001d30 00000000 00000000 00000000 00000000  ................
 80001d40 00000000 00000000 00000000 00000000  ................
 80001d50 00000000 00000000 00000000 00000000  ................
 80001d60 00000000 00000000 00000000 00000000  ................
 80001d70 00000000 00000000 00000000 00000000  ................
 80001d80 00000000 00000000 00000000 00000000  ................
 80001d90 00000000 00000000 00000000 00000000  ................
 80001da0 00000000 00000000 00000000 00000000  ................
 80001db0 00000000 00000000 00000000 00000000  ................
 80001dc0 00000000 00000000 00000000 00000000  ................
 80001dd0 00000000 00000000 00000000 00000000  ................
 80001de0 00000000 00000000 00000000 00000000  ................
 80001df0 00000000 00000000 00000000 00000000  ................
 80001e00 00000000 00000000 00000000 00000000  ................
 80001e10 00000000 00000000 00000000 00000000  ................
 80001e20 00000000 00000000 00000000 00000000  ................
 80001e30 00000000 00000000 00000000 00000000  ................
 80001e40 00000000 00000000 00000000 00000000  ................
 80001e50 00000000 00000000 00000000 00000000  ................
 80001e60 00000000 00000000 00000000 00000000  ................
 80001e70 00000000 00000000 00000000 00000000  ................
 80001e80 00000000 00000000 00000000 00000000  ................
 80001e90 00000000 00000000 00000000 00000000  ................
 80001ea0 00000000 00000000 00000000 00000000  ................
 80001eb0 00000000 00000000 00000000 00000000  ................
 80001ec0 00000000 00000000 00000000 00000000  ................
 80001ed0 00000000 00000000 00000000 00000000  ................
 80001ee0 00000000 00000000 00000000 00000000  ................
 80001ef0 00000000 00000000 00000000 00000000  ................
 80001f00 00000000 00000000 00000000 00000000  ................
 80001f10 00000000 00000000 00000000 00000000  ................
 80001f20 00000000 00000000 00000000 00000000  ................
 80001f30 00000000 00000000 00000000 00000000  ................
 80001f40 00000000 00000000 00000000 00000000  ................
 80001f50 00000000 00000000 00000000 00000000  ................
 80001f60 00000000 00000000 00000000 00000000  ................
 80001f70 00000000 00000000 00000000 00000000  ................
 80001f80 00000000 00000000 00000000 00000000  ................
 80001f90 00000000 00000000 00000000 00000000  ................
 80001fa0 00000000 00000000 00000000 00000000  ................
 80001fb0 00000000 00000000 00000000 00000000  ................
 80001fc0 00000000 00000000 00000000 00000000  ................
 80001fd0 00000000 00000000 00000000 00000000  ................
 80001fe0 00000000 00000000 00000000 00000000  ................
 80001ff0 00000000 00000000 00000000 00000000  ................
 80002000 fecabeba fecabeba fecabeba fecabeba  ................
 80002010 efbeadde efbeadde 00000000 00000000  ................
 80002020 00000000 00000000 00000000 00000000  ................
 80002030 00000000 00000000 00000000 00000000  ................
 80002040 00000000 00000000 00000000 00000000  ................
 80002050 00000000 00000000 00000000 00000000  ................
 80002060 00000000 00000000 00000000 00000000  ................
 80002070 00000000 00000000 00000000 00000000  ................
 80002080 00000000 00000000 00000000 00000000  ................
 80002090 00000000 00000000 00000000 00000000  ................
 800020a0 00000000 00000000 00000000 00000000  ................
 800020b0 00000000 00000000 00000000 00000000  ................
 800020c0 00000000 00000000 00000000 00000000  ................
 800020d0 00000000 00000000 00000000 00000000  ................
 800020e0 00000000 00000000 00000000 00000000  ................
 800020f0 00000000 00000000 00000000 00000000  ................
 80002100 00000000 00000000 00000000 00000000  ................
 80002110 00000000 00000000 00000000 00000000  ................
 80002120 00000000 00000000 00000000 00000000  ................
 80002130 00000000 00000000 00000000 00000000  ................
 80002140 00000000 00000000 00000000 00000000  ................
 80002150 00000000 00000000 00000000 00000000  ................
 80002160 00000000 00000000 00000000 00000000  ................
 80002170 00000000 00000000 00000000 00000000  ................
 80002180 00000000 00000000 00000000 00000000  ................
 80002190 00000000 00000000 00000000 00000000  ................
 800021a0 00000000 00000000 00000000 00000000  ................
 800021b0 00000000 00000000 00000000 00000000  ................
 800021c0 00000000 00000000 00000000 00000000  ................
 800021d0 00000000 00000000 00000000 00000000  ................
 800021e0 00000000 00000000 00000000 00000000  ................
 800021f0 00000000 00000000 00000000 00000000  ................
 80002200 00000000 00000000 00000000 00000000  ................
 80002210 00000000 00000000 00000000 00000000  ................
 80002220 00000000 00000000 00000000 00000000  ................
 80002230 00000000 00000000 00000000 00000000  ................
 80002240 00000000 00000000 00000000 00000000  ................
 80002250 00000000 00000000 00000000 00000000  ................
 80002260 00000000 00000000 00000000 00000000  ................
 80002270 00000000 00000000 00000000 00000000  ................
 80002280 00000000 00000000 00000000 00000000  ................
 80002290 00000000 00000000 00000000 00000000  ................
 800022a0 00000000 00000000 00000000 00000000  ................
 800022b0 00000000 00000000 00000000 00000000  ................
 800022c0 00000000 00000000 00000000 00000000  ................
 800022d0 00000000 00000000 00000000 00000000  ................
 800022e0 00000000 00000000 00000000 00000000  ................
 800022f0 00000000 00000000 00000000 00000000  ................
 80002300 00000000 00000000 00000000 00000000  ................
 80002310 00000000 00000000 00000000 00000000  ................
 80002320 00000000 00000000 00000000 00000000  ................
 80002330 00000000 00000000 00000000 00000000  ................
 80002340 00000000 00000000 00000000 00000000  ................
 80002350 00000000 00000000 00000000 00000000  ................
 80002360 00000000 00000000 00000000 00000000  ................
 80002370 00000000 00000000 00000000 00000000  ................
 80002380 00000000 00000000 00000000 00000000  ................
 80002390 00000000 00000000 00000000 00000000  ................
 800023a0 00000000 00000000 00000000 00000000  ................
 800023b0 00000000 00000000 00000000 00000000  ................
 800023c0 00000000 00000000 00000000 00000000  ................
 800023d0 00000000 00000000 00000000 00000000  ................
 800023e0 00000000 00000000 00000000 00000000  ................
 800023f0 00000000 00000000 00000000 00000000  ................
 80002400 00000000 00000000 00000000 00000000  ................
 80002410 00000000 00000000 00000000 00000000  ................
 80002420 00000000 00000000 00000000 00000000  ................
 80002430 00000000 00000000 00000000 00000000  ................
 80002440 00000000 00000000 00000000 00000000  ................
 80002450 00000000 00000000 00000000 00000000  ................
 80002460 00000000 00000000 00000000 00000000  ................
 80002470 00000000 00000000 00000000 00000000  ................
 80002480 00000000 00000000 00000000 00000000  ................
 80002490 00000000 00000000 00000000 00000000  ................
 800024a0 00000000 00000000 00000000 00000000  ................
 800024b0 00000000 00000000 00000000 00000000  ................
 800024c0 00000000 00000000 00000000 00000000  ................
 800024d0 00000000 00000000 00000000 00000000  ................
 800024e0 00000000 00000000 00000000 00000000  ................
 800024f0 00000000 00000000 00000000 00000000  ................
 80002500 00000000 00000000 00000000 00000000  ................
 80002510 00000000 00000000 00000000 00000000  ................
 80002520 00000000 00000000 00000000 00000000  ................
 80002530 00000000 00000000 00000000 00000000  ................
 80002540 00000000 00000000 00000000 00000000  ................
 80002550 00000000 00000000 00000000 00000000  ................
 80002560 00000000 00000000 00000000 00000000  ................
 80002570 00000000 00000000 00000000 00000000  ................
 80002580 00000000 00000000 00000000 00000000  ................
 80002590 00000000 00000000 00000000 00000000  ................
 800025a0 00000000 00000000 00000000 00000000  ................
 800025b0 00000000 00000000 00000000 00000000  ................
 800025c0 00000000 00000000 00000000 00000000  ................
 800025d0 00000000 00000000 00000000 00000000  ................
 800025e0 00000000 00000000 00000000 00000000  ................
 800025f0 00000000 00000000 00000000 00000000  ................
 80002600 00000000 00000000 00000000 00000000  ................
 80002610 00000000 00000000 00000000 00000000  ................
 80002620 00000000 00000000 00000000 00000000  ................
 80002630 00000000 00000000 00000000 00000000  ................
 80002640 00000000 00000000 00000000 00000000  ................
 80002650 00000000 00000000 00000000 00000000  ................
 80002660 00000000 00000000 00000000 00000000  ................
 80002670 00000000 00000000 00000000 00000000  ................
 80002680 00000000 00000000 00000000 00000000  ................
 80002690 00000000 00000000 00000000 00000000  ................
 800026a0 00000000 00000000 00000000 00000000  ................
 800026b0 00000000 00000000 00000000 00000000  ................
 800026c0 00000000 00000000 00000000 00000000  ................
 800026d0 00000000 00000000 00000000 00000000  ................
 800026e0 00000000 00000000 00000000 00000000  ................
 800026f0 00000000 00000000 00000000 00000000  ................
 80002700 00000000 00000000 00000000 00000000  ................
 80002710 00000000 00000000 00000000 00000000  ................
 80002720 00000000 00000000 00000000 00000000  ................
 80002730 00000000 00000000 00000000 00000000  ................
 80002740 00000000 00000000 00000000 00000000  ................
 80002750 00000000 00000000 00000000 00000000  ................
 80002760 00000000 00000000 00000000 00000000  ................
 80002770 00000000 00000000 00000000 00000000  ................
 80002780 00000000 00000000 00000000 00000000  ................
 80002790 00000000 00000000 00000000 00000000  ................
 800027a0 00000000 00000000 00000000 00000000  ................
 800027b0 00000000 00000000 00000000 00000000  ................
 800027c0 00000000 00000000 00000000 00000000  ................
 800027d0 00000000 00000000 00000000 00000000  ................
 800027e0 00000000 00000000 00000000 00000000  ................
 800027f0 00000000 00000000 00000000 00000000  ................
 80002800 00000000 00000000 00000000 00000000  ................
 80002810 00000000 00000000 00000000 00000000  ................
 80002820 00000000 00000000 00000000 00000000  ................
 80002830 00000000 00000000 00000000 00000000  ................
 80002840 00000000 00000000 00000000 00000000  ................
 80002850 00000000 00000000 00000000 00000000  ................
 80002860 00000000 00000000 00000000 00000000  ................
 80002870 00000000 00000000 00000000 00000000  ................
 80002880 00000000 00000000 00000000 00000000  ................
 80002890 00000000 00000000 00000000 00000000  ................
 800028a0 00000000 00000000 00000000 00000000  ................
 800028b0 00000000 00000000 00000000 00000000  ................
 800028c0 00000000 00000000 00000000 00000000  ................
 800028d0 00000000 00000000 00000000 00000000  ................
 800028e0 00000000 00000000 00000000 00000000  ................
 800028f0 00000000 00000000 00000000 00000000  ................
 80002900 00000000 00000000 00000000 00000000  ................
 80002910 00000000 00000000 00000000 00000000  ................
 80002920 00000000 00000000 00000000 00000000  ................
 80002930 00000000 00000000 00000000 00000000  ................
 80002940 00000000 00000000 00000000 00000000  ................
 80002950 00000000 00000000 00000000 00000000  ................
 80002960 00000000 00000000 00000000 00000000  ................
 80002970 00000000 00000000 00000000 00000000  ................
 80002980 00000000 00000000 00000000 00000000  ................
 80002990 00000000 00000000 00000000 00000000  ................
 800029a0 00000000 00000000 00000000 00000000  ................
 800029b0 00000000 00000000 00000000 00000000  ................
 800029c0 00000000 00000000 00000000 00000000  ................
 800029d0 00000000 00000000 00000000 00000000  ................
 800029e0 00000000 00000000 00000000 00000000  ................
 800029f0 00000000 00000000 00000000 00000000  ................
 80002a00 00000000 00000000 00000000 00000000  ................
 80002a10 00000000 00000000 00000000 00000000  ................
 80002a20 00000000 00000000 00000000 00000000  ................
 80002a30 00000000 00000000 00000000 00000000  ................
 80002a40 00000000 00000000 00000000 00000000  ................
 80002a50 00000000 00000000 00000000 00000000  ................
 80002a60 00000000 00000000 00000000 00000000  ................
 80002a70 00000000 00000000 00000000 00000000  ................
 80002a80 00000000 00000000 00000000 00000000  ................
 80002a90 00000000 00000000 00000000 00000000  ................
 80002aa0 00000000 00000000 00000000 00000000  ................
 80002ab0 00000000 00000000 00000000 00000000  ................
 80002ac0 00000000 00000000 00000000 00000000  ................
 80002ad0 00000000 00000000 00000000 00000000  ................
 80002ae0 00000000 00000000 00000000 00000000  ................
 80002af0 00000000 00000000 00000000 00000000  ................
 80002b00 00000000 00000000 00000000 00000000  ................
 80002b10 00000000 00000000 00000000 00000000  ................
 80002b20 00000000 00000000 00000000 00000000  ................
 80002b30 00000000 00000000 00000000 00000000  ................
 80002b40 00000000 00000000 00000000 00000000  ................
 80002b50 00000000 00000000 00000000 00000000  ................
 80002b60 00000000 00000000 00000000 00000000  ................
 80002b70 00000000 00000000 00000000 00000000  ................
 80002b80 00000000 00000000 00000000 00000000  ................
 80002b90 00000000 00000000 00000000 00000000  ................
 80002ba0 00000000 00000000 00000000 00000000  ................
 80002bb0 00000000 00000000 00000000 00000000  ................
 80002bc0 00000000 00000000 00000000 00000000  ................
 80002bd0 00000000 00000000 00000000 00000000  ................
 80002be0 00000000 00000000 00000000 00000000  ................
 80002bf0 00000000 00000000 00000000 00000000  ................
 80002c00 00000000 00000000 00000000 00000000  ................
 80002c10 00000000 00000000 00000000 00000000  ................
 80002c20 00000000 00000000 00000000 00000000  ................
 80002c30 00000000 00000000 00000000 00000000  ................
 80002c40 00000000 00000000 00000000 00000000  ................
 80002c50 00000000 00000000 00000000 00000000  ................
 80002c60 00000000 00000000 00000000 00000000  ................
 80002c70 00000000 00000000 00000000 00000000  ................
 80002c80 00000000 00000000 00000000 00000000  ................
 80002c90 00000000 00000000 00000000 00000000  ................
 80002ca0 00000000 00000000 00000000 00000000  ................
 80002cb0 00000000 00000000 00000000 00000000  ................
 80002cc0 00000000 00000000 00000000 00000000  ................
 80002cd0 00000000 00000000 00000000 00000000  ................
 80002ce0 00000000 00000000 00000000 00000000  ................
 80002cf0 00000000 00000000 00000000 00000000  ................
 80002d00 00000000 00000000 00000000 00000000  ................
 80002d10 00000000 00000000 00000000 00000000  ................
 80002d20 00000000 00000000 00000000 00000000  ................
 80002d30 00000000 00000000 00000000 00000000  ................
 80002d40 00000000 00000000 00000000 00000000  ................
 80002d50 00000000 00000000 00000000 00000000  ................
 80002d60 00000000 00000000 00000000 00000000  ................
 80002d70 00000000 00000000 00000000 00000000  ................
 80002d80 00000000 00000000 00000000 00000000  ................
 80002d90 00000000 00000000 00000000 00000000  ................
 80002da0 00000000 00000000 00000000 00000000  ................
 80002db0 00000000 00000000 00000000 00000000  ................
 80002dc0 00000000 00000000 00000000 00000000  ................
 80002dd0 00000000 00000000 00000000 00000000  ................
 80002de0 00000000 00000000 00000000 00000000  ................
 80002df0 00000000 00000000 00000000 00000000  ................
 80002e00 00000000 00000000 00000000 00000000  ................
 80002e10 00000000 00000000 00000000 00000000  ................
 80002e20 00000000 00000000 00000000 00000000  ................
 80002e30 00000000 00000000 00000000 00000000  ................
 80002e40 00000000 00000000 00000000 00000000  ................
 80002e50 00000000 00000000 00000000 00000000  ................
 80002e60 00000000 00000000 00000000 00000000  ................
 80002e70 00000000 00000000 00000000 00000000  ................
 80002e80 00000000 00000000 00000000 00000000  ................
 80002e90 00000000 00000000 00000000 00000000  ................
 80002ea0 00000000 00000000 00000000 00000000  ................
 80002eb0 00000000 00000000 00000000 00000000  ................
 80002ec0 00000000 00000000 00000000 00000000  ................
 80002ed0 00000000 00000000 00000000 00000000  ................
 80002ee0 00000000 00000000 00000000 00000000  ................
 80002ef0 00000000 00000000 00000000 00000000  ................
 80002f00 00000000 00000000 00000000 00000000  ................
 80002f10 00000000 00000000 00000000 00000000  ................
 80002f20 00000000 00000000 00000000 00000000  ................
 80002f30 00000000 00000000 00000000 00000000  ................
 80002f40 00000000 00000000 00000000 00000000  ................
 80002f50 00000000 00000000 00000000 00000000  ................
 80002f60 00000000 00000000 00000000 00000000  ................
 80002f70 00000000 00000000 00000000 00000000  ................
 80002f80 00000000 00000000 00000000 00000000  ................
 80002f90 00000000 00000000 00000000 00000000  ................
 80002fa0 00000000 00000000 00000000 00000000  ................
 80002fb0 00000000 00000000 00000000 00000000  ................
 80002fc0 00000000 00000000 00000000 00000000  ................
 80002fd0 00000000 00000000 00000000 00000000  ................
 80002fe0 00000000 00000000 00000000 00000000  ................
 80002ff0 00000000 00000000 00000000 00000000  ................
 80003000 81b2d4e7 09a35c6f efbeadde efbeadde  ......\o........
 80003010 efbeadde efbeadde efbeadde efbeadde  ................
 80003020 efbeadde efbeadde efbeadde efbeadde  ................
 80003030 efbeadde efbeadde efbeadde efbeadde  ................
 80003040 efbeadde efbeadde efbeadde efbeadde  ................
 80003050 efbeadde efbeadde efbeadde efbeadde  ................
 80003060 efbeadde efbeadde efbeadde efbeadde  ................
 80003070 efbeadde efbeadde efbeadde efbeadde  ................
 80003080 efbeadde efbeadde efbeadde efbeadde  ................
 80003090 efbeadde efbeadde efbeadde efbeadde  ................
 800030a0 efbeadde efbeadde efbeadde efbeadde  ................
 800030b0 efbeadde efbeadde efbeadde efbeadde  ................
 800030c0 efbeadde efbeadde efbeadde efbeadde  ................
 800030d0 efbeadde efbeadde efbeadde efbeadde  ................
 800030e0 efbeadde efbeadde efbeadde efbeadde  ................
 800030f0 efbeadde efbeadde efbeadde efbeadde  ................
 80003100 efbeadde efbeadde efbeadde efbeadde  ................
 80003110 efbeadde efbeadde efbeadde efbeadde  ................
 80003120 efbeadde efbeadde efbeadde efbeadde  ................
 80003130 efbeadde efbeadde efbeadde efbeadde  ................
 80003140 efbeadde efbeadde efbeadde efbeadde  ................
 80003150 efbeadde efbeadde efbeadde efbeadde  ................
 80003160 efbeadde efbeadde efbeadde efbeadde  ................
 80003170 efbeadde efbeadde efbeadde efbeadde  ................
 80003180 efbeadde efbeadde efbeadde efbeadde  ................
 80003190 efbeadde efbeadde efbeadde efbeadde  ................
 800031a0 efbeadde efbeadde efbeadde efbeadde  ................
 800031b0 efbeadde efbeadde efbeadde efbeadde  ................
 800031c0 efbeadde efbeadde efbeadde efbeadde  ................
 800031d0 efbeadde efbeadde efbeadde efbeadde  ................
 800031e0 efbeadde efbeadde efbeadde efbeadde  ................
 800031f0 efbeadde efbeadde efbeadde efbeadde  ................
 80003200 efbeadde efbeadde efbeadde efbeadde  ................
 80003210 efbeadde efbeadde efbeadde efbeadde  ................
 80003220 efbeadde efbeadde efbeadde efbeadde  ................
 80003230 efbeadde efbeadde efbeadde efbeadde  ................
 80003240 efbeadde efbeadde efbeadde efbeadde  ................
 80003250 efbeadde efbeadde efbeadde efbeadde  ................
 80003260 efbeadde efbeadde efbeadde efbeadde  ................
 80003270 efbeadde efbeadde efbeadde efbeadde  ................
 80003280 efbeadde efbeadde efbeadde efbeadde  ................
 80003290 efbeadde efbeadde efbeadde efbeadde  ................
 800032a0 efbeadde efbeadde efbeadde efbeadde  ................
 800032b0 efbeadde efbeadde efbeadde efbeadde  ................
 800032c0 efbeadde efbeadde efbeadde efbeadde  ................
 800032d0 efbeadde efbeadde efbeadde efbeadde  ................
 800032e0 efbeadde efbeadde efbeadde efbeadde  ................
 800032f0 efbeadde efbeadde efbeadde efbeadde  ................
 80003300 efbeadde efbeadde efbeadde efbeadde  ................
 80003310 efbeadde efbeadde efbeadde efbeadde  ................
 80003320 efbeadde efbeadde efbeadde efbeadde  ................
 80003330 efbeadde efbeadde efbeadde efbeadde  ................
 80003340 efbeadde efbeadde efbeadde efbeadde  ................
 80003350 efbeadde efbeadde efbeadde efbeadde  ................
 80003360 efbeadde efbeadde efbeadde efbeadde  ................
 80003370 efbeadde efbeadde efbeadde efbeadde  ................
 80003380 efbeadde efbeadde efbeadde efbeadde  ................
 80003390 efbeadde efbeadde efbeadde efbeadde  ................
 800033a0 efbeadde efbeadde efbeadde efbeadde  ................
 800033b0 efbeadde efbeadde efbeadde efbeadde  ................
 800033c0 efbeadde efbeadde efbeadde efbeadde  ................
 800033d0 efbeadde efbeadde efbeadde efbeadde  ................
 800033e0 efbeadde efbeadde efbeadde efbeadde  ................
 800033f0 efbeadde efbeadde efbeadde efbeadde  ................
 80003400 efbeadde efbeadde efbeadde efbeadde  ................
 80003410 efbeadde efbeadde efbeadde efbeadde  ................
 80003420 efbeadde efbeadde efbeadde efbeadde  ................
 80003430 efbeadde efbeadde efbeadde efbeadde  ................
 80003440 efbeadde efbeadde efbeadde efbeadde  ................
 80003450 efbeadde efbeadde efbeadde efbeadde  ................
 80003460 efbeadde efbeadde efbeadde efbeadde  ................
 80003470 efbeadde efbeadde efbeadde efbeadde  ................
 80003480 efbeadde efbeadde efbeadde efbeadde  ................
 80003490 efbeadde efbeadde efbeadde efbeadde  ................
 800034a0 efbeadde efbeadde efbeadde efbeadde  ................
 800034b0 efbeadde efbeadde efbeadde efbeadde  ................
 800034c0 efbeadde efbeadde efbeadde efbeadde  ................
 800034d0 efbeadde efbeadde 81b2d4e7 09a35c6f  ..............\o

Disassembly of section .data:

0000000080000000 <.data>:
    80000000:	00000413          	addi	x8,x0,0
    80000004:	0000c117          	auipc	x2,0xc
    80000008:	ffc10113          	addi	x2,x2,-4 # 0x8000c000
    8000000c:	3f5010ef          	jal	x1,0x80001c00
    80000010:	030000ef          	jal	x1,0x80000040
    80000014:	00100513          	addi	x10,x0,1
    80000018:	3dd010ef          	jal	x1,0x80001bf4
    8000001c:	00000513          	addi	x10,x0,0
    80000020:	00008067          	jalr	x0,0(x1)
    80000024:	00100513          	addi	x10,x0,1
    80000028:	3cd010ef          	jal	x1,0x80001bf4
    8000002c:	00008067          	jalr	x0,0(x1)
	...
    80000040:	feedc0b7          	lui	x1,0xfeedc
    80000044:	ead08093          	addi	x1,x1,-339 # 0xfffffffffeedbead
    80000048:	00b09093          	slli	x1,x1,0xb
    8000004c:	7f708093          	addi	x1,x1,2039
    80000050:	00b09093          	slli	x1,x1,0xb
    80000054:	36f08093          	addi	x1,x1,879
    80000058:	00a09093          	slli	x1,x1,0xa
    8000005c:	2ad08093          	addi	x1,x1,685
    80000060:	ff76e137          	lui	x2,0xff76e
    80000064:	f5610113          	addi	x2,x2,-170 # 0xffffffffff76df56
    80000068:	00b11113          	slli	x2,x2,0xb
    8000006c:	7fb10113          	addi	x2,x2,2043
    80000070:	00b11113          	slli	x2,x2,0xb
    80000074:	5b710113          	addi	x2,x2,1463
    80000078:	00a11113          	slli	x2,x2,0xa
    8000007c:	35610113          	addi	x2,x2,854
    80000080:	7fbb71b7          	lui	x3,0x7fbb7
    80000084:	fab18193          	addi	x3,x3,-85 # 0x7fbb6fab
    80000088:	00b19193          	slli	x3,x3,0xb
    8000008c:	3fd18193          	addi	x3,x3,1021
    80000090:	00b19193          	slli	x3,x3,0xb
    80000094:	6db18193          	addi	x3,x3,1755
    80000098:	00a19193          	slli	x3,x3,0xa
    8000009c:	3ab18193          	addi	x3,x3,939
    800000a0:	bfddb237          	lui	x4,0xbfddb
    800000a4:	7d520213          	addi	x4,x4,2005 # 0xffffffffbfddb7d5
    800000a8:	00b21213          	slli	x4,x4,0xb
    800000ac:	5fe20213          	addi	x4,x4,1534 # 0x5fe
    800000b0:	00b21213          	slli	x4,x4,0xb
    800000b4:	76d20213          	addi	x4,x4,1901 # 0x76d
    800000b8:	00a21213          	slli	x4,x4,0xa
    800000bc:	3d520213          	addi	x4,x4,981 # 0x3d5
    800000c0:	dfeee2b7          	lui	x5,0xdfeee
    800000c4:	bea28293          	addi	x5,x5,-1046 # 0xffffffffdfeedbea
    800000c8:	00b29293          	slli	x5,x5,0xb
    800000cc:	6ff28293          	addi	x5,x5,1791
    800000d0:	00b29293          	slli	x5,x5,0xb
    800000d4:	3b628293          	addi	x5,x5,950
    800000d8:	00a29293          	slli	x5,x5,0xa
    800000dc:	3ea28293          	addi	x5,x5,1002
    800000e0:	6ff77337          	lui	x6,0x6ff77
    800000e4:	df530313          	addi	x6,x6,-523 # 0x6ff76df5
    800000e8:	00b31313          	slli	x6,x6,0xb
    800000ec:	37f30313          	addi	x6,x6,895
    800000f0:	00b31313          	slli	x6,x6,0xb
    800000f4:	5db30313          	addi	x6,x6,1499
    800000f8:	00a31313          	slli	x6,x6,0xa
    800000fc:	1f530313          	addi	x6,x6,501
    80000100:	b7fbb3b7          	lui	x7,0xb7fbb
    80000104:	6fa38393          	addi	x7,x7,1786 # 0xffffffffb7fbb6fa
    80000108:	00b39393          	slli	x7,x7,0xb
    8000010c:	5bf38393          	addi	x7,x7,1471
    80000110:	00b39393          	slli	x7,x7,0xb
    80000114:	6ed38393          	addi	x7,x7,1773
    80000118:	00a39393          	slli	x7,x7,0xa
    8000011c:	2fa38393          	addi	x7,x7,762
    80000120:	5bfde437          	lui	x8,0x5bfde
    80000124:	b7d40413          	addi	x8,x8,-1155 # 0x5bfddb7d
    80000128:	00b41413          	slli	x8,x8,0xb
    8000012c:	2df40413          	addi	x8,x8,735
    80000130:	00b41413          	slli	x8,x8,0xb
    80000134:	77640413          	addi	x8,x8,1910
    80000138:	00a41413          	slli	x8,x8,0xa
    8000013c:	37d40413          	addi	x8,x8,893
    80000140:	adfef4b7          	lui	x9,0xadfef
    80000144:	dbe48493          	addi	x9,x9,-578 # 0xffffffffadfeedbe
    80000148:	00b49493          	slli	x9,x9,0xb
    8000014c:	56f48493          	addi	x9,x9,1391
    80000150:	00b49493          	slli	x9,x9,0xb
    80000154:	7bb48493          	addi	x9,x9,1979
    80000158:	00a49493          	slli	x9,x9,0xa
    8000015c:	1be48493          	addi	x9,x9,446
    80000160:	56ff7537          	lui	x10,0x56ff7
    80000164:	6df50513          	addi	x10,x10,1759 # 0x56ff76df
    80000168:	00b51513          	slli	x10,x10,0xb
    8000016c:	2b750513          	addi	x10,x10,695
    80000170:	00b51513          	slli	x10,x10,0xb
    80000174:	7dd50513          	addi	x10,x10,2013
    80000178:	00a51513          	slli	x10,x10,0xa
    8000017c:	2df50513          	addi	x10,x10,735
    80000180:	ab7fc5b7          	lui	x11,0xab7fc
    80000184:	b6f58593          	addi	x11,x11,-1169 # 0xffffffffab7fbb6f
    80000188:	00b59593          	slli	x11,x11,0xb
    8000018c:	55b58593          	addi	x11,x11,1371
    80000190:	00b59593          	slli	x11,x11,0xb
    80000194:	7ee58593          	addi	x11,x11,2030
    80000198:	00a59593          	slli	x11,x11,0xa
    8000019c:	36f58593          	addi	x11,x11,879
    800001a0:	d5bfe637          	lui	x12,0xd5bfe
    800001a4:	db760613          	addi	x12,x12,-585 # 0xffffffffd5bfddb7
    800001a8:	00b61613          	slli	x12,x12,0xb
    800001ac:	6ad60613          	addi	x12,x12,1709
    800001b0:	00b61613          	slli	x12,x12,0xb
    800001b4:	7f760613          	addi	x12,x12,2039
    800001b8:	00a61613          	slli	x12,x12,0xa
    800001bc:	1b760613          	addi	x12,x12,439
    800001c0:	eadff6b7          	lui	x13,0xeadff
    800001c4:	edb68693          	addi	x13,x13,-293 # 0xffffffffeadfeedb
    800001c8:	00b69693          	slli	x13,x13,0xb
    800001cc:	75668693          	addi	x13,x13,1878
    800001d0:	00b69693          	slli	x13,x13,0xb
    800001d4:	7fb68693          	addi	x13,x13,2043
    800001d8:	00a69693          	slli	x13,x13,0xa
    800001dc:	2db68693          	addi	x13,x13,731
    800001e0:	f56ff737          	lui	x14,0xf56ff
    800001e4:	76d70713          	addi	x14,x14,1901 # 0xfffffffff56ff76d
    800001e8:	00b71713          	slli	x14,x14,0xb
    800001ec:	7ab70713          	addi	x14,x14,1963
    800001f0:	00b71713          	slli	x14,x14,0xb
    800001f4:	3fd70713          	addi	x14,x14,1021
    800001f8:	00a71713          	slli	x14,x14,0xa
    800001fc:	36d70713          	addi	x14,x14,877
    80000200:	fab807b7          	lui	x15,0xfab80
    80000204:	bb678793          	addi	x15,x15,-1098 # 0xfffffffffab7fbb6
    80000208:	00b79793          	slli	x15,x15,0xb
    8000020c:	7d578793          	addi	x15,x15,2005
    80000210:	00b79793          	slli	x15,x15,0xb
    80000214:	5fe78793          	addi	x15,x15,1534
    80000218:	00a79793          	slli	x15,x15,0xa
    8000021c:	3b678793          	addi	x15,x15,950
    80000220:	7d5c0837          	lui	x16,0x7d5c0
    80000224:	ddb80813          	addi	x16,x16,-549 # 0x7d5bfddb
    80000228:	00b81813          	slli	x16,x16,0xb
    8000022c:	3ea80813          	addi	x16,x16,1002
    80000230:	00b81813          	slli	x16,x16,0xb
    80000234:	6ff80813          	addi	x16,x16,1791
    80000238:	00a81813          	slli	x16,x16,0xa
    8000023c:	1db80813          	addi	x16,x16,475
    80000240:	beae08b7          	lui	x17,0xbeae0
    80000244:	eed88893          	addi	x17,x17,-275 # 0xffffffffbeadfeed
    80000248:	00b89893          	slli	x17,x17,0xb
    8000024c:	5f588893          	addi	x17,x17,1525
    80000250:	00b89893          	slli	x17,x17,0xb
    80000254:	37f88893          	addi	x17,x17,895
    80000258:	00a89893          	slli	x17,x17,0xa
    8000025c:	2ed88893          	addi	x17,x17,749
    80000260:	df570937          	lui	x18,0xdf570
    80000264:	f7690913          	addi	x18,x18,-138 # 0xffffffffdf56ff76
    80000268:	00b91913          	slli	x18,x18,0xb
    8000026c:	6fa90913          	addi	x18,x18,1786
    80000270:	00b91913          	slli	x18,x18,0xb
    80000274:	5bf90913          	addi	x18,x18,1471
    80000278:	00a91913          	slli	x18,x18,0xa
    8000027c:	37690913          	addi	x18,x18,886
    80000280:	6fab89b7          	lui	x19,0x6fab8
    80000284:	fbb98993          	addi	x19,x19,-69 # 0x6fab7fbb
    80000288:	00b99993          	slli	x19,x19,0xb
    8000028c:	37d98993          	addi	x19,x19,893
    80000290:	00b99993          	slli	x19,x19,0xb
    80000294:	2df98993          	addi	x19,x19,735
    80000298:	00a99993          	slli	x19,x19,0xa
    8000029c:	3bb98993          	addi	x19,x19,955
    800002a0:	b7d5ca37          	lui	x20,0xb7d5c
    800002a4:	fdda0a13          	addi	x20,x20,-35 # 0xffffffffb7d5bfdd
    800002a8:	00ba1a13          	slli	x20,x20,0xb
    800002ac:	5bea0a13          	addi	x20,x20,1470
    800002b0:	00ba1a13          	slli	x20,x20,0xb
    800002b4:	56fa0a13          	addi	x20,x20,1391
    800002b8:	00aa1a13          	slli	x20,x20,0xa
    800002bc:	3dda0a13          	addi	x20,x20,989
    800002c0:	dbeaeab7          	lui	x21,0xdbeae
    800002c4:	feea8a93          	addi	x21,x21,-18 # 0xffffffffdbeadfee
    800002c8:	00ba9a93          	slli	x21,x21,0xb
    800002cc:	6dfa8a93          	addi	x21,x21,1759
    800002d0:	00ba9a93          	slli	x21,x21,0xb
    800002d4:	2b7a8a93          	addi	x21,x21,695
    800002d8:	00aa9a93          	slli	x21,x21,0xa
    800002dc:	3eea8a93          	addi	x21,x21,1006
    800002e0:	6df57b37          	lui	x22,0x6df57
    800002e4:	ff7b0b13          	addi	x22,x22,-9 # 0x6df56ff7
    800002e8:	00bb1b13          	slli	x22,x22,0xb
    800002ec:	36fb0b13          	addi	x22,x22,879
    800002f0:	00bb1b13          	slli	x22,x22,0xb
    800002f4:	55bb0b13          	addi	x22,x22,1371
    800002f8:	00ab1b13          	slli	x22,x22,0xa
    800002fc:	3f7b0b13          	addi	x22,x22,1015
    80000300:	b6fabbb7          	lui	x23,0xb6fab
    80000304:	7fbb8b93          	addi	x23,x23,2043 # 0xffffffffb6fab7fb
    80000308:	00bb9b93          	slli	x23,x23,0xb
    8000030c:	5b7b8b93          	addi	x23,x23,1463
    80000310:	00bb9b93          	slli	x23,x23,0xb
    80000314:	6adb8b93          	addi	x23,x23,1709
    80000318:	00ab9b93          	slli	x23,x23,0xa
    8000031c:	3fbb8b93          	addi	x23,x23,1019
    80000320:	db7d6c37          	lui	x24,0xdb7d6
    80000324:	bfdc0c13          	addi	x24,x24,-1027 # 0xffffffffdb7d5bfd
    80000328:	00bc1c13          	slli	x24,x24,0xb
    8000032c:	6dbc0c13          	addi	x24,x24,1755
    80000330:	00bc1c13          	slli	x24,x24,0xb
    80000334:	756c0c13          	addi	x24,x24,1878
    80000338:	00ac1c13          	slli	x24,x24,0xa
    8000033c:	3fdc0c13          	addi	x24,x24,1021
    80000340:	edbebcb7          	lui	x25,0xedbeb
    80000344:	dfec8c93          	addi	x25,x25,-514 # 0xffffffffedbeadfe
    80000348:	00bc9c93          	slli	x25,x25,0xb
    8000034c:	76dc8c93          	addi	x25,x25,1901
    80000350:	00bc9c93          	slli	x25,x25,0xb
    80000354:	7abc8c93          	addi	x25,x25,1963
    80000358:	00ac9c93          	slli	x25,x25,0xa
    8000035c:	1fec8c93          	addi	x25,x25,510
    80000360:	76df5d37          	lui	x26,0x76df5
    80000364:	6ffd0d13          	addi	x26,x26,1791 # 0x76df56ff
    80000368:	00bd1d13          	slli	x26,x26,0xb
    8000036c:	3b6d0d13          	addi	x26,x26,950
    80000370:	00bd1d13          	slli	x26,x26,0xb
    80000374:	7d5d0d13          	addi	x26,x26,2005
    80000378:	00ad1d13          	slli	x26,x26,0xa
    8000037c:	2ffd0d13          	addi	x26,x26,767
    80000380:	bb6fbdb7          	lui	x27,0xbb6fb
    80000384:	b7fd8d93          	addi	x27,x27,-1153 # 0xffffffffbb6fab7f
    80000388:	00bd9d93          	slli	x27,x27,0xb
    8000038c:	5dbd8d93          	addi	x27,x27,1499
    80000390:	00bd9d93          	slli	x27,x27,0xb
    80000394:	3ead8d93          	addi	x27,x27,1002
    80000398:	00ad9d93          	slli	x27,x27,0xa
    8000039c:	37fd8d93          	addi	x27,x27,895
    800003a0:	ddb7de37          	lui	x28,0xddb7d
    800003a4:	5bfe0e13          	addi	x28,x28,1471 # 0xffffffffddb7d5bf
    800003a8:	00be1e13          	slli	x28,x28,0xb
    800003ac:	6ede0e13          	addi	x28,x28,1773
    800003b0:	00be1e13          	slli	x28,x28,0xb
    800003b4:	5f5e0e13          	addi	x28,x28,1525
    800003b8:	00ae1e13          	slli	x28,x28,0xa
    800003bc:	1bfe0e13          	addi	x28,x28,447
    800003c0:	eedbfeb7          	lui	x29,0xeedbf
    800003c4:	adfe8e93          	addi	x29,x29,-1313 # 0xffffffffeedbeadf
    800003c8:	00be9e93          	slli	x29,x29,0xb
    800003cc:	776e8e93          	addi	x29,x29,1910
    800003d0:	00be9e93          	slli	x29,x29,0xb
    800003d4:	6fae8e93          	addi	x29,x29,1786
    800003d8:	00ae9e93          	slli	x29,x29,0xa
    800003dc:	2dfe8e93          	addi	x29,x29,735
    800003e0:	f76dff37          	lui	x30,0xf76df
    800003e4:	56ff0f13          	addi	x30,x30,1391 # 0xfffffffff76df56f
    800003e8:	00bf1f13          	slli	x30,x30,0xb
    800003ec:	7bbf0f13          	addi	x30,x30,1979
    800003f0:	00bf1f13          	slli	x30,x30,0xb
    800003f4:	37df0f13          	addi	x30,x30,893
    800003f8:	00af1f13          	slli	x30,x30,0xa
    800003fc:	16ff0f13          	addi	x30,x30,367
    80000400:	fbb70fb7          	lui	x31,0xfbb70
    80000404:	ab7f8f93          	addi	x31,x31,-1353 # 0xfffffffffbb6fab7
    80000408:	00bf9f93          	slli	x31,x31,0xb
    8000040c:	7ddf8f93          	addi	x31,x31,2013
    80000410:	00bf9f93          	slli	x31,x31,0xb
    80000414:	5bef8f93          	addi	x31,x31,1470
    80000418:	00af9f93          	slli	x31,x31,0xa
    8000041c:	2b7f8f93          	addi	x31,x31,695
    80000420:	00003497          	auipc	x9,0x3
    80000424:	be848493          	addi	x9,x9,-1048 # 0x80003008
    80000428:	00000013          	addi	x0,x0,0
    8000042c:	00000013          	addi	x0,x0,0
    80000430:	00000013          	addi	x0,x0,0
    80000434:	00000013          	addi	x0,x0,0
    80000438:	00000013          	addi	x0,x0,0
    8000043c:	00000013          	addi	x0,x0,0
    80000440:	00100b93          	addi	x23,x0,1
    80000444:	023b9b93          	slli	x23,x23,0x23
    80000448:	fffbcb93          	xori	x23,x23,-1
    8000044c:	00100b93          	addi	x23,x0,1
    80000450:	023b9b93          	slli	x23,x23,0x23
    80000454:	fffbcb93          	xori	x23,x23,-1
    80000458:	417bd3b3          	sra	x7,x23,x23
    8000045c:	0074b023          	sd	x7,0(x9)
    80000460:	fff00513          	addi	x10,x0,-1
    80000464:	00750463          	beq	x10,x7,0x8000046c
    80000468:	bbdff06f          	jal	x0,0x80000024
    8000046c:	00100793          	addi	x15,x0,1
    80000470:	02079793          	slli	x15,x15,0x20
    80000474:	00300193          	addi	x3,x0,3
    80000478:	4037d1b3          	sra	x3,x15,x3
    8000047c:	0034b423          	sd	x3,8(x9)
    80000480:	20000537          	lui	x10,0x20000
    80000484:	00350463          	beq	x10,x3,0x8000048c
    80000488:	b9dff06f          	jal	x0,0x80000024
    8000048c:	00100213          	addi	x4,x0,1
    80000490:	02021213          	slli	x4,x4,0x20
    80000494:	fff24213          	xori	x4,x4,-1
    80000498:	00100213          	addi	x4,x0,1
    8000049c:	02021213          	slli	x4,x4,0x20
    800004a0:	fff24213          	xori	x4,x4,-1
    800004a4:	40425233          	sra	x4,x4,x4
    800004a8:	0044b823          	sd	x4,16(x9)
    800004ac:	fff00513          	addi	x10,x0,-1
    800004b0:	00450463          	beq	x10,x4,0x800004b8
    800004b4:	b71ff06f          	jal	x0,0x80000024
    800004b8:	33333db7          	lui	x27,0x33333
    800004bc:	333d8d93          	addi	x27,x27,819 # 0x33333333
    800004c0:	00bd9d93          	slli	x27,x27,0xb
    800004c4:	199d8d93          	addi	x27,x27,409
    800004c8:	00bd9d93          	slli	x27,x27,0xb
    800004cc:	4ccd8d93          	addi	x27,x27,1228
    800004d0:	00ad9d93          	slli	x27,x27,0xa
    800004d4:	333d8d93          	addi	x27,x27,819
    800004d8:	00000c13          	addi	x24,x0,0
    800004dc:	418ddf33          	sra	x30,x27,x24
    800004e0:	01e4bc23          	sd	x30,24(x9)
    800004e4:	03333537          	lui	x10,0x3333
    800004e8:	3335051b          	addiw	x10,x10,819 # 0x3333333
    800004ec:	00c51513          	slli	x10,x10,0xc
    800004f0:	33350513          	addi	x10,x10,819
    800004f4:	00c51513          	slli	x10,x10,0xc
    800004f8:	33350513          	addi	x10,x10,819
    800004fc:	00c51513          	slli	x10,x10,0xc
    80000500:	33350513          	addi	x10,x10,819
    80000504:	01e50463          	beq	x10,x30,0x8000050c
    80000508:	b1dff06f          	jal	x0,0x80000024
    8000050c:	00100a13          	addi	x20,x0,1
    80000510:	00100913          	addi	x18,x0,1
    80000514:	412a5a33          	sra	x20,x20,x18
    80000518:	0344b023          	sd	x20,32(x9)
    8000051c:	00000513          	addi	x10,x0,0
    80000520:	01450463          	beq	x10,x20,0x80000528
    80000524:	b01ff06f          	jal	x0,0x80000024
    80000528:	fff00113          	addi	x2,x0,-1
    8000052c:	03f11113          	slli	x2,x2,0x3f
    80000530:	00200793          	addi	x15,x0,2
    80000534:	40f15c33          	sra	x24,x2,x15
    80000538:	0384b423          	sd	x24,40(x9)
    8000053c:	fff0051b          	addiw	x10,x0,-1
    80000540:	03d51513          	slli	x10,x10,0x3d
    80000544:	01850463          	beq	x10,x24,0x8000054c
    80000548:	addff06f          	jal	x0,0x80000024
    8000054c:	00000693          	addi	x13,x0,0
    80000550:	00e00413          	addi	x8,x0,14
    80000554:	4086dd33          	sra	x26,x13,x8
    80000558:	03a4b823          	sd	x26,48(x9)
    8000055c:	00000513          	addi	x10,x0,0
    80000560:	01a50463          	beq	x10,x26,0x80000568
    80000564:	ac1ff06f          	jal	x0,0x80000024
    80000568:	fff00713          	addi	x14,x0,-1
    8000056c:	00175713          	srli	x14,x14,0x1
    80000570:	00000013          	addi	x0,x0,0
    80000574:	40075e33          	sra	x28,x14,x0
    80000578:	03c4bc23          	sd	x28,56(x9)
    8000057c:	fff0051b          	addiw	x10,x0,-1
    80000580:	03f51513          	slli	x10,x10,0x3f
    80000584:	fff50513          	addi	x10,x10,-1
    80000588:	01c50463          	beq	x10,x28,0x80000590
    8000058c:	a99ff06f          	jal	x0,0x80000024
    80000590:	00200c93          	addi	x25,x0,2
    80000594:	00a00b13          	addi	x22,x0,10
    80000598:	416cd333          	sra	x6,x25,x22
    8000059c:	0464b023          	sd	x6,64(x9)
    800005a0:	00000513          	addi	x10,x0,0
    800005a4:	00650463          	beq	x10,x6,0x800005ac
    800005a8:	a7dff06f          	jal	x0,0x80000024
    800005ac:	00400e93          	addi	x29,x0,4
    800005b0:	00700613          	addi	x12,x0,7
    800005b4:	40ced933          	sra	x18,x29,x12
    800005b8:	0524b423          	sd	x18,72(x9)
    800005bc:	00000513          	addi	x10,x0,0
    800005c0:	01250463          	beq	x10,x18,0x800005c8
    800005c4:	a61ff06f          	jal	x0,0x80000024
    800005c8:	00800193          	addi	x3,x0,8
    800005cc:	00a00e13          	addi	x28,x0,10
    800005d0:	41c1d5b3          	sra	x11,x3,x28
    800005d4:	04b4b823          	sd	x11,80(x9)
    800005d8:	00000513          	addi	x10,x0,0
    800005dc:	00b50463          	beq	x10,x11,0x800005e4
    800005e0:	a45ff06f          	jal	x0,0x80000024
    800005e4:	00000013          	addi	x0,x0,0
    800005e8:	00600813          	addi	x16,x0,6
    800005ec:	41005433          	sra	x8,x0,x16
    800005f0:	0484bc23          	sd	x8,88(x9)
    800005f4:	00000513          	addi	x10,x0,0
    800005f8:	00850463          	beq	x10,x8,0x80000600
    800005fc:	a29ff06f          	jal	x0,0x80000024
    80000600:	02000c13          	addi	x24,x0,32
    80000604:	00100293          	addi	x5,x0,1
    80000608:	405c5633          	sra	x12,x24,x5
    8000060c:	06c4b023          	sd	x12,96(x9)
    80000610:	01000513          	addi	x10,x0,16
    80000614:	00c50463          	beq	x10,x12,0x8000061c
    80000618:	a0dff06f          	jal	x0,0x80000024
    8000061c:	04000f93          	addi	x31,x0,64
    80000620:	00800a93          	addi	x21,x0,8
    80000624:	415fd133          	sra	x2,x31,x21
    80000628:	0624b423          	sd	x2,104(x9)
    8000062c:	00000513          	addi	x10,x0,0
    80000630:	00250463          	beq	x10,x2,0x80000638
    80000634:	9f1ff06f          	jal	x0,0x80000024
    80000638:	08000413          	addi	x8,x0,128
    8000063c:	00e00093          	addi	x1,x0,14
    80000640:	40145ab3          	sra	x21,x8,x1
    80000644:	0754b823          	sd	x21,112(x9)
    80000648:	00000513          	addi	x10,x0,0
    8000064c:	01550463          	beq	x10,x21,0x80000654
    80000650:	9d5ff06f          	jal	x0,0x80000024
    80000654:	10000093          	addi	x1,x0,256
    80000658:	00300f13          	addi	x30,x0,3
    8000065c:	41e0d733          	sra	x14,x1,x30
    80000660:	06e4bc23          	sd	x14,120(x9)
    80000664:	02000213          	addi	x4,x0,32
    80000668:	00e20463          	beq	x4,x14,0x80000670
    8000066c:	9b9ff06f          	jal	x0,0x80000024
    80000670:	20000813          	addi	x16,x0,512
    80000674:	00b00513          	addi	x10,x0,11
    80000678:	40a85033          	sra	x0,x16,x10
    8000067c:	0804b023          	sd	x0,128(x9)
    80000680:	00000213          	addi	x4,x0,0
    80000684:	00020463          	beq	x4,x0,0x8000068c
    80000688:	99dff06f          	jal	x0,0x80000024
    8000068c:	00000013          	addi	x0,x0,0
    80000690:	00000013          	addi	x0,x0,0
    80000694:	00000013          	addi	x0,x0,0
    80000698:	00000013          	addi	x0,x0,0
    8000069c:	00000013          	addi	x0,x0,0
    800006a0:	00003197          	auipc	x3,0x3
    800006a4:	9f018193          	addi	x3,x3,-1552 # 0x80003090
    800006a8:	00000013          	addi	x0,x0,0
    800006ac:	00000013          	addi	x0,x0,0
    800006b0:	00000013          	addi	x0,x0,0
    800006b4:	00000013          	addi	x0,x0,0
    800006b8:	00000013          	addi	x0,x0,0
    800006bc:	00000013          	addi	x0,x0,0
    800006c0:	40000d13          	addi	x26,x0,1024
    800006c4:	00e00e93          	addi	x29,x0,14
    800006c8:	41dd5533          	sra	x10,x26,x29
    800006cc:	00a1b023          	sd	x10,0(x3)
    800006d0:	00000213          	addi	x4,x0,0
    800006d4:	00a20463          	beq	x4,x10,0x800006dc
    800006d8:	94dff06f          	jal	x0,0x80000024
    800006dc:	00100493          	addi	x9,x0,1
    800006e0:	00b49493          	slli	x9,x9,0xb
    800006e4:	02a00d93          	addi	x27,x0,42
    800006e8:	41b4dfb3          	sra	x31,x9,x27
    800006ec:	01f1b423          	sd	x31,8(x3)
    800006f0:	00000213          	addi	x4,x0,0
    800006f4:	01f20463          	beq	x4,x31,0x800006fc
    800006f8:	92dff06f          	jal	x0,0x80000024
    800006fc:	00100b13          	addi	x22,x0,1
    80000700:	00cb1b13          	slli	x22,x22,0xc
    80000704:	00400993          	addi	x19,x0,4
    80000708:	413b50b3          	sra	x1,x22,x19
    8000070c:	0011b823          	sd	x1,16(x3)
    80000710:	10000213          	addi	x4,x0,256
    80000714:	00120463          	beq	x4,x1,0x8000071c
    80000718:	90dff06f          	jal	x0,0x80000024
    8000071c:	00100893          	addi	x17,x0,1
    80000720:	00d89893          	slli	x17,x17,0xd
    80000724:	00900693          	addi	x13,x0,9
    80000728:	40d8d4b3          	sra	x9,x17,x13
    8000072c:	0091bc23          	sd	x9,24(x3)
    80000730:	01000213          	addi	x4,x0,16
    80000734:	00920463          	beq	x4,x9,0x8000073c
    80000738:	8edff06f          	jal	x0,0x80000024
    8000073c:	00100913          	addi	x18,x0,1
    80000740:	00e91913          	slli	x18,x18,0xe
    80000744:	01f00393          	addi	x7,x0,31
    80000748:	407956b3          	sra	x13,x18,x7
    8000074c:	02d1b023          	sd	x13,32(x3)
    80000750:	00000213          	addi	x4,x0,0
    80000754:	00d20463          	beq	x4,x13,0x8000075c
    80000758:	8cdff06f          	jal	x0,0x80000024
    8000075c:	00100393          	addi	x7,x0,1
    80000760:	00f39393          	slli	x7,x7,0xf
    80000764:	00900f93          	addi	x31,x0,9
    80000768:	41f3d9b3          	sra	x19,x7,x31
    8000076c:	0331b423          	sd	x19,40(x3)
    80000770:	04000213          	addi	x4,x0,64
    80000774:	01320463          	beq	x4,x19,0x8000077c
    80000778:	8adff06f          	jal	x0,0x80000024
    8000077c:	00100a93          	addi	x21,x0,1
    80000780:	010a9a93          	slli	x21,x21,0x10
    80000784:	00300d13          	addi	x26,x0,3
    80000788:	41aadbb3          	sra	x23,x21,x26
    8000078c:	0371b823          	sd	x23,48(x3)
    80000790:	00002237          	lui	x4,0x2
    80000794:	01720463          	beq	x4,x23,0x8000079c
    80000798:	88dff06f          	jal	x0,0x80000024
    8000079c:	00100513          	addi	x10,x0,1
    800007a0:	01151513          	slli	x10,x10,0x11
    800007a4:	00300593          	addi	x11,x0,3
    800007a8:	40b55eb3          	sra	x29,x10,x11
    800007ac:	03d1bc23          	sd	x29,56(x3)
    800007b0:	00004237          	lui	x4,0x4
    800007b4:	01d20463          	beq	x4,x29,0x800007bc
    800007b8:	86dff06f          	jal	x0,0x80000024
    800007bc:	00100993          	addi	x19,x0,1
    800007c0:	01299993          	slli	x19,x19,0x12
    800007c4:	00800113          	addi	x2,x0,8
    800007c8:	4029ddb3          	sra	x27,x19,x2
    800007cc:	05b1b023          	sd	x27,64(x3)
    800007d0:	40000213          	addi	x4,x0,1024
    800007d4:	01b20463          	beq	x4,x27,0x800007dc
    800007d8:	84dff06f          	jal	x0,0x80000024
    800007dc:	00100613          	addi	x12,x0,1
    800007e0:	01361613          	slli	x12,x12,0x13
    800007e4:	00700313          	addi	x6,x0,7
    800007e8:	406658b3          	sra	x17,x12,x6
    800007ec:	0511b423          	sd	x17,72(x3)
    800007f0:	00001237          	lui	x4,0x1
    800007f4:	01120463          	beq	x4,x17,0x800007fc
    800007f8:	82dff06f          	jal	x0,0x80000024
    800007fc:	00100293          	addi	x5,x0,1
    80000800:	01429293          	slli	x5,x5,0x14
    80000804:	02000713          	addi	x14,x0,32
    80000808:	40e2db33          	sra	x22,x5,x14
    8000080c:	0561b823          	sd	x22,80(x3)
    80000810:	00000213          	addi	x4,x0,0
    80000814:	01620463          	beq	x4,x22,0x8000081c
    80000818:	80dff06f          	jal	x0,0x80000024
    8000081c:	00100313          	addi	x6,x0,1
    80000820:	01531313          	slli	x6,x6,0x15
    80000824:	00400493          	addi	x9,x0,4
    80000828:	40935833          	sra	x16,x6,x9
    8000082c:	0501bc23          	sd	x16,88(x3)
    80000830:	00020237          	lui	x4,0x20
    80000834:	01020463          	beq	x4,x16,0x8000083c
    80000838:	fecff06f          	jal	x0,0x80000024
    8000083c:	00100f13          	addi	x30,x0,1
    80000840:	016f1f13          	slli	x30,x30,0x16
    80000844:	02a00c93          	addi	x25,x0,42
    80000848:	419f52b3          	sra	x5,x30,x25
    8000084c:	0651b023          	sd	x5,96(x3)
    80000850:	00000213          	addi	x4,x0,0
    80000854:	00520463          	beq	x4,x5,0x8000085c
    80000858:	fccff06f          	jal	x0,0x80000024
    8000085c:	00100e13          	addi	x28,x0,1
    80000860:	017e1e13          	slli	x28,x28,0x17
    80000864:	01500a13          	addi	x20,x0,21
    80000868:	414e57b3          	sra	x15,x28,x20
    8000086c:	06f1b423          	sd	x15,104(x3)
    80000870:	00400213          	addi	x4,x0,4
    80000874:	00f20463          	beq	x4,x15,0x8000087c
    80000878:	facff06f          	jal	x0,0x80000024
    8000087c:	00100593          	addi	x11,x0,1
    80000880:	01859593          	slli	x11,x11,0x18
    80000884:	01500893          	addi	x17,x0,21
    80000888:	4115dcb3          	sra	x25,x11,x17
    8000088c:	0791b823          	sd	x25,112(x3)
    80000890:	00800093          	addi	x1,x0,8
    80000894:	01908463          	beq	x1,x25,0x8000089c
    80000898:	f8cff06f          	jal	x0,0x80000024
    8000089c:	00100513          	addi	x10,x0,1
    800008a0:	01951513          	slli	x10,x10,0x19
    800008a4:	01f00593          	addi	x11,x0,31
    800008a8:	40b55633          	sra	x12,x10,x11
    800008ac:	06c1bc23          	sd	x12,120(x3)
    800008b0:	00000093          	addi	x1,x0,0
    800008b4:	00c08463          	beq	x1,x12,0x800008bc
    800008b8:	f6cff06f          	jal	x0,0x80000024
    800008bc:	00100513          	addi	x10,x0,1
    800008c0:	01a51513          	slli	x10,x10,0x1a
    800008c4:	01000593          	addi	x11,x0,16
    800008c8:	40b55633          	sra	x12,x10,x11
    800008cc:	08c1b023          	sd	x12,128(x3)
    800008d0:	40000093          	addi	x1,x0,1024
    800008d4:	00c08463          	beq	x1,x12,0x800008dc
    800008d8:	f4cff06f          	jal	x0,0x80000024
    800008dc:	00100513          	addi	x10,x0,1
    800008e0:	01b51513          	slli	x10,x10,0x1b
    800008e4:	00200593          	addi	x11,x0,2
    800008e8:	40b55633          	sra	x12,x10,x11
    800008ec:	08c1b423          	sd	x12,136(x3)
    800008f0:	020000b7          	lui	x1,0x2000
    800008f4:	00c08463          	beq	x1,x12,0x800008fc
    800008f8:	f2cff06f          	jal	x0,0x80000024
    800008fc:	00100513          	addi	x10,x0,1
    80000900:	01c51513          	slli	x10,x10,0x1c
    80000904:	00d00593          	addi	x11,x0,13
    80000908:	40b55633          	sra	x12,x10,x11
    8000090c:	08c1b823          	sd	x12,144(x3)
    80000910:	000080b7          	lui	x1,0x8
    80000914:	00c08463          	beq	x1,x12,0x8000091c
    80000918:	f0cff06f          	jal	x0,0x80000024
    8000091c:	00100513          	addi	x10,x0,1
    80000920:	01d51513          	slli	x10,x10,0x1d
    80000924:	00300593          	addi	x11,x0,3
    80000928:	40b55633          	sra	x12,x10,x11
    8000092c:	08c1bc23          	sd	x12,152(x3)
    80000930:	040000b7          	lui	x1,0x4000
    80000934:	00c08463          	beq	x1,x12,0x8000093c
    80000938:	eecff06f          	jal	x0,0x80000024
    8000093c:	00100513          	addi	x10,x0,1
    80000940:	01e51513          	slli	x10,x10,0x1e
    80000944:	00c00593          	addi	x11,x0,12
    80000948:	40b55633          	sra	x12,x10,x11
    8000094c:	0ac1b023          	sd	x12,160(x3)
    80000950:	000400b7          	lui	x1,0x40
    80000954:	00c08463          	beq	x1,x12,0x8000095c
    80000958:	eccff06f          	jal	x0,0x80000024
    8000095c:	00100513          	addi	x10,x0,1
    80000960:	01f51513          	slli	x10,x10,0x1f
    80000964:	00b00593          	addi	x11,x0,11
    80000968:	40b55633          	sra	x12,x10,x11
    8000096c:	0ac1b423          	sd	x12,168(x3)
    80000970:	001000b7          	lui	x1,0x100
    80000974:	00c08463          	beq	x1,x12,0x8000097c
    80000978:	eacff06f          	jal	x0,0x80000024
    8000097c:	00100513          	addi	x10,x0,1
    80000980:	02151513          	slli	x10,x10,0x21
    80000984:	00a00593          	addi	x11,x0,10
    80000988:	40b55633          	sra	x12,x10,x11
    8000098c:	0ac1b823          	sd	x12,176(x3)
    80000990:	008000b7          	lui	x1,0x800
    80000994:	00c08463          	beq	x1,x12,0x8000099c
    80000998:	e8cff06f          	jal	x0,0x80000024
    8000099c:	00100513          	addi	x10,x0,1
    800009a0:	02251513          	slli	x10,x10,0x22
    800009a4:	00e00593          	addi	x11,x0,14
    800009a8:	40b55633          	sra	x12,x10,x11
    800009ac:	0ac1bc23          	sd	x12,184(x3)
    800009b0:	001000b7          	lui	x1,0x100
    800009b4:	00c08463          	beq	x1,x12,0x800009bc
    800009b8:	e6cff06f          	jal	x0,0x80000024
    800009bc:	00100513          	addi	x10,x0,1
    800009c0:	02351513          	slli	x10,x10,0x23
    800009c4:	00f00593          	addi	x11,x0,15
    800009c8:	40b55633          	sra	x12,x10,x11
    800009cc:	0cc1b023          	sd	x12,192(x3)
    800009d0:	001000b7          	lui	x1,0x100
    800009d4:	00c08463          	beq	x1,x12,0x800009dc
    800009d8:	e4cff06f          	jal	x0,0x80000024
    800009dc:	00100513          	addi	x10,x0,1
    800009e0:	02451513          	slli	x10,x10,0x24
    800009e4:	02000593          	addi	x11,x0,32
    800009e8:	40b55633          	sra	x12,x10,x11
    800009ec:	0cc1b423          	sd	x12,200(x3)
    800009f0:	01000093          	addi	x1,x0,16
    800009f4:	00c08463          	beq	x1,x12,0x800009fc
    800009f8:	e2cff06f          	jal	x0,0x80000024
    800009fc:	00100513          	addi	x10,x0,1
    80000a00:	02551513          	slli	x10,x10,0x25
    80000a04:	02f00593          	addi	x11,x0,47
    80000a08:	40b55633          	sra	x12,x10,x11
    80000a0c:	0cc1b823          	sd	x12,208(x3)
    80000a10:	00000093          	addi	x1,x0,0
    80000a14:	00c08463          	beq	x1,x12,0x80000a1c
    80000a18:	e0cff06f          	jal	x0,0x80000024
    80000a1c:	00100513          	addi	x10,x0,1
    80000a20:	02651513          	slli	x10,x10,0x26
    80000a24:	02a00593          	addi	x11,x0,42
    80000a28:	40b55633          	sra	x12,x10,x11
    80000a2c:	0cc1bc23          	sd	x12,216(x3)
    80000a30:	00000093          	addi	x1,x0,0
    80000a34:	00c08463          	beq	x1,x12,0x80000a3c
    80000a38:	decff06f          	jal	x0,0x80000024
    80000a3c:	00100513          	addi	x10,x0,1
    80000a40:	02751513          	slli	x10,x10,0x27
    80000a44:	01000593          	addi	x11,x0,16
    80000a48:	40b55633          	sra	x12,x10,x11
    80000a4c:	0ec1b023          	sd	x12,224(x3)
    80000a50:	008000b7          	lui	x1,0x800
    80000a54:	00c08463          	beq	x1,x12,0x80000a5c
    80000a58:	dccff06f          	jal	x0,0x80000024
    80000a5c:	00100513          	addi	x10,x0,1
    80000a60:	02851513          	slli	x10,x10,0x28
    80000a64:	00c00593          	addi	x11,x0,12
    80000a68:	40b55633          	sra	x12,x10,x11
    80000a6c:	0ec1b423          	sd	x12,232(x3)
    80000a70:	100000b7          	lui	x1,0x10000
    80000a74:	00c08463          	beq	x1,x12,0x80000a7c
    80000a78:	dacff06f          	jal	x0,0x80000024
    80000a7c:	00100513          	addi	x10,x0,1
    80000a80:	02951513          	slli	x10,x10,0x29
    80000a84:	02a00593          	addi	x11,x0,42
    80000a88:	40b55633          	sra	x12,x10,x11
    80000a8c:	0ec1b823          	sd	x12,240(x3)
    80000a90:	00000093          	addi	x1,x0,0
    80000a94:	00c08463          	beq	x1,x12,0x80000a9c
    80000a98:	d8cff06f          	jal	x0,0x80000024
    80000a9c:	00100513          	addi	x10,x0,1
    80000aa0:	02a51513          	slli	x10,x10,0x2a
    80000aa4:	00500593          	addi	x11,x0,5
    80000aa8:	40b55633          	sra	x12,x10,x11
    80000aac:	0ec1bc23          	sd	x12,248(x3)
    80000ab0:	0010009b          	addiw	x1,x0,1
    80000ab4:	02509093          	slli	x1,x1,0x25
    80000ab8:	00c08463          	beq	x1,x12,0x80000ac0
    80000abc:	d68ff06f          	jal	x0,0x80000024
    80000ac0:	00100513          	addi	x10,x0,1
    80000ac4:	02b51513          	slli	x10,x10,0x2b
    80000ac8:	00800593          	addi	x11,x0,8
    80000acc:	40b55633          	sra	x12,x10,x11
    80000ad0:	10c1b023          	sd	x12,256(x3)
    80000ad4:	0010009b          	addiw	x1,x0,1
    80000ad8:	02309093          	slli	x1,x1,0x23
    80000adc:	00c08463          	beq	x1,x12,0x80000ae4
    80000ae0:	d44ff06f          	jal	x0,0x80000024
    80000ae4:	00100513          	addi	x10,x0,1
    80000ae8:	02c51513          	slli	x10,x10,0x2c
    80000aec:	03700593          	addi	x11,x0,55
    80000af0:	40b55633          	sra	x12,x10,x11
    80000af4:	10c1b423          	sd	x12,264(x3)
    80000af8:	00000093          	addi	x1,x0,0
    80000afc:	00c08463          	beq	x1,x12,0x80000b04
    80000b00:	d24ff06f          	jal	x0,0x80000024
    80000b04:	00100513          	addi	x10,x0,1
    80000b08:	02d51513          	slli	x10,x10,0x2d
    80000b0c:	03700593          	addi	x11,x0,55
    80000b10:	40b55633          	sra	x12,x10,x11
    80000b14:	10c1b823          	sd	x12,272(x3)
    80000b18:	00000093          	addi	x1,x0,0
    80000b1c:	00c08463          	beq	x1,x12,0x80000b24
    80000b20:	d04ff06f          	jal	x0,0x80000024
    80000b24:	00100513          	addi	x10,x0,1
    80000b28:	02e51513          	slli	x10,x10,0x2e
    80000b2c:	00c00593          	addi	x11,x0,12
    80000b30:	40b55633          	sra	x12,x10,x11
    80000b34:	10c1bc23          	sd	x12,280(x3)
    80000b38:	0010009b          	addiw	x1,x0,1
    80000b3c:	02209093          	slli	x1,x1,0x22
    80000b40:	00c08463          	beq	x1,x12,0x80000b48
    80000b44:	ce0ff06f          	jal	x0,0x80000024
    80000b48:	00100513          	addi	x10,x0,1
    80000b4c:	02f51513          	slli	x10,x10,0x2f
    80000b50:	02a00593          	addi	x11,x0,42
    80000b54:	40b55633          	sra	x12,x10,x11
    80000b58:	12c1b023          	sd	x12,288(x3)
    80000b5c:	02000093          	addi	x1,x0,32
    80000b60:	00c08463          	beq	x1,x12,0x80000b68
    80000b64:	cc0ff06f          	jal	x0,0x80000024
    80000b68:	00100513          	addi	x10,x0,1
    80000b6c:	03051513          	slli	x10,x10,0x30
    80000b70:	02a00593          	addi	x11,x0,42
    80000b74:	40b55633          	sra	x12,x10,x11
    80000b78:	12c1b423          	sd	x12,296(x3)
    80000b7c:	04000093          	addi	x1,x0,64
    80000b80:	00c08463          	beq	x1,x12,0x80000b88
    80000b84:	ca0ff06f          	jal	x0,0x80000024
    80000b88:	00100513          	addi	x10,x0,1
    80000b8c:	03151513          	slli	x10,x10,0x31
    80000b90:	00e00593          	addi	x11,x0,14
    80000b94:	40b55633          	sra	x12,x10,x11
    80000b98:	12c1b823          	sd	x12,304(x3)
    80000b9c:	0010009b          	addiw	x1,x0,1
    80000ba0:	02309093          	slli	x1,x1,0x23
    80000ba4:	00c08463          	beq	x1,x12,0x80000bac
    80000ba8:	c7cff06f          	jal	x0,0x80000024
    80000bac:	00100513          	addi	x10,x0,1
    80000bb0:	03251513          	slli	x10,x10,0x32
    80000bb4:	00c00593          	addi	x11,x0,12
    80000bb8:	40b55633          	sra	x12,x10,x11
    80000bbc:	12c1bc23          	sd	x12,312(x3)
    80000bc0:	0010009b          	addiw	x1,x0,1
    80000bc4:	02609093          	slli	x1,x1,0x26
    80000bc8:	00c08463          	beq	x1,x12,0x80000bd0
    80000bcc:	c58ff06f          	jal	x0,0x80000024
    80000bd0:	00100513          	addi	x10,x0,1
    80000bd4:	03351513          	slli	x10,x10,0x33
    80000bd8:	03d00593          	addi	x11,x0,61
    80000bdc:	40b55633          	sra	x12,x10,x11
    80000be0:	14c1b023          	sd	x12,320(x3)
    80000be4:	00000093          	addi	x1,x0,0
    80000be8:	00c08463          	beq	x1,x12,0x80000bf0
    80000bec:	c38ff06f          	jal	x0,0x80000024
    80000bf0:	00100513          	addi	x10,x0,1
    80000bf4:	03451513          	slli	x10,x10,0x34
    80000bf8:	00c00593          	addi	x11,x0,12
    80000bfc:	40b55633          	sra	x12,x10,x11
    80000c00:	14c1b423          	sd	x12,328(x3)
    80000c04:	0010009b          	addiw	x1,x0,1
    80000c08:	02809093          	slli	x1,x1,0x28
    80000c0c:	00c08463          	beq	x1,x12,0x80000c14
    80000c10:	c14ff06f          	jal	x0,0x80000024
    80000c14:	00100513          	addi	x10,x0,1
    80000c18:	03551513          	slli	x10,x10,0x35
    80000c1c:	00e00593          	addi	x11,x0,14
    80000c20:	40b55633          	sra	x12,x10,x11
    80000c24:	14c1b823          	sd	x12,336(x3)
    80000c28:	0010009b          	addiw	x1,x0,1
    80000c2c:	02709093          	slli	x1,x1,0x27
    80000c30:	00c08463          	beq	x1,x12,0x80000c38
    80000c34:	bf0ff06f          	jal	x0,0x80000024
    80000c38:	00100513          	addi	x10,x0,1
    80000c3c:	03651513          	slli	x10,x10,0x36
    80000c40:	03d00593          	addi	x11,x0,61
    80000c44:	40b55633          	sra	x12,x10,x11
    80000c48:	14c1bc23          	sd	x12,344(x3)
    80000c4c:	00000093          	addi	x1,x0,0
    80000c50:	00c08463          	beq	x1,x12,0x80000c58
    80000c54:	bd0ff06f          	jal	x0,0x80000024
    80000c58:	00100513          	addi	x10,x0,1
    80000c5c:	03751513          	slli	x10,x10,0x37
    80000c60:	01500593          	addi	x11,x0,21
    80000c64:	40b55633          	sra	x12,x10,x11
    80000c68:	16c1b023          	sd	x12,352(x3)
    80000c6c:	0010009b          	addiw	x1,x0,1
    80000c70:	02209093          	slli	x1,x1,0x22
    80000c74:	00c08463          	beq	x1,x12,0x80000c7c
    80000c78:	bacff06f          	jal	x0,0x80000024
    80000c7c:	00100513          	addi	x10,x0,1
    80000c80:	03851513          	slli	x10,x10,0x38
    80000c84:	00400593          	addi	x11,x0,4
    80000c88:	40b55633          	sra	x12,x10,x11
    80000c8c:	16c1b423          	sd	x12,360(x3)
    80000c90:	0010009b          	addiw	x1,x0,1
    80000c94:	03409093          	slli	x1,x1,0x34
    80000c98:	00c08463          	beq	x1,x12,0x80000ca0
    80000c9c:	b88ff06f          	jal	x0,0x80000024
    80000ca0:	00100513          	addi	x10,x0,1
    80000ca4:	03951513          	slli	x10,x10,0x39
    80000ca8:	00100593          	addi	x11,x0,1
    80000cac:	40b55633          	sra	x12,x10,x11
    80000cb0:	16c1b823          	sd	x12,368(x3)
    80000cb4:	0010009b          	addiw	x1,x0,1
    80000cb8:	03809093          	slli	x1,x1,0x38
    80000cbc:	00c08463          	beq	x1,x12,0x80000cc4
    80000cc0:	b64ff06f          	jal	x0,0x80000024
    80000cc4:	00100513          	addi	x10,x0,1
    80000cc8:	03a51513          	slli	x10,x10,0x3a
    80000ccc:	03d00593          	addi	x11,x0,61
    80000cd0:	40b55633          	sra	x12,x10,x11
    80000cd4:	16c1bc23          	sd	x12,376(x3)
    80000cd8:	00000093          	addi	x1,x0,0
    80000cdc:	00c08463          	beq	x1,x12,0x80000ce4
    80000ce0:	b44ff06f          	jal	x0,0x80000024
    80000ce4:	00100513          	addi	x10,x0,1
    80000ce8:	03b51513          	slli	x10,x10,0x3b
    80000cec:	00300593          	addi	x11,x0,3
    80000cf0:	40b55633          	sra	x12,x10,x11
    80000cf4:	18c1b023          	sd	x12,384(x3)
    80000cf8:	0010009b          	addiw	x1,x0,1
    80000cfc:	03809093          	slli	x1,x1,0x38
    80000d00:	00c08463          	beq	x1,x12,0x80000d08
    80000d04:	b20ff06f          	jal	x0,0x80000024
    80000d08:	00100513          	addi	x10,x0,1
    80000d0c:	03c51513          	slli	x10,x10,0x3c
    80000d10:	01000593          	addi	x11,x0,16
    80000d14:	40b55633          	sra	x12,x10,x11
    80000d18:	18c1b423          	sd	x12,392(x3)
    80000d1c:	0010009b          	addiw	x1,x0,1
    80000d20:	02c09093          	slli	x1,x1,0x2c
    80000d24:	00c08463          	beq	x1,x12,0x80000d2c
    80000d28:	afcff06f          	jal	x0,0x80000024
    80000d2c:	00100513          	addi	x10,x0,1
    80000d30:	03d51513          	slli	x10,x10,0x3d
    80000d34:	02f00593          	addi	x11,x0,47
    80000d38:	40b55633          	sra	x12,x10,x11
    80000d3c:	18c1b823          	sd	x12,400(x3)
    80000d40:	000040b7          	lui	x1,0x4
    80000d44:	00c08463          	beq	x1,x12,0x80000d4c
    80000d48:	adcff06f          	jal	x0,0x80000024
    80000d4c:	00100513          	addi	x10,x0,1
    80000d50:	03e51513          	slli	x10,x10,0x3e
    80000d54:	01200593          	addi	x11,x0,18
    80000d58:	40b55633          	sra	x12,x10,x11
    80000d5c:	18c1bc23          	sd	x12,408(x3)
    80000d60:	0010009b          	addiw	x1,x0,1
    80000d64:	02c09093          	slli	x1,x1,0x2c
    80000d68:	00c08463          	beq	x1,x12,0x80000d70
    80000d6c:	ab8ff06f          	jal	x0,0x80000024
    80000d70:	ffe00513          	addi	x10,x0,-2
    80000d74:	03d00593          	addi	x11,x0,61
    80000d78:	40b55633          	sra	x12,x10,x11
    80000d7c:	1ac1b023          	sd	x12,416(x3)
    80000d80:	fff00093          	addi	x1,x0,-1
    80000d84:	00c08463          	beq	x1,x12,0x80000d8c
    80000d88:	a9cff06f          	jal	x0,0x80000024
    80000d8c:	ffd00513          	addi	x10,x0,-3
    80000d90:	01000593          	addi	x11,x0,16
    80000d94:	40b55633          	sra	x12,x10,x11
    80000d98:	1ac1b423          	sd	x12,424(x3)
    80000d9c:	fff00093          	addi	x1,x0,-1
    80000da0:	00c08463          	beq	x1,x12,0x80000da8
    80000da4:	a80ff06f          	jal	x0,0x80000024
    80000da8:	ffb00513          	addi	x10,x0,-5
    80000dac:	01500593          	addi	x11,x0,21
    80000db0:	40b55633          	sra	x12,x10,x11
    80000db4:	1ac1b823          	sd	x12,432(x3)
    80000db8:	fff00093          	addi	x1,x0,-1
    80000dbc:	00c08463          	beq	x1,x12,0x80000dc4
    80000dc0:	a64ff06f          	jal	x0,0x80000024
    80000dc4:	ff700513          	addi	x10,x0,-9
    80000dc8:	00200593          	addi	x11,x0,2
    80000dcc:	40b55633          	sra	x12,x10,x11
    80000dd0:	1ac1bc23          	sd	x12,440(x3)
    80000dd4:	ffd00093          	addi	x1,x0,-3
    80000dd8:	00c08463          	beq	x1,x12,0x80000de0
    80000ddc:	a48ff06f          	jal	x0,0x80000024
    80000de0:	fef00513          	addi	x10,x0,-17
    80000de4:	00a00593          	addi	x11,x0,10
    80000de8:	40b55633          	sra	x12,x10,x11
    80000dec:	1cc1b023          	sd	x12,448(x3)
    80000df0:	fff00093          	addi	x1,x0,-1
    80000df4:	00c08463          	beq	x1,x12,0x80000dfc
    80000df8:	a2cff06f          	jal	x0,0x80000024
    80000dfc:	fdf00513          	addi	x10,x0,-33
    80000e00:	02000593          	addi	x11,x0,32
    80000e04:	40b55633          	sra	x12,x10,x11
    80000e08:	1cc1b423          	sd	x12,456(x3)
    80000e0c:	fff00093          	addi	x1,x0,-1
    80000e10:	00c08463          	beq	x1,x12,0x80000e18
    80000e14:	a10ff06f          	jal	x0,0x80000024
    80000e18:	fbf00513          	addi	x10,x0,-65
    80000e1c:	00000593          	addi	x11,x0,0
    80000e20:	40b55633          	sra	x12,x10,x11
    80000e24:	1cc1b823          	sd	x12,464(x3)
    80000e28:	fbf00093          	addi	x1,x0,-65
    80000e2c:	00c08463          	beq	x1,x12,0x80000e34
    80000e30:	9f4ff06f          	jal	x0,0x80000024
    80000e34:	f7f00513          	addi	x10,x0,-129
    80000e38:	00700593          	addi	x11,x0,7
    80000e3c:	40b55633          	sra	x12,x10,x11
    80000e40:	1cc1bc23          	sd	x12,472(x3)
    80000e44:	ffe00093          	addi	x1,x0,-2
    80000e48:	00c08463          	beq	x1,x12,0x80000e50
    80000e4c:	9d8ff06f          	jal	x0,0x80000024
    80000e50:	eff00513          	addi	x10,x0,-257
    80000e54:	00700593          	addi	x11,x0,7
    80000e58:	40b55633          	sra	x12,x10,x11
    80000e5c:	1ec1b023          	sd	x12,480(x3)
    80000e60:	ffd00093          	addi	x1,x0,-3
    80000e64:	00c08463          	beq	x1,x12,0x80000e6c
    80000e68:	9bcff06f          	jal	x0,0x80000024
    80000e6c:	dff00513          	addi	x10,x0,-513
    80000e70:	03f00593          	addi	x11,x0,63
    80000e74:	40b55633          	sra	x12,x10,x11
    80000e78:	1ec1b423          	sd	x12,488(x3)
    80000e7c:	fff00093          	addi	x1,x0,-1
    80000e80:	00c08463          	beq	x1,x12,0x80000e88
    80000e84:	9a0ff06f          	jal	x0,0x80000024
    80000e88:	bff00513          	addi	x10,x0,-1025
    80000e8c:	03700593          	addi	x11,x0,55
    80000e90:	40b55633          	sra	x12,x10,x11
    80000e94:	1ec1b823          	sd	x12,496(x3)
    80000e98:	fff00093          	addi	x1,x0,-1
    80000e9c:	00c08463          	beq	x1,x12,0x80000ea4
    80000ea0:	984ff06f          	jal	x0,0x80000024
    80000ea4:	00100513          	addi	x10,x0,1
    80000ea8:	00b51513          	slli	x10,x10,0xb
    80000eac:	fff54513          	xori	x10,x10,-1
    80000eb0:	00800593          	addi	x11,x0,8
    80000eb4:	40b55633          	sra	x12,x10,x11
    80000eb8:	1ec1bc23          	sd	x12,504(x3)
    80000ebc:	ff700093          	addi	x1,x0,-9
    80000ec0:	00c08463          	beq	x1,x12,0x80000ec8
    80000ec4:	960ff06f          	jal	x0,0x80000024
    80000ec8:	00100513          	addi	x10,x0,1
    80000ecc:	00c51513          	slli	x10,x10,0xc
    80000ed0:	fff54513          	xori	x10,x10,-1
    80000ed4:	00800593          	addi	x11,x0,8
    80000ed8:	40b55633          	sra	x12,x10,x11
    80000edc:	20c1b023          	sd	x12,512(x3)
    80000ee0:	fef00093          	addi	x1,x0,-17
    80000ee4:	00c08463          	beq	x1,x12,0x80000eec
    80000ee8:	93cff06f          	jal	x0,0x80000024
    80000eec:	00100513          	addi	x10,x0,1
    80000ef0:	00d51513          	slli	x10,x10,0xd
    80000ef4:	fff54513          	xori	x10,x10,-1
    80000ef8:	00700593          	addi	x11,x0,7
    80000efc:	40b55633          	sra	x12,x10,x11
    80000f00:	20c1b423          	sd	x12,520(x3)
    80000f04:	fbf00093          	addi	x1,x0,-65
    80000f08:	00c08463          	beq	x1,x12,0x80000f10
    80000f0c:	918ff06f          	jal	x0,0x80000024
    80000f10:	00100513          	addi	x10,x0,1
    80000f14:	00e51513          	slli	x10,x10,0xe
    80000f18:	fff54513          	xori	x10,x10,-1
    80000f1c:	00300593          	addi	x11,x0,3
    80000f20:	40b55633          	sra	x12,x10,x11
    80000f24:	20c1b823          	sd	x12,528(x3)
    80000f28:	fffff0b7          	lui	x1,0xfffff
    80000f2c:	7ff0809b          	addiw	x1,x1,2047 # 0xfffffffffffff7ff
    80000f30:	00c08463          	beq	x1,x12,0x80000f38
    80000f34:	8f0ff06f          	jal	x0,0x80000024
    80000f38:	00100513          	addi	x10,x0,1
    80000f3c:	00f51513          	slli	x10,x10,0xf
    80000f40:	fff54513          	xori	x10,x10,-1
    80000f44:	00c00593          	addi	x11,x0,12
    80000f48:	40b55633          	sra	x12,x10,x11
    80000f4c:	20c1bc23          	sd	x12,536(x3)
    80000f50:	ff700093          	addi	x1,x0,-9
    80000f54:	00c08463          	beq	x1,x12,0x80000f5c
    80000f58:	8ccff06f          	jal	x0,0x80000024
    80000f5c:	00100513          	addi	x10,x0,1
    80000f60:	01051513          	slli	x10,x10,0x10
    80000f64:	fff54513          	xori	x10,x10,-1
    80000f68:	03e00593          	addi	x11,x0,62
    80000f6c:	40b55633          	sra	x12,x10,x11
    80000f70:	22c1b023          	sd	x12,544(x3)
    80000f74:	fff00093          	addi	x1,x0,-1
    80000f78:	00c08463          	beq	x1,x12,0x80000f80
    80000f7c:	8a8ff06f          	jal	x0,0x80000024
    80000f80:	00100513          	addi	x10,x0,1
    80000f84:	01151513          	slli	x10,x10,0x11
    80000f88:	fff54513          	xori	x10,x10,-1
    80000f8c:	02000593          	addi	x11,x0,32
    80000f90:	40b55633          	sra	x12,x10,x11
    80000f94:	22c1b423          	sd	x12,552(x3)
    80000f98:	fff00093          	addi	x1,x0,-1
    80000f9c:	00c08463          	beq	x1,x12,0x80000fa4
    80000fa0:	884ff06f          	jal	x0,0x80000024
    80000fa4:	00100513          	addi	x10,x0,1
    80000fa8:	01251513          	slli	x10,x10,0x12
    80000fac:	fff54513          	xori	x10,x10,-1
    80000fb0:	00c00593          	addi	x11,x0,12
    80000fb4:	40b55633          	sra	x12,x10,x11
    80000fb8:	22c1b823          	sd	x12,560(x3)
    80000fbc:	fbf00093          	addi	x1,x0,-65
    80000fc0:	00c08463          	beq	x1,x12,0x80000fc8
    80000fc4:	860ff06f          	jal	x0,0x80000024
    80000fc8:	00100513          	addi	x10,x0,1
    80000fcc:	03751513          	slli	x10,x10,0x37
    80000fd0:	fff54513          	xori	x10,x10,-1
    80000fd4:	00600593          	addi	x11,x0,6
    80000fd8:	40b55633          	sra	x12,x10,x11
    80000fdc:	22c1bc23          	sd	x12,568(x3)
    80000fe0:	fff0009b          	addiw	x1,x0,-1
    80000fe4:	03109093          	slli	x1,x1,0x31
    80000fe8:	fff08093          	addi	x1,x1,-1
    80000fec:	00c08463          	beq	x1,x12,0x80000ff4
    80000ff0:	834ff06f          	jal	x0,0x80000024
    80000ff4:	00100513          	addi	x10,x0,1
    80000ff8:	03851513          	slli	x10,x10,0x38
    80000ffc:	fff54513          	xori	x10,x10,-1
    80001000:	00e00593          	addi	x11,x0,14
    80001004:	40b55633          	sra	x12,x10,x11
    80001008:	24c1b023          	sd	x12,576(x3)
    8000100c:	fff0009b          	addiw	x1,x0,-1
    80001010:	02a09093          	slli	x1,x1,0x2a
    80001014:	fff08093          	addi	x1,x1,-1
    80001018:	00c08463          	beq	x1,x12,0x80001020
    8000101c:	808ff06f          	jal	x0,0x80000024
    80001020:	00100513          	addi	x10,x0,1
    80001024:	03951513          	slli	x10,x10,0x39
    80001028:	fff54513          	xori	x10,x10,-1
    8000102c:	00500593          	addi	x11,x0,5
    80001030:	40b55633          	sra	x12,x10,x11
    80001034:	24c1b423          	sd	x12,584(x3)
    80001038:	fff0009b          	addiw	x1,x0,-1
    8000103c:	03409093          	slli	x1,x1,0x34
    80001040:	fff08093          	addi	x1,x1,-1
    80001044:	00c08463          	beq	x1,x12,0x8000104c
    80001048:	fddfe06f          	jal	x0,0x80000024
    8000104c:	00100513          	addi	x10,x0,1
    80001050:	03a51513          	slli	x10,x10,0x3a
    80001054:	fff54513          	xori	x10,x10,-1
    80001058:	00200593          	addi	x11,x0,2
    8000105c:	40b55633          	sra	x12,x10,x11
    80001060:	24c1b823          	sd	x12,592(x3)
    80001064:	fff0009b          	addiw	x1,x0,-1
    80001068:	03809093          	slli	x1,x1,0x38
    8000106c:	fff08093          	addi	x1,x1,-1
    80001070:	00c08463          	beq	x1,x12,0x80001078
    80001074:	fb1fe06f          	jal	x0,0x80000024
    80001078:	00100513          	addi	x10,x0,1
    8000107c:	03b51513          	slli	x10,x10,0x3b
    80001080:	fff54513          	xori	x10,x10,-1
    80001084:	00700593          	addi	x11,x0,7
    80001088:	40b55633          	sra	x12,x10,x11
    8000108c:	24c1bc23          	sd	x12,600(x3)
    80001090:	fff0009b          	addiw	x1,x0,-1
    80001094:	03409093          	slli	x1,x1,0x34
    80001098:	fff08093          	addi	x1,x1,-1
    8000109c:	00c08463          	beq	x1,x12,0x800010a4
    800010a0:	f85fe06f          	jal	x0,0x80000024
    800010a4:	00100513          	addi	x10,x0,1
    800010a8:	03c51513          	slli	x10,x10,0x3c
    800010ac:	fff54513          	xori	x10,x10,-1
    800010b0:	00400593          	addi	x11,x0,4
    800010b4:	40b55633          	sra	x12,x10,x11
    800010b8:	26c1b023          	sd	x12,608(x3)
    800010bc:	fff0009b          	addiw	x1,x0,-1
    800010c0:	03809093          	slli	x1,x1,0x38
    800010c4:	fff08093          	addi	x1,x1,-1
    800010c8:	00c08463          	beq	x1,x12,0x800010d0
    800010cc:	f59fe06f          	jal	x0,0x80000024
    800010d0:	00100513          	addi	x10,x0,1
    800010d4:	03d51513          	slli	x10,x10,0x3d
    800010d8:	fff54513          	xori	x10,x10,-1
    800010dc:	00300593          	addi	x11,x0,3
    800010e0:	40b55633          	sra	x12,x10,x11
    800010e4:	26c1b423          	sd	x12,616(x3)
    800010e8:	fff0009b          	addiw	x1,x0,-1
    800010ec:	03a09093          	slli	x1,x1,0x3a
    800010f0:	fff08093          	addi	x1,x1,-1
    800010f4:	00c08463          	beq	x1,x12,0x800010fc
    800010f8:	f2dfe06f          	jal	x0,0x80000024
    800010fc:	00100513          	addi	x10,x0,1
    80001100:	03e51513          	slli	x10,x10,0x3e
    80001104:	fff54513          	xori	x10,x10,-1
    80001108:	00100593          	addi	x11,x0,1
    8000110c:	40b55633          	sra	x12,x10,x11
    80001110:	26c1b823          	sd	x12,624(x3)
    80001114:	fff0009b          	addiw	x1,x0,-1
    80001118:	03d09093          	slli	x1,x1,0x3d
    8000111c:	fff08093          	addi	x1,x1,-1
    80001120:	00c08463          	beq	x1,x12,0x80001128
    80001124:	f01fe06f          	jal	x0,0x80000024
    80001128:	55555537          	lui	x10,0x55555
    8000112c:	55550513          	addi	x10,x10,1365 # 0x55555555
    80001130:	00b51513          	slli	x10,x10,0xb
    80001134:	2aa50513          	addi	x10,x10,682
    80001138:	00b51513          	slli	x10,x10,0xb
    8000113c:	55550513          	addi	x10,x10,1365
    80001140:	00a51513          	slli	x10,x10,0xa
    80001144:	15550513          	addi	x10,x10,341
    80001148:	00900593          	addi	x11,x0,9
    8000114c:	40b55633          	sra	x12,x10,x11
    80001150:	26c1bc23          	sd	x12,632(x3)
    80001154:	2aaab0b7          	lui	x1,0x2aaab
    80001158:	aab0809b          	addiw	x1,x1,-1365 # 0x2aaaaaab
    8000115c:	00c09093          	slli	x1,x1,0xc
    80001160:	aab08093          	addi	x1,x1,-1365
    80001164:	00c09093          	slli	x1,x1,0xc
    80001168:	aaa08093          	addi	x1,x1,-1366
    8000116c:	00c08463          	beq	x1,x12,0x80001174
    80001170:	eb5fe06f          	jal	x0,0x80000024
    80001174:	aaaab537          	lui	x10,0xaaaab
    80001178:	aaa50513          	addi	x10,x10,-1366 # 0xffffffffaaaaaaaa
    8000117c:	00b51513          	slli	x10,x10,0xb
    80001180:	55550513          	addi	x10,x10,1365
    80001184:	00b51513          	slli	x10,x10,0xb
    80001188:	2aa50513          	addi	x10,x10,682
    8000118c:	00a51513          	slli	x10,x10,0xa
    80001190:	2aa50513          	addi	x10,x10,682
    80001194:	00700593          	addi	x11,x0,7
    80001198:	40b55633          	sra	x12,x10,x11
    8000119c:	28c1b023          	sd	x12,640(x3)
    800011a0:	fff550b7          	lui	x1,0xfff55
    800011a4:	5550809b          	addiw	x1,x1,1365 # 0xfffffffffff55555
    800011a8:	00c09093          	slli	x1,x1,0xc
    800011ac:	55508093          	addi	x1,x1,1365
    800011b0:	00c09093          	slli	x1,x1,0xc
    800011b4:	55508093          	addi	x1,x1,1365
    800011b8:	00c09093          	slli	x1,x1,0xc
    800011bc:	55508093          	addi	x1,x1,1365
    800011c0:	00c08463          	beq	x1,x12,0x800011c8
    800011c4:	e61fe06f          	jal	x0,0x80000024
    800011c8:	00300513          	addi	x10,x0,3
    800011cc:	00100593          	addi	x11,x0,1
    800011d0:	40b55633          	sra	x12,x10,x11
    800011d4:	28c1b423          	sd	x12,648(x3)
    800011d8:	00100093          	addi	x1,x0,1
    800011dc:	00c08463          	beq	x1,x12,0x800011e4
    800011e0:	e45fe06f          	jal	x0,0x80000024
    800011e4:	00500513          	addi	x10,x0,5
    800011e8:	02000593          	addi	x11,x0,32
    800011ec:	40b55633          	sra	x12,x10,x11
    800011f0:	28c1b823          	sd	x12,656(x3)
    800011f4:	00000093          	addi	x1,x0,0
    800011f8:	00c08463          	beq	x1,x12,0x80001200
    800011fc:	e29fe06f          	jal	x0,0x80000024
    80001200:	66666537          	lui	x10,0x66666
    80001204:	66650513          	addi	x10,x10,1638 # 0x66666666
    80001208:	00b51513          	slli	x10,x10,0xb
    8000120c:	33350513          	addi	x10,x10,819
    80001210:	00b51513          	slli	x10,x10,0xb
    80001214:	19950513          	addi	x10,x10,409
    80001218:	00a51513          	slli	x10,x10,0xa
    8000121c:	26650513          	addi	x10,x10,614
    80001220:	00c00593          	addi	x11,x0,12
    80001224:	40b55633          	sra	x12,x10,x11
    80001228:	28c1bc23          	sd	x12,664(x3)
    8000122c:	033330b7          	lui	x1,0x3333
    80001230:	3330809b          	addiw	x1,x1,819 # 0x3333333
    80001234:	00c09093          	slli	x1,x1,0xc
    80001238:	33308093          	addi	x1,x1,819
    8000123c:	00d09093          	slli	x1,x1,0xd
    80001240:	66608093          	addi	x1,x1,1638
    80001244:	00c08463          	beq	x1,x12,0x8000124c
    80001248:	dddfe06f          	jal	x0,0x80000024
    8000124c:	00000537          	lui	x10,0x0
    80001250:	fff50513          	addi	x10,x10,-1 # 0xffffffffffffffff
    80001254:	00b51513          	slli	x10,x10,0xb
    80001258:	25750513          	addi	x10,x10,599
    8000125c:	00b51513          	slli	x10,x10,0xb
    80001260:	6c350513          	addi	x10,x10,1731
    80001264:	00a51513          	slli	x10,x10,0xa
    80001268:	0cd50513          	addi	x10,x10,205
    8000126c:	00b00593          	addi	x11,x0,11
    80001270:	40b55633          	sra	x12,x10,x11
    80001274:	2ac1b023          	sd	x12,672(x3)
    80001278:	ffe960b7          	lui	x1,0xffe96
    8000127c:	f610809b          	addiw	x1,x1,-159 # 0xffffffffffe95f61
    80001280:	00c08463          	beq	x1,x12,0x80001288
    80001284:	da1fe06f          	jal	x0,0x80000024
    80001288:	00000537          	lui	x10,0x0
    8000128c:	00050513          	addi	x10,x10,0 # 0x0
    80001290:	00b51513          	slli	x10,x10,0xb
    80001294:	5a850513          	addi	x10,x10,1448
    80001298:	00b51513          	slli	x10,x10,0xb
    8000129c:	13c50513          	addi	x10,x10,316
    800012a0:	00a51513          	slli	x10,x10,0xa
    800012a4:	33350513          	addi	x10,x10,819
    800012a8:	01f00593          	addi	x11,x0,31
    800012ac:	40b55633          	sra	x12,x10,x11
    800012b0:	2ac1b423          	sd	x12,680(x3)
    800012b4:	00100093          	addi	x1,x0,1
    800012b8:	00c08463          	beq	x1,x12,0x800012c0
    800012bc:	d69fe06f          	jal	x0,0x80000024
    800012c0:	55555537          	lui	x10,0x55555
    800012c4:	55550513          	addi	x10,x10,1365 # 0x55555555
    800012c8:	00b51513          	slli	x10,x10,0xb
    800012cc:	2aa50513          	addi	x10,x10,682
    800012d0:	00b51513          	slli	x10,x10,0xb
    800012d4:	55550513          	addi	x10,x10,1365
    800012d8:	00a51513          	slli	x10,x10,0xa
    800012dc:	15450513          	addi	x10,x10,340
    800012e0:	03700593          	addi	x11,x0,55
    800012e4:	40b55633          	sra	x12,x10,x11
    800012e8:	2ac1b823          	sd	x12,688(x3)
    800012ec:	0aa00093          	addi	x1,x0,170
    800012f0:	00c08463          	beq	x1,x12,0x800012f8
    800012f4:	d31fe06f          	jal	x0,0x80000024
    800012f8:	33333537          	lui	x10,0x33333
    800012fc:	33350513          	addi	x10,x10,819 # 0x33333333
    80001300:	00b51513          	slli	x10,x10,0xb
    80001304:	19950513          	addi	x10,x10,409
    80001308:	00b51513          	slli	x10,x10,0xb
    8000130c:	4cc50513          	addi	x10,x10,1228
    80001310:	00a51513          	slli	x10,x10,0xa
    80001314:	33250513          	addi	x10,x10,818
    80001318:	02000593          	addi	x11,x0,32
    8000131c:	40b55633          	sra	x12,x10,x11
    80001320:	2ac1bc23          	sd	x12,696(x3)
    80001324:	333330b7          	lui	x1,0x33333
    80001328:	3330809b          	addiw	x1,x1,819 # 0x33333333
    8000132c:	00c08463          	beq	x1,x12,0x80001334
    80001330:	cf5fe06f          	jal	x0,0x80000024
    80001334:	66666537          	lui	x10,0x66666
    80001338:	66650513          	addi	x10,x10,1638 # 0x66666666
    8000133c:	00b51513          	slli	x10,x10,0xb
    80001340:	33350513          	addi	x10,x10,819
    80001344:	00b51513          	slli	x10,x10,0xb
    80001348:	19950513          	addi	x10,x10,409
    8000134c:	00a51513          	slli	x10,x10,0xa
    80001350:	26550513          	addi	x10,x10,613
    80001354:	00900593          	addi	x11,x0,9
    80001358:	40b55633          	sra	x12,x10,x11
    8000135c:	2cc1b023          	sd	x12,704(x3)
    80001360:	333330b7          	lui	x1,0x33333
    80001364:	3330809b          	addiw	x1,x1,819 # 0x33333333
    80001368:	00c09093          	slli	x1,x1,0xc
    8000136c:	33308093          	addi	x1,x1,819
    80001370:	00c09093          	slli	x1,x1,0xc
    80001374:	33308093          	addi	x1,x1,819
    80001378:	00c08463          	beq	x1,x12,0x80001380
    8000137c:	ca9fe06f          	jal	x0,0x80000024
    80001380:	00000537          	lui	x10,0x0
    80001384:	00050513          	addi	x10,x10,0 # 0x0
    80001388:	00b51513          	slli	x10,x10,0xb
    8000138c:	5a850513          	addi	x10,x10,1448
    80001390:	00b51513          	slli	x10,x10,0xb
    80001394:	13c50513          	addi	x10,x10,316
    80001398:	00a51513          	slli	x10,x10,0xa
    8000139c:	33250513          	addi	x10,x10,818
    800013a0:	01500593          	addi	x11,x0,21
    800013a4:	40b55633          	sra	x12,x10,x11
    800013a8:	2cc1b423          	sd	x12,712(x3)
    800013ac:	5a800093          	addi	x1,x0,1448
    800013b0:	00c08463          	beq	x1,x12,0x800013b8
    800013b4:	c71fe06f          	jal	x0,0x80000024
    800013b8:	55555537          	lui	x10,0x55555
    800013bc:	55550513          	addi	x10,x10,1365 # 0x55555555
    800013c0:	00b51513          	slli	x10,x10,0xb
    800013c4:	2aa50513          	addi	x10,x10,682
    800013c8:	00b51513          	slli	x10,x10,0xb
    800013cc:	55550513          	addi	x10,x10,1365
    800013d0:	00a51513          	slli	x10,x10,0xa
    800013d4:	15650513          	addi	x10,x10,342
    800013d8:	00e00593          	addi	x11,x0,14
    800013dc:	40b55633          	sra	x12,x10,x11
    800013e0:	2cc1b823          	sd	x12,720(x3)
    800013e4:	015550b7          	lui	x1,0x1555
    800013e8:	5550809b          	addiw	x1,x1,1365 # 0x1555555
    800013ec:	00c09093          	slli	x1,x1,0xc
    800013f0:	55508093          	addi	x1,x1,1365
    800013f4:	00c09093          	slli	x1,x1,0xc
    800013f8:	55508093          	addi	x1,x1,1365
    800013fc:	00c08463          	beq	x1,x12,0x80001404
    80001400:	c25fe06f          	jal	x0,0x80000024
    80001404:	aaaab537          	lui	x10,0xaaaab
    80001408:	aaa50513          	addi	x10,x10,-1366 # 0xffffffffaaaaaaaa
    8000140c:	00b51513          	slli	x10,x10,0xb
    80001410:	55550513          	addi	x10,x10,1365
    80001414:	00b51513          	slli	x10,x10,0xb
    80001418:	2aa50513          	addi	x10,x10,682
    8000141c:	00a51513          	slli	x10,x10,0xa
    80001420:	2ab50513          	addi	x10,x10,683
    80001424:	00e00593          	addi	x11,x0,14
    80001428:	40b55633          	sra	x12,x10,x11
    8000142c:	2cc1bc23          	sd	x12,728(x3)
    80001430:	feaab0b7          	lui	x1,0xfeaab
    80001434:	aab0809b          	addiw	x1,x1,-1365 # 0xfffffffffeaaaaab
    80001438:	00c09093          	slli	x1,x1,0xc
    8000143c:	aab08093          	addi	x1,x1,-1365
    80001440:	00c09093          	slli	x1,x1,0xc
    80001444:	aaa08093          	addi	x1,x1,-1366
    80001448:	00c08463          	beq	x1,x12,0x80001450
    8000144c:	bd9fe06f          	jal	x0,0x80000024
    80001450:	00600513          	addi	x10,x0,6
    80001454:	03e00593          	addi	x11,x0,62
    80001458:	40b55633          	sra	x12,x10,x11
    8000145c:	2ec1b023          	sd	x12,736(x3)
    80001460:	00000093          	addi	x1,x0,0
    80001464:	00c08463          	beq	x1,x12,0x8000146c
    80001468:	bbdfe06f          	jal	x0,0x80000024
    8000146c:	33333537          	lui	x10,0x33333
    80001470:	33350513          	addi	x10,x10,819 # 0x33333333
    80001474:	00b51513          	slli	x10,x10,0xb
    80001478:	19950513          	addi	x10,x10,409
    8000147c:	00b51513          	slli	x10,x10,0xb
    80001480:	4cc50513          	addi	x10,x10,1228
    80001484:	00a51513          	slli	x10,x10,0xa
    80001488:	33450513          	addi	x10,x10,820
    8000148c:	01200593          	addi	x11,x0,18
    80001490:	40b55633          	sra	x12,x10,x11
    80001494:	2ec1b423          	sd	x12,744(x3)
    80001498:	000cd0b7          	lui	x1,0xcd
    8000149c:	ccd0809b          	addiw	x1,x1,-819 # 0xccccd
    800014a0:	00c09093          	slli	x1,x1,0xc
    800014a4:	ccd08093          	addi	x1,x1,-819
    800014a8:	00c09093          	slli	x1,x1,0xc
    800014ac:	ccc08093          	addi	x1,x1,-820
    800014b0:	00c08463          	beq	x1,x12,0x800014b8
    800014b4:	b71fe06f          	jal	x0,0x80000024
    800014b8:	66666537          	lui	x10,0x66666
    800014bc:	66650513          	addi	x10,x10,1638 # 0x66666666
    800014c0:	00b51513          	slli	x10,x10,0xb
    800014c4:	33350513          	addi	x10,x10,819
    800014c8:	00b51513          	slli	x10,x10,0xb
    800014cc:	19950513          	addi	x10,x10,409
    800014d0:	00a51513          	slli	x10,x10,0xa
    800014d4:	26750513          	addi	x10,x10,615
    800014d8:	00e00593          	addi	x11,x0,14
    800014dc:	40b55633          	sra	x12,x10,x11
    800014e0:	2ec1b823          	sd	x12,752(x3)
    800014e4:	00ccd0b7          	lui	x1,0xccd
    800014e8:	ccd0809b          	addiw	x1,x1,-819 # 0xcccccd
    800014ec:	00c09093          	slli	x1,x1,0xc
    800014f0:	ccd08093          	addi	x1,x1,-819
    800014f4:	00d09093          	slli	x1,x1,0xd
    800014f8:	99908093          	addi	x1,x1,-1639
    800014fc:	00c08463          	beq	x1,x12,0x80001504
    80001500:	b25fe06f          	jal	x0,0x80000024
    80001504:	00000537          	lui	x10,0x0
    80001508:	fff50513          	addi	x10,x10,-1 # 0xffffffffffffffff
    8000150c:	00b51513          	slli	x10,x10,0xb
    80001510:	25750513          	addi	x10,x10,599
    80001514:	00b51513          	slli	x10,x10,0xb
    80001518:	6c350513          	addi	x10,x10,1731
    8000151c:	00a51513          	slli	x10,x10,0xa
    80001520:	0ce50513          	addi	x10,x10,206
    80001524:	01100593          	addi	x11,x0,17
    80001528:	40b55633          	sra	x12,x10,x11
    8000152c:	2ec1bc23          	sd	x12,760(x3)
    80001530:	ffffa0b7          	lui	x1,0xffffa
    80001534:	57d0809b          	addiw	x1,x1,1405 # 0xffffffffffffa57d
    80001538:	00c08463          	beq	x1,x12,0x80001540
    8000153c:	ae9fe06f          	jal	x0,0x80000024
    80001540:	00000537          	lui	x10,0x0
    80001544:	00050513          	addi	x10,x10,0 # 0x0
    80001548:	00b51513          	slli	x10,x10,0xb
    8000154c:	5a850513          	addi	x10,x10,1448
    80001550:	00b51513          	slli	x10,x10,0xb
    80001554:	13c50513          	addi	x10,x10,316
    80001558:	00a51513          	slli	x10,x10,0xa
    8000155c:	33450513          	addi	x10,x10,820
    80001560:	02a00593          	addi	x11,x0,42
    80001564:	40b55633          	sra	x12,x10,x11
    80001568:	30c1b023          	sd	x12,768(x3)
    8000156c:	00000093          	addi	x1,x0,0
    80001570:	00c08463          	beq	x1,x12,0x80001578
    80001574:	ab1fe06f          	jal	x0,0x80000024
    80001578:	00100513          	addi	x10,x0,1
    8000157c:	03b51513          	slli	x10,x10,0x3b
    80001580:	fff54513          	xori	x10,x10,-1
    80001584:	03b00593          	addi	x11,x0,59
    80001588:	40b55633          	sra	x12,x10,x11
    8000158c:	30c1b423          	sd	x12,776(x3)
    80001590:	ffe00093          	addi	x1,x0,-2
    80001594:	00c08463          	beq	x1,x12,0x8000159c
    80001598:	a8dfe06f          	jal	x0,0x80000024
    8000159c:	00100513          	addi	x10,x0,1
    800015a0:	01351513          	slli	x10,x10,0x13
    800015a4:	fff54513          	xori	x10,x10,-1
    800015a8:	02000593          	addi	x11,x0,32
    800015ac:	40b55633          	sra	x12,x10,x11
    800015b0:	30c1b823          	sd	x12,784(x3)
    800015b4:	fff00093          	addi	x1,x0,-1
    800015b8:	00c08463          	beq	x1,x12,0x800015c0
    800015bc:	a69fe06f          	jal	x0,0x80000024
    800015c0:	00100513          	addi	x10,x0,1
    800015c4:	01451513          	slli	x10,x10,0x14
    800015c8:	fff54513          	xori	x10,x10,-1
    800015cc:	01100593          	addi	x11,x0,17
    800015d0:	40b55633          	sra	x12,x10,x11
    800015d4:	30c1bc23          	sd	x12,792(x3)
    800015d8:	ff700093          	addi	x1,x0,-9
    800015dc:	00c08463          	beq	x1,x12,0x800015e4
    800015e0:	a45fe06f          	jal	x0,0x80000024
    800015e4:	00100513          	addi	x10,x0,1
    800015e8:	01551513          	slli	x10,x10,0x15
    800015ec:	fff54513          	xori	x10,x10,-1
    800015f0:	00500593          	addi	x11,x0,5
    800015f4:	40b55633          	sra	x12,x10,x11
    800015f8:	32c1b023          	sd	x12,800(x3)
    800015fc:	ffff00b7          	lui	x1,0xffff0
    80001600:	fff0809b          	addiw	x1,x1,-1 # 0xfffffffffffeffff
    80001604:	00c08463          	beq	x1,x12,0x8000160c
    80001608:	a1dfe06f          	jal	x0,0x80000024
    8000160c:	00100513          	addi	x10,x0,1
    80001610:	01651513          	slli	x10,x10,0x16
    80001614:	fff54513          	xori	x10,x10,-1
    80001618:	02000593          	addi	x11,x0,32
    8000161c:	40b55633          	sra	x12,x10,x11
    80001620:	32c1b423          	sd	x12,808(x3)
    80001624:	fff00093          	addi	x1,x0,-1
    80001628:	00c08463          	beq	x1,x12,0x80001630
    8000162c:	9f9fe06f          	jal	x0,0x80000024
    80001630:	00100513          	addi	x10,x0,1
    80001634:	01751513          	slli	x10,x10,0x17
    80001638:	fff54513          	xori	x10,x10,-1
    8000163c:	00c00593          	addi	x11,x0,12
    80001640:	40b55633          	sra	x12,x10,x11
    80001644:	32c1b823          	sd	x12,816(x3)
    80001648:	fffff0b7          	lui	x1,0xfffff
    8000164c:	7ff0809b          	addiw	x1,x1,2047 # 0xfffffffffffff7ff
    80001650:	00c08463          	beq	x1,x12,0x80001658
    80001654:	9d1fe06f          	jal	x0,0x80000024
    80001658:	00100513          	addi	x10,x0,1
    8000165c:	01851513          	slli	x10,x10,0x18
    80001660:	fff54513          	xori	x10,x10,-1
    80001664:	00a00593          	addi	x11,x0,10
    80001668:	40b55633          	sra	x12,x10,x11
    8000166c:	32c1bc23          	sd	x12,824(x3)
    80001670:	ffffc0b7          	lui	x1,0xffffc
    80001674:	fff0809b          	addiw	x1,x1,-1 # 0xffffffffffffbfff
    80001678:	00c08463          	beq	x1,x12,0x80001680
    8000167c:	9a9fe06f          	jal	x0,0x80000024
    80001680:	00100513          	addi	x10,x0,1
    80001684:	01951513          	slli	x10,x10,0x19
    80001688:	fff54513          	xori	x10,x10,-1
    8000168c:	00c00593          	addi	x11,x0,12
    80001690:	40b55633          	sra	x12,x10,x11
    80001694:	34c1b023          	sd	x12,832(x3)
    80001698:	ffffe0b7          	lui	x1,0xffffe
    8000169c:	fff0809b          	addiw	x1,x1,-1 # 0xffffffffffffdfff
    800016a0:	00c08463          	beq	x1,x12,0x800016a8
    800016a4:	981fe06f          	jal	x0,0x80000024
    800016a8:	00100513          	addi	x10,x0,1
    800016ac:	01a51513          	slli	x10,x10,0x1a
    800016b0:	fff54513          	xori	x10,x10,-1
    800016b4:	00300593          	addi	x11,x0,3
    800016b8:	40b55633          	sra	x12,x10,x11
    800016bc:	34c1b423          	sd	x12,840(x3)
    800016c0:	ff8000b7          	lui	x1,0xff800
    800016c4:	fff0809b          	addiw	x1,x1,-1 # 0xffffffffff7fffff
    800016c8:	00c08463          	beq	x1,x12,0x800016d0
    800016cc:	959fe06f          	jal	x0,0x80000024
    800016d0:	00100513          	addi	x10,x0,1
    800016d4:	01b51513          	slli	x10,x10,0x1b
    800016d8:	fff54513          	xori	x10,x10,-1
    800016dc:	03d00593          	addi	x11,x0,61
    800016e0:	40b55633          	sra	x12,x10,x11
    800016e4:	34c1b823          	sd	x12,848(x3)
    800016e8:	fff00093          	addi	x1,x0,-1
    800016ec:	00c08463          	beq	x1,x12,0x800016f4
    800016f0:	935fe06f          	jal	x0,0x80000024
    800016f4:	00100513          	addi	x10,x0,1
    800016f8:	01c51513          	slli	x10,x10,0x1c
    800016fc:	fff54513          	xori	x10,x10,-1
    80001700:	01100593          	addi	x11,x0,17
    80001704:	40b55633          	sra	x12,x10,x11
    80001708:	34c1bc23          	sd	x12,856(x3)
    8000170c:	fffff0b7          	lui	x1,0xfffff
    80001710:	7ff0809b          	addiw	x1,x1,2047 # 0xfffffffffffff7ff
    80001714:	00c08463          	beq	x1,x12,0x8000171c
    80001718:	90dfe06f          	jal	x0,0x80000024
    8000171c:	00100513          	addi	x10,x0,1
    80001720:	01d51513          	slli	x10,x10,0x1d
    80001724:	fff54513          	xori	x10,x10,-1
    80001728:	02f00593          	addi	x11,x0,47
    8000172c:	40b55633          	sra	x12,x10,x11
    80001730:	36c1b023          	sd	x12,864(x3)
    80001734:	fff00093          	addi	x1,x0,-1
    80001738:	00c08463          	beq	x1,x12,0x80001740
    8000173c:	8e9fe06f          	jal	x0,0x80000024
    80001740:	00100513          	addi	x10,x0,1
    80001744:	01e51513          	slli	x10,x10,0x1e
    80001748:	fff54513          	xori	x10,x10,-1
    8000174c:	00900593          	addi	x11,x0,9
    80001750:	40b55633          	sra	x12,x10,x11
    80001754:	36c1b423          	sd	x12,872(x3)
    80001758:	ffe000b7          	lui	x1,0xffe00
    8000175c:	fff0809b          	addiw	x1,x1,-1 # 0xffffffffffdfffff
    80001760:	00c08463          	beq	x1,x12,0x80001768
    80001764:	8c1fe06f          	jal	x0,0x80000024
    80001768:	00100513          	addi	x10,x0,1
    8000176c:	01f51513          	slli	x10,x10,0x1f
    80001770:	fff54513          	xori	x10,x10,-1
    80001774:	00d00593          	addi	x11,x0,13
    80001778:	40b55633          	sra	x12,x10,x11
    8000177c:	36c1b823          	sd	x12,880(x3)
    80001780:	fffc00b7          	lui	x1,0xfffc0
    80001784:	fff0809b          	addiw	x1,x1,-1 # 0xfffffffffffbffff
    80001788:	00c08463          	beq	x1,x12,0x80001790
    8000178c:	899fe06f          	jal	x0,0x80000024
    80001790:	00100513          	addi	x10,x0,1
    80001794:	02151513          	slli	x10,x10,0x21
    80001798:	fff54513          	xori	x10,x10,-1
    8000179c:	00a00593          	addi	x11,x0,10
    800017a0:	40b55633          	sra	x12,x10,x11
    800017a4:	36c1bc23          	sd	x12,888(x3)
    800017a8:	ff8000b7          	lui	x1,0xff800
    800017ac:	fff0809b          	addiw	x1,x1,-1 # 0xffffffffff7fffff
    800017b0:	00c08463          	beq	x1,x12,0x800017b8
    800017b4:	871fe06f          	jal	x0,0x80000024
    800017b8:	00100513          	addi	x10,x0,1
    800017bc:	02251513          	slli	x10,x10,0x22
    800017c0:	fff54513          	xori	x10,x10,-1
    800017c4:	03b00593          	addi	x11,x0,59
    800017c8:	40b55633          	sra	x12,x10,x11
    800017cc:	38c1b023          	sd	x12,896(x3)
    800017d0:	fff00093          	addi	x1,x0,-1
    800017d4:	00c08463          	beq	x1,x12,0x800017dc
    800017d8:	84dfe06f          	jal	x0,0x80000024
    800017dc:	00100513          	addi	x10,x0,1
    800017e0:	02451513          	slli	x10,x10,0x24
    800017e4:	fff54513          	xori	x10,x10,-1
    800017e8:	00e00593          	addi	x11,x0,14
    800017ec:	40b55633          	sra	x12,x10,x11
    800017f0:	38c1b423          	sd	x12,904(x3)
    800017f4:	ffc000b7          	lui	x1,0xffc00
    800017f8:	fff0809b          	addiw	x1,x1,-1 # 0xffffffffffbfffff
    800017fc:	00c08463          	beq	x1,x12,0x80001804
    80001800:	825fe06f          	jal	x0,0x80000024
    80001804:	00100513          	addi	x10,x0,1
    80001808:	02551513          	slli	x10,x10,0x25
    8000180c:	fff54513          	xori	x10,x10,-1
    80001810:	02f00593          	addi	x11,x0,47
    80001814:	40b55633          	sra	x12,x10,x11
    80001818:	38c1b823          	sd	x12,912(x3)
    8000181c:	fff00093          	addi	x1,x0,-1
    80001820:	00c08463          	beq	x1,x12,0x80001828
    80001824:	801fe06f          	jal	x0,0x80000024
    80001828:	00100513          	addi	x10,x0,1
    8000182c:	02651513          	slli	x10,x10,0x26
    80001830:	fff54513          	xori	x10,x10,-1
    80001834:	00a00593          	addi	x11,x0,10
    80001838:	40b55633          	sra	x12,x10,x11
    8000183c:	38c1bc23          	sd	x12,920(x3)
    80001840:	f00000b7          	lui	x1,0xf0000
    80001844:	fff0809b          	addiw	x1,x1,-1 # 0xffffffffefffffff
    80001848:	00c08463          	beq	x1,x12,0x80001850
    8000184c:	fd8fe06f          	jal	x0,0x80000024
    80001850:	00100513          	addi	x10,x0,1
    80001854:	02751513          	slli	x10,x10,0x27
    80001858:	fff54513          	xori	x10,x10,-1
    8000185c:	03700593          	addi	x11,x0,55
    80001860:	40b55633          	sra	x12,x10,x11
    80001864:	3ac1b023          	sd	x12,928(x3)
    80001868:	fff00093          	addi	x1,x0,-1
    8000186c:	00c08463          	beq	x1,x12,0x80001874
    80001870:	fb4fe06f          	jal	x0,0x80000024
    80001874:	00100513          	addi	x10,x0,1
    80001878:	02851513          	slli	x10,x10,0x28
    8000187c:	fff54513          	xori	x10,x10,-1
    80001880:	00900593          	addi	x11,x0,9
    80001884:	40b55633          	sra	x12,x10,x11
    80001888:	3ac1b423          	sd	x12,936(x3)
    8000188c:	fff0009b          	addiw	x1,x0,-1
    80001890:	01f09093          	slli	x1,x1,0x1f
    80001894:	fff08093          	addi	x1,x1,-1
    80001898:	00c08463          	beq	x1,x12,0x800018a0
    8000189c:	f88fe06f          	jal	x0,0x80000024
    800018a0:	00100513          	addi	x10,x0,1
    800018a4:	02951513          	slli	x10,x10,0x29
    800018a8:	fff54513          	xori	x10,x10,-1
    800018ac:	00d00593          	addi	x11,x0,13
    800018b0:	40b55633          	sra	x12,x10,x11
    800018b4:	3ac1b823          	sd	x12,944(x3)
    800018b8:	f00000b7          	lui	x1,0xf0000
    800018bc:	fff0809b          	addiw	x1,x1,-1 # 0xffffffffefffffff
    800018c0:	00c08463          	beq	x1,x12,0x800018c8
    800018c4:	f60fe06f          	jal	x0,0x80000024
    800018c8:	00100513          	addi	x10,x0,1
    800018cc:	02a51513          	slli	x10,x10,0x2a
    800018d0:	fff54513          	xori	x10,x10,-1
    800018d4:	01f00593          	addi	x11,x0,31
    800018d8:	40b55633          	sra	x12,x10,x11
    800018dc:	3ac1bc23          	sd	x12,952(x3)
    800018e0:	fffff0b7          	lui	x1,0xfffff
    800018e4:	7ff0809b          	addiw	x1,x1,2047 # 0xfffffffffffff7ff
    800018e8:	00c08463          	beq	x1,x12,0x800018f0
    800018ec:	f38fe06f          	jal	x0,0x80000024
    800018f0:	00100513          	addi	x10,x0,1
    800018f4:	02b51513          	slli	x10,x10,0x2b
    800018f8:	fff54513          	xori	x10,x10,-1
    800018fc:	01200593          	addi	x11,x0,18
    80001900:	40b55633          	sra	x12,x10,x11
    80001904:	3cc1b023          	sd	x12,960(x3)
    80001908:	fe0000b7          	lui	x1,0xfe000
    8000190c:	fff0809b          	addiw	x1,x1,-1 # 0xfffffffffdffffff
    80001910:	00c08463          	beq	x1,x12,0x80001918
    80001914:	f10fe06f          	jal	x0,0x80000024
    80001918:	00100513          	addi	x10,x0,1
    8000191c:	02c51513          	slli	x10,x10,0x2c
    80001920:	fff54513          	xori	x10,x10,-1
    80001924:	00700593          	addi	x11,x0,7
    80001928:	40b55633          	sra	x12,x10,x11
    8000192c:	3cc1b423          	sd	x12,968(x3)
    80001930:	fff0009b          	addiw	x1,x0,-1
    80001934:	02509093          	slli	x1,x1,0x25
    80001938:	fff08093          	addi	x1,x1,-1
    8000193c:	00c08463          	beq	x1,x12,0x80001944
    80001940:	ee4fe06f          	jal	x0,0x80000024
    80001944:	00100513          	addi	x10,x0,1
    80001948:	02d51513          	slli	x10,x10,0x2d
    8000194c:	fff54513          	xori	x10,x10,-1
    80001950:	00100593          	addi	x11,x0,1
    80001954:	40b55633          	sra	x12,x10,x11
    80001958:	3cc1b823          	sd	x12,976(x3)
    8000195c:	fff0009b          	addiw	x1,x0,-1
    80001960:	02c09093          	slli	x1,x1,0x2c
    80001964:	fff08093          	addi	x1,x1,-1
    80001968:	00c08463          	beq	x1,x12,0x80001970
    8000196c:	eb8fe06f          	jal	x0,0x80000024
    80001970:	00100513          	addi	x10,x0,1
    80001974:	02e51513          	slli	x10,x10,0x2e
    80001978:	fff54513          	xori	x10,x10,-1
    8000197c:	00f00593          	addi	x11,x0,15
    80001980:	40b55633          	sra	x12,x10,x11
    80001984:	3cc1bc23          	sd	x12,984(x3)
    80001988:	fff0009b          	addiw	x1,x0,-1
    8000198c:	01f09093          	slli	x1,x1,0x1f
    80001990:	fff08093          	addi	x1,x1,-1
    80001994:	00c08463          	beq	x1,x12,0x8000199c
    80001998:	e8cfe06f          	jal	x0,0x80000024
    8000199c:	00100513          	addi	x10,x0,1
    800019a0:	02f51513          	slli	x10,x10,0x2f
    800019a4:	fff54513          	xori	x10,x10,-1
    800019a8:	00b00593          	addi	x11,x0,11
    800019ac:	40b55633          	sra	x12,x10,x11
    800019b0:	3ec1b023          	sd	x12,992(x3)
    800019b4:	fff0009b          	addiw	x1,x0,-1
    800019b8:	02409093          	slli	x1,x1,0x24
    800019bc:	fff08093          	addi	x1,x1,-1
    800019c0:	00c08463          	beq	x1,x12,0x800019c8
    800019c4:	e60fe06f          	jal	x0,0x80000024
    800019c8:	00100513          	addi	x10,x0,1
    800019cc:	03051513          	slli	x10,x10,0x30
    800019d0:	fff54513          	xori	x10,x10,-1
    800019d4:	00300593          	addi	x11,x0,3
    800019d8:	40b55633          	sra	x12,x10,x11
    800019dc:	3ec1b423          	sd	x12,1000(x3)
    800019e0:	fff0009b          	addiw	x1,x0,-1
    800019e4:	02d09093          	slli	x1,x1,0x2d
    800019e8:	fff08093          	addi	x1,x1,-1
    800019ec:	00c08463          	beq	x1,x12,0x800019f4
    800019f0:	e34fe06f          	jal	x0,0x80000024
    800019f4:	00100513          	addi	x10,x0,1
    800019f8:	03151513          	slli	x10,x10,0x31
    800019fc:	fff54513          	xori	x10,x10,-1
    80001a00:	03f00593          	addi	x11,x0,63
    80001a04:	40b55633          	sra	x12,x10,x11
    80001a08:	3ec1b823          	sd	x12,1008(x3)
    80001a0c:	fff00093          	addi	x1,x0,-1
    80001a10:	00c08463          	beq	x1,x12,0x80001a18
    80001a14:	e10fe06f          	jal	x0,0x80000024
    80001a18:	00100513          	addi	x10,x0,1
    80001a1c:	03251513          	slli	x10,x10,0x32
    80001a20:	fff54513          	xori	x10,x10,-1
    80001a24:	00700593          	addi	x11,x0,7
    80001a28:	40b55633          	sra	x12,x10,x11
    80001a2c:	3ec1bc23          	sd	x12,1016(x3)
    80001a30:	fff0009b          	addiw	x1,x0,-1
    80001a34:	02b09093          	slli	x1,x1,0x2b
    80001a38:	fff08093          	addi	x1,x1,-1
    80001a3c:	00c08463          	beq	x1,x12,0x80001a44
    80001a40:	de4fe06f          	jal	x0,0x80000024
    80001a44:	00100513          	addi	x10,x0,1
    80001a48:	03351513          	slli	x10,x10,0x33
    80001a4c:	fff54513          	xori	x10,x10,-1
    80001a50:	00100593          	addi	x11,x0,1
    80001a54:	40b55633          	sra	x12,x10,x11
    80001a58:	40c1b023          	sd	x12,1024(x3)
    80001a5c:	fff0009b          	addiw	x1,x0,-1
    80001a60:	03209093          	slli	x1,x1,0x32
    80001a64:	fff08093          	addi	x1,x1,-1
    80001a68:	00c08463          	beq	x1,x12,0x80001a70
    80001a6c:	db8fe06f          	jal	x0,0x80000024
    80001a70:	00100513          	addi	x10,x0,1
    80001a74:	03451513          	slli	x10,x10,0x34
    80001a78:	fff54513          	xori	x10,x10,-1
    80001a7c:	00f00593          	addi	x11,x0,15
    80001a80:	40b55633          	sra	x12,x10,x11
    80001a84:	40c1b423          	sd	x12,1032(x3)
    80001a88:	fff0009b          	addiw	x1,x0,-1
    80001a8c:	02509093          	slli	x1,x1,0x25
    80001a90:	fff08093          	addi	x1,x1,-1
    80001a94:	00c08463          	beq	x1,x12,0x80001a9c
    80001a98:	d8cfe06f          	jal	x0,0x80000024
    80001a9c:	00100513          	addi	x10,x0,1
    80001aa0:	03551513          	slli	x10,x10,0x35
    80001aa4:	fff54513          	xori	x10,x10,-1
    80001aa8:	00a00593          	addi	x11,x0,10
    80001aac:	40b55633          	sra	x12,x10,x11
    80001ab0:	40c1b823          	sd	x12,1040(x3)
    80001ab4:	fff0009b          	addiw	x1,x0,-1
    80001ab8:	02b09093          	slli	x1,x1,0x2b
    80001abc:	fff08093          	addi	x1,x1,-1
    80001ac0:	00c08463          	beq	x1,x12,0x80001ac8
    80001ac4:	d60fe06f          	jal	x0,0x80000024
    80001ac8:	00100513          	addi	x10,x0,1
    80001acc:	03651513          	slli	x10,x10,0x36
    80001ad0:	fff54513          	xori	x10,x10,-1
    80001ad4:	00e00593          	addi	x11,x0,14
    80001ad8:	40b55633          	sra	x12,x10,x11
    80001adc:	40c1bc23          	sd	x12,1048(x3)
    80001ae0:	fff0009b          	addiw	x1,x0,-1
    80001ae4:	02809093          	slli	x1,x1,0x28
    80001ae8:	fff08093          	addi	x1,x1,-1
    80001aec:	00c08463          	beq	x1,x12,0x80001af4
    80001af0:	d34fe06f          	jal	x0,0x80000024
    80001af4:	00100513          	addi	x10,x0,1
    80001af8:	02351513          	slli	x10,x10,0x23
    80001afc:	fff54513          	xori	x10,x10,-1
    80001b00:	00700593          	addi	x11,x0,7
    80001b04:	40b55633          	sra	x12,x10,x11
    80001b08:	42c1b023          	sd	x12,1056(x3)
    80001b0c:	f00000b7          	lui	x1,0xf0000
    80001b10:	fff0809b          	addiw	x1,x1,-1 # 0xffffffffefffffff
    80001b14:	00c08463          	beq	x1,x12,0x80001b1c
    80001b18:	d0cfe06f          	jal	x0,0x80000024
    80001b1c:	00100513          	addi	x10,x0,1
    80001b20:	02051513          	slli	x10,x10,0x20
    80001b24:	fff54513          	xori	x10,x10,-1
    80001b28:	00000593          	addi	x11,x0,0
    80001b2c:	40b55633          	sra	x12,x10,x11
    80001b30:	42c1b423          	sd	x12,1064(x3)
    80001b34:	fff0009b          	addiw	x1,x0,-1
    80001b38:	02009093          	slli	x1,x1,0x20
    80001b3c:	fff08093          	addi	x1,x1,-1
    80001b40:	00c08463          	beq	x1,x12,0x80001b48
    80001b44:	ce0fe06f          	jal	x0,0x80000024
    80001b48:	fff00513          	addi	x10,x0,-1
    80001b4c:	00155513          	srli	x10,x10,0x1
    80001b50:	00300593          	addi	x11,x0,3
    80001b54:	40b55633          	sra	x12,x10,x11
    80001b58:	42c1b823          	sd	x12,1072(x3)
    80001b5c:	0010009b          	addiw	x1,x0,1
    80001b60:	03c09093          	slli	x1,x1,0x3c
    80001b64:	fff08093          	addi	x1,x1,-1
    80001b68:	00c08463          	beq	x1,x12,0x80001b70
    80001b6c:	cb8fe06f          	jal	x0,0x80000024
    80001b70:	01000513          	addi	x10,x0,16
    80001b74:	00600593          	addi	x11,x0,6
    80001b78:	40b55633          	sra	x12,x10,x11
    80001b7c:	42c1bc23          	sd	x12,1080(x3)
    80001b80:	00000093          	addi	x1,x0,0
    80001b84:	00c08463          	beq	x1,x12,0x80001b8c
    80001b88:	c9cfe06f          	jal	x0,0x80000024
    80001b8c:	20000513          	addi	x10,x0,512
    80001b90:	00b00593          	addi	x11,x0,11
    80001b94:	40b55633          	sra	x12,x10,x11
    80001b98:	44c1b023          	sd	x12,1088(x3)
    80001b9c:	00000093          	addi	x1,x0,0
    80001ba0:	00c08463          	beq	x1,x12,0x80001ba8
    80001ba4:	c80fe06f          	jal	x0,0x80000024
    80001ba8:	0380006f          	jal	x0,0x80001be0
    80001bac:	1f813483          	ld	x9,504(x2)
    80001bb0:	20013303          	ld	x6,512(x2)
    80001bb4:	00930333          	add	x6,x6,x9
    80001bb8:	00000337          	lui	x6,0x0
    80001bbc:	00030313          	addi	x6,x6,0 # 0x0
    80001bc0:	00b31313          	slli	x6,x6,0xb
    80001bc4:	5d630313          	addi	x6,x6,1494
    80001bc8:	00b31313          	slli	x6,x6,0xb
    80001bcc:	43630313          	addi	x6,x6,1078
    80001bd0:	00a31313          	slli	x6,x6,0xa
    80001bd4:	2d030313          	addi	x6,x6,720
    80001bd8:	fe64be23          	sd	x6,-4(x9)
    80001bdc:	0040006f          	jal	x0,0x80001be0
    80001be0:	00000513          	addi	x10,x0,0
    80001be4:	0100006f          	jal	x0,0x80001bf4
	...
    80001bf4:	00050513          	addi	x10,x10,0
    80001bf8:	00100073          	ebreak
    80001bfc:	0000006f          	jal	x0,0x80001bfc
    80001c00:	ff010113          	addi	x2,x2,-16
    80001c04:	00000517          	auipc	x10,0x0
    80001c08:	01c50513          	addi	x10,x10,28 # 0x80001c20
    80001c0c:	00113423          	sd	x1,8(x2)
    80001c10:	c00fe0ef          	jal	x1,0x80000010
    80001c14:	00050513          	addi	x10,x10,0
    80001c18:	00100073          	ebreak
    80001c1c:	0000006f          	jal	x0,0x80001c1c
	...
    80002000:	cafe                	c.swsp	x31,84(x2)
    80002002:	babe                	c.fsdsp	f15,368(x2)
    80002004:	cafe                	c.swsp	x31,84(x2)
    80002006:	babe                	c.fsdsp	f15,368(x2)
    80002008:	cafe                	c.swsp	x31,84(x2)
    8000200a:	babe                	c.fsdsp	f15,368(x2)
    8000200c:	cafe                	c.swsp	x31,84(x2)
    8000200e:	babe                	c.fsdsp	f15,368(x2)
    80002010:	deadbeef          	jal	x29,0x7ffdd5fa
    80002014:	deadbeef          	jal	x29,0x7ffdd5fe
	...
    80003000:	b281                	c.j	0x80002940
    80003002:	e7d4                	c.sd	x13,136(x15)
    80003004:	a309                	c.j	0x80003506
    80003006:	6f5c                	c.ld	x15,152(x14)
    80003008:	deadbeef          	jal	x29,0x7ffde5f2
    8000300c:	deadbeef          	jal	x29,0x7ffde5f6
    80003010:	deadbeef          	jal	x29,0x7ffde5fa
    80003014:	deadbeef          	jal	x29,0x7ffde5fe
    80003018:	deadbeef          	jal	x29,0x7ffde602
    8000301c:	deadbeef          	jal	x29,0x7ffde606
    80003020:	deadbeef          	jal	x29,0x7ffde60a
    80003024:	deadbeef          	jal	x29,0x7ffde60e
    80003028:	deadbeef          	jal	x29,0x7ffde612
    8000302c:	deadbeef          	jal	x29,0x7ffde616
    80003030:	deadbeef          	jal	x29,0x7ffde61a
    80003034:	deadbeef          	jal	x29,0x7ffde61e
    80003038:	deadbeef          	jal	x29,0x7ffde622
    8000303c:	deadbeef          	jal	x29,0x7ffde626
    80003040:	deadbeef          	jal	x29,0x7ffde62a
    80003044:	deadbeef          	jal	x29,0x7ffde62e
    80003048:	deadbeef          	jal	x29,0x7ffde632
    8000304c:	deadbeef          	jal	x29,0x7ffde636
    80003050:	deadbeef          	jal	x29,0x7ffde63a
    80003054:	deadbeef          	jal	x29,0x7ffde63e
    80003058:	deadbeef          	jal	x29,0x7ffde642
    8000305c:	deadbeef          	jal	x29,0x7ffde646
    80003060:	deadbeef          	jal	x29,0x7ffde64a
    80003064:	deadbeef          	jal	x29,0x7ffde64e
    80003068:	deadbeef          	jal	x29,0x7ffde652
    8000306c:	deadbeef          	jal	x29,0x7ffde656
    80003070:	deadbeef          	jal	x29,0x7ffde65a
    80003074:	deadbeef          	jal	x29,0x7ffde65e
    80003078:	deadbeef          	jal	x29,0x7ffde662
    8000307c:	deadbeef          	jal	x29,0x7ffde666
    80003080:	deadbeef          	jal	x29,0x7ffde66a
    80003084:	deadbeef          	jal	x29,0x7ffde66e
    80003088:	deadbeef          	jal	x29,0x7ffde672
    8000308c:	deadbeef          	jal	x29,0x7ffde676
    80003090:	deadbeef          	jal	x29,0x7ffde67a
    80003094:	deadbeef          	jal	x29,0x7ffde67e
    80003098:	deadbeef          	jal	x29,0x7ffde682
    8000309c:	deadbeef          	jal	x29,0x7ffde686
    800030a0:	deadbeef          	jal	x29,0x7ffde68a
    800030a4:	deadbeef          	jal	x29,0x7ffde68e
    800030a8:	deadbeef          	jal	x29,0x7ffde692
    800030ac:	deadbeef          	jal	x29,0x7ffde696
    800030b0:	deadbeef          	jal	x29,0x7ffde69a
    800030b4:	deadbeef          	jal	x29,0x7ffde69e
    800030b8:	deadbeef          	jal	x29,0x7ffde6a2
    800030bc:	deadbeef          	jal	x29,0x7ffde6a6
    800030c0:	deadbeef          	jal	x29,0x7ffde6aa
    800030c4:	deadbeef          	jal	x29,0x7ffde6ae
    800030c8:	deadbeef          	jal	x29,0x7ffde6b2
    800030cc:	deadbeef          	jal	x29,0x7ffde6b6
    800030d0:	deadbeef          	jal	x29,0x7ffde6ba
    800030d4:	deadbeef          	jal	x29,0x7ffde6be
    800030d8:	deadbeef          	jal	x29,0x7ffde6c2
    800030dc:	deadbeef          	jal	x29,0x7ffde6c6
    800030e0:	deadbeef          	jal	x29,0x7ffde6ca
    800030e4:	deadbeef          	jal	x29,0x7ffde6ce
    800030e8:	deadbeef          	jal	x29,0x7ffde6d2
    800030ec:	deadbeef          	jal	x29,0x7ffde6d6
    800030f0:	deadbeef          	jal	x29,0x7ffde6da
    800030f4:	deadbeef          	jal	x29,0x7ffde6de
    800030f8:	deadbeef          	jal	x29,0x7ffde6e2
    800030fc:	deadbeef          	jal	x29,0x7ffde6e6
    80003100:	deadbeef          	jal	x29,0x7ffde6ea
    80003104:	deadbeef          	jal	x29,0x7ffde6ee
    80003108:	deadbeef          	jal	x29,0x7ffde6f2
    8000310c:	deadbeef          	jal	x29,0x7ffde6f6
    80003110:	deadbeef          	jal	x29,0x7ffde6fa
    80003114:	deadbeef          	jal	x29,0x7ffde6fe
    80003118:	deadbeef          	jal	x29,0x7ffde702
    8000311c:	deadbeef          	jal	x29,0x7ffde706
    80003120:	deadbeef          	jal	x29,0x7ffde70a
    80003124:	deadbeef          	jal	x29,0x7ffde70e
    80003128:	deadbeef          	jal	x29,0x7ffde712
    8000312c:	deadbeef          	jal	x29,0x7ffde716
    80003130:	deadbeef          	jal	x29,0x7ffde71a
    80003134:	deadbeef          	jal	x29,0x7ffde71e
    80003138:	deadbeef          	jal	x29,0x7ffde722
    8000313c:	deadbeef          	jal	x29,0x7ffde726
    80003140:	deadbeef          	jal	x29,0x7ffde72a
    80003144:	deadbeef          	jal	x29,0x7ffde72e
    80003148:	deadbeef          	jal	x29,0x7ffde732
    8000314c:	deadbeef          	jal	x29,0x7ffde736
    80003150:	deadbeef          	jal	x29,0x7ffde73a
    80003154:	deadbeef          	jal	x29,0x7ffde73e
    80003158:	deadbeef          	jal	x29,0x7ffde742
    8000315c:	deadbeef          	jal	x29,0x7ffde746
    80003160:	deadbeef          	jal	x29,0x7ffde74a
    80003164:	deadbeef          	jal	x29,0x7ffde74e
    80003168:	deadbeef          	jal	x29,0x7ffde752
    8000316c:	deadbeef          	jal	x29,0x7ffde756
    80003170:	deadbeef          	jal	x29,0x7ffde75a
    80003174:	deadbeef          	jal	x29,0x7ffde75e
    80003178:	deadbeef          	jal	x29,0x7ffde762
    8000317c:	deadbeef          	jal	x29,0x7ffde766
    80003180:	deadbeef          	jal	x29,0x7ffde76a
    80003184:	deadbeef          	jal	x29,0x7ffde76e
    80003188:	deadbeef          	jal	x29,0x7ffde772
    8000318c:	deadbeef          	jal	x29,0x7ffde776
    80003190:	deadbeef          	jal	x29,0x7ffde77a
    80003194:	deadbeef          	jal	x29,0x7ffde77e
    80003198:	deadbeef          	jal	x29,0x7ffde782
    8000319c:	deadbeef          	jal	x29,0x7ffde786
    800031a0:	deadbeef          	jal	x29,0x7ffde78a
    800031a4:	deadbeef          	jal	x29,0x7ffde78e
    800031a8:	deadbeef          	jal	x29,0x7ffde792
    800031ac:	deadbeef          	jal	x29,0x7ffde796
    800031b0:	deadbeef          	jal	x29,0x7ffde79a
    800031b4:	deadbeef          	jal	x29,0x7ffde79e
    800031b8:	deadbeef          	jal	x29,0x7ffde7a2
    800031bc:	deadbeef          	jal	x29,0x7ffde7a6
    800031c0:	deadbeef          	jal	x29,0x7ffde7aa
    800031c4:	deadbeef          	jal	x29,0x7ffde7ae
    800031c8:	deadbeef          	jal	x29,0x7ffde7b2
    800031cc:	deadbeef          	jal	x29,0x7ffde7b6
    800031d0:	deadbeef          	jal	x29,0x7ffde7ba
    800031d4:	deadbeef          	jal	x29,0x7ffde7be
    800031d8:	deadbeef          	jal	x29,0x7ffde7c2
    800031dc:	deadbeef          	jal	x29,0x7ffde7c6
    800031e0:	deadbeef          	jal	x29,0x7ffde7ca
    800031e4:	deadbeef          	jal	x29,0x7ffde7ce
    800031e8:	deadbeef          	jal	x29,0x7ffde7d2
    800031ec:	deadbeef          	jal	x29,0x7ffde7d6
    800031f0:	deadbeef          	jal	x29,0x7ffde7da
    800031f4:	deadbeef          	jal	x29,0x7ffde7de
    800031f8:	deadbeef          	jal	x29,0x7ffde7e2
    800031fc:	deadbeef          	jal	x29,0x7ffde7e6
    80003200:	deadbeef          	jal	x29,0x7ffde7ea
    80003204:	deadbeef          	jal	x29,0x7ffde7ee
    80003208:	deadbeef          	jal	x29,0x7ffde7f2
    8000320c:	deadbeef          	jal	x29,0x7ffde7f6
    80003210:	deadbeef          	jal	x29,0x7ffde7fa
    80003214:	deadbeef          	jal	x29,0x7ffde7fe
    80003218:	deadbeef          	jal	x29,0x7ffde802
    8000321c:	deadbeef          	jal	x29,0x7ffde806
    80003220:	deadbeef          	jal	x29,0x7ffde80a
    80003224:	deadbeef          	jal	x29,0x7ffde80e
    80003228:	deadbeef          	jal	x29,0x7ffde812
    8000322c:	deadbeef          	jal	x29,0x7ffde816
    80003230:	deadbeef          	jal	x29,0x7ffde81a
    80003234:	deadbeef          	jal	x29,0x7ffde81e
    80003238:	deadbeef          	jal	x29,0x7ffde822
    8000323c:	deadbeef          	jal	x29,0x7ffde826
    80003240:	deadbeef          	jal	x29,0x7ffde82a
    80003244:	deadbeef          	jal	x29,0x7ffde82e
    80003248:	deadbeef          	jal	x29,0x7ffde832
    8000324c:	deadbeef          	jal	x29,0x7ffde836
    80003250:	deadbeef          	jal	x29,0x7ffde83a
    80003254:	deadbeef          	jal	x29,0x7ffde83e
    80003258:	deadbeef          	jal	x29,0x7ffde842
    8000325c:	deadbeef          	jal	x29,0x7ffde846
    80003260:	deadbeef          	jal	x29,0x7ffde84a
    80003264:	deadbeef          	jal	x29,0x7ffde84e
    80003268:	deadbeef          	jal	x29,0x7ffde852
    8000326c:	deadbeef          	jal	x29,0x7ffde856
    80003270:	deadbeef          	jal	x29,0x7ffde85a
    80003274:	deadbeef          	jal	x29,0x7ffde85e
    80003278:	deadbeef          	jal	x29,0x7ffde862
    8000327c:	deadbeef          	jal	x29,0x7ffde866
    80003280:	deadbeef          	jal	x29,0x7ffde86a
    80003284:	deadbeef          	jal	x29,0x7ffde86e
    80003288:	deadbeef          	jal	x29,0x7ffde872
    8000328c:	deadbeef          	jal	x29,0x7ffde876
    80003290:	deadbeef          	jal	x29,0x7ffde87a
    80003294:	deadbeef          	jal	x29,0x7ffde87e
    80003298:	deadbeef          	jal	x29,0x7ffde882
    8000329c:	deadbeef          	jal	x29,0x7ffde886
    800032a0:	deadbeef          	jal	x29,0x7ffde88a
    800032a4:	deadbeef          	jal	x29,0x7ffde88e
    800032a8:	deadbeef          	jal	x29,0x7ffde892
    800032ac:	deadbeef          	jal	x29,0x7ffde896
    800032b0:	deadbeef          	jal	x29,0x7ffde89a
    800032b4:	deadbeef          	jal	x29,0x7ffde89e
    800032b8:	deadbeef          	jal	x29,0x7ffde8a2
    800032bc:	deadbeef          	jal	x29,0x7ffde8a6
    800032c0:	deadbeef          	jal	x29,0x7ffde8aa
    800032c4:	deadbeef          	jal	x29,0x7ffde8ae
    800032c8:	deadbeef          	jal	x29,0x7ffde8b2
    800032cc:	deadbeef          	jal	x29,0x7ffde8b6
    800032d0:	deadbeef          	jal	x29,0x7ffde8ba
    800032d4:	deadbeef          	jal	x29,0x7ffde8be
    800032d8:	deadbeef          	jal	x29,0x7ffde8c2
    800032dc:	deadbeef          	jal	x29,0x7ffde8c6
    800032e0:	deadbeef          	jal	x29,0x7ffde8ca
    800032e4:	deadbeef          	jal	x29,0x7ffde8ce
    800032e8:	deadbeef          	jal	x29,0x7ffde8d2
    800032ec:	deadbeef          	jal	x29,0x7ffde8d6
    800032f0:	deadbeef          	jal	x29,0x7ffde8da
    800032f4:	deadbeef          	jal	x29,0x7ffde8de
    800032f8:	deadbeef          	jal	x29,0x7ffde8e2
    800032fc:	deadbeef          	jal	x29,0x7ffde8e6
    80003300:	deadbeef          	jal	x29,0x7ffde8ea
    80003304:	deadbeef          	jal	x29,0x7ffde8ee
    80003308:	deadbeef          	jal	x29,0x7ffde8f2
    8000330c:	deadbeef          	jal	x29,0x7ffde8f6
    80003310:	deadbeef          	jal	x29,0x7ffde8fa
    80003314:	deadbeef          	jal	x29,0x7ffde8fe
    80003318:	deadbeef          	jal	x29,0x7ffde902
    8000331c:	deadbeef          	jal	x29,0x7ffde906
    80003320:	deadbeef          	jal	x29,0x7ffde90a
    80003324:	deadbeef          	jal	x29,0x7ffde90e
    80003328:	deadbeef          	jal	x29,0x7ffde912
    8000332c:	deadbeef          	jal	x29,0x7ffde916
    80003330:	deadbeef          	jal	x29,0x7ffde91a
    80003334:	deadbeef          	jal	x29,0x7ffde91e
    80003338:	deadbeef          	jal	x29,0x7ffde922
    8000333c:	deadbeef          	jal	x29,0x7ffde926
    80003340:	deadbeef          	jal	x29,0x7ffde92a
    80003344:	deadbeef          	jal	x29,0x7ffde92e
    80003348:	deadbeef          	jal	x29,0x7ffde932
    8000334c:	deadbeef          	jal	x29,0x7ffde936
    80003350:	deadbeef          	jal	x29,0x7ffde93a
    80003354:	deadbeef          	jal	x29,0x7ffde93e
    80003358:	deadbeef          	jal	x29,0x7ffde942
    8000335c:	deadbeef          	jal	x29,0x7ffde946
    80003360:	deadbeef          	jal	x29,0x7ffde94a
    80003364:	deadbeef          	jal	x29,0x7ffde94e
    80003368:	deadbeef          	jal	x29,0x7ffde952
    8000336c:	deadbeef          	jal	x29,0x7ffde956
    80003370:	deadbeef          	jal	x29,0x7ffde95a
    80003374:	deadbeef          	jal	x29,0x7ffde95e
    80003378:	deadbeef          	jal	x29,0x7ffde962
    8000337c:	deadbeef          	jal	x29,0x7ffde966
    80003380:	deadbeef          	jal	x29,0x7ffde96a
    80003384:	deadbeef          	jal	x29,0x7ffde96e
    80003388:	deadbeef          	jal	x29,0x7ffde972
    8000338c:	deadbeef          	jal	x29,0x7ffde976
    80003390:	deadbeef          	jal	x29,0x7ffde97a
    80003394:	deadbeef          	jal	x29,0x7ffde97e
    80003398:	deadbeef          	jal	x29,0x7ffde982
    8000339c:	deadbeef          	jal	x29,0x7ffde986
    800033a0:	deadbeef          	jal	x29,0x7ffde98a
    800033a4:	deadbeef          	jal	x29,0x7ffde98e
    800033a8:	deadbeef          	jal	x29,0x7ffde992
    800033ac:	deadbeef          	jal	x29,0x7ffde996
    800033b0:	deadbeef          	jal	x29,0x7ffde99a
    800033b4:	deadbeef          	jal	x29,0x7ffde99e
    800033b8:	deadbeef          	jal	x29,0x7ffde9a2
    800033bc:	deadbeef          	jal	x29,0x7ffde9a6
    800033c0:	deadbeef          	jal	x29,0x7ffde9aa
    800033c4:	deadbeef          	jal	x29,0x7ffde9ae
    800033c8:	deadbeef          	jal	x29,0x7ffde9b2
    800033cc:	deadbeef          	jal	x29,0x7ffde9b6
    800033d0:	deadbeef          	jal	x29,0x7ffde9ba
    800033d4:	deadbeef          	jal	x29,0x7ffde9be
    800033d8:	deadbeef          	jal	x29,0x7ffde9c2
    800033dc:	deadbeef          	jal	x29,0x7ffde9c6
    800033e0:	deadbeef          	jal	x29,0x7ffde9ca
    800033e4:	deadbeef          	jal	x29,0x7ffde9ce
    800033e8:	deadbeef          	jal	x29,0x7ffde9d2
    800033ec:	deadbeef          	jal	x29,0x7ffde9d6
    800033f0:	deadbeef          	jal	x29,0x7ffde9da
    800033f4:	deadbeef          	jal	x29,0x7ffde9de
    800033f8:	deadbeef          	jal	x29,0x7ffde9e2
    800033fc:	deadbeef          	jal	x29,0x7ffde9e6
    80003400:	deadbeef          	jal	x29,0x7ffde9ea
    80003404:	deadbeef          	jal	x29,0x7ffde9ee
    80003408:	deadbeef          	jal	x29,0x7ffde9f2
    8000340c:	deadbeef          	jal	x29,0x7ffde9f6
    80003410:	deadbeef          	jal	x29,0x7ffde9fa
    80003414:	deadbeef          	jal	x29,0x7ffde9fe
    80003418:	deadbeef          	jal	x29,0x7ffdea02
    8000341c:	deadbeef          	jal	x29,0x7ffdea06
    80003420:	deadbeef          	jal	x29,0x7ffdea0a
    80003424:	deadbeef          	jal	x29,0x7ffdea0e
    80003428:	deadbeef          	jal	x29,0x7ffdea12
    8000342c:	deadbeef          	jal	x29,0x7ffdea16
    80003430:	deadbeef          	jal	x29,0x7ffdea1a
    80003434:	deadbeef          	jal	x29,0x7ffdea1e
    80003438:	deadbeef          	jal	x29,0x7ffdea22
    8000343c:	deadbeef          	jal	x29,0x7ffdea26
    80003440:	deadbeef          	jal	x29,0x7ffdea2a
    80003444:	deadbeef          	jal	x29,0x7ffdea2e
    80003448:	deadbeef          	jal	x29,0x7ffdea32
    8000344c:	deadbeef          	jal	x29,0x7ffdea36
    80003450:	deadbeef          	jal	x29,0x7ffdea3a
    80003454:	deadbeef          	jal	x29,0x7ffdea3e
    80003458:	deadbeef          	jal	x29,0x7ffdea42
    8000345c:	deadbeef          	jal	x29,0x7ffdea46
    80003460:	deadbeef          	jal	x29,0x7ffdea4a
    80003464:	deadbeef          	jal	x29,0x7ffdea4e
    80003468:	deadbeef          	jal	x29,0x7ffdea52
    8000346c:	deadbeef          	jal	x29,0x7ffdea56
    80003470:	deadbeef          	jal	x29,0x7ffdea5a
    80003474:	deadbeef          	jal	x29,0x7ffdea5e
    80003478:	deadbeef          	jal	x29,0x7ffdea62
    8000347c:	deadbeef          	jal	x29,0x7ffdea66
    80003480:	deadbeef          	jal	x29,0x7ffdea6a
    80003484:	deadbeef          	jal	x29,0x7ffdea6e
    80003488:	deadbeef          	jal	x29,0x7ffdea72
    8000348c:	deadbeef          	jal	x29,0x7ffdea76
    80003490:	deadbeef          	jal	x29,0x7ffdea7a
    80003494:	deadbeef          	jal	x29,0x7ffdea7e
    80003498:	deadbeef          	jal	x29,0x7ffdea82
    8000349c:	deadbeef          	jal	x29,0x7ffdea86
    800034a0:	deadbeef          	jal	x29,0x7ffdea8a
    800034a4:	deadbeef          	jal	x29,0x7ffdea8e
    800034a8:	deadbeef          	jal	x29,0x7ffdea92
    800034ac:	deadbeef          	jal	x29,0x7ffdea96
    800034b0:	deadbeef          	jal	x29,0x7ffdea9a
    800034b4:	deadbeef          	jal	x29,0x7ffdea9e
    800034b8:	deadbeef          	jal	x29,0x7ffdeaa2
    800034bc:	deadbeef          	jal	x29,0x7ffdeaa6
    800034c0:	deadbeef          	jal	x29,0x7ffdeaaa
    800034c4:	deadbeef          	jal	x29,0x7ffdeaae
    800034c8:	deadbeef          	jal	x29,0x7ffdeab2
    800034cc:	deadbeef          	jal	x29,0x7ffdeab6
    800034d0:	deadbeef          	jal	x29,0x7ffdeaba
    800034d4:	deadbeef          	jal	x29,0x7ffdeabe
    800034d8:	b281                	c.j	0x80002e18
    800034da:	e7d4                	c.sd	x13,136(x15)
    800034dc:	a309                	c.j	0x800039de
    800034de:	6f5c                	c.ld	x15,152(x14)
