
bin/riscv-arch-test/srai-riscv64-nemu.bin:     file format binary

Contents of section .data:
 80000000 13040000 17c10000 1301c1ff ef10d015  ................
 80000010 ef000003 13051000 ef105014 13050000  ..........P.....
 80000020 67800000 13051000 ef105013 67800000  g.........P.g...
 80000030 00000000 00000000 00000000 00000000  ................
 80000040 b7c0edfe 9380d0ea 9390b000 9380707f  ..............p.
 80000050 9390b000 9380f036 9390a000 9380d02a  .......6.......*
 80000060 37e176ff 130161f5 1311b100 1301b17f  7.v...a.........
 80000070 1311b100 1301715b 1311a100 13016135  ......q[......a5
 80000080 b771bb7f 9381b1fa 9391b100 9381d13f  .q.............?
 80000090 9391b100 9381b16d 9391a100 9381b13a  .......m.......:
 800000a0 37b2ddbf 1302527d 1312b200 1302e25f  7.....R}......._
 800000b0 1312b200 1302d276 1312a200 1302523d  .......v......R=
 800000c0 b7e2eedf 9382a2be 9392b200 9382f26f  ...............o
 800000d0 9392b200 9382623b 9392a200 9382a23e  ......b;.......>
 800000e0 3773f76f 130353df 1313b300 1303f337  7s.o..S........7
 800000f0 1313b300 1303b35d 1313a300 1303531f  .......]......S.
 80000100 b7b3fbb7 9383a36f 9393b300 9383f35b  .......o.......[
 80000110 9393b300 9383d36e 9393a300 9383a32f  .......n......./
 80000120 37e4fd5b 1304d4b7 1314b400 1304f42d  7..[...........-
 80000130 1314b400 13046477 1314a400 1304d437  ......dw.......7
 80000140 b7f4fead 9384e4db 9394b400 9384f456  ...............V
 80000150 9394b400 9384b47b 9394a400 9384e41b  .......{........
 80000160 3775ff56 1305f56d 1315b500 1305752b  7u.V...m......u+
 80000170 1315b500 1305d57d 1315a500 1305f52d  .......}.......-
 80000180 b7c57fab 9385f5b6 9395b500 9385b555  ...............U
 80000190 9395b500 9385e57e 9395a500 9385f536  .......~.......6
 800001a0 37e6bfd5 130676db 1316b600 1306d66a  7.....v........j
 800001b0 1316b600 1306767f 1316a600 1306761b  ......v.......v.
 800001c0 b7f6dfea 9386b6ed 9396b600 93866675  ..............fu
 800001d0 9396b600 9386b67f 9396a600 9386b62d  ...............-
 800001e0 37f76ff5 1307d776 1317b700 1307b77a  7.o....v.......z
 800001f0 1317b700 1307d73f 1317a700 1307d736  .......?.......6
 80000200 b707b8fa 938767bb 9397b700 9387577d  ......g.......W}
 80000210 9397b700 9387e75f 9397a700 9387673b  ......._......g;
 80000220 37085c7d 1308b8dd 1318b800 1308a83e  7.\}...........>
 80000230 1318b800 1308f86f 1318a800 1308b81d  .......o........
 80000240 b708aebe 9388d8ee 9398b800 9388585f  ..............X_
 80000250 9398b800 9388f837 9398a800 9388d82e  .......7........
 80000260 370957df 130969f7 1319b900 1309a96f  7.W...i........o
 80000270 1319b900 1309f95b 1319a900 13096937  .......[......i7
 80000280 b789ab6f 9389b9fb 9399b900 9389d937  ...o...........7
 80000290 9399b900 9389f92d 9399a900 9389b93b  .......-.......;
 800002a0 37cad5b7 130adafd 131aba00 130aea5b  7..............[
 800002b0 131aba00 130afa56 131aaa00 130ada3d  .......V.......=
 800002c0 b7eaeadb 938aeafe 939aba00 938afa6d  ...............m
 800002d0 939aba00 938a7a2b 939aaa00 938aea3e  ......z+.......>
 800002e0 377bf56d 130b7bff 131bbb00 130bfb36  7{.m..{........6
 800002f0 131bbb00 130bbb55 131bab00 130b7b3f  .......U......{?
 80000300 b7bbfab6 938bbb7f 939bbb00 938b7b5b  ..............{[
 80000310 939bbb00 938bdb6a 939bab00 938bbb3f  .......j.......?
 80000320 376c7ddb 130cdcbf 131cbc00 130cbc6d  7l}............m
 80000330 131cbc00 130c6c75 131cac00 130cdc3f  ......lu.......?
 80000340 b7bcbeed 938cecdf 939cbc00 938cdc76  ...............v
 80000350 939cbc00 938cbc7a 939cac00 938cec1f  .......z........
 80000360 375ddf76 130dfd6f 131dbd00 130d6d3b  7].v...o......m;
 80000370 131dbd00 130d5d7d 131dad00 130dfd2f  ......]}......./
 80000380 b7bd6fbb 938dfdb7 939dbd00 938dbd5d  ..o............]
 80000390 939dbd00 938dad3e 939dad00 938dfd37  .......>.......7
 800003a0 37deb7dd 130efe5b 131ebe00 130ede6e  7......[.......n
 800003b0 131ebe00 130e5e5f 131eae00 130efe1b  ......^_........
 800003c0 b7fedbee 938efead 939ebe00 938e6e77  ..............nw
 800003d0 939ebe00 938eae6f 939eae00 938efe2d  .......o.......-
 800003e0 37ff6df7 130fff56 131fbf00 130fbf7b  7.m....V.......{
 800003f0 131fbf00 130fdf37 131faf00 130fff16  .......7........
 80000400 b70fb7fb 938f7fab 939fbf00 938fdf7d  ...............}
 80000410 939fbf00 938fef5b 939faf00 938f7f2b  .......[.......+
 80000420 97330000 938383be 13000000 13000000  .3..............
 80000430 13000000 13000000 13000000 13000000  ................
 80000440 93061000 9396a603 93c6f6ff 93d66640  ..............f@
 80000450 23b0d300 9b04f0ff 93944403 9384f4ff  #.........D.....
 80000460 6384d400 6ff01fbc 13034000 1351c340  c...o.....@..Q.@
 80000470 23b42300 93040000 63842400 6ff09fba  #.#.....c.$.o...
 80000480 930760ff 13de0740 23b8c301 930460ff  ..`....@#.....`.
 80000490 6384c401 6ff01fb9 13099000 135f0940  c...o........_.@
 800004a0 23bce301 93049000 6384e401 6ff09fb7  #.......c...o...
 800004b0 130f1000 131f9f01 134fffff 935eff43  .........O...^.C
 800004c0 23b0d303 9304f0ff 6384d401 6ff09fb5  #.......c...o...
 800004d0 930d1000 939d0d01 93d7fd43 23b4f302  ...........C#...
 800004e0 93040000 6384f400 6ff0dfb3 930b1000  ....c...o.......
 800004f0 13d71b40 23b8e302 93040000 6384e400  ...@#.......c...
 80000500 6ff05fb2 930ef0ff 939efe03 93dd0e42  o._............B
 80000510 23bcb303 b7040080 6384b401 6ff09fb0  #.......c...o...
 80000520 930f0000 13db7f40 23b06305 93040000  .......@#.c.....
 80000530 63846401 6ff01faf 1302f0ff 13521200  c.d.o........R..
 80000540 1358c240 23b40305 9b041000 93943403  .X.@#.........4.
 80000550 9384f4ff 63840401 6ff0dfac 130c2000  ....c...o..... .
 80000560 935a1c41 23b85305 93040000 63845401  .Z.A#.S.....c.T.
 80000570 6ff05fab 130a8000 1350aa42 23bc0304  o._......P.B#...
 80000580 93040000 63840400 6ff0dfa9 130e0001  ....c...o.......
 80000590 9359fe41 23b03307 93040000 63843401  .Y.A#.3.....c.4.
 800005a0 6ff05fa8 13040002 13593440 23b42307  o._......Y4@#.#.
 800005b0 93044000 63842401 6ff0dfa6 93010004  ..@.c.$.o.......
 800005c0 13ddb140 23b8a307 93040000 6384a401  ...@#.......c...
 800005d0 6ff05fa5 93000008 93db2041 23bc7307  o._....... A#.s.
 800005e0 93040000 63847401 6ff0dfa3 13000000  ....c.t.o.......
 800005f0 135a2041 23b04309 93040000 63844401  .Z A#.C.....c.D.
 80000600 6ff05fa2 13050020 13545541 23b48308  o._.... .TUA#...
 80000610 93040000 63848400 6ff0dfa0 93020040  ....c...o......@
 80000620 13d30240 23b86308 93040040 63846400  ...@#.c....@c.d.
 80000630 6ff05f9f 13061000 1316b600 13552640  o._..........U&@
 80000640 23bca308 93040020 6384a400 6ff09f9d  #...... c...o...
 80000650 930a1000 939aca00 93d04a40 23b0130a  ..........J@#...
 80000660 93040010 63841400 6ff0df9b 93051000  ....c...o.......
 80000670 9395d500 93d21541 23b4530a 93040000  .......A#.S.....
 80000680 63845400 6ff01f9a 13011000 1311e100  c.T.o...........
 80000690 9358f140 23b8130b 93020000 63841201  .X.@#.......c...
 800006a0 6ff05f98 13000000 13000000 13000000  o._.............
 800006b0 13000000 13000000 13000000 13000000  ................
 800006c0 97300000 938000a0 13000000 13000000  .0..............
 800006d0 13000000 13000000 13000000 13000000  ................
 800006e0 930c1000 939cfc00 13d2bc40 23b04000  ...........@#.@.
 800006f0 93020001 63844200 6ff0df92 93091000  ....c.B.o.......
 80000700 93991901 93d47940 23b49000 93020040  ......y@#......@
 80000710 63849200 6ff01f91 93031000 93932301  c...o.........#.
 80000720 13d66340 23b8c000 b7120000 6384c200  ..c@#.......c...
 80000730 6ff05f8f 13081000 13183801 93553841  o._.......8..U8A
 80000740 23bcb000 93021000 6384b200 6ff09f8d  #.......c...o...
 80000750 13071000 13174701 93512741 23b03002  ......G..Q'A#.0.
 80000760 93024000 63843200 6ff0df8b 93041000  ..@.c.2.o.......
 80000770 93945401 93dfa440 23b4f003 b7120000  ..T....@#.......
 80000780 9b820280 6384f201 6ff0df89 130d1000  ....c...o.......
 80000790 131d6d01 9353ad40 23b87002 b7120000  ..m..S.@#.p.....
 800007a0 63847200 6ff01f88 130b1000 131b7b01  c.r.o.........{.
 800007b0 935cdb40 23bc9003 93020040 63849201  .\.@#......@c...
 800007c0 6ff05f86 93081000 93988801 13dc5840  o._...........X@
 800007d0 23b08005 b7020800 63848201 6ff09f84  #.......c...o...
 800007e0 13051000 13159501 93559540 23b4b004  .........U.@#...
 800007f0 b7020100 6384b200 6ff0df82 13051000  ....c...o.......
 80000800 1315a501 93550541 23b8b004 93020040  .....U.A#......@
 80000810 6384b200 6ff01f81 13051000 1315b501  c...o...........
 80000820 9355d540 23bcb004 b7420000 6384b200  .U.@#....B..c...
 80000830 6ff04fff 13051000 1315c501 9355b543  o.O..........U.C
 80000840 23b0b006 93020000 6384b200 6ff08ffd  #.......c...o...
 80000850 13051000 1315d501 93559540 23b4b006  .........U.@#...
 80000860 b7021000 6384b200 6ff0cffb 13051000  ....c...o.......
 80000870 1315e501 9355e540 23b8b006 b7020100  .....U.@#.......
 80000880 6384b200 6ff00ffa 13051000 1315f501  c...o...........
 80000890 93550542 23bcb006 93020000 6384b200  .U.B#.......c...
 800008a0 6ff04ff8 13051000 13150502 9355f541  o.O..........U.A
 800008b0 23b0b008 93022000 6384b200 6ff08ff6  #..... .c...o...
 800008c0 13051000 13151502 9355a540 23b4b008  .........U.@#...
 800008d0 b7028000 6384b200 6ff0cff4 13051000  ....c...o.......
 800008e0 13152502 93559540 23b8b008 b7020002  ..%..U.@#.......
 800008f0 6384b200 6ff00ff3 13051000 13153502  c...o.........5.
 80000900 9355f540 23bcb008 b7021000 6384b200  .U.@#.......c...
 80000910 6ff04ff1 13051000 13154502 9355e543  o.O.......E..U.C
 80000920 23b0b00a 93020000 6384b200 6ff08fef  #.......c...o...
 80000930 13051000 13155502 93552540 23b4b00a  ......U..U%@#...
 80000940 9b021000 93923202 6384b200 6ff08fed  ......2.c...o...
 80000950 13051000 13156502 9355f541 23b8b00a  ......e..U.A#...
 80000960 93020008 6384b200 6ff0cfeb 13051000  ....c...o.......
 80000970 13157502 93553540 23bcb00a 9b021000  ..u..U5@#.......
 80000980 93924202 6384b200 6ff0cfe9 13051000  ..B.c...o.......
 80000990 13158502 93554540 23b0b00c 9b021000  .....UE@#.......
 800009a0 93924202 6384b200 6ff0cfe7 13051000  ..B.c...o.......
 800009b0 13159502 9355e540 23b4b00c b7020008  .....U.@#.......
 800009c0 6384b200 6ff00fe6 13051000 1315a502  c...o...........
 800009d0 93554540 23b8b00c 9b021000 93926202  .UE@#.........b.
 800009e0 6384b200 6ff00fe4 13051000 1315b502  c...o...........
 800009f0 93555540 23bcb00c 9b021000 93926202  .UU@#.........b.
 80000a00 6384b200 6ff00fe2 13051000 1315c502  c...o...........
 80000a10 9355f540 23b0b00e b7020020 6384b200  .U.@#...... c...
 80000a20 6ff04fe0 13051000 1315d502 93554540  o.O..........UE@
 80000a30 23b4b00e 9b021000 93929202 6384b200  #...........c...
 80000a40 6ff04fde 13051000 1315e502 9355a540  o.O..........U.@
 80000a50 23b8b00e 9b021000 93924202 6384b200  #.........B.c...
 80000a60 6ff04fdc 13051000 1315f502 9355a542  o.O..........U.B
 80000a70 23bcb00e 93020002 6384b200 6ff08fda  #.......c...o...
 80000a80 13051000 13150503 9355a540 23b0b010  .........U.@#...
 80000a90 9b021000 93926202 6384b200 6ff08fd8  ......b.c...o...
 80000aa0 13051000 13151503 9355f543 23b4b010  .........U.C#...
 80000ab0 93020000 6384b200 6ff0cfd6 13051000  ....c...o.......
 80000ac0 13152503 93553540 23b8b010 9b021000  ..%..U5@#.......
 80000ad0 9392f202 6384b200 6ff0cfd4 13051000  ....c...o.......
 80000ae0 13153503 93554540 23bcb010 9b021000  ..5..UE@#.......
 80000af0 9392f202 6384b200 6ff0cfd2 13051000  ....c...o.......
 80000b00 13154503 9355f540 23b0b012 9b021000  ..E..U.@#.......
 80000b10 93925202 6384b200 6ff0cfd0 13051000  ..R.c...o.......
 80000b20 13155503 9355d543 23b4b012 93020000  ..U..U.C#.......
 80000b30 6384b200 6ff00fcf 13051000 13156503  c...o.........e.
 80000b40 9355e540 23b8b012 9b021000 93928202  .U.@#...........
 80000b50 6384b200 6ff00fcd 13051000 13157503  c...o.........u.
 80000b60 9355a540 23bcb012 9b021000 9392d202  .U.@#...........
 80000b70 6384b200 6ff00fcb 13051000 13158503  c...o...........
 80000b80 9355a540 23b0b014 9b021000 9392e202  .U.@#...........
 80000b90 6384b200 6ff00fc9 13051000 13159503  c...o...........
 80000ba0 9355a542 23b4b014 b7820000 6384b200  .U.B#.......c...
 80000bb0 6ff04fc7 13051000 1315a503 93554540  o.O..........UE@
 80000bc0 23b8b014 9b021000 93926203 6384b200  #.........b.c...
 80000bd0 6ff04fc5 13051000 1315b503 9355b540  o.O..........U.@
 80000be0 23bcb014 9b021000 93920203 6384b200  #...........c...
 80000bf0 6ff04fc3 13051000 1315c503 9355b543  o.O..........U.C
 80000c00 23b0b016 93022000 6384b200 6ff08fc1  #..... .c...o...
 80000c10 13051000 1315d503 9355f543 23b4b016  .........U.C#...
 80000c20 93020000 6384b200 6ff0cfbf 13051000  ....c...o.......
 80000c30 1315e503 93559540 23b8b016 9b021000  .....U.@#.......
 80000c40 93925203 6384b200 6ff0cfbd 1305e0ff  ..R.c...o.......
 80000c50 93555541 23bcb016 9302f0ff 6384b200  .UUA#.......c...
 80000c60 6ff04fbc 1305d0ff 93552540 23b0b018  o.O......U%@#...
 80000c70 9302f0ff 6384b200 6ff0cfba 1305b0ff  ....c...o.......
 80000c80 9355d543 23b4b018 9302f0ff 6384b200  .U.C#.......c...
 80000c90 6ff04fb9 130570ff 9355d540 23b8b018  o.O...p..U.@#...
 80000ca0 9302f0ff 6384b200 6ff0cfb7 1305f0fe  ....c...o.......
 80000cb0 9355f543 23bcb018 9302f0ff 6384b200  .U.C#.......c...
 80000cc0 6ff04fb6 1305f0fd 93557540 23b0b01a  o.O......Uu@#...
 80000cd0 9302f0ff 6384b200 6ff0cfb4 1305f0fb  ....c...o.......
 80000ce0 9355e540 23b4b01a 9302f0ff 6384b200  .U.@#.......c...
 80000cf0 6ff04fb3 1305f0f7 93556540 23b8b01a  o.O......Ue@#...
 80000d00 9302d0ff 6384b200 6ff0cfb1 1305f0ef  ....c...o.......
 80000d10 9355c540 23bcb01a 9302f0ff 6384b200  .U.@#.......c...
 80000d20 6ff04fb0 1305f0df 93553540 23b0b01c  o.O......U5@#...
 80000d30 9302f0fb 6384b200 6ff0cfae 1305f0bf  ....c...o.......
 80000d40 9355f540 23b4b01c 9302f0ff 6384b200  .U.@#.......c...
 80000d50 6ff04fad 13051000 1315b500 1345f5ff  o.O..........E..
 80000d60 93559540 23b8b01c 9302b0ff 6384b200  .U.@#.......c...
 80000d70 6ff04fab 13051000 1315c500 1345f5ff  o.O..........E..
 80000d80 9355f543 23bcb01c 9302f0ff 6384b200  .U.C#.......c...
 80000d90 6ff04fa9 13051000 1315d500 1345f5ff  o.O..........E..
 80000da0 93559540 23b0b01e 9302f0fe 6384b200  .U.@#.......c...
 80000db0 6ff04fa7 13051000 1315e500 1345f5ff  o.O..........E..
 80000dc0 93553540 23b4b01e b7f2ffff 9b82f27f  .U5@#...........
 80000dd0 6384b200 6ff00fa5 13051000 1315f500  c...o...........
 80000de0 1345f5ff 93550541 23b8b01e 9302f0ff  .E...U.A#.......
 80000df0 6384b200 6ff00fa3 13051000 13150501  c...o...........
 80000e00 1345f5ff 93555541 23bcb01e 9302f0ff  .E...UUA#.......
 80000e10 6384b200 6ff00fa1 13051000 13151501  c...o...........
 80000e20 1345f5ff 93555540 23b0b020 b7f2ffff  .E...UU@#.. ....
 80000e30 9b82f2ff 6384b200 6ff0cf9e 13051000  ....c...o.......
 80000e40 13152501 1345f5ff 93551540 23b4b020  ..%..E...U.@#.. 
 80000e50 b702feff 9b82f2ff 6384b200 6ff08f9c  ........c...o...
 80000e60 13051000 13153501 1345f5ff 9355f543  ......5..E...U.C
 80000e70 23b8b020 9302f0ff 6384b200 6ff08f9a  #.. ....c...o...
 80000e80 13051000 13154501 1345f5ff 93557543  ......E..E...UuC
 80000e90 23bcb020 9302f0ff 6384b200 6ff08f98  #.. ....c...o...
 80000ea0 13051000 13155501 1345f5ff 93557540  ......U..E...Uu@
 80000eb0 23b0b022 b7c2ffff 9b82f2ff 6384b200  #.."........c...
 80000ec0 6ff04f96 13051000 13155503 1345f5ff  o.O.......U..E..
 80000ed0 93555541 23b4b022 9b02f0ff 93920202  .UUA#.."........
 80000ee0 9382f2ff 6384b200 6ff0cf93 13051000  ....c...o.......
 80000ef0 13156503 1345f5ff 93553541 23b8b022  ..e..E...U5A#.."
 80000f00 9b02f0ff 93923202 9382f2ff 6384b200  ......2.....c...
 80000f10 6ff04f91 13051000 13157503 1345f5ff  o.O.......u..E..
 80000f20 93555541 23bcb022 9b02f0ff 93922202  .UUA#.."......".
 80000f30 9382f2ff 6384b200 6ff0cf8e 13051000  ....c...o.......
 80000f40 13158503 1345f5ff 9355f541 23b0b024  .....E...U.A#..$
 80000f50 b70200fe 9b82f2ff 6384b200 6ff08f8c  ........c...o...
 80000f60 13051000 13159503 1345f5ff 9355b543  .........E...U.C
 80000f70 23b4b024 9302f0ff 6384b200 6ff08f8a  #..$....c...o...
 80000f80 13051000 1315b503 1345f5ff 9355f541  .........E...U.A
 80000f90 23b8b024 b70200f0 9b82f2ff 6384b200  #..$........c...
 80000fa0 6ff04f88 13051000 1315c503 1345f5ff  o.O..........E..
 80000fb0 93551540 23bcb024 9b02f0ff 9392b203  .U.@#..$........
 80000fc0 9382f2ff 6384b200 6ff0cf85 13051000  ....c...o.......
 80000fd0 1315d503 1345f5ff 93550542 23b0b026  .....E...U.B#..&
 80000fe0 b70200e0 9b82f2ff 6384b200 6ff08f83  ........c...o...
 80000ff0 13051000 1315e503 1345f5ff 93553541  .........E...U5A
 80001000 23b4b026 9b02f0ff 9392b202 9382f2ff  #..&............
 80001010 6384b200 6ff00f81 37555555 13055555  c...o...7UUU..UU
 80001020 1315b500 1305a52a 1315b500 13055555  .......*......UU
 80001030 1315a500 13055515 93552541 23b8b026  ......U..U%A#..&
 80001040 b7521500 9b825255 9392c200 93825255  .R....RU......RU
 80001050 9392c200 93825255 6384b200 6fe09ffc  ......RUc...o...
 80001060 37b5aaaa 1305a5aa 1315b500 13055555  7.............UU
 80001070 1315b500 1305a52a 1315a500 1305a52a  .......*.......*
 80001080 9355f541 23bcb026 b752f5ff 9b825255  .U.A#..&.R....RU
 80001090 9392c200 93825255 6384b200 6fe09ff8  ......RUc...o...
 800010a0 13053000 9355a542 23b0b028 93020000  ..0..U.B#..(....
 800010b0 6384b200 6fe01ff7 13055000 9355e543  c...o.....P..U.C
 800010c0 23b4b028 93020000 6384b200 6fe09ff5  #..(....c...o...
 800010d0 37353333 13053533 1315b500 13059519  7533..53........
 800010e0 1315b500 1305c54c 1315a500 13053533  .......L......53
 800010f0 93554540 23b8b028 b7323300 9b823233  .UE@#..(.23...23
 80001100 9392c200 93823233 9392c200 93823233  ......23......23
 80001110 9392c200 93823233 6384b200 6fe09ff0  ......23c...o...
 80001120 37656666 13056566 1315b500 13053533  7eff..ef......53
 80001130 1315b500 13059519 1315a500 13056526  ..............e&
 80001140 93552540 23bcb028 b7d2cc00 9b82d2cc  .U%@#..(........
 80001150 9392c200 9382d2cc 9392c200 9382d2cc  ................
 80001160 9392d200 93829299 6384b200 6fe09feb  ........c...o...
 80001170 37050000 1305f5ff 1315b500 13057525  7.............u%
 80001180 1315b500 1305356c 1315a500 1305d50c  ......5l........
 80001190 9355b540 23b0b02a b762e9ff 9b8212f6  .U.@#..*.b......
 800011a0 6384b200 6fe01fe8 37050000 13050500  c...o...7.......
 800011b0 1315b500 1305855a 1315b500 1305c513  .......Z........
 800011c0 1315a500 13053533 93552541 23b4b02a  ......53.U%A#..*
 800011d0 b7320000 9b8212d4 6384b200 6fe09fe4  .2......c...o...
 800011e0 37555555 13055555 1315b500 1305a52a  7UUU..UU.......*
 800011f0 1315b500 13055555 1315a500 13054515  ......UU......E.
 80001200 9355c540 23b8b02a b7525505 9b825255  .U.@#..*.RU...RU
 80001210 9392c200 93825255 9392c200 93825255  ......RU......RU
 80001220 6384b200 6fe01fe0 37353333 13053533  c...o...7533..53
 80001230 1315b500 13059519 1315b500 1305c54c  ...............L
 80001240 1315a500 13052533 93553541 23bcb02a  ......%3.U5A#..*
 80001250 b7323333 9b823233 9392d200 93826266  .233..23......bf
 80001260 6384b200 6fe01fdc 37656666 13056566  c...o...7eff..ef
 80001270 1315b500 13053533 1315b500 13059519  ......53........
 80001280 1315a500 13055526 93551540 23b0b02c  ......U&.U.@#..,
 80001290 b7323303 9b823233 9392c200 93823233  .23...23......23
 800012a0 9392c200 93823233 9392c200 93822233  ......23......"3
 800012b0 6384b200 6fe01fd7 37050000 13050500  c...o...7.......
 800012c0 1315b500 1305855a 1315b500 1305c513  .......Z........
 800012d0 1315a500 13052533 9355a540 23b4b02c  ......%3.U.@#..,
 800012e0 b7422d00 9b82c213 6384b200 6fe09fd3  .B-.....c...o...
 800012f0 37555555 13055555 1315b500 1305a52a  7UUU..UU.......*
 80001300 1315b500 13055555 1315a500 13056515  ......UU......e.
 80001310 9355c540 23b8b02c b7525505 9b825255  .U.@#..,.RU...RU
 80001320 9392c200 93825255 9392c200 93825255  ......RU......RU
 80001330 6384b200 6fe01fcf 37b5aaaa 1305a5aa  c...o...7.......
 80001340 1315b500 13055555 1315b500 1305a52a  ......UU.......*
 80001350 1315a500 1305b52a 93553540 23bcb02c  .......*.U5@#..,
 80001360 b75255ff 9b825255 9392c200 93825255  .RU...RU......RU
 80001370 9392c200 93825255 9392c200 93825255  ......RU......RU
 80001380 6384b200 6fe01fca 13056000 93555541  c...o.....`..UUA
 80001390 23b0b02e 93020000 6384b200 6fe09fc8  #.......c...o...
 800013a0 37353333 13053533 1315b500 13059519  7533..53........
 800013b0 1315b500 1305c54c 1315a500 13054533  .......L......E3
 800013c0 9355f540 23b4b02e b7323300 9b823233  .U.@#....23...23
 800013d0 9392c200 93823233 9392d200 93826266  ......23......bf
 800013e0 6384b200 6fe01fc4 37656666 13056566  c...o...7eff..ef
 800013f0 1315b500 13053533 1315b500 13059519  ......53........
 80001400 1315a500 13057526 9355a540 23b8b02e  ......u&.U.@#...
 80001410 b7d2cc0c 9b82d2cc 9392c200 9382d2cc  ................
 80001420 9392d200 93829299 6384b200 6fe09fbf  ........c...o...
 80001430 37050000 1305f5ff 1315b500 13057525  7.............u%
 80001440 1315b500 1305356c 1315a500 1305e50c  ......5l........
 80001450 9355b540 23bcb02e b762e9ff 9b8212f6  .U.@#....b......
 80001460 6384b200 6fe01fbc 37050000 13050500  c...o...7.......
 80001470 1315b500 1305855a 1315b500 1305c513  .......Z........
 80001480 1315a500 13054533 93558540 23b0b030  ......E3.U.@#..0
 80001490 b702b500 9b82324f 6384b200 6fe09fb8  ......2Oc...o...
 800014a0 13051000 1315d502 1345f5ff 9355f542  .........E...U.B
 800014b0 23b4b030 9302f0ff 6384b200 6fe09fb6  #..0....c...o...
 800014c0 13051000 13156501 1345f5ff 9355a542  ......e..E...U.B
 800014d0 23b8b030 9302f0ff 6384b200 6fe09fb4  #..0....c...o...
 800014e0 13051000 13157501 1345f5ff 9355d540  ......u..E...U.@
 800014f0 23bcb030 9302f0bf 6384b200 6fe09fb2  #..0....c...o...
 80001500 13051000 13158501 1345f5ff 93551540  .........E...U.@
 80001510 23b0b032 b70280ff 9b82f2ff 6384b200  #..2........c...
 80001520 6fe05fb0 13051000 1315a501 1345f5ff  o._..........E..
 80001530 9355c540 23b4b032 b7c2ffff 9b82f2ff  .U.@#..2........
 80001540 6384b200 6fe01fae 13051000 1315b501  c...o...........
 80001550 1345f5ff 93557540 23b8b032 b702f0ff  .E...Uu@#..2....
 80001560 9b82f2ff 6384b200 6fe0dfab 13051000  ....c...o.......
 80001570 1315c501 1345f5ff 93554540 23bcb032  .....E...UE@#..2
 80001580 b70200ff 9b82f2ff 6384b200 6fe09fa9  ........c...o...
 80001590 13051000 1315d501 1345f5ff 9355b543  .........E...U.C
 800015a0 23b0b034 9302f0ff 6384b200 6fe09fa7  #..4....c...o...
 800015b0 13051000 1315e501 1345f5ff 93550542  .........E...U.B
 800015c0 23b4b034 9302f0ff 6384b200 6fe09fa5  #..4....c...o...
 800015d0 13051000 1315f501 1345f5ff 93559540  .........E...U.@
 800015e0 23b8b034 b702c0ff 9b82f2ff 6384b200  #..4........c...
 800015f0 6fe05fa3 13051000 13150502 1345f5ff  o._..........E..
 80001600 93554540 23bcb034 b70200f0 9b82f2ff  .UE@#..4........
 80001610 6384b200 6fe01fa1 13051000 13151502  c...o...........
 80001620 1345f5ff 9355c540 23b0b036 b702e0ff  .E...U.@#..6....
 80001630 9b82f2ff 6384b200 6fe0df9e 13051000  ....c...o.......
 80001640 13152502 1345f5ff 9355f542 23b4b036  ..%..E...U.B#..6
 80001650 9302f0ff 6384b200 6fe0df9c 13051000  ....c...o.......
 80001660 13153502 1345f5ff 93551541 23b8b036  ..5..E...U.A#..6
 80001670 b702fcff 9b82f2ff 6384b200 6fe09f9a  ........c...o...
 80001680 13051000 13154502 1345f5ff 9355f540  ......E..E...U.@
 80001690 23bcb036 b702e0ff 9b82f2ff 6384b200  #..6........c...
 800016a0 6fe05f98 13051000 13155502 1345f5ff  o._.......U..E..
 800016b0 93553541 23b0b038 b702fcff 9b82f2ff  .U5A#..8........
 800016c0 6384b200 6fe01f96 13051000 13156502  c...o.........e.
 800016d0 1345f5ff 93553540 23b4b038 9b02f0ff  .E...U5@#..8....
 800016e0 93923202 9382f2ff 6384b200 6fe09f93  ..2.....c...o...
 800016f0 13051000 13157502 1345f5ff 9355e540  ......u..E...U.@
 80001700 23b8b038 b70200fe 9b82f2ff 6384b200  #..8........c...
 80001710 6fe05f91 13051000 13158502 1345f5ff  o._..........E..
 80001720 93551540 23bcb038 9b02f0ff 93927202  .U.@#..8......r.
 80001730 9382f2ff 6384b200 6fe0df8e 13051000  ....c...o.......
 80001740 13159502 1345f5ff 93555540 23b0b03a  .....E...UU@#..:
 80001750 9b02f0ff 93924202 9382f2ff 6384b200  ......B.....c...
 80001760 6fe05f8c 13051000 1315a502 1345f5ff  o._..........E..
 80001770 93558540 23b4b03a 9b02f0ff 93922202  .U.@#..:......".
 80001780 9382f2ff 6384b200 6fe0df89 13051000  ....c...o.......
 80001790 1315b502 1345f5ff 93556540 23b8b03a  .....E...Ue@#..:
 800017a0 9b02f0ff 93925202 9382f2ff 6384b200  ......R.....c...
 800017b0 6fe05f87 13051000 1315c502 1345f5ff  o._..........E..
 800017c0 93559540 23bcb03a 9b02f0ff 93923202  .U.@#..:......2.
 800017d0 9382f2ff 6384b200 6fe0df84 13051000  ....c...o.......
 800017e0 1315e502 1345f5ff 93558540 23b0b03c  .....E...U.@#..<
 800017f0 9b02f0ff 93926202 9382f2ff 6384b200  ......b.....c...
 80001800 6fe05f82 13051000 1315f502 1345f5ff  o._..........E..
 80001810 93552540 23b4b03c 9b02f0ff 9392d202  .U%@#..<........
 80001820 9382f2ff 6384b200 6fe0cfff 13051000  ....c...o.......
 80001830 13150503 1345f5ff 9355f541 23b8b03c  .....E...U.A#..<
 80001840 b702feff 9b82f2ff 6384b200 6fe08ffd  ........c...o...
 80001850 13051000 13151503 1345f5ff 9355b543  .........E...U.C
 80001860 23bcb03c 9302f0ff 6384b200 6fe08ffb  #..<....c...o...
 80001870 13051000 13152503 1345f5ff 93557543  ......%..E...UuC
 80001880 23b0b03e 9302f0ff 6384b200 6fe08ff9  #..>....c...o...
 80001890 13051000 13153503 1345f5ff 93553540  ......5..E...U5@
 800018a0 23b4b03e 9b02f0ff 93920203 9382f2ff  #..>............
 800018b0 6384b200 6fe00ff7 13051000 13154503  c...o.........E.
 800018c0 1345f5ff 93553541 23b8b03e 9b02f0ff  .E...U5A#..>....
 800018d0 93921202 9382f2ff 6384b200 6fe08ff4  ........c...o...
 800018e0 13058000 9355a542 23bcb03e 93020000  .....U.B#..>....
 800018f0 6384b200 6fe00ff3 13050010 93552541  c...o........U%A
 80001900 23b0b040 93020000 6384b200 6fe08ff1  #..@....c...o...
 80001910 6f008003 8334811f 03330120 33039300  o....4...3. 3...
 80001920 37030000 13030300 1313b300 1303635d  7.............c]
 80001930 1313b300 13036343 1313a300 1303032d  ......cC.......-
 80001940 23be64fe 6f004000 13050000 6f000001  #.d.o.@.....o...
 80001950 00000000 00000000 00000000 13050500  ................
 80001960 73001000 6f000000 130101ff 17050000  s...o...........
 80001970 1305c501 23341100 efe08fe9 13050500  ....#4..........
 80001980 73001000 6f000000 00000000 00000000  s...o...........
 80001990 00000000 00000000 00000000 00000000  ................
 800019a0 00000000 00000000 00000000 00000000  ................
 800019b0 00000000 00000000 00000000 00000000  ................
 800019c0 00000000 00000000 00000000 00000000  ................
 800019d0 00000000 00000000 00000000 00000000  ................
 800019e0 00000000 00000000 00000000 00000000  ................
 800019f0 00000000 00000000 00000000 00000000  ................
 80001a00 00000000 00000000 00000000 00000000  ................
 80001a10 00000000 00000000 00000000 00000000  ................
 80001a20 00000000 00000000 00000000 00000000  ................
 80001a30 00000000 00000000 00000000 00000000  ................
 80001a40 00000000 00000000 00000000 00000000  ................
 80001a50 00000000 00000000 00000000 00000000  ................
 80001a60 00000000 00000000 00000000 00000000  ................
 80001a70 00000000 00000000 00000000 00000000  ................
 80001a80 00000000 00000000 00000000 00000000  ................
 80001a90 00000000 00000000 00000000 00000000  ................
 80001aa0 00000000 00000000 00000000 00000000  ................
 80001ab0 00000000 00000000 00000000 00000000  ................
 80001ac0 00000000 00000000 00000000 00000000  ................
 80001ad0 00000000 00000000 00000000 00000000  ................
 80001ae0 00000000 00000000 00000000 00000000  ................
 80001af0 00000000 00000000 00000000 00000000  ................
 80001b00 00000000 00000000 00000000 00000000  ................
 80001b10 00000000 00000000 00000000 00000000  ................
 80001b20 00000000 00000000 00000000 00000000  ................
 80001b30 00000000 00000000 00000000 00000000  ................
 80001b40 00000000 00000000 00000000 00000000  ................
 80001b50 00000000 00000000 00000000 00000000  ................
 80001b60 00000000 00000000 00000000 00000000  ................
 80001b70 00000000 00000000 00000000 00000000  ................
 80001b80 00000000 00000000 00000000 00000000  ................
 80001b90 00000000 00000000 00000000 00000000  ................
 80001ba0 00000000 00000000 00000000 00000000  ................
 80001bb0 00000000 00000000 00000000 00000000  ................
 80001bc0 00000000 00000000 00000000 00000000  ................
 80001bd0 00000000 00000000 00000000 00000000  ................
 80001be0 00000000 00000000 00000000 00000000  ................
 80001bf0 00000000 00000000 00000000 00000000  ................
 80001c00 00000000 00000000 00000000 00000000  ................
 80001c10 00000000 00000000 00000000 00000000  ................
 80001c20 00000000 00000000 00000000 00000000  ................
 80001c30 00000000 00000000 00000000 00000000  ................
 80001c40 00000000 00000000 00000000 00000000  ................
 80001c50 00000000 00000000 00000000 00000000  ................
 80001c60 00000000 00000000 00000000 00000000  ................
 80001c70 00000000 00000000 00000000 00000000  ................
 80001c80 00000000 00000000 00000000 00000000  ................
 80001c90 00000000 00000000 00000000 00000000  ................
 80001ca0 00000000 00000000 00000000 00000000  ................
 80001cb0 00000000 00000000 00000000 00000000  ................
 80001cc0 00000000 00000000 00000000 00000000  ................
 80001cd0 00000000 00000000 00000000 00000000  ................
 80001ce0 00000000 00000000 00000000 00000000  ................
 80001cf0 00000000 00000000 00000000 00000000  ................
 80001d00 00000000 00000000 00000000 00000000  ................
 80001d10 00000000 00000000 00000000 00000000  ................
 80001d20 00000000 00000000 00000000 00000000  ................
 80001d30 00000000 00000000 00000000 00000000  ................
 80001d40 00000000 00000000 00000000 00000000  ................
 80001d50 00000000 00000000 00000000 00000000  ................
 80001d60 00000000 00000000 00000000 00000000  ................
 80001d70 00000000 00000000 00000000 00000000  ................
 80001d80 00000000 00000000 00000000 00000000  ................
 80001d90 00000000 00000000 00000000 00000000  ................
 80001da0 00000000 00000000 00000000 00000000  ................
 80001db0 00000000 00000000 00000000 00000000  ................
 80001dc0 00000000 00000000 00000000 00000000  ................
 80001dd0 00000000 00000000 00000000 00000000  ................
 80001de0 00000000 00000000 00000000 00000000  ................
 80001df0 00000000 00000000 00000000 00000000  ................
 80001e00 00000000 00000000 00000000 00000000  ................
 80001e10 00000000 00000000 00000000 00000000  ................
 80001e20 00000000 00000000 00000000 00000000  ................
 80001e30 00000000 00000000 00000000 00000000  ................
 80001e40 00000000 00000000 00000000 00000000  ................
 80001e50 00000000 00000000 00000000 00000000  ................
 80001e60 00000000 00000000 00000000 00000000  ................
 80001e70 00000000 00000000 00000000 00000000  ................
 80001e80 00000000 00000000 00000000 00000000  ................
 80001e90 00000000 00000000 00000000 00000000  ................
 80001ea0 00000000 00000000 00000000 00000000  ................
 80001eb0 00000000 00000000 00000000 00000000  ................
 80001ec0 00000000 00000000 00000000 00000000  ................
 80001ed0 00000000 00000000 00000000 00000000  ................
 80001ee0 00000000 00000000 00000000 00000000  ................
 80001ef0 00000000 00000000 00000000 00000000  ................
 80001f00 00000000 00000000 00000000 00000000  ................
 80001f10 00000000 00000000 00000000 00000000  ................
 80001f20 00000000 00000000 00000000 00000000  ................
 80001f30 00000000 00000000 00000000 00000000  ................
 80001f40 00000000 00000000 00000000 00000000  ................
 80001f50 00000000 00000000 00000000 00000000  ................
 80001f60 00000000 00000000 00000000 00000000  ................
 80001f70 00000000 00000000 00000000 00000000  ................
 80001f80 00000000 00000000 00000000 00000000  ................
 80001f90 00000000 00000000 00000000 00000000  ................
 80001fa0 00000000 00000000 00000000 00000000  ................
 80001fb0 00000000 00000000 00000000 00000000  ................
 80001fc0 00000000 00000000 00000000 00000000  ................
 80001fd0 00000000 00000000 00000000 00000000  ................
 80001fe0 00000000 00000000 00000000 00000000  ................
 80001ff0 00000000 00000000 00000000 00000000  ................
 80002000 fecabeba fecabeba fecabeba fecabeba  ................
 80002010 efbeadde efbeadde 00000000 00000000  ................
 80002020 00000000 00000000 00000000 00000000  ................
 80002030 00000000 00000000 00000000 00000000  ................
 80002040 00000000 00000000 00000000 00000000  ................
 80002050 00000000 00000000 00000000 00000000  ................
 80002060 00000000 00000000 00000000 00000000  ................
 80002070 00000000 00000000 00000000 00000000  ................
 80002080 00000000 00000000 00000000 00000000  ................
 80002090 00000000 00000000 00000000 00000000  ................
 800020a0 00000000 00000000 00000000 00000000  ................
 800020b0 00000000 00000000 00000000 00000000  ................
 800020c0 00000000 00000000 00000000 00000000  ................
 800020d0 00000000 00000000 00000000 00000000  ................
 800020e0 00000000 00000000 00000000 00000000  ................
 800020f0 00000000 00000000 00000000 00000000  ................
 80002100 00000000 00000000 00000000 00000000  ................
 80002110 00000000 00000000 00000000 00000000  ................
 80002120 00000000 00000000 00000000 00000000  ................
 80002130 00000000 00000000 00000000 00000000  ................
 80002140 00000000 00000000 00000000 00000000  ................
 80002150 00000000 00000000 00000000 00000000  ................
 80002160 00000000 00000000 00000000 00000000  ................
 80002170 00000000 00000000 00000000 00000000  ................
 80002180 00000000 00000000 00000000 00000000  ................
 80002190 00000000 00000000 00000000 00000000  ................
 800021a0 00000000 00000000 00000000 00000000  ................
 800021b0 00000000 00000000 00000000 00000000  ................
 800021c0 00000000 00000000 00000000 00000000  ................
 800021d0 00000000 00000000 00000000 00000000  ................
 800021e0 00000000 00000000 00000000 00000000  ................
 800021f0 00000000 00000000 00000000 00000000  ................
 80002200 00000000 00000000 00000000 00000000  ................
 80002210 00000000 00000000 00000000 00000000  ................
 80002220 00000000 00000000 00000000 00000000  ................
 80002230 00000000 00000000 00000000 00000000  ................
 80002240 00000000 00000000 00000000 00000000  ................
 80002250 00000000 00000000 00000000 00000000  ................
 80002260 00000000 00000000 00000000 00000000  ................
 80002270 00000000 00000000 00000000 00000000  ................
 80002280 00000000 00000000 00000000 00000000  ................
 80002290 00000000 00000000 00000000 00000000  ................
 800022a0 00000000 00000000 00000000 00000000  ................
 800022b0 00000000 00000000 00000000 00000000  ................
 800022c0 00000000 00000000 00000000 00000000  ................
 800022d0 00000000 00000000 00000000 00000000  ................
 800022e0 00000000 00000000 00000000 00000000  ................
 800022f0 00000000 00000000 00000000 00000000  ................
 80002300 00000000 00000000 00000000 00000000  ................
 80002310 00000000 00000000 00000000 00000000  ................
 80002320 00000000 00000000 00000000 00000000  ................
 80002330 00000000 00000000 00000000 00000000  ................
 80002340 00000000 00000000 00000000 00000000  ................
 80002350 00000000 00000000 00000000 00000000  ................
 80002360 00000000 00000000 00000000 00000000  ................
 80002370 00000000 00000000 00000000 00000000  ................
 80002380 00000000 00000000 00000000 00000000  ................
 80002390 00000000 00000000 00000000 00000000  ................
 800023a0 00000000 00000000 00000000 00000000  ................
 800023b0 00000000 00000000 00000000 00000000  ................
 800023c0 00000000 00000000 00000000 00000000  ................
 800023d0 00000000 00000000 00000000 00000000  ................
 800023e0 00000000 00000000 00000000 00000000  ................
 800023f0 00000000 00000000 00000000 00000000  ................
 80002400 00000000 00000000 00000000 00000000  ................
 80002410 00000000 00000000 00000000 00000000  ................
 80002420 00000000 00000000 00000000 00000000  ................
 80002430 00000000 00000000 00000000 00000000  ................
 80002440 00000000 00000000 00000000 00000000  ................
 80002450 00000000 00000000 00000000 00000000  ................
 80002460 00000000 00000000 00000000 00000000  ................
 80002470 00000000 00000000 00000000 00000000  ................
 80002480 00000000 00000000 00000000 00000000  ................
 80002490 00000000 00000000 00000000 00000000  ................
 800024a0 00000000 00000000 00000000 00000000  ................
 800024b0 00000000 00000000 00000000 00000000  ................
 800024c0 00000000 00000000 00000000 00000000  ................
 800024d0 00000000 00000000 00000000 00000000  ................
 800024e0 00000000 00000000 00000000 00000000  ................
 800024f0 00000000 00000000 00000000 00000000  ................
 80002500 00000000 00000000 00000000 00000000  ................
 80002510 00000000 00000000 00000000 00000000  ................
 80002520 00000000 00000000 00000000 00000000  ................
 80002530 00000000 00000000 00000000 00000000  ................
 80002540 00000000 00000000 00000000 00000000  ................
 80002550 00000000 00000000 00000000 00000000  ................
 80002560 00000000 00000000 00000000 00000000  ................
 80002570 00000000 00000000 00000000 00000000  ................
 80002580 00000000 00000000 00000000 00000000  ................
 80002590 00000000 00000000 00000000 00000000  ................
 800025a0 00000000 00000000 00000000 00000000  ................
 800025b0 00000000 00000000 00000000 00000000  ................
 800025c0 00000000 00000000 00000000 00000000  ................
 800025d0 00000000 00000000 00000000 00000000  ................
 800025e0 00000000 00000000 00000000 00000000  ................
 800025f0 00000000 00000000 00000000 00000000  ................
 80002600 00000000 00000000 00000000 00000000  ................
 80002610 00000000 00000000 00000000 00000000  ................
 80002620 00000000 00000000 00000000 00000000  ................
 80002630 00000000 00000000 00000000 00000000  ................
 80002640 00000000 00000000 00000000 00000000  ................
 80002650 00000000 00000000 00000000 00000000  ................
 80002660 00000000 00000000 00000000 00000000  ................
 80002670 00000000 00000000 00000000 00000000  ................
 80002680 00000000 00000000 00000000 00000000  ................
 80002690 00000000 00000000 00000000 00000000  ................
 800026a0 00000000 00000000 00000000 00000000  ................
 800026b0 00000000 00000000 00000000 00000000  ................
 800026c0 00000000 00000000 00000000 00000000  ................
 800026d0 00000000 00000000 00000000 00000000  ................
 800026e0 00000000 00000000 00000000 00000000  ................
 800026f0 00000000 00000000 00000000 00000000  ................
 80002700 00000000 00000000 00000000 00000000  ................
 80002710 00000000 00000000 00000000 00000000  ................
 80002720 00000000 00000000 00000000 00000000  ................
 80002730 00000000 00000000 00000000 00000000  ................
 80002740 00000000 00000000 00000000 00000000  ................
 80002750 00000000 00000000 00000000 00000000  ................
 80002760 00000000 00000000 00000000 00000000  ................
 80002770 00000000 00000000 00000000 00000000  ................
 80002780 00000000 00000000 00000000 00000000  ................
 80002790 00000000 00000000 00000000 00000000  ................
 800027a0 00000000 00000000 00000000 00000000  ................
 800027b0 00000000 00000000 00000000 00000000  ................
 800027c0 00000000 00000000 00000000 00000000  ................
 800027d0 00000000 00000000 00000000 00000000  ................
 800027e0 00000000 00000000 00000000 00000000  ................
 800027f0 00000000 00000000 00000000 00000000  ................
 80002800 00000000 00000000 00000000 00000000  ................
 80002810 00000000 00000000 00000000 00000000  ................
 80002820 00000000 00000000 00000000 00000000  ................
 80002830 00000000 00000000 00000000 00000000  ................
 80002840 00000000 00000000 00000000 00000000  ................
 80002850 00000000 00000000 00000000 00000000  ................
 80002860 00000000 00000000 00000000 00000000  ................
 80002870 00000000 00000000 00000000 00000000  ................
 80002880 00000000 00000000 00000000 00000000  ................
 80002890 00000000 00000000 00000000 00000000  ................
 800028a0 00000000 00000000 00000000 00000000  ................
 800028b0 00000000 00000000 00000000 00000000  ................
 800028c0 00000000 00000000 00000000 00000000  ................
 800028d0 00000000 00000000 00000000 00000000  ................
 800028e0 00000000 00000000 00000000 00000000  ................
 800028f0 00000000 00000000 00000000 00000000  ................
 80002900 00000000 00000000 00000000 00000000  ................
 80002910 00000000 00000000 00000000 00000000  ................
 80002920 00000000 00000000 00000000 00000000  ................
 80002930 00000000 00000000 00000000 00000000  ................
 80002940 00000000 00000000 00000000 00000000  ................
 80002950 00000000 00000000 00000000 00000000  ................
 80002960 00000000 00000000 00000000 00000000  ................
 80002970 00000000 00000000 00000000 00000000  ................
 80002980 00000000 00000000 00000000 00000000  ................
 80002990 00000000 00000000 00000000 00000000  ................
 800029a0 00000000 00000000 00000000 00000000  ................
 800029b0 00000000 00000000 00000000 00000000  ................
 800029c0 00000000 00000000 00000000 00000000  ................
 800029d0 00000000 00000000 00000000 00000000  ................
 800029e0 00000000 00000000 00000000 00000000  ................
 800029f0 00000000 00000000 00000000 00000000  ................
 80002a00 00000000 00000000 00000000 00000000  ................
 80002a10 00000000 00000000 00000000 00000000  ................
 80002a20 00000000 00000000 00000000 00000000  ................
 80002a30 00000000 00000000 00000000 00000000  ................
 80002a40 00000000 00000000 00000000 00000000  ................
 80002a50 00000000 00000000 00000000 00000000  ................
 80002a60 00000000 00000000 00000000 00000000  ................
 80002a70 00000000 00000000 00000000 00000000  ................
 80002a80 00000000 00000000 00000000 00000000  ................
 80002a90 00000000 00000000 00000000 00000000  ................
 80002aa0 00000000 00000000 00000000 00000000  ................
 80002ab0 00000000 00000000 00000000 00000000  ................
 80002ac0 00000000 00000000 00000000 00000000  ................
 80002ad0 00000000 00000000 00000000 00000000  ................
 80002ae0 00000000 00000000 00000000 00000000  ................
 80002af0 00000000 00000000 00000000 00000000  ................
 80002b00 00000000 00000000 00000000 00000000  ................
 80002b10 00000000 00000000 00000000 00000000  ................
 80002b20 00000000 00000000 00000000 00000000  ................
 80002b30 00000000 00000000 00000000 00000000  ................
 80002b40 00000000 00000000 00000000 00000000  ................
 80002b50 00000000 00000000 00000000 00000000  ................
 80002b60 00000000 00000000 00000000 00000000  ................
 80002b70 00000000 00000000 00000000 00000000  ................
 80002b80 00000000 00000000 00000000 00000000  ................
 80002b90 00000000 00000000 00000000 00000000  ................
 80002ba0 00000000 00000000 00000000 00000000  ................
 80002bb0 00000000 00000000 00000000 00000000  ................
 80002bc0 00000000 00000000 00000000 00000000  ................
 80002bd0 00000000 00000000 00000000 00000000  ................
 80002be0 00000000 00000000 00000000 00000000  ................
 80002bf0 00000000 00000000 00000000 00000000  ................
 80002c00 00000000 00000000 00000000 00000000  ................
 80002c10 00000000 00000000 00000000 00000000  ................
 80002c20 00000000 00000000 00000000 00000000  ................
 80002c30 00000000 00000000 00000000 00000000  ................
 80002c40 00000000 00000000 00000000 00000000  ................
 80002c50 00000000 00000000 00000000 00000000  ................
 80002c60 00000000 00000000 00000000 00000000  ................
 80002c70 00000000 00000000 00000000 00000000  ................
 80002c80 00000000 00000000 00000000 00000000  ................
 80002c90 00000000 00000000 00000000 00000000  ................
 80002ca0 00000000 00000000 00000000 00000000  ................
 80002cb0 00000000 00000000 00000000 00000000  ................
 80002cc0 00000000 00000000 00000000 00000000  ................
 80002cd0 00000000 00000000 00000000 00000000  ................
 80002ce0 00000000 00000000 00000000 00000000  ................
 80002cf0 00000000 00000000 00000000 00000000  ................
 80002d00 00000000 00000000 00000000 00000000  ................
 80002d10 00000000 00000000 00000000 00000000  ................
 80002d20 00000000 00000000 00000000 00000000  ................
 80002d30 00000000 00000000 00000000 00000000  ................
 80002d40 00000000 00000000 00000000 00000000  ................
 80002d50 00000000 00000000 00000000 00000000  ................
 80002d60 00000000 00000000 00000000 00000000  ................
 80002d70 00000000 00000000 00000000 00000000  ................
 80002d80 00000000 00000000 00000000 00000000  ................
 80002d90 00000000 00000000 00000000 00000000  ................
 80002da0 00000000 00000000 00000000 00000000  ................
 80002db0 00000000 00000000 00000000 00000000  ................
 80002dc0 00000000 00000000 00000000 00000000  ................
 80002dd0 00000000 00000000 00000000 00000000  ................
 80002de0 00000000 00000000 00000000 00000000  ................
 80002df0 00000000 00000000 00000000 00000000  ................
 80002e00 00000000 00000000 00000000 00000000  ................
 80002e10 00000000 00000000 00000000 00000000  ................
 80002e20 00000000 00000000 00000000 00000000  ................
 80002e30 00000000 00000000 00000000 00000000  ................
 80002e40 00000000 00000000 00000000 00000000  ................
 80002e50 00000000 00000000 00000000 00000000  ................
 80002e60 00000000 00000000 00000000 00000000  ................
 80002e70 00000000 00000000 00000000 00000000  ................
 80002e80 00000000 00000000 00000000 00000000  ................
 80002e90 00000000 00000000 00000000 00000000  ................
 80002ea0 00000000 00000000 00000000 00000000  ................
 80002eb0 00000000 00000000 00000000 00000000  ................
 80002ec0 00000000 00000000 00000000 00000000  ................
 80002ed0 00000000 00000000 00000000 00000000  ................
 80002ee0 00000000 00000000 00000000 00000000  ................
 80002ef0 00000000 00000000 00000000 00000000  ................
 80002f00 00000000 00000000 00000000 00000000  ................
 80002f10 00000000 00000000 00000000 00000000  ................
 80002f20 00000000 00000000 00000000 00000000  ................
 80002f30 00000000 00000000 00000000 00000000  ................
 80002f40 00000000 00000000 00000000 00000000  ................
 80002f50 00000000 00000000 00000000 00000000  ................
 80002f60 00000000 00000000 00000000 00000000  ................
 80002f70 00000000 00000000 00000000 00000000  ................
 80002f80 00000000 00000000 00000000 00000000  ................
 80002f90 00000000 00000000 00000000 00000000  ................
 80002fa0 00000000 00000000 00000000 00000000  ................
 80002fb0 00000000 00000000 00000000 00000000  ................
 80002fc0 00000000 00000000 00000000 00000000  ................
 80002fd0 00000000 00000000 00000000 00000000  ................
 80002fe0 00000000 00000000 00000000 00000000  ................
 80002ff0 00000000 00000000 00000000 00000000  ................
 80003000 81b2d4e7 09a35c6f efbeadde efbeadde  ......\o........
 80003010 efbeadde efbeadde efbeadde efbeadde  ................
 80003020 efbeadde efbeadde efbeadde efbeadde  ................
 80003030 efbeadde efbeadde efbeadde efbeadde  ................
 80003040 efbeadde efbeadde efbeadde efbeadde  ................
 80003050 efbeadde efbeadde efbeadde efbeadde  ................
 80003060 efbeadde efbeadde efbeadde efbeadde  ................
 80003070 efbeadde efbeadde efbeadde efbeadde  ................
 80003080 efbeadde efbeadde efbeadde efbeadde  ................
 80003090 efbeadde efbeadde efbeadde efbeadde  ................
 800030a0 efbeadde efbeadde efbeadde efbeadde  ................
 800030b0 efbeadde efbeadde efbeadde efbeadde  ................
 800030c0 efbeadde efbeadde efbeadde efbeadde  ................
 800030d0 efbeadde efbeadde efbeadde efbeadde  ................
 800030e0 efbeadde efbeadde efbeadde efbeadde  ................
 800030f0 efbeadde efbeadde efbeadde efbeadde  ................
 80003100 efbeadde efbeadde efbeadde efbeadde  ................
 80003110 efbeadde efbeadde efbeadde efbeadde  ................
 80003120 efbeadde efbeadde efbeadde efbeadde  ................
 80003130 efbeadde efbeadde efbeadde efbeadde  ................
 80003140 efbeadde efbeadde efbeadde efbeadde  ................
 80003150 efbeadde efbeadde efbeadde efbeadde  ................
 80003160 efbeadde efbeadde efbeadde efbeadde  ................
 80003170 efbeadde efbeadde efbeadde efbeadde  ................
 80003180 efbeadde efbeadde efbeadde efbeadde  ................
 80003190 efbeadde efbeadde efbeadde efbeadde  ................
 800031a0 efbeadde efbeadde efbeadde efbeadde  ................
 800031b0 efbeadde efbeadde efbeadde efbeadde  ................
 800031c0 efbeadde efbeadde efbeadde efbeadde  ................
 800031d0 efbeadde efbeadde efbeadde efbeadde  ................
 800031e0 efbeadde efbeadde efbeadde efbeadde  ................
 800031f0 efbeadde efbeadde efbeadde efbeadde  ................
 80003200 efbeadde efbeadde efbeadde efbeadde  ................
 80003210 efbeadde efbeadde efbeadde efbeadde  ................
 80003220 efbeadde efbeadde efbeadde efbeadde  ................
 80003230 efbeadde efbeadde efbeadde efbeadde  ................
 80003240 efbeadde efbeadde efbeadde efbeadde  ................
 80003250 efbeadde efbeadde efbeadde efbeadde  ................
 80003260 efbeadde efbeadde efbeadde efbeadde  ................
 80003270 efbeadde efbeadde efbeadde efbeadde  ................
 80003280 efbeadde efbeadde efbeadde efbeadde  ................
 80003290 efbeadde efbeadde efbeadde efbeadde  ................
 800032a0 efbeadde efbeadde efbeadde efbeadde  ................
 800032b0 efbeadde efbeadde efbeadde efbeadde  ................
 800032c0 efbeadde efbeadde efbeadde efbeadde  ................
 800032d0 efbeadde efbeadde efbeadde efbeadde  ................
 800032e0 efbeadde efbeadde efbeadde efbeadde  ................
 800032f0 efbeadde efbeadde efbeadde efbeadde  ................
 80003300 efbeadde efbeadde efbeadde efbeadde  ................
 80003310 efbeadde efbeadde efbeadde efbeadde  ................
 80003320 efbeadde efbeadde efbeadde efbeadde  ................
 80003330 efbeadde efbeadde efbeadde efbeadde  ................
 80003340 efbeadde efbeadde efbeadde efbeadde  ................
 80003350 efbeadde efbeadde efbeadde efbeadde  ................
 80003360 efbeadde efbeadde efbeadde efbeadde  ................
 80003370 efbeadde efbeadde efbeadde efbeadde  ................
 80003380 efbeadde efbeadde efbeadde efbeadde  ................
 80003390 efbeadde efbeadde efbeadde efbeadde  ................
 800033a0 efbeadde efbeadde efbeadde efbeadde  ................
 800033b0 efbeadde efbeadde efbeadde efbeadde  ................
 800033c0 efbeadde efbeadde efbeadde efbeadde  ................
 800033d0 efbeadde efbeadde efbeadde efbeadde  ................
 800033e0 efbeadde efbeadde efbeadde efbeadde  ................
 800033f0 efbeadde efbeadde efbeadde efbeadde  ................
 80003400 efbeadde efbeadde efbeadde efbeadde  ................
 80003410 efbeadde efbeadde efbeadde efbeadde  ................
 80003420 efbeadde efbeadde efbeadde efbeadde  ................
 80003430 efbeadde efbeadde efbeadde efbeadde  ................
 80003440 efbeadde efbeadde efbeadde efbeadde  ................
 80003450 efbeadde efbeadde efbeadde efbeadde  ................
 80003460 efbeadde efbeadde efbeadde efbeadde  ................
 80003470 efbeadde efbeadde efbeadde efbeadde  ................
 80003480 efbeadde efbeadde efbeadde efbeadde  ................
 80003490 efbeadde efbeadde efbeadde efbeadde  ................
 800034a0 efbeadde efbeadde efbeadde efbeadde  ................
 800034b0 efbeadde efbeadde efbeadde efbeadde  ................
 800034c0 efbeadde efbeadde 81b2d4e7 09a35c6f  ..............\o

Disassembly of section .data:

0000000080000000 <.data>:
    80000000:	00000413          	addi	x8,x0,0
    80000004:	0000c117          	auipc	x2,0xc
    80000008:	ffc10113          	addi	x2,x2,-4 # 0x8000c000
    8000000c:	15d010ef          	jal	x1,0x80001968
    80000010:	030000ef          	jal	x1,0x80000040
    80000014:	00100513          	addi	x10,x0,1
    80000018:	145010ef          	jal	x1,0x8000195c
    8000001c:	00000513          	addi	x10,x0,0
    80000020:	00008067          	jalr	x0,0(x1)
    80000024:	00100513          	addi	x10,x0,1
    80000028:	135010ef          	jal	x1,0x8000195c
    8000002c:	00008067          	jalr	x0,0(x1)
	...
    80000040:	feedc0b7          	lui	x1,0xfeedc
    80000044:	ead08093          	addi	x1,x1,-339 # 0xfffffffffeedbead
    80000048:	00b09093          	slli	x1,x1,0xb
    8000004c:	7f708093          	addi	x1,x1,2039
    80000050:	00b09093          	slli	x1,x1,0xb
    80000054:	36f08093          	addi	x1,x1,879
    80000058:	00a09093          	slli	x1,x1,0xa
    8000005c:	2ad08093          	addi	x1,x1,685
    80000060:	ff76e137          	lui	x2,0xff76e
    80000064:	f5610113          	addi	x2,x2,-170 # 0xffffffffff76df56
    80000068:	00b11113          	slli	x2,x2,0xb
    8000006c:	7fb10113          	addi	x2,x2,2043
    80000070:	00b11113          	slli	x2,x2,0xb
    80000074:	5b710113          	addi	x2,x2,1463
    80000078:	00a11113          	slli	x2,x2,0xa
    8000007c:	35610113          	addi	x2,x2,854
    80000080:	7fbb71b7          	lui	x3,0x7fbb7
    80000084:	fab18193          	addi	x3,x3,-85 # 0x7fbb6fab
    80000088:	00b19193          	slli	x3,x3,0xb
    8000008c:	3fd18193          	addi	x3,x3,1021
    80000090:	00b19193          	slli	x3,x3,0xb
    80000094:	6db18193          	addi	x3,x3,1755
    80000098:	00a19193          	slli	x3,x3,0xa
    8000009c:	3ab18193          	addi	x3,x3,939
    800000a0:	bfddb237          	lui	x4,0xbfddb
    800000a4:	7d520213          	addi	x4,x4,2005 # 0xffffffffbfddb7d5
    800000a8:	00b21213          	slli	x4,x4,0xb
    800000ac:	5fe20213          	addi	x4,x4,1534 # 0x5fe
    800000b0:	00b21213          	slli	x4,x4,0xb
    800000b4:	76d20213          	addi	x4,x4,1901 # 0x76d
    800000b8:	00a21213          	slli	x4,x4,0xa
    800000bc:	3d520213          	addi	x4,x4,981 # 0x3d5
    800000c0:	dfeee2b7          	lui	x5,0xdfeee
    800000c4:	bea28293          	addi	x5,x5,-1046 # 0xffffffffdfeedbea
    800000c8:	00b29293          	slli	x5,x5,0xb
    800000cc:	6ff28293          	addi	x5,x5,1791
    800000d0:	00b29293          	slli	x5,x5,0xb
    800000d4:	3b628293          	addi	x5,x5,950
    800000d8:	00a29293          	slli	x5,x5,0xa
    800000dc:	3ea28293          	addi	x5,x5,1002
    800000e0:	6ff77337          	lui	x6,0x6ff77
    800000e4:	df530313          	addi	x6,x6,-523 # 0x6ff76df5
    800000e8:	00b31313          	slli	x6,x6,0xb
    800000ec:	37f30313          	addi	x6,x6,895
    800000f0:	00b31313          	slli	x6,x6,0xb
    800000f4:	5db30313          	addi	x6,x6,1499
    800000f8:	00a31313          	slli	x6,x6,0xa
    800000fc:	1f530313          	addi	x6,x6,501
    80000100:	b7fbb3b7          	lui	x7,0xb7fbb
    80000104:	6fa38393          	addi	x7,x7,1786 # 0xffffffffb7fbb6fa
    80000108:	00b39393          	slli	x7,x7,0xb
    8000010c:	5bf38393          	addi	x7,x7,1471
    80000110:	00b39393          	slli	x7,x7,0xb
    80000114:	6ed38393          	addi	x7,x7,1773
    80000118:	00a39393          	slli	x7,x7,0xa
    8000011c:	2fa38393          	addi	x7,x7,762
    80000120:	5bfde437          	lui	x8,0x5bfde
    80000124:	b7d40413          	addi	x8,x8,-1155 # 0x5bfddb7d
    80000128:	00b41413          	slli	x8,x8,0xb
    8000012c:	2df40413          	addi	x8,x8,735
    80000130:	00b41413          	slli	x8,x8,0xb
    80000134:	77640413          	addi	x8,x8,1910
    80000138:	00a41413          	slli	x8,x8,0xa
    8000013c:	37d40413          	addi	x8,x8,893
    80000140:	adfef4b7          	lui	x9,0xadfef
    80000144:	dbe48493          	addi	x9,x9,-578 # 0xffffffffadfeedbe
    80000148:	00b49493          	slli	x9,x9,0xb
    8000014c:	56f48493          	addi	x9,x9,1391
    80000150:	00b49493          	slli	x9,x9,0xb
    80000154:	7bb48493          	addi	x9,x9,1979
    80000158:	00a49493          	slli	x9,x9,0xa
    8000015c:	1be48493          	addi	x9,x9,446
    80000160:	56ff7537          	lui	x10,0x56ff7
    80000164:	6df50513          	addi	x10,x10,1759 # 0x56ff76df
    80000168:	00b51513          	slli	x10,x10,0xb
    8000016c:	2b750513          	addi	x10,x10,695
    80000170:	00b51513          	slli	x10,x10,0xb
    80000174:	7dd50513          	addi	x10,x10,2013
    80000178:	00a51513          	slli	x10,x10,0xa
    8000017c:	2df50513          	addi	x10,x10,735
    80000180:	ab7fc5b7          	lui	x11,0xab7fc
    80000184:	b6f58593          	addi	x11,x11,-1169 # 0xffffffffab7fbb6f
    80000188:	00b59593          	slli	x11,x11,0xb
    8000018c:	55b58593          	addi	x11,x11,1371
    80000190:	00b59593          	slli	x11,x11,0xb
    80000194:	7ee58593          	addi	x11,x11,2030
    80000198:	00a59593          	slli	x11,x11,0xa
    8000019c:	36f58593          	addi	x11,x11,879
    800001a0:	d5bfe637          	lui	x12,0xd5bfe
    800001a4:	db760613          	addi	x12,x12,-585 # 0xffffffffd5bfddb7
    800001a8:	00b61613          	slli	x12,x12,0xb
    800001ac:	6ad60613          	addi	x12,x12,1709
    800001b0:	00b61613          	slli	x12,x12,0xb
    800001b4:	7f760613          	addi	x12,x12,2039
    800001b8:	00a61613          	slli	x12,x12,0xa
    800001bc:	1b760613          	addi	x12,x12,439
    800001c0:	eadff6b7          	lui	x13,0xeadff
    800001c4:	edb68693          	addi	x13,x13,-293 # 0xffffffffeadfeedb
    800001c8:	00b69693          	slli	x13,x13,0xb
    800001cc:	75668693          	addi	x13,x13,1878
    800001d0:	00b69693          	slli	x13,x13,0xb
    800001d4:	7fb68693          	addi	x13,x13,2043
    800001d8:	00a69693          	slli	x13,x13,0xa
    800001dc:	2db68693          	addi	x13,x13,731
    800001e0:	f56ff737          	lui	x14,0xf56ff
    800001e4:	76d70713          	addi	x14,x14,1901 # 0xfffffffff56ff76d
    800001e8:	00b71713          	slli	x14,x14,0xb
    800001ec:	7ab70713          	addi	x14,x14,1963
    800001f0:	00b71713          	slli	x14,x14,0xb
    800001f4:	3fd70713          	addi	x14,x14,1021
    800001f8:	00a71713          	slli	x14,x14,0xa
    800001fc:	36d70713          	addi	x14,x14,877
    80000200:	fab807b7          	lui	x15,0xfab80
    80000204:	bb678793          	addi	x15,x15,-1098 # 0xfffffffffab7fbb6
    80000208:	00b79793          	slli	x15,x15,0xb
    8000020c:	7d578793          	addi	x15,x15,2005
    80000210:	00b79793          	slli	x15,x15,0xb
    80000214:	5fe78793          	addi	x15,x15,1534
    80000218:	00a79793          	slli	x15,x15,0xa
    8000021c:	3b678793          	addi	x15,x15,950
    80000220:	7d5c0837          	lui	x16,0x7d5c0
    80000224:	ddb80813          	addi	x16,x16,-549 # 0x7d5bfddb
    80000228:	00b81813          	slli	x16,x16,0xb
    8000022c:	3ea80813          	addi	x16,x16,1002
    80000230:	00b81813          	slli	x16,x16,0xb
    80000234:	6ff80813          	addi	x16,x16,1791
    80000238:	00a81813          	slli	x16,x16,0xa
    8000023c:	1db80813          	addi	x16,x16,475
    80000240:	beae08b7          	lui	x17,0xbeae0
    80000244:	eed88893          	addi	x17,x17,-275 # 0xffffffffbeadfeed
    80000248:	00b89893          	slli	x17,x17,0xb
    8000024c:	5f588893          	addi	x17,x17,1525
    80000250:	00b89893          	slli	x17,x17,0xb
    80000254:	37f88893          	addi	x17,x17,895
    80000258:	00a89893          	slli	x17,x17,0xa
    8000025c:	2ed88893          	addi	x17,x17,749
    80000260:	df570937          	lui	x18,0xdf570
    80000264:	f7690913          	addi	x18,x18,-138 # 0xffffffffdf56ff76
    80000268:	00b91913          	slli	x18,x18,0xb
    8000026c:	6fa90913          	addi	x18,x18,1786
    80000270:	00b91913          	slli	x18,x18,0xb
    80000274:	5bf90913          	addi	x18,x18,1471
    80000278:	00a91913          	slli	x18,x18,0xa
    8000027c:	37690913          	addi	x18,x18,886
    80000280:	6fab89b7          	lui	x19,0x6fab8
    80000284:	fbb98993          	addi	x19,x19,-69 # 0x6fab7fbb
    80000288:	00b99993          	slli	x19,x19,0xb
    8000028c:	37d98993          	addi	x19,x19,893
    80000290:	00b99993          	slli	x19,x19,0xb
    80000294:	2df98993          	addi	x19,x19,735
    80000298:	00a99993          	slli	x19,x19,0xa
    8000029c:	3bb98993          	addi	x19,x19,955
    800002a0:	b7d5ca37          	lui	x20,0xb7d5c
    800002a4:	fdda0a13          	addi	x20,x20,-35 # 0xffffffffb7d5bfdd
    800002a8:	00ba1a13          	slli	x20,x20,0xb
    800002ac:	5bea0a13          	addi	x20,x20,1470
    800002b0:	00ba1a13          	slli	x20,x20,0xb
    800002b4:	56fa0a13          	addi	x20,x20,1391
    800002b8:	00aa1a13          	slli	x20,x20,0xa
    800002bc:	3dda0a13          	addi	x20,x20,989
    800002c0:	dbeaeab7          	lui	x21,0xdbeae
    800002c4:	feea8a93          	addi	x21,x21,-18 # 0xffffffffdbeadfee
    800002c8:	00ba9a93          	slli	x21,x21,0xb
    800002cc:	6dfa8a93          	addi	x21,x21,1759
    800002d0:	00ba9a93          	slli	x21,x21,0xb
    800002d4:	2b7a8a93          	addi	x21,x21,695
    800002d8:	00aa9a93          	slli	x21,x21,0xa
    800002dc:	3eea8a93          	addi	x21,x21,1006
    800002e0:	6df57b37          	lui	x22,0x6df57
    800002e4:	ff7b0b13          	addi	x22,x22,-9 # 0x6df56ff7
    800002e8:	00bb1b13          	slli	x22,x22,0xb
    800002ec:	36fb0b13          	addi	x22,x22,879
    800002f0:	00bb1b13          	slli	x22,x22,0xb
    800002f4:	55bb0b13          	addi	x22,x22,1371
    800002f8:	00ab1b13          	slli	x22,x22,0xa
    800002fc:	3f7b0b13          	addi	x22,x22,1015
    80000300:	b6fabbb7          	lui	x23,0xb6fab
    80000304:	7fbb8b93          	addi	x23,x23,2043 # 0xffffffffb6fab7fb
    80000308:	00bb9b93          	slli	x23,x23,0xb
    8000030c:	5b7b8b93          	addi	x23,x23,1463
    80000310:	00bb9b93          	slli	x23,x23,0xb
    80000314:	6adb8b93          	addi	x23,x23,1709
    80000318:	00ab9b93          	slli	x23,x23,0xa
    8000031c:	3fbb8b93          	addi	x23,x23,1019
    80000320:	db7d6c37          	lui	x24,0xdb7d6
    80000324:	bfdc0c13          	addi	x24,x24,-1027 # 0xffffffffdb7d5bfd
    80000328:	00bc1c13          	slli	x24,x24,0xb
    8000032c:	6dbc0c13          	addi	x24,x24,1755
    80000330:	00bc1c13          	slli	x24,x24,0xb
    80000334:	756c0c13          	addi	x24,x24,1878
    80000338:	00ac1c13          	slli	x24,x24,0xa
    8000033c:	3fdc0c13          	addi	x24,x24,1021
    80000340:	edbebcb7          	lui	x25,0xedbeb
    80000344:	dfec8c93          	addi	x25,x25,-514 # 0xffffffffedbeadfe
    80000348:	00bc9c93          	slli	x25,x25,0xb
    8000034c:	76dc8c93          	addi	x25,x25,1901
    80000350:	00bc9c93          	slli	x25,x25,0xb
    80000354:	7abc8c93          	addi	x25,x25,1963
    80000358:	00ac9c93          	slli	x25,x25,0xa
    8000035c:	1fec8c93          	addi	x25,x25,510
    80000360:	76df5d37          	lui	x26,0x76df5
    80000364:	6ffd0d13          	addi	x26,x26,1791 # 0x76df56ff
    80000368:	00bd1d13          	slli	x26,x26,0xb
    8000036c:	3b6d0d13          	addi	x26,x26,950
    80000370:	00bd1d13          	slli	x26,x26,0xb
    80000374:	7d5d0d13          	addi	x26,x26,2005
    80000378:	00ad1d13          	slli	x26,x26,0xa
    8000037c:	2ffd0d13          	addi	x26,x26,767
    80000380:	bb6fbdb7          	lui	x27,0xbb6fb
    80000384:	b7fd8d93          	addi	x27,x27,-1153 # 0xffffffffbb6fab7f
    80000388:	00bd9d93          	slli	x27,x27,0xb
    8000038c:	5dbd8d93          	addi	x27,x27,1499
    80000390:	00bd9d93          	slli	x27,x27,0xb
    80000394:	3ead8d93          	addi	x27,x27,1002
    80000398:	00ad9d93          	slli	x27,x27,0xa
    8000039c:	37fd8d93          	addi	x27,x27,895
    800003a0:	ddb7de37          	lui	x28,0xddb7d
    800003a4:	5bfe0e13          	addi	x28,x28,1471 # 0xffffffffddb7d5bf
    800003a8:	00be1e13          	slli	x28,x28,0xb
    800003ac:	6ede0e13          	addi	x28,x28,1773
    800003b0:	00be1e13          	slli	x28,x28,0xb
    800003b4:	5f5e0e13          	addi	x28,x28,1525
    800003b8:	00ae1e13          	slli	x28,x28,0xa
    800003bc:	1bfe0e13          	addi	x28,x28,447
    800003c0:	eedbfeb7          	lui	x29,0xeedbf
    800003c4:	adfe8e93          	addi	x29,x29,-1313 # 0xffffffffeedbeadf
    800003c8:	00be9e93          	slli	x29,x29,0xb
    800003cc:	776e8e93          	addi	x29,x29,1910
    800003d0:	00be9e93          	slli	x29,x29,0xb
    800003d4:	6fae8e93          	addi	x29,x29,1786
    800003d8:	00ae9e93          	slli	x29,x29,0xa
    800003dc:	2dfe8e93          	addi	x29,x29,735
    800003e0:	f76dff37          	lui	x30,0xf76df
    800003e4:	56ff0f13          	addi	x30,x30,1391 # 0xfffffffff76df56f
    800003e8:	00bf1f13          	slli	x30,x30,0xb
    800003ec:	7bbf0f13          	addi	x30,x30,1979
    800003f0:	00bf1f13          	slli	x30,x30,0xb
    800003f4:	37df0f13          	addi	x30,x30,893
    800003f8:	00af1f13          	slli	x30,x30,0xa
    800003fc:	16ff0f13          	addi	x30,x30,367
    80000400:	fbb70fb7          	lui	x31,0xfbb70
    80000404:	ab7f8f93          	addi	x31,x31,-1353 # 0xfffffffffbb6fab7
    80000408:	00bf9f93          	slli	x31,x31,0xb
    8000040c:	7ddf8f93          	addi	x31,x31,2013
    80000410:	00bf9f93          	slli	x31,x31,0xb
    80000414:	5bef8f93          	addi	x31,x31,1470
    80000418:	00af9f93          	slli	x31,x31,0xa
    8000041c:	2b7f8f93          	addi	x31,x31,695
    80000420:	00003397          	auipc	x7,0x3
    80000424:	be838393          	addi	x7,x7,-1048 # 0x80003008
    80000428:	00000013          	addi	x0,x0,0
    8000042c:	00000013          	addi	x0,x0,0
    80000430:	00000013          	addi	x0,x0,0
    80000434:	00000013          	addi	x0,x0,0
    80000438:	00000013          	addi	x0,x0,0
    8000043c:	00000013          	addi	x0,x0,0
    80000440:	00100693          	addi	x13,x0,1
    80000444:	03a69693          	slli	x13,x13,0x3a
    80000448:	fff6c693          	xori	x13,x13,-1
    8000044c:	4066d693          	srai	x13,x13,0x6
    80000450:	00d3b023          	sd	x13,0(x7)
    80000454:	fff0049b          	addiw	x9,x0,-1
    80000458:	03449493          	slli	x9,x9,0x34
    8000045c:	fff48493          	addi	x9,x9,-1
    80000460:	00d48463          	beq	x9,x13,0x80000468
    80000464:	bc1ff06f          	jal	x0,0x80000024
    80000468:	00400313          	addi	x6,x0,4
    8000046c:	40c35113          	srai	x2,x6,0xc
    80000470:	0023b423          	sd	x2,8(x7)
    80000474:	00000493          	addi	x9,x0,0
    80000478:	00248463          	beq	x9,x2,0x80000480
    8000047c:	ba9ff06f          	jal	x0,0x80000024
    80000480:	ff600793          	addi	x15,x0,-10
    80000484:	4007de13          	srai	x28,x15,0x0
    80000488:	01c3b823          	sd	x28,16(x7)
    8000048c:	ff600493          	addi	x9,x0,-10
    80000490:	01c48463          	beq	x9,x28,0x80000498
    80000494:	b91ff06f          	jal	x0,0x80000024
    80000498:	00900913          	addi	x18,x0,9
    8000049c:	40095f13          	srai	x30,x18,0x0
    800004a0:	01e3bc23          	sd	x30,24(x7)
    800004a4:	00900493          	addi	x9,x0,9
    800004a8:	01e48463          	beq	x9,x30,0x800004b0
    800004ac:	b79ff06f          	jal	x0,0x80000024
    800004b0:	00100f13          	addi	x30,x0,1
    800004b4:	019f1f13          	slli	x30,x30,0x19
    800004b8:	ffff4f13          	xori	x30,x30,-1
    800004bc:	43ff5e93          	srai	x29,x30,0x3f
    800004c0:	03d3b023          	sd	x29,32(x7)
    800004c4:	fff00493          	addi	x9,x0,-1
    800004c8:	01d48463          	beq	x9,x29,0x800004d0
    800004cc:	b59ff06f          	jal	x0,0x80000024
    800004d0:	00100d93          	addi	x27,x0,1
    800004d4:	010d9d93          	slli	x27,x27,0x10
    800004d8:	43fdd793          	srai	x15,x27,0x3f
    800004dc:	02f3b423          	sd	x15,40(x7)
    800004e0:	00000493          	addi	x9,x0,0
    800004e4:	00f48463          	beq	x9,x15,0x800004ec
    800004e8:	b3dff06f          	jal	x0,0x80000024
    800004ec:	00100b93          	addi	x23,x0,1
    800004f0:	401bd713          	srai	x14,x23,0x1
    800004f4:	02e3b823          	sd	x14,48(x7)
    800004f8:	00000493          	addi	x9,x0,0
    800004fc:	00e48463          	beq	x9,x14,0x80000504
    80000500:	b25ff06f          	jal	x0,0x80000024
    80000504:	fff00e93          	addi	x29,x0,-1
    80000508:	03fe9e93          	slli	x29,x29,0x3f
    8000050c:	420edd93          	srai	x27,x29,0x20
    80000510:	03b3bc23          	sd	x27,56(x7)
    80000514:	800004b7          	lui	x9,0x80000
    80000518:	01b48463          	beq	x9,x27,0x80000520
    8000051c:	b09ff06f          	jal	x0,0x80000024
    80000520:	00000f93          	addi	x31,x0,0
    80000524:	407fdb13          	srai	x22,x31,0x7
    80000528:	0563b023          	sd	x22,64(x7)
    8000052c:	00000493          	addi	x9,x0,0
    80000530:	01648463          	beq	x9,x22,0x80000538
    80000534:	af1ff06f          	jal	x0,0x80000024
    80000538:	fff00213          	addi	x4,x0,-1
    8000053c:	00125213          	srli	x4,x4,0x1
    80000540:	40c25813          	srai	x16,x4,0xc
    80000544:	0503b423          	sd	x16,72(x7)
    80000548:	0010049b          	addiw	x9,x0,1
    8000054c:	03349493          	slli	x9,x9,0x33
    80000550:	fff48493          	addi	x9,x9,-1 # 0xffffffff7fffffff
    80000554:	01048463          	beq	x9,x16,0x8000055c
    80000558:	acdff06f          	jal	x0,0x80000024
    8000055c:	00200c13          	addi	x24,x0,2
    80000560:	411c5a93          	srai	x21,x24,0x11
    80000564:	0553b823          	sd	x21,80(x7)
    80000568:	00000493          	addi	x9,x0,0
    8000056c:	01548463          	beq	x9,x21,0x80000574
    80000570:	ab5ff06f          	jal	x0,0x80000024
    80000574:	00800a13          	addi	x20,x0,8
    80000578:	42aa5013          	srai	x0,x20,0x2a
    8000057c:	0403bc23          	sd	x0,88(x7)
    80000580:	00000493          	addi	x9,x0,0
    80000584:	00048463          	beq	x9,x0,0x8000058c
    80000588:	a9dff06f          	jal	x0,0x80000024
    8000058c:	01000e13          	addi	x28,x0,16
    80000590:	41fe5993          	srai	x19,x28,0x1f
    80000594:	0733b023          	sd	x19,96(x7)
    80000598:	00000493          	addi	x9,x0,0
    8000059c:	01348463          	beq	x9,x19,0x800005a4
    800005a0:	a85ff06f          	jal	x0,0x80000024
    800005a4:	02000413          	addi	x8,x0,32
    800005a8:	40345913          	srai	x18,x8,0x3
    800005ac:	0723b423          	sd	x18,104(x7)
    800005b0:	00400493          	addi	x9,x0,4
    800005b4:	01248463          	beq	x9,x18,0x800005bc
    800005b8:	a6dff06f          	jal	x0,0x80000024
    800005bc:	04000193          	addi	x3,x0,64
    800005c0:	40b1dd13          	srai	x26,x3,0xb
    800005c4:	07a3b823          	sd	x26,112(x7)
    800005c8:	00000493          	addi	x9,x0,0
    800005cc:	01a48463          	beq	x9,x26,0x800005d4
    800005d0:	a55ff06f          	jal	x0,0x80000024
    800005d4:	08000093          	addi	x1,x0,128
    800005d8:	4120db93          	srai	x23,x1,0x12
    800005dc:	0773bc23          	sd	x23,120(x7)
    800005e0:	00000493          	addi	x9,x0,0
    800005e4:	01748463          	beq	x9,x23,0x800005ec
    800005e8:	a3dff06f          	jal	x0,0x80000024
    800005ec:	00000013          	addi	x0,x0,0
    800005f0:	41205a13          	srai	x20,x0,0x12
    800005f4:	0943b023          	sd	x20,128(x7)
    800005f8:	00000493          	addi	x9,x0,0
    800005fc:	01448463          	beq	x9,x20,0x80000604
    80000600:	a25ff06f          	jal	x0,0x80000024
    80000604:	20000513          	addi	x10,x0,512
    80000608:	41555413          	srai	x8,x10,0x15
    8000060c:	0883b423          	sd	x8,136(x7)
    80000610:	00000493          	addi	x9,x0,0
    80000614:	00848463          	beq	x9,x8,0x8000061c
    80000618:	a0dff06f          	jal	x0,0x80000024
    8000061c:	40000293          	addi	x5,x0,1024
    80000620:	4002d313          	srai	x6,x5,0x0
    80000624:	0863b823          	sd	x6,144(x7)
    80000628:	40000493          	addi	x9,x0,1024
    8000062c:	00648463          	beq	x9,x6,0x80000634
    80000630:	9f5ff06f          	jal	x0,0x80000024
    80000634:	00100613          	addi	x12,x0,1
    80000638:	00b61613          	slli	x12,x12,0xb
    8000063c:	40265513          	srai	x10,x12,0x2
    80000640:	08a3bc23          	sd	x10,152(x7)
    80000644:	20000493          	addi	x9,x0,512
    80000648:	00a48463          	beq	x9,x10,0x80000650
    8000064c:	9d9ff06f          	jal	x0,0x80000024
    80000650:	00100a93          	addi	x21,x0,1
    80000654:	00ca9a93          	slli	x21,x21,0xc
    80000658:	404ad093          	srai	x1,x21,0x4
    8000065c:	0a13b023          	sd	x1,160(x7)
    80000660:	10000493          	addi	x9,x0,256
    80000664:	00148463          	beq	x9,x1,0x8000066c
    80000668:	9bdff06f          	jal	x0,0x80000024
    8000066c:	00100593          	addi	x11,x0,1
    80000670:	00d59593          	slli	x11,x11,0xd
    80000674:	4115d293          	srai	x5,x11,0x11
    80000678:	0a53b423          	sd	x5,168(x7)
    8000067c:	00000493          	addi	x9,x0,0
    80000680:	00548463          	beq	x9,x5,0x80000688
    80000684:	9a1ff06f          	jal	x0,0x80000024
    80000688:	00100113          	addi	x2,x0,1
    8000068c:	00e11113          	slli	x2,x2,0xe
    80000690:	40f15893          	srai	x17,x2,0xf
    80000694:	0b13b823          	sd	x17,176(x7)
    80000698:	00000293          	addi	x5,x0,0
    8000069c:	01128463          	beq	x5,x17,0x800006a4
    800006a0:	985ff06f          	jal	x0,0x80000024
    800006a4:	00000013          	addi	x0,x0,0
    800006a8:	00000013          	addi	x0,x0,0
    800006ac:	00000013          	addi	x0,x0,0
    800006b0:	00000013          	addi	x0,x0,0
    800006b4:	00000013          	addi	x0,x0,0
    800006b8:	00000013          	addi	x0,x0,0
    800006bc:	00000013          	addi	x0,x0,0
    800006c0:	00003097          	auipc	x1,0x3
    800006c4:	a0008093          	addi	x1,x1,-1536 # 0x800030c0
    800006c8:	00000013          	addi	x0,x0,0
    800006cc:	00000013          	addi	x0,x0,0
    800006d0:	00000013          	addi	x0,x0,0
    800006d4:	00000013          	addi	x0,x0,0
    800006d8:	00000013          	addi	x0,x0,0
    800006dc:	00000013          	addi	x0,x0,0
    800006e0:	00100c93          	addi	x25,x0,1
    800006e4:	00fc9c93          	slli	x25,x25,0xf
    800006e8:	40bcd213          	srai	x4,x25,0xb
    800006ec:	0040b023          	sd	x4,0(x1)
    800006f0:	01000293          	addi	x5,x0,16
    800006f4:	00428463          	beq	x5,x4,0x800006fc
    800006f8:	92dff06f          	jal	x0,0x80000024
    800006fc:	00100993          	addi	x19,x0,1
    80000700:	01199993          	slli	x19,x19,0x11
    80000704:	4079d493          	srai	x9,x19,0x7
    80000708:	0090b423          	sd	x9,8(x1)
    8000070c:	40000293          	addi	x5,x0,1024
    80000710:	00928463          	beq	x5,x9,0x80000718
    80000714:	911ff06f          	jal	x0,0x80000024
    80000718:	00100393          	addi	x7,x0,1
    8000071c:	01239393          	slli	x7,x7,0x12
    80000720:	4063d613          	srai	x12,x7,0x6
    80000724:	00c0b823          	sd	x12,16(x1)
    80000728:	000012b7          	lui	x5,0x1
    8000072c:	00c28463          	beq	x5,x12,0x80000734
    80000730:	8f5ff06f          	jal	x0,0x80000024
    80000734:	00100813          	addi	x16,x0,1
    80000738:	01381813          	slli	x16,x16,0x13
    8000073c:	41385593          	srai	x11,x16,0x13
    80000740:	00b0bc23          	sd	x11,24(x1)
    80000744:	00100293          	addi	x5,x0,1
    80000748:	00b28463          	beq	x5,x11,0x80000750
    8000074c:	8d9ff06f          	jal	x0,0x80000024
    80000750:	00100713          	addi	x14,x0,1
    80000754:	01471713          	slli	x14,x14,0x14
    80000758:	41275193          	srai	x3,x14,0x12
    8000075c:	0230b023          	sd	x3,32(x1)
    80000760:	00400293          	addi	x5,x0,4
    80000764:	00328463          	beq	x5,x3,0x8000076c
    80000768:	8bdff06f          	jal	x0,0x80000024
    8000076c:	00100493          	addi	x9,x0,1
    80000770:	01549493          	slli	x9,x9,0x15
    80000774:	40a4df93          	srai	x31,x9,0xa
    80000778:	03f0b423          	sd	x31,40(x1)
    8000077c:	000012b7          	lui	x5,0x1
    80000780:	8002829b          	addiw	x5,x5,-2048 # 0x800
    80000784:	01f28463          	beq	x5,x31,0x8000078c
    80000788:	89dff06f          	jal	x0,0x80000024
    8000078c:	00100d13          	addi	x26,x0,1
    80000790:	016d1d13          	slli	x26,x26,0x16
    80000794:	40ad5393          	srai	x7,x26,0xa
    80000798:	0270b823          	sd	x7,48(x1)
    8000079c:	000012b7          	lui	x5,0x1
    800007a0:	00728463          	beq	x5,x7,0x800007a8
    800007a4:	881ff06f          	jal	x0,0x80000024
    800007a8:	00100b13          	addi	x22,x0,1
    800007ac:	017b1b13          	slli	x22,x22,0x17
    800007b0:	40db5c93          	srai	x25,x22,0xd
    800007b4:	0390bc23          	sd	x25,56(x1)
    800007b8:	40000293          	addi	x5,x0,1024
    800007bc:	01928463          	beq	x5,x25,0x800007c4
    800007c0:	865ff06f          	jal	x0,0x80000024
    800007c4:	00100893          	addi	x17,x0,1
    800007c8:	01889893          	slli	x17,x17,0x18
    800007cc:	4058dc13          	srai	x24,x17,0x5
    800007d0:	0580b023          	sd	x24,64(x1)
    800007d4:	000802b7          	lui	x5,0x80
    800007d8:	01828463          	beq	x5,x24,0x800007e0
    800007dc:	849ff06f          	jal	x0,0x80000024
    800007e0:	00100513          	addi	x10,x0,1
    800007e4:	01951513          	slli	x10,x10,0x19
    800007e8:	40955593          	srai	x11,x10,0x9
    800007ec:	04b0b423          	sd	x11,72(x1)
    800007f0:	000102b7          	lui	x5,0x10
    800007f4:	00b28463          	beq	x5,x11,0x800007fc
    800007f8:	82dff06f          	jal	x0,0x80000024
    800007fc:	00100513          	addi	x10,x0,1
    80000800:	01a51513          	slli	x10,x10,0x1a
    80000804:	41055593          	srai	x11,x10,0x10
    80000808:	04b0b823          	sd	x11,80(x1)
    8000080c:	40000293          	addi	x5,x0,1024
    80000810:	00b28463          	beq	x5,x11,0x80000818
    80000814:	811ff06f          	jal	x0,0x80000024
    80000818:	00100513          	addi	x10,x0,1
    8000081c:	01b51513          	slli	x10,x10,0x1b
    80000820:	40d55593          	srai	x11,x10,0xd
    80000824:	04b0bc23          	sd	x11,88(x1)
    80000828:	000042b7          	lui	x5,0x4
    8000082c:	00b28463          	beq	x5,x11,0x80000834
    80000830:	ff4ff06f          	jal	x0,0x80000024
    80000834:	00100513          	addi	x10,x0,1
    80000838:	01c51513          	slli	x10,x10,0x1c
    8000083c:	43b55593          	srai	x11,x10,0x3b
    80000840:	06b0b023          	sd	x11,96(x1)
    80000844:	00000293          	addi	x5,x0,0
    80000848:	00b28463          	beq	x5,x11,0x80000850
    8000084c:	fd8ff06f          	jal	x0,0x80000024
    80000850:	00100513          	addi	x10,x0,1
    80000854:	01d51513          	slli	x10,x10,0x1d
    80000858:	40955593          	srai	x11,x10,0x9
    8000085c:	06b0b423          	sd	x11,104(x1)
    80000860:	001002b7          	lui	x5,0x100
    80000864:	00b28463          	beq	x5,x11,0x8000086c
    80000868:	fbcff06f          	jal	x0,0x80000024
    8000086c:	00100513          	addi	x10,x0,1
    80000870:	01e51513          	slli	x10,x10,0x1e
    80000874:	40e55593          	srai	x11,x10,0xe
    80000878:	06b0b823          	sd	x11,112(x1)
    8000087c:	000102b7          	lui	x5,0x10
    80000880:	00b28463          	beq	x5,x11,0x80000888
    80000884:	fa0ff06f          	jal	x0,0x80000024
    80000888:	00100513          	addi	x10,x0,1
    8000088c:	01f51513          	slli	x10,x10,0x1f
    80000890:	42055593          	srai	x11,x10,0x20
    80000894:	06b0bc23          	sd	x11,120(x1)
    80000898:	00000293          	addi	x5,x0,0
    8000089c:	00b28463          	beq	x5,x11,0x800008a4
    800008a0:	f84ff06f          	jal	x0,0x80000024
    800008a4:	00100513          	addi	x10,x0,1
    800008a8:	02051513          	slli	x10,x10,0x20
    800008ac:	41f55593          	srai	x11,x10,0x1f
    800008b0:	08b0b023          	sd	x11,128(x1)
    800008b4:	00200293          	addi	x5,x0,2
    800008b8:	00b28463          	beq	x5,x11,0x800008c0
    800008bc:	f68ff06f          	jal	x0,0x80000024
    800008c0:	00100513          	addi	x10,x0,1
    800008c4:	02151513          	slli	x10,x10,0x21
    800008c8:	40a55593          	srai	x11,x10,0xa
    800008cc:	08b0b423          	sd	x11,136(x1)
    800008d0:	008002b7          	lui	x5,0x800
    800008d4:	00b28463          	beq	x5,x11,0x800008dc
    800008d8:	f4cff06f          	jal	x0,0x80000024
    800008dc:	00100513          	addi	x10,x0,1
    800008e0:	02251513          	slli	x10,x10,0x22
    800008e4:	40955593          	srai	x11,x10,0x9
    800008e8:	08b0b823          	sd	x11,144(x1)
    800008ec:	020002b7          	lui	x5,0x2000
    800008f0:	00b28463          	beq	x5,x11,0x800008f8
    800008f4:	f30ff06f          	jal	x0,0x80000024
    800008f8:	00100513          	addi	x10,x0,1
    800008fc:	02351513          	slli	x10,x10,0x23
    80000900:	40f55593          	srai	x11,x10,0xf
    80000904:	08b0bc23          	sd	x11,152(x1)
    80000908:	001002b7          	lui	x5,0x100
    8000090c:	00b28463          	beq	x5,x11,0x80000914
    80000910:	f14ff06f          	jal	x0,0x80000024
    80000914:	00100513          	addi	x10,x0,1
    80000918:	02451513          	slli	x10,x10,0x24
    8000091c:	43e55593          	srai	x11,x10,0x3e
    80000920:	0ab0b023          	sd	x11,160(x1)
    80000924:	00000293          	addi	x5,x0,0
    80000928:	00b28463          	beq	x5,x11,0x80000930
    8000092c:	ef8ff06f          	jal	x0,0x80000024
    80000930:	00100513          	addi	x10,x0,1
    80000934:	02551513          	slli	x10,x10,0x25
    80000938:	40255593          	srai	x11,x10,0x2
    8000093c:	0ab0b423          	sd	x11,168(x1)
    80000940:	0010029b          	addiw	x5,x0,1
    80000944:	02329293          	slli	x5,x5,0x23
    80000948:	00b28463          	beq	x5,x11,0x80000950
    8000094c:	ed8ff06f          	jal	x0,0x80000024
    80000950:	00100513          	addi	x10,x0,1
    80000954:	02651513          	slli	x10,x10,0x26
    80000958:	41f55593          	srai	x11,x10,0x1f
    8000095c:	0ab0b823          	sd	x11,176(x1)
    80000960:	08000293          	addi	x5,x0,128
    80000964:	00b28463          	beq	x5,x11,0x8000096c
    80000968:	ebcff06f          	jal	x0,0x80000024
    8000096c:	00100513          	addi	x10,x0,1
    80000970:	02751513          	slli	x10,x10,0x27
    80000974:	40355593          	srai	x11,x10,0x3
    80000978:	0ab0bc23          	sd	x11,184(x1)
    8000097c:	0010029b          	addiw	x5,x0,1
    80000980:	02429293          	slli	x5,x5,0x24
    80000984:	00b28463          	beq	x5,x11,0x8000098c
    80000988:	e9cff06f          	jal	x0,0x80000024
    8000098c:	00100513          	addi	x10,x0,1
    80000990:	02851513          	slli	x10,x10,0x28
    80000994:	40455593          	srai	x11,x10,0x4
    80000998:	0cb0b023          	sd	x11,192(x1)
    8000099c:	0010029b          	addiw	x5,x0,1
    800009a0:	02429293          	slli	x5,x5,0x24
    800009a4:	00b28463          	beq	x5,x11,0x800009ac
    800009a8:	e7cff06f          	jal	x0,0x80000024
    800009ac:	00100513          	addi	x10,x0,1
    800009b0:	02951513          	slli	x10,x10,0x29
    800009b4:	40e55593          	srai	x11,x10,0xe
    800009b8:	0cb0b423          	sd	x11,200(x1)
    800009bc:	080002b7          	lui	x5,0x8000
    800009c0:	00b28463          	beq	x5,x11,0x800009c8
    800009c4:	e60ff06f          	jal	x0,0x80000024
    800009c8:	00100513          	addi	x10,x0,1
    800009cc:	02a51513          	slli	x10,x10,0x2a
    800009d0:	40455593          	srai	x11,x10,0x4
    800009d4:	0cb0b823          	sd	x11,208(x1)
    800009d8:	0010029b          	addiw	x5,x0,1
    800009dc:	02629293          	slli	x5,x5,0x26
    800009e0:	00b28463          	beq	x5,x11,0x800009e8
    800009e4:	e40ff06f          	jal	x0,0x80000024
    800009e8:	00100513          	addi	x10,x0,1
    800009ec:	02b51513          	slli	x10,x10,0x2b
    800009f0:	40555593          	srai	x11,x10,0x5
    800009f4:	0cb0bc23          	sd	x11,216(x1)
    800009f8:	0010029b          	addiw	x5,x0,1
    800009fc:	02629293          	slli	x5,x5,0x26
    80000a00:	00b28463          	beq	x5,x11,0x80000a08
    80000a04:	e20ff06f          	jal	x0,0x80000024
    80000a08:	00100513          	addi	x10,x0,1
    80000a0c:	02c51513          	slli	x10,x10,0x2c
    80000a10:	40f55593          	srai	x11,x10,0xf
    80000a14:	0eb0b023          	sd	x11,224(x1)
    80000a18:	200002b7          	lui	x5,0x20000
    80000a1c:	00b28463          	beq	x5,x11,0x80000a24
    80000a20:	e04ff06f          	jal	x0,0x80000024
    80000a24:	00100513          	addi	x10,x0,1
    80000a28:	02d51513          	slli	x10,x10,0x2d
    80000a2c:	40455593          	srai	x11,x10,0x4
    80000a30:	0eb0b423          	sd	x11,232(x1)
    80000a34:	0010029b          	addiw	x5,x0,1
    80000a38:	02929293          	slli	x5,x5,0x29
    80000a3c:	00b28463          	beq	x5,x11,0x80000a44
    80000a40:	de4ff06f          	jal	x0,0x80000024
    80000a44:	00100513          	addi	x10,x0,1
    80000a48:	02e51513          	slli	x10,x10,0x2e
    80000a4c:	40a55593          	srai	x11,x10,0xa
    80000a50:	0eb0b823          	sd	x11,240(x1)
    80000a54:	0010029b          	addiw	x5,x0,1
    80000a58:	02429293          	slli	x5,x5,0x24
    80000a5c:	00b28463          	beq	x5,x11,0x80000a64
    80000a60:	dc4ff06f          	jal	x0,0x80000024
    80000a64:	00100513          	addi	x10,x0,1
    80000a68:	02f51513          	slli	x10,x10,0x2f
    80000a6c:	42a55593          	srai	x11,x10,0x2a
    80000a70:	0eb0bc23          	sd	x11,248(x1)
    80000a74:	02000293          	addi	x5,x0,32
    80000a78:	00b28463          	beq	x5,x11,0x80000a80
    80000a7c:	da8ff06f          	jal	x0,0x80000024
    80000a80:	00100513          	addi	x10,x0,1
    80000a84:	03051513          	slli	x10,x10,0x30
    80000a88:	40a55593          	srai	x11,x10,0xa
    80000a8c:	10b0b023          	sd	x11,256(x1)
    80000a90:	0010029b          	addiw	x5,x0,1
    80000a94:	02629293          	slli	x5,x5,0x26
    80000a98:	00b28463          	beq	x5,x11,0x80000aa0
    80000a9c:	d88ff06f          	jal	x0,0x80000024
    80000aa0:	00100513          	addi	x10,x0,1
    80000aa4:	03151513          	slli	x10,x10,0x31
    80000aa8:	43f55593          	srai	x11,x10,0x3f
    80000aac:	10b0b423          	sd	x11,264(x1)
    80000ab0:	00000293          	addi	x5,x0,0
    80000ab4:	00b28463          	beq	x5,x11,0x80000abc
    80000ab8:	d6cff06f          	jal	x0,0x80000024
    80000abc:	00100513          	addi	x10,x0,1
    80000ac0:	03251513          	slli	x10,x10,0x32
    80000ac4:	40355593          	srai	x11,x10,0x3
    80000ac8:	10b0b823          	sd	x11,272(x1)
    80000acc:	0010029b          	addiw	x5,x0,1
    80000ad0:	02f29293          	slli	x5,x5,0x2f
    80000ad4:	00b28463          	beq	x5,x11,0x80000adc
    80000ad8:	d4cff06f          	jal	x0,0x80000024
    80000adc:	00100513          	addi	x10,x0,1
    80000ae0:	03351513          	slli	x10,x10,0x33
    80000ae4:	40455593          	srai	x11,x10,0x4
    80000ae8:	10b0bc23          	sd	x11,280(x1)
    80000aec:	0010029b          	addiw	x5,x0,1
    80000af0:	02f29293          	slli	x5,x5,0x2f
    80000af4:	00b28463          	beq	x5,x11,0x80000afc
    80000af8:	d2cff06f          	jal	x0,0x80000024
    80000afc:	00100513          	addi	x10,x0,1
    80000b00:	03451513          	slli	x10,x10,0x34
    80000b04:	40f55593          	srai	x11,x10,0xf
    80000b08:	12b0b023          	sd	x11,288(x1)
    80000b0c:	0010029b          	addiw	x5,x0,1
    80000b10:	02529293          	slli	x5,x5,0x25
    80000b14:	00b28463          	beq	x5,x11,0x80000b1c
    80000b18:	d0cff06f          	jal	x0,0x80000024
    80000b1c:	00100513          	addi	x10,x0,1
    80000b20:	03551513          	slli	x10,x10,0x35
    80000b24:	43d55593          	srai	x11,x10,0x3d
    80000b28:	12b0b423          	sd	x11,296(x1)
    80000b2c:	00000293          	addi	x5,x0,0
    80000b30:	00b28463          	beq	x5,x11,0x80000b38
    80000b34:	cf0ff06f          	jal	x0,0x80000024
    80000b38:	00100513          	addi	x10,x0,1
    80000b3c:	03651513          	slli	x10,x10,0x36
    80000b40:	40e55593          	srai	x11,x10,0xe
    80000b44:	12b0b823          	sd	x11,304(x1)
    80000b48:	0010029b          	addiw	x5,x0,1
    80000b4c:	02829293          	slli	x5,x5,0x28
    80000b50:	00b28463          	beq	x5,x11,0x80000b58
    80000b54:	cd0ff06f          	jal	x0,0x80000024
    80000b58:	00100513          	addi	x10,x0,1
    80000b5c:	03751513          	slli	x10,x10,0x37
    80000b60:	40a55593          	srai	x11,x10,0xa
    80000b64:	12b0bc23          	sd	x11,312(x1)
    80000b68:	0010029b          	addiw	x5,x0,1
    80000b6c:	02d29293          	slli	x5,x5,0x2d
    80000b70:	00b28463          	beq	x5,x11,0x80000b78
    80000b74:	cb0ff06f          	jal	x0,0x80000024
    80000b78:	00100513          	addi	x10,x0,1
    80000b7c:	03851513          	slli	x10,x10,0x38
    80000b80:	40a55593          	srai	x11,x10,0xa
    80000b84:	14b0b023          	sd	x11,320(x1)
    80000b88:	0010029b          	addiw	x5,x0,1
    80000b8c:	02e29293          	slli	x5,x5,0x2e
    80000b90:	00b28463          	beq	x5,x11,0x80000b98
    80000b94:	c90ff06f          	jal	x0,0x80000024
    80000b98:	00100513          	addi	x10,x0,1
    80000b9c:	03951513          	slli	x10,x10,0x39
    80000ba0:	42a55593          	srai	x11,x10,0x2a
    80000ba4:	14b0b423          	sd	x11,328(x1)
    80000ba8:	000082b7          	lui	x5,0x8
    80000bac:	00b28463          	beq	x5,x11,0x80000bb4
    80000bb0:	c74ff06f          	jal	x0,0x80000024
    80000bb4:	00100513          	addi	x10,x0,1
    80000bb8:	03a51513          	slli	x10,x10,0x3a
    80000bbc:	40455593          	srai	x11,x10,0x4
    80000bc0:	14b0b823          	sd	x11,336(x1)
    80000bc4:	0010029b          	addiw	x5,x0,1
    80000bc8:	03629293          	slli	x5,x5,0x36
    80000bcc:	00b28463          	beq	x5,x11,0x80000bd4
    80000bd0:	c54ff06f          	jal	x0,0x80000024
    80000bd4:	00100513          	addi	x10,x0,1
    80000bd8:	03b51513          	slli	x10,x10,0x3b
    80000bdc:	40b55593          	srai	x11,x10,0xb
    80000be0:	14b0bc23          	sd	x11,344(x1)
    80000be4:	0010029b          	addiw	x5,x0,1
    80000be8:	03029293          	slli	x5,x5,0x30
    80000bec:	00b28463          	beq	x5,x11,0x80000bf4
    80000bf0:	c34ff06f          	jal	x0,0x80000024
    80000bf4:	00100513          	addi	x10,x0,1
    80000bf8:	03c51513          	slli	x10,x10,0x3c
    80000bfc:	43b55593          	srai	x11,x10,0x3b
    80000c00:	16b0b023          	sd	x11,352(x1)
    80000c04:	00200293          	addi	x5,x0,2
    80000c08:	00b28463          	beq	x5,x11,0x80000c10
    80000c0c:	c18ff06f          	jal	x0,0x80000024
    80000c10:	00100513          	addi	x10,x0,1
    80000c14:	03d51513          	slli	x10,x10,0x3d
    80000c18:	43f55593          	srai	x11,x10,0x3f
    80000c1c:	16b0b423          	sd	x11,360(x1)
    80000c20:	00000293          	addi	x5,x0,0
    80000c24:	00b28463          	beq	x5,x11,0x80000c2c
    80000c28:	bfcff06f          	jal	x0,0x80000024
    80000c2c:	00100513          	addi	x10,x0,1
    80000c30:	03e51513          	slli	x10,x10,0x3e
    80000c34:	40955593          	srai	x11,x10,0x9
    80000c38:	16b0b823          	sd	x11,368(x1)
    80000c3c:	0010029b          	addiw	x5,x0,1
    80000c40:	03529293          	slli	x5,x5,0x35
    80000c44:	00b28463          	beq	x5,x11,0x80000c4c
    80000c48:	bdcff06f          	jal	x0,0x80000024
    80000c4c:	ffe00513          	addi	x10,x0,-2
    80000c50:	41555593          	srai	x11,x10,0x15
    80000c54:	16b0bc23          	sd	x11,376(x1)
    80000c58:	fff00293          	addi	x5,x0,-1
    80000c5c:	00b28463          	beq	x5,x11,0x80000c64
    80000c60:	bc4ff06f          	jal	x0,0x80000024
    80000c64:	ffd00513          	addi	x10,x0,-3
    80000c68:	40255593          	srai	x11,x10,0x2
    80000c6c:	18b0b023          	sd	x11,384(x1)
    80000c70:	fff00293          	addi	x5,x0,-1
    80000c74:	00b28463          	beq	x5,x11,0x80000c7c
    80000c78:	bacff06f          	jal	x0,0x80000024
    80000c7c:	ffb00513          	addi	x10,x0,-5
    80000c80:	43d55593          	srai	x11,x10,0x3d
    80000c84:	18b0b423          	sd	x11,392(x1)
    80000c88:	fff00293          	addi	x5,x0,-1
    80000c8c:	00b28463          	beq	x5,x11,0x80000c94
    80000c90:	b94ff06f          	jal	x0,0x80000024
    80000c94:	ff700513          	addi	x10,x0,-9
    80000c98:	40d55593          	srai	x11,x10,0xd
    80000c9c:	18b0b823          	sd	x11,400(x1)
    80000ca0:	fff00293          	addi	x5,x0,-1
    80000ca4:	00b28463          	beq	x5,x11,0x80000cac
    80000ca8:	b7cff06f          	jal	x0,0x80000024
    80000cac:	fef00513          	addi	x10,x0,-17
    80000cb0:	43f55593          	srai	x11,x10,0x3f
    80000cb4:	18b0bc23          	sd	x11,408(x1)
    80000cb8:	fff00293          	addi	x5,x0,-1
    80000cbc:	00b28463          	beq	x5,x11,0x80000cc4
    80000cc0:	b64ff06f          	jal	x0,0x80000024
    80000cc4:	fdf00513          	addi	x10,x0,-33
    80000cc8:	40755593          	srai	x11,x10,0x7
    80000ccc:	1ab0b023          	sd	x11,416(x1)
    80000cd0:	fff00293          	addi	x5,x0,-1
    80000cd4:	00b28463          	beq	x5,x11,0x80000cdc
    80000cd8:	b4cff06f          	jal	x0,0x80000024
    80000cdc:	fbf00513          	addi	x10,x0,-65
    80000ce0:	40e55593          	srai	x11,x10,0xe
    80000ce4:	1ab0b423          	sd	x11,424(x1)
    80000ce8:	fff00293          	addi	x5,x0,-1
    80000cec:	00b28463          	beq	x5,x11,0x80000cf4
    80000cf0:	b34ff06f          	jal	x0,0x80000024
    80000cf4:	f7f00513          	addi	x10,x0,-129
    80000cf8:	40655593          	srai	x11,x10,0x6
    80000cfc:	1ab0b823          	sd	x11,432(x1)
    80000d00:	ffd00293          	addi	x5,x0,-3
    80000d04:	00b28463          	beq	x5,x11,0x80000d0c
    80000d08:	b1cff06f          	jal	x0,0x80000024
    80000d0c:	eff00513          	addi	x10,x0,-257
    80000d10:	40c55593          	srai	x11,x10,0xc
    80000d14:	1ab0bc23          	sd	x11,440(x1)
    80000d18:	fff00293          	addi	x5,x0,-1
    80000d1c:	00b28463          	beq	x5,x11,0x80000d24
    80000d20:	b04ff06f          	jal	x0,0x80000024
    80000d24:	dff00513          	addi	x10,x0,-513
    80000d28:	40355593          	srai	x11,x10,0x3
    80000d2c:	1cb0b023          	sd	x11,448(x1)
    80000d30:	fbf00293          	addi	x5,x0,-65
    80000d34:	00b28463          	beq	x5,x11,0x80000d3c
    80000d38:	aecff06f          	jal	x0,0x80000024
    80000d3c:	bff00513          	addi	x10,x0,-1025
    80000d40:	40f55593          	srai	x11,x10,0xf
    80000d44:	1cb0b423          	sd	x11,456(x1)
    80000d48:	fff00293          	addi	x5,x0,-1
    80000d4c:	00b28463          	beq	x5,x11,0x80000d54
    80000d50:	ad4ff06f          	jal	x0,0x80000024
    80000d54:	00100513          	addi	x10,x0,1
    80000d58:	00b51513          	slli	x10,x10,0xb
    80000d5c:	fff54513          	xori	x10,x10,-1
    80000d60:	40955593          	srai	x11,x10,0x9
    80000d64:	1cb0b823          	sd	x11,464(x1)
    80000d68:	ffb00293          	addi	x5,x0,-5
    80000d6c:	00b28463          	beq	x5,x11,0x80000d74
    80000d70:	ab4ff06f          	jal	x0,0x80000024
    80000d74:	00100513          	addi	x10,x0,1
    80000d78:	00c51513          	slli	x10,x10,0xc
    80000d7c:	fff54513          	xori	x10,x10,-1
    80000d80:	43f55593          	srai	x11,x10,0x3f
    80000d84:	1cb0bc23          	sd	x11,472(x1)
    80000d88:	fff00293          	addi	x5,x0,-1
    80000d8c:	00b28463          	beq	x5,x11,0x80000d94
    80000d90:	a94ff06f          	jal	x0,0x80000024
    80000d94:	00100513          	addi	x10,x0,1
    80000d98:	00d51513          	slli	x10,x10,0xd
    80000d9c:	fff54513          	xori	x10,x10,-1
    80000da0:	40955593          	srai	x11,x10,0x9
    80000da4:	1eb0b023          	sd	x11,480(x1)
    80000da8:	fef00293          	addi	x5,x0,-17
    80000dac:	00b28463          	beq	x5,x11,0x80000db4
    80000db0:	a74ff06f          	jal	x0,0x80000024
    80000db4:	00100513          	addi	x10,x0,1
    80000db8:	00e51513          	slli	x10,x10,0xe
    80000dbc:	fff54513          	xori	x10,x10,-1
    80000dc0:	40355593          	srai	x11,x10,0x3
    80000dc4:	1eb0b423          	sd	x11,488(x1)
    80000dc8:	fffff2b7          	lui	x5,0xfffff
    80000dcc:	7ff2829b          	addiw	x5,x5,2047 # 0xfffffffffffff7ff
    80000dd0:	00b28463          	beq	x5,x11,0x80000dd8
    80000dd4:	a50ff06f          	jal	x0,0x80000024
    80000dd8:	00100513          	addi	x10,x0,1
    80000ddc:	00f51513          	slli	x10,x10,0xf
    80000de0:	fff54513          	xori	x10,x10,-1
    80000de4:	41055593          	srai	x11,x10,0x10
    80000de8:	1eb0b823          	sd	x11,496(x1)
    80000dec:	fff00293          	addi	x5,x0,-1
    80000df0:	00b28463          	beq	x5,x11,0x80000df8
    80000df4:	a30ff06f          	jal	x0,0x80000024
    80000df8:	00100513          	addi	x10,x0,1
    80000dfc:	01051513          	slli	x10,x10,0x10
    80000e00:	fff54513          	xori	x10,x10,-1
    80000e04:	41555593          	srai	x11,x10,0x15
    80000e08:	1eb0bc23          	sd	x11,504(x1)
    80000e0c:	fff00293          	addi	x5,x0,-1
    80000e10:	00b28463          	beq	x5,x11,0x80000e18
    80000e14:	a10ff06f          	jal	x0,0x80000024
    80000e18:	00100513          	addi	x10,x0,1
    80000e1c:	01151513          	slli	x10,x10,0x11
    80000e20:	fff54513          	xori	x10,x10,-1
    80000e24:	40555593          	srai	x11,x10,0x5
    80000e28:	20b0b023          	sd	x11,512(x1)
    80000e2c:	fffff2b7          	lui	x5,0xfffff
    80000e30:	fff2829b          	addiw	x5,x5,-1 # 0xffffffffffffefff
    80000e34:	00b28463          	beq	x5,x11,0x80000e3c
    80000e38:	9ecff06f          	jal	x0,0x80000024
    80000e3c:	00100513          	addi	x10,x0,1
    80000e40:	01251513          	slli	x10,x10,0x12
    80000e44:	fff54513          	xori	x10,x10,-1
    80000e48:	40155593          	srai	x11,x10,0x1
    80000e4c:	20b0b423          	sd	x11,520(x1)
    80000e50:	fffe02b7          	lui	x5,0xfffe0
    80000e54:	fff2829b          	addiw	x5,x5,-1 # 0xfffffffffffdffff
    80000e58:	00b28463          	beq	x5,x11,0x80000e60
    80000e5c:	9c8ff06f          	jal	x0,0x80000024
    80000e60:	00100513          	addi	x10,x0,1
    80000e64:	01351513          	slli	x10,x10,0x13
    80000e68:	fff54513          	xori	x10,x10,-1
    80000e6c:	43f55593          	srai	x11,x10,0x3f
    80000e70:	20b0b823          	sd	x11,528(x1)
    80000e74:	fff00293          	addi	x5,x0,-1
    80000e78:	00b28463          	beq	x5,x11,0x80000e80
    80000e7c:	9a8ff06f          	jal	x0,0x80000024
    80000e80:	00100513          	addi	x10,x0,1
    80000e84:	01451513          	slli	x10,x10,0x14
    80000e88:	fff54513          	xori	x10,x10,-1
    80000e8c:	43755593          	srai	x11,x10,0x37
    80000e90:	20b0bc23          	sd	x11,536(x1)
    80000e94:	fff00293          	addi	x5,x0,-1
    80000e98:	00b28463          	beq	x5,x11,0x80000ea0
    80000e9c:	988ff06f          	jal	x0,0x80000024
    80000ea0:	00100513          	addi	x10,x0,1
    80000ea4:	01551513          	slli	x10,x10,0x15
    80000ea8:	fff54513          	xori	x10,x10,-1
    80000eac:	40755593          	srai	x11,x10,0x7
    80000eb0:	22b0b023          	sd	x11,544(x1)
    80000eb4:	ffffc2b7          	lui	x5,0xffffc
    80000eb8:	fff2829b          	addiw	x5,x5,-1 # 0xffffffffffffbfff
    80000ebc:	00b28463          	beq	x5,x11,0x80000ec4
    80000ec0:	964ff06f          	jal	x0,0x80000024
    80000ec4:	00100513          	addi	x10,x0,1
    80000ec8:	03551513          	slli	x10,x10,0x35
    80000ecc:	fff54513          	xori	x10,x10,-1
    80000ed0:	41555593          	srai	x11,x10,0x15
    80000ed4:	22b0b423          	sd	x11,552(x1)
    80000ed8:	fff0029b          	addiw	x5,x0,-1
    80000edc:	02029293          	slli	x5,x5,0x20
    80000ee0:	fff28293          	addi	x5,x5,-1
    80000ee4:	00b28463          	beq	x5,x11,0x80000eec
    80000ee8:	93cff06f          	jal	x0,0x80000024
    80000eec:	00100513          	addi	x10,x0,1
    80000ef0:	03651513          	slli	x10,x10,0x36
    80000ef4:	fff54513          	xori	x10,x10,-1
    80000ef8:	41355593          	srai	x11,x10,0x13
    80000efc:	22b0b823          	sd	x11,560(x1)
    80000f00:	fff0029b          	addiw	x5,x0,-1
    80000f04:	02329293          	slli	x5,x5,0x23
    80000f08:	fff28293          	addi	x5,x5,-1
    80000f0c:	00b28463          	beq	x5,x11,0x80000f14
    80000f10:	914ff06f          	jal	x0,0x80000024
    80000f14:	00100513          	addi	x10,x0,1
    80000f18:	03751513          	slli	x10,x10,0x37
    80000f1c:	fff54513          	xori	x10,x10,-1
    80000f20:	41555593          	srai	x11,x10,0x15
    80000f24:	22b0bc23          	sd	x11,568(x1)
    80000f28:	fff0029b          	addiw	x5,x0,-1
    80000f2c:	02229293          	slli	x5,x5,0x22
    80000f30:	fff28293          	addi	x5,x5,-1
    80000f34:	00b28463          	beq	x5,x11,0x80000f3c
    80000f38:	8ecff06f          	jal	x0,0x80000024
    80000f3c:	00100513          	addi	x10,x0,1
    80000f40:	03851513          	slli	x10,x10,0x38
    80000f44:	fff54513          	xori	x10,x10,-1
    80000f48:	41f55593          	srai	x11,x10,0x1f
    80000f4c:	24b0b023          	sd	x11,576(x1)
    80000f50:	fe0002b7          	lui	x5,0xfe000
    80000f54:	fff2829b          	addiw	x5,x5,-1 # 0xfffffffffdffffff
    80000f58:	00b28463          	beq	x5,x11,0x80000f60
    80000f5c:	8c8ff06f          	jal	x0,0x80000024
    80000f60:	00100513          	addi	x10,x0,1
    80000f64:	03951513          	slli	x10,x10,0x39
    80000f68:	fff54513          	xori	x10,x10,-1
    80000f6c:	43b55593          	srai	x11,x10,0x3b
    80000f70:	24b0b423          	sd	x11,584(x1)
    80000f74:	fff00293          	addi	x5,x0,-1
    80000f78:	00b28463          	beq	x5,x11,0x80000f80
    80000f7c:	8a8ff06f          	jal	x0,0x80000024
    80000f80:	00100513          	addi	x10,x0,1
    80000f84:	03b51513          	slli	x10,x10,0x3b
    80000f88:	fff54513          	xori	x10,x10,-1
    80000f8c:	41f55593          	srai	x11,x10,0x1f
    80000f90:	24b0b823          	sd	x11,592(x1)
    80000f94:	f00002b7          	lui	x5,0xf0000
    80000f98:	fff2829b          	addiw	x5,x5,-1 # 0xffffffffefffffff
    80000f9c:	00b28463          	beq	x5,x11,0x80000fa4
    80000fa0:	884ff06f          	jal	x0,0x80000024
    80000fa4:	00100513          	addi	x10,x0,1
    80000fa8:	03c51513          	slli	x10,x10,0x3c
    80000fac:	fff54513          	xori	x10,x10,-1
    80000fb0:	40155593          	srai	x11,x10,0x1
    80000fb4:	24b0bc23          	sd	x11,600(x1)
    80000fb8:	fff0029b          	addiw	x5,x0,-1
    80000fbc:	03b29293          	slli	x5,x5,0x3b
    80000fc0:	fff28293          	addi	x5,x5,-1
    80000fc4:	00b28463          	beq	x5,x11,0x80000fcc
    80000fc8:	85cff06f          	jal	x0,0x80000024
    80000fcc:	00100513          	addi	x10,x0,1
    80000fd0:	03d51513          	slli	x10,x10,0x3d
    80000fd4:	fff54513          	xori	x10,x10,-1
    80000fd8:	42055593          	srai	x11,x10,0x20
    80000fdc:	26b0b023          	sd	x11,608(x1)
    80000fe0:	e00002b7          	lui	x5,0xe0000
    80000fe4:	fff2829b          	addiw	x5,x5,-1 # 0xffffffffdfffffff
    80000fe8:	00b28463          	beq	x5,x11,0x80000ff0
    80000fec:	838ff06f          	jal	x0,0x80000024
    80000ff0:	00100513          	addi	x10,x0,1
    80000ff4:	03e51513          	slli	x10,x10,0x3e
    80000ff8:	fff54513          	xori	x10,x10,-1
    80000ffc:	41355593          	srai	x11,x10,0x13
    80001000:	26b0b423          	sd	x11,616(x1)
    80001004:	fff0029b          	addiw	x5,x0,-1
    80001008:	02b29293          	slli	x5,x5,0x2b
    8000100c:	fff28293          	addi	x5,x5,-1
    80001010:	00b28463          	beq	x5,x11,0x80001018
    80001014:	810ff06f          	jal	x0,0x80000024
    80001018:	55555537          	lui	x10,0x55555
    8000101c:	55550513          	addi	x10,x10,1365 # 0x55555555
    80001020:	00b51513          	slli	x10,x10,0xb
    80001024:	2aa50513          	addi	x10,x10,682
    80001028:	00b51513          	slli	x10,x10,0xb
    8000102c:	55550513          	addi	x10,x10,1365
    80001030:	00a51513          	slli	x10,x10,0xa
    80001034:	15550513          	addi	x10,x10,341
    80001038:	41255593          	srai	x11,x10,0x12
    8000103c:	26b0b823          	sd	x11,624(x1)
    80001040:	001552b7          	lui	x5,0x155
    80001044:	5552829b          	addiw	x5,x5,1365 # 0x155555
    80001048:	00c29293          	slli	x5,x5,0xc
    8000104c:	55528293          	addi	x5,x5,1365
    80001050:	00c29293          	slli	x5,x5,0xc
    80001054:	55528293          	addi	x5,x5,1365
    80001058:	00b28463          	beq	x5,x11,0x80001060
    8000105c:	fc9fe06f          	jal	x0,0x80000024
    80001060:	aaaab537          	lui	x10,0xaaaab
    80001064:	aaa50513          	addi	x10,x10,-1366 # 0xffffffffaaaaaaaa
    80001068:	00b51513          	slli	x10,x10,0xb
    8000106c:	55550513          	addi	x10,x10,1365
    80001070:	00b51513          	slli	x10,x10,0xb
    80001074:	2aa50513          	addi	x10,x10,682
    80001078:	00a51513          	slli	x10,x10,0xa
    8000107c:	2aa50513          	addi	x10,x10,682
    80001080:	41f55593          	srai	x11,x10,0x1f
    80001084:	26b0bc23          	sd	x11,632(x1)
    80001088:	fff552b7          	lui	x5,0xfff55
    8000108c:	5552829b          	addiw	x5,x5,1365 # 0xfffffffffff55555
    80001090:	00c29293          	slli	x5,x5,0xc
    80001094:	55528293          	addi	x5,x5,1365
    80001098:	00b28463          	beq	x5,x11,0x800010a0
    8000109c:	f89fe06f          	jal	x0,0x80000024
    800010a0:	00300513          	addi	x10,x0,3
    800010a4:	42a55593          	srai	x11,x10,0x2a
    800010a8:	28b0b023          	sd	x11,640(x1)
    800010ac:	00000293          	addi	x5,x0,0
    800010b0:	00b28463          	beq	x5,x11,0x800010b8
    800010b4:	f71fe06f          	jal	x0,0x80000024
    800010b8:	00500513          	addi	x10,x0,5
    800010bc:	43e55593          	srai	x11,x10,0x3e
    800010c0:	28b0b423          	sd	x11,648(x1)
    800010c4:	00000293          	addi	x5,x0,0
    800010c8:	00b28463          	beq	x5,x11,0x800010d0
    800010cc:	f59fe06f          	jal	x0,0x80000024
    800010d0:	33333537          	lui	x10,0x33333
    800010d4:	33350513          	addi	x10,x10,819 # 0x33333333
    800010d8:	00b51513          	slli	x10,x10,0xb
    800010dc:	19950513          	addi	x10,x10,409
    800010e0:	00b51513          	slli	x10,x10,0xb
    800010e4:	4cc50513          	addi	x10,x10,1228
    800010e8:	00a51513          	slli	x10,x10,0xa
    800010ec:	33350513          	addi	x10,x10,819
    800010f0:	40455593          	srai	x11,x10,0x4
    800010f4:	28b0b823          	sd	x11,656(x1)
    800010f8:	003332b7          	lui	x5,0x333
    800010fc:	3332829b          	addiw	x5,x5,819 # 0x333333
    80001100:	00c29293          	slli	x5,x5,0xc
    80001104:	33328293          	addi	x5,x5,819
    80001108:	00c29293          	slli	x5,x5,0xc
    8000110c:	33328293          	addi	x5,x5,819
    80001110:	00c29293          	slli	x5,x5,0xc
    80001114:	33328293          	addi	x5,x5,819
    80001118:	00b28463          	beq	x5,x11,0x80001120
    8000111c:	f09fe06f          	jal	x0,0x80000024
    80001120:	66666537          	lui	x10,0x66666
    80001124:	66650513          	addi	x10,x10,1638 # 0x66666666
    80001128:	00b51513          	slli	x10,x10,0xb
    8000112c:	33350513          	addi	x10,x10,819
    80001130:	00b51513          	slli	x10,x10,0xb
    80001134:	19950513          	addi	x10,x10,409
    80001138:	00a51513          	slli	x10,x10,0xa
    8000113c:	26650513          	addi	x10,x10,614
    80001140:	40255593          	srai	x11,x10,0x2
    80001144:	28b0bc23          	sd	x11,664(x1)
    80001148:	00ccd2b7          	lui	x5,0xccd
    8000114c:	ccd2829b          	addiw	x5,x5,-819 # 0xcccccd
    80001150:	00c29293          	slli	x5,x5,0xc
    80001154:	ccd28293          	addi	x5,x5,-819
    80001158:	00c29293          	slli	x5,x5,0xc
    8000115c:	ccd28293          	addi	x5,x5,-819
    80001160:	00d29293          	slli	x5,x5,0xd
    80001164:	99928293          	addi	x5,x5,-1639
    80001168:	00b28463          	beq	x5,x11,0x80001170
    8000116c:	eb9fe06f          	jal	x0,0x80000024
    80001170:	00000537          	lui	x10,0x0
    80001174:	fff50513          	addi	x10,x10,-1 # 0xffffffffffffffff
    80001178:	00b51513          	slli	x10,x10,0xb
    8000117c:	25750513          	addi	x10,x10,599
    80001180:	00b51513          	slli	x10,x10,0xb
    80001184:	6c350513          	addi	x10,x10,1731
    80001188:	00a51513          	slli	x10,x10,0xa
    8000118c:	0cd50513          	addi	x10,x10,205
    80001190:	40b55593          	srai	x11,x10,0xb
    80001194:	2ab0b023          	sd	x11,672(x1)
    80001198:	ffe962b7          	lui	x5,0xffe96
    8000119c:	f612829b          	addiw	x5,x5,-159 # 0xffffffffffe95f61
    800011a0:	00b28463          	beq	x5,x11,0x800011a8
    800011a4:	e81fe06f          	jal	x0,0x80000024
    800011a8:	00000537          	lui	x10,0x0
    800011ac:	00050513          	addi	x10,x10,0 # 0x0
    800011b0:	00b51513          	slli	x10,x10,0xb
    800011b4:	5a850513          	addi	x10,x10,1448
    800011b8:	00b51513          	slli	x10,x10,0xb
    800011bc:	13c50513          	addi	x10,x10,316
    800011c0:	00a51513          	slli	x10,x10,0xa
    800011c4:	33350513          	addi	x10,x10,819
    800011c8:	41255593          	srai	x11,x10,0x12
    800011cc:	2ab0b423          	sd	x11,680(x1)
    800011d0:	000032b7          	lui	x5,0x3
    800011d4:	d412829b          	addiw	x5,x5,-703 # 0x2d41
    800011d8:	00b28463          	beq	x5,x11,0x800011e0
    800011dc:	e49fe06f          	jal	x0,0x80000024
    800011e0:	55555537          	lui	x10,0x55555
    800011e4:	55550513          	addi	x10,x10,1365 # 0x55555555
    800011e8:	00b51513          	slli	x10,x10,0xb
    800011ec:	2aa50513          	addi	x10,x10,682
    800011f0:	00b51513          	slli	x10,x10,0xb
    800011f4:	55550513          	addi	x10,x10,1365
    800011f8:	00a51513          	slli	x10,x10,0xa
    800011fc:	15450513          	addi	x10,x10,340
    80001200:	40c55593          	srai	x11,x10,0xc
    80001204:	2ab0b823          	sd	x11,688(x1)
    80001208:	055552b7          	lui	x5,0x5555
    8000120c:	5552829b          	addiw	x5,x5,1365 # 0x5555555
    80001210:	00c29293          	slli	x5,x5,0xc
    80001214:	55528293          	addi	x5,x5,1365
    80001218:	00c29293          	slli	x5,x5,0xc
    8000121c:	55528293          	addi	x5,x5,1365
    80001220:	00b28463          	beq	x5,x11,0x80001228
    80001224:	e01fe06f          	jal	x0,0x80000024
    80001228:	33333537          	lui	x10,0x33333
    8000122c:	33350513          	addi	x10,x10,819 # 0x33333333
    80001230:	00b51513          	slli	x10,x10,0xb
    80001234:	19950513          	addi	x10,x10,409
    80001238:	00b51513          	slli	x10,x10,0xb
    8000123c:	4cc50513          	addi	x10,x10,1228
    80001240:	00a51513          	slli	x10,x10,0xa
    80001244:	33250513          	addi	x10,x10,818
    80001248:	41355593          	srai	x11,x10,0x13
    8000124c:	2ab0bc23          	sd	x11,696(x1)
    80001250:	333332b7          	lui	x5,0x33333
    80001254:	3332829b          	addiw	x5,x5,819 # 0x33333333
    80001258:	00d29293          	slli	x5,x5,0xd
    8000125c:	66628293          	addi	x5,x5,1638
    80001260:	00b28463          	beq	x5,x11,0x80001268
    80001264:	dc1fe06f          	jal	x0,0x80000024
    80001268:	66666537          	lui	x10,0x66666
    8000126c:	66650513          	addi	x10,x10,1638 # 0x66666666
    80001270:	00b51513          	slli	x10,x10,0xb
    80001274:	33350513          	addi	x10,x10,819
    80001278:	00b51513          	slli	x10,x10,0xb
    8000127c:	19950513          	addi	x10,x10,409
    80001280:	00a51513          	slli	x10,x10,0xa
    80001284:	26550513          	addi	x10,x10,613
    80001288:	40155593          	srai	x11,x10,0x1
    8000128c:	2cb0b023          	sd	x11,704(x1)
    80001290:	033332b7          	lui	x5,0x3333
    80001294:	3332829b          	addiw	x5,x5,819 # 0x3333333
    80001298:	00c29293          	slli	x5,x5,0xc
    8000129c:	33328293          	addi	x5,x5,819
    800012a0:	00c29293          	slli	x5,x5,0xc
    800012a4:	33328293          	addi	x5,x5,819
    800012a8:	00c29293          	slli	x5,x5,0xc
    800012ac:	33228293          	addi	x5,x5,818
    800012b0:	00b28463          	beq	x5,x11,0x800012b8
    800012b4:	d71fe06f          	jal	x0,0x80000024
    800012b8:	00000537          	lui	x10,0x0
    800012bc:	00050513          	addi	x10,x10,0 # 0x0
    800012c0:	00b51513          	slli	x10,x10,0xb
    800012c4:	5a850513          	addi	x10,x10,1448
    800012c8:	00b51513          	slli	x10,x10,0xb
    800012cc:	13c50513          	addi	x10,x10,316
    800012d0:	00a51513          	slli	x10,x10,0xa
    800012d4:	33250513          	addi	x10,x10,818
    800012d8:	40a55593          	srai	x11,x10,0xa
    800012dc:	2cb0b423          	sd	x11,712(x1)
    800012e0:	002d42b7          	lui	x5,0x2d4
    800012e4:	13c2829b          	addiw	x5,x5,316 # 0x2d413c
    800012e8:	00b28463          	beq	x5,x11,0x800012f0
    800012ec:	d39fe06f          	jal	x0,0x80000024
    800012f0:	55555537          	lui	x10,0x55555
    800012f4:	55550513          	addi	x10,x10,1365 # 0x55555555
    800012f8:	00b51513          	slli	x10,x10,0xb
    800012fc:	2aa50513          	addi	x10,x10,682
    80001300:	00b51513          	slli	x10,x10,0xb
    80001304:	55550513          	addi	x10,x10,1365
    80001308:	00a51513          	slli	x10,x10,0xa
    8000130c:	15650513          	addi	x10,x10,342
    80001310:	40c55593          	srai	x11,x10,0xc
    80001314:	2cb0b823          	sd	x11,720(x1)
    80001318:	055552b7          	lui	x5,0x5555
    8000131c:	5552829b          	addiw	x5,x5,1365 # 0x5555555
    80001320:	00c29293          	slli	x5,x5,0xc
    80001324:	55528293          	addi	x5,x5,1365
    80001328:	00c29293          	slli	x5,x5,0xc
    8000132c:	55528293          	addi	x5,x5,1365
    80001330:	00b28463          	beq	x5,x11,0x80001338
    80001334:	cf1fe06f          	jal	x0,0x80000024
    80001338:	aaaab537          	lui	x10,0xaaaab
    8000133c:	aaa50513          	addi	x10,x10,-1366 # 0xffffffffaaaaaaaa
    80001340:	00b51513          	slli	x10,x10,0xb
    80001344:	55550513          	addi	x10,x10,1365
    80001348:	00b51513          	slli	x10,x10,0xb
    8000134c:	2aa50513          	addi	x10,x10,682
    80001350:	00a51513          	slli	x10,x10,0xa
    80001354:	2ab50513          	addi	x10,x10,683
    80001358:	40355593          	srai	x11,x10,0x3
    8000135c:	2cb0bc23          	sd	x11,728(x1)
    80001360:	ff5552b7          	lui	x5,0xff555
    80001364:	5552829b          	addiw	x5,x5,1365 # 0xffffffffff555555
    80001368:	00c29293          	slli	x5,x5,0xc
    8000136c:	55528293          	addi	x5,x5,1365
    80001370:	00c29293          	slli	x5,x5,0xc
    80001374:	55528293          	addi	x5,x5,1365
    80001378:	00c29293          	slli	x5,x5,0xc
    8000137c:	55528293          	addi	x5,x5,1365
    80001380:	00b28463          	beq	x5,x11,0x80001388
    80001384:	ca1fe06f          	jal	x0,0x80000024
    80001388:	00600513          	addi	x10,x0,6
    8000138c:	41555593          	srai	x11,x10,0x15
    80001390:	2eb0b023          	sd	x11,736(x1)
    80001394:	00000293          	addi	x5,x0,0
    80001398:	00b28463          	beq	x5,x11,0x800013a0
    8000139c:	c89fe06f          	jal	x0,0x80000024
    800013a0:	33333537          	lui	x10,0x33333
    800013a4:	33350513          	addi	x10,x10,819 # 0x33333333
    800013a8:	00b51513          	slli	x10,x10,0xb
    800013ac:	19950513          	addi	x10,x10,409
    800013b0:	00b51513          	slli	x10,x10,0xb
    800013b4:	4cc50513          	addi	x10,x10,1228
    800013b8:	00a51513          	slli	x10,x10,0xa
    800013bc:	33450513          	addi	x10,x10,820
    800013c0:	40f55593          	srai	x11,x10,0xf
    800013c4:	2eb0b423          	sd	x11,744(x1)
    800013c8:	003332b7          	lui	x5,0x333
    800013cc:	3332829b          	addiw	x5,x5,819 # 0x333333
    800013d0:	00c29293          	slli	x5,x5,0xc
    800013d4:	33328293          	addi	x5,x5,819
    800013d8:	00d29293          	slli	x5,x5,0xd
    800013dc:	66628293          	addi	x5,x5,1638
    800013e0:	00b28463          	beq	x5,x11,0x800013e8
    800013e4:	c41fe06f          	jal	x0,0x80000024
    800013e8:	66666537          	lui	x10,0x66666
    800013ec:	66650513          	addi	x10,x10,1638 # 0x66666666
    800013f0:	00b51513          	slli	x10,x10,0xb
    800013f4:	33350513          	addi	x10,x10,819
    800013f8:	00b51513          	slli	x10,x10,0xb
    800013fc:	19950513          	addi	x10,x10,409
    80001400:	00a51513          	slli	x10,x10,0xa
    80001404:	26750513          	addi	x10,x10,615
    80001408:	40a55593          	srai	x11,x10,0xa
    8000140c:	2eb0b823          	sd	x11,752(x1)
    80001410:	0cccd2b7          	lui	x5,0xcccd
    80001414:	ccd2829b          	addiw	x5,x5,-819 # 0xccccccd
    80001418:	00c29293          	slli	x5,x5,0xc
    8000141c:	ccd28293          	addi	x5,x5,-819
    80001420:	00d29293          	slli	x5,x5,0xd
    80001424:	99928293          	addi	x5,x5,-1639
    80001428:	00b28463          	beq	x5,x11,0x80001430
    8000142c:	bf9fe06f          	jal	x0,0x80000024
    80001430:	00000537          	lui	x10,0x0
    80001434:	fff50513          	addi	x10,x10,-1 # 0xffffffffffffffff
    80001438:	00b51513          	slli	x10,x10,0xb
    8000143c:	25750513          	addi	x10,x10,599
    80001440:	00b51513          	slli	x10,x10,0xb
    80001444:	6c350513          	addi	x10,x10,1731
    80001448:	00a51513          	slli	x10,x10,0xa
    8000144c:	0ce50513          	addi	x10,x10,206
    80001450:	40b55593          	srai	x11,x10,0xb
    80001454:	2eb0bc23          	sd	x11,760(x1)
    80001458:	ffe962b7          	lui	x5,0xffe96
    8000145c:	f612829b          	addiw	x5,x5,-159 # 0xffffffffffe95f61
    80001460:	00b28463          	beq	x5,x11,0x80001468
    80001464:	bc1fe06f          	jal	x0,0x80000024
    80001468:	00000537          	lui	x10,0x0
    8000146c:	00050513          	addi	x10,x10,0 # 0x0
    80001470:	00b51513          	slli	x10,x10,0xb
    80001474:	5a850513          	addi	x10,x10,1448
    80001478:	00b51513          	slli	x10,x10,0xb
    8000147c:	13c50513          	addi	x10,x10,316
    80001480:	00a51513          	slli	x10,x10,0xa
    80001484:	33450513          	addi	x10,x10,820
    80001488:	40855593          	srai	x11,x10,0x8
    8000148c:	30b0b023          	sd	x11,768(x1)
    80001490:	00b502b7          	lui	x5,0xb50
    80001494:	4f32829b          	addiw	x5,x5,1267 # 0xb504f3
    80001498:	00b28463          	beq	x5,x11,0x800014a0
    8000149c:	b89fe06f          	jal	x0,0x80000024
    800014a0:	00100513          	addi	x10,x0,1
    800014a4:	02d51513          	slli	x10,x10,0x2d
    800014a8:	fff54513          	xori	x10,x10,-1
    800014ac:	42f55593          	srai	x11,x10,0x2f
    800014b0:	30b0b423          	sd	x11,776(x1)
    800014b4:	fff00293          	addi	x5,x0,-1
    800014b8:	00b28463          	beq	x5,x11,0x800014c0
    800014bc:	b69fe06f          	jal	x0,0x80000024
    800014c0:	00100513          	addi	x10,x0,1
    800014c4:	01651513          	slli	x10,x10,0x16
    800014c8:	fff54513          	xori	x10,x10,-1
    800014cc:	42a55593          	srai	x11,x10,0x2a
    800014d0:	30b0b823          	sd	x11,784(x1)
    800014d4:	fff00293          	addi	x5,x0,-1
    800014d8:	00b28463          	beq	x5,x11,0x800014e0
    800014dc:	b49fe06f          	jal	x0,0x80000024
    800014e0:	00100513          	addi	x10,x0,1
    800014e4:	01751513          	slli	x10,x10,0x17
    800014e8:	fff54513          	xori	x10,x10,-1
    800014ec:	40d55593          	srai	x11,x10,0xd
    800014f0:	30b0bc23          	sd	x11,792(x1)
    800014f4:	bff00293          	addi	x5,x0,-1025
    800014f8:	00b28463          	beq	x5,x11,0x80001500
    800014fc:	b29fe06f          	jal	x0,0x80000024
    80001500:	00100513          	addi	x10,x0,1
    80001504:	01851513          	slli	x10,x10,0x18
    80001508:	fff54513          	xori	x10,x10,-1
    8000150c:	40155593          	srai	x11,x10,0x1
    80001510:	32b0b023          	sd	x11,800(x1)
    80001514:	ff8002b7          	lui	x5,0xff800
    80001518:	fff2829b          	addiw	x5,x5,-1 # 0xffffffffff7fffff
    8000151c:	00b28463          	beq	x5,x11,0x80001524
    80001520:	b05fe06f          	jal	x0,0x80000024
    80001524:	00100513          	addi	x10,x0,1
    80001528:	01a51513          	slli	x10,x10,0x1a
    8000152c:	fff54513          	xori	x10,x10,-1
    80001530:	40c55593          	srai	x11,x10,0xc
    80001534:	32b0b423          	sd	x11,808(x1)
    80001538:	ffffc2b7          	lui	x5,0xffffc
    8000153c:	fff2829b          	addiw	x5,x5,-1 # 0xffffffffffffbfff
    80001540:	00b28463          	beq	x5,x11,0x80001548
    80001544:	ae1fe06f          	jal	x0,0x80000024
    80001548:	00100513          	addi	x10,x0,1
    8000154c:	01b51513          	slli	x10,x10,0x1b
    80001550:	fff54513          	xori	x10,x10,-1
    80001554:	40755593          	srai	x11,x10,0x7
    80001558:	32b0b823          	sd	x11,816(x1)
    8000155c:	fff002b7          	lui	x5,0xfff00
    80001560:	fff2829b          	addiw	x5,x5,-1 # 0xffffffffffefffff
    80001564:	00b28463          	beq	x5,x11,0x8000156c
    80001568:	abdfe06f          	jal	x0,0x80000024
    8000156c:	00100513          	addi	x10,x0,1
    80001570:	01c51513          	slli	x10,x10,0x1c
    80001574:	fff54513          	xori	x10,x10,-1
    80001578:	40455593          	srai	x11,x10,0x4
    8000157c:	32b0bc23          	sd	x11,824(x1)
    80001580:	ff0002b7          	lui	x5,0xff000
    80001584:	fff2829b          	addiw	x5,x5,-1 # 0xfffffffffeffffff
    80001588:	00b28463          	beq	x5,x11,0x80001590
    8000158c:	a99fe06f          	jal	x0,0x80000024
    80001590:	00100513          	addi	x10,x0,1
    80001594:	01d51513          	slli	x10,x10,0x1d
    80001598:	fff54513          	xori	x10,x10,-1
    8000159c:	43b55593          	srai	x11,x10,0x3b
    800015a0:	34b0b023          	sd	x11,832(x1)
    800015a4:	fff00293          	addi	x5,x0,-1
    800015a8:	00b28463          	beq	x5,x11,0x800015b0
    800015ac:	a79fe06f          	jal	x0,0x80000024
    800015b0:	00100513          	addi	x10,x0,1
    800015b4:	01e51513          	slli	x10,x10,0x1e
    800015b8:	fff54513          	xori	x10,x10,-1
    800015bc:	42055593          	srai	x11,x10,0x20
    800015c0:	34b0b423          	sd	x11,840(x1)
    800015c4:	fff00293          	addi	x5,x0,-1
    800015c8:	00b28463          	beq	x5,x11,0x800015d0
    800015cc:	a59fe06f          	jal	x0,0x80000024
    800015d0:	00100513          	addi	x10,x0,1
    800015d4:	01f51513          	slli	x10,x10,0x1f
    800015d8:	fff54513          	xori	x10,x10,-1
    800015dc:	40955593          	srai	x11,x10,0x9
    800015e0:	34b0b823          	sd	x11,848(x1)
    800015e4:	ffc002b7          	lui	x5,0xffc00
    800015e8:	fff2829b          	addiw	x5,x5,-1 # 0xffffffffffbfffff
    800015ec:	00b28463          	beq	x5,x11,0x800015f4
    800015f0:	a35fe06f          	jal	x0,0x80000024
    800015f4:	00100513          	addi	x10,x0,1
    800015f8:	02051513          	slli	x10,x10,0x20
    800015fc:	fff54513          	xori	x10,x10,-1
    80001600:	40455593          	srai	x11,x10,0x4
    80001604:	34b0bc23          	sd	x11,856(x1)
    80001608:	f00002b7          	lui	x5,0xf0000
    8000160c:	fff2829b          	addiw	x5,x5,-1 # 0xffffffffefffffff
    80001610:	00b28463          	beq	x5,x11,0x80001618
    80001614:	a11fe06f          	jal	x0,0x80000024
    80001618:	00100513          	addi	x10,x0,1
    8000161c:	02151513          	slli	x10,x10,0x21
    80001620:	fff54513          	xori	x10,x10,-1
    80001624:	40c55593          	srai	x11,x10,0xc
    80001628:	36b0b023          	sd	x11,864(x1)
    8000162c:	ffe002b7          	lui	x5,0xffe00
    80001630:	fff2829b          	addiw	x5,x5,-1 # 0xffffffffffdfffff
    80001634:	00b28463          	beq	x5,x11,0x8000163c
    80001638:	9edfe06f          	jal	x0,0x80000024
    8000163c:	00100513          	addi	x10,x0,1
    80001640:	02251513          	slli	x10,x10,0x22
    80001644:	fff54513          	xori	x10,x10,-1
    80001648:	42f55593          	srai	x11,x10,0x2f
    8000164c:	36b0b423          	sd	x11,872(x1)
    80001650:	fff00293          	addi	x5,x0,-1
    80001654:	00b28463          	beq	x5,x11,0x8000165c
    80001658:	9cdfe06f          	jal	x0,0x80000024
    8000165c:	00100513          	addi	x10,x0,1
    80001660:	02351513          	slli	x10,x10,0x23
    80001664:	fff54513          	xori	x10,x10,-1
    80001668:	41155593          	srai	x11,x10,0x11
    8000166c:	36b0b823          	sd	x11,880(x1)
    80001670:	fffc02b7          	lui	x5,0xfffc0
    80001674:	fff2829b          	addiw	x5,x5,-1 # 0xfffffffffffbffff
    80001678:	00b28463          	beq	x5,x11,0x80001680
    8000167c:	9a9fe06f          	jal	x0,0x80000024
    80001680:	00100513          	addi	x10,x0,1
    80001684:	02451513          	slli	x10,x10,0x24
    80001688:	fff54513          	xori	x10,x10,-1
    8000168c:	40f55593          	srai	x11,x10,0xf
    80001690:	36b0bc23          	sd	x11,888(x1)
    80001694:	ffe002b7          	lui	x5,0xffe00
    80001698:	fff2829b          	addiw	x5,x5,-1 # 0xffffffffffdfffff
    8000169c:	00b28463          	beq	x5,x11,0x800016a4
    800016a0:	985fe06f          	jal	x0,0x80000024
    800016a4:	00100513          	addi	x10,x0,1
    800016a8:	02551513          	slli	x10,x10,0x25
    800016ac:	fff54513          	xori	x10,x10,-1
    800016b0:	41355593          	srai	x11,x10,0x13
    800016b4:	38b0b023          	sd	x11,896(x1)
    800016b8:	fffc02b7          	lui	x5,0xfffc0
    800016bc:	fff2829b          	addiw	x5,x5,-1 # 0xfffffffffffbffff
    800016c0:	00b28463          	beq	x5,x11,0x800016c8
    800016c4:	961fe06f          	jal	x0,0x80000024
    800016c8:	00100513          	addi	x10,x0,1
    800016cc:	02651513          	slli	x10,x10,0x26
    800016d0:	fff54513          	xori	x10,x10,-1
    800016d4:	40355593          	srai	x11,x10,0x3
    800016d8:	38b0b423          	sd	x11,904(x1)
    800016dc:	fff0029b          	addiw	x5,x0,-1
    800016e0:	02329293          	slli	x5,x5,0x23
    800016e4:	fff28293          	addi	x5,x5,-1
    800016e8:	00b28463          	beq	x5,x11,0x800016f0
    800016ec:	939fe06f          	jal	x0,0x80000024
    800016f0:	00100513          	addi	x10,x0,1
    800016f4:	02751513          	slli	x10,x10,0x27
    800016f8:	fff54513          	xori	x10,x10,-1
    800016fc:	40e55593          	srai	x11,x10,0xe
    80001700:	38b0b823          	sd	x11,912(x1)
    80001704:	fe0002b7          	lui	x5,0xfe000
    80001708:	fff2829b          	addiw	x5,x5,-1 # 0xfffffffffdffffff
    8000170c:	00b28463          	beq	x5,x11,0x80001714
    80001710:	915fe06f          	jal	x0,0x80000024
    80001714:	00100513          	addi	x10,x0,1
    80001718:	02851513          	slli	x10,x10,0x28
    8000171c:	fff54513          	xori	x10,x10,-1
    80001720:	40155593          	srai	x11,x10,0x1
    80001724:	38b0bc23          	sd	x11,920(x1)
    80001728:	fff0029b          	addiw	x5,x0,-1
    8000172c:	02729293          	slli	x5,x5,0x27
    80001730:	fff28293          	addi	x5,x5,-1
    80001734:	00b28463          	beq	x5,x11,0x8000173c
    80001738:	8edfe06f          	jal	x0,0x80000024
    8000173c:	00100513          	addi	x10,x0,1
    80001740:	02951513          	slli	x10,x10,0x29
    80001744:	fff54513          	xori	x10,x10,-1
    80001748:	40555593          	srai	x11,x10,0x5
    8000174c:	3ab0b023          	sd	x11,928(x1)
    80001750:	fff0029b          	addiw	x5,x0,-1
    80001754:	02429293          	slli	x5,x5,0x24
    80001758:	fff28293          	addi	x5,x5,-1
    8000175c:	00b28463          	beq	x5,x11,0x80001764
    80001760:	8c5fe06f          	jal	x0,0x80000024
    80001764:	00100513          	addi	x10,x0,1
    80001768:	02a51513          	slli	x10,x10,0x2a
    8000176c:	fff54513          	xori	x10,x10,-1
    80001770:	40855593          	srai	x11,x10,0x8
    80001774:	3ab0b423          	sd	x11,936(x1)
    80001778:	fff0029b          	addiw	x5,x0,-1
    8000177c:	02229293          	slli	x5,x5,0x22
    80001780:	fff28293          	addi	x5,x5,-1
    80001784:	00b28463          	beq	x5,x11,0x8000178c
    80001788:	89dfe06f          	jal	x0,0x80000024
    8000178c:	00100513          	addi	x10,x0,1
    80001790:	02b51513          	slli	x10,x10,0x2b
    80001794:	fff54513          	xori	x10,x10,-1
    80001798:	40655593          	srai	x11,x10,0x6
    8000179c:	3ab0b823          	sd	x11,944(x1)
    800017a0:	fff0029b          	addiw	x5,x0,-1
    800017a4:	02529293          	slli	x5,x5,0x25
    800017a8:	fff28293          	addi	x5,x5,-1
    800017ac:	00b28463          	beq	x5,x11,0x800017b4
    800017b0:	875fe06f          	jal	x0,0x80000024
    800017b4:	00100513          	addi	x10,x0,1
    800017b8:	02c51513          	slli	x10,x10,0x2c
    800017bc:	fff54513          	xori	x10,x10,-1
    800017c0:	40955593          	srai	x11,x10,0x9
    800017c4:	3ab0bc23          	sd	x11,952(x1)
    800017c8:	fff0029b          	addiw	x5,x0,-1
    800017cc:	02329293          	slli	x5,x5,0x23
    800017d0:	fff28293          	addi	x5,x5,-1
    800017d4:	00b28463          	beq	x5,x11,0x800017dc
    800017d8:	84dfe06f          	jal	x0,0x80000024
    800017dc:	00100513          	addi	x10,x0,1
    800017e0:	02e51513          	slli	x10,x10,0x2e
    800017e4:	fff54513          	xori	x10,x10,-1
    800017e8:	40855593          	srai	x11,x10,0x8
    800017ec:	3cb0b023          	sd	x11,960(x1)
    800017f0:	fff0029b          	addiw	x5,x0,-1
    800017f4:	02629293          	slli	x5,x5,0x26
    800017f8:	fff28293          	addi	x5,x5,-1
    800017fc:	00b28463          	beq	x5,x11,0x80001804
    80001800:	825fe06f          	jal	x0,0x80000024
    80001804:	00100513          	addi	x10,x0,1
    80001808:	02f51513          	slli	x10,x10,0x2f
    8000180c:	fff54513          	xori	x10,x10,-1
    80001810:	40255593          	srai	x11,x10,0x2
    80001814:	3cb0b423          	sd	x11,968(x1)
    80001818:	fff0029b          	addiw	x5,x0,-1
    8000181c:	02d29293          	slli	x5,x5,0x2d
    80001820:	fff28293          	addi	x5,x5,-1
    80001824:	00b28463          	beq	x5,x11,0x8000182c
    80001828:	ffcfe06f          	jal	x0,0x80000024
    8000182c:	00100513          	addi	x10,x0,1
    80001830:	03051513          	slli	x10,x10,0x30
    80001834:	fff54513          	xori	x10,x10,-1
    80001838:	41f55593          	srai	x11,x10,0x1f
    8000183c:	3cb0b823          	sd	x11,976(x1)
    80001840:	fffe02b7          	lui	x5,0xfffe0
    80001844:	fff2829b          	addiw	x5,x5,-1 # 0xfffffffffffdffff
    80001848:	00b28463          	beq	x5,x11,0x80001850
    8000184c:	fd8fe06f          	jal	x0,0x80000024
    80001850:	00100513          	addi	x10,x0,1
    80001854:	03151513          	slli	x10,x10,0x31
    80001858:	fff54513          	xori	x10,x10,-1
    8000185c:	43b55593          	srai	x11,x10,0x3b
    80001860:	3cb0bc23          	sd	x11,984(x1)
    80001864:	fff00293          	addi	x5,x0,-1
    80001868:	00b28463          	beq	x5,x11,0x80001870
    8000186c:	fb8fe06f          	jal	x0,0x80000024
    80001870:	00100513          	addi	x10,x0,1
    80001874:	03251513          	slli	x10,x10,0x32
    80001878:	fff54513          	xori	x10,x10,-1
    8000187c:	43755593          	srai	x11,x10,0x37
    80001880:	3eb0b023          	sd	x11,992(x1)
    80001884:	fff00293          	addi	x5,x0,-1
    80001888:	00b28463          	beq	x5,x11,0x80001890
    8000188c:	f98fe06f          	jal	x0,0x80000024
    80001890:	00100513          	addi	x10,x0,1
    80001894:	03351513          	slli	x10,x10,0x33
    80001898:	fff54513          	xori	x10,x10,-1
    8000189c:	40355593          	srai	x11,x10,0x3
    800018a0:	3eb0b423          	sd	x11,1000(x1)
    800018a4:	fff0029b          	addiw	x5,x0,-1
    800018a8:	03029293          	slli	x5,x5,0x30
    800018ac:	fff28293          	addi	x5,x5,-1
    800018b0:	00b28463          	beq	x5,x11,0x800018b8
    800018b4:	f70fe06f          	jal	x0,0x80000024
    800018b8:	00100513          	addi	x10,x0,1
    800018bc:	03451513          	slli	x10,x10,0x34
    800018c0:	fff54513          	xori	x10,x10,-1
    800018c4:	41355593          	srai	x11,x10,0x13
    800018c8:	3eb0b823          	sd	x11,1008(x1)
    800018cc:	fff0029b          	addiw	x5,x0,-1
    800018d0:	02129293          	slli	x5,x5,0x21
    800018d4:	fff28293          	addi	x5,x5,-1
    800018d8:	00b28463          	beq	x5,x11,0x800018e0
    800018dc:	f48fe06f          	jal	x0,0x80000024
    800018e0:	00800513          	addi	x10,x0,8
    800018e4:	42a55593          	srai	x11,x10,0x2a
    800018e8:	3eb0bc23          	sd	x11,1016(x1)
    800018ec:	00000293          	addi	x5,x0,0
    800018f0:	00b28463          	beq	x5,x11,0x800018f8
    800018f4:	f30fe06f          	jal	x0,0x80000024
    800018f8:	10000513          	addi	x10,x0,256
    800018fc:	41255593          	srai	x11,x10,0x12
    80001900:	40b0b023          	sd	x11,1024(x1)
    80001904:	00000293          	addi	x5,x0,0
    80001908:	00b28463          	beq	x5,x11,0x80001910
    8000190c:	f18fe06f          	jal	x0,0x80000024
    80001910:	0380006f          	jal	x0,0x80001948
    80001914:	1f813483          	ld	x9,504(x2)
    80001918:	20013303          	ld	x6,512(x2)
    8000191c:	00930333          	add	x6,x6,x9
    80001920:	00000337          	lui	x6,0x0
    80001924:	00030313          	addi	x6,x6,0 # 0x0
    80001928:	00b31313          	slli	x6,x6,0xb
    8000192c:	5d630313          	addi	x6,x6,1494
    80001930:	00b31313          	slli	x6,x6,0xb
    80001934:	43630313          	addi	x6,x6,1078
    80001938:	00a31313          	slli	x6,x6,0xa
    8000193c:	2d030313          	addi	x6,x6,720
    80001940:	fe64be23          	sd	x6,-4(x9)
    80001944:	0040006f          	jal	x0,0x80001948
    80001948:	00000513          	addi	x10,x0,0
    8000194c:	0100006f          	jal	x0,0x8000195c
	...
    8000195c:	00050513          	addi	x10,x10,0
    80001960:	00100073          	ebreak
    80001964:	0000006f          	jal	x0,0x80001964
    80001968:	ff010113          	addi	x2,x2,-16
    8000196c:	00000517          	auipc	x10,0x0
    80001970:	01c50513          	addi	x10,x10,28 # 0x80001988
    80001974:	00113423          	sd	x1,8(x2)
    80001978:	e98fe0ef          	jal	x1,0x80000010
    8000197c:	00050513          	addi	x10,x10,0
    80001980:	00100073          	ebreak
    80001984:	0000006f          	jal	x0,0x80001984
	...
    80002000:	cafe                	c.swsp	x31,84(x2)
    80002002:	babe                	c.fsdsp	f15,368(x2)
    80002004:	cafe                	c.swsp	x31,84(x2)
    80002006:	babe                	c.fsdsp	f15,368(x2)
    80002008:	cafe                	c.swsp	x31,84(x2)
    8000200a:	babe                	c.fsdsp	f15,368(x2)
    8000200c:	cafe                	c.swsp	x31,84(x2)
    8000200e:	babe                	c.fsdsp	f15,368(x2)
    80002010:	deadbeef          	jal	x29,0x7ffdd5fa
    80002014:	deadbeef          	jal	x29,0x7ffdd5fe
	...
    80003000:	b281                	c.j	0x80002940
    80003002:	e7d4                	c.sd	x13,136(x15)
    80003004:	a309                	c.j	0x80003506
    80003006:	6f5c                	c.ld	x15,152(x14)
    80003008:	deadbeef          	jal	x29,0x7ffde5f2
    8000300c:	deadbeef          	jal	x29,0x7ffde5f6
    80003010:	deadbeef          	jal	x29,0x7ffde5fa
    80003014:	deadbeef          	jal	x29,0x7ffde5fe
    80003018:	deadbeef          	jal	x29,0x7ffde602
    8000301c:	deadbeef          	jal	x29,0x7ffde606
    80003020:	deadbeef          	jal	x29,0x7ffde60a
    80003024:	deadbeef          	jal	x29,0x7ffde60e
    80003028:	deadbeef          	jal	x29,0x7ffde612
    8000302c:	deadbeef          	jal	x29,0x7ffde616
    80003030:	deadbeef          	jal	x29,0x7ffde61a
    80003034:	deadbeef          	jal	x29,0x7ffde61e
    80003038:	deadbeef          	jal	x29,0x7ffde622
    8000303c:	deadbeef          	jal	x29,0x7ffde626
    80003040:	deadbeef          	jal	x29,0x7ffde62a
    80003044:	deadbeef          	jal	x29,0x7ffde62e
    80003048:	deadbeef          	jal	x29,0x7ffde632
    8000304c:	deadbeef          	jal	x29,0x7ffde636
    80003050:	deadbeef          	jal	x29,0x7ffde63a
    80003054:	deadbeef          	jal	x29,0x7ffde63e
    80003058:	deadbeef          	jal	x29,0x7ffde642
    8000305c:	deadbeef          	jal	x29,0x7ffde646
    80003060:	deadbeef          	jal	x29,0x7ffde64a
    80003064:	deadbeef          	jal	x29,0x7ffde64e
    80003068:	deadbeef          	jal	x29,0x7ffde652
    8000306c:	deadbeef          	jal	x29,0x7ffde656
    80003070:	deadbeef          	jal	x29,0x7ffde65a
    80003074:	deadbeef          	jal	x29,0x7ffde65e
    80003078:	deadbeef          	jal	x29,0x7ffde662
    8000307c:	deadbeef          	jal	x29,0x7ffde666
    80003080:	deadbeef          	jal	x29,0x7ffde66a
    80003084:	deadbeef          	jal	x29,0x7ffde66e
    80003088:	deadbeef          	jal	x29,0x7ffde672
    8000308c:	deadbeef          	jal	x29,0x7ffde676
    80003090:	deadbeef          	jal	x29,0x7ffde67a
    80003094:	deadbeef          	jal	x29,0x7ffde67e
    80003098:	deadbeef          	jal	x29,0x7ffde682
    8000309c:	deadbeef          	jal	x29,0x7ffde686
    800030a0:	deadbeef          	jal	x29,0x7ffde68a
    800030a4:	deadbeef          	jal	x29,0x7ffde68e
    800030a8:	deadbeef          	jal	x29,0x7ffde692
    800030ac:	deadbeef          	jal	x29,0x7ffde696
    800030b0:	deadbeef          	jal	x29,0x7ffde69a
    800030b4:	deadbeef          	jal	x29,0x7ffde69e
    800030b8:	deadbeef          	jal	x29,0x7ffde6a2
    800030bc:	deadbeef          	jal	x29,0x7ffde6a6
    800030c0:	deadbeef          	jal	x29,0x7ffde6aa
    800030c4:	deadbeef          	jal	x29,0x7ffde6ae
    800030c8:	deadbeef          	jal	x29,0x7ffde6b2
    800030cc:	deadbeef          	jal	x29,0x7ffde6b6
    800030d0:	deadbeef          	jal	x29,0x7ffde6ba
    800030d4:	deadbeef          	jal	x29,0x7ffde6be
    800030d8:	deadbeef          	jal	x29,0x7ffde6c2
    800030dc:	deadbeef          	jal	x29,0x7ffde6c6
    800030e0:	deadbeef          	jal	x29,0x7ffde6ca
    800030e4:	deadbeef          	jal	x29,0x7ffde6ce
    800030e8:	deadbeef          	jal	x29,0x7ffde6d2
    800030ec:	deadbeef          	jal	x29,0x7ffde6d6
    800030f0:	deadbeef          	jal	x29,0x7ffde6da
    800030f4:	deadbeef          	jal	x29,0x7ffde6de
    800030f8:	deadbeef          	jal	x29,0x7ffde6e2
    800030fc:	deadbeef          	jal	x29,0x7ffde6e6
    80003100:	deadbeef          	jal	x29,0x7ffde6ea
    80003104:	deadbeef          	jal	x29,0x7ffde6ee
    80003108:	deadbeef          	jal	x29,0x7ffde6f2
    8000310c:	deadbeef          	jal	x29,0x7ffde6f6
    80003110:	deadbeef          	jal	x29,0x7ffde6fa
    80003114:	deadbeef          	jal	x29,0x7ffde6fe
    80003118:	deadbeef          	jal	x29,0x7ffde702
    8000311c:	deadbeef          	jal	x29,0x7ffde706
    80003120:	deadbeef          	jal	x29,0x7ffde70a
    80003124:	deadbeef          	jal	x29,0x7ffde70e
    80003128:	deadbeef          	jal	x29,0x7ffde712
    8000312c:	deadbeef          	jal	x29,0x7ffde716
    80003130:	deadbeef          	jal	x29,0x7ffde71a
    80003134:	deadbeef          	jal	x29,0x7ffde71e
    80003138:	deadbeef          	jal	x29,0x7ffde722
    8000313c:	deadbeef          	jal	x29,0x7ffde726
    80003140:	deadbeef          	jal	x29,0x7ffde72a
    80003144:	deadbeef          	jal	x29,0x7ffde72e
    80003148:	deadbeef          	jal	x29,0x7ffde732
    8000314c:	deadbeef          	jal	x29,0x7ffde736
    80003150:	deadbeef          	jal	x29,0x7ffde73a
    80003154:	deadbeef          	jal	x29,0x7ffde73e
    80003158:	deadbeef          	jal	x29,0x7ffde742
    8000315c:	deadbeef          	jal	x29,0x7ffde746
    80003160:	deadbeef          	jal	x29,0x7ffde74a
    80003164:	deadbeef          	jal	x29,0x7ffde74e
    80003168:	deadbeef          	jal	x29,0x7ffde752
    8000316c:	deadbeef          	jal	x29,0x7ffde756
    80003170:	deadbeef          	jal	x29,0x7ffde75a
    80003174:	deadbeef          	jal	x29,0x7ffde75e
    80003178:	deadbeef          	jal	x29,0x7ffde762
    8000317c:	deadbeef          	jal	x29,0x7ffde766
    80003180:	deadbeef          	jal	x29,0x7ffde76a
    80003184:	deadbeef          	jal	x29,0x7ffde76e
    80003188:	deadbeef          	jal	x29,0x7ffde772
    8000318c:	deadbeef          	jal	x29,0x7ffde776
    80003190:	deadbeef          	jal	x29,0x7ffde77a
    80003194:	deadbeef          	jal	x29,0x7ffde77e
    80003198:	deadbeef          	jal	x29,0x7ffde782
    8000319c:	deadbeef          	jal	x29,0x7ffde786
    800031a0:	deadbeef          	jal	x29,0x7ffde78a
    800031a4:	deadbeef          	jal	x29,0x7ffde78e
    800031a8:	deadbeef          	jal	x29,0x7ffde792
    800031ac:	deadbeef          	jal	x29,0x7ffde796
    800031b0:	deadbeef          	jal	x29,0x7ffde79a
    800031b4:	deadbeef          	jal	x29,0x7ffde79e
    800031b8:	deadbeef          	jal	x29,0x7ffde7a2
    800031bc:	deadbeef          	jal	x29,0x7ffde7a6
    800031c0:	deadbeef          	jal	x29,0x7ffde7aa
    800031c4:	deadbeef          	jal	x29,0x7ffde7ae
    800031c8:	deadbeef          	jal	x29,0x7ffde7b2
    800031cc:	deadbeef          	jal	x29,0x7ffde7b6
    800031d0:	deadbeef          	jal	x29,0x7ffde7ba
    800031d4:	deadbeef          	jal	x29,0x7ffde7be
    800031d8:	deadbeef          	jal	x29,0x7ffde7c2
    800031dc:	deadbeef          	jal	x29,0x7ffde7c6
    800031e0:	deadbeef          	jal	x29,0x7ffde7ca
    800031e4:	deadbeef          	jal	x29,0x7ffde7ce
    800031e8:	deadbeef          	jal	x29,0x7ffde7d2
    800031ec:	deadbeef          	jal	x29,0x7ffde7d6
    800031f0:	deadbeef          	jal	x29,0x7ffde7da
    800031f4:	deadbeef          	jal	x29,0x7ffde7de
    800031f8:	deadbeef          	jal	x29,0x7ffde7e2
    800031fc:	deadbeef          	jal	x29,0x7ffde7e6
    80003200:	deadbeef          	jal	x29,0x7ffde7ea
    80003204:	deadbeef          	jal	x29,0x7ffde7ee
    80003208:	deadbeef          	jal	x29,0x7ffde7f2
    8000320c:	deadbeef          	jal	x29,0x7ffde7f6
    80003210:	deadbeef          	jal	x29,0x7ffde7fa
    80003214:	deadbeef          	jal	x29,0x7ffde7fe
    80003218:	deadbeef          	jal	x29,0x7ffde802
    8000321c:	deadbeef          	jal	x29,0x7ffde806
    80003220:	deadbeef          	jal	x29,0x7ffde80a
    80003224:	deadbeef          	jal	x29,0x7ffde80e
    80003228:	deadbeef          	jal	x29,0x7ffde812
    8000322c:	deadbeef          	jal	x29,0x7ffde816
    80003230:	deadbeef          	jal	x29,0x7ffde81a
    80003234:	deadbeef          	jal	x29,0x7ffde81e
    80003238:	deadbeef          	jal	x29,0x7ffde822
    8000323c:	deadbeef          	jal	x29,0x7ffde826
    80003240:	deadbeef          	jal	x29,0x7ffde82a
    80003244:	deadbeef          	jal	x29,0x7ffde82e
    80003248:	deadbeef          	jal	x29,0x7ffde832
    8000324c:	deadbeef          	jal	x29,0x7ffde836
    80003250:	deadbeef          	jal	x29,0x7ffde83a
    80003254:	deadbeef          	jal	x29,0x7ffde83e
    80003258:	deadbeef          	jal	x29,0x7ffde842
    8000325c:	deadbeef          	jal	x29,0x7ffde846
    80003260:	deadbeef          	jal	x29,0x7ffde84a
    80003264:	deadbeef          	jal	x29,0x7ffde84e
    80003268:	deadbeef          	jal	x29,0x7ffde852
    8000326c:	deadbeef          	jal	x29,0x7ffde856
    80003270:	deadbeef          	jal	x29,0x7ffde85a
    80003274:	deadbeef          	jal	x29,0x7ffde85e
    80003278:	deadbeef          	jal	x29,0x7ffde862
    8000327c:	deadbeef          	jal	x29,0x7ffde866
    80003280:	deadbeef          	jal	x29,0x7ffde86a
    80003284:	deadbeef          	jal	x29,0x7ffde86e
    80003288:	deadbeef          	jal	x29,0x7ffde872
    8000328c:	deadbeef          	jal	x29,0x7ffde876
    80003290:	deadbeef          	jal	x29,0x7ffde87a
    80003294:	deadbeef          	jal	x29,0x7ffde87e
    80003298:	deadbeef          	jal	x29,0x7ffde882
    8000329c:	deadbeef          	jal	x29,0x7ffde886
    800032a0:	deadbeef          	jal	x29,0x7ffde88a
    800032a4:	deadbeef          	jal	x29,0x7ffde88e
    800032a8:	deadbeef          	jal	x29,0x7ffde892
    800032ac:	deadbeef          	jal	x29,0x7ffde896
    800032b0:	deadbeef          	jal	x29,0x7ffde89a
    800032b4:	deadbeef          	jal	x29,0x7ffde89e
    800032b8:	deadbeef          	jal	x29,0x7ffde8a2
    800032bc:	deadbeef          	jal	x29,0x7ffde8a6
    800032c0:	deadbeef          	jal	x29,0x7ffde8aa
    800032c4:	deadbeef          	jal	x29,0x7ffde8ae
    800032c8:	deadbeef          	jal	x29,0x7ffde8b2
    800032cc:	deadbeef          	jal	x29,0x7ffde8b6
    800032d0:	deadbeef          	jal	x29,0x7ffde8ba
    800032d4:	deadbeef          	jal	x29,0x7ffde8be
    800032d8:	deadbeef          	jal	x29,0x7ffde8c2
    800032dc:	deadbeef          	jal	x29,0x7ffde8c6
    800032e0:	deadbeef          	jal	x29,0x7ffde8ca
    800032e4:	deadbeef          	jal	x29,0x7ffde8ce
    800032e8:	deadbeef          	jal	x29,0x7ffde8d2
    800032ec:	deadbeef          	jal	x29,0x7ffde8d6
    800032f0:	deadbeef          	jal	x29,0x7ffde8da
    800032f4:	deadbeef          	jal	x29,0x7ffde8de
    800032f8:	deadbeef          	jal	x29,0x7ffde8e2
    800032fc:	deadbeef          	jal	x29,0x7ffde8e6
    80003300:	deadbeef          	jal	x29,0x7ffde8ea
    80003304:	deadbeef          	jal	x29,0x7ffde8ee
    80003308:	deadbeef          	jal	x29,0x7ffde8f2
    8000330c:	deadbeef          	jal	x29,0x7ffde8f6
    80003310:	deadbeef          	jal	x29,0x7ffde8fa
    80003314:	deadbeef          	jal	x29,0x7ffde8fe
    80003318:	deadbeef          	jal	x29,0x7ffde902
    8000331c:	deadbeef          	jal	x29,0x7ffde906
    80003320:	deadbeef          	jal	x29,0x7ffde90a
    80003324:	deadbeef          	jal	x29,0x7ffde90e
    80003328:	deadbeef          	jal	x29,0x7ffde912
    8000332c:	deadbeef          	jal	x29,0x7ffde916
    80003330:	deadbeef          	jal	x29,0x7ffde91a
    80003334:	deadbeef          	jal	x29,0x7ffde91e
    80003338:	deadbeef          	jal	x29,0x7ffde922
    8000333c:	deadbeef          	jal	x29,0x7ffde926
    80003340:	deadbeef          	jal	x29,0x7ffde92a
    80003344:	deadbeef          	jal	x29,0x7ffde92e
    80003348:	deadbeef          	jal	x29,0x7ffde932
    8000334c:	deadbeef          	jal	x29,0x7ffde936
    80003350:	deadbeef          	jal	x29,0x7ffde93a
    80003354:	deadbeef          	jal	x29,0x7ffde93e
    80003358:	deadbeef          	jal	x29,0x7ffde942
    8000335c:	deadbeef          	jal	x29,0x7ffde946
    80003360:	deadbeef          	jal	x29,0x7ffde94a
    80003364:	deadbeef          	jal	x29,0x7ffde94e
    80003368:	deadbeef          	jal	x29,0x7ffde952
    8000336c:	deadbeef          	jal	x29,0x7ffde956
    80003370:	deadbeef          	jal	x29,0x7ffde95a
    80003374:	deadbeef          	jal	x29,0x7ffde95e
    80003378:	deadbeef          	jal	x29,0x7ffde962
    8000337c:	deadbeef          	jal	x29,0x7ffde966
    80003380:	deadbeef          	jal	x29,0x7ffde96a
    80003384:	deadbeef          	jal	x29,0x7ffde96e
    80003388:	deadbeef          	jal	x29,0x7ffde972
    8000338c:	deadbeef          	jal	x29,0x7ffde976
    80003390:	deadbeef          	jal	x29,0x7ffde97a
    80003394:	deadbeef          	jal	x29,0x7ffde97e
    80003398:	deadbeef          	jal	x29,0x7ffde982
    8000339c:	deadbeef          	jal	x29,0x7ffde986
    800033a0:	deadbeef          	jal	x29,0x7ffde98a
    800033a4:	deadbeef          	jal	x29,0x7ffde98e
    800033a8:	deadbeef          	jal	x29,0x7ffde992
    800033ac:	deadbeef          	jal	x29,0x7ffde996
    800033b0:	deadbeef          	jal	x29,0x7ffde99a
    800033b4:	deadbeef          	jal	x29,0x7ffde99e
    800033b8:	deadbeef          	jal	x29,0x7ffde9a2
    800033bc:	deadbeef          	jal	x29,0x7ffde9a6
    800033c0:	deadbeef          	jal	x29,0x7ffde9aa
    800033c4:	deadbeef          	jal	x29,0x7ffde9ae
    800033c8:	deadbeef          	jal	x29,0x7ffde9b2
    800033cc:	deadbeef          	jal	x29,0x7ffde9b6
    800033d0:	deadbeef          	jal	x29,0x7ffde9ba
    800033d4:	deadbeef          	jal	x29,0x7ffde9be
    800033d8:	deadbeef          	jal	x29,0x7ffde9c2
    800033dc:	deadbeef          	jal	x29,0x7ffde9c6
    800033e0:	deadbeef          	jal	x29,0x7ffde9ca
    800033e4:	deadbeef          	jal	x29,0x7ffde9ce
    800033e8:	deadbeef          	jal	x29,0x7ffde9d2
    800033ec:	deadbeef          	jal	x29,0x7ffde9d6
    800033f0:	deadbeef          	jal	x29,0x7ffde9da
    800033f4:	deadbeef          	jal	x29,0x7ffde9de
    800033f8:	deadbeef          	jal	x29,0x7ffde9e2
    800033fc:	deadbeef          	jal	x29,0x7ffde9e6
    80003400:	deadbeef          	jal	x29,0x7ffde9ea
    80003404:	deadbeef          	jal	x29,0x7ffde9ee
    80003408:	deadbeef          	jal	x29,0x7ffde9f2
    8000340c:	deadbeef          	jal	x29,0x7ffde9f6
    80003410:	deadbeef          	jal	x29,0x7ffde9fa
    80003414:	deadbeef          	jal	x29,0x7ffde9fe
    80003418:	deadbeef          	jal	x29,0x7ffdea02
    8000341c:	deadbeef          	jal	x29,0x7ffdea06
    80003420:	deadbeef          	jal	x29,0x7ffdea0a
    80003424:	deadbeef          	jal	x29,0x7ffdea0e
    80003428:	deadbeef          	jal	x29,0x7ffdea12
    8000342c:	deadbeef          	jal	x29,0x7ffdea16
    80003430:	deadbeef          	jal	x29,0x7ffdea1a
    80003434:	deadbeef          	jal	x29,0x7ffdea1e
    80003438:	deadbeef          	jal	x29,0x7ffdea22
    8000343c:	deadbeef          	jal	x29,0x7ffdea26
    80003440:	deadbeef          	jal	x29,0x7ffdea2a
    80003444:	deadbeef          	jal	x29,0x7ffdea2e
    80003448:	deadbeef          	jal	x29,0x7ffdea32
    8000344c:	deadbeef          	jal	x29,0x7ffdea36
    80003450:	deadbeef          	jal	x29,0x7ffdea3a
    80003454:	deadbeef          	jal	x29,0x7ffdea3e
    80003458:	deadbeef          	jal	x29,0x7ffdea42
    8000345c:	deadbeef          	jal	x29,0x7ffdea46
    80003460:	deadbeef          	jal	x29,0x7ffdea4a
    80003464:	deadbeef          	jal	x29,0x7ffdea4e
    80003468:	deadbeef          	jal	x29,0x7ffdea52
    8000346c:	deadbeef          	jal	x29,0x7ffdea56
    80003470:	deadbeef          	jal	x29,0x7ffdea5a
    80003474:	deadbeef          	jal	x29,0x7ffdea5e
    80003478:	deadbeef          	jal	x29,0x7ffdea62
    8000347c:	deadbeef          	jal	x29,0x7ffdea66
    80003480:	deadbeef          	jal	x29,0x7ffdea6a
    80003484:	deadbeef          	jal	x29,0x7ffdea6e
    80003488:	deadbeef          	jal	x29,0x7ffdea72
    8000348c:	deadbeef          	jal	x29,0x7ffdea76
    80003490:	deadbeef          	jal	x29,0x7ffdea7a
    80003494:	deadbeef          	jal	x29,0x7ffdea7e
    80003498:	deadbeef          	jal	x29,0x7ffdea82
    8000349c:	deadbeef          	jal	x29,0x7ffdea86
    800034a0:	deadbeef          	jal	x29,0x7ffdea8a
    800034a4:	deadbeef          	jal	x29,0x7ffdea8e
    800034a8:	deadbeef          	jal	x29,0x7ffdea92
    800034ac:	deadbeef          	jal	x29,0x7ffdea96
    800034b0:	deadbeef          	jal	x29,0x7ffdea9a
    800034b4:	deadbeef          	jal	x29,0x7ffdea9e
    800034b8:	deadbeef          	jal	x29,0x7ffdeaa2
    800034bc:	deadbeef          	jal	x29,0x7ffdeaa6
    800034c0:	deadbeef          	jal	x29,0x7ffdeaaa
    800034c4:	deadbeef          	jal	x29,0x7ffdeaae
    800034c8:	b281                	c.j	0x80002e08
    800034ca:	e7d4                	c.sd	x13,136(x15)
    800034cc:	a309                	c.j	0x800039ce
    800034ce:	6f5c                	c.ld	x15,152(x14)
