
bin/riscv-arch-test/sraiw-riscv64-nemu.bin:     file format binary

Contents of section .data:
 80000000 13040000 17c10000 1301c1ff ef10c07b  ...............{
 80000010 ef000003 13051000 ef10407a 13050000  ..........@z....
 80000020 67800000 13051000 ef104079 67800000  g.........@yg...
 80000030 00000000 00000000 00000000 00000000  ................
 80000040 b7c0edfe 9380d0ea 9390b000 9380707f  ..............p.
 80000050 9390b000 9380f036 9390a000 9380d02a  .......6.......*
 80000060 37e176ff 130161f5 1311b100 1301b17f  7.v...a.........
 80000070 1311b100 1301715b 1311a100 13016135  ......q[......a5
 80000080 b771bb7f 9381b1fa 9391b100 9381d13f  .q.............?
 80000090 9391b100 9381b16d 9391a100 9381b13a  .......m.......:
 800000a0 37b2ddbf 1302527d 1312b200 1302e25f  7.....R}......._
 800000b0 1312b200 1302d276 1312a200 1302523d  .......v......R=
 800000c0 b7e2eedf 9382a2be 9392b200 9382f26f  ...............o
 800000d0 9392b200 9382623b 9392a200 9382a23e  ......b;.......>
 800000e0 3773f76f 130353df 1313b300 1303f337  7s.o..S........7
 800000f0 1313b300 1303b35d 1313a300 1303531f  .......]......S.
 80000100 b7b3fbb7 9383a36f 9393b300 9383f35b  .......o.......[
 80000110 9393b300 9383d36e 9393a300 9383a32f  .......n......./
 80000120 37e4fd5b 1304d4b7 1314b400 1304f42d  7..[...........-
 80000130 1314b400 13046477 1314a400 1304d437  ......dw.......7
 80000140 b7f4fead 9384e4db 9394b400 9384f456  ...............V
 80000150 9394b400 9384b47b 9394a400 9384e41b  .......{........
 80000160 3775ff56 1305f56d 1315b500 1305752b  7u.V...m......u+
 80000170 1315b500 1305d57d 1315a500 1305f52d  .......}.......-
 80000180 b7c57fab 9385f5b6 9395b500 9385b555  ...............U
 80000190 9395b500 9385e57e 9395a500 9385f536  .......~.......6
 800001a0 37e6bfd5 130676db 1316b600 1306d66a  7.....v........j
 800001b0 1316b600 1306767f 1316a600 1306761b  ......v.......v.
 800001c0 b7f6dfea 9386b6ed 9396b600 93866675  ..............fu
 800001d0 9396b600 9386b67f 9396a600 9386b62d  ...............-
 800001e0 37f76ff5 1307d776 1317b700 1307b77a  7.o....v.......z
 800001f0 1317b700 1307d73f 1317a700 1307d736  .......?.......6
 80000200 b707b8fa 938767bb 9397b700 9387577d  ......g.......W}
 80000210 9397b700 9387e75f 9397a700 9387673b  ......._......g;
 80000220 37085c7d 1308b8dd 1318b800 1308a83e  7.\}...........>
 80000230 1318b800 1308f86f 1318a800 1308b81d  .......o........
 80000240 b708aebe 9388d8ee 9398b800 9388585f  ..............X_
 80000250 9398b800 9388f837 9398a800 9388d82e  .......7........
 80000260 370957df 130969f7 1319b900 1309a96f  7.W...i........o
 80000270 1319b900 1309f95b 1319a900 13096937  .......[......i7
 80000280 b789ab6f 9389b9fb 9399b900 9389d937  ...o...........7
 80000290 9399b900 9389f92d 9399a900 9389b93b  .......-.......;
 800002a0 37cad5b7 130adafd 131aba00 130aea5b  7..............[
 800002b0 131aba00 130afa56 131aaa00 130ada3d  .......V.......=
 800002c0 b7eaeadb 938aeafe 939aba00 938afa6d  ...............m
 800002d0 939aba00 938a7a2b 939aaa00 938aea3e  ......z+.......>
 800002e0 377bf56d 130b7bff 131bbb00 130bfb36  7{.m..{........6
 800002f0 131bbb00 130bbb55 131bab00 130b7b3f  .......U......{?
 80000300 b7bbfab6 938bbb7f 939bbb00 938b7b5b  ..............{[
 80000310 939bbb00 938bdb6a 939bab00 938bbb3f  .......j.......?
 80000320 376c7ddb 130cdcbf 131cbc00 130cbc6d  7l}............m
 80000330 131cbc00 130c6c75 131cac00 130cdc3f  ......lu.......?
 80000340 b7bcbeed 938cecdf 939cbc00 938cdc76  ...............v
 80000350 939cbc00 938cbc7a 939cac00 938cec1f  .......z........
 80000360 375ddf76 130dfd6f 131dbd00 130d6d3b  7].v...o......m;
 80000370 131dbd00 130d5d7d 131dad00 130dfd2f  ......]}......./
 80000380 b7bd6fbb 938dfdb7 939dbd00 938dbd5d  ..o............]
 80000390 939dbd00 938dad3e 939dad00 938dfd37  .......>.......7
 800003a0 37deb7dd 130efe5b 131ebe00 130ede6e  7......[.......n
 800003b0 131ebe00 130e5e5f 131eae00 130efe1b  ......^_........
 800003c0 b7fedbee 938efead 939ebe00 938e6e77  ..............nw
 800003d0 939ebe00 938eae6f 939eae00 938efe2d  .......o.......-
 800003e0 37ff6df7 130fff56 131fbf00 130fbf7b  7.m....V.......{
 800003f0 131fbf00 130fdf37 131faf00 130fff16  .......7........
 80000400 b70fb7fb 938f7fab 939fbf00 938fdf7d  ...............}
 80000410 939fbf00 938fef5b 939faf00 938f7f2b  .......[.......+
 80000420 17310000 130181be 13000000 13000000  .1..............
 80000430 13000000 13000000 13000000 13000000  ................
 80000440 9302f0df 9bd27241 23305100 1304f0ff  ......rA#0Q.....
 80000450 63045400 6ff01fbd 13061000 13160602  c.T.o...........
 80000460 1b5c1641 23348101 13040000 63048401  .\.A#4......c...
 80000470 6ff05fbb 130a1000 131a7a02 134afaff  o._.......z..J..
 80000480 1b590a40 23382101 1304f0ff 63042401  .Y.@#8!.....c.$.
 80000490 6ff05fb9 93071000 9397c702 1bd30740  o._............@
 800004a0 233c6100 13040000 63046400 6ff09fb7  #<a.....c.d.o...
 800004b0 930e60ff 9bd6fe41 2330d102 1304f0ff  ..`....A#0......
 800004c0 6304d400 6ff01fb6 130c1000 131ccc02  c...o...........
 800004d0 1b5ffc41 2334e103 13040000 6304e401  ._.A#4......c...
 800004e0 6ff05fb4 130e3000 1b583e40 23380103  o._...0..X>@#8..
 800004f0 13040000 63040401 6ff0dfb2 1308f0ff  ....c...o.......
 80000500 1318f803 9b541841 233c9102 13040000  .....T.A#<......
 80000510 63049400 6ff01fb1 130f0000 1b55ef40  c...o........U.@
 80000520 2330a104 13040000 6304a400 6ff09faf  #0......c...o...
 80000530 13000000 1b5ab041 23344105 13040000  .....Z.A#4A.....
 80000540 63044401 6ff01fae 930d1000 9bde8d40  c.D.o..........@
 80000550 2338d105 13040000 6304d401 6ff09fac  #8......c...o...
 80000560 93062000 1bddf640 233ca105 13040000  .. ....@#<......
 80000570 6304a401 6ff01fab 93034000 9bd8e341  c...o.....@....A
 80000580 23301107 13040000 63041401 6ff09fa9  #0......c...o...
 80000590 13078000 9b539740 23347106 13040000  .....S.@#4q.....
 800005a0 63047400 6ff01fa8 930b0001 9bd03b41  c.t.o.........;A
 800005b0 23381106 13040000 63041400 6ff09fa6  #8......c...o...
 800005c0 93010002 9bd51140 233cb106 13040001  .......@#<......
 800005d0 6304b400 6ff01fa5 93000004 9bdcd041  c...o..........A
 800005e0 23309109 13040000 63049401 6ff09fa3  #0......c...o...
 800005f0 13030008 1b57d341 2334e108 13040000  .....W.A#4......
 80000600 6304e400 6ff01fa2 130d0010 1b5bad40  c...o........[.@
 80000610 23386109 13040000 63046401 6ff09fa0  #8a.....c.d.o...
 80000620 93080020 9bdb7840 233c7109 13044000  ... ..x@#<q...@.
 80000630 63047401 6ff01f9f 930a0040 9bd1aa40  c.t.o......@...@
 80000640 2330310a 13041000 63043400 6ff09f9d  #01.....c.4.o...
 80000650 93051000 9395b500 1bd20540 2334410a  ...........@#4A.
 80000660 37140000 1b040480 63044400 6ff09f9b  7.......c.D.o...
 80000670 13091000 1319c900 1b5e4940 2338c10b  .........^I@#8..
 80000680 93010010 6384c101 6ff0df99 13021000  ....c...o.......
 80000690 1312d200 1b50d241 233c010a 93010000  .....P.A#<......
 800006a0 63840100 6ff01f98 13041000 1314e400  c...o...........
 800006b0 9b578440 2330f10c 93010004 6384f100  .W.@#0......c...
 800006c0 6ff05f96 13000000 13000000 13000000  o._.............
 800006d0 13000000 13000000 13000000 13000000  ................
 800006e0 97300000 9380009f 13000000 13000000  .0..............
 800006f0 13000000 13000000 13000000 13000000  ................
 80000700 13011000 1311f100 1b56d141 23b0c000  .........V.A#...
 80000710 93010000 6384c100 6ff0df90 130b1000  ....c...o.......
 80000720 131b0b01 9b5fcb40 23b4f001 93010001  ....._.@#.......
 80000730 6384f101 6ff01f8f 93091000 93991901  c...o...........
 80000740 9bdae940 23b85001 93018000 63845101  ...@#.P.....c.Q.
 80000750 6ff05f8d 930f1000 939f2f01 9bdd7f40  o._......./....@
 80000760 23bcb001 b7110000 9b810180 6384b101  #...........c...
 80000770 6ff05f8b 13051000 13153501 1b542540  o._.......5..T%@
 80000780 23b08002 b7010200 63848100 6ff09f89  #.......c...o...
 80000790 930c1000 939c4c01 9bd97c40 23b43003  ......L...|@#.0.
 800007a0 b7210000 63843101 6ff0df87 93041000  .!..c.1.o.......
 800007b0 93945401 1bd1b440 23b82002 93010040  ..T....@#. ....@
 800007c0 63842100 6ff01f86 13051000 13156501  c.!.o.........e.
 800007d0 9b55d541 23bcb002 93010000 6384b100  .U.A#.......c...
 800007e0 6ff05f84 13051000 13157501 9b55a540  o._.......u..U.@
 800007f0 23b0b004 b7210000 6384b100 6ff09f82  #....!..c...o...
 80000800 13051000 13158501 9b556540 23b4b004  .........Ue@#...
 80000810 b7010400 6384b100 6ff0df80 13051000  ....c...o.......
 80000820 13159501 9b556540 23b8b004 b7010800  .....Ue@#.......
 80000830 6384b100 6ff00fff 13051000 1315a501  c...o...........
 80000840 9b55b541 23bcb004 93010000 6384b100  .U.A#.......c...
 80000850 6ff04ffd 13051000 1315b501 9b55c540  o.O..........U.@
 80000860 23b0b006 b7810000 6384b100 6ff08ffb  #.......c...o...
 80000870 13051000 1315c501 9b555540 23b4b006  .........UU@#...
 80000880 b7018000 6384b100 6ff0cff9 13051000  ....c...o.......
 80000890 1315d501 9b553540 23b8b006 b7010004  .....U5@#.......
 800008a0 6384b100 6ff00ff8 13051000 1315e501  c...o...........
 800008b0 9b55b541 23bcb006 93018000 6384b100  .U.A#.......c...
 800008c0 6ff04ff6 13051000 1315f501 9b55b540  o.O..........U.@
 800008d0 23b0b008 b701f0ff 6384b100 6ff08ff4  #.......c...o...
 800008e0 13051000 13151502 9b555541 23b4b008  .........UUA#...
 800008f0 93010000 6384b100 6ff0cff2 13051000  ....c...o.......
 80000900 13152502 9b558540 23b8b008 93010000  ..%..U.@#.......
 80000910 6384b100 6ff00ff1 13051000 13153502  c...o.........5.
 80000920 9b55c540 23bcb008 93010000 6384b100  .U.@#.......c...
 80000930 6ff04fef 13051000 13154502 9b551540  o.O.......E..U.@
 80000940 23b0b00a 93010000 6384b100 6ff08fed  #.......c...o...
 80000950 13051000 13155502 9b55f541 23b4b00a  ......U..U.A#...
 80000960 93010000 6384b100 6ff0cfeb 13051000  ....c...o.......
 80000970 13156502 9b55d540 23b8b00a 93010000  ..e..U.@#.......
 80000980 6384b100 6ff00fea 13051000 13157502  c...o.........u.
 80000990 9b55f540 23bcb00a 93010000 6384b100  .U.@#.......c...
 800009a0 6ff04fe8 13051000 13158502 9b554540  o.O..........UE@
 800009b0 23b0b00c 93010000 6384b100 6ff08fe6  #.......c...o...
 800009c0 13051000 13159502 9b55c540 23b4b00c  .........U.@#...
 800009d0 93010000 6384b100 6ff0cfe4 13051000  ....c...o.......
 800009e0 1315a502 9b557540 23b8b00c 93010000  .....Uu@#.......
 800009f0 6384b100 6ff00fe3 13051000 1315b502  c...o...........
 80000a00 9b55b541 23bcb00c 93010000 6384b100  .U.A#.......c...
 80000a10 6ff04fe1 13051000 1315d502 9b557541  o.O..........UuA
 80000a20 23b0b00e 93010000 6384b100 6ff08fdf  #.......c...o...
 80000a30 13051000 1315e502 9b551540 23b4b00e  .........U.@#...
 80000a40 93010000 6384b100 6ff0cfdd 13051000  ....c...o.......
 80000a50 1315f502 9b55c540 23b8b00e 93010000  .....U.@#.......
 80000a60 6384b100 6ff00fdc 13051000 13150503  c...o...........
 80000a70 9b552541 23bcb00e 93010000 6384b100  .U%A#.......c...
 80000a80 6ff04fda 13051000 13151503 9b551540  o.O..........U.@
 80000a90 23b0b010 93010000 6384b100 6ff08fd8  #.......c...o...
 80000aa0 13051000 13152503 9b559540 23b4b010  ......%..U.@#...
 80000ab0 93010000 6384b100 6ff0cfd6 13051000  ....c...o.......
 80000ac0 13153503 9b55e541 23b8b010 93010000  ..5..U.A#.......
 80000ad0 6384b100 6ff00fd5 13051000 13154503  c...o.........E.
 80000ae0 9b559540 23bcb010 93010000 6384b100  .U.@#.......c...
 80000af0 6ff04fd3 13051000 13155503 9b558540  o.O.......U..U.@
 80000b00 23b0b012 93010000 6384b100 6ff08fd1  #.......c...o...
 80000b10 13051000 13156503 9b55b541 23b4b012  ......e..U.A#...
 80000b20 93010000 6384b100 6ff0cfcf 13051000  ....c...o.......
 80000b30 13157503 9b55c540 23b8b012 93010000  ..u..U.@#.......
 80000b40 6384b100 6ff00fce 13051000 13158503  c...o...........
 80000b50 9b558540 23bcb012 93010000 6384b100  .U.@#.......c...
 80000b60 6ff04fcc 13051000 13159503 9b555540  o.O..........UU@
 80000b70 23b0b014 93010000 6384b100 6ff08fca  #.......c...o...
 80000b80 13051000 1315a503 9b550541 23b4b014  .........U.A#...
 80000b90 93010000 6384b100 6ff0cfc8 13051000  ....c...o.......
 80000ba0 1315b503 9b55b540 23b8b014 93010000  .....U.@#.......
 80000bb0 6384b100 6ff00fc7 13051000 1315c503  c...o...........
 80000bc0 9b55d541 23bcb014 93010000 6384b100  .U.A#.......c...
 80000bd0 6ff04fc5 13051000 1315d503 9b55f540  o.O..........U.@
 80000be0 23b0b016 93010000 6384b100 6ff08fc3  #.......c...o...
 80000bf0 13051000 1315e503 9b555540 23b4b016  .........UU@#...
 80000c00 93010000 6384b100 6ff0cfc1 1305e0ff  ....c...o.......
 80000c10 9b557541 23b8b016 9301f0ff 6384b100  .UuA#.......c...
 80000c20 6ff04fc0 1305d0ff 9b551541 23bcb016  o.O......U.A#...
 80000c30 9301f0ff 6384b100 6ff0cfbe 1305b0ff  ....c...o.......
 80000c40 9b552540 23b0b018 9301e0ff 6384b100  .U%@#.......c...
 80000c50 6ff04fbd 130570ff 9b55f541 23b4b018  o.O...p..U.A#...
 80000c60 9301f0ff 6384b100 6ff0cfbb 1305f0fe  ....c...o.......
 80000c70 9b553541 23b8b018 9301f0ff 6384b100  .U5A#.......c...
 80000c80 6ff04fba 1305f0fd 9b55c540 23bcb018  o.O......U.@#...
 80000c90 9301f0ff 6384b100 6ff0cfb8 1305f0fb  ....c...o.......
 80000ca0 9b556540 23b0b01a 9301e0ff 6384b100  .Ue@#.......c...
 80000cb0 6ff04fb7 1305f0f7 9b555540 23b4b01a  o.O......UU@#...
 80000cc0 9301b0ff 6384b100 6ff0cfb5 1305f0ef  ....c...o.......
 80000cd0 9b556540 23b8b01a 9301b0ff 6384b100  .Ue@#.......c...
 80000ce0 6ff04fb4 1305f0bf 9b55f541 23bcb01a  o.O......U.A#...
 80000cf0 9301f0ff 6384b100 6ff0cfb2 13051000  ....c...o.......
 80000d00 1315b500 1345f5ff 9b55b541 23b0b01c  .....E...U.A#...
 80000d10 9301f0ff 6384b100 6ff0cfb0 13051000  ....c...o.......
 80000d20 1315c500 1345f5ff 9b55c540 23b4b01c  .....E...U.@#...
 80000d30 9301e0ff 6384b100 6ff0cfae 13051000  ....c...o.......
 80000d40 1315d500 1345f5ff 9b55e541 23b8b01c  .....E...U.A#...
 80000d50 9301f0ff 6384b100 6ff0cfac 13051000  ....c...o.......
 80000d60 1315e500 1345f5ff 9b556540 23bcb01c  .....E...Ue@#...
 80000d70 9301f0ef 6384b100 6ff0cfaa 13051000  ....c...o.......
 80000d80 1315f500 1345f5ff 9b55a540 23b0b01e  .....E...U.@#...
 80000d90 9301f0fd 6384b100 6ff0cfa8 13051000  ....c...o.......
 80000da0 13150501 1345f5ff 9b553540 23b4b01e  .....E...U5@#...
 80000db0 b7e1ffff 9b81f1ff 6384b100 6ff08fa6  ........c...o...
 80000dc0 13051000 13151501 1345f5ff 9b551541  .........E...U.A
 80000dd0 23b8b01e 9301e0ff 6384b100 6ff08fa4  #.......c...o...
 80000de0 13051000 13152501 1345f5ff 9b554540  ......%..E...UE@
 80000df0 23bcb01e b7c1ffff 9b81f1ff 6384b100  #...........c...
 80000e00 6ff04fa2 13051000 13155503 1345f5ff  o.O.......U..E..
 80000e10 9b557540 23b0b020 9301f0ff 6384b100  .Uu@#.. ....c...
 80000e20 6ff04fa0 13051000 13156503 1345f5ff  o.O.......e..E..
 80000e30 9b55c540 23b4b020 9301f0ff 6384b100  .U.@#.. ....c...
 80000e40 6ff04f9e 13051000 13157503 1345f5ff  o.O.......u..E..
 80000e50 9b554540 23b8b020 9301f0ff 6384b100  .UE@#.. ....c...
 80000e60 6ff04f9c 13051000 13158503 1345f5ff  o.O..........E..
 80000e70 9b555540 23bcb020 9301f0ff 6384b100  .UU@#.. ....c...
 80000e80 6ff04f9a 13051000 13159503 1345f5ff  o.O..........E..
 80000e90 9b555540 23b0b022 9301f0ff 6384b100  .UU@#.."....c...
 80000ea0 6ff04f98 13051000 1315a503 1345f5ff  o.O..........E..
 80000eb0 9b55e540 23b4b022 9301f0ff 6384b100  .U.@#.."....c...
 80000ec0 6ff04f96 13051000 1315b503 1345f5ff  o.O..........E..
 80000ed0 9b556540 23b8b022 9301f0ff 6384b100  .Ue@#.."....c...
 80000ee0 6ff04f94 13051000 1315c503 1345f5ff  o.O..........E..
 80000ef0 9b552541 23bcb022 9301f0ff 6384b100  .U%A#.."....c...
 80000f00 6ff04f92 13051000 1315d503 1345f5ff  o.O..........E..
 80000f10 9b551540 23b0b024 9301f0ff 6384b100  .U.@#..$....c...
 80000f20 6ff04f90 13051000 1315e503 1345f5ff  o.O..........E..
 80000f30 9b55a540 23b4b024 9301f0ff 6384b100  .U.@#..$....c...
 80000f40 6ff04f8e 37555555 13055555 1315b500  o.O.7UUU..UU....
 80000f50 1305a52a 1315b500 13055555 1315a500  ...*......UU....
 80000f60 13055515 9b55f540 23b8b024 b7b10000  ..U..U.@#..$....
 80000f70 9b81a1aa 6384b100 6ff0cf8a 37b5aaaa  ....c...o...7...
 80000f80 1305a5aa 1315b500 13055555 1315b500  ..........UU....
 80000f90 1305a52a 1315a500 1305a52a 9b554540  ...*.......*.UE@
 80000fa0 23bcb024 b7b1aafa 9b81a1aa 6384b100  #..$........c...
 80000fb0 6ff04f87 13055000 9b552541 23b0b026  o.O...P..U%A#..&
 80000fc0 93010000 6384b100 6ff0cf85 37353333  ....c...o...7533
 80000fd0 13053533 1315b500 13059519 1315b500  ..53............
 80000fe0 1305c54c 1315a500 13053533 9b550541  ...L......53.U.A
 80000ff0 23b4b026 b7310000 9b813133 6384b100  #..&.1....13c...
 80001000 6ff04f82 37656666 13056566 1315b500  o.O.7eff..ef....
 80001010 13053533 1315b500 13059519 1315a500  ..53............
 80001020 13056526 9b559540 23b8b026 b7313300  ..e&.U.@#..&.13.
 80001030 9b813133 6384b100 6fe0dffe 37050000  ..13c...o...7...
 80001040 1305f5ff 1315b500 13057525 1315b500  ..........u%....
 80001050 1305356c 1315a500 1305d50c 9b550541  ..5l.........U.A
 80001060 23bcb026 b7510000 9b81b1af 6384b100  #..&.Q......c...
 80001070 6fe05ffb 37050000 13050500 1315b500  o._.7...........
 80001080 1305855a 1315b500 1305c513 1315a500  ...Z............
 80001090 13053533 9b557540 23b0b028 b7116aff  ..53.Uu@#..(..j.
 800010a0 9b81619e 6384b100 6fe0dff7 37555555  ..a.c...o...7UUU
 800010b0 13055555 1315b500 1305a52a 1315b500  ..UU.......*....
 800010c0 13055555 1315a500 13054515 9b55d541  ..UU......E..U.A
 800010d0 23b4b028 93012000 6384b100 6fe09ff4  #..(.. .c...o...
 800010e0 37353333 13053533 1315b500 13059519  7533..53........
 800010f0 1315b500 1305c54c 1315a500 13052533  .......L......%3
 80001100 9b55e540 23b8b028 b7d10000 9b81c1cc  .U.@#..(........
 80001110 6384b100 6fe01ff1 37656666 13056566  c...o...7eff..ef
 80001120 1315b500 13053533 1315b500 13059519  ......53........
 80001130 1315a500 13055526 9b558540 23bcb028  ......U&.U.@#..(
 80001140 b7616600 9b816166 6384b100 6fe09fed  .af...afc...o...
 80001150 37050000 13050500 1315b500 1305855a  7..............Z
 80001160 1315b500 1305c513 1315a500 13052533  ..............%3
 80001170 9b55c540 23b0b02a b751fbff 9b81f104  .U.@#..*.Q......
 80001180 6384b100 6fe01fea 37555555 13055555  c...o...7UUU..UU
 80001190 1315b500 1305a52a 1315b500 13055555  .......*......UU
 800011a0 1315a500 13056515 9b556540 23b4b02a  ......e..Ue@#..*
 800011b0 b7515501 9b815155 6384b100 6fe09fe6  .QU...QUc...o...
 800011c0 37b5aaaa 1305a5aa 1315b500 13055555  7.............UU
 800011d0 1315b500 1305a52a 1315a500 1305b52a  .......*.......*
 800011e0 9b55b541 23b8b02a 930150ff 6384b100  .U.A#..*..P.c...
 800011f0 6fe05fe3 13056000 9b55b540 23bcb02a  o._...`..U.@#..*
 80001200 93010000 6384b100 6fe0dfe1 37353333  ....c...o...7533
 80001210 13053533 1315b500 13059519 1315b500  ..53............
 80001220 1305c54c 1315a500 13054533 9b55d541  ...L......E3.U.A
 80001230 23b0b02c 93011000 6384b100 6fe09fde  #..,....c...o...
 80001240 37656666 13056566 1315b500 13053533  7eff..ef......53
 80001250 1315b500 13059519 1315a500 13057526  ..............u&
 80001260 9b556540 23b4b02c b7a19901 9b819199  .Ue@#..,........
 80001270 6384b100 6fe01fdb 37050000 1305f5ff  c...o...7.......
 80001280 1315b500 13057525 1315b500 1305356c  ......u%......5l
 80001290 1315a500 1305e50c 9b559540 23b8b02c  .........U.@#..,
 800012a0 b7812500 9b8161d8 6384b100 6fe09fd7  ..%...a.c...o...
 800012b0 37050000 13050500 1315b500 1305855a  7..............Z
 800012c0 1315b500 1305c513 1315a500 13054533  ..............E3
 800012d0 9b55d541 23bcb02c 9301d0ff 6384b100  .U.A#..,....c...
 800012e0 6fe05fd4 13051000 13153501 1345f5ff  o._.......5..E..
 800012f0 9b55f541 23b0b02e 9301f0ff 6384b100  .U.A#.......c...
 80001300 6fe05fd2 13051000 13154501 1345f5ff  o._.......E..E..
 80001310 9b556540 23b4b02e b7c1ffff 9b81f1ff  .Ue@#...........
 80001320 6384b100 6fe01fd0 13051000 13155501  c...o.........U.
 80001330 1345f5ff 9b552540 23b8b02e b701f8ff  .E...U%@#.......
 80001340 9b81f1ff 6384b100 6fe0dfcd 13051000  ....c...o.......
 80001350 13156501 1345f5ff 9b55f541 23bcb02e  ..e..E...U.A#...
 80001360 9301f0ff 6384b100 6fe0dfcb 13051000  ....c...o.......
 80001370 13157501 1345f5ff 9b554540 23b0b030  ..u..E...UE@#..0
 80001380 b701f8ff 9b81f1ff 6384b100 6fe09fc9  ........c...o...
 80001390 13051000 13158501 1345f5ff 9b55d541  .........E...U.A
 800013a0 23b4b030 9301f0ff 6384b100 6fe09fc7  #..0....c...o...
 800013b0 13051000 13159501 1345f5ff 9b550541  .........E...U.A
 800013c0 23b8b030 9301f0df 6384b100 6fe09fc5  #..0....c...o...
 800013d0 13051000 1315a501 1345f5ff 9b557540  .........E...Uu@
 800013e0 23bcb030 b701f8ff 9b81f1ff 6384b100  #..0........c...
 800013f0 6fe05fc3 13051000 1315b501 1345f5ff  o._..........E..
 80001400 9b553540 23b0b032 b70100ff 9b81f1ff  .U5@#..2........
 80001410 6384b100 6fe01fc1 13051000 1315c501  c...o...........
 80001420 1345f5ff 9b554540 23b4b032 b70100ff  .E...UE@#..2....
 80001430 9b81f1ff 6384b100 6fe0dfbe 13051000  ....c...o.......
 80001440 1315d501 1345f5ff 9b556540 23b8b032  .....E...Ue@#..2
 80001450 b70180ff 9b81f1ff 6384b100 6fe09fbc  ........c...o...
 80001460 13051000 1315e501 1345f5ff 9b55e540  .........E...U.@
 80001470 23bcb032 b701ffff 9b81f1ff 6384b100  #..2........c...
 80001480 6fe05fba 13051000 1315f501 1345f5ff  o._..........E..
 80001490 9b55b540 23b0b034 b7011000 9b81f1ff  .U.@#..4........
 800014a0 6384b100 6fe01fb8 13051000 13150502  c...o...........
 800014b0 1345f5ff 9b552541 23b4b034 9301f0ff  .E...U%A#..4....
 800014c0 6384b100 6fe01fb6 13051000 13151502  c...o...........
 800014d0 1345f5ff 9b551541 23b8b034 9301f0ff  .E...U.A#..4....
 800014e0 6384b100 6fe01fb4 13051000 13152502  c...o.........%.
 800014f0 1345f5ff 9b55f540 23bcb034 9301f0ff  .E...U.@#..4....
 80001500 6384b100 6fe01fb2 13051000 13153502  c...o.........5.
 80001510 1345f5ff 9b55c540 23b0b036 9301f0ff  .E...U.@#..6....
 80001520 6384b100 6fe01fb0 13051000 13154502  c...o.........E.
 80001530 1345f5ff 9b557540 23b4b036 9301f0ff  .E...Uu@#..6....
 80001540 6384b100 6fe01fae 13051000 13155502  c...o.........U.
 80001550 1345f5ff 9b55a540 23b8b036 9301f0ff  .E...U.@#..6....
 80001560 6384b100 6fe01fac 13051000 13156502  c...o.........e.
 80001570 1345f5ff 9b55d541 23bcb036 9301f0ff  .E...U.A#..6....
 80001580 6384b100 6fe01faa 13051000 13158502  c...o...........
 80001590 1345f5ff 9b558540 23b0b038 9301f0ff  .E...U.@#..8....
 800015a0 6384b100 6fe01fa8 13051000 13159502  c...o...........
 800015b0 1345f5ff 9b554540 23b4b038 9301f0ff  .E...UE@#..8....
 800015c0 6384b100 6fe01fa6 13051000 1315a502  c...o...........
 800015d0 1345f5ff 9b551541 23b8b038 9301f0ff  .E...U.A#..8....
 800015e0 6384b100 6fe01fa4 13051000 1315b502  c...o...........
 800015f0 1345f5ff 9b55f541 23bcb038 9301f0ff  .E...U.A#..8....
 80001600 6384b100 6fe01fa2 13051000 1315c502  c...o...........
 80001610 1345f5ff 9b55b541 23b0b03a 9301f0ff  .E...U.A#..:....
 80001620 6384b100 6fe01fa0 13051000 1315d502  c...o...........
 80001630 1345f5ff 9b55d541 23b4b03a 9301f0ff  .E...U.A#..:....
 80001640 6384b100 6fe01f9e 13051000 1315e502  c...o...........
 80001650 1345f5ff 9b554540 23b8b03a 9301f0ff  .E...UE@#..:....
 80001660 6384b100 6fe01f9c 13051000 1315f502  c...o...........
 80001670 1345f5ff 9b551540 23bcb03a 9301f0ff  .E...U.@#..:....
 80001680 6384b100 6fe01f9a 13051000 13150503  c...o...........
 80001690 1345f5ff 9b55e540 23b0b03c 9301f0ff  .E...U.@#..<....
 800016a0 6384b100 6fe01f98 13051000 13151503  c...o...........
 800016b0 1345f5ff 9b55d540 23b4b03c 9301f0ff  .E...U.@#..<....
 800016c0 6384b100 6fe01f96 13051000 13152503  c...o.........%.
 800016d0 1345f5ff 9b552540 23b8b03c 9301f0ff  .E...U%@#..<....
 800016e0 6384b100 6fe01f94 13051000 13153503  c...o.........5.
 800016f0 1345f5ff 9b55d541 23bcb03c 9301f0ff  .E...U.A#..<....
 80001700 6384b100 6fe01f92 13051000 13154503  c...o.........E.
 80001710 1345f5ff 9b55f540 23b0b03e 9301f0ff  .E...U.@#..>....
 80001720 6384b100 6fe01f90 1305f0ff 13551500  c...o........U..
 80001730 9b55b541 23b4b03e 9301f0ff 6384b100  .U.A#..>....c...
 80001740 6fe05f8e 13051000 1315d500 9b55d541  o._..........U.A
 80001750 23b8b03e 93010000 6384b100 6fe09f8c  #..>....c...o...
 80001760 6f008003 8334811f 03330120 33039300  o....4...3. 3...
 80001770 37030000 13030300 1313b300 1303635d  7.............c]
 80001780 1313b300 13036343 1313a300 1303032d  ......cC.......-
 80001790 23be64fe 6f004000 13050000 6f000002  #.d.o.@.....o...
 800017a0 00000000 00000000 00000000 00000000  ................
 800017b0 00000000 00000000 00000000 13050500  ................
 800017c0 73001000 6f000000 130101ff 17050000  s...o...........
 800017d0 1305c501 23341100 efe09f83 13050500  ....#4..........
 800017e0 73001000 6f000000 00000000 00000000  s...o...........
 800017f0 00000000 00000000 00000000 00000000  ................
 80001800 00000000 00000000 00000000 00000000  ................
 80001810 00000000 00000000 00000000 00000000  ................
 80001820 00000000 00000000 00000000 00000000  ................
 80001830 00000000 00000000 00000000 00000000  ................
 80001840 00000000 00000000 00000000 00000000  ................
 80001850 00000000 00000000 00000000 00000000  ................
 80001860 00000000 00000000 00000000 00000000  ................
 80001870 00000000 00000000 00000000 00000000  ................
 80001880 00000000 00000000 00000000 00000000  ................
 80001890 00000000 00000000 00000000 00000000  ................
 800018a0 00000000 00000000 00000000 00000000  ................
 800018b0 00000000 00000000 00000000 00000000  ................
 800018c0 00000000 00000000 00000000 00000000  ................
 800018d0 00000000 00000000 00000000 00000000  ................
 800018e0 00000000 00000000 00000000 00000000  ................
 800018f0 00000000 00000000 00000000 00000000  ................
 80001900 00000000 00000000 00000000 00000000  ................
 80001910 00000000 00000000 00000000 00000000  ................
 80001920 00000000 00000000 00000000 00000000  ................
 80001930 00000000 00000000 00000000 00000000  ................
 80001940 00000000 00000000 00000000 00000000  ................
 80001950 00000000 00000000 00000000 00000000  ................
 80001960 00000000 00000000 00000000 00000000  ................
 80001970 00000000 00000000 00000000 00000000  ................
 80001980 00000000 00000000 00000000 00000000  ................
 80001990 00000000 00000000 00000000 00000000  ................
 800019a0 00000000 00000000 00000000 00000000  ................
 800019b0 00000000 00000000 00000000 00000000  ................
 800019c0 00000000 00000000 00000000 00000000  ................
 800019d0 00000000 00000000 00000000 00000000  ................
 800019e0 00000000 00000000 00000000 00000000  ................
 800019f0 00000000 00000000 00000000 00000000  ................
 80001a00 00000000 00000000 00000000 00000000  ................
 80001a10 00000000 00000000 00000000 00000000  ................
 80001a20 00000000 00000000 00000000 00000000  ................
 80001a30 00000000 00000000 00000000 00000000  ................
 80001a40 00000000 00000000 00000000 00000000  ................
 80001a50 00000000 00000000 00000000 00000000  ................
 80001a60 00000000 00000000 00000000 00000000  ................
 80001a70 00000000 00000000 00000000 00000000  ................
 80001a80 00000000 00000000 00000000 00000000  ................
 80001a90 00000000 00000000 00000000 00000000  ................
 80001aa0 00000000 00000000 00000000 00000000  ................
 80001ab0 00000000 00000000 00000000 00000000  ................
 80001ac0 00000000 00000000 00000000 00000000  ................
 80001ad0 00000000 00000000 00000000 00000000  ................
 80001ae0 00000000 00000000 00000000 00000000  ................
 80001af0 00000000 00000000 00000000 00000000  ................
 80001b00 00000000 00000000 00000000 00000000  ................
 80001b10 00000000 00000000 00000000 00000000  ................
 80001b20 00000000 00000000 00000000 00000000  ................
 80001b30 00000000 00000000 00000000 00000000  ................
 80001b40 00000000 00000000 00000000 00000000  ................
 80001b50 00000000 00000000 00000000 00000000  ................
 80001b60 00000000 00000000 00000000 00000000  ................
 80001b70 00000000 00000000 00000000 00000000  ................
 80001b80 00000000 00000000 00000000 00000000  ................
 80001b90 00000000 00000000 00000000 00000000  ................
 80001ba0 00000000 00000000 00000000 00000000  ................
 80001bb0 00000000 00000000 00000000 00000000  ................
 80001bc0 00000000 00000000 00000000 00000000  ................
 80001bd0 00000000 00000000 00000000 00000000  ................
 80001be0 00000000 00000000 00000000 00000000  ................
 80001bf0 00000000 00000000 00000000 00000000  ................
 80001c00 00000000 00000000 00000000 00000000  ................
 80001c10 00000000 00000000 00000000 00000000  ................
 80001c20 00000000 00000000 00000000 00000000  ................
 80001c30 00000000 00000000 00000000 00000000  ................
 80001c40 00000000 00000000 00000000 00000000  ................
 80001c50 00000000 00000000 00000000 00000000  ................
 80001c60 00000000 00000000 00000000 00000000  ................
 80001c70 00000000 00000000 00000000 00000000  ................
 80001c80 00000000 00000000 00000000 00000000  ................
 80001c90 00000000 00000000 00000000 00000000  ................
 80001ca0 00000000 00000000 00000000 00000000  ................
 80001cb0 00000000 00000000 00000000 00000000  ................
 80001cc0 00000000 00000000 00000000 00000000  ................
 80001cd0 00000000 00000000 00000000 00000000  ................
 80001ce0 00000000 00000000 00000000 00000000  ................
 80001cf0 00000000 00000000 00000000 00000000  ................
 80001d00 00000000 00000000 00000000 00000000  ................
 80001d10 00000000 00000000 00000000 00000000  ................
 80001d20 00000000 00000000 00000000 00000000  ................
 80001d30 00000000 00000000 00000000 00000000  ................
 80001d40 00000000 00000000 00000000 00000000  ................
 80001d50 00000000 00000000 00000000 00000000  ................
 80001d60 00000000 00000000 00000000 00000000  ................
 80001d70 00000000 00000000 00000000 00000000  ................
 80001d80 00000000 00000000 00000000 00000000  ................
 80001d90 00000000 00000000 00000000 00000000  ................
 80001da0 00000000 00000000 00000000 00000000  ................
 80001db0 00000000 00000000 00000000 00000000  ................
 80001dc0 00000000 00000000 00000000 00000000  ................
 80001dd0 00000000 00000000 00000000 00000000  ................
 80001de0 00000000 00000000 00000000 00000000  ................
 80001df0 00000000 00000000 00000000 00000000  ................
 80001e00 00000000 00000000 00000000 00000000  ................
 80001e10 00000000 00000000 00000000 00000000  ................
 80001e20 00000000 00000000 00000000 00000000  ................
 80001e30 00000000 00000000 00000000 00000000  ................
 80001e40 00000000 00000000 00000000 00000000  ................
 80001e50 00000000 00000000 00000000 00000000  ................
 80001e60 00000000 00000000 00000000 00000000  ................
 80001e70 00000000 00000000 00000000 00000000  ................
 80001e80 00000000 00000000 00000000 00000000  ................
 80001e90 00000000 00000000 00000000 00000000  ................
 80001ea0 00000000 00000000 00000000 00000000  ................
 80001eb0 00000000 00000000 00000000 00000000  ................
 80001ec0 00000000 00000000 00000000 00000000  ................
 80001ed0 00000000 00000000 00000000 00000000  ................
 80001ee0 00000000 00000000 00000000 00000000  ................
 80001ef0 00000000 00000000 00000000 00000000  ................
 80001f00 00000000 00000000 00000000 00000000  ................
 80001f10 00000000 00000000 00000000 00000000  ................
 80001f20 00000000 00000000 00000000 00000000  ................
 80001f30 00000000 00000000 00000000 00000000  ................
 80001f40 00000000 00000000 00000000 00000000  ................
 80001f50 00000000 00000000 00000000 00000000  ................
 80001f60 00000000 00000000 00000000 00000000  ................
 80001f70 00000000 00000000 00000000 00000000  ................
 80001f80 00000000 00000000 00000000 00000000  ................
 80001f90 00000000 00000000 00000000 00000000  ................
 80001fa0 00000000 00000000 00000000 00000000  ................
 80001fb0 00000000 00000000 00000000 00000000  ................
 80001fc0 00000000 00000000 00000000 00000000  ................
 80001fd0 00000000 00000000 00000000 00000000  ................
 80001fe0 00000000 00000000 00000000 00000000  ................
 80001ff0 00000000 00000000 00000000 00000000  ................
 80002000 fecabeba fecabeba fecabeba fecabeba  ................
 80002010 efbeadde efbeadde 00000000 00000000  ................
 80002020 00000000 00000000 00000000 00000000  ................
 80002030 00000000 00000000 00000000 00000000  ................
 80002040 00000000 00000000 00000000 00000000  ................
 80002050 00000000 00000000 00000000 00000000  ................
 80002060 00000000 00000000 00000000 00000000  ................
 80002070 00000000 00000000 00000000 00000000  ................
 80002080 00000000 00000000 00000000 00000000  ................
 80002090 00000000 00000000 00000000 00000000  ................
 800020a0 00000000 00000000 00000000 00000000  ................
 800020b0 00000000 00000000 00000000 00000000  ................
 800020c0 00000000 00000000 00000000 00000000  ................
 800020d0 00000000 00000000 00000000 00000000  ................
 800020e0 00000000 00000000 00000000 00000000  ................
 800020f0 00000000 00000000 00000000 00000000  ................
 80002100 00000000 00000000 00000000 00000000  ................
 80002110 00000000 00000000 00000000 00000000  ................
 80002120 00000000 00000000 00000000 00000000  ................
 80002130 00000000 00000000 00000000 00000000  ................
 80002140 00000000 00000000 00000000 00000000  ................
 80002150 00000000 00000000 00000000 00000000  ................
 80002160 00000000 00000000 00000000 00000000  ................
 80002170 00000000 00000000 00000000 00000000  ................
 80002180 00000000 00000000 00000000 00000000  ................
 80002190 00000000 00000000 00000000 00000000  ................
 800021a0 00000000 00000000 00000000 00000000  ................
 800021b0 00000000 00000000 00000000 00000000  ................
 800021c0 00000000 00000000 00000000 00000000  ................
 800021d0 00000000 00000000 00000000 00000000  ................
 800021e0 00000000 00000000 00000000 00000000  ................
 800021f0 00000000 00000000 00000000 00000000  ................
 80002200 00000000 00000000 00000000 00000000  ................
 80002210 00000000 00000000 00000000 00000000  ................
 80002220 00000000 00000000 00000000 00000000  ................
 80002230 00000000 00000000 00000000 00000000  ................
 80002240 00000000 00000000 00000000 00000000  ................
 80002250 00000000 00000000 00000000 00000000  ................
 80002260 00000000 00000000 00000000 00000000  ................
 80002270 00000000 00000000 00000000 00000000  ................
 80002280 00000000 00000000 00000000 00000000  ................
 80002290 00000000 00000000 00000000 00000000  ................
 800022a0 00000000 00000000 00000000 00000000  ................
 800022b0 00000000 00000000 00000000 00000000  ................
 800022c0 00000000 00000000 00000000 00000000  ................
 800022d0 00000000 00000000 00000000 00000000  ................
 800022e0 00000000 00000000 00000000 00000000  ................
 800022f0 00000000 00000000 00000000 00000000  ................
 80002300 00000000 00000000 00000000 00000000  ................
 80002310 00000000 00000000 00000000 00000000  ................
 80002320 00000000 00000000 00000000 00000000  ................
 80002330 00000000 00000000 00000000 00000000  ................
 80002340 00000000 00000000 00000000 00000000  ................
 80002350 00000000 00000000 00000000 00000000  ................
 80002360 00000000 00000000 00000000 00000000  ................
 80002370 00000000 00000000 00000000 00000000  ................
 80002380 00000000 00000000 00000000 00000000  ................
 80002390 00000000 00000000 00000000 00000000  ................
 800023a0 00000000 00000000 00000000 00000000  ................
 800023b0 00000000 00000000 00000000 00000000  ................
 800023c0 00000000 00000000 00000000 00000000  ................
 800023d0 00000000 00000000 00000000 00000000  ................
 800023e0 00000000 00000000 00000000 00000000  ................
 800023f0 00000000 00000000 00000000 00000000  ................
 80002400 00000000 00000000 00000000 00000000  ................
 80002410 00000000 00000000 00000000 00000000  ................
 80002420 00000000 00000000 00000000 00000000  ................
 80002430 00000000 00000000 00000000 00000000  ................
 80002440 00000000 00000000 00000000 00000000  ................
 80002450 00000000 00000000 00000000 00000000  ................
 80002460 00000000 00000000 00000000 00000000  ................
 80002470 00000000 00000000 00000000 00000000  ................
 80002480 00000000 00000000 00000000 00000000  ................
 80002490 00000000 00000000 00000000 00000000  ................
 800024a0 00000000 00000000 00000000 00000000  ................
 800024b0 00000000 00000000 00000000 00000000  ................
 800024c0 00000000 00000000 00000000 00000000  ................
 800024d0 00000000 00000000 00000000 00000000  ................
 800024e0 00000000 00000000 00000000 00000000  ................
 800024f0 00000000 00000000 00000000 00000000  ................
 80002500 00000000 00000000 00000000 00000000  ................
 80002510 00000000 00000000 00000000 00000000  ................
 80002520 00000000 00000000 00000000 00000000  ................
 80002530 00000000 00000000 00000000 00000000  ................
 80002540 00000000 00000000 00000000 00000000  ................
 80002550 00000000 00000000 00000000 00000000  ................
 80002560 00000000 00000000 00000000 00000000  ................
 80002570 00000000 00000000 00000000 00000000  ................
 80002580 00000000 00000000 00000000 00000000  ................
 80002590 00000000 00000000 00000000 00000000  ................
 800025a0 00000000 00000000 00000000 00000000  ................
 800025b0 00000000 00000000 00000000 00000000  ................
 800025c0 00000000 00000000 00000000 00000000  ................
 800025d0 00000000 00000000 00000000 00000000  ................
 800025e0 00000000 00000000 00000000 00000000  ................
 800025f0 00000000 00000000 00000000 00000000  ................
 80002600 00000000 00000000 00000000 00000000  ................
 80002610 00000000 00000000 00000000 00000000  ................
 80002620 00000000 00000000 00000000 00000000  ................
 80002630 00000000 00000000 00000000 00000000  ................
 80002640 00000000 00000000 00000000 00000000  ................
 80002650 00000000 00000000 00000000 00000000  ................
 80002660 00000000 00000000 00000000 00000000  ................
 80002670 00000000 00000000 00000000 00000000  ................
 80002680 00000000 00000000 00000000 00000000  ................
 80002690 00000000 00000000 00000000 00000000  ................
 800026a0 00000000 00000000 00000000 00000000  ................
 800026b0 00000000 00000000 00000000 00000000  ................
 800026c0 00000000 00000000 00000000 00000000  ................
 800026d0 00000000 00000000 00000000 00000000  ................
 800026e0 00000000 00000000 00000000 00000000  ................
 800026f0 00000000 00000000 00000000 00000000  ................
 80002700 00000000 00000000 00000000 00000000  ................
 80002710 00000000 00000000 00000000 00000000  ................
 80002720 00000000 00000000 00000000 00000000  ................
 80002730 00000000 00000000 00000000 00000000  ................
 80002740 00000000 00000000 00000000 00000000  ................
 80002750 00000000 00000000 00000000 00000000  ................
 80002760 00000000 00000000 00000000 00000000  ................
 80002770 00000000 00000000 00000000 00000000  ................
 80002780 00000000 00000000 00000000 00000000  ................
 80002790 00000000 00000000 00000000 00000000  ................
 800027a0 00000000 00000000 00000000 00000000  ................
 800027b0 00000000 00000000 00000000 00000000  ................
 800027c0 00000000 00000000 00000000 00000000  ................
 800027d0 00000000 00000000 00000000 00000000  ................
 800027e0 00000000 00000000 00000000 00000000  ................
 800027f0 00000000 00000000 00000000 00000000  ................
 80002800 00000000 00000000 00000000 00000000  ................
 80002810 00000000 00000000 00000000 00000000  ................
 80002820 00000000 00000000 00000000 00000000  ................
 80002830 00000000 00000000 00000000 00000000  ................
 80002840 00000000 00000000 00000000 00000000  ................
 80002850 00000000 00000000 00000000 00000000  ................
 80002860 00000000 00000000 00000000 00000000  ................
 80002870 00000000 00000000 00000000 00000000  ................
 80002880 00000000 00000000 00000000 00000000  ................
 80002890 00000000 00000000 00000000 00000000  ................
 800028a0 00000000 00000000 00000000 00000000  ................
 800028b0 00000000 00000000 00000000 00000000  ................
 800028c0 00000000 00000000 00000000 00000000  ................
 800028d0 00000000 00000000 00000000 00000000  ................
 800028e0 00000000 00000000 00000000 00000000  ................
 800028f0 00000000 00000000 00000000 00000000  ................
 80002900 00000000 00000000 00000000 00000000  ................
 80002910 00000000 00000000 00000000 00000000  ................
 80002920 00000000 00000000 00000000 00000000  ................
 80002930 00000000 00000000 00000000 00000000  ................
 80002940 00000000 00000000 00000000 00000000  ................
 80002950 00000000 00000000 00000000 00000000  ................
 80002960 00000000 00000000 00000000 00000000  ................
 80002970 00000000 00000000 00000000 00000000  ................
 80002980 00000000 00000000 00000000 00000000  ................
 80002990 00000000 00000000 00000000 00000000  ................
 800029a0 00000000 00000000 00000000 00000000  ................
 800029b0 00000000 00000000 00000000 00000000  ................
 800029c0 00000000 00000000 00000000 00000000  ................
 800029d0 00000000 00000000 00000000 00000000  ................
 800029e0 00000000 00000000 00000000 00000000  ................
 800029f0 00000000 00000000 00000000 00000000  ................
 80002a00 00000000 00000000 00000000 00000000  ................
 80002a10 00000000 00000000 00000000 00000000  ................
 80002a20 00000000 00000000 00000000 00000000  ................
 80002a30 00000000 00000000 00000000 00000000  ................
 80002a40 00000000 00000000 00000000 00000000  ................
 80002a50 00000000 00000000 00000000 00000000  ................
 80002a60 00000000 00000000 00000000 00000000  ................
 80002a70 00000000 00000000 00000000 00000000  ................
 80002a80 00000000 00000000 00000000 00000000  ................
 80002a90 00000000 00000000 00000000 00000000  ................
 80002aa0 00000000 00000000 00000000 00000000  ................
 80002ab0 00000000 00000000 00000000 00000000  ................
 80002ac0 00000000 00000000 00000000 00000000  ................
 80002ad0 00000000 00000000 00000000 00000000  ................
 80002ae0 00000000 00000000 00000000 00000000  ................
 80002af0 00000000 00000000 00000000 00000000  ................
 80002b00 00000000 00000000 00000000 00000000  ................
 80002b10 00000000 00000000 00000000 00000000  ................
 80002b20 00000000 00000000 00000000 00000000  ................
 80002b30 00000000 00000000 00000000 00000000  ................
 80002b40 00000000 00000000 00000000 00000000  ................
 80002b50 00000000 00000000 00000000 00000000  ................
 80002b60 00000000 00000000 00000000 00000000  ................
 80002b70 00000000 00000000 00000000 00000000  ................
 80002b80 00000000 00000000 00000000 00000000  ................
 80002b90 00000000 00000000 00000000 00000000  ................
 80002ba0 00000000 00000000 00000000 00000000  ................
 80002bb0 00000000 00000000 00000000 00000000  ................
 80002bc0 00000000 00000000 00000000 00000000  ................
 80002bd0 00000000 00000000 00000000 00000000  ................
 80002be0 00000000 00000000 00000000 00000000  ................
 80002bf0 00000000 00000000 00000000 00000000  ................
 80002c00 00000000 00000000 00000000 00000000  ................
 80002c10 00000000 00000000 00000000 00000000  ................
 80002c20 00000000 00000000 00000000 00000000  ................
 80002c30 00000000 00000000 00000000 00000000  ................
 80002c40 00000000 00000000 00000000 00000000  ................
 80002c50 00000000 00000000 00000000 00000000  ................
 80002c60 00000000 00000000 00000000 00000000  ................
 80002c70 00000000 00000000 00000000 00000000  ................
 80002c80 00000000 00000000 00000000 00000000  ................
 80002c90 00000000 00000000 00000000 00000000  ................
 80002ca0 00000000 00000000 00000000 00000000  ................
 80002cb0 00000000 00000000 00000000 00000000  ................
 80002cc0 00000000 00000000 00000000 00000000  ................
 80002cd0 00000000 00000000 00000000 00000000  ................
 80002ce0 00000000 00000000 00000000 00000000  ................
 80002cf0 00000000 00000000 00000000 00000000  ................
 80002d00 00000000 00000000 00000000 00000000  ................
 80002d10 00000000 00000000 00000000 00000000  ................
 80002d20 00000000 00000000 00000000 00000000  ................
 80002d30 00000000 00000000 00000000 00000000  ................
 80002d40 00000000 00000000 00000000 00000000  ................
 80002d50 00000000 00000000 00000000 00000000  ................
 80002d60 00000000 00000000 00000000 00000000  ................
 80002d70 00000000 00000000 00000000 00000000  ................
 80002d80 00000000 00000000 00000000 00000000  ................
 80002d90 00000000 00000000 00000000 00000000  ................
 80002da0 00000000 00000000 00000000 00000000  ................
 80002db0 00000000 00000000 00000000 00000000  ................
 80002dc0 00000000 00000000 00000000 00000000  ................
 80002dd0 00000000 00000000 00000000 00000000  ................
 80002de0 00000000 00000000 00000000 00000000  ................
 80002df0 00000000 00000000 00000000 00000000  ................
 80002e00 00000000 00000000 00000000 00000000  ................
 80002e10 00000000 00000000 00000000 00000000  ................
 80002e20 00000000 00000000 00000000 00000000  ................
 80002e30 00000000 00000000 00000000 00000000  ................
 80002e40 00000000 00000000 00000000 00000000  ................
 80002e50 00000000 00000000 00000000 00000000  ................
 80002e60 00000000 00000000 00000000 00000000  ................
 80002e70 00000000 00000000 00000000 00000000  ................
 80002e80 00000000 00000000 00000000 00000000  ................
 80002e90 00000000 00000000 00000000 00000000  ................
 80002ea0 00000000 00000000 00000000 00000000  ................
 80002eb0 00000000 00000000 00000000 00000000  ................
 80002ec0 00000000 00000000 00000000 00000000  ................
 80002ed0 00000000 00000000 00000000 00000000  ................
 80002ee0 00000000 00000000 00000000 00000000  ................
 80002ef0 00000000 00000000 00000000 00000000  ................
 80002f00 00000000 00000000 00000000 00000000  ................
 80002f10 00000000 00000000 00000000 00000000  ................
 80002f20 00000000 00000000 00000000 00000000  ................
 80002f30 00000000 00000000 00000000 00000000  ................
 80002f40 00000000 00000000 00000000 00000000  ................
 80002f50 00000000 00000000 00000000 00000000  ................
 80002f60 00000000 00000000 00000000 00000000  ................
 80002f70 00000000 00000000 00000000 00000000  ................
 80002f80 00000000 00000000 00000000 00000000  ................
 80002f90 00000000 00000000 00000000 00000000  ................
 80002fa0 00000000 00000000 00000000 00000000  ................
 80002fb0 00000000 00000000 00000000 00000000  ................
 80002fc0 00000000 00000000 00000000 00000000  ................
 80002fd0 00000000 00000000 00000000 00000000  ................
 80002fe0 00000000 00000000 00000000 00000000  ................
 80002ff0 00000000 00000000 00000000 00000000  ................
 80003000 81b2d4e7 09a35c6f efbeadde efbeadde  ......\o........
 80003010 efbeadde efbeadde efbeadde efbeadde  ................
 80003020 efbeadde efbeadde efbeadde efbeadde  ................
 80003030 efbeadde efbeadde efbeadde efbeadde  ................
 80003040 efbeadde efbeadde efbeadde efbeadde  ................
 80003050 efbeadde efbeadde efbeadde efbeadde  ................
 80003060 efbeadde efbeadde efbeadde efbeadde  ................
 80003070 efbeadde efbeadde efbeadde efbeadde  ................
 80003080 efbeadde efbeadde efbeadde efbeadde  ................
 80003090 efbeadde efbeadde efbeadde efbeadde  ................
 800030a0 efbeadde efbeadde efbeadde efbeadde  ................
 800030b0 efbeadde efbeadde efbeadde efbeadde  ................
 800030c0 efbeadde efbeadde efbeadde efbeadde  ................
 800030d0 efbeadde efbeadde efbeadde efbeadde  ................
 800030e0 efbeadde efbeadde efbeadde efbeadde  ................
 800030f0 efbeadde efbeadde efbeadde efbeadde  ................
 80003100 efbeadde efbeadde efbeadde efbeadde  ................
 80003110 efbeadde efbeadde efbeadde efbeadde  ................
 80003120 efbeadde efbeadde efbeadde efbeadde  ................
 80003130 efbeadde efbeadde efbeadde efbeadde  ................
 80003140 efbeadde efbeadde efbeadde efbeadde  ................
 80003150 efbeadde efbeadde efbeadde efbeadde  ................
 80003160 efbeadde efbeadde efbeadde efbeadde  ................
 80003170 efbeadde efbeadde efbeadde efbeadde  ................
 80003180 efbeadde efbeadde efbeadde efbeadde  ................
 80003190 efbeadde efbeadde efbeadde efbeadde  ................
 800031a0 efbeadde efbeadde efbeadde efbeadde  ................
 800031b0 efbeadde efbeadde efbeadde efbeadde  ................
 800031c0 efbeadde efbeadde efbeadde efbeadde  ................
 800031d0 efbeadde efbeadde efbeadde efbeadde  ................
 800031e0 efbeadde efbeadde efbeadde efbeadde  ................
 800031f0 efbeadde efbeadde efbeadde efbeadde  ................
 80003200 efbeadde efbeadde efbeadde efbeadde  ................
 80003210 efbeadde efbeadde efbeadde efbeadde  ................
 80003220 efbeadde efbeadde efbeadde efbeadde  ................
 80003230 efbeadde efbeadde efbeadde efbeadde  ................
 80003240 efbeadde efbeadde efbeadde efbeadde  ................
 80003250 efbeadde efbeadde efbeadde efbeadde  ................
 80003260 efbeadde efbeadde efbeadde efbeadde  ................
 80003270 efbeadde efbeadde efbeadde efbeadde  ................
 80003280 efbeadde efbeadde efbeadde efbeadde  ................
 80003290 efbeadde efbeadde efbeadde efbeadde  ................
 800032a0 efbeadde efbeadde efbeadde efbeadde  ................
 800032b0 efbeadde efbeadde efbeadde efbeadde  ................
 800032c0 efbeadde efbeadde efbeadde efbeadde  ................
 800032d0 efbeadde efbeadde efbeadde efbeadde  ................
 800032e0 efbeadde efbeadde efbeadde efbeadde  ................
 800032f0 efbeadde efbeadde efbeadde efbeadde  ................
 80003300 efbeadde efbeadde efbeadde efbeadde  ................
 80003310 efbeadde efbeadde efbeadde efbeadde  ................
 80003320 efbeadde efbeadde efbeadde efbeadde  ................
 80003330 efbeadde efbeadde efbeadde efbeadde  ................
 80003340 efbeadde efbeadde efbeadde efbeadde  ................
 80003350 efbeadde efbeadde efbeadde efbeadde  ................
 80003360 efbeadde efbeadde efbeadde efbeadde  ................
 80003370 efbeadde efbeadde efbeadde efbeadde  ................
 80003380 efbeadde efbeadde efbeadde efbeadde  ................
 80003390 efbeadde efbeadde efbeadde efbeadde  ................
 800033a0 efbeadde efbeadde efbeadde efbeadde  ................
 800033b0 efbeadde efbeadde efbeadde efbeadde  ................
 800033c0 efbeadde efbeadde efbeadde efbeadde  ................
 800033d0 efbeadde efbeadde efbeadde efbeadde  ................
 800033e0 efbeadde efbeadde efbeadde efbeadde  ................
 800033f0 efbeadde efbeadde efbeadde efbeadde  ................
 80003400 efbeadde efbeadde efbeadde efbeadde  ................
 80003410 efbeadde efbeadde efbeadde efbeadde  ................
 80003420 efbeadde efbeadde efbeadde efbeadde  ................
 80003430 efbeadde efbeadde efbeadde efbeadde  ................
 80003440 efbeadde efbeadde efbeadde efbeadde  ................
 80003450 efbeadde efbeadde efbeadde efbeadde  ................
 80003460 efbeadde efbeadde efbeadde efbeadde  ................
 80003470 efbeadde efbeadde efbeadde efbeadde  ................
 80003480 efbeadde efbeadde efbeadde efbeadde  ................
 80003490 efbeadde efbeadde efbeadde efbeadde  ................
 800034a0 efbeadde efbeadde efbeadde efbeadde  ................
 800034b0 efbeadde efbeadde efbeadde efbeadde  ................
 800034c0 efbeadde efbeadde 81b2d4e7 09a35c6f  ..............\o

Disassembly of section .data:

0000000080000000 <.data>:
    80000000:	00000413          	addi	x8,x0,0
    80000004:	0000c117          	auipc	x2,0xc
    80000008:	ffc10113          	addi	x2,x2,-4 # 0x8000c000
    8000000c:	7bc010ef          	jal	x1,0x800017c8
    80000010:	030000ef          	jal	x1,0x80000040
    80000014:	00100513          	addi	x10,x0,1
    80000018:	7a4010ef          	jal	x1,0x800017bc
    8000001c:	00000513          	addi	x10,x0,0
    80000020:	00008067          	jalr	x0,0(x1)
    80000024:	00100513          	addi	x10,x0,1
    80000028:	794010ef          	jal	x1,0x800017bc
    8000002c:	00008067          	jalr	x0,0(x1)
	...
    80000040:	feedc0b7          	lui	x1,0xfeedc
    80000044:	ead08093          	addi	x1,x1,-339 # 0xfffffffffeedbead
    80000048:	00b09093          	slli	x1,x1,0xb
    8000004c:	7f708093          	addi	x1,x1,2039
    80000050:	00b09093          	slli	x1,x1,0xb
    80000054:	36f08093          	addi	x1,x1,879
    80000058:	00a09093          	slli	x1,x1,0xa
    8000005c:	2ad08093          	addi	x1,x1,685
    80000060:	ff76e137          	lui	x2,0xff76e
    80000064:	f5610113          	addi	x2,x2,-170 # 0xffffffffff76df56
    80000068:	00b11113          	slli	x2,x2,0xb
    8000006c:	7fb10113          	addi	x2,x2,2043
    80000070:	00b11113          	slli	x2,x2,0xb
    80000074:	5b710113          	addi	x2,x2,1463
    80000078:	00a11113          	slli	x2,x2,0xa
    8000007c:	35610113          	addi	x2,x2,854
    80000080:	7fbb71b7          	lui	x3,0x7fbb7
    80000084:	fab18193          	addi	x3,x3,-85 # 0x7fbb6fab
    80000088:	00b19193          	slli	x3,x3,0xb
    8000008c:	3fd18193          	addi	x3,x3,1021
    80000090:	00b19193          	slli	x3,x3,0xb
    80000094:	6db18193          	addi	x3,x3,1755
    80000098:	00a19193          	slli	x3,x3,0xa
    8000009c:	3ab18193          	addi	x3,x3,939
    800000a0:	bfddb237          	lui	x4,0xbfddb
    800000a4:	7d520213          	addi	x4,x4,2005 # 0xffffffffbfddb7d5
    800000a8:	00b21213          	slli	x4,x4,0xb
    800000ac:	5fe20213          	addi	x4,x4,1534 # 0x5fe
    800000b0:	00b21213          	slli	x4,x4,0xb
    800000b4:	76d20213          	addi	x4,x4,1901 # 0x76d
    800000b8:	00a21213          	slli	x4,x4,0xa
    800000bc:	3d520213          	addi	x4,x4,981 # 0x3d5
    800000c0:	dfeee2b7          	lui	x5,0xdfeee
    800000c4:	bea28293          	addi	x5,x5,-1046 # 0xffffffffdfeedbea
    800000c8:	00b29293          	slli	x5,x5,0xb
    800000cc:	6ff28293          	addi	x5,x5,1791
    800000d0:	00b29293          	slli	x5,x5,0xb
    800000d4:	3b628293          	addi	x5,x5,950
    800000d8:	00a29293          	slli	x5,x5,0xa
    800000dc:	3ea28293          	addi	x5,x5,1002
    800000e0:	6ff77337          	lui	x6,0x6ff77
    800000e4:	df530313          	addi	x6,x6,-523 # 0x6ff76df5
    800000e8:	00b31313          	slli	x6,x6,0xb
    800000ec:	37f30313          	addi	x6,x6,895
    800000f0:	00b31313          	slli	x6,x6,0xb
    800000f4:	5db30313          	addi	x6,x6,1499
    800000f8:	00a31313          	slli	x6,x6,0xa
    800000fc:	1f530313          	addi	x6,x6,501
    80000100:	b7fbb3b7          	lui	x7,0xb7fbb
    80000104:	6fa38393          	addi	x7,x7,1786 # 0xffffffffb7fbb6fa
    80000108:	00b39393          	slli	x7,x7,0xb
    8000010c:	5bf38393          	addi	x7,x7,1471
    80000110:	00b39393          	slli	x7,x7,0xb
    80000114:	6ed38393          	addi	x7,x7,1773
    80000118:	00a39393          	slli	x7,x7,0xa
    8000011c:	2fa38393          	addi	x7,x7,762
    80000120:	5bfde437          	lui	x8,0x5bfde
    80000124:	b7d40413          	addi	x8,x8,-1155 # 0x5bfddb7d
    80000128:	00b41413          	slli	x8,x8,0xb
    8000012c:	2df40413          	addi	x8,x8,735
    80000130:	00b41413          	slli	x8,x8,0xb
    80000134:	77640413          	addi	x8,x8,1910
    80000138:	00a41413          	slli	x8,x8,0xa
    8000013c:	37d40413          	addi	x8,x8,893
    80000140:	adfef4b7          	lui	x9,0xadfef
    80000144:	dbe48493          	addi	x9,x9,-578 # 0xffffffffadfeedbe
    80000148:	00b49493          	slli	x9,x9,0xb
    8000014c:	56f48493          	addi	x9,x9,1391
    80000150:	00b49493          	slli	x9,x9,0xb
    80000154:	7bb48493          	addi	x9,x9,1979
    80000158:	00a49493          	slli	x9,x9,0xa
    8000015c:	1be48493          	addi	x9,x9,446
    80000160:	56ff7537          	lui	x10,0x56ff7
    80000164:	6df50513          	addi	x10,x10,1759 # 0x56ff76df
    80000168:	00b51513          	slli	x10,x10,0xb
    8000016c:	2b750513          	addi	x10,x10,695
    80000170:	00b51513          	slli	x10,x10,0xb
    80000174:	7dd50513          	addi	x10,x10,2013
    80000178:	00a51513          	slli	x10,x10,0xa
    8000017c:	2df50513          	addi	x10,x10,735
    80000180:	ab7fc5b7          	lui	x11,0xab7fc
    80000184:	b6f58593          	addi	x11,x11,-1169 # 0xffffffffab7fbb6f
    80000188:	00b59593          	slli	x11,x11,0xb
    8000018c:	55b58593          	addi	x11,x11,1371
    80000190:	00b59593          	slli	x11,x11,0xb
    80000194:	7ee58593          	addi	x11,x11,2030
    80000198:	00a59593          	slli	x11,x11,0xa
    8000019c:	36f58593          	addi	x11,x11,879
    800001a0:	d5bfe637          	lui	x12,0xd5bfe
    800001a4:	db760613          	addi	x12,x12,-585 # 0xffffffffd5bfddb7
    800001a8:	00b61613          	slli	x12,x12,0xb
    800001ac:	6ad60613          	addi	x12,x12,1709
    800001b0:	00b61613          	slli	x12,x12,0xb
    800001b4:	7f760613          	addi	x12,x12,2039
    800001b8:	00a61613          	slli	x12,x12,0xa
    800001bc:	1b760613          	addi	x12,x12,439
    800001c0:	eadff6b7          	lui	x13,0xeadff
    800001c4:	edb68693          	addi	x13,x13,-293 # 0xffffffffeadfeedb
    800001c8:	00b69693          	slli	x13,x13,0xb
    800001cc:	75668693          	addi	x13,x13,1878
    800001d0:	00b69693          	slli	x13,x13,0xb
    800001d4:	7fb68693          	addi	x13,x13,2043
    800001d8:	00a69693          	slli	x13,x13,0xa
    800001dc:	2db68693          	addi	x13,x13,731
    800001e0:	f56ff737          	lui	x14,0xf56ff
    800001e4:	76d70713          	addi	x14,x14,1901 # 0xfffffffff56ff76d
    800001e8:	00b71713          	slli	x14,x14,0xb
    800001ec:	7ab70713          	addi	x14,x14,1963
    800001f0:	00b71713          	slli	x14,x14,0xb
    800001f4:	3fd70713          	addi	x14,x14,1021
    800001f8:	00a71713          	slli	x14,x14,0xa
    800001fc:	36d70713          	addi	x14,x14,877
    80000200:	fab807b7          	lui	x15,0xfab80
    80000204:	bb678793          	addi	x15,x15,-1098 # 0xfffffffffab7fbb6
    80000208:	00b79793          	slli	x15,x15,0xb
    8000020c:	7d578793          	addi	x15,x15,2005
    80000210:	00b79793          	slli	x15,x15,0xb
    80000214:	5fe78793          	addi	x15,x15,1534
    80000218:	00a79793          	slli	x15,x15,0xa
    8000021c:	3b678793          	addi	x15,x15,950
    80000220:	7d5c0837          	lui	x16,0x7d5c0
    80000224:	ddb80813          	addi	x16,x16,-549 # 0x7d5bfddb
    80000228:	00b81813          	slli	x16,x16,0xb
    8000022c:	3ea80813          	addi	x16,x16,1002
    80000230:	00b81813          	slli	x16,x16,0xb
    80000234:	6ff80813          	addi	x16,x16,1791
    80000238:	00a81813          	slli	x16,x16,0xa
    8000023c:	1db80813          	addi	x16,x16,475
    80000240:	beae08b7          	lui	x17,0xbeae0
    80000244:	eed88893          	addi	x17,x17,-275 # 0xffffffffbeadfeed
    80000248:	00b89893          	slli	x17,x17,0xb
    8000024c:	5f588893          	addi	x17,x17,1525
    80000250:	00b89893          	slli	x17,x17,0xb
    80000254:	37f88893          	addi	x17,x17,895
    80000258:	00a89893          	slli	x17,x17,0xa
    8000025c:	2ed88893          	addi	x17,x17,749
    80000260:	df570937          	lui	x18,0xdf570
    80000264:	f7690913          	addi	x18,x18,-138 # 0xffffffffdf56ff76
    80000268:	00b91913          	slli	x18,x18,0xb
    8000026c:	6fa90913          	addi	x18,x18,1786
    80000270:	00b91913          	slli	x18,x18,0xb
    80000274:	5bf90913          	addi	x18,x18,1471
    80000278:	00a91913          	slli	x18,x18,0xa
    8000027c:	37690913          	addi	x18,x18,886
    80000280:	6fab89b7          	lui	x19,0x6fab8
    80000284:	fbb98993          	addi	x19,x19,-69 # 0x6fab7fbb
    80000288:	00b99993          	slli	x19,x19,0xb
    8000028c:	37d98993          	addi	x19,x19,893
    80000290:	00b99993          	slli	x19,x19,0xb
    80000294:	2df98993          	addi	x19,x19,735
    80000298:	00a99993          	slli	x19,x19,0xa
    8000029c:	3bb98993          	addi	x19,x19,955
    800002a0:	b7d5ca37          	lui	x20,0xb7d5c
    800002a4:	fdda0a13          	addi	x20,x20,-35 # 0xffffffffb7d5bfdd
    800002a8:	00ba1a13          	slli	x20,x20,0xb
    800002ac:	5bea0a13          	addi	x20,x20,1470
    800002b0:	00ba1a13          	slli	x20,x20,0xb
    800002b4:	56fa0a13          	addi	x20,x20,1391
    800002b8:	00aa1a13          	slli	x20,x20,0xa
    800002bc:	3dda0a13          	addi	x20,x20,989
    800002c0:	dbeaeab7          	lui	x21,0xdbeae
    800002c4:	feea8a93          	addi	x21,x21,-18 # 0xffffffffdbeadfee
    800002c8:	00ba9a93          	slli	x21,x21,0xb
    800002cc:	6dfa8a93          	addi	x21,x21,1759
    800002d0:	00ba9a93          	slli	x21,x21,0xb
    800002d4:	2b7a8a93          	addi	x21,x21,695
    800002d8:	00aa9a93          	slli	x21,x21,0xa
    800002dc:	3eea8a93          	addi	x21,x21,1006
    800002e0:	6df57b37          	lui	x22,0x6df57
    800002e4:	ff7b0b13          	addi	x22,x22,-9 # 0x6df56ff7
    800002e8:	00bb1b13          	slli	x22,x22,0xb
    800002ec:	36fb0b13          	addi	x22,x22,879
    800002f0:	00bb1b13          	slli	x22,x22,0xb
    800002f4:	55bb0b13          	addi	x22,x22,1371
    800002f8:	00ab1b13          	slli	x22,x22,0xa
    800002fc:	3f7b0b13          	addi	x22,x22,1015
    80000300:	b6fabbb7          	lui	x23,0xb6fab
    80000304:	7fbb8b93          	addi	x23,x23,2043 # 0xffffffffb6fab7fb
    80000308:	00bb9b93          	slli	x23,x23,0xb
    8000030c:	5b7b8b93          	addi	x23,x23,1463
    80000310:	00bb9b93          	slli	x23,x23,0xb
    80000314:	6adb8b93          	addi	x23,x23,1709
    80000318:	00ab9b93          	slli	x23,x23,0xa
    8000031c:	3fbb8b93          	addi	x23,x23,1019
    80000320:	db7d6c37          	lui	x24,0xdb7d6
    80000324:	bfdc0c13          	addi	x24,x24,-1027 # 0xffffffffdb7d5bfd
    80000328:	00bc1c13          	slli	x24,x24,0xb
    8000032c:	6dbc0c13          	addi	x24,x24,1755
    80000330:	00bc1c13          	slli	x24,x24,0xb
    80000334:	756c0c13          	addi	x24,x24,1878
    80000338:	00ac1c13          	slli	x24,x24,0xa
    8000033c:	3fdc0c13          	addi	x24,x24,1021
    80000340:	edbebcb7          	lui	x25,0xedbeb
    80000344:	dfec8c93          	addi	x25,x25,-514 # 0xffffffffedbeadfe
    80000348:	00bc9c93          	slli	x25,x25,0xb
    8000034c:	76dc8c93          	addi	x25,x25,1901
    80000350:	00bc9c93          	slli	x25,x25,0xb
    80000354:	7abc8c93          	addi	x25,x25,1963
    80000358:	00ac9c93          	slli	x25,x25,0xa
    8000035c:	1fec8c93          	addi	x25,x25,510
    80000360:	76df5d37          	lui	x26,0x76df5
    80000364:	6ffd0d13          	addi	x26,x26,1791 # 0x76df56ff
    80000368:	00bd1d13          	slli	x26,x26,0xb
    8000036c:	3b6d0d13          	addi	x26,x26,950
    80000370:	00bd1d13          	slli	x26,x26,0xb
    80000374:	7d5d0d13          	addi	x26,x26,2005
    80000378:	00ad1d13          	slli	x26,x26,0xa
    8000037c:	2ffd0d13          	addi	x26,x26,767
    80000380:	bb6fbdb7          	lui	x27,0xbb6fb
    80000384:	b7fd8d93          	addi	x27,x27,-1153 # 0xffffffffbb6fab7f
    80000388:	00bd9d93          	slli	x27,x27,0xb
    8000038c:	5dbd8d93          	addi	x27,x27,1499
    80000390:	00bd9d93          	slli	x27,x27,0xb
    80000394:	3ead8d93          	addi	x27,x27,1002
    80000398:	00ad9d93          	slli	x27,x27,0xa
    8000039c:	37fd8d93          	addi	x27,x27,895
    800003a0:	ddb7de37          	lui	x28,0xddb7d
    800003a4:	5bfe0e13          	addi	x28,x28,1471 # 0xffffffffddb7d5bf
    800003a8:	00be1e13          	slli	x28,x28,0xb
    800003ac:	6ede0e13          	addi	x28,x28,1773
    800003b0:	00be1e13          	slli	x28,x28,0xb
    800003b4:	5f5e0e13          	addi	x28,x28,1525
    800003b8:	00ae1e13          	slli	x28,x28,0xa
    800003bc:	1bfe0e13          	addi	x28,x28,447
    800003c0:	eedbfeb7          	lui	x29,0xeedbf
    800003c4:	adfe8e93          	addi	x29,x29,-1313 # 0xffffffffeedbeadf
    800003c8:	00be9e93          	slli	x29,x29,0xb
    800003cc:	776e8e93          	addi	x29,x29,1910
    800003d0:	00be9e93          	slli	x29,x29,0xb
    800003d4:	6fae8e93          	addi	x29,x29,1786
    800003d8:	00ae9e93          	slli	x29,x29,0xa
    800003dc:	2dfe8e93          	addi	x29,x29,735
    800003e0:	f76dff37          	lui	x30,0xf76df
    800003e4:	56ff0f13          	addi	x30,x30,1391 # 0xfffffffff76df56f
    800003e8:	00bf1f13          	slli	x30,x30,0xb
    800003ec:	7bbf0f13          	addi	x30,x30,1979
    800003f0:	00bf1f13          	slli	x30,x30,0xb
    800003f4:	37df0f13          	addi	x30,x30,893
    800003f8:	00af1f13          	slli	x30,x30,0xa
    800003fc:	16ff0f13          	addi	x30,x30,367
    80000400:	fbb70fb7          	lui	x31,0xfbb70
    80000404:	ab7f8f93          	addi	x31,x31,-1353 # 0xfffffffffbb6fab7
    80000408:	00bf9f93          	slli	x31,x31,0xb
    8000040c:	7ddf8f93          	addi	x31,x31,2013
    80000410:	00bf9f93          	slli	x31,x31,0xb
    80000414:	5bef8f93          	addi	x31,x31,1470
    80000418:	00af9f93          	slli	x31,x31,0xa
    8000041c:	2b7f8f93          	addi	x31,x31,695
    80000420:	00003117          	auipc	x2,0x3
    80000424:	be810113          	addi	x2,x2,-1048 # 0x80003008
    80000428:	00000013          	addi	x0,x0,0
    8000042c:	00000013          	addi	x0,x0,0
    80000430:	00000013          	addi	x0,x0,0
    80000434:	00000013          	addi	x0,x0,0
    80000438:	00000013          	addi	x0,x0,0
    8000043c:	00000013          	addi	x0,x0,0
    80000440:	dff00293          	addi	x5,x0,-513
    80000444:	4172d29b          	sraiw	x5,x5,0x17
    80000448:	00513023          	sd	x5,0(x2)
    8000044c:	fff00413          	addi	x8,x0,-1
    80000450:	00540463          	beq	x8,x5,0x80000458
    80000454:	bd1ff06f          	jal	x0,0x80000024
    80000458:	00100613          	addi	x12,x0,1
    8000045c:	02061613          	slli	x12,x12,0x20
    80000460:	41165c1b          	sraiw	x24,x12,0x11
    80000464:	01813423          	sd	x24,8(x2)
    80000468:	00000413          	addi	x8,x0,0
    8000046c:	01840463          	beq	x8,x24,0x80000474
    80000470:	bb5ff06f          	jal	x0,0x80000024
    80000474:	00100a13          	addi	x20,x0,1
    80000478:	027a1a13          	slli	x20,x20,0x27
    8000047c:	fffa4a13          	xori	x20,x20,-1
    80000480:	400a591b          	sraiw	x18,x20,0x0
    80000484:	01213823          	sd	x18,16(x2)
    80000488:	fff00413          	addi	x8,x0,-1
    8000048c:	01240463          	beq	x8,x18,0x80000494
    80000490:	b95ff06f          	jal	x0,0x80000024
    80000494:	00100793          	addi	x15,x0,1
    80000498:	02c79793          	slli	x15,x15,0x2c
    8000049c:	4007d31b          	sraiw	x6,x15,0x0
    800004a0:	00613c23          	sd	x6,24(x2)
    800004a4:	00000413          	addi	x8,x0,0
    800004a8:	00640463          	beq	x8,x6,0x800004b0
    800004ac:	b79ff06f          	jal	x0,0x80000024
    800004b0:	ff600e93          	addi	x29,x0,-10
    800004b4:	41fed69b          	sraiw	x13,x29,0x1f
    800004b8:	02d13023          	sd	x13,32(x2)
    800004bc:	fff00413          	addi	x8,x0,-1
    800004c0:	00d40463          	beq	x8,x13,0x800004c8
    800004c4:	b61ff06f          	jal	x0,0x80000024
    800004c8:	00100c13          	addi	x24,x0,1
    800004cc:	02cc1c13          	slli	x24,x24,0x2c
    800004d0:	41fc5f1b          	sraiw	x30,x24,0x1f
    800004d4:	03e13423          	sd	x30,40(x2)
    800004d8:	00000413          	addi	x8,x0,0
    800004dc:	01e40463          	beq	x8,x30,0x800004e4
    800004e0:	b45ff06f          	jal	x0,0x80000024
    800004e4:	00300e13          	addi	x28,x0,3
    800004e8:	403e581b          	sraiw	x16,x28,0x3
    800004ec:	03013823          	sd	x16,48(x2)
    800004f0:	00000413          	addi	x8,x0,0
    800004f4:	01040463          	beq	x8,x16,0x800004fc
    800004f8:	b2dff06f          	jal	x0,0x80000024
    800004fc:	fff00813          	addi	x16,x0,-1
    80000500:	03f81813          	slli	x16,x16,0x3f
    80000504:	4118549b          	sraiw	x9,x16,0x11
    80000508:	02913c23          	sd	x9,56(x2)
    8000050c:	00000413          	addi	x8,x0,0
    80000510:	00940463          	beq	x8,x9,0x80000518
    80000514:	b11ff06f          	jal	x0,0x80000024
    80000518:	00000f13          	addi	x30,x0,0
    8000051c:	40ef551b          	sraiw	x10,x30,0xe
    80000520:	04a13023          	sd	x10,64(x2)
    80000524:	00000413          	addi	x8,x0,0
    80000528:	00a40463          	beq	x8,x10,0x80000530
    8000052c:	af9ff06f          	jal	x0,0x80000024
    80000530:	00000013          	addi	x0,x0,0
    80000534:	41b05a1b          	sraiw	x20,x0,0x1b
    80000538:	05413423          	sd	x20,72(x2)
    8000053c:	00000413          	addi	x8,x0,0
    80000540:	01440463          	beq	x8,x20,0x80000548
    80000544:	ae1ff06f          	jal	x0,0x80000024
    80000548:	00100d93          	addi	x27,x0,1
    8000054c:	408dde9b          	sraiw	x29,x27,0x8
    80000550:	05d13823          	sd	x29,80(x2)
    80000554:	00000413          	addi	x8,x0,0
    80000558:	01d40463          	beq	x8,x29,0x80000560
    8000055c:	ac9ff06f          	jal	x0,0x80000024
    80000560:	00200693          	addi	x13,x0,2
    80000564:	40f6dd1b          	sraiw	x26,x13,0xf
    80000568:	05a13c23          	sd	x26,88(x2)
    8000056c:	00000413          	addi	x8,x0,0
    80000570:	01a40463          	beq	x8,x26,0x80000578
    80000574:	ab1ff06f          	jal	x0,0x80000024
    80000578:	00400393          	addi	x7,x0,4
    8000057c:	41e3d89b          	sraiw	x17,x7,0x1e
    80000580:	07113023          	sd	x17,96(x2)
    80000584:	00000413          	addi	x8,x0,0
    80000588:	01140463          	beq	x8,x17,0x80000590
    8000058c:	a99ff06f          	jal	x0,0x80000024
    80000590:	00800713          	addi	x14,x0,8
    80000594:	4097539b          	sraiw	x7,x14,0x9
    80000598:	06713423          	sd	x7,104(x2)
    8000059c:	00000413          	addi	x8,x0,0
    800005a0:	00740463          	beq	x8,x7,0x800005a8
    800005a4:	a81ff06f          	jal	x0,0x80000024
    800005a8:	01000b93          	addi	x23,x0,16
    800005ac:	413bd09b          	sraiw	x1,x23,0x13
    800005b0:	06113823          	sd	x1,112(x2)
    800005b4:	00000413          	addi	x8,x0,0
    800005b8:	00140463          	beq	x8,x1,0x800005c0
    800005bc:	a69ff06f          	jal	x0,0x80000024
    800005c0:	02000193          	addi	x3,x0,32
    800005c4:	4011d59b          	sraiw	x11,x3,0x1
    800005c8:	06b13c23          	sd	x11,120(x2)
    800005cc:	01000413          	addi	x8,x0,16
    800005d0:	00b40463          	beq	x8,x11,0x800005d8
    800005d4:	a51ff06f          	jal	x0,0x80000024
    800005d8:	04000093          	addi	x1,x0,64
    800005dc:	41d0dc9b          	sraiw	x25,x1,0x1d
    800005e0:	09913023          	sd	x25,128(x2)
    800005e4:	00000413          	addi	x8,x0,0
    800005e8:	01940463          	beq	x8,x25,0x800005f0
    800005ec:	a39ff06f          	jal	x0,0x80000024
    800005f0:	08000313          	addi	x6,x0,128
    800005f4:	41d3571b          	sraiw	x14,x6,0x1d
    800005f8:	08e13423          	sd	x14,136(x2)
    800005fc:	00000413          	addi	x8,x0,0
    80000600:	00e40463          	beq	x8,x14,0x80000608
    80000604:	a21ff06f          	jal	x0,0x80000024
    80000608:	10000d13          	addi	x26,x0,256
    8000060c:	40ad5b1b          	sraiw	x22,x26,0xa
    80000610:	09613823          	sd	x22,144(x2)
    80000614:	00000413          	addi	x8,x0,0
    80000618:	01640463          	beq	x8,x22,0x80000620
    8000061c:	a09ff06f          	jal	x0,0x80000024
    80000620:	20000893          	addi	x17,x0,512
    80000624:	4078db9b          	sraiw	x23,x17,0x7
    80000628:	09713c23          	sd	x23,152(x2)
    8000062c:	00400413          	addi	x8,x0,4
    80000630:	01740463          	beq	x8,x23,0x80000638
    80000634:	9f1ff06f          	jal	x0,0x80000024
    80000638:	40000a93          	addi	x21,x0,1024
    8000063c:	40aad19b          	sraiw	x3,x21,0xa
    80000640:	0a313023          	sd	x3,160(x2)
    80000644:	00100413          	addi	x8,x0,1
    80000648:	00340463          	beq	x8,x3,0x80000650
    8000064c:	9d9ff06f          	jal	x0,0x80000024
    80000650:	00100593          	addi	x11,x0,1
    80000654:	00b59593          	slli	x11,x11,0xb
    80000658:	4005d21b          	sraiw	x4,x11,0x0
    8000065c:	0a413423          	sd	x4,168(x2)
    80000660:	00001437          	lui	x8,0x1
    80000664:	8004041b          	addiw	x8,x8,-2048 # 0x800
    80000668:	00440463          	beq	x8,x4,0x80000670
    8000066c:	9b9ff06f          	jal	x0,0x80000024
    80000670:	00100913          	addi	x18,x0,1
    80000674:	00c91913          	slli	x18,x18,0xc
    80000678:	40495e1b          	sraiw	x28,x18,0x4
    8000067c:	0bc13823          	sd	x28,176(x2)
    80000680:	10000193          	addi	x3,x0,256
    80000684:	01c18463          	beq	x3,x28,0x8000068c
    80000688:	99dff06f          	jal	x0,0x80000024
    8000068c:	00100213          	addi	x4,x0,1
    80000690:	00d21213          	slli	x4,x4,0xd
    80000694:	41d2501b          	sraiw	x0,x4,0x1d
    80000698:	0a013c23          	sd	x0,184(x2)
    8000069c:	00000193          	addi	x3,x0,0
    800006a0:	00018463          	beq	x3,x0,0x800006a8
    800006a4:	981ff06f          	jal	x0,0x80000024
    800006a8:	00100413          	addi	x8,x0,1
    800006ac:	00e41413          	slli	x8,x8,0xe
    800006b0:	4084579b          	sraiw	x15,x8,0x8
    800006b4:	0cf13023          	sd	x15,192(x2)
    800006b8:	04000193          	addi	x3,x0,64
    800006bc:	00f18463          	beq	x3,x15,0x800006c4
    800006c0:	965ff06f          	jal	x0,0x80000024
    800006c4:	00000013          	addi	x0,x0,0
    800006c8:	00000013          	addi	x0,x0,0
    800006cc:	00000013          	addi	x0,x0,0
    800006d0:	00000013          	addi	x0,x0,0
    800006d4:	00000013          	addi	x0,x0,0
    800006d8:	00000013          	addi	x0,x0,0
    800006dc:	00000013          	addi	x0,x0,0
    800006e0:	00003097          	auipc	x1,0x3
    800006e4:	9f008093          	addi	x1,x1,-1552 # 0x800030d0
    800006e8:	00000013          	addi	x0,x0,0
    800006ec:	00000013          	addi	x0,x0,0
    800006f0:	00000013          	addi	x0,x0,0
    800006f4:	00000013          	addi	x0,x0,0
    800006f8:	00000013          	addi	x0,x0,0
    800006fc:	00000013          	addi	x0,x0,0
    80000700:	00100113          	addi	x2,x0,1
    80000704:	00f11113          	slli	x2,x2,0xf
    80000708:	41d1561b          	sraiw	x12,x2,0x1d
    8000070c:	00c0b023          	sd	x12,0(x1)
    80000710:	00000193          	addi	x3,x0,0
    80000714:	00c18463          	beq	x3,x12,0x8000071c
    80000718:	90dff06f          	jal	x0,0x80000024
    8000071c:	00100b13          	addi	x22,x0,1
    80000720:	010b1b13          	slli	x22,x22,0x10
    80000724:	40cb5f9b          	sraiw	x31,x22,0xc
    80000728:	01f0b423          	sd	x31,8(x1)
    8000072c:	01000193          	addi	x3,x0,16
    80000730:	01f18463          	beq	x3,x31,0x80000738
    80000734:	8f1ff06f          	jal	x0,0x80000024
    80000738:	00100993          	addi	x19,x0,1
    8000073c:	01199993          	slli	x19,x19,0x11
    80000740:	40e9da9b          	sraiw	x21,x19,0xe
    80000744:	0150b823          	sd	x21,16(x1)
    80000748:	00800193          	addi	x3,x0,8
    8000074c:	01518463          	beq	x3,x21,0x80000754
    80000750:	8d5ff06f          	jal	x0,0x80000024
    80000754:	00100f93          	addi	x31,x0,1
    80000758:	012f9f93          	slli	x31,x31,0x12
    8000075c:	407fdd9b          	sraiw	x27,x31,0x7
    80000760:	01b0bc23          	sd	x27,24(x1)
    80000764:	000011b7          	lui	x3,0x1
    80000768:	8001819b          	addiw	x3,x3,-2048 # 0x800
    8000076c:	01b18463          	beq	x3,x27,0x80000774
    80000770:	8b5ff06f          	jal	x0,0x80000024
    80000774:	00100513          	addi	x10,x0,1
    80000778:	01351513          	slli	x10,x10,0x13
    8000077c:	4025541b          	sraiw	x8,x10,0x2
    80000780:	0280b023          	sd	x8,32(x1)
    80000784:	000201b7          	lui	x3,0x20
    80000788:	00818463          	beq	x3,x8,0x80000790
    8000078c:	899ff06f          	jal	x0,0x80000024
    80000790:	00100c93          	addi	x25,x0,1
    80000794:	014c9c93          	slli	x25,x25,0x14
    80000798:	407cd99b          	sraiw	x19,x25,0x7
    8000079c:	0330b423          	sd	x19,40(x1)
    800007a0:	000021b7          	lui	x3,0x2
    800007a4:	01318463          	beq	x3,x19,0x800007ac
    800007a8:	87dff06f          	jal	x0,0x80000024
    800007ac:	00100493          	addi	x9,x0,1
    800007b0:	01549493          	slli	x9,x9,0x15
    800007b4:	40b4d11b          	sraiw	x2,x9,0xb
    800007b8:	0220b823          	sd	x2,48(x1)
    800007bc:	40000193          	addi	x3,x0,1024
    800007c0:	00218463          	beq	x3,x2,0x800007c8
    800007c4:	861ff06f          	jal	x0,0x80000024
    800007c8:	00100513          	addi	x10,x0,1
    800007cc:	01651513          	slli	x10,x10,0x16
    800007d0:	41d5559b          	sraiw	x11,x10,0x1d
    800007d4:	02b0bc23          	sd	x11,56(x1)
    800007d8:	00000193          	addi	x3,x0,0
    800007dc:	00b18463          	beq	x3,x11,0x800007e4
    800007e0:	845ff06f          	jal	x0,0x80000024
    800007e4:	00100513          	addi	x10,x0,1
    800007e8:	01751513          	slli	x10,x10,0x17
    800007ec:	40a5559b          	sraiw	x11,x10,0xa
    800007f0:	04b0b023          	sd	x11,64(x1)
    800007f4:	000021b7          	lui	x3,0x2
    800007f8:	00b18463          	beq	x3,x11,0x80000800
    800007fc:	829ff06f          	jal	x0,0x80000024
    80000800:	00100513          	addi	x10,x0,1
    80000804:	01851513          	slli	x10,x10,0x18
    80000808:	4065559b          	sraiw	x11,x10,0x6
    8000080c:	04b0b423          	sd	x11,72(x1)
    80000810:	000401b7          	lui	x3,0x40
    80000814:	00b18463          	beq	x3,x11,0x8000081c
    80000818:	80dff06f          	jal	x0,0x80000024
    8000081c:	00100513          	addi	x10,x0,1
    80000820:	01951513          	slli	x10,x10,0x19
    80000824:	4065559b          	sraiw	x11,x10,0x6
    80000828:	04b0b823          	sd	x11,80(x1)
    8000082c:	000801b7          	lui	x3,0x80
    80000830:	00b18463          	beq	x3,x11,0x80000838
    80000834:	ff0ff06f          	jal	x0,0x80000024
    80000838:	00100513          	addi	x10,x0,1
    8000083c:	01a51513          	slli	x10,x10,0x1a
    80000840:	41b5559b          	sraiw	x11,x10,0x1b
    80000844:	04b0bc23          	sd	x11,88(x1)
    80000848:	00000193          	addi	x3,x0,0
    8000084c:	00b18463          	beq	x3,x11,0x80000854
    80000850:	fd4ff06f          	jal	x0,0x80000024
    80000854:	00100513          	addi	x10,x0,1
    80000858:	01b51513          	slli	x10,x10,0x1b
    8000085c:	40c5559b          	sraiw	x11,x10,0xc
    80000860:	06b0b023          	sd	x11,96(x1)
    80000864:	000081b7          	lui	x3,0x8
    80000868:	00b18463          	beq	x3,x11,0x80000870
    8000086c:	fb8ff06f          	jal	x0,0x80000024
    80000870:	00100513          	addi	x10,x0,1
    80000874:	01c51513          	slli	x10,x10,0x1c
    80000878:	4055559b          	sraiw	x11,x10,0x5
    8000087c:	06b0b423          	sd	x11,104(x1)
    80000880:	008001b7          	lui	x3,0x800
    80000884:	00b18463          	beq	x3,x11,0x8000088c
    80000888:	f9cff06f          	jal	x0,0x80000024
    8000088c:	00100513          	addi	x10,x0,1
    80000890:	01d51513          	slli	x10,x10,0x1d
    80000894:	4035559b          	sraiw	x11,x10,0x3
    80000898:	06b0b823          	sd	x11,112(x1)
    8000089c:	040001b7          	lui	x3,0x4000
    800008a0:	00b18463          	beq	x3,x11,0x800008a8
    800008a4:	f80ff06f          	jal	x0,0x80000024
    800008a8:	00100513          	addi	x10,x0,1
    800008ac:	01e51513          	slli	x10,x10,0x1e
    800008b0:	41b5559b          	sraiw	x11,x10,0x1b
    800008b4:	06b0bc23          	sd	x11,120(x1)
    800008b8:	00800193          	addi	x3,x0,8
    800008bc:	00b18463          	beq	x3,x11,0x800008c4
    800008c0:	f64ff06f          	jal	x0,0x80000024
    800008c4:	00100513          	addi	x10,x0,1
    800008c8:	01f51513          	slli	x10,x10,0x1f
    800008cc:	40b5559b          	sraiw	x11,x10,0xb
    800008d0:	08b0b023          	sd	x11,128(x1)
    800008d4:	fff001b7          	lui	x3,0xfff00
    800008d8:	00b18463          	beq	x3,x11,0x800008e0
    800008dc:	f48ff06f          	jal	x0,0x80000024
    800008e0:	00100513          	addi	x10,x0,1
    800008e4:	02151513          	slli	x10,x10,0x21
    800008e8:	4155559b          	sraiw	x11,x10,0x15
    800008ec:	08b0b423          	sd	x11,136(x1)
    800008f0:	00000193          	addi	x3,x0,0
    800008f4:	00b18463          	beq	x3,x11,0x800008fc
    800008f8:	f2cff06f          	jal	x0,0x80000024
    800008fc:	00100513          	addi	x10,x0,1
    80000900:	02251513          	slli	x10,x10,0x22
    80000904:	4085559b          	sraiw	x11,x10,0x8
    80000908:	08b0b823          	sd	x11,144(x1)
    8000090c:	00000193          	addi	x3,x0,0
    80000910:	00b18463          	beq	x3,x11,0x80000918
    80000914:	f10ff06f          	jal	x0,0x80000024
    80000918:	00100513          	addi	x10,x0,1
    8000091c:	02351513          	slli	x10,x10,0x23
    80000920:	40c5559b          	sraiw	x11,x10,0xc
    80000924:	08b0bc23          	sd	x11,152(x1)
    80000928:	00000193          	addi	x3,x0,0
    8000092c:	00b18463          	beq	x3,x11,0x80000934
    80000930:	ef4ff06f          	jal	x0,0x80000024
    80000934:	00100513          	addi	x10,x0,1
    80000938:	02451513          	slli	x10,x10,0x24
    8000093c:	4015559b          	sraiw	x11,x10,0x1
    80000940:	0ab0b023          	sd	x11,160(x1)
    80000944:	00000193          	addi	x3,x0,0
    80000948:	00b18463          	beq	x3,x11,0x80000950
    8000094c:	ed8ff06f          	jal	x0,0x80000024
    80000950:	00100513          	addi	x10,x0,1
    80000954:	02551513          	slli	x10,x10,0x25
    80000958:	41f5559b          	sraiw	x11,x10,0x1f
    8000095c:	0ab0b423          	sd	x11,168(x1)
    80000960:	00000193          	addi	x3,x0,0
    80000964:	00b18463          	beq	x3,x11,0x8000096c
    80000968:	ebcff06f          	jal	x0,0x80000024
    8000096c:	00100513          	addi	x10,x0,1
    80000970:	02651513          	slli	x10,x10,0x26
    80000974:	40d5559b          	sraiw	x11,x10,0xd
    80000978:	0ab0b823          	sd	x11,176(x1)
    8000097c:	00000193          	addi	x3,x0,0
    80000980:	00b18463          	beq	x3,x11,0x80000988
    80000984:	ea0ff06f          	jal	x0,0x80000024
    80000988:	00100513          	addi	x10,x0,1
    8000098c:	02751513          	slli	x10,x10,0x27
    80000990:	40f5559b          	sraiw	x11,x10,0xf
    80000994:	0ab0bc23          	sd	x11,184(x1)
    80000998:	00000193          	addi	x3,x0,0
    8000099c:	00b18463          	beq	x3,x11,0x800009a4
    800009a0:	e84ff06f          	jal	x0,0x80000024
    800009a4:	00100513          	addi	x10,x0,1
    800009a8:	02851513          	slli	x10,x10,0x28
    800009ac:	4045559b          	sraiw	x11,x10,0x4
    800009b0:	0cb0b023          	sd	x11,192(x1)
    800009b4:	00000193          	addi	x3,x0,0
    800009b8:	00b18463          	beq	x3,x11,0x800009c0
    800009bc:	e68ff06f          	jal	x0,0x80000024
    800009c0:	00100513          	addi	x10,x0,1
    800009c4:	02951513          	slli	x10,x10,0x29
    800009c8:	40c5559b          	sraiw	x11,x10,0xc
    800009cc:	0cb0b423          	sd	x11,200(x1)
    800009d0:	00000193          	addi	x3,x0,0
    800009d4:	00b18463          	beq	x3,x11,0x800009dc
    800009d8:	e4cff06f          	jal	x0,0x80000024
    800009dc:	00100513          	addi	x10,x0,1
    800009e0:	02a51513          	slli	x10,x10,0x2a
    800009e4:	4075559b          	sraiw	x11,x10,0x7
    800009e8:	0cb0b823          	sd	x11,208(x1)
    800009ec:	00000193          	addi	x3,x0,0
    800009f0:	00b18463          	beq	x3,x11,0x800009f8
    800009f4:	e30ff06f          	jal	x0,0x80000024
    800009f8:	00100513          	addi	x10,x0,1
    800009fc:	02b51513          	slli	x10,x10,0x2b
    80000a00:	41b5559b          	sraiw	x11,x10,0x1b
    80000a04:	0cb0bc23          	sd	x11,216(x1)
    80000a08:	00000193          	addi	x3,x0,0
    80000a0c:	00b18463          	beq	x3,x11,0x80000a14
    80000a10:	e14ff06f          	jal	x0,0x80000024
    80000a14:	00100513          	addi	x10,x0,1
    80000a18:	02d51513          	slli	x10,x10,0x2d
    80000a1c:	4175559b          	sraiw	x11,x10,0x17
    80000a20:	0eb0b023          	sd	x11,224(x1)
    80000a24:	00000193          	addi	x3,x0,0
    80000a28:	00b18463          	beq	x3,x11,0x80000a30
    80000a2c:	df8ff06f          	jal	x0,0x80000024
    80000a30:	00100513          	addi	x10,x0,1
    80000a34:	02e51513          	slli	x10,x10,0x2e
    80000a38:	4015559b          	sraiw	x11,x10,0x1
    80000a3c:	0eb0b423          	sd	x11,232(x1)
    80000a40:	00000193          	addi	x3,x0,0
    80000a44:	00b18463          	beq	x3,x11,0x80000a4c
    80000a48:	ddcff06f          	jal	x0,0x80000024
    80000a4c:	00100513          	addi	x10,x0,1
    80000a50:	02f51513          	slli	x10,x10,0x2f
    80000a54:	40c5559b          	sraiw	x11,x10,0xc
    80000a58:	0eb0b823          	sd	x11,240(x1)
    80000a5c:	00000193          	addi	x3,x0,0
    80000a60:	00b18463          	beq	x3,x11,0x80000a68
    80000a64:	dc0ff06f          	jal	x0,0x80000024
    80000a68:	00100513          	addi	x10,x0,1
    80000a6c:	03051513          	slli	x10,x10,0x30
    80000a70:	4125559b          	sraiw	x11,x10,0x12
    80000a74:	0eb0bc23          	sd	x11,248(x1)
    80000a78:	00000193          	addi	x3,x0,0
    80000a7c:	00b18463          	beq	x3,x11,0x80000a84
    80000a80:	da4ff06f          	jal	x0,0x80000024
    80000a84:	00100513          	addi	x10,x0,1
    80000a88:	03151513          	slli	x10,x10,0x31
    80000a8c:	4015559b          	sraiw	x11,x10,0x1
    80000a90:	10b0b023          	sd	x11,256(x1)
    80000a94:	00000193          	addi	x3,x0,0
    80000a98:	00b18463          	beq	x3,x11,0x80000aa0
    80000a9c:	d88ff06f          	jal	x0,0x80000024
    80000aa0:	00100513          	addi	x10,x0,1
    80000aa4:	03251513          	slli	x10,x10,0x32
    80000aa8:	4095559b          	sraiw	x11,x10,0x9
    80000aac:	10b0b423          	sd	x11,264(x1)
    80000ab0:	00000193          	addi	x3,x0,0
    80000ab4:	00b18463          	beq	x3,x11,0x80000abc
    80000ab8:	d6cff06f          	jal	x0,0x80000024
    80000abc:	00100513          	addi	x10,x0,1
    80000ac0:	03351513          	slli	x10,x10,0x33
    80000ac4:	41e5559b          	sraiw	x11,x10,0x1e
    80000ac8:	10b0b823          	sd	x11,272(x1)
    80000acc:	00000193          	addi	x3,x0,0
    80000ad0:	00b18463          	beq	x3,x11,0x80000ad8
    80000ad4:	d50ff06f          	jal	x0,0x80000024
    80000ad8:	00100513          	addi	x10,x0,1
    80000adc:	03451513          	slli	x10,x10,0x34
    80000ae0:	4095559b          	sraiw	x11,x10,0x9
    80000ae4:	10b0bc23          	sd	x11,280(x1)
    80000ae8:	00000193          	addi	x3,x0,0
    80000aec:	00b18463          	beq	x3,x11,0x80000af4
    80000af0:	d34ff06f          	jal	x0,0x80000024
    80000af4:	00100513          	addi	x10,x0,1
    80000af8:	03551513          	slli	x10,x10,0x35
    80000afc:	4085559b          	sraiw	x11,x10,0x8
    80000b00:	12b0b023          	sd	x11,288(x1)
    80000b04:	00000193          	addi	x3,x0,0
    80000b08:	00b18463          	beq	x3,x11,0x80000b10
    80000b0c:	d18ff06f          	jal	x0,0x80000024
    80000b10:	00100513          	addi	x10,x0,1
    80000b14:	03651513          	slli	x10,x10,0x36
    80000b18:	41b5559b          	sraiw	x11,x10,0x1b
    80000b1c:	12b0b423          	sd	x11,296(x1)
    80000b20:	00000193          	addi	x3,x0,0
    80000b24:	00b18463          	beq	x3,x11,0x80000b2c
    80000b28:	cfcff06f          	jal	x0,0x80000024
    80000b2c:	00100513          	addi	x10,x0,1
    80000b30:	03751513          	slli	x10,x10,0x37
    80000b34:	40c5559b          	sraiw	x11,x10,0xc
    80000b38:	12b0b823          	sd	x11,304(x1)
    80000b3c:	00000193          	addi	x3,x0,0
    80000b40:	00b18463          	beq	x3,x11,0x80000b48
    80000b44:	ce0ff06f          	jal	x0,0x80000024
    80000b48:	00100513          	addi	x10,x0,1
    80000b4c:	03851513          	slli	x10,x10,0x38
    80000b50:	4085559b          	sraiw	x11,x10,0x8
    80000b54:	12b0bc23          	sd	x11,312(x1)
    80000b58:	00000193          	addi	x3,x0,0
    80000b5c:	00b18463          	beq	x3,x11,0x80000b64
    80000b60:	cc4ff06f          	jal	x0,0x80000024
    80000b64:	00100513          	addi	x10,x0,1
    80000b68:	03951513          	slli	x10,x10,0x39
    80000b6c:	4055559b          	sraiw	x11,x10,0x5
    80000b70:	14b0b023          	sd	x11,320(x1)
    80000b74:	00000193          	addi	x3,x0,0
    80000b78:	00b18463          	beq	x3,x11,0x80000b80
    80000b7c:	ca8ff06f          	jal	x0,0x80000024
    80000b80:	00100513          	addi	x10,x0,1
    80000b84:	03a51513          	slli	x10,x10,0x3a
    80000b88:	4105559b          	sraiw	x11,x10,0x10
    80000b8c:	14b0b423          	sd	x11,328(x1)
    80000b90:	00000193          	addi	x3,x0,0
    80000b94:	00b18463          	beq	x3,x11,0x80000b9c
    80000b98:	c8cff06f          	jal	x0,0x80000024
    80000b9c:	00100513          	addi	x10,x0,1
    80000ba0:	03b51513          	slli	x10,x10,0x3b
    80000ba4:	40b5559b          	sraiw	x11,x10,0xb
    80000ba8:	14b0b823          	sd	x11,336(x1)
    80000bac:	00000193          	addi	x3,x0,0
    80000bb0:	00b18463          	beq	x3,x11,0x80000bb8
    80000bb4:	c70ff06f          	jal	x0,0x80000024
    80000bb8:	00100513          	addi	x10,x0,1
    80000bbc:	03c51513          	slli	x10,x10,0x3c
    80000bc0:	41d5559b          	sraiw	x11,x10,0x1d
    80000bc4:	14b0bc23          	sd	x11,344(x1)
    80000bc8:	00000193          	addi	x3,x0,0
    80000bcc:	00b18463          	beq	x3,x11,0x80000bd4
    80000bd0:	c54ff06f          	jal	x0,0x80000024
    80000bd4:	00100513          	addi	x10,x0,1
    80000bd8:	03d51513          	slli	x10,x10,0x3d
    80000bdc:	40f5559b          	sraiw	x11,x10,0xf
    80000be0:	16b0b023          	sd	x11,352(x1)
    80000be4:	00000193          	addi	x3,x0,0
    80000be8:	00b18463          	beq	x3,x11,0x80000bf0
    80000bec:	c38ff06f          	jal	x0,0x80000024
    80000bf0:	00100513          	addi	x10,x0,1
    80000bf4:	03e51513          	slli	x10,x10,0x3e
    80000bf8:	4055559b          	sraiw	x11,x10,0x5
    80000bfc:	16b0b423          	sd	x11,360(x1)
    80000c00:	00000193          	addi	x3,x0,0
    80000c04:	00b18463          	beq	x3,x11,0x80000c0c
    80000c08:	c1cff06f          	jal	x0,0x80000024
    80000c0c:	ffe00513          	addi	x10,x0,-2
    80000c10:	4175559b          	sraiw	x11,x10,0x17
    80000c14:	16b0b823          	sd	x11,368(x1)
    80000c18:	fff00193          	addi	x3,x0,-1
    80000c1c:	00b18463          	beq	x3,x11,0x80000c24
    80000c20:	c04ff06f          	jal	x0,0x80000024
    80000c24:	ffd00513          	addi	x10,x0,-3
    80000c28:	4115559b          	sraiw	x11,x10,0x11
    80000c2c:	16b0bc23          	sd	x11,376(x1)
    80000c30:	fff00193          	addi	x3,x0,-1
    80000c34:	00b18463          	beq	x3,x11,0x80000c3c
    80000c38:	becff06f          	jal	x0,0x80000024
    80000c3c:	ffb00513          	addi	x10,x0,-5
    80000c40:	4025559b          	sraiw	x11,x10,0x2
    80000c44:	18b0b023          	sd	x11,384(x1)
    80000c48:	ffe00193          	addi	x3,x0,-2
    80000c4c:	00b18463          	beq	x3,x11,0x80000c54
    80000c50:	bd4ff06f          	jal	x0,0x80000024
    80000c54:	ff700513          	addi	x10,x0,-9
    80000c58:	41f5559b          	sraiw	x11,x10,0x1f
    80000c5c:	18b0b423          	sd	x11,392(x1)
    80000c60:	fff00193          	addi	x3,x0,-1
    80000c64:	00b18463          	beq	x3,x11,0x80000c6c
    80000c68:	bbcff06f          	jal	x0,0x80000024
    80000c6c:	fef00513          	addi	x10,x0,-17
    80000c70:	4135559b          	sraiw	x11,x10,0x13
    80000c74:	18b0b823          	sd	x11,400(x1)
    80000c78:	fff00193          	addi	x3,x0,-1
    80000c7c:	00b18463          	beq	x3,x11,0x80000c84
    80000c80:	ba4ff06f          	jal	x0,0x80000024
    80000c84:	fdf00513          	addi	x10,x0,-33
    80000c88:	40c5559b          	sraiw	x11,x10,0xc
    80000c8c:	18b0bc23          	sd	x11,408(x1)
    80000c90:	fff00193          	addi	x3,x0,-1
    80000c94:	00b18463          	beq	x3,x11,0x80000c9c
    80000c98:	b8cff06f          	jal	x0,0x80000024
    80000c9c:	fbf00513          	addi	x10,x0,-65
    80000ca0:	4065559b          	sraiw	x11,x10,0x6
    80000ca4:	1ab0b023          	sd	x11,416(x1)
    80000ca8:	ffe00193          	addi	x3,x0,-2
    80000cac:	00b18463          	beq	x3,x11,0x80000cb4
    80000cb0:	b74ff06f          	jal	x0,0x80000024
    80000cb4:	f7f00513          	addi	x10,x0,-129
    80000cb8:	4055559b          	sraiw	x11,x10,0x5
    80000cbc:	1ab0b423          	sd	x11,424(x1)
    80000cc0:	ffb00193          	addi	x3,x0,-5
    80000cc4:	00b18463          	beq	x3,x11,0x80000ccc
    80000cc8:	b5cff06f          	jal	x0,0x80000024
    80000ccc:	eff00513          	addi	x10,x0,-257
    80000cd0:	4065559b          	sraiw	x11,x10,0x6
    80000cd4:	1ab0b823          	sd	x11,432(x1)
    80000cd8:	ffb00193          	addi	x3,x0,-5
    80000cdc:	00b18463          	beq	x3,x11,0x80000ce4
    80000ce0:	b44ff06f          	jal	x0,0x80000024
    80000ce4:	bff00513          	addi	x10,x0,-1025
    80000ce8:	41f5559b          	sraiw	x11,x10,0x1f
    80000cec:	1ab0bc23          	sd	x11,440(x1)
    80000cf0:	fff00193          	addi	x3,x0,-1
    80000cf4:	00b18463          	beq	x3,x11,0x80000cfc
    80000cf8:	b2cff06f          	jal	x0,0x80000024
    80000cfc:	00100513          	addi	x10,x0,1
    80000d00:	00b51513          	slli	x10,x10,0xb
    80000d04:	fff54513          	xori	x10,x10,-1
    80000d08:	41b5559b          	sraiw	x11,x10,0x1b
    80000d0c:	1cb0b023          	sd	x11,448(x1)
    80000d10:	fff00193          	addi	x3,x0,-1
    80000d14:	00b18463          	beq	x3,x11,0x80000d1c
    80000d18:	b0cff06f          	jal	x0,0x80000024
    80000d1c:	00100513          	addi	x10,x0,1
    80000d20:	00c51513          	slli	x10,x10,0xc
    80000d24:	fff54513          	xori	x10,x10,-1
    80000d28:	40c5559b          	sraiw	x11,x10,0xc
    80000d2c:	1cb0b423          	sd	x11,456(x1)
    80000d30:	ffe00193          	addi	x3,x0,-2
    80000d34:	00b18463          	beq	x3,x11,0x80000d3c
    80000d38:	aecff06f          	jal	x0,0x80000024
    80000d3c:	00100513          	addi	x10,x0,1
    80000d40:	00d51513          	slli	x10,x10,0xd
    80000d44:	fff54513          	xori	x10,x10,-1
    80000d48:	41e5559b          	sraiw	x11,x10,0x1e
    80000d4c:	1cb0b823          	sd	x11,464(x1)
    80000d50:	fff00193          	addi	x3,x0,-1
    80000d54:	00b18463          	beq	x3,x11,0x80000d5c
    80000d58:	accff06f          	jal	x0,0x80000024
    80000d5c:	00100513          	addi	x10,x0,1
    80000d60:	00e51513          	slli	x10,x10,0xe
    80000d64:	fff54513          	xori	x10,x10,-1
    80000d68:	4065559b          	sraiw	x11,x10,0x6
    80000d6c:	1cb0bc23          	sd	x11,472(x1)
    80000d70:	eff00193          	addi	x3,x0,-257
    80000d74:	00b18463          	beq	x3,x11,0x80000d7c
    80000d78:	aacff06f          	jal	x0,0x80000024
    80000d7c:	00100513          	addi	x10,x0,1
    80000d80:	00f51513          	slli	x10,x10,0xf
    80000d84:	fff54513          	xori	x10,x10,-1
    80000d88:	40a5559b          	sraiw	x11,x10,0xa
    80000d8c:	1eb0b023          	sd	x11,480(x1)
    80000d90:	fdf00193          	addi	x3,x0,-33
    80000d94:	00b18463          	beq	x3,x11,0x80000d9c
    80000d98:	a8cff06f          	jal	x0,0x80000024
    80000d9c:	00100513          	addi	x10,x0,1
    80000da0:	01051513          	slli	x10,x10,0x10
    80000da4:	fff54513          	xori	x10,x10,-1
    80000da8:	4035559b          	sraiw	x11,x10,0x3
    80000dac:	1eb0b423          	sd	x11,488(x1)
    80000db0:	ffffe1b7          	lui	x3,0xffffe
    80000db4:	fff1819b          	addiw	x3,x3,-1 # 0xffffffffffffdfff
    80000db8:	00b18463          	beq	x3,x11,0x80000dc0
    80000dbc:	a68ff06f          	jal	x0,0x80000024
    80000dc0:	00100513          	addi	x10,x0,1
    80000dc4:	01151513          	slli	x10,x10,0x11
    80000dc8:	fff54513          	xori	x10,x10,-1
    80000dcc:	4115559b          	sraiw	x11,x10,0x11
    80000dd0:	1eb0b823          	sd	x11,496(x1)
    80000dd4:	ffe00193          	addi	x3,x0,-2
    80000dd8:	00b18463          	beq	x3,x11,0x80000de0
    80000ddc:	a48ff06f          	jal	x0,0x80000024
    80000de0:	00100513          	addi	x10,x0,1
    80000de4:	01251513          	slli	x10,x10,0x12
    80000de8:	fff54513          	xori	x10,x10,-1
    80000dec:	4045559b          	sraiw	x11,x10,0x4
    80000df0:	1eb0bc23          	sd	x11,504(x1)
    80000df4:	ffffc1b7          	lui	x3,0xffffc
    80000df8:	fff1819b          	addiw	x3,x3,-1 # 0xffffffffffffbfff
    80000dfc:	00b18463          	beq	x3,x11,0x80000e04
    80000e00:	a24ff06f          	jal	x0,0x80000024
    80000e04:	00100513          	addi	x10,x0,1
    80000e08:	03551513          	slli	x10,x10,0x35
    80000e0c:	fff54513          	xori	x10,x10,-1
    80000e10:	4075559b          	sraiw	x11,x10,0x7
    80000e14:	20b0b023          	sd	x11,512(x1)
    80000e18:	fff00193          	addi	x3,x0,-1
    80000e1c:	00b18463          	beq	x3,x11,0x80000e24
    80000e20:	a04ff06f          	jal	x0,0x80000024
    80000e24:	00100513          	addi	x10,x0,1
    80000e28:	03651513          	slli	x10,x10,0x36
    80000e2c:	fff54513          	xori	x10,x10,-1
    80000e30:	40c5559b          	sraiw	x11,x10,0xc
    80000e34:	20b0b423          	sd	x11,520(x1)
    80000e38:	fff00193          	addi	x3,x0,-1
    80000e3c:	00b18463          	beq	x3,x11,0x80000e44
    80000e40:	9e4ff06f          	jal	x0,0x80000024
    80000e44:	00100513          	addi	x10,x0,1
    80000e48:	03751513          	slli	x10,x10,0x37
    80000e4c:	fff54513          	xori	x10,x10,-1
    80000e50:	4045559b          	sraiw	x11,x10,0x4
    80000e54:	20b0b823          	sd	x11,528(x1)
    80000e58:	fff00193          	addi	x3,x0,-1
    80000e5c:	00b18463          	beq	x3,x11,0x80000e64
    80000e60:	9c4ff06f          	jal	x0,0x80000024
    80000e64:	00100513          	addi	x10,x0,1
    80000e68:	03851513          	slli	x10,x10,0x38
    80000e6c:	fff54513          	xori	x10,x10,-1
    80000e70:	4055559b          	sraiw	x11,x10,0x5
    80000e74:	20b0bc23          	sd	x11,536(x1)
    80000e78:	fff00193          	addi	x3,x0,-1
    80000e7c:	00b18463          	beq	x3,x11,0x80000e84
    80000e80:	9a4ff06f          	jal	x0,0x80000024
    80000e84:	00100513          	addi	x10,x0,1
    80000e88:	03951513          	slli	x10,x10,0x39
    80000e8c:	fff54513          	xori	x10,x10,-1
    80000e90:	4055559b          	sraiw	x11,x10,0x5
    80000e94:	22b0b023          	sd	x11,544(x1)
    80000e98:	fff00193          	addi	x3,x0,-1
    80000e9c:	00b18463          	beq	x3,x11,0x80000ea4
    80000ea0:	984ff06f          	jal	x0,0x80000024
    80000ea4:	00100513          	addi	x10,x0,1
    80000ea8:	03a51513          	slli	x10,x10,0x3a
    80000eac:	fff54513          	xori	x10,x10,-1
    80000eb0:	40e5559b          	sraiw	x11,x10,0xe
    80000eb4:	22b0b423          	sd	x11,552(x1)
    80000eb8:	fff00193          	addi	x3,x0,-1
    80000ebc:	00b18463          	beq	x3,x11,0x80000ec4
    80000ec0:	964ff06f          	jal	x0,0x80000024
    80000ec4:	00100513          	addi	x10,x0,1
    80000ec8:	03b51513          	slli	x10,x10,0x3b
    80000ecc:	fff54513          	xori	x10,x10,-1
    80000ed0:	4065559b          	sraiw	x11,x10,0x6
    80000ed4:	22b0b823          	sd	x11,560(x1)
    80000ed8:	fff00193          	addi	x3,x0,-1
    80000edc:	00b18463          	beq	x3,x11,0x80000ee4
    80000ee0:	944ff06f          	jal	x0,0x80000024
    80000ee4:	00100513          	addi	x10,x0,1
    80000ee8:	03c51513          	slli	x10,x10,0x3c
    80000eec:	fff54513          	xori	x10,x10,-1
    80000ef0:	4125559b          	sraiw	x11,x10,0x12
    80000ef4:	22b0bc23          	sd	x11,568(x1)
    80000ef8:	fff00193          	addi	x3,x0,-1
    80000efc:	00b18463          	beq	x3,x11,0x80000f04
    80000f00:	924ff06f          	jal	x0,0x80000024
    80000f04:	00100513          	addi	x10,x0,1
    80000f08:	03d51513          	slli	x10,x10,0x3d
    80000f0c:	fff54513          	xori	x10,x10,-1
    80000f10:	4015559b          	sraiw	x11,x10,0x1
    80000f14:	24b0b023          	sd	x11,576(x1)
    80000f18:	fff00193          	addi	x3,x0,-1
    80000f1c:	00b18463          	beq	x3,x11,0x80000f24
    80000f20:	904ff06f          	jal	x0,0x80000024
    80000f24:	00100513          	addi	x10,x0,1
    80000f28:	03e51513          	slli	x10,x10,0x3e
    80000f2c:	fff54513          	xori	x10,x10,-1
    80000f30:	40a5559b          	sraiw	x11,x10,0xa
    80000f34:	24b0b423          	sd	x11,584(x1)
    80000f38:	fff00193          	addi	x3,x0,-1
    80000f3c:	00b18463          	beq	x3,x11,0x80000f44
    80000f40:	8e4ff06f          	jal	x0,0x80000024
    80000f44:	55555537          	lui	x10,0x55555
    80000f48:	55550513          	addi	x10,x10,1365 # 0x55555555
    80000f4c:	00b51513          	slli	x10,x10,0xb
    80000f50:	2aa50513          	addi	x10,x10,682
    80000f54:	00b51513          	slli	x10,x10,0xb
    80000f58:	55550513          	addi	x10,x10,1365
    80000f5c:	00a51513          	slli	x10,x10,0xa
    80000f60:	15550513          	addi	x10,x10,341
    80000f64:	40f5559b          	sraiw	x11,x10,0xf
    80000f68:	24b0b823          	sd	x11,592(x1)
    80000f6c:	0000b1b7          	lui	x3,0xb
    80000f70:	aaa1819b          	addiw	x3,x3,-1366 # 0xaaaa
    80000f74:	00b18463          	beq	x3,x11,0x80000f7c
    80000f78:	8acff06f          	jal	x0,0x80000024
    80000f7c:	aaaab537          	lui	x10,0xaaaab
    80000f80:	aaa50513          	addi	x10,x10,-1366 # 0xffffffffaaaaaaaa
    80000f84:	00b51513          	slli	x10,x10,0xb
    80000f88:	55550513          	addi	x10,x10,1365
    80000f8c:	00b51513          	slli	x10,x10,0xb
    80000f90:	2aa50513          	addi	x10,x10,682
    80000f94:	00a51513          	slli	x10,x10,0xa
    80000f98:	2aa50513          	addi	x10,x10,682
    80000f9c:	4045559b          	sraiw	x11,x10,0x4
    80000fa0:	24b0bc23          	sd	x11,600(x1)
    80000fa4:	faaab1b7          	lui	x3,0xfaaab
    80000fa8:	aaa1819b          	addiw	x3,x3,-1366 # 0xfffffffffaaaaaaa
    80000fac:	00b18463          	beq	x3,x11,0x80000fb4
    80000fb0:	874ff06f          	jal	x0,0x80000024
    80000fb4:	00500513          	addi	x10,x0,5
    80000fb8:	4125559b          	sraiw	x11,x10,0x12
    80000fbc:	26b0b023          	sd	x11,608(x1)
    80000fc0:	00000193          	addi	x3,x0,0
    80000fc4:	00b18463          	beq	x3,x11,0x80000fcc
    80000fc8:	85cff06f          	jal	x0,0x80000024
    80000fcc:	33333537          	lui	x10,0x33333
    80000fd0:	33350513          	addi	x10,x10,819 # 0x33333333
    80000fd4:	00b51513          	slli	x10,x10,0xb
    80000fd8:	19950513          	addi	x10,x10,409
    80000fdc:	00b51513          	slli	x10,x10,0xb
    80000fe0:	4cc50513          	addi	x10,x10,1228
    80000fe4:	00a51513          	slli	x10,x10,0xa
    80000fe8:	33350513          	addi	x10,x10,819
    80000fec:	4105559b          	sraiw	x11,x10,0x10
    80000ff0:	26b0b423          	sd	x11,616(x1)
    80000ff4:	000031b7          	lui	x3,0x3
    80000ff8:	3331819b          	addiw	x3,x3,819 # 0x3333
    80000ffc:	00b18463          	beq	x3,x11,0x80001004
    80001000:	824ff06f          	jal	x0,0x80000024
    80001004:	66666537          	lui	x10,0x66666
    80001008:	66650513          	addi	x10,x10,1638 # 0x66666666
    8000100c:	00b51513          	slli	x10,x10,0xb
    80001010:	33350513          	addi	x10,x10,819
    80001014:	00b51513          	slli	x10,x10,0xb
    80001018:	19950513          	addi	x10,x10,409
    8000101c:	00a51513          	slli	x10,x10,0xa
    80001020:	26650513          	addi	x10,x10,614
    80001024:	4095559b          	sraiw	x11,x10,0x9
    80001028:	26b0b823          	sd	x11,624(x1)
    8000102c:	003331b7          	lui	x3,0x333
    80001030:	3331819b          	addiw	x3,x3,819 # 0x333333
    80001034:	00b18463          	beq	x3,x11,0x8000103c
    80001038:	fedfe06f          	jal	x0,0x80000024
    8000103c:	00000537          	lui	x10,0x0
    80001040:	fff50513          	addi	x10,x10,-1 # 0xffffffffffffffff
    80001044:	00b51513          	slli	x10,x10,0xb
    80001048:	25750513          	addi	x10,x10,599
    8000104c:	00b51513          	slli	x10,x10,0xb
    80001050:	6c350513          	addi	x10,x10,1731
    80001054:	00a51513          	slli	x10,x10,0xa
    80001058:	0cd50513          	addi	x10,x10,205
    8000105c:	4105559b          	sraiw	x11,x10,0x10
    80001060:	26b0bc23          	sd	x11,632(x1)
    80001064:	000051b7          	lui	x3,0x5
    80001068:	afb1819b          	addiw	x3,x3,-1285 # 0x4afb
    8000106c:	00b18463          	beq	x3,x11,0x80001074
    80001070:	fb5fe06f          	jal	x0,0x80000024
    80001074:	00000537          	lui	x10,0x0
    80001078:	00050513          	addi	x10,x10,0 # 0x0
    8000107c:	00b51513          	slli	x10,x10,0xb
    80001080:	5a850513          	addi	x10,x10,1448
    80001084:	00b51513          	slli	x10,x10,0xb
    80001088:	13c50513          	addi	x10,x10,316
    8000108c:	00a51513          	slli	x10,x10,0xa
    80001090:	33350513          	addi	x10,x10,819
    80001094:	4075559b          	sraiw	x11,x10,0x7
    80001098:	28b0b023          	sd	x11,640(x1)
    8000109c:	ff6a11b7          	lui	x3,0xff6a1
    800010a0:	9e61819b          	addiw	x3,x3,-1562 # 0xffffffffff6a09e6
    800010a4:	00b18463          	beq	x3,x11,0x800010ac
    800010a8:	f7dfe06f          	jal	x0,0x80000024
    800010ac:	55555537          	lui	x10,0x55555
    800010b0:	55550513          	addi	x10,x10,1365 # 0x55555555
    800010b4:	00b51513          	slli	x10,x10,0xb
    800010b8:	2aa50513          	addi	x10,x10,682
    800010bc:	00b51513          	slli	x10,x10,0xb
    800010c0:	55550513          	addi	x10,x10,1365
    800010c4:	00a51513          	slli	x10,x10,0xa
    800010c8:	15450513          	addi	x10,x10,340
    800010cc:	41d5559b          	sraiw	x11,x10,0x1d
    800010d0:	28b0b423          	sd	x11,648(x1)
    800010d4:	00200193          	addi	x3,x0,2
    800010d8:	00b18463          	beq	x3,x11,0x800010e0
    800010dc:	f49fe06f          	jal	x0,0x80000024
    800010e0:	33333537          	lui	x10,0x33333
    800010e4:	33350513          	addi	x10,x10,819 # 0x33333333
    800010e8:	00b51513          	slli	x10,x10,0xb
    800010ec:	19950513          	addi	x10,x10,409
    800010f0:	00b51513          	slli	x10,x10,0xb
    800010f4:	4cc50513          	addi	x10,x10,1228
    800010f8:	00a51513          	slli	x10,x10,0xa
    800010fc:	33250513          	addi	x10,x10,818
    80001100:	40e5559b          	sraiw	x11,x10,0xe
    80001104:	28b0b823          	sd	x11,656(x1)
    80001108:	0000d1b7          	lui	x3,0xd
    8000110c:	ccc1819b          	addiw	x3,x3,-820 # 0xcccc
    80001110:	00b18463          	beq	x3,x11,0x80001118
    80001114:	f11fe06f          	jal	x0,0x80000024
    80001118:	66666537          	lui	x10,0x66666
    8000111c:	66650513          	addi	x10,x10,1638 # 0x66666666
    80001120:	00b51513          	slli	x10,x10,0xb
    80001124:	33350513          	addi	x10,x10,819
    80001128:	00b51513          	slli	x10,x10,0xb
    8000112c:	19950513          	addi	x10,x10,409
    80001130:	00a51513          	slli	x10,x10,0xa
    80001134:	26550513          	addi	x10,x10,613
    80001138:	4085559b          	sraiw	x11,x10,0x8
    8000113c:	28b0bc23          	sd	x11,664(x1)
    80001140:	006661b7          	lui	x3,0x666
    80001144:	6661819b          	addiw	x3,x3,1638 # 0x666666
    80001148:	00b18463          	beq	x3,x11,0x80001150
    8000114c:	ed9fe06f          	jal	x0,0x80000024
    80001150:	00000537          	lui	x10,0x0
    80001154:	00050513          	addi	x10,x10,0 # 0x0
    80001158:	00b51513          	slli	x10,x10,0xb
    8000115c:	5a850513          	addi	x10,x10,1448
    80001160:	00b51513          	slli	x10,x10,0xb
    80001164:	13c50513          	addi	x10,x10,316
    80001168:	00a51513          	slli	x10,x10,0xa
    8000116c:	33250513          	addi	x10,x10,818
    80001170:	40c5559b          	sraiw	x11,x10,0xc
    80001174:	2ab0b023          	sd	x11,672(x1)
    80001178:	fffb51b7          	lui	x3,0xfffb5
    8000117c:	04f1819b          	addiw	x3,x3,79 # 0xfffffffffffb504f
    80001180:	00b18463          	beq	x3,x11,0x80001188
    80001184:	ea1fe06f          	jal	x0,0x80000024
    80001188:	55555537          	lui	x10,0x55555
    8000118c:	55550513          	addi	x10,x10,1365 # 0x55555555
    80001190:	00b51513          	slli	x10,x10,0xb
    80001194:	2aa50513          	addi	x10,x10,682
    80001198:	00b51513          	slli	x10,x10,0xb
    8000119c:	55550513          	addi	x10,x10,1365
    800011a0:	00a51513          	slli	x10,x10,0xa
    800011a4:	15650513          	addi	x10,x10,342
    800011a8:	4065559b          	sraiw	x11,x10,0x6
    800011ac:	2ab0b423          	sd	x11,680(x1)
    800011b0:	015551b7          	lui	x3,0x1555
    800011b4:	5551819b          	addiw	x3,x3,1365 # 0x1555555
    800011b8:	00b18463          	beq	x3,x11,0x800011c0
    800011bc:	e69fe06f          	jal	x0,0x80000024
    800011c0:	aaaab537          	lui	x10,0xaaaab
    800011c4:	aaa50513          	addi	x10,x10,-1366 # 0xffffffffaaaaaaaa
    800011c8:	00b51513          	slli	x10,x10,0xb
    800011cc:	55550513          	addi	x10,x10,1365
    800011d0:	00b51513          	slli	x10,x10,0xb
    800011d4:	2aa50513          	addi	x10,x10,682
    800011d8:	00a51513          	slli	x10,x10,0xa
    800011dc:	2ab50513          	addi	x10,x10,683
    800011e0:	41b5559b          	sraiw	x11,x10,0x1b
    800011e4:	2ab0b823          	sd	x11,688(x1)
    800011e8:	ff500193          	addi	x3,x0,-11
    800011ec:	00b18463          	beq	x3,x11,0x800011f4
    800011f0:	e35fe06f          	jal	x0,0x80000024
    800011f4:	00600513          	addi	x10,x0,6
    800011f8:	40b5559b          	sraiw	x11,x10,0xb
    800011fc:	2ab0bc23          	sd	x11,696(x1)
    80001200:	00000193          	addi	x3,x0,0
    80001204:	00b18463          	beq	x3,x11,0x8000120c
    80001208:	e1dfe06f          	jal	x0,0x80000024
    8000120c:	33333537          	lui	x10,0x33333
    80001210:	33350513          	addi	x10,x10,819 # 0x33333333
    80001214:	00b51513          	slli	x10,x10,0xb
    80001218:	19950513          	addi	x10,x10,409
    8000121c:	00b51513          	slli	x10,x10,0xb
    80001220:	4cc50513          	addi	x10,x10,1228
    80001224:	00a51513          	slli	x10,x10,0xa
    80001228:	33450513          	addi	x10,x10,820
    8000122c:	41d5559b          	sraiw	x11,x10,0x1d
    80001230:	2cb0b023          	sd	x11,704(x1)
    80001234:	00100193          	addi	x3,x0,1
    80001238:	00b18463          	beq	x3,x11,0x80001240
    8000123c:	de9fe06f          	jal	x0,0x80000024
    80001240:	66666537          	lui	x10,0x66666
    80001244:	66650513          	addi	x10,x10,1638 # 0x66666666
    80001248:	00b51513          	slli	x10,x10,0xb
    8000124c:	33350513          	addi	x10,x10,819
    80001250:	00b51513          	slli	x10,x10,0xb
    80001254:	19950513          	addi	x10,x10,409
    80001258:	00a51513          	slli	x10,x10,0xa
    8000125c:	26750513          	addi	x10,x10,615
    80001260:	4065559b          	sraiw	x11,x10,0x6
    80001264:	2cb0b423          	sd	x11,712(x1)
    80001268:	0199a1b7          	lui	x3,0x199a
    8000126c:	9991819b          	addiw	x3,x3,-1639 # 0x1999999
    80001270:	00b18463          	beq	x3,x11,0x80001278
    80001274:	db1fe06f          	jal	x0,0x80000024
    80001278:	00000537          	lui	x10,0x0
    8000127c:	fff50513          	addi	x10,x10,-1 # 0xffffffffffffffff
    80001280:	00b51513          	slli	x10,x10,0xb
    80001284:	25750513          	addi	x10,x10,599
    80001288:	00b51513          	slli	x10,x10,0xb
    8000128c:	6c350513          	addi	x10,x10,1731
    80001290:	00a51513          	slli	x10,x10,0xa
    80001294:	0ce50513          	addi	x10,x10,206
    80001298:	4095559b          	sraiw	x11,x10,0x9
    8000129c:	2cb0b823          	sd	x11,720(x1)
    800012a0:	002581b7          	lui	x3,0x258
    800012a4:	d861819b          	addiw	x3,x3,-634 # 0x257d86
    800012a8:	00b18463          	beq	x3,x11,0x800012b0
    800012ac:	d79fe06f          	jal	x0,0x80000024
    800012b0:	00000537          	lui	x10,0x0
    800012b4:	00050513          	addi	x10,x10,0 # 0x0
    800012b8:	00b51513          	slli	x10,x10,0xb
    800012bc:	5a850513          	addi	x10,x10,1448
    800012c0:	00b51513          	slli	x10,x10,0xb
    800012c4:	13c50513          	addi	x10,x10,316
    800012c8:	00a51513          	slli	x10,x10,0xa
    800012cc:	33450513          	addi	x10,x10,820
    800012d0:	41d5559b          	sraiw	x11,x10,0x1d
    800012d4:	2cb0bc23          	sd	x11,728(x1)
    800012d8:	ffd00193          	addi	x3,x0,-3
    800012dc:	00b18463          	beq	x3,x11,0x800012e4
    800012e0:	d45fe06f          	jal	x0,0x80000024
    800012e4:	00100513          	addi	x10,x0,1
    800012e8:	01351513          	slli	x10,x10,0x13
    800012ec:	fff54513          	xori	x10,x10,-1
    800012f0:	41f5559b          	sraiw	x11,x10,0x1f
    800012f4:	2eb0b023          	sd	x11,736(x1)
    800012f8:	fff00193          	addi	x3,x0,-1
    800012fc:	00b18463          	beq	x3,x11,0x80001304
    80001300:	d25fe06f          	jal	x0,0x80000024
    80001304:	00100513          	addi	x10,x0,1
    80001308:	01451513          	slli	x10,x10,0x14
    8000130c:	fff54513          	xori	x10,x10,-1
    80001310:	4065559b          	sraiw	x11,x10,0x6
    80001314:	2eb0b423          	sd	x11,744(x1)
    80001318:	ffffc1b7          	lui	x3,0xffffc
    8000131c:	fff1819b          	addiw	x3,x3,-1 # 0xffffffffffffbfff
    80001320:	00b18463          	beq	x3,x11,0x80001328
    80001324:	d01fe06f          	jal	x0,0x80000024
    80001328:	00100513          	addi	x10,x0,1
    8000132c:	01551513          	slli	x10,x10,0x15
    80001330:	fff54513          	xori	x10,x10,-1
    80001334:	4025559b          	sraiw	x11,x10,0x2
    80001338:	2eb0b823          	sd	x11,752(x1)
    8000133c:	fff801b7          	lui	x3,0xfff80
    80001340:	fff1819b          	addiw	x3,x3,-1 # 0xfffffffffff7ffff
    80001344:	00b18463          	beq	x3,x11,0x8000134c
    80001348:	cddfe06f          	jal	x0,0x80000024
    8000134c:	00100513          	addi	x10,x0,1
    80001350:	01651513          	slli	x10,x10,0x16
    80001354:	fff54513          	xori	x10,x10,-1
    80001358:	41f5559b          	sraiw	x11,x10,0x1f
    8000135c:	2eb0bc23          	sd	x11,760(x1)
    80001360:	fff00193          	addi	x3,x0,-1
    80001364:	00b18463          	beq	x3,x11,0x8000136c
    80001368:	cbdfe06f          	jal	x0,0x80000024
    8000136c:	00100513          	addi	x10,x0,1
    80001370:	01751513          	slli	x10,x10,0x17
    80001374:	fff54513          	xori	x10,x10,-1
    80001378:	4045559b          	sraiw	x11,x10,0x4
    8000137c:	30b0b023          	sd	x11,768(x1)
    80001380:	fff801b7          	lui	x3,0xfff80
    80001384:	fff1819b          	addiw	x3,x3,-1 # 0xfffffffffff7ffff
    80001388:	00b18463          	beq	x3,x11,0x80001390
    8000138c:	c99fe06f          	jal	x0,0x80000024
    80001390:	00100513          	addi	x10,x0,1
    80001394:	01851513          	slli	x10,x10,0x18
    80001398:	fff54513          	xori	x10,x10,-1
    8000139c:	41d5559b          	sraiw	x11,x10,0x1d
    800013a0:	30b0b423          	sd	x11,776(x1)
    800013a4:	fff00193          	addi	x3,x0,-1
    800013a8:	00b18463          	beq	x3,x11,0x800013b0
    800013ac:	c79fe06f          	jal	x0,0x80000024
    800013b0:	00100513          	addi	x10,x0,1
    800013b4:	01951513          	slli	x10,x10,0x19
    800013b8:	fff54513          	xori	x10,x10,-1
    800013bc:	4105559b          	sraiw	x11,x10,0x10
    800013c0:	30b0b823          	sd	x11,784(x1)
    800013c4:	dff00193          	addi	x3,x0,-513
    800013c8:	00b18463          	beq	x3,x11,0x800013d0
    800013cc:	c59fe06f          	jal	x0,0x80000024
    800013d0:	00100513          	addi	x10,x0,1
    800013d4:	01a51513          	slli	x10,x10,0x1a
    800013d8:	fff54513          	xori	x10,x10,-1
    800013dc:	4075559b          	sraiw	x11,x10,0x7
    800013e0:	30b0bc23          	sd	x11,792(x1)
    800013e4:	fff801b7          	lui	x3,0xfff80
    800013e8:	fff1819b          	addiw	x3,x3,-1 # 0xfffffffffff7ffff
    800013ec:	00b18463          	beq	x3,x11,0x800013f4
    800013f0:	c35fe06f          	jal	x0,0x80000024
    800013f4:	00100513          	addi	x10,x0,1
    800013f8:	01b51513          	slli	x10,x10,0x1b
    800013fc:	fff54513          	xori	x10,x10,-1
    80001400:	4035559b          	sraiw	x11,x10,0x3
    80001404:	32b0b023          	sd	x11,800(x1)
    80001408:	ff0001b7          	lui	x3,0xff000
    8000140c:	fff1819b          	addiw	x3,x3,-1 # 0xfffffffffeffffff
    80001410:	00b18463          	beq	x3,x11,0x80001418
    80001414:	c11fe06f          	jal	x0,0x80000024
    80001418:	00100513          	addi	x10,x0,1
    8000141c:	01c51513          	slli	x10,x10,0x1c
    80001420:	fff54513          	xori	x10,x10,-1
    80001424:	4045559b          	sraiw	x11,x10,0x4
    80001428:	32b0b423          	sd	x11,808(x1)
    8000142c:	ff0001b7          	lui	x3,0xff000
    80001430:	fff1819b          	addiw	x3,x3,-1 # 0xfffffffffeffffff
    80001434:	00b18463          	beq	x3,x11,0x8000143c
    80001438:	bedfe06f          	jal	x0,0x80000024
    8000143c:	00100513          	addi	x10,x0,1
    80001440:	01d51513          	slli	x10,x10,0x1d
    80001444:	fff54513          	xori	x10,x10,-1
    80001448:	4065559b          	sraiw	x11,x10,0x6
    8000144c:	32b0b823          	sd	x11,816(x1)
    80001450:	ff8001b7          	lui	x3,0xff800
    80001454:	fff1819b          	addiw	x3,x3,-1 # 0xffffffffff7fffff
    80001458:	00b18463          	beq	x3,x11,0x80001460
    8000145c:	bc9fe06f          	jal	x0,0x80000024
    80001460:	00100513          	addi	x10,x0,1
    80001464:	01e51513          	slli	x10,x10,0x1e
    80001468:	fff54513          	xori	x10,x10,-1
    8000146c:	40e5559b          	sraiw	x11,x10,0xe
    80001470:	32b0bc23          	sd	x11,824(x1)
    80001474:	ffff01b7          	lui	x3,0xffff0
    80001478:	fff1819b          	addiw	x3,x3,-1 # 0xfffffffffffeffff
    8000147c:	00b18463          	beq	x3,x11,0x80001484
    80001480:	ba5fe06f          	jal	x0,0x80000024
    80001484:	00100513          	addi	x10,x0,1
    80001488:	01f51513          	slli	x10,x10,0x1f
    8000148c:	fff54513          	xori	x10,x10,-1
    80001490:	40b5559b          	sraiw	x11,x10,0xb
    80001494:	34b0b023          	sd	x11,832(x1)
    80001498:	001001b7          	lui	x3,0x100
    8000149c:	fff1819b          	addiw	x3,x3,-1 # 0xfffff
    800014a0:	00b18463          	beq	x3,x11,0x800014a8
    800014a4:	b81fe06f          	jal	x0,0x80000024
    800014a8:	00100513          	addi	x10,x0,1
    800014ac:	02051513          	slli	x10,x10,0x20
    800014b0:	fff54513          	xori	x10,x10,-1
    800014b4:	4125559b          	sraiw	x11,x10,0x12
    800014b8:	34b0b423          	sd	x11,840(x1)
    800014bc:	fff00193          	addi	x3,x0,-1
    800014c0:	00b18463          	beq	x3,x11,0x800014c8
    800014c4:	b61fe06f          	jal	x0,0x80000024
    800014c8:	00100513          	addi	x10,x0,1
    800014cc:	02151513          	slli	x10,x10,0x21
    800014d0:	fff54513          	xori	x10,x10,-1
    800014d4:	4115559b          	sraiw	x11,x10,0x11
    800014d8:	34b0b823          	sd	x11,848(x1)
    800014dc:	fff00193          	addi	x3,x0,-1
    800014e0:	00b18463          	beq	x3,x11,0x800014e8
    800014e4:	b41fe06f          	jal	x0,0x80000024
    800014e8:	00100513          	addi	x10,x0,1
    800014ec:	02251513          	slli	x10,x10,0x22
    800014f0:	fff54513          	xori	x10,x10,-1
    800014f4:	40f5559b          	sraiw	x11,x10,0xf
    800014f8:	34b0bc23          	sd	x11,856(x1)
    800014fc:	fff00193          	addi	x3,x0,-1
    80001500:	00b18463          	beq	x3,x11,0x80001508
    80001504:	b21fe06f          	jal	x0,0x80000024
    80001508:	00100513          	addi	x10,x0,1
    8000150c:	02351513          	slli	x10,x10,0x23
    80001510:	fff54513          	xori	x10,x10,-1
    80001514:	40c5559b          	sraiw	x11,x10,0xc
    80001518:	36b0b023          	sd	x11,864(x1)
    8000151c:	fff00193          	addi	x3,x0,-1
    80001520:	00b18463          	beq	x3,x11,0x80001528
    80001524:	b01fe06f          	jal	x0,0x80000024
    80001528:	00100513          	addi	x10,x0,1
    8000152c:	02451513          	slli	x10,x10,0x24
    80001530:	fff54513          	xori	x10,x10,-1
    80001534:	4075559b          	sraiw	x11,x10,0x7
    80001538:	36b0b423          	sd	x11,872(x1)
    8000153c:	fff00193          	addi	x3,x0,-1
    80001540:	00b18463          	beq	x3,x11,0x80001548
    80001544:	ae1fe06f          	jal	x0,0x80000024
    80001548:	00100513          	addi	x10,x0,1
    8000154c:	02551513          	slli	x10,x10,0x25
    80001550:	fff54513          	xori	x10,x10,-1
    80001554:	40a5559b          	sraiw	x11,x10,0xa
    80001558:	36b0b823          	sd	x11,880(x1)
    8000155c:	fff00193          	addi	x3,x0,-1
    80001560:	00b18463          	beq	x3,x11,0x80001568
    80001564:	ac1fe06f          	jal	x0,0x80000024
    80001568:	00100513          	addi	x10,x0,1
    8000156c:	02651513          	slli	x10,x10,0x26
    80001570:	fff54513          	xori	x10,x10,-1
    80001574:	41d5559b          	sraiw	x11,x10,0x1d
    80001578:	36b0bc23          	sd	x11,888(x1)
    8000157c:	fff00193          	addi	x3,x0,-1
    80001580:	00b18463          	beq	x3,x11,0x80001588
    80001584:	aa1fe06f          	jal	x0,0x80000024
    80001588:	00100513          	addi	x10,x0,1
    8000158c:	02851513          	slli	x10,x10,0x28
    80001590:	fff54513          	xori	x10,x10,-1
    80001594:	4085559b          	sraiw	x11,x10,0x8
    80001598:	38b0b023          	sd	x11,896(x1)
    8000159c:	fff00193          	addi	x3,x0,-1
    800015a0:	00b18463          	beq	x3,x11,0x800015a8
    800015a4:	a81fe06f          	jal	x0,0x80000024
    800015a8:	00100513          	addi	x10,x0,1
    800015ac:	02951513          	slli	x10,x10,0x29
    800015b0:	fff54513          	xori	x10,x10,-1
    800015b4:	4045559b          	sraiw	x11,x10,0x4
    800015b8:	38b0b423          	sd	x11,904(x1)
    800015bc:	fff00193          	addi	x3,x0,-1
    800015c0:	00b18463          	beq	x3,x11,0x800015c8
    800015c4:	a61fe06f          	jal	x0,0x80000024
    800015c8:	00100513          	addi	x10,x0,1
    800015cc:	02a51513          	slli	x10,x10,0x2a
    800015d0:	fff54513          	xori	x10,x10,-1
    800015d4:	4115559b          	sraiw	x11,x10,0x11
    800015d8:	38b0b823          	sd	x11,912(x1)
    800015dc:	fff00193          	addi	x3,x0,-1
    800015e0:	00b18463          	beq	x3,x11,0x800015e8
    800015e4:	a41fe06f          	jal	x0,0x80000024
    800015e8:	00100513          	addi	x10,x0,1
    800015ec:	02b51513          	slli	x10,x10,0x2b
    800015f0:	fff54513          	xori	x10,x10,-1
    800015f4:	41f5559b          	sraiw	x11,x10,0x1f
    800015f8:	38b0bc23          	sd	x11,920(x1)
    800015fc:	fff00193          	addi	x3,x0,-1
    80001600:	00b18463          	beq	x3,x11,0x80001608
    80001604:	a21fe06f          	jal	x0,0x80000024
    80001608:	00100513          	addi	x10,x0,1
    8000160c:	02c51513          	slli	x10,x10,0x2c
    80001610:	fff54513          	xori	x10,x10,-1
    80001614:	41b5559b          	sraiw	x11,x10,0x1b
    80001618:	3ab0b023          	sd	x11,928(x1)
    8000161c:	fff00193          	addi	x3,x0,-1
    80001620:	00b18463          	beq	x3,x11,0x80001628
    80001624:	a01fe06f          	jal	x0,0x80000024
    80001628:	00100513          	addi	x10,x0,1
    8000162c:	02d51513          	slli	x10,x10,0x2d
    80001630:	fff54513          	xori	x10,x10,-1
    80001634:	41d5559b          	sraiw	x11,x10,0x1d
    80001638:	3ab0b423          	sd	x11,936(x1)
    8000163c:	fff00193          	addi	x3,x0,-1
    80001640:	00b18463          	beq	x3,x11,0x80001648
    80001644:	9e1fe06f          	jal	x0,0x80000024
    80001648:	00100513          	addi	x10,x0,1
    8000164c:	02e51513          	slli	x10,x10,0x2e
    80001650:	fff54513          	xori	x10,x10,-1
    80001654:	4045559b          	sraiw	x11,x10,0x4
    80001658:	3ab0b823          	sd	x11,944(x1)
    8000165c:	fff00193          	addi	x3,x0,-1
    80001660:	00b18463          	beq	x3,x11,0x80001668
    80001664:	9c1fe06f          	jal	x0,0x80000024
    80001668:	00100513          	addi	x10,x0,1
    8000166c:	02f51513          	slli	x10,x10,0x2f
    80001670:	fff54513          	xori	x10,x10,-1
    80001674:	4015559b          	sraiw	x11,x10,0x1
    80001678:	3ab0bc23          	sd	x11,952(x1)
    8000167c:	fff00193          	addi	x3,x0,-1
    80001680:	00b18463          	beq	x3,x11,0x80001688
    80001684:	9a1fe06f          	jal	x0,0x80000024
    80001688:	00100513          	addi	x10,x0,1
    8000168c:	03051513          	slli	x10,x10,0x30
    80001690:	fff54513          	xori	x10,x10,-1
    80001694:	40e5559b          	sraiw	x11,x10,0xe
    80001698:	3cb0b023          	sd	x11,960(x1)
    8000169c:	fff00193          	addi	x3,x0,-1
    800016a0:	00b18463          	beq	x3,x11,0x800016a8
    800016a4:	981fe06f          	jal	x0,0x80000024
    800016a8:	00100513          	addi	x10,x0,1
    800016ac:	03151513          	slli	x10,x10,0x31
    800016b0:	fff54513          	xori	x10,x10,-1
    800016b4:	40d5559b          	sraiw	x11,x10,0xd
    800016b8:	3cb0b423          	sd	x11,968(x1)
    800016bc:	fff00193          	addi	x3,x0,-1
    800016c0:	00b18463          	beq	x3,x11,0x800016c8
    800016c4:	961fe06f          	jal	x0,0x80000024
    800016c8:	00100513          	addi	x10,x0,1
    800016cc:	03251513          	slli	x10,x10,0x32
    800016d0:	fff54513          	xori	x10,x10,-1
    800016d4:	4025559b          	sraiw	x11,x10,0x2
    800016d8:	3cb0b823          	sd	x11,976(x1)
    800016dc:	fff00193          	addi	x3,x0,-1
    800016e0:	00b18463          	beq	x3,x11,0x800016e8
    800016e4:	941fe06f          	jal	x0,0x80000024
    800016e8:	00100513          	addi	x10,x0,1
    800016ec:	03351513          	slli	x10,x10,0x33
    800016f0:	fff54513          	xori	x10,x10,-1
    800016f4:	41d5559b          	sraiw	x11,x10,0x1d
    800016f8:	3cb0bc23          	sd	x11,984(x1)
    800016fc:	fff00193          	addi	x3,x0,-1
    80001700:	00b18463          	beq	x3,x11,0x80001708
    80001704:	921fe06f          	jal	x0,0x80000024
    80001708:	00100513          	addi	x10,x0,1
    8000170c:	03451513          	slli	x10,x10,0x34
    80001710:	fff54513          	xori	x10,x10,-1
    80001714:	40f5559b          	sraiw	x11,x10,0xf
    80001718:	3eb0b023          	sd	x11,992(x1)
    8000171c:	fff00193          	addi	x3,x0,-1
    80001720:	00b18463          	beq	x3,x11,0x80001728
    80001724:	901fe06f          	jal	x0,0x80000024
    80001728:	fff00513          	addi	x10,x0,-1
    8000172c:	00155513          	srli	x10,x10,0x1
    80001730:	41b5559b          	sraiw	x11,x10,0x1b
    80001734:	3eb0b423          	sd	x11,1000(x1)
    80001738:	fff00193          	addi	x3,x0,-1
    8000173c:	00b18463          	beq	x3,x11,0x80001744
    80001740:	8e5fe06f          	jal	x0,0x80000024
    80001744:	00100513          	addi	x10,x0,1
    80001748:	00d51513          	slli	x10,x10,0xd
    8000174c:	41d5559b          	sraiw	x11,x10,0x1d
    80001750:	3eb0b823          	sd	x11,1008(x1)
    80001754:	00000193          	addi	x3,x0,0
    80001758:	00b18463          	beq	x3,x11,0x80001760
    8000175c:	8c9fe06f          	jal	x0,0x80000024
    80001760:	0380006f          	jal	x0,0x80001798
    80001764:	1f813483          	ld	x9,504(x2)
    80001768:	20013303          	ld	x6,512(x2)
    8000176c:	00930333          	add	x6,x6,x9
    80001770:	00000337          	lui	x6,0x0
    80001774:	00030313          	addi	x6,x6,0 # 0x0
    80001778:	00b31313          	slli	x6,x6,0xb
    8000177c:	5d630313          	addi	x6,x6,1494
    80001780:	00b31313          	slli	x6,x6,0xb
    80001784:	43630313          	addi	x6,x6,1078
    80001788:	00a31313          	slli	x6,x6,0xa
    8000178c:	2d030313          	addi	x6,x6,720
    80001790:	fe64be23          	sd	x6,-4(x9)
    80001794:	0040006f          	jal	x0,0x80001798
    80001798:	00000513          	addi	x10,x0,0
    8000179c:	0200006f          	jal	x0,0x800017bc
	...
    800017bc:	00050513          	addi	x10,x10,0
    800017c0:	00100073          	ebreak
    800017c4:	0000006f          	jal	x0,0x800017c4
    800017c8:	ff010113          	addi	x2,x2,-16
    800017cc:	00000517          	auipc	x10,0x0
    800017d0:	01c50513          	addi	x10,x10,28 # 0x800017e8
    800017d4:	00113423          	sd	x1,8(x2)
    800017d8:	839fe0ef          	jal	x1,0x80000010
    800017dc:	00050513          	addi	x10,x10,0
    800017e0:	00100073          	ebreak
    800017e4:	0000006f          	jal	x0,0x800017e4
	...
    80002000:	cafe                	c.swsp	x31,84(x2)
    80002002:	babe                	c.fsdsp	f15,368(x2)
    80002004:	cafe                	c.swsp	x31,84(x2)
    80002006:	babe                	c.fsdsp	f15,368(x2)
    80002008:	cafe                	c.swsp	x31,84(x2)
    8000200a:	babe                	c.fsdsp	f15,368(x2)
    8000200c:	cafe                	c.swsp	x31,84(x2)
    8000200e:	babe                	c.fsdsp	f15,368(x2)
    80002010:	deadbeef          	jal	x29,0x7ffdd5fa
    80002014:	deadbeef          	jal	x29,0x7ffdd5fe
	...
    80003000:	b281                	c.j	0x80002940
    80003002:	e7d4                	c.sd	x13,136(x15)
    80003004:	a309                	c.j	0x80003506
    80003006:	6f5c                	c.ld	x15,152(x14)
    80003008:	deadbeef          	jal	x29,0x7ffde5f2
    8000300c:	deadbeef          	jal	x29,0x7ffde5f6
    80003010:	deadbeef          	jal	x29,0x7ffde5fa
    80003014:	deadbeef          	jal	x29,0x7ffde5fe
    80003018:	deadbeef          	jal	x29,0x7ffde602
    8000301c:	deadbeef          	jal	x29,0x7ffde606
    80003020:	deadbeef          	jal	x29,0x7ffde60a
    80003024:	deadbeef          	jal	x29,0x7ffde60e
    80003028:	deadbeef          	jal	x29,0x7ffde612
    8000302c:	deadbeef          	jal	x29,0x7ffde616
    80003030:	deadbeef          	jal	x29,0x7ffde61a
    80003034:	deadbeef          	jal	x29,0x7ffde61e
    80003038:	deadbeef          	jal	x29,0x7ffde622
    8000303c:	deadbeef          	jal	x29,0x7ffde626
    80003040:	deadbeef          	jal	x29,0x7ffde62a
    80003044:	deadbeef          	jal	x29,0x7ffde62e
    80003048:	deadbeef          	jal	x29,0x7ffde632
    8000304c:	deadbeef          	jal	x29,0x7ffde636
    80003050:	deadbeef          	jal	x29,0x7ffde63a
    80003054:	deadbeef          	jal	x29,0x7ffde63e
    80003058:	deadbeef          	jal	x29,0x7ffde642
    8000305c:	deadbeef          	jal	x29,0x7ffde646
    80003060:	deadbeef          	jal	x29,0x7ffde64a
    80003064:	deadbeef          	jal	x29,0x7ffde64e
    80003068:	deadbeef          	jal	x29,0x7ffde652
    8000306c:	deadbeef          	jal	x29,0x7ffde656
    80003070:	deadbeef          	jal	x29,0x7ffde65a
    80003074:	deadbeef          	jal	x29,0x7ffde65e
    80003078:	deadbeef          	jal	x29,0x7ffde662
    8000307c:	deadbeef          	jal	x29,0x7ffde666
    80003080:	deadbeef          	jal	x29,0x7ffde66a
    80003084:	deadbeef          	jal	x29,0x7ffde66e
    80003088:	deadbeef          	jal	x29,0x7ffde672
    8000308c:	deadbeef          	jal	x29,0x7ffde676
    80003090:	deadbeef          	jal	x29,0x7ffde67a
    80003094:	deadbeef          	jal	x29,0x7ffde67e
    80003098:	deadbeef          	jal	x29,0x7ffde682
    8000309c:	deadbeef          	jal	x29,0x7ffde686
    800030a0:	deadbeef          	jal	x29,0x7ffde68a
    800030a4:	deadbeef          	jal	x29,0x7ffde68e
    800030a8:	deadbeef          	jal	x29,0x7ffde692
    800030ac:	deadbeef          	jal	x29,0x7ffde696
    800030b0:	deadbeef          	jal	x29,0x7ffde69a
    800030b4:	deadbeef          	jal	x29,0x7ffde69e
    800030b8:	deadbeef          	jal	x29,0x7ffde6a2
    800030bc:	deadbeef          	jal	x29,0x7ffde6a6
    800030c0:	deadbeef          	jal	x29,0x7ffde6aa
    800030c4:	deadbeef          	jal	x29,0x7ffde6ae
    800030c8:	deadbeef          	jal	x29,0x7ffde6b2
    800030cc:	deadbeef          	jal	x29,0x7ffde6b6
    800030d0:	deadbeef          	jal	x29,0x7ffde6ba
    800030d4:	deadbeef          	jal	x29,0x7ffde6be
    800030d8:	deadbeef          	jal	x29,0x7ffde6c2
    800030dc:	deadbeef          	jal	x29,0x7ffde6c6
    800030e0:	deadbeef          	jal	x29,0x7ffde6ca
    800030e4:	deadbeef          	jal	x29,0x7ffde6ce
    800030e8:	deadbeef          	jal	x29,0x7ffde6d2
    800030ec:	deadbeef          	jal	x29,0x7ffde6d6
    800030f0:	deadbeef          	jal	x29,0x7ffde6da
    800030f4:	deadbeef          	jal	x29,0x7ffde6de
    800030f8:	deadbeef          	jal	x29,0x7ffde6e2
    800030fc:	deadbeef          	jal	x29,0x7ffde6e6
    80003100:	deadbeef          	jal	x29,0x7ffde6ea
    80003104:	deadbeef          	jal	x29,0x7ffde6ee
    80003108:	deadbeef          	jal	x29,0x7ffde6f2
    8000310c:	deadbeef          	jal	x29,0x7ffde6f6
    80003110:	deadbeef          	jal	x29,0x7ffde6fa
    80003114:	deadbeef          	jal	x29,0x7ffde6fe
    80003118:	deadbeef          	jal	x29,0x7ffde702
    8000311c:	deadbeef          	jal	x29,0x7ffde706
    80003120:	deadbeef          	jal	x29,0x7ffde70a
    80003124:	deadbeef          	jal	x29,0x7ffde70e
    80003128:	deadbeef          	jal	x29,0x7ffde712
    8000312c:	deadbeef          	jal	x29,0x7ffde716
    80003130:	deadbeef          	jal	x29,0x7ffde71a
    80003134:	deadbeef          	jal	x29,0x7ffde71e
    80003138:	deadbeef          	jal	x29,0x7ffde722
    8000313c:	deadbeef          	jal	x29,0x7ffde726
    80003140:	deadbeef          	jal	x29,0x7ffde72a
    80003144:	deadbeef          	jal	x29,0x7ffde72e
    80003148:	deadbeef          	jal	x29,0x7ffde732
    8000314c:	deadbeef          	jal	x29,0x7ffde736
    80003150:	deadbeef          	jal	x29,0x7ffde73a
    80003154:	deadbeef          	jal	x29,0x7ffde73e
    80003158:	deadbeef          	jal	x29,0x7ffde742
    8000315c:	deadbeef          	jal	x29,0x7ffde746
    80003160:	deadbeef          	jal	x29,0x7ffde74a
    80003164:	deadbeef          	jal	x29,0x7ffde74e
    80003168:	deadbeef          	jal	x29,0x7ffde752
    8000316c:	deadbeef          	jal	x29,0x7ffde756
    80003170:	deadbeef          	jal	x29,0x7ffde75a
    80003174:	deadbeef          	jal	x29,0x7ffde75e
    80003178:	deadbeef          	jal	x29,0x7ffde762
    8000317c:	deadbeef          	jal	x29,0x7ffde766
    80003180:	deadbeef          	jal	x29,0x7ffde76a
    80003184:	deadbeef          	jal	x29,0x7ffde76e
    80003188:	deadbeef          	jal	x29,0x7ffde772
    8000318c:	deadbeef          	jal	x29,0x7ffde776
    80003190:	deadbeef          	jal	x29,0x7ffde77a
    80003194:	deadbeef          	jal	x29,0x7ffde77e
    80003198:	deadbeef          	jal	x29,0x7ffde782
    8000319c:	deadbeef          	jal	x29,0x7ffde786
    800031a0:	deadbeef          	jal	x29,0x7ffde78a
    800031a4:	deadbeef          	jal	x29,0x7ffde78e
    800031a8:	deadbeef          	jal	x29,0x7ffde792
    800031ac:	deadbeef          	jal	x29,0x7ffde796
    800031b0:	deadbeef          	jal	x29,0x7ffde79a
    800031b4:	deadbeef          	jal	x29,0x7ffde79e
    800031b8:	deadbeef          	jal	x29,0x7ffde7a2
    800031bc:	deadbeef          	jal	x29,0x7ffde7a6
    800031c0:	deadbeef          	jal	x29,0x7ffde7aa
    800031c4:	deadbeef          	jal	x29,0x7ffde7ae
    800031c8:	deadbeef          	jal	x29,0x7ffde7b2
    800031cc:	deadbeef          	jal	x29,0x7ffde7b6
    800031d0:	deadbeef          	jal	x29,0x7ffde7ba
    800031d4:	deadbeef          	jal	x29,0x7ffde7be
    800031d8:	deadbeef          	jal	x29,0x7ffde7c2
    800031dc:	deadbeef          	jal	x29,0x7ffde7c6
    800031e0:	deadbeef          	jal	x29,0x7ffde7ca
    800031e4:	deadbeef          	jal	x29,0x7ffde7ce
    800031e8:	deadbeef          	jal	x29,0x7ffde7d2
    800031ec:	deadbeef          	jal	x29,0x7ffde7d6
    800031f0:	deadbeef          	jal	x29,0x7ffde7da
    800031f4:	deadbeef          	jal	x29,0x7ffde7de
    800031f8:	deadbeef          	jal	x29,0x7ffde7e2
    800031fc:	deadbeef          	jal	x29,0x7ffde7e6
    80003200:	deadbeef          	jal	x29,0x7ffde7ea
    80003204:	deadbeef          	jal	x29,0x7ffde7ee
    80003208:	deadbeef          	jal	x29,0x7ffde7f2
    8000320c:	deadbeef          	jal	x29,0x7ffde7f6
    80003210:	deadbeef          	jal	x29,0x7ffde7fa
    80003214:	deadbeef          	jal	x29,0x7ffde7fe
    80003218:	deadbeef          	jal	x29,0x7ffde802
    8000321c:	deadbeef          	jal	x29,0x7ffde806
    80003220:	deadbeef          	jal	x29,0x7ffde80a
    80003224:	deadbeef          	jal	x29,0x7ffde80e
    80003228:	deadbeef          	jal	x29,0x7ffde812
    8000322c:	deadbeef          	jal	x29,0x7ffde816
    80003230:	deadbeef          	jal	x29,0x7ffde81a
    80003234:	deadbeef          	jal	x29,0x7ffde81e
    80003238:	deadbeef          	jal	x29,0x7ffde822
    8000323c:	deadbeef          	jal	x29,0x7ffde826
    80003240:	deadbeef          	jal	x29,0x7ffde82a
    80003244:	deadbeef          	jal	x29,0x7ffde82e
    80003248:	deadbeef          	jal	x29,0x7ffde832
    8000324c:	deadbeef          	jal	x29,0x7ffde836
    80003250:	deadbeef          	jal	x29,0x7ffde83a
    80003254:	deadbeef          	jal	x29,0x7ffde83e
    80003258:	deadbeef          	jal	x29,0x7ffde842
    8000325c:	deadbeef          	jal	x29,0x7ffde846
    80003260:	deadbeef          	jal	x29,0x7ffde84a
    80003264:	deadbeef          	jal	x29,0x7ffde84e
    80003268:	deadbeef          	jal	x29,0x7ffde852
    8000326c:	deadbeef          	jal	x29,0x7ffde856
    80003270:	deadbeef          	jal	x29,0x7ffde85a
    80003274:	deadbeef          	jal	x29,0x7ffde85e
    80003278:	deadbeef          	jal	x29,0x7ffde862
    8000327c:	deadbeef          	jal	x29,0x7ffde866
    80003280:	deadbeef          	jal	x29,0x7ffde86a
    80003284:	deadbeef          	jal	x29,0x7ffde86e
    80003288:	deadbeef          	jal	x29,0x7ffde872
    8000328c:	deadbeef          	jal	x29,0x7ffde876
    80003290:	deadbeef          	jal	x29,0x7ffde87a
    80003294:	deadbeef          	jal	x29,0x7ffde87e
    80003298:	deadbeef          	jal	x29,0x7ffde882
    8000329c:	deadbeef          	jal	x29,0x7ffde886
    800032a0:	deadbeef          	jal	x29,0x7ffde88a
    800032a4:	deadbeef          	jal	x29,0x7ffde88e
    800032a8:	deadbeef          	jal	x29,0x7ffde892
    800032ac:	deadbeef          	jal	x29,0x7ffde896
    800032b0:	deadbeef          	jal	x29,0x7ffde89a
    800032b4:	deadbeef          	jal	x29,0x7ffde89e
    800032b8:	deadbeef          	jal	x29,0x7ffde8a2
    800032bc:	deadbeef          	jal	x29,0x7ffde8a6
    800032c0:	deadbeef          	jal	x29,0x7ffde8aa
    800032c4:	deadbeef          	jal	x29,0x7ffde8ae
    800032c8:	deadbeef          	jal	x29,0x7ffde8b2
    800032cc:	deadbeef          	jal	x29,0x7ffde8b6
    800032d0:	deadbeef          	jal	x29,0x7ffde8ba
    800032d4:	deadbeef          	jal	x29,0x7ffde8be
    800032d8:	deadbeef          	jal	x29,0x7ffde8c2
    800032dc:	deadbeef          	jal	x29,0x7ffde8c6
    800032e0:	deadbeef          	jal	x29,0x7ffde8ca
    800032e4:	deadbeef          	jal	x29,0x7ffde8ce
    800032e8:	deadbeef          	jal	x29,0x7ffde8d2
    800032ec:	deadbeef          	jal	x29,0x7ffde8d6
    800032f0:	deadbeef          	jal	x29,0x7ffde8da
    800032f4:	deadbeef          	jal	x29,0x7ffde8de
    800032f8:	deadbeef          	jal	x29,0x7ffde8e2
    800032fc:	deadbeef          	jal	x29,0x7ffde8e6
    80003300:	deadbeef          	jal	x29,0x7ffde8ea
    80003304:	deadbeef          	jal	x29,0x7ffde8ee
    80003308:	deadbeef          	jal	x29,0x7ffde8f2
    8000330c:	deadbeef          	jal	x29,0x7ffde8f6
    80003310:	deadbeef          	jal	x29,0x7ffde8fa
    80003314:	deadbeef          	jal	x29,0x7ffde8fe
    80003318:	deadbeef          	jal	x29,0x7ffde902
    8000331c:	deadbeef          	jal	x29,0x7ffde906
    80003320:	deadbeef          	jal	x29,0x7ffde90a
    80003324:	deadbeef          	jal	x29,0x7ffde90e
    80003328:	deadbeef          	jal	x29,0x7ffde912
    8000332c:	deadbeef          	jal	x29,0x7ffde916
    80003330:	deadbeef          	jal	x29,0x7ffde91a
    80003334:	deadbeef          	jal	x29,0x7ffde91e
    80003338:	deadbeef          	jal	x29,0x7ffde922
    8000333c:	deadbeef          	jal	x29,0x7ffde926
    80003340:	deadbeef          	jal	x29,0x7ffde92a
    80003344:	deadbeef          	jal	x29,0x7ffde92e
    80003348:	deadbeef          	jal	x29,0x7ffde932
    8000334c:	deadbeef          	jal	x29,0x7ffde936
    80003350:	deadbeef          	jal	x29,0x7ffde93a
    80003354:	deadbeef          	jal	x29,0x7ffde93e
    80003358:	deadbeef          	jal	x29,0x7ffde942
    8000335c:	deadbeef          	jal	x29,0x7ffde946
    80003360:	deadbeef          	jal	x29,0x7ffde94a
    80003364:	deadbeef          	jal	x29,0x7ffde94e
    80003368:	deadbeef          	jal	x29,0x7ffde952
    8000336c:	deadbeef          	jal	x29,0x7ffde956
    80003370:	deadbeef          	jal	x29,0x7ffde95a
    80003374:	deadbeef          	jal	x29,0x7ffde95e
    80003378:	deadbeef          	jal	x29,0x7ffde962
    8000337c:	deadbeef          	jal	x29,0x7ffde966
    80003380:	deadbeef          	jal	x29,0x7ffde96a
    80003384:	deadbeef          	jal	x29,0x7ffde96e
    80003388:	deadbeef          	jal	x29,0x7ffde972
    8000338c:	deadbeef          	jal	x29,0x7ffde976
    80003390:	deadbeef          	jal	x29,0x7ffde97a
    80003394:	deadbeef          	jal	x29,0x7ffde97e
    80003398:	deadbeef          	jal	x29,0x7ffde982
    8000339c:	deadbeef          	jal	x29,0x7ffde986
    800033a0:	deadbeef          	jal	x29,0x7ffde98a
    800033a4:	deadbeef          	jal	x29,0x7ffde98e
    800033a8:	deadbeef          	jal	x29,0x7ffde992
    800033ac:	deadbeef          	jal	x29,0x7ffde996
    800033b0:	deadbeef          	jal	x29,0x7ffde99a
    800033b4:	deadbeef          	jal	x29,0x7ffde99e
    800033b8:	deadbeef          	jal	x29,0x7ffde9a2
    800033bc:	deadbeef          	jal	x29,0x7ffde9a6
    800033c0:	deadbeef          	jal	x29,0x7ffde9aa
    800033c4:	deadbeef          	jal	x29,0x7ffde9ae
    800033c8:	deadbeef          	jal	x29,0x7ffde9b2
    800033cc:	deadbeef          	jal	x29,0x7ffde9b6
    800033d0:	deadbeef          	jal	x29,0x7ffde9ba
    800033d4:	deadbeef          	jal	x29,0x7ffde9be
    800033d8:	deadbeef          	jal	x29,0x7ffde9c2
    800033dc:	deadbeef          	jal	x29,0x7ffde9c6
    800033e0:	deadbeef          	jal	x29,0x7ffde9ca
    800033e4:	deadbeef          	jal	x29,0x7ffde9ce
    800033e8:	deadbeef          	jal	x29,0x7ffde9d2
    800033ec:	deadbeef          	jal	x29,0x7ffde9d6
    800033f0:	deadbeef          	jal	x29,0x7ffde9da
    800033f4:	deadbeef          	jal	x29,0x7ffde9de
    800033f8:	deadbeef          	jal	x29,0x7ffde9e2
    800033fc:	deadbeef          	jal	x29,0x7ffde9e6
    80003400:	deadbeef          	jal	x29,0x7ffde9ea
    80003404:	deadbeef          	jal	x29,0x7ffde9ee
    80003408:	deadbeef          	jal	x29,0x7ffde9f2
    8000340c:	deadbeef          	jal	x29,0x7ffde9f6
    80003410:	deadbeef          	jal	x29,0x7ffde9fa
    80003414:	deadbeef          	jal	x29,0x7ffde9fe
    80003418:	deadbeef          	jal	x29,0x7ffdea02
    8000341c:	deadbeef          	jal	x29,0x7ffdea06
    80003420:	deadbeef          	jal	x29,0x7ffdea0a
    80003424:	deadbeef          	jal	x29,0x7ffdea0e
    80003428:	deadbeef          	jal	x29,0x7ffdea12
    8000342c:	deadbeef          	jal	x29,0x7ffdea16
    80003430:	deadbeef          	jal	x29,0x7ffdea1a
    80003434:	deadbeef          	jal	x29,0x7ffdea1e
    80003438:	deadbeef          	jal	x29,0x7ffdea22
    8000343c:	deadbeef          	jal	x29,0x7ffdea26
    80003440:	deadbeef          	jal	x29,0x7ffdea2a
    80003444:	deadbeef          	jal	x29,0x7ffdea2e
    80003448:	deadbeef          	jal	x29,0x7ffdea32
    8000344c:	deadbeef          	jal	x29,0x7ffdea36
    80003450:	deadbeef          	jal	x29,0x7ffdea3a
    80003454:	deadbeef          	jal	x29,0x7ffdea3e
    80003458:	deadbeef          	jal	x29,0x7ffdea42
    8000345c:	deadbeef          	jal	x29,0x7ffdea46
    80003460:	deadbeef          	jal	x29,0x7ffdea4a
    80003464:	deadbeef          	jal	x29,0x7ffdea4e
    80003468:	deadbeef          	jal	x29,0x7ffdea52
    8000346c:	deadbeef          	jal	x29,0x7ffdea56
    80003470:	deadbeef          	jal	x29,0x7ffdea5a
    80003474:	deadbeef          	jal	x29,0x7ffdea5e
    80003478:	deadbeef          	jal	x29,0x7ffdea62
    8000347c:	deadbeef          	jal	x29,0x7ffdea66
    80003480:	deadbeef          	jal	x29,0x7ffdea6a
    80003484:	deadbeef          	jal	x29,0x7ffdea6e
    80003488:	deadbeef          	jal	x29,0x7ffdea72
    8000348c:	deadbeef          	jal	x29,0x7ffdea76
    80003490:	deadbeef          	jal	x29,0x7ffdea7a
    80003494:	deadbeef          	jal	x29,0x7ffdea7e
    80003498:	deadbeef          	jal	x29,0x7ffdea82
    8000349c:	deadbeef          	jal	x29,0x7ffdea86
    800034a0:	deadbeef          	jal	x29,0x7ffdea8a
    800034a4:	deadbeef          	jal	x29,0x7ffdea8e
    800034a8:	deadbeef          	jal	x29,0x7ffdea92
    800034ac:	deadbeef          	jal	x29,0x7ffdea96
    800034b0:	deadbeef          	jal	x29,0x7ffdea9a
    800034b4:	deadbeef          	jal	x29,0x7ffdea9e
    800034b8:	deadbeef          	jal	x29,0x7ffdeaa2
    800034bc:	deadbeef          	jal	x29,0x7ffdeaa6
    800034c0:	deadbeef          	jal	x29,0x7ffdeaaa
    800034c4:	deadbeef          	jal	x29,0x7ffdeaae
    800034c8:	b281                	c.j	0x80002e08
    800034ca:	e7d4                	c.sd	x13,136(x15)
    800034cc:	a309                	c.j	0x800039ce
    800034ce:	6f5c                	c.ld	x15,152(x14)
