
elf/riscv-arch-test/sraw-riscv64-nemu.elf:     file format binary

Contents of section .data:
 1000 13040000 17c10000 1301c1ff ef101024  ...............$
 1010 ef000003 13051000 ef109022 13050000  ..........."....
 1020 67800000 13051000 ef109021 67800000  g..........!g...
 1030 00000000 00000000 00000000 00000000  ................
 1040 b7c0edfe 9380d0ea 9390b000 9380707f  ..............p.
 1050 9390b000 9380f036 9390a000 9380d02a  .......6.......*
 1060 37e176ff 130161f5 1311b100 1301b17f  7.v...a.........
 1070 1311b100 1301715b 1311a100 13016135  ......q[......a5
 1080 b771bb7f 9381b1fa 9391b100 9381d13f  .q.............?
 1090 9391b100 9381b16d 9391a100 9381b13a  .......m.......:
 10a0 37b2ddbf 1302527d 1312b200 1302e25f  7.....R}......._
 10b0 1312b200 1302d276 1312a200 1302523d  .......v......R=
 10c0 b7e2eedf 9382a2be 9392b200 9382f26f  ...............o
 10d0 9392b200 9382623b 9392a200 9382a23e  ......b;.......>
 10e0 3773f76f 130353df 1313b300 1303f337  7s.o..S........7
 10f0 1313b300 1303b35d 1313a300 1303531f  .......]......S.
 1100 b7b3fbb7 9383a36f 9393b300 9383f35b  .......o.......[
 1110 9393b300 9383d36e 9393a300 9383a32f  .......n......./
 1120 37e4fd5b 1304d4b7 1314b400 1304f42d  7..[...........-
 1130 1314b400 13046477 1314a400 1304d437  ......dw.......7
 1140 b7f4fead 9384e4db 9394b400 9384f456  ...............V
 1150 9394b400 9384b47b 9394a400 9384e41b  .......{........
 1160 3775ff56 1305f56d 1315b500 1305752b  7u.V...m......u+
 1170 1315b500 1305d57d 1315a500 1305f52d  .......}.......-
 1180 b7c57fab 9385f5b6 9395b500 9385b555  ...............U
 1190 9395b500 9385e57e 9395a500 9385f536  .......~.......6
 11a0 37e6bfd5 130676db 1316b600 1306d66a  7.....v........j
 11b0 1316b600 1306767f 1316a600 1306761b  ......v.......v.
 11c0 b7f6dfea 9386b6ed 9396b600 93866675  ..............fu
 11d0 9396b600 9386b67f 9396a600 9386b62d  ...............-
 11e0 37f76ff5 1307d776 1317b700 1307b77a  7.o....v.......z
 11f0 1317b700 1307d73f 1317a700 1307d736  .......?.......6
 1200 b707b8fa 938767bb 9397b700 9387577d  ......g.......W}
 1210 9397b700 9387e75f 9397a700 9387673b  ......._......g;
 1220 37085c7d 1308b8dd 1318b800 1308a83e  7.\}...........>
 1230 1318b800 1308f86f 1318a800 1308b81d  .......o........
 1240 b708aebe 9388d8ee 9398b800 9388585f  ..............X_
 1250 9398b800 9388f837 9398a800 9388d82e  .......7........
 1260 370957df 130969f7 1319b900 1309a96f  7.W...i........o
 1270 1319b900 1309f95b 1319a900 13096937  .......[......i7
 1280 b789ab6f 9389b9fb 9399b900 9389d937  ...o...........7
 1290 9399b900 9389f92d 9399a900 9389b93b  .......-.......;
 12a0 37cad5b7 130adafd 131aba00 130aea5b  7..............[
 12b0 131aba00 130afa56 131aaa00 130ada3d  .......V.......=
 12c0 b7eaeadb 938aeafe 939aba00 938afa6d  ...............m
 12d0 939aba00 938a7a2b 939aaa00 938aea3e  ......z+.......>
 12e0 377bf56d 130b7bff 131bbb00 130bfb36  7{.m..{........6
 12f0 131bbb00 130bbb55 131bab00 130b7b3f  .......U......{?
 1300 b7bbfab6 938bbb7f 939bbb00 938b7b5b  ..............{[
 1310 939bbb00 938bdb6a 939bab00 938bbb3f  .......j.......?
 1320 376c7ddb 130cdcbf 131cbc00 130cbc6d  7l}............m
 1330 131cbc00 130c6c75 131cac00 130cdc3f  ......lu.......?
 1340 b7bcbeed 938cecdf 939cbc00 938cdc76  ...............v
 1350 939cbc00 938cbc7a 939cac00 938cec1f  .......z........
 1360 375ddf76 130dfd6f 131dbd00 130d6d3b  7].v...o......m;
 1370 131dbd00 130d5d7d 131dad00 130dfd2f  ......]}......./
 1380 b7bd6fbb 938dfdb7 939dbd00 938dbd5d  ..o............]
 1390 939dbd00 938dad3e 939dad00 938dfd37  .......>.......7
 13a0 37deb7dd 130efe5b 131ebe00 130ede6e  7......[.......n
 13b0 131ebe00 130e5e5f 131eae00 130efe1b  ......^_........
 13c0 b7fedbee 938efead 939ebe00 938e6e77  ..............nw
 13d0 939ebe00 938eae6f 939eae00 938efe2d  .......o.......-
 13e0 37ff6df7 130fff56 131fbf00 130fbf7b  7.m....V.......{
 13f0 131fbf00 130fdf37 131faf00 130fff16  .......7........
 1400 b70fb7fb 938f7fab 939fbf00 938fdf7d  ...............}
 1410 939fbf00 938fef5b 939faf00 938f7f2b  .......[.......+
 1420 97310000 938181be 13000000 13000000  .1..............
 1430 13000000 13000000 13000000 13000000  ................
 1440 9306f0ef 9306f0ef 3bd1d640 23b02100  ........;..@#.!.
 1450 1307f0ff 63042700 6ff0dfbc 93021000  ....c.'.o.......
 1460 9392c200 9307f001 bbd7f240 23b4f100  ...........@#...
 1470 13070000 6304f700 6ff0dfba 13031000  ....c...o.......
 1480 13131301 1343f3ff 13031000 13131301  .....C..........
 1490 1343f3ff 3b536340 23b86100 1307f0ff  .C..;Sc@#.a.....
 14a0 63046700 6ff01fb8 930c1000 939c3c01  c.g.o.........<.
 14b0 130d0000 bbd6ac41 23bcd100 37070800  .......A#...7...
 14c0 6304d700 6ff01fb6 930b9000 93059000  c...o...........
 14d0 bbdbbb40 23b07103 13070000 63047701  ...@#.q.....c.w.
 14e0 6ff05fb4 9304f0ff 9394f403 1309e000  o._.............
 14f0 3bd02441 23b40102 13070000 63040700  ;.$A#.......c...
 1500 6ff05fb2 93050000 930d3001 bbd4b541  o._.......0....A
 1510 23b89102 13070000 63049700 6ff09fb0  #.......c...o...
 1520 130ff0ff 135f1f00 13065001 3b54cf40  ....._....P.;T.@
 1530 23bc8102 1307f0ff 63048700 6ff09fae  #.......c...o...
 1540 930e1000 93030000 bbda7e40 23b05105  ..........~@#.Q.
 1550 13071000 63045701 6ff0dfac 13000000  ....c.W.o.......
 1560 130ca000 bb528041 23b45104 13070000  .....R.A#.Q.....
 1570 63045700 6ff01fab 93094000 130b3001  c.W.o.....@...0.
 1580 bbdd6941 23b8b105 13070000 6304b701  ..iA#.......c...
 1590 6ff05fa9 93088000 13029000 bbd04840  o._...........H@
 15a0 23bc1104 13070000 63041700 6ff09fa7  #.......c...o...
 15b0 93000001 930c7001 bbdf9041 23b0f107  ......p....A#...
 15c0 13070000 6304f701 6ff0dfa5 13050002  ....c...o.......
 15d0 9304f000 3b5f9540 23b4e107 13070000  ....;_.@#.......
 15e0 6304e701 6ff01fa4 13080004 930b7001  c...o.........p.
 15f0 3b5d7841 23b8a107 13070000 6304a701  ;]xA#.......c...
 1600 6ff05fa2 930a0008 13044000 3bde8a40  o._.......@.;..@
 1610 23bcc107 93048000 6384c401 6ff09fa0  #.......c...o...
 1620 17330000 130383a6 13000000 13000000  .3..............
 1630 13000000 13000000 13000000 13000000  ................
 1640 130a0010 1308d000 3b5c0a41 23308301  ........;\.A#0..
 1650 93040000 63848401 6ff0df9c 930d0020  ....c...o...... 
 1660 1301e000 bbd82d40 23341301 93040000  ......-@#4......
 1670 63841401 6ff01f9b 93070040 13055000  c...o......@..P.
 1680 3bdba740 23386301 93040002 63846401  ;..@#8c.....c.d.
 1690 6ff05f99 93031000 9393b300 130fa000  o._.............
 16a0 bbd5e341 233cb300 93042000 6384b400  ...A#<.... .c...
 16b0 6ff05f97 130e1000 131ede00 9300b001  o._.............
 16c0 bb5c1e40 23309303 93040000 63849401  .\.@#0......c...
 16d0 6ff05f95 930f1000 939fef00 13000000  o._.............
 16e0 3bd60f40 2334c302 b7440000 6384c400  ;..@#4...D..c...
 16f0 6ff05f93 130b1000 131bfb00 930eb000  o._.............
 1700 3b5adb41 23384303 93040001 63844401  ;Z.A#8C.....c.D.
 1710 6ff05f91 13071000 13170701 130e0001  o._.............
 1720 bb51c741 233c3302 93041000 63843400  .Q.A#<3.....c.4.
 1730 6ff05f8f 93011000 93911101 930a3001  o._...........0.
 1740 bbde5141 2330d305 93040000 6384d401  ..QA#0......c...
 1750 6ff05f8d 130c1000 131c2c01 130a0001  o._.......,.....
 1760 3b574c41 2334e304 93044000 6384e400  ;WLA#4....@.c...
 1770 6ff05f8b 13011000 13114101 9309d001  o._.......A.....
 1780 3b553141 2338a304 93040000 6384a400  ;U1A#8......c...
 1790 6ff05f89 13091000 13195901 1307e000  o._.......Y.....
 17a0 3b58e940 233c0305 93040008 63840401  ;X.@#<......c...
 17b0 6ff05f87 13061000 13166601 93082001  o._.......f... .
 17c0 3b591641 23302307 93040001 63842401  ;Y.A#0#.....c.$.
 17d0 6ff05f85 13041000 13147401 9302d000  o._.......t.....
 17e0 3b525440 23344306 93040040 63844400  ;RT@#4C....@c.D.
 17f0 6ff05f83 13021000 13128201 930f9000  o._.............
 1800 bb53f241 23387306 b7840000 63847400  .S.A#8s.....c.t.
 1810 6ff05f81 130d1000 131d9d01 93018000  o._.............
 1820 bb593d40 233c3307 b7040200 63843401  .Y=@#<3.....c.4.
 1830 6ff04fff 13051000 1315a501 9305e001  o.O.............
 1840 3b56b540 2330c308 93000000 6384c000  ;V.@#0......c...
 1850 6ff04ffd 13051000 1315b501 9305c000  o.O.............
 1860 3b56b540 2334c308 b7800000 6384c000  ;V.@#4......c...
 1870 6ff04ffb 13051000 1315c501 9305e001  o.O.............
 1880 3b56b540 2338c308 93000000 6384c000  ;V.@#8......c...
 1890 6ff04ff9 13051000 1315d501 93050000  o.O.............
 18a0 3b56b540 233cc308 b7000020 6384c000  ;V.@#<..... c...
 18b0 6ff04ff7 13051000 1315e501 9305e001  o.O.............
 18c0 3b56b540 2330c30a 93001000 6384c000  ;V.@#0......c...
 18d0 6ff04ff5 13051000 1315f501 9305d000  o.O.............
 18e0 3b56b540 2334c30a b700fcff 6384c000  ;V.@#4......c...
 18f0 6ff04ff3 13051000 13150502 93054000  o.O...........@.
 1900 3b56b540 2338c30a 93000000 6384c000  ;V.@#8......c...
 1910 6ff04ff1 13051000 13151502 93051001  o.O.............
 1920 3b56b540 233cc30a 93000000 6384c000  ;V.@#<......c...
 1930 6ff04fef 13051000 13152502 93054000  o.O.......%...@.
 1940 3b56b540 2330c30c 93000000 6384c000  ;V.@#0......c...
 1950 6ff04fed 13051000 13153502 9305a000  o.O.......5.....
 1960 3b56b540 2334c30c 93000000 6384c000  ;V.@#4......c...
 1970 6ff04feb 13051000 13154502 93055000  o.O.......E...P.
 1980 3b56b540 2338c30c 93000000 6384c000  ;V.@#8......c...
 1990 6ff04fe9 13051000 13155502 9305f001  o.O.......U.....
 19a0 3b56b540 233cc30c 93000000 6384c000  ;V.@#<......c...
 19b0 6ff04fe7 13051000 13156502 9305a000  o.O.......e.....
 19c0 3b56b540 2330c30e 93000000 6384c000  ;V.@#0......c...
 19d0 6ff04fe5 13051000 13157502 9305e001  o.O.......u.....
 19e0 3b56b540 2334c30e 93000000 6384c000  ;V.@#4......c...
 19f0 6ff04fe3 13051000 13158502 93051000  o.O.............
 1a00 3b56b540 2338c30e 93000000 6384c000  ;V.@#8......c...
 1a10 6ff04fe1 13051000 13159502 93051000  o.O.............
 1a20 3b56b540 233cc30e 93000000 6384c000  ;V.@#<......c...
 1a30 6ff04fdf 13051000 1315a502 93054000  o.O...........@.
 1a40 3b56b540 2330c310 93000000 6384c000  ;V.@#0......c...
 1a50 6ff04fdd 13051000 1315b502 93052000  o.O........... .
 1a60 3b56b540 2334c310 93000000 6384c000  ;V.@#4......c...
 1a70 6ff04fdb 13051000 1315c502 93059000  o.O.............
 1a80 3b56b540 2338c310 93000000 6384c000  ;V.@#8......c...
 1a90 6ff04fd9 13051000 1315d502 9305f001  o.O.............
 1aa0 3b56b540 233cc310 93000000 6384c000  ;V.@#<......c...
 1ab0 6ff04fd7 13051000 1315e502 93057001  o.O...........p.
 1ac0 3b56b540 2330c312 93000000 6384c000  ;V.@#0......c...
 1ad0 6ff04fd5 13051000 1315f502 93056000  o.O...........`.
 1ae0 3b56b540 2334c312 93000000 6384c000  ;V.@#4......c...
 1af0 6ff04fd3 13051000 13150503 9305c000  o.O.............
 1b00 3b56b540 2338c312 93000000 6384c000  ;V.@#8......c...
 1b10 6ff04fd1 13051000 13151503 9305b000  o.O.............
 1b20 3b56b540 233cc312 93000000 6384c000  ;V.@#<......c...
 1b30 6ff04fcf 13051000 13152503 93058000  o.O.......%.....
 1b40 3b56b540 2330c314 93000000 6384c000  ;V.@#0......c...
 1b50 6ff04fcd 13051000 13153503 9305c000  o.O.......5.....
 1b60 3b56b540 2334c314 93000000 6384c000  ;V.@#4......c...
 1b70 6ff04fcb 13051000 13154503 9305b001  o.O.......E.....
 1b80 3b56b540 2338c314 93000000 6384c000  ;V.@#8......c...
 1b90 6ff04fc9 13051000 13155503 93050000  o.O.......U.....
 1ba0 3b56b540 233cc314 93000000 6384c000  ;V.@#<......c...
 1bb0 6ff04fc7 13051000 13156503 9305d001  o.O.......e.....
 1bc0 3b56b540 2330c316 93000000 6384c000  ;V.@#0......c...
 1bd0 6ff04fc5 13051000 13157503 9305d001  o.O.......u.....
 1be0 3b56b540 2334c316 93000000 6384c000  ;V.@#4......c...
 1bf0 6ff04fc3 13051000 13158503 93057001  o.O...........p.
 1c00 3b56b540 2338c316 93000000 6384c000  ;V.@#8......c...
 1c10 6ff04fc1 13051000 13159503 93057001  o.O...........p.
 1c20 3b56b540 233cc316 93000000 6384c000  ;V.@#<......c...
 1c30 6ff04fbf 13051000 1315a503 9305a000  o.O.............
 1c40 3b56b540 2330c318 93000000 6384c000  ;V.@#0......c...
 1c50 6ff04fbd 13051000 1315b503 9305a000  o.O.............
 1c60 3b56b540 2334c318 93000000 6384c000  ;V.@#4......c...
 1c70 6ff04fbb 13051000 1315c503 93055000  o.O...........P.
 1c80 3b56b540 2338c318 93000000 6384c000  ;V.@#8......c...
 1c90 6ff04fb9 13051000 1315d503 93053000  o.O...........0.
 1ca0 3b56b540 233cc318 93000000 6384c000  ;V.@#<......c...
 1cb0 6ff04fb7 13051000 1315e503 93056000  o.O...........`.
 1cc0 3b56b540 2330c31a 93000000 6384c000  ;V.@#0......c...
 1cd0 6ff04fb5 1305e0ff 9305f001 3b56b540  o.O.........;V.@
 1ce0 2334c31a 9300f0ff 6384c000 6ff08fb3  #4......c...o...
 1cf0 1305d0ff 9305a000 3b56b540 2338c31a  ........;V.@#8..
 1d00 9300f0ff 6384c000 6ff0cfb1 1305b0ff  ....c...o.......
 1d10 9305f001 3b56b540 233cc31a 9300f0ff  ....;V.@#<......
 1d20 6384c000 6ff00fb0 130570ff 93058000  c...o.....p.....
 1d30 3b56b540 2330c31c 9300f0ff 6384c000  ;V.@#0......c...
 1d40 6ff04fae 1305f0fe 9305d000 3b56b540  o.O.........;V.@
 1d50 2334c31c 9300f0ff 6384c000 6ff08fac  #4......c...o...
 1d60 1305f0fd 93055001 3b56b540 2338c31c  ......P.;V.@#8..
 1d70 9300f0ff 6384c000 6ff0cfaa 1305f0fb  ....c...o.......
 1d80 93055001 3b56b540 233cc31c 9300f0ff  ..P.;V.@#<......
 1d90 6384c000 6ff00fa9 1305f0f7 93052000  c...o......... .
 1da0 3b56b540 2330c31e 9300f0fd 6384c000  ;V.@#0......c...
 1db0 6ff04fa7 1305f0df 93059000 3b56b540  o.O.........;V.@
 1dc0 2334c31e 9300e0ff 6384c000 6ff08fa5  #4......c...o...
 1dd0 1305f0bf 93055001 3b56b540 2338c31e  ......P.;V.@#8..
 1de0 9300f0ff 6384c000 6ff0cfa3 13051000  ....c...o.......
 1df0 1315b500 1345f5ff 93057001 3b56b540  .....E....p.;V.@
 1e00 233cc31e 9300f0ff 6384c000 6ff08fa1  #<......c...o...
 1e10 13051000 1315c500 1345f5ff 93054000  .........E....@.
 1e20 3b56b540 2330c320 9300f0ef 6384c000  ;V.@#0. ....c...
 1e30 6ff04f9f 13051000 1315d500 1345f5ff  o.O..........E..
 1e40 93055000 3b56b540 2334c320 9300f0ef  ..P.;V.@#4. ....
 1e50 6384c000 6ff00f9d 13051000 1315e500  c...o...........
 1e60 1345f5ff 93050000 3b56b540 2338c320  .E......;V.@#8. 
 1e70 b7c0ffff 9b80f0ff 6384c000 6ff08f9a  ........c...o...
 1e80 13051000 1315f500 1345f5ff 93057000  .........E....p.
 1e90 3b56b540 233cc320 9300f0ef 6384c000  ;V.@#<. ....c...
 1ea0 6ff04f98 13051000 13150501 1345f5ff  o.O..........E..
 1eb0 9305f001 3b56b540 2330c322 9300f0ff  ....;V.@#0."....
 1ec0 6384c000 6ff00f96 13051000 13152501  c...o.........%.
 1ed0 1345f5ff 9305b000 3b56b540 2334c322  .E......;V.@#4."
 1ee0 9300f0f7 6384c000 6ff0cf93 13051000  ....c...o.......
 1ef0 13153501 1345f5ff 93056000 3b56b540  ..5..E....`.;V.@
 1f00 2338c322 b7e0ffff 9b80f0ff 6384c000  #8."........c...
 1f10 6ff04f91 13051000 13154501 1345f5ff  o.O.......E..E..
 1f20 93055000 3b56b540 233cc322 b780ffff  ..P.;V.@#<."....
 1f30 9b80f0ff 6384c000 6ff0cf8e 13051000  ....c...o.......
 1f40 13157503 1345f5ff 9305b000 3b56b540  ..u..E......;V.@
 1f50 2330c324 9300f0ff 6384c000 6ff08f8c  #0.$....c...o...
 1f60 13051000 13158503 1345f5ff 93057001  .........E....p.
 1f70 3b56b540 2334c324 9300f0ff 6384c000  ;V.@#4.$....c...
 1f80 6ff04f8a 13051000 13159503 1345f5ff  o.O..........E..
 1f90 93050001 3b56b540 2338c324 9300f0ff  ....;V.@#8.$....
 1fa0 6384c000 6ff00f88 13051000 1315a503  c...o...........
 1fb0 1345f5ff 93051001 3b56b540 233cc324  .E......;V.@#<.$
 1fc0 9300f0ff 6384c000 6ff0cf85 13051000  ....c...o.......
 1fd0 1315b503 1345f5ff 93050000 3b56b540  .....E......;V.@
 1fe0 2330c326 9300f0ff 6384c000 6ff08f83  #0.&....c...o...
 1ff0 13051000 1315c503 1345f5ff 93050000  .........E......
 2000 3b56b540 2334c326 9300f0ff 6384c000  ;V.@#4.&....c...
 2010 6ff04f81 13051000 1315d503 1345f5ff  o.O..........E..
 2020 9305d001 3b56b540 2338c326 9300f0ff  ....;V.@#8.&....
 2030 6384c000 6fe01fff 13051000 1315e503  c...o...........
 2040 1345f5ff 93057000 3b56b540 233cc326  .E....p.;V.@#<.&
 2050 9300f0ff 6384c000 6fe0dffc 37555555  ....c...o...7UUU
 2060 13055555 1315b500 1305a52a 1315b500  ..UU.......*....
 2070 13055555 1315a500 13055515 93057000  ..UU......U...p.
 2080 3b56b540 2330c328 b7b0aa00 9b80a0aa  ;V.@#0.(........
 2090 6384c000 6fe01ff9 37b5aaaa 1305a5aa  c...o...7.......
 20a0 1315b500 13055555 1315b500 1305a52a  ......UU.......*
 20b0 1315a500 1305a52a 93059000 3b56b540  .......*....;V.@
 20c0 2334c328 b750d5ff 9b805055 6384c000  #4.(.P....PUc...
 20d0 6fe05ff5 13053000 93052001 3b56b540  o._...0... .;V.@
 20e0 2338c328 93000000 6384c000 6fe09ff3  #8.(....c...o...
 20f0 13055000 93051000 3b56b540 233cc328  ..P.....;V.@#<.(
 2100 93002000 6384c000 6fe0dff1 37353333  .. .c...o...7533
 2110 13053533 1315b500 13059519 1315b500  ..53............
 2120 1305c54c 1315a500 13053533 9305d001  ...L......53....
 2130 3b56b540 2330c32a 93001000 6384c000  ;V.@#0.*....c...
 2140 6fe05fee 37656666 13056566 1315b500  o._.7eff..ef....
 2150 13053533 1315b500 13059519 1315a500  ..53............
 2160 13056526 93053000 3b56b540 2334c32a  ..e&..0.;V.@#4.*
 2170 b7d0cc0c 9b80c0cc 6384c000 6fe09fea  ........c...o...
 2180 37050000 1305f5ff 1315b500 13057525  7.............u%
 2190 1315b500 1305356c 1315a500 1305d50c  ......5l........
 21a0 93053001 3b56b540 2338c32a b7100000  ..0.;V.@#8.*....
 21b0 9b80f095 6384c000 6fe0dfe6 37050000  ....c...o...7...
 21c0 13050500 1315b500 1305855a 1315b500  ...........Z....
 21d0 1305c513 1315a500 13053533 9305c000  ..........53....
 21e0 3b56b540 233cc32a b750fbff 9b80f004  ;V.@#<.*.P......
 21f0 6384c000 6fe01fe3 37555555 13055555  c...o...7UUU..UU
 2200 1315b500 1305a52a 1315b500 13055555  .......*......UU
 2210 1315a500 13054515 9305e001 3b56b540  ......E.....;V.@
 2220 2330c32c 93001000 6384c000 6fe09fdf  #0.,....c...o...
 2230 37353333 13053533 1315b500 13059519  7533..53........
 2240 1315b500 1305c54c 1315a500 13052533  .......L......%3
 2250 93059000 3b56b540 2334c32c b7a01900  ....;V.@#4.,....
 2260 9b809099 6384c000 6fe0dfdb 37656666  ....c...o...7eff
 2270 13056566 1315b500 13053533 1315b500  ..ef......53....
 2280 13059519 1315a500 13055526 93052000  ..........U&.. .
 2290 3b56b540 2338c32c b7a09919 9b809099  ;V.@#8.,........
 22a0 6384c000 6fe01fd8 37050000 13050500  c...o...7.......
 22b0 1315b500 1305855a 1315b500 1305c513  .......Z........
 22c0 1315a500 13052533 93055001 3b56b540  ......%3..P.;V.@
 22d0 233cc32c 930080da 6384c000 6fe09fd4  #<.,....c...o...
 22e0 37555555 13055555 1315b500 1305a52a  7UUU..UU.......*
 22f0 1315b500 13055555 1315a500 13056515  ......UU......e.
 2300 9305e001 3b56b540 2330c32e 93001000  ....;V.@#0......
 2310 6384c000 6fe01fd1 37b5aaaa 1305a5aa  c...o...7.......
 2320 1315b500 13055555 1315b500 1305a52a  ......UU.......*
 2330 1315a500 1305b52a 9305e000 3b56b540  .......*....;V.@
 2340 2334c32e b7b0feff 9b80a0aa 6384c000  #4..........c...
 2350 6fe05fcd 13056000 9305a000 3b56b540  o._...`.....;V.@
 2360 2338c32e 93000000 6384c000 6fe09fcb  #8......c...o...
 2370 37353333 13053533 1315b500 13059519  7533..53........
 2380 1315b500 1305c54c 1315a500 13054533  .......L......E3
 2390 9305e000 3b56b540 233cc32e b7d00000  ....;V.@#<......
 23a0 9b80c0cc 6384c000 6fe0dfc7 37656666  ....c...o...7eff
 23b0 13056566 1315b500 13053533 1315b500  ..ef......53....
 23c0 13059519 1315a500 13057526 93051001  ..........u&....
 23d0 3b56b540 2330c330 b7300000 9b803033  ;V.@#0.0.0....03
 23e0 6384c000 6fe01fc4 37050000 1305f5ff  c...o...7.......
 23f0 1315b500 13057525 1315b500 1305356c  ......u%......5l
 2400 1315a500 1305e50c 93054000 3b56b540  ..........@.;V.@
 2410 2334c330 b7b0af04 9b80c00c 6384c000  #4.0........c...
 2420 6fe05fc0 37050000 13050500 1315b500  o._.7...........
 2430 1305855a 1315b500 1305c513 1315a500  ...Z............
 2440 13054533 9305d001 3b56b540 2338c330  ..E3....;V.@#8.0
 2450 9300d0ff 6384c000 6fe0dfbc 13051000  ....c...o.......
 2460 13155501 1345f5ff 9305f000 3b56b540  ..U..E......;V.@
 2470 233cc330 9300f0fb 6384c000 6fe09fba  #<.0....c...o...
 2480 13051000 13156501 1345f5ff 9305d000  ......e..E......
 2490 3b56b540 2330c332 9300f0df 6384c000  ;V.@#0.2....c...
 24a0 6fe05fb8 13051000 13157501 1345f5ff  o._.......u..E..
 24b0 9305e001 3b56b540 2334c332 9300f0ff  ....;V.@#4.2....
 24c0 6384c000 6fe01fb6 13051000 13158501  c...o...........
 24d0 1345f5ff 9305e000 3b56b540 2338c332  .E......;V.@#8.2
 24e0 9300f0bf 6384c000 6fe0dfb3 13051000  ....c...o.......
 24f0 13159501 1345f5ff 93055000 3b56b540  .....E....P.;V.@
 2500 233cc332 b700f0ff 9b80f0ff 6384c000  #<.2........c...
 2510 6fe05fb1 13051000 1315a501 1345f5ff  o._..........E..
 2520 93058000 3b56b540 2330c334 b700fcff  ....;V.@#0.4....
 2530 9b80f0ff 6384c000 6fe0dfae 13051000  ....c...o.......
 2540 1315b501 1345f5ff 93057000 3b56b540  .....E....p.;V.@
 2550 2334c334 b700f0ff 9b80f0ff 6384c000  #4.4........c...
 2560 6fe05fac 13051000 1315c501 1345f5ff  o._..........E..
 2570 9305b000 3b56b540 2338c334 b700feff  ....;V.@#8.4....
 2580 9b80f0ff 6384c000 6fe0dfa9 13051000  ....c...o.......
 2590 1315d501 1345f5ff 93051001 3b56b540  .....E......;V.@
 25a0 233cc334 b7f0ffff 9b80f0ff 6384c000  #<.4........c...
 25b0 6fe05fa7 13051000 1315e501 1345f5ff  o._..........E..
 25c0 93056000 3b56b540 2330c336 b70000ff  ..`.;V.@#0.6....
 25d0 9b80f0ff 6384c000 6fe0dfa4 13051000  ....c...o.......
 25e0 1315f501 1345f5ff 9305f000 3b56b540  .....E......;V.@
 25f0 2334c336 b7000100 9b80f0ff 6384c000  #4.6........c...
 2600 6fe05fa2 13051000 13150502 1345f5ff  o._..........E..
 2610 93057001 3b56b540 2338c336 9300f0ff  ..p.;V.@#8.6....
 2620 6384c000 6fe01fa0 13051000 13151502  c...o...........
 2630 1345f5ff 93052000 3b56b540 233cc336  .E.... .;V.@#<.6
 2640 9300f0ff 6384c000 6fe0df9d 13051000  ....c...o.......
 2650 13152502 1345f5ff 93057001 3b56b540  ..%..E....p.;V.@
 2660 2330c338 9300f0ff 6384c000 6fe09f9b  #0.8....c...o...
 2670 13051000 13153502 1345f5ff 93050000  ......5..E......
 2680 3b56b540 2334c338 9300f0ff 6384c000  ;V.@#4.8....c...
 2690 6fe05f99 13051000 13154502 1345f5ff  o._.......E..E..
 26a0 93051001 3b56b540 2338c338 9300f0ff  ....;V.@#8.8....
 26b0 6384c000 6fe01f97 13051000 13155502  c...o.........U.
 26c0 1345f5ff 93051000 3b56b540 233cc338  .E......;V.@#<.8
 26d0 9300f0ff 6384c000 6fe0df94 13051000  ....c...o.......
 26e0 13156502 1345f5ff 9305f001 3b56b540  ..e..E......;V.@
 26f0 2330c33a 9300f0ff 6384c000 6fe09f92  #0.:....c...o...
 2700 13051000 13157502 1345f5ff 93056000  ......u..E....`.
 2710 3b56b540 2334c33a 9300f0ff 6384c000  ;V.@#4.:....c...
 2720 6fe05f90 13051000 13158502 1345f5ff  o._..........E..
 2730 9305b001 3b56b540 2338c33a 9300f0ff  ....;V.@#8.:....
 2740 6384c000 6fe01f8e 13051000 13159502  c...o...........
 2750 1345f5ff 9305a000 3b56b540 233cc33a  .E......;V.@#<.:
 2760 9300f0ff 6384c000 6fe0df8b 13051000  ....c...o.......
 2770 1315a502 1345f5ff 93052000 3b56b540  .....E.... .;V.@
 2780 2330c33c 9300f0ff 6384c000 6fe09f89  #0.<....c...o...
 2790 13051000 1315b502 1345f5ff 93058000  .........E......
 27a0 3b56b540 2334c33c 9300f0ff 6384c000  ;V.@#4.<....c...
 27b0 6fe05f87 13051000 1315c502 1345f5ff  o._..........E..
 27c0 9305d000 3b56b540 2338c33c 9300f0ff  ....;V.@#8.<....
 27d0 6384c000 6fe01f85 13051000 1315d502  c...o...........
 27e0 1345f5ff 9305a000 3b56b540 233cc33c  .E......;V.@#<.<
 27f0 9300f0ff 6384c000 6fe0df82 13051000  ....c...o.......
 2800 1315e502 1345f5ff 93057001 3b56b540  .....E....p.;V.@
 2810 2330c33e 9300f0ff 6384c000 6fe09f80  #0.>....c...o...
 2820 13051000 1315f502 1345f5ff 93052001  .........E.... .
 2830 3b56b540 2334c33e 9300f0ff 6384c000  ;V.@#4.>....c...
 2840 6fe04ffe 13051000 13150503 1345f5ff  o.O..........E..
 2850 93059000 3b56b540 2338c33e 9300f0ff  ....;V.@#8.>....
 2860 6384c000 6fe00ffc 13051000 13151503  c...o...........
 2870 1345f5ff 93053001 3b56b540 233cc33e  .E....0.;V.@#<.>
 2880 9300f0ff 6384c000 6fe0cff9 13051000  ....c...o.......
 2890 13152503 1345f5ff 9305a000 3b56b540  ..%..E......;V.@
 28a0 2330c340 9300f0ff 6384c000 6fe08ff7  #0.@....c...o...
 28b0 13051000 13153503 1345f5ff 93051000  ......5..E......
 28c0 3b56b540 2334c340 9300f0ff 6384c000  ;V.@#4.@....c...
 28d0 6fe04ff5 13051000 13154503 1345f5ff  o.O.......E..E..
 28e0 93052000 3b56b540 2338c340 9300f0ff  .. .;V.@#8.@....
 28f0 6384c000 6fe00ff3 13051000 13155503  c...o.........U.
 2900 1345f5ff 9305f001 3b56b540 233cc340  .E......;V.@#<.@
 2910 9300f0ff 6384c000 6fe0cff0 13051000  ....c...o.......
 2920 13156503 1345f5ff 93054000 3b56b540  ..e..E....@.;V.@
 2930 2330c342 9300f0ff 6384c000 6fe08fee  #0.B....c...o...
 2940 1305f0ef 93051000 3b56b540 2334c342  ........;V.@#4.B
 2950 9300f0f7 6384c000 6fe0cfec 13051000  ....c...o.......
 2960 13151501 1345f5ff 93050000 3b56b540  .....E......;V.@
 2970 2338c342 b700feff 9b80f0ff 6384c000  #8.B........c...
 2980 6fe04fea 1305f0ff 1315f503 9305e000  o.O.............
 2990 3b56b540 233cc342 93000000 6384c000  ;V.@#<.B....c...
 29a0 6fe04fe8 13052000 9305a000 3b56b540  o.O... .....;V.@
 29b0 2330c344 93000000 6384c000 6fe08fe6  #0.D....c...o...
 29c0 13051000 1315e500 93052000 3b56b540  .......... .;V.@
 29d0 2334c344 b7100000 6384c000 6fe08fe4  #4.D....c...o...
 29e0 6f008003 8334811f 03330120 33039300  o....4...3. 3...
 29f0 37030000 13030300 1313b300 1303635d  7.............c]
 2a00 1313b300 13036343 1313a300 1303032d  ......cC.......-
 2a10 23be64fe 6f004000 13050000 6f004002  #.d.o.@.....o.@.
 2a20 00000000 00000000 00000000 00000000  ................
 2a30 00000000 00000000 00000000 00000000  ................
 2a40 13050500 73001000 6f000000 130101ff  ....s...o.......
 2a50 17050000 13050502 23341100 efe04fdb  ........#4....O.
 2a60 13050500 73001000 6f000000 00000000  ....s...o.......
 2a70 00000000 00000000 00000000 00000000  ................
 2a80 00000000 00000000 00000000 00000000  ................
 2a90 00000000 00000000 00000000 00000000  ................
 2aa0 00000000 00000000 00000000 00000000  ................
 2ab0 00000000 00000000 00000000 00000000  ................
 2ac0 00000000 00000000 00000000 00000000  ................
 2ad0 00000000 00000000 00000000 00000000  ................
 2ae0 00000000 00000000 00000000 00000000  ................
 2af0 00000000 00000000 00000000 00000000  ................
 2b00 00000000 00000000 00000000 00000000  ................
 2b10 00000000 00000000 00000000 00000000  ................
 2b20 00000000 00000000 00000000 00000000  ................
 2b30 00000000 00000000 00000000 00000000  ................
 2b40 00000000 00000000 00000000 00000000  ................
 2b50 00000000 00000000 00000000 00000000  ................
 2b60 00000000 00000000 00000000 00000000  ................
 2b70 00000000 00000000 00000000 00000000  ................
 2b80 00000000 00000000 00000000 00000000  ................
 2b90 00000000 00000000 00000000 00000000  ................
 2ba0 00000000 00000000 00000000 00000000  ................
 2bb0 00000000 00000000 00000000 00000000  ................
 2bc0 00000000 00000000 00000000 00000000  ................
 2bd0 00000000 00000000 00000000 00000000  ................
 2be0 00000000 00000000 00000000 00000000  ................
 2bf0 00000000 00000000 00000000 00000000  ................
 2c00 00000000 00000000 00000000 00000000  ................
 2c10 00000000 00000000 00000000 00000000  ................
 2c20 00000000 00000000 00000000 00000000  ................
 2c30 00000000 00000000 00000000 00000000  ................
 2c40 00000000 00000000 00000000 00000000  ................
 2c50 00000000 00000000 00000000 00000000  ................
 2c60 00000000 00000000 00000000 00000000  ................
 2c70 00000000 00000000 00000000 00000000  ................
 2c80 00000000 00000000 00000000 00000000  ................
 2c90 00000000 00000000 00000000 00000000  ................
 2ca0 00000000 00000000 00000000 00000000  ................
 2cb0 00000000 00000000 00000000 00000000  ................
 2cc0 00000000 00000000 00000000 00000000  ................
 2cd0 00000000 00000000 00000000 00000000  ................
 2ce0 00000000 00000000 00000000 00000000  ................
 2cf0 00000000 00000000 00000000 00000000  ................
 2d00 00000000 00000000 00000000 00000000  ................
 2d10 00000000 00000000 00000000 00000000  ................
 2d20 00000000 00000000 00000000 00000000  ................
 2d30 00000000 00000000 00000000 00000000  ................
 2d40 00000000 00000000 00000000 00000000  ................
 2d50 00000000 00000000 00000000 00000000  ................
 2d60 00000000 00000000 00000000 00000000  ................
 2d70 00000000 00000000 00000000 00000000  ................
 2d80 00000000 00000000 00000000 00000000  ................
 2d90 00000000 00000000 00000000 00000000  ................
 2da0 00000000 00000000 00000000 00000000  ................
 2db0 00000000 00000000 00000000 00000000  ................
 2dc0 00000000 00000000 00000000 00000000  ................
 2dd0 00000000 00000000 00000000 00000000  ................
 2de0 00000000 00000000 00000000 00000000  ................
 2df0 00000000 00000000 00000000 00000000  ................
 2e00 00000000 00000000 00000000 00000000  ................
 2e10 00000000 00000000 00000000 00000000  ................
 2e20 00000000 00000000 00000000 00000000  ................
 2e30 00000000 00000000 00000000 00000000  ................
 2e40 00000000 00000000 00000000 00000000  ................
 2e50 00000000 00000000 00000000 00000000  ................
 2e60 00000000 00000000 00000000 00000000  ................
 2e70 00000000 00000000 00000000 00000000  ................
 2e80 00000000 00000000 00000000 00000000  ................
 2e90 00000000 00000000 00000000 00000000  ................
 2ea0 00000000 00000000 00000000 00000000  ................
 2eb0 00000000 00000000 00000000 00000000  ................
 2ec0 00000000 00000000 00000000 00000000  ................
 2ed0 00000000 00000000 00000000 00000000  ................
 2ee0 00000000 00000000 00000000 00000000  ................
 2ef0 00000000 00000000 00000000 00000000  ................
 2f00 00000000 00000000 00000000 00000000  ................
 2f10 00000000 00000000 00000000 00000000  ................
 2f20 00000000 00000000 00000000 00000000  ................
 2f30 00000000 00000000 00000000 00000000  ................
 2f40 00000000 00000000 00000000 00000000  ................
 2f50 00000000 00000000 00000000 00000000  ................
 2f60 00000000 00000000 00000000 00000000  ................
 2f70 00000000 00000000 00000000 00000000  ................
 2f80 00000000 00000000 00000000 00000000  ................
 2f90 00000000 00000000 00000000 00000000  ................
 2fa0 00000000 00000000 00000000 00000000  ................
 2fb0 00000000 00000000 00000000 00000000  ................
 2fc0 00000000 00000000 00000000 00000000  ................
 2fd0 00000000 00000000 00000000 00000000  ................
 2fe0 00000000 00000000 00000000 00000000  ................
 2ff0 00000000 00000000 00000000 00000000  ................
 3000 fecabeba fecabeba fecabeba fecabeba  ................
 3010 efbeadde efbeadde 00000000 00000000  ................
 3020 00000000 00000000 00000000 00000000  ................
 3030 00000000 00000000 00000000 00000000  ................
 3040 00000000 00000000 00000000 00000000  ................
 3050 00000000 00000000 00000000 00000000  ................
 3060 00000000 00000000 00000000 00000000  ................
 3070 00000000 00000000 00000000 00000000  ................
 3080 00000000 00000000 00000000 00000000  ................
 3090 00000000 00000000 00000000 00000000  ................
 30a0 00000000 00000000 00000000 00000000  ................
 30b0 00000000 00000000 00000000 00000000  ................
 30c0 00000000 00000000 00000000 00000000  ................
 30d0 00000000 00000000 00000000 00000000  ................
 30e0 00000000 00000000 00000000 00000000  ................
 30f0 00000000 00000000 00000000 00000000  ................
 3100 00000000 00000000 00000000 00000000  ................
 3110 00000000 00000000 00000000 00000000  ................
 3120 00000000 00000000 00000000 00000000  ................
 3130 00000000 00000000 00000000 00000000  ................
 3140 00000000 00000000 00000000 00000000  ................
 3150 00000000 00000000 00000000 00000000  ................
 3160 00000000 00000000 00000000 00000000  ................
 3170 00000000 00000000 00000000 00000000  ................
 3180 00000000 00000000 00000000 00000000  ................
 3190 00000000 00000000 00000000 00000000  ................
 31a0 00000000 00000000 00000000 00000000  ................
 31b0 00000000 00000000 00000000 00000000  ................
 31c0 00000000 00000000 00000000 00000000  ................
 31d0 00000000 00000000 00000000 00000000  ................
 31e0 00000000 00000000 00000000 00000000  ................
 31f0 00000000 00000000 00000000 00000000  ................
 3200 00000000 00000000 00000000 00000000  ................
 3210 00000000 00000000 00000000 00000000  ................
 3220 00000000 00000000 00000000 00000000  ................
 3230 00000000 00000000 00000000 00000000  ................
 3240 00000000 00000000 00000000 00000000  ................
 3250 00000000 00000000 00000000 00000000  ................
 3260 00000000 00000000 00000000 00000000  ................
 3270 00000000 00000000 00000000 00000000  ................
 3280 00000000 00000000 00000000 00000000  ................
 3290 00000000 00000000 00000000 00000000  ................
 32a0 00000000 00000000 00000000 00000000  ................
 32b0 00000000 00000000 00000000 00000000  ................
 32c0 00000000 00000000 00000000 00000000  ................
 32d0 00000000 00000000 00000000 00000000  ................
 32e0 00000000 00000000 00000000 00000000  ................
 32f0 00000000 00000000 00000000 00000000  ................
 3300 00000000 00000000 00000000 00000000  ................
 3310 00000000 00000000 00000000 00000000  ................
 3320 00000000 00000000 00000000 00000000  ................
 3330 00000000 00000000 00000000 00000000  ................
 3340 00000000 00000000 00000000 00000000  ................
 3350 00000000 00000000 00000000 00000000  ................
 3360 00000000 00000000 00000000 00000000  ................
 3370 00000000 00000000 00000000 00000000  ................
 3380 00000000 00000000 00000000 00000000  ................
 3390 00000000 00000000 00000000 00000000  ................
 33a0 00000000 00000000 00000000 00000000  ................
 33b0 00000000 00000000 00000000 00000000  ................
 33c0 00000000 00000000 00000000 00000000  ................
 33d0 00000000 00000000 00000000 00000000  ................
 33e0 00000000 00000000 00000000 00000000  ................
 33f0 00000000 00000000 00000000 00000000  ................
 3400 00000000 00000000 00000000 00000000  ................
 3410 00000000 00000000 00000000 00000000  ................
 3420 00000000 00000000 00000000 00000000  ................
 3430 00000000 00000000 00000000 00000000  ................
 3440 00000000 00000000 00000000 00000000  ................
 3450 00000000 00000000 00000000 00000000  ................
 3460 00000000 00000000 00000000 00000000  ................
 3470 00000000 00000000 00000000 00000000  ................
 3480 00000000 00000000 00000000 00000000  ................
 3490 00000000 00000000 00000000 00000000  ................
 34a0 00000000 00000000 00000000 00000000  ................
 34b0 00000000 00000000 00000000 00000000  ................
 34c0 00000000 00000000 00000000 00000000  ................
 34d0 00000000 00000000 00000000 00000000  ................
 34e0 00000000 00000000 00000000 00000000  ................
 34f0 00000000 00000000 00000000 00000000  ................
 3500 00000000 00000000 00000000 00000000  ................
 3510 00000000 00000000 00000000 00000000  ................
 3520 00000000 00000000 00000000 00000000  ................
 3530 00000000 00000000 00000000 00000000  ................
 3540 00000000 00000000 00000000 00000000  ................
 3550 00000000 00000000 00000000 00000000  ................
 3560 00000000 00000000 00000000 00000000  ................
 3570 00000000 00000000 00000000 00000000  ................
 3580 00000000 00000000 00000000 00000000  ................
 3590 00000000 00000000 00000000 00000000  ................
 35a0 00000000 00000000 00000000 00000000  ................
 35b0 00000000 00000000 00000000 00000000  ................
 35c0 00000000 00000000 00000000 00000000  ................
 35d0 00000000 00000000 00000000 00000000  ................
 35e0 00000000 00000000 00000000 00000000  ................
 35f0 00000000 00000000 00000000 00000000  ................
 3600 00000000 00000000 00000000 00000000  ................
 3610 00000000 00000000 00000000 00000000  ................
 3620 00000000 00000000 00000000 00000000  ................
 3630 00000000 00000000 00000000 00000000  ................
 3640 00000000 00000000 00000000 00000000  ................
 3650 00000000 00000000 00000000 00000000  ................
 3660 00000000 00000000 00000000 00000000  ................
 3670 00000000 00000000 00000000 00000000  ................
 3680 00000000 00000000 00000000 00000000  ................
 3690 00000000 00000000 00000000 00000000  ................
 36a0 00000000 00000000 00000000 00000000  ................
 36b0 00000000 00000000 00000000 00000000  ................
 36c0 00000000 00000000 00000000 00000000  ................
 36d0 00000000 00000000 00000000 00000000  ................
 36e0 00000000 00000000 00000000 00000000  ................
 36f0 00000000 00000000 00000000 00000000  ................
 3700 00000000 00000000 00000000 00000000  ................
 3710 00000000 00000000 00000000 00000000  ................
 3720 00000000 00000000 00000000 00000000  ................
 3730 00000000 00000000 00000000 00000000  ................
 3740 00000000 00000000 00000000 00000000  ................
 3750 00000000 00000000 00000000 00000000  ................
 3760 00000000 00000000 00000000 00000000  ................
 3770 00000000 00000000 00000000 00000000  ................
 3780 00000000 00000000 00000000 00000000  ................
 3790 00000000 00000000 00000000 00000000  ................
 37a0 00000000 00000000 00000000 00000000  ................
 37b0 00000000 00000000 00000000 00000000  ................
 37c0 00000000 00000000 00000000 00000000  ................
 37d0 00000000 00000000 00000000 00000000  ................
 37e0 00000000 00000000 00000000 00000000  ................
 37f0 00000000 00000000 00000000 00000000  ................
 3800 00000000 00000000 00000000 00000000  ................
 3810 00000000 00000000 00000000 00000000  ................
 3820 00000000 00000000 00000000 00000000  ................
 3830 00000000 00000000 00000000 00000000  ................
 3840 00000000 00000000 00000000 00000000  ................
 3850 00000000 00000000 00000000 00000000  ................
 3860 00000000 00000000 00000000 00000000  ................
 3870 00000000 00000000 00000000 00000000  ................
 3880 00000000 00000000 00000000 00000000  ................
 3890 00000000 00000000 00000000 00000000  ................
 38a0 00000000 00000000 00000000 00000000  ................
 38b0 00000000 00000000 00000000 00000000  ................
 38c0 00000000 00000000 00000000 00000000  ................
 38d0 00000000 00000000 00000000 00000000  ................
 38e0 00000000 00000000 00000000 00000000  ................
 38f0 00000000 00000000 00000000 00000000  ................
 3900 00000000 00000000 00000000 00000000  ................
 3910 00000000 00000000 00000000 00000000  ................
 3920 00000000 00000000 00000000 00000000  ................
 3930 00000000 00000000 00000000 00000000  ................
 3940 00000000 00000000 00000000 00000000  ................
 3950 00000000 00000000 00000000 00000000  ................
 3960 00000000 00000000 00000000 00000000  ................
 3970 00000000 00000000 00000000 00000000  ................
 3980 00000000 00000000 00000000 00000000  ................
 3990 00000000 00000000 00000000 00000000  ................
 39a0 00000000 00000000 00000000 00000000  ................
 39b0 00000000 00000000 00000000 00000000  ................
 39c0 00000000 00000000 00000000 00000000  ................
 39d0 00000000 00000000 00000000 00000000  ................
 39e0 00000000 00000000 00000000 00000000  ................
 39f0 00000000 00000000 00000000 00000000  ................
 3a00 00000000 00000000 00000000 00000000  ................
 3a10 00000000 00000000 00000000 00000000  ................
 3a20 00000000 00000000 00000000 00000000  ................
 3a30 00000000 00000000 00000000 00000000  ................
 3a40 00000000 00000000 00000000 00000000  ................
 3a50 00000000 00000000 00000000 00000000  ................
 3a60 00000000 00000000 00000000 00000000  ................
 3a70 00000000 00000000 00000000 00000000  ................
 3a80 00000000 00000000 00000000 00000000  ................
 3a90 00000000 00000000 00000000 00000000  ................
 3aa0 00000000 00000000 00000000 00000000  ................
 3ab0 00000000 00000000 00000000 00000000  ................
 3ac0 00000000 00000000 00000000 00000000  ................
 3ad0 00000000 00000000 00000000 00000000  ................
 3ae0 00000000 00000000 00000000 00000000  ................
 3af0 00000000 00000000 00000000 00000000  ................
 3b00 00000000 00000000 00000000 00000000  ................
 3b10 00000000 00000000 00000000 00000000  ................
 3b20 00000000 00000000 00000000 00000000  ................
 3b30 00000000 00000000 00000000 00000000  ................
 3b40 00000000 00000000 00000000 00000000  ................
 3b50 00000000 00000000 00000000 00000000  ................
 3b60 00000000 00000000 00000000 00000000  ................
 3b70 00000000 00000000 00000000 00000000  ................
 3b80 00000000 00000000 00000000 00000000  ................
 3b90 00000000 00000000 00000000 00000000  ................
 3ba0 00000000 00000000 00000000 00000000  ................
 3bb0 00000000 00000000 00000000 00000000  ................
 3bc0 00000000 00000000 00000000 00000000  ................
 3bd0 00000000 00000000 00000000 00000000  ................
 3be0 00000000 00000000 00000000 00000000  ................
 3bf0 00000000 00000000 00000000 00000000  ................
 3c00 00000000 00000000 00000000 00000000  ................
 3c10 00000000 00000000 00000000 00000000  ................
 3c20 00000000 00000000 00000000 00000000  ................
 3c30 00000000 00000000 00000000 00000000  ................
 3c40 00000000 00000000 00000000 00000000  ................
 3c50 00000000 00000000 00000000 00000000  ................
 3c60 00000000 00000000 00000000 00000000  ................
 3c70 00000000 00000000 00000000 00000000  ................
 3c80 00000000 00000000 00000000 00000000  ................
 3c90 00000000 00000000 00000000 00000000  ................
 3ca0 00000000 00000000 00000000 00000000  ................
 3cb0 00000000 00000000 00000000 00000000  ................
 3cc0 00000000 00000000 00000000 00000000  ................
 3cd0 00000000 00000000 00000000 00000000  ................
 3ce0 00000000 00000000 00000000 00000000  ................
 3cf0 00000000 00000000 00000000 00000000  ................
 3d00 00000000 00000000 00000000 00000000  ................
 3d10 00000000 00000000 00000000 00000000  ................
 3d20 00000000 00000000 00000000 00000000  ................
 3d30 00000000 00000000 00000000 00000000  ................
 3d40 00000000 00000000 00000000 00000000  ................
 3d50 00000000 00000000 00000000 00000000  ................
 3d60 00000000 00000000 00000000 00000000  ................
 3d70 00000000 00000000 00000000 00000000  ................
 3d80 00000000 00000000 00000000 00000000  ................
 3d90 00000000 00000000 00000000 00000000  ................
 3da0 00000000 00000000 00000000 00000000  ................
 3db0 00000000 00000000 00000000 00000000  ................
 3dc0 00000000 00000000 00000000 00000000  ................
 3dd0 00000000 00000000 00000000 00000000  ................
 3de0 00000000 00000000 00000000 00000000  ................
 3df0 00000000 00000000 00000000 00000000  ................
 3e00 00000000 00000000 00000000 00000000  ................
 3e10 00000000 00000000 00000000 00000000  ................
 3e20 00000000 00000000 00000000 00000000  ................
 3e30 00000000 00000000 00000000 00000000  ................
 3e40 00000000 00000000 00000000 00000000  ................
 3e50 00000000 00000000 00000000 00000000  ................
 3e60 00000000 00000000 00000000 00000000  ................
 3e70 00000000 00000000 00000000 00000000  ................
 3e80 00000000 00000000 00000000 00000000  ................
 3e90 00000000 00000000 00000000 00000000  ................
 3ea0 00000000 00000000 00000000 00000000  ................
 3eb0 00000000 00000000 00000000 00000000  ................
 3ec0 00000000 00000000 00000000 00000000  ................
 3ed0 00000000 00000000 00000000 00000000  ................
 3ee0 00000000 00000000 00000000 00000000  ................
 3ef0 00000000 00000000 00000000 00000000  ................
 3f00 00000000 00000000 00000000 00000000  ................
 3f10 00000000 00000000 00000000 00000000  ................
 3f20 00000000 00000000 00000000 00000000  ................
 3f30 00000000 00000000 00000000 00000000  ................
 3f40 00000000 00000000 00000000 00000000  ................
 3f50 00000000 00000000 00000000 00000000  ................
 3f60 00000000 00000000 00000000 00000000  ................
 3f70 00000000 00000000 00000000 00000000  ................
 3f80 00000000 00000000 00000000 00000000  ................
 3f90 00000000 00000000 00000000 00000000  ................
 3fa0 00000000 00000000 00000000 00000000  ................
 3fb0 00000000 00000000 00000000 00000000  ................
 3fc0 00000000 00000000 00000000 00000000  ................
 3fd0 00000000 00000000 00000000 00000000  ................
 3fe0 00000000 00000000 00000000 00000000  ................
 3ff0 00000000 00000000 00000000 00000000  ................
 4000 81b2d4e7 09a35c6f efbeadde efbeadde  ......\o........
 4010 efbeadde efbeadde efbeadde efbeadde  ................
 4020 efbeadde efbeadde efbeadde efbeadde  ................
 4030 efbeadde efbeadde efbeadde efbeadde  ................
 4040 efbeadde efbeadde efbeadde efbeadde  ................
 4050 efbeadde efbeadde efbeadde efbeadde  ................
 4060 efbeadde efbeadde efbeadde efbeadde  ................
 4070 efbeadde efbeadde efbeadde efbeadde  ................
 4080 efbeadde efbeadde efbeadde efbeadde  ................
 4090 efbeadde efbeadde efbeadde efbeadde  ................
 40a0 efbeadde efbeadde efbeadde efbeadde  ................
 40b0 efbeadde efbeadde efbeadde efbeadde  ................
 40c0 efbeadde efbeadde efbeadde efbeadde  ................
 40d0 efbeadde efbeadde efbeadde efbeadde  ................
 40e0 efbeadde efbeadde efbeadde efbeadde  ................
 40f0 efbeadde efbeadde efbeadde efbeadde  ................
 4100 efbeadde efbeadde efbeadde efbeadde  ................
 4110 efbeadde efbeadde efbeadde efbeadde  ................
 4120 efbeadde efbeadde efbeadde efbeadde  ................
 4130 efbeadde efbeadde efbeadde efbeadde  ................
 4140 efbeadde efbeadde efbeadde efbeadde  ................
 4150 efbeadde efbeadde efbeadde efbeadde  ................
 4160 efbeadde efbeadde efbeadde efbeadde  ................
 4170 efbeadde efbeadde efbeadde efbeadde  ................
 4180 efbeadde efbeadde efbeadde efbeadde  ................
 4190 efbeadde efbeadde efbeadde efbeadde  ................
 41a0 efbeadde efbeadde efbeadde efbeadde  ................
 41b0 efbeadde efbeadde efbeadde efbeadde  ................
 41c0 efbeadde efbeadde efbeadde efbeadde  ................
 41d0 efbeadde efbeadde efbeadde efbeadde  ................
 41e0 efbeadde efbeadde efbeadde efbeadde  ................
 41f0 efbeadde efbeadde efbeadde efbeadde  ................
 4200 efbeadde efbeadde efbeadde efbeadde  ................
 4210 efbeadde efbeadde efbeadde efbeadde  ................
 4220 efbeadde efbeadde efbeadde efbeadde  ................
 4230 efbeadde efbeadde efbeadde efbeadde  ................
 4240 efbeadde efbeadde efbeadde efbeadde  ................
 4250 efbeadde efbeadde efbeadde efbeadde  ................
 4260 efbeadde efbeadde efbeadde efbeadde  ................
 4270 efbeadde efbeadde efbeadde efbeadde  ................
 4280 efbeadde efbeadde efbeadde efbeadde  ................
 4290 efbeadde efbeadde efbeadde efbeadde  ................
 42a0 efbeadde efbeadde efbeadde efbeadde  ................
 42b0 efbeadde efbeadde efbeadde efbeadde  ................
 42c0 efbeadde efbeadde efbeadde efbeadde  ................
 42d0 efbeadde efbeadde efbeadde efbeadde  ................
 42e0 efbeadde efbeadde efbeadde efbeadde  ................
 42f0 efbeadde efbeadde efbeadde efbeadde  ................
 4300 efbeadde efbeadde efbeadde efbeadde  ................
 4310 efbeadde efbeadde efbeadde efbeadde  ................
 4320 efbeadde efbeadde efbeadde efbeadde  ................
 4330 efbeadde efbeadde efbeadde efbeadde  ................
 4340 efbeadde efbeadde efbeadde efbeadde  ................
 4350 efbeadde efbeadde efbeadde efbeadde  ................
 4360 efbeadde efbeadde efbeadde efbeadde  ................
 4370 efbeadde efbeadde efbeadde efbeadde  ................
 4380 efbeadde efbeadde efbeadde efbeadde  ................
 4390 efbeadde efbeadde efbeadde efbeadde  ................
 43a0 efbeadde efbeadde efbeadde efbeadde  ................
 43b0 efbeadde efbeadde efbeadde efbeadde  ................
 43c0 efbeadde efbeadde efbeadde efbeadde  ................
 43d0 efbeadde efbeadde efbeadde efbeadde  ................
 43e0 efbeadde efbeadde efbeadde efbeadde  ................
 43f0 efbeadde efbeadde efbeadde efbeadde  ................
 4400 efbeadde efbeadde efbeadde efbeadde  ................
 4410 efbeadde efbeadde efbeadde efbeadde  ................
 4420 efbeadde efbeadde efbeadde efbeadde  ................
 4430 efbeadde efbeadde efbeadde efbeadde  ................
 4440 efbeadde efbeadde efbeadde efbeadde  ................
 4450 efbeadde efbeadde efbeadde efbeadde  ................
 4460 efbeadde efbeadde efbeadde efbeadde  ................
 4470 efbeadde efbeadde efbeadde efbeadde  ................
 4480 efbeadde efbeadde efbeadde efbeadde  ................
 4490 efbeadde efbeadde efbeadde efbeadde  ................
 44a0 efbeadde efbeadde efbeadde efbeadde  ................
 44b0 efbeadde efbeadde efbeadde efbeadde  ................
 44c0 efbeadde efbeadde efbeadde efbeadde  ................
 44d0 efbeadde efbeadde 81b2d4e7 09a35c6f  ..............\o
 44e0 4743433a 20285562 756e7475 2031312e  GCC: (Ubuntu 11.
 44f0 322e302d 31367562 756e7475 31292031  2.0-16ubuntu1) 1
 4500 312e322e 3000412d 00000072 69736376  1.2.0.A-...riscv
 4510 00012300 00000572 76363469 3270305f  ..#....rv64i2p0_
 4520 6d327030 5f613270 305f6632 70305f64  m2p0_a2p0_f2p0_d
 4530 32703000 00000000 00000000 00000000  2p0.............
 4540 00000000 00000000 00000000 00000000  ................
 4550 00000000 03000100 00000080 00000000  ................
 4560 00000000 00000000 00000000 03000200  ................
 4570 701a0080 00000000 00000000 00000000  p...............
 4580 00000000 03000300 00200080 00000000  ......... ......
 4590 00000000 00000000 00000000 03000400  ................
 45a0 00000000 00000000 00000000 00000000  ................
 45b0 00000000 03000500 00000000 00000000  ................
 45c0 00000000 00000000 01000000 0400f1ff  ................
 45d0 00000000 00000000 00000000 00000000  ................
 45e0 09000000 00000100 00000080 00000000  ................
 45f0 00000000 00000000 0c000000 0400f1ff  ................
 4600 00000000 00000000 00000000 00000000  ................
 4610 09000000 00000100 10000080 00000000  ................
 4620 00000000 00000000 09000000 00000100  ................
 4630 24000080 00000000 00000000 00000000  $...............
 4640 13000000 0400f1ff 00000000 00000000  ................
 4650 00000000 00000000 1d000000 0000f1ff  ................
 4660 03000000 00000000 00000000 00000000  ................
 4670 27000000 0000f1ff 01000000 00000000  '...............
 4680 00000000 00000000 31000000 0000f1ff  ........1.......
 4690 02000000 00000000 00000000 00000000  ................
 46a0 09000000 00000100 40000080 00000000  ........@.......
 46b0 00000000 00000000 3b000000 0000f1ff  ........;.......
 46c0 d0dad0ba 00000000 00000000 00000000  ................
 46d0 40000000 0000f1ff 04000000 00000000  @...............
 46e0 00000000 00000000 46000000 0000f1ff  ........F.......
 46f0 05000000 00000000 00000000 00000000  ................
 4700 4c000000 0000f1ff 00000000 00000000  L...............
 4710 00000000 00000000 51000000 0000f1ff  ........Q.......
 4720 00000000 00000000 00000000 00000000  ................
 4730 56000000 0000f1ff d0dad0ba 00000000  V...............
 4740 00000000 00000000 5b000000 0000f1ff  ........[.......
 4750 40000000 00000000 00000000 00000000  @...............
 4760 5f000000 0000f1ff d0dad0ba 00000000  _...............
 4770 00000000 00000000 66000000 0000f1ff  ........f.......
 4780 01000000 00000000 00000000 00000000  ................
 4790 6a000000 0000f1ff d0faffff ffffffff  j...............
 47a0 00000000 00000000 70000000 0000f1ff  ........p.......
 47b0 01000000 00000000 00000000 00000000  ................
 47c0 75000000 0000f1ff 00000000 00000000  u...............
 47d0 00000000 00000000 7a000000 0000f1ff  ........z.......
 47e0 ad0dad0b 00000000 00000000 00000000  ................
 47f0 81000000 0000f1ff adfdffff ffffffff  ................
 4800 00000000 00000000 89000000 0000f1ff  ................
 4810 01000000 00000000 00000000 00000000  ................
 4820 8f000000 0000f1ff ad0dad0b 00000000  ................
 4830 00000000 00000000 98000000 00000300  ................
 4840 08300080 00000000 00000000 00000000  .0..............
 4850 db060000 0000f1ff 50040000 00000000  ........P.......
 4860 00000000 00000000 a7000000 00000100  ................
 4870 40040080 00000000 00000000 00000000  @...............
 4880 ae000000 00000100 5c040080 00000000  ........\.......
 4890 00000000 00000000 b5000000 00000100  ................
 48a0 7c040080 00000000 00000000 00000000  |...............
 48b0 bc000000 00000100 a8040080 00000000  ................
 48c0 00000000 00000000 c3000000 00000100  ................
 48d0 c8040080 00000000 00000000 00000000  ................
 48e0 ca000000 00000100 e4040080 00000000  ................
 48f0 00000000 00000000 d1000000 00000100  ................
 4900 04050080 00000000 00000000 00000000  ................
 4910 d8000000 00000100 20050080 00000000  ........ .......
 4920 00000000 00000000 df000000 00000100  ................
 4930 40050080 00000000 00000000 00000000  @...............
 4940 e6000000 00000100 5c050080 00000000  ........\.......
 4950 00000000 00000000 ed000000 00000100  ................
 4960 78050080 00000000 00000000 00000000  x...............
 4970 f5000000 00000100 94050080 00000000  ................
 4980 00000000 00000000 fd000000 00000100  ................
 4990 b0050080 00000000 00000000 00000000  ................
 49a0 05010000 00000100 cc050080 00000000  ................
 49b0 00000000 00000000 0d010000 00000100  ................
 49c0 e8050080 00000000 00000000 00000000  ................
 49d0 15010000 00000100 04060080 00000000  ................
 49e0 00000000 00000000 1d010000 00000300  ................
 49f0 88300080 00000000 00000000 00000000  .0..............
 4a00 2c010000 00000100 40060080 00000000  ,.......@.......
 4a10 00000000 00000000 34010000 00000100  ........4.......
 4a20 5c060080 00000000 00000000 00000000  \...............
 4a30 3c010000 00000100 78060080 00000000  <.......x.......
 4a40 00000000 00000000 44010000 00000100  ........D.......
 4a50 94060080 00000000 00000000 00000000  ................
 4a60 4c010000 00000100 b4060080 00000000  L...............
 4a70 00000000 00000000 54010000 00000100  ........T.......
 4a80 d4060080 00000000 00000000 00000000  ................
 4a90 5c010000 00000100 f4060080 00000000  \...............
 4aa0 00000000 00000000 64010000 00000100  ........d.......
 4ab0 14070080 00000000 00000000 00000000  ................
 4ac0 6c010000 00000100 34070080 00000000  l.......4.......
 4ad0 00000000 00000000 74010000 00000100  ........t.......
 4ae0 54070080 00000000 00000000 00000000  T...............
 4af0 7c010000 00000100 74070080 00000000  |.......t.......
 4b00 00000000 00000000 84010000 00000100  ................
 4b10 94070080 00000000 00000000 00000000  ................
 4b20 8c010000 00000100 b4070080 00000000  ................
 4b30 00000000 00000000 94010000 00000100  ................
 4b40 d4070080 00000000 00000000 00000000  ................
 4b50 9c010000 00000100 f4070080 00000000  ................
 4b60 00000000 00000000 a4010000 00000100  ................
 4b70 14080080 00000000 00000000 00000000  ................
 4b80 ac010000 00000100 34080080 00000000  ........4.......
 4b90 00000000 00000000 b4010000 00000100  ................
 4ba0 54080080 00000000 00000000 00000000  T...............
 4bb0 bc010000 00000100 74080080 00000000  ........t.......
 4bc0 00000000 00000000 c4010000 00000100  ................
 4bd0 94080080 00000000 00000000 00000000  ................
 4be0 cc010000 00000100 b4080080 00000000  ................
 4bf0 00000000 00000000 d4010000 00000100  ................
 4c00 d4080080 00000000 00000000 00000000  ................
 4c10 dc010000 00000100 f4080080 00000000  ................
 4c20 00000000 00000000 e4010000 00000100  ................
 4c30 14090080 00000000 00000000 00000000  ................
 4c40 ec010000 00000100 34090080 00000000  ........4.......
 4c50 00000000 00000000 f4010000 00000100  ................
 4c60 54090080 00000000 00000000 00000000  T...............
 4c70 fc010000 00000100 74090080 00000000  ........t.......
 4c80 00000000 00000000 04020000 00000100  ................
 4c90 94090080 00000000 00000000 00000000  ................
 4ca0 0c020000 00000100 b4090080 00000000  ................
 4cb0 00000000 00000000 14020000 00000100  ................
 4cc0 d4090080 00000000 00000000 00000000  ................
 4cd0 1c020000 00000100 f4090080 00000000  ................
 4ce0 00000000 00000000 24020000 00000100  ........$.......
 4cf0 140a0080 00000000 00000000 00000000  ................
 4d00 2c020000 00000100 340a0080 00000000  ,.......4.......
 4d10 00000000 00000000 34020000 00000100  ........4.......
 4d20 540a0080 00000000 00000000 00000000  T...............
 4d30 3c020000 00000100 740a0080 00000000  <.......t.......
 4d40 00000000 00000000 44020000 00000100  ........D.......
 4d50 940a0080 00000000 00000000 00000000  ................
 4d60 4c020000 00000100 b40a0080 00000000  L...............
 4d70 00000000 00000000 54020000 00000100  ........T.......
 4d80 d40a0080 00000000 00000000 00000000  ................
 4d90 5c020000 00000100 f40a0080 00000000  \...............
 4da0 00000000 00000000 64020000 00000100  ........d.......
 4db0 140b0080 00000000 00000000 00000000  ................
 4dc0 6c020000 00000100 340b0080 00000000  l.......4.......
 4dd0 00000000 00000000 74020000 00000100  ........t.......
 4de0 540b0080 00000000 00000000 00000000  T...............
 4df0 7c020000 00000100 740b0080 00000000  |.......t.......
 4e00 00000000 00000000 84020000 00000100  ................
 4e10 940b0080 00000000 00000000 00000000  ................
 4e20 8c020000 00000100 b40b0080 00000000  ................
 4e30 00000000 00000000 94020000 00000100  ................
 4e40 d40b0080 00000000 00000000 00000000  ................
 4e50 9c020000 00000100 f40b0080 00000000  ................
 4e60 00000000 00000000 a4020000 00000100  ................
 4e70 140c0080 00000000 00000000 00000000  ................
 4e80 ac020000 00000100 340c0080 00000000  ........4.......
 4e90 00000000 00000000 b4020000 00000100  ................
 4ea0 540c0080 00000000 00000000 00000000  T...............
 4eb0 bc020000 00000100 740c0080 00000000  ........t.......
 4ec0 00000000 00000000 c4020000 00000100  ................
 4ed0 940c0080 00000000 00000000 00000000  ................
 4ee0 cc020000 00000100 b40c0080 00000000  ................
 4ef0 00000000 00000000 d4020000 00000100  ................
 4f00 d40c0080 00000000 00000000 00000000  ................
 4f10 dc020000 00000100 f00c0080 00000000  ................
 4f20 00000000 00000000 e4020000 00000100  ................
 4f30 0c0d0080 00000000 00000000 00000000  ................
 4f40 ec020000 00000100 280d0080 00000000  ........(.......
 4f50 00000000 00000000 f4020000 00000100  ................
 4f60 440d0080 00000000 00000000 00000000  D...............
 4f70 fc020000 00000100 600d0080 00000000  ........`.......
 4f80 00000000 00000000 04030000 00000100  ................
 4f90 7c0d0080 00000000 00000000 00000000  |...............
 4fa0 0c030000 00000100 980d0080 00000000  ................
 4fb0 00000000 00000000 14030000 00000100  ................
 4fc0 b40d0080 00000000 00000000 00000000  ................
 4fd0 1c030000 00000100 d00d0080 00000000  ................
 4fe0 00000000 00000000 24030000 00000100  ........$.......
 4ff0 ec0d0080 00000000 00000000 00000000  ................
 5000 2c030000 00000100 100e0080 00000000  ,...............
 5010 00000000 00000000 34030000 00000100  ........4.......
 5020 340e0080 00000000 00000000 00000000  4...............
 5030 3c030000 00000100 580e0080 00000000  <.......X.......
 5040 00000000 00000000 44030000 00000100  ........D.......
 5050 800e0080 00000000 00000000 00000000  ................
 5060 4c030000 00000100 a40e0080 00000000  L...............
 5070 00000000 00000000 54030000 00000100  ........T.......
 5080 c80e0080 00000000 00000000 00000000  ................
 5090 5c030000 00000100 ec0e0080 00000000  \...............
 50a0 00000000 00000000 64030000 00000100  ........d.......
 50b0 140f0080 00000000 00000000 00000000  ................
 50c0 6c030000 00000100 3c0f0080 00000000  l.......<.......
 50d0 00000000 00000000 74030000 00000100  ........t.......
 50e0 600f0080 00000000 00000000 00000000  `...............
 50f0 7c030000 00000100 840f0080 00000000  |...............
 5100 00000000 00000000 84030000 00000100  ................
 5110 a80f0080 00000000 00000000 00000000  ................
 5120 8c030000 00000100 cc0f0080 00000000  ................
 5130 00000000 00000000 94030000 00000100  ................
 5140 f00f0080 00000000 00000000 00000000  ................
 5150 9c030000 00000100 14100080 00000000  ................
 5160 00000000 00000000 a4030000 00000100  ................
 5170 38100080 00000000 00000000 00000000  8...............
 5180 ac030000 00000100 5c100080 00000000  ........\.......
 5190 00000000 00000000 b4030000 00000100  ................
 51a0 98100080 00000000 00000000 00000000  ................
 51b0 bc030000 00000100 d4100080 00000000  ................
 51c0 00000000 00000000 c4030000 00000100  ................
 51d0 f0100080 00000000 00000000 00000000  ................
 51e0 cc030000 00000100 0c110080 00000000  ................
 51f0 00000000 00000000 d5030000 00000100  ................
 5200 44110080 00000000 00000000 00000000  D...............
 5210 de030000 00000100 80110080 00000000  ................
 5220 00000000 00000000 e7030000 00000100  ................
 5230 bc110080 00000000 00000000 00000000  ................
 5240 f0030000 00000100 f8110080 00000000  ................
 5250 00000000 00000000 f9030000 00000100  ................
 5260 30120080 00000000 00000000 00000000  0...............
 5270 02040000 00000100 6c120080 00000000  ........l.......
 5280 00000000 00000000 0b040000 00000100  ................
 5290 a8120080 00000000 00000000 00000000  ................
 52a0 14040000 00000100 e0120080 00000000  ................
 52b0 00000000 00000000 1d040000 00000100  ................
 52c0 18130080 00000000 00000000 00000000  ................
 52d0 26040000 00000100 54130080 00000000  &.......T.......
 52e0 00000000 00000000 2f040000 00000100  ......../.......
 52f0 70130080 00000000 00000000 00000000  p...............
 5300 38040000 00000100 ac130080 00000000  8...............
 5310 00000000 00000000 41040000 00000100  ........A.......
 5320 e8130080 00000000 00000000 00000000  ................
 5330 4a040000 00000100 24140080 00000000  J.......$.......
 5340 00000000 00000000 53040000 00000100  ........S.......
 5350 5c140080 00000000 00000000 00000000  \...............
 5360 5c040000 00000100 80140080 00000000  \...............
 5370 00000000 00000000 65040000 00000100  ........e.......
 5380 a4140080 00000000 00000000 00000000  ................
 5390 6e040000 00000100 c8140080 00000000  n...............
 53a0 00000000 00000000 77040000 00000100  ........w.......
 53b0 ec140080 00000000 00000000 00000000  ................
 53c0 80040000 00000100 14150080 00000000  ................
 53d0 00000000 00000000 89040000 00000100  ................
 53e0 3c150080 00000000 00000000 00000000  <...............
 53f0 92040000 00000100 64150080 00000000  ........d.......
 5400 00000000 00000000 9b040000 00000100  ................
 5410 8c150080 00000000 00000000 00000000  ................
 5420 a4040000 00000100 b4150080 00000000  ................
 5430 00000000 00000000 ad040000 00000100  ................
 5440 dc150080 00000000 00000000 00000000  ................
 5450 b6040000 00000100 04160080 00000000  ................
 5460 00000000 00000000 bf040000 00000100  ................
 5470 28160080 00000000 00000000 00000000  (...............
 5480 c8040000 00000100 4c160080 00000000  ........L.......
 5490 00000000 00000000 d1040000 00000100  ................
 54a0 70160080 00000000 00000000 00000000  p...............
 54b0 da040000 00000100 94160080 00000000  ................
 54c0 00000000 00000000 e3040000 00000100  ................
 54d0 b8160080 00000000 00000000 00000000  ................
 54e0 ec040000 00000100 dc160080 00000000  ................
 54f0 00000000 00000000 f5040000 00000100  ................
 5500 00170080 00000000 00000000 00000000  ................
 5510 fe040000 00000100 24170080 00000000  ........$.......
 5520 00000000 00000000 07050000 00000100  ................
 5530 48170080 00000000 00000000 00000000  H...............
 5540 10050000 00000100 6c170080 00000000  ........l.......
 5550 00000000 00000000 19050000 00000100  ................
 5560 90170080 00000000 00000000 00000000  ................
 5570 22050000 00000100 b4170080 00000000  "...............
 5580 00000000 00000000 2b050000 00000100  ........+.......
 5590 d8170080 00000000 00000000 00000000  ................
 55a0 34050000 00000100 fc170080 00000000  4...............
 55b0 00000000 00000000 3d050000 00000100  ........=.......
 55c0 20180080 00000000 00000000 00000000   ...............
 55d0 46050000 00000100 44180080 00000000  F.......D.......
 55e0 00000000 00000000 4f050000 00000100  ........O.......
 55f0 68180080 00000000 00000000 00000000  h...............
 5600 58050000 00000100 8c180080 00000000  X...............
 5610 00000000 00000000 61050000 00000100  ........a.......
 5620 b0180080 00000000 00000000 00000000  ................
 5630 6a050000 00000100 d4180080 00000000  j...............
 5640 00000000 00000000 73050000 00000100  ........s.......
 5650 f8180080 00000000 00000000 00000000  ................
 5660 7c050000 00000100 1c190080 00000000  |...............
 5670 00000000 00000000 85050000 00000100  ................
 5680 40190080 00000000 00000000 00000000  @...............
 5690 8e050000 00000100 5c190080 00000000  ........\.......
 56a0 00000000 00000000 97050000 00000100  ................
 56b0 84190080 00000000 00000000 00000000  ................
 56c0 a0050000 00000100 a4190080 00000000  ................
 56d0 00000000 00000000 a9050000 00000100  ................
 56e0 c0190080 00000000 00000000 00000000  ................
 56f0 b2050000 00000100 181a0080 00000000  ................
 5700 00000000 00000000 bf050000 00000100  ................
 5710 e4190080 00000000 00000000 00000000  ................
 5720 cb050000 00000300 00200080 00000000  ......... ......
 5730 00000000 00000000 d7050000 00000300  ................
 5740 10200080 00000000 00000000 00000000  . ..............
 5750 e4050000 00000300 00300080 00000000  .........0......
 5760 00000000 00000000 f5050000 00000300  ................
 5770 00300080 00000000 00000000 00000000  .0..............
 5780 06060000 00000300 08300080 00000000  .........0......
 5790 00000000 00000000 15060000 00000300  ................
 57a0 d8340080 00000000 00000000 00000000  .4..............
 57b0 24060000 00000300 e0340080 00000000  $........4......
 57c0 00000000 00000000 33060000 0400f1ff  ........3.......
 57d0 00000000 00000000 00000000 00000000  ................
 57e0 09000000 00000100 401a0080 00000000  ........@.......
 57f0 00000000 00000000 09000000 00000100  ................
 5800 4c1a0080 00000000 00000000 00000000  L...............
 5810 39060000 01000200 701a0080 00000000  9.......p.......
 5820 01000000 00000000 42060000 12020100  ........B.......
 5830 24000080 00000000 0c000000 00000000  $...............
 5840 4f060000 12020100 4c1a0080 00000000  O.......L.......
 5850 20000000 00000000 59060000 10000300   .......Y.......
 5860 00c00080 00000000 00000000 00000000  ................
 5870 68060000 10000300 e0340080 00000000  h........4......
 5880 00000000 00000000 76060000 10000100  ........v.......
 5890 6c1a0080 00000000 00000000 00000000  l...............
 58a0 7d060000 1000f1ff 00000080 00000000  }...............
 58b0 00000000 00000000 89060000 10000300  ................
 58c0 e0340080 00000000 00000000 00000000  .4..............
 58d0 94060000 10000300 e0340080 00000000  .........4......
 58e0 00000000 00000000 9a060000 10000300  ................
 58f0 00c00080 00000000 00000000 00000000  ................
 5900 a6060000 10000300 00400080 00000000  .........@......
 5910 00000000 00000000 b1060000 10000100  ................
 5920 40000080 00000000 00000000 00000000  @...............
 5930 33070000 10000300 00c00080 00000000  3...............
 5940 00000000 00000000 77060000 10000100  ........w.......
 5950 6c1a0080 00000000 00000000 00000000  l...............
 5960 c4060000 10000300 00300080 00000000  .........0......
 5970 00000000 00000000 82060000 12000100  ................
 5980 00000080 00000000 00000000 00000000  ................
 5990 d4060000 1000f1ff 00000000 00000000  ................
 59a0 00000000 00000000 e2060000 10000100  ................
 59b0 40000080 00000000 00000000 00000000  @...............
 59c0 ee060000 10000100 e0190080 00000000  ................
 59d0 00000000 00000000 fe060000 10000100  ................
 59e0 20040080 00000000 00000000 00000000   ...............
 59f0 10070000 12020100 10000080 00000000  ................
 5a00 14000000 00000000 15070000 10000300  ................
 5a10 00200080 00000000 00000000 00000000  . ..............
 5a20 27070000 10000300 00300080 00000000  '........0......
 5a30 00000000 00000000 d1050000 10000300  ................
 5a40 e0340080 00000000 00000000 00000000  .4..............
 5a50 37070000 10000100 e0190080 00000000  7...............
 5a60 00000000 00000000 32070000 10000300  ........2.......
 5a70 00c00080 00000000 00000000 00000000  ................
 5a80 47070000 12020100 401a0080 00000000  G.......@.......
 5a90 0c000000 00000000 00737461 72742e6f  .........start.o
 5aa0 00247800 6d61696e 2e630073 7261772d  .$x.main.c.sraw-
 5ab0 30312e6f 004d4d4f 44455f53 49470053  01.o.MMODE_SIG.S
 5ac0 4d4f4445 5f534947 00564d4f 44455f53  MODE_SIG.VMODE_S
 5ad0 49470069 6d6d7800 65646765 31006564  IG.immx.edge1.ed
 5ae0 67653200 666e6431 00666e64 3200696d  ge2.fnd1.fnd2.im
 5af0 6d650070 6f730061 6273696d 6d006372  me.pos.absimm.cr
 5b00 7900696d 6d313200 6576656e 00637279  y.imm12.even.cry
 5b10 6800696d 6d787368 00696d6d 31327368  h.immxsh.imm12sh
 5b20 00637279 73680061 6273696d 6d736800  .crysh.absimmsh.
 5b30 7369676e 61747572 655f7833 5f310069  signature_x3_1.i
 5b40 6e73745f 3000696e 73745f31 00696e73  nst_0.inst_1.ins
 5b50 745f3200 696e7374 5f330069 6e73745f  t_2.inst_3.inst_
 5b60 3400696e 73745f35 00696e73 745f3600  4.inst_5.inst_6.
 5b70 696e7374 5f370069 6e73745f 3800696e  inst_7.inst_8.in
 5b80 73745f39 00696e73 745f3130 00696e73  st_9.inst_10.ins
 5b90 745f3131 00696e73 745f3132 00696e73  t_11.inst_12.ins
 5ba0 745f3133 00696e73 745f3134 00696e73  t_13.inst_14.ins
 5bb0 745f3135 00736967 6e617475 72655f78  t_15.signature_x
 5bc0 365f3000 696e7374 5f313600 696e7374  6_0.inst_16.inst
 5bd0 5f313700 696e7374 5f313800 696e7374  _17.inst_18.inst
 5be0 5f313900 696e7374 5f323000 696e7374  _19.inst_20.inst
 5bf0 5f323100 696e7374 5f323200 696e7374  _21.inst_22.inst
 5c00 5f323300 696e7374 5f323400 696e7374  _23.inst_24.inst
 5c10 5f323500 696e7374 5f323600 696e7374  _25.inst_26.inst
 5c20 5f323700 696e7374 5f323800 696e7374  _27.inst_28.inst
 5c30 5f323900 696e7374 5f333000 696e7374  _29.inst_30.inst
 5c40 5f333100 696e7374 5f333200 696e7374  _31.inst_32.inst
 5c50 5f333300 696e7374 5f333400 696e7374  _33.inst_34.inst
 5c60 5f333500 696e7374 5f333600 696e7374  _35.inst_36.inst
 5c70 5f333700 696e7374 5f333800 696e7374  _37.inst_38.inst
 5c80 5f333900 696e7374 5f343000 696e7374  _39.inst_40.inst
 5c90 5f343100 696e7374 5f343200 696e7374  _41.inst_42.inst
 5ca0 5f343300 696e7374 5f343400 696e7374  _43.inst_44.inst
 5cb0 5f343500 696e7374 5f343600 696e7374  _45.inst_46.inst
 5cc0 5f343700 696e7374 5f343800 696e7374  _47.inst_48.inst
 5cd0 5f343900 696e7374 5f353000 696e7374  _49.inst_50.inst
 5ce0 5f353100 696e7374 5f353200 696e7374  _51.inst_52.inst
 5cf0 5f353300 696e7374 5f353400 696e7374  _53.inst_54.inst
 5d00 5f353500 696e7374 5f353600 696e7374  _55.inst_56.inst
 5d10 5f353700 696e7374 5f353800 696e7374  _57.inst_58.inst
 5d20 5f353900 696e7374 5f363000 696e7374  _59.inst_60.inst
 5d30 5f363100 696e7374 5f363200 696e7374  _61.inst_62.inst
 5d40 5f363300 696e7374 5f363400 696e7374  _63.inst_64.inst
 5d50 5f363500 696e7374 5f363600 696e7374  _65.inst_66.inst
 5d60 5f363700 696e7374 5f363800 696e7374  _67.inst_68.inst
 5d70 5f363900 696e7374 5f373000 696e7374  _69.inst_70.inst
 5d80 5f373100 696e7374 5f373200 696e7374  _71.inst_72.inst
 5d90 5f373300 696e7374 5f373400 696e7374  _73.inst_74.inst
 5da0 5f373500 696e7374 5f373600 696e7374  _75.inst_76.inst
 5db0 5f373700 696e7374 5f373800 696e7374  _77.inst_78.inst
 5dc0 5f373900 696e7374 5f383000 696e7374  _79.inst_80.inst
 5dd0 5f383100 696e7374 5f383200 696e7374  _81.inst_82.inst
 5de0 5f383300 696e7374 5f383400 696e7374  _83.inst_84.inst
 5df0 5f383500 696e7374 5f383600 696e7374  _85.inst_86.inst
 5e00 5f383700 696e7374 5f383800 696e7374  _87.inst_88.inst
 5e10 5f383900 696e7374 5f393000 696e7374  _89.inst_90.inst
 5e20 5f393100 696e7374 5f393200 696e7374  _91.inst_92.inst
 5e30 5f393300 696e7374 5f393400 696e7374  _93.inst_94.inst
 5e40 5f393500 696e7374 5f393600 696e7374  _95.inst_96.inst
 5e50 5f393700 696e7374 5f393800 696e7374  _97.inst_98.inst
 5e60 5f393900 696e7374 5f313030 00696e73  _99.inst_100.ins
 5e70 745f3130 3100696e 73745f31 30320069  t_101.inst_102.i
 5e80 6e73745f 31303300 696e7374 5f313034  nst_103.inst_104
 5e90 00696e73 745f3130 3500696e 73745f31  .inst_105.inst_1
 5ea0 30360069 6e73745f 31303700 696e7374  06.inst_107.inst
 5eb0 5f313038 00696e73 745f3130 3900696e  _108.inst_109.in
 5ec0 73745f31 31300069 6e73745f 31313100  st_110.inst_111.
 5ed0 696e7374 5f313132 00696e73 745f3131  inst_112.inst_11
 5ee0 3300696e 73745f31 31340069 6e73745f  3.inst_114.inst_
 5ef0 31313500 696e7374 5f313136 00696e73  115.inst_116.ins
 5f00 745f3131 3700696e 73745f31 31380069  t_117.inst_118.i
 5f10 6e73745f 31313900 696e7374 5f313230  nst_119.inst_120
 5f20 00696e73 745f3132 3100696e 73745f31  .inst_121.inst_1
 5f30 32320069 6e73745f 31323300 696e7374  22.inst_123.inst
 5f40 5f313234 00696e73 745f3132 3500696e  _124.inst_125.in
 5f50 73745f31 32360069 6e73745f 31323700  st_126.inst_127.
 5f60 696e7374 5f313238 00696e73 745f3132  inst_128.inst_12
 5f70 3900696e 73745f31 33300069 6e73745f  9.inst_130.inst_
 5f80 31333100 696e7374 5f313332 00696e73  131.inst_132.ins
 5f90 745f3133 3300696e 73745f31 33340069  t_133.inst_134.i
 5fa0 6e73745f 31333500 696e7374 5f313336  nst_135.inst_136
 5fb0 00696e73 745f3133 3700696e 73745f31  .inst_137.inst_1
 5fc0 33380069 6e73745f 31333900 696e7374  38.inst_139.inst
 5fd0 5f313430 00696e73 745f3134 3100696e  _140.inst_141.in
 5fe0 73745f31 34320069 6e73745f 31343300  st_142.inst_143.
 5ff0 696e7374 5f313434 00696e73 745f3134  inst_144.inst_14
 6000 3500696e 73745f31 34360069 6e73745f  5.inst_146.inst_
 6010 31343700 696e7374 5f313438 00696e73  147.inst_148.ins
 6020 745f3134 3900696e 73745f31 35300069  t_149.inst_150.i
 6030 6e73745f 31353100 696e7374 5f313532  nst_151.inst_152
 6040 00696e73 745f3135 33006578 69745f63  .inst_153.exit_c
 6050 6c65616e 75700061 626f7274 5f746573  leanup.abort_tes
 6060 74730072 76746573 745f6461 7461006d  ts.rvtest_data.m
 6070 74726170 5f736967 70747200 72767465  trap_sigptr.rvte
 6080 73745f73 69675f62 6567696e 00736967  st_sig_begin.sig
 6090 5f626567 696e5f63 616e6172 79007369  _begin_canary.si
 60a0 676e6174 7572655f 78335f30 00736967  gnature_x3_0.sig
 60b0 5f656e64 5f63616e 61727900 72767465  _end_canary.rvte
 60c0 73745f73 69675f65 6e640074 726d2e63  st_sig_end.trm.c
 60d0 006d6169 6e617267 73007276 74657374  .mainargs.rvtest
 60e0 5f657272 6f72005f 74726d5f 696e6974  _error._trm_init
 60f0 005f7374 61636b5f 706f696e 74657200  ._stack_pointer.
 6100 656e645f 7369676e 61747572 65005f65  end_signature._e
 6110 74657874 005f706d 656d5f73 74617274  text._pmem_start
 6120 005f6273 735f7374 61727400 65646174  ._bss_start.edat
 6130 61005f68 6561705f 73746172 74005f73  a._heap_start._s
 6140 7461636b 5f746f70 00727674 6573745f  tack_top.rvtest_
 6150 656e7472 795f706f 696e7400 62656769  entry_point.begi
 6160 6e5f7369 676e6174 75726500 5f656e74  n_signature._ent
 6170 72795f6f 66667365 74007276 74657374  ry_offset.rvtest
 6180 5f696e69 74007276 74657374 5f636f64  _init.rvtest_cod
 6190 655f656e 64007276 74657374 5f636f64  e_end.rvtest_cod
 61a0 655f6265 67696e00 6d61696e 00727674  e_begin.main.rvt
 61b0 6573745f 64617461 5f626567 696e0072  est_data_begin.r
 61c0 76746573 745f6461 74615f65 6e640063  vtest_data_end.c
 61d0 6c65616e 75705f65 70696c6f 67730068  leanup_epilogs.h
 61e0 616c7400 002e7379 6d746162 002e7374  alt...symtab..st
 61f0 72746162 002e7368 73747274 6162002e  rtab..shstrtab..
 6200 74657874 002e7372 6f646174 612e6d61  text..srodata.ma
 6210 696e6172 6773002e 64617461 002e636f  inargs..data..co
 6220 6d6d656e 74002e72 69736376 2e617474  mment..riscv.att
 6230 72696275 74657300 00000000 00000000  ributes.........
 6240 00000000 00000000 00000000 00000000  ................
 6250 00000000 00000000 00000000 00000000  ................
 6260 00000000 00000000 00000000 00000000  ................
 6270 00000000 00000000 1b000000 01000000  ................
 6280 06000000 00000000 00000080 00000000  ................
 6290 00100000 00000000 6c1a0000 00000000  ........l.......
 62a0 00000000 00000000 20000000 00000000  ........ .......
 62b0 00000000 00000000 21000000 01000000  ........!.......
 62c0 02000000 00000000 701a0080 00000000  ........p.......
 62d0 702a0000 00000000 01000000 00000000  p*..............
 62e0 00000000 00000000 08000000 00000000  ................
 62f0 00000000 00000000 33000000 01000000  ........3.......
 6300 03000000 00000000 00200080 00000000  ......... ......
 6310 00300000 00000000 e0140000 00000000  .0..............
 6320 00000000 00000000 00100000 00000000  ................
 6330 00000000 00000000 39000000 01000000  ........9.......
 6340 30000000 00000000 00000000 00000000  0...............
 6350 e0440000 00000000 26000000 00000000  .D......&.......
 6360 00000000 00000000 01000000 00000000  ................
 6370 01000000 00000000 42000000 03000070  ........B......p
 6380 00000000 00000000 00000000 00000000  ................
 6390 06450000 00000000 2e000000 00000000  .E..............
 63a0 00000000 00000000 01000000 00000000  ................
 63b0 00000000 00000000 01000000 02000000  ................
 63c0 00000000 00000000 00000000 00000000  ................
 63d0 38450000 00000000 60150000 00000000  8E......`.......
 63e0 07000000 ca000000 08000000 00000000  ................
 63f0 18000000 00000000 09000000 03000000  ................
 6400 00000000 00000000 00000000 00000000  ................
 6410 985a0000 00000000 4c070000 00000000  .Z......L.......
 6420 00000000 00000000 01000000 00000000  ................
 6430 00000000 00000000 11000000 03000000  ................
 6440 00000000 00000000 00000000 00000000  ................
 6450 e4610000 00000000 54000000 00000000  .a......T.......
 6460 00000000 00000000 01000000 00000000  ................
 6470 00000000 00000000                    ........        

Disassembly of section .data:

0000000000001000 <.data+0x1000>:
    1000:	00000413          	addi	x8,x0,0
    1004:	0000c117          	auipc	x2,0xc
    1008:	ffc10113          	addi	x2,x2,-4 # 0xd000
    100c:	241010ef          	jal	x1,0x2a4c
    1010:	030000ef          	jal	x1,0x1040
    1014:	00100513          	addi	x10,x0,1
    1018:	229010ef          	jal	x1,0x2a40
    101c:	00000513          	addi	x10,x0,0
    1020:	00008067          	jalr	x0,0(x1)
    1024:	00100513          	addi	x10,x0,1
    1028:	219010ef          	jal	x1,0x2a40
    102c:	00008067          	jalr	x0,0(x1)
	...
    1040:	feedc0b7          	lui	x1,0xfeedc
    1044:	ead08093          	addi	x1,x1,-339 # 0xfffffffffeedbead
    1048:	00b09093          	slli	x1,x1,0xb
    104c:	7f708093          	addi	x1,x1,2039
    1050:	00b09093          	slli	x1,x1,0xb
    1054:	36f08093          	addi	x1,x1,879
    1058:	00a09093          	slli	x1,x1,0xa
    105c:	2ad08093          	addi	x1,x1,685
    1060:	ff76e137          	lui	x2,0xff76e
    1064:	f5610113          	addi	x2,x2,-170 # 0xffffffffff76df56
    1068:	00b11113          	slli	x2,x2,0xb
    106c:	7fb10113          	addi	x2,x2,2043
    1070:	00b11113          	slli	x2,x2,0xb
    1074:	5b710113          	addi	x2,x2,1463
    1078:	00a11113          	slli	x2,x2,0xa
    107c:	35610113          	addi	x2,x2,854
    1080:	7fbb71b7          	lui	x3,0x7fbb7
    1084:	fab18193          	addi	x3,x3,-85 # 0x7fbb6fab
    1088:	00b19193          	slli	x3,x3,0xb
    108c:	3fd18193          	addi	x3,x3,1021
    1090:	00b19193          	slli	x3,x3,0xb
    1094:	6db18193          	addi	x3,x3,1755
    1098:	00a19193          	slli	x3,x3,0xa
    109c:	3ab18193          	addi	x3,x3,939
    10a0:	bfddb237          	lui	x4,0xbfddb
    10a4:	7d520213          	addi	x4,x4,2005 # 0xffffffffbfddb7d5
    10a8:	00b21213          	slli	x4,x4,0xb
    10ac:	5fe20213          	addi	x4,x4,1534 # 0x5fe
    10b0:	00b21213          	slli	x4,x4,0xb
    10b4:	76d20213          	addi	x4,x4,1901 # 0x76d
    10b8:	00a21213          	slli	x4,x4,0xa
    10bc:	3d520213          	addi	x4,x4,981 # 0x3d5
    10c0:	dfeee2b7          	lui	x5,0xdfeee
    10c4:	bea28293          	addi	x5,x5,-1046 # 0xffffffffdfeedbea
    10c8:	00b29293          	slli	x5,x5,0xb
    10cc:	6ff28293          	addi	x5,x5,1791
    10d0:	00b29293          	slli	x5,x5,0xb
    10d4:	3b628293          	addi	x5,x5,950
    10d8:	00a29293          	slli	x5,x5,0xa
    10dc:	3ea28293          	addi	x5,x5,1002
    10e0:	6ff77337          	lui	x6,0x6ff77
    10e4:	df530313          	addi	x6,x6,-523 # 0x6ff76df5
    10e8:	00b31313          	slli	x6,x6,0xb
    10ec:	37f30313          	addi	x6,x6,895
    10f0:	00b31313          	slli	x6,x6,0xb
    10f4:	5db30313          	addi	x6,x6,1499
    10f8:	00a31313          	slli	x6,x6,0xa
    10fc:	1f530313          	addi	x6,x6,501
    1100:	b7fbb3b7          	lui	x7,0xb7fbb
    1104:	6fa38393          	addi	x7,x7,1786 # 0xffffffffb7fbb6fa
    1108:	00b39393          	slli	x7,x7,0xb
    110c:	5bf38393          	addi	x7,x7,1471
    1110:	00b39393          	slli	x7,x7,0xb
    1114:	6ed38393          	addi	x7,x7,1773
    1118:	00a39393          	slli	x7,x7,0xa
    111c:	2fa38393          	addi	x7,x7,762
    1120:	5bfde437          	lui	x8,0x5bfde
    1124:	b7d40413          	addi	x8,x8,-1155 # 0x5bfddb7d
    1128:	00b41413          	slli	x8,x8,0xb
    112c:	2df40413          	addi	x8,x8,735
    1130:	00b41413          	slli	x8,x8,0xb
    1134:	77640413          	addi	x8,x8,1910
    1138:	00a41413          	slli	x8,x8,0xa
    113c:	37d40413          	addi	x8,x8,893
    1140:	adfef4b7          	lui	x9,0xadfef
    1144:	dbe48493          	addi	x9,x9,-578 # 0xffffffffadfeedbe
    1148:	00b49493          	slli	x9,x9,0xb
    114c:	56f48493          	addi	x9,x9,1391
    1150:	00b49493          	slli	x9,x9,0xb
    1154:	7bb48493          	addi	x9,x9,1979
    1158:	00a49493          	slli	x9,x9,0xa
    115c:	1be48493          	addi	x9,x9,446
    1160:	56ff7537          	lui	x10,0x56ff7
    1164:	6df50513          	addi	x10,x10,1759 # 0x56ff76df
    1168:	00b51513          	slli	x10,x10,0xb
    116c:	2b750513          	addi	x10,x10,695
    1170:	00b51513          	slli	x10,x10,0xb
    1174:	7dd50513          	addi	x10,x10,2013
    1178:	00a51513          	slli	x10,x10,0xa
    117c:	2df50513          	addi	x10,x10,735
    1180:	ab7fc5b7          	lui	x11,0xab7fc
    1184:	b6f58593          	addi	x11,x11,-1169 # 0xffffffffab7fbb6f
    1188:	00b59593          	slli	x11,x11,0xb
    118c:	55b58593          	addi	x11,x11,1371
    1190:	00b59593          	slli	x11,x11,0xb
    1194:	7ee58593          	addi	x11,x11,2030
    1198:	00a59593          	slli	x11,x11,0xa
    119c:	36f58593          	addi	x11,x11,879
    11a0:	d5bfe637          	lui	x12,0xd5bfe
    11a4:	db760613          	addi	x12,x12,-585 # 0xffffffffd5bfddb7
    11a8:	00b61613          	slli	x12,x12,0xb
    11ac:	6ad60613          	addi	x12,x12,1709
    11b0:	00b61613          	slli	x12,x12,0xb
    11b4:	7f760613          	addi	x12,x12,2039
    11b8:	00a61613          	slli	x12,x12,0xa
    11bc:	1b760613          	addi	x12,x12,439
    11c0:	eadff6b7          	lui	x13,0xeadff
    11c4:	edb68693          	addi	x13,x13,-293 # 0xffffffffeadfeedb
    11c8:	00b69693          	slli	x13,x13,0xb
    11cc:	75668693          	addi	x13,x13,1878
    11d0:	00b69693          	slli	x13,x13,0xb
    11d4:	7fb68693          	addi	x13,x13,2043
    11d8:	00a69693          	slli	x13,x13,0xa
    11dc:	2db68693          	addi	x13,x13,731
    11e0:	f56ff737          	lui	x14,0xf56ff
    11e4:	76d70713          	addi	x14,x14,1901 # 0xfffffffff56ff76d
    11e8:	00b71713          	slli	x14,x14,0xb
    11ec:	7ab70713          	addi	x14,x14,1963
    11f0:	00b71713          	slli	x14,x14,0xb
    11f4:	3fd70713          	addi	x14,x14,1021
    11f8:	00a71713          	slli	x14,x14,0xa
    11fc:	36d70713          	addi	x14,x14,877
    1200:	fab807b7          	lui	x15,0xfab80
    1204:	bb678793          	addi	x15,x15,-1098 # 0xfffffffffab7fbb6
    1208:	00b79793          	slli	x15,x15,0xb
    120c:	7d578793          	addi	x15,x15,2005
    1210:	00b79793          	slli	x15,x15,0xb
    1214:	5fe78793          	addi	x15,x15,1534
    1218:	00a79793          	slli	x15,x15,0xa
    121c:	3b678793          	addi	x15,x15,950
    1220:	7d5c0837          	lui	x16,0x7d5c0
    1224:	ddb80813          	addi	x16,x16,-549 # 0x7d5bfddb
    1228:	00b81813          	slli	x16,x16,0xb
    122c:	3ea80813          	addi	x16,x16,1002
    1230:	00b81813          	slli	x16,x16,0xb
    1234:	6ff80813          	addi	x16,x16,1791
    1238:	00a81813          	slli	x16,x16,0xa
    123c:	1db80813          	addi	x16,x16,475
    1240:	beae08b7          	lui	x17,0xbeae0
    1244:	eed88893          	addi	x17,x17,-275 # 0xffffffffbeadfeed
    1248:	00b89893          	slli	x17,x17,0xb
    124c:	5f588893          	addi	x17,x17,1525
    1250:	00b89893          	slli	x17,x17,0xb
    1254:	37f88893          	addi	x17,x17,895
    1258:	00a89893          	slli	x17,x17,0xa
    125c:	2ed88893          	addi	x17,x17,749
    1260:	df570937          	lui	x18,0xdf570
    1264:	f7690913          	addi	x18,x18,-138 # 0xffffffffdf56ff76
    1268:	00b91913          	slli	x18,x18,0xb
    126c:	6fa90913          	addi	x18,x18,1786
    1270:	00b91913          	slli	x18,x18,0xb
    1274:	5bf90913          	addi	x18,x18,1471
    1278:	00a91913          	slli	x18,x18,0xa
    127c:	37690913          	addi	x18,x18,886
    1280:	6fab89b7          	lui	x19,0x6fab8
    1284:	fbb98993          	addi	x19,x19,-69 # 0x6fab7fbb
    1288:	00b99993          	slli	x19,x19,0xb
    128c:	37d98993          	addi	x19,x19,893
    1290:	00b99993          	slli	x19,x19,0xb
    1294:	2df98993          	addi	x19,x19,735
    1298:	00a99993          	slli	x19,x19,0xa
    129c:	3bb98993          	addi	x19,x19,955
    12a0:	b7d5ca37          	lui	x20,0xb7d5c
    12a4:	fdda0a13          	addi	x20,x20,-35 # 0xffffffffb7d5bfdd
    12a8:	00ba1a13          	slli	x20,x20,0xb
    12ac:	5bea0a13          	addi	x20,x20,1470
    12b0:	00ba1a13          	slli	x20,x20,0xb
    12b4:	56fa0a13          	addi	x20,x20,1391
    12b8:	00aa1a13          	slli	x20,x20,0xa
    12bc:	3dda0a13          	addi	x20,x20,989
    12c0:	dbeaeab7          	lui	x21,0xdbeae
    12c4:	feea8a93          	addi	x21,x21,-18 # 0xffffffffdbeadfee
    12c8:	00ba9a93          	slli	x21,x21,0xb
    12cc:	6dfa8a93          	addi	x21,x21,1759
    12d0:	00ba9a93          	slli	x21,x21,0xb
    12d4:	2b7a8a93          	addi	x21,x21,695
    12d8:	00aa9a93          	slli	x21,x21,0xa
    12dc:	3eea8a93          	addi	x21,x21,1006
    12e0:	6df57b37          	lui	x22,0x6df57
    12e4:	ff7b0b13          	addi	x22,x22,-9 # 0x6df56ff7
    12e8:	00bb1b13          	slli	x22,x22,0xb
    12ec:	36fb0b13          	addi	x22,x22,879
    12f0:	00bb1b13          	slli	x22,x22,0xb
    12f4:	55bb0b13          	addi	x22,x22,1371
    12f8:	00ab1b13          	slli	x22,x22,0xa
    12fc:	3f7b0b13          	addi	x22,x22,1015
    1300:	b6fabbb7          	lui	x23,0xb6fab
    1304:	7fbb8b93          	addi	x23,x23,2043 # 0xffffffffb6fab7fb
    1308:	00bb9b93          	slli	x23,x23,0xb
    130c:	5b7b8b93          	addi	x23,x23,1463
    1310:	00bb9b93          	slli	x23,x23,0xb
    1314:	6adb8b93          	addi	x23,x23,1709
    1318:	00ab9b93          	slli	x23,x23,0xa
    131c:	3fbb8b93          	addi	x23,x23,1019
    1320:	db7d6c37          	lui	x24,0xdb7d6
    1324:	bfdc0c13          	addi	x24,x24,-1027 # 0xffffffffdb7d5bfd
    1328:	00bc1c13          	slli	x24,x24,0xb
    132c:	6dbc0c13          	addi	x24,x24,1755
    1330:	00bc1c13          	slli	x24,x24,0xb
    1334:	756c0c13          	addi	x24,x24,1878
    1338:	00ac1c13          	slli	x24,x24,0xa
    133c:	3fdc0c13          	addi	x24,x24,1021
    1340:	edbebcb7          	lui	x25,0xedbeb
    1344:	dfec8c93          	addi	x25,x25,-514 # 0xffffffffedbeadfe
    1348:	00bc9c93          	slli	x25,x25,0xb
    134c:	76dc8c93          	addi	x25,x25,1901
    1350:	00bc9c93          	slli	x25,x25,0xb
    1354:	7abc8c93          	addi	x25,x25,1963
    1358:	00ac9c93          	slli	x25,x25,0xa
    135c:	1fec8c93          	addi	x25,x25,510
    1360:	76df5d37          	lui	x26,0x76df5
    1364:	6ffd0d13          	addi	x26,x26,1791 # 0x76df56ff
    1368:	00bd1d13          	slli	x26,x26,0xb
    136c:	3b6d0d13          	addi	x26,x26,950
    1370:	00bd1d13          	slli	x26,x26,0xb
    1374:	7d5d0d13          	addi	x26,x26,2005
    1378:	00ad1d13          	slli	x26,x26,0xa
    137c:	2ffd0d13          	addi	x26,x26,767
    1380:	bb6fbdb7          	lui	x27,0xbb6fb
    1384:	b7fd8d93          	addi	x27,x27,-1153 # 0xffffffffbb6fab7f
    1388:	00bd9d93          	slli	x27,x27,0xb
    138c:	5dbd8d93          	addi	x27,x27,1499
    1390:	00bd9d93          	slli	x27,x27,0xb
    1394:	3ead8d93          	addi	x27,x27,1002
    1398:	00ad9d93          	slli	x27,x27,0xa
    139c:	37fd8d93          	addi	x27,x27,895
    13a0:	ddb7de37          	lui	x28,0xddb7d
    13a4:	5bfe0e13          	addi	x28,x28,1471 # 0xffffffffddb7d5bf
    13a8:	00be1e13          	slli	x28,x28,0xb
    13ac:	6ede0e13          	addi	x28,x28,1773
    13b0:	00be1e13          	slli	x28,x28,0xb
    13b4:	5f5e0e13          	addi	x28,x28,1525
    13b8:	00ae1e13          	slli	x28,x28,0xa
    13bc:	1bfe0e13          	addi	x28,x28,447
    13c0:	eedbfeb7          	lui	x29,0xeedbf
    13c4:	adfe8e93          	addi	x29,x29,-1313 # 0xffffffffeedbeadf
    13c8:	00be9e93          	slli	x29,x29,0xb
    13cc:	776e8e93          	addi	x29,x29,1910
    13d0:	00be9e93          	slli	x29,x29,0xb
    13d4:	6fae8e93          	addi	x29,x29,1786
    13d8:	00ae9e93          	slli	x29,x29,0xa
    13dc:	2dfe8e93          	addi	x29,x29,735
    13e0:	f76dff37          	lui	x30,0xf76df
    13e4:	56ff0f13          	addi	x30,x30,1391 # 0xfffffffff76df56f
    13e8:	00bf1f13          	slli	x30,x30,0xb
    13ec:	7bbf0f13          	addi	x30,x30,1979
    13f0:	00bf1f13          	slli	x30,x30,0xb
    13f4:	37df0f13          	addi	x30,x30,893
    13f8:	00af1f13          	slli	x30,x30,0xa
    13fc:	16ff0f13          	addi	x30,x30,367
    1400:	fbb70fb7          	lui	x31,0xfbb70
    1404:	ab7f8f93          	addi	x31,x31,-1353 # 0xfffffffffbb6fab7
    1408:	00bf9f93          	slli	x31,x31,0xb
    140c:	7ddf8f93          	addi	x31,x31,2013
    1410:	00bf9f93          	slli	x31,x31,0xb
    1414:	5bef8f93          	addi	x31,x31,1470
    1418:	00af9f93          	slli	x31,x31,0xa
    141c:	2b7f8f93          	addi	x31,x31,695
    1420:	00003197          	auipc	x3,0x3
    1424:	be818193          	addi	x3,x3,-1048 # 0x4008
    1428:	00000013          	addi	x0,x0,0
    142c:	00000013          	addi	x0,x0,0
    1430:	00000013          	addi	x0,x0,0
    1434:	00000013          	addi	x0,x0,0
    1438:	00000013          	addi	x0,x0,0
    143c:	00000013          	addi	x0,x0,0
    1440:	eff00693          	addi	x13,x0,-257
    1444:	eff00693          	addi	x13,x0,-257
    1448:	40d6d13b          	sraw	x2,x13,x13
    144c:	0021b023          	sd	x2,0(x3)
    1450:	fff00713          	addi	x14,x0,-1
    1454:	00270463          	beq	x14,x2,0x145c
    1458:	bcdff06f          	jal	x0,0x1024
    145c:	00100293          	addi	x5,x0,1
    1460:	00c29293          	slli	x5,x5,0xc
    1464:	01f00793          	addi	x15,x0,31
    1468:	40f2d7bb          	sraw	x15,x5,x15
    146c:	00f1b423          	sd	x15,8(x3)
    1470:	00000713          	addi	x14,x0,0
    1474:	00f70463          	beq	x14,x15,0x147c
    1478:	badff06f          	jal	x0,0x1024
    147c:	00100313          	addi	x6,x0,1
    1480:	01131313          	slli	x6,x6,0x11
    1484:	fff34313          	xori	x6,x6,-1
    1488:	00100313          	addi	x6,x0,1
    148c:	01131313          	slli	x6,x6,0x11
    1490:	fff34313          	xori	x6,x6,-1
    1494:	4063533b          	sraw	x6,x6,x6
    1498:	0061b823          	sd	x6,16(x3)
    149c:	fff00713          	addi	x14,x0,-1
    14a0:	00670463          	beq	x14,x6,0x14a8
    14a4:	b81ff06f          	jal	x0,0x1024
    14a8:	00100c93          	addi	x25,x0,1
    14ac:	013c9c93          	slli	x25,x25,0x13
    14b0:	00000d13          	addi	x26,x0,0
    14b4:	41acd6bb          	sraw	x13,x25,x26
    14b8:	00d1bc23          	sd	x13,24(x3)
    14bc:	00080737          	lui	x14,0x80
    14c0:	00d70463          	beq	x14,x13,0x14c8
    14c4:	b61ff06f          	jal	x0,0x1024
    14c8:	00900b93          	addi	x23,x0,9
    14cc:	00900593          	addi	x11,x0,9
    14d0:	40bbdbbb          	sraw	x23,x23,x11
    14d4:	0371b023          	sd	x23,32(x3)
    14d8:	00000713          	addi	x14,x0,0
    14dc:	01770463          	beq	x14,x23,0x14e4
    14e0:	b45ff06f          	jal	x0,0x1024
    14e4:	fff00493          	addi	x9,x0,-1
    14e8:	03f49493          	slli	x9,x9,0x3f
    14ec:	00e00913          	addi	x18,x0,14
    14f0:	4124d03b          	sraw	x0,x9,x18
    14f4:	0201b423          	sd	x0,40(x3)
    14f8:	00000713          	addi	x14,x0,0
    14fc:	00070463          	beq	x14,x0,0x1504
    1500:	b25ff06f          	jal	x0,0x1024
    1504:	00000593          	addi	x11,x0,0
    1508:	01300d93          	addi	x27,x0,19
    150c:	41b5d4bb          	sraw	x9,x11,x27
    1510:	0291b823          	sd	x9,48(x3)
    1514:	00000713          	addi	x14,x0,0
    1518:	00970463          	beq	x14,x9,0x1520
    151c:	b09ff06f          	jal	x0,0x1024
    1520:	fff00f13          	addi	x30,x0,-1
    1524:	001f5f13          	srli	x30,x30,0x1
    1528:	01500613          	addi	x12,x0,21
    152c:	40cf543b          	sraw	x8,x30,x12
    1530:	0281bc23          	sd	x8,56(x3)
    1534:	fff00713          	addi	x14,x0,-1
    1538:	00870463          	beq	x14,x8,0x1540
    153c:	ae9ff06f          	jal	x0,0x1024
    1540:	00100e93          	addi	x29,x0,1
    1544:	00000393          	addi	x7,x0,0
    1548:	407edabb          	sraw	x21,x29,x7
    154c:	0551b023          	sd	x21,64(x3)
    1550:	00100713          	addi	x14,x0,1
    1554:	01570463          	beq	x14,x21,0x155c
    1558:	acdff06f          	jal	x0,0x1024
    155c:	00000013          	addi	x0,x0,0
    1560:	00a00c13          	addi	x24,x0,10
    1564:	418052bb          	sraw	x5,x0,x24
    1568:	0451b423          	sd	x5,72(x3)
    156c:	00000713          	addi	x14,x0,0
    1570:	00570463          	beq	x14,x5,0x1578
    1574:	ab1ff06f          	jal	x0,0x1024
    1578:	00400993          	addi	x19,x0,4
    157c:	01300b13          	addi	x22,x0,19
    1580:	4169ddbb          	sraw	x27,x19,x22
    1584:	05b1b823          	sd	x27,80(x3)
    1588:	00000713          	addi	x14,x0,0
    158c:	01b70463          	beq	x14,x27,0x1594
    1590:	a95ff06f          	jal	x0,0x1024
    1594:	00800893          	addi	x17,x0,8
    1598:	00900213          	addi	x4,x0,9
    159c:	4048d0bb          	sraw	x1,x17,x4
    15a0:	0411bc23          	sd	x1,88(x3)
    15a4:	00000713          	addi	x14,x0,0
    15a8:	00170463          	beq	x14,x1,0x15b0
    15ac:	a79ff06f          	jal	x0,0x1024
    15b0:	01000093          	addi	x1,x0,16
    15b4:	01700c93          	addi	x25,x0,23
    15b8:	4190dfbb          	sraw	x31,x1,x25
    15bc:	07f1b023          	sd	x31,96(x3)
    15c0:	00000713          	addi	x14,x0,0
    15c4:	01f70463          	beq	x14,x31,0x15cc
    15c8:	a5dff06f          	jal	x0,0x1024
    15cc:	02000513          	addi	x10,x0,32
    15d0:	00f00493          	addi	x9,x0,15
    15d4:	40955f3b          	sraw	x30,x10,x9
    15d8:	07e1b423          	sd	x30,104(x3)
    15dc:	00000713          	addi	x14,x0,0
    15e0:	01e70463          	beq	x14,x30,0x15e8
    15e4:	a41ff06f          	jal	x0,0x1024
    15e8:	04000813          	addi	x16,x0,64
    15ec:	01700b93          	addi	x23,x0,23
    15f0:	41785d3b          	sraw	x26,x16,x23
    15f4:	07a1b823          	sd	x26,112(x3)
    15f8:	00000713          	addi	x14,x0,0
    15fc:	01a70463          	beq	x14,x26,0x1604
    1600:	a25ff06f          	jal	x0,0x1024
    1604:	08000a93          	addi	x21,x0,128
    1608:	00400413          	addi	x8,x0,4
    160c:	408ade3b          	sraw	x28,x21,x8
    1610:	07c1bc23          	sd	x28,120(x3)
    1614:	00800493          	addi	x9,x0,8
    1618:	01c48463          	beq	x9,x28,0x1620
    161c:	a09ff06f          	jal	x0,0x1024
    1620:	00003317          	auipc	x6,0x3
    1624:	a6830313          	addi	x6,x6,-1432 # 0x4088
    1628:	00000013          	addi	x0,x0,0
    162c:	00000013          	addi	x0,x0,0
    1630:	00000013          	addi	x0,x0,0
    1634:	00000013          	addi	x0,x0,0
    1638:	00000013          	addi	x0,x0,0
    163c:	00000013          	addi	x0,x0,0
    1640:	10000a13          	addi	x20,x0,256
    1644:	00d00813          	addi	x16,x0,13
    1648:	410a5c3b          	sraw	x24,x20,x16
    164c:	01833023          	sd	x24,0(x6)
    1650:	00000493          	addi	x9,x0,0
    1654:	01848463          	beq	x9,x24,0x165c
    1658:	9cdff06f          	jal	x0,0x1024
    165c:	20000d93          	addi	x27,x0,512
    1660:	00e00113          	addi	x2,x0,14
    1664:	402dd8bb          	sraw	x17,x27,x2
    1668:	01133423          	sd	x17,8(x6)
    166c:	00000493          	addi	x9,x0,0
    1670:	01148463          	beq	x9,x17,0x1678
    1674:	9b1ff06f          	jal	x0,0x1024
    1678:	40000793          	addi	x15,x0,1024
    167c:	00500513          	addi	x10,x0,5
    1680:	40a7db3b          	sraw	x22,x15,x10
    1684:	01633823          	sd	x22,16(x6)
    1688:	02000493          	addi	x9,x0,32
    168c:	01648463          	beq	x9,x22,0x1694
    1690:	995ff06f          	jal	x0,0x1024
    1694:	00100393          	addi	x7,x0,1
    1698:	00b39393          	slli	x7,x7,0xb
    169c:	00a00f13          	addi	x30,x0,10
    16a0:	41e3d5bb          	sraw	x11,x7,x30
    16a4:	00b33c23          	sd	x11,24(x6)
    16a8:	00200493          	addi	x9,x0,2
    16ac:	00b48463          	beq	x9,x11,0x16b4
    16b0:	975ff06f          	jal	x0,0x1024
    16b4:	00100e13          	addi	x28,x0,1
    16b8:	00de1e13          	slli	x28,x28,0xd
    16bc:	01b00093          	addi	x1,x0,27
    16c0:	401e5cbb          	sraw	x25,x28,x1
    16c4:	03933023          	sd	x25,32(x6)
    16c8:	00000493          	addi	x9,x0,0
    16cc:	01948463          	beq	x9,x25,0x16d4
    16d0:	955ff06f          	jal	x0,0x1024
    16d4:	00100f93          	addi	x31,x0,1
    16d8:	00ef9f93          	slli	x31,x31,0xe
    16dc:	00000013          	addi	x0,x0,0
    16e0:	400fd63b          	sraw	x12,x31,x0
    16e4:	02c33423          	sd	x12,40(x6)
    16e8:	000044b7          	lui	x9,0x4
    16ec:	00c48463          	beq	x9,x12,0x16f4
    16f0:	935ff06f          	jal	x0,0x1024
    16f4:	00100b13          	addi	x22,x0,1
    16f8:	00fb1b13          	slli	x22,x22,0xf
    16fc:	00b00e93          	addi	x29,x0,11
    1700:	41db5a3b          	sraw	x20,x22,x29
    1704:	03433823          	sd	x20,48(x6)
    1708:	01000493          	addi	x9,x0,16
    170c:	01448463          	beq	x9,x20,0x1714
    1710:	915ff06f          	jal	x0,0x1024
    1714:	00100713          	addi	x14,x0,1
    1718:	01071713          	slli	x14,x14,0x10
    171c:	01000e13          	addi	x28,x0,16
    1720:	41c751bb          	sraw	x3,x14,x28
    1724:	02333c23          	sd	x3,56(x6)
    1728:	00100493          	addi	x9,x0,1
    172c:	00348463          	beq	x9,x3,0x1734
    1730:	8f5ff06f          	jal	x0,0x1024
    1734:	00100193          	addi	x3,x0,1
    1738:	01119193          	slli	x3,x3,0x11
    173c:	01300a93          	addi	x21,x0,19
    1740:	4151debb          	sraw	x29,x3,x21
    1744:	05d33023          	sd	x29,64(x6)
    1748:	00000493          	addi	x9,x0,0
    174c:	01d48463          	beq	x9,x29,0x1754
    1750:	8d5ff06f          	jal	x0,0x1024
    1754:	00100c13          	addi	x24,x0,1
    1758:	012c1c13          	slli	x24,x24,0x12
    175c:	01000a13          	addi	x20,x0,16
    1760:	414c573b          	sraw	x14,x24,x20
    1764:	04e33423          	sd	x14,72(x6)
    1768:	00400493          	addi	x9,x0,4
    176c:	00e48463          	beq	x9,x14,0x1774
    1770:	8b5ff06f          	jal	x0,0x1024
    1774:	00100113          	addi	x2,x0,1
    1778:	01411113          	slli	x2,x2,0x14
    177c:	01d00993          	addi	x19,x0,29
    1780:	4131553b          	sraw	x10,x2,x19
    1784:	04a33823          	sd	x10,80(x6)
    1788:	00000493          	addi	x9,x0,0
    178c:	00a48463          	beq	x9,x10,0x1794
    1790:	895ff06f          	jal	x0,0x1024
    1794:	00100913          	addi	x18,x0,1
    1798:	01591913          	slli	x18,x18,0x15
    179c:	00e00713          	addi	x14,x0,14
    17a0:	40e9583b          	sraw	x16,x18,x14
    17a4:	05033c23          	sd	x16,88(x6)
    17a8:	08000493          	addi	x9,x0,128
    17ac:	01048463          	beq	x9,x16,0x17b4
    17b0:	875ff06f          	jal	x0,0x1024
    17b4:	00100613          	addi	x12,x0,1
    17b8:	01661613          	slli	x12,x12,0x16
    17bc:	01200893          	addi	x17,x0,18
    17c0:	4116593b          	sraw	x18,x12,x17
    17c4:	07233023          	sd	x18,96(x6)
    17c8:	01000493          	addi	x9,x0,16
    17cc:	01248463          	beq	x9,x18,0x17d4
    17d0:	855ff06f          	jal	x0,0x1024
    17d4:	00100413          	addi	x8,x0,1
    17d8:	01741413          	slli	x8,x8,0x17
    17dc:	00d00293          	addi	x5,x0,13
    17e0:	4054523b          	sraw	x4,x8,x5
    17e4:	06433423          	sd	x4,104(x6)
    17e8:	40000493          	addi	x9,x0,1024
    17ec:	00448463          	beq	x9,x4,0x17f4
    17f0:	835ff06f          	jal	x0,0x1024
    17f4:	00100213          	addi	x4,x0,1
    17f8:	01821213          	slli	x4,x4,0x18
    17fc:	00900f93          	addi	x31,x0,9
    1800:	41f253bb          	sraw	x7,x4,x31
    1804:	06733823          	sd	x7,112(x6)
    1808:	000084b7          	lui	x9,0x8
    180c:	00748463          	beq	x9,x7,0x1814
    1810:	815ff06f          	jal	x0,0x1024
    1814:	00100d13          	addi	x26,x0,1
    1818:	019d1d13          	slli	x26,x26,0x19
    181c:	00800193          	addi	x3,x0,8
    1820:	403d59bb          	sraw	x19,x26,x3
    1824:	07333c23          	sd	x19,120(x6)
    1828:	000204b7          	lui	x9,0x20
    182c:	01348463          	beq	x9,x19,0x1834
    1830:	ff4ff06f          	jal	x0,0x1024
    1834:	00100513          	addi	x10,x0,1
    1838:	01a51513          	slli	x10,x10,0x1a
    183c:	01e00593          	addi	x11,x0,30
    1840:	40b5563b          	sraw	x12,x10,x11
    1844:	08c33023          	sd	x12,128(x6)
    1848:	00000093          	addi	x1,x0,0
    184c:	00c08463          	beq	x1,x12,0x1854
    1850:	fd4ff06f          	jal	x0,0x1024
    1854:	00100513          	addi	x10,x0,1
    1858:	01b51513          	slli	x10,x10,0x1b
    185c:	00c00593          	addi	x11,x0,12
    1860:	40b5563b          	sraw	x12,x10,x11
    1864:	08c33423          	sd	x12,136(x6)
    1868:	000080b7          	lui	x1,0x8
    186c:	00c08463          	beq	x1,x12,0x1874
    1870:	fb4ff06f          	jal	x0,0x1024
    1874:	00100513          	addi	x10,x0,1
    1878:	01c51513          	slli	x10,x10,0x1c
    187c:	01e00593          	addi	x11,x0,30
    1880:	40b5563b          	sraw	x12,x10,x11
    1884:	08c33823          	sd	x12,144(x6)
    1888:	00000093          	addi	x1,x0,0
    188c:	00c08463          	beq	x1,x12,0x1894
    1890:	f94ff06f          	jal	x0,0x1024
    1894:	00100513          	addi	x10,x0,1
    1898:	01d51513          	slli	x10,x10,0x1d
    189c:	00000593          	addi	x11,x0,0
    18a0:	40b5563b          	sraw	x12,x10,x11
    18a4:	08c33c23          	sd	x12,152(x6)
    18a8:	200000b7          	lui	x1,0x20000
    18ac:	00c08463          	beq	x1,x12,0x18b4
    18b0:	f74ff06f          	jal	x0,0x1024
    18b4:	00100513          	addi	x10,x0,1
    18b8:	01e51513          	slli	x10,x10,0x1e
    18bc:	01e00593          	addi	x11,x0,30
    18c0:	40b5563b          	sraw	x12,x10,x11
    18c4:	0ac33023          	sd	x12,160(x6)
    18c8:	00100093          	addi	x1,x0,1
    18cc:	00c08463          	beq	x1,x12,0x18d4
    18d0:	f54ff06f          	jal	x0,0x1024
    18d4:	00100513          	addi	x10,x0,1
    18d8:	01f51513          	slli	x10,x10,0x1f
    18dc:	00d00593          	addi	x11,x0,13
    18e0:	40b5563b          	sraw	x12,x10,x11
    18e4:	0ac33423          	sd	x12,168(x6)
    18e8:	fffc00b7          	lui	x1,0xfffc0
    18ec:	00c08463          	beq	x1,x12,0x18f4
    18f0:	f34ff06f          	jal	x0,0x1024
    18f4:	00100513          	addi	x10,x0,1
    18f8:	02051513          	slli	x10,x10,0x20
    18fc:	00400593          	addi	x11,x0,4
    1900:	40b5563b          	sraw	x12,x10,x11
    1904:	0ac33823          	sd	x12,176(x6)
    1908:	00000093          	addi	x1,x0,0
    190c:	00c08463          	beq	x1,x12,0x1914
    1910:	f14ff06f          	jal	x0,0x1024
    1914:	00100513          	addi	x10,x0,1
    1918:	02151513          	slli	x10,x10,0x21
    191c:	01100593          	addi	x11,x0,17
    1920:	40b5563b          	sraw	x12,x10,x11
    1924:	0ac33c23          	sd	x12,184(x6)
    1928:	00000093          	addi	x1,x0,0
    192c:	00c08463          	beq	x1,x12,0x1934
    1930:	ef4ff06f          	jal	x0,0x1024
    1934:	00100513          	addi	x10,x0,1
    1938:	02251513          	slli	x10,x10,0x22
    193c:	00400593          	addi	x11,x0,4
    1940:	40b5563b          	sraw	x12,x10,x11
    1944:	0cc33023          	sd	x12,192(x6)
    1948:	00000093          	addi	x1,x0,0
    194c:	00c08463          	beq	x1,x12,0x1954
    1950:	ed4ff06f          	jal	x0,0x1024
    1954:	00100513          	addi	x10,x0,1
    1958:	02351513          	slli	x10,x10,0x23
    195c:	00a00593          	addi	x11,x0,10
    1960:	40b5563b          	sraw	x12,x10,x11
    1964:	0cc33423          	sd	x12,200(x6)
    1968:	00000093          	addi	x1,x0,0
    196c:	00c08463          	beq	x1,x12,0x1974
    1970:	eb4ff06f          	jal	x0,0x1024
    1974:	00100513          	addi	x10,x0,1
    1978:	02451513          	slli	x10,x10,0x24
    197c:	00500593          	addi	x11,x0,5
    1980:	40b5563b          	sraw	x12,x10,x11
    1984:	0cc33823          	sd	x12,208(x6)
    1988:	00000093          	addi	x1,x0,0
    198c:	00c08463          	beq	x1,x12,0x1994
    1990:	e94ff06f          	jal	x0,0x1024
    1994:	00100513          	addi	x10,x0,1
    1998:	02551513          	slli	x10,x10,0x25
    199c:	01f00593          	addi	x11,x0,31
    19a0:	40b5563b          	sraw	x12,x10,x11
    19a4:	0cc33c23          	sd	x12,216(x6)
    19a8:	00000093          	addi	x1,x0,0
    19ac:	00c08463          	beq	x1,x12,0x19b4
    19b0:	e74ff06f          	jal	x0,0x1024
    19b4:	00100513          	addi	x10,x0,1
    19b8:	02651513          	slli	x10,x10,0x26
    19bc:	00a00593          	addi	x11,x0,10
    19c0:	40b5563b          	sraw	x12,x10,x11
    19c4:	0ec33023          	sd	x12,224(x6)
    19c8:	00000093          	addi	x1,x0,0
    19cc:	00c08463          	beq	x1,x12,0x19d4
    19d0:	e54ff06f          	jal	x0,0x1024
    19d4:	00100513          	addi	x10,x0,1
    19d8:	02751513          	slli	x10,x10,0x27
    19dc:	01e00593          	addi	x11,x0,30
    19e0:	40b5563b          	sraw	x12,x10,x11
    19e4:	0ec33423          	sd	x12,232(x6)
    19e8:	00000093          	addi	x1,x0,0
    19ec:	00c08463          	beq	x1,x12,0x19f4
    19f0:	e34ff06f          	jal	x0,0x1024
    19f4:	00100513          	addi	x10,x0,1
    19f8:	02851513          	slli	x10,x10,0x28
    19fc:	00100593          	addi	x11,x0,1
    1a00:	40b5563b          	sraw	x12,x10,x11
    1a04:	0ec33823          	sd	x12,240(x6)
    1a08:	00000093          	addi	x1,x0,0
    1a0c:	00c08463          	beq	x1,x12,0x1a14
    1a10:	e14ff06f          	jal	x0,0x1024
    1a14:	00100513          	addi	x10,x0,1
    1a18:	02951513          	slli	x10,x10,0x29
    1a1c:	00100593          	addi	x11,x0,1
    1a20:	40b5563b          	sraw	x12,x10,x11
    1a24:	0ec33c23          	sd	x12,248(x6)
    1a28:	00000093          	addi	x1,x0,0
    1a2c:	00c08463          	beq	x1,x12,0x1a34
    1a30:	df4ff06f          	jal	x0,0x1024
    1a34:	00100513          	addi	x10,x0,1
    1a38:	02a51513          	slli	x10,x10,0x2a
    1a3c:	00400593          	addi	x11,x0,4
    1a40:	40b5563b          	sraw	x12,x10,x11
    1a44:	10c33023          	sd	x12,256(x6)
    1a48:	00000093          	addi	x1,x0,0
    1a4c:	00c08463          	beq	x1,x12,0x1a54
    1a50:	dd4ff06f          	jal	x0,0x1024
    1a54:	00100513          	addi	x10,x0,1
    1a58:	02b51513          	slli	x10,x10,0x2b
    1a5c:	00200593          	addi	x11,x0,2
    1a60:	40b5563b          	sraw	x12,x10,x11
    1a64:	10c33423          	sd	x12,264(x6)
    1a68:	00000093          	addi	x1,x0,0
    1a6c:	00c08463          	beq	x1,x12,0x1a74
    1a70:	db4ff06f          	jal	x0,0x1024
    1a74:	00100513          	addi	x10,x0,1
    1a78:	02c51513          	slli	x10,x10,0x2c
    1a7c:	00900593          	addi	x11,x0,9
    1a80:	40b5563b          	sraw	x12,x10,x11
    1a84:	10c33823          	sd	x12,272(x6)
    1a88:	00000093          	addi	x1,x0,0
    1a8c:	00c08463          	beq	x1,x12,0x1a94
    1a90:	d94ff06f          	jal	x0,0x1024
    1a94:	00100513          	addi	x10,x0,1
    1a98:	02d51513          	slli	x10,x10,0x2d
    1a9c:	01f00593          	addi	x11,x0,31
    1aa0:	40b5563b          	sraw	x12,x10,x11
    1aa4:	10c33c23          	sd	x12,280(x6)
    1aa8:	00000093          	addi	x1,x0,0
    1aac:	00c08463          	beq	x1,x12,0x1ab4
    1ab0:	d74ff06f          	jal	x0,0x1024
    1ab4:	00100513          	addi	x10,x0,1
    1ab8:	02e51513          	slli	x10,x10,0x2e
    1abc:	01700593          	addi	x11,x0,23
    1ac0:	40b5563b          	sraw	x12,x10,x11
    1ac4:	12c33023          	sd	x12,288(x6)
    1ac8:	00000093          	addi	x1,x0,0
    1acc:	00c08463          	beq	x1,x12,0x1ad4
    1ad0:	d54ff06f          	jal	x0,0x1024
    1ad4:	00100513          	addi	x10,x0,1
    1ad8:	02f51513          	slli	x10,x10,0x2f
    1adc:	00600593          	addi	x11,x0,6
    1ae0:	40b5563b          	sraw	x12,x10,x11
    1ae4:	12c33423          	sd	x12,296(x6)
    1ae8:	00000093          	addi	x1,x0,0
    1aec:	00c08463          	beq	x1,x12,0x1af4
    1af0:	d34ff06f          	jal	x0,0x1024
    1af4:	00100513          	addi	x10,x0,1
    1af8:	03051513          	slli	x10,x10,0x30
    1afc:	00c00593          	addi	x11,x0,12
    1b00:	40b5563b          	sraw	x12,x10,x11
    1b04:	12c33823          	sd	x12,304(x6)
    1b08:	00000093          	addi	x1,x0,0
    1b0c:	00c08463          	beq	x1,x12,0x1b14
    1b10:	d14ff06f          	jal	x0,0x1024
    1b14:	00100513          	addi	x10,x0,1
    1b18:	03151513          	slli	x10,x10,0x31
    1b1c:	00b00593          	addi	x11,x0,11
    1b20:	40b5563b          	sraw	x12,x10,x11
    1b24:	12c33c23          	sd	x12,312(x6)
    1b28:	00000093          	addi	x1,x0,0
    1b2c:	00c08463          	beq	x1,x12,0x1b34
    1b30:	cf4ff06f          	jal	x0,0x1024
    1b34:	00100513          	addi	x10,x0,1
    1b38:	03251513          	slli	x10,x10,0x32
    1b3c:	00800593          	addi	x11,x0,8
    1b40:	40b5563b          	sraw	x12,x10,x11
    1b44:	14c33023          	sd	x12,320(x6)
    1b48:	00000093          	addi	x1,x0,0
    1b4c:	00c08463          	beq	x1,x12,0x1b54
    1b50:	cd4ff06f          	jal	x0,0x1024
    1b54:	00100513          	addi	x10,x0,1
    1b58:	03351513          	slli	x10,x10,0x33
    1b5c:	00c00593          	addi	x11,x0,12
    1b60:	40b5563b          	sraw	x12,x10,x11
    1b64:	14c33423          	sd	x12,328(x6)
    1b68:	00000093          	addi	x1,x0,0
    1b6c:	00c08463          	beq	x1,x12,0x1b74
    1b70:	cb4ff06f          	jal	x0,0x1024
    1b74:	00100513          	addi	x10,x0,1
    1b78:	03451513          	slli	x10,x10,0x34
    1b7c:	01b00593          	addi	x11,x0,27
    1b80:	40b5563b          	sraw	x12,x10,x11
    1b84:	14c33823          	sd	x12,336(x6)
    1b88:	00000093          	addi	x1,x0,0
    1b8c:	00c08463          	beq	x1,x12,0x1b94
    1b90:	c94ff06f          	jal	x0,0x1024
    1b94:	00100513          	addi	x10,x0,1
    1b98:	03551513          	slli	x10,x10,0x35
    1b9c:	00000593          	addi	x11,x0,0
    1ba0:	40b5563b          	sraw	x12,x10,x11
    1ba4:	14c33c23          	sd	x12,344(x6)
    1ba8:	00000093          	addi	x1,x0,0
    1bac:	00c08463          	beq	x1,x12,0x1bb4
    1bb0:	c74ff06f          	jal	x0,0x1024
    1bb4:	00100513          	addi	x10,x0,1
    1bb8:	03651513          	slli	x10,x10,0x36
    1bbc:	01d00593          	addi	x11,x0,29
    1bc0:	40b5563b          	sraw	x12,x10,x11
    1bc4:	16c33023          	sd	x12,352(x6)
    1bc8:	00000093          	addi	x1,x0,0
    1bcc:	00c08463          	beq	x1,x12,0x1bd4
    1bd0:	c54ff06f          	jal	x0,0x1024
    1bd4:	00100513          	addi	x10,x0,1
    1bd8:	03751513          	slli	x10,x10,0x37
    1bdc:	01d00593          	addi	x11,x0,29
    1be0:	40b5563b          	sraw	x12,x10,x11
    1be4:	16c33423          	sd	x12,360(x6)
    1be8:	00000093          	addi	x1,x0,0
    1bec:	00c08463          	beq	x1,x12,0x1bf4
    1bf0:	c34ff06f          	jal	x0,0x1024
    1bf4:	00100513          	addi	x10,x0,1
    1bf8:	03851513          	slli	x10,x10,0x38
    1bfc:	01700593          	addi	x11,x0,23
    1c00:	40b5563b          	sraw	x12,x10,x11
    1c04:	16c33823          	sd	x12,368(x6)
    1c08:	00000093          	addi	x1,x0,0
    1c0c:	00c08463          	beq	x1,x12,0x1c14
    1c10:	c14ff06f          	jal	x0,0x1024
    1c14:	00100513          	addi	x10,x0,1
    1c18:	03951513          	slli	x10,x10,0x39
    1c1c:	01700593          	addi	x11,x0,23
    1c20:	40b5563b          	sraw	x12,x10,x11
    1c24:	16c33c23          	sd	x12,376(x6)
    1c28:	00000093          	addi	x1,x0,0
    1c2c:	00c08463          	beq	x1,x12,0x1c34
    1c30:	bf4ff06f          	jal	x0,0x1024
    1c34:	00100513          	addi	x10,x0,1
    1c38:	03a51513          	slli	x10,x10,0x3a
    1c3c:	00a00593          	addi	x11,x0,10
    1c40:	40b5563b          	sraw	x12,x10,x11
    1c44:	18c33023          	sd	x12,384(x6)
    1c48:	00000093          	addi	x1,x0,0
    1c4c:	00c08463          	beq	x1,x12,0x1c54
    1c50:	bd4ff06f          	jal	x0,0x1024
    1c54:	00100513          	addi	x10,x0,1
    1c58:	03b51513          	slli	x10,x10,0x3b
    1c5c:	00a00593          	addi	x11,x0,10
    1c60:	40b5563b          	sraw	x12,x10,x11
    1c64:	18c33423          	sd	x12,392(x6)
    1c68:	00000093          	addi	x1,x0,0
    1c6c:	00c08463          	beq	x1,x12,0x1c74
    1c70:	bb4ff06f          	jal	x0,0x1024
    1c74:	00100513          	addi	x10,x0,1
    1c78:	03c51513          	slli	x10,x10,0x3c
    1c7c:	00500593          	addi	x11,x0,5
    1c80:	40b5563b          	sraw	x12,x10,x11
    1c84:	18c33823          	sd	x12,400(x6)
    1c88:	00000093          	addi	x1,x0,0
    1c8c:	00c08463          	beq	x1,x12,0x1c94
    1c90:	b94ff06f          	jal	x0,0x1024
    1c94:	00100513          	addi	x10,x0,1
    1c98:	03d51513          	slli	x10,x10,0x3d
    1c9c:	00300593          	addi	x11,x0,3
    1ca0:	40b5563b          	sraw	x12,x10,x11
    1ca4:	18c33c23          	sd	x12,408(x6)
    1ca8:	00000093          	addi	x1,x0,0
    1cac:	00c08463          	beq	x1,x12,0x1cb4
    1cb0:	b74ff06f          	jal	x0,0x1024
    1cb4:	00100513          	addi	x10,x0,1
    1cb8:	03e51513          	slli	x10,x10,0x3e
    1cbc:	00600593          	addi	x11,x0,6
    1cc0:	40b5563b          	sraw	x12,x10,x11
    1cc4:	1ac33023          	sd	x12,416(x6)
    1cc8:	00000093          	addi	x1,x0,0
    1ccc:	00c08463          	beq	x1,x12,0x1cd4
    1cd0:	b54ff06f          	jal	x0,0x1024
    1cd4:	ffe00513          	addi	x10,x0,-2
    1cd8:	01f00593          	addi	x11,x0,31
    1cdc:	40b5563b          	sraw	x12,x10,x11
    1ce0:	1ac33423          	sd	x12,424(x6)
    1ce4:	fff00093          	addi	x1,x0,-1
    1ce8:	00c08463          	beq	x1,x12,0x1cf0
    1cec:	b38ff06f          	jal	x0,0x1024
    1cf0:	ffd00513          	addi	x10,x0,-3
    1cf4:	00a00593          	addi	x11,x0,10
    1cf8:	40b5563b          	sraw	x12,x10,x11
    1cfc:	1ac33823          	sd	x12,432(x6)
    1d00:	fff00093          	addi	x1,x0,-1
    1d04:	00c08463          	beq	x1,x12,0x1d0c
    1d08:	b1cff06f          	jal	x0,0x1024
    1d0c:	ffb00513          	addi	x10,x0,-5
    1d10:	01f00593          	addi	x11,x0,31
    1d14:	40b5563b          	sraw	x12,x10,x11
    1d18:	1ac33c23          	sd	x12,440(x6)
    1d1c:	fff00093          	addi	x1,x0,-1
    1d20:	00c08463          	beq	x1,x12,0x1d28
    1d24:	b00ff06f          	jal	x0,0x1024
    1d28:	ff700513          	addi	x10,x0,-9
    1d2c:	00800593          	addi	x11,x0,8
    1d30:	40b5563b          	sraw	x12,x10,x11
    1d34:	1cc33023          	sd	x12,448(x6)
    1d38:	fff00093          	addi	x1,x0,-1
    1d3c:	00c08463          	beq	x1,x12,0x1d44
    1d40:	ae4ff06f          	jal	x0,0x1024
    1d44:	fef00513          	addi	x10,x0,-17
    1d48:	00d00593          	addi	x11,x0,13
    1d4c:	40b5563b          	sraw	x12,x10,x11
    1d50:	1cc33423          	sd	x12,456(x6)
    1d54:	fff00093          	addi	x1,x0,-1
    1d58:	00c08463          	beq	x1,x12,0x1d60
    1d5c:	ac8ff06f          	jal	x0,0x1024
    1d60:	fdf00513          	addi	x10,x0,-33
    1d64:	01500593          	addi	x11,x0,21
    1d68:	40b5563b          	sraw	x12,x10,x11
    1d6c:	1cc33823          	sd	x12,464(x6)
    1d70:	fff00093          	addi	x1,x0,-1
    1d74:	00c08463          	beq	x1,x12,0x1d7c
    1d78:	aacff06f          	jal	x0,0x1024
    1d7c:	fbf00513          	addi	x10,x0,-65
    1d80:	01500593          	addi	x11,x0,21
    1d84:	40b5563b          	sraw	x12,x10,x11
    1d88:	1cc33c23          	sd	x12,472(x6)
    1d8c:	fff00093          	addi	x1,x0,-1
    1d90:	00c08463          	beq	x1,x12,0x1d98
    1d94:	a90ff06f          	jal	x0,0x1024
    1d98:	f7f00513          	addi	x10,x0,-129
    1d9c:	00200593          	addi	x11,x0,2
    1da0:	40b5563b          	sraw	x12,x10,x11
    1da4:	1ec33023          	sd	x12,480(x6)
    1da8:	fdf00093          	addi	x1,x0,-33
    1dac:	00c08463          	beq	x1,x12,0x1db4
    1db0:	a74ff06f          	jal	x0,0x1024
    1db4:	dff00513          	addi	x10,x0,-513
    1db8:	00900593          	addi	x11,x0,9
    1dbc:	40b5563b          	sraw	x12,x10,x11
    1dc0:	1ec33423          	sd	x12,488(x6)
    1dc4:	ffe00093          	addi	x1,x0,-2
    1dc8:	00c08463          	beq	x1,x12,0x1dd0
    1dcc:	a58ff06f          	jal	x0,0x1024
    1dd0:	bff00513          	addi	x10,x0,-1025
    1dd4:	01500593          	addi	x11,x0,21
    1dd8:	40b5563b          	sraw	x12,x10,x11
    1ddc:	1ec33823          	sd	x12,496(x6)
    1de0:	fff00093          	addi	x1,x0,-1
    1de4:	00c08463          	beq	x1,x12,0x1dec
    1de8:	a3cff06f          	jal	x0,0x1024
    1dec:	00100513          	addi	x10,x0,1
    1df0:	00b51513          	slli	x10,x10,0xb
    1df4:	fff54513          	xori	x10,x10,-1
    1df8:	01700593          	addi	x11,x0,23
    1dfc:	40b5563b          	sraw	x12,x10,x11
    1e00:	1ec33c23          	sd	x12,504(x6)
    1e04:	fff00093          	addi	x1,x0,-1
    1e08:	00c08463          	beq	x1,x12,0x1e10
    1e0c:	a18ff06f          	jal	x0,0x1024
    1e10:	00100513          	addi	x10,x0,1
    1e14:	00c51513          	slli	x10,x10,0xc
    1e18:	fff54513          	xori	x10,x10,-1
    1e1c:	00400593          	addi	x11,x0,4
    1e20:	40b5563b          	sraw	x12,x10,x11
    1e24:	20c33023          	sd	x12,512(x6)
    1e28:	eff00093          	addi	x1,x0,-257
    1e2c:	00c08463          	beq	x1,x12,0x1e34
    1e30:	9f4ff06f          	jal	x0,0x1024
    1e34:	00100513          	addi	x10,x0,1
    1e38:	00d51513          	slli	x10,x10,0xd
    1e3c:	fff54513          	xori	x10,x10,-1
    1e40:	00500593          	addi	x11,x0,5
    1e44:	40b5563b          	sraw	x12,x10,x11
    1e48:	20c33423          	sd	x12,520(x6)
    1e4c:	eff00093          	addi	x1,x0,-257
    1e50:	00c08463          	beq	x1,x12,0x1e58
    1e54:	9d0ff06f          	jal	x0,0x1024
    1e58:	00100513          	addi	x10,x0,1
    1e5c:	00e51513          	slli	x10,x10,0xe
    1e60:	fff54513          	xori	x10,x10,-1
    1e64:	00000593          	addi	x11,x0,0
    1e68:	40b5563b          	sraw	x12,x10,x11
    1e6c:	20c33823          	sd	x12,528(x6)
    1e70:	ffffc0b7          	lui	x1,0xffffc
    1e74:	fff0809b          	addiw	x1,x1,-1 # 0xffffffffffffbfff
    1e78:	00c08463          	beq	x1,x12,0x1e80
    1e7c:	9a8ff06f          	jal	x0,0x1024
    1e80:	00100513          	addi	x10,x0,1
    1e84:	00f51513          	slli	x10,x10,0xf
    1e88:	fff54513          	xori	x10,x10,-1
    1e8c:	00700593          	addi	x11,x0,7
    1e90:	40b5563b          	sraw	x12,x10,x11
    1e94:	20c33c23          	sd	x12,536(x6)
    1e98:	eff00093          	addi	x1,x0,-257
    1e9c:	00c08463          	beq	x1,x12,0x1ea4
    1ea0:	984ff06f          	jal	x0,0x1024
    1ea4:	00100513          	addi	x10,x0,1
    1ea8:	01051513          	slli	x10,x10,0x10
    1eac:	fff54513          	xori	x10,x10,-1
    1eb0:	01f00593          	addi	x11,x0,31
    1eb4:	40b5563b          	sraw	x12,x10,x11
    1eb8:	22c33023          	sd	x12,544(x6)
    1ebc:	fff00093          	addi	x1,x0,-1
    1ec0:	00c08463          	beq	x1,x12,0x1ec8
    1ec4:	960ff06f          	jal	x0,0x1024
    1ec8:	00100513          	addi	x10,x0,1
    1ecc:	01251513          	slli	x10,x10,0x12
    1ed0:	fff54513          	xori	x10,x10,-1
    1ed4:	00b00593          	addi	x11,x0,11
    1ed8:	40b5563b          	sraw	x12,x10,x11
    1edc:	22c33423          	sd	x12,552(x6)
    1ee0:	f7f00093          	addi	x1,x0,-129
    1ee4:	00c08463          	beq	x1,x12,0x1eec
    1ee8:	93cff06f          	jal	x0,0x1024
    1eec:	00100513          	addi	x10,x0,1
    1ef0:	01351513          	slli	x10,x10,0x13
    1ef4:	fff54513          	xori	x10,x10,-1
    1ef8:	00600593          	addi	x11,x0,6
    1efc:	40b5563b          	sraw	x12,x10,x11
    1f00:	22c33823          	sd	x12,560(x6)
    1f04:	ffffe0b7          	lui	x1,0xffffe
    1f08:	fff0809b          	addiw	x1,x1,-1 # 0xffffffffffffdfff
    1f0c:	00c08463          	beq	x1,x12,0x1f14
    1f10:	914ff06f          	jal	x0,0x1024
    1f14:	00100513          	addi	x10,x0,1
    1f18:	01451513          	slli	x10,x10,0x14
    1f1c:	fff54513          	xori	x10,x10,-1
    1f20:	00500593          	addi	x11,x0,5
    1f24:	40b5563b          	sraw	x12,x10,x11
    1f28:	22c33c23          	sd	x12,568(x6)
    1f2c:	ffff80b7          	lui	x1,0xffff8
    1f30:	fff0809b          	addiw	x1,x1,-1 # 0xffffffffffff7fff
    1f34:	00c08463          	beq	x1,x12,0x1f3c
    1f38:	8ecff06f          	jal	x0,0x1024
    1f3c:	00100513          	addi	x10,x0,1
    1f40:	03751513          	slli	x10,x10,0x37
    1f44:	fff54513          	xori	x10,x10,-1
    1f48:	00b00593          	addi	x11,x0,11
    1f4c:	40b5563b          	sraw	x12,x10,x11
    1f50:	24c33023          	sd	x12,576(x6)
    1f54:	fff00093          	addi	x1,x0,-1
    1f58:	00c08463          	beq	x1,x12,0x1f60
    1f5c:	8c8ff06f          	jal	x0,0x1024
    1f60:	00100513          	addi	x10,x0,1
    1f64:	03851513          	slli	x10,x10,0x38
    1f68:	fff54513          	xori	x10,x10,-1
    1f6c:	01700593          	addi	x11,x0,23
    1f70:	40b5563b          	sraw	x12,x10,x11
    1f74:	24c33423          	sd	x12,584(x6)
    1f78:	fff00093          	addi	x1,x0,-1
    1f7c:	00c08463          	beq	x1,x12,0x1f84
    1f80:	8a4ff06f          	jal	x0,0x1024
    1f84:	00100513          	addi	x10,x0,1
    1f88:	03951513          	slli	x10,x10,0x39
    1f8c:	fff54513          	xori	x10,x10,-1
    1f90:	01000593          	addi	x11,x0,16
    1f94:	40b5563b          	sraw	x12,x10,x11
    1f98:	24c33823          	sd	x12,592(x6)
    1f9c:	fff00093          	addi	x1,x0,-1
    1fa0:	00c08463          	beq	x1,x12,0x1fa8
    1fa4:	880ff06f          	jal	x0,0x1024
    1fa8:	00100513          	addi	x10,x0,1
    1fac:	03a51513          	slli	x10,x10,0x3a
    1fb0:	fff54513          	xori	x10,x10,-1
    1fb4:	01100593          	addi	x11,x0,17
    1fb8:	40b5563b          	sraw	x12,x10,x11
    1fbc:	24c33c23          	sd	x12,600(x6)
    1fc0:	fff00093          	addi	x1,x0,-1
    1fc4:	00c08463          	beq	x1,x12,0x1fcc
    1fc8:	85cff06f          	jal	x0,0x1024
    1fcc:	00100513          	addi	x10,x0,1
    1fd0:	03b51513          	slli	x10,x10,0x3b
    1fd4:	fff54513          	xori	x10,x10,-1
    1fd8:	00000593          	addi	x11,x0,0
    1fdc:	40b5563b          	sraw	x12,x10,x11
    1fe0:	26c33023          	sd	x12,608(x6)
    1fe4:	fff00093          	addi	x1,x0,-1
    1fe8:	00c08463          	beq	x1,x12,0x1ff0
    1fec:	838ff06f          	jal	x0,0x1024
    1ff0:	00100513          	addi	x10,x0,1
    1ff4:	03c51513          	slli	x10,x10,0x3c
    1ff8:	fff54513          	xori	x10,x10,-1
    1ffc:	00000593          	addi	x11,x0,0
    2000:	40b5563b          	sraw	x12,x10,x11
    2004:	26c33423          	sd	x12,616(x6)
    2008:	fff00093          	addi	x1,x0,-1
    200c:	00c08463          	beq	x1,x12,0x2014
    2010:	814ff06f          	jal	x0,0x1024
    2014:	00100513          	addi	x10,x0,1
    2018:	03d51513          	slli	x10,x10,0x3d
    201c:	fff54513          	xori	x10,x10,-1
    2020:	01d00593          	addi	x11,x0,29
    2024:	40b5563b          	sraw	x12,x10,x11
    2028:	26c33823          	sd	x12,624(x6)
    202c:	fff00093          	addi	x1,x0,-1
    2030:	00c08463          	beq	x1,x12,0x2038
    2034:	ff1fe06f          	jal	x0,0x1024
    2038:	00100513          	addi	x10,x0,1
    203c:	03e51513          	slli	x10,x10,0x3e
    2040:	fff54513          	xori	x10,x10,-1
    2044:	00700593          	addi	x11,x0,7
    2048:	40b5563b          	sraw	x12,x10,x11
    204c:	26c33c23          	sd	x12,632(x6)
    2050:	fff00093          	addi	x1,x0,-1
    2054:	00c08463          	beq	x1,x12,0x205c
    2058:	fcdfe06f          	jal	x0,0x1024
    205c:	55555537          	lui	x10,0x55555
    2060:	55550513          	addi	x10,x10,1365 # 0x55555555
    2064:	00b51513          	slli	x10,x10,0xb
    2068:	2aa50513          	addi	x10,x10,682
    206c:	00b51513          	slli	x10,x10,0xb
    2070:	55550513          	addi	x10,x10,1365
    2074:	00a51513          	slli	x10,x10,0xa
    2078:	15550513          	addi	x10,x10,341
    207c:	00700593          	addi	x11,x0,7
    2080:	40b5563b          	sraw	x12,x10,x11
    2084:	28c33023          	sd	x12,640(x6)
    2088:	00aab0b7          	lui	x1,0xaab
    208c:	aaa0809b          	addiw	x1,x1,-1366 # 0xaaaaaa
    2090:	00c08463          	beq	x1,x12,0x2098
    2094:	f91fe06f          	jal	x0,0x1024
    2098:	aaaab537          	lui	x10,0xaaaab
    209c:	aaa50513          	addi	x10,x10,-1366 # 0xffffffffaaaaaaaa
    20a0:	00b51513          	slli	x10,x10,0xb
    20a4:	55550513          	addi	x10,x10,1365
    20a8:	00b51513          	slli	x10,x10,0xb
    20ac:	2aa50513          	addi	x10,x10,682
    20b0:	00a51513          	slli	x10,x10,0xa
    20b4:	2aa50513          	addi	x10,x10,682
    20b8:	00900593          	addi	x11,x0,9
    20bc:	40b5563b          	sraw	x12,x10,x11
    20c0:	28c33423          	sd	x12,648(x6)
    20c4:	ffd550b7          	lui	x1,0xffd55
    20c8:	5550809b          	addiw	x1,x1,1365 # 0xffffffffffd55555
    20cc:	00c08463          	beq	x1,x12,0x20d4
    20d0:	f55fe06f          	jal	x0,0x1024
    20d4:	00300513          	addi	x10,x0,3
    20d8:	01200593          	addi	x11,x0,18
    20dc:	40b5563b          	sraw	x12,x10,x11
    20e0:	28c33823          	sd	x12,656(x6)
    20e4:	00000093          	addi	x1,x0,0
    20e8:	00c08463          	beq	x1,x12,0x20f0
    20ec:	f39fe06f          	jal	x0,0x1024
    20f0:	00500513          	addi	x10,x0,5
    20f4:	00100593          	addi	x11,x0,1
    20f8:	40b5563b          	sraw	x12,x10,x11
    20fc:	28c33c23          	sd	x12,664(x6)
    2100:	00200093          	addi	x1,x0,2
    2104:	00c08463          	beq	x1,x12,0x210c
    2108:	f1dfe06f          	jal	x0,0x1024
    210c:	33333537          	lui	x10,0x33333
    2110:	33350513          	addi	x10,x10,819 # 0x33333333
    2114:	00b51513          	slli	x10,x10,0xb
    2118:	19950513          	addi	x10,x10,409
    211c:	00b51513          	slli	x10,x10,0xb
    2120:	4cc50513          	addi	x10,x10,1228
    2124:	00a51513          	slli	x10,x10,0xa
    2128:	33350513          	addi	x10,x10,819
    212c:	01d00593          	addi	x11,x0,29
    2130:	40b5563b          	sraw	x12,x10,x11
    2134:	2ac33023          	sd	x12,672(x6)
    2138:	00100093          	addi	x1,x0,1
    213c:	00c08463          	beq	x1,x12,0x2144
    2140:	ee5fe06f          	jal	x0,0x1024
    2144:	66666537          	lui	x10,0x66666
    2148:	66650513          	addi	x10,x10,1638 # 0x66666666
    214c:	00b51513          	slli	x10,x10,0xb
    2150:	33350513          	addi	x10,x10,819
    2154:	00b51513          	slli	x10,x10,0xb
    2158:	19950513          	addi	x10,x10,409
    215c:	00a51513          	slli	x10,x10,0xa
    2160:	26650513          	addi	x10,x10,614
    2164:	00300593          	addi	x11,x0,3
    2168:	40b5563b          	sraw	x12,x10,x11
    216c:	2ac33423          	sd	x12,680(x6)
    2170:	0cccd0b7          	lui	x1,0xcccd
    2174:	ccc0809b          	addiw	x1,x1,-820 # 0xccccccc
    2178:	00c08463          	beq	x1,x12,0x2180
    217c:	ea9fe06f          	jal	x0,0x1024
    2180:	00000537          	lui	x10,0x0
    2184:	fff50513          	addi	x10,x10,-1 # 0xffffffffffffffff
    2188:	00b51513          	slli	x10,x10,0xb
    218c:	25750513          	addi	x10,x10,599
    2190:	00b51513          	slli	x10,x10,0xb
    2194:	6c350513          	addi	x10,x10,1731
    2198:	00a51513          	slli	x10,x10,0xa
    219c:	0cd50513          	addi	x10,x10,205
    21a0:	01300593          	addi	x11,x0,19
    21a4:	40b5563b          	sraw	x12,x10,x11
    21a8:	2ac33823          	sd	x12,688(x6)
    21ac:	000010b7          	lui	x1,0x1
    21b0:	95f0809b          	addiw	x1,x1,-1697 # 0x95f
    21b4:	00c08463          	beq	x1,x12,0x21bc
    21b8:	e6dfe06f          	jal	x0,0x1024
    21bc:	00000537          	lui	x10,0x0
    21c0:	00050513          	addi	x10,x10,0 # 0x0
    21c4:	00b51513          	slli	x10,x10,0xb
    21c8:	5a850513          	addi	x10,x10,1448
    21cc:	00b51513          	slli	x10,x10,0xb
    21d0:	13c50513          	addi	x10,x10,316
    21d4:	00a51513          	slli	x10,x10,0xa
    21d8:	33350513          	addi	x10,x10,819
    21dc:	00c00593          	addi	x11,x0,12
    21e0:	40b5563b          	sraw	x12,x10,x11
    21e4:	2ac33c23          	sd	x12,696(x6)
    21e8:	fffb50b7          	lui	x1,0xfffb5
    21ec:	04f0809b          	addiw	x1,x1,79 # 0xfffffffffffb504f
    21f0:	00c08463          	beq	x1,x12,0x21f8
    21f4:	e31fe06f          	jal	x0,0x1024
    21f8:	55555537          	lui	x10,0x55555
    21fc:	55550513          	addi	x10,x10,1365 # 0x55555555
    2200:	00b51513          	slli	x10,x10,0xb
    2204:	2aa50513          	addi	x10,x10,682
    2208:	00b51513          	slli	x10,x10,0xb
    220c:	55550513          	addi	x10,x10,1365
    2210:	00a51513          	slli	x10,x10,0xa
    2214:	15450513          	addi	x10,x10,340
    2218:	01e00593          	addi	x11,x0,30
    221c:	40b5563b          	sraw	x12,x10,x11
    2220:	2cc33023          	sd	x12,704(x6)
    2224:	00100093          	addi	x1,x0,1
    2228:	00c08463          	beq	x1,x12,0x2230
    222c:	df9fe06f          	jal	x0,0x1024
    2230:	33333537          	lui	x10,0x33333
    2234:	33350513          	addi	x10,x10,819 # 0x33333333
    2238:	00b51513          	slli	x10,x10,0xb
    223c:	19950513          	addi	x10,x10,409
    2240:	00b51513          	slli	x10,x10,0xb
    2244:	4cc50513          	addi	x10,x10,1228
    2248:	00a51513          	slli	x10,x10,0xa
    224c:	33250513          	addi	x10,x10,818
    2250:	00900593          	addi	x11,x0,9
    2254:	40b5563b          	sraw	x12,x10,x11
    2258:	2cc33423          	sd	x12,712(x6)
    225c:	0019a0b7          	lui	x1,0x19a
    2260:	9990809b          	addiw	x1,x1,-1639 # 0x199999
    2264:	00c08463          	beq	x1,x12,0x226c
    2268:	dbdfe06f          	jal	x0,0x1024
    226c:	66666537          	lui	x10,0x66666
    2270:	66650513          	addi	x10,x10,1638 # 0x66666666
    2274:	00b51513          	slli	x10,x10,0xb
    2278:	33350513          	addi	x10,x10,819
    227c:	00b51513          	slli	x10,x10,0xb
    2280:	19950513          	addi	x10,x10,409
    2284:	00a51513          	slli	x10,x10,0xa
    2288:	26550513          	addi	x10,x10,613
    228c:	00200593          	addi	x11,x0,2
    2290:	40b5563b          	sraw	x12,x10,x11
    2294:	2cc33823          	sd	x12,720(x6)
    2298:	1999a0b7          	lui	x1,0x1999a
    229c:	9990809b          	addiw	x1,x1,-1639 # 0x19999999
    22a0:	00c08463          	beq	x1,x12,0x22a8
    22a4:	d81fe06f          	jal	x0,0x1024
    22a8:	00000537          	lui	x10,0x0
    22ac:	00050513          	addi	x10,x10,0 # 0x0
    22b0:	00b51513          	slli	x10,x10,0xb
    22b4:	5a850513          	addi	x10,x10,1448
    22b8:	00b51513          	slli	x10,x10,0xb
    22bc:	13c50513          	addi	x10,x10,316
    22c0:	00a51513          	slli	x10,x10,0xa
    22c4:	33250513          	addi	x10,x10,818
    22c8:	01500593          	addi	x11,x0,21
    22cc:	40b5563b          	sraw	x12,x10,x11
    22d0:	2cc33c23          	sd	x12,728(x6)
    22d4:	da800093          	addi	x1,x0,-600
    22d8:	00c08463          	beq	x1,x12,0x22e0
    22dc:	d49fe06f          	jal	x0,0x1024
    22e0:	55555537          	lui	x10,0x55555
    22e4:	55550513          	addi	x10,x10,1365 # 0x55555555
    22e8:	00b51513          	slli	x10,x10,0xb
    22ec:	2aa50513          	addi	x10,x10,682
    22f0:	00b51513          	slli	x10,x10,0xb
    22f4:	55550513          	addi	x10,x10,1365
    22f8:	00a51513          	slli	x10,x10,0xa
    22fc:	15650513          	addi	x10,x10,342
    2300:	01e00593          	addi	x11,x0,30
    2304:	40b5563b          	sraw	x12,x10,x11
    2308:	2ec33023          	sd	x12,736(x6)
    230c:	00100093          	addi	x1,x0,1
    2310:	00c08463          	beq	x1,x12,0x2318
    2314:	d11fe06f          	jal	x0,0x1024
    2318:	aaaab537          	lui	x10,0xaaaab
    231c:	aaa50513          	addi	x10,x10,-1366 # 0xffffffffaaaaaaaa
    2320:	00b51513          	slli	x10,x10,0xb
    2324:	55550513          	addi	x10,x10,1365
    2328:	00b51513          	slli	x10,x10,0xb
    232c:	2aa50513          	addi	x10,x10,682
    2330:	00a51513          	slli	x10,x10,0xa
    2334:	2ab50513          	addi	x10,x10,683
    2338:	00e00593          	addi	x11,x0,14
    233c:	40b5563b          	sraw	x12,x10,x11
    2340:	2ec33423          	sd	x12,744(x6)
    2344:	fffeb0b7          	lui	x1,0xfffeb
    2348:	aaa0809b          	addiw	x1,x1,-1366 # 0xfffffffffffeaaaa
    234c:	00c08463          	beq	x1,x12,0x2354
    2350:	cd5fe06f          	jal	x0,0x1024
    2354:	00600513          	addi	x10,x0,6
    2358:	00a00593          	addi	x11,x0,10
    235c:	40b5563b          	sraw	x12,x10,x11
    2360:	2ec33823          	sd	x12,752(x6)
    2364:	00000093          	addi	x1,x0,0
    2368:	00c08463          	beq	x1,x12,0x2370
    236c:	cb9fe06f          	jal	x0,0x1024
    2370:	33333537          	lui	x10,0x33333
    2374:	33350513          	addi	x10,x10,819 # 0x33333333
    2378:	00b51513          	slli	x10,x10,0xb
    237c:	19950513          	addi	x10,x10,409
    2380:	00b51513          	slli	x10,x10,0xb
    2384:	4cc50513          	addi	x10,x10,1228
    2388:	00a51513          	slli	x10,x10,0xa
    238c:	33450513          	addi	x10,x10,820
    2390:	00e00593          	addi	x11,x0,14
    2394:	40b5563b          	sraw	x12,x10,x11
    2398:	2ec33c23          	sd	x12,760(x6)
    239c:	0000d0b7          	lui	x1,0xd
    23a0:	ccc0809b          	addiw	x1,x1,-820 # 0xcccc
    23a4:	00c08463          	beq	x1,x12,0x23ac
    23a8:	c7dfe06f          	jal	x0,0x1024
    23ac:	66666537          	lui	x10,0x66666
    23b0:	66650513          	addi	x10,x10,1638 # 0x66666666
    23b4:	00b51513          	slli	x10,x10,0xb
    23b8:	33350513          	addi	x10,x10,819
    23bc:	00b51513          	slli	x10,x10,0xb
    23c0:	19950513          	addi	x10,x10,409
    23c4:	00a51513          	slli	x10,x10,0xa
    23c8:	26750513          	addi	x10,x10,615
    23cc:	01100593          	addi	x11,x0,17
    23d0:	40b5563b          	sraw	x12,x10,x11
    23d4:	30c33023          	sd	x12,768(x6)
    23d8:	000030b7          	lui	x1,0x3
    23dc:	3330809b          	addiw	x1,x1,819 # 0x3333
    23e0:	00c08463          	beq	x1,x12,0x23e8
    23e4:	c41fe06f          	jal	x0,0x1024
    23e8:	00000537          	lui	x10,0x0
    23ec:	fff50513          	addi	x10,x10,-1 # 0xffffffffffffffff
    23f0:	00b51513          	slli	x10,x10,0xb
    23f4:	25750513          	addi	x10,x10,599
    23f8:	00b51513          	slli	x10,x10,0xb
    23fc:	6c350513          	addi	x10,x10,1731
    2400:	00a51513          	slli	x10,x10,0xa
    2404:	0ce50513          	addi	x10,x10,206
    2408:	00400593          	addi	x11,x0,4
    240c:	40b5563b          	sraw	x12,x10,x11
    2410:	30c33423          	sd	x12,776(x6)
    2414:	04afb0b7          	lui	x1,0x4afb
    2418:	0cc0809b          	addiw	x1,x1,204 # 0x4afb0cc
    241c:	00c08463          	beq	x1,x12,0x2424
    2420:	c05fe06f          	jal	x0,0x1024
    2424:	00000537          	lui	x10,0x0
    2428:	00050513          	addi	x10,x10,0 # 0x0
    242c:	00b51513          	slli	x10,x10,0xb
    2430:	5a850513          	addi	x10,x10,1448
    2434:	00b51513          	slli	x10,x10,0xb
    2438:	13c50513          	addi	x10,x10,316
    243c:	00a51513          	slli	x10,x10,0xa
    2440:	33450513          	addi	x10,x10,820
    2444:	01d00593          	addi	x11,x0,29
    2448:	40b5563b          	sraw	x12,x10,x11
    244c:	30c33823          	sd	x12,784(x6)
    2450:	ffd00093          	addi	x1,x0,-3
    2454:	00c08463          	beq	x1,x12,0x245c
    2458:	bcdfe06f          	jal	x0,0x1024
    245c:	00100513          	addi	x10,x0,1
    2460:	01551513          	slli	x10,x10,0x15
    2464:	fff54513          	xori	x10,x10,-1
    2468:	00f00593          	addi	x11,x0,15
    246c:	40b5563b          	sraw	x12,x10,x11
    2470:	30c33c23          	sd	x12,792(x6)
    2474:	fbf00093          	addi	x1,x0,-65
    2478:	00c08463          	beq	x1,x12,0x2480
    247c:	ba9fe06f          	jal	x0,0x1024
    2480:	00100513          	addi	x10,x0,1
    2484:	01651513          	slli	x10,x10,0x16
    2488:	fff54513          	xori	x10,x10,-1
    248c:	00d00593          	addi	x11,x0,13
    2490:	40b5563b          	sraw	x12,x10,x11
    2494:	32c33023          	sd	x12,800(x6)
    2498:	dff00093          	addi	x1,x0,-513
    249c:	00c08463          	beq	x1,x12,0x24a4
    24a0:	b85fe06f          	jal	x0,0x1024
    24a4:	00100513          	addi	x10,x0,1
    24a8:	01751513          	slli	x10,x10,0x17
    24ac:	fff54513          	xori	x10,x10,-1
    24b0:	01e00593          	addi	x11,x0,30
    24b4:	40b5563b          	sraw	x12,x10,x11
    24b8:	32c33423          	sd	x12,808(x6)
    24bc:	fff00093          	addi	x1,x0,-1
    24c0:	00c08463          	beq	x1,x12,0x24c8
    24c4:	b61fe06f          	jal	x0,0x1024
    24c8:	00100513          	addi	x10,x0,1
    24cc:	01851513          	slli	x10,x10,0x18
    24d0:	fff54513          	xori	x10,x10,-1
    24d4:	00e00593          	addi	x11,x0,14
    24d8:	40b5563b          	sraw	x12,x10,x11
    24dc:	32c33823          	sd	x12,816(x6)
    24e0:	bff00093          	addi	x1,x0,-1025
    24e4:	00c08463          	beq	x1,x12,0x24ec
    24e8:	b3dfe06f          	jal	x0,0x1024
    24ec:	00100513          	addi	x10,x0,1
    24f0:	01951513          	slli	x10,x10,0x19
    24f4:	fff54513          	xori	x10,x10,-1
    24f8:	00500593          	addi	x11,x0,5
    24fc:	40b5563b          	sraw	x12,x10,x11
    2500:	32c33c23          	sd	x12,824(x6)
    2504:	fff000b7          	lui	x1,0xfff00
    2508:	fff0809b          	addiw	x1,x1,-1 # 0xffffffffffefffff
    250c:	00c08463          	beq	x1,x12,0x2514
    2510:	b15fe06f          	jal	x0,0x1024
    2514:	00100513          	addi	x10,x0,1
    2518:	01a51513          	slli	x10,x10,0x1a
    251c:	fff54513          	xori	x10,x10,-1
    2520:	00800593          	addi	x11,x0,8
    2524:	40b5563b          	sraw	x12,x10,x11
    2528:	34c33023          	sd	x12,832(x6)
    252c:	fffc00b7          	lui	x1,0xfffc0
    2530:	fff0809b          	addiw	x1,x1,-1 # 0xfffffffffffbffff
    2534:	00c08463          	beq	x1,x12,0x253c
    2538:	aedfe06f          	jal	x0,0x1024
    253c:	00100513          	addi	x10,x0,1
    2540:	01b51513          	slli	x10,x10,0x1b
    2544:	fff54513          	xori	x10,x10,-1
    2548:	00700593          	addi	x11,x0,7
    254c:	40b5563b          	sraw	x12,x10,x11
    2550:	34c33423          	sd	x12,840(x6)
    2554:	fff000b7          	lui	x1,0xfff00
    2558:	fff0809b          	addiw	x1,x1,-1 # 0xffffffffffefffff
    255c:	00c08463          	beq	x1,x12,0x2564
    2560:	ac5fe06f          	jal	x0,0x1024
    2564:	00100513          	addi	x10,x0,1
    2568:	01c51513          	slli	x10,x10,0x1c
    256c:	fff54513          	xori	x10,x10,-1
    2570:	00b00593          	addi	x11,x0,11
    2574:	40b5563b          	sraw	x12,x10,x11
    2578:	34c33823          	sd	x12,848(x6)
    257c:	fffe00b7          	lui	x1,0xfffe0
    2580:	fff0809b          	addiw	x1,x1,-1 # 0xfffffffffffdffff
    2584:	00c08463          	beq	x1,x12,0x258c
    2588:	a9dfe06f          	jal	x0,0x1024
    258c:	00100513          	addi	x10,x0,1
    2590:	01d51513          	slli	x10,x10,0x1d
    2594:	fff54513          	xori	x10,x10,-1
    2598:	01100593          	addi	x11,x0,17
    259c:	40b5563b          	sraw	x12,x10,x11
    25a0:	34c33c23          	sd	x12,856(x6)
    25a4:	fffff0b7          	lui	x1,0xfffff
    25a8:	fff0809b          	addiw	x1,x1,-1 # 0xffffffffffffefff
    25ac:	00c08463          	beq	x1,x12,0x25b4
    25b0:	a75fe06f          	jal	x0,0x1024
    25b4:	00100513          	addi	x10,x0,1
    25b8:	01e51513          	slli	x10,x10,0x1e
    25bc:	fff54513          	xori	x10,x10,-1
    25c0:	00600593          	addi	x11,x0,6
    25c4:	40b5563b          	sraw	x12,x10,x11
    25c8:	36c33023          	sd	x12,864(x6)
    25cc:	ff0000b7          	lui	x1,0xff000
    25d0:	fff0809b          	addiw	x1,x1,-1 # 0xfffffffffeffffff
    25d4:	00c08463          	beq	x1,x12,0x25dc
    25d8:	a4dfe06f          	jal	x0,0x1024
    25dc:	00100513          	addi	x10,x0,1
    25e0:	01f51513          	slli	x10,x10,0x1f
    25e4:	fff54513          	xori	x10,x10,-1
    25e8:	00f00593          	addi	x11,x0,15
    25ec:	40b5563b          	sraw	x12,x10,x11
    25f0:	36c33423          	sd	x12,872(x6)
    25f4:	000100b7          	lui	x1,0x10
    25f8:	fff0809b          	addiw	x1,x1,-1 # 0xffff
    25fc:	00c08463          	beq	x1,x12,0x2604
    2600:	a25fe06f          	jal	x0,0x1024
    2604:	00100513          	addi	x10,x0,1
    2608:	02051513          	slli	x10,x10,0x20
    260c:	fff54513          	xori	x10,x10,-1
    2610:	01700593          	addi	x11,x0,23
    2614:	40b5563b          	sraw	x12,x10,x11
    2618:	36c33823          	sd	x12,880(x6)
    261c:	fff00093          	addi	x1,x0,-1
    2620:	00c08463          	beq	x1,x12,0x2628
    2624:	a01fe06f          	jal	x0,0x1024
    2628:	00100513          	addi	x10,x0,1
    262c:	02151513          	slli	x10,x10,0x21
    2630:	fff54513          	xori	x10,x10,-1
    2634:	00200593          	addi	x11,x0,2
    2638:	40b5563b          	sraw	x12,x10,x11
    263c:	36c33c23          	sd	x12,888(x6)
    2640:	fff00093          	addi	x1,x0,-1
    2644:	00c08463          	beq	x1,x12,0x264c
    2648:	9ddfe06f          	jal	x0,0x1024
    264c:	00100513          	addi	x10,x0,1
    2650:	02251513          	slli	x10,x10,0x22
    2654:	fff54513          	xori	x10,x10,-1
    2658:	01700593          	addi	x11,x0,23
    265c:	40b5563b          	sraw	x12,x10,x11
    2660:	38c33023          	sd	x12,896(x6)
    2664:	fff00093          	addi	x1,x0,-1
    2668:	00c08463          	beq	x1,x12,0x2670
    266c:	9b9fe06f          	jal	x0,0x1024
    2670:	00100513          	addi	x10,x0,1
    2674:	02351513          	slli	x10,x10,0x23
    2678:	fff54513          	xori	x10,x10,-1
    267c:	00000593          	addi	x11,x0,0
    2680:	40b5563b          	sraw	x12,x10,x11
    2684:	38c33423          	sd	x12,904(x6)
    2688:	fff00093          	addi	x1,x0,-1
    268c:	00c08463          	beq	x1,x12,0x2694
    2690:	995fe06f          	jal	x0,0x1024
    2694:	00100513          	addi	x10,x0,1
    2698:	02451513          	slli	x10,x10,0x24
    269c:	fff54513          	xori	x10,x10,-1
    26a0:	01100593          	addi	x11,x0,17
    26a4:	40b5563b          	sraw	x12,x10,x11
    26a8:	38c33823          	sd	x12,912(x6)
    26ac:	fff00093          	addi	x1,x0,-1
    26b0:	00c08463          	beq	x1,x12,0x26b8
    26b4:	971fe06f          	jal	x0,0x1024
    26b8:	00100513          	addi	x10,x0,1
    26bc:	02551513          	slli	x10,x10,0x25
    26c0:	fff54513          	xori	x10,x10,-1
    26c4:	00100593          	addi	x11,x0,1
    26c8:	40b5563b          	sraw	x12,x10,x11
    26cc:	38c33c23          	sd	x12,920(x6)
    26d0:	fff00093          	addi	x1,x0,-1
    26d4:	00c08463          	beq	x1,x12,0x26dc
    26d8:	94dfe06f          	jal	x0,0x1024
    26dc:	00100513          	addi	x10,x0,1
    26e0:	02651513          	slli	x10,x10,0x26
    26e4:	fff54513          	xori	x10,x10,-1
    26e8:	01f00593          	addi	x11,x0,31
    26ec:	40b5563b          	sraw	x12,x10,x11
    26f0:	3ac33023          	sd	x12,928(x6)
    26f4:	fff00093          	addi	x1,x0,-1
    26f8:	00c08463          	beq	x1,x12,0x2700
    26fc:	929fe06f          	jal	x0,0x1024
    2700:	00100513          	addi	x10,x0,1
    2704:	02751513          	slli	x10,x10,0x27
    2708:	fff54513          	xori	x10,x10,-1
    270c:	00600593          	addi	x11,x0,6
    2710:	40b5563b          	sraw	x12,x10,x11
    2714:	3ac33423          	sd	x12,936(x6)
    2718:	fff00093          	addi	x1,x0,-1
    271c:	00c08463          	beq	x1,x12,0x2724
    2720:	905fe06f          	jal	x0,0x1024
    2724:	00100513          	addi	x10,x0,1
    2728:	02851513          	slli	x10,x10,0x28
    272c:	fff54513          	xori	x10,x10,-1
    2730:	01b00593          	addi	x11,x0,27
    2734:	40b5563b          	sraw	x12,x10,x11
    2738:	3ac33823          	sd	x12,944(x6)
    273c:	fff00093          	addi	x1,x0,-1
    2740:	00c08463          	beq	x1,x12,0x2748
    2744:	8e1fe06f          	jal	x0,0x1024
    2748:	00100513          	addi	x10,x0,1
    274c:	02951513          	slli	x10,x10,0x29
    2750:	fff54513          	xori	x10,x10,-1
    2754:	00a00593          	addi	x11,x0,10
    2758:	40b5563b          	sraw	x12,x10,x11
    275c:	3ac33c23          	sd	x12,952(x6)
    2760:	fff00093          	addi	x1,x0,-1
    2764:	00c08463          	beq	x1,x12,0x276c
    2768:	8bdfe06f          	jal	x0,0x1024
    276c:	00100513          	addi	x10,x0,1
    2770:	02a51513          	slli	x10,x10,0x2a
    2774:	fff54513          	xori	x10,x10,-1
    2778:	00200593          	addi	x11,x0,2
    277c:	40b5563b          	sraw	x12,x10,x11
    2780:	3cc33023          	sd	x12,960(x6)
    2784:	fff00093          	addi	x1,x0,-1
    2788:	00c08463          	beq	x1,x12,0x2790
    278c:	899fe06f          	jal	x0,0x1024
    2790:	00100513          	addi	x10,x0,1
    2794:	02b51513          	slli	x10,x10,0x2b
    2798:	fff54513          	xori	x10,x10,-1
    279c:	00800593          	addi	x11,x0,8
    27a0:	40b5563b          	sraw	x12,x10,x11
    27a4:	3cc33423          	sd	x12,968(x6)
    27a8:	fff00093          	addi	x1,x0,-1
    27ac:	00c08463          	beq	x1,x12,0x27b4
    27b0:	875fe06f          	jal	x0,0x1024
    27b4:	00100513          	addi	x10,x0,1
    27b8:	02c51513          	slli	x10,x10,0x2c
    27bc:	fff54513          	xori	x10,x10,-1
    27c0:	00d00593          	addi	x11,x0,13
    27c4:	40b5563b          	sraw	x12,x10,x11
    27c8:	3cc33823          	sd	x12,976(x6)
    27cc:	fff00093          	addi	x1,x0,-1
    27d0:	00c08463          	beq	x1,x12,0x27d8
    27d4:	851fe06f          	jal	x0,0x1024
    27d8:	00100513          	addi	x10,x0,1
    27dc:	02d51513          	slli	x10,x10,0x2d
    27e0:	fff54513          	xori	x10,x10,-1
    27e4:	00a00593          	addi	x11,x0,10
    27e8:	40b5563b          	sraw	x12,x10,x11
    27ec:	3cc33c23          	sd	x12,984(x6)
    27f0:	fff00093          	addi	x1,x0,-1
    27f4:	00c08463          	beq	x1,x12,0x27fc
    27f8:	82dfe06f          	jal	x0,0x1024
    27fc:	00100513          	addi	x10,x0,1
    2800:	02e51513          	slli	x10,x10,0x2e
    2804:	fff54513          	xori	x10,x10,-1
    2808:	01700593          	addi	x11,x0,23
    280c:	40b5563b          	sraw	x12,x10,x11
    2810:	3ec33023          	sd	x12,992(x6)
    2814:	fff00093          	addi	x1,x0,-1
    2818:	00c08463          	beq	x1,x12,0x2820
    281c:	809fe06f          	jal	x0,0x1024
    2820:	00100513          	addi	x10,x0,1
    2824:	02f51513          	slli	x10,x10,0x2f
    2828:	fff54513          	xori	x10,x10,-1
    282c:	01200593          	addi	x11,x0,18
    2830:	40b5563b          	sraw	x12,x10,x11
    2834:	3ec33423          	sd	x12,1000(x6)
    2838:	fff00093          	addi	x1,x0,-1
    283c:	00c08463          	beq	x1,x12,0x2844
    2840:	fe4fe06f          	jal	x0,0x1024
    2844:	00100513          	addi	x10,x0,1
    2848:	03051513          	slli	x10,x10,0x30
    284c:	fff54513          	xori	x10,x10,-1
    2850:	00900593          	addi	x11,x0,9
    2854:	40b5563b          	sraw	x12,x10,x11
    2858:	3ec33823          	sd	x12,1008(x6)
    285c:	fff00093          	addi	x1,x0,-1
    2860:	00c08463          	beq	x1,x12,0x2868
    2864:	fc0fe06f          	jal	x0,0x1024
    2868:	00100513          	addi	x10,x0,1
    286c:	03151513          	slli	x10,x10,0x31
    2870:	fff54513          	xori	x10,x10,-1
    2874:	01300593          	addi	x11,x0,19
    2878:	40b5563b          	sraw	x12,x10,x11
    287c:	3ec33c23          	sd	x12,1016(x6)
    2880:	fff00093          	addi	x1,x0,-1
    2884:	00c08463          	beq	x1,x12,0x288c
    2888:	f9cfe06f          	jal	x0,0x1024
    288c:	00100513          	addi	x10,x0,1
    2890:	03251513          	slli	x10,x10,0x32
    2894:	fff54513          	xori	x10,x10,-1
    2898:	00a00593          	addi	x11,x0,10
    289c:	40b5563b          	sraw	x12,x10,x11
    28a0:	40c33023          	sd	x12,1024(x6)
    28a4:	fff00093          	addi	x1,x0,-1
    28a8:	00c08463          	beq	x1,x12,0x28b0
    28ac:	f78fe06f          	jal	x0,0x1024
    28b0:	00100513          	addi	x10,x0,1
    28b4:	03351513          	slli	x10,x10,0x33
    28b8:	fff54513          	xori	x10,x10,-1
    28bc:	00100593          	addi	x11,x0,1
    28c0:	40b5563b          	sraw	x12,x10,x11
    28c4:	40c33423          	sd	x12,1032(x6)
    28c8:	fff00093          	addi	x1,x0,-1
    28cc:	00c08463          	beq	x1,x12,0x28d4
    28d0:	f54fe06f          	jal	x0,0x1024
    28d4:	00100513          	addi	x10,x0,1
    28d8:	03451513          	slli	x10,x10,0x34
    28dc:	fff54513          	xori	x10,x10,-1
    28e0:	00200593          	addi	x11,x0,2
    28e4:	40b5563b          	sraw	x12,x10,x11
    28e8:	40c33823          	sd	x12,1040(x6)
    28ec:	fff00093          	addi	x1,x0,-1
    28f0:	00c08463          	beq	x1,x12,0x28f8
    28f4:	f30fe06f          	jal	x0,0x1024
    28f8:	00100513          	addi	x10,x0,1
    28fc:	03551513          	slli	x10,x10,0x35
    2900:	fff54513          	xori	x10,x10,-1
    2904:	01f00593          	addi	x11,x0,31
    2908:	40b5563b          	sraw	x12,x10,x11
    290c:	40c33c23          	sd	x12,1048(x6)
    2910:	fff00093          	addi	x1,x0,-1
    2914:	00c08463          	beq	x1,x12,0x291c
    2918:	f0cfe06f          	jal	x0,0x1024
    291c:	00100513          	addi	x10,x0,1
    2920:	03651513          	slli	x10,x10,0x36
    2924:	fff54513          	xori	x10,x10,-1
    2928:	00400593          	addi	x11,x0,4
    292c:	40b5563b          	sraw	x12,x10,x11
    2930:	42c33023          	sd	x12,1056(x6)
    2934:	fff00093          	addi	x1,x0,-1
    2938:	00c08463          	beq	x1,x12,0x2940
    293c:	ee8fe06f          	jal	x0,0x1024
    2940:	eff00513          	addi	x10,x0,-257
    2944:	00100593          	addi	x11,x0,1
    2948:	40b5563b          	sraw	x12,x10,x11
    294c:	42c33423          	sd	x12,1064(x6)
    2950:	f7f00093          	addi	x1,x0,-129
    2954:	00c08463          	beq	x1,x12,0x295c
    2958:	eccfe06f          	jal	x0,0x1024
    295c:	00100513          	addi	x10,x0,1
    2960:	01151513          	slli	x10,x10,0x11
    2964:	fff54513          	xori	x10,x10,-1
    2968:	00000593          	addi	x11,x0,0
    296c:	40b5563b          	sraw	x12,x10,x11
    2970:	42c33823          	sd	x12,1072(x6)
    2974:	fffe00b7          	lui	x1,0xfffe0
    2978:	fff0809b          	addiw	x1,x1,-1 # 0xfffffffffffdffff
    297c:	00c08463          	beq	x1,x12,0x2984
    2980:	ea4fe06f          	jal	x0,0x1024
    2984:	fff00513          	addi	x10,x0,-1
    2988:	03f51513          	slli	x10,x10,0x3f
    298c:	00e00593          	addi	x11,x0,14
    2990:	40b5563b          	sraw	x12,x10,x11
    2994:	42c33c23          	sd	x12,1080(x6)
    2998:	00000093          	addi	x1,x0,0
    299c:	00c08463          	beq	x1,x12,0x29a4
    29a0:	e84fe06f          	jal	x0,0x1024
    29a4:	00200513          	addi	x10,x0,2
    29a8:	00a00593          	addi	x11,x0,10
    29ac:	40b5563b          	sraw	x12,x10,x11
    29b0:	44c33023          	sd	x12,1088(x6)
    29b4:	00000093          	addi	x1,x0,0
    29b8:	00c08463          	beq	x1,x12,0x29c0
    29bc:	e68fe06f          	jal	x0,0x1024
    29c0:	00100513          	addi	x10,x0,1
    29c4:	00e51513          	slli	x10,x10,0xe
    29c8:	00200593          	addi	x11,x0,2
    29cc:	40b5563b          	sraw	x12,x10,x11
    29d0:	44c33423          	sd	x12,1096(x6)
    29d4:	000010b7          	lui	x1,0x1
    29d8:	00c08463          	beq	x1,x12,0x29e0
    29dc:	e48fe06f          	jal	x0,0x1024
    29e0:	0380006f          	jal	x0,0x2a18
    29e4:	1f813483          	ld	x9,504(x2)
    29e8:	20013303          	ld	x6,512(x2)
    29ec:	00930333          	add	x6,x6,x9
    29f0:	00000337          	lui	x6,0x0
    29f4:	00030313          	addi	x6,x6,0 # 0x0
    29f8:	00b31313          	slli	x6,x6,0xb
    29fc:	5d630313          	addi	x6,x6,1494
    2a00:	00b31313          	slli	x6,x6,0xb
    2a04:	43630313          	addi	x6,x6,1078
    2a08:	00a31313          	slli	x6,x6,0xa
    2a0c:	2d030313          	addi	x6,x6,720
    2a10:	fe64be23          	sd	x6,-4(x9) # 0x1fffc
    2a14:	0040006f          	jal	x0,0x2a18
    2a18:	00000513          	addi	x10,x0,0
    2a1c:	0240006f          	jal	x0,0x2a40
	...
    2a40:	00050513          	addi	x10,x10,0
    2a44:	00100073          	ebreak
    2a48:	0000006f          	jal	x0,0x2a48
    2a4c:	ff010113          	addi	x2,x2,-16
    2a50:	00000517          	auipc	x10,0x0
    2a54:	02050513          	addi	x10,x10,32 # 0x2a70
    2a58:	00113423          	sd	x1,8(x2)
    2a5c:	db4fe0ef          	jal	x1,0x1010
    2a60:	00050513          	addi	x10,x10,0
    2a64:	00100073          	ebreak
    2a68:	0000006f          	jal	x0,0x2a68
	...
    3000:	cafe                	c.swsp	x31,84(x2)
    3002:	babe                	c.fsdsp	f15,368(x2)
    3004:	cafe                	c.swsp	x31,84(x2)
    3006:	babe                	c.fsdsp	f15,368(x2)
    3008:	cafe                	c.swsp	x31,84(x2)
    300a:	babe                	c.fsdsp	f15,368(x2)
    300c:	cafe                	c.swsp	x31,84(x2)
    300e:	babe                	c.fsdsp	f15,368(x2)
    3010:	deadbeef          	jal	x29,0xfffffffffffde5fa
    3014:	deadbeef          	jal	x29,0xfffffffffffde5fe
	...
    4000:	b281                	c.j	0x3940
    4002:	e7d4                	c.sd	x13,136(x15)
    4004:	a309                	c.j	0x4506
    4006:	6f5c                	c.ld	x15,152(x14)
    4008:	deadbeef          	jal	x29,0xfffffffffffdf5f2
    400c:	deadbeef          	jal	x29,0xfffffffffffdf5f6
    4010:	deadbeef          	jal	x29,0xfffffffffffdf5fa
    4014:	deadbeef          	jal	x29,0xfffffffffffdf5fe
    4018:	deadbeef          	jal	x29,0xfffffffffffdf602
    401c:	deadbeef          	jal	x29,0xfffffffffffdf606
    4020:	deadbeef          	jal	x29,0xfffffffffffdf60a
    4024:	deadbeef          	jal	x29,0xfffffffffffdf60e
    4028:	deadbeef          	jal	x29,0xfffffffffffdf612
    402c:	deadbeef          	jal	x29,0xfffffffffffdf616
    4030:	deadbeef          	jal	x29,0xfffffffffffdf61a
    4034:	deadbeef          	jal	x29,0xfffffffffffdf61e
    4038:	deadbeef          	jal	x29,0xfffffffffffdf622
    403c:	deadbeef          	jal	x29,0xfffffffffffdf626
    4040:	deadbeef          	jal	x29,0xfffffffffffdf62a
    4044:	deadbeef          	jal	x29,0xfffffffffffdf62e
    4048:	deadbeef          	jal	x29,0xfffffffffffdf632
    404c:	deadbeef          	jal	x29,0xfffffffffffdf636
    4050:	deadbeef          	jal	x29,0xfffffffffffdf63a
    4054:	deadbeef          	jal	x29,0xfffffffffffdf63e
    4058:	deadbeef          	jal	x29,0xfffffffffffdf642
    405c:	deadbeef          	jal	x29,0xfffffffffffdf646
    4060:	deadbeef          	jal	x29,0xfffffffffffdf64a
    4064:	deadbeef          	jal	x29,0xfffffffffffdf64e
    4068:	deadbeef          	jal	x29,0xfffffffffffdf652
    406c:	deadbeef          	jal	x29,0xfffffffffffdf656
    4070:	deadbeef          	jal	x29,0xfffffffffffdf65a
    4074:	deadbeef          	jal	x29,0xfffffffffffdf65e
    4078:	deadbeef          	jal	x29,0xfffffffffffdf662
    407c:	deadbeef          	jal	x29,0xfffffffffffdf666
    4080:	deadbeef          	jal	x29,0xfffffffffffdf66a
    4084:	deadbeef          	jal	x29,0xfffffffffffdf66e
    4088:	deadbeef          	jal	x29,0xfffffffffffdf672
    408c:	deadbeef          	jal	x29,0xfffffffffffdf676
    4090:	deadbeef          	jal	x29,0xfffffffffffdf67a
    4094:	deadbeef          	jal	x29,0xfffffffffffdf67e
    4098:	deadbeef          	jal	x29,0xfffffffffffdf682
    409c:	deadbeef          	jal	x29,0xfffffffffffdf686
    40a0:	deadbeef          	jal	x29,0xfffffffffffdf68a
    40a4:	deadbeef          	jal	x29,0xfffffffffffdf68e
    40a8:	deadbeef          	jal	x29,0xfffffffffffdf692
    40ac:	deadbeef          	jal	x29,0xfffffffffffdf696
    40b0:	deadbeef          	jal	x29,0xfffffffffffdf69a
    40b4:	deadbeef          	jal	x29,0xfffffffffffdf69e
    40b8:	deadbeef          	jal	x29,0xfffffffffffdf6a2
    40bc:	deadbeef          	jal	x29,0xfffffffffffdf6a6
    40c0:	deadbeef          	jal	x29,0xfffffffffffdf6aa
    40c4:	deadbeef          	jal	x29,0xfffffffffffdf6ae
    40c8:	deadbeef          	jal	x29,0xfffffffffffdf6b2
    40cc:	deadbeef          	jal	x29,0xfffffffffffdf6b6
    40d0:	deadbeef          	jal	x29,0xfffffffffffdf6ba
    40d4:	deadbeef          	jal	x29,0xfffffffffffdf6be
    40d8:	deadbeef          	jal	x29,0xfffffffffffdf6c2
    40dc:	deadbeef          	jal	x29,0xfffffffffffdf6c6
    40e0:	deadbeef          	jal	x29,0xfffffffffffdf6ca
    40e4:	deadbeef          	jal	x29,0xfffffffffffdf6ce
    40e8:	deadbeef          	jal	x29,0xfffffffffffdf6d2
    40ec:	deadbeef          	jal	x29,0xfffffffffffdf6d6
    40f0:	deadbeef          	jal	x29,0xfffffffffffdf6da
    40f4:	deadbeef          	jal	x29,0xfffffffffffdf6de
    40f8:	deadbeef          	jal	x29,0xfffffffffffdf6e2
    40fc:	deadbeef          	jal	x29,0xfffffffffffdf6e6
    4100:	deadbeef          	jal	x29,0xfffffffffffdf6ea
    4104:	deadbeef          	jal	x29,0xfffffffffffdf6ee
    4108:	deadbeef          	jal	x29,0xfffffffffffdf6f2
    410c:	deadbeef          	jal	x29,0xfffffffffffdf6f6
    4110:	deadbeef          	jal	x29,0xfffffffffffdf6fa
    4114:	deadbeef          	jal	x29,0xfffffffffffdf6fe
    4118:	deadbeef          	jal	x29,0xfffffffffffdf702
    411c:	deadbeef          	jal	x29,0xfffffffffffdf706
    4120:	deadbeef          	jal	x29,0xfffffffffffdf70a
    4124:	deadbeef          	jal	x29,0xfffffffffffdf70e
    4128:	deadbeef          	jal	x29,0xfffffffffffdf712
    412c:	deadbeef          	jal	x29,0xfffffffffffdf716
    4130:	deadbeef          	jal	x29,0xfffffffffffdf71a
    4134:	deadbeef          	jal	x29,0xfffffffffffdf71e
    4138:	deadbeef          	jal	x29,0xfffffffffffdf722
    413c:	deadbeef          	jal	x29,0xfffffffffffdf726
    4140:	deadbeef          	jal	x29,0xfffffffffffdf72a
    4144:	deadbeef          	jal	x29,0xfffffffffffdf72e
    4148:	deadbeef          	jal	x29,0xfffffffffffdf732
    414c:	deadbeef          	jal	x29,0xfffffffffffdf736
    4150:	deadbeef          	jal	x29,0xfffffffffffdf73a
    4154:	deadbeef          	jal	x29,0xfffffffffffdf73e
    4158:	deadbeef          	jal	x29,0xfffffffffffdf742
    415c:	deadbeef          	jal	x29,0xfffffffffffdf746
    4160:	deadbeef          	jal	x29,0xfffffffffffdf74a
    4164:	deadbeef          	jal	x29,0xfffffffffffdf74e
    4168:	deadbeef          	jal	x29,0xfffffffffffdf752
    416c:	deadbeef          	jal	x29,0xfffffffffffdf756
    4170:	deadbeef          	jal	x29,0xfffffffffffdf75a
    4174:	deadbeef          	jal	x29,0xfffffffffffdf75e
    4178:	deadbeef          	jal	x29,0xfffffffffffdf762
    417c:	deadbeef          	jal	x29,0xfffffffffffdf766
    4180:	deadbeef          	jal	x29,0xfffffffffffdf76a
    4184:	deadbeef          	jal	x29,0xfffffffffffdf76e
    4188:	deadbeef          	jal	x29,0xfffffffffffdf772
    418c:	deadbeef          	jal	x29,0xfffffffffffdf776
    4190:	deadbeef          	jal	x29,0xfffffffffffdf77a
    4194:	deadbeef          	jal	x29,0xfffffffffffdf77e
    4198:	deadbeef          	jal	x29,0xfffffffffffdf782
    419c:	deadbeef          	jal	x29,0xfffffffffffdf786
    41a0:	deadbeef          	jal	x29,0xfffffffffffdf78a
    41a4:	deadbeef          	jal	x29,0xfffffffffffdf78e
    41a8:	deadbeef          	jal	x29,0xfffffffffffdf792
    41ac:	deadbeef          	jal	x29,0xfffffffffffdf796
    41b0:	deadbeef          	jal	x29,0xfffffffffffdf79a
    41b4:	deadbeef          	jal	x29,0xfffffffffffdf79e
    41b8:	deadbeef          	jal	x29,0xfffffffffffdf7a2
    41bc:	deadbeef          	jal	x29,0xfffffffffffdf7a6
    41c0:	deadbeef          	jal	x29,0xfffffffffffdf7aa
    41c4:	deadbeef          	jal	x29,0xfffffffffffdf7ae
    41c8:	deadbeef          	jal	x29,0xfffffffffffdf7b2
    41cc:	deadbeef          	jal	x29,0xfffffffffffdf7b6
    41d0:	deadbeef          	jal	x29,0xfffffffffffdf7ba
    41d4:	deadbeef          	jal	x29,0xfffffffffffdf7be
    41d8:	deadbeef          	jal	x29,0xfffffffffffdf7c2
    41dc:	deadbeef          	jal	x29,0xfffffffffffdf7c6
    41e0:	deadbeef          	jal	x29,0xfffffffffffdf7ca
    41e4:	deadbeef          	jal	x29,0xfffffffffffdf7ce
    41e8:	deadbeef          	jal	x29,0xfffffffffffdf7d2
    41ec:	deadbeef          	jal	x29,0xfffffffffffdf7d6
    41f0:	deadbeef          	jal	x29,0xfffffffffffdf7da
    41f4:	deadbeef          	jal	x29,0xfffffffffffdf7de
    41f8:	deadbeef          	jal	x29,0xfffffffffffdf7e2
    41fc:	deadbeef          	jal	x29,0xfffffffffffdf7e6
    4200:	deadbeef          	jal	x29,0xfffffffffffdf7ea
    4204:	deadbeef          	jal	x29,0xfffffffffffdf7ee
    4208:	deadbeef          	jal	x29,0xfffffffffffdf7f2
    420c:	deadbeef          	jal	x29,0xfffffffffffdf7f6
    4210:	deadbeef          	jal	x29,0xfffffffffffdf7fa
    4214:	deadbeef          	jal	x29,0xfffffffffffdf7fe
    4218:	deadbeef          	jal	x29,0xfffffffffffdf802
    421c:	deadbeef          	jal	x29,0xfffffffffffdf806
    4220:	deadbeef          	jal	x29,0xfffffffffffdf80a
    4224:	deadbeef          	jal	x29,0xfffffffffffdf80e
    4228:	deadbeef          	jal	x29,0xfffffffffffdf812
    422c:	deadbeef          	jal	x29,0xfffffffffffdf816
    4230:	deadbeef          	jal	x29,0xfffffffffffdf81a
    4234:	deadbeef          	jal	x29,0xfffffffffffdf81e
    4238:	deadbeef          	jal	x29,0xfffffffffffdf822
    423c:	deadbeef          	jal	x29,0xfffffffffffdf826
    4240:	deadbeef          	jal	x29,0xfffffffffffdf82a
    4244:	deadbeef          	jal	x29,0xfffffffffffdf82e
    4248:	deadbeef          	jal	x29,0xfffffffffffdf832
    424c:	deadbeef          	jal	x29,0xfffffffffffdf836
    4250:	deadbeef          	jal	x29,0xfffffffffffdf83a
    4254:	deadbeef          	jal	x29,0xfffffffffffdf83e
    4258:	deadbeef          	jal	x29,0xfffffffffffdf842
    425c:	deadbeef          	jal	x29,0xfffffffffffdf846
    4260:	deadbeef          	jal	x29,0xfffffffffffdf84a
    4264:	deadbeef          	jal	x29,0xfffffffffffdf84e
    4268:	deadbeef          	jal	x29,0xfffffffffffdf852
    426c:	deadbeef          	jal	x29,0xfffffffffffdf856
    4270:	deadbeef          	jal	x29,0xfffffffffffdf85a
    4274:	deadbeef          	jal	x29,0xfffffffffffdf85e
    4278:	deadbeef          	jal	x29,0xfffffffffffdf862
    427c:	deadbeef          	jal	x29,0xfffffffffffdf866
    4280:	deadbeef          	jal	x29,0xfffffffffffdf86a
    4284:	deadbeef          	jal	x29,0xfffffffffffdf86e
    4288:	deadbeef          	jal	x29,0xfffffffffffdf872
    428c:	deadbeef          	jal	x29,0xfffffffffffdf876
    4290:	deadbeef          	jal	x29,0xfffffffffffdf87a
    4294:	deadbeef          	jal	x29,0xfffffffffffdf87e
    4298:	deadbeef          	jal	x29,0xfffffffffffdf882
    429c:	deadbeef          	jal	x29,0xfffffffffffdf886
    42a0:	deadbeef          	jal	x29,0xfffffffffffdf88a
    42a4:	deadbeef          	jal	x29,0xfffffffffffdf88e
    42a8:	deadbeef          	jal	x29,0xfffffffffffdf892
    42ac:	deadbeef          	jal	x29,0xfffffffffffdf896
    42b0:	deadbeef          	jal	x29,0xfffffffffffdf89a
    42b4:	deadbeef          	jal	x29,0xfffffffffffdf89e
    42b8:	deadbeef          	jal	x29,0xfffffffffffdf8a2
    42bc:	deadbeef          	jal	x29,0xfffffffffffdf8a6
    42c0:	deadbeef          	jal	x29,0xfffffffffffdf8aa
    42c4:	deadbeef          	jal	x29,0xfffffffffffdf8ae
    42c8:	deadbeef          	jal	x29,0xfffffffffffdf8b2
    42cc:	deadbeef          	jal	x29,0xfffffffffffdf8b6
    42d0:	deadbeef          	jal	x29,0xfffffffffffdf8ba
    42d4:	deadbeef          	jal	x29,0xfffffffffffdf8be
    42d8:	deadbeef          	jal	x29,0xfffffffffffdf8c2
    42dc:	deadbeef          	jal	x29,0xfffffffffffdf8c6
    42e0:	deadbeef          	jal	x29,0xfffffffffffdf8ca
    42e4:	deadbeef          	jal	x29,0xfffffffffffdf8ce
    42e8:	deadbeef          	jal	x29,0xfffffffffffdf8d2
    42ec:	deadbeef          	jal	x29,0xfffffffffffdf8d6
    42f0:	deadbeef          	jal	x29,0xfffffffffffdf8da
    42f4:	deadbeef          	jal	x29,0xfffffffffffdf8de
    42f8:	deadbeef          	jal	x29,0xfffffffffffdf8e2
    42fc:	deadbeef          	jal	x29,0xfffffffffffdf8e6
    4300:	deadbeef          	jal	x29,0xfffffffffffdf8ea
    4304:	deadbeef          	jal	x29,0xfffffffffffdf8ee
    4308:	deadbeef          	jal	x29,0xfffffffffffdf8f2
    430c:	deadbeef          	jal	x29,0xfffffffffffdf8f6
    4310:	deadbeef          	jal	x29,0xfffffffffffdf8fa
    4314:	deadbeef          	jal	x29,0xfffffffffffdf8fe
    4318:	deadbeef          	jal	x29,0xfffffffffffdf902
    431c:	deadbeef          	jal	x29,0xfffffffffffdf906
    4320:	deadbeef          	jal	x29,0xfffffffffffdf90a
    4324:	deadbeef          	jal	x29,0xfffffffffffdf90e
    4328:	deadbeef          	jal	x29,0xfffffffffffdf912
    432c:	deadbeef          	jal	x29,0xfffffffffffdf916
    4330:	deadbeef          	jal	x29,0xfffffffffffdf91a
    4334:	deadbeef          	jal	x29,0xfffffffffffdf91e
    4338:	deadbeef          	jal	x29,0xfffffffffffdf922
    433c:	deadbeef          	jal	x29,0xfffffffffffdf926
    4340:	deadbeef          	jal	x29,0xfffffffffffdf92a
    4344:	deadbeef          	jal	x29,0xfffffffffffdf92e
    4348:	deadbeef          	jal	x29,0xfffffffffffdf932
    434c:	deadbeef          	jal	x29,0xfffffffffffdf936
    4350:	deadbeef          	jal	x29,0xfffffffffffdf93a
    4354:	deadbeef          	jal	x29,0xfffffffffffdf93e
    4358:	deadbeef          	jal	x29,0xfffffffffffdf942
    435c:	deadbeef          	jal	x29,0xfffffffffffdf946
    4360:	deadbeef          	jal	x29,0xfffffffffffdf94a
    4364:	deadbeef          	jal	x29,0xfffffffffffdf94e
    4368:	deadbeef          	jal	x29,0xfffffffffffdf952
    436c:	deadbeef          	jal	x29,0xfffffffffffdf956
    4370:	deadbeef          	jal	x29,0xfffffffffffdf95a
    4374:	deadbeef          	jal	x29,0xfffffffffffdf95e
    4378:	deadbeef          	jal	x29,0xfffffffffffdf962
    437c:	deadbeef          	jal	x29,0xfffffffffffdf966
    4380:	deadbeef          	jal	x29,0xfffffffffffdf96a
    4384:	deadbeef          	jal	x29,0xfffffffffffdf96e
    4388:	deadbeef          	jal	x29,0xfffffffffffdf972
    438c:	deadbeef          	jal	x29,0xfffffffffffdf976
    4390:	deadbeef          	jal	x29,0xfffffffffffdf97a
    4394:	deadbeef          	jal	x29,0xfffffffffffdf97e
    4398:	deadbeef          	jal	x29,0xfffffffffffdf982
    439c:	deadbeef          	jal	x29,0xfffffffffffdf986
    43a0:	deadbeef          	jal	x29,0xfffffffffffdf98a
    43a4:	deadbeef          	jal	x29,0xfffffffffffdf98e
    43a8:	deadbeef          	jal	x29,0xfffffffffffdf992
    43ac:	deadbeef          	jal	x29,0xfffffffffffdf996
    43b0:	deadbeef          	jal	x29,0xfffffffffffdf99a
    43b4:	deadbeef          	jal	x29,0xfffffffffffdf99e
    43b8:	deadbeef          	jal	x29,0xfffffffffffdf9a2
    43bc:	deadbeef          	jal	x29,0xfffffffffffdf9a6
    43c0:	deadbeef          	jal	x29,0xfffffffffffdf9aa
    43c4:	deadbeef          	jal	x29,0xfffffffffffdf9ae
    43c8:	deadbeef          	jal	x29,0xfffffffffffdf9b2
    43cc:	deadbeef          	jal	x29,0xfffffffffffdf9b6
    43d0:	deadbeef          	jal	x29,0xfffffffffffdf9ba
    43d4:	deadbeef          	jal	x29,0xfffffffffffdf9be
    43d8:	deadbeef          	jal	x29,0xfffffffffffdf9c2
    43dc:	deadbeef          	jal	x29,0xfffffffffffdf9c6
    43e0:	deadbeef          	jal	x29,0xfffffffffffdf9ca
    43e4:	deadbeef          	jal	x29,0xfffffffffffdf9ce
    43e8:	deadbeef          	jal	x29,0xfffffffffffdf9d2
    43ec:	deadbeef          	jal	x29,0xfffffffffffdf9d6
    43f0:	deadbeef          	jal	x29,0xfffffffffffdf9da
    43f4:	deadbeef          	jal	x29,0xfffffffffffdf9de
    43f8:	deadbeef          	jal	x29,0xfffffffffffdf9e2
    43fc:	deadbeef          	jal	x29,0xfffffffffffdf9e6
    4400:	deadbeef          	jal	x29,0xfffffffffffdf9ea
    4404:	deadbeef          	jal	x29,0xfffffffffffdf9ee
    4408:	deadbeef          	jal	x29,0xfffffffffffdf9f2
    440c:	deadbeef          	jal	x29,0xfffffffffffdf9f6
    4410:	deadbeef          	jal	x29,0xfffffffffffdf9fa
    4414:	deadbeef          	jal	x29,0xfffffffffffdf9fe
    4418:	deadbeef          	jal	x29,0xfffffffffffdfa02
    441c:	deadbeef          	jal	x29,0xfffffffffffdfa06
    4420:	deadbeef          	jal	x29,0xfffffffffffdfa0a
    4424:	deadbeef          	jal	x29,0xfffffffffffdfa0e
    4428:	deadbeef          	jal	x29,0xfffffffffffdfa12
    442c:	deadbeef          	jal	x29,0xfffffffffffdfa16
    4430:	deadbeef          	jal	x29,0xfffffffffffdfa1a
    4434:	deadbeef          	jal	x29,0xfffffffffffdfa1e
    4438:	deadbeef          	jal	x29,0xfffffffffffdfa22
    443c:	deadbeef          	jal	x29,0xfffffffffffdfa26
    4440:	deadbeef          	jal	x29,0xfffffffffffdfa2a
    4444:	deadbeef          	jal	x29,0xfffffffffffdfa2e
    4448:	deadbeef          	jal	x29,0xfffffffffffdfa32
    444c:	deadbeef          	jal	x29,0xfffffffffffdfa36
    4450:	deadbeef          	jal	x29,0xfffffffffffdfa3a
    4454:	deadbeef          	jal	x29,0xfffffffffffdfa3e
    4458:	deadbeef          	jal	x29,0xfffffffffffdfa42
    445c:	deadbeef          	jal	x29,0xfffffffffffdfa46
    4460:	deadbeef          	jal	x29,0xfffffffffffdfa4a
    4464:	deadbeef          	jal	x29,0xfffffffffffdfa4e
    4468:	deadbeef          	jal	x29,0xfffffffffffdfa52
    446c:	deadbeef          	jal	x29,0xfffffffffffdfa56
    4470:	deadbeef          	jal	x29,0xfffffffffffdfa5a
    4474:	deadbeef          	jal	x29,0xfffffffffffdfa5e
    4478:	deadbeef          	jal	x29,0xfffffffffffdfa62
    447c:	deadbeef          	jal	x29,0xfffffffffffdfa66
    4480:	deadbeef          	jal	x29,0xfffffffffffdfa6a
    4484:	deadbeef          	jal	x29,0xfffffffffffdfa6e
    4488:	deadbeef          	jal	x29,0xfffffffffffdfa72
    448c:	deadbeef          	jal	x29,0xfffffffffffdfa76
    4490:	deadbeef          	jal	x29,0xfffffffffffdfa7a
    4494:	deadbeef          	jal	x29,0xfffffffffffdfa7e
    4498:	deadbeef          	jal	x29,0xfffffffffffdfa82
    449c:	deadbeef          	jal	x29,0xfffffffffffdfa86
    44a0:	deadbeef          	jal	x29,0xfffffffffffdfa8a
    44a4:	deadbeef          	jal	x29,0xfffffffffffdfa8e
    44a8:	deadbeef          	jal	x29,0xfffffffffffdfa92
    44ac:	deadbeef          	jal	x29,0xfffffffffffdfa96
    44b0:	deadbeef          	jal	x29,0xfffffffffffdfa9a
    44b4:	deadbeef          	jal	x29,0xfffffffffffdfa9e
    44b8:	deadbeef          	jal	x29,0xfffffffffffdfaa2
    44bc:	deadbeef          	jal	x29,0xfffffffffffdfaa6
    44c0:	deadbeef          	jal	x29,0xfffffffffffdfaaa
    44c4:	deadbeef          	jal	x29,0xfffffffffffdfaae
    44c8:	deadbeef          	jal	x29,0xfffffffffffdfab2
    44cc:	deadbeef          	jal	x29,0xfffffffffffdfab6
    44d0:	deadbeef          	jal	x29,0xfffffffffffdfaba
    44d4:	deadbeef          	jal	x29,0xfffffffffffdfabe
    44d8:	b281                	c.j	0x3e18
    44da:	e7d4                	c.sd	x13,136(x15)
    44dc:	a309                	c.j	0x49de
    44de:	6f5c                	c.ld	x15,152(x14)
    44e0:	3a434347          	fmsub.d	f6,f6,f4,f7,rmm
    44e4:	2820                	c.fld	f8,80(x8)
    44e6:	6255                	c.lui	x4,0x15
    44e8:	6e75                	c.lui	x28,0x1d
    44ea:	7574                	c.ld	x13,232(x10)
    44ec:	3120                	c.fld	f8,96(x10)
    44ee:	2e31                	c.addiw	x28,12 # 0x1d00c
    44f0:	2e32                	c.fldsp	f28,264(x2)
    44f2:	2d30                	c.fld	f12,88(x10)
    44f4:	3631                	c.addiw	x12,-20
    44f6:	6275                	c.lui	x4,0x1d
    44f8:	6e75                	c.lui	x28,0x1d
    44fa:	7574                	c.ld	x13,232(x10)
    44fc:	2931                	c.addiw	x18,12
    44fe:	3120                	c.fld	f8,96(x10)
    4500:	2e31                	c.addiw	x28,12 # 0x1d00c
    4502:	2e32                	c.fldsp	f28,264(x2)
    4504:	0030                	c.addi4spn	x12,x2,8
    4506:	2d41                	c.addiw	x26,16
    4508:	0000                	c.unimp
    450a:	7200                	c.ld	x8,32(x12)
    450c:	7369                	c.lui	x6,0xffffa
    450e:	01007663          	bgeu	x0,x16,0x451a
    4512:	00000023          	sb	x0,0(x0) # 0x0
    4516:	7205                	c.lui	x4,0xfffe1
    4518:	3676                	c.fldsp	f12,376(x2)
    451a:	6934                	c.ld	x13,80(x10)
    451c:	7032                	.insn	2, 0x7032
    451e:	5f30                	c.lw	x12,120(x14)
    4520:	326d                	c.addiw	x4,-5 # 0xfffffffffffe0ffb
    4522:	3070                	c.fld	f12,224(x8)
    4524:	615f 7032 5f30      	.insn	6, 0x5f307032615f
    452a:	3266                	c.fldsp	f4,120(x2)
    452c:	3070                	c.fld	f12,224(x8)
    452e:	645f 7032 0030      	.insn	6, 0x00307032645f
	...
    4554:	00010003          	lb	x0,0(x2)
    4558:	0000                	c.unimp
    455a:	8000                	.insn	2, 0x8000
	...
    456c:	00020003          	lb	x0,0(x4) # 0x0
    4570:	1a70                	c.addi4spn	x12,x2,316
    4572:	8000                	.insn	2, 0x8000
	...
    4584:	00030003          	lb	x0,0(x6) # 0xffffffffffffa000
    4588:	2000                	c.fld	f8,0(x8)
    458a:	8000                	.insn	2, 0x8000
	...
    459c:	00040003          	lb	x0,0(x8)
	...
    45b4:	00050003          	lb	x0,0(x10)
	...
    45c8:	0001                	c.addi	x0,0
    45ca:	0000                	c.unimp
    45cc:	0004                	.insn	2, 0x0004
    45ce:	fff1                	c.bnez	x15,0x45aa
	...
    45e0:	0009                	c.addi	x0,2
    45e2:	0000                	c.unimp
    45e4:	0000                	c.unimp
    45e6:	0001                	c.addi	x0,0
    45e8:	0000                	c.unimp
    45ea:	8000                	.insn	2, 0x8000
	...
    45f8:	000c                	.insn	2, 0x000c
    45fa:	0000                	c.unimp
    45fc:	0004                	.insn	2, 0x0004
    45fe:	fff1                	c.bnez	x15,0x45da
	...
    4610:	0009                	c.addi	x0,2
    4612:	0000                	c.unimp
    4614:	0000                	c.unimp
    4616:	0001                	c.addi	x0,0
    4618:	0010                	.insn	2, 0x0010
    461a:	8000                	.insn	2, 0x8000
	...
    4628:	0009                	c.addi	x0,2
    462a:	0000                	c.unimp
    462c:	0000                	c.unimp
    462e:	0001                	c.addi	x0,0
    4630:	0024                	c.addi4spn	x9,x2,8
    4632:	8000                	.insn	2, 0x8000
	...
    4640:	00000013          	addi	x0,x0,0
    4644:	0004                	.insn	2, 0x0004
    4646:	fff1                	c.bnez	x15,0x4622
	...
    4658:	001d                	c.addi	x0,7
    465a:	0000                	c.unimp
    465c:	0000                	c.unimp
    465e:	fff1                	c.bnez	x15,0x463a
    4660:	00000003          	lb	x0,0(x0) # 0x0
	...
    4670:	00000027          	.insn	4, 0x0027
    4674:	0000                	c.unimp
    4676:	fff1                	c.bnez	x15,0x4652
    4678:	0001                	c.addi	x0,0
	...
    4686:	0000                	c.unimp
    4688:	0031                	c.addi	x0,12
    468a:	0000                	c.unimp
    468c:	0000                	c.unimp
    468e:	fff1                	c.bnez	x15,0x466a
    4690:	0002                	c.slli64	x0
	...
    469e:	0000                	c.unimp
    46a0:	0009                	c.addi	x0,2
    46a2:	0000                	c.unimp
    46a4:	0000                	c.unimp
    46a6:	0001                	c.addi	x0,0
    46a8:	0040                	c.addi4spn	x8,x2,4
    46aa:	8000                	.insn	2, 0x8000
	...
    46b8:	0000003b          	addw	x0,x0,x0
    46bc:	0000                	c.unimp
    46be:	fff1                	c.bnez	x15,0x469a
    46c0:	dad0                	c.sw	x12,52(x13)
    46c2:	bad0                	c.fsd	f12,176(x13)
	...
    46d0:	0040                	c.addi4spn	x8,x2,4
    46d2:	0000                	c.unimp
    46d4:	0000                	c.unimp
    46d6:	fff1                	c.bnez	x15,0x46b2
    46d8:	0004                	.insn	2, 0x0004
	...
    46e6:	0000                	c.unimp
    46e8:	0046                	c.slli	x0,0x11
    46ea:	0000                	c.unimp
    46ec:	0000                	c.unimp
    46ee:	fff1                	c.bnez	x15,0x46ca
    46f0:	0005                	c.addi	x0,1
	...
    46fe:	0000                	c.unimp
    4700:	004c                	c.addi4spn	x11,x2,4
    4702:	0000                	c.unimp
    4704:	0000                	c.unimp
    4706:	fff1                	c.bnez	x15,0x46e2
	...
    4718:	0051                	c.addi	x0,20
    471a:	0000                	c.unimp
    471c:	0000                	c.unimp
    471e:	fff1                	c.bnez	x15,0x46fa
	...
    4730:	0056                	c.slli	x0,0x15
    4732:	0000                	c.unimp
    4734:	0000                	c.unimp
    4736:	fff1                	c.bnez	x15,0x4712
    4738:	dad0                	c.sw	x12,52(x13)
    473a:	bad0                	c.fsd	f12,176(x13)
	...
    4748:	0000005b          	.insn	4, 0x005b
    474c:	0000                	c.unimp
    474e:	fff1                	c.bnez	x15,0x472a
    4750:	0040                	c.addi4spn	x8,x2,4
	...
    475e:	0000                	c.unimp
    4760:	005f 0000 0000      	.insn	6, 0x005f
    4766:	fff1                	c.bnez	x15,0x4742
    4768:	dad0                	c.sw	x12,52(x13)
    476a:	bad0                	c.fsd	f12,176(x13)
	...
    4778:	0066                	c.slli	x0,0x19
    477a:	0000                	c.unimp
    477c:	0000                	c.unimp
    477e:	fff1                	c.bnez	x15,0x475a
    4780:	0001                	c.addi	x0,0
	...
    478e:	0000                	c.unimp
    4790:	006a                	c.slli	x0,0x1a
    4792:	0000                	c.unimp
    4794:	0000                	c.unimp
    4796:	fff1                	c.bnez	x15,0x4772
    4798:	fad0                	c.sd	x12,176(x13)
    479a:	ffff                	.insn	2, 0xffff
    479c:	ffff                	.insn	2, 0xffff
    479e:	ffff                	.insn	2, 0xffff
	...
    47a8:	0070                	c.addi4spn	x12,x2,12
    47aa:	0000                	c.unimp
    47ac:	0000                	c.unimp
    47ae:	fff1                	c.bnez	x15,0x478a
    47b0:	0001                	c.addi	x0,0
	...
    47be:	0000                	c.unimp
    47c0:	0075                	c.addi	x0,29
    47c2:	0000                	c.unimp
    47c4:	0000                	c.unimp
    47c6:	fff1                	c.bnez	x15,0x47a2
	...
    47d8:	007a                	c.slli	x0,0x1e
    47da:	0000                	c.unimp
    47dc:	0000                	c.unimp
    47de:	fff1                	c.bnez	x15,0x47ba
    47e0:	0dad                	c.addi	x27,11
    47e2:	0bad                	c.addi	x23,11
	...
    47f0:	0081                	c.addi	x1,0 # 0x1000
    47f2:	0000                	c.unimp
    47f4:	0000                	c.unimp
    47f6:	fff1                	c.bnez	x15,0x47d2
    47f8:	fdad                	c.bnez	x11,0x4772
    47fa:	ffff                	.insn	2, 0xffff
    47fc:	ffff                	.insn	2, 0xffff
    47fe:	ffff                	.insn	2, 0xffff
	...
    4808:	0089                	c.addi	x1,2
    480a:	0000                	c.unimp
    480c:	0000                	c.unimp
    480e:	fff1                	c.bnez	x15,0x47ea
    4810:	0001                	c.addi	x0,0
	...
    481e:	0000                	c.unimp
    4820:	0000008f          	.insn	4, 0x008f
    4824:	0000                	c.unimp
    4826:	fff1                	c.bnez	x15,0x4802
    4828:	0dad                	c.addi	x27,11
    482a:	0bad                	c.addi	x23,11
	...
    4838:	0098                	c.addi4spn	x14,x2,64
    483a:	0000                	c.unimp
    483c:	0000                	c.unimp
    483e:	30080003          	lb	x0,768(x16)
    4842:	8000                	.insn	2, 0x8000
	...
    4850:	000006db          	.insn	4, 0x06db
    4854:	0000                	c.unimp
    4856:	fff1                	c.bnez	x15,0x4832
    4858:	0450                	c.addi4spn	x12,x2,516
	...
    4866:	0000                	c.unimp
    4868:	000000a7          	.insn	4, 0x00a7
    486c:	0000                	c.unimp
    486e:	0001                	c.addi	x0,0
    4870:	0440                	c.addi4spn	x8,x2,516
    4872:	8000                	.insn	2, 0x8000
	...
    4880:	00ae                	c.slli	x1,0xb
    4882:	0000                	c.unimp
    4884:	0000                	c.unimp
    4886:	0001                	c.addi	x0,0
    4888:	045c                	c.addi4spn	x15,x2,516
    488a:	8000                	.insn	2, 0x8000
	...
    4898:	00b5                	c.addi	x1,13
    489a:	0000                	c.unimp
    489c:	0000                	c.unimp
    489e:	0001                	c.addi	x0,0
    48a0:	047c                	c.addi4spn	x15,x2,524
    48a2:	8000                	.insn	2, 0x8000
	...
    48b0:	00bc                	c.addi4spn	x15,x2,72
    48b2:	0000                	c.unimp
    48b4:	0000                	c.unimp
    48b6:	0001                	c.addi	x0,0
    48b8:	04a8                	c.addi4spn	x10,x2,584
    48ba:	8000                	.insn	2, 0x8000
	...
    48c8:	000000c3          	fmadd.s	f1,f0,f0,f0,rne
    48cc:	0000                	c.unimp
    48ce:	0001                	c.addi	x0,0
    48d0:	04c8                	c.addi4spn	x10,x2,580
    48d2:	8000                	.insn	2, 0x8000
	...
    48e0:	00ca                	c.slli	x1,0x12
    48e2:	0000                	c.unimp
    48e4:	0000                	c.unimp
    48e6:	0001                	c.addi	x0,0
    48e8:	04e4                	c.addi4spn	x9,x2,588
    48ea:	8000                	.insn	2, 0x8000
	...
    48f8:	00d1                	c.addi	x1,20
    48fa:	0000                	c.unimp
    48fc:	0000                	c.unimp
    48fe:	0001                	c.addi	x0,0
    4900:	0504                	c.addi4spn	x9,x2,640
    4902:	8000                	.insn	2, 0x8000
	...
    4910:	00d8                	c.addi4spn	x14,x2,68
    4912:	0000                	c.unimp
    4914:	0000                	c.unimp
    4916:	0001                	c.addi	x0,0
    4918:	0520                	c.addi4spn	x8,x2,648
    491a:	8000                	.insn	2, 0x8000
	...
    4928:	00df 0000 0000      	.insn	6, 0x00df
    492e:	0001                	c.addi	x0,0
    4930:	0540                	c.addi4spn	x8,x2,644
    4932:	8000                	.insn	2, 0x8000
	...
    4940:	00e6                	c.slli	x1,0x19
    4942:	0000                	c.unimp
    4944:	0000                	c.unimp
    4946:	0001                	c.addi	x0,0
    4948:	055c                	c.addi4spn	x15,x2,644
    494a:	8000                	.insn	2, 0x8000
	...
    4958:	00ed                	c.addi	x1,27
    495a:	0000                	c.unimp
    495c:	0000                	c.unimp
    495e:	0001                	c.addi	x0,0
    4960:	0578                	c.addi4spn	x14,x2,652
    4962:	8000                	.insn	2, 0x8000
	...
    4970:	00f5                	c.addi	x1,29
    4972:	0000                	c.unimp
    4974:	0000                	c.unimp
    4976:	0001                	c.addi	x0,0
    4978:	0594                	c.addi4spn	x13,x2,704
    497a:	8000                	.insn	2, 0x8000
	...
    4988:	00fd                	c.addi	x1,31
    498a:	0000                	c.unimp
    498c:	0000                	c.unimp
    498e:	0001                	c.addi	x0,0
    4990:	05b0                	c.addi4spn	x12,x2,712
    4992:	8000                	.insn	2, 0x8000
	...
    49a0:	0105                	c.addi	x2,1
    49a2:	0000                	c.unimp
    49a4:	0000                	c.unimp
    49a6:	0001                	c.addi	x0,0
    49a8:	05cc                	c.addi4spn	x11,x2,708
    49aa:	8000                	.insn	2, 0x8000
	...
    49b8:	010d                	c.addi	x2,3
    49ba:	0000                	c.unimp
    49bc:	0000                	c.unimp
    49be:	0001                	c.addi	x0,0
    49c0:	05e8                	c.addi4spn	x10,x2,716
    49c2:	8000                	.insn	2, 0x8000
	...
    49d0:	0115                	c.addi	x2,5
    49d2:	0000                	c.unimp
    49d4:	0000                	c.unimp
    49d6:	0001                	c.addi	x0,0
    49d8:	0604                	c.addi4spn	x9,x2,768
    49da:	8000                	.insn	2, 0x8000
	...
    49e8:	011d                	c.addi	x2,7
    49ea:	0000                	c.unimp
    49ec:	0000                	c.unimp
    49ee:	30880003          	lb	x0,776(x16)
    49f2:	8000                	.insn	2, 0x8000
	...
    4a00:	012c                	c.addi4spn	x11,x2,136
    4a02:	0000                	c.unimp
    4a04:	0000                	c.unimp
    4a06:	0001                	c.addi	x0,0
    4a08:	0640                	c.addi4spn	x8,x2,772
    4a0a:	8000                	.insn	2, 0x8000
	...
    4a18:	0134                	c.addi4spn	x13,x2,136
    4a1a:	0000                	c.unimp
    4a1c:	0000                	c.unimp
    4a1e:	0001                	c.addi	x0,0
    4a20:	065c                	c.addi4spn	x15,x2,772
    4a22:	8000                	.insn	2, 0x8000
	...
    4a30:	013c                	c.addi4spn	x15,x2,136
    4a32:	0000                	c.unimp
    4a34:	0000                	c.unimp
    4a36:	0001                	c.addi	x0,0
    4a38:	0678                	c.addi4spn	x14,x2,780
    4a3a:	8000                	.insn	2, 0x8000
	...
    4a48:	0144                	c.addi4spn	x9,x2,132
    4a4a:	0000                	c.unimp
    4a4c:	0000                	c.unimp
    4a4e:	0001                	c.addi	x0,0
    4a50:	0694                	c.addi4spn	x13,x2,832
    4a52:	8000                	.insn	2, 0x8000
	...
    4a60:	014c                	c.addi4spn	x11,x2,132
    4a62:	0000                	c.unimp
    4a64:	0000                	c.unimp
    4a66:	0001                	c.addi	x0,0
    4a68:	06b4                	c.addi4spn	x13,x2,840
    4a6a:	8000                	.insn	2, 0x8000
	...
    4a78:	0154                	c.addi4spn	x13,x2,132
    4a7a:	0000                	c.unimp
    4a7c:	0000                	c.unimp
    4a7e:	0001                	c.addi	x0,0
    4a80:	06d4                	c.addi4spn	x13,x2,836
    4a82:	8000                	.insn	2, 0x8000
	...
    4a90:	015c                	c.addi4spn	x15,x2,132
    4a92:	0000                	c.unimp
    4a94:	0000                	c.unimp
    4a96:	0001                	c.addi	x0,0
    4a98:	06f4                	c.addi4spn	x13,x2,844
    4a9a:	8000                	.insn	2, 0x8000
	...
    4aa8:	0164                	c.addi4spn	x9,x2,140
    4aaa:	0000                	c.unimp
    4aac:	0000                	c.unimp
    4aae:	0001                	c.addi	x0,0
    4ab0:	0714                	c.addi4spn	x13,x2,896
    4ab2:	8000                	.insn	2, 0x8000
	...
    4ac0:	016c                	c.addi4spn	x11,x2,140
    4ac2:	0000                	c.unimp
    4ac4:	0000                	c.unimp
    4ac6:	0001                	c.addi	x0,0
    4ac8:	0734                	c.addi4spn	x13,x2,904
    4aca:	8000                	.insn	2, 0x8000
	...
    4ad8:	0174                	c.addi4spn	x13,x2,140
    4ada:	0000                	c.unimp
    4adc:	0000                	c.unimp
    4ade:	0001                	c.addi	x0,0
    4ae0:	0754                	c.addi4spn	x13,x2,900
    4ae2:	8000                	.insn	2, 0x8000
	...
    4af0:	017c                	c.addi4spn	x15,x2,140
    4af2:	0000                	c.unimp
    4af4:	0000                	c.unimp
    4af6:	0001                	c.addi	x0,0
    4af8:	0774                	c.addi4spn	x13,x2,908
    4afa:	8000                	.insn	2, 0x8000
	...
    4b08:	0184                	c.addi4spn	x9,x2,192
    4b0a:	0000                	c.unimp
    4b0c:	0000                	c.unimp
    4b0e:	0001                	c.addi	x0,0
    4b10:	0794                	c.addi4spn	x13,x2,960
    4b12:	8000                	.insn	2, 0x8000
	...
    4b20:	018c                	c.addi4spn	x11,x2,192
    4b22:	0000                	c.unimp
    4b24:	0000                	c.unimp
    4b26:	0001                	c.addi	x0,0
    4b28:	07b4                	c.addi4spn	x13,x2,968
    4b2a:	8000                	.insn	2, 0x8000
	...
    4b38:	0194                	c.addi4spn	x13,x2,192
    4b3a:	0000                	c.unimp
    4b3c:	0000                	c.unimp
    4b3e:	0001                	c.addi	x0,0
    4b40:	07d4                	c.addi4spn	x13,x2,964
    4b42:	8000                	.insn	2, 0x8000
	...
    4b50:	019c                	c.addi4spn	x15,x2,192
    4b52:	0000                	c.unimp
    4b54:	0000                	c.unimp
    4b56:	0001                	c.addi	x0,0
    4b58:	07f4                	c.addi4spn	x13,x2,972
    4b5a:	8000                	.insn	2, 0x8000
	...
    4b68:	01a4                	c.addi4spn	x9,x2,200
    4b6a:	0000                	c.unimp
    4b6c:	0000                	c.unimp
    4b6e:	0001                	c.addi	x0,0
    4b70:	0814                	c.addi4spn	x13,x2,16
    4b72:	8000                	.insn	2, 0x8000
	...
    4b80:	01ac                	c.addi4spn	x11,x2,200
    4b82:	0000                	c.unimp
    4b84:	0000                	c.unimp
    4b86:	0001                	c.addi	x0,0
    4b88:	0834                	c.addi4spn	x13,x2,24
    4b8a:	8000                	.insn	2, 0x8000
	...
    4b98:	01b4                	c.addi4spn	x13,x2,200
    4b9a:	0000                	c.unimp
    4b9c:	0000                	c.unimp
    4b9e:	0001                	c.addi	x0,0
    4ba0:	0854                	c.addi4spn	x13,x2,20
    4ba2:	8000                	.insn	2, 0x8000
	...
    4bb0:	01bc                	c.addi4spn	x15,x2,200
    4bb2:	0000                	c.unimp
    4bb4:	0000                	c.unimp
    4bb6:	0001                	c.addi	x0,0
    4bb8:	0874                	c.addi4spn	x13,x2,28
    4bba:	8000                	.insn	2, 0x8000
	...
    4bc8:	01c4                	c.addi4spn	x9,x2,196
    4bca:	0000                	c.unimp
    4bcc:	0000                	c.unimp
    4bce:	0001                	c.addi	x0,0
    4bd0:	0894                	c.addi4spn	x13,x2,80
    4bd2:	8000                	.insn	2, 0x8000
	...
    4be0:	01cc                	c.addi4spn	x11,x2,196
    4be2:	0000                	c.unimp
    4be4:	0000                	c.unimp
    4be6:	0001                	c.addi	x0,0
    4be8:	08b4                	c.addi4spn	x13,x2,88
    4bea:	8000                	.insn	2, 0x8000
	...
    4bf8:	01d4                	c.addi4spn	x13,x2,196
    4bfa:	0000                	c.unimp
    4bfc:	0000                	c.unimp
    4bfe:	0001                	c.addi	x0,0
    4c00:	08d4                	c.addi4spn	x13,x2,84
    4c02:	8000                	.insn	2, 0x8000
	...
    4c10:	01dc                	c.addi4spn	x15,x2,196
    4c12:	0000                	c.unimp
    4c14:	0000                	c.unimp
    4c16:	0001                	c.addi	x0,0
    4c18:	08f4                	c.addi4spn	x13,x2,92
    4c1a:	8000                	.insn	2, 0x8000
	...
    4c28:	01e4                	c.addi4spn	x9,x2,204
    4c2a:	0000                	c.unimp
    4c2c:	0000                	c.unimp
    4c2e:	0001                	c.addi	x0,0
    4c30:	0914                	c.addi4spn	x13,x2,144
    4c32:	8000                	.insn	2, 0x8000
	...
    4c40:	01ec                	c.addi4spn	x11,x2,204
    4c42:	0000                	c.unimp
    4c44:	0000                	c.unimp
    4c46:	0001                	c.addi	x0,0
    4c48:	0934                	c.addi4spn	x13,x2,152
    4c4a:	8000                	.insn	2, 0x8000
	...
    4c58:	01f4                	c.addi4spn	x13,x2,204
    4c5a:	0000                	c.unimp
    4c5c:	0000                	c.unimp
    4c5e:	0001                	c.addi	x0,0
    4c60:	0954                	c.addi4spn	x13,x2,148
    4c62:	8000                	.insn	2, 0x8000
	...
    4c70:	01fc                	c.addi4spn	x15,x2,204
    4c72:	0000                	c.unimp
    4c74:	0000                	c.unimp
    4c76:	0001                	c.addi	x0,0
    4c78:	0974                	c.addi4spn	x13,x2,156
    4c7a:	8000                	.insn	2, 0x8000
	...
    4c88:	0204                	c.addi4spn	x9,x2,256
    4c8a:	0000                	c.unimp
    4c8c:	0000                	c.unimp
    4c8e:	0001                	c.addi	x0,0
    4c90:	0994                	c.addi4spn	x13,x2,208
    4c92:	8000                	.insn	2, 0x8000
	...
    4ca0:	020c                	c.addi4spn	x11,x2,256
    4ca2:	0000                	c.unimp
    4ca4:	0000                	c.unimp
    4ca6:	0001                	c.addi	x0,0
    4ca8:	09b4                	c.addi4spn	x13,x2,216
    4caa:	8000                	.insn	2, 0x8000
	...
    4cb8:	0214                	c.addi4spn	x13,x2,256
    4cba:	0000                	c.unimp
    4cbc:	0000                	c.unimp
    4cbe:	0001                	c.addi	x0,0
    4cc0:	09d4                	c.addi4spn	x13,x2,212
    4cc2:	8000                	.insn	2, 0x8000
	...
    4cd0:	021c                	c.addi4spn	x15,x2,256
    4cd2:	0000                	c.unimp
    4cd4:	0000                	c.unimp
    4cd6:	0001                	c.addi	x0,0
    4cd8:	09f4                	c.addi4spn	x13,x2,220
    4cda:	8000                	.insn	2, 0x8000
	...
    4ce8:	0224                	c.addi4spn	x9,x2,264
    4cea:	0000                	c.unimp
    4cec:	0000                	c.unimp
    4cee:	0001                	c.addi	x0,0
    4cf0:	0a14                	c.addi4spn	x13,x2,272
    4cf2:	8000                	.insn	2, 0x8000
	...
    4d00:	022c                	c.addi4spn	x11,x2,264
    4d02:	0000                	c.unimp
    4d04:	0000                	c.unimp
    4d06:	0001                	c.addi	x0,0
    4d08:	0a34                	c.addi4spn	x13,x2,280
    4d0a:	8000                	.insn	2, 0x8000
	...
    4d18:	0234                	c.addi4spn	x13,x2,264
    4d1a:	0000                	c.unimp
    4d1c:	0000                	c.unimp
    4d1e:	0001                	c.addi	x0,0
    4d20:	0a54                	c.addi4spn	x13,x2,276
    4d22:	8000                	.insn	2, 0x8000
	...
    4d30:	023c                	c.addi4spn	x15,x2,264
    4d32:	0000                	c.unimp
    4d34:	0000                	c.unimp
    4d36:	0001                	c.addi	x0,0
    4d38:	0a74                	c.addi4spn	x13,x2,284
    4d3a:	8000                	.insn	2, 0x8000
	...
    4d48:	0244                	c.addi4spn	x9,x2,260
    4d4a:	0000                	c.unimp
    4d4c:	0000                	c.unimp
    4d4e:	0001                	c.addi	x0,0
    4d50:	0a94                	c.addi4spn	x13,x2,336
    4d52:	8000                	.insn	2, 0x8000
	...
    4d60:	024c                	c.addi4spn	x11,x2,260
    4d62:	0000                	c.unimp
    4d64:	0000                	c.unimp
    4d66:	0001                	c.addi	x0,0
    4d68:	0ab4                	c.addi4spn	x13,x2,344
    4d6a:	8000                	.insn	2, 0x8000
	...
    4d78:	0254                	c.addi4spn	x13,x2,260
    4d7a:	0000                	c.unimp
    4d7c:	0000                	c.unimp
    4d7e:	0001                	c.addi	x0,0
    4d80:	0ad4                	c.addi4spn	x13,x2,340
    4d82:	8000                	.insn	2, 0x8000
	...
    4d90:	025c                	c.addi4spn	x15,x2,260
    4d92:	0000                	c.unimp
    4d94:	0000                	c.unimp
    4d96:	0001                	c.addi	x0,0
    4d98:	0af4                	c.addi4spn	x13,x2,348
    4d9a:	8000                	.insn	2, 0x8000
	...
    4da8:	0264                	c.addi4spn	x9,x2,268
    4daa:	0000                	c.unimp
    4dac:	0000                	c.unimp
    4dae:	0001                	c.addi	x0,0
    4db0:	0b14                	c.addi4spn	x13,x2,400
    4db2:	8000                	.insn	2, 0x8000
	...
    4dc0:	026c                	c.addi4spn	x11,x2,268
    4dc2:	0000                	c.unimp
    4dc4:	0000                	c.unimp
    4dc6:	0001                	c.addi	x0,0
    4dc8:	0b34                	c.addi4spn	x13,x2,408
    4dca:	8000                	.insn	2, 0x8000
	...
    4dd8:	0274                	c.addi4spn	x13,x2,268
    4dda:	0000                	c.unimp
    4ddc:	0000                	c.unimp
    4dde:	0001                	c.addi	x0,0
    4de0:	0b54                	c.addi4spn	x13,x2,404
    4de2:	8000                	.insn	2, 0x8000
	...
    4df0:	027c                	c.addi4spn	x15,x2,268
    4df2:	0000                	c.unimp
    4df4:	0000                	c.unimp
    4df6:	0001                	c.addi	x0,0
    4df8:	0b74                	c.addi4spn	x13,x2,412
    4dfa:	8000                	.insn	2, 0x8000
	...
    4e08:	0284                	c.addi4spn	x9,x2,320
    4e0a:	0000                	c.unimp
    4e0c:	0000                	c.unimp
    4e0e:	0001                	c.addi	x0,0
    4e10:	0b94                	c.addi4spn	x13,x2,464
    4e12:	8000                	.insn	2, 0x8000
	...
    4e20:	028c                	c.addi4spn	x11,x2,320
    4e22:	0000                	c.unimp
    4e24:	0000                	c.unimp
    4e26:	0001                	c.addi	x0,0
    4e28:	0bb4                	c.addi4spn	x13,x2,472
    4e2a:	8000                	.insn	2, 0x8000
	...
    4e38:	0294                	c.addi4spn	x13,x2,320
    4e3a:	0000                	c.unimp
    4e3c:	0000                	c.unimp
    4e3e:	0001                	c.addi	x0,0
    4e40:	0bd4                	c.addi4spn	x13,x2,468
    4e42:	8000                	.insn	2, 0x8000
	...
    4e50:	029c                	c.addi4spn	x15,x2,320
    4e52:	0000                	c.unimp
    4e54:	0000                	c.unimp
    4e56:	0001                	c.addi	x0,0
    4e58:	0bf4                	c.addi4spn	x13,x2,476
    4e5a:	8000                	.insn	2, 0x8000
	...
    4e68:	02a4                	c.addi4spn	x9,x2,328
    4e6a:	0000                	c.unimp
    4e6c:	0000                	c.unimp
    4e6e:	0001                	c.addi	x0,0
    4e70:	0c14                	c.addi4spn	x13,x2,528
    4e72:	8000                	.insn	2, 0x8000
	...
    4e80:	02ac                	c.addi4spn	x11,x2,328
    4e82:	0000                	c.unimp
    4e84:	0000                	c.unimp
    4e86:	0001                	c.addi	x0,0
    4e88:	0c34                	c.addi4spn	x13,x2,536
    4e8a:	8000                	.insn	2, 0x8000
	...
    4e98:	02b4                	c.addi4spn	x13,x2,328
    4e9a:	0000                	c.unimp
    4e9c:	0000                	c.unimp
    4e9e:	0001                	c.addi	x0,0
    4ea0:	0c54                	c.addi4spn	x13,x2,532
    4ea2:	8000                	.insn	2, 0x8000
	...
    4eb0:	02bc                	c.addi4spn	x15,x2,328
    4eb2:	0000                	c.unimp
    4eb4:	0000                	c.unimp
    4eb6:	0001                	c.addi	x0,0
    4eb8:	0c74                	c.addi4spn	x13,x2,540
    4eba:	8000                	.insn	2, 0x8000
	...
    4ec8:	02c4                	c.addi4spn	x9,x2,324
    4eca:	0000                	c.unimp
    4ecc:	0000                	c.unimp
    4ece:	0001                	c.addi	x0,0
    4ed0:	0c94                	c.addi4spn	x13,x2,592
    4ed2:	8000                	.insn	2, 0x8000
	...
    4ee0:	02cc                	c.addi4spn	x11,x2,324
    4ee2:	0000                	c.unimp
    4ee4:	0000                	c.unimp
    4ee6:	0001                	c.addi	x0,0
    4ee8:	0cb4                	c.addi4spn	x13,x2,600
    4eea:	8000                	.insn	2, 0x8000
	...
    4ef8:	02d4                	c.addi4spn	x13,x2,324
    4efa:	0000                	c.unimp
    4efc:	0000                	c.unimp
    4efe:	0001                	c.addi	x0,0
    4f00:	0cd4                	c.addi4spn	x13,x2,596
    4f02:	8000                	.insn	2, 0x8000
	...
    4f10:	02dc                	c.addi4spn	x15,x2,324
    4f12:	0000                	c.unimp
    4f14:	0000                	c.unimp
    4f16:	0001                	c.addi	x0,0
    4f18:	0cf0                	c.addi4spn	x12,x2,604
    4f1a:	8000                	.insn	2, 0x8000
	...
    4f28:	02e4                	c.addi4spn	x9,x2,332
    4f2a:	0000                	c.unimp
    4f2c:	0000                	c.unimp
    4f2e:	0001                	c.addi	x0,0
    4f30:	0d0c                	c.addi4spn	x11,x2,656
    4f32:	8000                	.insn	2, 0x8000
	...
    4f40:	02ec                	c.addi4spn	x11,x2,332
    4f42:	0000                	c.unimp
    4f44:	0000                	c.unimp
    4f46:	0001                	c.addi	x0,0
    4f48:	0d28                	c.addi4spn	x10,x2,664
    4f4a:	8000                	.insn	2, 0x8000
	...
    4f58:	02f4                	c.addi4spn	x13,x2,332
    4f5a:	0000                	c.unimp
    4f5c:	0000                	c.unimp
    4f5e:	0001                	c.addi	x0,0
    4f60:	0d44                	c.addi4spn	x9,x2,660
    4f62:	8000                	.insn	2, 0x8000
	...
    4f70:	02fc                	c.addi4spn	x15,x2,332
    4f72:	0000                	c.unimp
    4f74:	0000                	c.unimp
    4f76:	0001                	c.addi	x0,0
    4f78:	0d60                	c.addi4spn	x8,x2,668
    4f7a:	8000                	.insn	2, 0x8000
	...
    4f88:	0304                	c.addi4spn	x9,x2,384
    4f8a:	0000                	c.unimp
    4f8c:	0000                	c.unimp
    4f8e:	0001                	c.addi	x0,0
    4f90:	0d7c                	c.addi4spn	x15,x2,668
    4f92:	8000                	.insn	2, 0x8000
	...
    4fa0:	030c                	c.addi4spn	x11,x2,384
    4fa2:	0000                	c.unimp
    4fa4:	0000                	c.unimp
    4fa6:	0001                	c.addi	x0,0
    4fa8:	0d98                	c.addi4spn	x14,x2,720
    4faa:	8000                	.insn	2, 0x8000
	...
    4fb8:	0314                	c.addi4spn	x13,x2,384
    4fba:	0000                	c.unimp
    4fbc:	0000                	c.unimp
    4fbe:	0001                	c.addi	x0,0
    4fc0:	0db4                	c.addi4spn	x13,x2,728
    4fc2:	8000                	.insn	2, 0x8000
	...
    4fd0:	031c                	c.addi4spn	x15,x2,384
    4fd2:	0000                	c.unimp
    4fd4:	0000                	c.unimp
    4fd6:	0001                	c.addi	x0,0
    4fd8:	0dd0                	c.addi4spn	x12,x2,724
    4fda:	8000                	.insn	2, 0x8000
	...
    4fe8:	0324                	c.addi4spn	x9,x2,392
    4fea:	0000                	c.unimp
    4fec:	0000                	c.unimp
    4fee:	0001                	c.addi	x0,0
    4ff0:	0dec                	c.addi4spn	x11,x2,732
    4ff2:	8000                	.insn	2, 0x8000
	...
    5000:	032c                	c.addi4spn	x11,x2,392
    5002:	0000                	c.unimp
    5004:	0000                	c.unimp
    5006:	0001                	c.addi	x0,0
    5008:	0e10                	c.addi4spn	x12,x2,784
    500a:	8000                	.insn	2, 0x8000
	...
    5018:	0334                	c.addi4spn	x13,x2,392
    501a:	0000                	c.unimp
    501c:	0000                	c.unimp
    501e:	0001                	c.addi	x0,0
    5020:	0e34                	c.addi4spn	x13,x2,792
    5022:	8000                	.insn	2, 0x8000
	...
    5030:	033c                	c.addi4spn	x15,x2,392
    5032:	0000                	c.unimp
    5034:	0000                	c.unimp
    5036:	0001                	c.addi	x0,0
    5038:	0e58                	c.addi4spn	x14,x2,788
    503a:	8000                	.insn	2, 0x8000
	...
    5048:	0344                	c.addi4spn	x9,x2,388
    504a:	0000                	c.unimp
    504c:	0000                	c.unimp
    504e:	0001                	c.addi	x0,0
    5050:	0e80                	c.addi4spn	x8,x2,848
    5052:	8000                	.insn	2, 0x8000
	...
    5060:	034c                	c.addi4spn	x11,x2,388
    5062:	0000                	c.unimp
    5064:	0000                	c.unimp
    5066:	0001                	c.addi	x0,0
    5068:	0ea4                	c.addi4spn	x9,x2,856
    506a:	8000                	.insn	2, 0x8000
	...
    5078:	0354                	c.addi4spn	x13,x2,388
    507a:	0000                	c.unimp
    507c:	0000                	c.unimp
    507e:	0001                	c.addi	x0,0
    5080:	0ec8                	c.addi4spn	x10,x2,852
    5082:	8000                	.insn	2, 0x8000
	...
    5090:	035c                	c.addi4spn	x15,x2,388
    5092:	0000                	c.unimp
    5094:	0000                	c.unimp
    5096:	0001                	c.addi	x0,0
    5098:	0eec                	c.addi4spn	x11,x2,860
    509a:	8000                	.insn	2, 0x8000
	...
    50a8:	0364                	c.addi4spn	x9,x2,396
    50aa:	0000                	c.unimp
    50ac:	0000                	c.unimp
    50ae:	0001                	c.addi	x0,0
    50b0:	0f14                	c.addi4spn	x13,x2,912
    50b2:	8000                	.insn	2, 0x8000
	...
    50c0:	036c                	c.addi4spn	x11,x2,396
    50c2:	0000                	c.unimp
    50c4:	0000                	c.unimp
    50c6:	0001                	c.addi	x0,0
    50c8:	0f3c                	c.addi4spn	x15,x2,920
    50ca:	8000                	.insn	2, 0x8000
	...
    50d8:	0374                	c.addi4spn	x13,x2,396
    50da:	0000                	c.unimp
    50dc:	0000                	c.unimp
    50de:	0001                	c.addi	x0,0
    50e0:	0f60                	c.addi4spn	x8,x2,924
    50e2:	8000                	.insn	2, 0x8000
	...
    50f0:	037c                	c.addi4spn	x15,x2,396
    50f2:	0000                	c.unimp
    50f4:	0000                	c.unimp
    50f6:	0001                	c.addi	x0,0
    50f8:	0f84                	c.addi4spn	x9,x2,976
    50fa:	8000                	.insn	2, 0x8000
	...
    5108:	0384                	c.addi4spn	x9,x2,448
    510a:	0000                	c.unimp
    510c:	0000                	c.unimp
    510e:	0001                	c.addi	x0,0
    5110:	0fa8                	c.addi4spn	x10,x2,984
    5112:	8000                	.insn	2, 0x8000
	...
    5120:	038c                	c.addi4spn	x11,x2,448
    5122:	0000                	c.unimp
    5124:	0000                	c.unimp
    5126:	0001                	c.addi	x0,0
    5128:	0fcc                	c.addi4spn	x11,x2,980
    512a:	8000                	.insn	2, 0x8000
	...
    5138:	0394                	c.addi4spn	x13,x2,448
    513a:	0000                	c.unimp
    513c:	0000                	c.unimp
    513e:	0001                	c.addi	x0,0
    5140:	0ff0                	c.addi4spn	x12,x2,988
    5142:	8000                	.insn	2, 0x8000
	...
    5150:	039c                	c.addi4spn	x15,x2,448
    5152:	0000                	c.unimp
    5154:	0000                	c.unimp
    5156:	0001                	c.addi	x0,0
    5158:	1014                	c.addi4spn	x13,x2,32
    515a:	8000                	.insn	2, 0x8000
	...
    5168:	03a4                	c.addi4spn	x9,x2,456
    516a:	0000                	c.unimp
    516c:	0000                	c.unimp
    516e:	0001                	c.addi	x0,0
    5170:	1038                	c.addi4spn	x14,x2,40
    5172:	8000                	.insn	2, 0x8000
	...
    5180:	03ac                	c.addi4spn	x11,x2,456
    5182:	0000                	c.unimp
    5184:	0000                	c.unimp
    5186:	0001                	c.addi	x0,0
    5188:	105c                	c.addi4spn	x15,x2,36
    518a:	8000                	.insn	2, 0x8000
	...
    5198:	03b4                	c.addi4spn	x13,x2,456
    519a:	0000                	c.unimp
    519c:	0000                	c.unimp
    519e:	0001                	c.addi	x0,0
    51a0:	1098                	c.addi4spn	x14,x2,96
    51a2:	8000                	.insn	2, 0x8000
	...
    51b0:	03bc                	c.addi4spn	x15,x2,456
    51b2:	0000                	c.unimp
    51b4:	0000                	c.unimp
    51b6:	0001                	c.addi	x0,0
    51b8:	10d4                	c.addi4spn	x13,x2,100
    51ba:	8000                	.insn	2, 0x8000
	...
    51c8:	03c4                	c.addi4spn	x9,x2,452
    51ca:	0000                	c.unimp
    51cc:	0000                	c.unimp
    51ce:	0001                	c.addi	x0,0
    51d0:	10f0                	c.addi4spn	x12,x2,108
    51d2:	8000                	.insn	2, 0x8000
	...
    51e0:	03cc                	c.addi4spn	x11,x2,452
    51e2:	0000                	c.unimp
    51e4:	0000                	c.unimp
    51e6:	0001                	c.addi	x0,0
    51e8:	110c                	c.addi4spn	x11,x2,160
    51ea:	8000                	.insn	2, 0x8000
	...
    51f8:	03d5                	c.addi	x7,21
    51fa:	0000                	c.unimp
    51fc:	0000                	c.unimp
    51fe:	0001                	c.addi	x0,0
    5200:	1144                	c.addi4spn	x9,x2,164
    5202:	8000                	.insn	2, 0x8000
	...
    5210:	03de                	c.slli	x7,0x17
    5212:	0000                	c.unimp
    5214:	0000                	c.unimp
    5216:	0001                	c.addi	x0,0
    5218:	1180                	c.addi4spn	x8,x2,224
    521a:	8000                	.insn	2, 0x8000
	...
    5228:	000003e7          	jalr	x7,0(x0) # 0x0
    522c:	0000                	c.unimp
    522e:	0001                	c.addi	x0,0
    5230:	11bc                	c.addi4spn	x15,x2,232
    5232:	8000                	.insn	2, 0x8000
	...
    5240:	03f0                	c.addi4spn	x12,x2,460
    5242:	0000                	c.unimp
    5244:	0000                	c.unimp
    5246:	0001                	c.addi	x0,0
    5248:	11f8                	c.addi4spn	x14,x2,236
    524a:	8000                	.insn	2, 0x8000
	...
    5258:	03f9                	c.addi	x7,30
    525a:	0000                	c.unimp
    525c:	0000                	c.unimp
    525e:	0001                	c.addi	x0,0
    5260:	1230                	c.addi4spn	x12,x2,296
    5262:	8000                	.insn	2, 0x8000
	...
    5270:	0402                	c.slli64	x8
    5272:	0000                	c.unimp
    5274:	0000                	c.unimp
    5276:	0001                	c.addi	x0,0
    5278:	126c                	c.addi4spn	x11,x2,300
    527a:	8000                	.insn	2, 0x8000
	...
    5288:	0000040b          	.insn	4, 0x040b
    528c:	0000                	c.unimp
    528e:	0001                	c.addi	x0,0
    5290:	12a8                	c.addi4spn	x10,x2,360
    5292:	8000                	.insn	2, 0x8000
	...
    52a0:	0414                	c.addi4spn	x13,x2,512
    52a2:	0000                	c.unimp
    52a4:	0000                	c.unimp
    52a6:	0001                	c.addi	x0,0
    52a8:	12e0                	c.addi4spn	x8,x2,364
    52aa:	8000                	.insn	2, 0x8000
	...
    52b8:	041d                	c.addi	x8,7
    52ba:	0000                	c.unimp
    52bc:	0000                	c.unimp
    52be:	0001                	c.addi	x0,0
    52c0:	1318                	c.addi4spn	x14,x2,416
    52c2:	8000                	.insn	2, 0x8000
	...
    52d0:	0426                	c.slli	x8,0x9
    52d2:	0000                	c.unimp
    52d4:	0000                	c.unimp
    52d6:	0001                	c.addi	x0,0
    52d8:	1354                	c.addi4spn	x13,x2,420
    52da:	8000                	.insn	2, 0x8000
	...
    52e8:	0000042f          	.insn	4, 0x042f
    52ec:	0000                	c.unimp
    52ee:	0001                	c.addi	x0,0
    52f0:	1370                	c.addi4spn	x12,x2,428
    52f2:	8000                	.insn	2, 0x8000
	...
    5300:	0438                	c.addi4spn	x14,x2,520
    5302:	0000                	c.unimp
    5304:	0000                	c.unimp
    5306:	0001                	c.addi	x0,0
    5308:	13ac                	c.addi4spn	x11,x2,488
    530a:	8000                	.insn	2, 0x8000
	...
    5318:	0441                	c.addi	x8,16
    531a:	0000                	c.unimp
    531c:	0000                	c.unimp
    531e:	0001                	c.addi	x0,0
    5320:	13e8                	c.addi4spn	x10,x2,492
    5322:	8000                	.insn	2, 0x8000
	...
    5330:	044a                	c.slli	x8,0x12
    5332:	0000                	c.unimp
    5334:	0000                	c.unimp
    5336:	0001                	c.addi	x0,0
    5338:	1424                	c.addi4spn	x9,x2,552
    533a:	8000                	.insn	2, 0x8000
	...
    5348:	00000453          	fadd.s	f8,f0,f0,rne
    534c:	0000                	c.unimp
    534e:	0001                	c.addi	x0,0
    5350:	145c                	c.addi4spn	x15,x2,548
    5352:	8000                	.insn	2, 0x8000
	...
    5360:	045c                	c.addi4spn	x15,x2,516
    5362:	0000                	c.unimp
    5364:	0000                	c.unimp
    5366:	0001                	c.addi	x0,0
    5368:	1480                	c.addi4spn	x8,x2,608
    536a:	8000                	.insn	2, 0x8000
	...
    5378:	0465                	c.addi	x8,25
    537a:	0000                	c.unimp
    537c:	0000                	c.unimp
    537e:	0001                	c.addi	x0,0
    5380:	14a4                	c.addi4spn	x9,x2,616
    5382:	8000                	.insn	2, 0x8000
	...
    5390:	046e                	c.slli	x8,0x1b
    5392:	0000                	c.unimp
    5394:	0000                	c.unimp
    5396:	0001                	c.addi	x0,0
    5398:	14c8                	c.addi4spn	x10,x2,612
    539a:	8000                	.insn	2, 0x8000
	...
    53a8:	00000477          	.insn	4, 0x0477
    53ac:	0000                	c.unimp
    53ae:	0001                	c.addi	x0,0
    53b0:	14ec                	c.addi4spn	x11,x2,620
    53b2:	8000                	.insn	2, 0x8000
	...
    53c0:	0480                	c.addi4spn	x8,x2,576
    53c2:	0000                	c.unimp
    53c4:	0000                	c.unimp
    53c6:	0001                	c.addi	x0,0
    53c8:	1514                	c.addi4spn	x13,x2,672
    53ca:	8000                	.insn	2, 0x8000
	...
    53d8:	0489                	c.addi	x9,2
    53da:	0000                	c.unimp
    53dc:	0000                	c.unimp
    53de:	0001                	c.addi	x0,0
    53e0:	153c                	c.addi4spn	x15,x2,680
    53e2:	8000                	.insn	2, 0x8000
	...
    53f0:	0492                	c.slli	x9,0x4
    53f2:	0000                	c.unimp
    53f4:	0000                	c.unimp
    53f6:	0001                	c.addi	x0,0
    53f8:	1564                	c.addi4spn	x9,x2,684
    53fa:	8000                	.insn	2, 0x8000
	...
    5408:	0000049b          	addiw	x9,x0,0
    540c:	0000                	c.unimp
    540e:	0001                	c.addi	x0,0
    5410:	158c                	c.addi4spn	x11,x2,736
    5412:	8000                	.insn	2, 0x8000
	...
    5420:	04a4                	c.addi4spn	x9,x2,584
    5422:	0000                	c.unimp
    5424:	0000                	c.unimp
    5426:	0001                	c.addi	x0,0
    5428:	15b4                	c.addi4spn	x13,x2,744
    542a:	8000                	.insn	2, 0x8000
	...
    5438:	04ad                	c.addi	x9,11
    543a:	0000                	c.unimp
    543c:	0000                	c.unimp
    543e:	0001                	c.addi	x0,0
    5440:	15dc                	c.addi4spn	x15,x2,740
    5442:	8000                	.insn	2, 0x8000
	...
    5450:	04b6                	c.slli	x9,0xd
    5452:	0000                	c.unimp
    5454:	0000                	c.unimp
    5456:	0001                	c.addi	x0,0
    5458:	1604                	c.addi4spn	x9,x2,800
    545a:	8000                	.insn	2, 0x8000
	...
    5468:	000004bf 00010000 	.insn	8, 0x00010000000004bf
    5470:	1628                	c.addi4spn	x10,x2,808
    5472:	8000                	.insn	2, 0x8000
	...
    5480:	04c8                	c.addi4spn	x10,x2,580
    5482:	0000                	c.unimp
    5484:	0000                	c.unimp
    5486:	0001                	c.addi	x0,0
    5488:	164c                	c.addi4spn	x11,x2,804
    548a:	8000                	.insn	2, 0x8000
	...
    5498:	04d1                	c.addi	x9,20
    549a:	0000                	c.unimp
    549c:	0000                	c.unimp
    549e:	0001                	c.addi	x0,0
    54a0:	1670                	c.addi4spn	x12,x2,812
    54a2:	8000                	.insn	2, 0x8000
	...
    54b0:	04da                	c.slli	x9,0x16
    54b2:	0000                	c.unimp
    54b4:	0000                	c.unimp
    54b6:	0001                	c.addi	x0,0
    54b8:	1694                	c.addi4spn	x13,x2,864
    54ba:	8000                	.insn	2, 0x8000
	...
    54c8:	000004e3          	beq	x0,x0,0x5cd0
    54cc:	0000                	c.unimp
    54ce:	0001                	c.addi	x0,0
    54d0:	16b8                	c.addi4spn	x14,x2,872
    54d2:	8000                	.insn	2, 0x8000
	...
    54e0:	04ec                	c.addi4spn	x11,x2,588
    54e2:	0000                	c.unimp
    54e4:	0000                	c.unimp
    54e6:	0001                	c.addi	x0,0
    54e8:	16dc                	c.addi4spn	x15,x2,868
    54ea:	8000                	.insn	2, 0x8000
	...
    54f8:	04f5                	c.addi	x9,29
    54fa:	0000                	c.unimp
    54fc:	0000                	c.unimp
    54fe:	0001                	c.addi	x0,0
    5500:	1700                	c.addi4spn	x8,x2,928
    5502:	8000                	.insn	2, 0x8000
	...
    5510:	04fe                	c.slli	x9,0x1f
    5512:	0000                	c.unimp
    5514:	0000                	c.unimp
    5516:	0001                	c.addi	x0,0
    5518:	1724                	c.addi4spn	x9,x2,936
    551a:	8000                	.insn	2, 0x8000
	...
    5528:	00000507          	.insn	4, 0x0507
    552c:	0000                	c.unimp
    552e:	0001                	c.addi	x0,0
    5530:	1748                	c.addi4spn	x10,x2,932
    5532:	8000                	.insn	2, 0x8000
	...
    5540:	0510                	c.addi4spn	x12,x2,640
    5542:	0000                	c.unimp
    5544:	0000                	c.unimp
    5546:	0001                	c.addi	x0,0
    5548:	176c                	c.addi4spn	x11,x2,940
    554a:	8000                	.insn	2, 0x8000
	...
    5558:	0519                	c.addi	x10,6
    555a:	0000                	c.unimp
    555c:	0000                	c.unimp
    555e:	0001                	c.addi	x0,0
    5560:	1790                	c.addi4spn	x12,x2,992
    5562:	8000                	.insn	2, 0x8000
	...
    5570:	0522                	c.slli	x10,0x8
    5572:	0000                	c.unimp
    5574:	0000                	c.unimp
    5576:	0001                	c.addi	x0,0
    5578:	17b4                	c.addi4spn	x13,x2,1000
    557a:	8000                	.insn	2, 0x8000
	...
    5588:	0000052b          	.insn	4, 0x052b
    558c:	0000                	c.unimp
    558e:	0001                	c.addi	x0,0
    5590:	17d8                	c.addi4spn	x14,x2,996
    5592:	8000                	.insn	2, 0x8000
	...
    55a0:	0534                	c.addi4spn	x13,x2,648
    55a2:	0000                	c.unimp
    55a4:	0000                	c.unimp
    55a6:	0001                	c.addi	x0,0
    55a8:	17fc                	c.addi4spn	x15,x2,1004
    55aa:	8000                	.insn	2, 0x8000
	...
    55b8:	053d                	c.addi	x10,15
    55ba:	0000                	c.unimp
    55bc:	0000                	c.unimp
    55be:	0001                	c.addi	x0,0
    55c0:	1820                	c.addi4spn	x8,x2,56
    55c2:	8000                	.insn	2, 0x8000
	...
    55d0:	0546                	c.slli	x10,0x11
    55d2:	0000                	c.unimp
    55d4:	0000                	c.unimp
    55d6:	0001                	c.addi	x0,0
    55d8:	1844                	c.addi4spn	x9,x2,52
    55da:	8000                	.insn	2, 0x8000
	...
    55e8:	0000054f          	fnmadd.s	f10,f0,f0,f0,rne
    55ec:	0000                	c.unimp
    55ee:	0001                	c.addi	x0,0
    55f0:	1868                	c.addi4spn	x10,x2,60
    55f2:	8000                	.insn	2, 0x8000
	...
    5600:	0558                	c.addi4spn	x14,x2,644
    5602:	0000                	c.unimp
    5604:	0000                	c.unimp
    5606:	0001                	c.addi	x0,0
    5608:	188c                	c.addi4spn	x11,x2,112
    560a:	8000                	.insn	2, 0x8000
	...
    5618:	0561                	c.addi	x10,24
    561a:	0000                	c.unimp
    561c:	0000                	c.unimp
    561e:	0001                	c.addi	x0,0
    5620:	18b0                	c.addi4spn	x12,x2,120
    5622:	8000                	.insn	2, 0x8000
	...
    5630:	056a                	c.slli	x10,0x1a
    5632:	0000                	c.unimp
    5634:	0000                	c.unimp
    5636:	0001                	c.addi	x0,0
    5638:	18d4                	c.addi4spn	x13,x2,116
    563a:	8000                	.insn	2, 0x8000
	...
    5648:	00000573          	.insn	4, 0x0573
    564c:	0000                	c.unimp
    564e:	0001                	c.addi	x0,0
    5650:	18f8                	c.addi4spn	x14,x2,124
    5652:	8000                	.insn	2, 0x8000
	...
    5660:	057c                	c.addi4spn	x15,x2,652
    5662:	0000                	c.unimp
    5664:	0000                	c.unimp
    5666:	0001                	c.addi	x0,0
    5668:	191c                	c.addi4spn	x15,x2,176
    566a:	8000                	.insn	2, 0x8000
	...
    5678:	0585                	c.addi	x11,1
    567a:	0000                	c.unimp
    567c:	0000                	c.unimp
    567e:	0001                	c.addi	x0,0
    5680:	1940                	c.addi4spn	x8,x2,180
    5682:	8000                	.insn	2, 0x8000
	...
    5690:	058e                	c.slli	x11,0x3
    5692:	0000                	c.unimp
    5694:	0000                	c.unimp
    5696:	0001                	c.addi	x0,0
    5698:	195c                	c.addi4spn	x15,x2,180
    569a:	8000                	.insn	2, 0x8000
	...
    56a8:	00000597          	auipc	x11,0x0
    56ac:	0000                	c.unimp
    56ae:	0001                	c.addi	x0,0
    56b0:	1984                	c.addi4spn	x9,x2,240
    56b2:	8000                	.insn	2, 0x8000
	...
    56c0:	05a0                	c.addi4spn	x8,x2,712
    56c2:	0000                	c.unimp
    56c4:	0000                	c.unimp
    56c6:	0001                	c.addi	x0,0
    56c8:	19a4                	c.addi4spn	x9,x2,248
    56ca:	8000                	.insn	2, 0x8000
	...
    56d8:	05a9                	c.addi	x11,10 # 0x56b2
    56da:	0000                	c.unimp
    56dc:	0000                	c.unimp
    56de:	0001                	c.addi	x0,0
    56e0:	19c0                	c.addi4spn	x8,x2,244
    56e2:	8000                	.insn	2, 0x8000
	...
    56f0:	05b2                	c.slli	x11,0xc
    56f2:	0000                	c.unimp
    56f4:	0000                	c.unimp
    56f6:	0001                	c.addi	x0,0
    56f8:	1a18                	c.addi4spn	x14,x2,304
    56fa:	8000                	.insn	2, 0x8000
	...
    5708:	000005bf 00010000 	.insn	8, 0x00010000000005bf
    5710:	19e4                	c.addi4spn	x9,x2,252
    5712:	8000                	.insn	2, 0x8000
	...
    5720:	000005cb          	fnmsub.s	f11,f0,f0,f0,rne
    5724:	0000                	c.unimp
    5726:	20000003          	lb	x0,512(x0) # 0x200
    572a:	8000                	.insn	2, 0x8000
	...
    5738:	000005d7          	.insn	4, 0x05d7
    573c:	0000                	c.unimp
    573e:	20100003          	lb	x0,513(x0) # 0x201
    5742:	8000                	.insn	2, 0x8000
	...
    5750:	05e4                	c.addi4spn	x9,x2,716
    5752:	0000                	c.unimp
    5754:	0000                	c.unimp
    5756:	30000003          	lb	x0,768(x0) # 0x300
    575a:	8000                	.insn	2, 0x8000
	...
    5768:	05f5                	c.addi	x11,29
    576a:	0000                	c.unimp
    576c:	0000                	c.unimp
    576e:	30000003          	lb	x0,768(x0) # 0x300
    5772:	8000                	.insn	2, 0x8000
	...
    5780:	0606                	c.slli	x12,0x1
    5782:	0000                	c.unimp
    5784:	0000                	c.unimp
    5786:	30080003          	lb	x0,768(x16)
    578a:	8000                	.insn	2, 0x8000
	...
    5798:	0615                	c.addi	x12,5
    579a:	0000                	c.unimp
    579c:	0000                	c.unimp
    579e:	34d80003          	lb	x0,845(x16)
    57a2:	8000                	.insn	2, 0x8000
	...
    57b0:	0624                	c.addi4spn	x9,x2,776
    57b2:	0000                	c.unimp
    57b4:	0000                	c.unimp
    57b6:	34e00003          	lb	x0,846(x0) # 0x34e
    57ba:	8000                	.insn	2, 0x8000
	...
    57c8:	00000633          	add	x12,x0,x0
    57cc:	0004                	.insn	2, 0x0004
    57ce:	fff1                	c.bnez	x15,0x57aa
	...
    57e0:	0009                	c.addi	x0,2
    57e2:	0000                	c.unimp
    57e4:	0000                	c.unimp
    57e6:	0001                	c.addi	x0,0
    57e8:	1a40                	c.addi4spn	x8,x2,308
    57ea:	8000                	.insn	2, 0x8000
	...
    57f8:	0009                	c.addi	x0,2
    57fa:	0000                	c.unimp
    57fc:	0000                	c.unimp
    57fe:	0001                	c.addi	x0,0
    5800:	1a4c                	c.addi4spn	x11,x2,308
    5802:	8000                	.insn	2, 0x8000
	...
    5810:	0639                	c.addi	x12,14
    5812:	0000                	c.unimp
    5814:	0001                	c.addi	x0,0
    5816:	0002                	c.slli64	x0
    5818:	1a70                	c.addi4spn	x12,x2,316
    581a:	8000                	.insn	2, 0x8000
    581c:	0000                	c.unimp
    581e:	0000                	c.unimp
    5820:	0001                	c.addi	x0,0
    5822:	0000                	c.unimp
    5824:	0000                	c.unimp
    5826:	0000                	c.unimp
    5828:	0642                	c.slli	x12,0x10
    582a:	0000                	c.unimp
    582c:	0212                	c.slli	x4,0x4
    582e:	0001                	c.addi	x0,0
    5830:	0024                	c.addi4spn	x9,x2,8
    5832:	8000                	.insn	2, 0x8000
    5834:	0000                	c.unimp
    5836:	0000                	c.unimp
    5838:	000c                	.insn	2, 0x000c
    583a:	0000                	c.unimp
    583c:	0000                	c.unimp
    583e:	0000                	c.unimp
    5840:	0000064f          	fnmadd.s	f12,f0,f0,f0,rne
    5844:	0212                	c.slli	x4,0x4
    5846:	0001                	c.addi	x0,0
    5848:	1a4c                	c.addi4spn	x11,x2,308
    584a:	8000                	.insn	2, 0x8000
    584c:	0000                	c.unimp
    584e:	0000                	c.unimp
    5850:	0020                	c.addi4spn	x8,x2,8
    5852:	0000                	c.unimp
    5854:	0000                	c.unimp
    5856:	0000                	c.unimp
    5858:	0659                	c.addi	x12,22
    585a:	0000                	c.unimp
    585c:	0010                	.insn	2, 0x0010
    585e:	c0000003          	lb	x0,-1024(x0) # 0xfffffffffffffc00
    5862:	8000                	.insn	2, 0x8000
	...
    5870:	0668                	c.addi4spn	x10,x2,780
    5872:	0000                	c.unimp
    5874:	0010                	.insn	2, 0x0010
    5876:	34e00003          	lb	x0,846(x0) # 0x34e
    587a:	8000                	.insn	2, 0x8000
	...
    5888:	0676                	c.slli	x12,0x1d
    588a:	0000                	c.unimp
    588c:	0010                	.insn	2, 0x0010
    588e:	0001                	c.addi	x0,0
    5890:	1a6c                	c.addi4spn	x11,x2,316
    5892:	8000                	.insn	2, 0x8000
	...
    58a0:	067d                	c.addi	x12,31
    58a2:	0000                	c.unimp
    58a4:	0010                	.insn	2, 0x0010
    58a6:	fff1                	c.bnez	x15,0x5882
    58a8:	0000                	c.unimp
    58aa:	8000                	.insn	2, 0x8000
	...
    58b8:	0689                	c.addi	x13,2
    58ba:	0000                	c.unimp
    58bc:	0010                	.insn	2, 0x0010
    58be:	34e00003          	lb	x0,846(x0) # 0x34e
    58c2:	8000                	.insn	2, 0x8000
	...
    58d0:	0694                	c.addi4spn	x13,x2,832
    58d2:	0000                	c.unimp
    58d4:	0010                	.insn	2, 0x0010
    58d6:	34e00003          	lb	x0,846(x0) # 0x34e
    58da:	8000                	.insn	2, 0x8000
	...
    58e8:	069a                	c.slli	x13,0x6
    58ea:	0000                	c.unimp
    58ec:	0010                	.insn	2, 0x0010
    58ee:	c0000003          	lb	x0,-1024(x0) # 0xfffffffffffffc00
    58f2:	8000                	.insn	2, 0x8000
	...
    5900:	06a6                	c.slli	x13,0x9
    5902:	0000                	c.unimp
    5904:	0010                	.insn	2, 0x0010
    5906:	40000003          	lb	x0,1024(x0) # 0x400
    590a:	8000                	.insn	2, 0x8000
	...
    5918:	06b1                	c.addi	x13,12
    591a:	0000                	c.unimp
    591c:	0010                	.insn	2, 0x0010
    591e:	0001                	c.addi	x0,0
    5920:	0040                	c.addi4spn	x8,x2,4
    5922:	8000                	.insn	2, 0x8000
	...
    5930:	00000733          	add	x14,x0,x0
    5934:	0010                	.insn	2, 0x0010
    5936:	c0000003          	lb	x0,-1024(x0) # 0xfffffffffffffc00
    593a:	8000                	.insn	2, 0x8000
	...
    5948:	00000677          	.insn	4, 0x0677
    594c:	0010                	.insn	2, 0x0010
    594e:	0001                	c.addi	x0,0
    5950:	1a6c                	c.addi4spn	x11,x2,316
    5952:	8000                	.insn	2, 0x8000
	...
    5960:	06c4                	c.addi4spn	x9,x2,836
    5962:	0000                	c.unimp
    5964:	0010                	.insn	2, 0x0010
    5966:	30000003          	lb	x0,768(x0) # 0x300
    596a:	8000                	.insn	2, 0x8000
	...
    5978:	0682                	c.slli64	x13
    597a:	0000                	c.unimp
    597c:	0012                	c.slli	x0,0x4
    597e:	0001                	c.addi	x0,0
    5980:	0000                	c.unimp
    5982:	8000                	.insn	2, 0x8000
	...
    5990:	06d4                	c.addi4spn	x13,x2,836
    5992:	0000                	c.unimp
    5994:	0010                	.insn	2, 0x0010
    5996:	fff1                	c.bnez	x15,0x5972
	...
    59a8:	06e2                	c.slli	x13,0x18
    59aa:	0000                	c.unimp
    59ac:	0010                	.insn	2, 0x0010
    59ae:	0001                	c.addi	x0,0
    59b0:	0040                	c.addi4spn	x8,x2,4
    59b2:	8000                	.insn	2, 0x8000
	...
    59c0:	06ee                	c.slli	x13,0x1b
    59c2:	0000                	c.unimp
    59c4:	0010                	.insn	2, 0x0010
    59c6:	0001                	c.addi	x0,0
    59c8:	19e0                	c.addi4spn	x8,x2,252
    59ca:	8000                	.insn	2, 0x8000
	...
    59d8:	06fe                	c.slli	x13,0x1f
    59da:	0000                	c.unimp
    59dc:	0010                	.insn	2, 0x0010
    59de:	0001                	c.addi	x0,0
    59e0:	0420                	c.addi4spn	x8,x2,520
    59e2:	8000                	.insn	2, 0x8000
	...
    59f0:	0710                	c.addi4spn	x12,x2,896
    59f2:	0000                	c.unimp
    59f4:	0212                	c.slli	x4,0x4
    59f6:	0001                	c.addi	x0,0
    59f8:	0010                	.insn	2, 0x0010
    59fa:	8000                	.insn	2, 0x8000
    59fc:	0000                	c.unimp
    59fe:	0000                	c.unimp
    5a00:	0014                	.insn	2, 0x0014
    5a02:	0000                	c.unimp
    5a04:	0000                	c.unimp
    5a06:	0000                	c.unimp
    5a08:	0715                	c.addi	x14,5 # 0x80005
    5a0a:	0000                	c.unimp
    5a0c:	0010                	.insn	2, 0x0010
    5a0e:	20000003          	lb	x0,512(x0) # 0x200
    5a12:	8000                	.insn	2, 0x8000
	...
    5a20:	00000727          	.insn	4, 0x0727
    5a24:	0010                	.insn	2, 0x0010
    5a26:	30000003          	lb	x0,768(x0) # 0x300
    5a2a:	8000                	.insn	2, 0x8000
	...
    5a38:	05d1                	c.addi	x11,20
    5a3a:	0000                	c.unimp
    5a3c:	0010                	.insn	2, 0x0010
    5a3e:	34e00003          	lb	x0,846(x0) # 0x34e
    5a42:	8000                	.insn	2, 0x8000
	...
    5a50:	00000737          	lui	x14,0x0
    5a54:	0010                	.insn	2, 0x0010
    5a56:	0001                	c.addi	x0,0
    5a58:	19e0                	c.addi4spn	x8,x2,252
    5a5a:	8000                	.insn	2, 0x8000
	...
    5a68:	0732                	c.slli	x14,0xc
    5a6a:	0000                	c.unimp
    5a6c:	0010                	.insn	2, 0x0010
    5a6e:	c0000003          	lb	x0,-1024(x0) # 0xfffffffffffffc00
    5a72:	8000                	.insn	2, 0x8000
	...
    5a80:	00000747          	fmsub.s	f14,f0,f0,f0,rne
    5a84:	0212                	c.slli	x4,0x4
    5a86:	0001                	c.addi	x0,0
    5a88:	1a40                	c.addi4spn	x8,x2,308
    5a8a:	8000                	.insn	2, 0x8000
    5a8c:	0000                	c.unimp
    5a8e:	0000                	c.unimp
    5a90:	000c                	.insn	2, 0x000c
    5a92:	0000                	c.unimp
    5a94:	0000                	c.unimp
    5a96:	0000                	c.unimp
    5a98:	7300                	c.ld	x8,32(x14)
    5a9a:	6174                	c.ld	x13,192(x10)
    5a9c:	7472                	c.ldsp	x8,312(x2)
    5a9e:	6f2e                	c.ldsp	x30,200(x2)
    5aa0:	2400                	c.fld	f8,8(x8)
    5aa2:	0078                	c.addi4spn	x14,x2,12
    5aa4:	616d                	c.addi16sp	x2,240
    5aa6:	6e69                	c.lui	x28,0x1a
    5aa8:	632e                	c.ldsp	x6,200(x2)
    5aaa:	7300                	c.ld	x8,32(x14)
    5aac:	6172                	c.ldsp	x2,280(x2)
    5aae:	31302d77          	.insn	4, 0x31302d77
    5ab2:	6f2e                	c.ldsp	x30,200(x2)
    5ab4:	4d00                	c.lw	x8,24(x10)
    5ab6:	4f4d                	c.li	x30,19
    5ab8:	4544                	c.lw	x9,12(x10)
    5aba:	535f 4749 5300      	.insn	6, 0x53004749535f
    5ac0:	4f4d                	c.li	x30,19
    5ac2:	4544                	c.lw	x9,12(x10)
    5ac4:	535f 4749 5600      	.insn	6, 0x56004749535f
    5aca:	4f4d                	c.li	x30,19
    5acc:	4544                	c.lw	x9,12(x10)
    5ace:	535f 4749 6900      	.insn	6, 0x69004749535f
    5ad4:	6d6d                	c.lui	x26,0x1b
    5ad6:	0078                	c.addi4spn	x14,x2,12
    5ad8:	6465                	c.lui	x8,0x19
    5ada:	00316567          	.insn	4, 0x00316567
    5ade:	6465                	c.lui	x8,0x19
    5ae0:	00326567          	.insn	4, 0x00326567
    5ae4:	6e66                	c.ldsp	x28,88(x2)
    5ae6:	3164                	c.fld	f9,224(x10)
    5ae8:	6600                	c.ld	x8,8(x12)
    5aea:	646e                	c.ldsp	x8,216(x2)
    5aec:	0032                	c.slli	x0,0xc
    5aee:	6d69                	c.lui	x26,0x1a
    5af0:	656d                	c.lui	x10,0x1b
    5af2:	7000                	c.ld	x8,32(x8)
    5af4:	6100736f          	jal	x6,0xd104
    5af8:	7362                	c.ldsp	x6,56(x2)
    5afa:	6d69                	c.lui	x26,0x1a
    5afc:	006d                	c.addi	x0,27
    5afe:	00797263          	bgeu	x18,x7,0x5b02
    5b02:	6d69                	c.lui	x26,0x1a
    5b04:	316d                	c.addiw	x2,-5
    5b06:	0032                	c.slli	x0,0xc
    5b08:	7665                	c.lui	x12,0xffff9
    5b0a:	6e65                	c.lui	x28,0x19
    5b0c:	6300                	c.ld	x8,0(x14)
    5b0e:	7972                	c.ldsp	x18,312(x2)
    5b10:	0068                	c.addi4spn	x10,x2,12
    5b12:	6d69                	c.lui	x26,0x1a
    5b14:	786d                	c.lui	x16,0xffffb
    5b16:	69006873          	csrrsi	x16,0x690,0
    5b1a:	6d6d                	c.lui	x26,0x1b
    5b1c:	3231                	c.addiw	x4,-20 # 0xffffffffffffffec
    5b1e:	63006873          	csrrsi	x16,0x630,0
    5b22:	7972                	c.ldsp	x18,312(x2)
    5b24:	61006873          	csrrsi	x16,0x610,0
    5b28:	7362                	c.ldsp	x6,56(x2)
    5b2a:	6d69                	c.lui	x26,0x1a
    5b2c:	736d                	c.lui	x6,0xffffb
    5b2e:	0068                	c.addi4spn	x10,x2,12
    5b30:	6e676973          	csrrsi	x18,0x6e6,14
    5b34:	7461                	c.lui	x8,0xffff8
    5b36:	7275                	c.lui	x4,0xffffd
    5b38:	5f65                	c.li	x30,-7
    5b3a:	3378                	c.fld	f14,224(x14)
    5b3c:	315f 6900 736e      	.insn	6, 0x736e6900315f
    5b42:	5f74                	c.lw	x13,124(x14)
    5b44:	0030                	c.addi4spn	x12,x2,8
    5b46:	6e69                	c.lui	x28,0x1a
    5b48:	315f7473          	csrrci	x8,0x315,30
    5b4c:	6900                	c.ld	x8,16(x10)
    5b4e:	736e                	c.ldsp	x6,248(x2)
    5b50:	5f74                	c.lw	x13,124(x14)
    5b52:	0032                	c.slli	x0,0xc
    5b54:	6e69                	c.lui	x28,0x1a
    5b56:	335f7473          	csrrci	x8,mhpmevent21,30
    5b5a:	6900                	c.ld	x8,16(x10)
    5b5c:	736e                	c.ldsp	x6,248(x2)
    5b5e:	5f74                	c.lw	x13,124(x14)
    5b60:	0034                	c.addi4spn	x13,x2,8
    5b62:	6e69                	c.lui	x28,0x1a
    5b64:	355f7473          	csrrci	x8,0x355,30
    5b68:	6900                	c.ld	x8,16(x10)
    5b6a:	736e                	c.ldsp	x6,248(x2)
    5b6c:	5f74                	c.lw	x13,124(x14)
    5b6e:	0036                	c.slli	x0,0xd
    5b70:	6e69                	c.lui	x28,0x1a
    5b72:	375f7473          	csrrci	x8,0x375,30
    5b76:	6900                	c.ld	x8,16(x10)
    5b78:	736e                	c.ldsp	x6,248(x2)
    5b7a:	5f74                	c.lw	x13,124(x14)
    5b7c:	0038                	c.addi4spn	x14,x2,8
    5b7e:	6e69                	c.lui	x28,0x1a
    5b80:	395f7473          	csrrci	x8,0x395,30
    5b84:	6900                	c.ld	x8,16(x10)
    5b86:	736e                	c.ldsp	x6,248(x2)
    5b88:	5f74                	c.lw	x13,124(x14)
    5b8a:	3031                	.insn	2, 0x3031
    5b8c:	6900                	c.ld	x8,16(x10)
    5b8e:	736e                	c.ldsp	x6,248(x2)
    5b90:	5f74                	c.lw	x13,124(x14)
    5b92:	3131                	c.addiw	x2,-20
    5b94:	6900                	c.ld	x8,16(x10)
    5b96:	736e                	c.ldsp	x6,248(x2)
    5b98:	5f74                	c.lw	x13,124(x14)
    5b9a:	3231                	c.addiw	x4,-20 # 0xffffffffffffcfec
    5b9c:	6900                	c.ld	x8,16(x10)
    5b9e:	736e                	c.ldsp	x6,248(x2)
    5ba0:	5f74                	c.lw	x13,124(x14)
    5ba2:	3331                	c.addiw	x6,-20 # 0xffffffffffffafec
    5ba4:	6900                	c.ld	x8,16(x10)
    5ba6:	736e                	c.ldsp	x6,248(x2)
    5ba8:	5f74                	c.lw	x13,124(x14)
    5baa:	3431                	c.addiw	x8,-20 # 0xffffffffffff7fec
    5bac:	6900                	c.ld	x8,16(x10)
    5bae:	736e                	c.ldsp	x6,248(x2)
    5bb0:	5f74                	c.lw	x13,124(x14)
    5bb2:	3531                	c.addiw	x10,-20 # 0x1afec
    5bb4:	7300                	c.ld	x8,32(x14)
    5bb6:	6769                	c.lui	x14,0x1a
    5bb8:	616e                	c.ldsp	x2,216(x2)
    5bba:	7574                	c.ld	x13,232(x10)
    5bbc:	6572                	c.ldsp	x10,280(x2)
    5bbe:	785f 5f36 0030      	.insn	6, 0x00305f36785f
    5bc4:	6e69                	c.lui	x28,0x1a
    5bc6:	315f7473          	csrrci	x8,0x315,30
    5bca:	0036                	c.slli	x0,0xd
    5bcc:	6e69                	c.lui	x28,0x1a
    5bce:	315f7473          	csrrci	x8,0x315,30
    5bd2:	6e690037          	lui	x0,0x6e690
    5bd6:	315f7473          	csrrci	x8,0x315,30
    5bda:	0038                	c.addi4spn	x14,x2,8
    5bdc:	6e69                	c.lui	x28,0x1a
    5bde:	315f7473          	csrrci	x8,0x315,30
    5be2:	0039                	c.addi	x0,14
    5be4:	6e69                	c.lui	x28,0x1a
    5be6:	325f7473          	csrrci	x8,mhpmevent5,30
    5bea:	0030                	c.addi4spn	x12,x2,8
    5bec:	6e69                	c.lui	x28,0x1a
    5bee:	325f7473          	csrrci	x8,mhpmevent5,30
    5bf2:	0031                	c.addi	x0,12
    5bf4:	6e69                	c.lui	x28,0x1a
    5bf6:	325f7473          	csrrci	x8,mhpmevent5,30
    5bfa:	0032                	c.slli	x0,0xc
    5bfc:	6e69                	c.lui	x28,0x1a
    5bfe:	325f7473          	csrrci	x8,mhpmevent5,30
    5c02:	6e690033          	.insn	4, 0x6e690033
    5c06:	325f7473          	csrrci	x8,mhpmevent5,30
    5c0a:	0034                	c.addi4spn	x13,x2,8
    5c0c:	6e69                	c.lui	x28,0x1a
    5c0e:	325f7473          	csrrci	x8,mhpmevent5,30
    5c12:	0035                	c.addi	x0,13
    5c14:	6e69                	c.lui	x28,0x1a
    5c16:	325f7473          	csrrci	x8,mhpmevent5,30
    5c1a:	0036                	c.slli	x0,0xd
    5c1c:	6e69                	c.lui	x28,0x1a
    5c1e:	325f7473          	csrrci	x8,mhpmevent5,30
    5c22:	6e690037          	lui	x0,0x6e690
    5c26:	325f7473          	csrrci	x8,mhpmevent5,30
    5c2a:	0038                	c.addi4spn	x14,x2,8
    5c2c:	6e69                	c.lui	x28,0x1a
    5c2e:	325f7473          	csrrci	x8,mhpmevent5,30
    5c32:	0039                	c.addi	x0,14
    5c34:	6e69                	c.lui	x28,0x1a
    5c36:	335f7473          	csrrci	x8,mhpmevent21,30
    5c3a:	0030                	c.addi4spn	x12,x2,8
    5c3c:	6e69                	c.lui	x28,0x1a
    5c3e:	335f7473          	csrrci	x8,mhpmevent21,30
    5c42:	0031                	c.addi	x0,12
    5c44:	6e69                	c.lui	x28,0x1a
    5c46:	335f7473          	csrrci	x8,mhpmevent21,30
    5c4a:	0032                	c.slli	x0,0xc
    5c4c:	6e69                	c.lui	x28,0x1a
    5c4e:	335f7473          	csrrci	x8,mhpmevent21,30
    5c52:	6e690033          	.insn	4, 0x6e690033
    5c56:	335f7473          	csrrci	x8,mhpmevent21,30
    5c5a:	0034                	c.addi4spn	x13,x2,8
    5c5c:	6e69                	c.lui	x28,0x1a
    5c5e:	335f7473          	csrrci	x8,mhpmevent21,30
    5c62:	0035                	c.addi	x0,13
    5c64:	6e69                	c.lui	x28,0x1a
    5c66:	335f7473          	csrrci	x8,mhpmevent21,30
    5c6a:	0036                	c.slli	x0,0xd
    5c6c:	6e69                	c.lui	x28,0x1a
    5c6e:	335f7473          	csrrci	x8,mhpmevent21,30
    5c72:	6e690037          	lui	x0,0x6e690
    5c76:	335f7473          	csrrci	x8,mhpmevent21,30
    5c7a:	0038                	c.addi4spn	x14,x2,8
    5c7c:	6e69                	c.lui	x28,0x1a
    5c7e:	335f7473          	csrrci	x8,mhpmevent21,30
    5c82:	0039                	c.addi	x0,14
    5c84:	6e69                	c.lui	x28,0x1a
    5c86:	345f7473          	csrrci	x8,0x345,30
    5c8a:	0030                	c.addi4spn	x12,x2,8
    5c8c:	6e69                	c.lui	x28,0x1a
    5c8e:	345f7473          	csrrci	x8,0x345,30
    5c92:	0031                	c.addi	x0,12
    5c94:	6e69                	c.lui	x28,0x1a
    5c96:	345f7473          	csrrci	x8,0x345,30
    5c9a:	0032                	c.slli	x0,0xc
    5c9c:	6e69                	c.lui	x28,0x1a
    5c9e:	345f7473          	csrrci	x8,0x345,30
    5ca2:	6e690033          	.insn	4, 0x6e690033
    5ca6:	345f7473          	csrrci	x8,0x345,30
    5caa:	0034                	c.addi4spn	x13,x2,8
    5cac:	6e69                	c.lui	x28,0x1a
    5cae:	345f7473          	csrrci	x8,0x345,30
    5cb2:	0035                	c.addi	x0,13
    5cb4:	6e69                	c.lui	x28,0x1a
    5cb6:	345f7473          	csrrci	x8,0x345,30
    5cba:	0036                	c.slli	x0,0xd
    5cbc:	6e69                	c.lui	x28,0x1a
    5cbe:	345f7473          	csrrci	x8,0x345,30
    5cc2:	6e690037          	lui	x0,0x6e690
    5cc6:	345f7473          	csrrci	x8,0x345,30
    5cca:	0038                	c.addi4spn	x14,x2,8
    5ccc:	6e69                	c.lui	x28,0x1a
    5cce:	345f7473          	csrrci	x8,0x345,30
    5cd2:	0039                	c.addi	x0,14
    5cd4:	6e69                	c.lui	x28,0x1a
    5cd6:	355f7473          	csrrci	x8,0x355,30
    5cda:	0030                	c.addi4spn	x12,x2,8
    5cdc:	6e69                	c.lui	x28,0x1a
    5cde:	355f7473          	csrrci	x8,0x355,30
    5ce2:	0031                	c.addi	x0,12
    5ce4:	6e69                	c.lui	x28,0x1a
    5ce6:	355f7473          	csrrci	x8,0x355,30
    5cea:	0032                	c.slli	x0,0xc
    5cec:	6e69                	c.lui	x28,0x1a
    5cee:	355f7473          	csrrci	x8,0x355,30
    5cf2:	6e690033          	.insn	4, 0x6e690033
    5cf6:	355f7473          	csrrci	x8,0x355,30
    5cfa:	0034                	c.addi4spn	x13,x2,8
    5cfc:	6e69                	c.lui	x28,0x1a
    5cfe:	355f7473          	csrrci	x8,0x355,30
    5d02:	0035                	c.addi	x0,13
    5d04:	6e69                	c.lui	x28,0x1a
    5d06:	355f7473          	csrrci	x8,0x355,30
    5d0a:	0036                	c.slli	x0,0xd
    5d0c:	6e69                	c.lui	x28,0x1a
    5d0e:	355f7473          	csrrci	x8,0x355,30
    5d12:	6e690037          	lui	x0,0x6e690
    5d16:	355f7473          	csrrci	x8,0x355,30
    5d1a:	0038                	c.addi4spn	x14,x2,8
    5d1c:	6e69                	c.lui	x28,0x1a
    5d1e:	355f7473          	csrrci	x8,0x355,30
    5d22:	0039                	c.addi	x0,14
    5d24:	6e69                	c.lui	x28,0x1a
    5d26:	365f7473          	csrrci	x8,0x365,30
    5d2a:	0030                	c.addi4spn	x12,x2,8
    5d2c:	6e69                	c.lui	x28,0x1a
    5d2e:	365f7473          	csrrci	x8,0x365,30
    5d32:	0031                	c.addi	x0,12
    5d34:	6e69                	c.lui	x28,0x1a
    5d36:	365f7473          	csrrci	x8,0x365,30
    5d3a:	0032                	c.slli	x0,0xc
    5d3c:	6e69                	c.lui	x28,0x1a
    5d3e:	365f7473          	csrrci	x8,0x365,30
    5d42:	6e690033          	.insn	4, 0x6e690033
    5d46:	365f7473          	csrrci	x8,0x365,30
    5d4a:	0034                	c.addi4spn	x13,x2,8
    5d4c:	6e69                	c.lui	x28,0x1a
    5d4e:	365f7473          	csrrci	x8,0x365,30
    5d52:	0035                	c.addi	x0,13
    5d54:	6e69                	c.lui	x28,0x1a
    5d56:	365f7473          	csrrci	x8,0x365,30
    5d5a:	0036                	c.slli	x0,0xd
    5d5c:	6e69                	c.lui	x28,0x1a
    5d5e:	365f7473          	csrrci	x8,0x365,30
    5d62:	6e690037          	lui	x0,0x6e690
    5d66:	365f7473          	csrrci	x8,0x365,30
    5d6a:	0038                	c.addi4spn	x14,x2,8
    5d6c:	6e69                	c.lui	x28,0x1a
    5d6e:	365f7473          	csrrci	x8,0x365,30
    5d72:	0039                	c.addi	x0,14
    5d74:	6e69                	c.lui	x28,0x1a
    5d76:	375f7473          	csrrci	x8,0x375,30
    5d7a:	0030                	c.addi4spn	x12,x2,8
    5d7c:	6e69                	c.lui	x28,0x1a
    5d7e:	375f7473          	csrrci	x8,0x375,30
    5d82:	0031                	c.addi	x0,12
    5d84:	6e69                	c.lui	x28,0x1a
    5d86:	375f7473          	csrrci	x8,0x375,30
    5d8a:	0032                	c.slli	x0,0xc
    5d8c:	6e69                	c.lui	x28,0x1a
    5d8e:	375f7473          	csrrci	x8,0x375,30
    5d92:	6e690033          	.insn	4, 0x6e690033
    5d96:	375f7473          	csrrci	x8,0x375,30
    5d9a:	0034                	c.addi4spn	x13,x2,8
    5d9c:	6e69                	c.lui	x28,0x1a
    5d9e:	375f7473          	csrrci	x8,0x375,30
    5da2:	0035                	c.addi	x0,13
    5da4:	6e69                	c.lui	x28,0x1a
    5da6:	375f7473          	csrrci	x8,0x375,30
    5daa:	0036                	c.slli	x0,0xd
    5dac:	6e69                	c.lui	x28,0x1a
    5dae:	375f7473          	csrrci	x8,0x375,30
    5db2:	6e690037          	lui	x0,0x6e690
    5db6:	375f7473          	csrrci	x8,0x375,30
    5dba:	0038                	c.addi4spn	x14,x2,8
    5dbc:	6e69                	c.lui	x28,0x1a
    5dbe:	375f7473          	csrrci	x8,0x375,30
    5dc2:	0039                	c.addi	x0,14
    5dc4:	6e69                	c.lui	x28,0x1a
    5dc6:	385f7473          	csrrci	x8,0x385,30
    5dca:	0030                	c.addi4spn	x12,x2,8
    5dcc:	6e69                	c.lui	x28,0x1a
    5dce:	385f7473          	csrrci	x8,0x385,30
    5dd2:	0031                	c.addi	x0,12
    5dd4:	6e69                	c.lui	x28,0x1a
    5dd6:	385f7473          	csrrci	x8,0x385,30
    5dda:	0032                	c.slli	x0,0xc
    5ddc:	6e69                	c.lui	x28,0x1a
    5dde:	385f7473          	csrrci	x8,0x385,30
    5de2:	6e690033          	.insn	4, 0x6e690033
    5de6:	385f7473          	csrrci	x8,0x385,30
    5dea:	0034                	c.addi4spn	x13,x2,8
    5dec:	6e69                	c.lui	x28,0x1a
    5dee:	385f7473          	csrrci	x8,0x385,30
    5df2:	0035                	c.addi	x0,13
    5df4:	6e69                	c.lui	x28,0x1a
    5df6:	385f7473          	csrrci	x8,0x385,30
    5dfa:	0036                	c.slli	x0,0xd
    5dfc:	6e69                	c.lui	x28,0x1a
    5dfe:	385f7473          	csrrci	x8,0x385,30
    5e02:	6e690037          	lui	x0,0x6e690
    5e06:	385f7473          	csrrci	x8,0x385,30
    5e0a:	0038                	c.addi4spn	x14,x2,8
    5e0c:	6e69                	c.lui	x28,0x1a
    5e0e:	385f7473          	csrrci	x8,0x385,30
    5e12:	0039                	c.addi	x0,14
    5e14:	6e69                	c.lui	x28,0x1a
    5e16:	395f7473          	csrrci	x8,0x395,30
    5e1a:	0030                	c.addi4spn	x12,x2,8
    5e1c:	6e69                	c.lui	x28,0x1a
    5e1e:	395f7473          	csrrci	x8,0x395,30
    5e22:	0031                	c.addi	x0,12
    5e24:	6e69                	c.lui	x28,0x1a
    5e26:	395f7473          	csrrci	x8,0x395,30
    5e2a:	0032                	c.slli	x0,0xc
    5e2c:	6e69                	c.lui	x28,0x1a
    5e2e:	395f7473          	csrrci	x8,0x395,30
    5e32:	6e690033          	.insn	4, 0x6e690033
    5e36:	395f7473          	csrrci	x8,0x395,30
    5e3a:	0034                	c.addi4spn	x13,x2,8
    5e3c:	6e69                	c.lui	x28,0x1a
    5e3e:	395f7473          	csrrci	x8,0x395,30
    5e42:	0035                	c.addi	x0,13
    5e44:	6e69                	c.lui	x28,0x1a
    5e46:	395f7473          	csrrci	x8,0x395,30
    5e4a:	0036                	c.slli	x0,0xd
    5e4c:	6e69                	c.lui	x28,0x1a
    5e4e:	395f7473          	csrrci	x8,0x395,30
    5e52:	6e690037          	lui	x0,0x6e690
    5e56:	395f7473          	csrrci	x8,0x395,30
    5e5a:	0038                	c.addi4spn	x14,x2,8
    5e5c:	6e69                	c.lui	x28,0x1a
    5e5e:	395f7473          	csrrci	x8,0x395,30
    5e62:	0039                	c.addi	x0,14
    5e64:	6e69                	c.lui	x28,0x1a
    5e66:	315f7473          	csrrci	x8,0x315,30
    5e6a:	3030                	c.fld	f12,96(x8)
    5e6c:	6900                	c.ld	x8,16(x10)
    5e6e:	736e                	c.ldsp	x6,248(x2)
    5e70:	5f74                	c.lw	x13,124(x14)
    5e72:	3031                	.insn	2, 0x3031
    5e74:	0031                	c.addi	x0,12
    5e76:	6e69                	c.lui	x28,0x1a
    5e78:	315f7473          	csrrci	x8,0x315,30
    5e7c:	3230                	c.fld	f12,96(x12)
    5e7e:	6900                	c.ld	x8,16(x10)
    5e80:	736e                	c.ldsp	x6,248(x2)
    5e82:	5f74                	c.lw	x13,124(x14)
    5e84:	3031                	.insn	2, 0x3031
    5e86:	6e690033          	.insn	4, 0x6e690033
    5e8a:	315f7473          	csrrci	x8,0x315,30
    5e8e:	3430                	c.fld	f12,104(x8)
    5e90:	6900                	c.ld	x8,16(x10)
    5e92:	736e                	c.ldsp	x6,248(x2)
    5e94:	5f74                	c.lw	x13,124(x14)
    5e96:	3031                	.insn	2, 0x3031
    5e98:	0035                	c.addi	x0,13
    5e9a:	6e69                	c.lui	x28,0x1a
    5e9c:	315f7473          	csrrci	x8,0x315,30
    5ea0:	3630                	c.fld	f12,104(x12)
    5ea2:	6900                	c.ld	x8,16(x10)
    5ea4:	736e                	c.ldsp	x6,248(x2)
    5ea6:	5f74                	c.lw	x13,124(x14)
    5ea8:	3031                	.insn	2, 0x3031
    5eaa:	6e690037          	lui	x0,0x6e690
    5eae:	315f7473          	csrrci	x8,0x315,30
    5eb2:	3830                	c.fld	f12,112(x8)
    5eb4:	6900                	c.ld	x8,16(x10)
    5eb6:	736e                	c.ldsp	x6,248(x2)
    5eb8:	5f74                	c.lw	x13,124(x14)
    5eba:	3031                	.insn	2, 0x3031
    5ebc:	0039                	c.addi	x0,14
    5ebe:	6e69                	c.lui	x28,0x1a
    5ec0:	315f7473          	csrrci	x8,0x315,30
    5ec4:	3031                	.insn	2, 0x3031
    5ec6:	6900                	c.ld	x8,16(x10)
    5ec8:	736e                	c.ldsp	x6,248(x2)
    5eca:	5f74                	c.lw	x13,124(x14)
    5ecc:	3131                	c.addiw	x2,-20
    5ece:	0031                	c.addi	x0,12
    5ed0:	6e69                	c.lui	x28,0x1a
    5ed2:	315f7473          	csrrci	x8,0x315,30
    5ed6:	3231                	c.addiw	x4,-20 # 0xffffffffffffffec
    5ed8:	6900                	c.ld	x8,16(x10)
    5eda:	736e                	c.ldsp	x6,248(x2)
    5edc:	5f74                	c.lw	x13,124(x14)
    5ede:	3131                	c.addiw	x2,-20
    5ee0:	6e690033          	.insn	4, 0x6e690033
    5ee4:	315f7473          	csrrci	x8,0x315,30
    5ee8:	3431                	c.addiw	x8,-20
    5eea:	6900                	c.ld	x8,16(x10)
    5eec:	736e                	c.ldsp	x6,248(x2)
    5eee:	5f74                	c.lw	x13,124(x14)
    5ef0:	3131                	c.addiw	x2,-20
    5ef2:	0035                	c.addi	x0,13
    5ef4:	6e69                	c.lui	x28,0x1a
    5ef6:	315f7473          	csrrci	x8,0x315,30
    5efa:	3631                	c.addiw	x12,-20 # 0xffffffffffff8fec
    5efc:	6900                	c.ld	x8,16(x10)
    5efe:	736e                	c.ldsp	x6,248(x2)
    5f00:	5f74                	c.lw	x13,124(x14)
    5f02:	3131                	c.addiw	x2,-20
    5f04:	6e690037          	lui	x0,0x6e690
    5f08:	315f7473          	csrrci	x8,0x315,30
    5f0c:	3831                	c.addiw	x16,-20 # 0xffffffffffffafec
    5f0e:	6900                	c.ld	x8,16(x10)
    5f10:	736e                	c.ldsp	x6,248(x2)
    5f12:	5f74                	c.lw	x13,124(x14)
    5f14:	3131                	c.addiw	x2,-20
    5f16:	0039                	c.addi	x0,14
    5f18:	6e69                	c.lui	x28,0x1a
    5f1a:	315f7473          	csrrci	x8,0x315,30
    5f1e:	3032                	c.fldsp	f0,296(x2)
    5f20:	6900                	c.ld	x8,16(x10)
    5f22:	736e                	c.ldsp	x6,248(x2)
    5f24:	5f74                	c.lw	x13,124(x14)
    5f26:	3231                	c.addiw	x4,-20 # 0xffffffffffffffec
    5f28:	0031                	c.addi	x0,12
    5f2a:	6e69                	c.lui	x28,0x1a
    5f2c:	315f7473          	csrrci	x8,0x315,30
    5f30:	3232                	c.fldsp	f4,296(x2)
    5f32:	6900                	c.ld	x8,16(x10)
    5f34:	736e                	c.ldsp	x6,248(x2)
    5f36:	5f74                	c.lw	x13,124(x14)
    5f38:	3231                	c.addiw	x4,-20 # 0xffffffffffffffec
    5f3a:	6e690033          	.insn	4, 0x6e690033
    5f3e:	315f7473          	csrrci	x8,0x315,30
    5f42:	3432                	c.fldsp	f8,296(x2)
    5f44:	6900                	c.ld	x8,16(x10)
    5f46:	736e                	c.ldsp	x6,248(x2)
    5f48:	5f74                	c.lw	x13,124(x14)
    5f4a:	3231                	c.addiw	x4,-20 # 0xffffffffffffffec
    5f4c:	0035                	c.addi	x0,13
    5f4e:	6e69                	c.lui	x28,0x1a
    5f50:	315f7473          	csrrci	x8,0x315,30
    5f54:	3632                	c.fldsp	f12,296(x2)
    5f56:	6900                	c.ld	x8,16(x10)
    5f58:	736e                	c.ldsp	x6,248(x2)
    5f5a:	5f74                	c.lw	x13,124(x14)
    5f5c:	3231                	c.addiw	x4,-20 # 0xffffffffffffffec
    5f5e:	6e690037          	lui	x0,0x6e690
    5f62:	315f7473          	csrrci	x8,0x315,30
    5f66:	3832                	c.fldsp	f16,296(x2)
    5f68:	6900                	c.ld	x8,16(x10)
    5f6a:	736e                	c.ldsp	x6,248(x2)
    5f6c:	5f74                	c.lw	x13,124(x14)
    5f6e:	3231                	c.addiw	x4,-20 # 0xffffffffffffffec
    5f70:	0039                	c.addi	x0,14
    5f72:	6e69                	c.lui	x28,0x1a
    5f74:	315f7473          	csrrci	x8,0x315,30
    5f78:	69003033          	.insn	4, 0x69003033
    5f7c:	736e                	c.ldsp	x6,248(x2)
    5f7e:	5f74                	c.lw	x13,124(x14)
    5f80:	3331                	c.addiw	x6,-20
    5f82:	0031                	c.addi	x0,12
    5f84:	6e69                	c.lui	x28,0x1a
    5f86:	315f7473          	csrrci	x8,0x315,30
    5f8a:	69003233          	.insn	4, 0x69003233
    5f8e:	736e                	c.ldsp	x6,248(x2)
    5f90:	5f74                	c.lw	x13,124(x14)
    5f92:	3331                	c.addiw	x6,-20
    5f94:	6e690033          	.insn	4, 0x6e690033
    5f98:	315f7473          	csrrci	x8,0x315,30
    5f9c:	69003433          	.insn	4, 0x69003433
    5fa0:	736e                	c.ldsp	x6,248(x2)
    5fa2:	5f74                	c.lw	x13,124(x14)
    5fa4:	3331                	c.addiw	x6,-20
    5fa6:	0035                	c.addi	x0,13
    5fa8:	6e69                	c.lui	x28,0x1a
    5faa:	315f7473          	csrrci	x8,0x315,30
    5fae:	69003633          	.insn	4, 0x69003633
    5fb2:	736e                	c.ldsp	x6,248(x2)
    5fb4:	5f74                	c.lw	x13,124(x14)
    5fb6:	3331                	c.addiw	x6,-20
    5fb8:	6e690037          	lui	x0,0x6e690
    5fbc:	315f7473          	csrrci	x8,0x315,30
    5fc0:	69003833          	.insn	4, 0x69003833
    5fc4:	736e                	c.ldsp	x6,248(x2)
    5fc6:	5f74                	c.lw	x13,124(x14)
    5fc8:	3331                	c.addiw	x6,-20
    5fca:	0039                	c.addi	x0,14
    5fcc:	6e69                	c.lui	x28,0x1a
    5fce:	315f7473          	csrrci	x8,0x315,30
    5fd2:	3034                	c.fld	f13,96(x8)
    5fd4:	6900                	c.ld	x8,16(x10)
    5fd6:	736e                	c.ldsp	x6,248(x2)
    5fd8:	5f74                	c.lw	x13,124(x14)
    5fda:	3431                	c.addiw	x8,-20
    5fdc:	0031                	c.addi	x0,12
    5fde:	6e69                	c.lui	x28,0x1a
    5fe0:	315f7473          	csrrci	x8,0x315,30
    5fe4:	3234                	c.fld	f13,96(x12)
    5fe6:	6900                	c.ld	x8,16(x10)
    5fe8:	736e                	c.ldsp	x6,248(x2)
    5fea:	5f74                	c.lw	x13,124(x14)
    5fec:	3431                	c.addiw	x8,-20
    5fee:	6e690033          	.insn	4, 0x6e690033
    5ff2:	315f7473          	csrrci	x8,0x315,30
    5ff6:	3434                	c.fld	f13,104(x8)
    5ff8:	6900                	c.ld	x8,16(x10)
    5ffa:	736e                	c.ldsp	x6,248(x2)
    5ffc:	5f74                	c.lw	x13,124(x14)
    5ffe:	3431                	c.addiw	x8,-20
    6000:	0035                	c.addi	x0,13
    6002:	6e69                	c.lui	x28,0x1a
    6004:	315f7473          	csrrci	x8,0x315,30
    6008:	3634                	c.fld	f13,104(x12)
    600a:	6900                	c.ld	x8,16(x10)
    600c:	736e                	c.ldsp	x6,248(x2)
    600e:	5f74                	c.lw	x13,124(x14)
    6010:	3431                	c.addiw	x8,-20
    6012:	6e690037          	lui	x0,0x6e690
    6016:	315f7473          	csrrci	x8,0x315,30
    601a:	3834                	c.fld	f13,112(x8)
    601c:	6900                	c.ld	x8,16(x10)
    601e:	736e                	c.ldsp	x6,248(x2)
    6020:	5f74                	c.lw	x13,124(x14)
    6022:	3431                	c.addiw	x8,-20
    6024:	0039                	c.addi	x0,14
    6026:	6e69                	c.lui	x28,0x1a
    6028:	315f7473          	csrrci	x8,0x315,30
    602c:	3035                	.insn	2, 0x3035
    602e:	6900                	c.ld	x8,16(x10)
    6030:	736e                	c.ldsp	x6,248(x2)
    6032:	5f74                	c.lw	x13,124(x14)
    6034:	3531                	c.addiw	x10,-20
    6036:	0031                	c.addi	x0,12
    6038:	6e69                	c.lui	x28,0x1a
    603a:	315f7473          	csrrci	x8,0x315,30
    603e:	3235                	c.addiw	x4,-19 # 0xffffffffffffffed
    6040:	6900                	c.ld	x8,16(x10)
    6042:	736e                	c.ldsp	x6,248(x2)
    6044:	5f74                	c.lw	x13,124(x14)
    6046:	3531                	c.addiw	x10,-20
    6048:	78650033          	.insn	4, 0x78650033
    604c:	7469                	c.lui	x8,0xffffa
    604e:	635f 656c 6e61      	.insn	6, 0x6e61656c635f
    6054:	7075                	c.lui	x0,0xffffd
    6056:	6100                	c.ld	x8,0(x10)
    6058:	6f62                	c.ldsp	x30,24(x2)
    605a:	7472                	c.ldsp	x8,312(x2)
    605c:	745f 7365 7374      	.insn	6, 0x73747365745f
    6062:	7200                	c.ld	x8,32(x12)
    6064:	7476                	c.ldsp	x8,376(x2)
    6066:	7365                	c.lui	x6,0xffff9
    6068:	5f74                	c.lw	x13,124(x14)
    606a:	6164                	c.ld	x9,192(x10)
    606c:	6174                	c.ld	x13,192(x10)
    606e:	6d00                	c.ld	x8,24(x10)
    6070:	7274                	c.ld	x13,224(x12)
    6072:	7061                	c.lui	x0,0xffff8
    6074:	735f 6769 7470      	.insn	6, 0x74706769735f
    607a:	0072                	c.slli	x0,0x1c
    607c:	7672                	c.ldsp	x12,312(x2)
    607e:	6574                	c.ld	x13,200(x10)
    6080:	735f7473          	csrrci	x8,mhpmevent21h,30
    6084:	6769                	c.lui	x14,0x1a
    6086:	625f 6765 6e69      	.insn	6, 0x6e696765625f
    608c:	7300                	c.ld	x8,32(x14)
    608e:	6769                	c.lui	x14,0x1a
    6090:	625f 6765 6e69      	.insn	6, 0x6e696765625f
    6096:	635f 6e61 7261      	.insn	6, 0x72616e61635f
    609c:	0079                	c.addi	x0,30
    609e:	6e676973          	csrrsi	x18,0x6e6,14
    60a2:	7461                	c.lui	x8,0xffff8
    60a4:	7275                	c.lui	x4,0xffffd
    60a6:	5f65                	c.li	x30,-7
    60a8:	3378                	c.fld	f14,224(x14)
    60aa:	305f 7300 6769      	.insn	6, 0x67697300305f
    60b0:	655f 646e 635f      	.insn	6, 0x635f646e655f
    60b6:	6e61                	c.lui	x28,0x18
    60b8:	7261                	c.lui	x4,0xffff8
    60ba:	0079                	c.addi	x0,30
    60bc:	7672                	c.ldsp	x12,312(x2)
    60be:	6574                	c.ld	x13,200(x10)
    60c0:	735f7473          	csrrci	x8,mhpmevent21h,30
    60c4:	6769                	c.lui	x14,0x1a
    60c6:	655f 646e 7400      	.insn	6, 0x7400646e655f
    60cc:	6d72                	c.ldsp	x26,280(x2)
    60ce:	632e                	c.ldsp	x6,200(x2)
    60d0:	6d00                	c.ld	x8,24(x10)
    60d2:	6961                	c.lui	x18,0x18
    60d4:	616e                	c.ldsp	x2,216(x2)
    60d6:	6772                	c.ldsp	x14,280(x2)
    60d8:	76720073          	.insn	4, 0x76720073
    60dc:	6574                	c.ld	x13,200(x10)
    60de:	655f7473          	csrrci	x8,hviph,30
    60e2:	7272                	c.ldsp	x4,312(x2)
    60e4:	5f00726f          	jal	x4,0xd6d4
    60e8:	7274                	c.ld	x13,224(x12)
    60ea:	5f6d                	c.li	x30,-5
    60ec:	6e69                	c.lui	x28,0x1a
    60ee:	7469                	c.lui	x8,0xffffa
    60f0:	5f00                	c.lw	x8,56(x14)
    60f2:	63617473          	csrrci	x8,0x636,2
    60f6:	6f705f6b          	.insn	4, 0x6f705f6b
    60fa:	6e69                	c.lui	x28,0x1a
    60fc:	6574                	c.ld	x13,200(x10)
    60fe:	0072                	c.slli	x0,0x1c
    6100:	6e65                	c.lui	x28,0x19
    6102:	5f64                	c.lw	x9,124(x14)
    6104:	6e676973          	csrrsi	x18,0x6e6,14
    6108:	7461                	c.lui	x8,0xffff8
    610a:	7275                	c.lui	x4,0xffffd
    610c:	0065                	c.addi	x0,25
    610e:	655f 6574 7478      	.insn	6, 0x74786574655f
    6114:	5f00                	c.lw	x8,56(x14)
    6116:	6d70                	c.ld	x12,216(x10)
    6118:	6d65                	c.lui	x26,0x19
    611a:	735f 6174 7472      	.insn	6, 0x74726174735f
    6120:	5f00                	c.lw	x8,56(x14)
    6122:	7362                	c.ldsp	x6,56(x2)
    6124:	74735f73          	csrrwi	x30,mseccfg,6
    6128:	7261                	c.lui	x4,0xffff8
    612a:	0074                	c.addi4spn	x13,x2,12
    612c:	6465                	c.lui	x8,0x19
    612e:	7461                	c.lui	x8,0xffff8
    6130:	0061                	c.addi	x0,24
    6132:	685f 6165 5f70      	.insn	6, 0x5f706165685f
    6138:	72617473          	csrrci	x8,mhpmevent6h,2
    613c:	0074                	c.addi4spn	x13,x2,12
    613e:	735f 6174 6b63      	.insn	6, 0x6b636174735f
    6144:	745f 706f 7200      	.insn	6, 0x7200706f745f
    614a:	7476                	c.ldsp	x8,376(x2)
    614c:	7365                	c.lui	x6,0xffff9
    614e:	5f74                	c.lw	x13,124(x14)
    6150:	6e65                	c.lui	x28,0x19
    6152:	7274                	c.ld	x13,224(x12)
    6154:	5f79                	c.li	x30,-2
    6156:	6f70                	c.ld	x12,216(x14)
    6158:	6e69                	c.lui	x28,0x1a
    615a:	0074                	c.addi4spn	x13,x2,12
    615c:	6562                	c.ldsp	x10,24(x2)
    615e:	5f6e6967          	.insn	4, 0x5f6e6967
    6162:	6e676973          	csrrsi	x18,0x6e6,14
    6166:	7461                	c.lui	x8,0xffff8
    6168:	7275                	c.lui	x4,0xffffd
    616a:	0065                	c.addi	x0,25
    616c:	655f 746e 7972      	.insn	6, 0x7972746e655f
    6172:	6f5f 6666 6573      	.insn	6, 0x657366666f5f
    6178:	0074                	c.addi4spn	x13,x2,12
    617a:	7672                	c.ldsp	x12,312(x2)
    617c:	6574                	c.ld	x13,200(x10)
    617e:	695f7473          	csrrci	x8,0x695,30
    6182:	696e                	c.ldsp	x18,216(x2)
    6184:	0074                	c.addi4spn	x13,x2,12
    6186:	7672                	c.ldsp	x12,312(x2)
    6188:	6574                	c.ld	x13,200(x10)
    618a:	635f7473          	csrrci	x8,0x635,30
    618e:	5f65646f          	jal	x8,0x5c784
    6192:	6e65                	c.lui	x28,0x19
    6194:	0064                	c.addi4spn	x9,x2,12
    6196:	7672                	c.ldsp	x12,312(x2)
    6198:	6574                	c.ld	x13,200(x10)
    619a:	635f7473          	csrrci	x8,0x635,30
    619e:	5f65646f          	jal	x8,0x5c794
    61a2:	6562                	c.ldsp	x10,24(x2)
    61a4:	006e6967          	.insn	4, 0x006e6967
    61a8:	616d                	c.addi16sp	x2,240
    61aa:	6e69                	c.lui	x28,0x1a
    61ac:	7200                	c.ld	x8,32(x12)
    61ae:	7476                	c.ldsp	x8,376(x2)
    61b0:	7365                	c.lui	x6,0xffff9
    61b2:	5f74                	c.lw	x13,124(x14)
    61b4:	6164                	c.ld	x9,192(x10)
    61b6:	6174                	c.ld	x13,192(x10)
    61b8:	625f 6765 6e69      	.insn	6, 0x6e696765625f
    61be:	7200                	c.ld	x8,32(x12)
    61c0:	7476                	c.ldsp	x8,376(x2)
    61c2:	7365                	c.lui	x6,0xffff9
    61c4:	5f74                	c.lw	x13,124(x14)
    61c6:	6164                	c.ld	x9,192(x10)
    61c8:	6174                	c.ld	x13,192(x10)
    61ca:	655f 646e 6300      	.insn	6, 0x6300646e655f
    61d0:	656c                	c.ld	x11,200(x10)
    61d2:	6e61                	c.lui	x28,0x18
    61d4:	7075                	c.lui	x0,0xffffd
    61d6:	655f 6970 6f6c      	.insn	6, 0x6f6c6970655f
    61dc:	68007367          	.insn	4, 0x68007367
    61e0:	6c61                	c.lui	x24,0x18
    61e2:	0074                	c.addi4spn	x13,x2,12
    61e4:	2e00                	c.fld	f8,24(x12)
    61e6:	746d7973          	csrrci	x18,0x746,26
    61ea:	6261                	c.lui	x4,0x18
    61ec:	2e00                	c.fld	f8,24(x12)
    61ee:	74727473          	csrrci	x8,mseccfg,4
    61f2:	6261                	c.lui	x4,0x18
    61f4:	2e00                	c.fld	f8,24(x12)
    61f6:	74736873          	csrrsi	x16,mseccfg,6
    61fa:	7472                	c.ldsp	x8,312(x2)
    61fc:	6261                	c.lui	x4,0x18
    61fe:	2e00                	c.fld	f8,24(x12)
    6200:	6574                	c.ld	x13,200(x10)
    6202:	7478                	c.ld	x14,232(x8)
    6204:	2e00                	c.fld	f8,24(x12)
    6206:	646f7273          	csrrci	x4,hviprio1,30
    620a:	7461                	c.lui	x8,0xffff8
    620c:	2e61                	c.addiw	x28,24 # 0x18018
    620e:	616d                	c.addi16sp	x2,240
    6210:	6e69                	c.lui	x28,0x1a
    6212:	7261                	c.lui	x4,0xffff8
    6214:	2e007367          	.insn	4, 0x2e007367
    6218:	6164                	c.ld	x9,192(x10)
    621a:	6174                	c.ld	x13,192(x10)
    621c:	2e00                	c.fld	f8,24(x12)
    621e:	6d6d6f63          	bltu	x26,x22,0x68fc
    6222:	6e65                	c.lui	x28,0x19
    6224:	0074                	c.addi4spn	x13,x2,12
    6226:	722e                	c.ldsp	x4,232(x2)
    6228:	7369                	c.lui	x6,0xffffa
    622a:	612e7663          	bgeu	x28,x18,0x6836
    622e:	7474                	c.ld	x13,232(x8)
    6230:	6972                	c.ldsp	x18,280(x2)
    6232:	7562                	c.ldsp	x10,56(x2)
    6234:	6574                	c.ld	x13,200(x10)
    6236:	00000073          	ecall
	...
    6276:	0000                	c.unimp
    6278:	0000001b          	addiw	x0,x0,0
    627c:	0001                	c.addi	x0,0
    627e:	0000                	c.unimp
    6280:	0006                	c.slli	x0,0x1
	...
    628a:	8000                	.insn	2, 0x8000
    628c:	0000                	c.unimp
    628e:	0000                	c.unimp
    6290:	1000                	c.addi4spn	x8,x2,32
    6292:	0000                	c.unimp
    6294:	0000                	c.unimp
    6296:	0000                	c.unimp
    6298:	1a6c                	c.addi4spn	x11,x2,316
	...
    62a6:	0000                	c.unimp
    62a8:	0020                	c.addi4spn	x8,x2,8
	...
    62b6:	0000                	c.unimp
    62b8:	0021                	c.addi	x0,8
    62ba:	0000                	c.unimp
    62bc:	0001                	c.addi	x0,0
    62be:	0000                	c.unimp
    62c0:	0002                	c.slli64	x0
    62c2:	0000                	c.unimp
    62c4:	0000                	c.unimp
    62c6:	0000                	c.unimp
    62c8:	1a70                	c.addi4spn	x12,x2,316
    62ca:	8000                	.insn	2, 0x8000
    62cc:	0000                	c.unimp
    62ce:	0000                	c.unimp
    62d0:	2a70                	c.fld	f12,208(x12)
    62d2:	0000                	c.unimp
    62d4:	0000                	c.unimp
    62d6:	0000                	c.unimp
    62d8:	0001                	c.addi	x0,0
	...
    62e6:	0000                	c.unimp
    62e8:	0008                	.insn	2, 0x0008
	...
    62f6:	0000                	c.unimp
    62f8:	00000033          	add	x0,x0,x0
    62fc:	0001                	c.addi	x0,0
    62fe:	0000                	c.unimp
    6300:	00000003          	lb	x0,0(x0) # 0x0
    6304:	0000                	c.unimp
    6306:	0000                	c.unimp
    6308:	2000                	c.fld	f8,0(x8)
    630a:	8000                	.insn	2, 0x8000
    630c:	0000                	c.unimp
    630e:	0000                	c.unimp
    6310:	3000                	c.fld	f8,32(x8)
    6312:	0000                	c.unimp
    6314:	0000                	c.unimp
    6316:	0000                	c.unimp
    6318:	14e0                	c.addi4spn	x8,x2,620
	...
    6326:	0000                	c.unimp
    6328:	1000                	c.addi4spn	x8,x2,32
	...
    6336:	0000                	c.unimp
    6338:	0039                	c.addi	x0,14
    633a:	0000                	c.unimp
    633c:	0001                	c.addi	x0,0
    633e:	0000                	c.unimp
    6340:	0030                	c.addi4spn	x12,x2,8
	...
    634e:	0000                	c.unimp
    6350:	44e0                	c.lw	x8,76(x9)
    6352:	0000                	c.unimp
    6354:	0000                	c.unimp
    6356:	0000                	c.unimp
    6358:	0026                	c.slli	x0,0x9
	...
    6366:	0000                	c.unimp
    6368:	0001                	c.addi	x0,0
    636a:	0000                	c.unimp
    636c:	0000                	c.unimp
    636e:	0000                	c.unimp
    6370:	0001                	c.addi	x0,0
    6372:	0000                	c.unimp
    6374:	0000                	c.unimp
    6376:	0000                	c.unimp
    6378:	0042                	c.slli	x0,0x10
    637a:	0000                	c.unimp
    637c:	70000003          	lb	x0,1792(x0) # 0x700
	...
    6390:	4506                	c.lwsp	x10,64(x2)
    6392:	0000                	c.unimp
    6394:	0000                	c.unimp
    6396:	0000                	c.unimp
    6398:	002e                	c.slli	x0,0xb
	...
    63a6:	0000                	c.unimp
    63a8:	0001                	c.addi	x0,0
	...
    63b6:	0000                	c.unimp
    63b8:	0001                	c.addi	x0,0
    63ba:	0000                	c.unimp
    63bc:	0002                	c.slli64	x0
	...
    63ce:	0000                	c.unimp
    63d0:	4538                	c.lw	x14,72(x10)
    63d2:	0000                	c.unimp
    63d4:	0000                	c.unimp
    63d6:	0000                	c.unimp
    63d8:	1560                	c.addi4spn	x8,x2,684
    63da:	0000                	c.unimp
    63dc:	0000                	c.unimp
    63de:	0000                	c.unimp
    63e0:	00000007          	.insn	4, 0x0007
    63e4:	00ca                	c.slli	x1,0x12
    63e6:	0000                	c.unimp
    63e8:	0008                	.insn	2, 0x0008
    63ea:	0000                	c.unimp
    63ec:	0000                	c.unimp
    63ee:	0000                	c.unimp
    63f0:	0018                	.insn	2, 0x0018
    63f2:	0000                	c.unimp
    63f4:	0000                	c.unimp
    63f6:	0000                	c.unimp
    63f8:	0009                	c.addi	x0,2
    63fa:	0000                	c.unimp
    63fc:	00000003          	lb	x0,0(x0) # 0x0
	...
    6410:	5a98                	c.lw	x14,48(x13)
    6412:	0000                	c.unimp
    6414:	0000                	c.unimp
    6416:	0000                	c.unimp
    6418:	074c                	c.addi4spn	x11,x2,900
	...
    6426:	0000                	c.unimp
    6428:	0001                	c.addi	x0,0
	...
    6436:	0000                	c.unimp
    6438:	0011                	c.addi	x0,4
    643a:	0000                	c.unimp
    643c:	00000003          	lb	x0,0(x0) # 0x0
	...
    6450:	61e4                	c.ld	x9,192(x11)
    6452:	0000                	c.unimp
    6454:	0000                	c.unimp
    6456:	0000                	c.unimp
    6458:	0054                	c.addi4spn	x13,x2,4
	...
    6466:	0000                	c.unimp
    6468:	0001                	c.addi	x0,0
	...
