
bin/riscv-arch-test/sraw-riscv64-nemu.bin:     file format binary

Contents of section .data:
 80000000 13040000 17c10000 1301c1ff ef101024  ...............$
 80000010 ef000003 13051000 ef109022 13050000  ..........."....
 80000020 67800000 13051000 ef109021 67800000  g..........!g...
 80000030 00000000 00000000 00000000 00000000  ................
 80000040 b7c0edfe 9380d0ea 9390b000 9380707f  ..............p.
 80000050 9390b000 9380f036 9390a000 9380d02a  .......6.......*
 80000060 37e176ff 130161f5 1311b100 1301b17f  7.v...a.........
 80000070 1311b100 1301715b 1311a100 13016135  ......q[......a5
 80000080 b771bb7f 9381b1fa 9391b100 9381d13f  .q.............?
 80000090 9391b100 9381b16d 9391a100 9381b13a  .......m.......:
 800000a0 37b2ddbf 1302527d 1312b200 1302e25f  7.....R}......._
 800000b0 1312b200 1302d276 1312a200 1302523d  .......v......R=
 800000c0 b7e2eedf 9382a2be 9392b200 9382f26f  ...............o
 800000d0 9392b200 9382623b 9392a200 9382a23e  ......b;.......>
 800000e0 3773f76f 130353df 1313b300 1303f337  7s.o..S........7
 800000f0 1313b300 1303b35d 1313a300 1303531f  .......]......S.
 80000100 b7b3fbb7 9383a36f 9393b300 9383f35b  .......o.......[
 80000110 9393b300 9383d36e 9393a300 9383a32f  .......n......./
 80000120 37e4fd5b 1304d4b7 1314b400 1304f42d  7..[...........-
 80000130 1314b400 13046477 1314a400 1304d437  ......dw.......7
 80000140 b7f4fead 9384e4db 9394b400 9384f456  ...............V
 80000150 9394b400 9384b47b 9394a400 9384e41b  .......{........
 80000160 3775ff56 1305f56d 1315b500 1305752b  7u.V...m......u+
 80000170 1315b500 1305d57d 1315a500 1305f52d  .......}.......-
 80000180 b7c57fab 9385f5b6 9395b500 9385b555  ...............U
 80000190 9395b500 9385e57e 9395a500 9385f536  .......~.......6
 800001a0 37e6bfd5 130676db 1316b600 1306d66a  7.....v........j
 800001b0 1316b600 1306767f 1316a600 1306761b  ......v.......v.
 800001c0 b7f6dfea 9386b6ed 9396b600 93866675  ..............fu
 800001d0 9396b600 9386b67f 9396a600 9386b62d  ...............-
 800001e0 37f76ff5 1307d776 1317b700 1307b77a  7.o....v.......z
 800001f0 1317b700 1307d73f 1317a700 1307d736  .......?.......6
 80000200 b707b8fa 938767bb 9397b700 9387577d  ......g.......W}
 80000210 9397b700 9387e75f 9397a700 9387673b  ......._......g;
 80000220 37085c7d 1308b8dd 1318b800 1308a83e  7.\}...........>
 80000230 1318b800 1308f86f 1318a800 1308b81d  .......o........
 80000240 b708aebe 9388d8ee 9398b800 9388585f  ..............X_
 80000250 9398b800 9388f837 9398a800 9388d82e  .......7........
 80000260 370957df 130969f7 1319b900 1309a96f  7.W...i........o
 80000270 1319b900 1309f95b 1319a900 13096937  .......[......i7
 80000280 b789ab6f 9389b9fb 9399b900 9389d937  ...o...........7
 80000290 9399b900 9389f92d 9399a900 9389b93b  .......-.......;
 800002a0 37cad5b7 130adafd 131aba00 130aea5b  7..............[
 800002b0 131aba00 130afa56 131aaa00 130ada3d  .......V.......=
 800002c0 b7eaeadb 938aeafe 939aba00 938afa6d  ...............m
 800002d0 939aba00 938a7a2b 939aaa00 938aea3e  ......z+.......>
 800002e0 377bf56d 130b7bff 131bbb00 130bfb36  7{.m..{........6
 800002f0 131bbb00 130bbb55 131bab00 130b7b3f  .......U......{?
 80000300 b7bbfab6 938bbb7f 939bbb00 938b7b5b  ..............{[
 80000310 939bbb00 938bdb6a 939bab00 938bbb3f  .......j.......?
 80000320 376c7ddb 130cdcbf 131cbc00 130cbc6d  7l}............m
 80000330 131cbc00 130c6c75 131cac00 130cdc3f  ......lu.......?
 80000340 b7bcbeed 938cecdf 939cbc00 938cdc76  ...............v
 80000350 939cbc00 938cbc7a 939cac00 938cec1f  .......z........
 80000360 375ddf76 130dfd6f 131dbd00 130d6d3b  7].v...o......m;
 80000370 131dbd00 130d5d7d 131dad00 130dfd2f  ......]}......./
 80000380 b7bd6fbb 938dfdb7 939dbd00 938dbd5d  ..o............]
 80000390 939dbd00 938dad3e 939dad00 938dfd37  .......>.......7
 800003a0 37deb7dd 130efe5b 131ebe00 130ede6e  7......[.......n
 800003b0 131ebe00 130e5e5f 131eae00 130efe1b  ......^_........
 800003c0 b7fedbee 938efead 939ebe00 938e6e77  ..............nw
 800003d0 939ebe00 938eae6f 939eae00 938efe2d  .......o.......-
 800003e0 37ff6df7 130fff56 131fbf00 130fbf7b  7.m....V.......{
 800003f0 131fbf00 130fdf37 131faf00 130fff16  .......7........
 80000400 b70fb7fb 938f7fab 939fbf00 938fdf7d  ...............}
 80000410 939fbf00 938fef5b 939faf00 938f7f2b  .......[.......+
 80000420 97310000 938181be 13000000 13000000  .1..............
 80000430 13000000 13000000 13000000 13000000  ................
 80000440 9306f0ef 9306f0ef 3bd1d640 23b02100  ........;..@#.!.
 80000450 1307f0ff 63042700 6ff0dfbc 93021000  ....c.'.o.......
 80000460 9392c200 9307f001 bbd7f240 23b4f100  ...........@#...
 80000470 13070000 6304f700 6ff0dfba 13031000  ....c...o.......
 80000480 13131301 1343f3ff 13031000 13131301  .....C..........
 80000490 1343f3ff 3b536340 23b86100 1307f0ff  .C..;Sc@#.a.....
 800004a0 63046700 6ff01fb8 930c1000 939c3c01  c.g.o.........<.
 800004b0 130d0000 bbd6ac41 23bcd100 37070800  .......A#...7...
 800004c0 6304d700 6ff01fb6 930b9000 93059000  c...o...........
 800004d0 bbdbbb40 23b07103 13070000 63047701  ...@#.q.....c.w.
 800004e0 6ff05fb4 9304f0ff 9394f403 1309e000  o._.............
 800004f0 3bd02441 23b40102 13070000 63040700  ;.$A#.......c...
 80000500 6ff05fb2 93050000 930d3001 bbd4b541  o._.......0....A
 80000510 23b89102 13070000 63049700 6ff09fb0  #.......c...o...
 80000520 130ff0ff 135f1f00 13065001 3b54cf40  ....._....P.;T.@
 80000530 23bc8102 1307f0ff 63048700 6ff09fae  #.......c...o...
 80000540 930e1000 93030000 bbda7e40 23b05105  ..........~@#.Q.
 80000550 13071000 63045701 6ff0dfac 13000000  ....c.W.o.......
 80000560 130ca000 bb528041 23b45104 13070000  .....R.A#.Q.....
 80000570 63045700 6ff01fab 93094000 130b3001  c.W.o.....@...0.
 80000580 bbdd6941 23b8b105 13070000 6304b701  ..iA#.......c...
 80000590 6ff05fa9 93088000 13029000 bbd04840  o._...........H@
 800005a0 23bc1104 13070000 63041700 6ff09fa7  #.......c...o...
 800005b0 93000001 930c7001 bbdf9041 23b0f107  ......p....A#...
 800005c0 13070000 6304f701 6ff0dfa5 13050002  ....c...o.......
 800005d0 9304f000 3b5f9540 23b4e107 13070000  ....;_.@#.......
 800005e0 6304e701 6ff01fa4 13080004 930b7001  c...o.........p.
 800005f0 3b5d7841 23b8a107 13070000 6304a701  ;]xA#.......c...
 80000600 6ff05fa2 930a0008 13044000 3bde8a40  o._.......@.;..@
 80000610 23bcc107 93048000 6384c401 6ff09fa0  #.......c...o...
 80000620 17330000 130383a6 13000000 13000000  .3..............
 80000630 13000000 13000000 13000000 13000000  ................
 80000640 130a0010 1308d000 3b5c0a41 23308301  ........;\.A#0..
 80000650 93040000 63848401 6ff0df9c 930d0020  ....c...o...... 
 80000660 1301e000 bbd82d40 23341301 93040000  ......-@#4......
 80000670 63841401 6ff01f9b 93070040 13055000  c...o......@..P.
 80000680 3bdba740 23386301 93040002 63846401  ;..@#8c.....c.d.
 80000690 6ff05f99 93031000 9393b300 130fa000  o._.............
 800006a0 bbd5e341 233cb300 93042000 6384b400  ...A#<.... .c...
 800006b0 6ff05f97 130e1000 131ede00 9300b001  o._.............
 800006c0 bb5c1e40 23309303 93040000 63849401  .\.@#0......c...
 800006d0 6ff05f95 930f1000 939fef00 13000000  o._.............
 800006e0 3bd60f40 2334c302 b7440000 6384c400  ;..@#4...D..c...
 800006f0 6ff05f93 130b1000 131bfb00 930eb000  o._.............
 80000700 3b5adb41 23384303 93040001 63844401  ;Z.A#8C.....c.D.
 80000710 6ff05f91 13071000 13170701 130e0001  o._.............
 80000720 bb51c741 233c3302 93041000 63843400  .Q.A#<3.....c.4.
 80000730 6ff05f8f 93011000 93911101 930a3001  o._...........0.
 80000740 bbde5141 2330d305 93040000 6384d401  ..QA#0......c...
 80000750 6ff05f8d 130c1000 131c2c01 130a0001  o._.......,.....
 80000760 3b574c41 2334e304 93044000 6384e400  ;WLA#4....@.c...
 80000770 6ff05f8b 13011000 13114101 9309d001  o._.......A.....
 80000780 3b553141 2338a304 93040000 6384a400  ;U1A#8......c...
 80000790 6ff05f89 13091000 13195901 1307e000  o._.......Y.....
 800007a0 3b58e940 233c0305 93040008 63840401  ;X.@#<......c...
 800007b0 6ff05f87 13061000 13166601 93082001  o._.......f... .
 800007c0 3b591641 23302307 93040001 63842401  ;Y.A#0#.....c.$.
 800007d0 6ff05f85 13041000 13147401 9302d000  o._.......t.....
 800007e0 3b525440 23344306 93040040 63844400  ;RT@#4C....@c.D.
 800007f0 6ff05f83 13021000 13128201 930f9000  o._.............
 80000800 bb53f241 23387306 b7840000 63847400  .S.A#8s.....c.t.
 80000810 6ff05f81 130d1000 131d9d01 93018000  o._.............
 80000820 bb593d40 233c3307 b7040200 63843401  .Y=@#<3.....c.4.
 80000830 6ff04fff 13051000 1315a501 9305e001  o.O.............
 80000840 3b56b540 2330c308 93000000 6384c000  ;V.@#0......c...
 80000850 6ff04ffd 13051000 1315b501 9305c000  o.O.............
 80000860 3b56b540 2334c308 b7800000 6384c000  ;V.@#4......c...
 80000870 6ff04ffb 13051000 1315c501 9305e001  o.O.............
 80000880 3b56b540 2338c308 93000000 6384c000  ;V.@#8......c...
 80000890 6ff04ff9 13051000 1315d501 93050000  o.O.............
 800008a0 3b56b540 233cc308 b7000020 6384c000  ;V.@#<..... c...
 800008b0 6ff04ff7 13051000 1315e501 9305e001  o.O.............
 800008c0 3b56b540 2330c30a 93001000 6384c000  ;V.@#0......c...
 800008d0 6ff04ff5 13051000 1315f501 9305d000  o.O.............
 800008e0 3b56b540 2334c30a b700fcff 6384c000  ;V.@#4......c...
 800008f0 6ff04ff3 13051000 13150502 93054000  o.O...........@.
 80000900 3b56b540 2338c30a 93000000 6384c000  ;V.@#8......c...
 80000910 6ff04ff1 13051000 13151502 93051001  o.O.............
 80000920 3b56b540 233cc30a 93000000 6384c000  ;V.@#<......c...
 80000930 6ff04fef 13051000 13152502 93054000  o.O.......%...@.
 80000940 3b56b540 2330c30c 93000000 6384c000  ;V.@#0......c...
 80000950 6ff04fed 13051000 13153502 9305a000  o.O.......5.....
 80000960 3b56b540 2334c30c 93000000 6384c000  ;V.@#4......c...
 80000970 6ff04feb 13051000 13154502 93055000  o.O.......E...P.
 80000980 3b56b540 2338c30c 93000000 6384c000  ;V.@#8......c...
 80000990 6ff04fe9 13051000 13155502 9305f001  o.O.......U.....
 800009a0 3b56b540 233cc30c 93000000 6384c000  ;V.@#<......c...
 800009b0 6ff04fe7 13051000 13156502 9305a000  o.O.......e.....
 800009c0 3b56b540 2330c30e 93000000 6384c000  ;V.@#0......c...
 800009d0 6ff04fe5 13051000 13157502 9305e001  o.O.......u.....
 800009e0 3b56b540 2334c30e 93000000 6384c000  ;V.@#4......c...
 800009f0 6ff04fe3 13051000 13158502 93051000  o.O.............
 80000a00 3b56b540 2338c30e 93000000 6384c000  ;V.@#8......c...
 80000a10 6ff04fe1 13051000 13159502 93051000  o.O.............
 80000a20 3b56b540 233cc30e 93000000 6384c000  ;V.@#<......c...
 80000a30 6ff04fdf 13051000 1315a502 93054000  o.O...........@.
 80000a40 3b56b540 2330c310 93000000 6384c000  ;V.@#0......c...
 80000a50 6ff04fdd 13051000 1315b502 93052000  o.O........... .
 80000a60 3b56b540 2334c310 93000000 6384c000  ;V.@#4......c...
 80000a70 6ff04fdb 13051000 1315c502 93059000  o.O.............
 80000a80 3b56b540 2338c310 93000000 6384c000  ;V.@#8......c...
 80000a90 6ff04fd9 13051000 1315d502 9305f001  o.O.............
 80000aa0 3b56b540 233cc310 93000000 6384c000  ;V.@#<......c...
 80000ab0 6ff04fd7 13051000 1315e502 93057001  o.O...........p.
 80000ac0 3b56b540 2330c312 93000000 6384c000  ;V.@#0......c...
 80000ad0 6ff04fd5 13051000 1315f502 93056000  o.O...........`.
 80000ae0 3b56b540 2334c312 93000000 6384c000  ;V.@#4......c...
 80000af0 6ff04fd3 13051000 13150503 9305c000  o.O.............
 80000b00 3b56b540 2338c312 93000000 6384c000  ;V.@#8......c...
 80000b10 6ff04fd1 13051000 13151503 9305b000  o.O.............
 80000b20 3b56b540 233cc312 93000000 6384c000  ;V.@#<......c...
 80000b30 6ff04fcf 13051000 13152503 93058000  o.O.......%.....
 80000b40 3b56b540 2330c314 93000000 6384c000  ;V.@#0......c...
 80000b50 6ff04fcd 13051000 13153503 9305c000  o.O.......5.....
 80000b60 3b56b540 2334c314 93000000 6384c000  ;V.@#4......c...
 80000b70 6ff04fcb 13051000 13154503 9305b001  o.O.......E.....
 80000b80 3b56b540 2338c314 93000000 6384c000  ;V.@#8......c...
 80000b90 6ff04fc9 13051000 13155503 93050000  o.O.......U.....
 80000ba0 3b56b540 233cc314 93000000 6384c000  ;V.@#<......c...
 80000bb0 6ff04fc7 13051000 13156503 9305d001  o.O.......e.....
 80000bc0 3b56b540 2330c316 93000000 6384c000  ;V.@#0......c...
 80000bd0 6ff04fc5 13051000 13157503 9305d001  o.O.......u.....
 80000be0 3b56b540 2334c316 93000000 6384c000  ;V.@#4......c...
 80000bf0 6ff04fc3 13051000 13158503 93057001  o.O...........p.
 80000c00 3b56b540 2338c316 93000000 6384c000  ;V.@#8......c...
 80000c10 6ff04fc1 13051000 13159503 93057001  o.O...........p.
 80000c20 3b56b540 233cc316 93000000 6384c000  ;V.@#<......c...
 80000c30 6ff04fbf 13051000 1315a503 9305a000  o.O.............
 80000c40 3b56b540 2330c318 93000000 6384c000  ;V.@#0......c...
 80000c50 6ff04fbd 13051000 1315b503 9305a000  o.O.............
 80000c60 3b56b540 2334c318 93000000 6384c000  ;V.@#4......c...
 80000c70 6ff04fbb 13051000 1315c503 93055000  o.O...........P.
 80000c80 3b56b540 2338c318 93000000 6384c000  ;V.@#8......c...
 80000c90 6ff04fb9 13051000 1315d503 93053000  o.O...........0.
 80000ca0 3b56b540 233cc318 93000000 6384c000  ;V.@#<......c...
 80000cb0 6ff04fb7 13051000 1315e503 93056000  o.O...........`.
 80000cc0 3b56b540 2330c31a 93000000 6384c000  ;V.@#0......c...
 80000cd0 6ff04fb5 1305e0ff 9305f001 3b56b540  o.O.........;V.@
 80000ce0 2334c31a 9300f0ff 6384c000 6ff08fb3  #4......c...o...
 80000cf0 1305d0ff 9305a000 3b56b540 2338c31a  ........;V.@#8..
 80000d00 9300f0ff 6384c000 6ff0cfb1 1305b0ff  ....c...o.......
 80000d10 9305f001 3b56b540 233cc31a 9300f0ff  ....;V.@#<......
 80000d20 6384c000 6ff00fb0 130570ff 93058000  c...o.....p.....
 80000d30 3b56b540 2330c31c 9300f0ff 6384c000  ;V.@#0......c...
 80000d40 6ff04fae 1305f0fe 9305d000 3b56b540  o.O.........;V.@
 80000d50 2334c31c 9300f0ff 6384c000 6ff08fac  #4......c...o...
 80000d60 1305f0fd 93055001 3b56b540 2338c31c  ......P.;V.@#8..
 80000d70 9300f0ff 6384c000 6ff0cfaa 1305f0fb  ....c...o.......
 80000d80 93055001 3b56b540 233cc31c 9300f0ff  ..P.;V.@#<......
 80000d90 6384c000 6ff00fa9 1305f0f7 93052000  c...o......... .
 80000da0 3b56b540 2330c31e 9300f0fd 6384c000  ;V.@#0......c...
 80000db0 6ff04fa7 1305f0df 93059000 3b56b540  o.O.........;V.@
 80000dc0 2334c31e 9300e0ff 6384c000 6ff08fa5  #4......c...o...
 80000dd0 1305f0bf 93055001 3b56b540 2338c31e  ......P.;V.@#8..
 80000de0 9300f0ff 6384c000 6ff0cfa3 13051000  ....c...o.......
 80000df0 1315b500 1345f5ff 93057001 3b56b540  .....E....p.;V.@
 80000e00 233cc31e 9300f0ff 6384c000 6ff08fa1  #<......c...o...
 80000e10 13051000 1315c500 1345f5ff 93054000  .........E....@.
 80000e20 3b56b540 2330c320 9300f0ef 6384c000  ;V.@#0. ....c...
 80000e30 6ff04f9f 13051000 1315d500 1345f5ff  o.O..........E..
 80000e40 93055000 3b56b540 2334c320 9300f0ef  ..P.;V.@#4. ....
 80000e50 6384c000 6ff00f9d 13051000 1315e500  c...o...........
 80000e60 1345f5ff 93050000 3b56b540 2338c320  .E......;V.@#8. 
 80000e70 b7c0ffff 9b80f0ff 6384c000 6ff08f9a  ........c...o...
 80000e80 13051000 1315f500 1345f5ff 93057000  .........E....p.
 80000e90 3b56b540 233cc320 9300f0ef 6384c000  ;V.@#<. ....c...
 80000ea0 6ff04f98 13051000 13150501 1345f5ff  o.O..........E..
 80000eb0 9305f001 3b56b540 2330c322 9300f0ff  ....;V.@#0."....
 80000ec0 6384c000 6ff00f96 13051000 13152501  c...o.........%.
 80000ed0 1345f5ff 9305b000 3b56b540 2334c322  .E......;V.@#4."
 80000ee0 9300f0f7 6384c000 6ff0cf93 13051000  ....c...o.......
 80000ef0 13153501 1345f5ff 93056000 3b56b540  ..5..E....`.;V.@
 80000f00 2338c322 b7e0ffff 9b80f0ff 6384c000  #8."........c...
 80000f10 6ff04f91 13051000 13154501 1345f5ff  o.O.......E..E..
 80000f20 93055000 3b56b540 233cc322 b780ffff  ..P.;V.@#<."....
 80000f30 9b80f0ff 6384c000 6ff0cf8e 13051000  ....c...o.......
 80000f40 13157503 1345f5ff 9305b000 3b56b540  ..u..E......;V.@
 80000f50 2330c324 9300f0ff 6384c000 6ff08f8c  #0.$....c...o...
 80000f60 13051000 13158503 1345f5ff 93057001  .........E....p.
 80000f70 3b56b540 2334c324 9300f0ff 6384c000  ;V.@#4.$....c...
 80000f80 6ff04f8a 13051000 13159503 1345f5ff  o.O..........E..
 80000f90 93050001 3b56b540 2338c324 9300f0ff  ....;V.@#8.$....
 80000fa0 6384c000 6ff00f88 13051000 1315a503  c...o...........
 80000fb0 1345f5ff 93051001 3b56b540 233cc324  .E......;V.@#<.$
 80000fc0 9300f0ff 6384c000 6ff0cf85 13051000  ....c...o.......
 80000fd0 1315b503 1345f5ff 93050000 3b56b540  .....E......;V.@
 80000fe0 2330c326 9300f0ff 6384c000 6ff08f83  #0.&....c...o...
 80000ff0 13051000 1315c503 1345f5ff 93050000  .........E......
 80001000 3b56b540 2334c326 9300f0ff 6384c000  ;V.@#4.&....c...
 80001010 6ff04f81 13051000 1315d503 1345f5ff  o.O..........E..
 80001020 9305d001 3b56b540 2338c326 9300f0ff  ....;V.@#8.&....
 80001030 6384c000 6fe01fff 13051000 1315e503  c...o...........
 80001040 1345f5ff 93057000 3b56b540 233cc326  .E....p.;V.@#<.&
 80001050 9300f0ff 6384c000 6fe0dffc 37555555  ....c...o...7UUU
 80001060 13055555 1315b500 1305a52a 1315b500  ..UU.......*....
 80001070 13055555 1315a500 13055515 93057000  ..UU......U...p.
 80001080 3b56b540 2330c328 b7b0aa00 9b80a0aa  ;V.@#0.(........
 80001090 6384c000 6fe01ff9 37b5aaaa 1305a5aa  c...o...7.......
 800010a0 1315b500 13055555 1315b500 1305a52a  ......UU.......*
 800010b0 1315a500 1305a52a 93059000 3b56b540  .......*....;V.@
 800010c0 2334c328 b750d5ff 9b805055 6384c000  #4.(.P....PUc...
 800010d0 6fe05ff5 13053000 93052001 3b56b540  o._...0... .;V.@
 800010e0 2338c328 93000000 6384c000 6fe09ff3  #8.(....c...o...
 800010f0 13055000 93051000 3b56b540 233cc328  ..P.....;V.@#<.(
 80001100 93002000 6384c000 6fe0dff1 37353333  .. .c...o...7533
 80001110 13053533 1315b500 13059519 1315b500  ..53............
 80001120 1305c54c 1315a500 13053533 9305d001  ...L......53....
 80001130 3b56b540 2330c32a 93001000 6384c000  ;V.@#0.*....c...
 80001140 6fe05fee 37656666 13056566 1315b500  o._.7eff..ef....
 80001150 13053533 1315b500 13059519 1315a500  ..53............
 80001160 13056526 93053000 3b56b540 2334c32a  ..e&..0.;V.@#4.*
 80001170 b7d0cc0c 9b80c0cc 6384c000 6fe09fea  ........c...o...
 80001180 37050000 1305f5ff 1315b500 13057525  7.............u%
 80001190 1315b500 1305356c 1315a500 1305d50c  ......5l........
 800011a0 93053001 3b56b540 2338c32a b7100000  ..0.;V.@#8.*....
 800011b0 9b80f095 6384c000 6fe0dfe6 37050000  ....c...o...7...
 800011c0 13050500 1315b500 1305855a 1315b500  ...........Z....
 800011d0 1305c513 1315a500 13053533 9305c000  ..........53....
 800011e0 3b56b540 233cc32a b750fbff 9b80f004  ;V.@#<.*.P......
 800011f0 6384c000 6fe01fe3 37555555 13055555  c...o...7UUU..UU
 80001200 1315b500 1305a52a 1315b500 13055555  .......*......UU
 80001210 1315a500 13054515 9305e001 3b56b540  ......E.....;V.@
 80001220 2330c32c 93001000 6384c000 6fe09fdf  #0.,....c...o...
 80001230 37353333 13053533 1315b500 13059519  7533..53........
 80001240 1315b500 1305c54c 1315a500 13052533  .......L......%3
 80001250 93059000 3b56b540 2334c32c b7a01900  ....;V.@#4.,....
 80001260 9b809099 6384c000 6fe0dfdb 37656666  ....c...o...7eff
 80001270 13056566 1315b500 13053533 1315b500  ..ef......53....
 80001280 13059519 1315a500 13055526 93052000  ..........U&.. .
 80001290 3b56b540 2338c32c b7a09919 9b809099  ;V.@#8.,........
 800012a0 6384c000 6fe01fd8 37050000 13050500  c...o...7.......
 800012b0 1315b500 1305855a 1315b500 1305c513  .......Z........
 800012c0 1315a500 13052533 93055001 3b56b540  ......%3..P.;V.@
 800012d0 233cc32c 930080da 6384c000 6fe09fd4  #<.,....c...o...
 800012e0 37555555 13055555 1315b500 1305a52a  7UUU..UU.......*
 800012f0 1315b500 13055555 1315a500 13056515  ......UU......e.
 80001300 9305e001 3b56b540 2330c32e 93001000  ....;V.@#0......
 80001310 6384c000 6fe01fd1 37b5aaaa 1305a5aa  c...o...7.......
 80001320 1315b500 13055555 1315b500 1305a52a  ......UU.......*
 80001330 1315a500 1305b52a 9305e000 3b56b540  .......*....;V.@
 80001340 2334c32e b7b0feff 9b80a0aa 6384c000  #4..........c...
 80001350 6fe05fcd 13056000 9305a000 3b56b540  o._...`.....;V.@
 80001360 2338c32e 93000000 6384c000 6fe09fcb  #8......c...o...
 80001370 37353333 13053533 1315b500 13059519  7533..53........
 80001380 1315b500 1305c54c 1315a500 13054533  .......L......E3
 80001390 9305e000 3b56b540 233cc32e b7d00000  ....;V.@#<......
 800013a0 9b80c0cc 6384c000 6fe0dfc7 37656666  ....c...o...7eff
 800013b0 13056566 1315b500 13053533 1315b500  ..ef......53....
 800013c0 13059519 1315a500 13057526 93051001  ..........u&....
 800013d0 3b56b540 2330c330 b7300000 9b803033  ;V.@#0.0.0....03
 800013e0 6384c000 6fe01fc4 37050000 1305f5ff  c...o...7.......
 800013f0 1315b500 13057525 1315b500 1305356c  ......u%......5l
 80001400 1315a500 1305e50c 93054000 3b56b540  ..........@.;V.@
 80001410 2334c330 b7b0af04 9b80c00c 6384c000  #4.0........c...
 80001420 6fe05fc0 37050000 13050500 1315b500  o._.7...........
 80001430 1305855a 1315b500 1305c513 1315a500  ...Z............
 80001440 13054533 9305d001 3b56b540 2338c330  ..E3....;V.@#8.0
 80001450 9300d0ff 6384c000 6fe0dfbc 13051000  ....c...o.......
 80001460 13155501 1345f5ff 9305f000 3b56b540  ..U..E......;V.@
 80001470 233cc330 9300f0fb 6384c000 6fe09fba  #<.0....c...o...
 80001480 13051000 13156501 1345f5ff 9305d000  ......e..E......
 80001490 3b56b540 2330c332 9300f0df 6384c000  ;V.@#0.2....c...
 800014a0 6fe05fb8 13051000 13157501 1345f5ff  o._.......u..E..
 800014b0 9305e001 3b56b540 2334c332 9300f0ff  ....;V.@#4.2....
 800014c0 6384c000 6fe01fb6 13051000 13158501  c...o...........
 800014d0 1345f5ff 9305e000 3b56b540 2338c332  .E......;V.@#8.2
 800014e0 9300f0bf 6384c000 6fe0dfb3 13051000  ....c...o.......
 800014f0 13159501 1345f5ff 93055000 3b56b540  .....E....P.;V.@
 80001500 233cc332 b700f0ff 9b80f0ff 6384c000  #<.2........c...
 80001510 6fe05fb1 13051000 1315a501 1345f5ff  o._..........E..
 80001520 93058000 3b56b540 2330c334 b700fcff  ....;V.@#0.4....
 80001530 9b80f0ff 6384c000 6fe0dfae 13051000  ....c...o.......
 80001540 1315b501 1345f5ff 93057000 3b56b540  .....E....p.;V.@
 80001550 2334c334 b700f0ff 9b80f0ff 6384c000  #4.4........c...
 80001560 6fe05fac 13051000 1315c501 1345f5ff  o._..........E..
 80001570 9305b000 3b56b540 2338c334 b700feff  ....;V.@#8.4....
 80001580 9b80f0ff 6384c000 6fe0dfa9 13051000  ....c...o.......
 80001590 1315d501 1345f5ff 93051001 3b56b540  .....E......;V.@
 800015a0 233cc334 b7f0ffff 9b80f0ff 6384c000  #<.4........c...
 800015b0 6fe05fa7 13051000 1315e501 1345f5ff  o._..........E..
 800015c0 93056000 3b56b540 2330c336 b70000ff  ..`.;V.@#0.6....
 800015d0 9b80f0ff 6384c000 6fe0dfa4 13051000  ....c...o.......
 800015e0 1315f501 1345f5ff 9305f000 3b56b540  .....E......;V.@
 800015f0 2334c336 b7000100 9b80f0ff 6384c000  #4.6........c...
 80001600 6fe05fa2 13051000 13150502 1345f5ff  o._..........E..
 80001610 93057001 3b56b540 2338c336 9300f0ff  ..p.;V.@#8.6....
 80001620 6384c000 6fe01fa0 13051000 13151502  c...o...........
 80001630 1345f5ff 93052000 3b56b540 233cc336  .E.... .;V.@#<.6
 80001640 9300f0ff 6384c000 6fe0df9d 13051000  ....c...o.......
 80001650 13152502 1345f5ff 93057001 3b56b540  ..%..E....p.;V.@
 80001660 2330c338 9300f0ff 6384c000 6fe09f9b  #0.8....c...o...
 80001670 13051000 13153502 1345f5ff 93050000  ......5..E......
 80001680 3b56b540 2334c338 9300f0ff 6384c000  ;V.@#4.8....c...
 80001690 6fe05f99 13051000 13154502 1345f5ff  o._.......E..E..
 800016a0 93051001 3b56b540 2338c338 9300f0ff  ....;V.@#8.8....
 800016b0 6384c000 6fe01f97 13051000 13155502  c...o.........U.
 800016c0 1345f5ff 93051000 3b56b540 233cc338  .E......;V.@#<.8
 800016d0 9300f0ff 6384c000 6fe0df94 13051000  ....c...o.......
 800016e0 13156502 1345f5ff 9305f001 3b56b540  ..e..E......;V.@
 800016f0 2330c33a 9300f0ff 6384c000 6fe09f92  #0.:....c...o...
 80001700 13051000 13157502 1345f5ff 93056000  ......u..E....`.
 80001710 3b56b540 2334c33a 9300f0ff 6384c000  ;V.@#4.:....c...
 80001720 6fe05f90 13051000 13158502 1345f5ff  o._..........E..
 80001730 9305b001 3b56b540 2338c33a 9300f0ff  ....;V.@#8.:....
 80001740 6384c000 6fe01f8e 13051000 13159502  c...o...........
 80001750 1345f5ff 9305a000 3b56b540 233cc33a  .E......;V.@#<.:
 80001760 9300f0ff 6384c000 6fe0df8b 13051000  ....c...o.......
 80001770 1315a502 1345f5ff 93052000 3b56b540  .....E.... .;V.@
 80001780 2330c33c 9300f0ff 6384c000 6fe09f89  #0.<....c...o...
 80001790 13051000 1315b502 1345f5ff 93058000  .........E......
 800017a0 3b56b540 2334c33c 9300f0ff 6384c000  ;V.@#4.<....c...
 800017b0 6fe05f87 13051000 1315c502 1345f5ff  o._..........E..
 800017c0 9305d000 3b56b540 2338c33c 9300f0ff  ....;V.@#8.<....
 800017d0 6384c000 6fe01f85 13051000 1315d502  c...o...........
 800017e0 1345f5ff 9305a000 3b56b540 233cc33c  .E......;V.@#<.<
 800017f0 9300f0ff 6384c000 6fe0df82 13051000  ....c...o.......
 80001800 1315e502 1345f5ff 93057001 3b56b540  .....E....p.;V.@
 80001810 2330c33e 9300f0ff 6384c000 6fe09f80  #0.>....c...o...
 80001820 13051000 1315f502 1345f5ff 93052001  .........E.... .
 80001830 3b56b540 2334c33e 9300f0ff 6384c000  ;V.@#4.>....c...
 80001840 6fe04ffe 13051000 13150503 1345f5ff  o.O..........E..
 80001850 93059000 3b56b540 2338c33e 9300f0ff  ....;V.@#8.>....
 80001860 6384c000 6fe00ffc 13051000 13151503  c...o...........
 80001870 1345f5ff 93053001 3b56b540 233cc33e  .E....0.;V.@#<.>
 80001880 9300f0ff 6384c000 6fe0cff9 13051000  ....c...o.......
 80001890 13152503 1345f5ff 9305a000 3b56b540  ..%..E......;V.@
 800018a0 2330c340 9300f0ff 6384c000 6fe08ff7  #0.@....c...o...
 800018b0 13051000 13153503 1345f5ff 93051000  ......5..E......
 800018c0 3b56b540 2334c340 9300f0ff 6384c000  ;V.@#4.@....c...
 800018d0 6fe04ff5 13051000 13154503 1345f5ff  o.O.......E..E..
 800018e0 93052000 3b56b540 2338c340 9300f0ff  .. .;V.@#8.@....
 800018f0 6384c000 6fe00ff3 13051000 13155503  c...o.........U.
 80001900 1345f5ff 9305f001 3b56b540 233cc340  .E......;V.@#<.@
 80001910 9300f0ff 6384c000 6fe0cff0 13051000  ....c...o.......
 80001920 13156503 1345f5ff 93054000 3b56b540  ..e..E....@.;V.@
 80001930 2330c342 9300f0ff 6384c000 6fe08fee  #0.B....c...o...
 80001940 1305f0ef 93051000 3b56b540 2334c342  ........;V.@#4.B
 80001950 9300f0f7 6384c000 6fe0cfec 13051000  ....c...o.......
 80001960 13151501 1345f5ff 93050000 3b56b540  .....E......;V.@
 80001970 2338c342 b700feff 9b80f0ff 6384c000  #8.B........c...
 80001980 6fe04fea 1305f0ff 1315f503 9305e000  o.O.............
 80001990 3b56b540 233cc342 93000000 6384c000  ;V.@#<.B....c...
 800019a0 6fe04fe8 13052000 9305a000 3b56b540  o.O... .....;V.@
 800019b0 2330c344 93000000 6384c000 6fe08fe6  #0.D....c...o...
 800019c0 13051000 1315e500 93052000 3b56b540  .......... .;V.@
 800019d0 2334c344 b7100000 6384c000 6fe08fe4  #4.D....c...o...
 800019e0 6f008003 8334811f 03330120 33039300  o....4...3. 3...
 800019f0 37030000 13030300 1313b300 1303635d  7.............c]
 80001a00 1313b300 13036343 1313a300 1303032d  ......cC.......-
 80001a10 23be64fe 6f004000 13050000 6f004002  #.d.o.@.....o.@.
 80001a20 00000000 00000000 00000000 00000000  ................
 80001a30 00000000 00000000 00000000 00000000  ................
 80001a40 13050500 73001000 6f000000 130101ff  ....s...o.......
 80001a50 17050000 13050502 23341100 efe04fdb  ........#4....O.
 80001a60 13050500 73001000 6f000000 00000000  ....s...o.......
 80001a70 00000000 00000000 00000000 00000000  ................
 80001a80 00000000 00000000 00000000 00000000  ................
 80001a90 00000000 00000000 00000000 00000000  ................
 80001aa0 00000000 00000000 00000000 00000000  ................
 80001ab0 00000000 00000000 00000000 00000000  ................
 80001ac0 00000000 00000000 00000000 00000000  ................
 80001ad0 00000000 00000000 00000000 00000000  ................
 80001ae0 00000000 00000000 00000000 00000000  ................
 80001af0 00000000 00000000 00000000 00000000  ................
 80001b00 00000000 00000000 00000000 00000000  ................
 80001b10 00000000 00000000 00000000 00000000  ................
 80001b20 00000000 00000000 00000000 00000000  ................
 80001b30 00000000 00000000 00000000 00000000  ................
 80001b40 00000000 00000000 00000000 00000000  ................
 80001b50 00000000 00000000 00000000 00000000  ................
 80001b60 00000000 00000000 00000000 00000000  ................
 80001b70 00000000 00000000 00000000 00000000  ................
 80001b80 00000000 00000000 00000000 00000000  ................
 80001b90 00000000 00000000 00000000 00000000  ................
 80001ba0 00000000 00000000 00000000 00000000  ................
 80001bb0 00000000 00000000 00000000 00000000  ................
 80001bc0 00000000 00000000 00000000 00000000  ................
 80001bd0 00000000 00000000 00000000 00000000  ................
 80001be0 00000000 00000000 00000000 00000000  ................
 80001bf0 00000000 00000000 00000000 00000000  ................
 80001c00 00000000 00000000 00000000 00000000  ................
 80001c10 00000000 00000000 00000000 00000000  ................
 80001c20 00000000 00000000 00000000 00000000  ................
 80001c30 00000000 00000000 00000000 00000000  ................
 80001c40 00000000 00000000 00000000 00000000  ................
 80001c50 00000000 00000000 00000000 00000000  ................
 80001c60 00000000 00000000 00000000 00000000  ................
 80001c70 00000000 00000000 00000000 00000000  ................
 80001c80 00000000 00000000 00000000 00000000  ................
 80001c90 00000000 00000000 00000000 00000000  ................
 80001ca0 00000000 00000000 00000000 00000000  ................
 80001cb0 00000000 00000000 00000000 00000000  ................
 80001cc0 00000000 00000000 00000000 00000000  ................
 80001cd0 00000000 00000000 00000000 00000000  ................
 80001ce0 00000000 00000000 00000000 00000000  ................
 80001cf0 00000000 00000000 00000000 00000000  ................
 80001d00 00000000 00000000 00000000 00000000  ................
 80001d10 00000000 00000000 00000000 00000000  ................
 80001d20 00000000 00000000 00000000 00000000  ................
 80001d30 00000000 00000000 00000000 00000000  ................
 80001d40 00000000 00000000 00000000 00000000  ................
 80001d50 00000000 00000000 00000000 00000000  ................
 80001d60 00000000 00000000 00000000 00000000  ................
 80001d70 00000000 00000000 00000000 00000000  ................
 80001d80 00000000 00000000 00000000 00000000  ................
 80001d90 00000000 00000000 00000000 00000000  ................
 80001da0 00000000 00000000 00000000 00000000  ................
 80001db0 00000000 00000000 00000000 00000000  ................
 80001dc0 00000000 00000000 00000000 00000000  ................
 80001dd0 00000000 00000000 00000000 00000000  ................
 80001de0 00000000 00000000 00000000 00000000  ................
 80001df0 00000000 00000000 00000000 00000000  ................
 80001e00 00000000 00000000 00000000 00000000  ................
 80001e10 00000000 00000000 00000000 00000000  ................
 80001e20 00000000 00000000 00000000 00000000  ................
 80001e30 00000000 00000000 00000000 00000000  ................
 80001e40 00000000 00000000 00000000 00000000  ................
 80001e50 00000000 00000000 00000000 00000000  ................
 80001e60 00000000 00000000 00000000 00000000  ................
 80001e70 00000000 00000000 00000000 00000000  ................
 80001e80 00000000 00000000 00000000 00000000  ................
 80001e90 00000000 00000000 00000000 00000000  ................
 80001ea0 00000000 00000000 00000000 00000000  ................
 80001eb0 00000000 00000000 00000000 00000000  ................
 80001ec0 00000000 00000000 00000000 00000000  ................
 80001ed0 00000000 00000000 00000000 00000000  ................
 80001ee0 00000000 00000000 00000000 00000000  ................
 80001ef0 00000000 00000000 00000000 00000000  ................
 80001f00 00000000 00000000 00000000 00000000  ................
 80001f10 00000000 00000000 00000000 00000000  ................
 80001f20 00000000 00000000 00000000 00000000  ................
 80001f30 00000000 00000000 00000000 00000000  ................
 80001f40 00000000 00000000 00000000 00000000  ................
 80001f50 00000000 00000000 00000000 00000000  ................
 80001f60 00000000 00000000 00000000 00000000  ................
 80001f70 00000000 00000000 00000000 00000000  ................
 80001f80 00000000 00000000 00000000 00000000  ................
 80001f90 00000000 00000000 00000000 00000000  ................
 80001fa0 00000000 00000000 00000000 00000000  ................
 80001fb0 00000000 00000000 00000000 00000000  ................
 80001fc0 00000000 00000000 00000000 00000000  ................
 80001fd0 00000000 00000000 00000000 00000000  ................
 80001fe0 00000000 00000000 00000000 00000000  ................
 80001ff0 00000000 00000000 00000000 00000000  ................
 80002000 fecabeba fecabeba fecabeba fecabeba  ................
 80002010 efbeadde efbeadde 00000000 00000000  ................
 80002020 00000000 00000000 00000000 00000000  ................
 80002030 00000000 00000000 00000000 00000000  ................
 80002040 00000000 00000000 00000000 00000000  ................
 80002050 00000000 00000000 00000000 00000000  ................
 80002060 00000000 00000000 00000000 00000000  ................
 80002070 00000000 00000000 00000000 00000000  ................
 80002080 00000000 00000000 00000000 00000000  ................
 80002090 00000000 00000000 00000000 00000000  ................
 800020a0 00000000 00000000 00000000 00000000  ................
 800020b0 00000000 00000000 00000000 00000000  ................
 800020c0 00000000 00000000 00000000 00000000  ................
 800020d0 00000000 00000000 00000000 00000000  ................
 800020e0 00000000 00000000 00000000 00000000  ................
 800020f0 00000000 00000000 00000000 00000000  ................
 80002100 00000000 00000000 00000000 00000000  ................
 80002110 00000000 00000000 00000000 00000000  ................
 80002120 00000000 00000000 00000000 00000000  ................
 80002130 00000000 00000000 00000000 00000000  ................
 80002140 00000000 00000000 00000000 00000000  ................
 80002150 00000000 00000000 00000000 00000000  ................
 80002160 00000000 00000000 00000000 00000000  ................
 80002170 00000000 00000000 00000000 00000000  ................
 80002180 00000000 00000000 00000000 00000000  ................
 80002190 00000000 00000000 00000000 00000000  ................
 800021a0 00000000 00000000 00000000 00000000  ................
 800021b0 00000000 00000000 00000000 00000000  ................
 800021c0 00000000 00000000 00000000 00000000  ................
 800021d0 00000000 00000000 00000000 00000000  ................
 800021e0 00000000 00000000 00000000 00000000  ................
 800021f0 00000000 00000000 00000000 00000000  ................
 80002200 00000000 00000000 00000000 00000000  ................
 80002210 00000000 00000000 00000000 00000000  ................
 80002220 00000000 00000000 00000000 00000000  ................
 80002230 00000000 00000000 00000000 00000000  ................
 80002240 00000000 00000000 00000000 00000000  ................
 80002250 00000000 00000000 00000000 00000000  ................
 80002260 00000000 00000000 00000000 00000000  ................
 80002270 00000000 00000000 00000000 00000000  ................
 80002280 00000000 00000000 00000000 00000000  ................
 80002290 00000000 00000000 00000000 00000000  ................
 800022a0 00000000 00000000 00000000 00000000  ................
 800022b0 00000000 00000000 00000000 00000000  ................
 800022c0 00000000 00000000 00000000 00000000  ................
 800022d0 00000000 00000000 00000000 00000000  ................
 800022e0 00000000 00000000 00000000 00000000  ................
 800022f0 00000000 00000000 00000000 00000000  ................
 80002300 00000000 00000000 00000000 00000000  ................
 80002310 00000000 00000000 00000000 00000000  ................
 80002320 00000000 00000000 00000000 00000000  ................
 80002330 00000000 00000000 00000000 00000000  ................
 80002340 00000000 00000000 00000000 00000000  ................
 80002350 00000000 00000000 00000000 00000000  ................
 80002360 00000000 00000000 00000000 00000000  ................
 80002370 00000000 00000000 00000000 00000000  ................
 80002380 00000000 00000000 00000000 00000000  ................
 80002390 00000000 00000000 00000000 00000000  ................
 800023a0 00000000 00000000 00000000 00000000  ................
 800023b0 00000000 00000000 00000000 00000000  ................
 800023c0 00000000 00000000 00000000 00000000  ................
 800023d0 00000000 00000000 00000000 00000000  ................
 800023e0 00000000 00000000 00000000 00000000  ................
 800023f0 00000000 00000000 00000000 00000000  ................
 80002400 00000000 00000000 00000000 00000000  ................
 80002410 00000000 00000000 00000000 00000000  ................
 80002420 00000000 00000000 00000000 00000000  ................
 80002430 00000000 00000000 00000000 00000000  ................
 80002440 00000000 00000000 00000000 00000000  ................
 80002450 00000000 00000000 00000000 00000000  ................
 80002460 00000000 00000000 00000000 00000000  ................
 80002470 00000000 00000000 00000000 00000000  ................
 80002480 00000000 00000000 00000000 00000000  ................
 80002490 00000000 00000000 00000000 00000000  ................
 800024a0 00000000 00000000 00000000 00000000  ................
 800024b0 00000000 00000000 00000000 00000000  ................
 800024c0 00000000 00000000 00000000 00000000  ................
 800024d0 00000000 00000000 00000000 00000000  ................
 800024e0 00000000 00000000 00000000 00000000  ................
 800024f0 00000000 00000000 00000000 00000000  ................
 80002500 00000000 00000000 00000000 00000000  ................
 80002510 00000000 00000000 00000000 00000000  ................
 80002520 00000000 00000000 00000000 00000000  ................
 80002530 00000000 00000000 00000000 00000000  ................
 80002540 00000000 00000000 00000000 00000000  ................
 80002550 00000000 00000000 00000000 00000000  ................
 80002560 00000000 00000000 00000000 00000000  ................
 80002570 00000000 00000000 00000000 00000000  ................
 80002580 00000000 00000000 00000000 00000000  ................
 80002590 00000000 00000000 00000000 00000000  ................
 800025a0 00000000 00000000 00000000 00000000  ................
 800025b0 00000000 00000000 00000000 00000000  ................
 800025c0 00000000 00000000 00000000 00000000  ................
 800025d0 00000000 00000000 00000000 00000000  ................
 800025e0 00000000 00000000 00000000 00000000  ................
 800025f0 00000000 00000000 00000000 00000000  ................
 80002600 00000000 00000000 00000000 00000000  ................
 80002610 00000000 00000000 00000000 00000000  ................
 80002620 00000000 00000000 00000000 00000000  ................
 80002630 00000000 00000000 00000000 00000000  ................
 80002640 00000000 00000000 00000000 00000000  ................
 80002650 00000000 00000000 00000000 00000000  ................
 80002660 00000000 00000000 00000000 00000000  ................
 80002670 00000000 00000000 00000000 00000000  ................
 80002680 00000000 00000000 00000000 00000000  ................
 80002690 00000000 00000000 00000000 00000000  ................
 800026a0 00000000 00000000 00000000 00000000  ................
 800026b0 00000000 00000000 00000000 00000000  ................
 800026c0 00000000 00000000 00000000 00000000  ................
 800026d0 00000000 00000000 00000000 00000000  ................
 800026e0 00000000 00000000 00000000 00000000  ................
 800026f0 00000000 00000000 00000000 00000000  ................
 80002700 00000000 00000000 00000000 00000000  ................
 80002710 00000000 00000000 00000000 00000000  ................
 80002720 00000000 00000000 00000000 00000000  ................
 80002730 00000000 00000000 00000000 00000000  ................
 80002740 00000000 00000000 00000000 00000000  ................
 80002750 00000000 00000000 00000000 00000000  ................
 80002760 00000000 00000000 00000000 00000000  ................
 80002770 00000000 00000000 00000000 00000000  ................
 80002780 00000000 00000000 00000000 00000000  ................
 80002790 00000000 00000000 00000000 00000000  ................
 800027a0 00000000 00000000 00000000 00000000  ................
 800027b0 00000000 00000000 00000000 00000000  ................
 800027c0 00000000 00000000 00000000 00000000  ................
 800027d0 00000000 00000000 00000000 00000000  ................
 800027e0 00000000 00000000 00000000 00000000  ................
 800027f0 00000000 00000000 00000000 00000000  ................
 80002800 00000000 00000000 00000000 00000000  ................
 80002810 00000000 00000000 00000000 00000000  ................
 80002820 00000000 00000000 00000000 00000000  ................
 80002830 00000000 00000000 00000000 00000000  ................
 80002840 00000000 00000000 00000000 00000000  ................
 80002850 00000000 00000000 00000000 00000000  ................
 80002860 00000000 00000000 00000000 00000000  ................
 80002870 00000000 00000000 00000000 00000000  ................
 80002880 00000000 00000000 00000000 00000000  ................
 80002890 00000000 00000000 00000000 00000000  ................
 800028a0 00000000 00000000 00000000 00000000  ................
 800028b0 00000000 00000000 00000000 00000000  ................
 800028c0 00000000 00000000 00000000 00000000  ................
 800028d0 00000000 00000000 00000000 00000000  ................
 800028e0 00000000 00000000 00000000 00000000  ................
 800028f0 00000000 00000000 00000000 00000000  ................
 80002900 00000000 00000000 00000000 00000000  ................
 80002910 00000000 00000000 00000000 00000000  ................
 80002920 00000000 00000000 00000000 00000000  ................
 80002930 00000000 00000000 00000000 00000000  ................
 80002940 00000000 00000000 00000000 00000000  ................
 80002950 00000000 00000000 00000000 00000000  ................
 80002960 00000000 00000000 00000000 00000000  ................
 80002970 00000000 00000000 00000000 00000000  ................
 80002980 00000000 00000000 00000000 00000000  ................
 80002990 00000000 00000000 00000000 00000000  ................
 800029a0 00000000 00000000 00000000 00000000  ................
 800029b0 00000000 00000000 00000000 00000000  ................
 800029c0 00000000 00000000 00000000 00000000  ................
 800029d0 00000000 00000000 00000000 00000000  ................
 800029e0 00000000 00000000 00000000 00000000  ................
 800029f0 00000000 00000000 00000000 00000000  ................
 80002a00 00000000 00000000 00000000 00000000  ................
 80002a10 00000000 00000000 00000000 00000000  ................
 80002a20 00000000 00000000 00000000 00000000  ................
 80002a30 00000000 00000000 00000000 00000000  ................
 80002a40 00000000 00000000 00000000 00000000  ................
 80002a50 00000000 00000000 00000000 00000000  ................
 80002a60 00000000 00000000 00000000 00000000  ................
 80002a70 00000000 00000000 00000000 00000000  ................
 80002a80 00000000 00000000 00000000 00000000  ................
 80002a90 00000000 00000000 00000000 00000000  ................
 80002aa0 00000000 00000000 00000000 00000000  ................
 80002ab0 00000000 00000000 00000000 00000000  ................
 80002ac0 00000000 00000000 00000000 00000000  ................
 80002ad0 00000000 00000000 00000000 00000000  ................
 80002ae0 00000000 00000000 00000000 00000000  ................
 80002af0 00000000 00000000 00000000 00000000  ................
 80002b00 00000000 00000000 00000000 00000000  ................
 80002b10 00000000 00000000 00000000 00000000  ................
 80002b20 00000000 00000000 00000000 00000000  ................
 80002b30 00000000 00000000 00000000 00000000  ................
 80002b40 00000000 00000000 00000000 00000000  ................
 80002b50 00000000 00000000 00000000 00000000  ................
 80002b60 00000000 00000000 00000000 00000000  ................
 80002b70 00000000 00000000 00000000 00000000  ................
 80002b80 00000000 00000000 00000000 00000000  ................
 80002b90 00000000 00000000 00000000 00000000  ................
 80002ba0 00000000 00000000 00000000 00000000  ................
 80002bb0 00000000 00000000 00000000 00000000  ................
 80002bc0 00000000 00000000 00000000 00000000  ................
 80002bd0 00000000 00000000 00000000 00000000  ................
 80002be0 00000000 00000000 00000000 00000000  ................
 80002bf0 00000000 00000000 00000000 00000000  ................
 80002c00 00000000 00000000 00000000 00000000  ................
 80002c10 00000000 00000000 00000000 00000000  ................
 80002c20 00000000 00000000 00000000 00000000  ................
 80002c30 00000000 00000000 00000000 00000000  ................
 80002c40 00000000 00000000 00000000 00000000  ................
 80002c50 00000000 00000000 00000000 00000000  ................
 80002c60 00000000 00000000 00000000 00000000  ................
 80002c70 00000000 00000000 00000000 00000000  ................
 80002c80 00000000 00000000 00000000 00000000  ................
 80002c90 00000000 00000000 00000000 00000000  ................
 80002ca0 00000000 00000000 00000000 00000000  ................
 80002cb0 00000000 00000000 00000000 00000000  ................
 80002cc0 00000000 00000000 00000000 00000000  ................
 80002cd0 00000000 00000000 00000000 00000000  ................
 80002ce0 00000000 00000000 00000000 00000000  ................
 80002cf0 00000000 00000000 00000000 00000000  ................
 80002d00 00000000 00000000 00000000 00000000  ................
 80002d10 00000000 00000000 00000000 00000000  ................
 80002d20 00000000 00000000 00000000 00000000  ................
 80002d30 00000000 00000000 00000000 00000000  ................
 80002d40 00000000 00000000 00000000 00000000  ................
 80002d50 00000000 00000000 00000000 00000000  ................
 80002d60 00000000 00000000 00000000 00000000  ................
 80002d70 00000000 00000000 00000000 00000000  ................
 80002d80 00000000 00000000 00000000 00000000  ................
 80002d90 00000000 00000000 00000000 00000000  ................
 80002da0 00000000 00000000 00000000 00000000  ................
 80002db0 00000000 00000000 00000000 00000000  ................
 80002dc0 00000000 00000000 00000000 00000000  ................
 80002dd0 00000000 00000000 00000000 00000000  ................
 80002de0 00000000 00000000 00000000 00000000  ................
 80002df0 00000000 00000000 00000000 00000000  ................
 80002e00 00000000 00000000 00000000 00000000  ................
 80002e10 00000000 00000000 00000000 00000000  ................
 80002e20 00000000 00000000 00000000 00000000  ................
 80002e30 00000000 00000000 00000000 00000000  ................
 80002e40 00000000 00000000 00000000 00000000  ................
 80002e50 00000000 00000000 00000000 00000000  ................
 80002e60 00000000 00000000 00000000 00000000  ................
 80002e70 00000000 00000000 00000000 00000000  ................
 80002e80 00000000 00000000 00000000 00000000  ................
 80002e90 00000000 00000000 00000000 00000000  ................
 80002ea0 00000000 00000000 00000000 00000000  ................
 80002eb0 00000000 00000000 00000000 00000000  ................
 80002ec0 00000000 00000000 00000000 00000000  ................
 80002ed0 00000000 00000000 00000000 00000000  ................
 80002ee0 00000000 00000000 00000000 00000000  ................
 80002ef0 00000000 00000000 00000000 00000000  ................
 80002f00 00000000 00000000 00000000 00000000  ................
 80002f10 00000000 00000000 00000000 00000000  ................
 80002f20 00000000 00000000 00000000 00000000  ................
 80002f30 00000000 00000000 00000000 00000000  ................
 80002f40 00000000 00000000 00000000 00000000  ................
 80002f50 00000000 00000000 00000000 00000000  ................
 80002f60 00000000 00000000 00000000 00000000  ................
 80002f70 00000000 00000000 00000000 00000000  ................
 80002f80 00000000 00000000 00000000 00000000  ................
 80002f90 00000000 00000000 00000000 00000000  ................
 80002fa0 00000000 00000000 00000000 00000000  ................
 80002fb0 00000000 00000000 00000000 00000000  ................
 80002fc0 00000000 00000000 00000000 00000000  ................
 80002fd0 00000000 00000000 00000000 00000000  ................
 80002fe0 00000000 00000000 00000000 00000000  ................
 80002ff0 00000000 00000000 00000000 00000000  ................
 80003000 81b2d4e7 09a35c6f efbeadde efbeadde  ......\o........
 80003010 efbeadde efbeadde efbeadde efbeadde  ................
 80003020 efbeadde efbeadde efbeadde efbeadde  ................
 80003030 efbeadde efbeadde efbeadde efbeadde  ................
 80003040 efbeadde efbeadde efbeadde efbeadde  ................
 80003050 efbeadde efbeadde efbeadde efbeadde  ................
 80003060 efbeadde efbeadde efbeadde efbeadde  ................
 80003070 efbeadde efbeadde efbeadde efbeadde  ................
 80003080 efbeadde efbeadde efbeadde efbeadde  ................
 80003090 efbeadde efbeadde efbeadde efbeadde  ................
 800030a0 efbeadde efbeadde efbeadde efbeadde  ................
 800030b0 efbeadde efbeadde efbeadde efbeadde  ................
 800030c0 efbeadde efbeadde efbeadde efbeadde  ................
 800030d0 efbeadde efbeadde efbeadde efbeadde  ................
 800030e0 efbeadde efbeadde efbeadde efbeadde  ................
 800030f0 efbeadde efbeadde efbeadde efbeadde  ................
 80003100 efbeadde efbeadde efbeadde efbeadde  ................
 80003110 efbeadde efbeadde efbeadde efbeadde  ................
 80003120 efbeadde efbeadde efbeadde efbeadde  ................
 80003130 efbeadde efbeadde efbeadde efbeadde  ................
 80003140 efbeadde efbeadde efbeadde efbeadde  ................
 80003150 efbeadde efbeadde efbeadde efbeadde  ................
 80003160 efbeadde efbeadde efbeadde efbeadde  ................
 80003170 efbeadde efbeadde efbeadde efbeadde  ................
 80003180 efbeadde efbeadde efbeadde efbeadde  ................
 80003190 efbeadde efbeadde efbeadde efbeadde  ................
 800031a0 efbeadde efbeadde efbeadde efbeadde  ................
 800031b0 efbeadde efbeadde efbeadde efbeadde  ................
 800031c0 efbeadde efbeadde efbeadde efbeadde  ................
 800031d0 efbeadde efbeadde efbeadde efbeadde  ................
 800031e0 efbeadde efbeadde efbeadde efbeadde  ................
 800031f0 efbeadde efbeadde efbeadde efbeadde  ................
 80003200 efbeadde efbeadde efbeadde efbeadde  ................
 80003210 efbeadde efbeadde efbeadde efbeadde  ................
 80003220 efbeadde efbeadde efbeadde efbeadde  ................
 80003230 efbeadde efbeadde efbeadde efbeadde  ................
 80003240 efbeadde efbeadde efbeadde efbeadde  ................
 80003250 efbeadde efbeadde efbeadde efbeadde  ................
 80003260 efbeadde efbeadde efbeadde efbeadde  ................
 80003270 efbeadde efbeadde efbeadde efbeadde  ................
 80003280 efbeadde efbeadde efbeadde efbeadde  ................
 80003290 efbeadde efbeadde efbeadde efbeadde  ................
 800032a0 efbeadde efbeadde efbeadde efbeadde  ................
 800032b0 efbeadde efbeadde efbeadde efbeadde  ................
 800032c0 efbeadde efbeadde efbeadde efbeadde  ................
 800032d0 efbeadde efbeadde efbeadde efbeadde  ................
 800032e0 efbeadde efbeadde efbeadde efbeadde  ................
 800032f0 efbeadde efbeadde efbeadde efbeadde  ................
 80003300 efbeadde efbeadde efbeadde efbeadde  ................
 80003310 efbeadde efbeadde efbeadde efbeadde  ................
 80003320 efbeadde efbeadde efbeadde efbeadde  ................
 80003330 efbeadde efbeadde efbeadde efbeadde  ................
 80003340 efbeadde efbeadde efbeadde efbeadde  ................
 80003350 efbeadde efbeadde efbeadde efbeadde  ................
 80003360 efbeadde efbeadde efbeadde efbeadde  ................
 80003370 efbeadde efbeadde efbeadde efbeadde  ................
 80003380 efbeadde efbeadde efbeadde efbeadde  ................
 80003390 efbeadde efbeadde efbeadde efbeadde  ................
 800033a0 efbeadde efbeadde efbeadde efbeadde  ................
 800033b0 efbeadde efbeadde efbeadde efbeadde  ................
 800033c0 efbeadde efbeadde efbeadde efbeadde  ................
 800033d0 efbeadde efbeadde efbeadde efbeadde  ................
 800033e0 efbeadde efbeadde efbeadde efbeadde  ................
 800033f0 efbeadde efbeadde efbeadde efbeadde  ................
 80003400 efbeadde efbeadde efbeadde efbeadde  ................
 80003410 efbeadde efbeadde efbeadde efbeadde  ................
 80003420 efbeadde efbeadde efbeadde efbeadde  ................
 80003430 efbeadde efbeadde efbeadde efbeadde  ................
 80003440 efbeadde efbeadde efbeadde efbeadde  ................
 80003450 efbeadde efbeadde efbeadde efbeadde  ................
 80003460 efbeadde efbeadde efbeadde efbeadde  ................
 80003470 efbeadde efbeadde efbeadde efbeadde  ................
 80003480 efbeadde efbeadde efbeadde efbeadde  ................
 80003490 efbeadde efbeadde efbeadde efbeadde  ................
 800034a0 efbeadde efbeadde efbeadde efbeadde  ................
 800034b0 efbeadde efbeadde efbeadde efbeadde  ................
 800034c0 efbeadde efbeadde efbeadde efbeadde  ................
 800034d0 efbeadde efbeadde 81b2d4e7 09a35c6f  ..............\o

Disassembly of section .data:

0000000080000000 <.data>:
    80000000:	00000413          	addi	x8,x0,0
    80000004:	0000c117          	auipc	x2,0xc
    80000008:	ffc10113          	addi	x2,x2,-4 # 0x8000c000
    8000000c:	241010ef          	jal	x1,0x80001a4c
    80000010:	030000ef          	jal	x1,0x80000040
    80000014:	00100513          	addi	x10,x0,1
    80000018:	229010ef          	jal	x1,0x80001a40
    8000001c:	00000513          	addi	x10,x0,0
    80000020:	00008067          	jalr	x0,0(x1)
    80000024:	00100513          	addi	x10,x0,1
    80000028:	219010ef          	jal	x1,0x80001a40
    8000002c:	00008067          	jalr	x0,0(x1)
	...
    80000040:	feedc0b7          	lui	x1,0xfeedc
    80000044:	ead08093          	addi	x1,x1,-339 # 0xfffffffffeedbead
    80000048:	00b09093          	slli	x1,x1,0xb
    8000004c:	7f708093          	addi	x1,x1,2039
    80000050:	00b09093          	slli	x1,x1,0xb
    80000054:	36f08093          	addi	x1,x1,879
    80000058:	00a09093          	slli	x1,x1,0xa
    8000005c:	2ad08093          	addi	x1,x1,685
    80000060:	ff76e137          	lui	x2,0xff76e
    80000064:	f5610113          	addi	x2,x2,-170 # 0xffffffffff76df56
    80000068:	00b11113          	slli	x2,x2,0xb
    8000006c:	7fb10113          	addi	x2,x2,2043
    80000070:	00b11113          	slli	x2,x2,0xb
    80000074:	5b710113          	addi	x2,x2,1463
    80000078:	00a11113          	slli	x2,x2,0xa
    8000007c:	35610113          	addi	x2,x2,854
    80000080:	7fbb71b7          	lui	x3,0x7fbb7
    80000084:	fab18193          	addi	x3,x3,-85 # 0x7fbb6fab
    80000088:	00b19193          	slli	x3,x3,0xb
    8000008c:	3fd18193          	addi	x3,x3,1021
    80000090:	00b19193          	slli	x3,x3,0xb
    80000094:	6db18193          	addi	x3,x3,1755
    80000098:	00a19193          	slli	x3,x3,0xa
    8000009c:	3ab18193          	addi	x3,x3,939
    800000a0:	bfddb237          	lui	x4,0xbfddb
    800000a4:	7d520213          	addi	x4,x4,2005 # 0xffffffffbfddb7d5
    800000a8:	00b21213          	slli	x4,x4,0xb
    800000ac:	5fe20213          	addi	x4,x4,1534 # 0x5fe
    800000b0:	00b21213          	slli	x4,x4,0xb
    800000b4:	76d20213          	addi	x4,x4,1901 # 0x76d
    800000b8:	00a21213          	slli	x4,x4,0xa
    800000bc:	3d520213          	addi	x4,x4,981 # 0x3d5
    800000c0:	dfeee2b7          	lui	x5,0xdfeee
    800000c4:	bea28293          	addi	x5,x5,-1046 # 0xffffffffdfeedbea
    800000c8:	00b29293          	slli	x5,x5,0xb
    800000cc:	6ff28293          	addi	x5,x5,1791
    800000d0:	00b29293          	slli	x5,x5,0xb
    800000d4:	3b628293          	addi	x5,x5,950
    800000d8:	00a29293          	slli	x5,x5,0xa
    800000dc:	3ea28293          	addi	x5,x5,1002
    800000e0:	6ff77337          	lui	x6,0x6ff77
    800000e4:	df530313          	addi	x6,x6,-523 # 0x6ff76df5
    800000e8:	00b31313          	slli	x6,x6,0xb
    800000ec:	37f30313          	addi	x6,x6,895
    800000f0:	00b31313          	slli	x6,x6,0xb
    800000f4:	5db30313          	addi	x6,x6,1499
    800000f8:	00a31313          	slli	x6,x6,0xa
    800000fc:	1f530313          	addi	x6,x6,501
    80000100:	b7fbb3b7          	lui	x7,0xb7fbb
    80000104:	6fa38393          	addi	x7,x7,1786 # 0xffffffffb7fbb6fa
    80000108:	00b39393          	slli	x7,x7,0xb
    8000010c:	5bf38393          	addi	x7,x7,1471
    80000110:	00b39393          	slli	x7,x7,0xb
    80000114:	6ed38393          	addi	x7,x7,1773
    80000118:	00a39393          	slli	x7,x7,0xa
    8000011c:	2fa38393          	addi	x7,x7,762
    80000120:	5bfde437          	lui	x8,0x5bfde
    80000124:	b7d40413          	addi	x8,x8,-1155 # 0x5bfddb7d
    80000128:	00b41413          	slli	x8,x8,0xb
    8000012c:	2df40413          	addi	x8,x8,735
    80000130:	00b41413          	slli	x8,x8,0xb
    80000134:	77640413          	addi	x8,x8,1910
    80000138:	00a41413          	slli	x8,x8,0xa
    8000013c:	37d40413          	addi	x8,x8,893
    80000140:	adfef4b7          	lui	x9,0xadfef
    80000144:	dbe48493          	addi	x9,x9,-578 # 0xffffffffadfeedbe
    80000148:	00b49493          	slli	x9,x9,0xb
    8000014c:	56f48493          	addi	x9,x9,1391
    80000150:	00b49493          	slli	x9,x9,0xb
    80000154:	7bb48493          	addi	x9,x9,1979
    80000158:	00a49493          	slli	x9,x9,0xa
    8000015c:	1be48493          	addi	x9,x9,446
    80000160:	56ff7537          	lui	x10,0x56ff7
    80000164:	6df50513          	addi	x10,x10,1759 # 0x56ff76df
    80000168:	00b51513          	slli	x10,x10,0xb
    8000016c:	2b750513          	addi	x10,x10,695
    80000170:	00b51513          	slli	x10,x10,0xb
    80000174:	7dd50513          	addi	x10,x10,2013
    80000178:	00a51513          	slli	x10,x10,0xa
    8000017c:	2df50513          	addi	x10,x10,735
    80000180:	ab7fc5b7          	lui	x11,0xab7fc
    80000184:	b6f58593          	addi	x11,x11,-1169 # 0xffffffffab7fbb6f
    80000188:	00b59593          	slli	x11,x11,0xb
    8000018c:	55b58593          	addi	x11,x11,1371
    80000190:	00b59593          	slli	x11,x11,0xb
    80000194:	7ee58593          	addi	x11,x11,2030
    80000198:	00a59593          	slli	x11,x11,0xa
    8000019c:	36f58593          	addi	x11,x11,879
    800001a0:	d5bfe637          	lui	x12,0xd5bfe
    800001a4:	db760613          	addi	x12,x12,-585 # 0xffffffffd5bfddb7
    800001a8:	00b61613          	slli	x12,x12,0xb
    800001ac:	6ad60613          	addi	x12,x12,1709
    800001b0:	00b61613          	slli	x12,x12,0xb
    800001b4:	7f760613          	addi	x12,x12,2039
    800001b8:	00a61613          	slli	x12,x12,0xa
    800001bc:	1b760613          	addi	x12,x12,439
    800001c0:	eadff6b7          	lui	x13,0xeadff
    800001c4:	edb68693          	addi	x13,x13,-293 # 0xffffffffeadfeedb
    800001c8:	00b69693          	slli	x13,x13,0xb
    800001cc:	75668693          	addi	x13,x13,1878
    800001d0:	00b69693          	slli	x13,x13,0xb
    800001d4:	7fb68693          	addi	x13,x13,2043
    800001d8:	00a69693          	slli	x13,x13,0xa
    800001dc:	2db68693          	addi	x13,x13,731
    800001e0:	f56ff737          	lui	x14,0xf56ff
    800001e4:	76d70713          	addi	x14,x14,1901 # 0xfffffffff56ff76d
    800001e8:	00b71713          	slli	x14,x14,0xb
    800001ec:	7ab70713          	addi	x14,x14,1963
    800001f0:	00b71713          	slli	x14,x14,0xb
    800001f4:	3fd70713          	addi	x14,x14,1021
    800001f8:	00a71713          	slli	x14,x14,0xa
    800001fc:	36d70713          	addi	x14,x14,877
    80000200:	fab807b7          	lui	x15,0xfab80
    80000204:	bb678793          	addi	x15,x15,-1098 # 0xfffffffffab7fbb6
    80000208:	00b79793          	slli	x15,x15,0xb
    8000020c:	7d578793          	addi	x15,x15,2005
    80000210:	00b79793          	slli	x15,x15,0xb
    80000214:	5fe78793          	addi	x15,x15,1534
    80000218:	00a79793          	slli	x15,x15,0xa
    8000021c:	3b678793          	addi	x15,x15,950
    80000220:	7d5c0837          	lui	x16,0x7d5c0
    80000224:	ddb80813          	addi	x16,x16,-549 # 0x7d5bfddb
    80000228:	00b81813          	slli	x16,x16,0xb
    8000022c:	3ea80813          	addi	x16,x16,1002
    80000230:	00b81813          	slli	x16,x16,0xb
    80000234:	6ff80813          	addi	x16,x16,1791
    80000238:	00a81813          	slli	x16,x16,0xa
    8000023c:	1db80813          	addi	x16,x16,475
    80000240:	beae08b7          	lui	x17,0xbeae0
    80000244:	eed88893          	addi	x17,x17,-275 # 0xffffffffbeadfeed
    80000248:	00b89893          	slli	x17,x17,0xb
    8000024c:	5f588893          	addi	x17,x17,1525
    80000250:	00b89893          	slli	x17,x17,0xb
    80000254:	37f88893          	addi	x17,x17,895
    80000258:	00a89893          	slli	x17,x17,0xa
    8000025c:	2ed88893          	addi	x17,x17,749
    80000260:	df570937          	lui	x18,0xdf570
    80000264:	f7690913          	addi	x18,x18,-138 # 0xffffffffdf56ff76
    80000268:	00b91913          	slli	x18,x18,0xb
    8000026c:	6fa90913          	addi	x18,x18,1786
    80000270:	00b91913          	slli	x18,x18,0xb
    80000274:	5bf90913          	addi	x18,x18,1471
    80000278:	00a91913          	slli	x18,x18,0xa
    8000027c:	37690913          	addi	x18,x18,886
    80000280:	6fab89b7          	lui	x19,0x6fab8
    80000284:	fbb98993          	addi	x19,x19,-69 # 0x6fab7fbb
    80000288:	00b99993          	slli	x19,x19,0xb
    8000028c:	37d98993          	addi	x19,x19,893
    80000290:	00b99993          	slli	x19,x19,0xb
    80000294:	2df98993          	addi	x19,x19,735
    80000298:	00a99993          	slli	x19,x19,0xa
    8000029c:	3bb98993          	addi	x19,x19,955
    800002a0:	b7d5ca37          	lui	x20,0xb7d5c
    800002a4:	fdda0a13          	addi	x20,x20,-35 # 0xffffffffb7d5bfdd
    800002a8:	00ba1a13          	slli	x20,x20,0xb
    800002ac:	5bea0a13          	addi	x20,x20,1470
    800002b0:	00ba1a13          	slli	x20,x20,0xb
    800002b4:	56fa0a13          	addi	x20,x20,1391
    800002b8:	00aa1a13          	slli	x20,x20,0xa
    800002bc:	3dda0a13          	addi	x20,x20,989
    800002c0:	dbeaeab7          	lui	x21,0xdbeae
    800002c4:	feea8a93          	addi	x21,x21,-18 # 0xffffffffdbeadfee
    800002c8:	00ba9a93          	slli	x21,x21,0xb
    800002cc:	6dfa8a93          	addi	x21,x21,1759
    800002d0:	00ba9a93          	slli	x21,x21,0xb
    800002d4:	2b7a8a93          	addi	x21,x21,695
    800002d8:	00aa9a93          	slli	x21,x21,0xa
    800002dc:	3eea8a93          	addi	x21,x21,1006
    800002e0:	6df57b37          	lui	x22,0x6df57
    800002e4:	ff7b0b13          	addi	x22,x22,-9 # 0x6df56ff7
    800002e8:	00bb1b13          	slli	x22,x22,0xb
    800002ec:	36fb0b13          	addi	x22,x22,879
    800002f0:	00bb1b13          	slli	x22,x22,0xb
    800002f4:	55bb0b13          	addi	x22,x22,1371
    800002f8:	00ab1b13          	slli	x22,x22,0xa
    800002fc:	3f7b0b13          	addi	x22,x22,1015
    80000300:	b6fabbb7          	lui	x23,0xb6fab
    80000304:	7fbb8b93          	addi	x23,x23,2043 # 0xffffffffb6fab7fb
    80000308:	00bb9b93          	slli	x23,x23,0xb
    8000030c:	5b7b8b93          	addi	x23,x23,1463
    80000310:	00bb9b93          	slli	x23,x23,0xb
    80000314:	6adb8b93          	addi	x23,x23,1709
    80000318:	00ab9b93          	slli	x23,x23,0xa
    8000031c:	3fbb8b93          	addi	x23,x23,1019
    80000320:	db7d6c37          	lui	x24,0xdb7d6
    80000324:	bfdc0c13          	addi	x24,x24,-1027 # 0xffffffffdb7d5bfd
    80000328:	00bc1c13          	slli	x24,x24,0xb
    8000032c:	6dbc0c13          	addi	x24,x24,1755
    80000330:	00bc1c13          	slli	x24,x24,0xb
    80000334:	756c0c13          	addi	x24,x24,1878
    80000338:	00ac1c13          	slli	x24,x24,0xa
    8000033c:	3fdc0c13          	addi	x24,x24,1021
    80000340:	edbebcb7          	lui	x25,0xedbeb
    80000344:	dfec8c93          	addi	x25,x25,-514 # 0xffffffffedbeadfe
    80000348:	00bc9c93          	slli	x25,x25,0xb
    8000034c:	76dc8c93          	addi	x25,x25,1901
    80000350:	00bc9c93          	slli	x25,x25,0xb
    80000354:	7abc8c93          	addi	x25,x25,1963
    80000358:	00ac9c93          	slli	x25,x25,0xa
    8000035c:	1fec8c93          	addi	x25,x25,510
    80000360:	76df5d37          	lui	x26,0x76df5
    80000364:	6ffd0d13          	addi	x26,x26,1791 # 0x76df56ff
    80000368:	00bd1d13          	slli	x26,x26,0xb
    8000036c:	3b6d0d13          	addi	x26,x26,950
    80000370:	00bd1d13          	slli	x26,x26,0xb
    80000374:	7d5d0d13          	addi	x26,x26,2005
    80000378:	00ad1d13          	slli	x26,x26,0xa
    8000037c:	2ffd0d13          	addi	x26,x26,767
    80000380:	bb6fbdb7          	lui	x27,0xbb6fb
    80000384:	b7fd8d93          	addi	x27,x27,-1153 # 0xffffffffbb6fab7f
    80000388:	00bd9d93          	slli	x27,x27,0xb
    8000038c:	5dbd8d93          	addi	x27,x27,1499
    80000390:	00bd9d93          	slli	x27,x27,0xb
    80000394:	3ead8d93          	addi	x27,x27,1002
    80000398:	00ad9d93          	slli	x27,x27,0xa
    8000039c:	37fd8d93          	addi	x27,x27,895
    800003a0:	ddb7de37          	lui	x28,0xddb7d
    800003a4:	5bfe0e13          	addi	x28,x28,1471 # 0xffffffffddb7d5bf
    800003a8:	00be1e13          	slli	x28,x28,0xb
    800003ac:	6ede0e13          	addi	x28,x28,1773
    800003b0:	00be1e13          	slli	x28,x28,0xb
    800003b4:	5f5e0e13          	addi	x28,x28,1525
    800003b8:	00ae1e13          	slli	x28,x28,0xa
    800003bc:	1bfe0e13          	addi	x28,x28,447
    800003c0:	eedbfeb7          	lui	x29,0xeedbf
    800003c4:	adfe8e93          	addi	x29,x29,-1313 # 0xffffffffeedbeadf
    800003c8:	00be9e93          	slli	x29,x29,0xb
    800003cc:	776e8e93          	addi	x29,x29,1910
    800003d0:	00be9e93          	slli	x29,x29,0xb
    800003d4:	6fae8e93          	addi	x29,x29,1786
    800003d8:	00ae9e93          	slli	x29,x29,0xa
    800003dc:	2dfe8e93          	addi	x29,x29,735
    800003e0:	f76dff37          	lui	x30,0xf76df
    800003e4:	56ff0f13          	addi	x30,x30,1391 # 0xfffffffff76df56f
    800003e8:	00bf1f13          	slli	x30,x30,0xb
    800003ec:	7bbf0f13          	addi	x30,x30,1979
    800003f0:	00bf1f13          	slli	x30,x30,0xb
    800003f4:	37df0f13          	addi	x30,x30,893
    800003f8:	00af1f13          	slli	x30,x30,0xa
    800003fc:	16ff0f13          	addi	x30,x30,367
    80000400:	fbb70fb7          	lui	x31,0xfbb70
    80000404:	ab7f8f93          	addi	x31,x31,-1353 # 0xfffffffffbb6fab7
    80000408:	00bf9f93          	slli	x31,x31,0xb
    8000040c:	7ddf8f93          	addi	x31,x31,2013
    80000410:	00bf9f93          	slli	x31,x31,0xb
    80000414:	5bef8f93          	addi	x31,x31,1470
    80000418:	00af9f93          	slli	x31,x31,0xa
    8000041c:	2b7f8f93          	addi	x31,x31,695
    80000420:	00003197          	auipc	x3,0x3
    80000424:	be818193          	addi	x3,x3,-1048 # 0x80003008
    80000428:	00000013          	addi	x0,x0,0
    8000042c:	00000013          	addi	x0,x0,0
    80000430:	00000013          	addi	x0,x0,0
    80000434:	00000013          	addi	x0,x0,0
    80000438:	00000013          	addi	x0,x0,0
    8000043c:	00000013          	addi	x0,x0,0
    80000440:	eff00693          	addi	x13,x0,-257
    80000444:	eff00693          	addi	x13,x0,-257
    80000448:	40d6d13b          	sraw	x2,x13,x13
    8000044c:	0021b023          	sd	x2,0(x3)
    80000450:	fff00713          	addi	x14,x0,-1
    80000454:	00270463          	beq	x14,x2,0x8000045c
    80000458:	bcdff06f          	jal	x0,0x80000024
    8000045c:	00100293          	addi	x5,x0,1
    80000460:	00c29293          	slli	x5,x5,0xc
    80000464:	01f00793          	addi	x15,x0,31
    80000468:	40f2d7bb          	sraw	x15,x5,x15
    8000046c:	00f1b423          	sd	x15,8(x3)
    80000470:	00000713          	addi	x14,x0,0
    80000474:	00f70463          	beq	x14,x15,0x8000047c
    80000478:	badff06f          	jal	x0,0x80000024
    8000047c:	00100313          	addi	x6,x0,1
    80000480:	01131313          	slli	x6,x6,0x11
    80000484:	fff34313          	xori	x6,x6,-1
    80000488:	00100313          	addi	x6,x0,1
    8000048c:	01131313          	slli	x6,x6,0x11
    80000490:	fff34313          	xori	x6,x6,-1
    80000494:	4063533b          	sraw	x6,x6,x6
    80000498:	0061b823          	sd	x6,16(x3)
    8000049c:	fff00713          	addi	x14,x0,-1
    800004a0:	00670463          	beq	x14,x6,0x800004a8
    800004a4:	b81ff06f          	jal	x0,0x80000024
    800004a8:	00100c93          	addi	x25,x0,1
    800004ac:	013c9c93          	slli	x25,x25,0x13
    800004b0:	00000d13          	addi	x26,x0,0
    800004b4:	41acd6bb          	sraw	x13,x25,x26
    800004b8:	00d1bc23          	sd	x13,24(x3)
    800004bc:	00080737          	lui	x14,0x80
    800004c0:	00d70463          	beq	x14,x13,0x800004c8
    800004c4:	b61ff06f          	jal	x0,0x80000024
    800004c8:	00900b93          	addi	x23,x0,9
    800004cc:	00900593          	addi	x11,x0,9
    800004d0:	40bbdbbb          	sraw	x23,x23,x11
    800004d4:	0371b023          	sd	x23,32(x3)
    800004d8:	00000713          	addi	x14,x0,0
    800004dc:	01770463          	beq	x14,x23,0x800004e4
    800004e0:	b45ff06f          	jal	x0,0x80000024
    800004e4:	fff00493          	addi	x9,x0,-1
    800004e8:	03f49493          	slli	x9,x9,0x3f
    800004ec:	00e00913          	addi	x18,x0,14
    800004f0:	4124d03b          	sraw	x0,x9,x18
    800004f4:	0201b423          	sd	x0,40(x3)
    800004f8:	00000713          	addi	x14,x0,0
    800004fc:	00070463          	beq	x14,x0,0x80000504
    80000500:	b25ff06f          	jal	x0,0x80000024
    80000504:	00000593          	addi	x11,x0,0
    80000508:	01300d93          	addi	x27,x0,19
    8000050c:	41b5d4bb          	sraw	x9,x11,x27
    80000510:	0291b823          	sd	x9,48(x3)
    80000514:	00000713          	addi	x14,x0,0
    80000518:	00970463          	beq	x14,x9,0x80000520
    8000051c:	b09ff06f          	jal	x0,0x80000024
    80000520:	fff00f13          	addi	x30,x0,-1
    80000524:	001f5f13          	srli	x30,x30,0x1
    80000528:	01500613          	addi	x12,x0,21
    8000052c:	40cf543b          	sraw	x8,x30,x12
    80000530:	0281bc23          	sd	x8,56(x3)
    80000534:	fff00713          	addi	x14,x0,-1
    80000538:	00870463          	beq	x14,x8,0x80000540
    8000053c:	ae9ff06f          	jal	x0,0x80000024
    80000540:	00100e93          	addi	x29,x0,1
    80000544:	00000393          	addi	x7,x0,0
    80000548:	407edabb          	sraw	x21,x29,x7
    8000054c:	0551b023          	sd	x21,64(x3)
    80000550:	00100713          	addi	x14,x0,1
    80000554:	01570463          	beq	x14,x21,0x8000055c
    80000558:	acdff06f          	jal	x0,0x80000024
    8000055c:	00000013          	addi	x0,x0,0
    80000560:	00a00c13          	addi	x24,x0,10
    80000564:	418052bb          	sraw	x5,x0,x24
    80000568:	0451b423          	sd	x5,72(x3)
    8000056c:	00000713          	addi	x14,x0,0
    80000570:	00570463          	beq	x14,x5,0x80000578
    80000574:	ab1ff06f          	jal	x0,0x80000024
    80000578:	00400993          	addi	x19,x0,4
    8000057c:	01300b13          	addi	x22,x0,19
    80000580:	4169ddbb          	sraw	x27,x19,x22
    80000584:	05b1b823          	sd	x27,80(x3)
    80000588:	00000713          	addi	x14,x0,0
    8000058c:	01b70463          	beq	x14,x27,0x80000594
    80000590:	a95ff06f          	jal	x0,0x80000024
    80000594:	00800893          	addi	x17,x0,8
    80000598:	00900213          	addi	x4,x0,9
    8000059c:	4048d0bb          	sraw	x1,x17,x4
    800005a0:	0411bc23          	sd	x1,88(x3)
    800005a4:	00000713          	addi	x14,x0,0
    800005a8:	00170463          	beq	x14,x1,0x800005b0
    800005ac:	a79ff06f          	jal	x0,0x80000024
    800005b0:	01000093          	addi	x1,x0,16
    800005b4:	01700c93          	addi	x25,x0,23
    800005b8:	4190dfbb          	sraw	x31,x1,x25
    800005bc:	07f1b023          	sd	x31,96(x3)
    800005c0:	00000713          	addi	x14,x0,0
    800005c4:	01f70463          	beq	x14,x31,0x800005cc
    800005c8:	a5dff06f          	jal	x0,0x80000024
    800005cc:	02000513          	addi	x10,x0,32
    800005d0:	00f00493          	addi	x9,x0,15
    800005d4:	40955f3b          	sraw	x30,x10,x9
    800005d8:	07e1b423          	sd	x30,104(x3)
    800005dc:	00000713          	addi	x14,x0,0
    800005e0:	01e70463          	beq	x14,x30,0x800005e8
    800005e4:	a41ff06f          	jal	x0,0x80000024
    800005e8:	04000813          	addi	x16,x0,64
    800005ec:	01700b93          	addi	x23,x0,23
    800005f0:	41785d3b          	sraw	x26,x16,x23
    800005f4:	07a1b823          	sd	x26,112(x3)
    800005f8:	00000713          	addi	x14,x0,0
    800005fc:	01a70463          	beq	x14,x26,0x80000604
    80000600:	a25ff06f          	jal	x0,0x80000024
    80000604:	08000a93          	addi	x21,x0,128
    80000608:	00400413          	addi	x8,x0,4
    8000060c:	408ade3b          	sraw	x28,x21,x8
    80000610:	07c1bc23          	sd	x28,120(x3)
    80000614:	00800493          	addi	x9,x0,8
    80000618:	01c48463          	beq	x9,x28,0x80000620
    8000061c:	a09ff06f          	jal	x0,0x80000024
    80000620:	00003317          	auipc	x6,0x3
    80000624:	a6830313          	addi	x6,x6,-1432 # 0x80003088
    80000628:	00000013          	addi	x0,x0,0
    8000062c:	00000013          	addi	x0,x0,0
    80000630:	00000013          	addi	x0,x0,0
    80000634:	00000013          	addi	x0,x0,0
    80000638:	00000013          	addi	x0,x0,0
    8000063c:	00000013          	addi	x0,x0,0
    80000640:	10000a13          	addi	x20,x0,256
    80000644:	00d00813          	addi	x16,x0,13
    80000648:	410a5c3b          	sraw	x24,x20,x16
    8000064c:	01833023          	sd	x24,0(x6)
    80000650:	00000493          	addi	x9,x0,0
    80000654:	01848463          	beq	x9,x24,0x8000065c
    80000658:	9cdff06f          	jal	x0,0x80000024
    8000065c:	20000d93          	addi	x27,x0,512
    80000660:	00e00113          	addi	x2,x0,14
    80000664:	402dd8bb          	sraw	x17,x27,x2
    80000668:	01133423          	sd	x17,8(x6)
    8000066c:	00000493          	addi	x9,x0,0
    80000670:	01148463          	beq	x9,x17,0x80000678
    80000674:	9b1ff06f          	jal	x0,0x80000024
    80000678:	40000793          	addi	x15,x0,1024
    8000067c:	00500513          	addi	x10,x0,5
    80000680:	40a7db3b          	sraw	x22,x15,x10
    80000684:	01633823          	sd	x22,16(x6)
    80000688:	02000493          	addi	x9,x0,32
    8000068c:	01648463          	beq	x9,x22,0x80000694
    80000690:	995ff06f          	jal	x0,0x80000024
    80000694:	00100393          	addi	x7,x0,1
    80000698:	00b39393          	slli	x7,x7,0xb
    8000069c:	00a00f13          	addi	x30,x0,10
    800006a0:	41e3d5bb          	sraw	x11,x7,x30
    800006a4:	00b33c23          	sd	x11,24(x6)
    800006a8:	00200493          	addi	x9,x0,2
    800006ac:	00b48463          	beq	x9,x11,0x800006b4
    800006b0:	975ff06f          	jal	x0,0x80000024
    800006b4:	00100e13          	addi	x28,x0,1
    800006b8:	00de1e13          	slli	x28,x28,0xd
    800006bc:	01b00093          	addi	x1,x0,27
    800006c0:	401e5cbb          	sraw	x25,x28,x1
    800006c4:	03933023          	sd	x25,32(x6)
    800006c8:	00000493          	addi	x9,x0,0
    800006cc:	01948463          	beq	x9,x25,0x800006d4
    800006d0:	955ff06f          	jal	x0,0x80000024
    800006d4:	00100f93          	addi	x31,x0,1
    800006d8:	00ef9f93          	slli	x31,x31,0xe
    800006dc:	00000013          	addi	x0,x0,0
    800006e0:	400fd63b          	sraw	x12,x31,x0
    800006e4:	02c33423          	sd	x12,40(x6)
    800006e8:	000044b7          	lui	x9,0x4
    800006ec:	00c48463          	beq	x9,x12,0x800006f4
    800006f0:	935ff06f          	jal	x0,0x80000024
    800006f4:	00100b13          	addi	x22,x0,1
    800006f8:	00fb1b13          	slli	x22,x22,0xf
    800006fc:	00b00e93          	addi	x29,x0,11
    80000700:	41db5a3b          	sraw	x20,x22,x29
    80000704:	03433823          	sd	x20,48(x6)
    80000708:	01000493          	addi	x9,x0,16
    8000070c:	01448463          	beq	x9,x20,0x80000714
    80000710:	915ff06f          	jal	x0,0x80000024
    80000714:	00100713          	addi	x14,x0,1
    80000718:	01071713          	slli	x14,x14,0x10
    8000071c:	01000e13          	addi	x28,x0,16
    80000720:	41c751bb          	sraw	x3,x14,x28
    80000724:	02333c23          	sd	x3,56(x6)
    80000728:	00100493          	addi	x9,x0,1
    8000072c:	00348463          	beq	x9,x3,0x80000734
    80000730:	8f5ff06f          	jal	x0,0x80000024
    80000734:	00100193          	addi	x3,x0,1
    80000738:	01119193          	slli	x3,x3,0x11
    8000073c:	01300a93          	addi	x21,x0,19
    80000740:	4151debb          	sraw	x29,x3,x21
    80000744:	05d33023          	sd	x29,64(x6)
    80000748:	00000493          	addi	x9,x0,0
    8000074c:	01d48463          	beq	x9,x29,0x80000754
    80000750:	8d5ff06f          	jal	x0,0x80000024
    80000754:	00100c13          	addi	x24,x0,1
    80000758:	012c1c13          	slli	x24,x24,0x12
    8000075c:	01000a13          	addi	x20,x0,16
    80000760:	414c573b          	sraw	x14,x24,x20
    80000764:	04e33423          	sd	x14,72(x6)
    80000768:	00400493          	addi	x9,x0,4
    8000076c:	00e48463          	beq	x9,x14,0x80000774
    80000770:	8b5ff06f          	jal	x0,0x80000024
    80000774:	00100113          	addi	x2,x0,1
    80000778:	01411113          	slli	x2,x2,0x14
    8000077c:	01d00993          	addi	x19,x0,29
    80000780:	4131553b          	sraw	x10,x2,x19
    80000784:	04a33823          	sd	x10,80(x6)
    80000788:	00000493          	addi	x9,x0,0
    8000078c:	00a48463          	beq	x9,x10,0x80000794
    80000790:	895ff06f          	jal	x0,0x80000024
    80000794:	00100913          	addi	x18,x0,1
    80000798:	01591913          	slli	x18,x18,0x15
    8000079c:	00e00713          	addi	x14,x0,14
    800007a0:	40e9583b          	sraw	x16,x18,x14
    800007a4:	05033c23          	sd	x16,88(x6)
    800007a8:	08000493          	addi	x9,x0,128
    800007ac:	01048463          	beq	x9,x16,0x800007b4
    800007b0:	875ff06f          	jal	x0,0x80000024
    800007b4:	00100613          	addi	x12,x0,1
    800007b8:	01661613          	slli	x12,x12,0x16
    800007bc:	01200893          	addi	x17,x0,18
    800007c0:	4116593b          	sraw	x18,x12,x17
    800007c4:	07233023          	sd	x18,96(x6)
    800007c8:	01000493          	addi	x9,x0,16
    800007cc:	01248463          	beq	x9,x18,0x800007d4
    800007d0:	855ff06f          	jal	x0,0x80000024
    800007d4:	00100413          	addi	x8,x0,1
    800007d8:	01741413          	slli	x8,x8,0x17
    800007dc:	00d00293          	addi	x5,x0,13
    800007e0:	4054523b          	sraw	x4,x8,x5
    800007e4:	06433423          	sd	x4,104(x6)
    800007e8:	40000493          	addi	x9,x0,1024
    800007ec:	00448463          	beq	x9,x4,0x800007f4
    800007f0:	835ff06f          	jal	x0,0x80000024
    800007f4:	00100213          	addi	x4,x0,1
    800007f8:	01821213          	slli	x4,x4,0x18
    800007fc:	00900f93          	addi	x31,x0,9
    80000800:	41f253bb          	sraw	x7,x4,x31
    80000804:	06733823          	sd	x7,112(x6)
    80000808:	000084b7          	lui	x9,0x8
    8000080c:	00748463          	beq	x9,x7,0x80000814
    80000810:	815ff06f          	jal	x0,0x80000024
    80000814:	00100d13          	addi	x26,x0,1
    80000818:	019d1d13          	slli	x26,x26,0x19
    8000081c:	00800193          	addi	x3,x0,8
    80000820:	403d59bb          	sraw	x19,x26,x3
    80000824:	07333c23          	sd	x19,120(x6)
    80000828:	000204b7          	lui	x9,0x20
    8000082c:	01348463          	beq	x9,x19,0x80000834
    80000830:	ff4ff06f          	jal	x0,0x80000024
    80000834:	00100513          	addi	x10,x0,1
    80000838:	01a51513          	slli	x10,x10,0x1a
    8000083c:	01e00593          	addi	x11,x0,30
    80000840:	40b5563b          	sraw	x12,x10,x11
    80000844:	08c33023          	sd	x12,128(x6)
    80000848:	00000093          	addi	x1,x0,0
    8000084c:	00c08463          	beq	x1,x12,0x80000854
    80000850:	fd4ff06f          	jal	x0,0x80000024
    80000854:	00100513          	addi	x10,x0,1
    80000858:	01b51513          	slli	x10,x10,0x1b
    8000085c:	00c00593          	addi	x11,x0,12
    80000860:	40b5563b          	sraw	x12,x10,x11
    80000864:	08c33423          	sd	x12,136(x6)
    80000868:	000080b7          	lui	x1,0x8
    8000086c:	00c08463          	beq	x1,x12,0x80000874
    80000870:	fb4ff06f          	jal	x0,0x80000024
    80000874:	00100513          	addi	x10,x0,1
    80000878:	01c51513          	slli	x10,x10,0x1c
    8000087c:	01e00593          	addi	x11,x0,30
    80000880:	40b5563b          	sraw	x12,x10,x11
    80000884:	08c33823          	sd	x12,144(x6)
    80000888:	00000093          	addi	x1,x0,0
    8000088c:	00c08463          	beq	x1,x12,0x80000894
    80000890:	f94ff06f          	jal	x0,0x80000024
    80000894:	00100513          	addi	x10,x0,1
    80000898:	01d51513          	slli	x10,x10,0x1d
    8000089c:	00000593          	addi	x11,x0,0
    800008a0:	40b5563b          	sraw	x12,x10,x11
    800008a4:	08c33c23          	sd	x12,152(x6)
    800008a8:	200000b7          	lui	x1,0x20000
    800008ac:	00c08463          	beq	x1,x12,0x800008b4
    800008b0:	f74ff06f          	jal	x0,0x80000024
    800008b4:	00100513          	addi	x10,x0,1
    800008b8:	01e51513          	slli	x10,x10,0x1e
    800008bc:	01e00593          	addi	x11,x0,30
    800008c0:	40b5563b          	sraw	x12,x10,x11
    800008c4:	0ac33023          	sd	x12,160(x6)
    800008c8:	00100093          	addi	x1,x0,1
    800008cc:	00c08463          	beq	x1,x12,0x800008d4
    800008d0:	f54ff06f          	jal	x0,0x80000024
    800008d4:	00100513          	addi	x10,x0,1
    800008d8:	01f51513          	slli	x10,x10,0x1f
    800008dc:	00d00593          	addi	x11,x0,13
    800008e0:	40b5563b          	sraw	x12,x10,x11
    800008e4:	0ac33423          	sd	x12,168(x6)
    800008e8:	fffc00b7          	lui	x1,0xfffc0
    800008ec:	00c08463          	beq	x1,x12,0x800008f4
    800008f0:	f34ff06f          	jal	x0,0x80000024
    800008f4:	00100513          	addi	x10,x0,1
    800008f8:	02051513          	slli	x10,x10,0x20
    800008fc:	00400593          	addi	x11,x0,4
    80000900:	40b5563b          	sraw	x12,x10,x11
    80000904:	0ac33823          	sd	x12,176(x6)
    80000908:	00000093          	addi	x1,x0,0
    8000090c:	00c08463          	beq	x1,x12,0x80000914
    80000910:	f14ff06f          	jal	x0,0x80000024
    80000914:	00100513          	addi	x10,x0,1
    80000918:	02151513          	slli	x10,x10,0x21
    8000091c:	01100593          	addi	x11,x0,17
    80000920:	40b5563b          	sraw	x12,x10,x11
    80000924:	0ac33c23          	sd	x12,184(x6)
    80000928:	00000093          	addi	x1,x0,0
    8000092c:	00c08463          	beq	x1,x12,0x80000934
    80000930:	ef4ff06f          	jal	x0,0x80000024
    80000934:	00100513          	addi	x10,x0,1
    80000938:	02251513          	slli	x10,x10,0x22
    8000093c:	00400593          	addi	x11,x0,4
    80000940:	40b5563b          	sraw	x12,x10,x11
    80000944:	0cc33023          	sd	x12,192(x6)
    80000948:	00000093          	addi	x1,x0,0
    8000094c:	00c08463          	beq	x1,x12,0x80000954
    80000950:	ed4ff06f          	jal	x0,0x80000024
    80000954:	00100513          	addi	x10,x0,1
    80000958:	02351513          	slli	x10,x10,0x23
    8000095c:	00a00593          	addi	x11,x0,10
    80000960:	40b5563b          	sraw	x12,x10,x11
    80000964:	0cc33423          	sd	x12,200(x6)
    80000968:	00000093          	addi	x1,x0,0
    8000096c:	00c08463          	beq	x1,x12,0x80000974
    80000970:	eb4ff06f          	jal	x0,0x80000024
    80000974:	00100513          	addi	x10,x0,1
    80000978:	02451513          	slli	x10,x10,0x24
    8000097c:	00500593          	addi	x11,x0,5
    80000980:	40b5563b          	sraw	x12,x10,x11
    80000984:	0cc33823          	sd	x12,208(x6)
    80000988:	00000093          	addi	x1,x0,0
    8000098c:	00c08463          	beq	x1,x12,0x80000994
    80000990:	e94ff06f          	jal	x0,0x80000024
    80000994:	00100513          	addi	x10,x0,1
    80000998:	02551513          	slli	x10,x10,0x25
    8000099c:	01f00593          	addi	x11,x0,31
    800009a0:	40b5563b          	sraw	x12,x10,x11
    800009a4:	0cc33c23          	sd	x12,216(x6)
    800009a8:	00000093          	addi	x1,x0,0
    800009ac:	00c08463          	beq	x1,x12,0x800009b4
    800009b0:	e74ff06f          	jal	x0,0x80000024
    800009b4:	00100513          	addi	x10,x0,1
    800009b8:	02651513          	slli	x10,x10,0x26
    800009bc:	00a00593          	addi	x11,x0,10
    800009c0:	40b5563b          	sraw	x12,x10,x11
    800009c4:	0ec33023          	sd	x12,224(x6)
    800009c8:	00000093          	addi	x1,x0,0
    800009cc:	00c08463          	beq	x1,x12,0x800009d4
    800009d0:	e54ff06f          	jal	x0,0x80000024
    800009d4:	00100513          	addi	x10,x0,1
    800009d8:	02751513          	slli	x10,x10,0x27
    800009dc:	01e00593          	addi	x11,x0,30
    800009e0:	40b5563b          	sraw	x12,x10,x11
    800009e4:	0ec33423          	sd	x12,232(x6)
    800009e8:	00000093          	addi	x1,x0,0
    800009ec:	00c08463          	beq	x1,x12,0x800009f4
    800009f0:	e34ff06f          	jal	x0,0x80000024
    800009f4:	00100513          	addi	x10,x0,1
    800009f8:	02851513          	slli	x10,x10,0x28
    800009fc:	00100593          	addi	x11,x0,1
    80000a00:	40b5563b          	sraw	x12,x10,x11
    80000a04:	0ec33823          	sd	x12,240(x6)
    80000a08:	00000093          	addi	x1,x0,0
    80000a0c:	00c08463          	beq	x1,x12,0x80000a14
    80000a10:	e14ff06f          	jal	x0,0x80000024
    80000a14:	00100513          	addi	x10,x0,1
    80000a18:	02951513          	slli	x10,x10,0x29
    80000a1c:	00100593          	addi	x11,x0,1
    80000a20:	40b5563b          	sraw	x12,x10,x11
    80000a24:	0ec33c23          	sd	x12,248(x6)
    80000a28:	00000093          	addi	x1,x0,0
    80000a2c:	00c08463          	beq	x1,x12,0x80000a34
    80000a30:	df4ff06f          	jal	x0,0x80000024
    80000a34:	00100513          	addi	x10,x0,1
    80000a38:	02a51513          	slli	x10,x10,0x2a
    80000a3c:	00400593          	addi	x11,x0,4
    80000a40:	40b5563b          	sraw	x12,x10,x11
    80000a44:	10c33023          	sd	x12,256(x6)
    80000a48:	00000093          	addi	x1,x0,0
    80000a4c:	00c08463          	beq	x1,x12,0x80000a54
    80000a50:	dd4ff06f          	jal	x0,0x80000024
    80000a54:	00100513          	addi	x10,x0,1
    80000a58:	02b51513          	slli	x10,x10,0x2b
    80000a5c:	00200593          	addi	x11,x0,2
    80000a60:	40b5563b          	sraw	x12,x10,x11
    80000a64:	10c33423          	sd	x12,264(x6)
    80000a68:	00000093          	addi	x1,x0,0
    80000a6c:	00c08463          	beq	x1,x12,0x80000a74
    80000a70:	db4ff06f          	jal	x0,0x80000024
    80000a74:	00100513          	addi	x10,x0,1
    80000a78:	02c51513          	slli	x10,x10,0x2c
    80000a7c:	00900593          	addi	x11,x0,9
    80000a80:	40b5563b          	sraw	x12,x10,x11
    80000a84:	10c33823          	sd	x12,272(x6)
    80000a88:	00000093          	addi	x1,x0,0
    80000a8c:	00c08463          	beq	x1,x12,0x80000a94
    80000a90:	d94ff06f          	jal	x0,0x80000024
    80000a94:	00100513          	addi	x10,x0,1
    80000a98:	02d51513          	slli	x10,x10,0x2d
    80000a9c:	01f00593          	addi	x11,x0,31
    80000aa0:	40b5563b          	sraw	x12,x10,x11
    80000aa4:	10c33c23          	sd	x12,280(x6)
    80000aa8:	00000093          	addi	x1,x0,0
    80000aac:	00c08463          	beq	x1,x12,0x80000ab4
    80000ab0:	d74ff06f          	jal	x0,0x80000024
    80000ab4:	00100513          	addi	x10,x0,1
    80000ab8:	02e51513          	slli	x10,x10,0x2e
    80000abc:	01700593          	addi	x11,x0,23
    80000ac0:	40b5563b          	sraw	x12,x10,x11
    80000ac4:	12c33023          	sd	x12,288(x6)
    80000ac8:	00000093          	addi	x1,x0,0
    80000acc:	00c08463          	beq	x1,x12,0x80000ad4
    80000ad0:	d54ff06f          	jal	x0,0x80000024
    80000ad4:	00100513          	addi	x10,x0,1
    80000ad8:	02f51513          	slli	x10,x10,0x2f
    80000adc:	00600593          	addi	x11,x0,6
    80000ae0:	40b5563b          	sraw	x12,x10,x11
    80000ae4:	12c33423          	sd	x12,296(x6)
    80000ae8:	00000093          	addi	x1,x0,0
    80000aec:	00c08463          	beq	x1,x12,0x80000af4
    80000af0:	d34ff06f          	jal	x0,0x80000024
    80000af4:	00100513          	addi	x10,x0,1
    80000af8:	03051513          	slli	x10,x10,0x30
    80000afc:	00c00593          	addi	x11,x0,12
    80000b00:	40b5563b          	sraw	x12,x10,x11
    80000b04:	12c33823          	sd	x12,304(x6)
    80000b08:	00000093          	addi	x1,x0,0
    80000b0c:	00c08463          	beq	x1,x12,0x80000b14
    80000b10:	d14ff06f          	jal	x0,0x80000024
    80000b14:	00100513          	addi	x10,x0,1
    80000b18:	03151513          	slli	x10,x10,0x31
    80000b1c:	00b00593          	addi	x11,x0,11
    80000b20:	40b5563b          	sraw	x12,x10,x11
    80000b24:	12c33c23          	sd	x12,312(x6)
    80000b28:	00000093          	addi	x1,x0,0
    80000b2c:	00c08463          	beq	x1,x12,0x80000b34
    80000b30:	cf4ff06f          	jal	x0,0x80000024
    80000b34:	00100513          	addi	x10,x0,1
    80000b38:	03251513          	slli	x10,x10,0x32
    80000b3c:	00800593          	addi	x11,x0,8
    80000b40:	40b5563b          	sraw	x12,x10,x11
    80000b44:	14c33023          	sd	x12,320(x6)
    80000b48:	00000093          	addi	x1,x0,0
    80000b4c:	00c08463          	beq	x1,x12,0x80000b54
    80000b50:	cd4ff06f          	jal	x0,0x80000024
    80000b54:	00100513          	addi	x10,x0,1
    80000b58:	03351513          	slli	x10,x10,0x33
    80000b5c:	00c00593          	addi	x11,x0,12
    80000b60:	40b5563b          	sraw	x12,x10,x11
    80000b64:	14c33423          	sd	x12,328(x6)
    80000b68:	00000093          	addi	x1,x0,0
    80000b6c:	00c08463          	beq	x1,x12,0x80000b74
    80000b70:	cb4ff06f          	jal	x0,0x80000024
    80000b74:	00100513          	addi	x10,x0,1
    80000b78:	03451513          	slli	x10,x10,0x34
    80000b7c:	01b00593          	addi	x11,x0,27
    80000b80:	40b5563b          	sraw	x12,x10,x11
    80000b84:	14c33823          	sd	x12,336(x6)
    80000b88:	00000093          	addi	x1,x0,0
    80000b8c:	00c08463          	beq	x1,x12,0x80000b94
    80000b90:	c94ff06f          	jal	x0,0x80000024
    80000b94:	00100513          	addi	x10,x0,1
    80000b98:	03551513          	slli	x10,x10,0x35
    80000b9c:	00000593          	addi	x11,x0,0
    80000ba0:	40b5563b          	sraw	x12,x10,x11
    80000ba4:	14c33c23          	sd	x12,344(x6)
    80000ba8:	00000093          	addi	x1,x0,0
    80000bac:	00c08463          	beq	x1,x12,0x80000bb4
    80000bb0:	c74ff06f          	jal	x0,0x80000024
    80000bb4:	00100513          	addi	x10,x0,1
    80000bb8:	03651513          	slli	x10,x10,0x36
    80000bbc:	01d00593          	addi	x11,x0,29
    80000bc0:	40b5563b          	sraw	x12,x10,x11
    80000bc4:	16c33023          	sd	x12,352(x6)
    80000bc8:	00000093          	addi	x1,x0,0
    80000bcc:	00c08463          	beq	x1,x12,0x80000bd4
    80000bd0:	c54ff06f          	jal	x0,0x80000024
    80000bd4:	00100513          	addi	x10,x0,1
    80000bd8:	03751513          	slli	x10,x10,0x37
    80000bdc:	01d00593          	addi	x11,x0,29
    80000be0:	40b5563b          	sraw	x12,x10,x11
    80000be4:	16c33423          	sd	x12,360(x6)
    80000be8:	00000093          	addi	x1,x0,0
    80000bec:	00c08463          	beq	x1,x12,0x80000bf4
    80000bf0:	c34ff06f          	jal	x0,0x80000024
    80000bf4:	00100513          	addi	x10,x0,1
    80000bf8:	03851513          	slli	x10,x10,0x38
    80000bfc:	01700593          	addi	x11,x0,23
    80000c00:	40b5563b          	sraw	x12,x10,x11
    80000c04:	16c33823          	sd	x12,368(x6)
    80000c08:	00000093          	addi	x1,x0,0
    80000c0c:	00c08463          	beq	x1,x12,0x80000c14
    80000c10:	c14ff06f          	jal	x0,0x80000024
    80000c14:	00100513          	addi	x10,x0,1
    80000c18:	03951513          	slli	x10,x10,0x39
    80000c1c:	01700593          	addi	x11,x0,23
    80000c20:	40b5563b          	sraw	x12,x10,x11
    80000c24:	16c33c23          	sd	x12,376(x6)
    80000c28:	00000093          	addi	x1,x0,0
    80000c2c:	00c08463          	beq	x1,x12,0x80000c34
    80000c30:	bf4ff06f          	jal	x0,0x80000024
    80000c34:	00100513          	addi	x10,x0,1
    80000c38:	03a51513          	slli	x10,x10,0x3a
    80000c3c:	00a00593          	addi	x11,x0,10
    80000c40:	40b5563b          	sraw	x12,x10,x11
    80000c44:	18c33023          	sd	x12,384(x6)
    80000c48:	00000093          	addi	x1,x0,0
    80000c4c:	00c08463          	beq	x1,x12,0x80000c54
    80000c50:	bd4ff06f          	jal	x0,0x80000024
    80000c54:	00100513          	addi	x10,x0,1
    80000c58:	03b51513          	slli	x10,x10,0x3b
    80000c5c:	00a00593          	addi	x11,x0,10
    80000c60:	40b5563b          	sraw	x12,x10,x11
    80000c64:	18c33423          	sd	x12,392(x6)
    80000c68:	00000093          	addi	x1,x0,0
    80000c6c:	00c08463          	beq	x1,x12,0x80000c74
    80000c70:	bb4ff06f          	jal	x0,0x80000024
    80000c74:	00100513          	addi	x10,x0,1
    80000c78:	03c51513          	slli	x10,x10,0x3c
    80000c7c:	00500593          	addi	x11,x0,5
    80000c80:	40b5563b          	sraw	x12,x10,x11
    80000c84:	18c33823          	sd	x12,400(x6)
    80000c88:	00000093          	addi	x1,x0,0
    80000c8c:	00c08463          	beq	x1,x12,0x80000c94
    80000c90:	b94ff06f          	jal	x0,0x80000024
    80000c94:	00100513          	addi	x10,x0,1
    80000c98:	03d51513          	slli	x10,x10,0x3d
    80000c9c:	00300593          	addi	x11,x0,3
    80000ca0:	40b5563b          	sraw	x12,x10,x11
    80000ca4:	18c33c23          	sd	x12,408(x6)
    80000ca8:	00000093          	addi	x1,x0,0
    80000cac:	00c08463          	beq	x1,x12,0x80000cb4
    80000cb0:	b74ff06f          	jal	x0,0x80000024
    80000cb4:	00100513          	addi	x10,x0,1
    80000cb8:	03e51513          	slli	x10,x10,0x3e
    80000cbc:	00600593          	addi	x11,x0,6
    80000cc0:	40b5563b          	sraw	x12,x10,x11
    80000cc4:	1ac33023          	sd	x12,416(x6)
    80000cc8:	00000093          	addi	x1,x0,0
    80000ccc:	00c08463          	beq	x1,x12,0x80000cd4
    80000cd0:	b54ff06f          	jal	x0,0x80000024
    80000cd4:	ffe00513          	addi	x10,x0,-2
    80000cd8:	01f00593          	addi	x11,x0,31
    80000cdc:	40b5563b          	sraw	x12,x10,x11
    80000ce0:	1ac33423          	sd	x12,424(x6)
    80000ce4:	fff00093          	addi	x1,x0,-1
    80000ce8:	00c08463          	beq	x1,x12,0x80000cf0
    80000cec:	b38ff06f          	jal	x0,0x80000024
    80000cf0:	ffd00513          	addi	x10,x0,-3
    80000cf4:	00a00593          	addi	x11,x0,10
    80000cf8:	40b5563b          	sraw	x12,x10,x11
    80000cfc:	1ac33823          	sd	x12,432(x6)
    80000d00:	fff00093          	addi	x1,x0,-1
    80000d04:	00c08463          	beq	x1,x12,0x80000d0c
    80000d08:	b1cff06f          	jal	x0,0x80000024
    80000d0c:	ffb00513          	addi	x10,x0,-5
    80000d10:	01f00593          	addi	x11,x0,31
    80000d14:	40b5563b          	sraw	x12,x10,x11
    80000d18:	1ac33c23          	sd	x12,440(x6)
    80000d1c:	fff00093          	addi	x1,x0,-1
    80000d20:	00c08463          	beq	x1,x12,0x80000d28
    80000d24:	b00ff06f          	jal	x0,0x80000024
    80000d28:	ff700513          	addi	x10,x0,-9
    80000d2c:	00800593          	addi	x11,x0,8
    80000d30:	40b5563b          	sraw	x12,x10,x11
    80000d34:	1cc33023          	sd	x12,448(x6)
    80000d38:	fff00093          	addi	x1,x0,-1
    80000d3c:	00c08463          	beq	x1,x12,0x80000d44
    80000d40:	ae4ff06f          	jal	x0,0x80000024
    80000d44:	fef00513          	addi	x10,x0,-17
    80000d48:	00d00593          	addi	x11,x0,13
    80000d4c:	40b5563b          	sraw	x12,x10,x11
    80000d50:	1cc33423          	sd	x12,456(x6)
    80000d54:	fff00093          	addi	x1,x0,-1
    80000d58:	00c08463          	beq	x1,x12,0x80000d60
    80000d5c:	ac8ff06f          	jal	x0,0x80000024
    80000d60:	fdf00513          	addi	x10,x0,-33
    80000d64:	01500593          	addi	x11,x0,21
    80000d68:	40b5563b          	sraw	x12,x10,x11
    80000d6c:	1cc33823          	sd	x12,464(x6)
    80000d70:	fff00093          	addi	x1,x0,-1
    80000d74:	00c08463          	beq	x1,x12,0x80000d7c
    80000d78:	aacff06f          	jal	x0,0x80000024
    80000d7c:	fbf00513          	addi	x10,x0,-65
    80000d80:	01500593          	addi	x11,x0,21
    80000d84:	40b5563b          	sraw	x12,x10,x11
    80000d88:	1cc33c23          	sd	x12,472(x6)
    80000d8c:	fff00093          	addi	x1,x0,-1
    80000d90:	00c08463          	beq	x1,x12,0x80000d98
    80000d94:	a90ff06f          	jal	x0,0x80000024
    80000d98:	f7f00513          	addi	x10,x0,-129
    80000d9c:	00200593          	addi	x11,x0,2
    80000da0:	40b5563b          	sraw	x12,x10,x11
    80000da4:	1ec33023          	sd	x12,480(x6)
    80000da8:	fdf00093          	addi	x1,x0,-33
    80000dac:	00c08463          	beq	x1,x12,0x80000db4
    80000db0:	a74ff06f          	jal	x0,0x80000024
    80000db4:	dff00513          	addi	x10,x0,-513
    80000db8:	00900593          	addi	x11,x0,9
    80000dbc:	40b5563b          	sraw	x12,x10,x11
    80000dc0:	1ec33423          	sd	x12,488(x6)
    80000dc4:	ffe00093          	addi	x1,x0,-2
    80000dc8:	00c08463          	beq	x1,x12,0x80000dd0
    80000dcc:	a58ff06f          	jal	x0,0x80000024
    80000dd0:	bff00513          	addi	x10,x0,-1025
    80000dd4:	01500593          	addi	x11,x0,21
    80000dd8:	40b5563b          	sraw	x12,x10,x11
    80000ddc:	1ec33823          	sd	x12,496(x6)
    80000de0:	fff00093          	addi	x1,x0,-1
    80000de4:	00c08463          	beq	x1,x12,0x80000dec
    80000de8:	a3cff06f          	jal	x0,0x80000024
    80000dec:	00100513          	addi	x10,x0,1
    80000df0:	00b51513          	slli	x10,x10,0xb
    80000df4:	fff54513          	xori	x10,x10,-1
    80000df8:	01700593          	addi	x11,x0,23
    80000dfc:	40b5563b          	sraw	x12,x10,x11
    80000e00:	1ec33c23          	sd	x12,504(x6)
    80000e04:	fff00093          	addi	x1,x0,-1
    80000e08:	00c08463          	beq	x1,x12,0x80000e10
    80000e0c:	a18ff06f          	jal	x0,0x80000024
    80000e10:	00100513          	addi	x10,x0,1
    80000e14:	00c51513          	slli	x10,x10,0xc
    80000e18:	fff54513          	xori	x10,x10,-1
    80000e1c:	00400593          	addi	x11,x0,4
    80000e20:	40b5563b          	sraw	x12,x10,x11
    80000e24:	20c33023          	sd	x12,512(x6)
    80000e28:	eff00093          	addi	x1,x0,-257
    80000e2c:	00c08463          	beq	x1,x12,0x80000e34
    80000e30:	9f4ff06f          	jal	x0,0x80000024
    80000e34:	00100513          	addi	x10,x0,1
    80000e38:	00d51513          	slli	x10,x10,0xd
    80000e3c:	fff54513          	xori	x10,x10,-1
    80000e40:	00500593          	addi	x11,x0,5
    80000e44:	40b5563b          	sraw	x12,x10,x11
    80000e48:	20c33423          	sd	x12,520(x6)
    80000e4c:	eff00093          	addi	x1,x0,-257
    80000e50:	00c08463          	beq	x1,x12,0x80000e58
    80000e54:	9d0ff06f          	jal	x0,0x80000024
    80000e58:	00100513          	addi	x10,x0,1
    80000e5c:	00e51513          	slli	x10,x10,0xe
    80000e60:	fff54513          	xori	x10,x10,-1
    80000e64:	00000593          	addi	x11,x0,0
    80000e68:	40b5563b          	sraw	x12,x10,x11
    80000e6c:	20c33823          	sd	x12,528(x6)
    80000e70:	ffffc0b7          	lui	x1,0xffffc
    80000e74:	fff0809b          	addiw	x1,x1,-1 # 0xffffffffffffbfff
    80000e78:	00c08463          	beq	x1,x12,0x80000e80
    80000e7c:	9a8ff06f          	jal	x0,0x80000024
    80000e80:	00100513          	addi	x10,x0,1
    80000e84:	00f51513          	slli	x10,x10,0xf
    80000e88:	fff54513          	xori	x10,x10,-1
    80000e8c:	00700593          	addi	x11,x0,7
    80000e90:	40b5563b          	sraw	x12,x10,x11
    80000e94:	20c33c23          	sd	x12,536(x6)
    80000e98:	eff00093          	addi	x1,x0,-257
    80000e9c:	00c08463          	beq	x1,x12,0x80000ea4
    80000ea0:	984ff06f          	jal	x0,0x80000024
    80000ea4:	00100513          	addi	x10,x0,1
    80000ea8:	01051513          	slli	x10,x10,0x10
    80000eac:	fff54513          	xori	x10,x10,-1
    80000eb0:	01f00593          	addi	x11,x0,31
    80000eb4:	40b5563b          	sraw	x12,x10,x11
    80000eb8:	22c33023          	sd	x12,544(x6)
    80000ebc:	fff00093          	addi	x1,x0,-1
    80000ec0:	00c08463          	beq	x1,x12,0x80000ec8
    80000ec4:	960ff06f          	jal	x0,0x80000024
    80000ec8:	00100513          	addi	x10,x0,1
    80000ecc:	01251513          	slli	x10,x10,0x12
    80000ed0:	fff54513          	xori	x10,x10,-1
    80000ed4:	00b00593          	addi	x11,x0,11
    80000ed8:	40b5563b          	sraw	x12,x10,x11
    80000edc:	22c33423          	sd	x12,552(x6)
    80000ee0:	f7f00093          	addi	x1,x0,-129
    80000ee4:	00c08463          	beq	x1,x12,0x80000eec
    80000ee8:	93cff06f          	jal	x0,0x80000024
    80000eec:	00100513          	addi	x10,x0,1
    80000ef0:	01351513          	slli	x10,x10,0x13
    80000ef4:	fff54513          	xori	x10,x10,-1
    80000ef8:	00600593          	addi	x11,x0,6
    80000efc:	40b5563b          	sraw	x12,x10,x11
    80000f00:	22c33823          	sd	x12,560(x6)
    80000f04:	ffffe0b7          	lui	x1,0xffffe
    80000f08:	fff0809b          	addiw	x1,x1,-1 # 0xffffffffffffdfff
    80000f0c:	00c08463          	beq	x1,x12,0x80000f14
    80000f10:	914ff06f          	jal	x0,0x80000024
    80000f14:	00100513          	addi	x10,x0,1
    80000f18:	01451513          	slli	x10,x10,0x14
    80000f1c:	fff54513          	xori	x10,x10,-1
    80000f20:	00500593          	addi	x11,x0,5
    80000f24:	40b5563b          	sraw	x12,x10,x11
    80000f28:	22c33c23          	sd	x12,568(x6)
    80000f2c:	ffff80b7          	lui	x1,0xffff8
    80000f30:	fff0809b          	addiw	x1,x1,-1 # 0xffffffffffff7fff
    80000f34:	00c08463          	beq	x1,x12,0x80000f3c
    80000f38:	8ecff06f          	jal	x0,0x80000024
    80000f3c:	00100513          	addi	x10,x0,1
    80000f40:	03751513          	slli	x10,x10,0x37
    80000f44:	fff54513          	xori	x10,x10,-1
    80000f48:	00b00593          	addi	x11,x0,11
    80000f4c:	40b5563b          	sraw	x12,x10,x11
    80000f50:	24c33023          	sd	x12,576(x6)
    80000f54:	fff00093          	addi	x1,x0,-1
    80000f58:	00c08463          	beq	x1,x12,0x80000f60
    80000f5c:	8c8ff06f          	jal	x0,0x80000024
    80000f60:	00100513          	addi	x10,x0,1
    80000f64:	03851513          	slli	x10,x10,0x38
    80000f68:	fff54513          	xori	x10,x10,-1
    80000f6c:	01700593          	addi	x11,x0,23
    80000f70:	40b5563b          	sraw	x12,x10,x11
    80000f74:	24c33423          	sd	x12,584(x6)
    80000f78:	fff00093          	addi	x1,x0,-1
    80000f7c:	00c08463          	beq	x1,x12,0x80000f84
    80000f80:	8a4ff06f          	jal	x0,0x80000024
    80000f84:	00100513          	addi	x10,x0,1
    80000f88:	03951513          	slli	x10,x10,0x39
    80000f8c:	fff54513          	xori	x10,x10,-1
    80000f90:	01000593          	addi	x11,x0,16
    80000f94:	40b5563b          	sraw	x12,x10,x11
    80000f98:	24c33823          	sd	x12,592(x6)
    80000f9c:	fff00093          	addi	x1,x0,-1
    80000fa0:	00c08463          	beq	x1,x12,0x80000fa8
    80000fa4:	880ff06f          	jal	x0,0x80000024
    80000fa8:	00100513          	addi	x10,x0,1
    80000fac:	03a51513          	slli	x10,x10,0x3a
    80000fb0:	fff54513          	xori	x10,x10,-1
    80000fb4:	01100593          	addi	x11,x0,17
    80000fb8:	40b5563b          	sraw	x12,x10,x11
    80000fbc:	24c33c23          	sd	x12,600(x6)
    80000fc0:	fff00093          	addi	x1,x0,-1
    80000fc4:	00c08463          	beq	x1,x12,0x80000fcc
    80000fc8:	85cff06f          	jal	x0,0x80000024
    80000fcc:	00100513          	addi	x10,x0,1
    80000fd0:	03b51513          	slli	x10,x10,0x3b
    80000fd4:	fff54513          	xori	x10,x10,-1
    80000fd8:	00000593          	addi	x11,x0,0
    80000fdc:	40b5563b          	sraw	x12,x10,x11
    80000fe0:	26c33023          	sd	x12,608(x6)
    80000fe4:	fff00093          	addi	x1,x0,-1
    80000fe8:	00c08463          	beq	x1,x12,0x80000ff0
    80000fec:	838ff06f          	jal	x0,0x80000024
    80000ff0:	00100513          	addi	x10,x0,1
    80000ff4:	03c51513          	slli	x10,x10,0x3c
    80000ff8:	fff54513          	xori	x10,x10,-1
    80000ffc:	00000593          	addi	x11,x0,0
    80001000:	40b5563b          	sraw	x12,x10,x11
    80001004:	26c33423          	sd	x12,616(x6)
    80001008:	fff00093          	addi	x1,x0,-1
    8000100c:	00c08463          	beq	x1,x12,0x80001014
    80001010:	814ff06f          	jal	x0,0x80000024
    80001014:	00100513          	addi	x10,x0,1
    80001018:	03d51513          	slli	x10,x10,0x3d
    8000101c:	fff54513          	xori	x10,x10,-1
    80001020:	01d00593          	addi	x11,x0,29
    80001024:	40b5563b          	sraw	x12,x10,x11
    80001028:	26c33823          	sd	x12,624(x6)
    8000102c:	fff00093          	addi	x1,x0,-1
    80001030:	00c08463          	beq	x1,x12,0x80001038
    80001034:	ff1fe06f          	jal	x0,0x80000024
    80001038:	00100513          	addi	x10,x0,1
    8000103c:	03e51513          	slli	x10,x10,0x3e
    80001040:	fff54513          	xori	x10,x10,-1
    80001044:	00700593          	addi	x11,x0,7
    80001048:	40b5563b          	sraw	x12,x10,x11
    8000104c:	26c33c23          	sd	x12,632(x6)
    80001050:	fff00093          	addi	x1,x0,-1
    80001054:	00c08463          	beq	x1,x12,0x8000105c
    80001058:	fcdfe06f          	jal	x0,0x80000024
    8000105c:	55555537          	lui	x10,0x55555
    80001060:	55550513          	addi	x10,x10,1365 # 0x55555555
    80001064:	00b51513          	slli	x10,x10,0xb
    80001068:	2aa50513          	addi	x10,x10,682
    8000106c:	00b51513          	slli	x10,x10,0xb
    80001070:	55550513          	addi	x10,x10,1365
    80001074:	00a51513          	slli	x10,x10,0xa
    80001078:	15550513          	addi	x10,x10,341
    8000107c:	00700593          	addi	x11,x0,7
    80001080:	40b5563b          	sraw	x12,x10,x11
    80001084:	28c33023          	sd	x12,640(x6)
    80001088:	00aab0b7          	lui	x1,0xaab
    8000108c:	aaa0809b          	addiw	x1,x1,-1366 # 0xaaaaaa
    80001090:	00c08463          	beq	x1,x12,0x80001098
    80001094:	f91fe06f          	jal	x0,0x80000024
    80001098:	aaaab537          	lui	x10,0xaaaab
    8000109c:	aaa50513          	addi	x10,x10,-1366 # 0xffffffffaaaaaaaa
    800010a0:	00b51513          	slli	x10,x10,0xb
    800010a4:	55550513          	addi	x10,x10,1365
    800010a8:	00b51513          	slli	x10,x10,0xb
    800010ac:	2aa50513          	addi	x10,x10,682
    800010b0:	00a51513          	slli	x10,x10,0xa
    800010b4:	2aa50513          	addi	x10,x10,682
    800010b8:	00900593          	addi	x11,x0,9
    800010bc:	40b5563b          	sraw	x12,x10,x11
    800010c0:	28c33423          	sd	x12,648(x6)
    800010c4:	ffd550b7          	lui	x1,0xffd55
    800010c8:	5550809b          	addiw	x1,x1,1365 # 0xffffffffffd55555
    800010cc:	00c08463          	beq	x1,x12,0x800010d4
    800010d0:	f55fe06f          	jal	x0,0x80000024
    800010d4:	00300513          	addi	x10,x0,3
    800010d8:	01200593          	addi	x11,x0,18
    800010dc:	40b5563b          	sraw	x12,x10,x11
    800010e0:	28c33823          	sd	x12,656(x6)
    800010e4:	00000093          	addi	x1,x0,0
    800010e8:	00c08463          	beq	x1,x12,0x800010f0
    800010ec:	f39fe06f          	jal	x0,0x80000024
    800010f0:	00500513          	addi	x10,x0,5
    800010f4:	00100593          	addi	x11,x0,1
    800010f8:	40b5563b          	sraw	x12,x10,x11
    800010fc:	28c33c23          	sd	x12,664(x6)
    80001100:	00200093          	addi	x1,x0,2
    80001104:	00c08463          	beq	x1,x12,0x8000110c
    80001108:	f1dfe06f          	jal	x0,0x80000024
    8000110c:	33333537          	lui	x10,0x33333
    80001110:	33350513          	addi	x10,x10,819 # 0x33333333
    80001114:	00b51513          	slli	x10,x10,0xb
    80001118:	19950513          	addi	x10,x10,409
    8000111c:	00b51513          	slli	x10,x10,0xb
    80001120:	4cc50513          	addi	x10,x10,1228
    80001124:	00a51513          	slli	x10,x10,0xa
    80001128:	33350513          	addi	x10,x10,819
    8000112c:	01d00593          	addi	x11,x0,29
    80001130:	40b5563b          	sraw	x12,x10,x11
    80001134:	2ac33023          	sd	x12,672(x6)
    80001138:	00100093          	addi	x1,x0,1
    8000113c:	00c08463          	beq	x1,x12,0x80001144
    80001140:	ee5fe06f          	jal	x0,0x80000024
    80001144:	66666537          	lui	x10,0x66666
    80001148:	66650513          	addi	x10,x10,1638 # 0x66666666
    8000114c:	00b51513          	slli	x10,x10,0xb
    80001150:	33350513          	addi	x10,x10,819
    80001154:	00b51513          	slli	x10,x10,0xb
    80001158:	19950513          	addi	x10,x10,409
    8000115c:	00a51513          	slli	x10,x10,0xa
    80001160:	26650513          	addi	x10,x10,614
    80001164:	00300593          	addi	x11,x0,3
    80001168:	40b5563b          	sraw	x12,x10,x11
    8000116c:	2ac33423          	sd	x12,680(x6)
    80001170:	0cccd0b7          	lui	x1,0xcccd
    80001174:	ccc0809b          	addiw	x1,x1,-820 # 0xccccccc
    80001178:	00c08463          	beq	x1,x12,0x80001180
    8000117c:	ea9fe06f          	jal	x0,0x80000024
    80001180:	00000537          	lui	x10,0x0
    80001184:	fff50513          	addi	x10,x10,-1 # 0xffffffffffffffff
    80001188:	00b51513          	slli	x10,x10,0xb
    8000118c:	25750513          	addi	x10,x10,599
    80001190:	00b51513          	slli	x10,x10,0xb
    80001194:	6c350513          	addi	x10,x10,1731
    80001198:	00a51513          	slli	x10,x10,0xa
    8000119c:	0cd50513          	addi	x10,x10,205
    800011a0:	01300593          	addi	x11,x0,19
    800011a4:	40b5563b          	sraw	x12,x10,x11
    800011a8:	2ac33823          	sd	x12,688(x6)
    800011ac:	000010b7          	lui	x1,0x1
    800011b0:	95f0809b          	addiw	x1,x1,-1697 # 0x95f
    800011b4:	00c08463          	beq	x1,x12,0x800011bc
    800011b8:	e6dfe06f          	jal	x0,0x80000024
    800011bc:	00000537          	lui	x10,0x0
    800011c0:	00050513          	addi	x10,x10,0 # 0x0
    800011c4:	00b51513          	slli	x10,x10,0xb
    800011c8:	5a850513          	addi	x10,x10,1448
    800011cc:	00b51513          	slli	x10,x10,0xb
    800011d0:	13c50513          	addi	x10,x10,316
    800011d4:	00a51513          	slli	x10,x10,0xa
    800011d8:	33350513          	addi	x10,x10,819
    800011dc:	00c00593          	addi	x11,x0,12
    800011e0:	40b5563b          	sraw	x12,x10,x11
    800011e4:	2ac33c23          	sd	x12,696(x6)
    800011e8:	fffb50b7          	lui	x1,0xfffb5
    800011ec:	04f0809b          	addiw	x1,x1,79 # 0xfffffffffffb504f
    800011f0:	00c08463          	beq	x1,x12,0x800011f8
    800011f4:	e31fe06f          	jal	x0,0x80000024
    800011f8:	55555537          	lui	x10,0x55555
    800011fc:	55550513          	addi	x10,x10,1365 # 0x55555555
    80001200:	00b51513          	slli	x10,x10,0xb
    80001204:	2aa50513          	addi	x10,x10,682
    80001208:	00b51513          	slli	x10,x10,0xb
    8000120c:	55550513          	addi	x10,x10,1365
    80001210:	00a51513          	slli	x10,x10,0xa
    80001214:	15450513          	addi	x10,x10,340
    80001218:	01e00593          	addi	x11,x0,30
    8000121c:	40b5563b          	sraw	x12,x10,x11
    80001220:	2cc33023          	sd	x12,704(x6)
    80001224:	00100093          	addi	x1,x0,1
    80001228:	00c08463          	beq	x1,x12,0x80001230
    8000122c:	df9fe06f          	jal	x0,0x80000024
    80001230:	33333537          	lui	x10,0x33333
    80001234:	33350513          	addi	x10,x10,819 # 0x33333333
    80001238:	00b51513          	slli	x10,x10,0xb
    8000123c:	19950513          	addi	x10,x10,409
    80001240:	00b51513          	slli	x10,x10,0xb
    80001244:	4cc50513          	addi	x10,x10,1228
    80001248:	00a51513          	slli	x10,x10,0xa
    8000124c:	33250513          	addi	x10,x10,818
    80001250:	00900593          	addi	x11,x0,9
    80001254:	40b5563b          	sraw	x12,x10,x11
    80001258:	2cc33423          	sd	x12,712(x6)
    8000125c:	0019a0b7          	lui	x1,0x19a
    80001260:	9990809b          	addiw	x1,x1,-1639 # 0x199999
    80001264:	00c08463          	beq	x1,x12,0x8000126c
    80001268:	dbdfe06f          	jal	x0,0x80000024
    8000126c:	66666537          	lui	x10,0x66666
    80001270:	66650513          	addi	x10,x10,1638 # 0x66666666
    80001274:	00b51513          	slli	x10,x10,0xb
    80001278:	33350513          	addi	x10,x10,819
    8000127c:	00b51513          	slli	x10,x10,0xb
    80001280:	19950513          	addi	x10,x10,409
    80001284:	00a51513          	slli	x10,x10,0xa
    80001288:	26550513          	addi	x10,x10,613
    8000128c:	00200593          	addi	x11,x0,2
    80001290:	40b5563b          	sraw	x12,x10,x11
    80001294:	2cc33823          	sd	x12,720(x6)
    80001298:	1999a0b7          	lui	x1,0x1999a
    8000129c:	9990809b          	addiw	x1,x1,-1639 # 0x19999999
    800012a0:	00c08463          	beq	x1,x12,0x800012a8
    800012a4:	d81fe06f          	jal	x0,0x80000024
    800012a8:	00000537          	lui	x10,0x0
    800012ac:	00050513          	addi	x10,x10,0 # 0x0
    800012b0:	00b51513          	slli	x10,x10,0xb
    800012b4:	5a850513          	addi	x10,x10,1448
    800012b8:	00b51513          	slli	x10,x10,0xb
    800012bc:	13c50513          	addi	x10,x10,316
    800012c0:	00a51513          	slli	x10,x10,0xa
    800012c4:	33250513          	addi	x10,x10,818
    800012c8:	01500593          	addi	x11,x0,21
    800012cc:	40b5563b          	sraw	x12,x10,x11
    800012d0:	2cc33c23          	sd	x12,728(x6)
    800012d4:	da800093          	addi	x1,x0,-600
    800012d8:	00c08463          	beq	x1,x12,0x800012e0
    800012dc:	d49fe06f          	jal	x0,0x80000024
    800012e0:	55555537          	lui	x10,0x55555
    800012e4:	55550513          	addi	x10,x10,1365 # 0x55555555
    800012e8:	00b51513          	slli	x10,x10,0xb
    800012ec:	2aa50513          	addi	x10,x10,682
    800012f0:	00b51513          	slli	x10,x10,0xb
    800012f4:	55550513          	addi	x10,x10,1365
    800012f8:	00a51513          	slli	x10,x10,0xa
    800012fc:	15650513          	addi	x10,x10,342
    80001300:	01e00593          	addi	x11,x0,30
    80001304:	40b5563b          	sraw	x12,x10,x11
    80001308:	2ec33023          	sd	x12,736(x6)
    8000130c:	00100093          	addi	x1,x0,1
    80001310:	00c08463          	beq	x1,x12,0x80001318
    80001314:	d11fe06f          	jal	x0,0x80000024
    80001318:	aaaab537          	lui	x10,0xaaaab
    8000131c:	aaa50513          	addi	x10,x10,-1366 # 0xffffffffaaaaaaaa
    80001320:	00b51513          	slli	x10,x10,0xb
    80001324:	55550513          	addi	x10,x10,1365
    80001328:	00b51513          	slli	x10,x10,0xb
    8000132c:	2aa50513          	addi	x10,x10,682
    80001330:	00a51513          	slli	x10,x10,0xa
    80001334:	2ab50513          	addi	x10,x10,683
    80001338:	00e00593          	addi	x11,x0,14
    8000133c:	40b5563b          	sraw	x12,x10,x11
    80001340:	2ec33423          	sd	x12,744(x6)
    80001344:	fffeb0b7          	lui	x1,0xfffeb
    80001348:	aaa0809b          	addiw	x1,x1,-1366 # 0xfffffffffffeaaaa
    8000134c:	00c08463          	beq	x1,x12,0x80001354
    80001350:	cd5fe06f          	jal	x0,0x80000024
    80001354:	00600513          	addi	x10,x0,6
    80001358:	00a00593          	addi	x11,x0,10
    8000135c:	40b5563b          	sraw	x12,x10,x11
    80001360:	2ec33823          	sd	x12,752(x6)
    80001364:	00000093          	addi	x1,x0,0
    80001368:	00c08463          	beq	x1,x12,0x80001370
    8000136c:	cb9fe06f          	jal	x0,0x80000024
    80001370:	33333537          	lui	x10,0x33333
    80001374:	33350513          	addi	x10,x10,819 # 0x33333333
    80001378:	00b51513          	slli	x10,x10,0xb
    8000137c:	19950513          	addi	x10,x10,409
    80001380:	00b51513          	slli	x10,x10,0xb
    80001384:	4cc50513          	addi	x10,x10,1228
    80001388:	00a51513          	slli	x10,x10,0xa
    8000138c:	33450513          	addi	x10,x10,820
    80001390:	00e00593          	addi	x11,x0,14
    80001394:	40b5563b          	sraw	x12,x10,x11
    80001398:	2ec33c23          	sd	x12,760(x6)
    8000139c:	0000d0b7          	lui	x1,0xd
    800013a0:	ccc0809b          	addiw	x1,x1,-820 # 0xcccc
    800013a4:	00c08463          	beq	x1,x12,0x800013ac
    800013a8:	c7dfe06f          	jal	x0,0x80000024
    800013ac:	66666537          	lui	x10,0x66666
    800013b0:	66650513          	addi	x10,x10,1638 # 0x66666666
    800013b4:	00b51513          	slli	x10,x10,0xb
    800013b8:	33350513          	addi	x10,x10,819
    800013bc:	00b51513          	slli	x10,x10,0xb
    800013c0:	19950513          	addi	x10,x10,409
    800013c4:	00a51513          	slli	x10,x10,0xa
    800013c8:	26750513          	addi	x10,x10,615
    800013cc:	01100593          	addi	x11,x0,17
    800013d0:	40b5563b          	sraw	x12,x10,x11
    800013d4:	30c33023          	sd	x12,768(x6)
    800013d8:	000030b7          	lui	x1,0x3
    800013dc:	3330809b          	addiw	x1,x1,819 # 0x3333
    800013e0:	00c08463          	beq	x1,x12,0x800013e8
    800013e4:	c41fe06f          	jal	x0,0x80000024
    800013e8:	00000537          	lui	x10,0x0
    800013ec:	fff50513          	addi	x10,x10,-1 # 0xffffffffffffffff
    800013f0:	00b51513          	slli	x10,x10,0xb
    800013f4:	25750513          	addi	x10,x10,599
    800013f8:	00b51513          	slli	x10,x10,0xb
    800013fc:	6c350513          	addi	x10,x10,1731
    80001400:	00a51513          	slli	x10,x10,0xa
    80001404:	0ce50513          	addi	x10,x10,206
    80001408:	00400593          	addi	x11,x0,4
    8000140c:	40b5563b          	sraw	x12,x10,x11
    80001410:	30c33423          	sd	x12,776(x6)
    80001414:	04afb0b7          	lui	x1,0x4afb
    80001418:	0cc0809b          	addiw	x1,x1,204 # 0x4afb0cc
    8000141c:	00c08463          	beq	x1,x12,0x80001424
    80001420:	c05fe06f          	jal	x0,0x80000024
    80001424:	00000537          	lui	x10,0x0
    80001428:	00050513          	addi	x10,x10,0 # 0x0
    8000142c:	00b51513          	slli	x10,x10,0xb
    80001430:	5a850513          	addi	x10,x10,1448
    80001434:	00b51513          	slli	x10,x10,0xb
    80001438:	13c50513          	addi	x10,x10,316
    8000143c:	00a51513          	slli	x10,x10,0xa
    80001440:	33450513          	addi	x10,x10,820
    80001444:	01d00593          	addi	x11,x0,29
    80001448:	40b5563b          	sraw	x12,x10,x11
    8000144c:	30c33823          	sd	x12,784(x6)
    80001450:	ffd00093          	addi	x1,x0,-3
    80001454:	00c08463          	beq	x1,x12,0x8000145c
    80001458:	bcdfe06f          	jal	x0,0x80000024
    8000145c:	00100513          	addi	x10,x0,1
    80001460:	01551513          	slli	x10,x10,0x15
    80001464:	fff54513          	xori	x10,x10,-1
    80001468:	00f00593          	addi	x11,x0,15
    8000146c:	40b5563b          	sraw	x12,x10,x11
    80001470:	30c33c23          	sd	x12,792(x6)
    80001474:	fbf00093          	addi	x1,x0,-65
    80001478:	00c08463          	beq	x1,x12,0x80001480
    8000147c:	ba9fe06f          	jal	x0,0x80000024
    80001480:	00100513          	addi	x10,x0,1
    80001484:	01651513          	slli	x10,x10,0x16
    80001488:	fff54513          	xori	x10,x10,-1
    8000148c:	00d00593          	addi	x11,x0,13
    80001490:	40b5563b          	sraw	x12,x10,x11
    80001494:	32c33023          	sd	x12,800(x6)
    80001498:	dff00093          	addi	x1,x0,-513
    8000149c:	00c08463          	beq	x1,x12,0x800014a4
    800014a0:	b85fe06f          	jal	x0,0x80000024
    800014a4:	00100513          	addi	x10,x0,1
    800014a8:	01751513          	slli	x10,x10,0x17
    800014ac:	fff54513          	xori	x10,x10,-1
    800014b0:	01e00593          	addi	x11,x0,30
    800014b4:	40b5563b          	sraw	x12,x10,x11
    800014b8:	32c33423          	sd	x12,808(x6)
    800014bc:	fff00093          	addi	x1,x0,-1
    800014c0:	00c08463          	beq	x1,x12,0x800014c8
    800014c4:	b61fe06f          	jal	x0,0x80000024
    800014c8:	00100513          	addi	x10,x0,1
    800014cc:	01851513          	slli	x10,x10,0x18
    800014d0:	fff54513          	xori	x10,x10,-1
    800014d4:	00e00593          	addi	x11,x0,14
    800014d8:	40b5563b          	sraw	x12,x10,x11
    800014dc:	32c33823          	sd	x12,816(x6)
    800014e0:	bff00093          	addi	x1,x0,-1025
    800014e4:	00c08463          	beq	x1,x12,0x800014ec
    800014e8:	b3dfe06f          	jal	x0,0x80000024
    800014ec:	00100513          	addi	x10,x0,1
    800014f0:	01951513          	slli	x10,x10,0x19
    800014f4:	fff54513          	xori	x10,x10,-1
    800014f8:	00500593          	addi	x11,x0,5
    800014fc:	40b5563b          	sraw	x12,x10,x11
    80001500:	32c33c23          	sd	x12,824(x6)
    80001504:	fff000b7          	lui	x1,0xfff00
    80001508:	fff0809b          	addiw	x1,x1,-1 # 0xffffffffffefffff
    8000150c:	00c08463          	beq	x1,x12,0x80001514
    80001510:	b15fe06f          	jal	x0,0x80000024
    80001514:	00100513          	addi	x10,x0,1
    80001518:	01a51513          	slli	x10,x10,0x1a
    8000151c:	fff54513          	xori	x10,x10,-1
    80001520:	00800593          	addi	x11,x0,8
    80001524:	40b5563b          	sraw	x12,x10,x11
    80001528:	34c33023          	sd	x12,832(x6)
    8000152c:	fffc00b7          	lui	x1,0xfffc0
    80001530:	fff0809b          	addiw	x1,x1,-1 # 0xfffffffffffbffff
    80001534:	00c08463          	beq	x1,x12,0x8000153c
    80001538:	aedfe06f          	jal	x0,0x80000024
    8000153c:	00100513          	addi	x10,x0,1
    80001540:	01b51513          	slli	x10,x10,0x1b
    80001544:	fff54513          	xori	x10,x10,-1
    80001548:	00700593          	addi	x11,x0,7
    8000154c:	40b5563b          	sraw	x12,x10,x11
    80001550:	34c33423          	sd	x12,840(x6)
    80001554:	fff000b7          	lui	x1,0xfff00
    80001558:	fff0809b          	addiw	x1,x1,-1 # 0xffffffffffefffff
    8000155c:	00c08463          	beq	x1,x12,0x80001564
    80001560:	ac5fe06f          	jal	x0,0x80000024
    80001564:	00100513          	addi	x10,x0,1
    80001568:	01c51513          	slli	x10,x10,0x1c
    8000156c:	fff54513          	xori	x10,x10,-1
    80001570:	00b00593          	addi	x11,x0,11
    80001574:	40b5563b          	sraw	x12,x10,x11
    80001578:	34c33823          	sd	x12,848(x6)
    8000157c:	fffe00b7          	lui	x1,0xfffe0
    80001580:	fff0809b          	addiw	x1,x1,-1 # 0xfffffffffffdffff
    80001584:	00c08463          	beq	x1,x12,0x8000158c
    80001588:	a9dfe06f          	jal	x0,0x80000024
    8000158c:	00100513          	addi	x10,x0,1
    80001590:	01d51513          	slli	x10,x10,0x1d
    80001594:	fff54513          	xori	x10,x10,-1
    80001598:	01100593          	addi	x11,x0,17
    8000159c:	40b5563b          	sraw	x12,x10,x11
    800015a0:	34c33c23          	sd	x12,856(x6)
    800015a4:	fffff0b7          	lui	x1,0xfffff
    800015a8:	fff0809b          	addiw	x1,x1,-1 # 0xffffffffffffefff
    800015ac:	00c08463          	beq	x1,x12,0x800015b4
    800015b0:	a75fe06f          	jal	x0,0x80000024
    800015b4:	00100513          	addi	x10,x0,1
    800015b8:	01e51513          	slli	x10,x10,0x1e
    800015bc:	fff54513          	xori	x10,x10,-1
    800015c0:	00600593          	addi	x11,x0,6
    800015c4:	40b5563b          	sraw	x12,x10,x11
    800015c8:	36c33023          	sd	x12,864(x6)
    800015cc:	ff0000b7          	lui	x1,0xff000
    800015d0:	fff0809b          	addiw	x1,x1,-1 # 0xfffffffffeffffff
    800015d4:	00c08463          	beq	x1,x12,0x800015dc
    800015d8:	a4dfe06f          	jal	x0,0x80000024
    800015dc:	00100513          	addi	x10,x0,1
    800015e0:	01f51513          	slli	x10,x10,0x1f
    800015e4:	fff54513          	xori	x10,x10,-1
    800015e8:	00f00593          	addi	x11,x0,15
    800015ec:	40b5563b          	sraw	x12,x10,x11
    800015f0:	36c33423          	sd	x12,872(x6)
    800015f4:	000100b7          	lui	x1,0x10
    800015f8:	fff0809b          	addiw	x1,x1,-1 # 0xffff
    800015fc:	00c08463          	beq	x1,x12,0x80001604
    80001600:	a25fe06f          	jal	x0,0x80000024
    80001604:	00100513          	addi	x10,x0,1
    80001608:	02051513          	slli	x10,x10,0x20
    8000160c:	fff54513          	xori	x10,x10,-1
    80001610:	01700593          	addi	x11,x0,23
    80001614:	40b5563b          	sraw	x12,x10,x11
    80001618:	36c33823          	sd	x12,880(x6)
    8000161c:	fff00093          	addi	x1,x0,-1
    80001620:	00c08463          	beq	x1,x12,0x80001628
    80001624:	a01fe06f          	jal	x0,0x80000024
    80001628:	00100513          	addi	x10,x0,1
    8000162c:	02151513          	slli	x10,x10,0x21
    80001630:	fff54513          	xori	x10,x10,-1
    80001634:	00200593          	addi	x11,x0,2
    80001638:	40b5563b          	sraw	x12,x10,x11
    8000163c:	36c33c23          	sd	x12,888(x6)
    80001640:	fff00093          	addi	x1,x0,-1
    80001644:	00c08463          	beq	x1,x12,0x8000164c
    80001648:	9ddfe06f          	jal	x0,0x80000024
    8000164c:	00100513          	addi	x10,x0,1
    80001650:	02251513          	slli	x10,x10,0x22
    80001654:	fff54513          	xori	x10,x10,-1
    80001658:	01700593          	addi	x11,x0,23
    8000165c:	40b5563b          	sraw	x12,x10,x11
    80001660:	38c33023          	sd	x12,896(x6)
    80001664:	fff00093          	addi	x1,x0,-1
    80001668:	00c08463          	beq	x1,x12,0x80001670
    8000166c:	9b9fe06f          	jal	x0,0x80000024
    80001670:	00100513          	addi	x10,x0,1
    80001674:	02351513          	slli	x10,x10,0x23
    80001678:	fff54513          	xori	x10,x10,-1
    8000167c:	00000593          	addi	x11,x0,0
    80001680:	40b5563b          	sraw	x12,x10,x11
    80001684:	38c33423          	sd	x12,904(x6)
    80001688:	fff00093          	addi	x1,x0,-1
    8000168c:	00c08463          	beq	x1,x12,0x80001694
    80001690:	995fe06f          	jal	x0,0x80000024
    80001694:	00100513          	addi	x10,x0,1
    80001698:	02451513          	slli	x10,x10,0x24
    8000169c:	fff54513          	xori	x10,x10,-1
    800016a0:	01100593          	addi	x11,x0,17
    800016a4:	40b5563b          	sraw	x12,x10,x11
    800016a8:	38c33823          	sd	x12,912(x6)
    800016ac:	fff00093          	addi	x1,x0,-1
    800016b0:	00c08463          	beq	x1,x12,0x800016b8
    800016b4:	971fe06f          	jal	x0,0x80000024
    800016b8:	00100513          	addi	x10,x0,1
    800016bc:	02551513          	slli	x10,x10,0x25
    800016c0:	fff54513          	xori	x10,x10,-1
    800016c4:	00100593          	addi	x11,x0,1
    800016c8:	40b5563b          	sraw	x12,x10,x11
    800016cc:	38c33c23          	sd	x12,920(x6)
    800016d0:	fff00093          	addi	x1,x0,-1
    800016d4:	00c08463          	beq	x1,x12,0x800016dc
    800016d8:	94dfe06f          	jal	x0,0x80000024
    800016dc:	00100513          	addi	x10,x0,1
    800016e0:	02651513          	slli	x10,x10,0x26
    800016e4:	fff54513          	xori	x10,x10,-1
    800016e8:	01f00593          	addi	x11,x0,31
    800016ec:	40b5563b          	sraw	x12,x10,x11
    800016f0:	3ac33023          	sd	x12,928(x6)
    800016f4:	fff00093          	addi	x1,x0,-1
    800016f8:	00c08463          	beq	x1,x12,0x80001700
    800016fc:	929fe06f          	jal	x0,0x80000024
    80001700:	00100513          	addi	x10,x0,1
    80001704:	02751513          	slli	x10,x10,0x27
    80001708:	fff54513          	xori	x10,x10,-1
    8000170c:	00600593          	addi	x11,x0,6
    80001710:	40b5563b          	sraw	x12,x10,x11
    80001714:	3ac33423          	sd	x12,936(x6)
    80001718:	fff00093          	addi	x1,x0,-1
    8000171c:	00c08463          	beq	x1,x12,0x80001724
    80001720:	905fe06f          	jal	x0,0x80000024
    80001724:	00100513          	addi	x10,x0,1
    80001728:	02851513          	slli	x10,x10,0x28
    8000172c:	fff54513          	xori	x10,x10,-1
    80001730:	01b00593          	addi	x11,x0,27
    80001734:	40b5563b          	sraw	x12,x10,x11
    80001738:	3ac33823          	sd	x12,944(x6)
    8000173c:	fff00093          	addi	x1,x0,-1
    80001740:	00c08463          	beq	x1,x12,0x80001748
    80001744:	8e1fe06f          	jal	x0,0x80000024
    80001748:	00100513          	addi	x10,x0,1
    8000174c:	02951513          	slli	x10,x10,0x29
    80001750:	fff54513          	xori	x10,x10,-1
    80001754:	00a00593          	addi	x11,x0,10
    80001758:	40b5563b          	sraw	x12,x10,x11
    8000175c:	3ac33c23          	sd	x12,952(x6)
    80001760:	fff00093          	addi	x1,x0,-1
    80001764:	00c08463          	beq	x1,x12,0x8000176c
    80001768:	8bdfe06f          	jal	x0,0x80000024
    8000176c:	00100513          	addi	x10,x0,1
    80001770:	02a51513          	slli	x10,x10,0x2a
    80001774:	fff54513          	xori	x10,x10,-1
    80001778:	00200593          	addi	x11,x0,2
    8000177c:	40b5563b          	sraw	x12,x10,x11
    80001780:	3cc33023          	sd	x12,960(x6)
    80001784:	fff00093          	addi	x1,x0,-1
    80001788:	00c08463          	beq	x1,x12,0x80001790
    8000178c:	899fe06f          	jal	x0,0x80000024
    80001790:	00100513          	addi	x10,x0,1
    80001794:	02b51513          	slli	x10,x10,0x2b
    80001798:	fff54513          	xori	x10,x10,-1
    8000179c:	00800593          	addi	x11,x0,8
    800017a0:	40b5563b          	sraw	x12,x10,x11
    800017a4:	3cc33423          	sd	x12,968(x6)
    800017a8:	fff00093          	addi	x1,x0,-1
    800017ac:	00c08463          	beq	x1,x12,0x800017b4
    800017b0:	875fe06f          	jal	x0,0x80000024
    800017b4:	00100513          	addi	x10,x0,1
    800017b8:	02c51513          	slli	x10,x10,0x2c
    800017bc:	fff54513          	xori	x10,x10,-1
    800017c0:	00d00593          	addi	x11,x0,13
    800017c4:	40b5563b          	sraw	x12,x10,x11
    800017c8:	3cc33823          	sd	x12,976(x6)
    800017cc:	fff00093          	addi	x1,x0,-1
    800017d0:	00c08463          	beq	x1,x12,0x800017d8
    800017d4:	851fe06f          	jal	x0,0x80000024
    800017d8:	00100513          	addi	x10,x0,1
    800017dc:	02d51513          	slli	x10,x10,0x2d
    800017e0:	fff54513          	xori	x10,x10,-1
    800017e4:	00a00593          	addi	x11,x0,10
    800017e8:	40b5563b          	sraw	x12,x10,x11
    800017ec:	3cc33c23          	sd	x12,984(x6)
    800017f0:	fff00093          	addi	x1,x0,-1
    800017f4:	00c08463          	beq	x1,x12,0x800017fc
    800017f8:	82dfe06f          	jal	x0,0x80000024
    800017fc:	00100513          	addi	x10,x0,1
    80001800:	02e51513          	slli	x10,x10,0x2e
    80001804:	fff54513          	xori	x10,x10,-1
    80001808:	01700593          	addi	x11,x0,23
    8000180c:	40b5563b          	sraw	x12,x10,x11
    80001810:	3ec33023          	sd	x12,992(x6)
    80001814:	fff00093          	addi	x1,x0,-1
    80001818:	00c08463          	beq	x1,x12,0x80001820
    8000181c:	809fe06f          	jal	x0,0x80000024
    80001820:	00100513          	addi	x10,x0,1
    80001824:	02f51513          	slli	x10,x10,0x2f
    80001828:	fff54513          	xori	x10,x10,-1
    8000182c:	01200593          	addi	x11,x0,18
    80001830:	40b5563b          	sraw	x12,x10,x11
    80001834:	3ec33423          	sd	x12,1000(x6)
    80001838:	fff00093          	addi	x1,x0,-1
    8000183c:	00c08463          	beq	x1,x12,0x80001844
    80001840:	fe4fe06f          	jal	x0,0x80000024
    80001844:	00100513          	addi	x10,x0,1
    80001848:	03051513          	slli	x10,x10,0x30
    8000184c:	fff54513          	xori	x10,x10,-1
    80001850:	00900593          	addi	x11,x0,9
    80001854:	40b5563b          	sraw	x12,x10,x11
    80001858:	3ec33823          	sd	x12,1008(x6)
    8000185c:	fff00093          	addi	x1,x0,-1
    80001860:	00c08463          	beq	x1,x12,0x80001868
    80001864:	fc0fe06f          	jal	x0,0x80000024
    80001868:	00100513          	addi	x10,x0,1
    8000186c:	03151513          	slli	x10,x10,0x31
    80001870:	fff54513          	xori	x10,x10,-1
    80001874:	01300593          	addi	x11,x0,19
    80001878:	40b5563b          	sraw	x12,x10,x11
    8000187c:	3ec33c23          	sd	x12,1016(x6)
    80001880:	fff00093          	addi	x1,x0,-1
    80001884:	00c08463          	beq	x1,x12,0x8000188c
    80001888:	f9cfe06f          	jal	x0,0x80000024
    8000188c:	00100513          	addi	x10,x0,1
    80001890:	03251513          	slli	x10,x10,0x32
    80001894:	fff54513          	xori	x10,x10,-1
    80001898:	00a00593          	addi	x11,x0,10
    8000189c:	40b5563b          	sraw	x12,x10,x11
    800018a0:	40c33023          	sd	x12,1024(x6)
    800018a4:	fff00093          	addi	x1,x0,-1
    800018a8:	00c08463          	beq	x1,x12,0x800018b0
    800018ac:	f78fe06f          	jal	x0,0x80000024
    800018b0:	00100513          	addi	x10,x0,1
    800018b4:	03351513          	slli	x10,x10,0x33
    800018b8:	fff54513          	xori	x10,x10,-1
    800018bc:	00100593          	addi	x11,x0,1
    800018c0:	40b5563b          	sraw	x12,x10,x11
    800018c4:	40c33423          	sd	x12,1032(x6)
    800018c8:	fff00093          	addi	x1,x0,-1
    800018cc:	00c08463          	beq	x1,x12,0x800018d4
    800018d0:	f54fe06f          	jal	x0,0x80000024
    800018d4:	00100513          	addi	x10,x0,1
    800018d8:	03451513          	slli	x10,x10,0x34
    800018dc:	fff54513          	xori	x10,x10,-1
    800018e0:	00200593          	addi	x11,x0,2
    800018e4:	40b5563b          	sraw	x12,x10,x11
    800018e8:	40c33823          	sd	x12,1040(x6)
    800018ec:	fff00093          	addi	x1,x0,-1
    800018f0:	00c08463          	beq	x1,x12,0x800018f8
    800018f4:	f30fe06f          	jal	x0,0x80000024
    800018f8:	00100513          	addi	x10,x0,1
    800018fc:	03551513          	slli	x10,x10,0x35
    80001900:	fff54513          	xori	x10,x10,-1
    80001904:	01f00593          	addi	x11,x0,31
    80001908:	40b5563b          	sraw	x12,x10,x11
    8000190c:	40c33c23          	sd	x12,1048(x6)
    80001910:	fff00093          	addi	x1,x0,-1
    80001914:	00c08463          	beq	x1,x12,0x8000191c
    80001918:	f0cfe06f          	jal	x0,0x80000024
    8000191c:	00100513          	addi	x10,x0,1
    80001920:	03651513          	slli	x10,x10,0x36
    80001924:	fff54513          	xori	x10,x10,-1
    80001928:	00400593          	addi	x11,x0,4
    8000192c:	40b5563b          	sraw	x12,x10,x11
    80001930:	42c33023          	sd	x12,1056(x6)
    80001934:	fff00093          	addi	x1,x0,-1
    80001938:	00c08463          	beq	x1,x12,0x80001940
    8000193c:	ee8fe06f          	jal	x0,0x80000024
    80001940:	eff00513          	addi	x10,x0,-257
    80001944:	00100593          	addi	x11,x0,1
    80001948:	40b5563b          	sraw	x12,x10,x11
    8000194c:	42c33423          	sd	x12,1064(x6)
    80001950:	f7f00093          	addi	x1,x0,-129
    80001954:	00c08463          	beq	x1,x12,0x8000195c
    80001958:	eccfe06f          	jal	x0,0x80000024
    8000195c:	00100513          	addi	x10,x0,1
    80001960:	01151513          	slli	x10,x10,0x11
    80001964:	fff54513          	xori	x10,x10,-1
    80001968:	00000593          	addi	x11,x0,0
    8000196c:	40b5563b          	sraw	x12,x10,x11
    80001970:	42c33823          	sd	x12,1072(x6)
    80001974:	fffe00b7          	lui	x1,0xfffe0
    80001978:	fff0809b          	addiw	x1,x1,-1 # 0xfffffffffffdffff
    8000197c:	00c08463          	beq	x1,x12,0x80001984
    80001980:	ea4fe06f          	jal	x0,0x80000024
    80001984:	fff00513          	addi	x10,x0,-1
    80001988:	03f51513          	slli	x10,x10,0x3f
    8000198c:	00e00593          	addi	x11,x0,14
    80001990:	40b5563b          	sraw	x12,x10,x11
    80001994:	42c33c23          	sd	x12,1080(x6)
    80001998:	00000093          	addi	x1,x0,0
    8000199c:	00c08463          	beq	x1,x12,0x800019a4
    800019a0:	e84fe06f          	jal	x0,0x80000024
    800019a4:	00200513          	addi	x10,x0,2
    800019a8:	00a00593          	addi	x11,x0,10
    800019ac:	40b5563b          	sraw	x12,x10,x11
    800019b0:	44c33023          	sd	x12,1088(x6)
    800019b4:	00000093          	addi	x1,x0,0
    800019b8:	00c08463          	beq	x1,x12,0x800019c0
    800019bc:	e68fe06f          	jal	x0,0x80000024
    800019c0:	00100513          	addi	x10,x0,1
    800019c4:	00e51513          	slli	x10,x10,0xe
    800019c8:	00200593          	addi	x11,x0,2
    800019cc:	40b5563b          	sraw	x12,x10,x11
    800019d0:	44c33423          	sd	x12,1096(x6)
    800019d4:	000010b7          	lui	x1,0x1
    800019d8:	00c08463          	beq	x1,x12,0x800019e0
    800019dc:	e48fe06f          	jal	x0,0x80000024
    800019e0:	0380006f          	jal	x0,0x80001a18
    800019e4:	1f813483          	ld	x9,504(x2)
    800019e8:	20013303          	ld	x6,512(x2)
    800019ec:	00930333          	add	x6,x6,x9
    800019f0:	00000337          	lui	x6,0x0
    800019f4:	00030313          	addi	x6,x6,0 # 0x0
    800019f8:	00b31313          	slli	x6,x6,0xb
    800019fc:	5d630313          	addi	x6,x6,1494
    80001a00:	00b31313          	slli	x6,x6,0xb
    80001a04:	43630313          	addi	x6,x6,1078
    80001a08:	00a31313          	slli	x6,x6,0xa
    80001a0c:	2d030313          	addi	x6,x6,720
    80001a10:	fe64be23          	sd	x6,-4(x9) # 0x1fffc
    80001a14:	0040006f          	jal	x0,0x80001a18
    80001a18:	00000513          	addi	x10,x0,0
    80001a1c:	0240006f          	jal	x0,0x80001a40
	...
    80001a40:	00050513          	addi	x10,x10,0
    80001a44:	00100073          	ebreak
    80001a48:	0000006f          	jal	x0,0x80001a48
    80001a4c:	ff010113          	addi	x2,x2,-16
    80001a50:	00000517          	auipc	x10,0x0
    80001a54:	02050513          	addi	x10,x10,32 # 0x80001a70
    80001a58:	00113423          	sd	x1,8(x2)
    80001a5c:	db4fe0ef          	jal	x1,0x80000010
    80001a60:	00050513          	addi	x10,x10,0
    80001a64:	00100073          	ebreak
    80001a68:	0000006f          	jal	x0,0x80001a68
	...
    80002000:	cafe                	c.swsp	x31,84(x2)
    80002002:	babe                	c.fsdsp	f15,368(x2)
    80002004:	cafe                	c.swsp	x31,84(x2)
    80002006:	babe                	c.fsdsp	f15,368(x2)
    80002008:	cafe                	c.swsp	x31,84(x2)
    8000200a:	babe                	c.fsdsp	f15,368(x2)
    8000200c:	cafe                	c.swsp	x31,84(x2)
    8000200e:	babe                	c.fsdsp	f15,368(x2)
    80002010:	deadbeef          	jal	x29,0x7ffdd5fa
    80002014:	deadbeef          	jal	x29,0x7ffdd5fe
	...
    80003000:	b281                	c.j	0x80002940
    80003002:	e7d4                	c.sd	x13,136(x15)
    80003004:	a309                	c.j	0x80003506
    80003006:	6f5c                	c.ld	x15,152(x14)
    80003008:	deadbeef          	jal	x29,0x7ffde5f2
    8000300c:	deadbeef          	jal	x29,0x7ffde5f6
    80003010:	deadbeef          	jal	x29,0x7ffde5fa
    80003014:	deadbeef          	jal	x29,0x7ffde5fe
    80003018:	deadbeef          	jal	x29,0x7ffde602
    8000301c:	deadbeef          	jal	x29,0x7ffde606
    80003020:	deadbeef          	jal	x29,0x7ffde60a
    80003024:	deadbeef          	jal	x29,0x7ffde60e
    80003028:	deadbeef          	jal	x29,0x7ffde612
    8000302c:	deadbeef          	jal	x29,0x7ffde616
    80003030:	deadbeef          	jal	x29,0x7ffde61a
    80003034:	deadbeef          	jal	x29,0x7ffde61e
    80003038:	deadbeef          	jal	x29,0x7ffde622
    8000303c:	deadbeef          	jal	x29,0x7ffde626
    80003040:	deadbeef          	jal	x29,0x7ffde62a
    80003044:	deadbeef          	jal	x29,0x7ffde62e
    80003048:	deadbeef          	jal	x29,0x7ffde632
    8000304c:	deadbeef          	jal	x29,0x7ffde636
    80003050:	deadbeef          	jal	x29,0x7ffde63a
    80003054:	deadbeef          	jal	x29,0x7ffde63e
    80003058:	deadbeef          	jal	x29,0x7ffde642
    8000305c:	deadbeef          	jal	x29,0x7ffde646
    80003060:	deadbeef          	jal	x29,0x7ffde64a
    80003064:	deadbeef          	jal	x29,0x7ffde64e
    80003068:	deadbeef          	jal	x29,0x7ffde652
    8000306c:	deadbeef          	jal	x29,0x7ffde656
    80003070:	deadbeef          	jal	x29,0x7ffde65a
    80003074:	deadbeef          	jal	x29,0x7ffde65e
    80003078:	deadbeef          	jal	x29,0x7ffde662
    8000307c:	deadbeef          	jal	x29,0x7ffde666
    80003080:	deadbeef          	jal	x29,0x7ffde66a
    80003084:	deadbeef          	jal	x29,0x7ffde66e
    80003088:	deadbeef          	jal	x29,0x7ffde672
    8000308c:	deadbeef          	jal	x29,0x7ffde676
    80003090:	deadbeef          	jal	x29,0x7ffde67a
    80003094:	deadbeef          	jal	x29,0x7ffde67e
    80003098:	deadbeef          	jal	x29,0x7ffde682
    8000309c:	deadbeef          	jal	x29,0x7ffde686
    800030a0:	deadbeef          	jal	x29,0x7ffde68a
    800030a4:	deadbeef          	jal	x29,0x7ffde68e
    800030a8:	deadbeef          	jal	x29,0x7ffde692
    800030ac:	deadbeef          	jal	x29,0x7ffde696
    800030b0:	deadbeef          	jal	x29,0x7ffde69a
    800030b4:	deadbeef          	jal	x29,0x7ffde69e
    800030b8:	deadbeef          	jal	x29,0x7ffde6a2
    800030bc:	deadbeef          	jal	x29,0x7ffde6a6
    800030c0:	deadbeef          	jal	x29,0x7ffde6aa
    800030c4:	deadbeef          	jal	x29,0x7ffde6ae
    800030c8:	deadbeef          	jal	x29,0x7ffde6b2
    800030cc:	deadbeef          	jal	x29,0x7ffde6b6
    800030d0:	deadbeef          	jal	x29,0x7ffde6ba
    800030d4:	deadbeef          	jal	x29,0x7ffde6be
    800030d8:	deadbeef          	jal	x29,0x7ffde6c2
    800030dc:	deadbeef          	jal	x29,0x7ffde6c6
    800030e0:	deadbeef          	jal	x29,0x7ffde6ca
    800030e4:	deadbeef          	jal	x29,0x7ffde6ce
    800030e8:	deadbeef          	jal	x29,0x7ffde6d2
    800030ec:	deadbeef          	jal	x29,0x7ffde6d6
    800030f0:	deadbeef          	jal	x29,0x7ffde6da
    800030f4:	deadbeef          	jal	x29,0x7ffde6de
    800030f8:	deadbeef          	jal	x29,0x7ffde6e2
    800030fc:	deadbeef          	jal	x29,0x7ffde6e6
    80003100:	deadbeef          	jal	x29,0x7ffde6ea
    80003104:	deadbeef          	jal	x29,0x7ffde6ee
    80003108:	deadbeef          	jal	x29,0x7ffde6f2
    8000310c:	deadbeef          	jal	x29,0x7ffde6f6
    80003110:	deadbeef          	jal	x29,0x7ffde6fa
    80003114:	deadbeef          	jal	x29,0x7ffde6fe
    80003118:	deadbeef          	jal	x29,0x7ffde702
    8000311c:	deadbeef          	jal	x29,0x7ffde706
    80003120:	deadbeef          	jal	x29,0x7ffde70a
    80003124:	deadbeef          	jal	x29,0x7ffde70e
    80003128:	deadbeef          	jal	x29,0x7ffde712
    8000312c:	deadbeef          	jal	x29,0x7ffde716
    80003130:	deadbeef          	jal	x29,0x7ffde71a
    80003134:	deadbeef          	jal	x29,0x7ffde71e
    80003138:	deadbeef          	jal	x29,0x7ffde722
    8000313c:	deadbeef          	jal	x29,0x7ffde726
    80003140:	deadbeef          	jal	x29,0x7ffde72a
    80003144:	deadbeef          	jal	x29,0x7ffde72e
    80003148:	deadbeef          	jal	x29,0x7ffde732
    8000314c:	deadbeef          	jal	x29,0x7ffde736
    80003150:	deadbeef          	jal	x29,0x7ffde73a
    80003154:	deadbeef          	jal	x29,0x7ffde73e
    80003158:	deadbeef          	jal	x29,0x7ffde742
    8000315c:	deadbeef          	jal	x29,0x7ffde746
    80003160:	deadbeef          	jal	x29,0x7ffde74a
    80003164:	deadbeef          	jal	x29,0x7ffde74e
    80003168:	deadbeef          	jal	x29,0x7ffde752
    8000316c:	deadbeef          	jal	x29,0x7ffde756
    80003170:	deadbeef          	jal	x29,0x7ffde75a
    80003174:	deadbeef          	jal	x29,0x7ffde75e
    80003178:	deadbeef          	jal	x29,0x7ffde762
    8000317c:	deadbeef          	jal	x29,0x7ffde766
    80003180:	deadbeef          	jal	x29,0x7ffde76a
    80003184:	deadbeef          	jal	x29,0x7ffde76e
    80003188:	deadbeef          	jal	x29,0x7ffde772
    8000318c:	deadbeef          	jal	x29,0x7ffde776
    80003190:	deadbeef          	jal	x29,0x7ffde77a
    80003194:	deadbeef          	jal	x29,0x7ffde77e
    80003198:	deadbeef          	jal	x29,0x7ffde782
    8000319c:	deadbeef          	jal	x29,0x7ffde786
    800031a0:	deadbeef          	jal	x29,0x7ffde78a
    800031a4:	deadbeef          	jal	x29,0x7ffde78e
    800031a8:	deadbeef          	jal	x29,0x7ffde792
    800031ac:	deadbeef          	jal	x29,0x7ffde796
    800031b0:	deadbeef          	jal	x29,0x7ffde79a
    800031b4:	deadbeef          	jal	x29,0x7ffde79e
    800031b8:	deadbeef          	jal	x29,0x7ffde7a2
    800031bc:	deadbeef          	jal	x29,0x7ffde7a6
    800031c0:	deadbeef          	jal	x29,0x7ffde7aa
    800031c4:	deadbeef          	jal	x29,0x7ffde7ae
    800031c8:	deadbeef          	jal	x29,0x7ffde7b2
    800031cc:	deadbeef          	jal	x29,0x7ffde7b6
    800031d0:	deadbeef          	jal	x29,0x7ffde7ba
    800031d4:	deadbeef          	jal	x29,0x7ffde7be
    800031d8:	deadbeef          	jal	x29,0x7ffde7c2
    800031dc:	deadbeef          	jal	x29,0x7ffde7c6
    800031e0:	deadbeef          	jal	x29,0x7ffde7ca
    800031e4:	deadbeef          	jal	x29,0x7ffde7ce
    800031e8:	deadbeef          	jal	x29,0x7ffde7d2
    800031ec:	deadbeef          	jal	x29,0x7ffde7d6
    800031f0:	deadbeef          	jal	x29,0x7ffde7da
    800031f4:	deadbeef          	jal	x29,0x7ffde7de
    800031f8:	deadbeef          	jal	x29,0x7ffde7e2
    800031fc:	deadbeef          	jal	x29,0x7ffde7e6
    80003200:	deadbeef          	jal	x29,0x7ffde7ea
    80003204:	deadbeef          	jal	x29,0x7ffde7ee
    80003208:	deadbeef          	jal	x29,0x7ffde7f2
    8000320c:	deadbeef          	jal	x29,0x7ffde7f6
    80003210:	deadbeef          	jal	x29,0x7ffde7fa
    80003214:	deadbeef          	jal	x29,0x7ffde7fe
    80003218:	deadbeef          	jal	x29,0x7ffde802
    8000321c:	deadbeef          	jal	x29,0x7ffde806
    80003220:	deadbeef          	jal	x29,0x7ffde80a
    80003224:	deadbeef          	jal	x29,0x7ffde80e
    80003228:	deadbeef          	jal	x29,0x7ffde812
    8000322c:	deadbeef          	jal	x29,0x7ffde816
    80003230:	deadbeef          	jal	x29,0x7ffde81a
    80003234:	deadbeef          	jal	x29,0x7ffde81e
    80003238:	deadbeef          	jal	x29,0x7ffde822
    8000323c:	deadbeef          	jal	x29,0x7ffde826
    80003240:	deadbeef          	jal	x29,0x7ffde82a
    80003244:	deadbeef          	jal	x29,0x7ffde82e
    80003248:	deadbeef          	jal	x29,0x7ffde832
    8000324c:	deadbeef          	jal	x29,0x7ffde836
    80003250:	deadbeef          	jal	x29,0x7ffde83a
    80003254:	deadbeef          	jal	x29,0x7ffde83e
    80003258:	deadbeef          	jal	x29,0x7ffde842
    8000325c:	deadbeef          	jal	x29,0x7ffde846
    80003260:	deadbeef          	jal	x29,0x7ffde84a
    80003264:	deadbeef          	jal	x29,0x7ffde84e
    80003268:	deadbeef          	jal	x29,0x7ffde852
    8000326c:	deadbeef          	jal	x29,0x7ffde856
    80003270:	deadbeef          	jal	x29,0x7ffde85a
    80003274:	deadbeef          	jal	x29,0x7ffde85e
    80003278:	deadbeef          	jal	x29,0x7ffde862
    8000327c:	deadbeef          	jal	x29,0x7ffde866
    80003280:	deadbeef          	jal	x29,0x7ffde86a
    80003284:	deadbeef          	jal	x29,0x7ffde86e
    80003288:	deadbeef          	jal	x29,0x7ffde872
    8000328c:	deadbeef          	jal	x29,0x7ffde876
    80003290:	deadbeef          	jal	x29,0x7ffde87a
    80003294:	deadbeef          	jal	x29,0x7ffde87e
    80003298:	deadbeef          	jal	x29,0x7ffde882
    8000329c:	deadbeef          	jal	x29,0x7ffde886
    800032a0:	deadbeef          	jal	x29,0x7ffde88a
    800032a4:	deadbeef          	jal	x29,0x7ffde88e
    800032a8:	deadbeef          	jal	x29,0x7ffde892
    800032ac:	deadbeef          	jal	x29,0x7ffde896
    800032b0:	deadbeef          	jal	x29,0x7ffde89a
    800032b4:	deadbeef          	jal	x29,0x7ffde89e
    800032b8:	deadbeef          	jal	x29,0x7ffde8a2
    800032bc:	deadbeef          	jal	x29,0x7ffde8a6
    800032c0:	deadbeef          	jal	x29,0x7ffde8aa
    800032c4:	deadbeef          	jal	x29,0x7ffde8ae
    800032c8:	deadbeef          	jal	x29,0x7ffde8b2
    800032cc:	deadbeef          	jal	x29,0x7ffde8b6
    800032d0:	deadbeef          	jal	x29,0x7ffde8ba
    800032d4:	deadbeef          	jal	x29,0x7ffde8be
    800032d8:	deadbeef          	jal	x29,0x7ffde8c2
    800032dc:	deadbeef          	jal	x29,0x7ffde8c6
    800032e0:	deadbeef          	jal	x29,0x7ffde8ca
    800032e4:	deadbeef          	jal	x29,0x7ffde8ce
    800032e8:	deadbeef          	jal	x29,0x7ffde8d2
    800032ec:	deadbeef          	jal	x29,0x7ffde8d6
    800032f0:	deadbeef          	jal	x29,0x7ffde8da
    800032f4:	deadbeef          	jal	x29,0x7ffde8de
    800032f8:	deadbeef          	jal	x29,0x7ffde8e2
    800032fc:	deadbeef          	jal	x29,0x7ffde8e6
    80003300:	deadbeef          	jal	x29,0x7ffde8ea
    80003304:	deadbeef          	jal	x29,0x7ffde8ee
    80003308:	deadbeef          	jal	x29,0x7ffde8f2
    8000330c:	deadbeef          	jal	x29,0x7ffde8f6
    80003310:	deadbeef          	jal	x29,0x7ffde8fa
    80003314:	deadbeef          	jal	x29,0x7ffde8fe
    80003318:	deadbeef          	jal	x29,0x7ffde902
    8000331c:	deadbeef          	jal	x29,0x7ffde906
    80003320:	deadbeef          	jal	x29,0x7ffde90a
    80003324:	deadbeef          	jal	x29,0x7ffde90e
    80003328:	deadbeef          	jal	x29,0x7ffde912
    8000332c:	deadbeef          	jal	x29,0x7ffde916
    80003330:	deadbeef          	jal	x29,0x7ffde91a
    80003334:	deadbeef          	jal	x29,0x7ffde91e
    80003338:	deadbeef          	jal	x29,0x7ffde922
    8000333c:	deadbeef          	jal	x29,0x7ffde926
    80003340:	deadbeef          	jal	x29,0x7ffde92a
    80003344:	deadbeef          	jal	x29,0x7ffde92e
    80003348:	deadbeef          	jal	x29,0x7ffde932
    8000334c:	deadbeef          	jal	x29,0x7ffde936
    80003350:	deadbeef          	jal	x29,0x7ffde93a
    80003354:	deadbeef          	jal	x29,0x7ffde93e
    80003358:	deadbeef          	jal	x29,0x7ffde942
    8000335c:	deadbeef          	jal	x29,0x7ffde946
    80003360:	deadbeef          	jal	x29,0x7ffde94a
    80003364:	deadbeef          	jal	x29,0x7ffde94e
    80003368:	deadbeef          	jal	x29,0x7ffde952
    8000336c:	deadbeef          	jal	x29,0x7ffde956
    80003370:	deadbeef          	jal	x29,0x7ffde95a
    80003374:	deadbeef          	jal	x29,0x7ffde95e
    80003378:	deadbeef          	jal	x29,0x7ffde962
    8000337c:	deadbeef          	jal	x29,0x7ffde966
    80003380:	deadbeef          	jal	x29,0x7ffde96a
    80003384:	deadbeef          	jal	x29,0x7ffde96e
    80003388:	deadbeef          	jal	x29,0x7ffde972
    8000338c:	deadbeef          	jal	x29,0x7ffde976
    80003390:	deadbeef          	jal	x29,0x7ffde97a
    80003394:	deadbeef          	jal	x29,0x7ffde97e
    80003398:	deadbeef          	jal	x29,0x7ffde982
    8000339c:	deadbeef          	jal	x29,0x7ffde986
    800033a0:	deadbeef          	jal	x29,0x7ffde98a
    800033a4:	deadbeef          	jal	x29,0x7ffde98e
    800033a8:	deadbeef          	jal	x29,0x7ffde992
    800033ac:	deadbeef          	jal	x29,0x7ffde996
    800033b0:	deadbeef          	jal	x29,0x7ffde99a
    800033b4:	deadbeef          	jal	x29,0x7ffde99e
    800033b8:	deadbeef          	jal	x29,0x7ffde9a2
    800033bc:	deadbeef          	jal	x29,0x7ffde9a6
    800033c0:	deadbeef          	jal	x29,0x7ffde9aa
    800033c4:	deadbeef          	jal	x29,0x7ffde9ae
    800033c8:	deadbeef          	jal	x29,0x7ffde9b2
    800033cc:	deadbeef          	jal	x29,0x7ffde9b6
    800033d0:	deadbeef          	jal	x29,0x7ffde9ba
    800033d4:	deadbeef          	jal	x29,0x7ffde9be
    800033d8:	deadbeef          	jal	x29,0x7ffde9c2
    800033dc:	deadbeef          	jal	x29,0x7ffde9c6
    800033e0:	deadbeef          	jal	x29,0x7ffde9ca
    800033e4:	deadbeef          	jal	x29,0x7ffde9ce
    800033e8:	deadbeef          	jal	x29,0x7ffde9d2
    800033ec:	deadbeef          	jal	x29,0x7ffde9d6
    800033f0:	deadbeef          	jal	x29,0x7ffde9da
    800033f4:	deadbeef          	jal	x29,0x7ffde9de
    800033f8:	deadbeef          	jal	x29,0x7ffde9e2
    800033fc:	deadbeef          	jal	x29,0x7ffde9e6
    80003400:	deadbeef          	jal	x29,0x7ffde9ea
    80003404:	deadbeef          	jal	x29,0x7ffde9ee
    80003408:	deadbeef          	jal	x29,0x7ffde9f2
    8000340c:	deadbeef          	jal	x29,0x7ffde9f6
    80003410:	deadbeef          	jal	x29,0x7ffde9fa
    80003414:	deadbeef          	jal	x29,0x7ffde9fe
    80003418:	deadbeef          	jal	x29,0x7ffdea02
    8000341c:	deadbeef          	jal	x29,0x7ffdea06
    80003420:	deadbeef          	jal	x29,0x7ffdea0a
    80003424:	deadbeef          	jal	x29,0x7ffdea0e
    80003428:	deadbeef          	jal	x29,0x7ffdea12
    8000342c:	deadbeef          	jal	x29,0x7ffdea16
    80003430:	deadbeef          	jal	x29,0x7ffdea1a
    80003434:	deadbeef          	jal	x29,0x7ffdea1e
    80003438:	deadbeef          	jal	x29,0x7ffdea22
    8000343c:	deadbeef          	jal	x29,0x7ffdea26
    80003440:	deadbeef          	jal	x29,0x7ffdea2a
    80003444:	deadbeef          	jal	x29,0x7ffdea2e
    80003448:	deadbeef          	jal	x29,0x7ffdea32
    8000344c:	deadbeef          	jal	x29,0x7ffdea36
    80003450:	deadbeef          	jal	x29,0x7ffdea3a
    80003454:	deadbeef          	jal	x29,0x7ffdea3e
    80003458:	deadbeef          	jal	x29,0x7ffdea42
    8000345c:	deadbeef          	jal	x29,0x7ffdea46
    80003460:	deadbeef          	jal	x29,0x7ffdea4a
    80003464:	deadbeef          	jal	x29,0x7ffdea4e
    80003468:	deadbeef          	jal	x29,0x7ffdea52
    8000346c:	deadbeef          	jal	x29,0x7ffdea56
    80003470:	deadbeef          	jal	x29,0x7ffdea5a
    80003474:	deadbeef          	jal	x29,0x7ffdea5e
    80003478:	deadbeef          	jal	x29,0x7ffdea62
    8000347c:	deadbeef          	jal	x29,0x7ffdea66
    80003480:	deadbeef          	jal	x29,0x7ffdea6a
    80003484:	deadbeef          	jal	x29,0x7ffdea6e
    80003488:	deadbeef          	jal	x29,0x7ffdea72
    8000348c:	deadbeef          	jal	x29,0x7ffdea76
    80003490:	deadbeef          	jal	x29,0x7ffdea7a
    80003494:	deadbeef          	jal	x29,0x7ffdea7e
    80003498:	deadbeef          	jal	x29,0x7ffdea82
    8000349c:	deadbeef          	jal	x29,0x7ffdea86
    800034a0:	deadbeef          	jal	x29,0x7ffdea8a
    800034a4:	deadbeef          	jal	x29,0x7ffdea8e
    800034a8:	deadbeef          	jal	x29,0x7ffdea92
    800034ac:	deadbeef          	jal	x29,0x7ffdea96
    800034b0:	deadbeef          	jal	x29,0x7ffdea9a
    800034b4:	deadbeef          	jal	x29,0x7ffdea9e
    800034b8:	deadbeef          	jal	x29,0x7ffdeaa2
    800034bc:	deadbeef          	jal	x29,0x7ffdeaa6
    800034c0:	deadbeef          	jal	x29,0x7ffdeaaa
    800034c4:	deadbeef          	jal	x29,0x7ffdeaae
    800034c8:	deadbeef          	jal	x29,0x7ffdeab2
    800034cc:	deadbeef          	jal	x29,0x7ffdeab6
    800034d0:	deadbeef          	jal	x29,0x7ffdeaba
    800034d4:	deadbeef          	jal	x29,0x7ffdeabe
    800034d8:	b281                	c.j	0x80002e18
    800034da:	e7d4                	c.sd	x13,136(x15)
    800034dc:	a309                	c.j	0x800039de
    800034de:	6f5c                	c.ld	x15,152(x14)
