
bin/riscv-arch-test/srl-riscv64-nemu.bin:     file format binary

Contents of section .data:
 80000000 13040000 17c10000 1301c1ff ef105053  ..............PS
 80000010 ef000003 13051000 ef10d051 13050000  ...........Q....
 80000020 67800000 13051000 ef10d050 67800000  g..........Pg...
 80000030 00000000 00000000 00000000 00000000  ................
 80000040 b7c0edfe 9380d0ea 9390b000 9380707f  ..............p.
 80000050 9390b000 9380f036 9390a000 9380d02a  .......6.......*
 80000060 37e176ff 130161f5 1311b100 1301b17f  7.v...a.........
 80000070 1311b100 1301715b 1311a100 13016135  ......q[......a5
 80000080 b771bb7f 9381b1fa 9391b100 9381d13f  .q.............?
 80000090 9391b100 9381b16d 9391a100 9381b13a  .......m.......:
 800000a0 37b2ddbf 1302527d 1312b200 1302e25f  7.....R}......._
 800000b0 1312b200 1302d276 1312a200 1302523d  .......v......R=
 800000c0 b7e2eedf 9382a2be 9392b200 9382f26f  ...............o
 800000d0 9392b200 9382623b 9392a200 9382a23e  ......b;.......>
 800000e0 3773f76f 130353df 1313b300 1303f337  7s.o..S........7
 800000f0 1313b300 1303b35d 1313a300 1303531f  .......]......S.
 80000100 b7b3fbb7 9383a36f 9393b300 9383f35b  .......o.......[
 80000110 9393b300 9383d36e 9393a300 9383a32f  .......n......./
 80000120 37e4fd5b 1304d4b7 1314b400 1304f42d  7..[...........-
 80000130 1314b400 13046477 1314a400 1304d437  ......dw.......7
 80000140 b7f4fead 9384e4db 9394b400 9384f456  ...............V
 80000150 9394b400 9384b47b 9394a400 9384e41b  .......{........
 80000160 3775ff56 1305f56d 1315b500 1305752b  7u.V...m......u+
 80000170 1315b500 1305d57d 1315a500 1305f52d  .......}.......-
 80000180 b7c57fab 9385f5b6 9395b500 9385b555  ...............U
 80000190 9395b500 9385e57e 9395a500 9385f536  .......~.......6
 800001a0 37e6bfd5 130676db 1316b600 1306d66a  7.....v........j
 800001b0 1316b600 1306767f 1316a600 1306761b  ......v.......v.
 800001c0 b7f6dfea 9386b6ed 9396b600 93866675  ..............fu
 800001d0 9396b600 9386b67f 9396a600 9386b62d  ...............-
 800001e0 37f76ff5 1307d776 1317b700 1307b77a  7.o....v.......z
 800001f0 1317b700 1307d73f 1317a700 1307d736  .......?.......6
 80000200 b707b8fa 938767bb 9397b700 9387577d  ......g.......W}
 80000210 9397b700 9387e75f 9397a700 9387673b  ......._......g;
 80000220 37085c7d 1308b8dd 1318b800 1308a83e  7.\}...........>
 80000230 1318b800 1308f86f 1318a800 1308b81d  .......o........
 80000240 b708aebe 9388d8ee 9398b800 9388585f  ..............X_
 80000250 9398b800 9388f837 9398a800 9388d82e  .......7........
 80000260 370957df 130969f7 1319b900 1309a96f  7.W...i........o
 80000270 1319b900 1309f95b 1319a900 13096937  .......[......i7
 80000280 b789ab6f 9389b9fb 9399b900 9389d937  ...o...........7
 80000290 9399b900 9389f92d 9399a900 9389b93b  .......-.......;
 800002a0 37cad5b7 130adafd 131aba00 130aea5b  7..............[
 800002b0 131aba00 130afa56 131aaa00 130ada3d  .......V.......=
 800002c0 b7eaeadb 938aeafe 939aba00 938afa6d  ...............m
 800002d0 939aba00 938a7a2b 939aaa00 938aea3e  ......z+.......>
 800002e0 377bf56d 130b7bff 131bbb00 130bfb36  7{.m..{........6
 800002f0 131bbb00 130bbb55 131bab00 130b7b3f  .......U......{?
 80000300 b7bbfab6 938bbb7f 939bbb00 938b7b5b  ..............{[
 80000310 939bbb00 938bdb6a 939bab00 938bbb3f  .......j.......?
 80000320 376c7ddb 130cdcbf 131cbc00 130cbc6d  7l}............m
 80000330 131cbc00 130c6c75 131cac00 130cdc3f  ......lu.......?
 80000340 b7bcbeed 938cecdf 939cbc00 938cdc76  ...............v
 80000350 939cbc00 938cbc7a 939cac00 938cec1f  .......z........
 80000360 375ddf76 130dfd6f 131dbd00 130d6d3b  7].v...o......m;
 80000370 131dbd00 130d5d7d 131dad00 130dfd2f  ......]}......./
 80000380 b7bd6fbb 938dfdb7 939dbd00 938dbd5d  ..o............]
 80000390 939dbd00 938dad3e 939dad00 938dfd37  .......>.......7
 800003a0 37deb7dd 130efe5b 131ebe00 130ede6e  7......[.......n
 800003b0 131ebe00 130e5e5f 131eae00 130efe1b  ......^_........
 800003c0 b7fedbee 938efead 939ebe00 938e6e77  ..............nw
 800003d0 939ebe00 938eae6f 939eae00 938efe2d  .......o.......-
 800003e0 37ff6df7 130fff56 131fbf00 130fbf7b  7.m....V.......{
 800003f0 131fbf00 130fdf37 131faf00 130fff16  .......7........
 80000400 b70fb7fb 938f7fab 939fbf00 938fdf7d  ...............}
 80000410 939fbf00 938fef5b 939faf00 938f7f2b  .......[.......+
 80000420 17320000 130282be 13000000 13000000  .2..............
 80000430 13000000 13000000 13000000 13000000  ................
 80000440 1301f0ff 1311f103 1301f0ff 1311f103  ................
 80000450 b3562100 2330d200 1b07f0ff 1317f703  .V!.#0..........
 80000460 6304d700 6ff01fbc 130f1000 131f5f02  c...o........._.
 80000470 930a9000 b35a5f01 23345201 37070010  .....Z_.#4R.7...
 80000480 63045701 6ff01fba 930e1000 939e2e02  c.W.o...........
 80000490 93cefeff 930e1000 939e2e02 93cefeff  ................
 800004a0 b3dede01 2338d201 13071000 6304d701  ....#8......c...
 800004b0 6ff05fb7 130c1000 131cdc00 93040000  o._.............
 800004c0 33519c00 233c2200 37270000 63042700  3Q..#<".7'..c.'.
 800004d0 6ff05fb5 130e8000 130b8000 335e6e01  o._.........3^n.
 800004e0 2330c203 13070000 6304c701 6ff09fb3  #0......c...o...
 800004f0 930d0000 1304f003 33dc8d00 23348203  ........3...#4..
 80000500 13070000 63048701 6ff0dfb1 9309f0ff  ....c...o.......
 80000510 93d91900 130c9000 b3dd8901 2338b203  ............#8..
 80000520 1b071000 13176703 1307f7ff 6304b701  ......g.....c...
 80000530 6ff05faf 93061000 93005001 b3d31600  o._.......P.....
 80000540 233c7202 13070000 63047700 6ff09fad  #<r.....c.w.o...
 80000550 93082000 93025000 33da5800 23304205  .. ...P.3.X.#0B.
 80000560 13070000 63044701 6ff0dfab 93074000  ....c.G.o.....@.
 80000570 9309c000 33d63701 2334c204 13070000  ....3.7.#4......
 80000580 6304c700 6ff01faa 13000000 9305b003  c...o...........
 80000590 3353b000 23386204 13070000 63046700  3S..#8b.....c.g.
 800005a0 6ff05fa8 93030002 930d4000 33ddb301  o._.......@.3...
 800005b0 233ca205 13072000 6304a701 6ff09fa6  #<.... .c...o...
 800005c0 13080004 130ad003 b3514801 23303206  .........QH.#02.
 800005d0 13070000 63043700 6ff0dfa4 93040008  ....c.7.o.......
 800005e0 1305e000 b3dca400 23349207 13070000  ........#4......
 800005f0 63049701 6ff01fa3 13040010 930f1000  c...o...........
 80000600 335bf401 23386207 13070008 63046701  3[..#8b.....c.g.
 80000610 6ff05fa1 130d0020 930cf003 33509d01  o._.... ....3P..
 80000620 233c0206 130c0000 63040c00 6ff09f9f  #<......c...o...
 80000630 13070040 9306f001 b35fd700 2330f209  ...@....._..#0..
 80000640 130c0000 6304fc01 6ff0df9d 13000000  ....c...o.......
 80000650 13000000 13000000 13000000 13000000  ................
 80000660 17310000 130101a3 13000000 13000000  .1..............
 80000670 13000000 13000000 13000000 13000000  ................
 80000680 13031000 1313b300 13082001 b3570301  .......... ..W..
 80000690 2330f100 130c0000 6304fc00 6ff09f98  #0......c...o...
 800006a0 13061000 1316c600 13000000 33570600  ............3W..
 800006b0 2334e100 371c0000 6304ec00 6ff09f96  #4..7...c...o...
 800006c0 13091000 1319e900 130ff002 3352e901  ............3R..
 800006d0 23384100 130c0000 63044c00 6ff09f94  #8A.....c.L.o...
 800006e0 93051000 9395f500 1309f003 33d42501  ............3.%.
 800006f0 233c8100 130c0000 63048c00 6ff09f92  #<......c...o...
 80000700 930c1000 939c0c01 930b3000 b3d27c01  ..........0...|.
 80000710 23305102 372c0000 63045c00 6ff09f90  #0Q.7,..c.\.o...
 80000720 93011000 93911101 13073000 b3d9e100  ..........0.....
 80000730 23343103 374c0000 63043c01 6ff09f8e  #41.7L..c.<.o...
 80000740 130b1000 131b2b01 130db003 b354ab01  ......+......T..
 80000750 23389102 130c0000 63049c00 6ff09f8c  #8......c...o...
 80000760 93021000 93923201 13032001 33df6200  ......2... .3.b.
 80000770 233ce103 130c2000 6304ec01 6ff09f8a  #<.... .c...o...
 80000780 930b1000 939b4b01 93011001 33d83b00  ......K.....3.;.
 80000790 23300105 130c8000 63040c01 6ff09f88  #0......c...o...
 800007a0 93001000 93905001 93075001 b3dbf000  ......P...P.....
 800007b0 23347105 130c1000 63047c01 6ff09f86  #4q.....c.|.o...
 800007c0 13051000 13156501 9303f000 b3557500  ......e......Uu.
 800007d0 2338b104 130c0008 6304bc00 6ff09f84  #8......c...o...
 800007e0 930f1000 939f7f01 130e9000 33d5cf01  ............3...
 800007f0 233ca104 374c0000 6304ac00 6ff09f82  #<..7L..c...o...
 80000800 930a1000 939a8a01 13023000 b3d84a00  ..........0...J.
 80000810 23301107 370c2000 63041c01 6ff09f80  #0..7. .c...o...
 80000820 130a1000 131a9a01 93084000 b3501a01  ..........@..P..
 80000830 23341106 370c2000 63041c00 6ff08ffe  #4..7. .c...o...
 80000840 13021000 1312a201 13069000 3359c200  ............3Y..
 80000850 23382107 b7000200 63842001 6ff08ffc  #8!.....c. .o...
 80000860 13051000 1315b501 93052001 3356b500  .......... .3V..
 80000870 233cc106 93000020 6384c000 6ff08ffa  #<..... c...o...
 80000880 13051000 1315c501 9305a002 3356b500  ............3V..
 80000890 2330c108 93000000 6384c000 6ff08ff8  #0......c...o...
 800008a0 13051000 1315d501 9305a002 3356b500  ............3V..
 800008b0 2334c108 93000000 6384c000 6ff08ff6  #4......c...o...
 800008c0 13051000 1315e501 9305e000 3356b500  ............3V..
 800008d0 2338c108 b7000100 6384c000 6ff08ff4  #8......c...o...
 800008e0 13051000 1315f501 9305c000 3356b500  ............3V..
 800008f0 233cc108 b7000800 6384c000 6ff08ff2  #<......c...o...
 80000900 13051000 13150502 9305f001 3356b500  ............3V..
 80000910 2330c10a 93002000 6384c000 6ff08ff0  #0.... .c...o...
 80000920 13051000 13151502 93055000 3356b500  ..........P.3V..
 80000930 2334c10a b7000010 6384c000 6ff08fee  #4......c...o...
 80000940 13051000 13152502 93051000 3356b500  ......%.....3V..
 80000950 2338c10a 9b001000 93901002 6384c000  #8..........c...
 80000960 6ff04fec 13051000 13153502 9305a002  o.O.......5.....
 80000970 3356b500 233cc10a 93000000 6384c000  3V..#<......c...
 80000980 6ff04fea 13051000 13154502 9305f003  o.O.......E.....
 80000990 3356b500 2330c10c 93000000 6384c000  3V..#0......c...
 800009a0 6ff04fe8 13051000 13156502 93052001  o.O.......e... .
 800009b0 3356b500 2334c10c b7001000 6384c000  3V..#4......c...
 800009c0 6ff04fe6 13051000 13157502 9305e000  o.O.......u.....
 800009d0 3356b500 2338c10c b7000002 6384c000  3V..#8......c...
 800009e0 6ff04fe4 13051000 13158502 9305f001  o.O.............
 800009f0 3356b500 233cc10c 93000020 6384c000  3V..#<..... c...
 80000a00 6ff04fe2 13051000 13159502 9305c000  o.O.............
 80000a10 3356b500 2330c10e b7000020 6384c000  3V..#0..... c...
 80000a20 6ff04fe0 13051000 1315a502 93054000  o.O...........@.
 80000a30 3356b500 2334c10e 9b001000 93906002  3V..#4........`.
 80000a40 6384c000 6ff00fde 13051000 1315b502  c...o...........
 80000a50 9305d000 3356b500 2338c10e b7000040  ....3V..#8.....@
 80000a60 6384c000 6ff00fdc 13051000 1315c502  c...o...........
 80000a70 9305c000 3356b500 233cc10e 9b001000  ....3V..#<......
 80000a80 93900002 6384c000 6ff0cfd9 13051000  ....c...o.......
 80000a90 1315d502 9305b003 3356b500 2330c110  ........3V..#0..
 80000aa0 93000000 6384c000 6ff0cfd7 13051000  ....c...o.......
 80000ab0 1315e502 93055000 3356b500 2334c110  ......P.3V..#4..
 80000ac0 9b001000 93909002 6384c000 6ff08fd5  ........c...o...
 80000ad0 13051000 1315f502 9305a002 3356b500  ............3V..
 80000ae0 2338c110 93000002 6384c000 6ff08fd3  #8......c...o...
 80000af0 13051000 13150503 93050000 3356b500  ............3V..
 80000b00 233cc110 9b001000 93900003 6384c000  #<..........c...
 80000b10 6ff04fd1 13051000 13151503 93056000  o.O...........`.
 80000b20 3356b500 2330c112 9b001000 9390b002  3V..#0..........
 80000b30 6384c000 6ff00fcf 13051000 13152503  c...o.........%.
 80000b40 9305f003 3356b500 2334c112 93000000  ....3V..#4......
 80000b50 6384c000 6ff00fcd 13051000 13153503  c...o.........5.
 80000b60 93053001 3356b500 2338c112 9b001000  ..0.3V..#8......
 80000b70 93900002 6384c000 6ff0cfca 13051000  ....c...o.......
 80000b80 13154503 93052000 3356b500 233cc112  ..E... .3V..#<..
 80000b90 9b001000 93902003 6384c000 6ff08fc8  ...... .c...o...
 80000ba0 13051000 13155503 9305e003 3356b500  ......U.....3V..
 80000bb0 2330c114 93000000 6384c000 6ff08fc6  #0......c...o...
 80000bc0 13051000 13156503 93050001 3356b500  ......e.....3V..
 80000bd0 2334c114 9b001000 93906002 6384c000  #4........`.c...
 80000be0 6ff04fc4 13051000 13157503 93050000  o.O.......u.....
 80000bf0 3356b500 2338c114 9b001000 93907003  3V..#8........p.
 80000c00 6384c000 6ff00fc2 13051000 13158503  c...o...........
 80000c10 93051001 3356b500 233cc114 9b001000  ....3V..#<......
 80000c20 93907002 6384c000 6ff0cfbf 13051000  ..p.c...o.......
 80000c30 13159503 9305c000 3356b500 2330c116  ........3V..#0..
 80000c40 9b001000 9390d002 6384c000 6ff08fbd  ........c...o...
 80000c50 13051000 1315a503 93053001 3356b500  ..........0.3V..
 80000c60 2334c116 9b001000 93907002 6384c000  #4........p.c...
 80000c70 6ff04fbb 13051000 1315b503 93050000  o.O.............
 80000c80 3356b500 2338c116 9b001000 9390b003  3V..#8..........
 80000c90 6384c000 6ff00fb9 13051000 1315c503  c...o...........
 80000ca0 9305d000 3356b500 233cc116 9b001000  ....3V..#<......
 80000cb0 9390f002 6384c000 6ff0cfb6 13051000  ....c...o.......
 80000cc0 1315d503 93055000 3356b500 2330c118  ......P.3V..#0..
 80000cd0 9b001000 93908003 6384c000 6ff08fb4  ........c...o...
 80000ce0 13051000 1315e503 9305e003 3356b500  ............3V..
 80000cf0 2334c118 93001000 6384c000 6ff08fb2  #4......c...o...
 80000d00 1305e0ff 9305f002 3356b500 2338c118  ........3V..#8..
 80000d10 b7000200 9b80f0ff 6384c000 6ff08fb0  ........c...o...
 80000d20 1305d0ff 93055000 3356b500 233cc118  ......P.3V..#<..
 80000d30 9b001000 9390b003 9380f0ff 6384c000  ............c...
 80000d40 6ff04fae 1305b0ff 93055001 3356b500  o.O.......P.3V..
 80000d50 2330c11a 9b001000 9390b002 9380f0ff  #0..............
 80000d60 6384c000 6ff00fac 130570ff 93056000  c...o.....p...`.
 80000d70 3356b500 2334c11a 9b001000 9390a003  3V..#4..........
 80000d80 9380f0ff 6384c000 6ff0cfa9 1305f0fe  ....c...o.......
 80000d90 93058000 3356b500 2338c11a 9b001000  ....3V..#8......
 80000da0 93908003 9380f0ff 6384c000 6ff08fa7  ........c...o...
 80000db0 1305f0fd 93055000 3356b500 233cc11a  ......P.3V..#<..
 80000dc0 9b001000 9390b003 9380e0ff 6384c000  ............c...
 80000dd0 6ff04fa5 1305f0fb 93057003 3356b500  o.O.......p.3V..
 80000de0 2330c11c 9300f01f 6384c000 6ff08fa3  #0......c...o...
 80000df0 1305f0f7 93056000 3356b500 2334c11c  ......`.3V..#4..
 80000e00 9b001000 9390a003 9380d0ff 6384c000  ............c...
 80000e10 6ff04fa1 1305f0ef 93051000 3356b500  o.O.........3V..
 80000e20 2338c11c 9b00f0ff 9390f003 9380f0f7  #8..............
 80000e30 6384c000 6ff00f9f 1305f0df 93051000  c...o...........
 80000e40 3356b500 233cc11c 9b00f0ff 9390f003  3V..#<..........
 80000e50 9380f0ef 6384c000 6ff0cf9c 1305f0bf  ....c...o.......
 80000e60 93051001 3356b500 2330c11e 9b001000  ....3V..#0......
 80000e70 9390f002 9380f0ff 6384c000 6ff08f9a  ........c...o...
 80000e80 13051000 1315b500 1345f5ff 9305e000  .........E......
 80000e90 3356b500 2334c11e 9b001000 93902003  3V..#4........ .
 80000ea0 9380f0ff 6384c000 6ff0cf97 13051000  ....c...o.......
 80000eb0 1315c500 1345f5ff 93052001 3356b500  .....E.... .3V..
 80000ec0 2338c11e 9b001000 9390e002 9380f0ff  #8..............
 80000ed0 6384c000 6ff00f95 13051000 1315d500  c...o...........
 80000ee0 1345f5ff 9305d000 3356b500 233cc11e  .E......3V..#<..
 80000ef0 9b001000 93903003 9380e0ff 6384c000  ......0.....c...
 80000f00 6ff04f92 13051000 1315e500 1345f5ff  o.O..........E..
 80000f10 93056000 3356b500 2330c120 9b001000  ..`.3V..#0. ....
 80000f20 9390a003 9380f0ef 6384c000 6ff08f8f  ........c...o...
 80000f30 13051000 1315f500 1345f5ff 93059000  .........E......
 80000f40 3356b500 2334c120 9b001000 93907003  3V..#4. ......p.
 80000f50 9380f0fb 6384c000 6ff0cf8c 13051000  ....c...o.......
 80000f60 13150501 1345f5ff 93056000 3356b500  .....E....`.3V..
 80000f70 2338c120 9b001000 9390a003 9380f0bf  #8. ............
 80000f80 6384c000 6ff00f8a 13051000 13151501  c...o...........
 80000f90 1345f5ff 93057003 3356b500 233cc120  .E....p.3V..#<. 
 80000fa0 9300f01f 6384c000 6ff0cf87 13051000  ....c...o.......
 80000fb0 13152501 1345f5ff 9305f000 3356b500  ..%..E......3V..
 80000fc0 2330c122 9b001000 93901003 938070ff  #0."..........p.
 80000fd0 6384c000 6ff00f85 13051000 13153501  c...o.........5.
 80000fe0 1345f5ff 93051000 3356b500 2334c122  .E......3V..#4."
 80000ff0 9b001000 9390d002 9380f0ff 93902001  .............. .
 80001000 9380f0ff 6384c000 6ff0cf81 13051000  ....c...o.......
 80001010 13154501 1345f5ff 93059000 3356b500  ..E..E......3V..
 80001020 2338c122 9b001000 9390b002 9380f0ff  #8."............
 80001030 9390c000 9380f07f 6384c000 6fe09ffe  ........c...o...
 80001040 13051000 13157503 1345f5ff 93052000  ......u..E.... .
 80001050 3356b500 233cc122 9b00f01f 93905003  3V..#<."......P.
 80001060 9380f0ff 6384c000 6fe0dffb 13051000  ....c...o.......
 80001070 13158503 1345f5ff 9305f000 3356b500  .....E......3V..
 80001080 2330c124 9b00f00f 93909002 9380f0ff  #0.$............
 80001090 6384c000 6fe01ff9 13051000 13159503  c...o...........
 800010a0 1345f5ff 93058000 3356b500 2334c124  .E......3V..#4.$
 800010b0 9b00f007 93901003 9380f0ff 6384c000  ............c...
 800010c0 6fe05ff6 13051000 1315a503 1345f5ff  o._..........E..
 800010d0 93055000 3356b500 2338c124 9b00f003  ..P.3V..#8.$....
 800010e0 93905003 9380f0ff 6384c000 6fe09ff3  ..P.....c...o...
 800010f0 13051000 1315b503 1345f5ff 9305f002  .........E......
 80001100 3356b500 233cc124 b7f00100 9b80f0ff  3V..#<.$........
 80001110 6384c000 6fe01ff1 13051000 1315c503  c...o...........
 80001120 1345f5ff 93058000 3356b500 2330c126  .E......3V..#0.&
 80001130 9b00f000 93904003 9380f0ff 6384c000  ......@.....c...
 80001140 6fe05fee 13051000 1315d503 1345f5ff  o._..........E..
 80001150 9305f000 3356b500 2334c126 9b007000  ....3V..#4.&..p.
 80001160 9390e002 9380f0ff 6384c000 6fe09feb  ........c...o...
 80001170 13051000 1315e503 1345f5ff 9305f001  .........E......
 80001180 3356b500 2338c126 9b003000 9390f001  3V..#8.&..0.....
 80001190 9380f0ff 6384c000 6fe0dfe8 37555555  ....c...o...7UUU
 800011a0 13055555 1315b500 1305a52a 1315b500  ..UU.......*....
 800011b0 13055555 1315a500 13055515 93056000  ..UU......U...`.
 800011c0 3356b500 233cc126 b7501500 9b805055  3V..#<.&.P....PU
 800011d0 9390c000 93805055 9390c000 93805055  ......PU......PU
 800011e0 9390c000 93805055 6384c000 6fe09fe3  ......PUc...o...
 800011f0 37b5aaaa 1305a5aa 1315b500 13055555  7.............UU
 80001200 1315b500 1305a52a 1315a500 1305a52a  .......*.......*
 80001210 9305e000 3356b500 2330c128 b7b0aa02  ....3V..#0.(....
 80001220 9b80b0aa 9390c000 9380b0aa 9390c000  ................
 80001230 9380a0aa 6384c000 6fe0dfde 13053000  ....c...o.....0.
 80001240 93051001 3356b500 2334c128 93000000  ....3V..#4.(....
 80001250 6384c000 6fe01fdd 13055000 9305e003  c...o.....P.....
 80001260 3356b500 2338c128 93000000 6384c000  3V..#8.(....c...
 80001270 6fe05fdb 37353333 13053533 1315b500  o._.7533..53....
 80001280 13059519 1315b500 1305c54c 1315a500  ...........L....
 80001290 13053533 93050002 3356b500 233cc128  ..53....3V..#<.(
 800012a0 b7303333 9b803033 6384c000 6fe09fd7  .033..03c...o...
 800012b0 37656666 13056566 1315b500 13053533  7eff..ef......53
 800012c0 1315b500 13059519 1315a500 13056526  ..............e&
 800012d0 93055000 3356b500 2330c12a b7303300  ..P.3V..#0.*.03.
 800012e0 9b803033 9390c000 93803033 9390c000  ..03......03....
 800012f0 93803033 9390c000 93803033 6384c000  ..03......03c...
 80001300 6fe05fd2 37050000 1305f5ff 1315b500  o._.7...........
 80001310 13057525 1315b500 1305356c 1315a500  ..u%......5l....
 80001320 1305d50c 9305c000 3356b500 2334c12a  ........3V..#4.*
 80001330 9b001000 93908002 9380b0f4 9390c000  ................
 80001340 938000fb 6384c000 6fe0dfcd 37050000  ....c...o...7...
 80001350 13050500 1315b500 1305855a 1315b500  ...........Z....
 80001360 1305c513 1315a500 13053533 9305c000  ..........53....
 80001370 3356b500 2338c12a b7500b00 9b80f004  3V..#8.*.P......
 80001380 6384c000 6fe01fca 37555555 13055555  c...o...7UUU..UU
 80001390 1315b500 1305a52a 1315b500 13055555  .......*......UU
 800013a0 1315a500 13054515 9305e000 3356b500  ......E.....3V..
 800013b0 233cc12a b7505501 9b805055 9390c000  #<.*.PU...PU....
 800013c0 93805055 9390c000 93805055 6384c000  ..PU......PUc...
 800013d0 6fe05fc5 37353333 13053533 1315b500  o._.7533..53....
 800013e0 13059519 1315b500 1305c54c 1315a500  ...........L....
 800013f0 13052533 93050001 3356b500 2330c12c  ..%3....3V..#0.,
 80001400 b7303300 9b803033 9390c000 93803033  .03...03......03
 80001410 9390c000 93803033 6384c000 6fe09fc0  ......03c...o...
 80001420 37656666 13056566 1315b500 13053533  7eff..ef......53
 80001430 1315b500 13059519 1315a500 13055526  ..............U&
 80001440 9305f001 3356b500 2334c12c b7d00c00  ....3V..#4.,....
 80001450 9b80d0cc 9390c000 9380c0cc 6384c000  ............c...
 80001460 6fe05fbc 37050000 13050500 1315b500  o._.7...........
 80001470 1305855a 1315b500 1305c513 1315a500  ...Z............
 80001480 13052533 9305d000 3356b500 2338c12c  ..%3....3V..#8.,
 80001490 b7b00500 9b807082 6384c000 6fe09fb8  ......p.c...o...
 800014a0 37555555 13055555 1315b500 1305a52a  7UUU..UU.......*
 800014b0 1315b500 13055555 1315a500 13056515  ......UU......e.
 800014c0 93051000 3356b500 233cc12c b7b0aa02  ....3V..#<.,....
 800014d0 9b80b0aa 9390c000 9380b0aa 9390c000  ................
 800014e0 9380b0aa 9390c000 9380b0aa 6384c000  ............c...
 800014f0 6fe05fb3 37b5aaaa 1305a5aa 1315b500  o._.7...........
 80001500 13055555 1315b500 1305a52a 1315a500  ..UU.......*....
 80001510 1305b52a 93055000 3356b500 2330c12e  ...*..P.3V..#0..
 80001520 b7505500 9b805055 9390c000 93805055  .PU...PU......PU
 80001530 9390c000 93805055 9390c000 93805055  ......PU......PU
 80001540 6384c000 6fe01fae 13056000 9305e003  c...o.....`.....
 80001550 3356b500 2334c12e 93000000 6384c000  3V..#4......c...
 80001560 6fe05fac 37353333 13053533 1315b500  o._.7533..53....
 80001570 13059519 1315b500 1305c54c 1315a500  ...........L....
 80001580 13054533 93051000 3356b500 2338c12e  ..E3....3V..#8..
 80001590 b7d0cc00 9b80d0cc 9390c000 9380d0cc  ................
 800015a0 9390c000 9380d0cc 9390d000 9380a099  ................
 800015b0 6384c000 6fe01fa7 37656666 13056566  c...o...7eff..ef
 800015c0 1315b500 13053533 1315b500 13059519  ......53........
 800015d0 1315a500 13057526 9305a002 3356b500  ......u&....3V..
 800015e0 233cc12e b7a01900 9b809099 6384c000  #<..........c...
 800015f0 6fe05fa3 37050000 1305f5ff 1315b500  o._.7...........
 80001600 13057525 1315b500 1305356c 1315a500  ..u%......5l....
 80001610 1305e50c 93050001 3356b500 2330c130  ........3V..#0.0
 80001620 9b001000 93904002 938050ff 9390c000  ......@...P.....
 80001630 9380b0af 6384c000 6fe0df9e 37050000  ....c...o...7...
 80001640 13050500 1315b500 1305855a 1315b500  ...........Z....
 80001650 1305c513 1315a500 13054533 9305a002  ..........E3....
 80001660 3356b500 2334c130 93000000 6384c000  3V..#4.0....c...
 80001670 6fe05f9b 13051000 13155501 1345f5ff  o._.......U..E..
 80001680 9305b003 3356b500 2338c130 9300f001  ....3V..#8.0....
 80001690 6384c000 6fe01f99 13051000 13156501  c...o.........e.
 800016a0 1345f5ff 93052001 3356b500 233cc130  .E.... .3V..#<.0
 800016b0 9b001000 9390e002 9380f0fe 6384c000  ............c...
 800016c0 6fe05f96 13051000 13157501 1345f5ff  o._.......u..E..
 800016d0 93053000 3356b500 2330c132 9b001000  ..0.3V..#0.2....
 800016e0 93909002 9380f0ff 93904001 9380f0ff  ..........@.....
 800016f0 6384c000 6fe01f93 13051000 13158501  c...o...........
 80001700 1345f5ff 93055000 3356b500 2334c132  .E....P.3V..#4.2
 80001710 9b001000 93908002 9380f0ff 93903001  ..............0.
 80001720 9380f0ff 6384c000 6fe0df8f 13051000  ....c...o.......
 80001730 13159501 1345f5ff 9305f000 3356b500  .....E......3V..
 80001740 2338c132 9b001000 93901003 9380f0bf  #8.2............
 80001750 6384c000 6fe01f8d 13051000 1315a501  c...o...........
 80001760 1345f5ff 9305f001 3356b500 233cc132  .E......3V..#<.2
 80001770 9b001000 93901002 9380f0ff 6384c000  ............c...
 80001780 6fe05f8a 13051000 1315b501 1345f5ff  o._..........E..
 80001790 93052001 3356b500 2330c134 9b001000  .. .3V..#0.4....
 800017a0 9390e002 9380f0df 6384c000 6fe09f87  ........c...o...
 800017b0 13051000 1315c501 1345f5ff 9305a000  .........E......
 800017c0 3356b500 2334c134 9b001000 93904002  3V..#4.4......@.
 800017d0 9380f0ff 93902001 9380f0ff 6384c000  ...... .....c...
 800017e0 6fe05f84 13051000 1315d501 1345f5ff  o._..........E..
 800017f0 9305c000 3356b500 2338c134 9b001000  ....3V..#8.4....
 80001800 93903002 9380f0ff 93901001 9380f0ff  ..0.............
 80001810 6384c000 6fe01f81 13051000 1315e501  c...o...........
 80001820 1345f5ff 93050002 3356b500 233cc134  .E......3V..#<.4
 80001830 9b001000 93900002 9380f0ff 6384c000  ............c...
 80001840 6fe04ffe 13051000 1315f501 1345f5ff  o.O..........E..
 80001850 9305e003 3356b500 2330c136 93003000  ....3V..#0.6..0.
 80001860 6384c000 6fe00ffc 13051000 13150502  c...o...........
 80001870 1345f5ff 9305f002 3356b500 2334c136  .E......3V..#4.6
 80001880 b7000200 9b80f0ff 6384c000 6fe08ff9  ........c...o...
 80001890 13051000 13151502 1345f5ff 93057000  .........E....p.
 800018a0 3356b500 2338c136 b7000080 9b80f0ff  3V..#8.6........
 800018b0 9390a001 9380f0ff 6384c000 6fe08ff6  ........c...o...
 800018c0 13051000 13153502 1345f5ff 9305c000  ......5..E......
 800018d0 3356b500 233cc136 b7000020 9b80f0ff  3V..#<.6... ....
 800018e0 93907001 9380f0ff 6384c000 6fe08ff3  ..p.....c...o...
 800018f0 13051000 13154502 1345f5ff 93051000  ......E..E......
 80001900 3356b500 2330c138 b7000010 9b80f0ff  3V..#0.8........
 80001910 93903002 9380f0ff 6384c000 6fe08ff0  ..0.....c...o...
 80001920 13051000 13155502 1345f5ff 9305b000  ......U..E......
 80001930 3356b500 2334c138 b7000008 9b80f0ff  3V..#4.8........
 80001940 9390a001 9380f0ff 6384c000 6fe08fed  ........c...o...
 80001950 13051000 13156502 1345f5ff 93050002  ......e..E......
 80001960 3356b500 2338c138 9b001000 93900002  3V..#8.8........
 80001970 9380f0fb 6384c000 6fe0cfea 13051000  ....c...o.......
 80001980 13157502 1345f5ff 93055001 3356b500  ..u..E....P.3V..
 80001990 233cc138 b7000002 9b80f0ff 93902001  #<.8.......... .
 800019a0 9380f0ff 6384c000 6fe0cfe7 13051000  ....c...o.......
 800019b0 13158502 1345f5ff 9305b003 3356b500  .....E......3V..
 800019c0 2330c13a 9300f001 6384c000 6fe08fe5  #0.:....c...o...
 800019d0 13051000 13159502 1345f5ff 9305f002  .........E......
 800019e0 3356b500 2334c13a b7000200 9b80f0ff  3V..#4.:........
 800019f0 6384c000 6fe00fe3 13051000 1315a502  c...o...........
 80001a00 1345f5ff 9305c000 3356b500 2338c13a  .E......3V..#8.:
 80001a10 b7004000 9b80f0ff 9390e001 9380f0ff  ..@.............
 80001a20 6384c000 6fe00fe0 13051000 1315b502  c...o...........
 80001a30 1345f5ff 9305d000 3356b500 233cc13a  .E......3V..#<.:
 80001a40 b7002000 9b80f0ff 9390e001 9380f0ff  .. .............
 80001a50 6384c000 6fe00fdd 13051000 1315c502  c...o...........
 80001a60 1345f5ff 93057000 3356b500 2330c13c  .E....p.3V..#0.<
 80001a70 b7001000 9b80f0ff 93905002 9380f0ff  ..........P.....
 80001a80 6384c000 6fe00fda 13051000 1315d502  c...o...........
 80001a90 1345f5ff 9305f003 3356b500 2334c13c  .E......3V..#4.<
 80001aa0 93001000 6384c000 6fe0cfd7 13051000  ....c...o.......
 80001ab0 1315e502 1345f5ff 93059000 3356b500  .....E......3V..
 80001ac0 2338c13c b7000400 9b80f0ff 93905002  #8.<..........P.
 80001ad0 9380f0ff 6384c000 6fe0cfd4 13051000  ....c...o.......
 80001ae0 1315f502 1345f5ff 93055000 3356b500  .....E....P.3V..
 80001af0 233cc13c b7000200 9b80f0ff 9390a002  #<.<............
 80001b00 9380f0ff 6384c000 6fe0cfd1 13051000  ....c...o.......
 80001b10 13150503 1345f5ff 93058000 3356b500  .....E......3V..
 80001b20 2330c13e b7000100 9b80f0ff 93908002  #0.>............
 80001b30 9380f0ff 6384c000 6fe0cfce 13051000  ....c...o.......
 80001b40 13151503 1345f5ff 9305b000 3356b500  .....E......3V..
 80001b50 2334c13e b7800000 9b80f0ff 93906002  #4.>..........`.
 80001b60 9380f0ff 6384c000 6fe0cfcb 13051000  ....c...o.......
 80001b70 13152503 1345f5ff 93054000 3356b500  ..%..E....@.3V..
 80001b80 2338c13e b7400000 9b80f0ff 9390e002  #8.>.@..........
 80001b90 9380f0ff 6384c000 6fe0cfc8 13051000  ....c...o.......
 80001ba0 13153503 1345f5ff 9305b003 3356b500  ..5..E......3V..
 80001bb0 233cc13e 9300f001 6384c000 6fe08fc6  #<.>....c...o...
 80001bc0 13051000 13154503 1345f5ff 93055000  ......E..E....P.
 80001bd0 3356b500 2330c140 b7100000 9b80f0ff  3V..#0.@........
 80001be0 9390f002 9380f0ff 6384c000 6fe08fc3  ........c...o...
 80001bf0 13051000 13155503 1345f5ff 93055001  ......U..E....P.
 80001c00 3356b500 2334c140 9b00f07f 93900002  3V..#4.@........
 80001c10 9380f0ff 6384c000 6fe0cfc0 13051000  ....c...o.......
 80001c20 13156503 1345f5ff 9305b003 3356b500  ..e..E......3V..
 80001c30 2338c140 9300f001 6384c000 6fe08fbe  #8.@....c...o...
 80001c40 1305f0ff 1315f503 9305f003 3356b500  ............3V..
 80001c50 233cc140 93001000 6384c000 6fe08fbc  #<.@....c...o...
 80001c60 13051000 13152502 1345f5ff 93050000  ......%..E......
 80001c70 3356b500 2330c142 9b00f0ff 93902002  3V..#0.B...... .
 80001c80 9380f0ff 6384c000 6fe0cfb9 13050001  ....c...o.......
 80001c90 9305b003 3356b500 2334c142 93000000  ....3V..#4.B....
 80001ca0 6384c000 6fe00fb8 13050020 9305f003  c...o...... ....
 80001cb0 3356b500 2338c142 93000000 6384c000  3V..#8.B....c...
 80001cc0 6fe04fb6 13051000 1315c500 9305f001  o.O.............
 80001cd0 3356b500 233cc142 93000000 6384c000  3V..#<.B....c...
 80001ce0 6fe04fb4 6f008003 8334811f 03330120  o.O.o....4...3. 
 80001cf0 33039300 37030000 13030300 1313b300  3...7...........
 80001d00 1303635d 1313b300 13036343 1313a300  ..c]......cC....
 80001d10 1303032d 23be64fe 6f004000 13050000  ...-#.d.o.@.....
 80001d20 6f004001 00000000 00000000 00000000  o.@.............
 80001d30 00000000 13050500 73001000 6f000000  ........s...o...
 80001d40 130101ff 17050000 1305c501 23341100  ............#4..
 80001d50 efe00fac 13050500 73001000 6f000000  ........s...o...
 80001d60 00000000 00000000 00000000 00000000  ................
 80001d70 00000000 00000000 00000000 00000000  ................
 80001d80 00000000 00000000 00000000 00000000  ................
 80001d90 00000000 00000000 00000000 00000000  ................
 80001da0 00000000 00000000 00000000 00000000  ................
 80001db0 00000000 00000000 00000000 00000000  ................
 80001dc0 00000000 00000000 00000000 00000000  ................
 80001dd0 00000000 00000000 00000000 00000000  ................
 80001de0 00000000 00000000 00000000 00000000  ................
 80001df0 00000000 00000000 00000000 00000000  ................
 80001e00 00000000 00000000 00000000 00000000  ................
 80001e10 00000000 00000000 00000000 00000000  ................
 80001e20 00000000 00000000 00000000 00000000  ................
 80001e30 00000000 00000000 00000000 00000000  ................
 80001e40 00000000 00000000 00000000 00000000  ................
 80001e50 00000000 00000000 00000000 00000000  ................
 80001e60 00000000 00000000 00000000 00000000  ................
 80001e70 00000000 00000000 00000000 00000000  ................
 80001e80 00000000 00000000 00000000 00000000  ................
 80001e90 00000000 00000000 00000000 00000000  ................
 80001ea0 00000000 00000000 00000000 00000000  ................
 80001eb0 00000000 00000000 00000000 00000000  ................
 80001ec0 00000000 00000000 00000000 00000000  ................
 80001ed0 00000000 00000000 00000000 00000000  ................
 80001ee0 00000000 00000000 00000000 00000000  ................
 80001ef0 00000000 00000000 00000000 00000000  ................
 80001f00 00000000 00000000 00000000 00000000  ................
 80001f10 00000000 00000000 00000000 00000000  ................
 80001f20 00000000 00000000 00000000 00000000  ................
 80001f30 00000000 00000000 00000000 00000000  ................
 80001f40 00000000 00000000 00000000 00000000  ................
 80001f50 00000000 00000000 00000000 00000000  ................
 80001f60 00000000 00000000 00000000 00000000  ................
 80001f70 00000000 00000000 00000000 00000000  ................
 80001f80 00000000 00000000 00000000 00000000  ................
 80001f90 00000000 00000000 00000000 00000000  ................
 80001fa0 00000000 00000000 00000000 00000000  ................
 80001fb0 00000000 00000000 00000000 00000000  ................
 80001fc0 00000000 00000000 00000000 00000000  ................
 80001fd0 00000000 00000000 00000000 00000000  ................
 80001fe0 00000000 00000000 00000000 00000000  ................
 80001ff0 00000000 00000000 00000000 00000000  ................
 80002000 fecabeba fecabeba fecabeba fecabeba  ................
 80002010 efbeadde efbeadde 00000000 00000000  ................
 80002020 00000000 00000000 00000000 00000000  ................
 80002030 00000000 00000000 00000000 00000000  ................
 80002040 00000000 00000000 00000000 00000000  ................
 80002050 00000000 00000000 00000000 00000000  ................
 80002060 00000000 00000000 00000000 00000000  ................
 80002070 00000000 00000000 00000000 00000000  ................
 80002080 00000000 00000000 00000000 00000000  ................
 80002090 00000000 00000000 00000000 00000000  ................
 800020a0 00000000 00000000 00000000 00000000  ................
 800020b0 00000000 00000000 00000000 00000000  ................
 800020c0 00000000 00000000 00000000 00000000  ................
 800020d0 00000000 00000000 00000000 00000000  ................
 800020e0 00000000 00000000 00000000 00000000  ................
 800020f0 00000000 00000000 00000000 00000000  ................
 80002100 00000000 00000000 00000000 00000000  ................
 80002110 00000000 00000000 00000000 00000000  ................
 80002120 00000000 00000000 00000000 00000000  ................
 80002130 00000000 00000000 00000000 00000000  ................
 80002140 00000000 00000000 00000000 00000000  ................
 80002150 00000000 00000000 00000000 00000000  ................
 80002160 00000000 00000000 00000000 00000000  ................
 80002170 00000000 00000000 00000000 00000000  ................
 80002180 00000000 00000000 00000000 00000000  ................
 80002190 00000000 00000000 00000000 00000000  ................
 800021a0 00000000 00000000 00000000 00000000  ................
 800021b0 00000000 00000000 00000000 00000000  ................
 800021c0 00000000 00000000 00000000 00000000  ................
 800021d0 00000000 00000000 00000000 00000000  ................
 800021e0 00000000 00000000 00000000 00000000  ................
 800021f0 00000000 00000000 00000000 00000000  ................
 80002200 00000000 00000000 00000000 00000000  ................
 80002210 00000000 00000000 00000000 00000000  ................
 80002220 00000000 00000000 00000000 00000000  ................
 80002230 00000000 00000000 00000000 00000000  ................
 80002240 00000000 00000000 00000000 00000000  ................
 80002250 00000000 00000000 00000000 00000000  ................
 80002260 00000000 00000000 00000000 00000000  ................
 80002270 00000000 00000000 00000000 00000000  ................
 80002280 00000000 00000000 00000000 00000000  ................
 80002290 00000000 00000000 00000000 00000000  ................
 800022a0 00000000 00000000 00000000 00000000  ................
 800022b0 00000000 00000000 00000000 00000000  ................
 800022c0 00000000 00000000 00000000 00000000  ................
 800022d0 00000000 00000000 00000000 00000000  ................
 800022e0 00000000 00000000 00000000 00000000  ................
 800022f0 00000000 00000000 00000000 00000000  ................
 80002300 00000000 00000000 00000000 00000000  ................
 80002310 00000000 00000000 00000000 00000000  ................
 80002320 00000000 00000000 00000000 00000000  ................
 80002330 00000000 00000000 00000000 00000000  ................
 80002340 00000000 00000000 00000000 00000000  ................
 80002350 00000000 00000000 00000000 00000000  ................
 80002360 00000000 00000000 00000000 00000000  ................
 80002370 00000000 00000000 00000000 00000000  ................
 80002380 00000000 00000000 00000000 00000000  ................
 80002390 00000000 00000000 00000000 00000000  ................
 800023a0 00000000 00000000 00000000 00000000  ................
 800023b0 00000000 00000000 00000000 00000000  ................
 800023c0 00000000 00000000 00000000 00000000  ................
 800023d0 00000000 00000000 00000000 00000000  ................
 800023e0 00000000 00000000 00000000 00000000  ................
 800023f0 00000000 00000000 00000000 00000000  ................
 80002400 00000000 00000000 00000000 00000000  ................
 80002410 00000000 00000000 00000000 00000000  ................
 80002420 00000000 00000000 00000000 00000000  ................
 80002430 00000000 00000000 00000000 00000000  ................
 80002440 00000000 00000000 00000000 00000000  ................
 80002450 00000000 00000000 00000000 00000000  ................
 80002460 00000000 00000000 00000000 00000000  ................
 80002470 00000000 00000000 00000000 00000000  ................
 80002480 00000000 00000000 00000000 00000000  ................
 80002490 00000000 00000000 00000000 00000000  ................
 800024a0 00000000 00000000 00000000 00000000  ................
 800024b0 00000000 00000000 00000000 00000000  ................
 800024c0 00000000 00000000 00000000 00000000  ................
 800024d0 00000000 00000000 00000000 00000000  ................
 800024e0 00000000 00000000 00000000 00000000  ................
 800024f0 00000000 00000000 00000000 00000000  ................
 80002500 00000000 00000000 00000000 00000000  ................
 80002510 00000000 00000000 00000000 00000000  ................
 80002520 00000000 00000000 00000000 00000000  ................
 80002530 00000000 00000000 00000000 00000000  ................
 80002540 00000000 00000000 00000000 00000000  ................
 80002550 00000000 00000000 00000000 00000000  ................
 80002560 00000000 00000000 00000000 00000000  ................
 80002570 00000000 00000000 00000000 00000000  ................
 80002580 00000000 00000000 00000000 00000000  ................
 80002590 00000000 00000000 00000000 00000000  ................
 800025a0 00000000 00000000 00000000 00000000  ................
 800025b0 00000000 00000000 00000000 00000000  ................
 800025c0 00000000 00000000 00000000 00000000  ................
 800025d0 00000000 00000000 00000000 00000000  ................
 800025e0 00000000 00000000 00000000 00000000  ................
 800025f0 00000000 00000000 00000000 00000000  ................
 80002600 00000000 00000000 00000000 00000000  ................
 80002610 00000000 00000000 00000000 00000000  ................
 80002620 00000000 00000000 00000000 00000000  ................
 80002630 00000000 00000000 00000000 00000000  ................
 80002640 00000000 00000000 00000000 00000000  ................
 80002650 00000000 00000000 00000000 00000000  ................
 80002660 00000000 00000000 00000000 00000000  ................
 80002670 00000000 00000000 00000000 00000000  ................
 80002680 00000000 00000000 00000000 00000000  ................
 80002690 00000000 00000000 00000000 00000000  ................
 800026a0 00000000 00000000 00000000 00000000  ................
 800026b0 00000000 00000000 00000000 00000000  ................
 800026c0 00000000 00000000 00000000 00000000  ................
 800026d0 00000000 00000000 00000000 00000000  ................
 800026e0 00000000 00000000 00000000 00000000  ................
 800026f0 00000000 00000000 00000000 00000000  ................
 80002700 00000000 00000000 00000000 00000000  ................
 80002710 00000000 00000000 00000000 00000000  ................
 80002720 00000000 00000000 00000000 00000000  ................
 80002730 00000000 00000000 00000000 00000000  ................
 80002740 00000000 00000000 00000000 00000000  ................
 80002750 00000000 00000000 00000000 00000000  ................
 80002760 00000000 00000000 00000000 00000000  ................
 80002770 00000000 00000000 00000000 00000000  ................
 80002780 00000000 00000000 00000000 00000000  ................
 80002790 00000000 00000000 00000000 00000000  ................
 800027a0 00000000 00000000 00000000 00000000  ................
 800027b0 00000000 00000000 00000000 00000000  ................
 800027c0 00000000 00000000 00000000 00000000  ................
 800027d0 00000000 00000000 00000000 00000000  ................
 800027e0 00000000 00000000 00000000 00000000  ................
 800027f0 00000000 00000000 00000000 00000000  ................
 80002800 00000000 00000000 00000000 00000000  ................
 80002810 00000000 00000000 00000000 00000000  ................
 80002820 00000000 00000000 00000000 00000000  ................
 80002830 00000000 00000000 00000000 00000000  ................
 80002840 00000000 00000000 00000000 00000000  ................
 80002850 00000000 00000000 00000000 00000000  ................
 80002860 00000000 00000000 00000000 00000000  ................
 80002870 00000000 00000000 00000000 00000000  ................
 80002880 00000000 00000000 00000000 00000000  ................
 80002890 00000000 00000000 00000000 00000000  ................
 800028a0 00000000 00000000 00000000 00000000  ................
 800028b0 00000000 00000000 00000000 00000000  ................
 800028c0 00000000 00000000 00000000 00000000  ................
 800028d0 00000000 00000000 00000000 00000000  ................
 800028e0 00000000 00000000 00000000 00000000  ................
 800028f0 00000000 00000000 00000000 00000000  ................
 80002900 00000000 00000000 00000000 00000000  ................
 80002910 00000000 00000000 00000000 00000000  ................
 80002920 00000000 00000000 00000000 00000000  ................
 80002930 00000000 00000000 00000000 00000000  ................
 80002940 00000000 00000000 00000000 00000000  ................
 80002950 00000000 00000000 00000000 00000000  ................
 80002960 00000000 00000000 00000000 00000000  ................
 80002970 00000000 00000000 00000000 00000000  ................
 80002980 00000000 00000000 00000000 00000000  ................
 80002990 00000000 00000000 00000000 00000000  ................
 800029a0 00000000 00000000 00000000 00000000  ................
 800029b0 00000000 00000000 00000000 00000000  ................
 800029c0 00000000 00000000 00000000 00000000  ................
 800029d0 00000000 00000000 00000000 00000000  ................
 800029e0 00000000 00000000 00000000 00000000  ................
 800029f0 00000000 00000000 00000000 00000000  ................
 80002a00 00000000 00000000 00000000 00000000  ................
 80002a10 00000000 00000000 00000000 00000000  ................
 80002a20 00000000 00000000 00000000 00000000  ................
 80002a30 00000000 00000000 00000000 00000000  ................
 80002a40 00000000 00000000 00000000 00000000  ................
 80002a50 00000000 00000000 00000000 00000000  ................
 80002a60 00000000 00000000 00000000 00000000  ................
 80002a70 00000000 00000000 00000000 00000000  ................
 80002a80 00000000 00000000 00000000 00000000  ................
 80002a90 00000000 00000000 00000000 00000000  ................
 80002aa0 00000000 00000000 00000000 00000000  ................
 80002ab0 00000000 00000000 00000000 00000000  ................
 80002ac0 00000000 00000000 00000000 00000000  ................
 80002ad0 00000000 00000000 00000000 00000000  ................
 80002ae0 00000000 00000000 00000000 00000000  ................
 80002af0 00000000 00000000 00000000 00000000  ................
 80002b00 00000000 00000000 00000000 00000000  ................
 80002b10 00000000 00000000 00000000 00000000  ................
 80002b20 00000000 00000000 00000000 00000000  ................
 80002b30 00000000 00000000 00000000 00000000  ................
 80002b40 00000000 00000000 00000000 00000000  ................
 80002b50 00000000 00000000 00000000 00000000  ................
 80002b60 00000000 00000000 00000000 00000000  ................
 80002b70 00000000 00000000 00000000 00000000  ................
 80002b80 00000000 00000000 00000000 00000000  ................
 80002b90 00000000 00000000 00000000 00000000  ................
 80002ba0 00000000 00000000 00000000 00000000  ................
 80002bb0 00000000 00000000 00000000 00000000  ................
 80002bc0 00000000 00000000 00000000 00000000  ................
 80002bd0 00000000 00000000 00000000 00000000  ................
 80002be0 00000000 00000000 00000000 00000000  ................
 80002bf0 00000000 00000000 00000000 00000000  ................
 80002c00 00000000 00000000 00000000 00000000  ................
 80002c10 00000000 00000000 00000000 00000000  ................
 80002c20 00000000 00000000 00000000 00000000  ................
 80002c30 00000000 00000000 00000000 00000000  ................
 80002c40 00000000 00000000 00000000 00000000  ................
 80002c50 00000000 00000000 00000000 00000000  ................
 80002c60 00000000 00000000 00000000 00000000  ................
 80002c70 00000000 00000000 00000000 00000000  ................
 80002c80 00000000 00000000 00000000 00000000  ................
 80002c90 00000000 00000000 00000000 00000000  ................
 80002ca0 00000000 00000000 00000000 00000000  ................
 80002cb0 00000000 00000000 00000000 00000000  ................
 80002cc0 00000000 00000000 00000000 00000000  ................
 80002cd0 00000000 00000000 00000000 00000000  ................
 80002ce0 00000000 00000000 00000000 00000000  ................
 80002cf0 00000000 00000000 00000000 00000000  ................
 80002d00 00000000 00000000 00000000 00000000  ................
 80002d10 00000000 00000000 00000000 00000000  ................
 80002d20 00000000 00000000 00000000 00000000  ................
 80002d30 00000000 00000000 00000000 00000000  ................
 80002d40 00000000 00000000 00000000 00000000  ................
 80002d50 00000000 00000000 00000000 00000000  ................
 80002d60 00000000 00000000 00000000 00000000  ................
 80002d70 00000000 00000000 00000000 00000000  ................
 80002d80 00000000 00000000 00000000 00000000  ................
 80002d90 00000000 00000000 00000000 00000000  ................
 80002da0 00000000 00000000 00000000 00000000  ................
 80002db0 00000000 00000000 00000000 00000000  ................
 80002dc0 00000000 00000000 00000000 00000000  ................
 80002dd0 00000000 00000000 00000000 00000000  ................
 80002de0 00000000 00000000 00000000 00000000  ................
 80002df0 00000000 00000000 00000000 00000000  ................
 80002e00 00000000 00000000 00000000 00000000  ................
 80002e10 00000000 00000000 00000000 00000000  ................
 80002e20 00000000 00000000 00000000 00000000  ................
 80002e30 00000000 00000000 00000000 00000000  ................
 80002e40 00000000 00000000 00000000 00000000  ................
 80002e50 00000000 00000000 00000000 00000000  ................
 80002e60 00000000 00000000 00000000 00000000  ................
 80002e70 00000000 00000000 00000000 00000000  ................
 80002e80 00000000 00000000 00000000 00000000  ................
 80002e90 00000000 00000000 00000000 00000000  ................
 80002ea0 00000000 00000000 00000000 00000000  ................
 80002eb0 00000000 00000000 00000000 00000000  ................
 80002ec0 00000000 00000000 00000000 00000000  ................
 80002ed0 00000000 00000000 00000000 00000000  ................
 80002ee0 00000000 00000000 00000000 00000000  ................
 80002ef0 00000000 00000000 00000000 00000000  ................
 80002f00 00000000 00000000 00000000 00000000  ................
 80002f10 00000000 00000000 00000000 00000000  ................
 80002f20 00000000 00000000 00000000 00000000  ................
 80002f30 00000000 00000000 00000000 00000000  ................
 80002f40 00000000 00000000 00000000 00000000  ................
 80002f50 00000000 00000000 00000000 00000000  ................
 80002f60 00000000 00000000 00000000 00000000  ................
 80002f70 00000000 00000000 00000000 00000000  ................
 80002f80 00000000 00000000 00000000 00000000  ................
 80002f90 00000000 00000000 00000000 00000000  ................
 80002fa0 00000000 00000000 00000000 00000000  ................
 80002fb0 00000000 00000000 00000000 00000000  ................
 80002fc0 00000000 00000000 00000000 00000000  ................
 80002fd0 00000000 00000000 00000000 00000000  ................
 80002fe0 00000000 00000000 00000000 00000000  ................
 80002ff0 00000000 00000000 00000000 00000000  ................
 80003000 81b2d4e7 09a35c6f efbeadde efbeadde  ......\o........
 80003010 efbeadde efbeadde efbeadde efbeadde  ................
 80003020 efbeadde efbeadde efbeadde efbeadde  ................
 80003030 efbeadde efbeadde efbeadde efbeadde  ................
 80003040 efbeadde efbeadde efbeadde efbeadde  ................
 80003050 efbeadde efbeadde efbeadde efbeadde  ................
 80003060 efbeadde efbeadde efbeadde efbeadde  ................
 80003070 efbeadde efbeadde efbeadde efbeadde  ................
 80003080 efbeadde efbeadde efbeadde efbeadde  ................
 80003090 efbeadde efbeadde efbeadde efbeadde  ................
 800030a0 efbeadde efbeadde efbeadde efbeadde  ................
 800030b0 efbeadde efbeadde efbeadde efbeadde  ................
 800030c0 efbeadde efbeadde efbeadde efbeadde  ................
 800030d0 efbeadde efbeadde efbeadde efbeadde  ................
 800030e0 efbeadde efbeadde efbeadde efbeadde  ................
 800030f0 efbeadde efbeadde efbeadde efbeadde  ................
 80003100 efbeadde efbeadde efbeadde efbeadde  ................
 80003110 efbeadde efbeadde efbeadde efbeadde  ................
 80003120 efbeadde efbeadde efbeadde efbeadde  ................
 80003130 efbeadde efbeadde efbeadde efbeadde  ................
 80003140 efbeadde efbeadde efbeadde efbeadde  ................
 80003150 efbeadde efbeadde efbeadde efbeadde  ................
 80003160 efbeadde efbeadde efbeadde efbeadde  ................
 80003170 efbeadde efbeadde efbeadde efbeadde  ................
 80003180 efbeadde efbeadde efbeadde efbeadde  ................
 80003190 efbeadde efbeadde efbeadde efbeadde  ................
 800031a0 efbeadde efbeadde efbeadde efbeadde  ................
 800031b0 efbeadde efbeadde efbeadde efbeadde  ................
 800031c0 efbeadde efbeadde efbeadde efbeadde  ................
 800031d0 efbeadde efbeadde efbeadde efbeadde  ................
 800031e0 efbeadde efbeadde efbeadde efbeadde  ................
 800031f0 efbeadde efbeadde efbeadde efbeadde  ................
 80003200 efbeadde efbeadde efbeadde efbeadde  ................
 80003210 efbeadde efbeadde efbeadde efbeadde  ................
 80003220 efbeadde efbeadde efbeadde efbeadde  ................
 80003230 efbeadde efbeadde efbeadde efbeadde  ................
 80003240 efbeadde efbeadde efbeadde efbeadde  ................
 80003250 efbeadde efbeadde efbeadde efbeadde  ................
 80003260 efbeadde efbeadde efbeadde efbeadde  ................
 80003270 efbeadde efbeadde efbeadde efbeadde  ................
 80003280 efbeadde efbeadde efbeadde efbeadde  ................
 80003290 efbeadde efbeadde efbeadde efbeadde  ................
 800032a0 efbeadde efbeadde efbeadde efbeadde  ................
 800032b0 efbeadde efbeadde efbeadde efbeadde  ................
 800032c0 efbeadde efbeadde efbeadde efbeadde  ................
 800032d0 efbeadde efbeadde efbeadde efbeadde  ................
 800032e0 efbeadde efbeadde efbeadde efbeadde  ................
 800032f0 efbeadde efbeadde efbeadde efbeadde  ................
 80003300 efbeadde efbeadde efbeadde efbeadde  ................
 80003310 efbeadde efbeadde efbeadde efbeadde  ................
 80003320 efbeadde efbeadde efbeadde efbeadde  ................
 80003330 efbeadde efbeadde efbeadde efbeadde  ................
 80003340 efbeadde efbeadde efbeadde efbeadde  ................
 80003350 efbeadde efbeadde efbeadde efbeadde  ................
 80003360 efbeadde efbeadde efbeadde efbeadde  ................
 80003370 efbeadde efbeadde efbeadde efbeadde  ................
 80003380 efbeadde efbeadde efbeadde efbeadde  ................
 80003390 efbeadde efbeadde efbeadde efbeadde  ................
 800033a0 efbeadde efbeadde efbeadde efbeadde  ................
 800033b0 efbeadde efbeadde efbeadde efbeadde  ................
 800033c0 efbeadde efbeadde efbeadde efbeadde  ................
 800033d0 efbeadde efbeadde efbeadde efbeadde  ................
 800033e0 efbeadde efbeadde efbeadde efbeadde  ................
 800033f0 efbeadde efbeadde efbeadde efbeadde  ................
 80003400 efbeadde efbeadde efbeadde efbeadde  ................
 80003410 efbeadde efbeadde efbeadde efbeadde  ................
 80003420 efbeadde efbeadde efbeadde efbeadde  ................
 80003430 efbeadde efbeadde efbeadde efbeadde  ................
 80003440 efbeadde efbeadde efbeadde efbeadde  ................
 80003450 efbeadde efbeadde efbeadde efbeadde  ................
 80003460 efbeadde efbeadde efbeadde efbeadde  ................
 80003470 efbeadde efbeadde efbeadde efbeadde  ................
 80003480 efbeadde efbeadde efbeadde efbeadde  ................
 80003490 efbeadde efbeadde efbeadde efbeadde  ................
 800034a0 efbeadde efbeadde efbeadde efbeadde  ................
 800034b0 efbeadde efbeadde efbeadde efbeadde  ................
 800034c0 efbeadde efbeadde efbeadde efbeadde  ................
 800034d0 81b2d4e7 09a35c6f 00000000 00000000  ......\o........

Disassembly of section .data:

0000000080000000 <.data>:
    80000000:	00000413          	addi	x8,x0,0
    80000004:	0000c117          	auipc	x2,0xc
    80000008:	ffc10113          	addi	x2,x2,-4 # 0x8000c000
    8000000c:	535010ef          	jal	x1,0x80001d40
    80000010:	030000ef          	jal	x1,0x80000040
    80000014:	00100513          	addi	x10,x0,1
    80000018:	51d010ef          	jal	x1,0x80001d34
    8000001c:	00000513          	addi	x10,x0,0
    80000020:	00008067          	jalr	x0,0(x1)
    80000024:	00100513          	addi	x10,x0,1
    80000028:	50d010ef          	jal	x1,0x80001d34
    8000002c:	00008067          	jalr	x0,0(x1)
	...
    80000040:	feedc0b7          	lui	x1,0xfeedc
    80000044:	ead08093          	addi	x1,x1,-339 # 0xfffffffffeedbead
    80000048:	00b09093          	slli	x1,x1,0xb
    8000004c:	7f708093          	addi	x1,x1,2039
    80000050:	00b09093          	slli	x1,x1,0xb
    80000054:	36f08093          	addi	x1,x1,879
    80000058:	00a09093          	slli	x1,x1,0xa
    8000005c:	2ad08093          	addi	x1,x1,685
    80000060:	ff76e137          	lui	x2,0xff76e
    80000064:	f5610113          	addi	x2,x2,-170 # 0xffffffffff76df56
    80000068:	00b11113          	slli	x2,x2,0xb
    8000006c:	7fb10113          	addi	x2,x2,2043
    80000070:	00b11113          	slli	x2,x2,0xb
    80000074:	5b710113          	addi	x2,x2,1463
    80000078:	00a11113          	slli	x2,x2,0xa
    8000007c:	35610113          	addi	x2,x2,854
    80000080:	7fbb71b7          	lui	x3,0x7fbb7
    80000084:	fab18193          	addi	x3,x3,-85 # 0x7fbb6fab
    80000088:	00b19193          	slli	x3,x3,0xb
    8000008c:	3fd18193          	addi	x3,x3,1021
    80000090:	00b19193          	slli	x3,x3,0xb
    80000094:	6db18193          	addi	x3,x3,1755
    80000098:	00a19193          	slli	x3,x3,0xa
    8000009c:	3ab18193          	addi	x3,x3,939
    800000a0:	bfddb237          	lui	x4,0xbfddb
    800000a4:	7d520213          	addi	x4,x4,2005 # 0xffffffffbfddb7d5
    800000a8:	00b21213          	slli	x4,x4,0xb
    800000ac:	5fe20213          	addi	x4,x4,1534 # 0x5fe
    800000b0:	00b21213          	slli	x4,x4,0xb
    800000b4:	76d20213          	addi	x4,x4,1901 # 0x76d
    800000b8:	00a21213          	slli	x4,x4,0xa
    800000bc:	3d520213          	addi	x4,x4,981 # 0x3d5
    800000c0:	dfeee2b7          	lui	x5,0xdfeee
    800000c4:	bea28293          	addi	x5,x5,-1046 # 0xffffffffdfeedbea
    800000c8:	00b29293          	slli	x5,x5,0xb
    800000cc:	6ff28293          	addi	x5,x5,1791
    800000d0:	00b29293          	slli	x5,x5,0xb
    800000d4:	3b628293          	addi	x5,x5,950
    800000d8:	00a29293          	slli	x5,x5,0xa
    800000dc:	3ea28293          	addi	x5,x5,1002
    800000e0:	6ff77337          	lui	x6,0x6ff77
    800000e4:	df530313          	addi	x6,x6,-523 # 0x6ff76df5
    800000e8:	00b31313          	slli	x6,x6,0xb
    800000ec:	37f30313          	addi	x6,x6,895
    800000f0:	00b31313          	slli	x6,x6,0xb
    800000f4:	5db30313          	addi	x6,x6,1499
    800000f8:	00a31313          	slli	x6,x6,0xa
    800000fc:	1f530313          	addi	x6,x6,501
    80000100:	b7fbb3b7          	lui	x7,0xb7fbb
    80000104:	6fa38393          	addi	x7,x7,1786 # 0xffffffffb7fbb6fa
    80000108:	00b39393          	slli	x7,x7,0xb
    8000010c:	5bf38393          	addi	x7,x7,1471
    80000110:	00b39393          	slli	x7,x7,0xb
    80000114:	6ed38393          	addi	x7,x7,1773
    80000118:	00a39393          	slli	x7,x7,0xa
    8000011c:	2fa38393          	addi	x7,x7,762
    80000120:	5bfde437          	lui	x8,0x5bfde
    80000124:	b7d40413          	addi	x8,x8,-1155 # 0x5bfddb7d
    80000128:	00b41413          	slli	x8,x8,0xb
    8000012c:	2df40413          	addi	x8,x8,735
    80000130:	00b41413          	slli	x8,x8,0xb
    80000134:	77640413          	addi	x8,x8,1910
    80000138:	00a41413          	slli	x8,x8,0xa
    8000013c:	37d40413          	addi	x8,x8,893
    80000140:	adfef4b7          	lui	x9,0xadfef
    80000144:	dbe48493          	addi	x9,x9,-578 # 0xffffffffadfeedbe
    80000148:	00b49493          	slli	x9,x9,0xb
    8000014c:	56f48493          	addi	x9,x9,1391
    80000150:	00b49493          	slli	x9,x9,0xb
    80000154:	7bb48493          	addi	x9,x9,1979
    80000158:	00a49493          	slli	x9,x9,0xa
    8000015c:	1be48493          	addi	x9,x9,446
    80000160:	56ff7537          	lui	x10,0x56ff7
    80000164:	6df50513          	addi	x10,x10,1759 # 0x56ff76df
    80000168:	00b51513          	slli	x10,x10,0xb
    8000016c:	2b750513          	addi	x10,x10,695
    80000170:	00b51513          	slli	x10,x10,0xb
    80000174:	7dd50513          	addi	x10,x10,2013
    80000178:	00a51513          	slli	x10,x10,0xa
    8000017c:	2df50513          	addi	x10,x10,735
    80000180:	ab7fc5b7          	lui	x11,0xab7fc
    80000184:	b6f58593          	addi	x11,x11,-1169 # 0xffffffffab7fbb6f
    80000188:	00b59593          	slli	x11,x11,0xb
    8000018c:	55b58593          	addi	x11,x11,1371
    80000190:	00b59593          	slli	x11,x11,0xb
    80000194:	7ee58593          	addi	x11,x11,2030
    80000198:	00a59593          	slli	x11,x11,0xa
    8000019c:	36f58593          	addi	x11,x11,879
    800001a0:	d5bfe637          	lui	x12,0xd5bfe
    800001a4:	db760613          	addi	x12,x12,-585 # 0xffffffffd5bfddb7
    800001a8:	00b61613          	slli	x12,x12,0xb
    800001ac:	6ad60613          	addi	x12,x12,1709
    800001b0:	00b61613          	slli	x12,x12,0xb
    800001b4:	7f760613          	addi	x12,x12,2039
    800001b8:	00a61613          	slli	x12,x12,0xa
    800001bc:	1b760613          	addi	x12,x12,439
    800001c0:	eadff6b7          	lui	x13,0xeadff
    800001c4:	edb68693          	addi	x13,x13,-293 # 0xffffffffeadfeedb
    800001c8:	00b69693          	slli	x13,x13,0xb
    800001cc:	75668693          	addi	x13,x13,1878
    800001d0:	00b69693          	slli	x13,x13,0xb
    800001d4:	7fb68693          	addi	x13,x13,2043
    800001d8:	00a69693          	slli	x13,x13,0xa
    800001dc:	2db68693          	addi	x13,x13,731
    800001e0:	f56ff737          	lui	x14,0xf56ff
    800001e4:	76d70713          	addi	x14,x14,1901 # 0xfffffffff56ff76d
    800001e8:	00b71713          	slli	x14,x14,0xb
    800001ec:	7ab70713          	addi	x14,x14,1963
    800001f0:	00b71713          	slli	x14,x14,0xb
    800001f4:	3fd70713          	addi	x14,x14,1021
    800001f8:	00a71713          	slli	x14,x14,0xa
    800001fc:	36d70713          	addi	x14,x14,877
    80000200:	fab807b7          	lui	x15,0xfab80
    80000204:	bb678793          	addi	x15,x15,-1098 # 0xfffffffffab7fbb6
    80000208:	00b79793          	slli	x15,x15,0xb
    8000020c:	7d578793          	addi	x15,x15,2005
    80000210:	00b79793          	slli	x15,x15,0xb
    80000214:	5fe78793          	addi	x15,x15,1534
    80000218:	00a79793          	slli	x15,x15,0xa
    8000021c:	3b678793          	addi	x15,x15,950
    80000220:	7d5c0837          	lui	x16,0x7d5c0
    80000224:	ddb80813          	addi	x16,x16,-549 # 0x7d5bfddb
    80000228:	00b81813          	slli	x16,x16,0xb
    8000022c:	3ea80813          	addi	x16,x16,1002
    80000230:	00b81813          	slli	x16,x16,0xb
    80000234:	6ff80813          	addi	x16,x16,1791
    80000238:	00a81813          	slli	x16,x16,0xa
    8000023c:	1db80813          	addi	x16,x16,475
    80000240:	beae08b7          	lui	x17,0xbeae0
    80000244:	eed88893          	addi	x17,x17,-275 # 0xffffffffbeadfeed
    80000248:	00b89893          	slli	x17,x17,0xb
    8000024c:	5f588893          	addi	x17,x17,1525
    80000250:	00b89893          	slli	x17,x17,0xb
    80000254:	37f88893          	addi	x17,x17,895
    80000258:	00a89893          	slli	x17,x17,0xa
    8000025c:	2ed88893          	addi	x17,x17,749
    80000260:	df570937          	lui	x18,0xdf570
    80000264:	f7690913          	addi	x18,x18,-138 # 0xffffffffdf56ff76
    80000268:	00b91913          	slli	x18,x18,0xb
    8000026c:	6fa90913          	addi	x18,x18,1786
    80000270:	00b91913          	slli	x18,x18,0xb
    80000274:	5bf90913          	addi	x18,x18,1471
    80000278:	00a91913          	slli	x18,x18,0xa
    8000027c:	37690913          	addi	x18,x18,886
    80000280:	6fab89b7          	lui	x19,0x6fab8
    80000284:	fbb98993          	addi	x19,x19,-69 # 0x6fab7fbb
    80000288:	00b99993          	slli	x19,x19,0xb
    8000028c:	37d98993          	addi	x19,x19,893
    80000290:	00b99993          	slli	x19,x19,0xb
    80000294:	2df98993          	addi	x19,x19,735
    80000298:	00a99993          	slli	x19,x19,0xa
    8000029c:	3bb98993          	addi	x19,x19,955
    800002a0:	b7d5ca37          	lui	x20,0xb7d5c
    800002a4:	fdda0a13          	addi	x20,x20,-35 # 0xffffffffb7d5bfdd
    800002a8:	00ba1a13          	slli	x20,x20,0xb
    800002ac:	5bea0a13          	addi	x20,x20,1470
    800002b0:	00ba1a13          	slli	x20,x20,0xb
    800002b4:	56fa0a13          	addi	x20,x20,1391
    800002b8:	00aa1a13          	slli	x20,x20,0xa
    800002bc:	3dda0a13          	addi	x20,x20,989
    800002c0:	dbeaeab7          	lui	x21,0xdbeae
    800002c4:	feea8a93          	addi	x21,x21,-18 # 0xffffffffdbeadfee
    800002c8:	00ba9a93          	slli	x21,x21,0xb
    800002cc:	6dfa8a93          	addi	x21,x21,1759
    800002d0:	00ba9a93          	slli	x21,x21,0xb
    800002d4:	2b7a8a93          	addi	x21,x21,695
    800002d8:	00aa9a93          	slli	x21,x21,0xa
    800002dc:	3eea8a93          	addi	x21,x21,1006
    800002e0:	6df57b37          	lui	x22,0x6df57
    800002e4:	ff7b0b13          	addi	x22,x22,-9 # 0x6df56ff7
    800002e8:	00bb1b13          	slli	x22,x22,0xb
    800002ec:	36fb0b13          	addi	x22,x22,879
    800002f0:	00bb1b13          	slli	x22,x22,0xb
    800002f4:	55bb0b13          	addi	x22,x22,1371
    800002f8:	00ab1b13          	slli	x22,x22,0xa
    800002fc:	3f7b0b13          	addi	x22,x22,1015
    80000300:	b6fabbb7          	lui	x23,0xb6fab
    80000304:	7fbb8b93          	addi	x23,x23,2043 # 0xffffffffb6fab7fb
    80000308:	00bb9b93          	slli	x23,x23,0xb
    8000030c:	5b7b8b93          	addi	x23,x23,1463
    80000310:	00bb9b93          	slli	x23,x23,0xb
    80000314:	6adb8b93          	addi	x23,x23,1709
    80000318:	00ab9b93          	slli	x23,x23,0xa
    8000031c:	3fbb8b93          	addi	x23,x23,1019
    80000320:	db7d6c37          	lui	x24,0xdb7d6
    80000324:	bfdc0c13          	addi	x24,x24,-1027 # 0xffffffffdb7d5bfd
    80000328:	00bc1c13          	slli	x24,x24,0xb
    8000032c:	6dbc0c13          	addi	x24,x24,1755
    80000330:	00bc1c13          	slli	x24,x24,0xb
    80000334:	756c0c13          	addi	x24,x24,1878
    80000338:	00ac1c13          	slli	x24,x24,0xa
    8000033c:	3fdc0c13          	addi	x24,x24,1021
    80000340:	edbebcb7          	lui	x25,0xedbeb
    80000344:	dfec8c93          	addi	x25,x25,-514 # 0xffffffffedbeadfe
    80000348:	00bc9c93          	slli	x25,x25,0xb
    8000034c:	76dc8c93          	addi	x25,x25,1901
    80000350:	00bc9c93          	slli	x25,x25,0xb
    80000354:	7abc8c93          	addi	x25,x25,1963
    80000358:	00ac9c93          	slli	x25,x25,0xa
    8000035c:	1fec8c93          	addi	x25,x25,510
    80000360:	76df5d37          	lui	x26,0x76df5
    80000364:	6ffd0d13          	addi	x26,x26,1791 # 0x76df56ff
    80000368:	00bd1d13          	slli	x26,x26,0xb
    8000036c:	3b6d0d13          	addi	x26,x26,950
    80000370:	00bd1d13          	slli	x26,x26,0xb
    80000374:	7d5d0d13          	addi	x26,x26,2005
    80000378:	00ad1d13          	slli	x26,x26,0xa
    8000037c:	2ffd0d13          	addi	x26,x26,767
    80000380:	bb6fbdb7          	lui	x27,0xbb6fb
    80000384:	b7fd8d93          	addi	x27,x27,-1153 # 0xffffffffbb6fab7f
    80000388:	00bd9d93          	slli	x27,x27,0xb
    8000038c:	5dbd8d93          	addi	x27,x27,1499
    80000390:	00bd9d93          	slli	x27,x27,0xb
    80000394:	3ead8d93          	addi	x27,x27,1002
    80000398:	00ad9d93          	slli	x27,x27,0xa
    8000039c:	37fd8d93          	addi	x27,x27,895
    800003a0:	ddb7de37          	lui	x28,0xddb7d
    800003a4:	5bfe0e13          	addi	x28,x28,1471 # 0xffffffffddb7d5bf
    800003a8:	00be1e13          	slli	x28,x28,0xb
    800003ac:	6ede0e13          	addi	x28,x28,1773
    800003b0:	00be1e13          	slli	x28,x28,0xb
    800003b4:	5f5e0e13          	addi	x28,x28,1525
    800003b8:	00ae1e13          	slli	x28,x28,0xa
    800003bc:	1bfe0e13          	addi	x28,x28,447
    800003c0:	eedbfeb7          	lui	x29,0xeedbf
    800003c4:	adfe8e93          	addi	x29,x29,-1313 # 0xffffffffeedbeadf
    800003c8:	00be9e93          	slli	x29,x29,0xb
    800003cc:	776e8e93          	addi	x29,x29,1910
    800003d0:	00be9e93          	slli	x29,x29,0xb
    800003d4:	6fae8e93          	addi	x29,x29,1786
    800003d8:	00ae9e93          	slli	x29,x29,0xa
    800003dc:	2dfe8e93          	addi	x29,x29,735
    800003e0:	f76dff37          	lui	x30,0xf76df
    800003e4:	56ff0f13          	addi	x30,x30,1391 # 0xfffffffff76df56f
    800003e8:	00bf1f13          	slli	x30,x30,0xb
    800003ec:	7bbf0f13          	addi	x30,x30,1979
    800003f0:	00bf1f13          	slli	x30,x30,0xb
    800003f4:	37df0f13          	addi	x30,x30,893
    800003f8:	00af1f13          	slli	x30,x30,0xa
    800003fc:	16ff0f13          	addi	x30,x30,367
    80000400:	fbb70fb7          	lui	x31,0xfbb70
    80000404:	ab7f8f93          	addi	x31,x31,-1353 # 0xfffffffffbb6fab7
    80000408:	00bf9f93          	slli	x31,x31,0xb
    8000040c:	7ddf8f93          	addi	x31,x31,2013
    80000410:	00bf9f93          	slli	x31,x31,0xb
    80000414:	5bef8f93          	addi	x31,x31,1470
    80000418:	00af9f93          	slli	x31,x31,0xa
    8000041c:	2b7f8f93          	addi	x31,x31,695
    80000420:	00003217          	auipc	x4,0x3
    80000424:	be820213          	addi	x4,x4,-1048 # 0x80003008
    80000428:	00000013          	addi	x0,x0,0
    8000042c:	00000013          	addi	x0,x0,0
    80000430:	00000013          	addi	x0,x0,0
    80000434:	00000013          	addi	x0,x0,0
    80000438:	00000013          	addi	x0,x0,0
    8000043c:	00000013          	addi	x0,x0,0
    80000440:	fff00113          	addi	x2,x0,-1
    80000444:	03f11113          	slli	x2,x2,0x3f
    80000448:	fff00113          	addi	x2,x0,-1
    8000044c:	03f11113          	slli	x2,x2,0x3f
    80000450:	002156b3          	srl	x13,x2,x2
    80000454:	00d23023          	sd	x13,0(x4) # 0x0
    80000458:	fff0071b          	addiw	x14,x0,-1
    8000045c:	03f71713          	slli	x14,x14,0x3f
    80000460:	00d70463          	beq	x14,x13,0x80000468
    80000464:	bc1ff06f          	jal	x0,0x80000024
    80000468:	00100f13          	addi	x30,x0,1
    8000046c:	025f1f13          	slli	x30,x30,0x25
    80000470:	00900a93          	addi	x21,x0,9
    80000474:	015f5ab3          	srl	x21,x30,x21
    80000478:	01523423          	sd	x21,8(x4) # 0x8
    8000047c:	10000737          	lui	x14,0x10000
    80000480:	01570463          	beq	x14,x21,0x80000488
    80000484:	ba1ff06f          	jal	x0,0x80000024
    80000488:	00100e93          	addi	x29,x0,1
    8000048c:	022e9e93          	slli	x29,x29,0x22
    80000490:	fffece93          	xori	x29,x29,-1
    80000494:	00100e93          	addi	x29,x0,1
    80000498:	022e9e93          	slli	x29,x29,0x22
    8000049c:	fffece93          	xori	x29,x29,-1
    800004a0:	01dedeb3          	srl	x29,x29,x29
    800004a4:	01d23823          	sd	x29,16(x4) # 0x10
    800004a8:	00100713          	addi	x14,x0,1
    800004ac:	01d70463          	beq	x14,x29,0x800004b4
    800004b0:	b75ff06f          	jal	x0,0x80000024
    800004b4:	00100c13          	addi	x24,x0,1
    800004b8:	00dc1c13          	slli	x24,x24,0xd
    800004bc:	00000493          	addi	x9,x0,0
    800004c0:	009c5133          	srl	x2,x24,x9
    800004c4:	00223c23          	sd	x2,24(x4) # 0x18
    800004c8:	00002737          	lui	x14,0x2
    800004cc:	00270463          	beq	x14,x2,0x800004d4
    800004d0:	b55ff06f          	jal	x0,0x80000024
    800004d4:	00800e13          	addi	x28,x0,8
    800004d8:	00800b13          	addi	x22,x0,8
    800004dc:	016e5e33          	srl	x28,x28,x22
    800004e0:	03c23023          	sd	x28,32(x4) # 0x20
    800004e4:	00000713          	addi	x14,x0,0
    800004e8:	01c70463          	beq	x14,x28,0x800004f0
    800004ec:	b39ff06f          	jal	x0,0x80000024
    800004f0:	00000d93          	addi	x27,x0,0
    800004f4:	03f00413          	addi	x8,x0,63
    800004f8:	008ddc33          	srl	x24,x27,x8
    800004fc:	03823423          	sd	x24,40(x4) # 0x28
    80000500:	00000713          	addi	x14,x0,0
    80000504:	01870463          	beq	x14,x24,0x8000050c
    80000508:	b1dff06f          	jal	x0,0x80000024
    8000050c:	fff00993          	addi	x19,x0,-1
    80000510:	0019d993          	srli	x19,x19,0x1
    80000514:	00900c13          	addi	x24,x0,9
    80000518:	0189ddb3          	srl	x27,x19,x24
    8000051c:	03b23823          	sd	x27,48(x4) # 0x30
    80000520:	0010071b          	addiw	x14,x0,1
    80000524:	03671713          	slli	x14,x14,0x36
    80000528:	fff70713          	addi	x14,x14,-1 # 0x1fff
    8000052c:	01b70463          	beq	x14,x27,0x80000534
    80000530:	af5ff06f          	jal	x0,0x80000024
    80000534:	00100693          	addi	x13,x0,1
    80000538:	01500093          	addi	x1,x0,21
    8000053c:	0016d3b3          	srl	x7,x13,x1
    80000540:	02723c23          	sd	x7,56(x4) # 0x38
    80000544:	00000713          	addi	x14,x0,0
    80000548:	00770463          	beq	x14,x7,0x80000550
    8000054c:	ad9ff06f          	jal	x0,0x80000024
    80000550:	00200893          	addi	x17,x0,2
    80000554:	00500293          	addi	x5,x0,5
    80000558:	0058da33          	srl	x20,x17,x5
    8000055c:	05423023          	sd	x20,64(x4) # 0x40
    80000560:	00000713          	addi	x14,x0,0
    80000564:	01470463          	beq	x14,x20,0x8000056c
    80000568:	abdff06f          	jal	x0,0x80000024
    8000056c:	00400793          	addi	x15,x0,4
    80000570:	00c00993          	addi	x19,x0,12
    80000574:	0137d633          	srl	x12,x15,x19
    80000578:	04c23423          	sd	x12,72(x4) # 0x48
    8000057c:	00000713          	addi	x14,x0,0
    80000580:	00c70463          	beq	x14,x12,0x80000588
    80000584:	aa1ff06f          	jal	x0,0x80000024
    80000588:	00000013          	addi	x0,x0,0
    8000058c:	03b00593          	addi	x11,x0,59
    80000590:	00b05333          	srl	x6,x0,x11
    80000594:	04623823          	sd	x6,80(x4) # 0x50
    80000598:	00000713          	addi	x14,x0,0
    8000059c:	00670463          	beq	x14,x6,0x800005a4
    800005a0:	a85ff06f          	jal	x0,0x80000024
    800005a4:	02000393          	addi	x7,x0,32
    800005a8:	00400d93          	addi	x27,x0,4
    800005ac:	01b3dd33          	srl	x26,x7,x27
    800005b0:	05a23c23          	sd	x26,88(x4) # 0x58
    800005b4:	00200713          	addi	x14,x0,2
    800005b8:	01a70463          	beq	x14,x26,0x800005c0
    800005bc:	a69ff06f          	jal	x0,0x80000024
    800005c0:	04000813          	addi	x16,x0,64
    800005c4:	03d00a13          	addi	x20,x0,61
    800005c8:	014851b3          	srl	x3,x16,x20
    800005cc:	06323023          	sd	x3,96(x4) # 0x60
    800005d0:	00000713          	addi	x14,x0,0
    800005d4:	00370463          	beq	x14,x3,0x800005dc
    800005d8:	a4dff06f          	jal	x0,0x80000024
    800005dc:	08000493          	addi	x9,x0,128
    800005e0:	00e00513          	addi	x10,x0,14
    800005e4:	00a4dcb3          	srl	x25,x9,x10
    800005e8:	07923423          	sd	x25,104(x4) # 0x68
    800005ec:	00000713          	addi	x14,x0,0
    800005f0:	01970463          	beq	x14,x25,0x800005f8
    800005f4:	a31ff06f          	jal	x0,0x80000024
    800005f8:	10000413          	addi	x8,x0,256
    800005fc:	00100f93          	addi	x31,x0,1
    80000600:	01f45b33          	srl	x22,x8,x31
    80000604:	07623823          	sd	x22,112(x4) # 0x70
    80000608:	08000713          	addi	x14,x0,128
    8000060c:	01670463          	beq	x14,x22,0x80000614
    80000610:	a15ff06f          	jal	x0,0x80000024
    80000614:	20000d13          	addi	x26,x0,512
    80000618:	03f00c93          	addi	x25,x0,63
    8000061c:	019d5033          	srl	x0,x26,x25
    80000620:	06023c23          	sd	x0,120(x4) # 0x78
    80000624:	00000c13          	addi	x24,x0,0
    80000628:	000c0463          	beq	x24,x0,0x80000630
    8000062c:	9f9ff06f          	jal	x0,0x80000024
    80000630:	40000713          	addi	x14,x0,1024
    80000634:	01f00693          	addi	x13,x0,31
    80000638:	00d75fb3          	srl	x31,x14,x13
    8000063c:	09f23023          	sd	x31,128(x4) # 0x80
    80000640:	00000c13          	addi	x24,x0,0
    80000644:	01fc0463          	beq	x24,x31,0x8000064c
    80000648:	9ddff06f          	jal	x0,0x80000024
    8000064c:	00000013          	addi	x0,x0,0
    80000650:	00000013          	addi	x0,x0,0
    80000654:	00000013          	addi	x0,x0,0
    80000658:	00000013          	addi	x0,x0,0
    8000065c:	00000013          	addi	x0,x0,0
    80000660:	00003117          	auipc	x2,0x3
    80000664:	a3010113          	addi	x2,x2,-1488 # 0x80003090
    80000668:	00000013          	addi	x0,x0,0
    8000066c:	00000013          	addi	x0,x0,0
    80000670:	00000013          	addi	x0,x0,0
    80000674:	00000013          	addi	x0,x0,0
    80000678:	00000013          	addi	x0,x0,0
    8000067c:	00000013          	addi	x0,x0,0
    80000680:	00100313          	addi	x6,x0,1
    80000684:	00b31313          	slli	x6,x6,0xb
    80000688:	01200813          	addi	x16,x0,18
    8000068c:	010357b3          	srl	x15,x6,x16
    80000690:	00f13023          	sd	x15,0(x2)
    80000694:	00000c13          	addi	x24,x0,0
    80000698:	00fc0463          	beq	x24,x15,0x800006a0
    8000069c:	989ff06f          	jal	x0,0x80000024
    800006a0:	00100613          	addi	x12,x0,1
    800006a4:	00c61613          	slli	x12,x12,0xc
    800006a8:	00000013          	addi	x0,x0,0
    800006ac:	00065733          	srl	x14,x12,x0
    800006b0:	00e13423          	sd	x14,8(x2)
    800006b4:	00001c37          	lui	x24,0x1
    800006b8:	00ec0463          	beq	x24,x14,0x800006c0
    800006bc:	969ff06f          	jal	x0,0x80000024
    800006c0:	00100913          	addi	x18,x0,1
    800006c4:	00e91913          	slli	x18,x18,0xe
    800006c8:	02f00f13          	addi	x30,x0,47
    800006cc:	01e95233          	srl	x4,x18,x30
    800006d0:	00413823          	sd	x4,16(x2)
    800006d4:	00000c13          	addi	x24,x0,0
    800006d8:	004c0463          	beq	x24,x4,0x800006e0
    800006dc:	949ff06f          	jal	x0,0x80000024
    800006e0:	00100593          	addi	x11,x0,1
    800006e4:	00f59593          	slli	x11,x11,0xf
    800006e8:	03f00913          	addi	x18,x0,63
    800006ec:	0125d433          	srl	x8,x11,x18
    800006f0:	00813c23          	sd	x8,24(x2)
    800006f4:	00000c13          	addi	x24,x0,0
    800006f8:	008c0463          	beq	x24,x8,0x80000700
    800006fc:	929ff06f          	jal	x0,0x80000024
    80000700:	00100c93          	addi	x25,x0,1
    80000704:	010c9c93          	slli	x25,x25,0x10
    80000708:	00300b93          	addi	x23,x0,3
    8000070c:	017cd2b3          	srl	x5,x25,x23
    80000710:	02513023          	sd	x5,32(x2)
    80000714:	00002c37          	lui	x24,0x2
    80000718:	005c0463          	beq	x24,x5,0x80000720
    8000071c:	909ff06f          	jal	x0,0x80000024
    80000720:	00100193          	addi	x3,x0,1
    80000724:	01119193          	slli	x3,x3,0x11
    80000728:	00300713          	addi	x14,x0,3
    8000072c:	00e1d9b3          	srl	x19,x3,x14
    80000730:	03313423          	sd	x19,40(x2)
    80000734:	00004c37          	lui	x24,0x4
    80000738:	013c0463          	beq	x24,x19,0x80000740
    8000073c:	8e9ff06f          	jal	x0,0x80000024
    80000740:	00100b13          	addi	x22,x0,1
    80000744:	012b1b13          	slli	x22,x22,0x12
    80000748:	03b00d13          	addi	x26,x0,59
    8000074c:	01ab54b3          	srl	x9,x22,x26
    80000750:	02913823          	sd	x9,48(x2)
    80000754:	00000c13          	addi	x24,x0,0
    80000758:	009c0463          	beq	x24,x9,0x80000760
    8000075c:	8c9ff06f          	jal	x0,0x80000024
    80000760:	00100293          	addi	x5,x0,1
    80000764:	01329293          	slli	x5,x5,0x13
    80000768:	01200313          	addi	x6,x0,18
    8000076c:	0062df33          	srl	x30,x5,x6
    80000770:	03e13c23          	sd	x30,56(x2)
    80000774:	00200c13          	addi	x24,x0,2
    80000778:	01ec0463          	beq	x24,x30,0x80000780
    8000077c:	8a9ff06f          	jal	x0,0x80000024
    80000780:	00100b93          	addi	x23,x0,1
    80000784:	014b9b93          	slli	x23,x23,0x14
    80000788:	01100193          	addi	x3,x0,17
    8000078c:	003bd833          	srl	x16,x23,x3
    80000790:	05013023          	sd	x16,64(x2)
    80000794:	00800c13          	addi	x24,x0,8
    80000798:	010c0463          	beq	x24,x16,0x800007a0
    8000079c:	889ff06f          	jal	x0,0x80000024
    800007a0:	00100093          	addi	x1,x0,1
    800007a4:	01509093          	slli	x1,x1,0x15
    800007a8:	01500793          	addi	x15,x0,21
    800007ac:	00f0dbb3          	srl	x23,x1,x15
    800007b0:	05713423          	sd	x23,72(x2)
    800007b4:	00100c13          	addi	x24,x0,1
    800007b8:	017c0463          	beq	x24,x23,0x800007c0
    800007bc:	869ff06f          	jal	x0,0x80000024
    800007c0:	00100513          	addi	x10,x0,1
    800007c4:	01651513          	slli	x10,x10,0x16
    800007c8:	00f00393          	addi	x7,x0,15
    800007cc:	007555b3          	srl	x11,x10,x7
    800007d0:	04b13823          	sd	x11,80(x2)
    800007d4:	08000c13          	addi	x24,x0,128
    800007d8:	00bc0463          	beq	x24,x11,0x800007e0
    800007dc:	849ff06f          	jal	x0,0x80000024
    800007e0:	00100f93          	addi	x31,x0,1
    800007e4:	017f9f93          	slli	x31,x31,0x17
    800007e8:	00900e13          	addi	x28,x0,9
    800007ec:	01cfd533          	srl	x10,x31,x28
    800007f0:	04a13c23          	sd	x10,88(x2)
    800007f4:	00004c37          	lui	x24,0x4
    800007f8:	00ac0463          	beq	x24,x10,0x80000800
    800007fc:	829ff06f          	jal	x0,0x80000024
    80000800:	00100a93          	addi	x21,x0,1
    80000804:	018a9a93          	slli	x21,x21,0x18
    80000808:	00300213          	addi	x4,x0,3
    8000080c:	004ad8b3          	srl	x17,x21,x4
    80000810:	07113023          	sd	x17,96(x2)
    80000814:	00200c37          	lui	x24,0x200
    80000818:	011c0463          	beq	x24,x17,0x80000820
    8000081c:	809ff06f          	jal	x0,0x80000024
    80000820:	00100a13          	addi	x20,x0,1
    80000824:	019a1a13          	slli	x20,x20,0x19
    80000828:	00400893          	addi	x17,x0,4
    8000082c:	011a50b3          	srl	x1,x20,x17
    80000830:	06113423          	sd	x1,104(x2)
    80000834:	00200c37          	lui	x24,0x200
    80000838:	001c0463          	beq	x24,x1,0x80000840
    8000083c:	fe8ff06f          	jal	x0,0x80000024
    80000840:	00100213          	addi	x4,x0,1
    80000844:	01a21213          	slli	x4,x4,0x1a
    80000848:	00900613          	addi	x12,x0,9
    8000084c:	00c25933          	srl	x18,x4,x12
    80000850:	07213823          	sd	x18,112(x2)
    80000854:	000200b7          	lui	x1,0x20
    80000858:	01208463          	beq	x1,x18,0x80000860
    8000085c:	fc8ff06f          	jal	x0,0x80000024
    80000860:	00100513          	addi	x10,x0,1
    80000864:	01b51513          	slli	x10,x10,0x1b
    80000868:	01200593          	addi	x11,x0,18
    8000086c:	00b55633          	srl	x12,x10,x11
    80000870:	06c13c23          	sd	x12,120(x2)
    80000874:	20000093          	addi	x1,x0,512
    80000878:	00c08463          	beq	x1,x12,0x80000880
    8000087c:	fa8ff06f          	jal	x0,0x80000024
    80000880:	00100513          	addi	x10,x0,1
    80000884:	01c51513          	slli	x10,x10,0x1c
    80000888:	02a00593          	addi	x11,x0,42
    8000088c:	00b55633          	srl	x12,x10,x11
    80000890:	08c13023          	sd	x12,128(x2)
    80000894:	00000093          	addi	x1,x0,0
    80000898:	00c08463          	beq	x1,x12,0x800008a0
    8000089c:	f88ff06f          	jal	x0,0x80000024
    800008a0:	00100513          	addi	x10,x0,1
    800008a4:	01d51513          	slli	x10,x10,0x1d
    800008a8:	02a00593          	addi	x11,x0,42
    800008ac:	00b55633          	srl	x12,x10,x11
    800008b0:	08c13423          	sd	x12,136(x2)
    800008b4:	00000093          	addi	x1,x0,0
    800008b8:	00c08463          	beq	x1,x12,0x800008c0
    800008bc:	f68ff06f          	jal	x0,0x80000024
    800008c0:	00100513          	addi	x10,x0,1
    800008c4:	01e51513          	slli	x10,x10,0x1e
    800008c8:	00e00593          	addi	x11,x0,14
    800008cc:	00b55633          	srl	x12,x10,x11
    800008d0:	08c13823          	sd	x12,144(x2)
    800008d4:	000100b7          	lui	x1,0x10
    800008d8:	00c08463          	beq	x1,x12,0x800008e0
    800008dc:	f48ff06f          	jal	x0,0x80000024
    800008e0:	00100513          	addi	x10,x0,1
    800008e4:	01f51513          	slli	x10,x10,0x1f
    800008e8:	00c00593          	addi	x11,x0,12
    800008ec:	00b55633          	srl	x12,x10,x11
    800008f0:	08c13c23          	sd	x12,152(x2)
    800008f4:	000800b7          	lui	x1,0x80
    800008f8:	00c08463          	beq	x1,x12,0x80000900
    800008fc:	f28ff06f          	jal	x0,0x80000024
    80000900:	00100513          	addi	x10,x0,1
    80000904:	02051513          	slli	x10,x10,0x20
    80000908:	01f00593          	addi	x11,x0,31
    8000090c:	00b55633          	srl	x12,x10,x11
    80000910:	0ac13023          	sd	x12,160(x2)
    80000914:	00200093          	addi	x1,x0,2
    80000918:	00c08463          	beq	x1,x12,0x80000920
    8000091c:	f08ff06f          	jal	x0,0x80000024
    80000920:	00100513          	addi	x10,x0,1
    80000924:	02151513          	slli	x10,x10,0x21
    80000928:	00500593          	addi	x11,x0,5
    8000092c:	00b55633          	srl	x12,x10,x11
    80000930:	0ac13423          	sd	x12,168(x2)
    80000934:	100000b7          	lui	x1,0x10000
    80000938:	00c08463          	beq	x1,x12,0x80000940
    8000093c:	ee8ff06f          	jal	x0,0x80000024
    80000940:	00100513          	addi	x10,x0,1
    80000944:	02251513          	slli	x10,x10,0x22
    80000948:	00100593          	addi	x11,x0,1
    8000094c:	00b55633          	srl	x12,x10,x11
    80000950:	0ac13823          	sd	x12,176(x2)
    80000954:	0010009b          	addiw	x1,x0,1
    80000958:	02109093          	slli	x1,x1,0x21
    8000095c:	00c08463          	beq	x1,x12,0x80000964
    80000960:	ec4ff06f          	jal	x0,0x80000024
    80000964:	00100513          	addi	x10,x0,1
    80000968:	02351513          	slli	x10,x10,0x23
    8000096c:	02a00593          	addi	x11,x0,42
    80000970:	00b55633          	srl	x12,x10,x11
    80000974:	0ac13c23          	sd	x12,184(x2)
    80000978:	00000093          	addi	x1,x0,0
    8000097c:	00c08463          	beq	x1,x12,0x80000984
    80000980:	ea4ff06f          	jal	x0,0x80000024
    80000984:	00100513          	addi	x10,x0,1
    80000988:	02451513          	slli	x10,x10,0x24
    8000098c:	03f00593          	addi	x11,x0,63
    80000990:	00b55633          	srl	x12,x10,x11
    80000994:	0cc13023          	sd	x12,192(x2)
    80000998:	00000093          	addi	x1,x0,0
    8000099c:	00c08463          	beq	x1,x12,0x800009a4
    800009a0:	e84ff06f          	jal	x0,0x80000024
    800009a4:	00100513          	addi	x10,x0,1
    800009a8:	02651513          	slli	x10,x10,0x26
    800009ac:	01200593          	addi	x11,x0,18
    800009b0:	00b55633          	srl	x12,x10,x11
    800009b4:	0cc13423          	sd	x12,200(x2)
    800009b8:	001000b7          	lui	x1,0x100
    800009bc:	00c08463          	beq	x1,x12,0x800009c4
    800009c0:	e64ff06f          	jal	x0,0x80000024
    800009c4:	00100513          	addi	x10,x0,1
    800009c8:	02751513          	slli	x10,x10,0x27
    800009cc:	00e00593          	addi	x11,x0,14
    800009d0:	00b55633          	srl	x12,x10,x11
    800009d4:	0cc13823          	sd	x12,208(x2)
    800009d8:	020000b7          	lui	x1,0x2000
    800009dc:	00c08463          	beq	x1,x12,0x800009e4
    800009e0:	e44ff06f          	jal	x0,0x80000024
    800009e4:	00100513          	addi	x10,x0,1
    800009e8:	02851513          	slli	x10,x10,0x28
    800009ec:	01f00593          	addi	x11,x0,31
    800009f0:	00b55633          	srl	x12,x10,x11
    800009f4:	0cc13c23          	sd	x12,216(x2)
    800009f8:	20000093          	addi	x1,x0,512
    800009fc:	00c08463          	beq	x1,x12,0x80000a04
    80000a00:	e24ff06f          	jal	x0,0x80000024
    80000a04:	00100513          	addi	x10,x0,1
    80000a08:	02951513          	slli	x10,x10,0x29
    80000a0c:	00c00593          	addi	x11,x0,12
    80000a10:	00b55633          	srl	x12,x10,x11
    80000a14:	0ec13023          	sd	x12,224(x2)
    80000a18:	200000b7          	lui	x1,0x20000
    80000a1c:	00c08463          	beq	x1,x12,0x80000a24
    80000a20:	e04ff06f          	jal	x0,0x80000024
    80000a24:	00100513          	addi	x10,x0,1
    80000a28:	02a51513          	slli	x10,x10,0x2a
    80000a2c:	00400593          	addi	x11,x0,4
    80000a30:	00b55633          	srl	x12,x10,x11
    80000a34:	0ec13423          	sd	x12,232(x2)
    80000a38:	0010009b          	addiw	x1,x0,1
    80000a3c:	02609093          	slli	x1,x1,0x26
    80000a40:	00c08463          	beq	x1,x12,0x80000a48
    80000a44:	de0ff06f          	jal	x0,0x80000024
    80000a48:	00100513          	addi	x10,x0,1
    80000a4c:	02b51513          	slli	x10,x10,0x2b
    80000a50:	00d00593          	addi	x11,x0,13
    80000a54:	00b55633          	srl	x12,x10,x11
    80000a58:	0ec13823          	sd	x12,240(x2)
    80000a5c:	400000b7          	lui	x1,0x40000
    80000a60:	00c08463          	beq	x1,x12,0x80000a68
    80000a64:	dc0ff06f          	jal	x0,0x80000024
    80000a68:	00100513          	addi	x10,x0,1
    80000a6c:	02c51513          	slli	x10,x10,0x2c
    80000a70:	00c00593          	addi	x11,x0,12
    80000a74:	00b55633          	srl	x12,x10,x11
    80000a78:	0ec13c23          	sd	x12,248(x2)
    80000a7c:	0010009b          	addiw	x1,x0,1
    80000a80:	02009093          	slli	x1,x1,0x20
    80000a84:	00c08463          	beq	x1,x12,0x80000a8c
    80000a88:	d9cff06f          	jal	x0,0x80000024
    80000a8c:	00100513          	addi	x10,x0,1
    80000a90:	02d51513          	slli	x10,x10,0x2d
    80000a94:	03b00593          	addi	x11,x0,59
    80000a98:	00b55633          	srl	x12,x10,x11
    80000a9c:	10c13023          	sd	x12,256(x2)
    80000aa0:	00000093          	addi	x1,x0,0
    80000aa4:	00c08463          	beq	x1,x12,0x80000aac
    80000aa8:	d7cff06f          	jal	x0,0x80000024
    80000aac:	00100513          	addi	x10,x0,1
    80000ab0:	02e51513          	slli	x10,x10,0x2e
    80000ab4:	00500593          	addi	x11,x0,5
    80000ab8:	00b55633          	srl	x12,x10,x11
    80000abc:	10c13423          	sd	x12,264(x2)
    80000ac0:	0010009b          	addiw	x1,x0,1
    80000ac4:	02909093          	slli	x1,x1,0x29
    80000ac8:	00c08463          	beq	x1,x12,0x80000ad0
    80000acc:	d58ff06f          	jal	x0,0x80000024
    80000ad0:	00100513          	addi	x10,x0,1
    80000ad4:	02f51513          	slli	x10,x10,0x2f
    80000ad8:	02a00593          	addi	x11,x0,42
    80000adc:	00b55633          	srl	x12,x10,x11
    80000ae0:	10c13823          	sd	x12,272(x2)
    80000ae4:	02000093          	addi	x1,x0,32
    80000ae8:	00c08463          	beq	x1,x12,0x80000af0
    80000aec:	d38ff06f          	jal	x0,0x80000024
    80000af0:	00100513          	addi	x10,x0,1
    80000af4:	03051513          	slli	x10,x10,0x30
    80000af8:	00000593          	addi	x11,x0,0
    80000afc:	00b55633          	srl	x12,x10,x11
    80000b00:	10c13c23          	sd	x12,280(x2)
    80000b04:	0010009b          	addiw	x1,x0,1
    80000b08:	03009093          	slli	x1,x1,0x30
    80000b0c:	00c08463          	beq	x1,x12,0x80000b14
    80000b10:	d14ff06f          	jal	x0,0x80000024
    80000b14:	00100513          	addi	x10,x0,1
    80000b18:	03151513          	slli	x10,x10,0x31
    80000b1c:	00600593          	addi	x11,x0,6
    80000b20:	00b55633          	srl	x12,x10,x11
    80000b24:	12c13023          	sd	x12,288(x2)
    80000b28:	0010009b          	addiw	x1,x0,1
    80000b2c:	02b09093          	slli	x1,x1,0x2b
    80000b30:	00c08463          	beq	x1,x12,0x80000b38
    80000b34:	cf0ff06f          	jal	x0,0x80000024
    80000b38:	00100513          	addi	x10,x0,1
    80000b3c:	03251513          	slli	x10,x10,0x32
    80000b40:	03f00593          	addi	x11,x0,63
    80000b44:	00b55633          	srl	x12,x10,x11
    80000b48:	12c13423          	sd	x12,296(x2)
    80000b4c:	00000093          	addi	x1,x0,0
    80000b50:	00c08463          	beq	x1,x12,0x80000b58
    80000b54:	cd0ff06f          	jal	x0,0x80000024
    80000b58:	00100513          	addi	x10,x0,1
    80000b5c:	03351513          	slli	x10,x10,0x33
    80000b60:	01300593          	addi	x11,x0,19
    80000b64:	00b55633          	srl	x12,x10,x11
    80000b68:	12c13823          	sd	x12,304(x2)
    80000b6c:	0010009b          	addiw	x1,x0,1
    80000b70:	02009093          	slli	x1,x1,0x20
    80000b74:	00c08463          	beq	x1,x12,0x80000b7c
    80000b78:	cacff06f          	jal	x0,0x80000024
    80000b7c:	00100513          	addi	x10,x0,1
    80000b80:	03451513          	slli	x10,x10,0x34
    80000b84:	00200593          	addi	x11,x0,2
    80000b88:	00b55633          	srl	x12,x10,x11
    80000b8c:	12c13c23          	sd	x12,312(x2)
    80000b90:	0010009b          	addiw	x1,x0,1
    80000b94:	03209093          	slli	x1,x1,0x32
    80000b98:	00c08463          	beq	x1,x12,0x80000ba0
    80000b9c:	c88ff06f          	jal	x0,0x80000024
    80000ba0:	00100513          	addi	x10,x0,1
    80000ba4:	03551513          	slli	x10,x10,0x35
    80000ba8:	03e00593          	addi	x11,x0,62
    80000bac:	00b55633          	srl	x12,x10,x11
    80000bb0:	14c13023          	sd	x12,320(x2)
    80000bb4:	00000093          	addi	x1,x0,0
    80000bb8:	00c08463          	beq	x1,x12,0x80000bc0
    80000bbc:	c68ff06f          	jal	x0,0x80000024
    80000bc0:	00100513          	addi	x10,x0,1
    80000bc4:	03651513          	slli	x10,x10,0x36
    80000bc8:	01000593          	addi	x11,x0,16
    80000bcc:	00b55633          	srl	x12,x10,x11
    80000bd0:	14c13423          	sd	x12,328(x2)
    80000bd4:	0010009b          	addiw	x1,x0,1
    80000bd8:	02609093          	slli	x1,x1,0x26
    80000bdc:	00c08463          	beq	x1,x12,0x80000be4
    80000be0:	c44ff06f          	jal	x0,0x80000024
    80000be4:	00100513          	addi	x10,x0,1
    80000be8:	03751513          	slli	x10,x10,0x37
    80000bec:	00000593          	addi	x11,x0,0
    80000bf0:	00b55633          	srl	x12,x10,x11
    80000bf4:	14c13823          	sd	x12,336(x2)
    80000bf8:	0010009b          	addiw	x1,x0,1
    80000bfc:	03709093          	slli	x1,x1,0x37
    80000c00:	00c08463          	beq	x1,x12,0x80000c08
    80000c04:	c20ff06f          	jal	x0,0x80000024
    80000c08:	00100513          	addi	x10,x0,1
    80000c0c:	03851513          	slli	x10,x10,0x38
    80000c10:	01100593          	addi	x11,x0,17
    80000c14:	00b55633          	srl	x12,x10,x11
    80000c18:	14c13c23          	sd	x12,344(x2)
    80000c1c:	0010009b          	addiw	x1,x0,1
    80000c20:	02709093          	slli	x1,x1,0x27
    80000c24:	00c08463          	beq	x1,x12,0x80000c2c
    80000c28:	bfcff06f          	jal	x0,0x80000024
    80000c2c:	00100513          	addi	x10,x0,1
    80000c30:	03951513          	slli	x10,x10,0x39
    80000c34:	00c00593          	addi	x11,x0,12
    80000c38:	00b55633          	srl	x12,x10,x11
    80000c3c:	16c13023          	sd	x12,352(x2)
    80000c40:	0010009b          	addiw	x1,x0,1
    80000c44:	02d09093          	slli	x1,x1,0x2d
    80000c48:	00c08463          	beq	x1,x12,0x80000c50
    80000c4c:	bd8ff06f          	jal	x0,0x80000024
    80000c50:	00100513          	addi	x10,x0,1
    80000c54:	03a51513          	slli	x10,x10,0x3a
    80000c58:	01300593          	addi	x11,x0,19
    80000c5c:	00b55633          	srl	x12,x10,x11
    80000c60:	16c13423          	sd	x12,360(x2)
    80000c64:	0010009b          	addiw	x1,x0,1
    80000c68:	02709093          	slli	x1,x1,0x27
    80000c6c:	00c08463          	beq	x1,x12,0x80000c74
    80000c70:	bb4ff06f          	jal	x0,0x80000024
    80000c74:	00100513          	addi	x10,x0,1
    80000c78:	03b51513          	slli	x10,x10,0x3b
    80000c7c:	00000593          	addi	x11,x0,0
    80000c80:	00b55633          	srl	x12,x10,x11
    80000c84:	16c13823          	sd	x12,368(x2)
    80000c88:	0010009b          	addiw	x1,x0,1
    80000c8c:	03b09093          	slli	x1,x1,0x3b
    80000c90:	00c08463          	beq	x1,x12,0x80000c98
    80000c94:	b90ff06f          	jal	x0,0x80000024
    80000c98:	00100513          	addi	x10,x0,1
    80000c9c:	03c51513          	slli	x10,x10,0x3c
    80000ca0:	00d00593          	addi	x11,x0,13
    80000ca4:	00b55633          	srl	x12,x10,x11
    80000ca8:	16c13c23          	sd	x12,376(x2)
    80000cac:	0010009b          	addiw	x1,x0,1
    80000cb0:	02f09093          	slli	x1,x1,0x2f
    80000cb4:	00c08463          	beq	x1,x12,0x80000cbc
    80000cb8:	b6cff06f          	jal	x0,0x80000024
    80000cbc:	00100513          	addi	x10,x0,1
    80000cc0:	03d51513          	slli	x10,x10,0x3d
    80000cc4:	00500593          	addi	x11,x0,5
    80000cc8:	00b55633          	srl	x12,x10,x11
    80000ccc:	18c13023          	sd	x12,384(x2)
    80000cd0:	0010009b          	addiw	x1,x0,1
    80000cd4:	03809093          	slli	x1,x1,0x38
    80000cd8:	00c08463          	beq	x1,x12,0x80000ce0
    80000cdc:	b48ff06f          	jal	x0,0x80000024
    80000ce0:	00100513          	addi	x10,x0,1
    80000ce4:	03e51513          	slli	x10,x10,0x3e
    80000ce8:	03e00593          	addi	x11,x0,62
    80000cec:	00b55633          	srl	x12,x10,x11
    80000cf0:	18c13423          	sd	x12,392(x2)
    80000cf4:	00100093          	addi	x1,x0,1
    80000cf8:	00c08463          	beq	x1,x12,0x80000d00
    80000cfc:	b28ff06f          	jal	x0,0x80000024
    80000d00:	ffe00513          	addi	x10,x0,-2
    80000d04:	02f00593          	addi	x11,x0,47
    80000d08:	00b55633          	srl	x12,x10,x11
    80000d0c:	18c13823          	sd	x12,400(x2)
    80000d10:	000200b7          	lui	x1,0x20
    80000d14:	fff0809b          	addiw	x1,x1,-1 # 0x1ffff
    80000d18:	00c08463          	beq	x1,x12,0x80000d20
    80000d1c:	b08ff06f          	jal	x0,0x80000024
    80000d20:	ffd00513          	addi	x10,x0,-3
    80000d24:	00500593          	addi	x11,x0,5
    80000d28:	00b55633          	srl	x12,x10,x11
    80000d2c:	18c13c23          	sd	x12,408(x2)
    80000d30:	0010009b          	addiw	x1,x0,1
    80000d34:	03b09093          	slli	x1,x1,0x3b
    80000d38:	fff08093          	addi	x1,x1,-1
    80000d3c:	00c08463          	beq	x1,x12,0x80000d44
    80000d40:	ae4ff06f          	jal	x0,0x80000024
    80000d44:	ffb00513          	addi	x10,x0,-5
    80000d48:	01500593          	addi	x11,x0,21
    80000d4c:	00b55633          	srl	x12,x10,x11
    80000d50:	1ac13023          	sd	x12,416(x2)
    80000d54:	0010009b          	addiw	x1,x0,1
    80000d58:	02b09093          	slli	x1,x1,0x2b
    80000d5c:	fff08093          	addi	x1,x1,-1
    80000d60:	00c08463          	beq	x1,x12,0x80000d68
    80000d64:	ac0ff06f          	jal	x0,0x80000024
    80000d68:	ff700513          	addi	x10,x0,-9
    80000d6c:	00600593          	addi	x11,x0,6
    80000d70:	00b55633          	srl	x12,x10,x11
    80000d74:	1ac13423          	sd	x12,424(x2)
    80000d78:	0010009b          	addiw	x1,x0,1
    80000d7c:	03a09093          	slli	x1,x1,0x3a
    80000d80:	fff08093          	addi	x1,x1,-1
    80000d84:	00c08463          	beq	x1,x12,0x80000d8c
    80000d88:	a9cff06f          	jal	x0,0x80000024
    80000d8c:	fef00513          	addi	x10,x0,-17
    80000d90:	00800593          	addi	x11,x0,8
    80000d94:	00b55633          	srl	x12,x10,x11
    80000d98:	1ac13823          	sd	x12,432(x2)
    80000d9c:	0010009b          	addiw	x1,x0,1
    80000da0:	03809093          	slli	x1,x1,0x38
    80000da4:	fff08093          	addi	x1,x1,-1
    80000da8:	00c08463          	beq	x1,x12,0x80000db0
    80000dac:	a78ff06f          	jal	x0,0x80000024
    80000db0:	fdf00513          	addi	x10,x0,-33
    80000db4:	00500593          	addi	x11,x0,5
    80000db8:	00b55633          	srl	x12,x10,x11
    80000dbc:	1ac13c23          	sd	x12,440(x2)
    80000dc0:	0010009b          	addiw	x1,x0,1
    80000dc4:	03b09093          	slli	x1,x1,0x3b
    80000dc8:	ffe08093          	addi	x1,x1,-2
    80000dcc:	00c08463          	beq	x1,x12,0x80000dd4
    80000dd0:	a54ff06f          	jal	x0,0x80000024
    80000dd4:	fbf00513          	addi	x10,x0,-65
    80000dd8:	03700593          	addi	x11,x0,55
    80000ddc:	00b55633          	srl	x12,x10,x11
    80000de0:	1cc13023          	sd	x12,448(x2)
    80000de4:	1ff00093          	addi	x1,x0,511
    80000de8:	00c08463          	beq	x1,x12,0x80000df0
    80000dec:	a38ff06f          	jal	x0,0x80000024
    80000df0:	f7f00513          	addi	x10,x0,-129
    80000df4:	00600593          	addi	x11,x0,6
    80000df8:	00b55633          	srl	x12,x10,x11
    80000dfc:	1cc13423          	sd	x12,456(x2)
    80000e00:	0010009b          	addiw	x1,x0,1
    80000e04:	03a09093          	slli	x1,x1,0x3a
    80000e08:	ffd08093          	addi	x1,x1,-3
    80000e0c:	00c08463          	beq	x1,x12,0x80000e14
    80000e10:	a14ff06f          	jal	x0,0x80000024
    80000e14:	eff00513          	addi	x10,x0,-257
    80000e18:	00100593          	addi	x11,x0,1
    80000e1c:	00b55633          	srl	x12,x10,x11
    80000e20:	1cc13823          	sd	x12,464(x2)
    80000e24:	fff0009b          	addiw	x1,x0,-1
    80000e28:	03f09093          	slli	x1,x1,0x3f
    80000e2c:	f7f08093          	addi	x1,x1,-129
    80000e30:	00c08463          	beq	x1,x12,0x80000e38
    80000e34:	9f0ff06f          	jal	x0,0x80000024
    80000e38:	dff00513          	addi	x10,x0,-513
    80000e3c:	00100593          	addi	x11,x0,1
    80000e40:	00b55633          	srl	x12,x10,x11
    80000e44:	1cc13c23          	sd	x12,472(x2)
    80000e48:	fff0009b          	addiw	x1,x0,-1
    80000e4c:	03f09093          	slli	x1,x1,0x3f
    80000e50:	eff08093          	addi	x1,x1,-257
    80000e54:	00c08463          	beq	x1,x12,0x80000e5c
    80000e58:	9ccff06f          	jal	x0,0x80000024
    80000e5c:	bff00513          	addi	x10,x0,-1025
    80000e60:	01100593          	addi	x11,x0,17
    80000e64:	00b55633          	srl	x12,x10,x11
    80000e68:	1ec13023          	sd	x12,480(x2)
    80000e6c:	0010009b          	addiw	x1,x0,1
    80000e70:	02f09093          	slli	x1,x1,0x2f
    80000e74:	fff08093          	addi	x1,x1,-1
    80000e78:	00c08463          	beq	x1,x12,0x80000e80
    80000e7c:	9a8ff06f          	jal	x0,0x80000024
    80000e80:	00100513          	addi	x10,x0,1
    80000e84:	00b51513          	slli	x10,x10,0xb
    80000e88:	fff54513          	xori	x10,x10,-1
    80000e8c:	00e00593          	addi	x11,x0,14
    80000e90:	00b55633          	srl	x12,x10,x11
    80000e94:	1ec13423          	sd	x12,488(x2)
    80000e98:	0010009b          	addiw	x1,x0,1
    80000e9c:	03209093          	slli	x1,x1,0x32
    80000ea0:	fff08093          	addi	x1,x1,-1
    80000ea4:	00c08463          	beq	x1,x12,0x80000eac
    80000ea8:	97cff06f          	jal	x0,0x80000024
    80000eac:	00100513          	addi	x10,x0,1
    80000eb0:	00c51513          	slli	x10,x10,0xc
    80000eb4:	fff54513          	xori	x10,x10,-1
    80000eb8:	01200593          	addi	x11,x0,18
    80000ebc:	00b55633          	srl	x12,x10,x11
    80000ec0:	1ec13823          	sd	x12,496(x2)
    80000ec4:	0010009b          	addiw	x1,x0,1
    80000ec8:	02e09093          	slli	x1,x1,0x2e
    80000ecc:	fff08093          	addi	x1,x1,-1
    80000ed0:	00c08463          	beq	x1,x12,0x80000ed8
    80000ed4:	950ff06f          	jal	x0,0x80000024
    80000ed8:	00100513          	addi	x10,x0,1
    80000edc:	00d51513          	slli	x10,x10,0xd
    80000ee0:	fff54513          	xori	x10,x10,-1
    80000ee4:	00d00593          	addi	x11,x0,13
    80000ee8:	00b55633          	srl	x12,x10,x11
    80000eec:	1ec13c23          	sd	x12,504(x2)
    80000ef0:	0010009b          	addiw	x1,x0,1
    80000ef4:	03309093          	slli	x1,x1,0x33
    80000ef8:	ffe08093          	addi	x1,x1,-2
    80000efc:	00c08463          	beq	x1,x12,0x80000f04
    80000f00:	924ff06f          	jal	x0,0x80000024
    80000f04:	00100513          	addi	x10,x0,1
    80000f08:	00e51513          	slli	x10,x10,0xe
    80000f0c:	fff54513          	xori	x10,x10,-1
    80000f10:	00600593          	addi	x11,x0,6
    80000f14:	00b55633          	srl	x12,x10,x11
    80000f18:	20c13023          	sd	x12,512(x2)
    80000f1c:	0010009b          	addiw	x1,x0,1
    80000f20:	03a09093          	slli	x1,x1,0x3a
    80000f24:	eff08093          	addi	x1,x1,-257
    80000f28:	00c08463          	beq	x1,x12,0x80000f30
    80000f2c:	8f8ff06f          	jal	x0,0x80000024
    80000f30:	00100513          	addi	x10,x0,1
    80000f34:	00f51513          	slli	x10,x10,0xf
    80000f38:	fff54513          	xori	x10,x10,-1
    80000f3c:	00900593          	addi	x11,x0,9
    80000f40:	00b55633          	srl	x12,x10,x11
    80000f44:	20c13423          	sd	x12,520(x2)
    80000f48:	0010009b          	addiw	x1,x0,1
    80000f4c:	03709093          	slli	x1,x1,0x37
    80000f50:	fbf08093          	addi	x1,x1,-65
    80000f54:	00c08463          	beq	x1,x12,0x80000f5c
    80000f58:	8ccff06f          	jal	x0,0x80000024
    80000f5c:	00100513          	addi	x10,x0,1
    80000f60:	01051513          	slli	x10,x10,0x10
    80000f64:	fff54513          	xori	x10,x10,-1
    80000f68:	00600593          	addi	x11,x0,6
    80000f6c:	00b55633          	srl	x12,x10,x11
    80000f70:	20c13823          	sd	x12,528(x2)
    80000f74:	0010009b          	addiw	x1,x0,1
    80000f78:	03a09093          	slli	x1,x1,0x3a
    80000f7c:	bff08093          	addi	x1,x1,-1025
    80000f80:	00c08463          	beq	x1,x12,0x80000f88
    80000f84:	8a0ff06f          	jal	x0,0x80000024
    80000f88:	00100513          	addi	x10,x0,1
    80000f8c:	01151513          	slli	x10,x10,0x11
    80000f90:	fff54513          	xori	x10,x10,-1
    80000f94:	03700593          	addi	x11,x0,55
    80000f98:	00b55633          	srl	x12,x10,x11
    80000f9c:	20c13c23          	sd	x12,536(x2)
    80000fa0:	1ff00093          	addi	x1,x0,511
    80000fa4:	00c08463          	beq	x1,x12,0x80000fac
    80000fa8:	87cff06f          	jal	x0,0x80000024
    80000fac:	00100513          	addi	x10,x0,1
    80000fb0:	01251513          	slli	x10,x10,0x12
    80000fb4:	fff54513          	xori	x10,x10,-1
    80000fb8:	00f00593          	addi	x11,x0,15
    80000fbc:	00b55633          	srl	x12,x10,x11
    80000fc0:	22c13023          	sd	x12,544(x2)
    80000fc4:	0010009b          	addiw	x1,x0,1
    80000fc8:	03109093          	slli	x1,x1,0x31
    80000fcc:	ff708093          	addi	x1,x1,-9
    80000fd0:	00c08463          	beq	x1,x12,0x80000fd8
    80000fd4:	850ff06f          	jal	x0,0x80000024
    80000fd8:	00100513          	addi	x10,x0,1
    80000fdc:	01351513          	slli	x10,x10,0x13
    80000fe0:	fff54513          	xori	x10,x10,-1
    80000fe4:	00100593          	addi	x11,x0,1
    80000fe8:	00b55633          	srl	x12,x10,x11
    80000fec:	22c13423          	sd	x12,552(x2)
    80000ff0:	0010009b          	addiw	x1,x0,1
    80000ff4:	02d09093          	slli	x1,x1,0x2d
    80000ff8:	fff08093          	addi	x1,x1,-1
    80000ffc:	01209093          	slli	x1,x1,0x12
    80001000:	fff08093          	addi	x1,x1,-1
    80001004:	00c08463          	beq	x1,x12,0x8000100c
    80001008:	81cff06f          	jal	x0,0x80000024
    8000100c:	00100513          	addi	x10,x0,1
    80001010:	01451513          	slli	x10,x10,0x14
    80001014:	fff54513          	xori	x10,x10,-1
    80001018:	00900593          	addi	x11,x0,9
    8000101c:	00b55633          	srl	x12,x10,x11
    80001020:	22c13823          	sd	x12,560(x2)
    80001024:	0010009b          	addiw	x1,x0,1
    80001028:	02b09093          	slli	x1,x1,0x2b
    8000102c:	fff08093          	addi	x1,x1,-1
    80001030:	00c09093          	slli	x1,x1,0xc
    80001034:	7ff08093          	addi	x1,x1,2047
    80001038:	00c08463          	beq	x1,x12,0x80001040
    8000103c:	fe9fe06f          	jal	x0,0x80000024
    80001040:	00100513          	addi	x10,x0,1
    80001044:	03751513          	slli	x10,x10,0x37
    80001048:	fff54513          	xori	x10,x10,-1
    8000104c:	00200593          	addi	x11,x0,2
    80001050:	00b55633          	srl	x12,x10,x11
    80001054:	22c13c23          	sd	x12,568(x2)
    80001058:	1ff0009b          	addiw	x1,x0,511
    8000105c:	03509093          	slli	x1,x1,0x35
    80001060:	fff08093          	addi	x1,x1,-1
    80001064:	00c08463          	beq	x1,x12,0x8000106c
    80001068:	fbdfe06f          	jal	x0,0x80000024
    8000106c:	00100513          	addi	x10,x0,1
    80001070:	03851513          	slli	x10,x10,0x38
    80001074:	fff54513          	xori	x10,x10,-1
    80001078:	00f00593          	addi	x11,x0,15
    8000107c:	00b55633          	srl	x12,x10,x11
    80001080:	24c13023          	sd	x12,576(x2)
    80001084:	0ff0009b          	addiw	x1,x0,255
    80001088:	02909093          	slli	x1,x1,0x29
    8000108c:	fff08093          	addi	x1,x1,-1
    80001090:	00c08463          	beq	x1,x12,0x80001098
    80001094:	f91fe06f          	jal	x0,0x80000024
    80001098:	00100513          	addi	x10,x0,1
    8000109c:	03951513          	slli	x10,x10,0x39
    800010a0:	fff54513          	xori	x10,x10,-1
    800010a4:	00800593          	addi	x11,x0,8
    800010a8:	00b55633          	srl	x12,x10,x11
    800010ac:	24c13423          	sd	x12,584(x2)
    800010b0:	07f0009b          	addiw	x1,x0,127
    800010b4:	03109093          	slli	x1,x1,0x31
    800010b8:	fff08093          	addi	x1,x1,-1
    800010bc:	00c08463          	beq	x1,x12,0x800010c4
    800010c0:	f65fe06f          	jal	x0,0x80000024
    800010c4:	00100513          	addi	x10,x0,1
    800010c8:	03a51513          	slli	x10,x10,0x3a
    800010cc:	fff54513          	xori	x10,x10,-1
    800010d0:	00500593          	addi	x11,x0,5
    800010d4:	00b55633          	srl	x12,x10,x11
    800010d8:	24c13823          	sd	x12,592(x2)
    800010dc:	03f0009b          	addiw	x1,x0,63
    800010e0:	03509093          	slli	x1,x1,0x35
    800010e4:	fff08093          	addi	x1,x1,-1
    800010e8:	00c08463          	beq	x1,x12,0x800010f0
    800010ec:	f39fe06f          	jal	x0,0x80000024
    800010f0:	00100513          	addi	x10,x0,1
    800010f4:	03b51513          	slli	x10,x10,0x3b
    800010f8:	fff54513          	xori	x10,x10,-1
    800010fc:	02f00593          	addi	x11,x0,47
    80001100:	00b55633          	srl	x12,x10,x11
    80001104:	24c13c23          	sd	x12,600(x2)
    80001108:	0001f0b7          	lui	x1,0x1f
    8000110c:	fff0809b          	addiw	x1,x1,-1 # 0x1efff
    80001110:	00c08463          	beq	x1,x12,0x80001118
    80001114:	f11fe06f          	jal	x0,0x80000024
    80001118:	00100513          	addi	x10,x0,1
    8000111c:	03c51513          	slli	x10,x10,0x3c
    80001120:	fff54513          	xori	x10,x10,-1
    80001124:	00800593          	addi	x11,x0,8
    80001128:	00b55633          	srl	x12,x10,x11
    8000112c:	26c13023          	sd	x12,608(x2)
    80001130:	00f0009b          	addiw	x1,x0,15
    80001134:	03409093          	slli	x1,x1,0x34
    80001138:	fff08093          	addi	x1,x1,-1
    8000113c:	00c08463          	beq	x1,x12,0x80001144
    80001140:	ee5fe06f          	jal	x0,0x80000024
    80001144:	00100513          	addi	x10,x0,1
    80001148:	03d51513          	slli	x10,x10,0x3d
    8000114c:	fff54513          	xori	x10,x10,-1
    80001150:	00f00593          	addi	x11,x0,15
    80001154:	00b55633          	srl	x12,x10,x11
    80001158:	26c13423          	sd	x12,616(x2)
    8000115c:	0070009b          	addiw	x1,x0,7
    80001160:	02e09093          	slli	x1,x1,0x2e
    80001164:	fff08093          	addi	x1,x1,-1
    80001168:	00c08463          	beq	x1,x12,0x80001170
    8000116c:	eb9fe06f          	jal	x0,0x80000024
    80001170:	00100513          	addi	x10,x0,1
    80001174:	03e51513          	slli	x10,x10,0x3e
    80001178:	fff54513          	xori	x10,x10,-1
    8000117c:	01f00593          	addi	x11,x0,31
    80001180:	00b55633          	srl	x12,x10,x11
    80001184:	26c13823          	sd	x12,624(x2)
    80001188:	0030009b          	addiw	x1,x0,3
    8000118c:	01f09093          	slli	x1,x1,0x1f
    80001190:	fff08093          	addi	x1,x1,-1
    80001194:	00c08463          	beq	x1,x12,0x8000119c
    80001198:	e8dfe06f          	jal	x0,0x80000024
    8000119c:	55555537          	lui	x10,0x55555
    800011a0:	55550513          	addi	x10,x10,1365 # 0x55555555
    800011a4:	00b51513          	slli	x10,x10,0xb
    800011a8:	2aa50513          	addi	x10,x10,682
    800011ac:	00b51513          	slli	x10,x10,0xb
    800011b0:	55550513          	addi	x10,x10,1365
    800011b4:	00a51513          	slli	x10,x10,0xa
    800011b8:	15550513          	addi	x10,x10,341
    800011bc:	00600593          	addi	x11,x0,6
    800011c0:	00b55633          	srl	x12,x10,x11
    800011c4:	26c13c23          	sd	x12,632(x2)
    800011c8:	001550b7          	lui	x1,0x155
    800011cc:	5550809b          	addiw	x1,x1,1365 # 0x155555
    800011d0:	00c09093          	slli	x1,x1,0xc
    800011d4:	55508093          	addi	x1,x1,1365
    800011d8:	00c09093          	slli	x1,x1,0xc
    800011dc:	55508093          	addi	x1,x1,1365
    800011e0:	00c09093          	slli	x1,x1,0xc
    800011e4:	55508093          	addi	x1,x1,1365
    800011e8:	00c08463          	beq	x1,x12,0x800011f0
    800011ec:	e39fe06f          	jal	x0,0x80000024
    800011f0:	aaaab537          	lui	x10,0xaaaab
    800011f4:	aaa50513          	addi	x10,x10,-1366 # 0xffffffffaaaaaaaa
    800011f8:	00b51513          	slli	x10,x10,0xb
    800011fc:	55550513          	addi	x10,x10,1365
    80001200:	00b51513          	slli	x10,x10,0xb
    80001204:	2aa50513          	addi	x10,x10,682
    80001208:	00a51513          	slli	x10,x10,0xa
    8000120c:	2aa50513          	addi	x10,x10,682
    80001210:	00e00593          	addi	x11,x0,14
    80001214:	00b55633          	srl	x12,x10,x11
    80001218:	28c13023          	sd	x12,640(x2)
    8000121c:	02aab0b7          	lui	x1,0x2aab
    80001220:	aab0809b          	addiw	x1,x1,-1365 # 0x2aaaaab
    80001224:	00c09093          	slli	x1,x1,0xc
    80001228:	aab08093          	addi	x1,x1,-1365
    8000122c:	00c09093          	slli	x1,x1,0xc
    80001230:	aaa08093          	addi	x1,x1,-1366
    80001234:	00c08463          	beq	x1,x12,0x8000123c
    80001238:	dedfe06f          	jal	x0,0x80000024
    8000123c:	00300513          	addi	x10,x0,3
    80001240:	01100593          	addi	x11,x0,17
    80001244:	00b55633          	srl	x12,x10,x11
    80001248:	28c13423          	sd	x12,648(x2)
    8000124c:	00000093          	addi	x1,x0,0
    80001250:	00c08463          	beq	x1,x12,0x80001258
    80001254:	dd1fe06f          	jal	x0,0x80000024
    80001258:	00500513          	addi	x10,x0,5
    8000125c:	03e00593          	addi	x11,x0,62
    80001260:	00b55633          	srl	x12,x10,x11
    80001264:	28c13823          	sd	x12,656(x2)
    80001268:	00000093          	addi	x1,x0,0
    8000126c:	00c08463          	beq	x1,x12,0x80001274
    80001270:	db5fe06f          	jal	x0,0x80000024
    80001274:	33333537          	lui	x10,0x33333
    80001278:	33350513          	addi	x10,x10,819 # 0x33333333
    8000127c:	00b51513          	slli	x10,x10,0xb
    80001280:	19950513          	addi	x10,x10,409
    80001284:	00b51513          	slli	x10,x10,0xb
    80001288:	4cc50513          	addi	x10,x10,1228
    8000128c:	00a51513          	slli	x10,x10,0xa
    80001290:	33350513          	addi	x10,x10,819
    80001294:	02000593          	addi	x11,x0,32
    80001298:	00b55633          	srl	x12,x10,x11
    8000129c:	28c13c23          	sd	x12,664(x2)
    800012a0:	333330b7          	lui	x1,0x33333
    800012a4:	3330809b          	addiw	x1,x1,819 # 0x33333333
    800012a8:	00c08463          	beq	x1,x12,0x800012b0
    800012ac:	d79fe06f          	jal	x0,0x80000024
    800012b0:	66666537          	lui	x10,0x66666
    800012b4:	66650513          	addi	x10,x10,1638 # 0x66666666
    800012b8:	00b51513          	slli	x10,x10,0xb
    800012bc:	33350513          	addi	x10,x10,819
    800012c0:	00b51513          	slli	x10,x10,0xb
    800012c4:	19950513          	addi	x10,x10,409
    800012c8:	00a51513          	slli	x10,x10,0xa
    800012cc:	26650513          	addi	x10,x10,614
    800012d0:	00500593          	addi	x11,x0,5
    800012d4:	00b55633          	srl	x12,x10,x11
    800012d8:	2ac13023          	sd	x12,672(x2)
    800012dc:	003330b7          	lui	x1,0x333
    800012e0:	3330809b          	addiw	x1,x1,819 # 0x333333
    800012e4:	00c09093          	slli	x1,x1,0xc
    800012e8:	33308093          	addi	x1,x1,819
    800012ec:	00c09093          	slli	x1,x1,0xc
    800012f0:	33308093          	addi	x1,x1,819
    800012f4:	00c09093          	slli	x1,x1,0xc
    800012f8:	33308093          	addi	x1,x1,819
    800012fc:	00c08463          	beq	x1,x12,0x80001304
    80001300:	d25fe06f          	jal	x0,0x80000024
    80001304:	00000537          	lui	x10,0x0
    80001308:	fff50513          	addi	x10,x10,-1 # 0xffffffffffffffff
    8000130c:	00b51513          	slli	x10,x10,0xb
    80001310:	25750513          	addi	x10,x10,599
    80001314:	00b51513          	slli	x10,x10,0xb
    80001318:	6c350513          	addi	x10,x10,1731
    8000131c:	00a51513          	slli	x10,x10,0xa
    80001320:	0cd50513          	addi	x10,x10,205
    80001324:	00c00593          	addi	x11,x0,12
    80001328:	00b55633          	srl	x12,x10,x11
    8000132c:	2ac13423          	sd	x12,680(x2)
    80001330:	0010009b          	addiw	x1,x0,1
    80001334:	02809093          	slli	x1,x1,0x28
    80001338:	f4b08093          	addi	x1,x1,-181
    8000133c:	00c09093          	slli	x1,x1,0xc
    80001340:	fb008093          	addi	x1,x1,-80
    80001344:	00c08463          	beq	x1,x12,0x8000134c
    80001348:	cddfe06f          	jal	x0,0x80000024
    8000134c:	00000537          	lui	x10,0x0
    80001350:	00050513          	addi	x10,x10,0 # 0x0
    80001354:	00b51513          	slli	x10,x10,0xb
    80001358:	5a850513          	addi	x10,x10,1448
    8000135c:	00b51513          	slli	x10,x10,0xb
    80001360:	13c50513          	addi	x10,x10,316
    80001364:	00a51513          	slli	x10,x10,0xa
    80001368:	33350513          	addi	x10,x10,819
    8000136c:	00c00593          	addi	x11,x0,12
    80001370:	00b55633          	srl	x12,x10,x11
    80001374:	2ac13823          	sd	x12,688(x2)
    80001378:	000b50b7          	lui	x1,0xb5
    8000137c:	04f0809b          	addiw	x1,x1,79 # 0xb504f
    80001380:	00c08463          	beq	x1,x12,0x80001388
    80001384:	ca1fe06f          	jal	x0,0x80000024
    80001388:	55555537          	lui	x10,0x55555
    8000138c:	55550513          	addi	x10,x10,1365 # 0x55555555
    80001390:	00b51513          	slli	x10,x10,0xb
    80001394:	2aa50513          	addi	x10,x10,682
    80001398:	00b51513          	slli	x10,x10,0xb
    8000139c:	55550513          	addi	x10,x10,1365
    800013a0:	00a51513          	slli	x10,x10,0xa
    800013a4:	15450513          	addi	x10,x10,340
    800013a8:	00e00593          	addi	x11,x0,14
    800013ac:	00b55633          	srl	x12,x10,x11
    800013b0:	2ac13c23          	sd	x12,696(x2)
    800013b4:	015550b7          	lui	x1,0x1555
    800013b8:	5550809b          	addiw	x1,x1,1365 # 0x1555555
    800013bc:	00c09093          	slli	x1,x1,0xc
    800013c0:	55508093          	addi	x1,x1,1365
    800013c4:	00c09093          	slli	x1,x1,0xc
    800013c8:	55508093          	addi	x1,x1,1365
    800013cc:	00c08463          	beq	x1,x12,0x800013d4
    800013d0:	c55fe06f          	jal	x0,0x80000024
    800013d4:	33333537          	lui	x10,0x33333
    800013d8:	33350513          	addi	x10,x10,819 # 0x33333333
    800013dc:	00b51513          	slli	x10,x10,0xb
    800013e0:	19950513          	addi	x10,x10,409
    800013e4:	00b51513          	slli	x10,x10,0xb
    800013e8:	4cc50513          	addi	x10,x10,1228
    800013ec:	00a51513          	slli	x10,x10,0xa
    800013f0:	33250513          	addi	x10,x10,818
    800013f4:	01000593          	addi	x11,x0,16
    800013f8:	00b55633          	srl	x12,x10,x11
    800013fc:	2cc13023          	sd	x12,704(x2)
    80001400:	003330b7          	lui	x1,0x333
    80001404:	3330809b          	addiw	x1,x1,819 # 0x333333
    80001408:	00c09093          	slli	x1,x1,0xc
    8000140c:	33308093          	addi	x1,x1,819
    80001410:	00c09093          	slli	x1,x1,0xc
    80001414:	33308093          	addi	x1,x1,819
    80001418:	00c08463          	beq	x1,x12,0x80001420
    8000141c:	c09fe06f          	jal	x0,0x80000024
    80001420:	66666537          	lui	x10,0x66666
    80001424:	66650513          	addi	x10,x10,1638 # 0x66666666
    80001428:	00b51513          	slli	x10,x10,0xb
    8000142c:	33350513          	addi	x10,x10,819
    80001430:	00b51513          	slli	x10,x10,0xb
    80001434:	19950513          	addi	x10,x10,409
    80001438:	00a51513          	slli	x10,x10,0xa
    8000143c:	26550513          	addi	x10,x10,613
    80001440:	01f00593          	addi	x11,x0,31
    80001444:	00b55633          	srl	x12,x10,x11
    80001448:	2cc13423          	sd	x12,712(x2)
    8000144c:	000cd0b7          	lui	x1,0xcd
    80001450:	ccd0809b          	addiw	x1,x1,-819 # 0xccccd
    80001454:	00c09093          	slli	x1,x1,0xc
    80001458:	ccc08093          	addi	x1,x1,-820
    8000145c:	00c08463          	beq	x1,x12,0x80001464
    80001460:	bc5fe06f          	jal	x0,0x80000024
    80001464:	00000537          	lui	x10,0x0
    80001468:	00050513          	addi	x10,x10,0 # 0x0
    8000146c:	00b51513          	slli	x10,x10,0xb
    80001470:	5a850513          	addi	x10,x10,1448
    80001474:	00b51513          	slli	x10,x10,0xb
    80001478:	13c50513          	addi	x10,x10,316
    8000147c:	00a51513          	slli	x10,x10,0xa
    80001480:	33250513          	addi	x10,x10,818
    80001484:	00d00593          	addi	x11,x0,13
    80001488:	00b55633          	srl	x12,x10,x11
    8000148c:	2cc13823          	sd	x12,720(x2)
    80001490:	0005b0b7          	lui	x1,0x5b
    80001494:	8270809b          	addiw	x1,x1,-2009 # 0x5a827
    80001498:	00c08463          	beq	x1,x12,0x800014a0
    8000149c:	b89fe06f          	jal	x0,0x80000024
    800014a0:	55555537          	lui	x10,0x55555
    800014a4:	55550513          	addi	x10,x10,1365 # 0x55555555
    800014a8:	00b51513          	slli	x10,x10,0xb
    800014ac:	2aa50513          	addi	x10,x10,682
    800014b0:	00b51513          	slli	x10,x10,0xb
    800014b4:	55550513          	addi	x10,x10,1365
    800014b8:	00a51513          	slli	x10,x10,0xa
    800014bc:	15650513          	addi	x10,x10,342
    800014c0:	00100593          	addi	x11,x0,1
    800014c4:	00b55633          	srl	x12,x10,x11
    800014c8:	2cc13c23          	sd	x12,728(x2)
    800014cc:	02aab0b7          	lui	x1,0x2aab
    800014d0:	aab0809b          	addiw	x1,x1,-1365 # 0x2aaaaab
    800014d4:	00c09093          	slli	x1,x1,0xc
    800014d8:	aab08093          	addi	x1,x1,-1365
    800014dc:	00c09093          	slli	x1,x1,0xc
    800014e0:	aab08093          	addi	x1,x1,-1365
    800014e4:	00c09093          	slli	x1,x1,0xc
    800014e8:	aab08093          	addi	x1,x1,-1365
    800014ec:	00c08463          	beq	x1,x12,0x800014f4
    800014f0:	b35fe06f          	jal	x0,0x80000024
    800014f4:	aaaab537          	lui	x10,0xaaaab
    800014f8:	aaa50513          	addi	x10,x10,-1366 # 0xffffffffaaaaaaaa
    800014fc:	00b51513          	slli	x10,x10,0xb
    80001500:	55550513          	addi	x10,x10,1365
    80001504:	00b51513          	slli	x10,x10,0xb
    80001508:	2aa50513          	addi	x10,x10,682
    8000150c:	00a51513          	slli	x10,x10,0xa
    80001510:	2ab50513          	addi	x10,x10,683
    80001514:	00500593          	addi	x11,x0,5
    80001518:	00b55633          	srl	x12,x10,x11
    8000151c:	2ec13023          	sd	x12,736(x2)
    80001520:	005550b7          	lui	x1,0x555
    80001524:	5550809b          	addiw	x1,x1,1365 # 0x555555
    80001528:	00c09093          	slli	x1,x1,0xc
    8000152c:	55508093          	addi	x1,x1,1365
    80001530:	00c09093          	slli	x1,x1,0xc
    80001534:	55508093          	addi	x1,x1,1365
    80001538:	00c09093          	slli	x1,x1,0xc
    8000153c:	55508093          	addi	x1,x1,1365
    80001540:	00c08463          	beq	x1,x12,0x80001548
    80001544:	ae1fe06f          	jal	x0,0x80000024
    80001548:	00600513          	addi	x10,x0,6
    8000154c:	03e00593          	addi	x11,x0,62
    80001550:	00b55633          	srl	x12,x10,x11
    80001554:	2ec13423          	sd	x12,744(x2)
    80001558:	00000093          	addi	x1,x0,0
    8000155c:	00c08463          	beq	x1,x12,0x80001564
    80001560:	ac5fe06f          	jal	x0,0x80000024
    80001564:	33333537          	lui	x10,0x33333
    80001568:	33350513          	addi	x10,x10,819 # 0x33333333
    8000156c:	00b51513          	slli	x10,x10,0xb
    80001570:	19950513          	addi	x10,x10,409
    80001574:	00b51513          	slli	x10,x10,0xb
    80001578:	4cc50513          	addi	x10,x10,1228
    8000157c:	00a51513          	slli	x10,x10,0xa
    80001580:	33450513          	addi	x10,x10,820
    80001584:	00100593          	addi	x11,x0,1
    80001588:	00b55633          	srl	x12,x10,x11
    8000158c:	2ec13823          	sd	x12,752(x2)
    80001590:	00ccd0b7          	lui	x1,0xccd
    80001594:	ccd0809b          	addiw	x1,x1,-819 # 0xcccccd
    80001598:	00c09093          	slli	x1,x1,0xc
    8000159c:	ccd08093          	addi	x1,x1,-819
    800015a0:	00c09093          	slli	x1,x1,0xc
    800015a4:	ccd08093          	addi	x1,x1,-819
    800015a8:	00d09093          	slli	x1,x1,0xd
    800015ac:	99a08093          	addi	x1,x1,-1638
    800015b0:	00c08463          	beq	x1,x12,0x800015b8
    800015b4:	a71fe06f          	jal	x0,0x80000024
    800015b8:	66666537          	lui	x10,0x66666
    800015bc:	66650513          	addi	x10,x10,1638 # 0x66666666
    800015c0:	00b51513          	slli	x10,x10,0xb
    800015c4:	33350513          	addi	x10,x10,819
    800015c8:	00b51513          	slli	x10,x10,0xb
    800015cc:	19950513          	addi	x10,x10,409
    800015d0:	00a51513          	slli	x10,x10,0xa
    800015d4:	26750513          	addi	x10,x10,615
    800015d8:	02a00593          	addi	x11,x0,42
    800015dc:	00b55633          	srl	x12,x10,x11
    800015e0:	2ec13c23          	sd	x12,760(x2)
    800015e4:	0019a0b7          	lui	x1,0x19a
    800015e8:	9990809b          	addiw	x1,x1,-1639 # 0x199999
    800015ec:	00c08463          	beq	x1,x12,0x800015f4
    800015f0:	a35fe06f          	jal	x0,0x80000024
    800015f4:	00000537          	lui	x10,0x0
    800015f8:	fff50513          	addi	x10,x10,-1 # 0xffffffffffffffff
    800015fc:	00b51513          	slli	x10,x10,0xb
    80001600:	25750513          	addi	x10,x10,599
    80001604:	00b51513          	slli	x10,x10,0xb
    80001608:	6c350513          	addi	x10,x10,1731
    8000160c:	00a51513          	slli	x10,x10,0xa
    80001610:	0ce50513          	addi	x10,x10,206
    80001614:	01000593          	addi	x11,x0,16
    80001618:	00b55633          	srl	x12,x10,x11
    8000161c:	30c13023          	sd	x12,768(x2)
    80001620:	0010009b          	addiw	x1,x0,1
    80001624:	02409093          	slli	x1,x1,0x24
    80001628:	ff508093          	addi	x1,x1,-11
    8000162c:	00c09093          	slli	x1,x1,0xc
    80001630:	afb08093          	addi	x1,x1,-1285
    80001634:	00c08463          	beq	x1,x12,0x8000163c
    80001638:	9edfe06f          	jal	x0,0x80000024
    8000163c:	00000537          	lui	x10,0x0
    80001640:	00050513          	addi	x10,x10,0 # 0x0
    80001644:	00b51513          	slli	x10,x10,0xb
    80001648:	5a850513          	addi	x10,x10,1448
    8000164c:	00b51513          	slli	x10,x10,0xb
    80001650:	13c50513          	addi	x10,x10,316
    80001654:	00a51513          	slli	x10,x10,0xa
    80001658:	33450513          	addi	x10,x10,820
    8000165c:	02a00593          	addi	x11,x0,42
    80001660:	00b55633          	srl	x12,x10,x11
    80001664:	30c13423          	sd	x12,776(x2)
    80001668:	00000093          	addi	x1,x0,0
    8000166c:	00c08463          	beq	x1,x12,0x80001674
    80001670:	9b5fe06f          	jal	x0,0x80000024
    80001674:	00100513          	addi	x10,x0,1
    80001678:	01551513          	slli	x10,x10,0x15
    8000167c:	fff54513          	xori	x10,x10,-1
    80001680:	03b00593          	addi	x11,x0,59
    80001684:	00b55633          	srl	x12,x10,x11
    80001688:	30c13823          	sd	x12,784(x2)
    8000168c:	01f00093          	addi	x1,x0,31
    80001690:	00c08463          	beq	x1,x12,0x80001698
    80001694:	991fe06f          	jal	x0,0x80000024
    80001698:	00100513          	addi	x10,x0,1
    8000169c:	01651513          	slli	x10,x10,0x16
    800016a0:	fff54513          	xori	x10,x10,-1
    800016a4:	01200593          	addi	x11,x0,18
    800016a8:	00b55633          	srl	x12,x10,x11
    800016ac:	30c13c23          	sd	x12,792(x2)
    800016b0:	0010009b          	addiw	x1,x0,1
    800016b4:	02e09093          	slli	x1,x1,0x2e
    800016b8:	fef08093          	addi	x1,x1,-17
    800016bc:	00c08463          	beq	x1,x12,0x800016c4
    800016c0:	965fe06f          	jal	x0,0x80000024
    800016c4:	00100513          	addi	x10,x0,1
    800016c8:	01751513          	slli	x10,x10,0x17
    800016cc:	fff54513          	xori	x10,x10,-1
    800016d0:	00300593          	addi	x11,x0,3
    800016d4:	00b55633          	srl	x12,x10,x11
    800016d8:	32c13023          	sd	x12,800(x2)
    800016dc:	0010009b          	addiw	x1,x0,1
    800016e0:	02909093          	slli	x1,x1,0x29
    800016e4:	fff08093          	addi	x1,x1,-1
    800016e8:	01409093          	slli	x1,x1,0x14
    800016ec:	fff08093          	addi	x1,x1,-1
    800016f0:	00c08463          	beq	x1,x12,0x800016f8
    800016f4:	931fe06f          	jal	x0,0x80000024
    800016f8:	00100513          	addi	x10,x0,1
    800016fc:	01851513          	slli	x10,x10,0x18
    80001700:	fff54513          	xori	x10,x10,-1
    80001704:	00500593          	addi	x11,x0,5
    80001708:	00b55633          	srl	x12,x10,x11
    8000170c:	32c13423          	sd	x12,808(x2)
    80001710:	0010009b          	addiw	x1,x0,1
    80001714:	02809093          	slli	x1,x1,0x28
    80001718:	fff08093          	addi	x1,x1,-1
    8000171c:	01309093          	slli	x1,x1,0x13
    80001720:	fff08093          	addi	x1,x1,-1
    80001724:	00c08463          	beq	x1,x12,0x8000172c
    80001728:	8fdfe06f          	jal	x0,0x80000024
    8000172c:	00100513          	addi	x10,x0,1
    80001730:	01951513          	slli	x10,x10,0x19
    80001734:	fff54513          	xori	x10,x10,-1
    80001738:	00f00593          	addi	x11,x0,15
    8000173c:	00b55633          	srl	x12,x10,x11
    80001740:	32c13823          	sd	x12,816(x2)
    80001744:	0010009b          	addiw	x1,x0,1
    80001748:	03109093          	slli	x1,x1,0x31
    8000174c:	bff08093          	addi	x1,x1,-1025
    80001750:	00c08463          	beq	x1,x12,0x80001758
    80001754:	8d1fe06f          	jal	x0,0x80000024
    80001758:	00100513          	addi	x10,x0,1
    8000175c:	01a51513          	slli	x10,x10,0x1a
    80001760:	fff54513          	xori	x10,x10,-1
    80001764:	01f00593          	addi	x11,x0,31
    80001768:	00b55633          	srl	x12,x10,x11
    8000176c:	32c13c23          	sd	x12,824(x2)
    80001770:	0010009b          	addiw	x1,x0,1
    80001774:	02109093          	slli	x1,x1,0x21
    80001778:	fff08093          	addi	x1,x1,-1
    8000177c:	00c08463          	beq	x1,x12,0x80001784
    80001780:	8a5fe06f          	jal	x0,0x80000024
    80001784:	00100513          	addi	x10,x0,1
    80001788:	01b51513          	slli	x10,x10,0x1b
    8000178c:	fff54513          	xori	x10,x10,-1
    80001790:	01200593          	addi	x11,x0,18
    80001794:	00b55633          	srl	x12,x10,x11
    80001798:	34c13023          	sd	x12,832(x2)
    8000179c:	0010009b          	addiw	x1,x0,1
    800017a0:	02e09093          	slli	x1,x1,0x2e
    800017a4:	dff08093          	addi	x1,x1,-513
    800017a8:	00c08463          	beq	x1,x12,0x800017b0
    800017ac:	879fe06f          	jal	x0,0x80000024
    800017b0:	00100513          	addi	x10,x0,1
    800017b4:	01c51513          	slli	x10,x10,0x1c
    800017b8:	fff54513          	xori	x10,x10,-1
    800017bc:	00a00593          	addi	x11,x0,10
    800017c0:	00b55633          	srl	x12,x10,x11
    800017c4:	34c13423          	sd	x12,840(x2)
    800017c8:	0010009b          	addiw	x1,x0,1
    800017cc:	02409093          	slli	x1,x1,0x24
    800017d0:	fff08093          	addi	x1,x1,-1
    800017d4:	01209093          	slli	x1,x1,0x12
    800017d8:	fff08093          	addi	x1,x1,-1
    800017dc:	00c08463          	beq	x1,x12,0x800017e4
    800017e0:	845fe06f          	jal	x0,0x80000024
    800017e4:	00100513          	addi	x10,x0,1
    800017e8:	01d51513          	slli	x10,x10,0x1d
    800017ec:	fff54513          	xori	x10,x10,-1
    800017f0:	00c00593          	addi	x11,x0,12
    800017f4:	00b55633          	srl	x12,x10,x11
    800017f8:	34c13823          	sd	x12,848(x2)
    800017fc:	0010009b          	addiw	x1,x0,1
    80001800:	02309093          	slli	x1,x1,0x23
    80001804:	fff08093          	addi	x1,x1,-1
    80001808:	01109093          	slli	x1,x1,0x11
    8000180c:	fff08093          	addi	x1,x1,-1
    80001810:	00c08463          	beq	x1,x12,0x80001818
    80001814:	811fe06f          	jal	x0,0x80000024
    80001818:	00100513          	addi	x10,x0,1
    8000181c:	01e51513          	slli	x10,x10,0x1e
    80001820:	fff54513          	xori	x10,x10,-1
    80001824:	02000593          	addi	x11,x0,32
    80001828:	00b55633          	srl	x12,x10,x11
    8000182c:	34c13c23          	sd	x12,856(x2)
    80001830:	0010009b          	addiw	x1,x0,1
    80001834:	02009093          	slli	x1,x1,0x20
    80001838:	fff08093          	addi	x1,x1,-1
    8000183c:	00c08463          	beq	x1,x12,0x80001844
    80001840:	fe4fe06f          	jal	x0,0x80000024
    80001844:	00100513          	addi	x10,x0,1
    80001848:	01f51513          	slli	x10,x10,0x1f
    8000184c:	fff54513          	xori	x10,x10,-1
    80001850:	03e00593          	addi	x11,x0,62
    80001854:	00b55633          	srl	x12,x10,x11
    80001858:	36c13023          	sd	x12,864(x2)
    8000185c:	00300093          	addi	x1,x0,3
    80001860:	00c08463          	beq	x1,x12,0x80001868
    80001864:	fc0fe06f          	jal	x0,0x80000024
    80001868:	00100513          	addi	x10,x0,1
    8000186c:	02051513          	slli	x10,x10,0x20
    80001870:	fff54513          	xori	x10,x10,-1
    80001874:	02f00593          	addi	x11,x0,47
    80001878:	00b55633          	srl	x12,x10,x11
    8000187c:	36c13423          	sd	x12,872(x2)
    80001880:	000200b7          	lui	x1,0x20
    80001884:	fff0809b          	addiw	x1,x1,-1 # 0x1ffff
    80001888:	00c08463          	beq	x1,x12,0x80001890
    8000188c:	f98fe06f          	jal	x0,0x80000024
    80001890:	00100513          	addi	x10,x0,1
    80001894:	02151513          	slli	x10,x10,0x21
    80001898:	fff54513          	xori	x10,x10,-1
    8000189c:	00700593          	addi	x11,x0,7
    800018a0:	00b55633          	srl	x12,x10,x11
    800018a4:	36c13823          	sd	x12,880(x2)
    800018a8:	800000b7          	lui	x1,0x80000
    800018ac:	fff0809b          	addiw	x1,x1,-1 # 0x7fffffff
    800018b0:	01a09093          	slli	x1,x1,0x1a
    800018b4:	fff08093          	addi	x1,x1,-1
    800018b8:	00c08463          	beq	x1,x12,0x800018c0
    800018bc:	f68fe06f          	jal	x0,0x80000024
    800018c0:	00100513          	addi	x10,x0,1
    800018c4:	02351513          	slli	x10,x10,0x23
    800018c8:	fff54513          	xori	x10,x10,-1
    800018cc:	00c00593          	addi	x11,x0,12
    800018d0:	00b55633          	srl	x12,x10,x11
    800018d4:	36c13c23          	sd	x12,888(x2)
    800018d8:	200000b7          	lui	x1,0x20000
    800018dc:	fff0809b          	addiw	x1,x1,-1 # 0x1fffffff
    800018e0:	01709093          	slli	x1,x1,0x17
    800018e4:	fff08093          	addi	x1,x1,-1
    800018e8:	00c08463          	beq	x1,x12,0x800018f0
    800018ec:	f38fe06f          	jal	x0,0x80000024
    800018f0:	00100513          	addi	x10,x0,1
    800018f4:	02451513          	slli	x10,x10,0x24
    800018f8:	fff54513          	xori	x10,x10,-1
    800018fc:	00100593          	addi	x11,x0,1
    80001900:	00b55633          	srl	x12,x10,x11
    80001904:	38c13023          	sd	x12,896(x2)
    80001908:	100000b7          	lui	x1,0x10000
    8000190c:	fff0809b          	addiw	x1,x1,-1 # 0xfffffff
    80001910:	02309093          	slli	x1,x1,0x23
    80001914:	fff08093          	addi	x1,x1,-1
    80001918:	00c08463          	beq	x1,x12,0x80001920
    8000191c:	f08fe06f          	jal	x0,0x80000024
    80001920:	00100513          	addi	x10,x0,1
    80001924:	02551513          	slli	x10,x10,0x25
    80001928:	fff54513          	xori	x10,x10,-1
    8000192c:	00b00593          	addi	x11,x0,11
    80001930:	00b55633          	srl	x12,x10,x11
    80001934:	38c13423          	sd	x12,904(x2)
    80001938:	080000b7          	lui	x1,0x8000
    8000193c:	fff0809b          	addiw	x1,x1,-1 # 0x7ffffff
    80001940:	01a09093          	slli	x1,x1,0x1a
    80001944:	fff08093          	addi	x1,x1,-1
    80001948:	00c08463          	beq	x1,x12,0x80001950
    8000194c:	ed8fe06f          	jal	x0,0x80000024
    80001950:	00100513          	addi	x10,x0,1
    80001954:	02651513          	slli	x10,x10,0x26
    80001958:	fff54513          	xori	x10,x10,-1
    8000195c:	02000593          	addi	x11,x0,32
    80001960:	00b55633          	srl	x12,x10,x11
    80001964:	38c13823          	sd	x12,912(x2)
    80001968:	0010009b          	addiw	x1,x0,1
    8000196c:	02009093          	slli	x1,x1,0x20
    80001970:	fbf08093          	addi	x1,x1,-65
    80001974:	00c08463          	beq	x1,x12,0x8000197c
    80001978:	eacfe06f          	jal	x0,0x80000024
    8000197c:	00100513          	addi	x10,x0,1
    80001980:	02751513          	slli	x10,x10,0x27
    80001984:	fff54513          	xori	x10,x10,-1
    80001988:	01500593          	addi	x11,x0,21
    8000198c:	00b55633          	srl	x12,x10,x11
    80001990:	38c13c23          	sd	x12,920(x2)
    80001994:	020000b7          	lui	x1,0x2000
    80001998:	fff0809b          	addiw	x1,x1,-1 # 0x1ffffff
    8000199c:	01209093          	slli	x1,x1,0x12
    800019a0:	fff08093          	addi	x1,x1,-1
    800019a4:	00c08463          	beq	x1,x12,0x800019ac
    800019a8:	e7cfe06f          	jal	x0,0x80000024
    800019ac:	00100513          	addi	x10,x0,1
    800019b0:	02851513          	slli	x10,x10,0x28
    800019b4:	fff54513          	xori	x10,x10,-1
    800019b8:	03b00593          	addi	x11,x0,59
    800019bc:	00b55633          	srl	x12,x10,x11
    800019c0:	3ac13023          	sd	x12,928(x2)
    800019c4:	01f00093          	addi	x1,x0,31
    800019c8:	00c08463          	beq	x1,x12,0x800019d0
    800019cc:	e58fe06f          	jal	x0,0x80000024
    800019d0:	00100513          	addi	x10,x0,1
    800019d4:	02951513          	slli	x10,x10,0x29
    800019d8:	fff54513          	xori	x10,x10,-1
    800019dc:	02f00593          	addi	x11,x0,47
    800019e0:	00b55633          	srl	x12,x10,x11
    800019e4:	3ac13423          	sd	x12,936(x2)
    800019e8:	000200b7          	lui	x1,0x20
    800019ec:	fff0809b          	addiw	x1,x1,-1 # 0x1ffff
    800019f0:	00c08463          	beq	x1,x12,0x800019f8
    800019f4:	e30fe06f          	jal	x0,0x80000024
    800019f8:	00100513          	addi	x10,x0,1
    800019fc:	02a51513          	slli	x10,x10,0x2a
    80001a00:	fff54513          	xori	x10,x10,-1
    80001a04:	00c00593          	addi	x11,x0,12
    80001a08:	00b55633          	srl	x12,x10,x11
    80001a0c:	3ac13823          	sd	x12,944(x2)
    80001a10:	004000b7          	lui	x1,0x400
    80001a14:	fff0809b          	addiw	x1,x1,-1 # 0x3fffff
    80001a18:	01e09093          	slli	x1,x1,0x1e
    80001a1c:	fff08093          	addi	x1,x1,-1
    80001a20:	00c08463          	beq	x1,x12,0x80001a28
    80001a24:	e00fe06f          	jal	x0,0x80000024
    80001a28:	00100513          	addi	x10,x0,1
    80001a2c:	02b51513          	slli	x10,x10,0x2b
    80001a30:	fff54513          	xori	x10,x10,-1
    80001a34:	00d00593          	addi	x11,x0,13
    80001a38:	00b55633          	srl	x12,x10,x11
    80001a3c:	3ac13c23          	sd	x12,952(x2)
    80001a40:	002000b7          	lui	x1,0x200
    80001a44:	fff0809b          	addiw	x1,x1,-1 # 0x1fffff
    80001a48:	01e09093          	slli	x1,x1,0x1e
    80001a4c:	fff08093          	addi	x1,x1,-1
    80001a50:	00c08463          	beq	x1,x12,0x80001a58
    80001a54:	dd0fe06f          	jal	x0,0x80000024
    80001a58:	00100513          	addi	x10,x0,1
    80001a5c:	02c51513          	slli	x10,x10,0x2c
    80001a60:	fff54513          	xori	x10,x10,-1
    80001a64:	00700593          	addi	x11,x0,7
    80001a68:	00b55633          	srl	x12,x10,x11
    80001a6c:	3cc13023          	sd	x12,960(x2)
    80001a70:	001000b7          	lui	x1,0x100
    80001a74:	fff0809b          	addiw	x1,x1,-1 # 0xfffff
    80001a78:	02509093          	slli	x1,x1,0x25
    80001a7c:	fff08093          	addi	x1,x1,-1
    80001a80:	00c08463          	beq	x1,x12,0x80001a88
    80001a84:	da0fe06f          	jal	x0,0x80000024
    80001a88:	00100513          	addi	x10,x0,1
    80001a8c:	02d51513          	slli	x10,x10,0x2d
    80001a90:	fff54513          	xori	x10,x10,-1
    80001a94:	03f00593          	addi	x11,x0,63
    80001a98:	00b55633          	srl	x12,x10,x11
    80001a9c:	3cc13423          	sd	x12,968(x2)
    80001aa0:	00100093          	addi	x1,x0,1
    80001aa4:	00c08463          	beq	x1,x12,0x80001aac
    80001aa8:	d7cfe06f          	jal	x0,0x80000024
    80001aac:	00100513          	addi	x10,x0,1
    80001ab0:	02e51513          	slli	x10,x10,0x2e
    80001ab4:	fff54513          	xori	x10,x10,-1
    80001ab8:	00900593          	addi	x11,x0,9
    80001abc:	00b55633          	srl	x12,x10,x11
    80001ac0:	3cc13823          	sd	x12,976(x2)
    80001ac4:	000400b7          	lui	x1,0x40
    80001ac8:	fff0809b          	addiw	x1,x1,-1 # 0x3ffff
    80001acc:	02509093          	slli	x1,x1,0x25
    80001ad0:	fff08093          	addi	x1,x1,-1
    80001ad4:	00c08463          	beq	x1,x12,0x80001adc
    80001ad8:	d4cfe06f          	jal	x0,0x80000024
    80001adc:	00100513          	addi	x10,x0,1
    80001ae0:	02f51513          	slli	x10,x10,0x2f
    80001ae4:	fff54513          	xori	x10,x10,-1
    80001ae8:	00500593          	addi	x11,x0,5
    80001aec:	00b55633          	srl	x12,x10,x11
    80001af0:	3cc13c23          	sd	x12,984(x2)
    80001af4:	000200b7          	lui	x1,0x20
    80001af8:	fff0809b          	addiw	x1,x1,-1 # 0x1ffff
    80001afc:	02a09093          	slli	x1,x1,0x2a
    80001b00:	fff08093          	addi	x1,x1,-1
    80001b04:	00c08463          	beq	x1,x12,0x80001b0c
    80001b08:	d1cfe06f          	jal	x0,0x80000024
    80001b0c:	00100513          	addi	x10,x0,1
    80001b10:	03051513          	slli	x10,x10,0x30
    80001b14:	fff54513          	xori	x10,x10,-1
    80001b18:	00800593          	addi	x11,x0,8
    80001b1c:	00b55633          	srl	x12,x10,x11
    80001b20:	3ec13023          	sd	x12,992(x2)
    80001b24:	000100b7          	lui	x1,0x10
    80001b28:	fff0809b          	addiw	x1,x1,-1 # 0xffff
    80001b2c:	02809093          	slli	x1,x1,0x28
    80001b30:	fff08093          	addi	x1,x1,-1
    80001b34:	00c08463          	beq	x1,x12,0x80001b3c
    80001b38:	cecfe06f          	jal	x0,0x80000024
    80001b3c:	00100513          	addi	x10,x0,1
    80001b40:	03151513          	slli	x10,x10,0x31
    80001b44:	fff54513          	xori	x10,x10,-1
    80001b48:	00b00593          	addi	x11,x0,11
    80001b4c:	00b55633          	srl	x12,x10,x11
    80001b50:	3ec13423          	sd	x12,1000(x2)
    80001b54:	000080b7          	lui	x1,0x8
    80001b58:	fff0809b          	addiw	x1,x1,-1 # 0x7fff
    80001b5c:	02609093          	slli	x1,x1,0x26
    80001b60:	fff08093          	addi	x1,x1,-1
    80001b64:	00c08463          	beq	x1,x12,0x80001b6c
    80001b68:	cbcfe06f          	jal	x0,0x80000024
    80001b6c:	00100513          	addi	x10,x0,1
    80001b70:	03251513          	slli	x10,x10,0x32
    80001b74:	fff54513          	xori	x10,x10,-1
    80001b78:	00400593          	addi	x11,x0,4
    80001b7c:	00b55633          	srl	x12,x10,x11
    80001b80:	3ec13823          	sd	x12,1008(x2)
    80001b84:	000040b7          	lui	x1,0x4
    80001b88:	fff0809b          	addiw	x1,x1,-1 # 0x3fff
    80001b8c:	02e09093          	slli	x1,x1,0x2e
    80001b90:	fff08093          	addi	x1,x1,-1
    80001b94:	00c08463          	beq	x1,x12,0x80001b9c
    80001b98:	c8cfe06f          	jal	x0,0x80000024
    80001b9c:	00100513          	addi	x10,x0,1
    80001ba0:	03351513          	slli	x10,x10,0x33
    80001ba4:	fff54513          	xori	x10,x10,-1
    80001ba8:	03b00593          	addi	x11,x0,59
    80001bac:	00b55633          	srl	x12,x10,x11
    80001bb0:	3ec13c23          	sd	x12,1016(x2)
    80001bb4:	01f00093          	addi	x1,x0,31
    80001bb8:	00c08463          	beq	x1,x12,0x80001bc0
    80001bbc:	c68fe06f          	jal	x0,0x80000024
    80001bc0:	00100513          	addi	x10,x0,1
    80001bc4:	03451513          	slli	x10,x10,0x34
    80001bc8:	fff54513          	xori	x10,x10,-1
    80001bcc:	00500593          	addi	x11,x0,5
    80001bd0:	00b55633          	srl	x12,x10,x11
    80001bd4:	40c13023          	sd	x12,1024(x2)
    80001bd8:	000010b7          	lui	x1,0x1
    80001bdc:	fff0809b          	addiw	x1,x1,-1 # 0xfff
    80001be0:	02f09093          	slli	x1,x1,0x2f
    80001be4:	fff08093          	addi	x1,x1,-1
    80001be8:	00c08463          	beq	x1,x12,0x80001bf0
    80001bec:	c38fe06f          	jal	x0,0x80000024
    80001bf0:	00100513          	addi	x10,x0,1
    80001bf4:	03551513          	slli	x10,x10,0x35
    80001bf8:	fff54513          	xori	x10,x10,-1
    80001bfc:	01500593          	addi	x11,x0,21
    80001c00:	00b55633          	srl	x12,x10,x11
    80001c04:	40c13423          	sd	x12,1032(x2)
    80001c08:	7ff0009b          	addiw	x1,x0,2047
    80001c0c:	02009093          	slli	x1,x1,0x20
    80001c10:	fff08093          	addi	x1,x1,-1
    80001c14:	00c08463          	beq	x1,x12,0x80001c1c
    80001c18:	c0cfe06f          	jal	x0,0x80000024
    80001c1c:	00100513          	addi	x10,x0,1
    80001c20:	03651513          	slli	x10,x10,0x36
    80001c24:	fff54513          	xori	x10,x10,-1
    80001c28:	03b00593          	addi	x11,x0,59
    80001c2c:	00b55633          	srl	x12,x10,x11
    80001c30:	40c13823          	sd	x12,1040(x2)
    80001c34:	01f00093          	addi	x1,x0,31
    80001c38:	00c08463          	beq	x1,x12,0x80001c40
    80001c3c:	be8fe06f          	jal	x0,0x80000024
    80001c40:	fff00513          	addi	x10,x0,-1
    80001c44:	03f51513          	slli	x10,x10,0x3f
    80001c48:	03f00593          	addi	x11,x0,63
    80001c4c:	00b55633          	srl	x12,x10,x11
    80001c50:	40c13c23          	sd	x12,1048(x2)
    80001c54:	00100093          	addi	x1,x0,1
    80001c58:	00c08463          	beq	x1,x12,0x80001c60
    80001c5c:	bc8fe06f          	jal	x0,0x80000024
    80001c60:	00100513          	addi	x10,x0,1
    80001c64:	02251513          	slli	x10,x10,0x22
    80001c68:	fff54513          	xori	x10,x10,-1
    80001c6c:	00000593          	addi	x11,x0,0
    80001c70:	00b55633          	srl	x12,x10,x11
    80001c74:	42c13023          	sd	x12,1056(x2)
    80001c78:	fff0009b          	addiw	x1,x0,-1
    80001c7c:	02209093          	slli	x1,x1,0x22
    80001c80:	fff08093          	addi	x1,x1,-1
    80001c84:	00c08463          	beq	x1,x12,0x80001c8c
    80001c88:	b9cfe06f          	jal	x0,0x80000024
    80001c8c:	01000513          	addi	x10,x0,16
    80001c90:	03b00593          	addi	x11,x0,59
    80001c94:	00b55633          	srl	x12,x10,x11
    80001c98:	42c13423          	sd	x12,1064(x2)
    80001c9c:	00000093          	addi	x1,x0,0
    80001ca0:	00c08463          	beq	x1,x12,0x80001ca8
    80001ca4:	b80fe06f          	jal	x0,0x80000024
    80001ca8:	20000513          	addi	x10,x0,512
    80001cac:	03f00593          	addi	x11,x0,63
    80001cb0:	00b55633          	srl	x12,x10,x11
    80001cb4:	42c13823          	sd	x12,1072(x2)
    80001cb8:	00000093          	addi	x1,x0,0
    80001cbc:	00c08463          	beq	x1,x12,0x80001cc4
    80001cc0:	b64fe06f          	jal	x0,0x80000024
    80001cc4:	00100513          	addi	x10,x0,1
    80001cc8:	00c51513          	slli	x10,x10,0xc
    80001ccc:	01f00593          	addi	x11,x0,31
    80001cd0:	00b55633          	srl	x12,x10,x11
    80001cd4:	42c13c23          	sd	x12,1080(x2)
    80001cd8:	00000093          	addi	x1,x0,0
    80001cdc:	00c08463          	beq	x1,x12,0x80001ce4
    80001ce0:	b44fe06f          	jal	x0,0x80000024
    80001ce4:	0380006f          	jal	x0,0x80001d1c
    80001ce8:	1f813483          	ld	x9,504(x2)
    80001cec:	20013303          	ld	x6,512(x2)
    80001cf0:	00930333          	add	x6,x6,x9
    80001cf4:	00000337          	lui	x6,0x0
    80001cf8:	00030313          	addi	x6,x6,0 # 0x0
    80001cfc:	00b31313          	slli	x6,x6,0xb
    80001d00:	5d630313          	addi	x6,x6,1494
    80001d04:	00b31313          	slli	x6,x6,0xb
    80001d08:	43630313          	addi	x6,x6,1078
    80001d0c:	00a31313          	slli	x6,x6,0xa
    80001d10:	2d030313          	addi	x6,x6,720
    80001d14:	fe64be23          	sd	x6,-4(x9)
    80001d18:	0040006f          	jal	x0,0x80001d1c
    80001d1c:	00000513          	addi	x10,x0,0
    80001d20:	0140006f          	jal	x0,0x80001d34
	...
    80001d34:	00050513          	addi	x10,x10,0
    80001d38:	00100073          	ebreak
    80001d3c:	0000006f          	jal	x0,0x80001d3c
    80001d40:	ff010113          	addi	x2,x2,-16
    80001d44:	00000517          	auipc	x10,0x0
    80001d48:	01c50513          	addi	x10,x10,28 # 0x80001d60
    80001d4c:	00113423          	sd	x1,8(x2)
    80001d50:	ac0fe0ef          	jal	x1,0x80000010
    80001d54:	00050513          	addi	x10,x10,0
    80001d58:	00100073          	ebreak
    80001d5c:	0000006f          	jal	x0,0x80001d5c
	...
    80002000:	cafe                	c.swsp	x31,84(x2)
    80002002:	babe                	c.fsdsp	f15,368(x2)
    80002004:	cafe                	c.swsp	x31,84(x2)
    80002006:	babe                	c.fsdsp	f15,368(x2)
    80002008:	cafe                	c.swsp	x31,84(x2)
    8000200a:	babe                	c.fsdsp	f15,368(x2)
    8000200c:	cafe                	c.swsp	x31,84(x2)
    8000200e:	babe                	c.fsdsp	f15,368(x2)
    80002010:	deadbeef          	jal	x29,0x7ffdd5fa
    80002014:	deadbeef          	jal	x29,0x7ffdd5fe
	...
    80003000:	b281                	c.j	0x80002940
    80003002:	e7d4                	c.sd	x13,136(x15)
    80003004:	a309                	c.j	0x80003506
    80003006:	6f5c                	c.ld	x15,152(x14)
    80003008:	deadbeef          	jal	x29,0x7ffde5f2
    8000300c:	deadbeef          	jal	x29,0x7ffde5f6
    80003010:	deadbeef          	jal	x29,0x7ffde5fa
    80003014:	deadbeef          	jal	x29,0x7ffde5fe
    80003018:	deadbeef          	jal	x29,0x7ffde602
    8000301c:	deadbeef          	jal	x29,0x7ffde606
    80003020:	deadbeef          	jal	x29,0x7ffde60a
    80003024:	deadbeef          	jal	x29,0x7ffde60e
    80003028:	deadbeef          	jal	x29,0x7ffde612
    8000302c:	deadbeef          	jal	x29,0x7ffde616
    80003030:	deadbeef          	jal	x29,0x7ffde61a
    80003034:	deadbeef          	jal	x29,0x7ffde61e
    80003038:	deadbeef          	jal	x29,0x7ffde622
    8000303c:	deadbeef          	jal	x29,0x7ffde626
    80003040:	deadbeef          	jal	x29,0x7ffde62a
    80003044:	deadbeef          	jal	x29,0x7ffde62e
    80003048:	deadbeef          	jal	x29,0x7ffde632
    8000304c:	deadbeef          	jal	x29,0x7ffde636
    80003050:	deadbeef          	jal	x29,0x7ffde63a
    80003054:	deadbeef          	jal	x29,0x7ffde63e
    80003058:	deadbeef          	jal	x29,0x7ffde642
    8000305c:	deadbeef          	jal	x29,0x7ffde646
    80003060:	deadbeef          	jal	x29,0x7ffde64a
    80003064:	deadbeef          	jal	x29,0x7ffde64e
    80003068:	deadbeef          	jal	x29,0x7ffde652
    8000306c:	deadbeef          	jal	x29,0x7ffde656
    80003070:	deadbeef          	jal	x29,0x7ffde65a
    80003074:	deadbeef          	jal	x29,0x7ffde65e
    80003078:	deadbeef          	jal	x29,0x7ffde662
    8000307c:	deadbeef          	jal	x29,0x7ffde666
    80003080:	deadbeef          	jal	x29,0x7ffde66a
    80003084:	deadbeef          	jal	x29,0x7ffde66e
    80003088:	deadbeef          	jal	x29,0x7ffde672
    8000308c:	deadbeef          	jal	x29,0x7ffde676
    80003090:	deadbeef          	jal	x29,0x7ffde67a
    80003094:	deadbeef          	jal	x29,0x7ffde67e
    80003098:	deadbeef          	jal	x29,0x7ffde682
    8000309c:	deadbeef          	jal	x29,0x7ffde686
    800030a0:	deadbeef          	jal	x29,0x7ffde68a
    800030a4:	deadbeef          	jal	x29,0x7ffde68e
    800030a8:	deadbeef          	jal	x29,0x7ffde692
    800030ac:	deadbeef          	jal	x29,0x7ffde696
    800030b0:	deadbeef          	jal	x29,0x7ffde69a
    800030b4:	deadbeef          	jal	x29,0x7ffde69e
    800030b8:	deadbeef          	jal	x29,0x7ffde6a2
    800030bc:	deadbeef          	jal	x29,0x7ffde6a6
    800030c0:	deadbeef          	jal	x29,0x7ffde6aa
    800030c4:	deadbeef          	jal	x29,0x7ffde6ae
    800030c8:	deadbeef          	jal	x29,0x7ffde6b2
    800030cc:	deadbeef          	jal	x29,0x7ffde6b6
    800030d0:	deadbeef          	jal	x29,0x7ffde6ba
    800030d4:	deadbeef          	jal	x29,0x7ffde6be
    800030d8:	deadbeef          	jal	x29,0x7ffde6c2
    800030dc:	deadbeef          	jal	x29,0x7ffde6c6
    800030e0:	deadbeef          	jal	x29,0x7ffde6ca
    800030e4:	deadbeef          	jal	x29,0x7ffde6ce
    800030e8:	deadbeef          	jal	x29,0x7ffde6d2
    800030ec:	deadbeef          	jal	x29,0x7ffde6d6
    800030f0:	deadbeef          	jal	x29,0x7ffde6da
    800030f4:	deadbeef          	jal	x29,0x7ffde6de
    800030f8:	deadbeef          	jal	x29,0x7ffde6e2
    800030fc:	deadbeef          	jal	x29,0x7ffde6e6
    80003100:	deadbeef          	jal	x29,0x7ffde6ea
    80003104:	deadbeef          	jal	x29,0x7ffde6ee
    80003108:	deadbeef          	jal	x29,0x7ffde6f2
    8000310c:	deadbeef          	jal	x29,0x7ffde6f6
    80003110:	deadbeef          	jal	x29,0x7ffde6fa
    80003114:	deadbeef          	jal	x29,0x7ffde6fe
    80003118:	deadbeef          	jal	x29,0x7ffde702
    8000311c:	deadbeef          	jal	x29,0x7ffde706
    80003120:	deadbeef          	jal	x29,0x7ffde70a
    80003124:	deadbeef          	jal	x29,0x7ffde70e
    80003128:	deadbeef          	jal	x29,0x7ffde712
    8000312c:	deadbeef          	jal	x29,0x7ffde716
    80003130:	deadbeef          	jal	x29,0x7ffde71a
    80003134:	deadbeef          	jal	x29,0x7ffde71e
    80003138:	deadbeef          	jal	x29,0x7ffde722
    8000313c:	deadbeef          	jal	x29,0x7ffde726
    80003140:	deadbeef          	jal	x29,0x7ffde72a
    80003144:	deadbeef          	jal	x29,0x7ffde72e
    80003148:	deadbeef          	jal	x29,0x7ffde732
    8000314c:	deadbeef          	jal	x29,0x7ffde736
    80003150:	deadbeef          	jal	x29,0x7ffde73a
    80003154:	deadbeef          	jal	x29,0x7ffde73e
    80003158:	deadbeef          	jal	x29,0x7ffde742
    8000315c:	deadbeef          	jal	x29,0x7ffde746
    80003160:	deadbeef          	jal	x29,0x7ffde74a
    80003164:	deadbeef          	jal	x29,0x7ffde74e
    80003168:	deadbeef          	jal	x29,0x7ffde752
    8000316c:	deadbeef          	jal	x29,0x7ffde756
    80003170:	deadbeef          	jal	x29,0x7ffde75a
    80003174:	deadbeef          	jal	x29,0x7ffde75e
    80003178:	deadbeef          	jal	x29,0x7ffde762
    8000317c:	deadbeef          	jal	x29,0x7ffde766
    80003180:	deadbeef          	jal	x29,0x7ffde76a
    80003184:	deadbeef          	jal	x29,0x7ffde76e
    80003188:	deadbeef          	jal	x29,0x7ffde772
    8000318c:	deadbeef          	jal	x29,0x7ffde776
    80003190:	deadbeef          	jal	x29,0x7ffde77a
    80003194:	deadbeef          	jal	x29,0x7ffde77e
    80003198:	deadbeef          	jal	x29,0x7ffde782
    8000319c:	deadbeef          	jal	x29,0x7ffde786
    800031a0:	deadbeef          	jal	x29,0x7ffde78a
    800031a4:	deadbeef          	jal	x29,0x7ffde78e
    800031a8:	deadbeef          	jal	x29,0x7ffde792
    800031ac:	deadbeef          	jal	x29,0x7ffde796
    800031b0:	deadbeef          	jal	x29,0x7ffde79a
    800031b4:	deadbeef          	jal	x29,0x7ffde79e
    800031b8:	deadbeef          	jal	x29,0x7ffde7a2
    800031bc:	deadbeef          	jal	x29,0x7ffde7a6
    800031c0:	deadbeef          	jal	x29,0x7ffde7aa
    800031c4:	deadbeef          	jal	x29,0x7ffde7ae
    800031c8:	deadbeef          	jal	x29,0x7ffde7b2
    800031cc:	deadbeef          	jal	x29,0x7ffde7b6
    800031d0:	deadbeef          	jal	x29,0x7ffde7ba
    800031d4:	deadbeef          	jal	x29,0x7ffde7be
    800031d8:	deadbeef          	jal	x29,0x7ffde7c2
    800031dc:	deadbeef          	jal	x29,0x7ffde7c6
    800031e0:	deadbeef          	jal	x29,0x7ffde7ca
    800031e4:	deadbeef          	jal	x29,0x7ffde7ce
    800031e8:	deadbeef          	jal	x29,0x7ffde7d2
    800031ec:	deadbeef          	jal	x29,0x7ffde7d6
    800031f0:	deadbeef          	jal	x29,0x7ffde7da
    800031f4:	deadbeef          	jal	x29,0x7ffde7de
    800031f8:	deadbeef          	jal	x29,0x7ffde7e2
    800031fc:	deadbeef          	jal	x29,0x7ffde7e6
    80003200:	deadbeef          	jal	x29,0x7ffde7ea
    80003204:	deadbeef          	jal	x29,0x7ffde7ee
    80003208:	deadbeef          	jal	x29,0x7ffde7f2
    8000320c:	deadbeef          	jal	x29,0x7ffde7f6
    80003210:	deadbeef          	jal	x29,0x7ffde7fa
    80003214:	deadbeef          	jal	x29,0x7ffde7fe
    80003218:	deadbeef          	jal	x29,0x7ffde802
    8000321c:	deadbeef          	jal	x29,0x7ffde806
    80003220:	deadbeef          	jal	x29,0x7ffde80a
    80003224:	deadbeef          	jal	x29,0x7ffde80e
    80003228:	deadbeef          	jal	x29,0x7ffde812
    8000322c:	deadbeef          	jal	x29,0x7ffde816
    80003230:	deadbeef          	jal	x29,0x7ffde81a
    80003234:	deadbeef          	jal	x29,0x7ffde81e
    80003238:	deadbeef          	jal	x29,0x7ffde822
    8000323c:	deadbeef          	jal	x29,0x7ffde826
    80003240:	deadbeef          	jal	x29,0x7ffde82a
    80003244:	deadbeef          	jal	x29,0x7ffde82e
    80003248:	deadbeef          	jal	x29,0x7ffde832
    8000324c:	deadbeef          	jal	x29,0x7ffde836
    80003250:	deadbeef          	jal	x29,0x7ffde83a
    80003254:	deadbeef          	jal	x29,0x7ffde83e
    80003258:	deadbeef          	jal	x29,0x7ffde842
    8000325c:	deadbeef          	jal	x29,0x7ffde846
    80003260:	deadbeef          	jal	x29,0x7ffde84a
    80003264:	deadbeef          	jal	x29,0x7ffde84e
    80003268:	deadbeef          	jal	x29,0x7ffde852
    8000326c:	deadbeef          	jal	x29,0x7ffde856
    80003270:	deadbeef          	jal	x29,0x7ffde85a
    80003274:	deadbeef          	jal	x29,0x7ffde85e
    80003278:	deadbeef          	jal	x29,0x7ffde862
    8000327c:	deadbeef          	jal	x29,0x7ffde866
    80003280:	deadbeef          	jal	x29,0x7ffde86a
    80003284:	deadbeef          	jal	x29,0x7ffde86e
    80003288:	deadbeef          	jal	x29,0x7ffde872
    8000328c:	deadbeef          	jal	x29,0x7ffde876
    80003290:	deadbeef          	jal	x29,0x7ffde87a
    80003294:	deadbeef          	jal	x29,0x7ffde87e
    80003298:	deadbeef          	jal	x29,0x7ffde882
    8000329c:	deadbeef          	jal	x29,0x7ffde886
    800032a0:	deadbeef          	jal	x29,0x7ffde88a
    800032a4:	deadbeef          	jal	x29,0x7ffde88e
    800032a8:	deadbeef          	jal	x29,0x7ffde892
    800032ac:	deadbeef          	jal	x29,0x7ffde896
    800032b0:	deadbeef          	jal	x29,0x7ffde89a
    800032b4:	deadbeef          	jal	x29,0x7ffde89e
    800032b8:	deadbeef          	jal	x29,0x7ffde8a2
    800032bc:	deadbeef          	jal	x29,0x7ffde8a6
    800032c0:	deadbeef          	jal	x29,0x7ffde8aa
    800032c4:	deadbeef          	jal	x29,0x7ffde8ae
    800032c8:	deadbeef          	jal	x29,0x7ffde8b2
    800032cc:	deadbeef          	jal	x29,0x7ffde8b6
    800032d0:	deadbeef          	jal	x29,0x7ffde8ba
    800032d4:	deadbeef          	jal	x29,0x7ffde8be
    800032d8:	deadbeef          	jal	x29,0x7ffde8c2
    800032dc:	deadbeef          	jal	x29,0x7ffde8c6
    800032e0:	deadbeef          	jal	x29,0x7ffde8ca
    800032e4:	deadbeef          	jal	x29,0x7ffde8ce
    800032e8:	deadbeef          	jal	x29,0x7ffde8d2
    800032ec:	deadbeef          	jal	x29,0x7ffde8d6
    800032f0:	deadbeef          	jal	x29,0x7ffde8da
    800032f4:	deadbeef          	jal	x29,0x7ffde8de
    800032f8:	deadbeef          	jal	x29,0x7ffde8e2
    800032fc:	deadbeef          	jal	x29,0x7ffde8e6
    80003300:	deadbeef          	jal	x29,0x7ffde8ea
    80003304:	deadbeef          	jal	x29,0x7ffde8ee
    80003308:	deadbeef          	jal	x29,0x7ffde8f2
    8000330c:	deadbeef          	jal	x29,0x7ffde8f6
    80003310:	deadbeef          	jal	x29,0x7ffde8fa
    80003314:	deadbeef          	jal	x29,0x7ffde8fe
    80003318:	deadbeef          	jal	x29,0x7ffde902
    8000331c:	deadbeef          	jal	x29,0x7ffde906
    80003320:	deadbeef          	jal	x29,0x7ffde90a
    80003324:	deadbeef          	jal	x29,0x7ffde90e
    80003328:	deadbeef          	jal	x29,0x7ffde912
    8000332c:	deadbeef          	jal	x29,0x7ffde916
    80003330:	deadbeef          	jal	x29,0x7ffde91a
    80003334:	deadbeef          	jal	x29,0x7ffde91e
    80003338:	deadbeef          	jal	x29,0x7ffde922
    8000333c:	deadbeef          	jal	x29,0x7ffde926
    80003340:	deadbeef          	jal	x29,0x7ffde92a
    80003344:	deadbeef          	jal	x29,0x7ffde92e
    80003348:	deadbeef          	jal	x29,0x7ffde932
    8000334c:	deadbeef          	jal	x29,0x7ffde936
    80003350:	deadbeef          	jal	x29,0x7ffde93a
    80003354:	deadbeef          	jal	x29,0x7ffde93e
    80003358:	deadbeef          	jal	x29,0x7ffde942
    8000335c:	deadbeef          	jal	x29,0x7ffde946
    80003360:	deadbeef          	jal	x29,0x7ffde94a
    80003364:	deadbeef          	jal	x29,0x7ffde94e
    80003368:	deadbeef          	jal	x29,0x7ffde952
    8000336c:	deadbeef          	jal	x29,0x7ffde956
    80003370:	deadbeef          	jal	x29,0x7ffde95a
    80003374:	deadbeef          	jal	x29,0x7ffde95e
    80003378:	deadbeef          	jal	x29,0x7ffde962
    8000337c:	deadbeef          	jal	x29,0x7ffde966
    80003380:	deadbeef          	jal	x29,0x7ffde96a
    80003384:	deadbeef          	jal	x29,0x7ffde96e
    80003388:	deadbeef          	jal	x29,0x7ffde972
    8000338c:	deadbeef          	jal	x29,0x7ffde976
    80003390:	deadbeef          	jal	x29,0x7ffde97a
    80003394:	deadbeef          	jal	x29,0x7ffde97e
    80003398:	deadbeef          	jal	x29,0x7ffde982
    8000339c:	deadbeef          	jal	x29,0x7ffde986
    800033a0:	deadbeef          	jal	x29,0x7ffde98a
    800033a4:	deadbeef          	jal	x29,0x7ffde98e
    800033a8:	deadbeef          	jal	x29,0x7ffde992
    800033ac:	deadbeef          	jal	x29,0x7ffde996
    800033b0:	deadbeef          	jal	x29,0x7ffde99a
    800033b4:	deadbeef          	jal	x29,0x7ffde99e
    800033b8:	deadbeef          	jal	x29,0x7ffde9a2
    800033bc:	deadbeef          	jal	x29,0x7ffde9a6
    800033c0:	deadbeef          	jal	x29,0x7ffde9aa
    800033c4:	deadbeef          	jal	x29,0x7ffde9ae
    800033c8:	deadbeef          	jal	x29,0x7ffde9b2
    800033cc:	deadbeef          	jal	x29,0x7ffde9b6
    800033d0:	deadbeef          	jal	x29,0x7ffde9ba
    800033d4:	deadbeef          	jal	x29,0x7ffde9be
    800033d8:	deadbeef          	jal	x29,0x7ffde9c2
    800033dc:	deadbeef          	jal	x29,0x7ffde9c6
    800033e0:	deadbeef          	jal	x29,0x7ffde9ca
    800033e4:	deadbeef          	jal	x29,0x7ffde9ce
    800033e8:	deadbeef          	jal	x29,0x7ffde9d2
    800033ec:	deadbeef          	jal	x29,0x7ffde9d6
    800033f0:	deadbeef          	jal	x29,0x7ffde9da
    800033f4:	deadbeef          	jal	x29,0x7ffde9de
    800033f8:	deadbeef          	jal	x29,0x7ffde9e2
    800033fc:	deadbeef          	jal	x29,0x7ffde9e6
    80003400:	deadbeef          	jal	x29,0x7ffde9ea
    80003404:	deadbeef          	jal	x29,0x7ffde9ee
    80003408:	deadbeef          	jal	x29,0x7ffde9f2
    8000340c:	deadbeef          	jal	x29,0x7ffde9f6
    80003410:	deadbeef          	jal	x29,0x7ffde9fa
    80003414:	deadbeef          	jal	x29,0x7ffde9fe
    80003418:	deadbeef          	jal	x29,0x7ffdea02
    8000341c:	deadbeef          	jal	x29,0x7ffdea06
    80003420:	deadbeef          	jal	x29,0x7ffdea0a
    80003424:	deadbeef          	jal	x29,0x7ffdea0e
    80003428:	deadbeef          	jal	x29,0x7ffdea12
    8000342c:	deadbeef          	jal	x29,0x7ffdea16
    80003430:	deadbeef          	jal	x29,0x7ffdea1a
    80003434:	deadbeef          	jal	x29,0x7ffdea1e
    80003438:	deadbeef          	jal	x29,0x7ffdea22
    8000343c:	deadbeef          	jal	x29,0x7ffdea26
    80003440:	deadbeef          	jal	x29,0x7ffdea2a
    80003444:	deadbeef          	jal	x29,0x7ffdea2e
    80003448:	deadbeef          	jal	x29,0x7ffdea32
    8000344c:	deadbeef          	jal	x29,0x7ffdea36
    80003450:	deadbeef          	jal	x29,0x7ffdea3a
    80003454:	deadbeef          	jal	x29,0x7ffdea3e
    80003458:	deadbeef          	jal	x29,0x7ffdea42
    8000345c:	deadbeef          	jal	x29,0x7ffdea46
    80003460:	deadbeef          	jal	x29,0x7ffdea4a
    80003464:	deadbeef          	jal	x29,0x7ffdea4e
    80003468:	deadbeef          	jal	x29,0x7ffdea52
    8000346c:	deadbeef          	jal	x29,0x7ffdea56
    80003470:	deadbeef          	jal	x29,0x7ffdea5a
    80003474:	deadbeef          	jal	x29,0x7ffdea5e
    80003478:	deadbeef          	jal	x29,0x7ffdea62
    8000347c:	deadbeef          	jal	x29,0x7ffdea66
    80003480:	deadbeef          	jal	x29,0x7ffdea6a
    80003484:	deadbeef          	jal	x29,0x7ffdea6e
    80003488:	deadbeef          	jal	x29,0x7ffdea72
    8000348c:	deadbeef          	jal	x29,0x7ffdea76
    80003490:	deadbeef          	jal	x29,0x7ffdea7a
    80003494:	deadbeef          	jal	x29,0x7ffdea7e
    80003498:	deadbeef          	jal	x29,0x7ffdea82
    8000349c:	deadbeef          	jal	x29,0x7ffdea86
    800034a0:	deadbeef          	jal	x29,0x7ffdea8a
    800034a4:	deadbeef          	jal	x29,0x7ffdea8e
    800034a8:	deadbeef          	jal	x29,0x7ffdea92
    800034ac:	deadbeef          	jal	x29,0x7ffdea96
    800034b0:	deadbeef          	jal	x29,0x7ffdea9a
    800034b4:	deadbeef          	jal	x29,0x7ffdea9e
    800034b8:	deadbeef          	jal	x29,0x7ffdeaa2
    800034bc:	deadbeef          	jal	x29,0x7ffdeaa6
    800034c0:	deadbeef          	jal	x29,0x7ffdeaaa
    800034c4:	deadbeef          	jal	x29,0x7ffdeaae
    800034c8:	deadbeef          	jal	x29,0x7ffdeab2
    800034cc:	deadbeef          	jal	x29,0x7ffdeab6
    800034d0:	b281                	c.j	0x80002e10
    800034d2:	e7d4                	c.sd	x13,136(x15)
    800034d4:	a309                	c.j	0x800039d6
    800034d6:	6f5c                	c.ld	x15,152(x14)
	...
