
bin/riscv-arch-test/srli-riscv64-nemu.bin:     file format binary

Contents of section .data:
 80000000 13040000 17c10000 1301c1ff ef10902c  ...............,
 80000010 ef000003 13051000 ef10102b 13050000  ...........+....
 80000020 67800000 13051000 ef10102a 67800000  g..........*g...
 80000030 00000000 00000000 00000000 00000000  ................
 80000040 b7c0edfe 9380d0ea 9390b000 9380707f  ..............p.
 80000050 9390b000 9380f036 9390a000 9380d02a  .......6.......*
 80000060 37e176ff 130161f5 1311b100 1301b17f  7.v...a.........
 80000070 1311b100 1301715b 1311a100 13016135  ......q[......a5
 80000080 b771bb7f 9381b1fa 9391b100 9381d13f  .q.............?
 80000090 9391b100 9381b16d 9391a100 9381b13a  .......m.......:
 800000a0 37b2ddbf 1302527d 1312b200 1302e25f  7.....R}......._
 800000b0 1312b200 1302d276 1312a200 1302523d  .......v......R=
 800000c0 b7e2eedf 9382a2be 9392b200 9382f26f  ...............o
 800000d0 9392b200 9382623b 9392a200 9382a23e  ......b;.......>
 800000e0 3773f76f 130353df 1313b300 1303f337  7s.o..S........7
 800000f0 1313b300 1303b35d 1313a300 1303531f  .......]......S.
 80000100 b7b3fbb7 9383a36f 9393b300 9383f35b  .......o.......[
 80000110 9393b300 9383d36e 9393a300 9383a32f  .......n......./
 80000120 37e4fd5b 1304d4b7 1314b400 1304f42d  7..[...........-
 80000130 1314b400 13046477 1314a400 1304d437  ......dw.......7
 80000140 b7f4fead 9384e4db 9394b400 9384f456  ...............V
 80000150 9394b400 9384b47b 9394a400 9384e41b  .......{........
 80000160 3775ff56 1305f56d 1315b500 1305752b  7u.V...m......u+
 80000170 1315b500 1305d57d 1315a500 1305f52d  .......}.......-
 80000180 b7c57fab 9385f5b6 9395b500 9385b555  ...............U
 80000190 9395b500 9385e57e 9395a500 9385f536  .......~.......6
 800001a0 37e6bfd5 130676db 1316b600 1306d66a  7.....v........j
 800001b0 1316b600 1306767f 1316a600 1306761b  ......v.......v.
 800001c0 b7f6dfea 9386b6ed 9396b600 93866675  ..............fu
 800001d0 9396b600 9386b67f 9396a600 9386b62d  ...............-
 800001e0 37f76ff5 1307d776 1317b700 1307b77a  7.o....v.......z
 800001f0 1317b700 1307d73f 1317a700 1307d736  .......?.......6
 80000200 b707b8fa 938767bb 9397b700 9387577d  ......g.......W}
 80000210 9397b700 9387e75f 9397a700 9387673b  ......._......g;
 80000220 37085c7d 1308b8dd 1318b800 1308a83e  7.\}...........>
 80000230 1318b800 1308f86f 1318a800 1308b81d  .......o........
 80000240 b708aebe 9388d8ee 9398b800 9388585f  ..............X_
 80000250 9398b800 9388f837 9398a800 9388d82e  .......7........
 80000260 370957df 130969f7 1319b900 1309a96f  7.W...i........o
 80000270 1319b900 1309f95b 1319a900 13096937  .......[......i7
 80000280 b789ab6f 9389b9fb 9399b900 9389d937  ...o...........7
 80000290 9399b900 9389f92d 9399a900 9389b93b  .......-.......;
 800002a0 37cad5b7 130adafd 131aba00 130aea5b  7..............[
 800002b0 131aba00 130afa56 131aaa00 130ada3d  .......V.......=
 800002c0 b7eaeadb 938aeafe 939aba00 938afa6d  ...............m
 800002d0 939aba00 938a7a2b 939aaa00 938aea3e  ......z+.......>
 800002e0 377bf56d 130b7bff 131bbb00 130bfb36  7{.m..{........6
 800002f0 131bbb00 130bbb55 131bab00 130b7b3f  .......U......{?
 80000300 b7bbfab6 938bbb7f 939bbb00 938b7b5b  ..............{[
 80000310 939bbb00 938bdb6a 939bab00 938bbb3f  .......j.......?
 80000320 376c7ddb 130cdcbf 131cbc00 130cbc6d  7l}............m
 80000330 131cbc00 130c6c75 131cac00 130cdc3f  ......lu.......?
 80000340 b7bcbeed 938cecdf 939cbc00 938cdc76  ...............v
 80000350 939cbc00 938cbc7a 939cac00 938cec1f  .......z........
 80000360 375ddf76 130dfd6f 131dbd00 130d6d3b  7].v...o......m;
 80000370 131dbd00 130d5d7d 131dad00 130dfd2f  ......]}......./
 80000380 b7bd6fbb 938dfdb7 939dbd00 938dbd5d  ..o............]
 80000390 939dbd00 938dad3e 939dad00 938dfd37  .......>.......7
 800003a0 37deb7dd 130efe5b 131ebe00 130ede6e  7......[.......n
 800003b0 131ebe00 130e5e5f 131eae00 130efe1b  ......^_........
 800003c0 b7fedbee 938efead 939ebe00 938e6e77  ..............nw
 800003d0 939ebe00 938eae6f 939eae00 938efe2d  .......o.......-
 800003e0 37ff6df7 130fff56 131fbf00 130fbf7b  7.m....V.......{
 800003f0 131fbf00 130fdf37 131faf00 130fff16  .......7........
 80000400 b70fb7fb 938f7fab 939fbf00 938fdf7d  ...............}
 80000410 939fbf00 938fef5b 939faf00 938f7f2b  .......[.......+
 80000420 17380000 130888be 13000000 13000000  .8..............
 80000430 13000000 13000000 13000000 13000000  ................
 80000440 130df0ff 135d8d00 2330a801 1b0a1000  .....]..#0......
 80000450 131a8a03 130afaff 6304aa01 6ff09fbc  ........c...o...
 80000460 b70c0000 938c0c00 939cbc00 938c8c5a  ...............Z
 80000470 939cbc00 938ccc13 939cac00 938c3c33  ..............<3
 80000480 13d0ec00 23340800 130a0000 63040a00  ....#4......c...
 80000490 6ff05fb9 930a1000 939a5a02 93cafaff  o._.......Z.....
 800004a0 13d30a00 23386800 1b0af0ff 131a5a02  ....#8h.......Z.
 800004b0 130afaff 63046a00 6ff0dfb6 b7686666  ....c.j.o....hff
 800004c0 93886866 9398b800 93883833 9398b800  ..hf......83....
 800004d0 93889819 9398a800 93886826 93d20800  ..........h&....
 800004e0 233c5800 373a3303 1b0a3a33 131aca00  #<X.7:3...:3....
 800004f0 130a3a33 131aca00 130a3a33 131ada00  ..:3......:3....
 80000500 130a6a66 63045a00 6ff0dfb1 130f80ff  ..jfc.Z.o.......
 80000510 135cff03 23308803 130a1000 63048a01  .\..#0......c...
 80000520 6ff05fb0 13021000 13123203 9350f203  o._.......2..P..
 80000530 23341802 130a0000 63041a00 6ff09fae  #4......c...o...
 80000540 93043000 93d63400 2338d802 130a0000  ..0...4.#8......
 80000550 6304da00 6ff01fad 1301f0ff 1311f103  c...o...........
 80000560 93519100 233c3802 1b0a1000 131a6a03  .Q..#<8.......j.
 80000570 63043a00 6ff01fab 13040000 13553400  c.:.o........U4.
 80000580 2330a804 130a0000 6304aa00 6ff09fa9  #0......c...o...
 80000590 1303f0ff 13531300 935bb300 23347805  .....S...[..#4x.
 800005a0 1b0a1000 131a4a03 130afaff 63047a01  ......J.....c.z.
 800005b0 6ff05fa7 13061000 135e5601 2338c805  o._......^V.#8..
 800005c0 130a0000 6304ca01 6ff0dfa5 93072000  ....c...o..... .
 800005d0 93d3b703 233c7804 130a0000 63047a00  ....#<x.....c.z.
 800005e0 6ff05fa4 93054000 93d7f503 2330f806  o._...@.....#0..
 800005f0 130a0000 6304fa00 6ff0dfa2 93098000  ....c...o.......
 80000600 93d48900 23349806 130a0000 63049a00  ....#4......c...
 80000610 6ff05fa1 130e0001 935c7e00 23389807  o._......\~.#8..
 80000620 130a0000 63049a01 6ff0df9f 930d0002  ....c...o.......
 80000630 93df1d01 233cf807 130a0000 6304fa01  ....#<......c...
 80000640 6ff05f9e 13070004 935a1700 23305809  o._......Z..#0X.
 80000650 130a0002 63045a01 6ff0df9c 93010008  ....c.Z.o.......
 80000660 13df5100 2334e809 130a4000 6304ea01  ..Q.#4....@.c...
 80000670 6ff05f9b 13090010 13548900 23388808  o._......T..#8..
 80000680 130a1000 63048a00 6ff0df99 930f0020  ....c...o...... 
 80000690 93d8ff02 233c1809 13030000 63041301  ....#<......c...
 800006a0 6ff05f98 93030040 13d93301 2330280b  o._....@..3.#0(.
 800006b0 13030000 63042301 6ff0df96 930e1000  ....c.#.o.......
 800006c0 939ebe00 13d23e01 2334480a 13030000  ......>.#4H.....
 800006d0 63044300 6ff01f95 13000000 13000000  c.C.o...........
 800006e0 97310000 9381819d 13000000 13000000  .1..............
 800006f0 13000000 13000000 13000000 13000000  ................
 80000700 130a1000 131aca00 9359ca00 23b03101  .........Y..#.1.
 80000710 13031000 63043301 6ff0df90 93021000  ....c.3.o.......
 80000720 9392d200 13d81200 23b40101 37130000  ........#...7...
 80000730 63040301 6ff01f8f 93001000 9390e000  c...o...........
 80000740 13d78000 23b8e100 13030004 6304e300  ....#.......c...
 80000750 6ff05f8d 13051000 1315f500 13516500  o._..........Qe.
 80000760 23bc2100 13030020 63042300 6ff09f8b  #.!.... c.#.o...
 80000770 13081000 13180801 135af802 23b04103  .........Z..#.A.
 80000780 13030000 63044301 6ff0df89 93061000  ....c.C.o.......
 80000790 93961601 93ddf600 23b4b103 13034000  ........#.....@.
 800007a0 6304b301 6ff01f88 13000000 935e7000  c...o........^p.
 800007b0 23b8d103 13030000 6304d301 6ff09f86  #.......c...o...
 800007c0 130c1000 131c3c01 9355ac02 23bcb102  ......<..U..#...
 800007d0 13030000 6304b300 6ff0df84 930b1000  ....c...o.......
 800007e0 939b4b01 13db0b02 23b06105 13030000  ..K.....#.a.....
 800007f0 63046301 6ff01f83 130b1000 131b5b01  c.c.o.........[.
 80000800 13561b00 23b4c104 37031000 6304c300  .V..#...7...c...
 80000810 6ff05f81 13051000 13156501 93556500  o._.......e..Ue.
 80000820 23b8b104 37030100 6304b300 6ff08fff  #...7...c...o...
 80000830 13051000 13157501 9355d500 23bcb104  ......u..U..#...
 80000840 13030040 6304b300 6ff0cffd 13051000  ...@c...o.......
 80000850 13158501 9355f501 23b0b106 13030000  .....U..#.......
 80000860 6304b300 6ff00ffc 13051000 13159501  c...o...........
 80000870 9355b500 23b4b106 37430000 6304b300  .U..#...7C..c...
 80000880 6ff04ffa 13051000 1315a501 9355f501  o.O..........U..
 80000890 23b8b106 13030000 6304b300 6ff08ff8  #.......c...o...
 800008a0 13051000 1315b501 93552501 23bcb106  .........U%.#...
 800008b0 13030020 6304b300 6ff0cff6 13051000  ... c...o.......
 800008c0 1315c501 93550500 23b0b108 37030010  .....U..#...7...
 800008d0 6304b300 6ff00ff5 13051000 1315d501  c...o...........
 800008e0 9355a502 23b4b108 13030000 6304b300  .U..#.......c...
 800008f0 6ff04ff3 13051000 1315e501 93555501  o.O..........UU.
 80000900 23b8b108 13030020 6304b300 6ff08ff1  #...... c...o...
 80000910 13051000 1315f501 9355a500 23bcb108  .........U..#...
 80000920 37032000 6304b300 6ff0cfef 13051000  7. .c...o.......
 80000930 13150502 93553501 23b0b10a 37230000  .....U5.#...7#..
 80000940 6304b300 6ff00fee 13051000 13151502  c...o...........
 80000950 93552501 23b4b10a 37830000 6304b300  .U%.#...7...c...
 80000960 6ff04fec 13051000 13152502 93550500  o.O.......%..U..
 80000970 23b8b10a 1b031000 13132302 6304b300  #.........#.c...
 80000980 6ff04fea 13051000 13153502 93553500  o.O.......5..U5.
 80000990 23bcb10a 1b031000 13130302 6304b300  #...........c...
 800009a0 6ff04fe8 13051000 13154502 9355d500  o.O.......E..U..
 800009b0 23b0b10c 37038000 6304b300 6ff08fe6  #...7...c...o...
 800009c0 13051000 13155502 9355f501 23b4b10c  ......U..U..#...
 800009d0 13030004 6304b300 6ff0cfe4 13051000  ....c...o.......
 800009e0 13156502 9355b503 23b8b10c 13030000  ..e..U..#.......
 800009f0 6304b300 6ff00fe3 13051000 13157502  c...o.........u.
 80000a00 93554500 23bcb10c 1b031000 13133302  .UE.#.........3.
 80000a10 6304b300 6ff00fe1 13051000 13158502  c...o...........
 80000a20 93555501 23b0b10e 37030800 6304b300  .UU.#...7...c...
 80000a30 6ff04fdf 13051000 13159502 93553501  o.O..........U5.
 80000a40 23b4b10e 37034000 6304b300 6ff08fdd  #...7.@.c...o...
 80000a50 13051000 1315a502 9355d503 23b8b10e  .........U..#...
 80000a60 13030000 6304b300 6ff0cfdb 13051000  ....c...o.......
 80000a70 1315b502 9355a502 23bcb10e 13032000  .....U..#..... .
 80000a80 6304b300 6ff00fda 13051000 1315c502  c...o...........
 80000a90 93550500 23b0b110 1b031000 1313c302  .U..#...........
 80000aa0 6304b300 6ff00fd8 13051000 1315d502  c...o...........
 80000ab0 93551500 23b4b110 1b031000 1313c302  .U..#...........
 80000ac0 6304b300 6ff00fd6 13051000 1315e502  c...o...........
 80000ad0 9355b500 23b8b110 1b031000 13133302  .U..#.........3.
 80000ae0 6304b300 6ff00fd4 13051000 1315f502  c...o...........
 80000af0 9355d503 23bcb110 13030000 6304b300  .U..#.......c...
 80000b00 6ff04fd2 13051000 13150503 9355a502  o.O..........U..
 80000b10 23b0b112 13030004 6304b300 6ff08fd0  #.......c...o...
 80000b20 13051000 13151503 93558500 23b4b112  .........U..#...
 80000b30 1b031000 13139302 6304b300 6ff08fce  ........c...o...
 80000b40 13051000 13152503 93550502 23b8b112  ......%..U..#...
 80000b50 37030400 6304b300 6ff0cfcc 13051000  7...c...o.......
 80000b60 13154503 9355a502 23bcb112 13030040  ..E..U..#......@
 80000b70 6304b300 6ff00fcb 13051000 13155503  c...o.........U.
 80000b80 9355e503 23b0b114 13030000 6304b300  .U..#.......c...
 80000b90 6ff04fc9 13051000 13156503 9355d500  o.O.......e..U..
 80000ba0 23b4b114 1b031000 13139302 6304b300  #...........c...
 80000bb0 6ff04fc7 13051000 13157503 93552501  o.O.......u..U%.
 80000bc0 23b8b114 1b031000 13135302 6304b300  #.........S.c...
 80000bd0 6ff04fc5 13051000 13158503 93552501  o.O..........U%.
 80000be0 23bcb114 1b031000 13136302 6304b300  #.........c.c...
 80000bf0 6ff04fc3 13051000 13159503 9355d500  o.O..........U..
 80000c00 23b0b116 1b031000 1313c302 6304b300  #...........c...
 80000c10 6ff04fc1 13051000 1315a503 93556500  o.O..........Ue.
 80000c20 23b4b116 1b031000 13134303 6304b300  #.........C.c...
 80000c30 6ff04fbf 13051000 1315b503 93550502  o.O..........U..
 80000c40 23b8b116 37030008 6304b300 6ff08fbd  #...7...c...o...
 80000c50 13051000 1315c503 93553500 23bcb116  .........U5.#...
 80000c60 1b031000 13139303 6304b300 6ff08fbb  ........c...o...
 80000c70 13051000 1315d503 93553500 23b0b118  .........U5.#...
 80000c80 1b031000 1313a303 6304b300 6ff08fb9  ........c...o...
 80000c90 13051000 1315e503 9355f500 23b4b118  .........U..#...
 80000ca0 1b031000 1313f302 6304b300 6ff08fb7  ........c...o...
 80000cb0 1305e0ff 93550501 23b8b118 1b031000  .....U..#.......
 80000cc0 13130303 1303f3ff 6304b300 6ff08fb5  ........c...o...
 80000cd0 1305d0ff 9355d503 23bcb118 13037000  .....U..#.....p.
 80000ce0 6304b300 6ff00fb4 1305b0ff 9355f503  c...o........U..
 80000cf0 23b0b11a 13031000 6304b300 6ff08fb2  #.......c...o...
 80000d00 130570ff 93553500 23b4b11a 1b031000  ..p..U5.#.......
 80000d10 1313d303 1303e3ff 6304b300 6ff08fb0  ........c...o...
 80000d20 1305f0fe 9355c500 23b8b11a 1b031000  .....U..#.......
 80000d30 13134303 1303f3ff 6304b300 6ff08fae  ..C.....c...o...
 80000d40 1305f0fd 93556500 23bcb11a 1b031000  .....Ue.#.......
 80000d50 1313a303 1303f3ff 6304b300 6ff08fac  ........c...o...
 80000d60 1305f0fb 93555500 23b0b11c 1b031000  .....UU.#.......
 80000d70 1313b303 1303d3ff 6304b300 6ff08faa  ........c...o...
 80000d80 1305f0f7 9355d500 23b4b11c 1b031000  .....U..#.......
 80000d90 13133303 1303f3ff 6304b300 6ff08fa8  ..3.....c...o...
 80000da0 1305f0ef 9355e503 23b8b11c 13033000  .....U..#.....0.
 80000db0 6304b300 6ff00fa7 1305f0df 9355d500  c...o........U..
 80000dc0 23bcb11c 1b031000 13133303 1303f3ff  #.........3.....
 80000dd0 6304b300 6ff00fa5 1305f0bf 93559500  c...o........U..
 80000de0 23b0b11e 1b031000 13137303 1303d3ff  #.........s.....
 80000df0 6304b300 6ff00fa3 13051000 1315b500  c...o...........
 80000e00 1345f5ff 9355e500 23b4b11e 1b031000  .E...U..#.......
 80000e10 13132303 1303f3ff 6304b300 6ff08fa0  ..#.....c...o...
 80000e20 13051000 1315c500 1345f5ff 93557503  .........E...Uu.
 80000e30 23b8b11e 1303f01f 6304b300 6ff08f9e  #.......c...o...
 80000e40 13051000 1315d500 1345f5ff 93556500  .........E...Ue.
 80000e50 23bcb11e 1b031000 1313a303 1303f3f7  #...............
 80000e60 6304b300 6ff00f9c 13051000 1315e500  c...o...........
 80000e70 1345f5ff 93552501 23b0b120 1b031000  .E...U%.#.. ....
 80000e80 1313e302 1303f3ff 6304b300 6ff08f99  ........c...o...
 80000e90 13051000 1315f500 1345f5ff 93550500  .........E...U..
 80000ea0 23b4b120 3783ffff 1b03f3ff 6304b300  #.. 7.......c...
 80000eb0 6ff04f97 13051000 13150501 1345f5ff  o.O..........E..
 80000ec0 9355e500 23b8b120 1b031000 13132303  .U..#.. ......#.
 80000ed0 1303b3ff 6304b300 6ff0cf94 13051000  ....c...o.......
 80000ee0 13151501 1345f5ff 9355f501 23bcb120  .....E...U..#.. 
 80000ef0 1b031000 13131302 1303f3ff 6304b300  ............c...
 80000f00 6ff04f92 13051000 13155503 1345f5ff  o.O.......U..E..
 80000f10 93552501 23b0b122 1b03f07f 13133302  .U%.#.."......3.
 80000f20 1303f3ff 6304b300 6ff0cf8f 13051000  ....c...o.......
 80000f30 13156503 1345f5ff 9355f501 23b4b122  ..e..E...U..#.."
 80000f40 1b03f03f 13137301 1303f3ff 6304b300  ...?..s.....c...
 80000f50 6ff04f8d 13051000 13157503 1345f5ff  o.O.......u..E..
 80000f60 9355b503 23b8b122 1303f001 6304b300  .U..#.."....c...
 80000f70 6ff04f8b 13051000 13158503 1345f5ff  o.O..........E..
 80000f80 93553500 23bcb122 1b03f00f 13135303  .U5.#.."......S.
 80000f90 1303f3ff 6304b300 6ff0cf88 13051000  ....c...o.......
 80000fa0 13159503 1345f5ff 93552501 23b0b124  .....E...U%.#..$
 80000fb0 1b03f007 13137302 1303f3ff 6304b300  ......s.....c...
 80000fc0 6ff04f86 13051000 1315a503 1345f5ff  o.O..........E..
 80000fd0 93558500 23b4b124 1b03f003 13132303  .U..#..$......#.
 80000fe0 1303f3ff 6304b300 6ff0cf83 13051000  ....c...o.......
 80000ff0 1315b503 1345f5ff 93552501 23b8b124  .....E...U%.#..$
 80001000 1b03f001 13139302 1303f3ff 6304b300  ............c...
 80001010 6ff04f81 13051000 1315c503 1345f5ff  o.O..........E..
 80001020 9355b500 23bcb124 1b03f000 13131303  .U..#..$........
 80001030 1303f3ff 6304b300 6fe0dffe 13051000  ....c...o.......
 80001040 1315d503 1345f5ff 9355c500 23b0b126  .....E...U..#..&
 80001050 1b037000 13131303 1303f3ff 6304b300  ..p.........c...
 80001060 6fe05ffc 13051000 1315e503 1345f5ff  o._..........E..
 80001070 93552501 23b4b126 1b033000 1313c302  .U%.#..&..0.....
 80001080 1303f3ff 6304b300 6fe0dff9 37555555  ....c...o...7UUU
 80001090 13055555 1315b500 1305a52a 1315b500  ..UU.......*....
 800010a0 13055555 1315a500 13055515 93559500  ..UU......U..U..
 800010b0 23b8b126 37b3aa2a 1b03b3aa 1313c300  #..&7..*........
 800010c0 1303b3aa 1313c300 1303a3aa 6304b300  ............c...
 800010d0 6fe05ff5 37b5aaaa 1305a5aa 1315b500  o._.7...........
 800010e0 13055555 1315b500 1305a52a 1315a500  ..UU.......*....
 800010f0 1305a52a 93551500 23bcb126 37535505  ...*.U..#..&7SU.
 80001100 1b035355 1313c300 13035355 1313c300  ..SU......SU....
 80001110 13035355 1313c300 13035355 6304b300  ..SU......SUc...
 80001120 6fe05ff0 13055000 93553501 23b0b128  o._...P..U5.#..(
 80001130 13030000 6304b300 6fe0dfee 37353333  ....c...o...7533
 80001140 13053533 1315b500 13059519 1315b500  ..53............
 80001150 1305c54c 1315a500 13053533 93550502  ...L......53.U..
 80001160 23b4b128 37333333 1b033333 6304b300  #..(7333..33c...
 80001170 6fe05feb 37050000 1305f5ff 1315b500  o._.7...........
 80001180 13057525 1315b500 1305356c 1315a500  ..u%......5l....
 80001190 1305d50c 93555500 23b8b128 1b031000  .....UU.#..(....
 800011a0 13132302 1303d3ff 1313c300 1303f32b  ..#............+
 800011b0 1313d300 13036386 6304b300 6fe09fe6  ......c.c...o...
 800011c0 37555555 13055555 1315b500 1305a52a  7UUU..UU.......*
 800011d0 1315b500 13055555 1315a500 13054515  ......UU......E.
 800011e0 93551500 23bcb128 37b3aa02 1b03b3aa  .U..#..(7.......
 800011f0 1313c300 1303b3aa 1313c300 1303b3aa  ................
 80001200 1313c300 1303a3aa 6304b300 6fe09fe1  ........c...o...
 80001210 37353333 13053533 1315b500 13059519  7533..53........
 80001220 1315b500 1305c54c 1315a500 13052533  .......L......%3
 80001230 93557500 23b0b12a 37333333 1b033333  .Uu.#..*7333..33
 80001240 1313c300 13033333 1313d300 13036366  ......33......cf
 80001250 6304b300 6fe01fdd 37656666 13056566  c...o...7eff..ef
 80001260 1315b500 13053533 1315b500 13059519  ......53........
 80001270 1315a500 13055526 9355f502 23b4b12a  ......U&.U..#..*
 80001280 37d30000 1b03c3cc 6304b300 6fe09fd9  7.......c...o...
 80001290 37050000 13050500 1315b500 1305855a  7..............Z
 800012a0 1315b500 1305c513 1315a500 13052533  ..............%3
 800012b0 93555501 23b8b12a 1303805a 6304b300  .UU.#..*...Zc...
 800012c0 6fe05fd6 37555555 13055555 1315b500  o._.7UUU..UU....
 800012d0 1305a52a 1315b500 13055555 1315a500  ...*......UU....
 800012e0 13056515 9355b500 23bcb12a 37b3aa0a  ..e..U..#..*7...
 800012f0 1b03b3aa 1313c300 1303b3aa 1313c300  ................
 80001300 1303a3aa 6304b300 6fe0dfd1 37b5aaaa  ....c...o...7...
 80001310 1305a5aa 1315b500 13055555 1315b500  ..........UU....
 80001320 1305a52a 1315a500 1305b52a 9355a500  ...*.......*.U..
 80001330 23b0b12c 37b3aa2a 1b03b3aa 1313c300  #..,7..*........
 80001340 1303b3aa 1313c300 1303a3aa 6304b300  ............c...
 80001350 6fe05fcd 13056000 9355d500 23b4b12c  o._...`..U..#..,
 80001360 13030000 6304b300 6fe0dfcb 37353333  ....c...o...7533
 80001370 13053533 1315b500 13059519 1315b500  ..53............
 80001380 1305c54c 1315a500 13054533 9355e500  ...L......E3.U..
 80001390 23b8b12c 37d3cc00 1b03d3cc 1313c300  #..,7...........
 800013a0 1303d3cc 1313c300 1303c3cc 6304b300  ............c...
 800013b0 6fe05fc7 37656666 13056566 1315b500  o._.7eff..ef....
 800013c0 13053533 1315b500 13059519 1315a500  ..53............
 800013d0 13057526 93550500 23bcb12c 37333303  ..u&.U..#..,733.
 800013e0 1b033333 1313c300 13033333 1313c300  ..33......33....
 800013f0 13033333 1313d300 13037366 6304b300  ..33......sfc...
 80001400 6fe05fc2 37050000 1305f5ff 1315b500  o._.7...........
 80001410 13057525 1315b500 1305356c 1315a500  ..u%......5l....
 80001420 1305e50c 9355e503 23b0b12e 13033000  .....U..#.....0.
 80001430 6304b300 6fe01fbf 37050000 13050500  c...o...7.......
 80001440 1315b500 1305855a 1315b500 1305c513  .......Z........
 80001450 1315a500 13054533 93550502 23b4b12e  ......E3.U..#...
 80001460 13030000 6304b300 6fe0dfbb 13051000  ....c...o.......
 80001470 13156503 93552500 23b8b12e 1b031000  ..e..U%.#.......
 80001480 13134303 6304b300 6fe0dfb9 13051000  ..C.c...o.......
 80001490 13152501 1345f5ff 93552500 23bcb12e  ..%..E...U%.#...
 800014a0 1b031000 1313e302 1303f3ff 13130301  ................
 800014b0 1303f3ff 6304b300 6fe0dfb6 13051000  ....c...o.......
 800014c0 13153501 1345f5ff 93557503 23b0b130  ..5..E...Uu.#..0
 800014d0 1303f01f 6304b300 6fe0dfb4 13051000  ....c...o.......
 800014e0 13154501 1345f5ff 93557503 23b4b130  ..E..E...Uu.#..0
 800014f0 1303f01f 6304b300 6fe0dfb2 13051000  ....c...o.......
 80001500 13155501 1345f5ff 9355e503 23b8b130  ..U..E...U..#..0
 80001510 13033000 6304b300 6fe0dfb0 13051000  ..0.c...o.......
 80001520 13156501 1345f5ff 9355b503 23bcb130  ..e..E...U..#..0
 80001530 1303f001 6304b300 6fe0dfae 13051000  ....c...o.......
 80001540 13157501 1345f5ff 93555501 23b0b132  ..u..E...UU.#..2
 80001550 1b031000 1313b302 1303b3ff 6304b300  ............c...
 80001560 6fe05fac 13051000 13158501 1345f5ff  o._..........E..
 80001570 93551500 23b4b132 1b031000 13138302  .U..#..2........
 80001580 1303f3ff 13137301 1303f3ff 6304b300  ......s.....c...
 80001590 6fe05fa9 13051000 13159501 1345f5ff  o._..........E..
 800015a0 93552501 23b8b132 1b031000 1313e302  .U%.#..2........
 800015b0 1303f3f7 6304b300 6fe0dfa6 13051000  ....c...o.......
 800015c0 1315a501 1345f5ff 9355a500 23bcb132  .....E...U..#..2
 800015d0 1b031000 13136302 1303f3ff 13130301  ......c.........
 800015e0 1303f3ff 6304b300 6fe0dfa3 13051000  ....c...o.......
 800015f0 1315b501 1345f5ff 93550502 23b0b134  .....E...U..#..4
 80001600 1b031000 13130302 1303f3ff 6304b300  ............c...
 80001610 6fe05fa1 13051000 1315c501 1345f5ff  o._..........E..
 80001620 9355c500 23b4b134 1b031000 13134302  .U..#..4......C.
 80001630 1303f3ff 13130301 1303f3ff 6304b300  ............c...
 80001640 6fe05f9e 13051000 1315d501 1345f5ff  o._..........E..
 80001650 9355e500 23b8b134 1b031000 13133302  .U..#..4......3.
 80001660 1303f3ff 1313f300 1303f3ff 6304b300  ............c...
 80001670 6fe05f9b 13051000 1315e501 1345f5ff  o._..........E..
 80001680 93557503 23bcb134 1303f01f 6304b300  .Uu.#..4....c...
 80001690 6fe05f99 13051000 1315f501 1345f5ff  o._..........E..
 800016a0 93551500 23b0b136 1b031000 13131302  .U..#..6........
 800016b0 1303f3ff 1313e301 1303f3ff 6304b300  ............c...
 800016c0 6fe05f96 13051000 13150502 1345f5ff  o._..........E..
 800016d0 93552501 23b4b136 1b031000 13130302  .U%.#..6........
 800016e0 1303f3ff 1313e300 1303f3ff 6304b300  ............c...
 800016f0 6fe05f93 13051000 13151502 1345f5ff  o._..........E..
 80001700 93551501 23b8b136 37030080 1b03f3ff  .U..#..67.......
 80001710 13130301 1303f3ff 6304b300 6fe09f90  ........c...o...
 80001720 13051000 13152502 1345f5ff 9355e500  ......%..E...U..
 80001730 23bcb136 37030040 1b03f3ff 13134301  #..67..@......C.
 80001740 1303f3ff 6304b300 6fe0df8d 13051000  ....c...o.......
 80001750 13153502 1345f5ff 93550500 23b0b138  ..5..E...U..#..8
 80001760 1b03f0ff 13133302 1303f3ff 6304b300  ......3.....c...
 80001770 6fe05f8b 13051000 13154502 1345f5ff  o._.......E..E..
 80001780 93552500 23b4b138 37030010 1b03f3ff  .U%.#..87.......
 80001790 13132302 1303f3ff 6304b300 6fe09f88  ..#.....c...o...
 800017a0 13051000 13156502 1345f5ff 93550502  ......e..E...U..
 800017b0 23b8b138 1b031000 13130302 1303f3fb  #..8............
 800017c0 6304b300 6fe01f86 13051000 13157502  c...o.........u.
 800017d0 1345f5ff 9355a500 23bcb138 37030002  .E...U..#..87...
 800017e0 1b03f3ff 1313d301 1303f3ff 6304b300  ............c...
 800017f0 6fe05f83 13051000 13158502 1345f5ff  o._..........E..
 80001800 9355d500 23b0b13a 37030001 1b03f3ff  .U..#..:7.......
 80001810 1313b301 1303f3ff 6304b300 6fe09f80  ........c...o...
 80001820 13051000 13159502 1345f5ff 93558500  .........E...U..
 80001830 23b4b13a 37038000 1b03f3ff 13131302  #..:7...........
 80001840 1303f3ff 6304b300 6fe0cffd 13051000  ....c...o.......
 80001850 1315a502 1345f5ff 9355b500 23b8b13a  .....E...U..#..:
 80001860 37034000 1b03f3ff 1313f301 1303f3ff  7.@.............
 80001870 6304b300 6fe00ffb 13051000 1315b502  c...o...........
 80001880 1345f5ff 93556500 23bcb13a 37032000  .E...Ue.#..:7. .
 80001890 1b03f3ff 13135302 1303f3ff 6304b300  ......S.....c...
 800018a0 6fe04ff8 13051000 1315c502 1345f5ff  o.O..........E..
 800018b0 93552501 23b0b13c 37031000 1b03f3ff  .U%.#..<7.......
 800018c0 1313a301 1303f3ff 6304b300 6fe08ff5  ........c...o...
 800018d0 13051000 1315d502 1345f5ff 9355d503  .........E...U..
 800018e0 23b4b13c 13037000 6304b300 6fe08ff3  #..<..p.c...o...
 800018f0 13051000 1315e502 1345f5ff 9355a502  .........E...U..
 80001900 23b8b13c 37034000 1b03f3fe 6304b300  #..<7.@.....c...
 80001910 6fe04ff1 13051000 1315f502 1345f5ff  o.O..........E..
 80001920 93555501 23bcb13c 37030200 1b03f3ff  .UU.#..<7.......
 80001930 1313a301 1303f3ff 6304b300 6fe08fee  ........c...o...
 80001940 13051000 13150503 1345f5ff 93557500  .........E...Uu.
 80001950 23b0b13e 37030100 1b03f3ff 13139302  #..>7...........
 80001960 1303f3ff 6304b300 6fe0cfeb 13051000  ....c...o.......
 80001970 13151503 1345f5ff 9355d503 23b4b13e  .....E...U..#..>
 80001980 13037000 6304b300 6fe0cfe9 13051000  ..p.c...o.......
 80001990 13152503 1345f5ff 93555500 23b8b13e  ..%..E...UU.#..>
 800019a0 37430000 1b03f3ff 1313d302 1303f3ff  7C..............
 800019b0 6304b300 6fe00fe7 13051000 13153503  c...o.........5.
 800019c0 1345f5ff 9355d500 23bcb13e 37230000  .E...U..#..>7#..
 800019d0 1b03f3ff 13136302 1303f3ff 6304b300  ......c.....c...
 800019e0 6fe04fe4 13051000 13154503 1345f5ff  o.O.......E..E..
 800019f0 93555501 23b0b140 37130000 1b03f3ff  .UU.#..@7.......
 80001a00 1313f301 1303f3ff 6304b300 6fe08fe1  ........c...o...
 80001a10 37050000 13050500 1315b500 1305855a  7..............Z
 80001a20 1315b500 1305c513 1315a500 13053533  ..............53
 80001a30 9355e500 23b4b140 37d30200 1b033341  .U..#..@7.....3A
 80001a40 6304b300 6fe00fde 13051000 13152501  c...o.........%.
 80001a50 93557500 23b8b140 37130000 1b030380  .Uu.#..@7.......
 80001a60 6304b300 6fe00fdc 6f008003 8334811f  c...o...o....4..
 80001a70 03330120 33039300 37030000 13030300  .3. 3...7.......
 80001a80 1313b300 1303635d 1313b300 13036343  ......c]......cC
 80001a90 1313a300 1303032d 23be64fe 6f004000  .......-#.d.o.@.
 80001aa0 13050000 6f004002 00000000 00000000  ....o.@.........
 80001ab0 00000000 00000000 00000000 00000000  ................
 80001ac0 00000000 00000000 13050500 73001000  ............s...
 80001ad0 6f000000 130101ff 17050000 13050502  o...............
 80001ae0 23341100 efe0cfd2 13050500 73001000  #4..........s...
 80001af0 6f000000 00000000 00000000 00000000  o...............
 80001b00 00000000 00000000 00000000 00000000  ................
 80001b10 00000000 00000000 00000000 00000000  ................
 80001b20 00000000 00000000 00000000 00000000  ................
 80001b30 00000000 00000000 00000000 00000000  ................
 80001b40 00000000 00000000 00000000 00000000  ................
 80001b50 00000000 00000000 00000000 00000000  ................
 80001b60 00000000 00000000 00000000 00000000  ................
 80001b70 00000000 00000000 00000000 00000000  ................
 80001b80 00000000 00000000 00000000 00000000  ................
 80001b90 00000000 00000000 00000000 00000000  ................
 80001ba0 00000000 00000000 00000000 00000000  ................
 80001bb0 00000000 00000000 00000000 00000000  ................
 80001bc0 00000000 00000000 00000000 00000000  ................
 80001bd0 00000000 00000000 00000000 00000000  ................
 80001be0 00000000 00000000 00000000 00000000  ................
 80001bf0 00000000 00000000 00000000 00000000  ................
 80001c00 00000000 00000000 00000000 00000000  ................
 80001c10 00000000 00000000 00000000 00000000  ................
 80001c20 00000000 00000000 00000000 00000000  ................
 80001c30 00000000 00000000 00000000 00000000  ................
 80001c40 00000000 00000000 00000000 00000000  ................
 80001c50 00000000 00000000 00000000 00000000  ................
 80001c60 00000000 00000000 00000000 00000000  ................
 80001c70 00000000 00000000 00000000 00000000  ................
 80001c80 00000000 00000000 00000000 00000000  ................
 80001c90 00000000 00000000 00000000 00000000  ................
 80001ca0 00000000 00000000 00000000 00000000  ................
 80001cb0 00000000 00000000 00000000 00000000  ................
 80001cc0 00000000 00000000 00000000 00000000  ................
 80001cd0 00000000 00000000 00000000 00000000  ................
 80001ce0 00000000 00000000 00000000 00000000  ................
 80001cf0 00000000 00000000 00000000 00000000  ................
 80001d00 00000000 00000000 00000000 00000000  ................
 80001d10 00000000 00000000 00000000 00000000  ................
 80001d20 00000000 00000000 00000000 00000000  ................
 80001d30 00000000 00000000 00000000 00000000  ................
 80001d40 00000000 00000000 00000000 00000000  ................
 80001d50 00000000 00000000 00000000 00000000  ................
 80001d60 00000000 00000000 00000000 00000000  ................
 80001d70 00000000 00000000 00000000 00000000  ................
 80001d80 00000000 00000000 00000000 00000000  ................
 80001d90 00000000 00000000 00000000 00000000  ................
 80001da0 00000000 00000000 00000000 00000000  ................
 80001db0 00000000 00000000 00000000 00000000  ................
 80001dc0 00000000 00000000 00000000 00000000  ................
 80001dd0 00000000 00000000 00000000 00000000  ................
 80001de0 00000000 00000000 00000000 00000000  ................
 80001df0 00000000 00000000 00000000 00000000  ................
 80001e00 00000000 00000000 00000000 00000000  ................
 80001e10 00000000 00000000 00000000 00000000  ................
 80001e20 00000000 00000000 00000000 00000000  ................
 80001e30 00000000 00000000 00000000 00000000  ................
 80001e40 00000000 00000000 00000000 00000000  ................
 80001e50 00000000 00000000 00000000 00000000  ................
 80001e60 00000000 00000000 00000000 00000000  ................
 80001e70 00000000 00000000 00000000 00000000  ................
 80001e80 00000000 00000000 00000000 00000000  ................
 80001e90 00000000 00000000 00000000 00000000  ................
 80001ea0 00000000 00000000 00000000 00000000  ................
 80001eb0 00000000 00000000 00000000 00000000  ................
 80001ec0 00000000 00000000 00000000 00000000  ................
 80001ed0 00000000 00000000 00000000 00000000  ................
 80001ee0 00000000 00000000 00000000 00000000  ................
 80001ef0 00000000 00000000 00000000 00000000  ................
 80001f00 00000000 00000000 00000000 00000000  ................
 80001f10 00000000 00000000 00000000 00000000  ................
 80001f20 00000000 00000000 00000000 00000000  ................
 80001f30 00000000 00000000 00000000 00000000  ................
 80001f40 00000000 00000000 00000000 00000000  ................
 80001f50 00000000 00000000 00000000 00000000  ................
 80001f60 00000000 00000000 00000000 00000000  ................
 80001f70 00000000 00000000 00000000 00000000  ................
 80001f80 00000000 00000000 00000000 00000000  ................
 80001f90 00000000 00000000 00000000 00000000  ................
 80001fa0 00000000 00000000 00000000 00000000  ................
 80001fb0 00000000 00000000 00000000 00000000  ................
 80001fc0 00000000 00000000 00000000 00000000  ................
 80001fd0 00000000 00000000 00000000 00000000  ................
 80001fe0 00000000 00000000 00000000 00000000  ................
 80001ff0 00000000 00000000 00000000 00000000  ................
 80002000 fecabeba fecabeba fecabeba fecabeba  ................
 80002010 efbeadde efbeadde 00000000 00000000  ................
 80002020 00000000 00000000 00000000 00000000  ................
 80002030 00000000 00000000 00000000 00000000  ................
 80002040 00000000 00000000 00000000 00000000  ................
 80002050 00000000 00000000 00000000 00000000  ................
 80002060 00000000 00000000 00000000 00000000  ................
 80002070 00000000 00000000 00000000 00000000  ................
 80002080 00000000 00000000 00000000 00000000  ................
 80002090 00000000 00000000 00000000 00000000  ................
 800020a0 00000000 00000000 00000000 00000000  ................
 800020b0 00000000 00000000 00000000 00000000  ................
 800020c0 00000000 00000000 00000000 00000000  ................
 800020d0 00000000 00000000 00000000 00000000  ................
 800020e0 00000000 00000000 00000000 00000000  ................
 800020f0 00000000 00000000 00000000 00000000  ................
 80002100 00000000 00000000 00000000 00000000  ................
 80002110 00000000 00000000 00000000 00000000  ................
 80002120 00000000 00000000 00000000 00000000  ................
 80002130 00000000 00000000 00000000 00000000  ................
 80002140 00000000 00000000 00000000 00000000  ................
 80002150 00000000 00000000 00000000 00000000  ................
 80002160 00000000 00000000 00000000 00000000  ................
 80002170 00000000 00000000 00000000 00000000  ................
 80002180 00000000 00000000 00000000 00000000  ................
 80002190 00000000 00000000 00000000 00000000  ................
 800021a0 00000000 00000000 00000000 00000000  ................
 800021b0 00000000 00000000 00000000 00000000  ................
 800021c0 00000000 00000000 00000000 00000000  ................
 800021d0 00000000 00000000 00000000 00000000  ................
 800021e0 00000000 00000000 00000000 00000000  ................
 800021f0 00000000 00000000 00000000 00000000  ................
 80002200 00000000 00000000 00000000 00000000  ................
 80002210 00000000 00000000 00000000 00000000  ................
 80002220 00000000 00000000 00000000 00000000  ................
 80002230 00000000 00000000 00000000 00000000  ................
 80002240 00000000 00000000 00000000 00000000  ................
 80002250 00000000 00000000 00000000 00000000  ................
 80002260 00000000 00000000 00000000 00000000  ................
 80002270 00000000 00000000 00000000 00000000  ................
 80002280 00000000 00000000 00000000 00000000  ................
 80002290 00000000 00000000 00000000 00000000  ................
 800022a0 00000000 00000000 00000000 00000000  ................
 800022b0 00000000 00000000 00000000 00000000  ................
 800022c0 00000000 00000000 00000000 00000000  ................
 800022d0 00000000 00000000 00000000 00000000  ................
 800022e0 00000000 00000000 00000000 00000000  ................
 800022f0 00000000 00000000 00000000 00000000  ................
 80002300 00000000 00000000 00000000 00000000  ................
 80002310 00000000 00000000 00000000 00000000  ................
 80002320 00000000 00000000 00000000 00000000  ................
 80002330 00000000 00000000 00000000 00000000  ................
 80002340 00000000 00000000 00000000 00000000  ................
 80002350 00000000 00000000 00000000 00000000  ................
 80002360 00000000 00000000 00000000 00000000  ................
 80002370 00000000 00000000 00000000 00000000  ................
 80002380 00000000 00000000 00000000 00000000  ................
 80002390 00000000 00000000 00000000 00000000  ................
 800023a0 00000000 00000000 00000000 00000000  ................
 800023b0 00000000 00000000 00000000 00000000  ................
 800023c0 00000000 00000000 00000000 00000000  ................
 800023d0 00000000 00000000 00000000 00000000  ................
 800023e0 00000000 00000000 00000000 00000000  ................
 800023f0 00000000 00000000 00000000 00000000  ................
 80002400 00000000 00000000 00000000 00000000  ................
 80002410 00000000 00000000 00000000 00000000  ................
 80002420 00000000 00000000 00000000 00000000  ................
 80002430 00000000 00000000 00000000 00000000  ................
 80002440 00000000 00000000 00000000 00000000  ................
 80002450 00000000 00000000 00000000 00000000  ................
 80002460 00000000 00000000 00000000 00000000  ................
 80002470 00000000 00000000 00000000 00000000  ................
 80002480 00000000 00000000 00000000 00000000  ................
 80002490 00000000 00000000 00000000 00000000  ................
 800024a0 00000000 00000000 00000000 00000000  ................
 800024b0 00000000 00000000 00000000 00000000  ................
 800024c0 00000000 00000000 00000000 00000000  ................
 800024d0 00000000 00000000 00000000 00000000  ................
 800024e0 00000000 00000000 00000000 00000000  ................
 800024f0 00000000 00000000 00000000 00000000  ................
 80002500 00000000 00000000 00000000 00000000  ................
 80002510 00000000 00000000 00000000 00000000  ................
 80002520 00000000 00000000 00000000 00000000  ................
 80002530 00000000 00000000 00000000 00000000  ................
 80002540 00000000 00000000 00000000 00000000  ................
 80002550 00000000 00000000 00000000 00000000  ................
 80002560 00000000 00000000 00000000 00000000  ................
 80002570 00000000 00000000 00000000 00000000  ................
 80002580 00000000 00000000 00000000 00000000  ................
 80002590 00000000 00000000 00000000 00000000  ................
 800025a0 00000000 00000000 00000000 00000000  ................
 800025b0 00000000 00000000 00000000 00000000  ................
 800025c0 00000000 00000000 00000000 00000000  ................
 800025d0 00000000 00000000 00000000 00000000  ................
 800025e0 00000000 00000000 00000000 00000000  ................
 800025f0 00000000 00000000 00000000 00000000  ................
 80002600 00000000 00000000 00000000 00000000  ................
 80002610 00000000 00000000 00000000 00000000  ................
 80002620 00000000 00000000 00000000 00000000  ................
 80002630 00000000 00000000 00000000 00000000  ................
 80002640 00000000 00000000 00000000 00000000  ................
 80002650 00000000 00000000 00000000 00000000  ................
 80002660 00000000 00000000 00000000 00000000  ................
 80002670 00000000 00000000 00000000 00000000  ................
 80002680 00000000 00000000 00000000 00000000  ................
 80002690 00000000 00000000 00000000 00000000  ................
 800026a0 00000000 00000000 00000000 00000000  ................
 800026b0 00000000 00000000 00000000 00000000  ................
 800026c0 00000000 00000000 00000000 00000000  ................
 800026d0 00000000 00000000 00000000 00000000  ................
 800026e0 00000000 00000000 00000000 00000000  ................
 800026f0 00000000 00000000 00000000 00000000  ................
 80002700 00000000 00000000 00000000 00000000  ................
 80002710 00000000 00000000 00000000 00000000  ................
 80002720 00000000 00000000 00000000 00000000  ................
 80002730 00000000 00000000 00000000 00000000  ................
 80002740 00000000 00000000 00000000 00000000  ................
 80002750 00000000 00000000 00000000 00000000  ................
 80002760 00000000 00000000 00000000 00000000  ................
 80002770 00000000 00000000 00000000 00000000  ................
 80002780 00000000 00000000 00000000 00000000  ................
 80002790 00000000 00000000 00000000 00000000  ................
 800027a0 00000000 00000000 00000000 00000000  ................
 800027b0 00000000 00000000 00000000 00000000  ................
 800027c0 00000000 00000000 00000000 00000000  ................
 800027d0 00000000 00000000 00000000 00000000  ................
 800027e0 00000000 00000000 00000000 00000000  ................
 800027f0 00000000 00000000 00000000 00000000  ................
 80002800 00000000 00000000 00000000 00000000  ................
 80002810 00000000 00000000 00000000 00000000  ................
 80002820 00000000 00000000 00000000 00000000  ................
 80002830 00000000 00000000 00000000 00000000  ................
 80002840 00000000 00000000 00000000 00000000  ................
 80002850 00000000 00000000 00000000 00000000  ................
 80002860 00000000 00000000 00000000 00000000  ................
 80002870 00000000 00000000 00000000 00000000  ................
 80002880 00000000 00000000 00000000 00000000  ................
 80002890 00000000 00000000 00000000 00000000  ................
 800028a0 00000000 00000000 00000000 00000000  ................
 800028b0 00000000 00000000 00000000 00000000  ................
 800028c0 00000000 00000000 00000000 00000000  ................
 800028d0 00000000 00000000 00000000 00000000  ................
 800028e0 00000000 00000000 00000000 00000000  ................
 800028f0 00000000 00000000 00000000 00000000  ................
 80002900 00000000 00000000 00000000 00000000  ................
 80002910 00000000 00000000 00000000 00000000  ................
 80002920 00000000 00000000 00000000 00000000  ................
 80002930 00000000 00000000 00000000 00000000  ................
 80002940 00000000 00000000 00000000 00000000  ................
 80002950 00000000 00000000 00000000 00000000  ................
 80002960 00000000 00000000 00000000 00000000  ................
 80002970 00000000 00000000 00000000 00000000  ................
 80002980 00000000 00000000 00000000 00000000  ................
 80002990 00000000 00000000 00000000 00000000  ................
 800029a0 00000000 00000000 00000000 00000000  ................
 800029b0 00000000 00000000 00000000 00000000  ................
 800029c0 00000000 00000000 00000000 00000000  ................
 800029d0 00000000 00000000 00000000 00000000  ................
 800029e0 00000000 00000000 00000000 00000000  ................
 800029f0 00000000 00000000 00000000 00000000  ................
 80002a00 00000000 00000000 00000000 00000000  ................
 80002a10 00000000 00000000 00000000 00000000  ................
 80002a20 00000000 00000000 00000000 00000000  ................
 80002a30 00000000 00000000 00000000 00000000  ................
 80002a40 00000000 00000000 00000000 00000000  ................
 80002a50 00000000 00000000 00000000 00000000  ................
 80002a60 00000000 00000000 00000000 00000000  ................
 80002a70 00000000 00000000 00000000 00000000  ................
 80002a80 00000000 00000000 00000000 00000000  ................
 80002a90 00000000 00000000 00000000 00000000  ................
 80002aa0 00000000 00000000 00000000 00000000  ................
 80002ab0 00000000 00000000 00000000 00000000  ................
 80002ac0 00000000 00000000 00000000 00000000  ................
 80002ad0 00000000 00000000 00000000 00000000  ................
 80002ae0 00000000 00000000 00000000 00000000  ................
 80002af0 00000000 00000000 00000000 00000000  ................
 80002b00 00000000 00000000 00000000 00000000  ................
 80002b10 00000000 00000000 00000000 00000000  ................
 80002b20 00000000 00000000 00000000 00000000  ................
 80002b30 00000000 00000000 00000000 00000000  ................
 80002b40 00000000 00000000 00000000 00000000  ................
 80002b50 00000000 00000000 00000000 00000000  ................
 80002b60 00000000 00000000 00000000 00000000  ................
 80002b70 00000000 00000000 00000000 00000000  ................
 80002b80 00000000 00000000 00000000 00000000  ................
 80002b90 00000000 00000000 00000000 00000000  ................
 80002ba0 00000000 00000000 00000000 00000000  ................
 80002bb0 00000000 00000000 00000000 00000000  ................
 80002bc0 00000000 00000000 00000000 00000000  ................
 80002bd0 00000000 00000000 00000000 00000000  ................
 80002be0 00000000 00000000 00000000 00000000  ................
 80002bf0 00000000 00000000 00000000 00000000  ................
 80002c00 00000000 00000000 00000000 00000000  ................
 80002c10 00000000 00000000 00000000 00000000  ................
 80002c20 00000000 00000000 00000000 00000000  ................
 80002c30 00000000 00000000 00000000 00000000  ................
 80002c40 00000000 00000000 00000000 00000000  ................
 80002c50 00000000 00000000 00000000 00000000  ................
 80002c60 00000000 00000000 00000000 00000000  ................
 80002c70 00000000 00000000 00000000 00000000  ................
 80002c80 00000000 00000000 00000000 00000000  ................
 80002c90 00000000 00000000 00000000 00000000  ................
 80002ca0 00000000 00000000 00000000 00000000  ................
 80002cb0 00000000 00000000 00000000 00000000  ................
 80002cc0 00000000 00000000 00000000 00000000  ................
 80002cd0 00000000 00000000 00000000 00000000  ................
 80002ce0 00000000 00000000 00000000 00000000  ................
 80002cf0 00000000 00000000 00000000 00000000  ................
 80002d00 00000000 00000000 00000000 00000000  ................
 80002d10 00000000 00000000 00000000 00000000  ................
 80002d20 00000000 00000000 00000000 00000000  ................
 80002d30 00000000 00000000 00000000 00000000  ................
 80002d40 00000000 00000000 00000000 00000000  ................
 80002d50 00000000 00000000 00000000 00000000  ................
 80002d60 00000000 00000000 00000000 00000000  ................
 80002d70 00000000 00000000 00000000 00000000  ................
 80002d80 00000000 00000000 00000000 00000000  ................
 80002d90 00000000 00000000 00000000 00000000  ................
 80002da0 00000000 00000000 00000000 00000000  ................
 80002db0 00000000 00000000 00000000 00000000  ................
 80002dc0 00000000 00000000 00000000 00000000  ................
 80002dd0 00000000 00000000 00000000 00000000  ................
 80002de0 00000000 00000000 00000000 00000000  ................
 80002df0 00000000 00000000 00000000 00000000  ................
 80002e00 00000000 00000000 00000000 00000000  ................
 80002e10 00000000 00000000 00000000 00000000  ................
 80002e20 00000000 00000000 00000000 00000000  ................
 80002e30 00000000 00000000 00000000 00000000  ................
 80002e40 00000000 00000000 00000000 00000000  ................
 80002e50 00000000 00000000 00000000 00000000  ................
 80002e60 00000000 00000000 00000000 00000000  ................
 80002e70 00000000 00000000 00000000 00000000  ................
 80002e80 00000000 00000000 00000000 00000000  ................
 80002e90 00000000 00000000 00000000 00000000  ................
 80002ea0 00000000 00000000 00000000 00000000  ................
 80002eb0 00000000 00000000 00000000 00000000  ................
 80002ec0 00000000 00000000 00000000 00000000  ................
 80002ed0 00000000 00000000 00000000 00000000  ................
 80002ee0 00000000 00000000 00000000 00000000  ................
 80002ef0 00000000 00000000 00000000 00000000  ................
 80002f00 00000000 00000000 00000000 00000000  ................
 80002f10 00000000 00000000 00000000 00000000  ................
 80002f20 00000000 00000000 00000000 00000000  ................
 80002f30 00000000 00000000 00000000 00000000  ................
 80002f40 00000000 00000000 00000000 00000000  ................
 80002f50 00000000 00000000 00000000 00000000  ................
 80002f60 00000000 00000000 00000000 00000000  ................
 80002f70 00000000 00000000 00000000 00000000  ................
 80002f80 00000000 00000000 00000000 00000000  ................
 80002f90 00000000 00000000 00000000 00000000  ................
 80002fa0 00000000 00000000 00000000 00000000  ................
 80002fb0 00000000 00000000 00000000 00000000  ................
 80002fc0 00000000 00000000 00000000 00000000  ................
 80002fd0 00000000 00000000 00000000 00000000  ................
 80002fe0 00000000 00000000 00000000 00000000  ................
 80002ff0 00000000 00000000 00000000 00000000  ................
 80003000 81b2d4e7 09a35c6f efbeadde efbeadde  ......\o........
 80003010 efbeadde efbeadde efbeadde efbeadde  ................
 80003020 efbeadde efbeadde efbeadde efbeadde  ................
 80003030 efbeadde efbeadde efbeadde efbeadde  ................
 80003040 efbeadde efbeadde efbeadde efbeadde  ................
 80003050 efbeadde efbeadde efbeadde efbeadde  ................
 80003060 efbeadde efbeadde efbeadde efbeadde  ................
 80003070 efbeadde efbeadde efbeadde efbeadde  ................
 80003080 efbeadde efbeadde efbeadde efbeadde  ................
 80003090 efbeadde efbeadde efbeadde efbeadde  ................
 800030a0 efbeadde efbeadde efbeadde efbeadde  ................
 800030b0 efbeadde efbeadde efbeadde efbeadde  ................
 800030c0 efbeadde efbeadde efbeadde efbeadde  ................
 800030d0 efbeadde efbeadde efbeadde efbeadde  ................
 800030e0 efbeadde efbeadde efbeadde efbeadde  ................
 800030f0 efbeadde efbeadde efbeadde efbeadde  ................
 80003100 efbeadde efbeadde efbeadde efbeadde  ................
 80003110 efbeadde efbeadde efbeadde efbeadde  ................
 80003120 efbeadde efbeadde efbeadde efbeadde  ................
 80003130 efbeadde efbeadde efbeadde efbeadde  ................
 80003140 efbeadde efbeadde efbeadde efbeadde  ................
 80003150 efbeadde efbeadde efbeadde efbeadde  ................
 80003160 efbeadde efbeadde efbeadde efbeadde  ................
 80003170 efbeadde efbeadde efbeadde efbeadde  ................
 80003180 efbeadde efbeadde efbeadde efbeadde  ................
 80003190 efbeadde efbeadde efbeadde efbeadde  ................
 800031a0 efbeadde efbeadde efbeadde efbeadde  ................
 800031b0 efbeadde efbeadde efbeadde efbeadde  ................
 800031c0 efbeadde efbeadde efbeadde efbeadde  ................
 800031d0 efbeadde efbeadde efbeadde efbeadde  ................
 800031e0 efbeadde efbeadde efbeadde efbeadde  ................
 800031f0 efbeadde efbeadde efbeadde efbeadde  ................
 80003200 efbeadde efbeadde efbeadde efbeadde  ................
 80003210 efbeadde efbeadde efbeadde efbeadde  ................
 80003220 efbeadde efbeadde efbeadde efbeadde  ................
 80003230 efbeadde efbeadde efbeadde efbeadde  ................
 80003240 efbeadde efbeadde efbeadde efbeadde  ................
 80003250 efbeadde efbeadde efbeadde efbeadde  ................
 80003260 efbeadde efbeadde efbeadde efbeadde  ................
 80003270 efbeadde efbeadde efbeadde efbeadde  ................
 80003280 efbeadde efbeadde efbeadde efbeadde  ................
 80003290 efbeadde efbeadde efbeadde efbeadde  ................
 800032a0 efbeadde efbeadde efbeadde efbeadde  ................
 800032b0 efbeadde efbeadde efbeadde efbeadde  ................
 800032c0 efbeadde efbeadde efbeadde efbeadde  ................
 800032d0 efbeadde efbeadde efbeadde efbeadde  ................
 800032e0 efbeadde efbeadde efbeadde efbeadde  ................
 800032f0 efbeadde efbeadde efbeadde efbeadde  ................
 80003300 efbeadde efbeadde efbeadde efbeadde  ................
 80003310 efbeadde efbeadde efbeadde efbeadde  ................
 80003320 efbeadde efbeadde efbeadde efbeadde  ................
 80003330 efbeadde efbeadde efbeadde efbeadde  ................
 80003340 efbeadde efbeadde efbeadde efbeadde  ................
 80003350 efbeadde efbeadde efbeadde efbeadde  ................
 80003360 efbeadde efbeadde efbeadde efbeadde  ................
 80003370 efbeadde efbeadde efbeadde efbeadde  ................
 80003380 efbeadde efbeadde efbeadde efbeadde  ................
 80003390 efbeadde efbeadde efbeadde efbeadde  ................
 800033a0 efbeadde efbeadde efbeadde efbeadde  ................
 800033b0 efbeadde efbeadde efbeadde efbeadde  ................
 800033c0 efbeadde efbeadde efbeadde efbeadde  ................
 800033d0 efbeadde efbeadde efbeadde efbeadde  ................
 800033e0 efbeadde efbeadde efbeadde efbeadde  ................
 800033f0 efbeadde efbeadde efbeadde efbeadde  ................
 80003400 efbeadde efbeadde efbeadde efbeadde  ................
 80003410 efbeadde efbeadde efbeadde efbeadde  ................
 80003420 efbeadde efbeadde efbeadde efbeadde  ................
 80003430 efbeadde efbeadde efbeadde efbeadde  ................
 80003440 efbeadde efbeadde efbeadde efbeadde  ................
 80003450 efbeadde efbeadde efbeadde efbeadde  ................
 80003460 efbeadde efbeadde efbeadde efbeadde  ................
 80003470 efbeadde efbeadde efbeadde efbeadde  ................
 80003480 efbeadde efbeadde efbeadde efbeadde  ................
 80003490 efbeadde efbeadde efbeadde efbeadde  ................
 800034a0 efbeadde efbeadde efbeadde efbeadde  ................
 800034b0 efbeadde efbeadde efbeadde efbeadde  ................
 800034c0 efbeadde efbeadde efbeadde efbeadde  ................
 800034d0 81b2d4e7 09a35c6f 00000000 00000000  ......\o........

Disassembly of section .data:

0000000080000000 <.data>:
    80000000:	00000413          	addi	x8,x0,0
    80000004:	0000c117          	auipc	x2,0xc
    80000008:	ffc10113          	addi	x2,x2,-4 # 0x8000c000
    8000000c:	2c9010ef          	jal	x1,0x80001ad4
    80000010:	030000ef          	jal	x1,0x80000040
    80000014:	00100513          	addi	x10,x0,1
    80000018:	2b1010ef          	jal	x1,0x80001ac8
    8000001c:	00000513          	addi	x10,x0,0
    80000020:	00008067          	jalr	x0,0(x1)
    80000024:	00100513          	addi	x10,x0,1
    80000028:	2a1010ef          	jal	x1,0x80001ac8
    8000002c:	00008067          	jalr	x0,0(x1)
	...
    80000040:	feedc0b7          	lui	x1,0xfeedc
    80000044:	ead08093          	addi	x1,x1,-339 # 0xfffffffffeedbead
    80000048:	00b09093          	slli	x1,x1,0xb
    8000004c:	7f708093          	addi	x1,x1,2039
    80000050:	00b09093          	slli	x1,x1,0xb
    80000054:	36f08093          	addi	x1,x1,879
    80000058:	00a09093          	slli	x1,x1,0xa
    8000005c:	2ad08093          	addi	x1,x1,685
    80000060:	ff76e137          	lui	x2,0xff76e
    80000064:	f5610113          	addi	x2,x2,-170 # 0xffffffffff76df56
    80000068:	00b11113          	slli	x2,x2,0xb
    8000006c:	7fb10113          	addi	x2,x2,2043
    80000070:	00b11113          	slli	x2,x2,0xb
    80000074:	5b710113          	addi	x2,x2,1463
    80000078:	00a11113          	slli	x2,x2,0xa
    8000007c:	35610113          	addi	x2,x2,854
    80000080:	7fbb71b7          	lui	x3,0x7fbb7
    80000084:	fab18193          	addi	x3,x3,-85 # 0x7fbb6fab
    80000088:	00b19193          	slli	x3,x3,0xb
    8000008c:	3fd18193          	addi	x3,x3,1021
    80000090:	00b19193          	slli	x3,x3,0xb
    80000094:	6db18193          	addi	x3,x3,1755
    80000098:	00a19193          	slli	x3,x3,0xa
    8000009c:	3ab18193          	addi	x3,x3,939
    800000a0:	bfddb237          	lui	x4,0xbfddb
    800000a4:	7d520213          	addi	x4,x4,2005 # 0xffffffffbfddb7d5
    800000a8:	00b21213          	slli	x4,x4,0xb
    800000ac:	5fe20213          	addi	x4,x4,1534 # 0x5fe
    800000b0:	00b21213          	slli	x4,x4,0xb
    800000b4:	76d20213          	addi	x4,x4,1901 # 0x76d
    800000b8:	00a21213          	slli	x4,x4,0xa
    800000bc:	3d520213          	addi	x4,x4,981 # 0x3d5
    800000c0:	dfeee2b7          	lui	x5,0xdfeee
    800000c4:	bea28293          	addi	x5,x5,-1046 # 0xffffffffdfeedbea
    800000c8:	00b29293          	slli	x5,x5,0xb
    800000cc:	6ff28293          	addi	x5,x5,1791
    800000d0:	00b29293          	slli	x5,x5,0xb
    800000d4:	3b628293          	addi	x5,x5,950
    800000d8:	00a29293          	slli	x5,x5,0xa
    800000dc:	3ea28293          	addi	x5,x5,1002
    800000e0:	6ff77337          	lui	x6,0x6ff77
    800000e4:	df530313          	addi	x6,x6,-523 # 0x6ff76df5
    800000e8:	00b31313          	slli	x6,x6,0xb
    800000ec:	37f30313          	addi	x6,x6,895
    800000f0:	00b31313          	slli	x6,x6,0xb
    800000f4:	5db30313          	addi	x6,x6,1499
    800000f8:	00a31313          	slli	x6,x6,0xa
    800000fc:	1f530313          	addi	x6,x6,501
    80000100:	b7fbb3b7          	lui	x7,0xb7fbb
    80000104:	6fa38393          	addi	x7,x7,1786 # 0xffffffffb7fbb6fa
    80000108:	00b39393          	slli	x7,x7,0xb
    8000010c:	5bf38393          	addi	x7,x7,1471
    80000110:	00b39393          	slli	x7,x7,0xb
    80000114:	6ed38393          	addi	x7,x7,1773
    80000118:	00a39393          	slli	x7,x7,0xa
    8000011c:	2fa38393          	addi	x7,x7,762
    80000120:	5bfde437          	lui	x8,0x5bfde
    80000124:	b7d40413          	addi	x8,x8,-1155 # 0x5bfddb7d
    80000128:	00b41413          	slli	x8,x8,0xb
    8000012c:	2df40413          	addi	x8,x8,735
    80000130:	00b41413          	slli	x8,x8,0xb
    80000134:	77640413          	addi	x8,x8,1910
    80000138:	00a41413          	slli	x8,x8,0xa
    8000013c:	37d40413          	addi	x8,x8,893
    80000140:	adfef4b7          	lui	x9,0xadfef
    80000144:	dbe48493          	addi	x9,x9,-578 # 0xffffffffadfeedbe
    80000148:	00b49493          	slli	x9,x9,0xb
    8000014c:	56f48493          	addi	x9,x9,1391
    80000150:	00b49493          	slli	x9,x9,0xb
    80000154:	7bb48493          	addi	x9,x9,1979
    80000158:	00a49493          	slli	x9,x9,0xa
    8000015c:	1be48493          	addi	x9,x9,446
    80000160:	56ff7537          	lui	x10,0x56ff7
    80000164:	6df50513          	addi	x10,x10,1759 # 0x56ff76df
    80000168:	00b51513          	slli	x10,x10,0xb
    8000016c:	2b750513          	addi	x10,x10,695
    80000170:	00b51513          	slli	x10,x10,0xb
    80000174:	7dd50513          	addi	x10,x10,2013
    80000178:	00a51513          	slli	x10,x10,0xa
    8000017c:	2df50513          	addi	x10,x10,735
    80000180:	ab7fc5b7          	lui	x11,0xab7fc
    80000184:	b6f58593          	addi	x11,x11,-1169 # 0xffffffffab7fbb6f
    80000188:	00b59593          	slli	x11,x11,0xb
    8000018c:	55b58593          	addi	x11,x11,1371
    80000190:	00b59593          	slli	x11,x11,0xb
    80000194:	7ee58593          	addi	x11,x11,2030
    80000198:	00a59593          	slli	x11,x11,0xa
    8000019c:	36f58593          	addi	x11,x11,879
    800001a0:	d5bfe637          	lui	x12,0xd5bfe
    800001a4:	db760613          	addi	x12,x12,-585 # 0xffffffffd5bfddb7
    800001a8:	00b61613          	slli	x12,x12,0xb
    800001ac:	6ad60613          	addi	x12,x12,1709
    800001b0:	00b61613          	slli	x12,x12,0xb
    800001b4:	7f760613          	addi	x12,x12,2039
    800001b8:	00a61613          	slli	x12,x12,0xa
    800001bc:	1b760613          	addi	x12,x12,439
    800001c0:	eadff6b7          	lui	x13,0xeadff
    800001c4:	edb68693          	addi	x13,x13,-293 # 0xffffffffeadfeedb
    800001c8:	00b69693          	slli	x13,x13,0xb
    800001cc:	75668693          	addi	x13,x13,1878
    800001d0:	00b69693          	slli	x13,x13,0xb
    800001d4:	7fb68693          	addi	x13,x13,2043
    800001d8:	00a69693          	slli	x13,x13,0xa
    800001dc:	2db68693          	addi	x13,x13,731
    800001e0:	f56ff737          	lui	x14,0xf56ff
    800001e4:	76d70713          	addi	x14,x14,1901 # 0xfffffffff56ff76d
    800001e8:	00b71713          	slli	x14,x14,0xb
    800001ec:	7ab70713          	addi	x14,x14,1963
    800001f0:	00b71713          	slli	x14,x14,0xb
    800001f4:	3fd70713          	addi	x14,x14,1021
    800001f8:	00a71713          	slli	x14,x14,0xa
    800001fc:	36d70713          	addi	x14,x14,877
    80000200:	fab807b7          	lui	x15,0xfab80
    80000204:	bb678793          	addi	x15,x15,-1098 # 0xfffffffffab7fbb6
    80000208:	00b79793          	slli	x15,x15,0xb
    8000020c:	7d578793          	addi	x15,x15,2005
    80000210:	00b79793          	slli	x15,x15,0xb
    80000214:	5fe78793          	addi	x15,x15,1534
    80000218:	00a79793          	slli	x15,x15,0xa
    8000021c:	3b678793          	addi	x15,x15,950
    80000220:	7d5c0837          	lui	x16,0x7d5c0
    80000224:	ddb80813          	addi	x16,x16,-549 # 0x7d5bfddb
    80000228:	00b81813          	slli	x16,x16,0xb
    8000022c:	3ea80813          	addi	x16,x16,1002
    80000230:	00b81813          	slli	x16,x16,0xb
    80000234:	6ff80813          	addi	x16,x16,1791
    80000238:	00a81813          	slli	x16,x16,0xa
    8000023c:	1db80813          	addi	x16,x16,475
    80000240:	beae08b7          	lui	x17,0xbeae0
    80000244:	eed88893          	addi	x17,x17,-275 # 0xffffffffbeadfeed
    80000248:	00b89893          	slli	x17,x17,0xb
    8000024c:	5f588893          	addi	x17,x17,1525
    80000250:	00b89893          	slli	x17,x17,0xb
    80000254:	37f88893          	addi	x17,x17,895
    80000258:	00a89893          	slli	x17,x17,0xa
    8000025c:	2ed88893          	addi	x17,x17,749
    80000260:	df570937          	lui	x18,0xdf570
    80000264:	f7690913          	addi	x18,x18,-138 # 0xffffffffdf56ff76
    80000268:	00b91913          	slli	x18,x18,0xb
    8000026c:	6fa90913          	addi	x18,x18,1786
    80000270:	00b91913          	slli	x18,x18,0xb
    80000274:	5bf90913          	addi	x18,x18,1471
    80000278:	00a91913          	slli	x18,x18,0xa
    8000027c:	37690913          	addi	x18,x18,886
    80000280:	6fab89b7          	lui	x19,0x6fab8
    80000284:	fbb98993          	addi	x19,x19,-69 # 0x6fab7fbb
    80000288:	00b99993          	slli	x19,x19,0xb
    8000028c:	37d98993          	addi	x19,x19,893
    80000290:	00b99993          	slli	x19,x19,0xb
    80000294:	2df98993          	addi	x19,x19,735
    80000298:	00a99993          	slli	x19,x19,0xa
    8000029c:	3bb98993          	addi	x19,x19,955
    800002a0:	b7d5ca37          	lui	x20,0xb7d5c
    800002a4:	fdda0a13          	addi	x20,x20,-35 # 0xffffffffb7d5bfdd
    800002a8:	00ba1a13          	slli	x20,x20,0xb
    800002ac:	5bea0a13          	addi	x20,x20,1470
    800002b0:	00ba1a13          	slli	x20,x20,0xb
    800002b4:	56fa0a13          	addi	x20,x20,1391
    800002b8:	00aa1a13          	slli	x20,x20,0xa
    800002bc:	3dda0a13          	addi	x20,x20,989
    800002c0:	dbeaeab7          	lui	x21,0xdbeae
    800002c4:	feea8a93          	addi	x21,x21,-18 # 0xffffffffdbeadfee
    800002c8:	00ba9a93          	slli	x21,x21,0xb
    800002cc:	6dfa8a93          	addi	x21,x21,1759
    800002d0:	00ba9a93          	slli	x21,x21,0xb
    800002d4:	2b7a8a93          	addi	x21,x21,695
    800002d8:	00aa9a93          	slli	x21,x21,0xa
    800002dc:	3eea8a93          	addi	x21,x21,1006
    800002e0:	6df57b37          	lui	x22,0x6df57
    800002e4:	ff7b0b13          	addi	x22,x22,-9 # 0x6df56ff7
    800002e8:	00bb1b13          	slli	x22,x22,0xb
    800002ec:	36fb0b13          	addi	x22,x22,879
    800002f0:	00bb1b13          	slli	x22,x22,0xb
    800002f4:	55bb0b13          	addi	x22,x22,1371
    800002f8:	00ab1b13          	slli	x22,x22,0xa
    800002fc:	3f7b0b13          	addi	x22,x22,1015
    80000300:	b6fabbb7          	lui	x23,0xb6fab
    80000304:	7fbb8b93          	addi	x23,x23,2043 # 0xffffffffb6fab7fb
    80000308:	00bb9b93          	slli	x23,x23,0xb
    8000030c:	5b7b8b93          	addi	x23,x23,1463
    80000310:	00bb9b93          	slli	x23,x23,0xb
    80000314:	6adb8b93          	addi	x23,x23,1709
    80000318:	00ab9b93          	slli	x23,x23,0xa
    8000031c:	3fbb8b93          	addi	x23,x23,1019
    80000320:	db7d6c37          	lui	x24,0xdb7d6
    80000324:	bfdc0c13          	addi	x24,x24,-1027 # 0xffffffffdb7d5bfd
    80000328:	00bc1c13          	slli	x24,x24,0xb
    8000032c:	6dbc0c13          	addi	x24,x24,1755
    80000330:	00bc1c13          	slli	x24,x24,0xb
    80000334:	756c0c13          	addi	x24,x24,1878
    80000338:	00ac1c13          	slli	x24,x24,0xa
    8000033c:	3fdc0c13          	addi	x24,x24,1021
    80000340:	edbebcb7          	lui	x25,0xedbeb
    80000344:	dfec8c93          	addi	x25,x25,-514 # 0xffffffffedbeadfe
    80000348:	00bc9c93          	slli	x25,x25,0xb
    8000034c:	76dc8c93          	addi	x25,x25,1901
    80000350:	00bc9c93          	slli	x25,x25,0xb
    80000354:	7abc8c93          	addi	x25,x25,1963
    80000358:	00ac9c93          	slli	x25,x25,0xa
    8000035c:	1fec8c93          	addi	x25,x25,510
    80000360:	76df5d37          	lui	x26,0x76df5
    80000364:	6ffd0d13          	addi	x26,x26,1791 # 0x76df56ff
    80000368:	00bd1d13          	slli	x26,x26,0xb
    8000036c:	3b6d0d13          	addi	x26,x26,950
    80000370:	00bd1d13          	slli	x26,x26,0xb
    80000374:	7d5d0d13          	addi	x26,x26,2005
    80000378:	00ad1d13          	slli	x26,x26,0xa
    8000037c:	2ffd0d13          	addi	x26,x26,767
    80000380:	bb6fbdb7          	lui	x27,0xbb6fb
    80000384:	b7fd8d93          	addi	x27,x27,-1153 # 0xffffffffbb6fab7f
    80000388:	00bd9d93          	slli	x27,x27,0xb
    8000038c:	5dbd8d93          	addi	x27,x27,1499
    80000390:	00bd9d93          	slli	x27,x27,0xb
    80000394:	3ead8d93          	addi	x27,x27,1002
    80000398:	00ad9d93          	slli	x27,x27,0xa
    8000039c:	37fd8d93          	addi	x27,x27,895
    800003a0:	ddb7de37          	lui	x28,0xddb7d
    800003a4:	5bfe0e13          	addi	x28,x28,1471 # 0xffffffffddb7d5bf
    800003a8:	00be1e13          	slli	x28,x28,0xb
    800003ac:	6ede0e13          	addi	x28,x28,1773
    800003b0:	00be1e13          	slli	x28,x28,0xb
    800003b4:	5f5e0e13          	addi	x28,x28,1525
    800003b8:	00ae1e13          	slli	x28,x28,0xa
    800003bc:	1bfe0e13          	addi	x28,x28,447
    800003c0:	eedbfeb7          	lui	x29,0xeedbf
    800003c4:	adfe8e93          	addi	x29,x29,-1313 # 0xffffffffeedbeadf
    800003c8:	00be9e93          	slli	x29,x29,0xb
    800003cc:	776e8e93          	addi	x29,x29,1910
    800003d0:	00be9e93          	slli	x29,x29,0xb
    800003d4:	6fae8e93          	addi	x29,x29,1786
    800003d8:	00ae9e93          	slli	x29,x29,0xa
    800003dc:	2dfe8e93          	addi	x29,x29,735
    800003e0:	f76dff37          	lui	x30,0xf76df
    800003e4:	56ff0f13          	addi	x30,x30,1391 # 0xfffffffff76df56f
    800003e8:	00bf1f13          	slli	x30,x30,0xb
    800003ec:	7bbf0f13          	addi	x30,x30,1979
    800003f0:	00bf1f13          	slli	x30,x30,0xb
    800003f4:	37df0f13          	addi	x30,x30,893
    800003f8:	00af1f13          	slli	x30,x30,0xa
    800003fc:	16ff0f13          	addi	x30,x30,367
    80000400:	fbb70fb7          	lui	x31,0xfbb70
    80000404:	ab7f8f93          	addi	x31,x31,-1353 # 0xfffffffffbb6fab7
    80000408:	00bf9f93          	slli	x31,x31,0xb
    8000040c:	7ddf8f93          	addi	x31,x31,2013
    80000410:	00bf9f93          	slli	x31,x31,0xb
    80000414:	5bef8f93          	addi	x31,x31,1470
    80000418:	00af9f93          	slli	x31,x31,0xa
    8000041c:	2b7f8f93          	addi	x31,x31,695
    80000420:	00003817          	auipc	x16,0x3
    80000424:	be880813          	addi	x16,x16,-1048 # 0x80003008
    80000428:	00000013          	addi	x0,x0,0
    8000042c:	00000013          	addi	x0,x0,0
    80000430:	00000013          	addi	x0,x0,0
    80000434:	00000013          	addi	x0,x0,0
    80000438:	00000013          	addi	x0,x0,0
    8000043c:	00000013          	addi	x0,x0,0
    80000440:	fff00d13          	addi	x26,x0,-1
    80000444:	008d5d13          	srli	x26,x26,0x8
    80000448:	01a83023          	sd	x26,0(x16)
    8000044c:	00100a1b          	addiw	x20,x0,1
    80000450:	038a1a13          	slli	x20,x20,0x38
    80000454:	fffa0a13          	addi	x20,x20,-1
    80000458:	01aa0463          	beq	x20,x26,0x80000460
    8000045c:	bc9ff06f          	jal	x0,0x80000024
    80000460:	00000cb7          	lui	x25,0x0
    80000464:	000c8c93          	addi	x25,x25,0 # 0x0
    80000468:	00bc9c93          	slli	x25,x25,0xb
    8000046c:	5a8c8c93          	addi	x25,x25,1448
    80000470:	00bc9c93          	slli	x25,x25,0xb
    80000474:	13cc8c93          	addi	x25,x25,316
    80000478:	00ac9c93          	slli	x25,x25,0xa
    8000047c:	333c8c93          	addi	x25,x25,819
    80000480:	00ecd013          	srli	x0,x25,0xe
    80000484:	00083423          	sd	x0,8(x16)
    80000488:	00000a13          	addi	x20,x0,0
    8000048c:	000a0463          	beq	x20,x0,0x80000494
    80000490:	b95ff06f          	jal	x0,0x80000024
    80000494:	00100a93          	addi	x21,x0,1
    80000498:	025a9a93          	slli	x21,x21,0x25
    8000049c:	fffaca93          	xori	x21,x21,-1
    800004a0:	000ad313          	srli	x6,x21,0x0
    800004a4:	00683823          	sd	x6,16(x16)
    800004a8:	fff00a1b          	addiw	x20,x0,-1
    800004ac:	025a1a13          	slli	x20,x20,0x25
    800004b0:	fffa0a13          	addi	x20,x20,-1
    800004b4:	006a0463          	beq	x20,x6,0x800004bc
    800004b8:	b6dff06f          	jal	x0,0x80000024
    800004bc:	666668b7          	lui	x17,0x66666
    800004c0:	66688893          	addi	x17,x17,1638 # 0x66666666
    800004c4:	00b89893          	slli	x17,x17,0xb
    800004c8:	33388893          	addi	x17,x17,819
    800004cc:	00b89893          	slli	x17,x17,0xb
    800004d0:	19988893          	addi	x17,x17,409
    800004d4:	00a89893          	slli	x17,x17,0xa
    800004d8:	26688893          	addi	x17,x17,614
    800004dc:	0008d293          	srli	x5,x17,0x0
    800004e0:	00583c23          	sd	x5,24(x16)
    800004e4:	03333a37          	lui	x20,0x3333
    800004e8:	333a0a1b          	addiw	x20,x20,819 # 0x3333333
    800004ec:	00ca1a13          	slli	x20,x20,0xc
    800004f0:	333a0a13          	addi	x20,x20,819
    800004f4:	00ca1a13          	slli	x20,x20,0xc
    800004f8:	333a0a13          	addi	x20,x20,819
    800004fc:	00da1a13          	slli	x20,x20,0xd
    80000500:	666a0a13          	addi	x20,x20,1638
    80000504:	005a0463          	beq	x20,x5,0x8000050c
    80000508:	b1dff06f          	jal	x0,0x80000024
    8000050c:	ff800f13          	addi	x30,x0,-8
    80000510:	03ff5c13          	srli	x24,x30,0x3f
    80000514:	03883023          	sd	x24,32(x16)
    80000518:	00100a13          	addi	x20,x0,1
    8000051c:	018a0463          	beq	x20,x24,0x80000524
    80000520:	b05ff06f          	jal	x0,0x80000024
    80000524:	00100213          	addi	x4,x0,1
    80000528:	03321213          	slli	x4,x4,0x33
    8000052c:	03f25093          	srli	x1,x4,0x3f
    80000530:	02183423          	sd	x1,40(x16)
    80000534:	00000a13          	addi	x20,x0,0
    80000538:	001a0463          	beq	x20,x1,0x80000540
    8000053c:	ae9ff06f          	jal	x0,0x80000024
    80000540:	00300493          	addi	x9,x0,3
    80000544:	0034d693          	srli	x13,x9,0x3
    80000548:	02d83823          	sd	x13,48(x16)
    8000054c:	00000a13          	addi	x20,x0,0
    80000550:	00da0463          	beq	x20,x13,0x80000558
    80000554:	ad1ff06f          	jal	x0,0x80000024
    80000558:	fff00113          	addi	x2,x0,-1
    8000055c:	03f11113          	slli	x2,x2,0x3f
    80000560:	00915193          	srli	x3,x2,0x9
    80000564:	02383c23          	sd	x3,56(x16)
    80000568:	00100a1b          	addiw	x20,x0,1
    8000056c:	036a1a13          	slli	x20,x20,0x36
    80000570:	003a0463          	beq	x20,x3,0x80000578
    80000574:	ab1ff06f          	jal	x0,0x80000024
    80000578:	00000413          	addi	x8,x0,0
    8000057c:	00345513          	srli	x10,x8,0x3
    80000580:	04a83023          	sd	x10,64(x16)
    80000584:	00000a13          	addi	x20,x0,0
    80000588:	00aa0463          	beq	x20,x10,0x80000590
    8000058c:	a99ff06f          	jal	x0,0x80000024
    80000590:	fff00313          	addi	x6,x0,-1
    80000594:	00135313          	srli	x6,x6,0x1
    80000598:	00b35b93          	srli	x23,x6,0xb
    8000059c:	05783423          	sd	x23,72(x16)
    800005a0:	00100a1b          	addiw	x20,x0,1
    800005a4:	034a1a13          	slli	x20,x20,0x34
    800005a8:	fffa0a13          	addi	x20,x20,-1
    800005ac:	017a0463          	beq	x20,x23,0x800005b4
    800005b0:	a75ff06f          	jal	x0,0x80000024
    800005b4:	00100613          	addi	x12,x0,1
    800005b8:	01565e13          	srli	x28,x12,0x15
    800005bc:	05c83823          	sd	x28,80(x16)
    800005c0:	00000a13          	addi	x20,x0,0
    800005c4:	01ca0463          	beq	x20,x28,0x800005cc
    800005c8:	a5dff06f          	jal	x0,0x80000024
    800005cc:	00200793          	addi	x15,x0,2
    800005d0:	03b7d393          	srli	x7,x15,0x3b
    800005d4:	04783c23          	sd	x7,88(x16)
    800005d8:	00000a13          	addi	x20,x0,0
    800005dc:	007a0463          	beq	x20,x7,0x800005e4
    800005e0:	a45ff06f          	jal	x0,0x80000024
    800005e4:	00400593          	addi	x11,x0,4
    800005e8:	03f5d793          	srli	x15,x11,0x3f
    800005ec:	06f83023          	sd	x15,96(x16)
    800005f0:	00000a13          	addi	x20,x0,0
    800005f4:	00fa0463          	beq	x20,x15,0x800005fc
    800005f8:	a2dff06f          	jal	x0,0x80000024
    800005fc:	00800993          	addi	x19,x0,8
    80000600:	0089d493          	srli	x9,x19,0x8
    80000604:	06983423          	sd	x9,104(x16)
    80000608:	00000a13          	addi	x20,x0,0
    8000060c:	009a0463          	beq	x20,x9,0x80000614
    80000610:	a15ff06f          	jal	x0,0x80000024
    80000614:	01000e13          	addi	x28,x0,16
    80000618:	007e5c93          	srli	x25,x28,0x7
    8000061c:	07983823          	sd	x25,112(x16)
    80000620:	00000a13          	addi	x20,x0,0
    80000624:	019a0463          	beq	x20,x25,0x8000062c
    80000628:	9fdff06f          	jal	x0,0x80000024
    8000062c:	02000d93          	addi	x27,x0,32
    80000630:	011ddf93          	srli	x31,x27,0x11
    80000634:	07f83c23          	sd	x31,120(x16)
    80000638:	00000a13          	addi	x20,x0,0
    8000063c:	01fa0463          	beq	x20,x31,0x80000644
    80000640:	9e5ff06f          	jal	x0,0x80000024
    80000644:	04000713          	addi	x14,x0,64
    80000648:	00175a93          	srli	x21,x14,0x1
    8000064c:	09583023          	sd	x21,128(x16)
    80000650:	02000a13          	addi	x20,x0,32
    80000654:	015a0463          	beq	x20,x21,0x8000065c
    80000658:	9cdff06f          	jal	x0,0x80000024
    8000065c:	08000193          	addi	x3,x0,128
    80000660:	0051df13          	srli	x30,x3,0x5
    80000664:	09e83423          	sd	x30,136(x16)
    80000668:	00400a13          	addi	x20,x0,4
    8000066c:	01ea0463          	beq	x20,x30,0x80000674
    80000670:	9b5ff06f          	jal	x0,0x80000024
    80000674:	10000913          	addi	x18,x0,256
    80000678:	00895413          	srli	x8,x18,0x8
    8000067c:	08883823          	sd	x8,144(x16)
    80000680:	00100a13          	addi	x20,x0,1
    80000684:	008a0463          	beq	x20,x8,0x8000068c
    80000688:	99dff06f          	jal	x0,0x80000024
    8000068c:	20000f93          	addi	x31,x0,512
    80000690:	02ffd893          	srli	x17,x31,0x2f
    80000694:	09183c23          	sd	x17,152(x16)
    80000698:	00000313          	addi	x6,x0,0
    8000069c:	01130463          	beq	x6,x17,0x800006a4
    800006a0:	985ff06f          	jal	x0,0x80000024
    800006a4:	40000393          	addi	x7,x0,1024
    800006a8:	0133d913          	srli	x18,x7,0x13
    800006ac:	0b283023          	sd	x18,160(x16)
    800006b0:	00000313          	addi	x6,x0,0
    800006b4:	01230463          	beq	x6,x18,0x800006bc
    800006b8:	96dff06f          	jal	x0,0x80000024
    800006bc:	00100e93          	addi	x29,x0,1
    800006c0:	00be9e93          	slli	x29,x29,0xb
    800006c4:	013ed213          	srli	x4,x29,0x13
    800006c8:	0a483423          	sd	x4,168(x16)
    800006cc:	00000313          	addi	x6,x0,0
    800006d0:	00430463          	beq	x6,x4,0x800006d8
    800006d4:	951ff06f          	jal	x0,0x80000024
    800006d8:	00000013          	addi	x0,x0,0
    800006dc:	00000013          	addi	x0,x0,0
    800006e0:	00003197          	auipc	x3,0x3
    800006e4:	9d818193          	addi	x3,x3,-1576 # 0x800030b8
    800006e8:	00000013          	addi	x0,x0,0
    800006ec:	00000013          	addi	x0,x0,0
    800006f0:	00000013          	addi	x0,x0,0
    800006f4:	00000013          	addi	x0,x0,0
    800006f8:	00000013          	addi	x0,x0,0
    800006fc:	00000013          	addi	x0,x0,0
    80000700:	00100a13          	addi	x20,x0,1
    80000704:	00ca1a13          	slli	x20,x20,0xc
    80000708:	00ca5993          	srli	x19,x20,0xc
    8000070c:	0131b023          	sd	x19,0(x3)
    80000710:	00100313          	addi	x6,x0,1
    80000714:	01330463          	beq	x6,x19,0x8000071c
    80000718:	90dff06f          	jal	x0,0x80000024
    8000071c:	00100293          	addi	x5,x0,1
    80000720:	00d29293          	slli	x5,x5,0xd
    80000724:	0012d813          	srli	x16,x5,0x1
    80000728:	0101b423          	sd	x16,8(x3)
    8000072c:	00001337          	lui	x6,0x1
    80000730:	01030463          	beq	x6,x16,0x80000738
    80000734:	8f1ff06f          	jal	x0,0x80000024
    80000738:	00100093          	addi	x1,x0,1
    8000073c:	00e09093          	slli	x1,x1,0xe
    80000740:	0080d713          	srli	x14,x1,0x8
    80000744:	00e1b823          	sd	x14,16(x3)
    80000748:	04000313          	addi	x6,x0,64
    8000074c:	00e30463          	beq	x6,x14,0x80000754
    80000750:	8d5ff06f          	jal	x0,0x80000024
    80000754:	00100513          	addi	x10,x0,1
    80000758:	00f51513          	slli	x10,x10,0xf
    8000075c:	00655113          	srli	x2,x10,0x6
    80000760:	0021bc23          	sd	x2,24(x3)
    80000764:	20000313          	addi	x6,x0,512
    80000768:	00230463          	beq	x6,x2,0x80000770
    8000076c:	8b9ff06f          	jal	x0,0x80000024
    80000770:	00100813          	addi	x16,x0,1
    80000774:	01081813          	slli	x16,x16,0x10
    80000778:	02f85a13          	srli	x20,x16,0x2f
    8000077c:	0341b023          	sd	x20,32(x3)
    80000780:	00000313          	addi	x6,x0,0
    80000784:	01430463          	beq	x6,x20,0x8000078c
    80000788:	89dff06f          	jal	x0,0x80000024
    8000078c:	00100693          	addi	x13,x0,1
    80000790:	01169693          	slli	x13,x13,0x11
    80000794:	00f6dd93          	srli	x27,x13,0xf
    80000798:	03b1b423          	sd	x27,40(x3)
    8000079c:	00400313          	addi	x6,x0,4
    800007a0:	01b30463          	beq	x6,x27,0x800007a8
    800007a4:	881ff06f          	jal	x0,0x80000024
    800007a8:	00000013          	addi	x0,x0,0
    800007ac:	00705e93          	srli	x29,x0,0x7
    800007b0:	03d1b823          	sd	x29,48(x3)
    800007b4:	00000313          	addi	x6,x0,0
    800007b8:	01d30463          	beq	x6,x29,0x800007c0
    800007bc:	869ff06f          	jal	x0,0x80000024
    800007c0:	00100c13          	addi	x24,x0,1
    800007c4:	013c1c13          	slli	x24,x24,0x13
    800007c8:	02ac5593          	srli	x11,x24,0x2a
    800007cc:	02b1bc23          	sd	x11,56(x3)
    800007d0:	00000313          	addi	x6,x0,0
    800007d4:	00b30463          	beq	x6,x11,0x800007dc
    800007d8:	84dff06f          	jal	x0,0x80000024
    800007dc:	00100b93          	addi	x23,x0,1
    800007e0:	014b9b93          	slli	x23,x23,0x14
    800007e4:	020bdb13          	srli	x22,x23,0x20
    800007e8:	0561b023          	sd	x22,64(x3)
    800007ec:	00000313          	addi	x6,x0,0
    800007f0:	01630463          	beq	x6,x22,0x800007f8
    800007f4:	831ff06f          	jal	x0,0x80000024
    800007f8:	00100b13          	addi	x22,x0,1
    800007fc:	015b1b13          	slli	x22,x22,0x15
    80000800:	001b5613          	srli	x12,x22,0x1
    80000804:	04c1b423          	sd	x12,72(x3)
    80000808:	00100337          	lui	x6,0x100
    8000080c:	00c30463          	beq	x6,x12,0x80000814
    80000810:	815ff06f          	jal	x0,0x80000024
    80000814:	00100513          	addi	x10,x0,1
    80000818:	01651513          	slli	x10,x10,0x16
    8000081c:	00655593          	srli	x11,x10,0x6
    80000820:	04b1b823          	sd	x11,80(x3)
    80000824:	00010337          	lui	x6,0x10
    80000828:	00b30463          	beq	x6,x11,0x80000830
    8000082c:	ff8ff06f          	jal	x0,0x80000024
    80000830:	00100513          	addi	x10,x0,1
    80000834:	01751513          	slli	x10,x10,0x17
    80000838:	00d55593          	srli	x11,x10,0xd
    8000083c:	04b1bc23          	sd	x11,88(x3)
    80000840:	40000313          	addi	x6,x0,1024
    80000844:	00b30463          	beq	x6,x11,0x8000084c
    80000848:	fdcff06f          	jal	x0,0x80000024
    8000084c:	00100513          	addi	x10,x0,1
    80000850:	01851513          	slli	x10,x10,0x18
    80000854:	01f55593          	srli	x11,x10,0x1f
    80000858:	06b1b023          	sd	x11,96(x3)
    8000085c:	00000313          	addi	x6,x0,0
    80000860:	00b30463          	beq	x6,x11,0x80000868
    80000864:	fc0ff06f          	jal	x0,0x80000024
    80000868:	00100513          	addi	x10,x0,1
    8000086c:	01951513          	slli	x10,x10,0x19
    80000870:	00b55593          	srli	x11,x10,0xb
    80000874:	06b1b423          	sd	x11,104(x3)
    80000878:	00004337          	lui	x6,0x4
    8000087c:	00b30463          	beq	x6,x11,0x80000884
    80000880:	fa4ff06f          	jal	x0,0x80000024
    80000884:	00100513          	addi	x10,x0,1
    80000888:	01a51513          	slli	x10,x10,0x1a
    8000088c:	01f55593          	srli	x11,x10,0x1f
    80000890:	06b1b823          	sd	x11,112(x3)
    80000894:	00000313          	addi	x6,x0,0
    80000898:	00b30463          	beq	x6,x11,0x800008a0
    8000089c:	f88ff06f          	jal	x0,0x80000024
    800008a0:	00100513          	addi	x10,x0,1
    800008a4:	01b51513          	slli	x10,x10,0x1b
    800008a8:	01255593          	srli	x11,x10,0x12
    800008ac:	06b1bc23          	sd	x11,120(x3)
    800008b0:	20000313          	addi	x6,x0,512
    800008b4:	00b30463          	beq	x6,x11,0x800008bc
    800008b8:	f6cff06f          	jal	x0,0x80000024
    800008bc:	00100513          	addi	x10,x0,1
    800008c0:	01c51513          	slli	x10,x10,0x1c
    800008c4:	00055593          	srli	x11,x10,0x0
    800008c8:	08b1b023          	sd	x11,128(x3)
    800008cc:	10000337          	lui	x6,0x10000
    800008d0:	00b30463          	beq	x6,x11,0x800008d8
    800008d4:	f50ff06f          	jal	x0,0x80000024
    800008d8:	00100513          	addi	x10,x0,1
    800008dc:	01d51513          	slli	x10,x10,0x1d
    800008e0:	02a55593          	srli	x11,x10,0x2a
    800008e4:	08b1b423          	sd	x11,136(x3)
    800008e8:	00000313          	addi	x6,x0,0
    800008ec:	00b30463          	beq	x6,x11,0x800008f4
    800008f0:	f34ff06f          	jal	x0,0x80000024
    800008f4:	00100513          	addi	x10,x0,1
    800008f8:	01e51513          	slli	x10,x10,0x1e
    800008fc:	01555593          	srli	x11,x10,0x15
    80000900:	08b1b823          	sd	x11,144(x3)
    80000904:	20000313          	addi	x6,x0,512
    80000908:	00b30463          	beq	x6,x11,0x80000910
    8000090c:	f18ff06f          	jal	x0,0x80000024
    80000910:	00100513          	addi	x10,x0,1
    80000914:	01f51513          	slli	x10,x10,0x1f
    80000918:	00a55593          	srli	x11,x10,0xa
    8000091c:	08b1bc23          	sd	x11,152(x3)
    80000920:	00200337          	lui	x6,0x200
    80000924:	00b30463          	beq	x6,x11,0x8000092c
    80000928:	efcff06f          	jal	x0,0x80000024
    8000092c:	00100513          	addi	x10,x0,1
    80000930:	02051513          	slli	x10,x10,0x20
    80000934:	01355593          	srli	x11,x10,0x13
    80000938:	0ab1b023          	sd	x11,160(x3)
    8000093c:	00002337          	lui	x6,0x2
    80000940:	00b30463          	beq	x6,x11,0x80000948
    80000944:	ee0ff06f          	jal	x0,0x80000024
    80000948:	00100513          	addi	x10,x0,1
    8000094c:	02151513          	slli	x10,x10,0x21
    80000950:	01255593          	srli	x11,x10,0x12
    80000954:	0ab1b423          	sd	x11,168(x3)
    80000958:	00008337          	lui	x6,0x8
    8000095c:	00b30463          	beq	x6,x11,0x80000964
    80000960:	ec4ff06f          	jal	x0,0x80000024
    80000964:	00100513          	addi	x10,x0,1
    80000968:	02251513          	slli	x10,x10,0x22
    8000096c:	00055593          	srli	x11,x10,0x0
    80000970:	0ab1b823          	sd	x11,176(x3)
    80000974:	0010031b          	addiw	x6,x0,1
    80000978:	02231313          	slli	x6,x6,0x22
    8000097c:	00b30463          	beq	x6,x11,0x80000984
    80000980:	ea4ff06f          	jal	x0,0x80000024
    80000984:	00100513          	addi	x10,x0,1
    80000988:	02351513          	slli	x10,x10,0x23
    8000098c:	00355593          	srli	x11,x10,0x3
    80000990:	0ab1bc23          	sd	x11,184(x3)
    80000994:	0010031b          	addiw	x6,x0,1
    80000998:	02031313          	slli	x6,x6,0x20
    8000099c:	00b30463          	beq	x6,x11,0x800009a4
    800009a0:	e84ff06f          	jal	x0,0x80000024
    800009a4:	00100513          	addi	x10,x0,1
    800009a8:	02451513          	slli	x10,x10,0x24
    800009ac:	00d55593          	srli	x11,x10,0xd
    800009b0:	0cb1b023          	sd	x11,192(x3)
    800009b4:	00800337          	lui	x6,0x800
    800009b8:	00b30463          	beq	x6,x11,0x800009c0
    800009bc:	e68ff06f          	jal	x0,0x80000024
    800009c0:	00100513          	addi	x10,x0,1
    800009c4:	02551513          	slli	x10,x10,0x25
    800009c8:	01f55593          	srli	x11,x10,0x1f
    800009cc:	0cb1b423          	sd	x11,200(x3)
    800009d0:	04000313          	addi	x6,x0,64
    800009d4:	00b30463          	beq	x6,x11,0x800009dc
    800009d8:	e4cff06f          	jal	x0,0x80000024
    800009dc:	00100513          	addi	x10,x0,1
    800009e0:	02651513          	slli	x10,x10,0x26
    800009e4:	03b55593          	srli	x11,x10,0x3b
    800009e8:	0cb1b823          	sd	x11,208(x3)
    800009ec:	00000313          	addi	x6,x0,0
    800009f0:	00b30463          	beq	x6,x11,0x800009f8
    800009f4:	e30ff06f          	jal	x0,0x80000024
    800009f8:	00100513          	addi	x10,x0,1
    800009fc:	02751513          	slli	x10,x10,0x27
    80000a00:	00455593          	srli	x11,x10,0x4
    80000a04:	0cb1bc23          	sd	x11,216(x3)
    80000a08:	0010031b          	addiw	x6,x0,1
    80000a0c:	02331313          	slli	x6,x6,0x23
    80000a10:	00b30463          	beq	x6,x11,0x80000a18
    80000a14:	e10ff06f          	jal	x0,0x80000024
    80000a18:	00100513          	addi	x10,x0,1
    80000a1c:	02851513          	slli	x10,x10,0x28
    80000a20:	01555593          	srli	x11,x10,0x15
    80000a24:	0eb1b023          	sd	x11,224(x3)
    80000a28:	00080337          	lui	x6,0x80
    80000a2c:	00b30463          	beq	x6,x11,0x80000a34
    80000a30:	df4ff06f          	jal	x0,0x80000024
    80000a34:	00100513          	addi	x10,x0,1
    80000a38:	02951513          	slli	x10,x10,0x29
    80000a3c:	01355593          	srli	x11,x10,0x13
    80000a40:	0eb1b423          	sd	x11,232(x3)
    80000a44:	00400337          	lui	x6,0x400
    80000a48:	00b30463          	beq	x6,x11,0x80000a50
    80000a4c:	dd8ff06f          	jal	x0,0x80000024
    80000a50:	00100513          	addi	x10,x0,1
    80000a54:	02a51513          	slli	x10,x10,0x2a
    80000a58:	03d55593          	srli	x11,x10,0x3d
    80000a5c:	0eb1b823          	sd	x11,240(x3)
    80000a60:	00000313          	addi	x6,x0,0
    80000a64:	00b30463          	beq	x6,x11,0x80000a6c
    80000a68:	dbcff06f          	jal	x0,0x80000024
    80000a6c:	00100513          	addi	x10,x0,1
    80000a70:	02b51513          	slli	x10,x10,0x2b
    80000a74:	02a55593          	srli	x11,x10,0x2a
    80000a78:	0eb1bc23          	sd	x11,248(x3)
    80000a7c:	00200313          	addi	x6,x0,2
    80000a80:	00b30463          	beq	x6,x11,0x80000a88
    80000a84:	da0ff06f          	jal	x0,0x80000024
    80000a88:	00100513          	addi	x10,x0,1
    80000a8c:	02c51513          	slli	x10,x10,0x2c
    80000a90:	00055593          	srli	x11,x10,0x0
    80000a94:	10b1b023          	sd	x11,256(x3)
    80000a98:	0010031b          	addiw	x6,x0,1
    80000a9c:	02c31313          	slli	x6,x6,0x2c
    80000aa0:	00b30463          	beq	x6,x11,0x80000aa8
    80000aa4:	d80ff06f          	jal	x0,0x80000024
    80000aa8:	00100513          	addi	x10,x0,1
    80000aac:	02d51513          	slli	x10,x10,0x2d
    80000ab0:	00155593          	srli	x11,x10,0x1
    80000ab4:	10b1b423          	sd	x11,264(x3)
    80000ab8:	0010031b          	addiw	x6,x0,1
    80000abc:	02c31313          	slli	x6,x6,0x2c
    80000ac0:	00b30463          	beq	x6,x11,0x80000ac8
    80000ac4:	d60ff06f          	jal	x0,0x80000024
    80000ac8:	00100513          	addi	x10,x0,1
    80000acc:	02e51513          	slli	x10,x10,0x2e
    80000ad0:	00b55593          	srli	x11,x10,0xb
    80000ad4:	10b1b823          	sd	x11,272(x3)
    80000ad8:	0010031b          	addiw	x6,x0,1
    80000adc:	02331313          	slli	x6,x6,0x23
    80000ae0:	00b30463          	beq	x6,x11,0x80000ae8
    80000ae4:	d40ff06f          	jal	x0,0x80000024
    80000ae8:	00100513          	addi	x10,x0,1
    80000aec:	02f51513          	slli	x10,x10,0x2f
    80000af0:	03d55593          	srli	x11,x10,0x3d
    80000af4:	10b1bc23          	sd	x11,280(x3)
    80000af8:	00000313          	addi	x6,x0,0
    80000afc:	00b30463          	beq	x6,x11,0x80000b04
    80000b00:	d24ff06f          	jal	x0,0x80000024
    80000b04:	00100513          	addi	x10,x0,1
    80000b08:	03051513          	slli	x10,x10,0x30
    80000b0c:	02a55593          	srli	x11,x10,0x2a
    80000b10:	12b1b023          	sd	x11,288(x3)
    80000b14:	04000313          	addi	x6,x0,64
    80000b18:	00b30463          	beq	x6,x11,0x80000b20
    80000b1c:	d08ff06f          	jal	x0,0x80000024
    80000b20:	00100513          	addi	x10,x0,1
    80000b24:	03151513          	slli	x10,x10,0x31
    80000b28:	00855593          	srli	x11,x10,0x8
    80000b2c:	12b1b423          	sd	x11,296(x3)
    80000b30:	0010031b          	addiw	x6,x0,1
    80000b34:	02931313          	slli	x6,x6,0x29
    80000b38:	00b30463          	beq	x6,x11,0x80000b40
    80000b3c:	ce8ff06f          	jal	x0,0x80000024
    80000b40:	00100513          	addi	x10,x0,1
    80000b44:	03251513          	slli	x10,x10,0x32
    80000b48:	02055593          	srli	x11,x10,0x20
    80000b4c:	12b1b823          	sd	x11,304(x3)
    80000b50:	00040337          	lui	x6,0x40
    80000b54:	00b30463          	beq	x6,x11,0x80000b5c
    80000b58:	cccff06f          	jal	x0,0x80000024
    80000b5c:	00100513          	addi	x10,x0,1
    80000b60:	03451513          	slli	x10,x10,0x34
    80000b64:	02a55593          	srli	x11,x10,0x2a
    80000b68:	12b1bc23          	sd	x11,312(x3)
    80000b6c:	40000313          	addi	x6,x0,1024
    80000b70:	00b30463          	beq	x6,x11,0x80000b78
    80000b74:	cb0ff06f          	jal	x0,0x80000024
    80000b78:	00100513          	addi	x10,x0,1
    80000b7c:	03551513          	slli	x10,x10,0x35
    80000b80:	03e55593          	srli	x11,x10,0x3e
    80000b84:	14b1b023          	sd	x11,320(x3)
    80000b88:	00000313          	addi	x6,x0,0
    80000b8c:	00b30463          	beq	x6,x11,0x80000b94
    80000b90:	c94ff06f          	jal	x0,0x80000024
    80000b94:	00100513          	addi	x10,x0,1
    80000b98:	03651513          	slli	x10,x10,0x36
    80000b9c:	00d55593          	srli	x11,x10,0xd
    80000ba0:	14b1b423          	sd	x11,328(x3)
    80000ba4:	0010031b          	addiw	x6,x0,1
    80000ba8:	02931313          	slli	x6,x6,0x29
    80000bac:	00b30463          	beq	x6,x11,0x80000bb4
    80000bb0:	c74ff06f          	jal	x0,0x80000024
    80000bb4:	00100513          	addi	x10,x0,1
    80000bb8:	03751513          	slli	x10,x10,0x37
    80000bbc:	01255593          	srli	x11,x10,0x12
    80000bc0:	14b1b823          	sd	x11,336(x3)
    80000bc4:	0010031b          	addiw	x6,x0,1
    80000bc8:	02531313          	slli	x6,x6,0x25
    80000bcc:	00b30463          	beq	x6,x11,0x80000bd4
    80000bd0:	c54ff06f          	jal	x0,0x80000024
    80000bd4:	00100513          	addi	x10,x0,1
    80000bd8:	03851513          	slli	x10,x10,0x38
    80000bdc:	01255593          	srli	x11,x10,0x12
    80000be0:	14b1bc23          	sd	x11,344(x3)
    80000be4:	0010031b          	addiw	x6,x0,1
    80000be8:	02631313          	slli	x6,x6,0x26
    80000bec:	00b30463          	beq	x6,x11,0x80000bf4
    80000bf0:	c34ff06f          	jal	x0,0x80000024
    80000bf4:	00100513          	addi	x10,x0,1
    80000bf8:	03951513          	slli	x10,x10,0x39
    80000bfc:	00d55593          	srli	x11,x10,0xd
    80000c00:	16b1b023          	sd	x11,352(x3)
    80000c04:	0010031b          	addiw	x6,x0,1
    80000c08:	02c31313          	slli	x6,x6,0x2c
    80000c0c:	00b30463          	beq	x6,x11,0x80000c14
    80000c10:	c14ff06f          	jal	x0,0x80000024
    80000c14:	00100513          	addi	x10,x0,1
    80000c18:	03a51513          	slli	x10,x10,0x3a
    80000c1c:	00655593          	srli	x11,x10,0x6
    80000c20:	16b1b423          	sd	x11,360(x3)
    80000c24:	0010031b          	addiw	x6,x0,1
    80000c28:	03431313          	slli	x6,x6,0x34
    80000c2c:	00b30463          	beq	x6,x11,0x80000c34
    80000c30:	bf4ff06f          	jal	x0,0x80000024
    80000c34:	00100513          	addi	x10,x0,1
    80000c38:	03b51513          	slli	x10,x10,0x3b
    80000c3c:	02055593          	srli	x11,x10,0x20
    80000c40:	16b1b823          	sd	x11,368(x3)
    80000c44:	08000337          	lui	x6,0x8000
    80000c48:	00b30463          	beq	x6,x11,0x80000c50
    80000c4c:	bd8ff06f          	jal	x0,0x80000024
    80000c50:	00100513          	addi	x10,x0,1
    80000c54:	03c51513          	slli	x10,x10,0x3c
    80000c58:	00355593          	srli	x11,x10,0x3
    80000c5c:	16b1bc23          	sd	x11,376(x3)
    80000c60:	0010031b          	addiw	x6,x0,1
    80000c64:	03931313          	slli	x6,x6,0x39
    80000c68:	00b30463          	beq	x6,x11,0x80000c70
    80000c6c:	bb8ff06f          	jal	x0,0x80000024
    80000c70:	00100513          	addi	x10,x0,1
    80000c74:	03d51513          	slli	x10,x10,0x3d
    80000c78:	00355593          	srli	x11,x10,0x3
    80000c7c:	18b1b023          	sd	x11,384(x3)
    80000c80:	0010031b          	addiw	x6,x0,1
    80000c84:	03a31313          	slli	x6,x6,0x3a
    80000c88:	00b30463          	beq	x6,x11,0x80000c90
    80000c8c:	b98ff06f          	jal	x0,0x80000024
    80000c90:	00100513          	addi	x10,x0,1
    80000c94:	03e51513          	slli	x10,x10,0x3e
    80000c98:	00f55593          	srli	x11,x10,0xf
    80000c9c:	18b1b423          	sd	x11,392(x3)
    80000ca0:	0010031b          	addiw	x6,x0,1
    80000ca4:	02f31313          	slli	x6,x6,0x2f
    80000ca8:	00b30463          	beq	x6,x11,0x80000cb0
    80000cac:	b78ff06f          	jal	x0,0x80000024
    80000cb0:	ffe00513          	addi	x10,x0,-2
    80000cb4:	01055593          	srli	x11,x10,0x10
    80000cb8:	18b1b823          	sd	x11,400(x3)
    80000cbc:	0010031b          	addiw	x6,x0,1
    80000cc0:	03031313          	slli	x6,x6,0x30
    80000cc4:	fff30313          	addi	x6,x6,-1 # 0x7ffffff
    80000cc8:	00b30463          	beq	x6,x11,0x80000cd0
    80000ccc:	b58ff06f          	jal	x0,0x80000024
    80000cd0:	ffd00513          	addi	x10,x0,-3
    80000cd4:	03d55593          	srli	x11,x10,0x3d
    80000cd8:	18b1bc23          	sd	x11,408(x3)
    80000cdc:	00700313          	addi	x6,x0,7
    80000ce0:	00b30463          	beq	x6,x11,0x80000ce8
    80000ce4:	b40ff06f          	jal	x0,0x80000024
    80000ce8:	ffb00513          	addi	x10,x0,-5
    80000cec:	03f55593          	srli	x11,x10,0x3f
    80000cf0:	1ab1b023          	sd	x11,416(x3)
    80000cf4:	00100313          	addi	x6,x0,1
    80000cf8:	00b30463          	beq	x6,x11,0x80000d00
    80000cfc:	b28ff06f          	jal	x0,0x80000024
    80000d00:	ff700513          	addi	x10,x0,-9
    80000d04:	00355593          	srli	x11,x10,0x3
    80000d08:	1ab1b423          	sd	x11,424(x3)
    80000d0c:	0010031b          	addiw	x6,x0,1
    80000d10:	03d31313          	slli	x6,x6,0x3d
    80000d14:	ffe30313          	addi	x6,x6,-2
    80000d18:	00b30463          	beq	x6,x11,0x80000d20
    80000d1c:	b08ff06f          	jal	x0,0x80000024
    80000d20:	fef00513          	addi	x10,x0,-17
    80000d24:	00c55593          	srli	x11,x10,0xc
    80000d28:	1ab1b823          	sd	x11,432(x3)
    80000d2c:	0010031b          	addiw	x6,x0,1
    80000d30:	03431313          	slli	x6,x6,0x34
    80000d34:	fff30313          	addi	x6,x6,-1
    80000d38:	00b30463          	beq	x6,x11,0x80000d40
    80000d3c:	ae8ff06f          	jal	x0,0x80000024
    80000d40:	fdf00513          	addi	x10,x0,-33
    80000d44:	00655593          	srli	x11,x10,0x6
    80000d48:	1ab1bc23          	sd	x11,440(x3)
    80000d4c:	0010031b          	addiw	x6,x0,1
    80000d50:	03a31313          	slli	x6,x6,0x3a
    80000d54:	fff30313          	addi	x6,x6,-1
    80000d58:	00b30463          	beq	x6,x11,0x80000d60
    80000d5c:	ac8ff06f          	jal	x0,0x80000024
    80000d60:	fbf00513          	addi	x10,x0,-65
    80000d64:	00555593          	srli	x11,x10,0x5
    80000d68:	1cb1b023          	sd	x11,448(x3)
    80000d6c:	0010031b          	addiw	x6,x0,1
    80000d70:	03b31313          	slli	x6,x6,0x3b
    80000d74:	ffd30313          	addi	x6,x6,-3
    80000d78:	00b30463          	beq	x6,x11,0x80000d80
    80000d7c:	aa8ff06f          	jal	x0,0x80000024
    80000d80:	f7f00513          	addi	x10,x0,-129
    80000d84:	00d55593          	srli	x11,x10,0xd
    80000d88:	1cb1b423          	sd	x11,456(x3)
    80000d8c:	0010031b          	addiw	x6,x0,1
    80000d90:	03331313          	slli	x6,x6,0x33
    80000d94:	fff30313          	addi	x6,x6,-1
    80000d98:	00b30463          	beq	x6,x11,0x80000da0
    80000d9c:	a88ff06f          	jal	x0,0x80000024
    80000da0:	eff00513          	addi	x10,x0,-257
    80000da4:	03e55593          	srli	x11,x10,0x3e
    80000da8:	1cb1b823          	sd	x11,464(x3)
    80000dac:	00300313          	addi	x6,x0,3
    80000db0:	00b30463          	beq	x6,x11,0x80000db8
    80000db4:	a70ff06f          	jal	x0,0x80000024
    80000db8:	dff00513          	addi	x10,x0,-513
    80000dbc:	00d55593          	srli	x11,x10,0xd
    80000dc0:	1cb1bc23          	sd	x11,472(x3)
    80000dc4:	0010031b          	addiw	x6,x0,1
    80000dc8:	03331313          	slli	x6,x6,0x33
    80000dcc:	fff30313          	addi	x6,x6,-1
    80000dd0:	00b30463          	beq	x6,x11,0x80000dd8
    80000dd4:	a50ff06f          	jal	x0,0x80000024
    80000dd8:	bff00513          	addi	x10,x0,-1025
    80000ddc:	00955593          	srli	x11,x10,0x9
    80000de0:	1eb1b023          	sd	x11,480(x3)
    80000de4:	0010031b          	addiw	x6,x0,1
    80000de8:	03731313          	slli	x6,x6,0x37
    80000dec:	ffd30313          	addi	x6,x6,-3
    80000df0:	00b30463          	beq	x6,x11,0x80000df8
    80000df4:	a30ff06f          	jal	x0,0x80000024
    80000df8:	00100513          	addi	x10,x0,1
    80000dfc:	00b51513          	slli	x10,x10,0xb
    80000e00:	fff54513          	xori	x10,x10,-1
    80000e04:	00e55593          	srli	x11,x10,0xe
    80000e08:	1eb1b423          	sd	x11,488(x3)
    80000e0c:	0010031b          	addiw	x6,x0,1
    80000e10:	03231313          	slli	x6,x6,0x32
    80000e14:	fff30313          	addi	x6,x6,-1
    80000e18:	00b30463          	beq	x6,x11,0x80000e20
    80000e1c:	a08ff06f          	jal	x0,0x80000024
    80000e20:	00100513          	addi	x10,x0,1
    80000e24:	00c51513          	slli	x10,x10,0xc
    80000e28:	fff54513          	xori	x10,x10,-1
    80000e2c:	03755593          	srli	x11,x10,0x37
    80000e30:	1eb1b823          	sd	x11,496(x3)
    80000e34:	1ff00313          	addi	x6,x0,511
    80000e38:	00b30463          	beq	x6,x11,0x80000e40
    80000e3c:	9e8ff06f          	jal	x0,0x80000024
    80000e40:	00100513          	addi	x10,x0,1
    80000e44:	00d51513          	slli	x10,x10,0xd
    80000e48:	fff54513          	xori	x10,x10,-1
    80000e4c:	00655593          	srli	x11,x10,0x6
    80000e50:	1eb1bc23          	sd	x11,504(x3)
    80000e54:	0010031b          	addiw	x6,x0,1
    80000e58:	03a31313          	slli	x6,x6,0x3a
    80000e5c:	f7f30313          	addi	x6,x6,-129
    80000e60:	00b30463          	beq	x6,x11,0x80000e68
    80000e64:	9c0ff06f          	jal	x0,0x80000024
    80000e68:	00100513          	addi	x10,x0,1
    80000e6c:	00e51513          	slli	x10,x10,0xe
    80000e70:	fff54513          	xori	x10,x10,-1
    80000e74:	01255593          	srli	x11,x10,0x12
    80000e78:	20b1b023          	sd	x11,512(x3)
    80000e7c:	0010031b          	addiw	x6,x0,1
    80000e80:	02e31313          	slli	x6,x6,0x2e
    80000e84:	fff30313          	addi	x6,x6,-1
    80000e88:	00b30463          	beq	x6,x11,0x80000e90
    80000e8c:	998ff06f          	jal	x0,0x80000024
    80000e90:	00100513          	addi	x10,x0,1
    80000e94:	00f51513          	slli	x10,x10,0xf
    80000e98:	fff54513          	xori	x10,x10,-1
    80000e9c:	00055593          	srli	x11,x10,0x0
    80000ea0:	20b1b423          	sd	x11,520(x3)
    80000ea4:	ffff8337          	lui	x6,0xffff8
    80000ea8:	fff3031b          	addiw	x6,x6,-1 # 0xffffffffffff7fff
    80000eac:	00b30463          	beq	x6,x11,0x80000eb4
    80000eb0:	974ff06f          	jal	x0,0x80000024
    80000eb4:	00100513          	addi	x10,x0,1
    80000eb8:	01051513          	slli	x10,x10,0x10
    80000ebc:	fff54513          	xori	x10,x10,-1
    80000ec0:	00e55593          	srli	x11,x10,0xe
    80000ec4:	20b1b823          	sd	x11,528(x3)
    80000ec8:	0010031b          	addiw	x6,x0,1
    80000ecc:	03231313          	slli	x6,x6,0x32
    80000ed0:	ffb30313          	addi	x6,x6,-5
    80000ed4:	00b30463          	beq	x6,x11,0x80000edc
    80000ed8:	94cff06f          	jal	x0,0x80000024
    80000edc:	00100513          	addi	x10,x0,1
    80000ee0:	01151513          	slli	x10,x10,0x11
    80000ee4:	fff54513          	xori	x10,x10,-1
    80000ee8:	01f55593          	srli	x11,x10,0x1f
    80000eec:	20b1bc23          	sd	x11,536(x3)
    80000ef0:	0010031b          	addiw	x6,x0,1
    80000ef4:	02131313          	slli	x6,x6,0x21
    80000ef8:	fff30313          	addi	x6,x6,-1
    80000efc:	00b30463          	beq	x6,x11,0x80000f04
    80000f00:	924ff06f          	jal	x0,0x80000024
    80000f04:	00100513          	addi	x10,x0,1
    80000f08:	03551513          	slli	x10,x10,0x35
    80000f0c:	fff54513          	xori	x10,x10,-1
    80000f10:	01255593          	srli	x11,x10,0x12
    80000f14:	22b1b023          	sd	x11,544(x3)
    80000f18:	7ff0031b          	addiw	x6,x0,2047
    80000f1c:	02331313          	slli	x6,x6,0x23
    80000f20:	fff30313          	addi	x6,x6,-1
    80000f24:	00b30463          	beq	x6,x11,0x80000f2c
    80000f28:	8fcff06f          	jal	x0,0x80000024
    80000f2c:	00100513          	addi	x10,x0,1
    80000f30:	03651513          	slli	x10,x10,0x36
    80000f34:	fff54513          	xori	x10,x10,-1
    80000f38:	01f55593          	srli	x11,x10,0x1f
    80000f3c:	22b1b423          	sd	x11,552(x3)
    80000f40:	3ff0031b          	addiw	x6,x0,1023
    80000f44:	01731313          	slli	x6,x6,0x17
    80000f48:	fff30313          	addi	x6,x6,-1
    80000f4c:	00b30463          	beq	x6,x11,0x80000f54
    80000f50:	8d4ff06f          	jal	x0,0x80000024
    80000f54:	00100513          	addi	x10,x0,1
    80000f58:	03751513          	slli	x10,x10,0x37
    80000f5c:	fff54513          	xori	x10,x10,-1
    80000f60:	03b55593          	srli	x11,x10,0x3b
    80000f64:	22b1b823          	sd	x11,560(x3)
    80000f68:	01f00313          	addi	x6,x0,31
    80000f6c:	00b30463          	beq	x6,x11,0x80000f74
    80000f70:	8b4ff06f          	jal	x0,0x80000024
    80000f74:	00100513          	addi	x10,x0,1
    80000f78:	03851513          	slli	x10,x10,0x38
    80000f7c:	fff54513          	xori	x10,x10,-1
    80000f80:	00355593          	srli	x11,x10,0x3
    80000f84:	22b1bc23          	sd	x11,568(x3)
    80000f88:	0ff0031b          	addiw	x6,x0,255
    80000f8c:	03531313          	slli	x6,x6,0x35
    80000f90:	fff30313          	addi	x6,x6,-1
    80000f94:	00b30463          	beq	x6,x11,0x80000f9c
    80000f98:	88cff06f          	jal	x0,0x80000024
    80000f9c:	00100513          	addi	x10,x0,1
    80000fa0:	03951513          	slli	x10,x10,0x39
    80000fa4:	fff54513          	xori	x10,x10,-1
    80000fa8:	01255593          	srli	x11,x10,0x12
    80000fac:	24b1b023          	sd	x11,576(x3)
    80000fb0:	07f0031b          	addiw	x6,x0,127
    80000fb4:	02731313          	slli	x6,x6,0x27
    80000fb8:	fff30313          	addi	x6,x6,-1
    80000fbc:	00b30463          	beq	x6,x11,0x80000fc4
    80000fc0:	864ff06f          	jal	x0,0x80000024
    80000fc4:	00100513          	addi	x10,x0,1
    80000fc8:	03a51513          	slli	x10,x10,0x3a
    80000fcc:	fff54513          	xori	x10,x10,-1
    80000fd0:	00855593          	srli	x11,x10,0x8
    80000fd4:	24b1b423          	sd	x11,584(x3)
    80000fd8:	03f0031b          	addiw	x6,x0,63
    80000fdc:	03231313          	slli	x6,x6,0x32
    80000fe0:	fff30313          	addi	x6,x6,-1
    80000fe4:	00b30463          	beq	x6,x11,0x80000fec
    80000fe8:	83cff06f          	jal	x0,0x80000024
    80000fec:	00100513          	addi	x10,x0,1
    80000ff0:	03b51513          	slli	x10,x10,0x3b
    80000ff4:	fff54513          	xori	x10,x10,-1
    80000ff8:	01255593          	srli	x11,x10,0x12
    80000ffc:	24b1b823          	sd	x11,592(x3)
    80001000:	01f0031b          	addiw	x6,x0,31
    80001004:	02931313          	slli	x6,x6,0x29
    80001008:	fff30313          	addi	x6,x6,-1
    8000100c:	00b30463          	beq	x6,x11,0x80001014
    80001010:	814ff06f          	jal	x0,0x80000024
    80001014:	00100513          	addi	x10,x0,1
    80001018:	03c51513          	slli	x10,x10,0x3c
    8000101c:	fff54513          	xori	x10,x10,-1
    80001020:	00b55593          	srli	x11,x10,0xb
    80001024:	24b1bc23          	sd	x11,600(x3)
    80001028:	00f0031b          	addiw	x6,x0,15
    8000102c:	03131313          	slli	x6,x6,0x31
    80001030:	fff30313          	addi	x6,x6,-1
    80001034:	00b30463          	beq	x6,x11,0x8000103c
    80001038:	fedfe06f          	jal	x0,0x80000024
    8000103c:	00100513          	addi	x10,x0,1
    80001040:	03d51513          	slli	x10,x10,0x3d
    80001044:	fff54513          	xori	x10,x10,-1
    80001048:	00c55593          	srli	x11,x10,0xc
    8000104c:	26b1b023          	sd	x11,608(x3)
    80001050:	0070031b          	addiw	x6,x0,7
    80001054:	03131313          	slli	x6,x6,0x31
    80001058:	fff30313          	addi	x6,x6,-1
    8000105c:	00b30463          	beq	x6,x11,0x80001064
    80001060:	fc5fe06f          	jal	x0,0x80000024
    80001064:	00100513          	addi	x10,x0,1
    80001068:	03e51513          	slli	x10,x10,0x3e
    8000106c:	fff54513          	xori	x10,x10,-1
    80001070:	01255593          	srli	x11,x10,0x12
    80001074:	26b1b423          	sd	x11,616(x3)
    80001078:	0030031b          	addiw	x6,x0,3
    8000107c:	02c31313          	slli	x6,x6,0x2c
    80001080:	fff30313          	addi	x6,x6,-1
    80001084:	00b30463          	beq	x6,x11,0x8000108c
    80001088:	f9dfe06f          	jal	x0,0x80000024
    8000108c:	55555537          	lui	x10,0x55555
    80001090:	55550513          	addi	x10,x10,1365 # 0x55555555
    80001094:	00b51513          	slli	x10,x10,0xb
    80001098:	2aa50513          	addi	x10,x10,682
    8000109c:	00b51513          	slli	x10,x10,0xb
    800010a0:	55550513          	addi	x10,x10,1365
    800010a4:	00a51513          	slli	x10,x10,0xa
    800010a8:	15550513          	addi	x10,x10,341
    800010ac:	00955593          	srli	x11,x10,0x9
    800010b0:	26b1b823          	sd	x11,624(x3)
    800010b4:	2aaab337          	lui	x6,0x2aaab
    800010b8:	aab3031b          	addiw	x6,x6,-1365 # 0x2aaaaaab
    800010bc:	00c31313          	slli	x6,x6,0xc
    800010c0:	aab30313          	addi	x6,x6,-1365
    800010c4:	00c31313          	slli	x6,x6,0xc
    800010c8:	aaa30313          	addi	x6,x6,-1366
    800010cc:	00b30463          	beq	x6,x11,0x800010d4
    800010d0:	f55fe06f          	jal	x0,0x80000024
    800010d4:	aaaab537          	lui	x10,0xaaaab
    800010d8:	aaa50513          	addi	x10,x10,-1366 # 0xffffffffaaaaaaaa
    800010dc:	00b51513          	slli	x10,x10,0xb
    800010e0:	55550513          	addi	x10,x10,1365
    800010e4:	00b51513          	slli	x10,x10,0xb
    800010e8:	2aa50513          	addi	x10,x10,682
    800010ec:	00a51513          	slli	x10,x10,0xa
    800010f0:	2aa50513          	addi	x10,x10,682
    800010f4:	00155593          	srli	x11,x10,0x1
    800010f8:	26b1bc23          	sd	x11,632(x3)
    800010fc:	05555337          	lui	x6,0x5555
    80001100:	5553031b          	addiw	x6,x6,1365 # 0x5555555
    80001104:	00c31313          	slli	x6,x6,0xc
    80001108:	55530313          	addi	x6,x6,1365
    8000110c:	00c31313          	slli	x6,x6,0xc
    80001110:	55530313          	addi	x6,x6,1365
    80001114:	00c31313          	slli	x6,x6,0xc
    80001118:	55530313          	addi	x6,x6,1365
    8000111c:	00b30463          	beq	x6,x11,0x80001124
    80001120:	f05fe06f          	jal	x0,0x80000024
    80001124:	00500513          	addi	x10,x0,5
    80001128:	01355593          	srli	x11,x10,0x13
    8000112c:	28b1b023          	sd	x11,640(x3)
    80001130:	00000313          	addi	x6,x0,0
    80001134:	00b30463          	beq	x6,x11,0x8000113c
    80001138:	eedfe06f          	jal	x0,0x80000024
    8000113c:	33333537          	lui	x10,0x33333
    80001140:	33350513          	addi	x10,x10,819 # 0x33333333
    80001144:	00b51513          	slli	x10,x10,0xb
    80001148:	19950513          	addi	x10,x10,409
    8000114c:	00b51513          	slli	x10,x10,0xb
    80001150:	4cc50513          	addi	x10,x10,1228
    80001154:	00a51513          	slli	x10,x10,0xa
    80001158:	33350513          	addi	x10,x10,819
    8000115c:	02055593          	srli	x11,x10,0x20
    80001160:	28b1b423          	sd	x11,648(x3)
    80001164:	33333337          	lui	x6,0x33333
    80001168:	3333031b          	addiw	x6,x6,819 # 0x33333333
    8000116c:	00b30463          	beq	x6,x11,0x80001174
    80001170:	eb5fe06f          	jal	x0,0x80000024
    80001174:	00000537          	lui	x10,0x0
    80001178:	fff50513          	addi	x10,x10,-1 # 0xffffffffffffffff
    8000117c:	00b51513          	slli	x10,x10,0xb
    80001180:	25750513          	addi	x10,x10,599
    80001184:	00b51513          	slli	x10,x10,0xb
    80001188:	6c350513          	addi	x10,x10,1731
    8000118c:	00a51513          	slli	x10,x10,0xa
    80001190:	0cd50513          	addi	x10,x10,205
    80001194:	00555593          	srli	x11,x10,0x5
    80001198:	28b1b823          	sd	x11,656(x3)
    8000119c:	0010031b          	addiw	x6,x0,1
    800011a0:	02231313          	slli	x6,x6,0x22
    800011a4:	ffd30313          	addi	x6,x6,-3
    800011a8:	00c31313          	slli	x6,x6,0xc
    800011ac:	2bf30313          	addi	x6,x6,703
    800011b0:	00d31313          	slli	x6,x6,0xd
    800011b4:	86630313          	addi	x6,x6,-1946
    800011b8:	00b30463          	beq	x6,x11,0x800011c0
    800011bc:	e69fe06f          	jal	x0,0x80000024
    800011c0:	55555537          	lui	x10,0x55555
    800011c4:	55550513          	addi	x10,x10,1365 # 0x55555555
    800011c8:	00b51513          	slli	x10,x10,0xb
    800011cc:	2aa50513          	addi	x10,x10,682
    800011d0:	00b51513          	slli	x10,x10,0xb
    800011d4:	55550513          	addi	x10,x10,1365
    800011d8:	00a51513          	slli	x10,x10,0xa
    800011dc:	15450513          	addi	x10,x10,340
    800011e0:	00155593          	srli	x11,x10,0x1
    800011e4:	28b1bc23          	sd	x11,664(x3)
    800011e8:	02aab337          	lui	x6,0x2aab
    800011ec:	aab3031b          	addiw	x6,x6,-1365 # 0x2aaaaab
    800011f0:	00c31313          	slli	x6,x6,0xc
    800011f4:	aab30313          	addi	x6,x6,-1365
    800011f8:	00c31313          	slli	x6,x6,0xc
    800011fc:	aab30313          	addi	x6,x6,-1365
    80001200:	00c31313          	slli	x6,x6,0xc
    80001204:	aaa30313          	addi	x6,x6,-1366
    80001208:	00b30463          	beq	x6,x11,0x80001210
    8000120c:	e19fe06f          	jal	x0,0x80000024
    80001210:	33333537          	lui	x10,0x33333
    80001214:	33350513          	addi	x10,x10,819 # 0x33333333
    80001218:	00b51513          	slli	x10,x10,0xb
    8000121c:	19950513          	addi	x10,x10,409
    80001220:	00b51513          	slli	x10,x10,0xb
    80001224:	4cc50513          	addi	x10,x10,1228
    80001228:	00a51513          	slli	x10,x10,0xa
    8000122c:	33250513          	addi	x10,x10,818
    80001230:	00755593          	srli	x11,x10,0x7
    80001234:	2ab1b023          	sd	x11,672(x3)
    80001238:	33333337          	lui	x6,0x33333
    8000123c:	3333031b          	addiw	x6,x6,819 # 0x33333333
    80001240:	00c31313          	slli	x6,x6,0xc
    80001244:	33330313          	addi	x6,x6,819
    80001248:	00d31313          	slli	x6,x6,0xd
    8000124c:	66630313          	addi	x6,x6,1638
    80001250:	00b30463          	beq	x6,x11,0x80001258
    80001254:	dd1fe06f          	jal	x0,0x80000024
    80001258:	66666537          	lui	x10,0x66666
    8000125c:	66650513          	addi	x10,x10,1638 # 0x66666666
    80001260:	00b51513          	slli	x10,x10,0xb
    80001264:	33350513          	addi	x10,x10,819
    80001268:	00b51513          	slli	x10,x10,0xb
    8000126c:	19950513          	addi	x10,x10,409
    80001270:	00a51513          	slli	x10,x10,0xa
    80001274:	26550513          	addi	x10,x10,613
    80001278:	02f55593          	srli	x11,x10,0x2f
    8000127c:	2ab1b423          	sd	x11,680(x3)
    80001280:	0000d337          	lui	x6,0xd
    80001284:	ccc3031b          	addiw	x6,x6,-820 # 0xcccc
    80001288:	00b30463          	beq	x6,x11,0x80001290
    8000128c:	d99fe06f          	jal	x0,0x80000024
    80001290:	00000537          	lui	x10,0x0
    80001294:	00050513          	addi	x10,x10,0 # 0x0
    80001298:	00b51513          	slli	x10,x10,0xb
    8000129c:	5a850513          	addi	x10,x10,1448
    800012a0:	00b51513          	slli	x10,x10,0xb
    800012a4:	13c50513          	addi	x10,x10,316
    800012a8:	00a51513          	slli	x10,x10,0xa
    800012ac:	33250513          	addi	x10,x10,818
    800012b0:	01555593          	srli	x11,x10,0x15
    800012b4:	2ab1b823          	sd	x11,688(x3)
    800012b8:	5a800313          	addi	x6,x0,1448
    800012bc:	00b30463          	beq	x6,x11,0x800012c4
    800012c0:	d65fe06f          	jal	x0,0x80000024
    800012c4:	55555537          	lui	x10,0x55555
    800012c8:	55550513          	addi	x10,x10,1365 # 0x55555555
    800012cc:	00b51513          	slli	x10,x10,0xb
    800012d0:	2aa50513          	addi	x10,x10,682
    800012d4:	00b51513          	slli	x10,x10,0xb
    800012d8:	55550513          	addi	x10,x10,1365
    800012dc:	00a51513          	slli	x10,x10,0xa
    800012e0:	15650513          	addi	x10,x10,342
    800012e4:	00b55593          	srli	x11,x10,0xb
    800012e8:	2ab1bc23          	sd	x11,696(x3)
    800012ec:	0aaab337          	lui	x6,0xaaab
    800012f0:	aab3031b          	addiw	x6,x6,-1365 # 0xaaaaaab
    800012f4:	00c31313          	slli	x6,x6,0xc
    800012f8:	aab30313          	addi	x6,x6,-1365
    800012fc:	00c31313          	slli	x6,x6,0xc
    80001300:	aaa30313          	addi	x6,x6,-1366
    80001304:	00b30463          	beq	x6,x11,0x8000130c
    80001308:	d1dfe06f          	jal	x0,0x80000024
    8000130c:	aaaab537          	lui	x10,0xaaaab
    80001310:	aaa50513          	addi	x10,x10,-1366 # 0xffffffffaaaaaaaa
    80001314:	00b51513          	slli	x10,x10,0xb
    80001318:	55550513          	addi	x10,x10,1365
    8000131c:	00b51513          	slli	x10,x10,0xb
    80001320:	2aa50513          	addi	x10,x10,682
    80001324:	00a51513          	slli	x10,x10,0xa
    80001328:	2ab50513          	addi	x10,x10,683
    8000132c:	00a55593          	srli	x11,x10,0xa
    80001330:	2cb1b023          	sd	x11,704(x3)
    80001334:	2aaab337          	lui	x6,0x2aaab
    80001338:	aab3031b          	addiw	x6,x6,-1365 # 0x2aaaaaab
    8000133c:	00c31313          	slli	x6,x6,0xc
    80001340:	aab30313          	addi	x6,x6,-1365
    80001344:	00c31313          	slli	x6,x6,0xc
    80001348:	aaa30313          	addi	x6,x6,-1366
    8000134c:	00b30463          	beq	x6,x11,0x80001354
    80001350:	cd5fe06f          	jal	x0,0x80000024
    80001354:	00600513          	addi	x10,x0,6
    80001358:	00d55593          	srli	x11,x10,0xd
    8000135c:	2cb1b423          	sd	x11,712(x3)
    80001360:	00000313          	addi	x6,x0,0
    80001364:	00b30463          	beq	x6,x11,0x8000136c
    80001368:	cbdfe06f          	jal	x0,0x80000024
    8000136c:	33333537          	lui	x10,0x33333
    80001370:	33350513          	addi	x10,x10,819 # 0x33333333
    80001374:	00b51513          	slli	x10,x10,0xb
    80001378:	19950513          	addi	x10,x10,409
    8000137c:	00b51513          	slli	x10,x10,0xb
    80001380:	4cc50513          	addi	x10,x10,1228
    80001384:	00a51513          	slli	x10,x10,0xa
    80001388:	33450513          	addi	x10,x10,820
    8000138c:	00e55593          	srli	x11,x10,0xe
    80001390:	2cb1b823          	sd	x11,720(x3)
    80001394:	00ccd337          	lui	x6,0xccd
    80001398:	ccd3031b          	addiw	x6,x6,-819 # 0xcccccd
    8000139c:	00c31313          	slli	x6,x6,0xc
    800013a0:	ccd30313          	addi	x6,x6,-819
    800013a4:	00c31313          	slli	x6,x6,0xc
    800013a8:	ccc30313          	addi	x6,x6,-820
    800013ac:	00b30463          	beq	x6,x11,0x800013b4
    800013b0:	c75fe06f          	jal	x0,0x80000024
    800013b4:	66666537          	lui	x10,0x66666
    800013b8:	66650513          	addi	x10,x10,1638 # 0x66666666
    800013bc:	00b51513          	slli	x10,x10,0xb
    800013c0:	33350513          	addi	x10,x10,819
    800013c4:	00b51513          	slli	x10,x10,0xb
    800013c8:	19950513          	addi	x10,x10,409
    800013cc:	00a51513          	slli	x10,x10,0xa
    800013d0:	26750513          	addi	x10,x10,615
    800013d4:	00055593          	srli	x11,x10,0x0
    800013d8:	2cb1bc23          	sd	x11,728(x3)
    800013dc:	03333337          	lui	x6,0x3333
    800013e0:	3333031b          	addiw	x6,x6,819 # 0x3333333
    800013e4:	00c31313          	slli	x6,x6,0xc
    800013e8:	33330313          	addi	x6,x6,819
    800013ec:	00c31313          	slli	x6,x6,0xc
    800013f0:	33330313          	addi	x6,x6,819
    800013f4:	00d31313          	slli	x6,x6,0xd
    800013f8:	66730313          	addi	x6,x6,1639
    800013fc:	00b30463          	beq	x6,x11,0x80001404
    80001400:	c25fe06f          	jal	x0,0x80000024
    80001404:	00000537          	lui	x10,0x0
    80001408:	fff50513          	addi	x10,x10,-1 # 0xffffffffffffffff
    8000140c:	00b51513          	slli	x10,x10,0xb
    80001410:	25750513          	addi	x10,x10,599
    80001414:	00b51513          	slli	x10,x10,0xb
    80001418:	6c350513          	addi	x10,x10,1731
    8000141c:	00a51513          	slli	x10,x10,0xa
    80001420:	0ce50513          	addi	x10,x10,206
    80001424:	03e55593          	srli	x11,x10,0x3e
    80001428:	2eb1b023          	sd	x11,736(x3)
    8000142c:	00300313          	addi	x6,x0,3
    80001430:	00b30463          	beq	x6,x11,0x80001438
    80001434:	bf1fe06f          	jal	x0,0x80000024
    80001438:	00000537          	lui	x10,0x0
    8000143c:	00050513          	addi	x10,x10,0 # 0x0
    80001440:	00b51513          	slli	x10,x10,0xb
    80001444:	5a850513          	addi	x10,x10,1448
    80001448:	00b51513          	slli	x10,x10,0xb
    8000144c:	13c50513          	addi	x10,x10,316
    80001450:	00a51513          	slli	x10,x10,0xa
    80001454:	33450513          	addi	x10,x10,820
    80001458:	02055593          	srli	x11,x10,0x20
    8000145c:	2eb1b423          	sd	x11,744(x3)
    80001460:	00000313          	addi	x6,x0,0
    80001464:	00b30463          	beq	x6,x11,0x8000146c
    80001468:	bbdfe06f          	jal	x0,0x80000024
    8000146c:	00100513          	addi	x10,x0,1
    80001470:	03651513          	slli	x10,x10,0x36
    80001474:	00255593          	srli	x11,x10,0x2
    80001478:	2eb1b823          	sd	x11,752(x3)
    8000147c:	0010031b          	addiw	x6,x0,1
    80001480:	03431313          	slli	x6,x6,0x34
    80001484:	00b30463          	beq	x6,x11,0x8000148c
    80001488:	b9dfe06f          	jal	x0,0x80000024
    8000148c:	00100513          	addi	x10,x0,1
    80001490:	01251513          	slli	x10,x10,0x12
    80001494:	fff54513          	xori	x10,x10,-1
    80001498:	00255593          	srli	x11,x10,0x2
    8000149c:	2eb1bc23          	sd	x11,760(x3)
    800014a0:	0010031b          	addiw	x6,x0,1
    800014a4:	02e31313          	slli	x6,x6,0x2e
    800014a8:	fff30313          	addi	x6,x6,-1
    800014ac:	01031313          	slli	x6,x6,0x10
    800014b0:	fff30313          	addi	x6,x6,-1
    800014b4:	00b30463          	beq	x6,x11,0x800014bc
    800014b8:	b6dfe06f          	jal	x0,0x80000024
    800014bc:	00100513          	addi	x10,x0,1
    800014c0:	01351513          	slli	x10,x10,0x13
    800014c4:	fff54513          	xori	x10,x10,-1
    800014c8:	03755593          	srli	x11,x10,0x37
    800014cc:	30b1b023          	sd	x11,768(x3)
    800014d0:	1ff00313          	addi	x6,x0,511
    800014d4:	00b30463          	beq	x6,x11,0x800014dc
    800014d8:	b4dfe06f          	jal	x0,0x80000024
    800014dc:	00100513          	addi	x10,x0,1
    800014e0:	01451513          	slli	x10,x10,0x14
    800014e4:	fff54513          	xori	x10,x10,-1
    800014e8:	03755593          	srli	x11,x10,0x37
    800014ec:	30b1b423          	sd	x11,776(x3)
    800014f0:	1ff00313          	addi	x6,x0,511
    800014f4:	00b30463          	beq	x6,x11,0x800014fc
    800014f8:	b2dfe06f          	jal	x0,0x80000024
    800014fc:	00100513          	addi	x10,x0,1
    80001500:	01551513          	slli	x10,x10,0x15
    80001504:	fff54513          	xori	x10,x10,-1
    80001508:	03e55593          	srli	x11,x10,0x3e
    8000150c:	30b1b823          	sd	x11,784(x3)
    80001510:	00300313          	addi	x6,x0,3
    80001514:	00b30463          	beq	x6,x11,0x8000151c
    80001518:	b0dfe06f          	jal	x0,0x80000024
    8000151c:	00100513          	addi	x10,x0,1
    80001520:	01651513          	slli	x10,x10,0x16
    80001524:	fff54513          	xori	x10,x10,-1
    80001528:	03b55593          	srli	x11,x10,0x3b
    8000152c:	30b1bc23          	sd	x11,792(x3)
    80001530:	01f00313          	addi	x6,x0,31
    80001534:	00b30463          	beq	x6,x11,0x8000153c
    80001538:	aedfe06f          	jal	x0,0x80000024
    8000153c:	00100513          	addi	x10,x0,1
    80001540:	01751513          	slli	x10,x10,0x17
    80001544:	fff54513          	xori	x10,x10,-1
    80001548:	01555593          	srli	x11,x10,0x15
    8000154c:	32b1b023          	sd	x11,800(x3)
    80001550:	0010031b          	addiw	x6,x0,1
    80001554:	02b31313          	slli	x6,x6,0x2b
    80001558:	ffb30313          	addi	x6,x6,-5
    8000155c:	00b30463          	beq	x6,x11,0x80001564
    80001560:	ac5fe06f          	jal	x0,0x80000024
    80001564:	00100513          	addi	x10,x0,1
    80001568:	01851513          	slli	x10,x10,0x18
    8000156c:	fff54513          	xori	x10,x10,-1
    80001570:	00155593          	srli	x11,x10,0x1
    80001574:	32b1b423          	sd	x11,808(x3)
    80001578:	0010031b          	addiw	x6,x0,1
    8000157c:	02831313          	slli	x6,x6,0x28
    80001580:	fff30313          	addi	x6,x6,-1
    80001584:	01731313          	slli	x6,x6,0x17
    80001588:	fff30313          	addi	x6,x6,-1
    8000158c:	00b30463          	beq	x6,x11,0x80001594
    80001590:	a95fe06f          	jal	x0,0x80000024
    80001594:	00100513          	addi	x10,x0,1
    80001598:	01951513          	slli	x10,x10,0x19
    8000159c:	fff54513          	xori	x10,x10,-1
    800015a0:	01255593          	srli	x11,x10,0x12
    800015a4:	32b1b823          	sd	x11,816(x3)
    800015a8:	0010031b          	addiw	x6,x0,1
    800015ac:	02e31313          	slli	x6,x6,0x2e
    800015b0:	f7f30313          	addi	x6,x6,-129
    800015b4:	00b30463          	beq	x6,x11,0x800015bc
    800015b8:	a6dfe06f          	jal	x0,0x80000024
    800015bc:	00100513          	addi	x10,x0,1
    800015c0:	01a51513          	slli	x10,x10,0x1a
    800015c4:	fff54513          	xori	x10,x10,-1
    800015c8:	00a55593          	srli	x11,x10,0xa
    800015cc:	32b1bc23          	sd	x11,824(x3)
    800015d0:	0010031b          	addiw	x6,x0,1
    800015d4:	02631313          	slli	x6,x6,0x26
    800015d8:	fff30313          	addi	x6,x6,-1
    800015dc:	01031313          	slli	x6,x6,0x10
    800015e0:	fff30313          	addi	x6,x6,-1
    800015e4:	00b30463          	beq	x6,x11,0x800015ec
    800015e8:	a3dfe06f          	jal	x0,0x80000024
    800015ec:	00100513          	addi	x10,x0,1
    800015f0:	01b51513          	slli	x10,x10,0x1b
    800015f4:	fff54513          	xori	x10,x10,-1
    800015f8:	02055593          	srli	x11,x10,0x20
    800015fc:	34b1b023          	sd	x11,832(x3)
    80001600:	0010031b          	addiw	x6,x0,1
    80001604:	02031313          	slli	x6,x6,0x20
    80001608:	fff30313          	addi	x6,x6,-1
    8000160c:	00b30463          	beq	x6,x11,0x80001614
    80001610:	a15fe06f          	jal	x0,0x80000024
    80001614:	00100513          	addi	x10,x0,1
    80001618:	01c51513          	slli	x10,x10,0x1c
    8000161c:	fff54513          	xori	x10,x10,-1
    80001620:	00c55593          	srli	x11,x10,0xc
    80001624:	34b1b423          	sd	x11,840(x3)
    80001628:	0010031b          	addiw	x6,x0,1
    8000162c:	02431313          	slli	x6,x6,0x24
    80001630:	fff30313          	addi	x6,x6,-1
    80001634:	01031313          	slli	x6,x6,0x10
    80001638:	fff30313          	addi	x6,x6,-1
    8000163c:	00b30463          	beq	x6,x11,0x80001644
    80001640:	9e5fe06f          	jal	x0,0x80000024
    80001644:	00100513          	addi	x10,x0,1
    80001648:	01d51513          	slli	x10,x10,0x1d
    8000164c:	fff54513          	xori	x10,x10,-1
    80001650:	00e55593          	srli	x11,x10,0xe
    80001654:	34b1b823          	sd	x11,848(x3)
    80001658:	0010031b          	addiw	x6,x0,1
    8000165c:	02331313          	slli	x6,x6,0x23
    80001660:	fff30313          	addi	x6,x6,-1
    80001664:	00f31313          	slli	x6,x6,0xf
    80001668:	fff30313          	addi	x6,x6,-1
    8000166c:	00b30463          	beq	x6,x11,0x80001674
    80001670:	9b5fe06f          	jal	x0,0x80000024
    80001674:	00100513          	addi	x10,x0,1
    80001678:	01e51513          	slli	x10,x10,0x1e
    8000167c:	fff54513          	xori	x10,x10,-1
    80001680:	03755593          	srli	x11,x10,0x37
    80001684:	34b1bc23          	sd	x11,856(x3)
    80001688:	1ff00313          	addi	x6,x0,511
    8000168c:	00b30463          	beq	x6,x11,0x80001694
    80001690:	995fe06f          	jal	x0,0x80000024
    80001694:	00100513          	addi	x10,x0,1
    80001698:	01f51513          	slli	x10,x10,0x1f
    8000169c:	fff54513          	xori	x10,x10,-1
    800016a0:	00155593          	srli	x11,x10,0x1
    800016a4:	36b1b023          	sd	x11,864(x3)
    800016a8:	0010031b          	addiw	x6,x0,1
    800016ac:	02131313          	slli	x6,x6,0x21
    800016b0:	fff30313          	addi	x6,x6,-1
    800016b4:	01e31313          	slli	x6,x6,0x1e
    800016b8:	fff30313          	addi	x6,x6,-1
    800016bc:	00b30463          	beq	x6,x11,0x800016c4
    800016c0:	965fe06f          	jal	x0,0x80000024
    800016c4:	00100513          	addi	x10,x0,1
    800016c8:	02051513          	slli	x10,x10,0x20
    800016cc:	fff54513          	xori	x10,x10,-1
    800016d0:	01255593          	srli	x11,x10,0x12
    800016d4:	36b1b423          	sd	x11,872(x3)
    800016d8:	0010031b          	addiw	x6,x0,1
    800016dc:	02031313          	slli	x6,x6,0x20
    800016e0:	fff30313          	addi	x6,x6,-1
    800016e4:	00e31313          	slli	x6,x6,0xe
    800016e8:	fff30313          	addi	x6,x6,-1
    800016ec:	00b30463          	beq	x6,x11,0x800016f4
    800016f0:	935fe06f          	jal	x0,0x80000024
    800016f4:	00100513          	addi	x10,x0,1
    800016f8:	02151513          	slli	x10,x10,0x21
    800016fc:	fff54513          	xori	x10,x10,-1
    80001700:	01155593          	srli	x11,x10,0x11
    80001704:	36b1b823          	sd	x11,880(x3)
    80001708:	80000337          	lui	x6,0x80000
    8000170c:	fff3031b          	addiw	x6,x6,-1 # 0x7fffffff
    80001710:	01031313          	slli	x6,x6,0x10
    80001714:	fff30313          	addi	x6,x6,-1
    80001718:	00b30463          	beq	x6,x11,0x80001720
    8000171c:	909fe06f          	jal	x0,0x80000024
    80001720:	00100513          	addi	x10,x0,1
    80001724:	02251513          	slli	x10,x10,0x22
    80001728:	fff54513          	xori	x10,x10,-1
    8000172c:	00e55593          	srli	x11,x10,0xe
    80001730:	36b1bc23          	sd	x11,888(x3)
    80001734:	40000337          	lui	x6,0x40000
    80001738:	fff3031b          	addiw	x6,x6,-1 # 0x3fffffff
    8000173c:	01431313          	slli	x6,x6,0x14
    80001740:	fff30313          	addi	x6,x6,-1
    80001744:	00b30463          	beq	x6,x11,0x8000174c
    80001748:	8ddfe06f          	jal	x0,0x80000024
    8000174c:	00100513          	addi	x10,x0,1
    80001750:	02351513          	slli	x10,x10,0x23
    80001754:	fff54513          	xori	x10,x10,-1
    80001758:	00055593          	srli	x11,x10,0x0
    8000175c:	38b1b023          	sd	x11,896(x3)
    80001760:	fff0031b          	addiw	x6,x0,-1
    80001764:	02331313          	slli	x6,x6,0x23
    80001768:	fff30313          	addi	x6,x6,-1
    8000176c:	00b30463          	beq	x6,x11,0x80001774
    80001770:	8b5fe06f          	jal	x0,0x80000024
    80001774:	00100513          	addi	x10,x0,1
    80001778:	02451513          	slli	x10,x10,0x24
    8000177c:	fff54513          	xori	x10,x10,-1
    80001780:	00255593          	srli	x11,x10,0x2
    80001784:	38b1b423          	sd	x11,904(x3)
    80001788:	10000337          	lui	x6,0x10000
    8000178c:	fff3031b          	addiw	x6,x6,-1 # 0xfffffff
    80001790:	02231313          	slli	x6,x6,0x22
    80001794:	fff30313          	addi	x6,x6,-1
    80001798:	00b30463          	beq	x6,x11,0x800017a0
    8000179c:	889fe06f          	jal	x0,0x80000024
    800017a0:	00100513          	addi	x10,x0,1
    800017a4:	02651513          	slli	x10,x10,0x26
    800017a8:	fff54513          	xori	x10,x10,-1
    800017ac:	02055593          	srli	x11,x10,0x20
    800017b0:	38b1b823          	sd	x11,912(x3)
    800017b4:	0010031b          	addiw	x6,x0,1
    800017b8:	02031313          	slli	x6,x6,0x20
    800017bc:	fbf30313          	addi	x6,x6,-65
    800017c0:	00b30463          	beq	x6,x11,0x800017c8
    800017c4:	861fe06f          	jal	x0,0x80000024
    800017c8:	00100513          	addi	x10,x0,1
    800017cc:	02751513          	slli	x10,x10,0x27
    800017d0:	fff54513          	xori	x10,x10,-1
    800017d4:	00a55593          	srli	x11,x10,0xa
    800017d8:	38b1bc23          	sd	x11,920(x3)
    800017dc:	02000337          	lui	x6,0x2000
    800017e0:	fff3031b          	addiw	x6,x6,-1 # 0x1ffffff
    800017e4:	01d31313          	slli	x6,x6,0x1d
    800017e8:	fff30313          	addi	x6,x6,-1
    800017ec:	00b30463          	beq	x6,x11,0x800017f4
    800017f0:	835fe06f          	jal	x0,0x80000024
    800017f4:	00100513          	addi	x10,x0,1
    800017f8:	02851513          	slli	x10,x10,0x28
    800017fc:	fff54513          	xori	x10,x10,-1
    80001800:	00d55593          	srli	x11,x10,0xd
    80001804:	3ab1b023          	sd	x11,928(x3)
    80001808:	01000337          	lui	x6,0x1000
    8000180c:	fff3031b          	addiw	x6,x6,-1 # 0xffffff
    80001810:	01b31313          	slli	x6,x6,0x1b
    80001814:	fff30313          	addi	x6,x6,-1
    80001818:	00b30463          	beq	x6,x11,0x80001820
    8000181c:	809fe06f          	jal	x0,0x80000024
    80001820:	00100513          	addi	x10,x0,1
    80001824:	02951513          	slli	x10,x10,0x29
    80001828:	fff54513          	xori	x10,x10,-1
    8000182c:	00855593          	srli	x11,x10,0x8
    80001830:	3ab1b423          	sd	x11,936(x3)
    80001834:	00800337          	lui	x6,0x800
    80001838:	fff3031b          	addiw	x6,x6,-1 # 0x7fffff
    8000183c:	02131313          	slli	x6,x6,0x21
    80001840:	fff30313          	addi	x6,x6,-1
    80001844:	00b30463          	beq	x6,x11,0x8000184c
    80001848:	fdcfe06f          	jal	x0,0x80000024
    8000184c:	00100513          	addi	x10,x0,1
    80001850:	02a51513          	slli	x10,x10,0x2a
    80001854:	fff54513          	xori	x10,x10,-1
    80001858:	00b55593          	srli	x11,x10,0xb
    8000185c:	3ab1b823          	sd	x11,944(x3)
    80001860:	00400337          	lui	x6,0x400
    80001864:	fff3031b          	addiw	x6,x6,-1 # 0x3fffff
    80001868:	01f31313          	slli	x6,x6,0x1f
    8000186c:	fff30313          	addi	x6,x6,-1
    80001870:	00b30463          	beq	x6,x11,0x80001878
    80001874:	fb0fe06f          	jal	x0,0x80000024
    80001878:	00100513          	addi	x10,x0,1
    8000187c:	02b51513          	slli	x10,x10,0x2b
    80001880:	fff54513          	xori	x10,x10,-1
    80001884:	00655593          	srli	x11,x10,0x6
    80001888:	3ab1bc23          	sd	x11,952(x3)
    8000188c:	00200337          	lui	x6,0x200
    80001890:	fff3031b          	addiw	x6,x6,-1 # 0x1fffff
    80001894:	02531313          	slli	x6,x6,0x25
    80001898:	fff30313          	addi	x6,x6,-1
    8000189c:	00b30463          	beq	x6,x11,0x800018a4
    800018a0:	f84fe06f          	jal	x0,0x80000024
    800018a4:	00100513          	addi	x10,x0,1
    800018a8:	02c51513          	slli	x10,x10,0x2c
    800018ac:	fff54513          	xori	x10,x10,-1
    800018b0:	01255593          	srli	x11,x10,0x12
    800018b4:	3cb1b023          	sd	x11,960(x3)
    800018b8:	00100337          	lui	x6,0x100
    800018bc:	fff3031b          	addiw	x6,x6,-1 # 0xfffff
    800018c0:	01a31313          	slli	x6,x6,0x1a
    800018c4:	fff30313          	addi	x6,x6,-1
    800018c8:	00b30463          	beq	x6,x11,0x800018d0
    800018cc:	f58fe06f          	jal	x0,0x80000024
    800018d0:	00100513          	addi	x10,x0,1
    800018d4:	02d51513          	slli	x10,x10,0x2d
    800018d8:	fff54513          	xori	x10,x10,-1
    800018dc:	03d55593          	srli	x11,x10,0x3d
    800018e0:	3cb1b423          	sd	x11,968(x3)
    800018e4:	00700313          	addi	x6,x0,7
    800018e8:	00b30463          	beq	x6,x11,0x800018f0
    800018ec:	f38fe06f          	jal	x0,0x80000024
    800018f0:	00100513          	addi	x10,x0,1
    800018f4:	02e51513          	slli	x10,x10,0x2e
    800018f8:	fff54513          	xori	x10,x10,-1
    800018fc:	02a55593          	srli	x11,x10,0x2a
    80001900:	3cb1b823          	sd	x11,976(x3)
    80001904:	00400337          	lui	x6,0x400
    80001908:	fef3031b          	addiw	x6,x6,-17 # 0x3fffef
    8000190c:	00b30463          	beq	x6,x11,0x80001914
    80001910:	f14fe06f          	jal	x0,0x80000024
    80001914:	00100513          	addi	x10,x0,1
    80001918:	02f51513          	slli	x10,x10,0x2f
    8000191c:	fff54513          	xori	x10,x10,-1
    80001920:	01555593          	srli	x11,x10,0x15
    80001924:	3cb1bc23          	sd	x11,984(x3)
    80001928:	00020337          	lui	x6,0x20
    8000192c:	fff3031b          	addiw	x6,x6,-1 # 0x1ffff
    80001930:	01a31313          	slli	x6,x6,0x1a
    80001934:	fff30313          	addi	x6,x6,-1
    80001938:	00b30463          	beq	x6,x11,0x80001940
    8000193c:	ee8fe06f          	jal	x0,0x80000024
    80001940:	00100513          	addi	x10,x0,1
    80001944:	03051513          	slli	x10,x10,0x30
    80001948:	fff54513          	xori	x10,x10,-1
    8000194c:	00755593          	srli	x11,x10,0x7
    80001950:	3eb1b023          	sd	x11,992(x3)
    80001954:	00010337          	lui	x6,0x10
    80001958:	fff3031b          	addiw	x6,x6,-1 # 0xffff
    8000195c:	02931313          	slli	x6,x6,0x29
    80001960:	fff30313          	addi	x6,x6,-1
    80001964:	00b30463          	beq	x6,x11,0x8000196c
    80001968:	ebcfe06f          	jal	x0,0x80000024
    8000196c:	00100513          	addi	x10,x0,1
    80001970:	03151513          	slli	x10,x10,0x31
    80001974:	fff54513          	xori	x10,x10,-1
    80001978:	03d55593          	srli	x11,x10,0x3d
    8000197c:	3eb1b423          	sd	x11,1000(x3)
    80001980:	00700313          	addi	x6,x0,7
    80001984:	00b30463          	beq	x6,x11,0x8000198c
    80001988:	e9cfe06f          	jal	x0,0x80000024
    8000198c:	00100513          	addi	x10,x0,1
    80001990:	03251513          	slli	x10,x10,0x32
    80001994:	fff54513          	xori	x10,x10,-1
    80001998:	00555593          	srli	x11,x10,0x5
    8000199c:	3eb1b823          	sd	x11,1008(x3)
    800019a0:	00004337          	lui	x6,0x4
    800019a4:	fff3031b          	addiw	x6,x6,-1 # 0x3fff
    800019a8:	02d31313          	slli	x6,x6,0x2d
    800019ac:	fff30313          	addi	x6,x6,-1
    800019b0:	00b30463          	beq	x6,x11,0x800019b8
    800019b4:	e70fe06f          	jal	x0,0x80000024
    800019b8:	00100513          	addi	x10,x0,1
    800019bc:	03351513          	slli	x10,x10,0x33
    800019c0:	fff54513          	xori	x10,x10,-1
    800019c4:	00d55593          	srli	x11,x10,0xd
    800019c8:	3eb1bc23          	sd	x11,1016(x3)
    800019cc:	00002337          	lui	x6,0x2
    800019d0:	fff3031b          	addiw	x6,x6,-1 # 0x1fff
    800019d4:	02631313          	slli	x6,x6,0x26
    800019d8:	fff30313          	addi	x6,x6,-1
    800019dc:	00b30463          	beq	x6,x11,0x800019e4
    800019e0:	e44fe06f          	jal	x0,0x80000024
    800019e4:	00100513          	addi	x10,x0,1
    800019e8:	03451513          	slli	x10,x10,0x34
    800019ec:	fff54513          	xori	x10,x10,-1
    800019f0:	01555593          	srli	x11,x10,0x15
    800019f4:	40b1b023          	sd	x11,1024(x3)
    800019f8:	00001337          	lui	x6,0x1
    800019fc:	fff3031b          	addiw	x6,x6,-1 # 0xfff
    80001a00:	01f31313          	slli	x6,x6,0x1f
    80001a04:	fff30313          	addi	x6,x6,-1
    80001a08:	00b30463          	beq	x6,x11,0x80001a10
    80001a0c:	e18fe06f          	jal	x0,0x80000024
    80001a10:	00000537          	lui	x10,0x0
    80001a14:	00050513          	addi	x10,x10,0 # 0x0
    80001a18:	00b51513          	slli	x10,x10,0xb
    80001a1c:	5a850513          	addi	x10,x10,1448
    80001a20:	00b51513          	slli	x10,x10,0xb
    80001a24:	13c50513          	addi	x10,x10,316
    80001a28:	00a51513          	slli	x10,x10,0xa
    80001a2c:	33350513          	addi	x10,x10,819
    80001a30:	00e55593          	srli	x11,x10,0xe
    80001a34:	40b1b423          	sd	x11,1032(x3)
    80001a38:	0002d337          	lui	x6,0x2d
    80001a3c:	4133031b          	addiw	x6,x6,1043 # 0x2d413
    80001a40:	00b30463          	beq	x6,x11,0x80001a48
    80001a44:	de0fe06f          	jal	x0,0x80000024
    80001a48:	00100513          	addi	x10,x0,1
    80001a4c:	01251513          	slli	x10,x10,0x12
    80001a50:	00755593          	srli	x11,x10,0x7
    80001a54:	40b1b823          	sd	x11,1040(x3)
    80001a58:	00001337          	lui	x6,0x1
    80001a5c:	8003031b          	addiw	x6,x6,-2048 # 0x800
    80001a60:	00b30463          	beq	x6,x11,0x80001a68
    80001a64:	dc0fe06f          	jal	x0,0x80000024
    80001a68:	0380006f          	jal	x0,0x80001aa0
    80001a6c:	1f813483          	ld	x9,504(x2)
    80001a70:	20013303          	ld	x6,512(x2)
    80001a74:	00930333          	add	x6,x6,x9
    80001a78:	00000337          	lui	x6,0x0
    80001a7c:	00030313          	addi	x6,x6,0 # 0x0
    80001a80:	00b31313          	slli	x6,x6,0xb
    80001a84:	5d630313          	addi	x6,x6,1494
    80001a88:	00b31313          	slli	x6,x6,0xb
    80001a8c:	43630313          	addi	x6,x6,1078
    80001a90:	00a31313          	slli	x6,x6,0xa
    80001a94:	2d030313          	addi	x6,x6,720
    80001a98:	fe64be23          	sd	x6,-4(x9)
    80001a9c:	0040006f          	jal	x0,0x80001aa0
    80001aa0:	00000513          	addi	x10,x0,0
    80001aa4:	0240006f          	jal	x0,0x80001ac8
	...
    80001ac8:	00050513          	addi	x10,x10,0
    80001acc:	00100073          	ebreak
    80001ad0:	0000006f          	jal	x0,0x80001ad0
    80001ad4:	ff010113          	addi	x2,x2,-16
    80001ad8:	00000517          	auipc	x10,0x0
    80001adc:	02050513          	addi	x10,x10,32 # 0x80001af8
    80001ae0:	00113423          	sd	x1,8(x2)
    80001ae4:	d2cfe0ef          	jal	x1,0x80000010
    80001ae8:	00050513          	addi	x10,x10,0
    80001aec:	00100073          	ebreak
    80001af0:	0000006f          	jal	x0,0x80001af0
	...
    80002000:	cafe                	c.swsp	x31,84(x2)
    80002002:	babe                	c.fsdsp	f15,368(x2)
    80002004:	cafe                	c.swsp	x31,84(x2)
    80002006:	babe                	c.fsdsp	f15,368(x2)
    80002008:	cafe                	c.swsp	x31,84(x2)
    8000200a:	babe                	c.fsdsp	f15,368(x2)
    8000200c:	cafe                	c.swsp	x31,84(x2)
    8000200e:	babe                	c.fsdsp	f15,368(x2)
    80002010:	deadbeef          	jal	x29,0x7ffdd5fa
    80002014:	deadbeef          	jal	x29,0x7ffdd5fe
	...
    80003000:	b281                	c.j	0x80002940
    80003002:	e7d4                	c.sd	x13,136(x15)
    80003004:	a309                	c.j	0x80003506
    80003006:	6f5c                	c.ld	x15,152(x14)
    80003008:	deadbeef          	jal	x29,0x7ffde5f2
    8000300c:	deadbeef          	jal	x29,0x7ffde5f6
    80003010:	deadbeef          	jal	x29,0x7ffde5fa
    80003014:	deadbeef          	jal	x29,0x7ffde5fe
    80003018:	deadbeef          	jal	x29,0x7ffde602
    8000301c:	deadbeef          	jal	x29,0x7ffde606
    80003020:	deadbeef          	jal	x29,0x7ffde60a
    80003024:	deadbeef          	jal	x29,0x7ffde60e
    80003028:	deadbeef          	jal	x29,0x7ffde612
    8000302c:	deadbeef          	jal	x29,0x7ffde616
    80003030:	deadbeef          	jal	x29,0x7ffde61a
    80003034:	deadbeef          	jal	x29,0x7ffde61e
    80003038:	deadbeef          	jal	x29,0x7ffde622
    8000303c:	deadbeef          	jal	x29,0x7ffde626
    80003040:	deadbeef          	jal	x29,0x7ffde62a
    80003044:	deadbeef          	jal	x29,0x7ffde62e
    80003048:	deadbeef          	jal	x29,0x7ffde632
    8000304c:	deadbeef          	jal	x29,0x7ffde636
    80003050:	deadbeef          	jal	x29,0x7ffde63a
    80003054:	deadbeef          	jal	x29,0x7ffde63e
    80003058:	deadbeef          	jal	x29,0x7ffde642
    8000305c:	deadbeef          	jal	x29,0x7ffde646
    80003060:	deadbeef          	jal	x29,0x7ffde64a
    80003064:	deadbeef          	jal	x29,0x7ffde64e
    80003068:	deadbeef          	jal	x29,0x7ffde652
    8000306c:	deadbeef          	jal	x29,0x7ffde656
    80003070:	deadbeef          	jal	x29,0x7ffde65a
    80003074:	deadbeef          	jal	x29,0x7ffde65e
    80003078:	deadbeef          	jal	x29,0x7ffde662
    8000307c:	deadbeef          	jal	x29,0x7ffde666
    80003080:	deadbeef          	jal	x29,0x7ffde66a
    80003084:	deadbeef          	jal	x29,0x7ffde66e
    80003088:	deadbeef          	jal	x29,0x7ffde672
    8000308c:	deadbeef          	jal	x29,0x7ffde676
    80003090:	deadbeef          	jal	x29,0x7ffde67a
    80003094:	deadbeef          	jal	x29,0x7ffde67e
    80003098:	deadbeef          	jal	x29,0x7ffde682
    8000309c:	deadbeef          	jal	x29,0x7ffde686
    800030a0:	deadbeef          	jal	x29,0x7ffde68a
    800030a4:	deadbeef          	jal	x29,0x7ffde68e
    800030a8:	deadbeef          	jal	x29,0x7ffde692
    800030ac:	deadbeef          	jal	x29,0x7ffde696
    800030b0:	deadbeef          	jal	x29,0x7ffde69a
    800030b4:	deadbeef          	jal	x29,0x7ffde69e
    800030b8:	deadbeef          	jal	x29,0x7ffde6a2
    800030bc:	deadbeef          	jal	x29,0x7ffde6a6
    800030c0:	deadbeef          	jal	x29,0x7ffde6aa
    800030c4:	deadbeef          	jal	x29,0x7ffde6ae
    800030c8:	deadbeef          	jal	x29,0x7ffde6b2
    800030cc:	deadbeef          	jal	x29,0x7ffde6b6
    800030d0:	deadbeef          	jal	x29,0x7ffde6ba
    800030d4:	deadbeef          	jal	x29,0x7ffde6be
    800030d8:	deadbeef          	jal	x29,0x7ffde6c2
    800030dc:	deadbeef          	jal	x29,0x7ffde6c6
    800030e0:	deadbeef          	jal	x29,0x7ffde6ca
    800030e4:	deadbeef          	jal	x29,0x7ffde6ce
    800030e8:	deadbeef          	jal	x29,0x7ffde6d2
    800030ec:	deadbeef          	jal	x29,0x7ffde6d6
    800030f0:	deadbeef          	jal	x29,0x7ffde6da
    800030f4:	deadbeef          	jal	x29,0x7ffde6de
    800030f8:	deadbeef          	jal	x29,0x7ffde6e2
    800030fc:	deadbeef          	jal	x29,0x7ffde6e6
    80003100:	deadbeef          	jal	x29,0x7ffde6ea
    80003104:	deadbeef          	jal	x29,0x7ffde6ee
    80003108:	deadbeef          	jal	x29,0x7ffde6f2
    8000310c:	deadbeef          	jal	x29,0x7ffde6f6
    80003110:	deadbeef          	jal	x29,0x7ffde6fa
    80003114:	deadbeef          	jal	x29,0x7ffde6fe
    80003118:	deadbeef          	jal	x29,0x7ffde702
    8000311c:	deadbeef          	jal	x29,0x7ffde706
    80003120:	deadbeef          	jal	x29,0x7ffde70a
    80003124:	deadbeef          	jal	x29,0x7ffde70e
    80003128:	deadbeef          	jal	x29,0x7ffde712
    8000312c:	deadbeef          	jal	x29,0x7ffde716
    80003130:	deadbeef          	jal	x29,0x7ffde71a
    80003134:	deadbeef          	jal	x29,0x7ffde71e
    80003138:	deadbeef          	jal	x29,0x7ffde722
    8000313c:	deadbeef          	jal	x29,0x7ffde726
    80003140:	deadbeef          	jal	x29,0x7ffde72a
    80003144:	deadbeef          	jal	x29,0x7ffde72e
    80003148:	deadbeef          	jal	x29,0x7ffde732
    8000314c:	deadbeef          	jal	x29,0x7ffde736
    80003150:	deadbeef          	jal	x29,0x7ffde73a
    80003154:	deadbeef          	jal	x29,0x7ffde73e
    80003158:	deadbeef          	jal	x29,0x7ffde742
    8000315c:	deadbeef          	jal	x29,0x7ffde746
    80003160:	deadbeef          	jal	x29,0x7ffde74a
    80003164:	deadbeef          	jal	x29,0x7ffde74e
    80003168:	deadbeef          	jal	x29,0x7ffde752
    8000316c:	deadbeef          	jal	x29,0x7ffde756
    80003170:	deadbeef          	jal	x29,0x7ffde75a
    80003174:	deadbeef          	jal	x29,0x7ffde75e
    80003178:	deadbeef          	jal	x29,0x7ffde762
    8000317c:	deadbeef          	jal	x29,0x7ffde766
    80003180:	deadbeef          	jal	x29,0x7ffde76a
    80003184:	deadbeef          	jal	x29,0x7ffde76e
    80003188:	deadbeef          	jal	x29,0x7ffde772
    8000318c:	deadbeef          	jal	x29,0x7ffde776
    80003190:	deadbeef          	jal	x29,0x7ffde77a
    80003194:	deadbeef          	jal	x29,0x7ffde77e
    80003198:	deadbeef          	jal	x29,0x7ffde782
    8000319c:	deadbeef          	jal	x29,0x7ffde786
    800031a0:	deadbeef          	jal	x29,0x7ffde78a
    800031a4:	deadbeef          	jal	x29,0x7ffde78e
    800031a8:	deadbeef          	jal	x29,0x7ffde792
    800031ac:	deadbeef          	jal	x29,0x7ffde796
    800031b0:	deadbeef          	jal	x29,0x7ffde79a
    800031b4:	deadbeef          	jal	x29,0x7ffde79e
    800031b8:	deadbeef          	jal	x29,0x7ffde7a2
    800031bc:	deadbeef          	jal	x29,0x7ffde7a6
    800031c0:	deadbeef          	jal	x29,0x7ffde7aa
    800031c4:	deadbeef          	jal	x29,0x7ffde7ae
    800031c8:	deadbeef          	jal	x29,0x7ffde7b2
    800031cc:	deadbeef          	jal	x29,0x7ffde7b6
    800031d0:	deadbeef          	jal	x29,0x7ffde7ba
    800031d4:	deadbeef          	jal	x29,0x7ffde7be
    800031d8:	deadbeef          	jal	x29,0x7ffde7c2
    800031dc:	deadbeef          	jal	x29,0x7ffde7c6
    800031e0:	deadbeef          	jal	x29,0x7ffde7ca
    800031e4:	deadbeef          	jal	x29,0x7ffde7ce
    800031e8:	deadbeef          	jal	x29,0x7ffde7d2
    800031ec:	deadbeef          	jal	x29,0x7ffde7d6
    800031f0:	deadbeef          	jal	x29,0x7ffde7da
    800031f4:	deadbeef          	jal	x29,0x7ffde7de
    800031f8:	deadbeef          	jal	x29,0x7ffde7e2
    800031fc:	deadbeef          	jal	x29,0x7ffde7e6
    80003200:	deadbeef          	jal	x29,0x7ffde7ea
    80003204:	deadbeef          	jal	x29,0x7ffde7ee
    80003208:	deadbeef          	jal	x29,0x7ffde7f2
    8000320c:	deadbeef          	jal	x29,0x7ffde7f6
    80003210:	deadbeef          	jal	x29,0x7ffde7fa
    80003214:	deadbeef          	jal	x29,0x7ffde7fe
    80003218:	deadbeef          	jal	x29,0x7ffde802
    8000321c:	deadbeef          	jal	x29,0x7ffde806
    80003220:	deadbeef          	jal	x29,0x7ffde80a
    80003224:	deadbeef          	jal	x29,0x7ffde80e
    80003228:	deadbeef          	jal	x29,0x7ffde812
    8000322c:	deadbeef          	jal	x29,0x7ffde816
    80003230:	deadbeef          	jal	x29,0x7ffde81a
    80003234:	deadbeef          	jal	x29,0x7ffde81e
    80003238:	deadbeef          	jal	x29,0x7ffde822
    8000323c:	deadbeef          	jal	x29,0x7ffde826
    80003240:	deadbeef          	jal	x29,0x7ffde82a
    80003244:	deadbeef          	jal	x29,0x7ffde82e
    80003248:	deadbeef          	jal	x29,0x7ffde832
    8000324c:	deadbeef          	jal	x29,0x7ffde836
    80003250:	deadbeef          	jal	x29,0x7ffde83a
    80003254:	deadbeef          	jal	x29,0x7ffde83e
    80003258:	deadbeef          	jal	x29,0x7ffde842
    8000325c:	deadbeef          	jal	x29,0x7ffde846
    80003260:	deadbeef          	jal	x29,0x7ffde84a
    80003264:	deadbeef          	jal	x29,0x7ffde84e
    80003268:	deadbeef          	jal	x29,0x7ffde852
    8000326c:	deadbeef          	jal	x29,0x7ffde856
    80003270:	deadbeef          	jal	x29,0x7ffde85a
    80003274:	deadbeef          	jal	x29,0x7ffde85e
    80003278:	deadbeef          	jal	x29,0x7ffde862
    8000327c:	deadbeef          	jal	x29,0x7ffde866
    80003280:	deadbeef          	jal	x29,0x7ffde86a
    80003284:	deadbeef          	jal	x29,0x7ffde86e
    80003288:	deadbeef          	jal	x29,0x7ffde872
    8000328c:	deadbeef          	jal	x29,0x7ffde876
    80003290:	deadbeef          	jal	x29,0x7ffde87a
    80003294:	deadbeef          	jal	x29,0x7ffde87e
    80003298:	deadbeef          	jal	x29,0x7ffde882
    8000329c:	deadbeef          	jal	x29,0x7ffde886
    800032a0:	deadbeef          	jal	x29,0x7ffde88a
    800032a4:	deadbeef          	jal	x29,0x7ffde88e
    800032a8:	deadbeef          	jal	x29,0x7ffde892
    800032ac:	deadbeef          	jal	x29,0x7ffde896
    800032b0:	deadbeef          	jal	x29,0x7ffde89a
    800032b4:	deadbeef          	jal	x29,0x7ffde89e
    800032b8:	deadbeef          	jal	x29,0x7ffde8a2
    800032bc:	deadbeef          	jal	x29,0x7ffde8a6
    800032c0:	deadbeef          	jal	x29,0x7ffde8aa
    800032c4:	deadbeef          	jal	x29,0x7ffde8ae
    800032c8:	deadbeef          	jal	x29,0x7ffde8b2
    800032cc:	deadbeef          	jal	x29,0x7ffde8b6
    800032d0:	deadbeef          	jal	x29,0x7ffde8ba
    800032d4:	deadbeef          	jal	x29,0x7ffde8be
    800032d8:	deadbeef          	jal	x29,0x7ffde8c2
    800032dc:	deadbeef          	jal	x29,0x7ffde8c6
    800032e0:	deadbeef          	jal	x29,0x7ffde8ca
    800032e4:	deadbeef          	jal	x29,0x7ffde8ce
    800032e8:	deadbeef          	jal	x29,0x7ffde8d2
    800032ec:	deadbeef          	jal	x29,0x7ffde8d6
    800032f0:	deadbeef          	jal	x29,0x7ffde8da
    800032f4:	deadbeef          	jal	x29,0x7ffde8de
    800032f8:	deadbeef          	jal	x29,0x7ffde8e2
    800032fc:	deadbeef          	jal	x29,0x7ffde8e6
    80003300:	deadbeef          	jal	x29,0x7ffde8ea
    80003304:	deadbeef          	jal	x29,0x7ffde8ee
    80003308:	deadbeef          	jal	x29,0x7ffde8f2
    8000330c:	deadbeef          	jal	x29,0x7ffde8f6
    80003310:	deadbeef          	jal	x29,0x7ffde8fa
    80003314:	deadbeef          	jal	x29,0x7ffde8fe
    80003318:	deadbeef          	jal	x29,0x7ffde902
    8000331c:	deadbeef          	jal	x29,0x7ffde906
    80003320:	deadbeef          	jal	x29,0x7ffde90a
    80003324:	deadbeef          	jal	x29,0x7ffde90e
    80003328:	deadbeef          	jal	x29,0x7ffde912
    8000332c:	deadbeef          	jal	x29,0x7ffde916
    80003330:	deadbeef          	jal	x29,0x7ffde91a
    80003334:	deadbeef          	jal	x29,0x7ffde91e
    80003338:	deadbeef          	jal	x29,0x7ffde922
    8000333c:	deadbeef          	jal	x29,0x7ffde926
    80003340:	deadbeef          	jal	x29,0x7ffde92a
    80003344:	deadbeef          	jal	x29,0x7ffde92e
    80003348:	deadbeef          	jal	x29,0x7ffde932
    8000334c:	deadbeef          	jal	x29,0x7ffde936
    80003350:	deadbeef          	jal	x29,0x7ffde93a
    80003354:	deadbeef          	jal	x29,0x7ffde93e
    80003358:	deadbeef          	jal	x29,0x7ffde942
    8000335c:	deadbeef          	jal	x29,0x7ffde946
    80003360:	deadbeef          	jal	x29,0x7ffde94a
    80003364:	deadbeef          	jal	x29,0x7ffde94e
    80003368:	deadbeef          	jal	x29,0x7ffde952
    8000336c:	deadbeef          	jal	x29,0x7ffde956
    80003370:	deadbeef          	jal	x29,0x7ffde95a
    80003374:	deadbeef          	jal	x29,0x7ffde95e
    80003378:	deadbeef          	jal	x29,0x7ffde962
    8000337c:	deadbeef          	jal	x29,0x7ffde966
    80003380:	deadbeef          	jal	x29,0x7ffde96a
    80003384:	deadbeef          	jal	x29,0x7ffde96e
    80003388:	deadbeef          	jal	x29,0x7ffde972
    8000338c:	deadbeef          	jal	x29,0x7ffde976
    80003390:	deadbeef          	jal	x29,0x7ffde97a
    80003394:	deadbeef          	jal	x29,0x7ffde97e
    80003398:	deadbeef          	jal	x29,0x7ffde982
    8000339c:	deadbeef          	jal	x29,0x7ffde986
    800033a0:	deadbeef          	jal	x29,0x7ffde98a
    800033a4:	deadbeef          	jal	x29,0x7ffde98e
    800033a8:	deadbeef          	jal	x29,0x7ffde992
    800033ac:	deadbeef          	jal	x29,0x7ffde996
    800033b0:	deadbeef          	jal	x29,0x7ffde99a
    800033b4:	deadbeef          	jal	x29,0x7ffde99e
    800033b8:	deadbeef          	jal	x29,0x7ffde9a2
    800033bc:	deadbeef          	jal	x29,0x7ffde9a6
    800033c0:	deadbeef          	jal	x29,0x7ffde9aa
    800033c4:	deadbeef          	jal	x29,0x7ffde9ae
    800033c8:	deadbeef          	jal	x29,0x7ffde9b2
    800033cc:	deadbeef          	jal	x29,0x7ffde9b6
    800033d0:	deadbeef          	jal	x29,0x7ffde9ba
    800033d4:	deadbeef          	jal	x29,0x7ffde9be
    800033d8:	deadbeef          	jal	x29,0x7ffde9c2
    800033dc:	deadbeef          	jal	x29,0x7ffde9c6
    800033e0:	deadbeef          	jal	x29,0x7ffde9ca
    800033e4:	deadbeef          	jal	x29,0x7ffde9ce
    800033e8:	deadbeef          	jal	x29,0x7ffde9d2
    800033ec:	deadbeef          	jal	x29,0x7ffde9d6
    800033f0:	deadbeef          	jal	x29,0x7ffde9da
    800033f4:	deadbeef          	jal	x29,0x7ffde9de
    800033f8:	deadbeef          	jal	x29,0x7ffde9e2
    800033fc:	deadbeef          	jal	x29,0x7ffde9e6
    80003400:	deadbeef          	jal	x29,0x7ffde9ea
    80003404:	deadbeef          	jal	x29,0x7ffde9ee
    80003408:	deadbeef          	jal	x29,0x7ffde9f2
    8000340c:	deadbeef          	jal	x29,0x7ffde9f6
    80003410:	deadbeef          	jal	x29,0x7ffde9fa
    80003414:	deadbeef          	jal	x29,0x7ffde9fe
    80003418:	deadbeef          	jal	x29,0x7ffdea02
    8000341c:	deadbeef          	jal	x29,0x7ffdea06
    80003420:	deadbeef          	jal	x29,0x7ffdea0a
    80003424:	deadbeef          	jal	x29,0x7ffdea0e
    80003428:	deadbeef          	jal	x29,0x7ffdea12
    8000342c:	deadbeef          	jal	x29,0x7ffdea16
    80003430:	deadbeef          	jal	x29,0x7ffdea1a
    80003434:	deadbeef          	jal	x29,0x7ffdea1e
    80003438:	deadbeef          	jal	x29,0x7ffdea22
    8000343c:	deadbeef          	jal	x29,0x7ffdea26
    80003440:	deadbeef          	jal	x29,0x7ffdea2a
    80003444:	deadbeef          	jal	x29,0x7ffdea2e
    80003448:	deadbeef          	jal	x29,0x7ffdea32
    8000344c:	deadbeef          	jal	x29,0x7ffdea36
    80003450:	deadbeef          	jal	x29,0x7ffdea3a
    80003454:	deadbeef          	jal	x29,0x7ffdea3e
    80003458:	deadbeef          	jal	x29,0x7ffdea42
    8000345c:	deadbeef          	jal	x29,0x7ffdea46
    80003460:	deadbeef          	jal	x29,0x7ffdea4a
    80003464:	deadbeef          	jal	x29,0x7ffdea4e
    80003468:	deadbeef          	jal	x29,0x7ffdea52
    8000346c:	deadbeef          	jal	x29,0x7ffdea56
    80003470:	deadbeef          	jal	x29,0x7ffdea5a
    80003474:	deadbeef          	jal	x29,0x7ffdea5e
    80003478:	deadbeef          	jal	x29,0x7ffdea62
    8000347c:	deadbeef          	jal	x29,0x7ffdea66
    80003480:	deadbeef          	jal	x29,0x7ffdea6a
    80003484:	deadbeef          	jal	x29,0x7ffdea6e
    80003488:	deadbeef          	jal	x29,0x7ffdea72
    8000348c:	deadbeef          	jal	x29,0x7ffdea76
    80003490:	deadbeef          	jal	x29,0x7ffdea7a
    80003494:	deadbeef          	jal	x29,0x7ffdea7e
    80003498:	deadbeef          	jal	x29,0x7ffdea82
    8000349c:	deadbeef          	jal	x29,0x7ffdea86
    800034a0:	deadbeef          	jal	x29,0x7ffdea8a
    800034a4:	deadbeef          	jal	x29,0x7ffdea8e
    800034a8:	deadbeef          	jal	x29,0x7ffdea92
    800034ac:	deadbeef          	jal	x29,0x7ffdea96
    800034b0:	deadbeef          	jal	x29,0x7ffdea9a
    800034b4:	deadbeef          	jal	x29,0x7ffdea9e
    800034b8:	deadbeef          	jal	x29,0x7ffdeaa2
    800034bc:	deadbeef          	jal	x29,0x7ffdeaa6
    800034c0:	deadbeef          	jal	x29,0x7ffdeaaa
    800034c4:	deadbeef          	jal	x29,0x7ffdeaae
    800034c8:	deadbeef          	jal	x29,0x7ffdeab2
    800034cc:	deadbeef          	jal	x29,0x7ffdeab6
    800034d0:	b281                	c.j	0x80002e10
    800034d2:	e7d4                	c.sd	x13,136(x15)
    800034d4:	a309                	c.j	0x800039d6
    800034d6:	6f5c                	c.ld	x15,152(x14)
	...
