
bin/riscv-arch-test/srlw-riscv64-nemu.bin:     file format binary

Contents of section .data:
 80000000 13040000 17c10000 1301c1ff ef10d030  ...............0
 80000010 ef000003 13051000 ef10502f 13050000  ..........P/....
 80000020 67800000 13051000 ef10502e 67800000  g.........P.g...
 80000030 00000000 00000000 00000000 00000000  ................
 80000040 b7c0edfe 9380d0ea 9390b000 9380707f  ..............p.
 80000050 9390b000 9380f036 9390a000 9380d02a  .......6.......*
 80000060 37e176ff 130161f5 1311b100 1301b17f  7.v...a.........
 80000070 1311b100 1301715b 1311a100 13016135  ......q[......a5
 80000080 b771bb7f 9381b1fa 9391b100 9381d13f  .q.............?
 80000090 9391b100 9381b16d 9391a100 9381b13a  .......m.......:
 800000a0 37b2ddbf 1302527d 1312b200 1302e25f  7.....R}......._
 800000b0 1312b200 1302d276 1312a200 1302523d  .......v......R=
 800000c0 b7e2eedf 9382a2be 9392b200 9382f26f  ...............o
 800000d0 9392b200 9382623b 9392a200 9382a23e  ......b;.......>
 800000e0 3773f76f 130353df 1313b300 1303f337  7s.o..S........7
 800000f0 1313b300 1303b35d 1313a300 1303531f  .......]......S.
 80000100 b7b3fbb7 9383a36f 9393b300 9383f35b  .......o.......[
 80000110 9393b300 9383d36e 9393a300 9383a32f  .......n......./
 80000120 37e4fd5b 1304d4b7 1314b400 1304f42d  7..[...........-
 80000130 1314b400 13046477 1314a400 1304d437  ......dw.......7
 80000140 b7f4fead 9384e4db 9394b400 9384f456  ...............V
 80000150 9394b400 9384b47b 9394a400 9384e41b  .......{........
 80000160 3775ff56 1305f56d 1315b500 1305752b  7u.V...m......u+
 80000170 1315b500 1305d57d 1315a500 1305f52d  .......}.......-
 80000180 b7c57fab 9385f5b6 9395b500 9385b555  ...............U
 80000190 9395b500 9385e57e 9395a500 9385f536  .......~.......6
 800001a0 37e6bfd5 130676db 1316b600 1306d66a  7.....v........j
 800001b0 1316b600 1306767f 1316a600 1306761b  ......v.......v.
 800001c0 b7f6dfea 9386b6ed 9396b600 93866675  ..............fu
 800001d0 9396b600 9386b67f 9396a600 9386b62d  ...............-
 800001e0 37f76ff5 1307d776 1317b700 1307b77a  7.o....v.......z
 800001f0 1317b700 1307d73f 1317a700 1307d736  .......?.......6
 80000200 b707b8fa 938767bb 9397b700 9387577d  ......g.......W}
 80000210 9397b700 9387e75f 9397a700 9387673b  ......._......g;
 80000220 37085c7d 1308b8dd 1318b800 1308a83e  7.\}...........>
 80000230 1318b800 1308f86f 1318a800 1308b81d  .......o........
 80000240 b708aebe 9388d8ee 9398b800 9388585f  ..............X_
 80000250 9398b800 9388f837 9398a800 9388d82e  .......7........
 80000260 370957df 130969f7 1319b900 1309a96f  7.W...i........o
 80000270 1319b900 1309f95b 1319a900 13096937  .......[......i7
 80000280 b789ab6f 9389b9fb 9399b900 9389d937  ...o...........7
 80000290 9399b900 9389f92d 9399a900 9389b93b  .......-.......;
 800002a0 37cad5b7 130adafd 131aba00 130aea5b  7..............[
 800002b0 131aba00 130afa56 131aaa00 130ada3d  .......V.......=
 800002c0 b7eaeadb 938aeafe 939aba00 938afa6d  ...............m
 800002d0 939aba00 938a7a2b 939aaa00 938aea3e  ......z+.......>
 800002e0 377bf56d 130b7bff 131bbb00 130bfb36  7{.m..{........6
 800002f0 131bbb00 130bbb55 131bab00 130b7b3f  .......U......{?
 80000300 b7bbfab6 938bbb7f 939bbb00 938b7b5b  ..............{[
 80000310 939bbb00 938bdb6a 939bab00 938bbb3f  .......j.......?
 80000320 376c7ddb 130cdcbf 131cbc00 130cbc6d  7l}............m
 80000330 131cbc00 130c6c75 131cac00 130cdc3f  ......lu.......?
 80000340 b7bcbeed 938cecdf 939cbc00 938cdc76  ...............v
 80000350 939cbc00 938cbc7a 939cac00 938cec1f  .......z........
 80000360 375ddf76 130dfd6f 131dbd00 130d6d3b  7].v...o......m;
 80000370 131dbd00 130d5d7d 131dad00 130dfd2f  ......]}......./
 80000380 b7bd6fbb 938dfdb7 939dbd00 938dbd5d  ..o............]
 80000390 939dbd00 938dad3e 939dad00 938dfd37  .......>.......7
 800003a0 37deb7dd 130efe5b 131ebe00 130ede6e  7......[.......n
 800003b0 131ebe00 130e5e5f 131eae00 130efe1b  ......^_........
 800003c0 b7fedbee 938efead 939ebe00 938e6e77  ..............nw
 800003d0 939ebe00 938eae6f 939eae00 938efe2d  .......o.......-
 800003e0 37ff6df7 130fff56 131fbf00 130fbf7b  7.m....V.......{
 800003f0 131fbf00 130fdf37 131faf00 130fff16  .......7........
 80000400 b70fb7fb 938f7fab 939fbf00 938fdf7d  ...............}
 80000410 939fbf00 938fef5b 939faf00 938f7f2b  .......[.......+
 80000420 17340000 130484be 13000000 13000000  .4..............
 80000430 13000000 13000000 13000000 13000000  ................
 80000440 b7080000 9388f8ff 9398b800 93887825  ..............x%
 80000450 9398b800 9388386c 9398a800 9388d80c  ......8l........
 80000460 b7080000 9388f8ff 9398b800 93887825  ..............x%
 80000470 9398b800 9388386c 9398a800 9388d80c  ......8l........
 80000480 3bdc1801 23308401 37550200 1b05857d  ;...#0..7U.....}
 80000490 63048501 6ff01fb9 93011000 9391a103  c...o...........
 800004a0 13062000 3bd6c100 2334c400 13050000  .. .;...#4......
 800004b0 6304c500 6ff01fb7 93031000 93934303  c...o.........C.
 800004c0 93c3f3ff 93031000 93934303 93c3f3ff  ..........C.....
 800004d0 bbd37300 23387400 13051000 63047500  ..s.#8t.....c.u.
 800004e0 6ff05fb4 93041000 9394f402 93070000  o._.............
 800004f0 3bdbf400 233c6401 13050000 63046501  ;...#<d.....c.e.
 80000500 6ff05fb2 93057000 13027000 bbd54500  o._...p...p...E.
 80000510 2330b402 13050000 6304b500 6ff09fb0  #0......c...o...
 80000520 1302f0ff 1312f203 130cf000 bb508201  .............P..
 80000530 23341402 13050000 63041500 6ff09fae  #4......c...o...
 80000540 13010000 13092001 3b502101 23380402  ...... .;P!.#8..
 80000550 13050000 63040500 6ff0dfac 930af0ff  ....c...o.......
 80000560 93da1a00 13000000 bbd20a00 233c5402  ............#<T.
 80000570 1305f0ff 63045500 6ff0dfaa 93071000  ....c.U.o.......
 80000580 93042000 bbda9700 23305405 13050000  .. .....#0T.....
 80000590 63045501 6ff01fa9 93062000 130f3001  c.U.o..... ...0.
 800005a0 3bd3e601 23346404 13050000 63046500  ;...#4d.....c.e.
 800005b0 6ff05fa7 130b4000 130ae000 bb5b4b01  o._...@......[K.
 800005c0 23387405 13050000 63047501 6ff09fa5  #8t.....c.u.o...
 800005d0 13068000 130d2001 3b5ea601 233cc405  ...... .;^..#<..
 800005e0 13050000 6304c501 6ff0dfa3 130c0001  ....c...o.......
 800005f0 930f2001 3b51fc01 23302406 13050000  .. .;Q..#0$.....
 80000600 63042500 6ff01fa2 13080002 930ce001  c.%.o...........
 80000610 bb5d9801 2334b407 13050000 6304b501  .]..#4......c...
 80000620 6ff05fa0 930f0004 93008000 bbd71f00  o._.............
 80000630 2338f406 13050000 6304f500 6ff09f9e  #8......c...o...
 80000640 13000000 9302d000 bb5c5000 233c9407  .........\P.#<..
 80000650 13050000 63049501 6ff0df9c 930d0010  ....c...o.......
 80000660 1307e001 3bdfed00 2330e409 13050000  ....;...#0......
 80000670 6304e501 6ff01f9b 13030020 9309b001  c...o...... ....
 80000680 3b523301 23344408 93030000 63844300  ;R3.#4D.....c.C.
 80000690 6ff05f99 13000000 13000000 13000000  o._.............
 800006a0 17320000 1302829f 13000000 13000000  .2..............
 800006b0 13000000 13000000 13000000 13000000  ................
 800006c0 130a0040 130e5000 bb51ca01 23303200  ...@..P..Q..#02.
 800006d0 93030002 63843300 6ff0df94 13091000  ....c.3.o.......
 800006e0 1319b900 93053000 bb5fb900 2334f201  ......0.._..#4..
 800006f0 93030010 6384f301 6ff0df92 130f1000  ....c...o.......
 80000700 131fcf00 1301e000 3b592f00 23382201  ........;Y/.#8".
 80000710 93030000 63842301 6ff0df90 93091000  ....c.#.o.......
 80000720 9399d900 930a9000 3bdd5901 233ca201  ........;.Y.#<..
 80000730 93030001 6384a301 6ff0df8e 93001000  ....c...o.......
 80000740 9390e000 930e5000 3bdad001 23304203  ......P.;...#0B.
 80000750 93030020 63844301 6ff0df8c 930c1000  ... c.C.o.......
 80000760 939cfc00 130b3001 bbd46c01 23349202  ......0...l.#4..
 80000770 93030000 63849300 6ff0df8a 93021000  ....c...o.......
 80000780 93920201 1303e000 bbd66200 2338d202  ..........b.#8..
 80000790 93034000 6384d300 6ff0df88 130d1000  ..@.c...o.......
 800007a0 131d1d01 93012000 bb583d00 233c1203  ...... ..X=.#<..
 800007b0 b7830000 63841301 6ff0df86 13051000  ....c...o.......
 800007c0 13152501 93063000 3b54d500 23308204  ..%...0.;T..#0..
 800007d0 b7830000 63848300 6ff0df84 930b1000  ....c...o.......
 800007e0 939b3b01 1305f001 3bd8ab00 23340205  ..;.....;...#4..
 800007f0 93030000 63840301 6ff0df82 130e1000  ....c...o.......
 80000800 131e4e01 13045000 3b558e00 2338a204  ..N...P.;U..#8..
 80000810 b7830000 6384a300 6ff0df80 13041000  ....c...o.......
 80000820 13145401 930b2001 3b577401 233ce204  ..T... .;Wt.#<..
 80000830 93038000 6384e300 6ff0cffe 930e1000  ....c...o.......
 80000840 939e6e01 13083000 bbd90e01 23303207  ..n...0.....#02.
 80000850 b7030800 63843301 6ff0cffc 13071000  ....c.3.o.......
 80000860 13177701 930dd000 bb5eb701 2334d207  ..w......^..#4..
 80000870 93030040 6384d301 6ff0cffa 13051000  ...@c...o.......
 80000880 13158501 9305e001 3b56b500 2338c206  ........;V..#8..
 80000890 93030000 6384c300 6ff0cff8 13051000  ....c...o.......
 800008a0 13159501 9305c000 3b56b500 233cc206  ........;V..#<..
 800008b0 b7200000 6384c000 6ff0cff6 13051000  . ..c...o.......
 800008c0 1315a501 9305b000 3b56b500 2330c208  ........;V..#0..
 800008d0 b7800000 6384c000 6ff0cff4 13051000  ....c...o.......
 800008e0 1315b501 93056000 3b56b500 2334c208  ......`.;V..#4..
 800008f0 b7002000 6384c000 6ff0cff2 13051000  .. .c...o.......
 80000900 1315c501 93054000 3b56b500 2338c208  ......@.;V..#8..
 80000910 b7000001 6384c000 6ff0cff0 13051000  ....c...o.......
 80000920 1315d501 93053000 3b56b500 233cc208  ......0.;V..#<..
 80000930 b7000004 6384c000 6ff0cfee 13051000  ....c...o.......
 80000940 1315e501 93052000 3b56b500 2330c20a  ...... .;V..#0..
 80000950 b7000010 6384c000 6ff0cfec 13051000  ....c...o.......
 80000960 1315f501 9305f000 3b56b500 2334c20a  ........;V..#4..
 80000970 b7000100 6384c000 6ff0cfea 13051000  ....c...o.......
 80000980 13150502 93051000 3b56b500 2338c20a  ........;V..#8..
 80000990 93000000 6384c000 6ff0cfe8 13051000  ....c...o.......
 800009a0 13151502 93052001 3b56b500 233cc20a  ...... .;V..#<..
 800009b0 93000000 6384c000 6ff0cfe6 13051000  ....c...o.......
 800009c0 13152502 9305b000 3b56b500 2330c20c  ..%.....;V..#0..
 800009d0 93000000 6384c000 6ff0cfe4 13051000  ....c...o.......
 800009e0 13153502 9305c000 3b56b500 2334c20c  ..5.....;V..#4..
 800009f0 93000000 6384c000 6ff0cfe2 13051000  ....c...o.......
 80000a00 13154502 93055000 3b56b500 2338c20c  ..E...P.;V..#8..
 80000a10 93000000 6384c000 6ff0cfe0 13051000  ....c...o.......
 80000a20 13155502 9305e001 3b56b500 233cc20c  ..U.....;V..#<..
 80000a30 93000000 6384c000 6ff0cfde 13051000  ....c...o.......
 80000a40 13156502 9305e001 3b56b500 2330c20e  ..e.....;V..#0..
 80000a50 93000000 6384c000 6ff0cfdc 13051000  ....c...o.......
 80000a60 13157502 93053001 3b56b500 2334c20e  ..u...0.;V..#4..
 80000a70 93000000 6384c000 6ff0cfda 13051000  ....c...o.......
 80000a80 13158502 93052001 3b56b500 2338c20e  ...... .;V..#8..
 80000a90 93000000 6384c000 6ff0cfd8 13051000  ....c...o.......
 80000aa0 13159502 93053001 3b56b500 233cc20e  ......0.;V..#<..
 80000ab0 93000000 6384c000 6ff0cfd6 13051000  ....c...o.......
 80000ac0 1315a502 93054000 3b56b500 2330c210  ......@.;V..#0..
 80000ad0 93000000 6384c000 6ff0cfd4 13051000  ....c...o.......
 80000ae0 1315b502 93050000 3b56b500 2334c210  ........;V..#4..
 80000af0 93000000 6384c000 6ff0cfd2 13051000  ....c...o.......
 80000b00 1315c502 9305f000 3b56b500 2338c210  ........;V..#8..
 80000b10 93000000 6384c000 6ff0cfd0 13051000  ....c...o.......
 80000b20 1315d502 93056000 3b56b500 233cc210  ......`.;V..#<..
 80000b30 93000000 6384c000 6ff0cfce 13051000  ....c...o.......
 80000b40 1315e502 93055000 3b56b500 2330c212  ......P.;V..#0..
 80000b50 93000000 6384c000 6ff0cfcc 13051000  ....c...o.......
 80000b60 13150503 9305e000 3b56b500 2334c212  ........;V..#4..
 80000b70 93000000 6384c000 6ff0cfca 13051000  ....c...o.......
 80000b80 13151503 93057000 3b56b500 2338c212  ......p.;V..#8..
 80000b90 93000000 6384c000 6ff0cfc8 13051000  ....c...o.......
 80000ba0 13152503 93057001 3b56b500 233cc212  ..%...p.;V..#<..
 80000bb0 93000000 6384c000 6ff0cfc6 13051000  ....c...o.......
 80000bc0 13153503 9305a000 3b56b500 2330c214  ..5.....;V..#0..
 80000bd0 93000000 6384c000 6ff0cfc4 13051000  ....c...o.......
 80000be0 13154503 93052001 3b56b500 2334c214  ..E... .;V..#4..
 80000bf0 93000000 6384c000 6ff0cfc2 13051000  ....c...o.......
 80000c00 13155503 93051000 3b56b500 2338c214  ..U.....;V..#8..
 80000c10 93000000 6384c000 6ff0cfc0 13051000  ....c...o.......
 80000c20 13156503 93050000 3b56b500 233cc214  ..e.....;V..#<..
 80000c30 93000000 6384c000 6ff0cfbe 13051000  ....c...o.......
 80000c40 13157503 93055000 3b56b500 2330c216  ..u...P.;V..#0..
 80000c50 93000000 6384c000 6ff0cfbc 13051000  ....c...o.......
 80000c60 13158503 93052001 3b56b500 2334c216  ...... .;V..#4..
 80000c70 93000000 6384c000 6ff0cfba 13051000  ....c...o.......
 80000c80 13159503 9305b000 3b56b500 2338c216  ........;V..#8..
 80000c90 93000000 6384c000 6ff0cfb8 13051000  ....c...o.......
 80000ca0 1315b503 9305f001 3b56b500 233cc216  ........;V..#<..
 80000cb0 93000000 6384c000 6ff0cfb6 13051000  ....c...o.......
 80000cc0 1315c503 93057000 3b56b500 2330c218  ......p.;V..#0..
 80000cd0 93000000 6384c000 6ff0cfb4 13051000  ....c...o.......
 80000ce0 1315d503 93051000 3b56b500 2334c218  ........;V..#4..
 80000cf0 93000000 6384c000 6ff0cfb2 13051000  ....c...o.......
 80000d00 1315e503 93050001 3b56b500 2338c218  ........;V..#8..
 80000d10 93000000 6384c000 6ff0cfb0 1305e0ff  ....c...o.......
 80000d20 93056000 3b56b500 233cc218 b7000004  ..`.;V..#<......
 80000d30 9b80f0ff 6384c000 6ff0cfae 1305d0ff  ....c...o.......
 80000d40 9305b001 3b56b500 2330c21a 9300f001  ....;V..#0......
 80000d50 6384c000 6ff00fad 1305b0ff 93053001  c...o.........0.
 80000d60 3b56b500 2334c21a b7200000 9b80f0ff  ;V..#4... ......
 80000d70 6384c000 6ff00fab 130570ff 9305c000  c...o.....p.....
 80000d80 3b56b500 2338c21a b7001000 9b80f0ff  ;V..#8..........
 80000d90 6384c000 6ff00fa9 1305f0fe 93054000  c...o.........@.
 80000da0 3b56b500 233cc21a b7000010 9b80e0ff  ;V..#<..........
 80000db0 6384c000 6ff00fa7 1305f0fd 93059000  c...o...........
 80000dc0 3b56b500 2330c21c b7008000 9b80f0ff  ;V..#0..........
 80000dd0 6384c000 6ff00fa5 1305f0fb 93050000  c...o...........
 80000de0 3b56b500 2334c21c 9300f0fb 6384c000  ;V..#4......c...
 80000df0 6ff04fa3 1305f0f7 93055001 3b56b500  o.O.......P.;V..
 80000e00 2338c21c 9300f07f 6384c000 6ff08fa1  #8......c...o...
 80000e10 1305f0ef 93051000 3b56b500 233cc21c  ........;V..#<..
 80000e20 b7000080 9b80f0f7 6384c000 6ff08f9f  ........c...o...
 80000e30 1305f0df 93059000 3b56b500 2330c21e  ........;V..#0..
 80000e40 b7008000 9b80e0ff 6384c000 6ff08f9d  ........c...o...
 80000e50 1305f0bf 93052000 3b56b500 2334c21e  ...... .;V..#4..
 80000e60 b7000040 9b80f0ef 6384c000 6ff08f9b  ...@....c...o...
 80000e70 13051000 1315b500 1345f5ff 93058000  .........E......
 80000e80 3b56b500 2338c21e b7000001 9b8070ff  ;V..#8........p.
 80000e90 6384c000 6ff00f99 13051000 1315c500  c...o...........
 80000ea0 1345f5ff 93053001 3b56b500 233cc21e  .E....0.;V..#<..
 80000eb0 b7200000 9b80f0ff 6384c000 6ff08f96  . ......c...o...
 80000ec0 13051000 1315d500 1345f5ff 9305c000  .........E......
 80000ed0 3b56b500 2330c220 b7001000 9b80d0ff  ;V..#0. ........
 80000ee0 6384c000 6ff00f94 13051000 1315e500  c...o...........
 80000ef0 1345f5ff 9305e000 3b56b500 2334c220  .E......;V..#4. 
 80000f00 b7000400 9b80e0ff 6384c000 6ff08f91  ........c...o...
 80000f10 13051000 1315f500 1345f5ff 93051000  .........E......
 80000f20 3b56b500 2338c220 b7c0ff7f 9b80f0ff  ;V..#8. ........
 80000f30 6384c000 6ff00f8f 13051000 13150501  c...o...........
 80000f40 1345f5ff 9305f000 3b56b500 233cc220  .E......;V..#<. 
 80000f50 b7000200 9b80d0ff 6384c000 6ff08f8c  ........c...o...
 80000f60 13051000 13151501 1345f5ff 93052001  .........E.... .
 80000f70 3b56b500 2330c222 b7400000 9b80f0ff  ;V..#0.".@......
 80000f80 6384c000 6ff00f8a 13051000 13152501  c...o.........%.
 80000f90 1345f5ff 93051000 3b56b500 2334c222  .E......;V..#4."
 80000fa0 b700fe7f 9b80f0ff 6384c000 6ff08f87  ........c...o...
 80000fb0 13051000 13153501 1345f5ff 93054000  ......5..E....@.
 80000fc0 3b56b500 2338c222 b780ff0f 9b80f0ff  ;V..#8."........
 80000fd0 6384c000 6ff00f85 13051000 13157503  c...o.........u.
 80000fe0 1345f5ff 9305e001 3b56b500 233cc222  .E......;V..#<."
 80000ff0 93003000 6384c000 6ff0cf82 13051000  ..0.c...o.......
 80001000 13158503 1345f5ff 9305d001 3b56b500  .....E......;V..
 80001010 2330c224 93007000 6384c000 6ff08f80  #0.$..p.c...o...
 80001020 13051000 13159503 1345f5ff 93058000  .........E......
 80001030 3b56b500 2334c224 b7000001 9b80f0ff  ;V..#4.$........
 80001040 6384c000 6fe01ffe 13051000 1315a503  c...o...........
 80001050 1345f5ff 93052000 3b56b500 2338c224  .E.... .;V..#8.$
 80001060 b7000040 9b80f0ff 6384c000 6fe09ffb  ...@....c...o...
 80001070 13051000 1315b503 1345f5ff 93050000  .........E......
 80001080 3b56b500 233cc224 9300f0ff 6384c000  ;V..#<.$....c...
 80001090 6fe05ff9 13051000 1315c503 1345f5ff  o._..........E..
 800010a0 93059000 3b56b500 2330c226 b7008000  ....;V..#0.&....
 800010b0 9b80f0ff 6384c000 6fe0dff6 13051000  ....c...o.......
 800010c0 1315d503 1345f5ff 9305f000 3b56b500  .....E......;V..
 800010d0 2334c226 b7000200 9b80f0ff 6384c000  #4.&........c...
 800010e0 6fe05ff4 13051000 1315e503 1345f5ff  o._..........E..
 800010f0 9305e001 3b56b500 2338c226 93003000  ....;V..#8.&..0.
 80001100 6384c000 6fe01ff2 37555555 13055555  c...o...7UUU..UU
 80001110 1315b500 1305a52a 1315b500 13055555  .......*......UU
 80001120 1315a500 13055515 9305a000 3b56b500  ......U.....;V..
 80001130 233cc226 b7501500 9b805055 6384c000  #<.&.P....PUc...
 80001140 6fe05fee 37b5aaaa 1305a5aa 1315b500  o._.7...........
 80001150 13055555 1315b500 1305a52a 1315a500  ..UU.......*....
 80001160 1305a52a 93053001 3b56b500 2330c228  ...*..0.;V..#0.(
 80001170 b7100000 9b805055 6384c000 6fe09fea  ......PUc...o...
 80001180 13053000 93057001 3b56b500 2334c228  ..0...p.;V..#4.(
 80001190 93000000 6384c000 6fe0dfe8 13055000  ....c...o.....P.
 800011a0 9305e001 3b56b500 2338c228 93000000  ....;V..#8.(....
 800011b0 6384c000 6fe01fe7 37353333 13053533  c...o...7533..53
 800011c0 1315b500 13059519 1315b500 1305c54c  ...............L
 800011d0 1315a500 13053533 93051001 3b56b500  ......53....;V..
 800011e0 233cc228 b7200000 9b809099 6384c000  #<.(. ......c...
 800011f0 6fe05fe3 37656666 13056566 1315b500  o._.7eff..ef....
 80001200 13053533 1315b500 13059519 1315a500  ..53............
 80001210 13056526 9305b001 3b56b500 2330c22a  ..e&....;V..#0.*
 80001220 9300c000 6384c000 6fe0dfdf 37050000  ....c...o...7...
 80001230 13050500 1315b500 1305855a 1315b500  ...........Z....
 80001240 1305c513 1315a500 13053533 93058000  ..........53....
 80001250 3b56b500 2334c22a b700b500 9b80304f  ;V..#4.*......0O
 80001260 6384c000 6fe01fdc 37555555 13055555  c...o...7UUU..UU
 80001270 1315b500 1305a52a 1315b500 13055555  .......*......UU
 80001280 1315a500 13054515 9305c000 3b56b500  ......E.....;V..
 80001290 2338c22a b7500500 9b805055 6384c000  #8.*.P....PUc...
 800012a0 6fe05fd8 37353333 13053533 1315b500  o._.7533..53....
 800012b0 13059519 1315b500 1305c54c 1315a500  ...........L....
 800012c0 13052533 93053000 3b56b500 233cc22a  ..%3..0.;V..#<.*
 800012d0 b7606606 9b806066 6384c000 6fe09fd4  .`f...`fc...o...
 800012e0 37656666 13056566 1315b500 13053533  7eff..ef......53
 800012f0 1315b500 13059519 1315a500 13055526  ..............U&
 80001300 93052000 3b56b500 2330c22c b7a09919  .. .;V..#0.,....
 80001310 9b809099 6384c000 6fe0dfd0 37050000  ....c...o...7...
 80001320 13050500 1315b500 1305855a 1315b500  ...........Z....
 80001330 1305c513 1315a500 13052533 9305f001  ..........%3....
 80001340 3b56b500 2334c22c 93001000 6384c000  ;V..#4.,....c...
 80001350 6fe05fcd 37555555 13055555 1315b500  o._.7UUU..UU....
 80001360 1305a52a 1315b500 13055555 1315a500  ...*......UU....
 80001370 13056515 93059000 3b56b500 2338c22c  ..e.....;V..#8.,
 80001380 b7b02a00 9b80a0aa 6384c000 6fe09fc9  ..*.....c...o...
 80001390 37b5aaaa 1305a5aa 1315b500 13055555  7.............UU
 800013a0 1315b500 1305a52a 1315a500 1305b52a  .......*.......*
 800013b0 93055001 3b56b500 233cc22c 93005055  ..P.;V..#<.,..PU
 800013c0 6384c000 6fe01fc6 13056000 9305f000  c...o.....`.....
 800013d0 3b56b500 2330c22e 93000000 6384c000  ;V..#0......c...
 800013e0 6fe05fc4 37353333 13053533 1315b500  o._.7533..53....
 800013f0 13059519 1315b500 1305c54c 1315a500  ...........L....
 80001400 13054533 93050001 3b56b500 2334c22e  ..E3....;V..#4..
 80001410 b7300000 9b803033 6384c000 6fe09fc0  .0....03c...o...
 80001420 37656666 13056566 1315b500 13053533  7eff..ef......53
 80001430 1315b500 13059519 1315a500 13057526  ..............u&
 80001440 93051001 3b56b500 2338c22e b7300000  ....;V..#8...0..
 80001450 9b803033 6384c000 6fe0dfbc 37050000  ..03c...o...7...
 80001460 1305f5ff 1315b500 13057525 1315b500  ..........u%....
 80001470 1305356c 1315a500 1305e50c 9305f001  ..5l............
 80001480 3b56b500 233cc22e 93000000 6384c000  ;V..#<......c...
 80001490 6fe05fb9 37050000 13050500 1315b500  o._.7...........
 800014a0 1305855a 1315b500 1305c513 1315a500  ...Z............
 800014b0 13054533 93055001 3b56b500 2330c230  ..E3..P.;V..#0.0
 800014c0 9300805a 6384c000 6fe0dfb5 13051000  ...Zc...o.......
 800014d0 13154501 1345f5ff 93056000 3b56b500  ..E..E....`.;V..
 800014e0 2334c230 b7c0ff03 9b80f0ff 6384c000  #4.0........c...
 800014f0 6fe05fb3 13051000 13155501 1345f5ff  o._.......U..E..
 80001500 93050001 3b56b500 2338c230 b7000100  ....;V..#8.0....
 80001510 9b80f0fd 6384c000 6fe0dfb0 13051000  ....c...o.......
 80001520 13156501 1345f5ff 93055001 3b56b500  ..e..E....P.;V..
 80001530 233cc230 9300d07f 6384c000 6fe09fae  #<.0....c...o...
 80001540 13051000 13157501 1345f5ff 9305a000  ......u..E......
 80001550 3b56b500 2330c232 b7e03f00 9b80f0ff  ;V..#0.2..?.....
 80001560 6384c000 6fe01fac 13051000 13158501  c...o...........
 80001570 1345f5ff 93059000 3b56b500 2334c232  .E......;V..#4.2
 80001580 b7807f00 9b80f0ff 6384c000 6fe09fa9  ........c...o...
 80001590 13051000 13159501 1345f5ff 93056000  .........E....`.
 800015a0 3b56b500 2338c232 b700f803 9b80f0ff  ;V..#8.2........
 800015b0 6384c000 6fe01fa7 13051000 1315a501  c...o...........
 800015c0 1345f5ff 93057001 3b56b500 233cc232  .E....p.;V..#<.2
 800015d0 9300701f 6384c000 6fe0dfa4 13051000  ..p.c...o.......
 800015e0 1315b501 1345f5ff 93052000 3b56b500  .....E.... .;V..
 800015f0 2330c234 b700003e 9b80f0ff 6384c000  #0.4...>....c...
 80001600 6fe05fa2 13051000 1315c501 1345f5ff  o._..........E..
 80001610 9305c000 3b56b500 2334c234 b7000f00  ....;V..#4.4....
 80001620 9b80f0ff 6384c000 6fe0df9f 13051000  ....c...o.......
 80001630 1315d501 1345f5ff 93059000 3b56b500  .....E......;V..
 80001640 2338c234 b7007000 9b80f0ff 6384c000  #8.4..p.....c...
 80001650 6fe05f9d 13051000 1315e501 1345f5ff  o._..........E..
 80001660 9305f001 3b56b500 233cc234 93001000  ....;V..#<.4....
 80001670 6384c000 6fe01f9b 13051000 1315f501  c...o...........
 80001680 1345f5ff 93058000 3b56b500 2330c236  .E......;V..#0.6
 80001690 b7008000 9b80f0ff 6384c000 6fe09f98  ........c...o...
 800016a0 13051000 13150502 1345f5ff 93054000  .........E....@.
 800016b0 3b56b500 2334c236 b7000010 9b80f0ff  ;V..#4.6........
 800016c0 6384c000 6fe01f96 13051000 13151502  c...o...........
 800016d0 1345f5ff 93057001 3b56b500 2338c236  .E....p.;V..#8.6
 800016e0 9300f01f 6384c000 6fe0df93 13051000  ....c...o.......
 800016f0 13152502 1345f5ff 9305d000 3b56b500  ..%..E......;V..
 80001700 233cc236 b7000800 9b80f0ff 6384c000  #<.6........c...
 80001710 6fe05f91 13051000 13153502 1345f5ff  o._.......5..E..
 80001720 9305d001 3b56b500 2330c238 93007000  ....;V..#0.8..p.
 80001730 6384c000 6fe01f8f 13051000 13154502  c...o.........E.
 80001740 1345f5ff 93055001 3b56b500 2334c238  .E....P.;V..#4.8
 80001750 9300f07f 6384c000 6fe0df8c 13051000  ....c...o.......
 80001760 13155502 1345f5ff 93052001 3b56b500  ..U..E.... .;V..
 80001770 2338c238 b7400000 9b80f0ff 6384c000  #8.8.@......c...
 80001780 6fe05f8a 13051000 13156502 1345f5ff  o._.......e..E..
 80001790 9305e000 3b56b500 233cc238 b7000400  ....;V..#<.8....
 800017a0 9b80f0ff 6384c000 6fe0df87 13051000  ....c...o.......
 800017b0 13157502 1345f5ff 93055000 3b56b500  ..u..E....P.;V..
 800017c0 2330c23a b7000008 9b80f0ff 6384c000  #0.:........c...
 800017d0 6fe05f85 13051000 13158502 1345f5ff  o._..........E..
 800017e0 93055000 3b56b500 2334c23a b7000008  ..P.;V..#4.:....
 800017f0 9b80f0ff 6384c000 6fe0df82 13051000  ....c...o.......
 80001800 13159502 1345f5ff 93055001 3b56b500  .....E....P.;V..
 80001810 2338c23a 9300f07f 6384c000 6fe09f80  #8.:....c...o...
 80001820 13051000 1315a502 1345f5ff 93055001  .........E....P.
 80001830 3b56b500 233cc23a 9300f07f 6384c000  ;V..#<.:....c...
 80001840 6fe04ffe 13051000 1315b502 1345f5ff  o.O..........E..
 80001850 93050001 3b56b500 2330c23c b7000100  ....;V..#0.<....
 80001860 9b80f0ff 6384c000 6fe0cffb 13051000  ....c...o.......
 80001870 1315c502 1345f5ff 9305d000 3b56b500  .....E......;V..
 80001880 2334c23c b7000800 9b80f0ff 6384c000  #4.<........c...
 80001890 6fe04ff9 13051000 1315d502 1345f5ff  o.O..........E..
 800018a0 93051000 3b56b500 2338c23c b7000080  ....;V..#8.<....
 800018b0 9b80f0ff 6384c000 6fe0cff6 13051000  ....c...o.......
 800018c0 1315e502 1345f5ff 93055000 3b56b500  .....E....P.;V..
 800018d0 233cc23c b7000008 9b80f0ff 6384c000  #<.<........c...
 800018e0 6fe04ff4 13051000 1315f502 1345f5ff  o.O..........E..
 800018f0 93052000 3b56b500 2330c23e b7000040  .. .;V..#0.>...@
 80001900 9b80f0ff 6384c000 6fe0cff1 13051000  ....c...o.......
 80001910 13150503 1345f5ff 9305e000 3b56b500  .....E......;V..
 80001920 2334c23e b7000400 9b80f0ff 6384c000  #4.>........c...
 80001930 6fe04fef 13051000 13151503 1345f5ff  o.O..........E..
 80001940 93051000 3b56b500 2338c23e b7000080  ....;V..#8.>....
 80001950 9b80f0ff 6384c000 6fe0cfec 13051000  ....c...o.......
 80001960 13152503 1345f5ff 9305e001 3b56b500  ..%..E......;V..
 80001970 233cc23e 93003000 6384c000 6fe08fea  #<.>..0.c...o...
 80001980 13051000 13153503 1345f5ff 9305c000  ......5..E......
 80001990 3b56b500 2330c240 b7001000 9b80f0ff  ;V..#0.@........
 800019a0 6384c000 6fe00fe8 13051000 13155503  c...o.........U.
 800019b0 1345f5ff 9305e000 3b56b500 2334c240  .E......;V..#4.@
 800019c0 b7000400 9b80f0ff 6384c000 6fe08fe5  ........c...o...
 800019d0 13051000 13156503 1345f5ff 93059000  ......e..E......
 800019e0 3b56b500 2338c240 b7008000 9b80f0ff  ;V..#8.@........
 800019f0 6384c000 6fe00fe3 37050000 1305f5ff  c...o...7.......
 80001a00 1315b500 13057525 1315b500 1305356c  ......u%......5l
 80001a10 1315a500 1305d50c 93056000 3b56b500  ..........`.;V..
 80001a20 233cc240 b7f02b01 9b8030c3 6384c000  #<.@..+...0.c...
 80001a30 6fe04fdf 13051000 13154503 1345f5ff  o.O.......E..E..
 80001a40 93050000 3b56b500 2330c242 9300f0ff  ....;V..#0.B....
 80001a50 6384c000 6fe00fdd 13050000 93052001  c...o......... .
 80001a60 3b56b500 2334c242 93000000 6384c000  ;V..#4.B....c...
 80001a70 6fe04fdb 1305f0ff 13551500 9305b001  o.O......U......
 80001a80 3b56b500 2338c242 9300f001 6384c000  ;V..#8.B....c...
 80001a90 6fe04fd9 13050008 9305d000 3b56b500  o.O.........;V..
 80001aa0 233cc242 93000000 6384c000 6fe08fd7  #<.B....c...o...
 80001ab0 6f008003 8334811f 03330120 33039300  o....4...3. 3...
 80001ac0 37030000 13030300 1313b300 1303635d  7.............c]
 80001ad0 1313b300 13036343 1313a300 1303032d  ......cC.......-
 80001ae0 23be64fe 6f004000 13050000 6f000002  #.d.o.@.....o...
 80001af0 00000000 00000000 00000000 00000000  ................
 80001b00 00000000 00000000 00000000 13050500  ................
 80001b10 73001000 6f000000 130101ff 17050000  s...o...........
 80001b20 1305c501 23341100 efe08fce 13050500  ....#4..........
 80001b30 73001000 6f000000 00000000 00000000  s...o...........
 80001b40 00000000 00000000 00000000 00000000  ................
 80001b50 00000000 00000000 00000000 00000000  ................
 80001b60 00000000 00000000 00000000 00000000  ................
 80001b70 00000000 00000000 00000000 00000000  ................
 80001b80 00000000 00000000 00000000 00000000  ................
 80001b90 00000000 00000000 00000000 00000000  ................
 80001ba0 00000000 00000000 00000000 00000000  ................
 80001bb0 00000000 00000000 00000000 00000000  ................
 80001bc0 00000000 00000000 00000000 00000000  ................
 80001bd0 00000000 00000000 00000000 00000000  ................
 80001be0 00000000 00000000 00000000 00000000  ................
 80001bf0 00000000 00000000 00000000 00000000  ................
 80001c00 00000000 00000000 00000000 00000000  ................
 80001c10 00000000 00000000 00000000 00000000  ................
 80001c20 00000000 00000000 00000000 00000000  ................
 80001c30 00000000 00000000 00000000 00000000  ................
 80001c40 00000000 00000000 00000000 00000000  ................
 80001c50 00000000 00000000 00000000 00000000  ................
 80001c60 00000000 00000000 00000000 00000000  ................
 80001c70 00000000 00000000 00000000 00000000  ................
 80001c80 00000000 00000000 00000000 00000000  ................
 80001c90 00000000 00000000 00000000 00000000  ................
 80001ca0 00000000 00000000 00000000 00000000  ................
 80001cb0 00000000 00000000 00000000 00000000  ................
 80001cc0 00000000 00000000 00000000 00000000  ................
 80001cd0 00000000 00000000 00000000 00000000  ................
 80001ce0 00000000 00000000 00000000 00000000  ................
 80001cf0 00000000 00000000 00000000 00000000  ................
 80001d00 00000000 00000000 00000000 00000000  ................
 80001d10 00000000 00000000 00000000 00000000  ................
 80001d20 00000000 00000000 00000000 00000000  ................
 80001d30 00000000 00000000 00000000 00000000  ................
 80001d40 00000000 00000000 00000000 00000000  ................
 80001d50 00000000 00000000 00000000 00000000  ................
 80001d60 00000000 00000000 00000000 00000000  ................
 80001d70 00000000 00000000 00000000 00000000  ................
 80001d80 00000000 00000000 00000000 00000000  ................
 80001d90 00000000 00000000 00000000 00000000  ................
 80001da0 00000000 00000000 00000000 00000000  ................
 80001db0 00000000 00000000 00000000 00000000  ................
 80001dc0 00000000 00000000 00000000 00000000  ................
 80001dd0 00000000 00000000 00000000 00000000  ................
 80001de0 00000000 00000000 00000000 00000000  ................
 80001df0 00000000 00000000 00000000 00000000  ................
 80001e00 00000000 00000000 00000000 00000000  ................
 80001e10 00000000 00000000 00000000 00000000  ................
 80001e20 00000000 00000000 00000000 00000000  ................
 80001e30 00000000 00000000 00000000 00000000  ................
 80001e40 00000000 00000000 00000000 00000000  ................
 80001e50 00000000 00000000 00000000 00000000  ................
 80001e60 00000000 00000000 00000000 00000000  ................
 80001e70 00000000 00000000 00000000 00000000  ................
 80001e80 00000000 00000000 00000000 00000000  ................
 80001e90 00000000 00000000 00000000 00000000  ................
 80001ea0 00000000 00000000 00000000 00000000  ................
 80001eb0 00000000 00000000 00000000 00000000  ................
 80001ec0 00000000 00000000 00000000 00000000  ................
 80001ed0 00000000 00000000 00000000 00000000  ................
 80001ee0 00000000 00000000 00000000 00000000  ................
 80001ef0 00000000 00000000 00000000 00000000  ................
 80001f00 00000000 00000000 00000000 00000000  ................
 80001f10 00000000 00000000 00000000 00000000  ................
 80001f20 00000000 00000000 00000000 00000000  ................
 80001f30 00000000 00000000 00000000 00000000  ................
 80001f40 00000000 00000000 00000000 00000000  ................
 80001f50 00000000 00000000 00000000 00000000  ................
 80001f60 00000000 00000000 00000000 00000000  ................
 80001f70 00000000 00000000 00000000 00000000  ................
 80001f80 00000000 00000000 00000000 00000000  ................
 80001f90 00000000 00000000 00000000 00000000  ................
 80001fa0 00000000 00000000 00000000 00000000  ................
 80001fb0 00000000 00000000 00000000 00000000  ................
 80001fc0 00000000 00000000 00000000 00000000  ................
 80001fd0 00000000 00000000 00000000 00000000  ................
 80001fe0 00000000 00000000 00000000 00000000  ................
 80001ff0 00000000 00000000 00000000 00000000  ................
 80002000 fecabeba fecabeba fecabeba fecabeba  ................
 80002010 efbeadde efbeadde 00000000 00000000  ................
 80002020 00000000 00000000 00000000 00000000  ................
 80002030 00000000 00000000 00000000 00000000  ................
 80002040 00000000 00000000 00000000 00000000  ................
 80002050 00000000 00000000 00000000 00000000  ................
 80002060 00000000 00000000 00000000 00000000  ................
 80002070 00000000 00000000 00000000 00000000  ................
 80002080 00000000 00000000 00000000 00000000  ................
 80002090 00000000 00000000 00000000 00000000  ................
 800020a0 00000000 00000000 00000000 00000000  ................
 800020b0 00000000 00000000 00000000 00000000  ................
 800020c0 00000000 00000000 00000000 00000000  ................
 800020d0 00000000 00000000 00000000 00000000  ................
 800020e0 00000000 00000000 00000000 00000000  ................
 800020f0 00000000 00000000 00000000 00000000  ................
 80002100 00000000 00000000 00000000 00000000  ................
 80002110 00000000 00000000 00000000 00000000  ................
 80002120 00000000 00000000 00000000 00000000  ................
 80002130 00000000 00000000 00000000 00000000  ................
 80002140 00000000 00000000 00000000 00000000  ................
 80002150 00000000 00000000 00000000 00000000  ................
 80002160 00000000 00000000 00000000 00000000  ................
 80002170 00000000 00000000 00000000 00000000  ................
 80002180 00000000 00000000 00000000 00000000  ................
 80002190 00000000 00000000 00000000 00000000  ................
 800021a0 00000000 00000000 00000000 00000000  ................
 800021b0 00000000 00000000 00000000 00000000  ................
 800021c0 00000000 00000000 00000000 00000000  ................
 800021d0 00000000 00000000 00000000 00000000  ................
 800021e0 00000000 00000000 00000000 00000000  ................
 800021f0 00000000 00000000 00000000 00000000  ................
 80002200 00000000 00000000 00000000 00000000  ................
 80002210 00000000 00000000 00000000 00000000  ................
 80002220 00000000 00000000 00000000 00000000  ................
 80002230 00000000 00000000 00000000 00000000  ................
 80002240 00000000 00000000 00000000 00000000  ................
 80002250 00000000 00000000 00000000 00000000  ................
 80002260 00000000 00000000 00000000 00000000  ................
 80002270 00000000 00000000 00000000 00000000  ................
 80002280 00000000 00000000 00000000 00000000  ................
 80002290 00000000 00000000 00000000 00000000  ................
 800022a0 00000000 00000000 00000000 00000000  ................
 800022b0 00000000 00000000 00000000 00000000  ................
 800022c0 00000000 00000000 00000000 00000000  ................
 800022d0 00000000 00000000 00000000 00000000  ................
 800022e0 00000000 00000000 00000000 00000000  ................
 800022f0 00000000 00000000 00000000 00000000  ................
 80002300 00000000 00000000 00000000 00000000  ................
 80002310 00000000 00000000 00000000 00000000  ................
 80002320 00000000 00000000 00000000 00000000  ................
 80002330 00000000 00000000 00000000 00000000  ................
 80002340 00000000 00000000 00000000 00000000  ................
 80002350 00000000 00000000 00000000 00000000  ................
 80002360 00000000 00000000 00000000 00000000  ................
 80002370 00000000 00000000 00000000 00000000  ................
 80002380 00000000 00000000 00000000 00000000  ................
 80002390 00000000 00000000 00000000 00000000  ................
 800023a0 00000000 00000000 00000000 00000000  ................
 800023b0 00000000 00000000 00000000 00000000  ................
 800023c0 00000000 00000000 00000000 00000000  ................
 800023d0 00000000 00000000 00000000 00000000  ................
 800023e0 00000000 00000000 00000000 00000000  ................
 800023f0 00000000 00000000 00000000 00000000  ................
 80002400 00000000 00000000 00000000 00000000  ................
 80002410 00000000 00000000 00000000 00000000  ................
 80002420 00000000 00000000 00000000 00000000  ................
 80002430 00000000 00000000 00000000 00000000  ................
 80002440 00000000 00000000 00000000 00000000  ................
 80002450 00000000 00000000 00000000 00000000  ................
 80002460 00000000 00000000 00000000 00000000  ................
 80002470 00000000 00000000 00000000 00000000  ................
 80002480 00000000 00000000 00000000 00000000  ................
 80002490 00000000 00000000 00000000 00000000  ................
 800024a0 00000000 00000000 00000000 00000000  ................
 800024b0 00000000 00000000 00000000 00000000  ................
 800024c0 00000000 00000000 00000000 00000000  ................
 800024d0 00000000 00000000 00000000 00000000  ................
 800024e0 00000000 00000000 00000000 00000000  ................
 800024f0 00000000 00000000 00000000 00000000  ................
 80002500 00000000 00000000 00000000 00000000  ................
 80002510 00000000 00000000 00000000 00000000  ................
 80002520 00000000 00000000 00000000 00000000  ................
 80002530 00000000 00000000 00000000 00000000  ................
 80002540 00000000 00000000 00000000 00000000  ................
 80002550 00000000 00000000 00000000 00000000  ................
 80002560 00000000 00000000 00000000 00000000  ................
 80002570 00000000 00000000 00000000 00000000  ................
 80002580 00000000 00000000 00000000 00000000  ................
 80002590 00000000 00000000 00000000 00000000  ................
 800025a0 00000000 00000000 00000000 00000000  ................
 800025b0 00000000 00000000 00000000 00000000  ................
 800025c0 00000000 00000000 00000000 00000000  ................
 800025d0 00000000 00000000 00000000 00000000  ................
 800025e0 00000000 00000000 00000000 00000000  ................
 800025f0 00000000 00000000 00000000 00000000  ................
 80002600 00000000 00000000 00000000 00000000  ................
 80002610 00000000 00000000 00000000 00000000  ................
 80002620 00000000 00000000 00000000 00000000  ................
 80002630 00000000 00000000 00000000 00000000  ................
 80002640 00000000 00000000 00000000 00000000  ................
 80002650 00000000 00000000 00000000 00000000  ................
 80002660 00000000 00000000 00000000 00000000  ................
 80002670 00000000 00000000 00000000 00000000  ................
 80002680 00000000 00000000 00000000 00000000  ................
 80002690 00000000 00000000 00000000 00000000  ................
 800026a0 00000000 00000000 00000000 00000000  ................
 800026b0 00000000 00000000 00000000 00000000  ................
 800026c0 00000000 00000000 00000000 00000000  ................
 800026d0 00000000 00000000 00000000 00000000  ................
 800026e0 00000000 00000000 00000000 00000000  ................
 800026f0 00000000 00000000 00000000 00000000  ................
 80002700 00000000 00000000 00000000 00000000  ................
 80002710 00000000 00000000 00000000 00000000  ................
 80002720 00000000 00000000 00000000 00000000  ................
 80002730 00000000 00000000 00000000 00000000  ................
 80002740 00000000 00000000 00000000 00000000  ................
 80002750 00000000 00000000 00000000 00000000  ................
 80002760 00000000 00000000 00000000 00000000  ................
 80002770 00000000 00000000 00000000 00000000  ................
 80002780 00000000 00000000 00000000 00000000  ................
 80002790 00000000 00000000 00000000 00000000  ................
 800027a0 00000000 00000000 00000000 00000000  ................
 800027b0 00000000 00000000 00000000 00000000  ................
 800027c0 00000000 00000000 00000000 00000000  ................
 800027d0 00000000 00000000 00000000 00000000  ................
 800027e0 00000000 00000000 00000000 00000000  ................
 800027f0 00000000 00000000 00000000 00000000  ................
 80002800 00000000 00000000 00000000 00000000  ................
 80002810 00000000 00000000 00000000 00000000  ................
 80002820 00000000 00000000 00000000 00000000  ................
 80002830 00000000 00000000 00000000 00000000  ................
 80002840 00000000 00000000 00000000 00000000  ................
 80002850 00000000 00000000 00000000 00000000  ................
 80002860 00000000 00000000 00000000 00000000  ................
 80002870 00000000 00000000 00000000 00000000  ................
 80002880 00000000 00000000 00000000 00000000  ................
 80002890 00000000 00000000 00000000 00000000  ................
 800028a0 00000000 00000000 00000000 00000000  ................
 800028b0 00000000 00000000 00000000 00000000  ................
 800028c0 00000000 00000000 00000000 00000000  ................
 800028d0 00000000 00000000 00000000 00000000  ................
 800028e0 00000000 00000000 00000000 00000000  ................
 800028f0 00000000 00000000 00000000 00000000  ................
 80002900 00000000 00000000 00000000 00000000  ................
 80002910 00000000 00000000 00000000 00000000  ................
 80002920 00000000 00000000 00000000 00000000  ................
 80002930 00000000 00000000 00000000 00000000  ................
 80002940 00000000 00000000 00000000 00000000  ................
 80002950 00000000 00000000 00000000 00000000  ................
 80002960 00000000 00000000 00000000 00000000  ................
 80002970 00000000 00000000 00000000 00000000  ................
 80002980 00000000 00000000 00000000 00000000  ................
 80002990 00000000 00000000 00000000 00000000  ................
 800029a0 00000000 00000000 00000000 00000000  ................
 800029b0 00000000 00000000 00000000 00000000  ................
 800029c0 00000000 00000000 00000000 00000000  ................
 800029d0 00000000 00000000 00000000 00000000  ................
 800029e0 00000000 00000000 00000000 00000000  ................
 800029f0 00000000 00000000 00000000 00000000  ................
 80002a00 00000000 00000000 00000000 00000000  ................
 80002a10 00000000 00000000 00000000 00000000  ................
 80002a20 00000000 00000000 00000000 00000000  ................
 80002a30 00000000 00000000 00000000 00000000  ................
 80002a40 00000000 00000000 00000000 00000000  ................
 80002a50 00000000 00000000 00000000 00000000  ................
 80002a60 00000000 00000000 00000000 00000000  ................
 80002a70 00000000 00000000 00000000 00000000  ................
 80002a80 00000000 00000000 00000000 00000000  ................
 80002a90 00000000 00000000 00000000 00000000  ................
 80002aa0 00000000 00000000 00000000 00000000  ................
 80002ab0 00000000 00000000 00000000 00000000  ................
 80002ac0 00000000 00000000 00000000 00000000  ................
 80002ad0 00000000 00000000 00000000 00000000  ................
 80002ae0 00000000 00000000 00000000 00000000  ................
 80002af0 00000000 00000000 00000000 00000000  ................
 80002b00 00000000 00000000 00000000 00000000  ................
 80002b10 00000000 00000000 00000000 00000000  ................
 80002b20 00000000 00000000 00000000 00000000  ................
 80002b30 00000000 00000000 00000000 00000000  ................
 80002b40 00000000 00000000 00000000 00000000  ................
 80002b50 00000000 00000000 00000000 00000000  ................
 80002b60 00000000 00000000 00000000 00000000  ................
 80002b70 00000000 00000000 00000000 00000000  ................
 80002b80 00000000 00000000 00000000 00000000  ................
 80002b90 00000000 00000000 00000000 00000000  ................
 80002ba0 00000000 00000000 00000000 00000000  ................
 80002bb0 00000000 00000000 00000000 00000000  ................
 80002bc0 00000000 00000000 00000000 00000000  ................
 80002bd0 00000000 00000000 00000000 00000000  ................
 80002be0 00000000 00000000 00000000 00000000  ................
 80002bf0 00000000 00000000 00000000 00000000  ................
 80002c00 00000000 00000000 00000000 00000000  ................
 80002c10 00000000 00000000 00000000 00000000  ................
 80002c20 00000000 00000000 00000000 00000000  ................
 80002c30 00000000 00000000 00000000 00000000  ................
 80002c40 00000000 00000000 00000000 00000000  ................
 80002c50 00000000 00000000 00000000 00000000  ................
 80002c60 00000000 00000000 00000000 00000000  ................
 80002c70 00000000 00000000 00000000 00000000  ................
 80002c80 00000000 00000000 00000000 00000000  ................
 80002c90 00000000 00000000 00000000 00000000  ................
 80002ca0 00000000 00000000 00000000 00000000  ................
 80002cb0 00000000 00000000 00000000 00000000  ................
 80002cc0 00000000 00000000 00000000 00000000  ................
 80002cd0 00000000 00000000 00000000 00000000  ................
 80002ce0 00000000 00000000 00000000 00000000  ................
 80002cf0 00000000 00000000 00000000 00000000  ................
 80002d00 00000000 00000000 00000000 00000000  ................
 80002d10 00000000 00000000 00000000 00000000  ................
 80002d20 00000000 00000000 00000000 00000000  ................
 80002d30 00000000 00000000 00000000 00000000  ................
 80002d40 00000000 00000000 00000000 00000000  ................
 80002d50 00000000 00000000 00000000 00000000  ................
 80002d60 00000000 00000000 00000000 00000000  ................
 80002d70 00000000 00000000 00000000 00000000  ................
 80002d80 00000000 00000000 00000000 00000000  ................
 80002d90 00000000 00000000 00000000 00000000  ................
 80002da0 00000000 00000000 00000000 00000000  ................
 80002db0 00000000 00000000 00000000 00000000  ................
 80002dc0 00000000 00000000 00000000 00000000  ................
 80002dd0 00000000 00000000 00000000 00000000  ................
 80002de0 00000000 00000000 00000000 00000000  ................
 80002df0 00000000 00000000 00000000 00000000  ................
 80002e00 00000000 00000000 00000000 00000000  ................
 80002e10 00000000 00000000 00000000 00000000  ................
 80002e20 00000000 00000000 00000000 00000000  ................
 80002e30 00000000 00000000 00000000 00000000  ................
 80002e40 00000000 00000000 00000000 00000000  ................
 80002e50 00000000 00000000 00000000 00000000  ................
 80002e60 00000000 00000000 00000000 00000000  ................
 80002e70 00000000 00000000 00000000 00000000  ................
 80002e80 00000000 00000000 00000000 00000000  ................
 80002e90 00000000 00000000 00000000 00000000  ................
 80002ea0 00000000 00000000 00000000 00000000  ................
 80002eb0 00000000 00000000 00000000 00000000  ................
 80002ec0 00000000 00000000 00000000 00000000  ................
 80002ed0 00000000 00000000 00000000 00000000  ................
 80002ee0 00000000 00000000 00000000 00000000  ................
 80002ef0 00000000 00000000 00000000 00000000  ................
 80002f00 00000000 00000000 00000000 00000000  ................
 80002f10 00000000 00000000 00000000 00000000  ................
 80002f20 00000000 00000000 00000000 00000000  ................
 80002f30 00000000 00000000 00000000 00000000  ................
 80002f40 00000000 00000000 00000000 00000000  ................
 80002f50 00000000 00000000 00000000 00000000  ................
 80002f60 00000000 00000000 00000000 00000000  ................
 80002f70 00000000 00000000 00000000 00000000  ................
 80002f80 00000000 00000000 00000000 00000000  ................
 80002f90 00000000 00000000 00000000 00000000  ................
 80002fa0 00000000 00000000 00000000 00000000  ................
 80002fb0 00000000 00000000 00000000 00000000  ................
 80002fc0 00000000 00000000 00000000 00000000  ................
 80002fd0 00000000 00000000 00000000 00000000  ................
 80002fe0 00000000 00000000 00000000 00000000  ................
 80002ff0 00000000 00000000 00000000 00000000  ................
 80003000 81b2d4e7 09a35c6f efbeadde efbeadde  ......\o........
 80003010 efbeadde efbeadde efbeadde efbeadde  ................
 80003020 efbeadde efbeadde efbeadde efbeadde  ................
 80003030 efbeadde efbeadde efbeadde efbeadde  ................
 80003040 efbeadde efbeadde efbeadde efbeadde  ................
 80003050 efbeadde efbeadde efbeadde efbeadde  ................
 80003060 efbeadde efbeadde efbeadde efbeadde  ................
 80003070 efbeadde efbeadde efbeadde efbeadde  ................
 80003080 efbeadde efbeadde efbeadde efbeadde  ................
 80003090 efbeadde efbeadde efbeadde efbeadde  ................
 800030a0 efbeadde efbeadde efbeadde efbeadde  ................
 800030b0 efbeadde efbeadde efbeadde efbeadde  ................
 800030c0 efbeadde efbeadde efbeadde efbeadde  ................
 800030d0 efbeadde efbeadde efbeadde efbeadde  ................
 800030e0 efbeadde efbeadde efbeadde efbeadde  ................
 800030f0 efbeadde efbeadde efbeadde efbeadde  ................
 80003100 efbeadde efbeadde efbeadde efbeadde  ................
 80003110 efbeadde efbeadde efbeadde efbeadde  ................
 80003120 efbeadde efbeadde efbeadde efbeadde  ................
 80003130 efbeadde efbeadde efbeadde efbeadde  ................
 80003140 efbeadde efbeadde efbeadde efbeadde  ................
 80003150 efbeadde efbeadde efbeadde efbeadde  ................
 80003160 efbeadde efbeadde efbeadde efbeadde  ................
 80003170 efbeadde efbeadde efbeadde efbeadde  ................
 80003180 efbeadde efbeadde efbeadde efbeadde  ................
 80003190 efbeadde efbeadde efbeadde efbeadde  ................
 800031a0 efbeadde efbeadde efbeadde efbeadde  ................
 800031b0 efbeadde efbeadde efbeadde efbeadde  ................
 800031c0 efbeadde efbeadde efbeadde efbeadde  ................
 800031d0 efbeadde efbeadde efbeadde efbeadde  ................
 800031e0 efbeadde efbeadde efbeadde efbeadde  ................
 800031f0 efbeadde efbeadde efbeadde efbeadde  ................
 80003200 efbeadde efbeadde efbeadde efbeadde  ................
 80003210 efbeadde efbeadde efbeadde efbeadde  ................
 80003220 efbeadde efbeadde efbeadde efbeadde  ................
 80003230 efbeadde efbeadde efbeadde efbeadde  ................
 80003240 efbeadde efbeadde efbeadde efbeadde  ................
 80003250 efbeadde efbeadde efbeadde efbeadde  ................
 80003260 efbeadde efbeadde efbeadde efbeadde  ................
 80003270 efbeadde efbeadde efbeadde efbeadde  ................
 80003280 efbeadde efbeadde efbeadde efbeadde  ................
 80003290 efbeadde efbeadde efbeadde efbeadde  ................
 800032a0 efbeadde efbeadde efbeadde efbeadde  ................
 800032b0 efbeadde efbeadde efbeadde efbeadde  ................
 800032c0 efbeadde efbeadde efbeadde efbeadde  ................
 800032d0 efbeadde efbeadde efbeadde efbeadde  ................
 800032e0 efbeadde efbeadde efbeadde efbeadde  ................
 800032f0 efbeadde efbeadde efbeadde efbeadde  ................
 80003300 efbeadde efbeadde efbeadde efbeadde  ................
 80003310 efbeadde efbeadde efbeadde efbeadde  ................
 80003320 efbeadde efbeadde efbeadde efbeadde  ................
 80003330 efbeadde efbeadde efbeadde efbeadde  ................
 80003340 efbeadde efbeadde efbeadde efbeadde  ................
 80003350 efbeadde efbeadde efbeadde efbeadde  ................
 80003360 efbeadde efbeadde efbeadde efbeadde  ................
 80003370 efbeadde efbeadde efbeadde efbeadde  ................
 80003380 efbeadde efbeadde efbeadde efbeadde  ................
 80003390 efbeadde efbeadde efbeadde efbeadde  ................
 800033a0 efbeadde efbeadde efbeadde efbeadde  ................
 800033b0 efbeadde efbeadde efbeadde efbeadde  ................
 800033c0 efbeadde efbeadde efbeadde efbeadde  ................
 800033d0 efbeadde efbeadde efbeadde efbeadde  ................
 800033e0 efbeadde efbeadde efbeadde efbeadde  ................
 800033f0 efbeadde efbeadde efbeadde efbeadde  ................
 80003400 efbeadde efbeadde efbeadde efbeadde  ................
 80003410 efbeadde efbeadde efbeadde efbeadde  ................
 80003420 efbeadde efbeadde efbeadde efbeadde  ................
 80003430 efbeadde efbeadde efbeadde efbeadde  ................
 80003440 efbeadde efbeadde efbeadde efbeadde  ................
 80003450 efbeadde efbeadde efbeadde efbeadde  ................
 80003460 efbeadde efbeadde efbeadde efbeadde  ................
 80003470 efbeadde efbeadde efbeadde efbeadde  ................
 80003480 efbeadde efbeadde efbeadde efbeadde  ................
 80003490 efbeadde efbeadde efbeadde efbeadde  ................
 800034a0 efbeadde efbeadde efbeadde efbeadde  ................
 800034b0 efbeadde efbeadde efbeadde efbeadde  ................
 800034c0 efbeadde efbeadde efbeadde efbeadde  ................
 800034d0 efbeadde efbeadde 81b2d4e7 09a35c6f  ..............\o

Disassembly of section .data:

0000000080000000 <.data>:
    80000000:	00000413          	addi	x8,x0,0
    80000004:	0000c117          	auipc	x2,0xc
    80000008:	ffc10113          	addi	x2,x2,-4 # 0x8000c000
    8000000c:	30d010ef          	jal	x1,0x80001b18
    80000010:	030000ef          	jal	x1,0x80000040
    80000014:	00100513          	addi	x10,x0,1
    80000018:	2f5010ef          	jal	x1,0x80001b0c
    8000001c:	00000513          	addi	x10,x0,0
    80000020:	00008067          	jalr	x0,0(x1)
    80000024:	00100513          	addi	x10,x0,1
    80000028:	2e5010ef          	jal	x1,0x80001b0c
    8000002c:	00008067          	jalr	x0,0(x1)
	...
    80000040:	feedc0b7          	lui	x1,0xfeedc
    80000044:	ead08093          	addi	x1,x1,-339 # 0xfffffffffeedbead
    80000048:	00b09093          	slli	x1,x1,0xb
    8000004c:	7f708093          	addi	x1,x1,2039
    80000050:	00b09093          	slli	x1,x1,0xb
    80000054:	36f08093          	addi	x1,x1,879
    80000058:	00a09093          	slli	x1,x1,0xa
    8000005c:	2ad08093          	addi	x1,x1,685
    80000060:	ff76e137          	lui	x2,0xff76e
    80000064:	f5610113          	addi	x2,x2,-170 # 0xffffffffff76df56
    80000068:	00b11113          	slli	x2,x2,0xb
    8000006c:	7fb10113          	addi	x2,x2,2043
    80000070:	00b11113          	slli	x2,x2,0xb
    80000074:	5b710113          	addi	x2,x2,1463
    80000078:	00a11113          	slli	x2,x2,0xa
    8000007c:	35610113          	addi	x2,x2,854
    80000080:	7fbb71b7          	lui	x3,0x7fbb7
    80000084:	fab18193          	addi	x3,x3,-85 # 0x7fbb6fab
    80000088:	00b19193          	slli	x3,x3,0xb
    8000008c:	3fd18193          	addi	x3,x3,1021
    80000090:	00b19193          	slli	x3,x3,0xb
    80000094:	6db18193          	addi	x3,x3,1755
    80000098:	00a19193          	slli	x3,x3,0xa
    8000009c:	3ab18193          	addi	x3,x3,939
    800000a0:	bfddb237          	lui	x4,0xbfddb
    800000a4:	7d520213          	addi	x4,x4,2005 # 0xffffffffbfddb7d5
    800000a8:	00b21213          	slli	x4,x4,0xb
    800000ac:	5fe20213          	addi	x4,x4,1534 # 0x5fe
    800000b0:	00b21213          	slli	x4,x4,0xb
    800000b4:	76d20213          	addi	x4,x4,1901 # 0x76d
    800000b8:	00a21213          	slli	x4,x4,0xa
    800000bc:	3d520213          	addi	x4,x4,981 # 0x3d5
    800000c0:	dfeee2b7          	lui	x5,0xdfeee
    800000c4:	bea28293          	addi	x5,x5,-1046 # 0xffffffffdfeedbea
    800000c8:	00b29293          	slli	x5,x5,0xb
    800000cc:	6ff28293          	addi	x5,x5,1791
    800000d0:	00b29293          	slli	x5,x5,0xb
    800000d4:	3b628293          	addi	x5,x5,950
    800000d8:	00a29293          	slli	x5,x5,0xa
    800000dc:	3ea28293          	addi	x5,x5,1002
    800000e0:	6ff77337          	lui	x6,0x6ff77
    800000e4:	df530313          	addi	x6,x6,-523 # 0x6ff76df5
    800000e8:	00b31313          	slli	x6,x6,0xb
    800000ec:	37f30313          	addi	x6,x6,895
    800000f0:	00b31313          	slli	x6,x6,0xb
    800000f4:	5db30313          	addi	x6,x6,1499
    800000f8:	00a31313          	slli	x6,x6,0xa
    800000fc:	1f530313          	addi	x6,x6,501
    80000100:	b7fbb3b7          	lui	x7,0xb7fbb
    80000104:	6fa38393          	addi	x7,x7,1786 # 0xffffffffb7fbb6fa
    80000108:	00b39393          	slli	x7,x7,0xb
    8000010c:	5bf38393          	addi	x7,x7,1471
    80000110:	00b39393          	slli	x7,x7,0xb
    80000114:	6ed38393          	addi	x7,x7,1773
    80000118:	00a39393          	slli	x7,x7,0xa
    8000011c:	2fa38393          	addi	x7,x7,762
    80000120:	5bfde437          	lui	x8,0x5bfde
    80000124:	b7d40413          	addi	x8,x8,-1155 # 0x5bfddb7d
    80000128:	00b41413          	slli	x8,x8,0xb
    8000012c:	2df40413          	addi	x8,x8,735
    80000130:	00b41413          	slli	x8,x8,0xb
    80000134:	77640413          	addi	x8,x8,1910
    80000138:	00a41413          	slli	x8,x8,0xa
    8000013c:	37d40413          	addi	x8,x8,893
    80000140:	adfef4b7          	lui	x9,0xadfef
    80000144:	dbe48493          	addi	x9,x9,-578 # 0xffffffffadfeedbe
    80000148:	00b49493          	slli	x9,x9,0xb
    8000014c:	56f48493          	addi	x9,x9,1391
    80000150:	00b49493          	slli	x9,x9,0xb
    80000154:	7bb48493          	addi	x9,x9,1979
    80000158:	00a49493          	slli	x9,x9,0xa
    8000015c:	1be48493          	addi	x9,x9,446
    80000160:	56ff7537          	lui	x10,0x56ff7
    80000164:	6df50513          	addi	x10,x10,1759 # 0x56ff76df
    80000168:	00b51513          	slli	x10,x10,0xb
    8000016c:	2b750513          	addi	x10,x10,695
    80000170:	00b51513          	slli	x10,x10,0xb
    80000174:	7dd50513          	addi	x10,x10,2013
    80000178:	00a51513          	slli	x10,x10,0xa
    8000017c:	2df50513          	addi	x10,x10,735
    80000180:	ab7fc5b7          	lui	x11,0xab7fc
    80000184:	b6f58593          	addi	x11,x11,-1169 # 0xffffffffab7fbb6f
    80000188:	00b59593          	slli	x11,x11,0xb
    8000018c:	55b58593          	addi	x11,x11,1371
    80000190:	00b59593          	slli	x11,x11,0xb
    80000194:	7ee58593          	addi	x11,x11,2030
    80000198:	00a59593          	slli	x11,x11,0xa
    8000019c:	36f58593          	addi	x11,x11,879
    800001a0:	d5bfe637          	lui	x12,0xd5bfe
    800001a4:	db760613          	addi	x12,x12,-585 # 0xffffffffd5bfddb7
    800001a8:	00b61613          	slli	x12,x12,0xb
    800001ac:	6ad60613          	addi	x12,x12,1709
    800001b0:	00b61613          	slli	x12,x12,0xb
    800001b4:	7f760613          	addi	x12,x12,2039
    800001b8:	00a61613          	slli	x12,x12,0xa
    800001bc:	1b760613          	addi	x12,x12,439
    800001c0:	eadff6b7          	lui	x13,0xeadff
    800001c4:	edb68693          	addi	x13,x13,-293 # 0xffffffffeadfeedb
    800001c8:	00b69693          	slli	x13,x13,0xb
    800001cc:	75668693          	addi	x13,x13,1878
    800001d0:	00b69693          	slli	x13,x13,0xb
    800001d4:	7fb68693          	addi	x13,x13,2043
    800001d8:	00a69693          	slli	x13,x13,0xa
    800001dc:	2db68693          	addi	x13,x13,731
    800001e0:	f56ff737          	lui	x14,0xf56ff
    800001e4:	76d70713          	addi	x14,x14,1901 # 0xfffffffff56ff76d
    800001e8:	00b71713          	slli	x14,x14,0xb
    800001ec:	7ab70713          	addi	x14,x14,1963
    800001f0:	00b71713          	slli	x14,x14,0xb
    800001f4:	3fd70713          	addi	x14,x14,1021
    800001f8:	00a71713          	slli	x14,x14,0xa
    800001fc:	36d70713          	addi	x14,x14,877
    80000200:	fab807b7          	lui	x15,0xfab80
    80000204:	bb678793          	addi	x15,x15,-1098 # 0xfffffffffab7fbb6
    80000208:	00b79793          	slli	x15,x15,0xb
    8000020c:	7d578793          	addi	x15,x15,2005
    80000210:	00b79793          	slli	x15,x15,0xb
    80000214:	5fe78793          	addi	x15,x15,1534
    80000218:	00a79793          	slli	x15,x15,0xa
    8000021c:	3b678793          	addi	x15,x15,950
    80000220:	7d5c0837          	lui	x16,0x7d5c0
    80000224:	ddb80813          	addi	x16,x16,-549 # 0x7d5bfddb
    80000228:	00b81813          	slli	x16,x16,0xb
    8000022c:	3ea80813          	addi	x16,x16,1002
    80000230:	00b81813          	slli	x16,x16,0xb
    80000234:	6ff80813          	addi	x16,x16,1791
    80000238:	00a81813          	slli	x16,x16,0xa
    8000023c:	1db80813          	addi	x16,x16,475
    80000240:	beae08b7          	lui	x17,0xbeae0
    80000244:	eed88893          	addi	x17,x17,-275 # 0xffffffffbeadfeed
    80000248:	00b89893          	slli	x17,x17,0xb
    8000024c:	5f588893          	addi	x17,x17,1525
    80000250:	00b89893          	slli	x17,x17,0xb
    80000254:	37f88893          	addi	x17,x17,895
    80000258:	00a89893          	slli	x17,x17,0xa
    8000025c:	2ed88893          	addi	x17,x17,749
    80000260:	df570937          	lui	x18,0xdf570
    80000264:	f7690913          	addi	x18,x18,-138 # 0xffffffffdf56ff76
    80000268:	00b91913          	slli	x18,x18,0xb
    8000026c:	6fa90913          	addi	x18,x18,1786
    80000270:	00b91913          	slli	x18,x18,0xb
    80000274:	5bf90913          	addi	x18,x18,1471
    80000278:	00a91913          	slli	x18,x18,0xa
    8000027c:	37690913          	addi	x18,x18,886
    80000280:	6fab89b7          	lui	x19,0x6fab8
    80000284:	fbb98993          	addi	x19,x19,-69 # 0x6fab7fbb
    80000288:	00b99993          	slli	x19,x19,0xb
    8000028c:	37d98993          	addi	x19,x19,893
    80000290:	00b99993          	slli	x19,x19,0xb
    80000294:	2df98993          	addi	x19,x19,735
    80000298:	00a99993          	slli	x19,x19,0xa
    8000029c:	3bb98993          	addi	x19,x19,955
    800002a0:	b7d5ca37          	lui	x20,0xb7d5c
    800002a4:	fdda0a13          	addi	x20,x20,-35 # 0xffffffffb7d5bfdd
    800002a8:	00ba1a13          	slli	x20,x20,0xb
    800002ac:	5bea0a13          	addi	x20,x20,1470
    800002b0:	00ba1a13          	slli	x20,x20,0xb
    800002b4:	56fa0a13          	addi	x20,x20,1391
    800002b8:	00aa1a13          	slli	x20,x20,0xa
    800002bc:	3dda0a13          	addi	x20,x20,989
    800002c0:	dbeaeab7          	lui	x21,0xdbeae
    800002c4:	feea8a93          	addi	x21,x21,-18 # 0xffffffffdbeadfee
    800002c8:	00ba9a93          	slli	x21,x21,0xb
    800002cc:	6dfa8a93          	addi	x21,x21,1759
    800002d0:	00ba9a93          	slli	x21,x21,0xb
    800002d4:	2b7a8a93          	addi	x21,x21,695
    800002d8:	00aa9a93          	slli	x21,x21,0xa
    800002dc:	3eea8a93          	addi	x21,x21,1006
    800002e0:	6df57b37          	lui	x22,0x6df57
    800002e4:	ff7b0b13          	addi	x22,x22,-9 # 0x6df56ff7
    800002e8:	00bb1b13          	slli	x22,x22,0xb
    800002ec:	36fb0b13          	addi	x22,x22,879
    800002f0:	00bb1b13          	slli	x22,x22,0xb
    800002f4:	55bb0b13          	addi	x22,x22,1371
    800002f8:	00ab1b13          	slli	x22,x22,0xa
    800002fc:	3f7b0b13          	addi	x22,x22,1015
    80000300:	b6fabbb7          	lui	x23,0xb6fab
    80000304:	7fbb8b93          	addi	x23,x23,2043 # 0xffffffffb6fab7fb
    80000308:	00bb9b93          	slli	x23,x23,0xb
    8000030c:	5b7b8b93          	addi	x23,x23,1463
    80000310:	00bb9b93          	slli	x23,x23,0xb
    80000314:	6adb8b93          	addi	x23,x23,1709
    80000318:	00ab9b93          	slli	x23,x23,0xa
    8000031c:	3fbb8b93          	addi	x23,x23,1019
    80000320:	db7d6c37          	lui	x24,0xdb7d6
    80000324:	bfdc0c13          	addi	x24,x24,-1027 # 0xffffffffdb7d5bfd
    80000328:	00bc1c13          	slli	x24,x24,0xb
    8000032c:	6dbc0c13          	addi	x24,x24,1755
    80000330:	00bc1c13          	slli	x24,x24,0xb
    80000334:	756c0c13          	addi	x24,x24,1878
    80000338:	00ac1c13          	slli	x24,x24,0xa
    8000033c:	3fdc0c13          	addi	x24,x24,1021
    80000340:	edbebcb7          	lui	x25,0xedbeb
    80000344:	dfec8c93          	addi	x25,x25,-514 # 0xffffffffedbeadfe
    80000348:	00bc9c93          	slli	x25,x25,0xb
    8000034c:	76dc8c93          	addi	x25,x25,1901
    80000350:	00bc9c93          	slli	x25,x25,0xb
    80000354:	7abc8c93          	addi	x25,x25,1963
    80000358:	00ac9c93          	slli	x25,x25,0xa
    8000035c:	1fec8c93          	addi	x25,x25,510
    80000360:	76df5d37          	lui	x26,0x76df5
    80000364:	6ffd0d13          	addi	x26,x26,1791 # 0x76df56ff
    80000368:	00bd1d13          	slli	x26,x26,0xb
    8000036c:	3b6d0d13          	addi	x26,x26,950
    80000370:	00bd1d13          	slli	x26,x26,0xb
    80000374:	7d5d0d13          	addi	x26,x26,2005
    80000378:	00ad1d13          	slli	x26,x26,0xa
    8000037c:	2ffd0d13          	addi	x26,x26,767
    80000380:	bb6fbdb7          	lui	x27,0xbb6fb
    80000384:	b7fd8d93          	addi	x27,x27,-1153 # 0xffffffffbb6fab7f
    80000388:	00bd9d93          	slli	x27,x27,0xb
    8000038c:	5dbd8d93          	addi	x27,x27,1499
    80000390:	00bd9d93          	slli	x27,x27,0xb
    80000394:	3ead8d93          	addi	x27,x27,1002
    80000398:	00ad9d93          	slli	x27,x27,0xa
    8000039c:	37fd8d93          	addi	x27,x27,895
    800003a0:	ddb7de37          	lui	x28,0xddb7d
    800003a4:	5bfe0e13          	addi	x28,x28,1471 # 0xffffffffddb7d5bf
    800003a8:	00be1e13          	slli	x28,x28,0xb
    800003ac:	6ede0e13          	addi	x28,x28,1773
    800003b0:	00be1e13          	slli	x28,x28,0xb
    800003b4:	5f5e0e13          	addi	x28,x28,1525
    800003b8:	00ae1e13          	slli	x28,x28,0xa
    800003bc:	1bfe0e13          	addi	x28,x28,447
    800003c0:	eedbfeb7          	lui	x29,0xeedbf
    800003c4:	adfe8e93          	addi	x29,x29,-1313 # 0xffffffffeedbeadf
    800003c8:	00be9e93          	slli	x29,x29,0xb
    800003cc:	776e8e93          	addi	x29,x29,1910
    800003d0:	00be9e93          	slli	x29,x29,0xb
    800003d4:	6fae8e93          	addi	x29,x29,1786
    800003d8:	00ae9e93          	slli	x29,x29,0xa
    800003dc:	2dfe8e93          	addi	x29,x29,735
    800003e0:	f76dff37          	lui	x30,0xf76df
    800003e4:	56ff0f13          	addi	x30,x30,1391 # 0xfffffffff76df56f
    800003e8:	00bf1f13          	slli	x30,x30,0xb
    800003ec:	7bbf0f13          	addi	x30,x30,1979
    800003f0:	00bf1f13          	slli	x30,x30,0xb
    800003f4:	37df0f13          	addi	x30,x30,893
    800003f8:	00af1f13          	slli	x30,x30,0xa
    800003fc:	16ff0f13          	addi	x30,x30,367
    80000400:	fbb70fb7          	lui	x31,0xfbb70
    80000404:	ab7f8f93          	addi	x31,x31,-1353 # 0xfffffffffbb6fab7
    80000408:	00bf9f93          	slli	x31,x31,0xb
    8000040c:	7ddf8f93          	addi	x31,x31,2013
    80000410:	00bf9f93          	slli	x31,x31,0xb
    80000414:	5bef8f93          	addi	x31,x31,1470
    80000418:	00af9f93          	slli	x31,x31,0xa
    8000041c:	2b7f8f93          	addi	x31,x31,695
    80000420:	00003417          	auipc	x8,0x3
    80000424:	be840413          	addi	x8,x8,-1048 # 0x80003008
    80000428:	00000013          	addi	x0,x0,0
    8000042c:	00000013          	addi	x0,x0,0
    80000430:	00000013          	addi	x0,x0,0
    80000434:	00000013          	addi	x0,x0,0
    80000438:	00000013          	addi	x0,x0,0
    8000043c:	00000013          	addi	x0,x0,0
    80000440:	000008b7          	lui	x17,0x0
    80000444:	fff88893          	addi	x17,x17,-1 # 0xffffffffffffffff
    80000448:	00b89893          	slli	x17,x17,0xb
    8000044c:	25788893          	addi	x17,x17,599
    80000450:	00b89893          	slli	x17,x17,0xb
    80000454:	6c388893          	addi	x17,x17,1731
    80000458:	00a89893          	slli	x17,x17,0xa
    8000045c:	0cd88893          	addi	x17,x17,205
    80000460:	000008b7          	lui	x17,0x0
    80000464:	fff88893          	addi	x17,x17,-1 # 0xffffffffffffffff
    80000468:	00b89893          	slli	x17,x17,0xb
    8000046c:	25788893          	addi	x17,x17,599
    80000470:	00b89893          	slli	x17,x17,0xb
    80000474:	6c388893          	addi	x17,x17,1731
    80000478:	00a89893          	slli	x17,x17,0xa
    8000047c:	0cd88893          	addi	x17,x17,205
    80000480:	0118dc3b          	srlw	x24,x17,x17
    80000484:	01843023          	sd	x24,0(x8)
    80000488:	00025537          	lui	x10,0x25
    8000048c:	7d85051b          	addiw	x10,x10,2008 # 0x257d8
    80000490:	01850463          	beq	x10,x24,0x80000498
    80000494:	b91ff06f          	jal	x0,0x80000024
    80000498:	00100193          	addi	x3,x0,1
    8000049c:	03a19193          	slli	x3,x3,0x3a
    800004a0:	00200613          	addi	x12,x0,2
    800004a4:	00c1d63b          	srlw	x12,x3,x12
    800004a8:	00c43423          	sd	x12,8(x8)
    800004ac:	00000513          	addi	x10,x0,0
    800004b0:	00c50463          	beq	x10,x12,0x800004b8
    800004b4:	b71ff06f          	jal	x0,0x80000024
    800004b8:	00100393          	addi	x7,x0,1
    800004bc:	03439393          	slli	x7,x7,0x34
    800004c0:	fff3c393          	xori	x7,x7,-1
    800004c4:	00100393          	addi	x7,x0,1
    800004c8:	03439393          	slli	x7,x7,0x34
    800004cc:	fff3c393          	xori	x7,x7,-1
    800004d0:	0073d3bb          	srlw	x7,x7,x7
    800004d4:	00743823          	sd	x7,16(x8)
    800004d8:	00100513          	addi	x10,x0,1
    800004dc:	00750463          	beq	x10,x7,0x800004e4
    800004e0:	b45ff06f          	jal	x0,0x80000024
    800004e4:	00100493          	addi	x9,x0,1
    800004e8:	02f49493          	slli	x9,x9,0x2f
    800004ec:	00000793          	addi	x15,x0,0
    800004f0:	00f4db3b          	srlw	x22,x9,x15
    800004f4:	01643c23          	sd	x22,24(x8)
    800004f8:	00000513          	addi	x10,x0,0
    800004fc:	01650463          	beq	x10,x22,0x80000504
    80000500:	b25ff06f          	jal	x0,0x80000024
    80000504:	00700593          	addi	x11,x0,7
    80000508:	00700213          	addi	x4,x0,7
    8000050c:	0045d5bb          	srlw	x11,x11,x4
    80000510:	02b43023          	sd	x11,32(x8)
    80000514:	00000513          	addi	x10,x0,0
    80000518:	00b50463          	beq	x10,x11,0x80000520
    8000051c:	b09ff06f          	jal	x0,0x80000024
    80000520:	fff00213          	addi	x4,x0,-1
    80000524:	03f21213          	slli	x4,x4,0x3f
    80000528:	00f00c13          	addi	x24,x0,15
    8000052c:	018250bb          	srlw	x1,x4,x24
    80000530:	02143423          	sd	x1,40(x8)
    80000534:	00000513          	addi	x10,x0,0
    80000538:	00150463          	beq	x10,x1,0x80000540
    8000053c:	ae9ff06f          	jal	x0,0x80000024
    80000540:	00000113          	addi	x2,x0,0
    80000544:	01200913          	addi	x18,x0,18
    80000548:	0121503b          	srlw	x0,x2,x18
    8000054c:	02043823          	sd	x0,48(x8)
    80000550:	00000513          	addi	x10,x0,0
    80000554:	00050463          	beq	x10,x0,0x8000055c
    80000558:	acdff06f          	jal	x0,0x80000024
    8000055c:	fff00a93          	addi	x21,x0,-1
    80000560:	001ada93          	srli	x21,x21,0x1
    80000564:	00000013          	addi	x0,x0,0
    80000568:	000ad2bb          	srlw	x5,x21,x0
    8000056c:	02543c23          	sd	x5,56(x8)
    80000570:	fff00513          	addi	x10,x0,-1
    80000574:	00550463          	beq	x10,x5,0x8000057c
    80000578:	aadff06f          	jal	x0,0x80000024
    8000057c:	00100793          	addi	x15,x0,1
    80000580:	00200493          	addi	x9,x0,2
    80000584:	0097dabb          	srlw	x21,x15,x9
    80000588:	05543023          	sd	x21,64(x8)
    8000058c:	00000513          	addi	x10,x0,0
    80000590:	01550463          	beq	x10,x21,0x80000598
    80000594:	a91ff06f          	jal	x0,0x80000024
    80000598:	00200693          	addi	x13,x0,2
    8000059c:	01300f13          	addi	x30,x0,19
    800005a0:	01e6d33b          	srlw	x6,x13,x30
    800005a4:	04643423          	sd	x6,72(x8)
    800005a8:	00000513          	addi	x10,x0,0
    800005ac:	00650463          	beq	x10,x6,0x800005b4
    800005b0:	a75ff06f          	jal	x0,0x80000024
    800005b4:	00400b13          	addi	x22,x0,4
    800005b8:	00e00a13          	addi	x20,x0,14
    800005bc:	014b5bbb          	srlw	x23,x22,x20
    800005c0:	05743823          	sd	x23,80(x8)
    800005c4:	00000513          	addi	x10,x0,0
    800005c8:	01750463          	beq	x10,x23,0x800005d0
    800005cc:	a59ff06f          	jal	x0,0x80000024
    800005d0:	00800613          	addi	x12,x0,8
    800005d4:	01200d13          	addi	x26,x0,18
    800005d8:	01a65e3b          	srlw	x28,x12,x26
    800005dc:	05c43c23          	sd	x28,88(x8)
    800005e0:	00000513          	addi	x10,x0,0
    800005e4:	01c50463          	beq	x10,x28,0x800005ec
    800005e8:	a3dff06f          	jal	x0,0x80000024
    800005ec:	01000c13          	addi	x24,x0,16
    800005f0:	01200f93          	addi	x31,x0,18
    800005f4:	01fc513b          	srlw	x2,x24,x31
    800005f8:	06243023          	sd	x2,96(x8)
    800005fc:	00000513          	addi	x10,x0,0
    80000600:	00250463          	beq	x10,x2,0x80000608
    80000604:	a21ff06f          	jal	x0,0x80000024
    80000608:	02000813          	addi	x16,x0,32
    8000060c:	01e00c93          	addi	x25,x0,30
    80000610:	01985dbb          	srlw	x27,x16,x25
    80000614:	07b43423          	sd	x27,104(x8)
    80000618:	00000513          	addi	x10,x0,0
    8000061c:	01b50463          	beq	x10,x27,0x80000624
    80000620:	a05ff06f          	jal	x0,0x80000024
    80000624:	04000f93          	addi	x31,x0,64
    80000628:	00800093          	addi	x1,x0,8
    8000062c:	001fd7bb          	srlw	x15,x31,x1
    80000630:	06f43823          	sd	x15,112(x8)
    80000634:	00000513          	addi	x10,x0,0
    80000638:	00f50463          	beq	x10,x15,0x80000640
    8000063c:	9e9ff06f          	jal	x0,0x80000024
    80000640:	00000013          	addi	x0,x0,0
    80000644:	00d00293          	addi	x5,x0,13
    80000648:	00505cbb          	srlw	x25,x0,x5
    8000064c:	07943c23          	sd	x25,120(x8)
    80000650:	00000513          	addi	x10,x0,0
    80000654:	01950463          	beq	x10,x25,0x8000065c
    80000658:	9cdff06f          	jal	x0,0x80000024
    8000065c:	10000d93          	addi	x27,x0,256
    80000660:	01e00713          	addi	x14,x0,30
    80000664:	00eddf3b          	srlw	x30,x27,x14
    80000668:	09e43023          	sd	x30,128(x8)
    8000066c:	00000513          	addi	x10,x0,0
    80000670:	01e50463          	beq	x10,x30,0x80000678
    80000674:	9b1ff06f          	jal	x0,0x80000024
    80000678:	20000313          	addi	x6,x0,512
    8000067c:	01b00993          	addi	x19,x0,27
    80000680:	0133523b          	srlw	x4,x6,x19
    80000684:	08443423          	sd	x4,136(x8)
    80000688:	00000393          	addi	x7,x0,0
    8000068c:	00438463          	beq	x7,x4,0x80000694
    80000690:	995ff06f          	jal	x0,0x80000024
    80000694:	00000013          	addi	x0,x0,0
    80000698:	00000013          	addi	x0,x0,0
    8000069c:	00000013          	addi	x0,x0,0
    800006a0:	00003217          	auipc	x4,0x3
    800006a4:	9f820213          	addi	x4,x4,-1544 # 0x80003098
    800006a8:	00000013          	addi	x0,x0,0
    800006ac:	00000013          	addi	x0,x0,0
    800006b0:	00000013          	addi	x0,x0,0
    800006b4:	00000013          	addi	x0,x0,0
    800006b8:	00000013          	addi	x0,x0,0
    800006bc:	00000013          	addi	x0,x0,0
    800006c0:	40000a13          	addi	x20,x0,1024
    800006c4:	00500e13          	addi	x28,x0,5
    800006c8:	01ca51bb          	srlw	x3,x20,x28
    800006cc:	00323023          	sd	x3,0(x4) # 0x0
    800006d0:	02000393          	addi	x7,x0,32
    800006d4:	00338463          	beq	x7,x3,0x800006dc
    800006d8:	94dff06f          	jal	x0,0x80000024
    800006dc:	00100913          	addi	x18,x0,1
    800006e0:	00b91913          	slli	x18,x18,0xb
    800006e4:	00300593          	addi	x11,x0,3
    800006e8:	00b95fbb          	srlw	x31,x18,x11
    800006ec:	01f23423          	sd	x31,8(x4) # 0x8
    800006f0:	10000393          	addi	x7,x0,256
    800006f4:	01f38463          	beq	x7,x31,0x800006fc
    800006f8:	92dff06f          	jal	x0,0x80000024
    800006fc:	00100f13          	addi	x30,x0,1
    80000700:	00cf1f13          	slli	x30,x30,0xc
    80000704:	00e00113          	addi	x2,x0,14
    80000708:	002f593b          	srlw	x18,x30,x2
    8000070c:	01223823          	sd	x18,16(x4) # 0x10
    80000710:	00000393          	addi	x7,x0,0
    80000714:	01238463          	beq	x7,x18,0x8000071c
    80000718:	90dff06f          	jal	x0,0x80000024
    8000071c:	00100993          	addi	x19,x0,1
    80000720:	00d99993          	slli	x19,x19,0xd
    80000724:	00900a93          	addi	x21,x0,9
    80000728:	0159dd3b          	srlw	x26,x19,x21
    8000072c:	01a23c23          	sd	x26,24(x4) # 0x18
    80000730:	01000393          	addi	x7,x0,16
    80000734:	01a38463          	beq	x7,x26,0x8000073c
    80000738:	8edff06f          	jal	x0,0x80000024
    8000073c:	00100093          	addi	x1,x0,1
    80000740:	00e09093          	slli	x1,x1,0xe
    80000744:	00500e93          	addi	x29,x0,5
    80000748:	01d0da3b          	srlw	x20,x1,x29
    8000074c:	03423023          	sd	x20,32(x4) # 0x20
    80000750:	20000393          	addi	x7,x0,512
    80000754:	01438463          	beq	x7,x20,0x8000075c
    80000758:	8cdff06f          	jal	x0,0x80000024
    8000075c:	00100c93          	addi	x25,x0,1
    80000760:	00fc9c93          	slli	x25,x25,0xf
    80000764:	01300b13          	addi	x22,x0,19
    80000768:	016cd4bb          	srlw	x9,x25,x22
    8000076c:	02923423          	sd	x9,40(x4) # 0x28
    80000770:	00000393          	addi	x7,x0,0
    80000774:	00938463          	beq	x7,x9,0x8000077c
    80000778:	8adff06f          	jal	x0,0x80000024
    8000077c:	00100293          	addi	x5,x0,1
    80000780:	01029293          	slli	x5,x5,0x10
    80000784:	00e00313          	addi	x6,x0,14
    80000788:	0062d6bb          	srlw	x13,x5,x6
    8000078c:	02d23823          	sd	x13,48(x4) # 0x30
    80000790:	00400393          	addi	x7,x0,4
    80000794:	00d38463          	beq	x7,x13,0x8000079c
    80000798:	88dff06f          	jal	x0,0x80000024
    8000079c:	00100d13          	addi	x26,x0,1
    800007a0:	011d1d13          	slli	x26,x26,0x11
    800007a4:	00200193          	addi	x3,x0,2
    800007a8:	003d58bb          	srlw	x17,x26,x3
    800007ac:	03123c23          	sd	x17,56(x4) # 0x38
    800007b0:	000083b7          	lui	x7,0x8
    800007b4:	01138463          	beq	x7,x17,0x800007bc
    800007b8:	86dff06f          	jal	x0,0x80000024
    800007bc:	00100513          	addi	x10,x0,1
    800007c0:	01251513          	slli	x10,x10,0x12
    800007c4:	00300693          	addi	x13,x0,3
    800007c8:	00d5543b          	srlw	x8,x10,x13
    800007cc:	04823023          	sd	x8,64(x4) # 0x40
    800007d0:	000083b7          	lui	x7,0x8
    800007d4:	00838463          	beq	x7,x8,0x800007dc
    800007d8:	84dff06f          	jal	x0,0x80000024
    800007dc:	00100b93          	addi	x23,x0,1
    800007e0:	013b9b93          	slli	x23,x23,0x13
    800007e4:	01f00513          	addi	x10,x0,31
    800007e8:	00abd83b          	srlw	x16,x23,x10
    800007ec:	05023423          	sd	x16,72(x4) # 0x48
    800007f0:	00000393          	addi	x7,x0,0
    800007f4:	01038463          	beq	x7,x16,0x800007fc
    800007f8:	82dff06f          	jal	x0,0x80000024
    800007fc:	00100e13          	addi	x28,x0,1
    80000800:	014e1e13          	slli	x28,x28,0x14
    80000804:	00500413          	addi	x8,x0,5
    80000808:	008e553b          	srlw	x10,x28,x8
    8000080c:	04a23823          	sd	x10,80(x4) # 0x50
    80000810:	000083b7          	lui	x7,0x8
    80000814:	00a38463          	beq	x7,x10,0x8000081c
    80000818:	80dff06f          	jal	x0,0x80000024
    8000081c:	00100413          	addi	x8,x0,1
    80000820:	01541413          	slli	x8,x8,0x15
    80000824:	01200b93          	addi	x23,x0,18
    80000828:	0174573b          	srlw	x14,x8,x23
    8000082c:	04e23c23          	sd	x14,88(x4) # 0x58
    80000830:	00800393          	addi	x7,x0,8
    80000834:	00e38463          	beq	x7,x14,0x8000083c
    80000838:	fecff06f          	jal	x0,0x80000024
    8000083c:	00100e93          	addi	x29,x0,1
    80000840:	016e9e93          	slli	x29,x29,0x16
    80000844:	00300813          	addi	x16,x0,3
    80000848:	010ed9bb          	srlw	x19,x29,x16
    8000084c:	07323023          	sd	x19,96(x4) # 0x60
    80000850:	000803b7          	lui	x7,0x80
    80000854:	01338463          	beq	x7,x19,0x8000085c
    80000858:	fccff06f          	jal	x0,0x80000024
    8000085c:	00100713          	addi	x14,x0,1
    80000860:	01771713          	slli	x14,x14,0x17
    80000864:	00d00d93          	addi	x27,x0,13
    80000868:	01b75ebb          	srlw	x29,x14,x27
    8000086c:	07d23423          	sd	x29,104(x4) # 0x68
    80000870:	40000393          	addi	x7,x0,1024
    80000874:	01d38463          	beq	x7,x29,0x8000087c
    80000878:	facff06f          	jal	x0,0x80000024
    8000087c:	00100513          	addi	x10,x0,1
    80000880:	01851513          	slli	x10,x10,0x18
    80000884:	01e00593          	addi	x11,x0,30
    80000888:	00b5563b          	srlw	x12,x10,x11
    8000088c:	06c23823          	sd	x12,112(x4) # 0x70
    80000890:	00000393          	addi	x7,x0,0
    80000894:	00c38463          	beq	x7,x12,0x8000089c
    80000898:	f8cff06f          	jal	x0,0x80000024
    8000089c:	00100513          	addi	x10,x0,1
    800008a0:	01951513          	slli	x10,x10,0x19
    800008a4:	00c00593          	addi	x11,x0,12
    800008a8:	00b5563b          	srlw	x12,x10,x11
    800008ac:	06c23c23          	sd	x12,120(x4) # 0x78
    800008b0:	000020b7          	lui	x1,0x2
    800008b4:	00c08463          	beq	x1,x12,0x800008bc
    800008b8:	f6cff06f          	jal	x0,0x80000024
    800008bc:	00100513          	addi	x10,x0,1
    800008c0:	01a51513          	slli	x10,x10,0x1a
    800008c4:	00b00593          	addi	x11,x0,11
    800008c8:	00b5563b          	srlw	x12,x10,x11
    800008cc:	08c23023          	sd	x12,128(x4) # 0x80
    800008d0:	000080b7          	lui	x1,0x8
    800008d4:	00c08463          	beq	x1,x12,0x800008dc
    800008d8:	f4cff06f          	jal	x0,0x80000024
    800008dc:	00100513          	addi	x10,x0,1
    800008e0:	01b51513          	slli	x10,x10,0x1b
    800008e4:	00600593          	addi	x11,x0,6
    800008e8:	00b5563b          	srlw	x12,x10,x11
    800008ec:	08c23423          	sd	x12,136(x4) # 0x88
    800008f0:	002000b7          	lui	x1,0x200
    800008f4:	00c08463          	beq	x1,x12,0x800008fc
    800008f8:	f2cff06f          	jal	x0,0x80000024
    800008fc:	00100513          	addi	x10,x0,1
    80000900:	01c51513          	slli	x10,x10,0x1c
    80000904:	00400593          	addi	x11,x0,4
    80000908:	00b5563b          	srlw	x12,x10,x11
    8000090c:	08c23823          	sd	x12,144(x4) # 0x90
    80000910:	010000b7          	lui	x1,0x1000
    80000914:	00c08463          	beq	x1,x12,0x8000091c
    80000918:	f0cff06f          	jal	x0,0x80000024
    8000091c:	00100513          	addi	x10,x0,1
    80000920:	01d51513          	slli	x10,x10,0x1d
    80000924:	00300593          	addi	x11,x0,3
    80000928:	00b5563b          	srlw	x12,x10,x11
    8000092c:	08c23c23          	sd	x12,152(x4) # 0x98
    80000930:	040000b7          	lui	x1,0x4000
    80000934:	00c08463          	beq	x1,x12,0x8000093c
    80000938:	eecff06f          	jal	x0,0x80000024
    8000093c:	00100513          	addi	x10,x0,1
    80000940:	01e51513          	slli	x10,x10,0x1e
    80000944:	00200593          	addi	x11,x0,2
    80000948:	00b5563b          	srlw	x12,x10,x11
    8000094c:	0ac23023          	sd	x12,160(x4) # 0xa0
    80000950:	100000b7          	lui	x1,0x10000
    80000954:	00c08463          	beq	x1,x12,0x8000095c
    80000958:	eccff06f          	jal	x0,0x80000024
    8000095c:	00100513          	addi	x10,x0,1
    80000960:	01f51513          	slli	x10,x10,0x1f
    80000964:	00f00593          	addi	x11,x0,15
    80000968:	00b5563b          	srlw	x12,x10,x11
    8000096c:	0ac23423          	sd	x12,168(x4) # 0xa8
    80000970:	000100b7          	lui	x1,0x10
    80000974:	00c08463          	beq	x1,x12,0x8000097c
    80000978:	eacff06f          	jal	x0,0x80000024
    8000097c:	00100513          	addi	x10,x0,1
    80000980:	02051513          	slli	x10,x10,0x20
    80000984:	00100593          	addi	x11,x0,1
    80000988:	00b5563b          	srlw	x12,x10,x11
    8000098c:	0ac23823          	sd	x12,176(x4) # 0xb0
    80000990:	00000093          	addi	x1,x0,0
    80000994:	00c08463          	beq	x1,x12,0x8000099c
    80000998:	e8cff06f          	jal	x0,0x80000024
    8000099c:	00100513          	addi	x10,x0,1
    800009a0:	02151513          	slli	x10,x10,0x21
    800009a4:	01200593          	addi	x11,x0,18
    800009a8:	00b5563b          	srlw	x12,x10,x11
    800009ac:	0ac23c23          	sd	x12,184(x4) # 0xb8
    800009b0:	00000093          	addi	x1,x0,0
    800009b4:	00c08463          	beq	x1,x12,0x800009bc
    800009b8:	e6cff06f          	jal	x0,0x80000024
    800009bc:	00100513          	addi	x10,x0,1
    800009c0:	02251513          	slli	x10,x10,0x22
    800009c4:	00b00593          	addi	x11,x0,11
    800009c8:	00b5563b          	srlw	x12,x10,x11
    800009cc:	0cc23023          	sd	x12,192(x4) # 0xc0
    800009d0:	00000093          	addi	x1,x0,0
    800009d4:	00c08463          	beq	x1,x12,0x800009dc
    800009d8:	e4cff06f          	jal	x0,0x80000024
    800009dc:	00100513          	addi	x10,x0,1
    800009e0:	02351513          	slli	x10,x10,0x23
    800009e4:	00c00593          	addi	x11,x0,12
    800009e8:	00b5563b          	srlw	x12,x10,x11
    800009ec:	0cc23423          	sd	x12,200(x4) # 0xc8
    800009f0:	00000093          	addi	x1,x0,0
    800009f4:	00c08463          	beq	x1,x12,0x800009fc
    800009f8:	e2cff06f          	jal	x0,0x80000024
    800009fc:	00100513          	addi	x10,x0,1
    80000a00:	02451513          	slli	x10,x10,0x24
    80000a04:	00500593          	addi	x11,x0,5
    80000a08:	00b5563b          	srlw	x12,x10,x11
    80000a0c:	0cc23823          	sd	x12,208(x4) # 0xd0
    80000a10:	00000093          	addi	x1,x0,0
    80000a14:	00c08463          	beq	x1,x12,0x80000a1c
    80000a18:	e0cff06f          	jal	x0,0x80000024
    80000a1c:	00100513          	addi	x10,x0,1
    80000a20:	02551513          	slli	x10,x10,0x25
    80000a24:	01e00593          	addi	x11,x0,30
    80000a28:	00b5563b          	srlw	x12,x10,x11
    80000a2c:	0cc23c23          	sd	x12,216(x4) # 0xd8
    80000a30:	00000093          	addi	x1,x0,0
    80000a34:	00c08463          	beq	x1,x12,0x80000a3c
    80000a38:	decff06f          	jal	x0,0x80000024
    80000a3c:	00100513          	addi	x10,x0,1
    80000a40:	02651513          	slli	x10,x10,0x26
    80000a44:	01e00593          	addi	x11,x0,30
    80000a48:	00b5563b          	srlw	x12,x10,x11
    80000a4c:	0ec23023          	sd	x12,224(x4) # 0xe0
    80000a50:	00000093          	addi	x1,x0,0
    80000a54:	00c08463          	beq	x1,x12,0x80000a5c
    80000a58:	dccff06f          	jal	x0,0x80000024
    80000a5c:	00100513          	addi	x10,x0,1
    80000a60:	02751513          	slli	x10,x10,0x27
    80000a64:	01300593          	addi	x11,x0,19
    80000a68:	00b5563b          	srlw	x12,x10,x11
    80000a6c:	0ec23423          	sd	x12,232(x4) # 0xe8
    80000a70:	00000093          	addi	x1,x0,0
    80000a74:	00c08463          	beq	x1,x12,0x80000a7c
    80000a78:	dacff06f          	jal	x0,0x80000024
    80000a7c:	00100513          	addi	x10,x0,1
    80000a80:	02851513          	slli	x10,x10,0x28
    80000a84:	01200593          	addi	x11,x0,18
    80000a88:	00b5563b          	srlw	x12,x10,x11
    80000a8c:	0ec23823          	sd	x12,240(x4) # 0xf0
    80000a90:	00000093          	addi	x1,x0,0
    80000a94:	00c08463          	beq	x1,x12,0x80000a9c
    80000a98:	d8cff06f          	jal	x0,0x80000024
    80000a9c:	00100513          	addi	x10,x0,1
    80000aa0:	02951513          	slli	x10,x10,0x29
    80000aa4:	01300593          	addi	x11,x0,19
    80000aa8:	00b5563b          	srlw	x12,x10,x11
    80000aac:	0ec23c23          	sd	x12,248(x4) # 0xf8
    80000ab0:	00000093          	addi	x1,x0,0
    80000ab4:	00c08463          	beq	x1,x12,0x80000abc
    80000ab8:	d6cff06f          	jal	x0,0x80000024
    80000abc:	00100513          	addi	x10,x0,1
    80000ac0:	02a51513          	slli	x10,x10,0x2a
    80000ac4:	00400593          	addi	x11,x0,4
    80000ac8:	00b5563b          	srlw	x12,x10,x11
    80000acc:	10c23023          	sd	x12,256(x4) # 0x100
    80000ad0:	00000093          	addi	x1,x0,0
    80000ad4:	00c08463          	beq	x1,x12,0x80000adc
    80000ad8:	d4cff06f          	jal	x0,0x80000024
    80000adc:	00100513          	addi	x10,x0,1
    80000ae0:	02b51513          	slli	x10,x10,0x2b
    80000ae4:	00000593          	addi	x11,x0,0
    80000ae8:	00b5563b          	srlw	x12,x10,x11
    80000aec:	10c23423          	sd	x12,264(x4) # 0x108
    80000af0:	00000093          	addi	x1,x0,0
    80000af4:	00c08463          	beq	x1,x12,0x80000afc
    80000af8:	d2cff06f          	jal	x0,0x80000024
    80000afc:	00100513          	addi	x10,x0,1
    80000b00:	02c51513          	slli	x10,x10,0x2c
    80000b04:	00f00593          	addi	x11,x0,15
    80000b08:	00b5563b          	srlw	x12,x10,x11
    80000b0c:	10c23823          	sd	x12,272(x4) # 0x110
    80000b10:	00000093          	addi	x1,x0,0
    80000b14:	00c08463          	beq	x1,x12,0x80000b1c
    80000b18:	d0cff06f          	jal	x0,0x80000024
    80000b1c:	00100513          	addi	x10,x0,1
    80000b20:	02d51513          	slli	x10,x10,0x2d
    80000b24:	00600593          	addi	x11,x0,6
    80000b28:	00b5563b          	srlw	x12,x10,x11
    80000b2c:	10c23c23          	sd	x12,280(x4) # 0x118
    80000b30:	00000093          	addi	x1,x0,0
    80000b34:	00c08463          	beq	x1,x12,0x80000b3c
    80000b38:	cecff06f          	jal	x0,0x80000024
    80000b3c:	00100513          	addi	x10,x0,1
    80000b40:	02e51513          	slli	x10,x10,0x2e
    80000b44:	00500593          	addi	x11,x0,5
    80000b48:	00b5563b          	srlw	x12,x10,x11
    80000b4c:	12c23023          	sd	x12,288(x4) # 0x120
    80000b50:	00000093          	addi	x1,x0,0
    80000b54:	00c08463          	beq	x1,x12,0x80000b5c
    80000b58:	cccff06f          	jal	x0,0x80000024
    80000b5c:	00100513          	addi	x10,x0,1
    80000b60:	03051513          	slli	x10,x10,0x30
    80000b64:	00e00593          	addi	x11,x0,14
    80000b68:	00b5563b          	srlw	x12,x10,x11
    80000b6c:	12c23423          	sd	x12,296(x4) # 0x128
    80000b70:	00000093          	addi	x1,x0,0
    80000b74:	00c08463          	beq	x1,x12,0x80000b7c
    80000b78:	cacff06f          	jal	x0,0x80000024
    80000b7c:	00100513          	addi	x10,x0,1
    80000b80:	03151513          	slli	x10,x10,0x31
    80000b84:	00700593          	addi	x11,x0,7
    80000b88:	00b5563b          	srlw	x12,x10,x11
    80000b8c:	12c23823          	sd	x12,304(x4) # 0x130
    80000b90:	00000093          	addi	x1,x0,0
    80000b94:	00c08463          	beq	x1,x12,0x80000b9c
    80000b98:	c8cff06f          	jal	x0,0x80000024
    80000b9c:	00100513          	addi	x10,x0,1
    80000ba0:	03251513          	slli	x10,x10,0x32
    80000ba4:	01700593          	addi	x11,x0,23
    80000ba8:	00b5563b          	srlw	x12,x10,x11
    80000bac:	12c23c23          	sd	x12,312(x4) # 0x138
    80000bb0:	00000093          	addi	x1,x0,0
    80000bb4:	00c08463          	beq	x1,x12,0x80000bbc
    80000bb8:	c6cff06f          	jal	x0,0x80000024
    80000bbc:	00100513          	addi	x10,x0,1
    80000bc0:	03351513          	slli	x10,x10,0x33
    80000bc4:	00a00593          	addi	x11,x0,10
    80000bc8:	00b5563b          	srlw	x12,x10,x11
    80000bcc:	14c23023          	sd	x12,320(x4) # 0x140
    80000bd0:	00000093          	addi	x1,x0,0
    80000bd4:	00c08463          	beq	x1,x12,0x80000bdc
    80000bd8:	c4cff06f          	jal	x0,0x80000024
    80000bdc:	00100513          	addi	x10,x0,1
    80000be0:	03451513          	slli	x10,x10,0x34
    80000be4:	01200593          	addi	x11,x0,18
    80000be8:	00b5563b          	srlw	x12,x10,x11
    80000bec:	14c23423          	sd	x12,328(x4) # 0x148
    80000bf0:	00000093          	addi	x1,x0,0
    80000bf4:	00c08463          	beq	x1,x12,0x80000bfc
    80000bf8:	c2cff06f          	jal	x0,0x80000024
    80000bfc:	00100513          	addi	x10,x0,1
    80000c00:	03551513          	slli	x10,x10,0x35
    80000c04:	00100593          	addi	x11,x0,1
    80000c08:	00b5563b          	srlw	x12,x10,x11
    80000c0c:	14c23823          	sd	x12,336(x4) # 0x150
    80000c10:	00000093          	addi	x1,x0,0
    80000c14:	00c08463          	beq	x1,x12,0x80000c1c
    80000c18:	c0cff06f          	jal	x0,0x80000024
    80000c1c:	00100513          	addi	x10,x0,1
    80000c20:	03651513          	slli	x10,x10,0x36
    80000c24:	00000593          	addi	x11,x0,0
    80000c28:	00b5563b          	srlw	x12,x10,x11
    80000c2c:	14c23c23          	sd	x12,344(x4) # 0x158
    80000c30:	00000093          	addi	x1,x0,0
    80000c34:	00c08463          	beq	x1,x12,0x80000c3c
    80000c38:	becff06f          	jal	x0,0x80000024
    80000c3c:	00100513          	addi	x10,x0,1
    80000c40:	03751513          	slli	x10,x10,0x37
    80000c44:	00500593          	addi	x11,x0,5
    80000c48:	00b5563b          	srlw	x12,x10,x11
    80000c4c:	16c23023          	sd	x12,352(x4) # 0x160
    80000c50:	00000093          	addi	x1,x0,0
    80000c54:	00c08463          	beq	x1,x12,0x80000c5c
    80000c58:	bccff06f          	jal	x0,0x80000024
    80000c5c:	00100513          	addi	x10,x0,1
    80000c60:	03851513          	slli	x10,x10,0x38
    80000c64:	01200593          	addi	x11,x0,18
    80000c68:	00b5563b          	srlw	x12,x10,x11
    80000c6c:	16c23423          	sd	x12,360(x4) # 0x168
    80000c70:	00000093          	addi	x1,x0,0
    80000c74:	00c08463          	beq	x1,x12,0x80000c7c
    80000c78:	bacff06f          	jal	x0,0x80000024
    80000c7c:	00100513          	addi	x10,x0,1
    80000c80:	03951513          	slli	x10,x10,0x39
    80000c84:	00b00593          	addi	x11,x0,11
    80000c88:	00b5563b          	srlw	x12,x10,x11
    80000c8c:	16c23823          	sd	x12,368(x4) # 0x170
    80000c90:	00000093          	addi	x1,x0,0
    80000c94:	00c08463          	beq	x1,x12,0x80000c9c
    80000c98:	b8cff06f          	jal	x0,0x80000024
    80000c9c:	00100513          	addi	x10,x0,1
    80000ca0:	03b51513          	slli	x10,x10,0x3b
    80000ca4:	01f00593          	addi	x11,x0,31
    80000ca8:	00b5563b          	srlw	x12,x10,x11
    80000cac:	16c23c23          	sd	x12,376(x4) # 0x178
    80000cb0:	00000093          	addi	x1,x0,0
    80000cb4:	00c08463          	beq	x1,x12,0x80000cbc
    80000cb8:	b6cff06f          	jal	x0,0x80000024
    80000cbc:	00100513          	addi	x10,x0,1
    80000cc0:	03c51513          	slli	x10,x10,0x3c
    80000cc4:	00700593          	addi	x11,x0,7
    80000cc8:	00b5563b          	srlw	x12,x10,x11
    80000ccc:	18c23023          	sd	x12,384(x4) # 0x180
    80000cd0:	00000093          	addi	x1,x0,0
    80000cd4:	00c08463          	beq	x1,x12,0x80000cdc
    80000cd8:	b4cff06f          	jal	x0,0x80000024
    80000cdc:	00100513          	addi	x10,x0,1
    80000ce0:	03d51513          	slli	x10,x10,0x3d
    80000ce4:	00100593          	addi	x11,x0,1
    80000ce8:	00b5563b          	srlw	x12,x10,x11
    80000cec:	18c23423          	sd	x12,392(x4) # 0x188
    80000cf0:	00000093          	addi	x1,x0,0
    80000cf4:	00c08463          	beq	x1,x12,0x80000cfc
    80000cf8:	b2cff06f          	jal	x0,0x80000024
    80000cfc:	00100513          	addi	x10,x0,1
    80000d00:	03e51513          	slli	x10,x10,0x3e
    80000d04:	01000593          	addi	x11,x0,16
    80000d08:	00b5563b          	srlw	x12,x10,x11
    80000d0c:	18c23823          	sd	x12,400(x4) # 0x190
    80000d10:	00000093          	addi	x1,x0,0
    80000d14:	00c08463          	beq	x1,x12,0x80000d1c
    80000d18:	b0cff06f          	jal	x0,0x80000024
    80000d1c:	ffe00513          	addi	x10,x0,-2
    80000d20:	00600593          	addi	x11,x0,6
    80000d24:	00b5563b          	srlw	x12,x10,x11
    80000d28:	18c23c23          	sd	x12,408(x4) # 0x198
    80000d2c:	040000b7          	lui	x1,0x4000
    80000d30:	fff0809b          	addiw	x1,x1,-1 # 0x3ffffff
    80000d34:	00c08463          	beq	x1,x12,0x80000d3c
    80000d38:	aecff06f          	jal	x0,0x80000024
    80000d3c:	ffd00513          	addi	x10,x0,-3
    80000d40:	01b00593          	addi	x11,x0,27
    80000d44:	00b5563b          	srlw	x12,x10,x11
    80000d48:	1ac23023          	sd	x12,416(x4) # 0x1a0
    80000d4c:	01f00093          	addi	x1,x0,31
    80000d50:	00c08463          	beq	x1,x12,0x80000d58
    80000d54:	ad0ff06f          	jal	x0,0x80000024
    80000d58:	ffb00513          	addi	x10,x0,-5
    80000d5c:	01300593          	addi	x11,x0,19
    80000d60:	00b5563b          	srlw	x12,x10,x11
    80000d64:	1ac23423          	sd	x12,424(x4) # 0x1a8
    80000d68:	000020b7          	lui	x1,0x2
    80000d6c:	fff0809b          	addiw	x1,x1,-1 # 0x1fff
    80000d70:	00c08463          	beq	x1,x12,0x80000d78
    80000d74:	ab0ff06f          	jal	x0,0x80000024
    80000d78:	ff700513          	addi	x10,x0,-9
    80000d7c:	00c00593          	addi	x11,x0,12
    80000d80:	00b5563b          	srlw	x12,x10,x11
    80000d84:	1ac23823          	sd	x12,432(x4) # 0x1b0
    80000d88:	001000b7          	lui	x1,0x100
    80000d8c:	fff0809b          	addiw	x1,x1,-1 # 0xfffff
    80000d90:	00c08463          	beq	x1,x12,0x80000d98
    80000d94:	a90ff06f          	jal	x0,0x80000024
    80000d98:	fef00513          	addi	x10,x0,-17
    80000d9c:	00400593          	addi	x11,x0,4
    80000da0:	00b5563b          	srlw	x12,x10,x11
    80000da4:	1ac23c23          	sd	x12,440(x4) # 0x1b8
    80000da8:	100000b7          	lui	x1,0x10000
    80000dac:	ffe0809b          	addiw	x1,x1,-2 # 0xffffffe
    80000db0:	00c08463          	beq	x1,x12,0x80000db8
    80000db4:	a70ff06f          	jal	x0,0x80000024
    80000db8:	fdf00513          	addi	x10,x0,-33
    80000dbc:	00900593          	addi	x11,x0,9
    80000dc0:	00b5563b          	srlw	x12,x10,x11
    80000dc4:	1cc23023          	sd	x12,448(x4) # 0x1c0
    80000dc8:	008000b7          	lui	x1,0x800
    80000dcc:	fff0809b          	addiw	x1,x1,-1 # 0x7fffff
    80000dd0:	00c08463          	beq	x1,x12,0x80000dd8
    80000dd4:	a50ff06f          	jal	x0,0x80000024
    80000dd8:	fbf00513          	addi	x10,x0,-65
    80000ddc:	00000593          	addi	x11,x0,0
    80000de0:	00b5563b          	srlw	x12,x10,x11
    80000de4:	1cc23423          	sd	x12,456(x4) # 0x1c8
    80000de8:	fbf00093          	addi	x1,x0,-65
    80000dec:	00c08463          	beq	x1,x12,0x80000df4
    80000df0:	a34ff06f          	jal	x0,0x80000024
    80000df4:	f7f00513          	addi	x10,x0,-129
    80000df8:	01500593          	addi	x11,x0,21
    80000dfc:	00b5563b          	srlw	x12,x10,x11
    80000e00:	1cc23823          	sd	x12,464(x4) # 0x1d0
    80000e04:	7ff00093          	addi	x1,x0,2047
    80000e08:	00c08463          	beq	x1,x12,0x80000e10
    80000e0c:	a18ff06f          	jal	x0,0x80000024
    80000e10:	eff00513          	addi	x10,x0,-257
    80000e14:	00100593          	addi	x11,x0,1
    80000e18:	00b5563b          	srlw	x12,x10,x11
    80000e1c:	1cc23c23          	sd	x12,472(x4) # 0x1d8
    80000e20:	800000b7          	lui	x1,0x80000
    80000e24:	f7f0809b          	addiw	x1,x1,-129 # 0x7fffff7f
    80000e28:	00c08463          	beq	x1,x12,0x80000e30
    80000e2c:	9f8ff06f          	jal	x0,0x80000024
    80000e30:	dff00513          	addi	x10,x0,-513
    80000e34:	00900593          	addi	x11,x0,9
    80000e38:	00b5563b          	srlw	x12,x10,x11
    80000e3c:	1ec23023          	sd	x12,480(x4) # 0x1e0
    80000e40:	008000b7          	lui	x1,0x800
    80000e44:	ffe0809b          	addiw	x1,x1,-2 # 0x7ffffe
    80000e48:	00c08463          	beq	x1,x12,0x80000e50
    80000e4c:	9d8ff06f          	jal	x0,0x80000024
    80000e50:	bff00513          	addi	x10,x0,-1025
    80000e54:	00200593          	addi	x11,x0,2
    80000e58:	00b5563b          	srlw	x12,x10,x11
    80000e5c:	1ec23423          	sd	x12,488(x4) # 0x1e8
    80000e60:	400000b7          	lui	x1,0x40000
    80000e64:	eff0809b          	addiw	x1,x1,-257 # 0x3ffffeff
    80000e68:	00c08463          	beq	x1,x12,0x80000e70
    80000e6c:	9b8ff06f          	jal	x0,0x80000024
    80000e70:	00100513          	addi	x10,x0,1
    80000e74:	00b51513          	slli	x10,x10,0xb
    80000e78:	fff54513          	xori	x10,x10,-1
    80000e7c:	00800593          	addi	x11,x0,8
    80000e80:	00b5563b          	srlw	x12,x10,x11
    80000e84:	1ec23823          	sd	x12,496(x4) # 0x1f0
    80000e88:	010000b7          	lui	x1,0x1000
    80000e8c:	ff70809b          	addiw	x1,x1,-9 # 0xfffff7
    80000e90:	00c08463          	beq	x1,x12,0x80000e98
    80000e94:	990ff06f          	jal	x0,0x80000024
    80000e98:	00100513          	addi	x10,x0,1
    80000e9c:	00c51513          	slli	x10,x10,0xc
    80000ea0:	fff54513          	xori	x10,x10,-1
    80000ea4:	01300593          	addi	x11,x0,19
    80000ea8:	00b5563b          	srlw	x12,x10,x11
    80000eac:	1ec23c23          	sd	x12,504(x4) # 0x1f8
    80000eb0:	000020b7          	lui	x1,0x2
    80000eb4:	fff0809b          	addiw	x1,x1,-1 # 0x1fff
    80000eb8:	00c08463          	beq	x1,x12,0x80000ec0
    80000ebc:	968ff06f          	jal	x0,0x80000024
    80000ec0:	00100513          	addi	x10,x0,1
    80000ec4:	00d51513          	slli	x10,x10,0xd
    80000ec8:	fff54513          	xori	x10,x10,-1
    80000ecc:	00c00593          	addi	x11,x0,12
    80000ed0:	00b5563b          	srlw	x12,x10,x11
    80000ed4:	20c23023          	sd	x12,512(x4) # 0x200
    80000ed8:	001000b7          	lui	x1,0x100
    80000edc:	ffd0809b          	addiw	x1,x1,-3 # 0xffffd
    80000ee0:	00c08463          	beq	x1,x12,0x80000ee8
    80000ee4:	940ff06f          	jal	x0,0x80000024
    80000ee8:	00100513          	addi	x10,x0,1
    80000eec:	00e51513          	slli	x10,x10,0xe
    80000ef0:	fff54513          	xori	x10,x10,-1
    80000ef4:	00e00593          	addi	x11,x0,14
    80000ef8:	00b5563b          	srlw	x12,x10,x11
    80000efc:	20c23423          	sd	x12,520(x4) # 0x208
    80000f00:	000400b7          	lui	x1,0x40
    80000f04:	ffe0809b          	addiw	x1,x1,-2 # 0x3fffe
    80000f08:	00c08463          	beq	x1,x12,0x80000f10
    80000f0c:	918ff06f          	jal	x0,0x80000024
    80000f10:	00100513          	addi	x10,x0,1
    80000f14:	00f51513          	slli	x10,x10,0xf
    80000f18:	fff54513          	xori	x10,x10,-1
    80000f1c:	00100593          	addi	x11,x0,1
    80000f20:	00b5563b          	srlw	x12,x10,x11
    80000f24:	20c23823          	sd	x12,528(x4) # 0x210
    80000f28:	7fffc0b7          	lui	x1,0x7fffc
    80000f2c:	fff0809b          	addiw	x1,x1,-1 # 0x7fffbfff
    80000f30:	00c08463          	beq	x1,x12,0x80000f38
    80000f34:	8f0ff06f          	jal	x0,0x80000024
    80000f38:	00100513          	addi	x10,x0,1
    80000f3c:	01051513          	slli	x10,x10,0x10
    80000f40:	fff54513          	xori	x10,x10,-1
    80000f44:	00f00593          	addi	x11,x0,15
    80000f48:	00b5563b          	srlw	x12,x10,x11
    80000f4c:	20c23c23          	sd	x12,536(x4) # 0x218
    80000f50:	000200b7          	lui	x1,0x20
    80000f54:	ffd0809b          	addiw	x1,x1,-3 # 0x1fffd
    80000f58:	00c08463          	beq	x1,x12,0x80000f60
    80000f5c:	8c8ff06f          	jal	x0,0x80000024
    80000f60:	00100513          	addi	x10,x0,1
    80000f64:	01151513          	slli	x10,x10,0x11
    80000f68:	fff54513          	xori	x10,x10,-1
    80000f6c:	01200593          	addi	x11,x0,18
    80000f70:	00b5563b          	srlw	x12,x10,x11
    80000f74:	22c23023          	sd	x12,544(x4) # 0x220
    80000f78:	000040b7          	lui	x1,0x4
    80000f7c:	fff0809b          	addiw	x1,x1,-1 # 0x3fff
    80000f80:	00c08463          	beq	x1,x12,0x80000f88
    80000f84:	8a0ff06f          	jal	x0,0x80000024
    80000f88:	00100513          	addi	x10,x0,1
    80000f8c:	01251513          	slli	x10,x10,0x12
    80000f90:	fff54513          	xori	x10,x10,-1
    80000f94:	00100593          	addi	x11,x0,1
    80000f98:	00b5563b          	srlw	x12,x10,x11
    80000f9c:	22c23423          	sd	x12,552(x4) # 0x228
    80000fa0:	7ffe00b7          	lui	x1,0x7ffe0
    80000fa4:	fff0809b          	addiw	x1,x1,-1 # 0x7ffdffff
    80000fa8:	00c08463          	beq	x1,x12,0x80000fb0
    80000fac:	878ff06f          	jal	x0,0x80000024
    80000fb0:	00100513          	addi	x10,x0,1
    80000fb4:	01351513          	slli	x10,x10,0x13
    80000fb8:	fff54513          	xori	x10,x10,-1
    80000fbc:	00400593          	addi	x11,x0,4
    80000fc0:	00b5563b          	srlw	x12,x10,x11
    80000fc4:	22c23823          	sd	x12,560(x4) # 0x230
    80000fc8:	0fff80b7          	lui	x1,0xfff8
    80000fcc:	fff0809b          	addiw	x1,x1,-1 # 0xfff7fff
    80000fd0:	00c08463          	beq	x1,x12,0x80000fd8
    80000fd4:	850ff06f          	jal	x0,0x80000024
    80000fd8:	00100513          	addi	x10,x0,1
    80000fdc:	03751513          	slli	x10,x10,0x37
    80000fe0:	fff54513          	xori	x10,x10,-1
    80000fe4:	01e00593          	addi	x11,x0,30
    80000fe8:	00b5563b          	srlw	x12,x10,x11
    80000fec:	22c23c23          	sd	x12,568(x4) # 0x238
    80000ff0:	00300093          	addi	x1,x0,3
    80000ff4:	00c08463          	beq	x1,x12,0x80000ffc
    80000ff8:	82cff06f          	jal	x0,0x80000024
    80000ffc:	00100513          	addi	x10,x0,1
    80001000:	03851513          	slli	x10,x10,0x38
    80001004:	fff54513          	xori	x10,x10,-1
    80001008:	01d00593          	addi	x11,x0,29
    8000100c:	00b5563b          	srlw	x12,x10,x11
    80001010:	24c23023          	sd	x12,576(x4) # 0x240
    80001014:	00700093          	addi	x1,x0,7
    80001018:	00c08463          	beq	x1,x12,0x80001020
    8000101c:	808ff06f          	jal	x0,0x80000024
    80001020:	00100513          	addi	x10,x0,1
    80001024:	03951513          	slli	x10,x10,0x39
    80001028:	fff54513          	xori	x10,x10,-1
    8000102c:	00800593          	addi	x11,x0,8
    80001030:	00b5563b          	srlw	x12,x10,x11
    80001034:	24c23423          	sd	x12,584(x4) # 0x248
    80001038:	010000b7          	lui	x1,0x1000
    8000103c:	fff0809b          	addiw	x1,x1,-1 # 0xffffff
    80001040:	00c08463          	beq	x1,x12,0x80001048
    80001044:	fe1fe06f          	jal	x0,0x80000024
    80001048:	00100513          	addi	x10,x0,1
    8000104c:	03a51513          	slli	x10,x10,0x3a
    80001050:	fff54513          	xori	x10,x10,-1
    80001054:	00200593          	addi	x11,x0,2
    80001058:	00b5563b          	srlw	x12,x10,x11
    8000105c:	24c23823          	sd	x12,592(x4) # 0x250
    80001060:	400000b7          	lui	x1,0x40000
    80001064:	fff0809b          	addiw	x1,x1,-1 # 0x3fffffff
    80001068:	00c08463          	beq	x1,x12,0x80001070
    8000106c:	fb9fe06f          	jal	x0,0x80000024
    80001070:	00100513          	addi	x10,x0,1
    80001074:	03b51513          	slli	x10,x10,0x3b
    80001078:	fff54513          	xori	x10,x10,-1
    8000107c:	00000593          	addi	x11,x0,0
    80001080:	00b5563b          	srlw	x12,x10,x11
    80001084:	24c23c23          	sd	x12,600(x4) # 0x258
    80001088:	fff00093          	addi	x1,x0,-1
    8000108c:	00c08463          	beq	x1,x12,0x80001094
    80001090:	f95fe06f          	jal	x0,0x80000024
    80001094:	00100513          	addi	x10,x0,1
    80001098:	03c51513          	slli	x10,x10,0x3c
    8000109c:	fff54513          	xori	x10,x10,-1
    800010a0:	00900593          	addi	x11,x0,9
    800010a4:	00b5563b          	srlw	x12,x10,x11
    800010a8:	26c23023          	sd	x12,608(x4) # 0x260
    800010ac:	008000b7          	lui	x1,0x800
    800010b0:	fff0809b          	addiw	x1,x1,-1 # 0x7fffff
    800010b4:	00c08463          	beq	x1,x12,0x800010bc
    800010b8:	f6dfe06f          	jal	x0,0x80000024
    800010bc:	00100513          	addi	x10,x0,1
    800010c0:	03d51513          	slli	x10,x10,0x3d
    800010c4:	fff54513          	xori	x10,x10,-1
    800010c8:	00f00593          	addi	x11,x0,15
    800010cc:	00b5563b          	srlw	x12,x10,x11
    800010d0:	26c23423          	sd	x12,616(x4) # 0x268
    800010d4:	000200b7          	lui	x1,0x20
    800010d8:	fff0809b          	addiw	x1,x1,-1 # 0x1ffff
    800010dc:	00c08463          	beq	x1,x12,0x800010e4
    800010e0:	f45fe06f          	jal	x0,0x80000024
    800010e4:	00100513          	addi	x10,x0,1
    800010e8:	03e51513          	slli	x10,x10,0x3e
    800010ec:	fff54513          	xori	x10,x10,-1
    800010f0:	01e00593          	addi	x11,x0,30
    800010f4:	00b5563b          	srlw	x12,x10,x11
    800010f8:	26c23823          	sd	x12,624(x4) # 0x270
    800010fc:	00300093          	addi	x1,x0,3
    80001100:	00c08463          	beq	x1,x12,0x80001108
    80001104:	f21fe06f          	jal	x0,0x80000024
    80001108:	55555537          	lui	x10,0x55555
    8000110c:	55550513          	addi	x10,x10,1365 # 0x55555555
    80001110:	00b51513          	slli	x10,x10,0xb
    80001114:	2aa50513          	addi	x10,x10,682
    80001118:	00b51513          	slli	x10,x10,0xb
    8000111c:	55550513          	addi	x10,x10,1365
    80001120:	00a51513          	slli	x10,x10,0xa
    80001124:	15550513          	addi	x10,x10,341
    80001128:	00a00593          	addi	x11,x0,10
    8000112c:	00b5563b          	srlw	x12,x10,x11
    80001130:	26c23c23          	sd	x12,632(x4) # 0x278
    80001134:	001550b7          	lui	x1,0x155
    80001138:	5550809b          	addiw	x1,x1,1365 # 0x155555
    8000113c:	00c08463          	beq	x1,x12,0x80001144
    80001140:	ee5fe06f          	jal	x0,0x80000024
    80001144:	aaaab537          	lui	x10,0xaaaab
    80001148:	aaa50513          	addi	x10,x10,-1366 # 0xffffffffaaaaaaaa
    8000114c:	00b51513          	slli	x10,x10,0xb
    80001150:	55550513          	addi	x10,x10,1365
    80001154:	00b51513          	slli	x10,x10,0xb
    80001158:	2aa50513          	addi	x10,x10,682
    8000115c:	00a51513          	slli	x10,x10,0xa
    80001160:	2aa50513          	addi	x10,x10,682
    80001164:	01300593          	addi	x11,x0,19
    80001168:	00b5563b          	srlw	x12,x10,x11
    8000116c:	28c23023          	sd	x12,640(x4) # 0x280
    80001170:	000010b7          	lui	x1,0x1
    80001174:	5550809b          	addiw	x1,x1,1365 # 0x1555
    80001178:	00c08463          	beq	x1,x12,0x80001180
    8000117c:	ea9fe06f          	jal	x0,0x80000024
    80001180:	00300513          	addi	x10,x0,3
    80001184:	01700593          	addi	x11,x0,23
    80001188:	00b5563b          	srlw	x12,x10,x11
    8000118c:	28c23423          	sd	x12,648(x4) # 0x288
    80001190:	00000093          	addi	x1,x0,0
    80001194:	00c08463          	beq	x1,x12,0x8000119c
    80001198:	e8dfe06f          	jal	x0,0x80000024
    8000119c:	00500513          	addi	x10,x0,5
    800011a0:	01e00593          	addi	x11,x0,30
    800011a4:	00b5563b          	srlw	x12,x10,x11
    800011a8:	28c23823          	sd	x12,656(x4) # 0x290
    800011ac:	00000093          	addi	x1,x0,0
    800011b0:	00c08463          	beq	x1,x12,0x800011b8
    800011b4:	e71fe06f          	jal	x0,0x80000024
    800011b8:	33333537          	lui	x10,0x33333
    800011bc:	33350513          	addi	x10,x10,819 # 0x33333333
    800011c0:	00b51513          	slli	x10,x10,0xb
    800011c4:	19950513          	addi	x10,x10,409
    800011c8:	00b51513          	slli	x10,x10,0xb
    800011cc:	4cc50513          	addi	x10,x10,1228
    800011d0:	00a51513          	slli	x10,x10,0xa
    800011d4:	33350513          	addi	x10,x10,819
    800011d8:	01100593          	addi	x11,x0,17
    800011dc:	00b5563b          	srlw	x12,x10,x11
    800011e0:	28c23c23          	sd	x12,664(x4) # 0x298
    800011e4:	000020b7          	lui	x1,0x2
    800011e8:	9990809b          	addiw	x1,x1,-1639 # 0x1999
    800011ec:	00c08463          	beq	x1,x12,0x800011f4
    800011f0:	e35fe06f          	jal	x0,0x80000024
    800011f4:	66666537          	lui	x10,0x66666
    800011f8:	66650513          	addi	x10,x10,1638 # 0x66666666
    800011fc:	00b51513          	slli	x10,x10,0xb
    80001200:	33350513          	addi	x10,x10,819
    80001204:	00b51513          	slli	x10,x10,0xb
    80001208:	19950513          	addi	x10,x10,409
    8000120c:	00a51513          	slli	x10,x10,0xa
    80001210:	26650513          	addi	x10,x10,614
    80001214:	01b00593          	addi	x11,x0,27
    80001218:	00b5563b          	srlw	x12,x10,x11
    8000121c:	2ac23023          	sd	x12,672(x4) # 0x2a0
    80001220:	00c00093          	addi	x1,x0,12
    80001224:	00c08463          	beq	x1,x12,0x8000122c
    80001228:	dfdfe06f          	jal	x0,0x80000024
    8000122c:	00000537          	lui	x10,0x0
    80001230:	00050513          	addi	x10,x10,0 # 0x0
    80001234:	00b51513          	slli	x10,x10,0xb
    80001238:	5a850513          	addi	x10,x10,1448
    8000123c:	00b51513          	slli	x10,x10,0xb
    80001240:	13c50513          	addi	x10,x10,316
    80001244:	00a51513          	slli	x10,x10,0xa
    80001248:	33350513          	addi	x10,x10,819
    8000124c:	00800593          	addi	x11,x0,8
    80001250:	00b5563b          	srlw	x12,x10,x11
    80001254:	2ac23423          	sd	x12,680(x4) # 0x2a8
    80001258:	00b500b7          	lui	x1,0xb50
    8000125c:	4f30809b          	addiw	x1,x1,1267 # 0xb504f3
    80001260:	00c08463          	beq	x1,x12,0x80001268
    80001264:	dc1fe06f          	jal	x0,0x80000024
    80001268:	55555537          	lui	x10,0x55555
    8000126c:	55550513          	addi	x10,x10,1365 # 0x55555555
    80001270:	00b51513          	slli	x10,x10,0xb
    80001274:	2aa50513          	addi	x10,x10,682
    80001278:	00b51513          	slli	x10,x10,0xb
    8000127c:	55550513          	addi	x10,x10,1365
    80001280:	00a51513          	slli	x10,x10,0xa
    80001284:	15450513          	addi	x10,x10,340
    80001288:	00c00593          	addi	x11,x0,12
    8000128c:	00b5563b          	srlw	x12,x10,x11
    80001290:	2ac23823          	sd	x12,688(x4) # 0x2b0
    80001294:	000550b7          	lui	x1,0x55
    80001298:	5550809b          	addiw	x1,x1,1365 # 0x55555
    8000129c:	00c08463          	beq	x1,x12,0x800012a4
    800012a0:	d85fe06f          	jal	x0,0x80000024
    800012a4:	33333537          	lui	x10,0x33333
    800012a8:	33350513          	addi	x10,x10,819 # 0x33333333
    800012ac:	00b51513          	slli	x10,x10,0xb
    800012b0:	19950513          	addi	x10,x10,409
    800012b4:	00b51513          	slli	x10,x10,0xb
    800012b8:	4cc50513          	addi	x10,x10,1228
    800012bc:	00a51513          	slli	x10,x10,0xa
    800012c0:	33250513          	addi	x10,x10,818
    800012c4:	00300593          	addi	x11,x0,3
    800012c8:	00b5563b          	srlw	x12,x10,x11
    800012cc:	2ac23c23          	sd	x12,696(x4) # 0x2b8
    800012d0:	066660b7          	lui	x1,0x6666
    800012d4:	6660809b          	addiw	x1,x1,1638 # 0x6666666
    800012d8:	00c08463          	beq	x1,x12,0x800012e0
    800012dc:	d49fe06f          	jal	x0,0x80000024
    800012e0:	66666537          	lui	x10,0x66666
    800012e4:	66650513          	addi	x10,x10,1638 # 0x66666666
    800012e8:	00b51513          	slli	x10,x10,0xb
    800012ec:	33350513          	addi	x10,x10,819
    800012f0:	00b51513          	slli	x10,x10,0xb
    800012f4:	19950513          	addi	x10,x10,409
    800012f8:	00a51513          	slli	x10,x10,0xa
    800012fc:	26550513          	addi	x10,x10,613
    80001300:	00200593          	addi	x11,x0,2
    80001304:	00b5563b          	srlw	x12,x10,x11
    80001308:	2cc23023          	sd	x12,704(x4) # 0x2c0
    8000130c:	1999a0b7          	lui	x1,0x1999a
    80001310:	9990809b          	addiw	x1,x1,-1639 # 0x19999999
    80001314:	00c08463          	beq	x1,x12,0x8000131c
    80001318:	d0dfe06f          	jal	x0,0x80000024
    8000131c:	00000537          	lui	x10,0x0
    80001320:	00050513          	addi	x10,x10,0 # 0x0
    80001324:	00b51513          	slli	x10,x10,0xb
    80001328:	5a850513          	addi	x10,x10,1448
    8000132c:	00b51513          	slli	x10,x10,0xb
    80001330:	13c50513          	addi	x10,x10,316
    80001334:	00a51513          	slli	x10,x10,0xa
    80001338:	33250513          	addi	x10,x10,818
    8000133c:	01f00593          	addi	x11,x0,31
    80001340:	00b5563b          	srlw	x12,x10,x11
    80001344:	2cc23423          	sd	x12,712(x4) # 0x2c8
    80001348:	00100093          	addi	x1,x0,1
    8000134c:	00c08463          	beq	x1,x12,0x80001354
    80001350:	cd5fe06f          	jal	x0,0x80000024
    80001354:	55555537          	lui	x10,0x55555
    80001358:	55550513          	addi	x10,x10,1365 # 0x55555555
    8000135c:	00b51513          	slli	x10,x10,0xb
    80001360:	2aa50513          	addi	x10,x10,682
    80001364:	00b51513          	slli	x10,x10,0xb
    80001368:	55550513          	addi	x10,x10,1365
    8000136c:	00a51513          	slli	x10,x10,0xa
    80001370:	15650513          	addi	x10,x10,342
    80001374:	00900593          	addi	x11,x0,9
    80001378:	00b5563b          	srlw	x12,x10,x11
    8000137c:	2cc23823          	sd	x12,720(x4) # 0x2d0
    80001380:	002ab0b7          	lui	x1,0x2ab
    80001384:	aaa0809b          	addiw	x1,x1,-1366 # 0x2aaaaa
    80001388:	00c08463          	beq	x1,x12,0x80001390
    8000138c:	c99fe06f          	jal	x0,0x80000024
    80001390:	aaaab537          	lui	x10,0xaaaab
    80001394:	aaa50513          	addi	x10,x10,-1366 # 0xffffffffaaaaaaaa
    80001398:	00b51513          	slli	x10,x10,0xb
    8000139c:	55550513          	addi	x10,x10,1365
    800013a0:	00b51513          	slli	x10,x10,0xb
    800013a4:	2aa50513          	addi	x10,x10,682
    800013a8:	00a51513          	slli	x10,x10,0xa
    800013ac:	2ab50513          	addi	x10,x10,683
    800013b0:	01500593          	addi	x11,x0,21
    800013b4:	00b5563b          	srlw	x12,x10,x11
    800013b8:	2cc23c23          	sd	x12,728(x4) # 0x2d8
    800013bc:	55500093          	addi	x1,x0,1365
    800013c0:	00c08463          	beq	x1,x12,0x800013c8
    800013c4:	c61fe06f          	jal	x0,0x80000024
    800013c8:	00600513          	addi	x10,x0,6
    800013cc:	00f00593          	addi	x11,x0,15
    800013d0:	00b5563b          	srlw	x12,x10,x11
    800013d4:	2ec23023          	sd	x12,736(x4) # 0x2e0
    800013d8:	00000093          	addi	x1,x0,0
    800013dc:	00c08463          	beq	x1,x12,0x800013e4
    800013e0:	c45fe06f          	jal	x0,0x80000024
    800013e4:	33333537          	lui	x10,0x33333
    800013e8:	33350513          	addi	x10,x10,819 # 0x33333333
    800013ec:	00b51513          	slli	x10,x10,0xb
    800013f0:	19950513          	addi	x10,x10,409
    800013f4:	00b51513          	slli	x10,x10,0xb
    800013f8:	4cc50513          	addi	x10,x10,1228
    800013fc:	00a51513          	slli	x10,x10,0xa
    80001400:	33450513          	addi	x10,x10,820
    80001404:	01000593          	addi	x11,x0,16
    80001408:	00b5563b          	srlw	x12,x10,x11
    8000140c:	2ec23423          	sd	x12,744(x4) # 0x2e8
    80001410:	000030b7          	lui	x1,0x3
    80001414:	3330809b          	addiw	x1,x1,819 # 0x3333
    80001418:	00c08463          	beq	x1,x12,0x80001420
    8000141c:	c09fe06f          	jal	x0,0x80000024
    80001420:	66666537          	lui	x10,0x66666
    80001424:	66650513          	addi	x10,x10,1638 # 0x66666666
    80001428:	00b51513          	slli	x10,x10,0xb
    8000142c:	33350513          	addi	x10,x10,819
    80001430:	00b51513          	slli	x10,x10,0xb
    80001434:	19950513          	addi	x10,x10,409
    80001438:	00a51513          	slli	x10,x10,0xa
    8000143c:	26750513          	addi	x10,x10,615
    80001440:	01100593          	addi	x11,x0,17
    80001444:	00b5563b          	srlw	x12,x10,x11
    80001448:	2ec23823          	sd	x12,752(x4) # 0x2f0
    8000144c:	000030b7          	lui	x1,0x3
    80001450:	3330809b          	addiw	x1,x1,819 # 0x3333
    80001454:	00c08463          	beq	x1,x12,0x8000145c
    80001458:	bcdfe06f          	jal	x0,0x80000024
    8000145c:	00000537          	lui	x10,0x0
    80001460:	fff50513          	addi	x10,x10,-1 # 0xffffffffffffffff
    80001464:	00b51513          	slli	x10,x10,0xb
    80001468:	25750513          	addi	x10,x10,599
    8000146c:	00b51513          	slli	x10,x10,0xb
    80001470:	6c350513          	addi	x10,x10,1731
    80001474:	00a51513          	slli	x10,x10,0xa
    80001478:	0ce50513          	addi	x10,x10,206
    8000147c:	01f00593          	addi	x11,x0,31
    80001480:	00b5563b          	srlw	x12,x10,x11
    80001484:	2ec23c23          	sd	x12,760(x4) # 0x2f8
    80001488:	00000093          	addi	x1,x0,0
    8000148c:	00c08463          	beq	x1,x12,0x80001494
    80001490:	b95fe06f          	jal	x0,0x80000024
    80001494:	00000537          	lui	x10,0x0
    80001498:	00050513          	addi	x10,x10,0 # 0x0
    8000149c:	00b51513          	slli	x10,x10,0xb
    800014a0:	5a850513          	addi	x10,x10,1448
    800014a4:	00b51513          	slli	x10,x10,0xb
    800014a8:	13c50513          	addi	x10,x10,316
    800014ac:	00a51513          	slli	x10,x10,0xa
    800014b0:	33450513          	addi	x10,x10,820
    800014b4:	01500593          	addi	x11,x0,21
    800014b8:	00b5563b          	srlw	x12,x10,x11
    800014bc:	30c23023          	sd	x12,768(x4) # 0x300
    800014c0:	5a800093          	addi	x1,x0,1448
    800014c4:	00c08463          	beq	x1,x12,0x800014cc
    800014c8:	b5dfe06f          	jal	x0,0x80000024
    800014cc:	00100513          	addi	x10,x0,1
    800014d0:	01451513          	slli	x10,x10,0x14
    800014d4:	fff54513          	xori	x10,x10,-1
    800014d8:	00600593          	addi	x11,x0,6
    800014dc:	00b5563b          	srlw	x12,x10,x11
    800014e0:	30c23423          	sd	x12,776(x4) # 0x308
    800014e4:	03ffc0b7          	lui	x1,0x3ffc
    800014e8:	fff0809b          	addiw	x1,x1,-1 # 0x3ffbfff
    800014ec:	00c08463          	beq	x1,x12,0x800014f4
    800014f0:	b35fe06f          	jal	x0,0x80000024
    800014f4:	00100513          	addi	x10,x0,1
    800014f8:	01551513          	slli	x10,x10,0x15
    800014fc:	fff54513          	xori	x10,x10,-1
    80001500:	01000593          	addi	x11,x0,16
    80001504:	00b5563b          	srlw	x12,x10,x11
    80001508:	30c23823          	sd	x12,784(x4) # 0x310
    8000150c:	000100b7          	lui	x1,0x10
    80001510:	fdf0809b          	addiw	x1,x1,-33 # 0xffdf
    80001514:	00c08463          	beq	x1,x12,0x8000151c
    80001518:	b0dfe06f          	jal	x0,0x80000024
    8000151c:	00100513          	addi	x10,x0,1
    80001520:	01651513          	slli	x10,x10,0x16
    80001524:	fff54513          	xori	x10,x10,-1
    80001528:	01500593          	addi	x11,x0,21
    8000152c:	00b5563b          	srlw	x12,x10,x11
    80001530:	30c23c23          	sd	x12,792(x4) # 0x318
    80001534:	7fd00093          	addi	x1,x0,2045
    80001538:	00c08463          	beq	x1,x12,0x80001540
    8000153c:	ae9fe06f          	jal	x0,0x80000024
    80001540:	00100513          	addi	x10,x0,1
    80001544:	01751513          	slli	x10,x10,0x17
    80001548:	fff54513          	xori	x10,x10,-1
    8000154c:	00a00593          	addi	x11,x0,10
    80001550:	00b5563b          	srlw	x12,x10,x11
    80001554:	32c23023          	sd	x12,800(x4) # 0x320
    80001558:	003fe0b7          	lui	x1,0x3fe
    8000155c:	fff0809b          	addiw	x1,x1,-1 # 0x3fdfff
    80001560:	00c08463          	beq	x1,x12,0x80001568
    80001564:	ac1fe06f          	jal	x0,0x80000024
    80001568:	00100513          	addi	x10,x0,1
    8000156c:	01851513          	slli	x10,x10,0x18
    80001570:	fff54513          	xori	x10,x10,-1
    80001574:	00900593          	addi	x11,x0,9
    80001578:	00b5563b          	srlw	x12,x10,x11
    8000157c:	32c23423          	sd	x12,808(x4) # 0x328
    80001580:	007f80b7          	lui	x1,0x7f8
    80001584:	fff0809b          	addiw	x1,x1,-1 # 0x7f7fff
    80001588:	00c08463          	beq	x1,x12,0x80001590
    8000158c:	a99fe06f          	jal	x0,0x80000024
    80001590:	00100513          	addi	x10,x0,1
    80001594:	01951513          	slli	x10,x10,0x19
    80001598:	fff54513          	xori	x10,x10,-1
    8000159c:	00600593          	addi	x11,x0,6
    800015a0:	00b5563b          	srlw	x12,x10,x11
    800015a4:	32c23823          	sd	x12,816(x4) # 0x330
    800015a8:	03f800b7          	lui	x1,0x3f80
    800015ac:	fff0809b          	addiw	x1,x1,-1 # 0x3f7ffff
    800015b0:	00c08463          	beq	x1,x12,0x800015b8
    800015b4:	a71fe06f          	jal	x0,0x80000024
    800015b8:	00100513          	addi	x10,x0,1
    800015bc:	01a51513          	slli	x10,x10,0x1a
    800015c0:	fff54513          	xori	x10,x10,-1
    800015c4:	01700593          	addi	x11,x0,23
    800015c8:	00b5563b          	srlw	x12,x10,x11
    800015cc:	32c23c23          	sd	x12,824(x4) # 0x338
    800015d0:	1f700093          	addi	x1,x0,503
    800015d4:	00c08463          	beq	x1,x12,0x800015dc
    800015d8:	a4dfe06f          	jal	x0,0x80000024
    800015dc:	00100513          	addi	x10,x0,1
    800015e0:	01b51513          	slli	x10,x10,0x1b
    800015e4:	fff54513          	xori	x10,x10,-1
    800015e8:	00200593          	addi	x11,x0,2
    800015ec:	00b5563b          	srlw	x12,x10,x11
    800015f0:	34c23023          	sd	x12,832(x4) # 0x340
    800015f4:	3e0000b7          	lui	x1,0x3e000
    800015f8:	fff0809b          	addiw	x1,x1,-1 # 0x3dffffff
    800015fc:	00c08463          	beq	x1,x12,0x80001604
    80001600:	a25fe06f          	jal	x0,0x80000024
    80001604:	00100513          	addi	x10,x0,1
    80001608:	01c51513          	slli	x10,x10,0x1c
    8000160c:	fff54513          	xori	x10,x10,-1
    80001610:	00c00593          	addi	x11,x0,12
    80001614:	00b5563b          	srlw	x12,x10,x11
    80001618:	34c23423          	sd	x12,840(x4) # 0x348
    8000161c:	000f00b7          	lui	x1,0xf0
    80001620:	fff0809b          	addiw	x1,x1,-1 # 0xeffff
    80001624:	00c08463          	beq	x1,x12,0x8000162c
    80001628:	9fdfe06f          	jal	x0,0x80000024
    8000162c:	00100513          	addi	x10,x0,1
    80001630:	01d51513          	slli	x10,x10,0x1d
    80001634:	fff54513          	xori	x10,x10,-1
    80001638:	00900593          	addi	x11,x0,9
    8000163c:	00b5563b          	srlw	x12,x10,x11
    80001640:	34c23823          	sd	x12,848(x4) # 0x350
    80001644:	007000b7          	lui	x1,0x700
    80001648:	fff0809b          	addiw	x1,x1,-1 # 0x6fffff
    8000164c:	00c08463          	beq	x1,x12,0x80001654
    80001650:	9d5fe06f          	jal	x0,0x80000024
    80001654:	00100513          	addi	x10,x0,1
    80001658:	01e51513          	slli	x10,x10,0x1e
    8000165c:	fff54513          	xori	x10,x10,-1
    80001660:	01f00593          	addi	x11,x0,31
    80001664:	00b5563b          	srlw	x12,x10,x11
    80001668:	34c23c23          	sd	x12,856(x4) # 0x358
    8000166c:	00100093          	addi	x1,x0,1
    80001670:	00c08463          	beq	x1,x12,0x80001678
    80001674:	9b1fe06f          	jal	x0,0x80000024
    80001678:	00100513          	addi	x10,x0,1
    8000167c:	01f51513          	slli	x10,x10,0x1f
    80001680:	fff54513          	xori	x10,x10,-1
    80001684:	00800593          	addi	x11,x0,8
    80001688:	00b5563b          	srlw	x12,x10,x11
    8000168c:	36c23023          	sd	x12,864(x4) # 0x360
    80001690:	008000b7          	lui	x1,0x800
    80001694:	fff0809b          	addiw	x1,x1,-1 # 0x7fffff
    80001698:	00c08463          	beq	x1,x12,0x800016a0
    8000169c:	989fe06f          	jal	x0,0x80000024
    800016a0:	00100513          	addi	x10,x0,1
    800016a4:	02051513          	slli	x10,x10,0x20
    800016a8:	fff54513          	xori	x10,x10,-1
    800016ac:	00400593          	addi	x11,x0,4
    800016b0:	00b5563b          	srlw	x12,x10,x11
    800016b4:	36c23423          	sd	x12,872(x4) # 0x368
    800016b8:	100000b7          	lui	x1,0x10000
    800016bc:	fff0809b          	addiw	x1,x1,-1 # 0xfffffff
    800016c0:	00c08463          	beq	x1,x12,0x800016c8
    800016c4:	961fe06f          	jal	x0,0x80000024
    800016c8:	00100513          	addi	x10,x0,1
    800016cc:	02151513          	slli	x10,x10,0x21
    800016d0:	fff54513          	xori	x10,x10,-1
    800016d4:	01700593          	addi	x11,x0,23
    800016d8:	00b5563b          	srlw	x12,x10,x11
    800016dc:	36c23823          	sd	x12,880(x4) # 0x370
    800016e0:	1ff00093          	addi	x1,x0,511
    800016e4:	00c08463          	beq	x1,x12,0x800016ec
    800016e8:	93dfe06f          	jal	x0,0x80000024
    800016ec:	00100513          	addi	x10,x0,1
    800016f0:	02251513          	slli	x10,x10,0x22
    800016f4:	fff54513          	xori	x10,x10,-1
    800016f8:	00d00593          	addi	x11,x0,13
    800016fc:	00b5563b          	srlw	x12,x10,x11
    80001700:	36c23c23          	sd	x12,888(x4) # 0x378
    80001704:	000800b7          	lui	x1,0x80
    80001708:	fff0809b          	addiw	x1,x1,-1 # 0x7ffff
    8000170c:	00c08463          	beq	x1,x12,0x80001714
    80001710:	915fe06f          	jal	x0,0x80000024
    80001714:	00100513          	addi	x10,x0,1
    80001718:	02351513          	slli	x10,x10,0x23
    8000171c:	fff54513          	xori	x10,x10,-1
    80001720:	01d00593          	addi	x11,x0,29
    80001724:	00b5563b          	srlw	x12,x10,x11
    80001728:	38c23023          	sd	x12,896(x4) # 0x380
    8000172c:	00700093          	addi	x1,x0,7
    80001730:	00c08463          	beq	x1,x12,0x80001738
    80001734:	8f1fe06f          	jal	x0,0x80000024
    80001738:	00100513          	addi	x10,x0,1
    8000173c:	02451513          	slli	x10,x10,0x24
    80001740:	fff54513          	xori	x10,x10,-1
    80001744:	01500593          	addi	x11,x0,21
    80001748:	00b5563b          	srlw	x12,x10,x11
    8000174c:	38c23423          	sd	x12,904(x4) # 0x388
    80001750:	7ff00093          	addi	x1,x0,2047
    80001754:	00c08463          	beq	x1,x12,0x8000175c
    80001758:	8cdfe06f          	jal	x0,0x80000024
    8000175c:	00100513          	addi	x10,x0,1
    80001760:	02551513          	slli	x10,x10,0x25
    80001764:	fff54513          	xori	x10,x10,-1
    80001768:	01200593          	addi	x11,x0,18
    8000176c:	00b5563b          	srlw	x12,x10,x11
    80001770:	38c23823          	sd	x12,912(x4) # 0x390
    80001774:	000040b7          	lui	x1,0x4
    80001778:	fff0809b          	addiw	x1,x1,-1 # 0x3fff
    8000177c:	00c08463          	beq	x1,x12,0x80001784
    80001780:	8a5fe06f          	jal	x0,0x80000024
    80001784:	00100513          	addi	x10,x0,1
    80001788:	02651513          	slli	x10,x10,0x26
    8000178c:	fff54513          	xori	x10,x10,-1
    80001790:	00e00593          	addi	x11,x0,14
    80001794:	00b5563b          	srlw	x12,x10,x11
    80001798:	38c23c23          	sd	x12,920(x4) # 0x398
    8000179c:	000400b7          	lui	x1,0x40
    800017a0:	fff0809b          	addiw	x1,x1,-1 # 0x3ffff
    800017a4:	00c08463          	beq	x1,x12,0x800017ac
    800017a8:	87dfe06f          	jal	x0,0x80000024
    800017ac:	00100513          	addi	x10,x0,1
    800017b0:	02751513          	slli	x10,x10,0x27
    800017b4:	fff54513          	xori	x10,x10,-1
    800017b8:	00500593          	addi	x11,x0,5
    800017bc:	00b5563b          	srlw	x12,x10,x11
    800017c0:	3ac23023          	sd	x12,928(x4) # 0x3a0
    800017c4:	080000b7          	lui	x1,0x8000
    800017c8:	fff0809b          	addiw	x1,x1,-1 # 0x7ffffff
    800017cc:	00c08463          	beq	x1,x12,0x800017d4
    800017d0:	855fe06f          	jal	x0,0x80000024
    800017d4:	00100513          	addi	x10,x0,1
    800017d8:	02851513          	slli	x10,x10,0x28
    800017dc:	fff54513          	xori	x10,x10,-1
    800017e0:	00500593          	addi	x11,x0,5
    800017e4:	00b5563b          	srlw	x12,x10,x11
    800017e8:	3ac23423          	sd	x12,936(x4) # 0x3a8
    800017ec:	080000b7          	lui	x1,0x8000
    800017f0:	fff0809b          	addiw	x1,x1,-1 # 0x7ffffff
    800017f4:	00c08463          	beq	x1,x12,0x800017fc
    800017f8:	82dfe06f          	jal	x0,0x80000024
    800017fc:	00100513          	addi	x10,x0,1
    80001800:	02951513          	slli	x10,x10,0x29
    80001804:	fff54513          	xori	x10,x10,-1
    80001808:	01500593          	addi	x11,x0,21
    8000180c:	00b5563b          	srlw	x12,x10,x11
    80001810:	3ac23823          	sd	x12,944(x4) # 0x3b0
    80001814:	7ff00093          	addi	x1,x0,2047
    80001818:	00c08463          	beq	x1,x12,0x80001820
    8000181c:	809fe06f          	jal	x0,0x80000024
    80001820:	00100513          	addi	x10,x0,1
    80001824:	02a51513          	slli	x10,x10,0x2a
    80001828:	fff54513          	xori	x10,x10,-1
    8000182c:	01500593          	addi	x11,x0,21
    80001830:	00b5563b          	srlw	x12,x10,x11
    80001834:	3ac23c23          	sd	x12,952(x4) # 0x3b8
    80001838:	7ff00093          	addi	x1,x0,2047
    8000183c:	00c08463          	beq	x1,x12,0x80001844
    80001840:	fe4fe06f          	jal	x0,0x80000024
    80001844:	00100513          	addi	x10,x0,1
    80001848:	02b51513          	slli	x10,x10,0x2b
    8000184c:	fff54513          	xori	x10,x10,-1
    80001850:	01000593          	addi	x11,x0,16
    80001854:	00b5563b          	srlw	x12,x10,x11
    80001858:	3cc23023          	sd	x12,960(x4) # 0x3c0
    8000185c:	000100b7          	lui	x1,0x10
    80001860:	fff0809b          	addiw	x1,x1,-1 # 0xffff
    80001864:	00c08463          	beq	x1,x12,0x8000186c
    80001868:	fbcfe06f          	jal	x0,0x80000024
    8000186c:	00100513          	addi	x10,x0,1
    80001870:	02c51513          	slli	x10,x10,0x2c
    80001874:	fff54513          	xori	x10,x10,-1
    80001878:	00d00593          	addi	x11,x0,13
    8000187c:	00b5563b          	srlw	x12,x10,x11
    80001880:	3cc23423          	sd	x12,968(x4) # 0x3c8
    80001884:	000800b7          	lui	x1,0x80
    80001888:	fff0809b          	addiw	x1,x1,-1 # 0x7ffff
    8000188c:	00c08463          	beq	x1,x12,0x80001894
    80001890:	f94fe06f          	jal	x0,0x80000024
    80001894:	00100513          	addi	x10,x0,1
    80001898:	02d51513          	slli	x10,x10,0x2d
    8000189c:	fff54513          	xori	x10,x10,-1
    800018a0:	00100593          	addi	x11,x0,1
    800018a4:	00b5563b          	srlw	x12,x10,x11
    800018a8:	3cc23823          	sd	x12,976(x4) # 0x3d0
    800018ac:	800000b7          	lui	x1,0x80000
    800018b0:	fff0809b          	addiw	x1,x1,-1 # 0x7fffffff
    800018b4:	00c08463          	beq	x1,x12,0x800018bc
    800018b8:	f6cfe06f          	jal	x0,0x80000024
    800018bc:	00100513          	addi	x10,x0,1
    800018c0:	02e51513          	slli	x10,x10,0x2e
    800018c4:	fff54513          	xori	x10,x10,-1
    800018c8:	00500593          	addi	x11,x0,5
    800018cc:	00b5563b          	srlw	x12,x10,x11
    800018d0:	3cc23c23          	sd	x12,984(x4) # 0x3d8
    800018d4:	080000b7          	lui	x1,0x8000
    800018d8:	fff0809b          	addiw	x1,x1,-1 # 0x7ffffff
    800018dc:	00c08463          	beq	x1,x12,0x800018e4
    800018e0:	f44fe06f          	jal	x0,0x80000024
    800018e4:	00100513          	addi	x10,x0,1
    800018e8:	02f51513          	slli	x10,x10,0x2f
    800018ec:	fff54513          	xori	x10,x10,-1
    800018f0:	00200593          	addi	x11,x0,2
    800018f4:	00b5563b          	srlw	x12,x10,x11
    800018f8:	3ec23023          	sd	x12,992(x4) # 0x3e0
    800018fc:	400000b7          	lui	x1,0x40000
    80001900:	fff0809b          	addiw	x1,x1,-1 # 0x3fffffff
    80001904:	00c08463          	beq	x1,x12,0x8000190c
    80001908:	f1cfe06f          	jal	x0,0x80000024
    8000190c:	00100513          	addi	x10,x0,1
    80001910:	03051513          	slli	x10,x10,0x30
    80001914:	fff54513          	xori	x10,x10,-1
    80001918:	00e00593          	addi	x11,x0,14
    8000191c:	00b5563b          	srlw	x12,x10,x11
    80001920:	3ec23423          	sd	x12,1000(x4) # 0x3e8
    80001924:	000400b7          	lui	x1,0x40
    80001928:	fff0809b          	addiw	x1,x1,-1 # 0x3ffff
    8000192c:	00c08463          	beq	x1,x12,0x80001934
    80001930:	ef4fe06f          	jal	x0,0x80000024
    80001934:	00100513          	addi	x10,x0,1
    80001938:	03151513          	slli	x10,x10,0x31
    8000193c:	fff54513          	xori	x10,x10,-1
    80001940:	00100593          	addi	x11,x0,1
    80001944:	00b5563b          	srlw	x12,x10,x11
    80001948:	3ec23823          	sd	x12,1008(x4) # 0x3f0
    8000194c:	800000b7          	lui	x1,0x80000
    80001950:	fff0809b          	addiw	x1,x1,-1 # 0x7fffffff
    80001954:	00c08463          	beq	x1,x12,0x8000195c
    80001958:	eccfe06f          	jal	x0,0x80000024
    8000195c:	00100513          	addi	x10,x0,1
    80001960:	03251513          	slli	x10,x10,0x32
    80001964:	fff54513          	xori	x10,x10,-1
    80001968:	01e00593          	addi	x11,x0,30
    8000196c:	00b5563b          	srlw	x12,x10,x11
    80001970:	3ec23c23          	sd	x12,1016(x4) # 0x3f8
    80001974:	00300093          	addi	x1,x0,3
    80001978:	00c08463          	beq	x1,x12,0x80001980
    8000197c:	ea8fe06f          	jal	x0,0x80000024
    80001980:	00100513          	addi	x10,x0,1
    80001984:	03351513          	slli	x10,x10,0x33
    80001988:	fff54513          	xori	x10,x10,-1
    8000198c:	00c00593          	addi	x11,x0,12
    80001990:	00b5563b          	srlw	x12,x10,x11
    80001994:	40c23023          	sd	x12,1024(x4) # 0x400
    80001998:	001000b7          	lui	x1,0x100
    8000199c:	fff0809b          	addiw	x1,x1,-1 # 0xfffff
    800019a0:	00c08463          	beq	x1,x12,0x800019a8
    800019a4:	e80fe06f          	jal	x0,0x80000024
    800019a8:	00100513          	addi	x10,x0,1
    800019ac:	03551513          	slli	x10,x10,0x35
    800019b0:	fff54513          	xori	x10,x10,-1
    800019b4:	00e00593          	addi	x11,x0,14
    800019b8:	00b5563b          	srlw	x12,x10,x11
    800019bc:	40c23423          	sd	x12,1032(x4) # 0x408
    800019c0:	000400b7          	lui	x1,0x40
    800019c4:	fff0809b          	addiw	x1,x1,-1 # 0x3ffff
    800019c8:	00c08463          	beq	x1,x12,0x800019d0
    800019cc:	e58fe06f          	jal	x0,0x80000024
    800019d0:	00100513          	addi	x10,x0,1
    800019d4:	03651513          	slli	x10,x10,0x36
    800019d8:	fff54513          	xori	x10,x10,-1
    800019dc:	00900593          	addi	x11,x0,9
    800019e0:	00b5563b          	srlw	x12,x10,x11
    800019e4:	40c23823          	sd	x12,1040(x4) # 0x410
    800019e8:	008000b7          	lui	x1,0x800
    800019ec:	fff0809b          	addiw	x1,x1,-1 # 0x7fffff
    800019f0:	00c08463          	beq	x1,x12,0x800019f8
    800019f4:	e30fe06f          	jal	x0,0x80000024
    800019f8:	00000537          	lui	x10,0x0
    800019fc:	fff50513          	addi	x10,x10,-1 # 0xffffffffffffffff
    80001a00:	00b51513          	slli	x10,x10,0xb
    80001a04:	25750513          	addi	x10,x10,599
    80001a08:	00b51513          	slli	x10,x10,0xb
    80001a0c:	6c350513          	addi	x10,x10,1731
    80001a10:	00a51513          	slli	x10,x10,0xa
    80001a14:	0cd50513          	addi	x10,x10,205
    80001a18:	00600593          	addi	x11,x0,6
    80001a1c:	00b5563b          	srlw	x12,x10,x11
    80001a20:	40c23c23          	sd	x12,1048(x4) # 0x418
    80001a24:	012bf0b7          	lui	x1,0x12bf
    80001a28:	c330809b          	addiw	x1,x1,-973 # 0x12bec33
    80001a2c:	00c08463          	beq	x1,x12,0x80001a34
    80001a30:	df4fe06f          	jal	x0,0x80000024
    80001a34:	00100513          	addi	x10,x0,1
    80001a38:	03451513          	slli	x10,x10,0x34
    80001a3c:	fff54513          	xori	x10,x10,-1
    80001a40:	00000593          	addi	x11,x0,0
    80001a44:	00b5563b          	srlw	x12,x10,x11
    80001a48:	42c23023          	sd	x12,1056(x4) # 0x420
    80001a4c:	fff00093          	addi	x1,x0,-1
    80001a50:	00c08463          	beq	x1,x12,0x80001a58
    80001a54:	dd0fe06f          	jal	x0,0x80000024
    80001a58:	00000513          	addi	x10,x0,0
    80001a5c:	01200593          	addi	x11,x0,18
    80001a60:	00b5563b          	srlw	x12,x10,x11
    80001a64:	42c23423          	sd	x12,1064(x4) # 0x428
    80001a68:	00000093          	addi	x1,x0,0
    80001a6c:	00c08463          	beq	x1,x12,0x80001a74
    80001a70:	db4fe06f          	jal	x0,0x80000024
    80001a74:	fff00513          	addi	x10,x0,-1
    80001a78:	00155513          	srli	x10,x10,0x1
    80001a7c:	01b00593          	addi	x11,x0,27
    80001a80:	00b5563b          	srlw	x12,x10,x11
    80001a84:	42c23823          	sd	x12,1072(x4) # 0x430
    80001a88:	01f00093          	addi	x1,x0,31
    80001a8c:	00c08463          	beq	x1,x12,0x80001a94
    80001a90:	d94fe06f          	jal	x0,0x80000024
    80001a94:	08000513          	addi	x10,x0,128
    80001a98:	00d00593          	addi	x11,x0,13
    80001a9c:	00b5563b          	srlw	x12,x10,x11
    80001aa0:	42c23c23          	sd	x12,1080(x4) # 0x438
    80001aa4:	00000093          	addi	x1,x0,0
    80001aa8:	00c08463          	beq	x1,x12,0x80001ab0
    80001aac:	d78fe06f          	jal	x0,0x80000024
    80001ab0:	0380006f          	jal	x0,0x80001ae8
    80001ab4:	1f813483          	ld	x9,504(x2)
    80001ab8:	20013303          	ld	x6,512(x2)
    80001abc:	00930333          	add	x6,x6,x9
    80001ac0:	00000337          	lui	x6,0x0
    80001ac4:	00030313          	addi	x6,x6,0 # 0x0
    80001ac8:	00b31313          	slli	x6,x6,0xb
    80001acc:	5d630313          	addi	x6,x6,1494
    80001ad0:	00b31313          	slli	x6,x6,0xb
    80001ad4:	43630313          	addi	x6,x6,1078
    80001ad8:	00a31313          	slli	x6,x6,0xa
    80001adc:	2d030313          	addi	x6,x6,720
    80001ae0:	fe64be23          	sd	x6,-4(x9)
    80001ae4:	0040006f          	jal	x0,0x80001ae8
    80001ae8:	00000513          	addi	x10,x0,0
    80001aec:	0200006f          	jal	x0,0x80001b0c
	...
    80001b0c:	00050513          	addi	x10,x10,0
    80001b10:	00100073          	ebreak
    80001b14:	0000006f          	jal	x0,0x80001b14
    80001b18:	ff010113          	addi	x2,x2,-16
    80001b1c:	00000517          	auipc	x10,0x0
    80001b20:	01c50513          	addi	x10,x10,28 # 0x80001b38
    80001b24:	00113423          	sd	x1,8(x2)
    80001b28:	ce8fe0ef          	jal	x1,0x80000010
    80001b2c:	00050513          	addi	x10,x10,0
    80001b30:	00100073          	ebreak
    80001b34:	0000006f          	jal	x0,0x80001b34
	...
    80002000:	cafe                	c.swsp	x31,84(x2)
    80002002:	babe                	c.fsdsp	f15,368(x2)
    80002004:	cafe                	c.swsp	x31,84(x2)
    80002006:	babe                	c.fsdsp	f15,368(x2)
    80002008:	cafe                	c.swsp	x31,84(x2)
    8000200a:	babe                	c.fsdsp	f15,368(x2)
    8000200c:	cafe                	c.swsp	x31,84(x2)
    8000200e:	babe                	c.fsdsp	f15,368(x2)
    80002010:	deadbeef          	jal	x29,0x7ffdd5fa
    80002014:	deadbeef          	jal	x29,0x7ffdd5fe
	...
    80003000:	b281                	c.j	0x80002940
    80003002:	e7d4                	c.sd	x13,136(x15)
    80003004:	a309                	c.j	0x80003506
    80003006:	6f5c                	c.ld	x15,152(x14)
    80003008:	deadbeef          	jal	x29,0x7ffde5f2
    8000300c:	deadbeef          	jal	x29,0x7ffde5f6
    80003010:	deadbeef          	jal	x29,0x7ffde5fa
    80003014:	deadbeef          	jal	x29,0x7ffde5fe
    80003018:	deadbeef          	jal	x29,0x7ffde602
    8000301c:	deadbeef          	jal	x29,0x7ffde606
    80003020:	deadbeef          	jal	x29,0x7ffde60a
    80003024:	deadbeef          	jal	x29,0x7ffde60e
    80003028:	deadbeef          	jal	x29,0x7ffde612
    8000302c:	deadbeef          	jal	x29,0x7ffde616
    80003030:	deadbeef          	jal	x29,0x7ffde61a
    80003034:	deadbeef          	jal	x29,0x7ffde61e
    80003038:	deadbeef          	jal	x29,0x7ffde622
    8000303c:	deadbeef          	jal	x29,0x7ffde626
    80003040:	deadbeef          	jal	x29,0x7ffde62a
    80003044:	deadbeef          	jal	x29,0x7ffde62e
    80003048:	deadbeef          	jal	x29,0x7ffde632
    8000304c:	deadbeef          	jal	x29,0x7ffde636
    80003050:	deadbeef          	jal	x29,0x7ffde63a
    80003054:	deadbeef          	jal	x29,0x7ffde63e
    80003058:	deadbeef          	jal	x29,0x7ffde642
    8000305c:	deadbeef          	jal	x29,0x7ffde646
    80003060:	deadbeef          	jal	x29,0x7ffde64a
    80003064:	deadbeef          	jal	x29,0x7ffde64e
    80003068:	deadbeef          	jal	x29,0x7ffde652
    8000306c:	deadbeef          	jal	x29,0x7ffde656
    80003070:	deadbeef          	jal	x29,0x7ffde65a
    80003074:	deadbeef          	jal	x29,0x7ffde65e
    80003078:	deadbeef          	jal	x29,0x7ffde662
    8000307c:	deadbeef          	jal	x29,0x7ffde666
    80003080:	deadbeef          	jal	x29,0x7ffde66a
    80003084:	deadbeef          	jal	x29,0x7ffde66e
    80003088:	deadbeef          	jal	x29,0x7ffde672
    8000308c:	deadbeef          	jal	x29,0x7ffde676
    80003090:	deadbeef          	jal	x29,0x7ffde67a
    80003094:	deadbeef          	jal	x29,0x7ffde67e
    80003098:	deadbeef          	jal	x29,0x7ffde682
    8000309c:	deadbeef          	jal	x29,0x7ffde686
    800030a0:	deadbeef          	jal	x29,0x7ffde68a
    800030a4:	deadbeef          	jal	x29,0x7ffde68e
    800030a8:	deadbeef          	jal	x29,0x7ffde692
    800030ac:	deadbeef          	jal	x29,0x7ffde696
    800030b0:	deadbeef          	jal	x29,0x7ffde69a
    800030b4:	deadbeef          	jal	x29,0x7ffde69e
    800030b8:	deadbeef          	jal	x29,0x7ffde6a2
    800030bc:	deadbeef          	jal	x29,0x7ffde6a6
    800030c0:	deadbeef          	jal	x29,0x7ffde6aa
    800030c4:	deadbeef          	jal	x29,0x7ffde6ae
    800030c8:	deadbeef          	jal	x29,0x7ffde6b2
    800030cc:	deadbeef          	jal	x29,0x7ffde6b6
    800030d0:	deadbeef          	jal	x29,0x7ffde6ba
    800030d4:	deadbeef          	jal	x29,0x7ffde6be
    800030d8:	deadbeef          	jal	x29,0x7ffde6c2
    800030dc:	deadbeef          	jal	x29,0x7ffde6c6
    800030e0:	deadbeef          	jal	x29,0x7ffde6ca
    800030e4:	deadbeef          	jal	x29,0x7ffde6ce
    800030e8:	deadbeef          	jal	x29,0x7ffde6d2
    800030ec:	deadbeef          	jal	x29,0x7ffde6d6
    800030f0:	deadbeef          	jal	x29,0x7ffde6da
    800030f4:	deadbeef          	jal	x29,0x7ffde6de
    800030f8:	deadbeef          	jal	x29,0x7ffde6e2
    800030fc:	deadbeef          	jal	x29,0x7ffde6e6
    80003100:	deadbeef          	jal	x29,0x7ffde6ea
    80003104:	deadbeef          	jal	x29,0x7ffde6ee
    80003108:	deadbeef          	jal	x29,0x7ffde6f2
    8000310c:	deadbeef          	jal	x29,0x7ffde6f6
    80003110:	deadbeef          	jal	x29,0x7ffde6fa
    80003114:	deadbeef          	jal	x29,0x7ffde6fe
    80003118:	deadbeef          	jal	x29,0x7ffde702
    8000311c:	deadbeef          	jal	x29,0x7ffde706
    80003120:	deadbeef          	jal	x29,0x7ffde70a
    80003124:	deadbeef          	jal	x29,0x7ffde70e
    80003128:	deadbeef          	jal	x29,0x7ffde712
    8000312c:	deadbeef          	jal	x29,0x7ffde716
    80003130:	deadbeef          	jal	x29,0x7ffde71a
    80003134:	deadbeef          	jal	x29,0x7ffde71e
    80003138:	deadbeef          	jal	x29,0x7ffde722
    8000313c:	deadbeef          	jal	x29,0x7ffde726
    80003140:	deadbeef          	jal	x29,0x7ffde72a
    80003144:	deadbeef          	jal	x29,0x7ffde72e
    80003148:	deadbeef          	jal	x29,0x7ffde732
    8000314c:	deadbeef          	jal	x29,0x7ffde736
    80003150:	deadbeef          	jal	x29,0x7ffde73a
    80003154:	deadbeef          	jal	x29,0x7ffde73e
    80003158:	deadbeef          	jal	x29,0x7ffde742
    8000315c:	deadbeef          	jal	x29,0x7ffde746
    80003160:	deadbeef          	jal	x29,0x7ffde74a
    80003164:	deadbeef          	jal	x29,0x7ffde74e
    80003168:	deadbeef          	jal	x29,0x7ffde752
    8000316c:	deadbeef          	jal	x29,0x7ffde756
    80003170:	deadbeef          	jal	x29,0x7ffde75a
    80003174:	deadbeef          	jal	x29,0x7ffde75e
    80003178:	deadbeef          	jal	x29,0x7ffde762
    8000317c:	deadbeef          	jal	x29,0x7ffde766
    80003180:	deadbeef          	jal	x29,0x7ffde76a
    80003184:	deadbeef          	jal	x29,0x7ffde76e
    80003188:	deadbeef          	jal	x29,0x7ffde772
    8000318c:	deadbeef          	jal	x29,0x7ffde776
    80003190:	deadbeef          	jal	x29,0x7ffde77a
    80003194:	deadbeef          	jal	x29,0x7ffde77e
    80003198:	deadbeef          	jal	x29,0x7ffde782
    8000319c:	deadbeef          	jal	x29,0x7ffde786
    800031a0:	deadbeef          	jal	x29,0x7ffde78a
    800031a4:	deadbeef          	jal	x29,0x7ffde78e
    800031a8:	deadbeef          	jal	x29,0x7ffde792
    800031ac:	deadbeef          	jal	x29,0x7ffde796
    800031b0:	deadbeef          	jal	x29,0x7ffde79a
    800031b4:	deadbeef          	jal	x29,0x7ffde79e
    800031b8:	deadbeef          	jal	x29,0x7ffde7a2
    800031bc:	deadbeef          	jal	x29,0x7ffde7a6
    800031c0:	deadbeef          	jal	x29,0x7ffde7aa
    800031c4:	deadbeef          	jal	x29,0x7ffde7ae
    800031c8:	deadbeef          	jal	x29,0x7ffde7b2
    800031cc:	deadbeef          	jal	x29,0x7ffde7b6
    800031d0:	deadbeef          	jal	x29,0x7ffde7ba
    800031d4:	deadbeef          	jal	x29,0x7ffde7be
    800031d8:	deadbeef          	jal	x29,0x7ffde7c2
    800031dc:	deadbeef          	jal	x29,0x7ffde7c6
    800031e0:	deadbeef          	jal	x29,0x7ffde7ca
    800031e4:	deadbeef          	jal	x29,0x7ffde7ce
    800031e8:	deadbeef          	jal	x29,0x7ffde7d2
    800031ec:	deadbeef          	jal	x29,0x7ffde7d6
    800031f0:	deadbeef          	jal	x29,0x7ffde7da
    800031f4:	deadbeef          	jal	x29,0x7ffde7de
    800031f8:	deadbeef          	jal	x29,0x7ffde7e2
    800031fc:	deadbeef          	jal	x29,0x7ffde7e6
    80003200:	deadbeef          	jal	x29,0x7ffde7ea
    80003204:	deadbeef          	jal	x29,0x7ffde7ee
    80003208:	deadbeef          	jal	x29,0x7ffde7f2
    8000320c:	deadbeef          	jal	x29,0x7ffde7f6
    80003210:	deadbeef          	jal	x29,0x7ffde7fa
    80003214:	deadbeef          	jal	x29,0x7ffde7fe
    80003218:	deadbeef          	jal	x29,0x7ffde802
    8000321c:	deadbeef          	jal	x29,0x7ffde806
    80003220:	deadbeef          	jal	x29,0x7ffde80a
    80003224:	deadbeef          	jal	x29,0x7ffde80e
    80003228:	deadbeef          	jal	x29,0x7ffde812
    8000322c:	deadbeef          	jal	x29,0x7ffde816
    80003230:	deadbeef          	jal	x29,0x7ffde81a
    80003234:	deadbeef          	jal	x29,0x7ffde81e
    80003238:	deadbeef          	jal	x29,0x7ffde822
    8000323c:	deadbeef          	jal	x29,0x7ffde826
    80003240:	deadbeef          	jal	x29,0x7ffde82a
    80003244:	deadbeef          	jal	x29,0x7ffde82e
    80003248:	deadbeef          	jal	x29,0x7ffde832
    8000324c:	deadbeef          	jal	x29,0x7ffde836
    80003250:	deadbeef          	jal	x29,0x7ffde83a
    80003254:	deadbeef          	jal	x29,0x7ffde83e
    80003258:	deadbeef          	jal	x29,0x7ffde842
    8000325c:	deadbeef          	jal	x29,0x7ffde846
    80003260:	deadbeef          	jal	x29,0x7ffde84a
    80003264:	deadbeef          	jal	x29,0x7ffde84e
    80003268:	deadbeef          	jal	x29,0x7ffde852
    8000326c:	deadbeef          	jal	x29,0x7ffde856
    80003270:	deadbeef          	jal	x29,0x7ffde85a
    80003274:	deadbeef          	jal	x29,0x7ffde85e
    80003278:	deadbeef          	jal	x29,0x7ffde862
    8000327c:	deadbeef          	jal	x29,0x7ffde866
    80003280:	deadbeef          	jal	x29,0x7ffde86a
    80003284:	deadbeef          	jal	x29,0x7ffde86e
    80003288:	deadbeef          	jal	x29,0x7ffde872
    8000328c:	deadbeef          	jal	x29,0x7ffde876
    80003290:	deadbeef          	jal	x29,0x7ffde87a
    80003294:	deadbeef          	jal	x29,0x7ffde87e
    80003298:	deadbeef          	jal	x29,0x7ffde882
    8000329c:	deadbeef          	jal	x29,0x7ffde886
    800032a0:	deadbeef          	jal	x29,0x7ffde88a
    800032a4:	deadbeef          	jal	x29,0x7ffde88e
    800032a8:	deadbeef          	jal	x29,0x7ffde892
    800032ac:	deadbeef          	jal	x29,0x7ffde896
    800032b0:	deadbeef          	jal	x29,0x7ffde89a
    800032b4:	deadbeef          	jal	x29,0x7ffde89e
    800032b8:	deadbeef          	jal	x29,0x7ffde8a2
    800032bc:	deadbeef          	jal	x29,0x7ffde8a6
    800032c0:	deadbeef          	jal	x29,0x7ffde8aa
    800032c4:	deadbeef          	jal	x29,0x7ffde8ae
    800032c8:	deadbeef          	jal	x29,0x7ffde8b2
    800032cc:	deadbeef          	jal	x29,0x7ffde8b6
    800032d0:	deadbeef          	jal	x29,0x7ffde8ba
    800032d4:	deadbeef          	jal	x29,0x7ffde8be
    800032d8:	deadbeef          	jal	x29,0x7ffde8c2
    800032dc:	deadbeef          	jal	x29,0x7ffde8c6
    800032e0:	deadbeef          	jal	x29,0x7ffde8ca
    800032e4:	deadbeef          	jal	x29,0x7ffde8ce
    800032e8:	deadbeef          	jal	x29,0x7ffde8d2
    800032ec:	deadbeef          	jal	x29,0x7ffde8d6
    800032f0:	deadbeef          	jal	x29,0x7ffde8da
    800032f4:	deadbeef          	jal	x29,0x7ffde8de
    800032f8:	deadbeef          	jal	x29,0x7ffde8e2
    800032fc:	deadbeef          	jal	x29,0x7ffde8e6
    80003300:	deadbeef          	jal	x29,0x7ffde8ea
    80003304:	deadbeef          	jal	x29,0x7ffde8ee
    80003308:	deadbeef          	jal	x29,0x7ffde8f2
    8000330c:	deadbeef          	jal	x29,0x7ffde8f6
    80003310:	deadbeef          	jal	x29,0x7ffde8fa
    80003314:	deadbeef          	jal	x29,0x7ffde8fe
    80003318:	deadbeef          	jal	x29,0x7ffde902
    8000331c:	deadbeef          	jal	x29,0x7ffde906
    80003320:	deadbeef          	jal	x29,0x7ffde90a
    80003324:	deadbeef          	jal	x29,0x7ffde90e
    80003328:	deadbeef          	jal	x29,0x7ffde912
    8000332c:	deadbeef          	jal	x29,0x7ffde916
    80003330:	deadbeef          	jal	x29,0x7ffde91a
    80003334:	deadbeef          	jal	x29,0x7ffde91e
    80003338:	deadbeef          	jal	x29,0x7ffde922
    8000333c:	deadbeef          	jal	x29,0x7ffde926
    80003340:	deadbeef          	jal	x29,0x7ffde92a
    80003344:	deadbeef          	jal	x29,0x7ffde92e
    80003348:	deadbeef          	jal	x29,0x7ffde932
    8000334c:	deadbeef          	jal	x29,0x7ffde936
    80003350:	deadbeef          	jal	x29,0x7ffde93a
    80003354:	deadbeef          	jal	x29,0x7ffde93e
    80003358:	deadbeef          	jal	x29,0x7ffde942
    8000335c:	deadbeef          	jal	x29,0x7ffde946
    80003360:	deadbeef          	jal	x29,0x7ffde94a
    80003364:	deadbeef          	jal	x29,0x7ffde94e
    80003368:	deadbeef          	jal	x29,0x7ffde952
    8000336c:	deadbeef          	jal	x29,0x7ffde956
    80003370:	deadbeef          	jal	x29,0x7ffde95a
    80003374:	deadbeef          	jal	x29,0x7ffde95e
    80003378:	deadbeef          	jal	x29,0x7ffde962
    8000337c:	deadbeef          	jal	x29,0x7ffde966
    80003380:	deadbeef          	jal	x29,0x7ffde96a
    80003384:	deadbeef          	jal	x29,0x7ffde96e
    80003388:	deadbeef          	jal	x29,0x7ffde972
    8000338c:	deadbeef          	jal	x29,0x7ffde976
    80003390:	deadbeef          	jal	x29,0x7ffde97a
    80003394:	deadbeef          	jal	x29,0x7ffde97e
    80003398:	deadbeef          	jal	x29,0x7ffde982
    8000339c:	deadbeef          	jal	x29,0x7ffde986
    800033a0:	deadbeef          	jal	x29,0x7ffde98a
    800033a4:	deadbeef          	jal	x29,0x7ffde98e
    800033a8:	deadbeef          	jal	x29,0x7ffde992
    800033ac:	deadbeef          	jal	x29,0x7ffde996
    800033b0:	deadbeef          	jal	x29,0x7ffde99a
    800033b4:	deadbeef          	jal	x29,0x7ffde99e
    800033b8:	deadbeef          	jal	x29,0x7ffde9a2
    800033bc:	deadbeef          	jal	x29,0x7ffde9a6
    800033c0:	deadbeef          	jal	x29,0x7ffde9aa
    800033c4:	deadbeef          	jal	x29,0x7ffde9ae
    800033c8:	deadbeef          	jal	x29,0x7ffde9b2
    800033cc:	deadbeef          	jal	x29,0x7ffde9b6
    800033d0:	deadbeef          	jal	x29,0x7ffde9ba
    800033d4:	deadbeef          	jal	x29,0x7ffde9be
    800033d8:	deadbeef          	jal	x29,0x7ffde9c2
    800033dc:	deadbeef          	jal	x29,0x7ffde9c6
    800033e0:	deadbeef          	jal	x29,0x7ffde9ca
    800033e4:	deadbeef          	jal	x29,0x7ffde9ce
    800033e8:	deadbeef          	jal	x29,0x7ffde9d2
    800033ec:	deadbeef          	jal	x29,0x7ffde9d6
    800033f0:	deadbeef          	jal	x29,0x7ffde9da
    800033f4:	deadbeef          	jal	x29,0x7ffde9de
    800033f8:	deadbeef          	jal	x29,0x7ffde9e2
    800033fc:	deadbeef          	jal	x29,0x7ffde9e6
    80003400:	deadbeef          	jal	x29,0x7ffde9ea
    80003404:	deadbeef          	jal	x29,0x7ffde9ee
    80003408:	deadbeef          	jal	x29,0x7ffde9f2
    8000340c:	deadbeef          	jal	x29,0x7ffde9f6
    80003410:	deadbeef          	jal	x29,0x7ffde9fa
    80003414:	deadbeef          	jal	x29,0x7ffde9fe
    80003418:	deadbeef          	jal	x29,0x7ffdea02
    8000341c:	deadbeef          	jal	x29,0x7ffdea06
    80003420:	deadbeef          	jal	x29,0x7ffdea0a
    80003424:	deadbeef          	jal	x29,0x7ffdea0e
    80003428:	deadbeef          	jal	x29,0x7ffdea12
    8000342c:	deadbeef          	jal	x29,0x7ffdea16
    80003430:	deadbeef          	jal	x29,0x7ffdea1a
    80003434:	deadbeef          	jal	x29,0x7ffdea1e
    80003438:	deadbeef          	jal	x29,0x7ffdea22
    8000343c:	deadbeef          	jal	x29,0x7ffdea26
    80003440:	deadbeef          	jal	x29,0x7ffdea2a
    80003444:	deadbeef          	jal	x29,0x7ffdea2e
    80003448:	deadbeef          	jal	x29,0x7ffdea32
    8000344c:	deadbeef          	jal	x29,0x7ffdea36
    80003450:	deadbeef          	jal	x29,0x7ffdea3a
    80003454:	deadbeef          	jal	x29,0x7ffdea3e
    80003458:	deadbeef          	jal	x29,0x7ffdea42
    8000345c:	deadbeef          	jal	x29,0x7ffdea46
    80003460:	deadbeef          	jal	x29,0x7ffdea4a
    80003464:	deadbeef          	jal	x29,0x7ffdea4e
    80003468:	deadbeef          	jal	x29,0x7ffdea52
    8000346c:	deadbeef          	jal	x29,0x7ffdea56
    80003470:	deadbeef          	jal	x29,0x7ffdea5a
    80003474:	deadbeef          	jal	x29,0x7ffdea5e
    80003478:	deadbeef          	jal	x29,0x7ffdea62
    8000347c:	deadbeef          	jal	x29,0x7ffdea66
    80003480:	deadbeef          	jal	x29,0x7ffdea6a
    80003484:	deadbeef          	jal	x29,0x7ffdea6e
    80003488:	deadbeef          	jal	x29,0x7ffdea72
    8000348c:	deadbeef          	jal	x29,0x7ffdea76
    80003490:	deadbeef          	jal	x29,0x7ffdea7a
    80003494:	deadbeef          	jal	x29,0x7ffdea7e
    80003498:	deadbeef          	jal	x29,0x7ffdea82
    8000349c:	deadbeef          	jal	x29,0x7ffdea86
    800034a0:	deadbeef          	jal	x29,0x7ffdea8a
    800034a4:	deadbeef          	jal	x29,0x7ffdea8e
    800034a8:	deadbeef          	jal	x29,0x7ffdea92
    800034ac:	deadbeef          	jal	x29,0x7ffdea96
    800034b0:	deadbeef          	jal	x29,0x7ffdea9a
    800034b4:	deadbeef          	jal	x29,0x7ffdea9e
    800034b8:	deadbeef          	jal	x29,0x7ffdeaa2
    800034bc:	deadbeef          	jal	x29,0x7ffdeaa6
    800034c0:	deadbeef          	jal	x29,0x7ffdeaaa
    800034c4:	deadbeef          	jal	x29,0x7ffdeaae
    800034c8:	deadbeef          	jal	x29,0x7ffdeab2
    800034cc:	deadbeef          	jal	x29,0x7ffdeab6
    800034d0:	deadbeef          	jal	x29,0x7ffdeaba
    800034d4:	deadbeef          	jal	x29,0x7ffdeabe
    800034d8:	b281                	c.j	0x80002e18
    800034da:	e7d4                	c.sd	x13,136(x15)
    800034dc:	a309                	c.j	0x800039de
    800034de:	6f5c                	c.ld	x15,152(x14)
