
elf/riscv-arch-test/srlw-riscv64-nemu.elf:     file format binary

Contents of section .data:
 1000 13040000 17c10000 1301c1ff ef10d030  ...............0
 1010 ef000003 13051000 ef10502f 13050000  ..........P/....
 1020 67800000 13051000 ef10502e 67800000  g.........P.g...
 1030 00000000 00000000 00000000 00000000  ................
 1040 b7c0edfe 9380d0ea 9390b000 9380707f  ..............p.
 1050 9390b000 9380f036 9390a000 9380d02a  .......6.......*
 1060 37e176ff 130161f5 1311b100 1301b17f  7.v...a.........
 1070 1311b100 1301715b 1311a100 13016135  ......q[......a5
 1080 b771bb7f 9381b1fa 9391b100 9381d13f  .q.............?
 1090 9391b100 9381b16d 9391a100 9381b13a  .......m.......:
 10a0 37b2ddbf 1302527d 1312b200 1302e25f  7.....R}......._
 10b0 1312b200 1302d276 1312a200 1302523d  .......v......R=
 10c0 b7e2eedf 9382a2be 9392b200 9382f26f  ...............o
 10d0 9392b200 9382623b 9392a200 9382a23e  ......b;.......>
 10e0 3773f76f 130353df 1313b300 1303f337  7s.o..S........7
 10f0 1313b300 1303b35d 1313a300 1303531f  .......]......S.
 1100 b7b3fbb7 9383a36f 9393b300 9383f35b  .......o.......[
 1110 9393b300 9383d36e 9393a300 9383a32f  .......n......./
 1120 37e4fd5b 1304d4b7 1314b400 1304f42d  7..[...........-
 1130 1314b400 13046477 1314a400 1304d437  ......dw.......7
 1140 b7f4fead 9384e4db 9394b400 9384f456  ...............V
 1150 9394b400 9384b47b 9394a400 9384e41b  .......{........
 1160 3775ff56 1305f56d 1315b500 1305752b  7u.V...m......u+
 1170 1315b500 1305d57d 1315a500 1305f52d  .......}.......-
 1180 b7c57fab 9385f5b6 9395b500 9385b555  ...............U
 1190 9395b500 9385e57e 9395a500 9385f536  .......~.......6
 11a0 37e6bfd5 130676db 1316b600 1306d66a  7.....v........j
 11b0 1316b600 1306767f 1316a600 1306761b  ......v.......v.
 11c0 b7f6dfea 9386b6ed 9396b600 93866675  ..............fu
 11d0 9396b600 9386b67f 9396a600 9386b62d  ...............-
 11e0 37f76ff5 1307d776 1317b700 1307b77a  7.o....v.......z
 11f0 1317b700 1307d73f 1317a700 1307d736  .......?.......6
 1200 b707b8fa 938767bb 9397b700 9387577d  ......g.......W}
 1210 9397b700 9387e75f 9397a700 9387673b  ......._......g;
 1220 37085c7d 1308b8dd 1318b800 1308a83e  7.\}...........>
 1230 1318b800 1308f86f 1318a800 1308b81d  .......o........
 1240 b708aebe 9388d8ee 9398b800 9388585f  ..............X_
 1250 9398b800 9388f837 9398a800 9388d82e  .......7........
 1260 370957df 130969f7 1319b900 1309a96f  7.W...i........o
 1270 1319b900 1309f95b 1319a900 13096937  .......[......i7
 1280 b789ab6f 9389b9fb 9399b900 9389d937  ...o...........7
 1290 9399b900 9389f92d 9399a900 9389b93b  .......-.......;
 12a0 37cad5b7 130adafd 131aba00 130aea5b  7..............[
 12b0 131aba00 130afa56 131aaa00 130ada3d  .......V.......=
 12c0 b7eaeadb 938aeafe 939aba00 938afa6d  ...............m
 12d0 939aba00 938a7a2b 939aaa00 938aea3e  ......z+.......>
 12e0 377bf56d 130b7bff 131bbb00 130bfb36  7{.m..{........6
 12f0 131bbb00 130bbb55 131bab00 130b7b3f  .......U......{?
 1300 b7bbfab6 938bbb7f 939bbb00 938b7b5b  ..............{[
 1310 939bbb00 938bdb6a 939bab00 938bbb3f  .......j.......?
 1320 376c7ddb 130cdcbf 131cbc00 130cbc6d  7l}............m
 1330 131cbc00 130c6c75 131cac00 130cdc3f  ......lu.......?
 1340 b7bcbeed 938cecdf 939cbc00 938cdc76  ...............v
 1350 939cbc00 938cbc7a 939cac00 938cec1f  .......z........
 1360 375ddf76 130dfd6f 131dbd00 130d6d3b  7].v...o......m;
 1370 131dbd00 130d5d7d 131dad00 130dfd2f  ......]}......./
 1380 b7bd6fbb 938dfdb7 939dbd00 938dbd5d  ..o............]
 1390 939dbd00 938dad3e 939dad00 938dfd37  .......>.......7
 13a0 37deb7dd 130efe5b 131ebe00 130ede6e  7......[.......n
 13b0 131ebe00 130e5e5f 131eae00 130efe1b  ......^_........
 13c0 b7fedbee 938efead 939ebe00 938e6e77  ..............nw
 13d0 939ebe00 938eae6f 939eae00 938efe2d  .......o.......-
 13e0 37ff6df7 130fff56 131fbf00 130fbf7b  7.m....V.......{
 13f0 131fbf00 130fdf37 131faf00 130fff16  .......7........
 1400 b70fb7fb 938f7fab 939fbf00 938fdf7d  ...............}
 1410 939fbf00 938fef5b 939faf00 938f7f2b  .......[.......+
 1420 17340000 130484be 13000000 13000000  .4..............
 1430 13000000 13000000 13000000 13000000  ................
 1440 b7080000 9388f8ff 9398b800 93887825  ..............x%
 1450 9398b800 9388386c 9398a800 9388d80c  ......8l........
 1460 b7080000 9388f8ff 9398b800 93887825  ..............x%
 1470 9398b800 9388386c 9398a800 9388d80c  ......8l........
 1480 3bdc1801 23308401 37550200 1b05857d  ;...#0..7U.....}
 1490 63048501 6ff01fb9 93011000 9391a103  c...o...........
 14a0 13062000 3bd6c100 2334c400 13050000  .. .;...#4......
 14b0 6304c500 6ff01fb7 93031000 93934303  c...o.........C.
 14c0 93c3f3ff 93031000 93934303 93c3f3ff  ..........C.....
 14d0 bbd37300 23387400 13051000 63047500  ..s.#8t.....c.u.
 14e0 6ff05fb4 93041000 9394f402 93070000  o._.............
 14f0 3bdbf400 233c6401 13050000 63046501  ;...#<d.....c.e.
 1500 6ff05fb2 93057000 13027000 bbd54500  o._...p...p...E.
 1510 2330b402 13050000 6304b500 6ff09fb0  #0......c...o...
 1520 1302f0ff 1312f203 130cf000 bb508201  .............P..
 1530 23341402 13050000 63041500 6ff09fae  #4......c...o...
 1540 13010000 13092001 3b502101 23380402  ...... .;P!.#8..
 1550 13050000 63040500 6ff0dfac 930af0ff  ....c...o.......
 1560 93da1a00 13000000 bbd20a00 233c5402  ............#<T.
 1570 1305f0ff 63045500 6ff0dfaa 93071000  ....c.U.o.......
 1580 93042000 bbda9700 23305405 13050000  .. .....#0T.....
 1590 63045501 6ff01fa9 93062000 130f3001  c.U.o..... ...0.
 15a0 3bd3e601 23346404 13050000 63046500  ;...#4d.....c.e.
 15b0 6ff05fa7 130b4000 130ae000 bb5b4b01  o._...@......[K.
 15c0 23387405 13050000 63047501 6ff09fa5  #8t.....c.u.o...
 15d0 13068000 130d2001 3b5ea601 233cc405  ...... .;^..#<..
 15e0 13050000 6304c501 6ff0dfa3 130c0001  ....c...o.......
 15f0 930f2001 3b51fc01 23302406 13050000  .. .;Q..#0$.....
 1600 63042500 6ff01fa2 13080002 930ce001  c.%.o...........
 1610 bb5d9801 2334b407 13050000 6304b501  .]..#4......c...
 1620 6ff05fa0 930f0004 93008000 bbd71f00  o._.............
 1630 2338f406 13050000 6304f500 6ff09f9e  #8......c...o...
 1640 13000000 9302d000 bb5c5000 233c9407  .........\P.#<..
 1650 13050000 63049501 6ff0df9c 930d0010  ....c...o.......
 1660 1307e001 3bdfed00 2330e409 13050000  ....;...#0......
 1670 6304e501 6ff01f9b 13030020 9309b001  c...o...... ....
 1680 3b523301 23344408 93030000 63844300  ;R3.#4D.....c.C.
 1690 6ff05f99 13000000 13000000 13000000  o._.............
 16a0 17320000 1302829f 13000000 13000000  .2..............
 16b0 13000000 13000000 13000000 13000000  ................
 16c0 130a0040 130e5000 bb51ca01 23303200  ...@..P..Q..#02.
 16d0 93030002 63843300 6ff0df94 13091000  ....c.3.o.......
 16e0 1319b900 93053000 bb5fb900 2334f201  ......0.._..#4..
 16f0 93030010 6384f301 6ff0df92 130f1000  ....c...o.......
 1700 131fcf00 1301e000 3b592f00 23382201  ........;Y/.#8".
 1710 93030000 63842301 6ff0df90 93091000  ....c.#.o.......
 1720 9399d900 930a9000 3bdd5901 233ca201  ........;.Y.#<..
 1730 93030001 6384a301 6ff0df8e 93001000  ....c...o.......
 1740 9390e000 930e5000 3bdad001 23304203  ......P.;...#0B.
 1750 93030020 63844301 6ff0df8c 930c1000  ... c.C.o.......
 1760 939cfc00 130b3001 bbd46c01 23349202  ......0...l.#4..
 1770 93030000 63849300 6ff0df8a 93021000  ....c...o.......
 1780 93920201 1303e000 bbd66200 2338d202  ..........b.#8..
 1790 93034000 6384d300 6ff0df88 130d1000  ..@.c...o.......
 17a0 131d1d01 93012000 bb583d00 233c1203  ...... ..X=.#<..
 17b0 b7830000 63841301 6ff0df86 13051000  ....c...o.......
 17c0 13152501 93063000 3b54d500 23308204  ..%...0.;T..#0..
 17d0 b7830000 63848300 6ff0df84 930b1000  ....c...o.......
 17e0 939b3b01 1305f001 3bd8ab00 23340205  ..;.....;...#4..
 17f0 93030000 63840301 6ff0df82 130e1000  ....c...o.......
 1800 131e4e01 13045000 3b558e00 2338a204  ..N...P.;U..#8..
 1810 b7830000 6384a300 6ff0df80 13041000  ....c...o.......
 1820 13145401 930b2001 3b577401 233ce204  ..T... .;Wt.#<..
 1830 93038000 6384e300 6ff0cffe 930e1000  ....c...o.......
 1840 939e6e01 13083000 bbd90e01 23303207  ..n...0.....#02.
 1850 b7030800 63843301 6ff0cffc 13071000  ....c.3.o.......
 1860 13177701 930dd000 bb5eb701 2334d207  ..w......^..#4..
 1870 93030040 6384d301 6ff0cffa 13051000  ...@c...o.......
 1880 13158501 9305e001 3b56b500 2338c206  ........;V..#8..
 1890 93030000 6384c300 6ff0cff8 13051000  ....c...o.......
 18a0 13159501 9305c000 3b56b500 233cc206  ........;V..#<..
 18b0 b7200000 6384c000 6ff0cff6 13051000  . ..c...o.......
 18c0 1315a501 9305b000 3b56b500 2330c208  ........;V..#0..
 18d0 b7800000 6384c000 6ff0cff4 13051000  ....c...o.......
 18e0 1315b501 93056000 3b56b500 2334c208  ......`.;V..#4..
 18f0 b7002000 6384c000 6ff0cff2 13051000  .. .c...o.......
 1900 1315c501 93054000 3b56b500 2338c208  ......@.;V..#8..
 1910 b7000001 6384c000 6ff0cff0 13051000  ....c...o.......
 1920 1315d501 93053000 3b56b500 233cc208  ......0.;V..#<..
 1930 b7000004 6384c000 6ff0cfee 13051000  ....c...o.......
 1940 1315e501 93052000 3b56b500 2330c20a  ...... .;V..#0..
 1950 b7000010 6384c000 6ff0cfec 13051000  ....c...o.......
 1960 1315f501 9305f000 3b56b500 2334c20a  ........;V..#4..
 1970 b7000100 6384c000 6ff0cfea 13051000  ....c...o.......
 1980 13150502 93051000 3b56b500 2338c20a  ........;V..#8..
 1990 93000000 6384c000 6ff0cfe8 13051000  ....c...o.......
 19a0 13151502 93052001 3b56b500 233cc20a  ...... .;V..#<..
 19b0 93000000 6384c000 6ff0cfe6 13051000  ....c...o.......
 19c0 13152502 9305b000 3b56b500 2330c20c  ..%.....;V..#0..
 19d0 93000000 6384c000 6ff0cfe4 13051000  ....c...o.......
 19e0 13153502 9305c000 3b56b500 2334c20c  ..5.....;V..#4..
 19f0 93000000 6384c000 6ff0cfe2 13051000  ....c...o.......
 1a00 13154502 93055000 3b56b500 2338c20c  ..E...P.;V..#8..
 1a10 93000000 6384c000 6ff0cfe0 13051000  ....c...o.......
 1a20 13155502 9305e001 3b56b500 233cc20c  ..U.....;V..#<..
 1a30 93000000 6384c000 6ff0cfde 13051000  ....c...o.......
 1a40 13156502 9305e001 3b56b500 2330c20e  ..e.....;V..#0..
 1a50 93000000 6384c000 6ff0cfdc 13051000  ....c...o.......
 1a60 13157502 93053001 3b56b500 2334c20e  ..u...0.;V..#4..
 1a70 93000000 6384c000 6ff0cfda 13051000  ....c...o.......
 1a80 13158502 93052001 3b56b500 2338c20e  ...... .;V..#8..
 1a90 93000000 6384c000 6ff0cfd8 13051000  ....c...o.......
 1aa0 13159502 93053001 3b56b500 233cc20e  ......0.;V..#<..
 1ab0 93000000 6384c000 6ff0cfd6 13051000  ....c...o.......
 1ac0 1315a502 93054000 3b56b500 2330c210  ......@.;V..#0..
 1ad0 93000000 6384c000 6ff0cfd4 13051000  ....c...o.......
 1ae0 1315b502 93050000 3b56b500 2334c210  ........;V..#4..
 1af0 93000000 6384c000 6ff0cfd2 13051000  ....c...o.......
 1b00 1315c502 9305f000 3b56b500 2338c210  ........;V..#8..
 1b10 93000000 6384c000 6ff0cfd0 13051000  ....c...o.......
 1b20 1315d502 93056000 3b56b500 233cc210  ......`.;V..#<..
 1b30 93000000 6384c000 6ff0cfce 13051000  ....c...o.......
 1b40 1315e502 93055000 3b56b500 2330c212  ......P.;V..#0..
 1b50 93000000 6384c000 6ff0cfcc 13051000  ....c...o.......
 1b60 13150503 9305e000 3b56b500 2334c212  ........;V..#4..
 1b70 93000000 6384c000 6ff0cfca 13051000  ....c...o.......
 1b80 13151503 93057000 3b56b500 2338c212  ......p.;V..#8..
 1b90 93000000 6384c000 6ff0cfc8 13051000  ....c...o.......
 1ba0 13152503 93057001 3b56b500 233cc212  ..%...p.;V..#<..
 1bb0 93000000 6384c000 6ff0cfc6 13051000  ....c...o.......
 1bc0 13153503 9305a000 3b56b500 2330c214  ..5.....;V..#0..
 1bd0 93000000 6384c000 6ff0cfc4 13051000  ....c...o.......
 1be0 13154503 93052001 3b56b500 2334c214  ..E... .;V..#4..
 1bf0 93000000 6384c000 6ff0cfc2 13051000  ....c...o.......
 1c00 13155503 93051000 3b56b500 2338c214  ..U.....;V..#8..
 1c10 93000000 6384c000 6ff0cfc0 13051000  ....c...o.......
 1c20 13156503 93050000 3b56b500 233cc214  ..e.....;V..#<..
 1c30 93000000 6384c000 6ff0cfbe 13051000  ....c...o.......
 1c40 13157503 93055000 3b56b500 2330c216  ..u...P.;V..#0..
 1c50 93000000 6384c000 6ff0cfbc 13051000  ....c...o.......
 1c60 13158503 93052001 3b56b500 2334c216  ...... .;V..#4..
 1c70 93000000 6384c000 6ff0cfba 13051000  ....c...o.......
 1c80 13159503 9305b000 3b56b500 2338c216  ........;V..#8..
 1c90 93000000 6384c000 6ff0cfb8 13051000  ....c...o.......
 1ca0 1315b503 9305f001 3b56b500 233cc216  ........;V..#<..
 1cb0 93000000 6384c000 6ff0cfb6 13051000  ....c...o.......
 1cc0 1315c503 93057000 3b56b500 2330c218  ......p.;V..#0..
 1cd0 93000000 6384c000 6ff0cfb4 13051000  ....c...o.......
 1ce0 1315d503 93051000 3b56b500 2334c218  ........;V..#4..
 1cf0 93000000 6384c000 6ff0cfb2 13051000  ....c...o.......
 1d00 1315e503 93050001 3b56b500 2338c218  ........;V..#8..
 1d10 93000000 6384c000 6ff0cfb0 1305e0ff  ....c...o.......
 1d20 93056000 3b56b500 233cc218 b7000004  ..`.;V..#<......
 1d30 9b80f0ff 6384c000 6ff0cfae 1305d0ff  ....c...o.......
 1d40 9305b001 3b56b500 2330c21a 9300f001  ....;V..#0......
 1d50 6384c000 6ff00fad 1305b0ff 93053001  c...o.........0.
 1d60 3b56b500 2334c21a b7200000 9b80f0ff  ;V..#4... ......
 1d70 6384c000 6ff00fab 130570ff 9305c000  c...o.....p.....
 1d80 3b56b500 2338c21a b7001000 9b80f0ff  ;V..#8..........
 1d90 6384c000 6ff00fa9 1305f0fe 93054000  c...o.........@.
 1da0 3b56b500 233cc21a b7000010 9b80e0ff  ;V..#<..........
 1db0 6384c000 6ff00fa7 1305f0fd 93059000  c...o...........
 1dc0 3b56b500 2330c21c b7008000 9b80f0ff  ;V..#0..........
 1dd0 6384c000 6ff00fa5 1305f0fb 93050000  c...o...........
 1de0 3b56b500 2334c21c 9300f0fb 6384c000  ;V..#4......c...
 1df0 6ff04fa3 1305f0f7 93055001 3b56b500  o.O.......P.;V..
 1e00 2338c21c 9300f07f 6384c000 6ff08fa1  #8......c...o...
 1e10 1305f0ef 93051000 3b56b500 233cc21c  ........;V..#<..
 1e20 b7000080 9b80f0f7 6384c000 6ff08f9f  ........c...o...
 1e30 1305f0df 93059000 3b56b500 2330c21e  ........;V..#0..
 1e40 b7008000 9b80e0ff 6384c000 6ff08f9d  ........c...o...
 1e50 1305f0bf 93052000 3b56b500 2334c21e  ...... .;V..#4..
 1e60 b7000040 9b80f0ef 6384c000 6ff08f9b  ...@....c...o...
 1e70 13051000 1315b500 1345f5ff 93058000  .........E......
 1e80 3b56b500 2338c21e b7000001 9b8070ff  ;V..#8........p.
 1e90 6384c000 6ff00f99 13051000 1315c500  c...o...........
 1ea0 1345f5ff 93053001 3b56b500 233cc21e  .E....0.;V..#<..
 1eb0 b7200000 9b80f0ff 6384c000 6ff08f96  . ......c...o...
 1ec0 13051000 1315d500 1345f5ff 9305c000  .........E......
 1ed0 3b56b500 2330c220 b7001000 9b80d0ff  ;V..#0. ........
 1ee0 6384c000 6ff00f94 13051000 1315e500  c...o...........
 1ef0 1345f5ff 9305e000 3b56b500 2334c220  .E......;V..#4. 
 1f00 b7000400 9b80e0ff 6384c000 6ff08f91  ........c...o...
 1f10 13051000 1315f500 1345f5ff 93051000  .........E......
 1f20 3b56b500 2338c220 b7c0ff7f 9b80f0ff  ;V..#8. ........
 1f30 6384c000 6ff00f8f 13051000 13150501  c...o...........
 1f40 1345f5ff 9305f000 3b56b500 233cc220  .E......;V..#<. 
 1f50 b7000200 9b80d0ff 6384c000 6ff08f8c  ........c...o...
 1f60 13051000 13151501 1345f5ff 93052001  .........E.... .
 1f70 3b56b500 2330c222 b7400000 9b80f0ff  ;V..#0.".@......
 1f80 6384c000 6ff00f8a 13051000 13152501  c...o.........%.
 1f90 1345f5ff 93051000 3b56b500 2334c222  .E......;V..#4."
 1fa0 b700fe7f 9b80f0ff 6384c000 6ff08f87  ........c...o...
 1fb0 13051000 13153501 1345f5ff 93054000  ......5..E....@.
 1fc0 3b56b500 2338c222 b780ff0f 9b80f0ff  ;V..#8."........
 1fd0 6384c000 6ff00f85 13051000 13157503  c...o.........u.
 1fe0 1345f5ff 9305e001 3b56b500 233cc222  .E......;V..#<."
 1ff0 93003000 6384c000 6ff0cf82 13051000  ..0.c...o.......
 2000 13158503 1345f5ff 9305d001 3b56b500  .....E......;V..
 2010 2330c224 93007000 6384c000 6ff08f80  #0.$..p.c...o...
 2020 13051000 13159503 1345f5ff 93058000  .........E......
 2030 3b56b500 2334c224 b7000001 9b80f0ff  ;V..#4.$........
 2040 6384c000 6fe01ffe 13051000 1315a503  c...o...........
 2050 1345f5ff 93052000 3b56b500 2338c224  .E.... .;V..#8.$
 2060 b7000040 9b80f0ff 6384c000 6fe09ffb  ...@....c...o...
 2070 13051000 1315b503 1345f5ff 93050000  .........E......
 2080 3b56b500 233cc224 9300f0ff 6384c000  ;V..#<.$....c...
 2090 6fe05ff9 13051000 1315c503 1345f5ff  o._..........E..
 20a0 93059000 3b56b500 2330c226 b7008000  ....;V..#0.&....
 20b0 9b80f0ff 6384c000 6fe0dff6 13051000  ....c...o.......
 20c0 1315d503 1345f5ff 9305f000 3b56b500  .....E......;V..
 20d0 2334c226 b7000200 9b80f0ff 6384c000  #4.&........c...
 20e0 6fe05ff4 13051000 1315e503 1345f5ff  o._..........E..
 20f0 9305e001 3b56b500 2338c226 93003000  ....;V..#8.&..0.
 2100 6384c000 6fe01ff2 37555555 13055555  c...o...7UUU..UU
 2110 1315b500 1305a52a 1315b500 13055555  .......*......UU
 2120 1315a500 13055515 9305a000 3b56b500  ......U.....;V..
 2130 233cc226 b7501500 9b805055 6384c000  #<.&.P....PUc...
 2140 6fe05fee 37b5aaaa 1305a5aa 1315b500  o._.7...........
 2150 13055555 1315b500 1305a52a 1315a500  ..UU.......*....
 2160 1305a52a 93053001 3b56b500 2330c228  ...*..0.;V..#0.(
 2170 b7100000 9b805055 6384c000 6fe09fea  ......PUc...o...
 2180 13053000 93057001 3b56b500 2334c228  ..0...p.;V..#4.(
 2190 93000000 6384c000 6fe0dfe8 13055000  ....c...o.....P.
 21a0 9305e001 3b56b500 2338c228 93000000  ....;V..#8.(....
 21b0 6384c000 6fe01fe7 37353333 13053533  c...o...7533..53
 21c0 1315b500 13059519 1315b500 1305c54c  ...............L
 21d0 1315a500 13053533 93051001 3b56b500  ......53....;V..
 21e0 233cc228 b7200000 9b809099 6384c000  #<.(. ......c...
 21f0 6fe05fe3 37656666 13056566 1315b500  o._.7eff..ef....
 2200 13053533 1315b500 13059519 1315a500  ..53............
 2210 13056526 9305b001 3b56b500 2330c22a  ..e&....;V..#0.*
 2220 9300c000 6384c000 6fe0dfdf 37050000  ....c...o...7...
 2230 13050500 1315b500 1305855a 1315b500  ...........Z....
 2240 1305c513 1315a500 13053533 93058000  ..........53....
 2250 3b56b500 2334c22a b700b500 9b80304f  ;V..#4.*......0O
 2260 6384c000 6fe01fdc 37555555 13055555  c...o...7UUU..UU
 2270 1315b500 1305a52a 1315b500 13055555  .......*......UU
 2280 1315a500 13054515 9305c000 3b56b500  ......E.....;V..
 2290 2338c22a b7500500 9b805055 6384c000  #8.*.P....PUc...
 22a0 6fe05fd8 37353333 13053533 1315b500  o._.7533..53....
 22b0 13059519 1315b500 1305c54c 1315a500  ...........L....
 22c0 13052533 93053000 3b56b500 233cc22a  ..%3..0.;V..#<.*
 22d0 b7606606 9b806066 6384c000 6fe09fd4  .`f...`fc...o...
 22e0 37656666 13056566 1315b500 13053533  7eff..ef......53
 22f0 1315b500 13059519 1315a500 13055526  ..............U&
 2300 93052000 3b56b500 2330c22c b7a09919  .. .;V..#0.,....
 2310 9b809099 6384c000 6fe0dfd0 37050000  ....c...o...7...
 2320 13050500 1315b500 1305855a 1315b500  ...........Z....
 2330 1305c513 1315a500 13052533 9305f001  ..........%3....
 2340 3b56b500 2334c22c 93001000 6384c000  ;V..#4.,....c...
 2350 6fe05fcd 37555555 13055555 1315b500  o._.7UUU..UU....
 2360 1305a52a 1315b500 13055555 1315a500  ...*......UU....
 2370 13056515 93059000 3b56b500 2338c22c  ..e.....;V..#8.,
 2380 b7b02a00 9b80a0aa 6384c000 6fe09fc9  ..*.....c...o...
 2390 37b5aaaa 1305a5aa 1315b500 13055555  7.............UU
 23a0 1315b500 1305a52a 1315a500 1305b52a  .......*.......*
 23b0 93055001 3b56b500 233cc22c 93005055  ..P.;V..#<.,..PU
 23c0 6384c000 6fe01fc6 13056000 9305f000  c...o.....`.....
 23d0 3b56b500 2330c22e 93000000 6384c000  ;V..#0......c...
 23e0 6fe05fc4 37353333 13053533 1315b500  o._.7533..53....
 23f0 13059519 1315b500 1305c54c 1315a500  ...........L....
 2400 13054533 93050001 3b56b500 2334c22e  ..E3....;V..#4..
 2410 b7300000 9b803033 6384c000 6fe09fc0  .0....03c...o...
 2420 37656666 13056566 1315b500 13053533  7eff..ef......53
 2430 1315b500 13059519 1315a500 13057526  ..............u&
 2440 93051001 3b56b500 2338c22e b7300000  ....;V..#8...0..
 2450 9b803033 6384c000 6fe0dfbc 37050000  ..03c...o...7...
 2460 1305f5ff 1315b500 13057525 1315b500  ..........u%....
 2470 1305356c 1315a500 1305e50c 9305f001  ..5l............
 2480 3b56b500 233cc22e 93000000 6384c000  ;V..#<......c...
 2490 6fe05fb9 37050000 13050500 1315b500  o._.7...........
 24a0 1305855a 1315b500 1305c513 1315a500  ...Z............
 24b0 13054533 93055001 3b56b500 2330c230  ..E3..P.;V..#0.0
 24c0 9300805a 6384c000 6fe0dfb5 13051000  ...Zc...o.......
 24d0 13154501 1345f5ff 93056000 3b56b500  ..E..E....`.;V..
 24e0 2334c230 b7c0ff03 9b80f0ff 6384c000  #4.0........c...
 24f0 6fe05fb3 13051000 13155501 1345f5ff  o._.......U..E..
 2500 93050001 3b56b500 2338c230 b7000100  ....;V..#8.0....
 2510 9b80f0fd 6384c000 6fe0dfb0 13051000  ....c...o.......
 2520 13156501 1345f5ff 93055001 3b56b500  ..e..E....P.;V..
 2530 233cc230 9300d07f 6384c000 6fe09fae  #<.0....c...o...
 2540 13051000 13157501 1345f5ff 9305a000  ......u..E......
 2550 3b56b500 2330c232 b7e03f00 9b80f0ff  ;V..#0.2..?.....
 2560 6384c000 6fe01fac 13051000 13158501  c...o...........
 2570 1345f5ff 93059000 3b56b500 2334c232  .E......;V..#4.2
 2580 b7807f00 9b80f0ff 6384c000 6fe09fa9  ........c...o...
 2590 13051000 13159501 1345f5ff 93056000  .........E....`.
 25a0 3b56b500 2338c232 b700f803 9b80f0ff  ;V..#8.2........
 25b0 6384c000 6fe01fa7 13051000 1315a501  c...o...........
 25c0 1345f5ff 93057001 3b56b500 233cc232  .E....p.;V..#<.2
 25d0 9300701f 6384c000 6fe0dfa4 13051000  ..p.c...o.......
 25e0 1315b501 1345f5ff 93052000 3b56b500  .....E.... .;V..
 25f0 2330c234 b700003e 9b80f0ff 6384c000  #0.4...>....c...
 2600 6fe05fa2 13051000 1315c501 1345f5ff  o._..........E..
 2610 9305c000 3b56b500 2334c234 b7000f00  ....;V..#4.4....
 2620 9b80f0ff 6384c000 6fe0df9f 13051000  ....c...o.......
 2630 1315d501 1345f5ff 93059000 3b56b500  .....E......;V..
 2640 2338c234 b7007000 9b80f0ff 6384c000  #8.4..p.....c...
 2650 6fe05f9d 13051000 1315e501 1345f5ff  o._..........E..
 2660 9305f001 3b56b500 233cc234 93001000  ....;V..#<.4....
 2670 6384c000 6fe01f9b 13051000 1315f501  c...o...........
 2680 1345f5ff 93058000 3b56b500 2330c236  .E......;V..#0.6
 2690 b7008000 9b80f0ff 6384c000 6fe09f98  ........c...o...
 26a0 13051000 13150502 1345f5ff 93054000  .........E....@.
 26b0 3b56b500 2334c236 b7000010 9b80f0ff  ;V..#4.6........
 26c0 6384c000 6fe01f96 13051000 13151502  c...o...........
 26d0 1345f5ff 93057001 3b56b500 2338c236  .E....p.;V..#8.6
 26e0 9300f01f 6384c000 6fe0df93 13051000  ....c...o.......
 26f0 13152502 1345f5ff 9305d000 3b56b500  ..%..E......;V..
 2700 233cc236 b7000800 9b80f0ff 6384c000  #<.6........c...
 2710 6fe05f91 13051000 13153502 1345f5ff  o._.......5..E..
 2720 9305d001 3b56b500 2330c238 93007000  ....;V..#0.8..p.
 2730 6384c000 6fe01f8f 13051000 13154502  c...o.........E.
 2740 1345f5ff 93055001 3b56b500 2334c238  .E....P.;V..#4.8
 2750 9300f07f 6384c000 6fe0df8c 13051000  ....c...o.......
 2760 13155502 1345f5ff 93052001 3b56b500  ..U..E.... .;V..
 2770 2338c238 b7400000 9b80f0ff 6384c000  #8.8.@......c...
 2780 6fe05f8a 13051000 13156502 1345f5ff  o._.......e..E..
 2790 9305e000 3b56b500 233cc238 b7000400  ....;V..#<.8....
 27a0 9b80f0ff 6384c000 6fe0df87 13051000  ....c...o.......
 27b0 13157502 1345f5ff 93055000 3b56b500  ..u..E....P.;V..
 27c0 2330c23a b7000008 9b80f0ff 6384c000  #0.:........c...
 27d0 6fe05f85 13051000 13158502 1345f5ff  o._..........E..
 27e0 93055000 3b56b500 2334c23a b7000008  ..P.;V..#4.:....
 27f0 9b80f0ff 6384c000 6fe0df82 13051000  ....c...o.......
 2800 13159502 1345f5ff 93055001 3b56b500  .....E....P.;V..
 2810 2338c23a 9300f07f 6384c000 6fe09f80  #8.:....c...o...
 2820 13051000 1315a502 1345f5ff 93055001  .........E....P.
 2830 3b56b500 233cc23a 9300f07f 6384c000  ;V..#<.:....c...
 2840 6fe04ffe 13051000 1315b502 1345f5ff  o.O..........E..
 2850 93050001 3b56b500 2330c23c b7000100  ....;V..#0.<....
 2860 9b80f0ff 6384c000 6fe0cffb 13051000  ....c...o.......
 2870 1315c502 1345f5ff 9305d000 3b56b500  .....E......;V..
 2880 2334c23c b7000800 9b80f0ff 6384c000  #4.<........c...
 2890 6fe04ff9 13051000 1315d502 1345f5ff  o.O..........E..
 28a0 93051000 3b56b500 2338c23c b7000080  ....;V..#8.<....
 28b0 9b80f0ff 6384c000 6fe0cff6 13051000  ....c...o.......
 28c0 1315e502 1345f5ff 93055000 3b56b500  .....E....P.;V..
 28d0 233cc23c b7000008 9b80f0ff 6384c000  #<.<........c...
 28e0 6fe04ff4 13051000 1315f502 1345f5ff  o.O..........E..
 28f0 93052000 3b56b500 2330c23e b7000040  .. .;V..#0.>...@
 2900 9b80f0ff 6384c000 6fe0cff1 13051000  ....c...o.......
 2910 13150503 1345f5ff 9305e000 3b56b500  .....E......;V..
 2920 2334c23e b7000400 9b80f0ff 6384c000  #4.>........c...
 2930 6fe04fef 13051000 13151503 1345f5ff  o.O..........E..
 2940 93051000 3b56b500 2338c23e b7000080  ....;V..#8.>....
 2950 9b80f0ff 6384c000 6fe0cfec 13051000  ....c...o.......
 2960 13152503 1345f5ff 9305e001 3b56b500  ..%..E......;V..
 2970 233cc23e 93003000 6384c000 6fe08fea  #<.>..0.c...o...
 2980 13051000 13153503 1345f5ff 9305c000  ......5..E......
 2990 3b56b500 2330c240 b7001000 9b80f0ff  ;V..#0.@........
 29a0 6384c000 6fe00fe8 13051000 13155503  c...o.........U.
 29b0 1345f5ff 9305e000 3b56b500 2334c240  .E......;V..#4.@
 29c0 b7000400 9b80f0ff 6384c000 6fe08fe5  ........c...o...
 29d0 13051000 13156503 1345f5ff 93059000  ......e..E......
 29e0 3b56b500 2338c240 b7008000 9b80f0ff  ;V..#8.@........
 29f0 6384c000 6fe00fe3 37050000 1305f5ff  c...o...7.......
 2a00 1315b500 13057525 1315b500 1305356c  ......u%......5l
 2a10 1315a500 1305d50c 93056000 3b56b500  ..........`.;V..
 2a20 233cc240 b7f02b01 9b8030c3 6384c000  #<.@..+...0.c...
 2a30 6fe04fdf 13051000 13154503 1345f5ff  o.O.......E..E..
 2a40 93050000 3b56b500 2330c242 9300f0ff  ....;V..#0.B....
 2a50 6384c000 6fe00fdd 13050000 93052001  c...o......... .
 2a60 3b56b500 2334c242 93000000 6384c000  ;V..#4.B....c...
 2a70 6fe04fdb 1305f0ff 13551500 9305b001  o.O......U......
 2a80 3b56b500 2338c242 9300f001 6384c000  ;V..#8.B....c...
 2a90 6fe04fd9 13050008 9305d000 3b56b500  o.O.........;V..
 2aa0 233cc242 93000000 6384c000 6fe08fd7  #<.B....c...o...
 2ab0 6f008003 8334811f 03330120 33039300  o....4...3. 3...
 2ac0 37030000 13030300 1313b300 1303635d  7.............c]
 2ad0 1313b300 13036343 1313a300 1303032d  ......cC.......-
 2ae0 23be64fe 6f004000 13050000 6f000002  #.d.o.@.....o...
 2af0 00000000 00000000 00000000 00000000  ................
 2b00 00000000 00000000 00000000 13050500  ................
 2b10 73001000 6f000000 130101ff 17050000  s...o...........
 2b20 1305c501 23341100 efe08fce 13050500  ....#4..........
 2b30 73001000 6f000000 00000000 00000000  s...o...........
 2b40 00000000 00000000 00000000 00000000  ................
 2b50 00000000 00000000 00000000 00000000  ................
 2b60 00000000 00000000 00000000 00000000  ................
 2b70 00000000 00000000 00000000 00000000  ................
 2b80 00000000 00000000 00000000 00000000  ................
 2b90 00000000 00000000 00000000 00000000  ................
 2ba0 00000000 00000000 00000000 00000000  ................
 2bb0 00000000 00000000 00000000 00000000  ................
 2bc0 00000000 00000000 00000000 00000000  ................
 2bd0 00000000 00000000 00000000 00000000  ................
 2be0 00000000 00000000 00000000 00000000  ................
 2bf0 00000000 00000000 00000000 00000000  ................
 2c00 00000000 00000000 00000000 00000000  ................
 2c10 00000000 00000000 00000000 00000000  ................
 2c20 00000000 00000000 00000000 00000000  ................
 2c30 00000000 00000000 00000000 00000000  ................
 2c40 00000000 00000000 00000000 00000000  ................
 2c50 00000000 00000000 00000000 00000000  ................
 2c60 00000000 00000000 00000000 00000000  ................
 2c70 00000000 00000000 00000000 00000000  ................
 2c80 00000000 00000000 00000000 00000000  ................
 2c90 00000000 00000000 00000000 00000000  ................
 2ca0 00000000 00000000 00000000 00000000  ................
 2cb0 00000000 00000000 00000000 00000000  ................
 2cc0 00000000 00000000 00000000 00000000  ................
 2cd0 00000000 00000000 00000000 00000000  ................
 2ce0 00000000 00000000 00000000 00000000  ................
 2cf0 00000000 00000000 00000000 00000000  ................
 2d00 00000000 00000000 00000000 00000000  ................
 2d10 00000000 00000000 00000000 00000000  ................
 2d20 00000000 00000000 00000000 00000000  ................
 2d30 00000000 00000000 00000000 00000000  ................
 2d40 00000000 00000000 00000000 00000000  ................
 2d50 00000000 00000000 00000000 00000000  ................
 2d60 00000000 00000000 00000000 00000000  ................
 2d70 00000000 00000000 00000000 00000000  ................
 2d80 00000000 00000000 00000000 00000000  ................
 2d90 00000000 00000000 00000000 00000000  ................
 2da0 00000000 00000000 00000000 00000000  ................
 2db0 00000000 00000000 00000000 00000000  ................
 2dc0 00000000 00000000 00000000 00000000  ................
 2dd0 00000000 00000000 00000000 00000000  ................
 2de0 00000000 00000000 00000000 00000000  ................
 2df0 00000000 00000000 00000000 00000000  ................
 2e00 00000000 00000000 00000000 00000000  ................
 2e10 00000000 00000000 00000000 00000000  ................
 2e20 00000000 00000000 00000000 00000000  ................
 2e30 00000000 00000000 00000000 00000000  ................
 2e40 00000000 00000000 00000000 00000000  ................
 2e50 00000000 00000000 00000000 00000000  ................
 2e60 00000000 00000000 00000000 00000000  ................
 2e70 00000000 00000000 00000000 00000000  ................
 2e80 00000000 00000000 00000000 00000000  ................
 2e90 00000000 00000000 00000000 00000000  ................
 2ea0 00000000 00000000 00000000 00000000  ................
 2eb0 00000000 00000000 00000000 00000000  ................
 2ec0 00000000 00000000 00000000 00000000  ................
 2ed0 00000000 00000000 00000000 00000000  ................
 2ee0 00000000 00000000 00000000 00000000  ................
 2ef0 00000000 00000000 00000000 00000000  ................
 2f00 00000000 00000000 00000000 00000000  ................
 2f10 00000000 00000000 00000000 00000000  ................
 2f20 00000000 00000000 00000000 00000000  ................
 2f30 00000000 00000000 00000000 00000000  ................
 2f40 00000000 00000000 00000000 00000000  ................
 2f50 00000000 00000000 00000000 00000000  ................
 2f60 00000000 00000000 00000000 00000000  ................
 2f70 00000000 00000000 00000000 00000000  ................
 2f80 00000000 00000000 00000000 00000000  ................
 2f90 00000000 00000000 00000000 00000000  ................
 2fa0 00000000 00000000 00000000 00000000  ................
 2fb0 00000000 00000000 00000000 00000000  ................
 2fc0 00000000 00000000 00000000 00000000  ................
 2fd0 00000000 00000000 00000000 00000000  ................
 2fe0 00000000 00000000 00000000 00000000  ................
 2ff0 00000000 00000000 00000000 00000000  ................
 3000 fecabeba fecabeba fecabeba fecabeba  ................
 3010 efbeadde efbeadde 00000000 00000000  ................
 3020 00000000 00000000 00000000 00000000  ................
 3030 00000000 00000000 00000000 00000000  ................
 3040 00000000 00000000 00000000 00000000  ................
 3050 00000000 00000000 00000000 00000000  ................
 3060 00000000 00000000 00000000 00000000  ................
 3070 00000000 00000000 00000000 00000000  ................
 3080 00000000 00000000 00000000 00000000  ................
 3090 00000000 00000000 00000000 00000000  ................
 30a0 00000000 00000000 00000000 00000000  ................
 30b0 00000000 00000000 00000000 00000000  ................
 30c0 00000000 00000000 00000000 00000000  ................
 30d0 00000000 00000000 00000000 00000000  ................
 30e0 00000000 00000000 00000000 00000000  ................
 30f0 00000000 00000000 00000000 00000000  ................
 3100 00000000 00000000 00000000 00000000  ................
 3110 00000000 00000000 00000000 00000000  ................
 3120 00000000 00000000 00000000 00000000  ................
 3130 00000000 00000000 00000000 00000000  ................
 3140 00000000 00000000 00000000 00000000  ................
 3150 00000000 00000000 00000000 00000000  ................
 3160 00000000 00000000 00000000 00000000  ................
 3170 00000000 00000000 00000000 00000000  ................
 3180 00000000 00000000 00000000 00000000  ................
 3190 00000000 00000000 00000000 00000000  ................
 31a0 00000000 00000000 00000000 00000000  ................
 31b0 00000000 00000000 00000000 00000000  ................
 31c0 00000000 00000000 00000000 00000000  ................
 31d0 00000000 00000000 00000000 00000000  ................
 31e0 00000000 00000000 00000000 00000000  ................
 31f0 00000000 00000000 00000000 00000000  ................
 3200 00000000 00000000 00000000 00000000  ................
 3210 00000000 00000000 00000000 00000000  ................
 3220 00000000 00000000 00000000 00000000  ................
 3230 00000000 00000000 00000000 00000000  ................
 3240 00000000 00000000 00000000 00000000  ................
 3250 00000000 00000000 00000000 00000000  ................
 3260 00000000 00000000 00000000 00000000  ................
 3270 00000000 00000000 00000000 00000000  ................
 3280 00000000 00000000 00000000 00000000  ................
 3290 00000000 00000000 00000000 00000000  ................
 32a0 00000000 00000000 00000000 00000000  ................
 32b0 00000000 00000000 00000000 00000000  ................
 32c0 00000000 00000000 00000000 00000000  ................
 32d0 00000000 00000000 00000000 00000000  ................
 32e0 00000000 00000000 00000000 00000000  ................
 32f0 00000000 00000000 00000000 00000000  ................
 3300 00000000 00000000 00000000 00000000  ................
 3310 00000000 00000000 00000000 00000000  ................
 3320 00000000 00000000 00000000 00000000  ................
 3330 00000000 00000000 00000000 00000000  ................
 3340 00000000 00000000 00000000 00000000  ................
 3350 00000000 00000000 00000000 00000000  ................
 3360 00000000 00000000 00000000 00000000  ................
 3370 00000000 00000000 00000000 00000000  ................
 3380 00000000 00000000 00000000 00000000  ................
 3390 00000000 00000000 00000000 00000000  ................
 33a0 00000000 00000000 00000000 00000000  ................
 33b0 00000000 00000000 00000000 00000000  ................
 33c0 00000000 00000000 00000000 00000000  ................
 33d0 00000000 00000000 00000000 00000000  ................
 33e0 00000000 00000000 00000000 00000000  ................
 33f0 00000000 00000000 00000000 00000000  ................
 3400 00000000 00000000 00000000 00000000  ................
 3410 00000000 00000000 00000000 00000000  ................
 3420 00000000 00000000 00000000 00000000  ................
 3430 00000000 00000000 00000000 00000000  ................
 3440 00000000 00000000 00000000 00000000  ................
 3450 00000000 00000000 00000000 00000000  ................
 3460 00000000 00000000 00000000 00000000  ................
 3470 00000000 00000000 00000000 00000000  ................
 3480 00000000 00000000 00000000 00000000  ................
 3490 00000000 00000000 00000000 00000000  ................
 34a0 00000000 00000000 00000000 00000000  ................
 34b0 00000000 00000000 00000000 00000000  ................
 34c0 00000000 00000000 00000000 00000000  ................
 34d0 00000000 00000000 00000000 00000000  ................
 34e0 00000000 00000000 00000000 00000000  ................
 34f0 00000000 00000000 00000000 00000000  ................
 3500 00000000 00000000 00000000 00000000  ................
 3510 00000000 00000000 00000000 00000000  ................
 3520 00000000 00000000 00000000 00000000  ................
 3530 00000000 00000000 00000000 00000000  ................
 3540 00000000 00000000 00000000 00000000  ................
 3550 00000000 00000000 00000000 00000000  ................
 3560 00000000 00000000 00000000 00000000  ................
 3570 00000000 00000000 00000000 00000000  ................
 3580 00000000 00000000 00000000 00000000  ................
 3590 00000000 00000000 00000000 00000000  ................
 35a0 00000000 00000000 00000000 00000000  ................
 35b0 00000000 00000000 00000000 00000000  ................
 35c0 00000000 00000000 00000000 00000000  ................
 35d0 00000000 00000000 00000000 00000000  ................
 35e0 00000000 00000000 00000000 00000000  ................
 35f0 00000000 00000000 00000000 00000000  ................
 3600 00000000 00000000 00000000 00000000  ................
 3610 00000000 00000000 00000000 00000000  ................
 3620 00000000 00000000 00000000 00000000  ................
 3630 00000000 00000000 00000000 00000000  ................
 3640 00000000 00000000 00000000 00000000  ................
 3650 00000000 00000000 00000000 00000000  ................
 3660 00000000 00000000 00000000 00000000  ................
 3670 00000000 00000000 00000000 00000000  ................
 3680 00000000 00000000 00000000 00000000  ................
 3690 00000000 00000000 00000000 00000000  ................
 36a0 00000000 00000000 00000000 00000000  ................
 36b0 00000000 00000000 00000000 00000000  ................
 36c0 00000000 00000000 00000000 00000000  ................
 36d0 00000000 00000000 00000000 00000000  ................
 36e0 00000000 00000000 00000000 00000000  ................
 36f0 00000000 00000000 00000000 00000000  ................
 3700 00000000 00000000 00000000 00000000  ................
 3710 00000000 00000000 00000000 00000000  ................
 3720 00000000 00000000 00000000 00000000  ................
 3730 00000000 00000000 00000000 00000000  ................
 3740 00000000 00000000 00000000 00000000  ................
 3750 00000000 00000000 00000000 00000000  ................
 3760 00000000 00000000 00000000 00000000  ................
 3770 00000000 00000000 00000000 00000000  ................
 3780 00000000 00000000 00000000 00000000  ................
 3790 00000000 00000000 00000000 00000000  ................
 37a0 00000000 00000000 00000000 00000000  ................
 37b0 00000000 00000000 00000000 00000000  ................
 37c0 00000000 00000000 00000000 00000000  ................
 37d0 00000000 00000000 00000000 00000000  ................
 37e0 00000000 00000000 00000000 00000000  ................
 37f0 00000000 00000000 00000000 00000000  ................
 3800 00000000 00000000 00000000 00000000  ................
 3810 00000000 00000000 00000000 00000000  ................
 3820 00000000 00000000 00000000 00000000  ................
 3830 00000000 00000000 00000000 00000000  ................
 3840 00000000 00000000 00000000 00000000  ................
 3850 00000000 00000000 00000000 00000000  ................
 3860 00000000 00000000 00000000 00000000  ................
 3870 00000000 00000000 00000000 00000000  ................
 3880 00000000 00000000 00000000 00000000  ................
 3890 00000000 00000000 00000000 00000000  ................
 38a0 00000000 00000000 00000000 00000000  ................
 38b0 00000000 00000000 00000000 00000000  ................
 38c0 00000000 00000000 00000000 00000000  ................
 38d0 00000000 00000000 00000000 00000000  ................
 38e0 00000000 00000000 00000000 00000000  ................
 38f0 00000000 00000000 00000000 00000000  ................
 3900 00000000 00000000 00000000 00000000  ................
 3910 00000000 00000000 00000000 00000000  ................
 3920 00000000 00000000 00000000 00000000  ................
 3930 00000000 00000000 00000000 00000000  ................
 3940 00000000 00000000 00000000 00000000  ................
 3950 00000000 00000000 00000000 00000000  ................
 3960 00000000 00000000 00000000 00000000  ................
 3970 00000000 00000000 00000000 00000000  ................
 3980 00000000 00000000 00000000 00000000  ................
 3990 00000000 00000000 00000000 00000000  ................
 39a0 00000000 00000000 00000000 00000000  ................
 39b0 00000000 00000000 00000000 00000000  ................
 39c0 00000000 00000000 00000000 00000000  ................
 39d0 00000000 00000000 00000000 00000000  ................
 39e0 00000000 00000000 00000000 00000000  ................
 39f0 00000000 00000000 00000000 00000000  ................
 3a00 00000000 00000000 00000000 00000000  ................
 3a10 00000000 00000000 00000000 00000000  ................
 3a20 00000000 00000000 00000000 00000000  ................
 3a30 00000000 00000000 00000000 00000000  ................
 3a40 00000000 00000000 00000000 00000000  ................
 3a50 00000000 00000000 00000000 00000000  ................
 3a60 00000000 00000000 00000000 00000000  ................
 3a70 00000000 00000000 00000000 00000000  ................
 3a80 00000000 00000000 00000000 00000000  ................
 3a90 00000000 00000000 00000000 00000000  ................
 3aa0 00000000 00000000 00000000 00000000  ................
 3ab0 00000000 00000000 00000000 00000000  ................
 3ac0 00000000 00000000 00000000 00000000  ................
 3ad0 00000000 00000000 00000000 00000000  ................
 3ae0 00000000 00000000 00000000 00000000  ................
 3af0 00000000 00000000 00000000 00000000  ................
 3b00 00000000 00000000 00000000 00000000  ................
 3b10 00000000 00000000 00000000 00000000  ................
 3b20 00000000 00000000 00000000 00000000  ................
 3b30 00000000 00000000 00000000 00000000  ................
 3b40 00000000 00000000 00000000 00000000  ................
 3b50 00000000 00000000 00000000 00000000  ................
 3b60 00000000 00000000 00000000 00000000  ................
 3b70 00000000 00000000 00000000 00000000  ................
 3b80 00000000 00000000 00000000 00000000  ................
 3b90 00000000 00000000 00000000 00000000  ................
 3ba0 00000000 00000000 00000000 00000000  ................
 3bb0 00000000 00000000 00000000 00000000  ................
 3bc0 00000000 00000000 00000000 00000000  ................
 3bd0 00000000 00000000 00000000 00000000  ................
 3be0 00000000 00000000 00000000 00000000  ................
 3bf0 00000000 00000000 00000000 00000000  ................
 3c00 00000000 00000000 00000000 00000000  ................
 3c10 00000000 00000000 00000000 00000000  ................
 3c20 00000000 00000000 00000000 00000000  ................
 3c30 00000000 00000000 00000000 00000000  ................
 3c40 00000000 00000000 00000000 00000000  ................
 3c50 00000000 00000000 00000000 00000000  ................
 3c60 00000000 00000000 00000000 00000000  ................
 3c70 00000000 00000000 00000000 00000000  ................
 3c80 00000000 00000000 00000000 00000000  ................
 3c90 00000000 00000000 00000000 00000000  ................
 3ca0 00000000 00000000 00000000 00000000  ................
 3cb0 00000000 00000000 00000000 00000000  ................
 3cc0 00000000 00000000 00000000 00000000  ................
 3cd0 00000000 00000000 00000000 00000000  ................
 3ce0 00000000 00000000 00000000 00000000  ................
 3cf0 00000000 00000000 00000000 00000000  ................
 3d00 00000000 00000000 00000000 00000000  ................
 3d10 00000000 00000000 00000000 00000000  ................
 3d20 00000000 00000000 00000000 00000000  ................
 3d30 00000000 00000000 00000000 00000000  ................
 3d40 00000000 00000000 00000000 00000000  ................
 3d50 00000000 00000000 00000000 00000000  ................
 3d60 00000000 00000000 00000000 00000000  ................
 3d70 00000000 00000000 00000000 00000000  ................
 3d80 00000000 00000000 00000000 00000000  ................
 3d90 00000000 00000000 00000000 00000000  ................
 3da0 00000000 00000000 00000000 00000000  ................
 3db0 00000000 00000000 00000000 00000000  ................
 3dc0 00000000 00000000 00000000 00000000  ................
 3dd0 00000000 00000000 00000000 00000000  ................
 3de0 00000000 00000000 00000000 00000000  ................
 3df0 00000000 00000000 00000000 00000000  ................
 3e00 00000000 00000000 00000000 00000000  ................
 3e10 00000000 00000000 00000000 00000000  ................
 3e20 00000000 00000000 00000000 00000000  ................
 3e30 00000000 00000000 00000000 00000000  ................
 3e40 00000000 00000000 00000000 00000000  ................
 3e50 00000000 00000000 00000000 00000000  ................
 3e60 00000000 00000000 00000000 00000000  ................
 3e70 00000000 00000000 00000000 00000000  ................
 3e80 00000000 00000000 00000000 00000000  ................
 3e90 00000000 00000000 00000000 00000000  ................
 3ea0 00000000 00000000 00000000 00000000  ................
 3eb0 00000000 00000000 00000000 00000000  ................
 3ec0 00000000 00000000 00000000 00000000  ................
 3ed0 00000000 00000000 00000000 00000000  ................
 3ee0 00000000 00000000 00000000 00000000  ................
 3ef0 00000000 00000000 00000000 00000000  ................
 3f00 00000000 00000000 00000000 00000000  ................
 3f10 00000000 00000000 00000000 00000000  ................
 3f20 00000000 00000000 00000000 00000000  ................
 3f30 00000000 00000000 00000000 00000000  ................
 3f40 00000000 00000000 00000000 00000000  ................
 3f50 00000000 00000000 00000000 00000000  ................
 3f60 00000000 00000000 00000000 00000000  ................
 3f70 00000000 00000000 00000000 00000000  ................
 3f80 00000000 00000000 00000000 00000000  ................
 3f90 00000000 00000000 00000000 00000000  ................
 3fa0 00000000 00000000 00000000 00000000  ................
 3fb0 00000000 00000000 00000000 00000000  ................
 3fc0 00000000 00000000 00000000 00000000  ................
 3fd0 00000000 00000000 00000000 00000000  ................
 3fe0 00000000 00000000 00000000 00000000  ................
 3ff0 00000000 00000000 00000000 00000000  ................
 4000 81b2d4e7 09a35c6f efbeadde efbeadde  ......\o........
 4010 efbeadde efbeadde efbeadde efbeadde  ................
 4020 efbeadde efbeadde efbeadde efbeadde  ................
 4030 efbeadde efbeadde efbeadde efbeadde  ................
 4040 efbeadde efbeadde efbeadde efbeadde  ................
 4050 efbeadde efbeadde efbeadde efbeadde  ................
 4060 efbeadde efbeadde efbeadde efbeadde  ................
 4070 efbeadde efbeadde efbeadde efbeadde  ................
 4080 efbeadde efbeadde efbeadde efbeadde  ................
 4090 efbeadde efbeadde efbeadde efbeadde  ................
 40a0 efbeadde efbeadde efbeadde efbeadde  ................
 40b0 efbeadde efbeadde efbeadde efbeadde  ................
 40c0 efbeadde efbeadde efbeadde efbeadde  ................
 40d0 efbeadde efbeadde efbeadde efbeadde  ................
 40e0 efbeadde efbeadde efbeadde efbeadde  ................
 40f0 efbeadde efbeadde efbeadde efbeadde  ................
 4100 efbeadde efbeadde efbeadde efbeadde  ................
 4110 efbeadde efbeadde efbeadde efbeadde  ................
 4120 efbeadde efbeadde efbeadde efbeadde  ................
 4130 efbeadde efbeadde efbeadde efbeadde  ................
 4140 efbeadde efbeadde efbeadde efbeadde  ................
 4150 efbeadde efbeadde efbeadde efbeadde  ................
 4160 efbeadde efbeadde efbeadde efbeadde  ................
 4170 efbeadde efbeadde efbeadde efbeadde  ................
 4180 efbeadde efbeadde efbeadde efbeadde  ................
 4190 efbeadde efbeadde efbeadde efbeadde  ................
 41a0 efbeadde efbeadde efbeadde efbeadde  ................
 41b0 efbeadde efbeadde efbeadde efbeadde  ................
 41c0 efbeadde efbeadde efbeadde efbeadde  ................
 41d0 efbeadde efbeadde efbeadde efbeadde  ................
 41e0 efbeadde efbeadde efbeadde efbeadde  ................
 41f0 efbeadde efbeadde efbeadde efbeadde  ................
 4200 efbeadde efbeadde efbeadde efbeadde  ................
 4210 efbeadde efbeadde efbeadde efbeadde  ................
 4220 efbeadde efbeadde efbeadde efbeadde  ................
 4230 efbeadde efbeadde efbeadde efbeadde  ................
 4240 efbeadde efbeadde efbeadde efbeadde  ................
 4250 efbeadde efbeadde efbeadde efbeadde  ................
 4260 efbeadde efbeadde efbeadde efbeadde  ................
 4270 efbeadde efbeadde efbeadde efbeadde  ................
 4280 efbeadde efbeadde efbeadde efbeadde  ................
 4290 efbeadde efbeadde efbeadde efbeadde  ................
 42a0 efbeadde efbeadde efbeadde efbeadde  ................
 42b0 efbeadde efbeadde efbeadde efbeadde  ................
 42c0 efbeadde efbeadde efbeadde efbeadde  ................
 42d0 efbeadde efbeadde efbeadde efbeadde  ................
 42e0 efbeadde efbeadde efbeadde efbeadde  ................
 42f0 efbeadde efbeadde efbeadde efbeadde  ................
 4300 efbeadde efbeadde efbeadde efbeadde  ................
 4310 efbeadde efbeadde efbeadde efbeadde  ................
 4320 efbeadde efbeadde efbeadde efbeadde  ................
 4330 efbeadde efbeadde efbeadde efbeadde  ................
 4340 efbeadde efbeadde efbeadde efbeadde  ................
 4350 efbeadde efbeadde efbeadde efbeadde  ................
 4360 efbeadde efbeadde efbeadde efbeadde  ................
 4370 efbeadde efbeadde efbeadde efbeadde  ................
 4380 efbeadde efbeadde efbeadde efbeadde  ................
 4390 efbeadde efbeadde efbeadde efbeadde  ................
 43a0 efbeadde efbeadde efbeadde efbeadde  ................
 43b0 efbeadde efbeadde efbeadde efbeadde  ................
 43c0 efbeadde efbeadde efbeadde efbeadde  ................
 43d0 efbeadde efbeadde efbeadde efbeadde  ................
 43e0 efbeadde efbeadde efbeadde efbeadde  ................
 43f0 efbeadde efbeadde efbeadde efbeadde  ................
 4400 efbeadde efbeadde efbeadde efbeadde  ................
 4410 efbeadde efbeadde efbeadde efbeadde  ................
 4420 efbeadde efbeadde efbeadde efbeadde  ................
 4430 efbeadde efbeadde efbeadde efbeadde  ................
 4440 efbeadde efbeadde efbeadde efbeadde  ................
 4450 efbeadde efbeadde efbeadde efbeadde  ................
 4460 efbeadde efbeadde efbeadde efbeadde  ................
 4470 efbeadde efbeadde efbeadde efbeadde  ................
 4480 efbeadde efbeadde efbeadde efbeadde  ................
 4490 efbeadde efbeadde efbeadde efbeadde  ................
 44a0 efbeadde efbeadde efbeadde efbeadde  ................
 44b0 efbeadde efbeadde efbeadde efbeadde  ................
 44c0 efbeadde efbeadde efbeadde efbeadde  ................
 44d0 efbeadde efbeadde 81b2d4e7 09a35c6f  ..............\o
 44e0 4743433a 20285562 756e7475 2031312e  GCC: (Ubuntu 11.
 44f0 322e302d 31367562 756e7475 31292031  2.0-16ubuntu1) 1
 4500 312e322e 3000412d 00000072 69736376  1.2.0.A-...riscv
 4510 00012300 00000572 76363469 3270305f  ..#....rv64i2p0_
 4520 6d327030 5f613270 305f6632 70305f64  m2p0_a2p0_f2p0_d
 4530 32703000 00000000 00000000 00000000  2p0.............
 4540 00000000 00000000 00000000 00000000  ................
 4550 00000000 03000100 00000080 00000000  ................
 4560 00000000 00000000 00000000 03000200  ................
 4570 381b0080 00000000 00000000 00000000  8...............
 4580 00000000 03000300 00200080 00000000  ......... ......
 4590 00000000 00000000 00000000 03000400  ................
 45a0 00000000 00000000 00000000 00000000  ................
 45b0 00000000 03000500 00000000 00000000  ................
 45c0 00000000 00000000 01000000 0400f1ff  ................
 45d0 00000000 00000000 00000000 00000000  ................
 45e0 09000000 00000100 00000080 00000000  ................
 45f0 00000000 00000000 0c000000 0400f1ff  ................
 4600 00000000 00000000 00000000 00000000  ................
 4610 09000000 00000100 10000080 00000000  ................
 4620 00000000 00000000 09000000 00000100  ................
 4630 24000080 00000000 00000000 00000000  $...............
 4640 13000000 0400f1ff 00000000 00000000  ................
 4650 00000000 00000000 1d000000 0000f1ff  ................
 4660 03000000 00000000 00000000 00000000  ................
 4670 27000000 0000f1ff 01000000 00000000  '...............
 4680 00000000 00000000 31000000 0000f1ff  ........1.......
 4690 02000000 00000000 00000000 00000000  ................
 46a0 09000000 00000100 40000080 00000000  ........@.......
 46b0 00000000 00000000 3b000000 0000f1ff  ........;.......
 46c0 d0dad0ba 00000000 00000000 00000000  ................
 46d0 40000000 0000f1ff 04000000 00000000  @...............
 46e0 00000000 00000000 46000000 0000f1ff  ........F.......
 46f0 05000000 00000000 00000000 00000000  ................
 4700 4c000000 0000f1ff 00000000 00000000  L...............
 4710 00000000 00000000 51000000 0000f1ff  ........Q.......
 4720 00000000 00000000 00000000 00000000  ................
 4730 56000000 0000f1ff d0dad0ba 00000000  V...............
 4740 00000000 00000000 5b000000 0000f1ff  ........[.......
 4750 40000000 00000000 00000000 00000000  @...............
 4760 5f000000 0000f1ff d0dad0ba 00000000  _...............
 4770 00000000 00000000 66000000 0000f1ff  ........f.......
 4780 01000000 00000000 00000000 00000000  ................
 4790 6a000000 0000f1ff d0faffff ffffffff  j...............
 47a0 00000000 00000000 70000000 0000f1ff  ........p.......
 47b0 01000000 00000000 00000000 00000000  ................
 47c0 75000000 0000f1ff 00000000 00000000  u...............
 47d0 00000000 00000000 7a000000 0000f1ff  ........z.......
 47e0 ad0dad0b 00000000 00000000 00000000  ................
 47f0 81000000 0000f1ff adfdffff ffffffff  ................
 4800 00000000 00000000 89000000 0000f1ff  ................
 4810 01000000 00000000 00000000 00000000  ................
 4820 8f000000 0000f1ff ad0dad0b 00000000  ................
 4830 00000000 00000000 98000000 00000300  ................
 4840 08300080 00000000 00000000 00000000  .0..............
 4850 db060000 0000f1ff 40040000 00000000  ........@.......
 4860 00000000 00000000 a7000000 00000100  ................
 4870 40040080 00000000 00000000 00000000  @...............
 4880 ae000000 00000100 98040080 00000000  ................
 4890 00000000 00000000 b5000000 00000100  ................
 48a0 b8040080 00000000 00000000 00000000  ................
 48b0 bc000000 00000100 e4040080 00000000  ................
 48c0 00000000 00000000 c3000000 00000100  ................
 48d0 04050080 00000000 00000000 00000000  ................
 48e0 ca000000 00000100 20050080 00000000  ........ .......
 48f0 00000000 00000000 d1000000 00000100  ................
 4900 40050080 00000000 00000000 00000000  @...............
 4910 d8000000 00000100 5c050080 00000000  ........\.......
 4920 00000000 00000000 df000000 00000100  ................
 4930 7c050080 00000000 00000000 00000000  |...............
 4940 e6000000 00000100 98050080 00000000  ................
 4950 00000000 00000000 ed000000 00000100  ................
 4960 b4050080 00000000 00000000 00000000  ................
 4970 f5000000 00000100 d0050080 00000000  ................
 4980 00000000 00000000 fd000000 00000100  ................
 4990 ec050080 00000000 00000000 00000000  ................
 49a0 05010000 00000100 08060080 00000000  ................
 49b0 00000000 00000000 0d010000 00000100  ................
 49c0 24060080 00000000 00000000 00000000  $...............
 49d0 15010000 00000100 40060080 00000000  ........@.......
 49e0 00000000 00000000 1d010000 00000100  ................
 49f0 5c060080 00000000 00000000 00000000  \...............
 4a00 25010000 00000100 78060080 00000000  %.......x.......
 4a10 00000000 00000000 2d010000 00000300  ........-.......
 4a20 98300080 00000000 00000000 00000000  .0..............
 4a30 3c010000 00000100 c0060080 00000000  <...............
 4a40 00000000 00000000 44010000 00000100  ........D.......
 4a50 dc060080 00000000 00000000 00000000  ................
 4a60 4c010000 00000100 fc060080 00000000  L...............
 4a70 00000000 00000000 54010000 00000100  ........T.......
 4a80 1c070080 00000000 00000000 00000000  ................
 4a90 5c010000 00000100 3c070080 00000000  \.......<.......
 4aa0 00000000 00000000 64010000 00000100  ........d.......
 4ab0 5c070080 00000000 00000000 00000000  \...............
 4ac0 6c010000 00000100 7c070080 00000000  l.......|.......
 4ad0 00000000 00000000 74010000 00000100  ........t.......
 4ae0 9c070080 00000000 00000000 00000000  ................
 4af0 7c010000 00000100 bc070080 00000000  |...............
 4b00 00000000 00000000 84010000 00000100  ................
 4b10 dc070080 00000000 00000000 00000000  ................
 4b20 8c010000 00000100 fc070080 00000000  ................
 4b30 00000000 00000000 94010000 00000100  ................
 4b40 1c080080 00000000 00000000 00000000  ................
 4b50 9c010000 00000100 3c080080 00000000  ........<.......
 4b60 00000000 00000000 a4010000 00000100  ................
 4b70 5c080080 00000000 00000000 00000000  \...............
 4b80 ac010000 00000100 7c080080 00000000  ........|.......
 4b90 00000000 00000000 b4010000 00000100  ................
 4ba0 9c080080 00000000 00000000 00000000  ................
 4bb0 bc010000 00000100 bc080080 00000000  ................
 4bc0 00000000 00000000 c4010000 00000100  ................
 4bd0 dc080080 00000000 00000000 00000000  ................
 4be0 cc010000 00000100 fc080080 00000000  ................
 4bf0 00000000 00000000 d4010000 00000100  ................
 4c00 1c090080 00000000 00000000 00000000  ................
 4c10 dc010000 00000100 3c090080 00000000  ........<.......
 4c20 00000000 00000000 e4010000 00000100  ................
 4c30 5c090080 00000000 00000000 00000000  \...............
 4c40 ec010000 00000100 7c090080 00000000  ........|.......
 4c50 00000000 00000000 f4010000 00000100  ................
 4c60 9c090080 00000000 00000000 00000000  ................
 4c70 fc010000 00000100 bc090080 00000000  ................
 4c80 00000000 00000000 04020000 00000100  ................
 4c90 dc090080 00000000 00000000 00000000  ................
 4ca0 0c020000 00000100 fc090080 00000000  ................
 4cb0 00000000 00000000 14020000 00000100  ................
 4cc0 1c0a0080 00000000 00000000 00000000  ................
 4cd0 1c020000 00000100 3c0a0080 00000000  ........<.......
 4ce0 00000000 00000000 24020000 00000100  ........$.......
 4cf0 5c0a0080 00000000 00000000 00000000  \...............
 4d00 2c020000 00000100 7c0a0080 00000000  ,.......|.......
 4d10 00000000 00000000 34020000 00000100  ........4.......
 4d20 9c0a0080 00000000 00000000 00000000  ................
 4d30 3c020000 00000100 bc0a0080 00000000  <...............
 4d40 00000000 00000000 44020000 00000100  ........D.......
 4d50 dc0a0080 00000000 00000000 00000000  ................
 4d60 4c020000 00000100 fc0a0080 00000000  L...............
 4d70 00000000 00000000 54020000 00000100  ........T.......
 4d80 1c0b0080 00000000 00000000 00000000  ................
 4d90 5c020000 00000100 3c0b0080 00000000  \.......<.......
 4da0 00000000 00000000 64020000 00000100  ........d.......
 4db0 5c0b0080 00000000 00000000 00000000  \...............
 4dc0 6c020000 00000100 7c0b0080 00000000  l.......|.......
 4dd0 00000000 00000000 74020000 00000100  ........t.......
 4de0 9c0b0080 00000000 00000000 00000000  ................
 4df0 7c020000 00000100 bc0b0080 00000000  |...............
 4e00 00000000 00000000 84020000 00000100  ................
 4e10 dc0b0080 00000000 00000000 00000000  ................
 4e20 8c020000 00000100 fc0b0080 00000000  ................
 4e30 00000000 00000000 94020000 00000100  ................
 4e40 1c0c0080 00000000 00000000 00000000  ................
 4e50 9c020000 00000100 3c0c0080 00000000  ........<.......
 4e60 00000000 00000000 a4020000 00000100  ................
 4e70 5c0c0080 00000000 00000000 00000000  \...............
 4e80 ac020000 00000100 7c0c0080 00000000  ........|.......
 4e90 00000000 00000000 b4020000 00000100  ................
 4ea0 9c0c0080 00000000 00000000 00000000  ................
 4eb0 bc020000 00000100 bc0c0080 00000000  ................
 4ec0 00000000 00000000 c4020000 00000100  ................
 4ed0 dc0c0080 00000000 00000000 00000000  ................
 4ee0 cc020000 00000100 fc0c0080 00000000  ................
 4ef0 00000000 00000000 d4020000 00000100  ................
 4f00 1c0d0080 00000000 00000000 00000000  ................
 4f10 dc020000 00000100 3c0d0080 00000000  ........<.......
 4f20 00000000 00000000 e4020000 00000100  ................
 4f30 580d0080 00000000 00000000 00000000  X...............
 4f40 ec020000 00000100 780d0080 00000000  ........x.......
 4f50 00000000 00000000 f4020000 00000100  ................
 4f60 980d0080 00000000 00000000 00000000  ................
 4f70 fc020000 00000100 b80d0080 00000000  ................
 4f80 00000000 00000000 04030000 00000100  ................
 4f90 d80d0080 00000000 00000000 00000000  ................
 4fa0 0c030000 00000100 f40d0080 00000000  ................
 4fb0 00000000 00000000 14030000 00000100  ................
 4fc0 100e0080 00000000 00000000 00000000  ................
 4fd0 1c030000 00000100 300e0080 00000000  ........0.......
 4fe0 00000000 00000000 24030000 00000100  ........$.......
 4ff0 500e0080 00000000 00000000 00000000  P...............
 5000 2c030000 00000100 700e0080 00000000  ,.......p.......
 5010 00000000 00000000 34030000 00000100  ........4.......
 5020 980e0080 00000000 00000000 00000000  ................
 5030 3c030000 00000100 c00e0080 00000000  <...............
 5040 00000000 00000000 44030000 00000100  ........D.......
 5050 e80e0080 00000000 00000000 00000000  ................
 5060 4c030000 00000100 100f0080 00000000  L...............
 5070 00000000 00000000 54030000 00000100  ........T.......
 5080 380f0080 00000000 00000000 00000000  8...............
 5090 5c030000 00000100 600f0080 00000000  \.......`.......
 50a0 00000000 00000000 64030000 00000100  ........d.......
 50b0 880f0080 00000000 00000000 00000000  ................
 50c0 6c030000 00000100 b00f0080 00000000  l...............
 50d0 00000000 00000000 74030000 00000100  ........t.......
 50e0 d80f0080 00000000 00000000 00000000  ................
 50f0 7c030000 00000100 fc0f0080 00000000  |...............
 5100 00000000 00000000 84030000 00000100  ................
 5110 20100080 00000000 00000000 00000000   ...............
 5120 8c030000 00000100 48100080 00000000  ........H.......
 5130 00000000 00000000 94030000 00000100  ................
 5140 70100080 00000000 00000000 00000000  p...............
 5150 9c030000 00000100 94100080 00000000  ................
 5160 00000000 00000000 a4030000 00000100  ................
 5170 bc100080 00000000 00000000 00000000  ................
 5180 ac030000 00000100 e4100080 00000000  ................
 5190 00000000 00000000 b4030000 00000100  ................
 51a0 08110080 00000000 00000000 00000000  ................
 51b0 bc030000 00000100 44110080 00000000  ........D.......
 51c0 00000000 00000000 c4030000 00000100  ................
 51d0 80110080 00000000 00000000 00000000  ................
 51e0 cc030000 00000100 9c110080 00000000  ................
 51f0 00000000 00000000 d5030000 00000100  ................
 5200 b8110080 00000000 00000000 00000000  ................
 5210 de030000 00000100 f4110080 00000000  ................
 5220 00000000 00000000 e7030000 00000100  ................
 5230 2c120080 00000000 00000000 00000000  ,...............
 5240 f0030000 00000100 68120080 00000000  ........h.......
 5250 00000000 00000000 f9030000 00000100  ................
 5260 a4120080 00000000 00000000 00000000  ................
 5270 02040000 00000100 e0120080 00000000  ................
 5280 00000000 00000000 0b040000 00000100  ................
 5290 1c130080 00000000 00000000 00000000  ................
 52a0 14040000 00000100 54130080 00000000  ........T.......
 52b0 00000000 00000000 1d040000 00000100  ................
 52c0 90130080 00000000 00000000 00000000  ................
 52d0 26040000 00000100 c8130080 00000000  &...............
 52e0 00000000 00000000 2f040000 00000100  ......../.......
 52f0 e4130080 00000000 00000000 00000000  ................
 5300 38040000 00000100 20140080 00000000  8....... .......
 5310 00000000 00000000 41040000 00000100  ........A.......
 5320 5c140080 00000000 00000000 00000000  \...............
 5330 4a040000 00000100 94140080 00000000  J...............
 5340 00000000 00000000 53040000 00000100  ........S.......
 5350 cc140080 00000000 00000000 00000000  ................
 5360 5c040000 00000100 f4140080 00000000  \...............
 5370 00000000 00000000 65040000 00000100  ........e.......
 5380 1c150080 00000000 00000000 00000000  ................
 5390 6e040000 00000100 40150080 00000000  n.......@.......
 53a0 00000000 00000000 77040000 00000100  ........w.......
 53b0 68150080 00000000 00000000 00000000  h...............
 53c0 80040000 00000100 90150080 00000000  ................
 53d0 00000000 00000000 89040000 00000100  ................
 53e0 b8150080 00000000 00000000 00000000  ................
 53f0 92040000 00000100 dc150080 00000000  ................
 5400 00000000 00000000 9b040000 00000100  ................
 5410 04160080 00000000 00000000 00000000  ................
 5420 a4040000 00000100 2c160080 00000000  ........,.......
 5430 00000000 00000000 ad040000 00000100  ................
 5440 54160080 00000000 00000000 00000000  T...............
 5450 b6040000 00000100 78160080 00000000  ........x.......
 5460 00000000 00000000 bf040000 00000100  ................
 5470 a0160080 00000000 00000000 00000000  ................
 5480 c8040000 00000100 c8160080 00000000  ................
 5490 00000000 00000000 d1040000 00000100  ................
 54a0 ec160080 00000000 00000000 00000000  ................
 54b0 da040000 00000100 14170080 00000000  ................
 54c0 00000000 00000000 e3040000 00000100  ................
 54d0 38170080 00000000 00000000 00000000  8...............
 54e0 ec040000 00000100 5c170080 00000000  ........\.......
 54f0 00000000 00000000 f5040000 00000100  ................
 5500 84170080 00000000 00000000 00000000  ................
 5510 fe040000 00000100 ac170080 00000000  ................
 5520 00000000 00000000 07050000 00000100  ................
 5530 d4170080 00000000 00000000 00000000  ................
 5540 10050000 00000100 fc170080 00000000  ................
 5550 00000000 00000000 19050000 00000100  ................
 5560 20180080 00000000 00000000 00000000   ...............
 5570 22050000 00000100 44180080 00000000  ".......D.......
 5580 00000000 00000000 2b050000 00000100  ........+.......
 5590 6c180080 00000000 00000000 00000000  l...............
 55a0 34050000 00000100 94180080 00000000  4...............
 55b0 00000000 00000000 3d050000 00000100  ........=.......
 55c0 bc180080 00000000 00000000 00000000  ................
 55d0 46050000 00000100 e4180080 00000000  F...............
 55e0 00000000 00000000 4f050000 00000100  ........O.......
 55f0 0c190080 00000000 00000000 00000000  ................
 5600 58050000 00000100 34190080 00000000  X.......4.......
 5610 00000000 00000000 61050000 00000100  ........a.......
 5620 5c190080 00000000 00000000 00000000  \...............
 5630 6a050000 00000100 80190080 00000000  j...............
 5640 00000000 00000000 73050000 00000100  ........s.......
 5650 a8190080 00000000 00000000 00000000  ................
 5660 7c050000 00000100 d0190080 00000000  |...............
 5670 00000000 00000000 85050000 00000100  ................
 5680 f8190080 00000000 00000000 00000000  ................
 5690 8e050000 00000100 341a0080 00000000  ........4.......
 56a0 00000000 00000000 97050000 00000100  ................
 56b0 581a0080 00000000 00000000 00000000  X...............
 56c0 a0050000 00000100 741a0080 00000000  ........t.......
 56d0 00000000 00000000 a9050000 00000100  ................
 56e0 941a0080 00000000 00000000 00000000  ................
 56f0 b2050000 00000100 e81a0080 00000000  ................
 5700 00000000 00000000 bf050000 00000100  ................
 5710 b41a0080 00000000 00000000 00000000  ................
 5720 cb050000 00000300 00200080 00000000  ......... ......
 5730 00000000 00000000 d7050000 00000300  ................
 5740 10200080 00000000 00000000 00000000  . ..............
 5750 e4050000 00000300 00300080 00000000  .........0......
 5760 00000000 00000000 f5050000 00000300  ................
 5770 00300080 00000000 00000000 00000000  .0..............
 5780 06060000 00000300 08300080 00000000  .........0......
 5790 00000000 00000000 15060000 00000300  ................
 57a0 d8340080 00000000 00000000 00000000  .4..............
 57b0 24060000 00000300 e0340080 00000000  $........4......
 57c0 00000000 00000000 33060000 0400f1ff  ........3.......
 57d0 00000000 00000000 00000000 00000000  ................
 57e0 09000000 00000100 0c1b0080 00000000  ................
 57f0 00000000 00000000 09000000 00000100  ................
 5800 181b0080 00000000 00000000 00000000  ................
 5810 39060000 01000200 381b0080 00000000  9.......8.......
 5820 01000000 00000000 42060000 12020100  ........B.......
 5830 24000080 00000000 0c000000 00000000  $...............
 5840 4f060000 12020100 181b0080 00000000  O...............
 5850 20000000 00000000 59060000 10000300   .......Y.......
 5860 00c00080 00000000 00000000 00000000  ................
 5870 68060000 10000300 e0340080 00000000  h........4......
 5880 00000000 00000000 76060000 10000100  ........v.......
 5890 381b0080 00000000 00000000 00000000  8...............
 58a0 7d060000 1000f1ff 00000080 00000000  }...............
 58b0 00000000 00000000 89060000 10000300  ................
 58c0 e0340080 00000000 00000000 00000000  .4..............
 58d0 94060000 10000300 e0340080 00000000  .........4......
 58e0 00000000 00000000 9a060000 10000300  ................
 58f0 00c00080 00000000 00000000 00000000  ................
 5900 a6060000 10000300 00400080 00000000  .........@......
 5910 00000000 00000000 b1060000 10000100  ................
 5920 40000080 00000000 00000000 00000000  @...............
 5930 33070000 10000300 00c00080 00000000  3...............
 5940 00000000 00000000 77060000 10000100  ........w.......
 5950 381b0080 00000000 00000000 00000000  8...............
 5960 c4060000 10000300 00300080 00000000  .........0......
 5970 00000000 00000000 82060000 12000100  ................
 5980 00000080 00000000 00000000 00000000  ................
 5990 d4060000 1000f1ff 00000000 00000000  ................
 59a0 00000000 00000000 e2060000 10000100  ................
 59b0 40000080 00000000 00000000 00000000  @...............
 59c0 ee060000 10000100 b01a0080 00000000  ................
 59d0 00000000 00000000 fe060000 10000100  ................
 59e0 20040080 00000000 00000000 00000000   ...............
 59f0 10070000 12020100 10000080 00000000  ................
 5a00 14000000 00000000 15070000 10000300  ................
 5a10 00200080 00000000 00000000 00000000  . ..............
 5a20 27070000 10000300 00300080 00000000  '........0......
 5a30 00000000 00000000 d1050000 10000300  ................
 5a40 e0340080 00000000 00000000 00000000  .4..............
 5a50 37070000 10000100 b01a0080 00000000  7...............
 5a60 00000000 00000000 32070000 10000300  ........2.......
 5a70 00c00080 00000000 00000000 00000000  ................
 5a80 47070000 12020100 0c1b0080 00000000  G...............
 5a90 0c000000 00000000 00737461 72742e6f  .........start.o
 5aa0 00247800 6d61696e 2e630073 726c772d  .$x.main.c.srlw-
 5ab0 30312e6f 004d4d4f 44455f53 49470053  01.o.MMODE_SIG.S
 5ac0 4d4f4445 5f534947 00564d4f 44455f53  MODE_SIG.VMODE_S
 5ad0 49470069 6d6d7800 65646765 31006564  IG.immx.edge1.ed
 5ae0 67653200 666e6431 00666e64 3200696d  ge2.fnd1.fnd2.im
 5af0 6d650070 6f730061 6273696d 6d006372  me.pos.absimm.cr
 5b00 7900696d 6d313200 6576656e 00637279  y.imm12.even.cry
 5b10 6800696d 6d787368 00696d6d 31327368  h.immxsh.imm12sh
 5b20 00637279 73680061 6273696d 6d736800  .crysh.absimmsh.
 5b30 7369676e 61747572 655f7838 5f310069  signature_x8_1.i
 5b40 6e73745f 3000696e 73745f31 00696e73  nst_0.inst_1.ins
 5b50 745f3200 696e7374 5f330069 6e73745f  t_2.inst_3.inst_
 5b60 3400696e 73745f35 00696e73 745f3600  4.inst_5.inst_6.
 5b70 696e7374 5f370069 6e73745f 3800696e  inst_7.inst_8.in
 5b80 73745f39 00696e73 745f3130 00696e73  st_9.inst_10.ins
 5b90 745f3131 00696e73 745f3132 00696e73  t_11.inst_12.ins
 5ba0 745f3133 00696e73 745f3134 00696e73  t_13.inst_14.ins
 5bb0 745f3135 00696e73 745f3136 00696e73  t_15.inst_16.ins
 5bc0 745f3137 00736967 6e617475 72655f78  t_17.signature_x
 5bd0 345f3000 696e7374 5f313800 696e7374  4_0.inst_18.inst
 5be0 5f313900 696e7374 5f323000 696e7374  _19.inst_20.inst
 5bf0 5f323100 696e7374 5f323200 696e7374  _21.inst_22.inst
 5c00 5f323300 696e7374 5f323400 696e7374  _23.inst_24.inst
 5c10 5f323500 696e7374 5f323600 696e7374  _25.inst_26.inst
 5c20 5f323700 696e7374 5f323800 696e7374  _27.inst_28.inst
 5c30 5f323900 696e7374 5f333000 696e7374  _29.inst_30.inst
 5c40 5f333100 696e7374 5f333200 696e7374  _31.inst_32.inst
 5c50 5f333300 696e7374 5f333400 696e7374  _33.inst_34.inst
 5c60 5f333500 696e7374 5f333600 696e7374  _35.inst_36.inst
 5c70 5f333700 696e7374 5f333800 696e7374  _37.inst_38.inst
 5c80 5f333900 696e7374 5f343000 696e7374  _39.inst_40.inst
 5c90 5f343100 696e7374 5f343200 696e7374  _41.inst_42.inst
 5ca0 5f343300 696e7374 5f343400 696e7374  _43.inst_44.inst
 5cb0 5f343500 696e7374 5f343600 696e7374  _45.inst_46.inst
 5cc0 5f343700 696e7374 5f343800 696e7374  _47.inst_48.inst
 5cd0 5f343900 696e7374 5f353000 696e7374  _49.inst_50.inst
 5ce0 5f353100 696e7374 5f353200 696e7374  _51.inst_52.inst
 5cf0 5f353300 696e7374 5f353400 696e7374  _53.inst_54.inst
 5d00 5f353500 696e7374 5f353600 696e7374  _55.inst_56.inst
 5d10 5f353700 696e7374 5f353800 696e7374  _57.inst_58.inst
 5d20 5f353900 696e7374 5f363000 696e7374  _59.inst_60.inst
 5d30 5f363100 696e7374 5f363200 696e7374  _61.inst_62.inst
 5d40 5f363300 696e7374 5f363400 696e7374  _63.inst_64.inst
 5d50 5f363500 696e7374 5f363600 696e7374  _65.inst_66.inst
 5d60 5f363700 696e7374 5f363800 696e7374  _67.inst_68.inst
 5d70 5f363900 696e7374 5f373000 696e7374  _69.inst_70.inst
 5d80 5f373100 696e7374 5f373200 696e7374  _71.inst_72.inst
 5d90 5f373300 696e7374 5f373400 696e7374  _73.inst_74.inst
 5da0 5f373500 696e7374 5f373600 696e7374  _75.inst_76.inst
 5db0 5f373700 696e7374 5f373800 696e7374  _77.inst_78.inst
 5dc0 5f373900 696e7374 5f383000 696e7374  _79.inst_80.inst
 5dd0 5f383100 696e7374 5f383200 696e7374  _81.inst_82.inst
 5de0 5f383300 696e7374 5f383400 696e7374  _83.inst_84.inst
 5df0 5f383500 696e7374 5f383600 696e7374  _85.inst_86.inst
 5e00 5f383700 696e7374 5f383800 696e7374  _87.inst_88.inst
 5e10 5f383900 696e7374 5f393000 696e7374  _89.inst_90.inst
 5e20 5f393100 696e7374 5f393200 696e7374  _91.inst_92.inst
 5e30 5f393300 696e7374 5f393400 696e7374  _93.inst_94.inst
 5e40 5f393500 696e7374 5f393600 696e7374  _95.inst_96.inst
 5e50 5f393700 696e7374 5f393800 696e7374  _97.inst_98.inst
 5e60 5f393900 696e7374 5f313030 00696e73  _99.inst_100.ins
 5e70 745f3130 3100696e 73745f31 30320069  t_101.inst_102.i
 5e80 6e73745f 31303300 696e7374 5f313034  nst_103.inst_104
 5e90 00696e73 745f3130 3500696e 73745f31  .inst_105.inst_1
 5ea0 30360069 6e73745f 31303700 696e7374  06.inst_107.inst
 5eb0 5f313038 00696e73 745f3130 3900696e  _108.inst_109.in
 5ec0 73745f31 31300069 6e73745f 31313100  st_110.inst_111.
 5ed0 696e7374 5f313132 00696e73 745f3131  inst_112.inst_11
 5ee0 3300696e 73745f31 31340069 6e73745f  3.inst_114.inst_
 5ef0 31313500 696e7374 5f313136 00696e73  115.inst_116.ins
 5f00 745f3131 3700696e 73745f31 31380069  t_117.inst_118.i
 5f10 6e73745f 31313900 696e7374 5f313230  nst_119.inst_120
 5f20 00696e73 745f3132 3100696e 73745f31  .inst_121.inst_1
 5f30 32320069 6e73745f 31323300 696e7374  22.inst_123.inst
 5f40 5f313234 00696e73 745f3132 3500696e  _124.inst_125.in
 5f50 73745f31 32360069 6e73745f 31323700  st_126.inst_127.
 5f60 696e7374 5f313238 00696e73 745f3132  inst_128.inst_12
 5f70 3900696e 73745f31 33300069 6e73745f  9.inst_130.inst_
 5f80 31333100 696e7374 5f313332 00696e73  131.inst_132.ins
 5f90 745f3133 3300696e 73745f31 33340069  t_133.inst_134.i
 5fa0 6e73745f 31333500 696e7374 5f313336  nst_135.inst_136
 5fb0 00696e73 745f3133 3700696e 73745f31  .inst_137.inst_1
 5fc0 33380069 6e73745f 31333900 696e7374  38.inst_139.inst
 5fd0 5f313430 00696e73 745f3134 3100696e  _140.inst_141.in
 5fe0 73745f31 34320069 6e73745f 31343300  st_142.inst_143.
 5ff0 696e7374 5f313434 00696e73 745f3134  inst_144.inst_14
 6000 3500696e 73745f31 34360069 6e73745f  5.inst_146.inst_
 6010 31343700 696e7374 5f313438 00696e73  147.inst_148.ins
 6020 745f3134 3900696e 73745f31 35300069  t_149.inst_150.i
 6030 6e73745f 31353100 696e7374 5f313532  nst_151.inst_152
 6040 00696e73 745f3135 33006578 69745f63  .inst_153.exit_c
 6050 6c65616e 75700061 626f7274 5f746573  leanup.abort_tes
 6060 74730072 76746573 745f6461 7461006d  ts.rvtest_data.m
 6070 74726170 5f736967 70747200 72767465  trap_sigptr.rvte
 6080 73745f73 69675f62 6567696e 00736967  st_sig_begin.sig
 6090 5f626567 696e5f63 616e6172 79007369  _begin_canary.si
 60a0 676e6174 7572655f 78385f30 00736967  gnature_x8_0.sig
 60b0 5f656e64 5f63616e 61727900 72767465  _end_canary.rvte
 60c0 73745f73 69675f65 6e640074 726d2e63  st_sig_end.trm.c
 60d0 006d6169 6e617267 73007276 74657374  .mainargs.rvtest
 60e0 5f657272 6f72005f 74726d5f 696e6974  _error._trm_init
 60f0 005f7374 61636b5f 706f696e 74657200  ._stack_pointer.
 6100 656e645f 7369676e 61747572 65005f65  end_signature._e
 6110 74657874 005f706d 656d5f73 74617274  text._pmem_start
 6120 005f6273 735f7374 61727400 65646174  ._bss_start.edat
 6130 61005f68 6561705f 73746172 74005f73  a._heap_start._s
 6140 7461636b 5f746f70 00727674 6573745f  tack_top.rvtest_
 6150 656e7472 795f706f 696e7400 62656769  entry_point.begi
 6160 6e5f7369 676e6174 75726500 5f656e74  n_signature._ent
 6170 72795f6f 66667365 74007276 74657374  ry_offset.rvtest
 6180 5f696e69 74007276 74657374 5f636f64  _init.rvtest_cod
 6190 655f656e 64007276 74657374 5f636f64  e_end.rvtest_cod
 61a0 655f6265 67696e00 6d61696e 00727674  e_begin.main.rvt
 61b0 6573745f 64617461 5f626567 696e0072  est_data_begin.r
 61c0 76746573 745f6461 74615f65 6e640063  vtest_data_end.c
 61d0 6c65616e 75705f65 70696c6f 67730068  leanup_epilogs.h
 61e0 616c7400 002e7379 6d746162 002e7374  alt...symtab..st
 61f0 72746162 002e7368 73747274 6162002e  rtab..shstrtab..
 6200 74657874 002e7372 6f646174 612e6d61  text..srodata.ma
 6210 696e6172 6773002e 64617461 002e636f  inargs..data..co
 6220 6d6d656e 74002e72 69736376 2e617474  mment..riscv.att
 6230 72696275 74657300 00000000 00000000  ributes.........
 6240 00000000 00000000 00000000 00000000  ................
 6250 00000000 00000000 00000000 00000000  ................
 6260 00000000 00000000 00000000 00000000  ................
 6270 00000000 00000000 1b000000 01000000  ................
 6280 06000000 00000000 00000080 00000000  ................
 6290 00100000 00000000 381b0000 00000000  ........8.......
 62a0 00000000 00000000 20000000 00000000  ........ .......
 62b0 00000000 00000000 21000000 01000000  ........!.......
 62c0 02000000 00000000 381b0080 00000000  ........8.......
 62d0 382b0000 00000000 01000000 00000000  8+..............
 62e0 00000000 00000000 08000000 00000000  ................
 62f0 00000000 00000000 33000000 01000000  ........3.......
 6300 03000000 00000000 00200080 00000000  ......... ......
 6310 00300000 00000000 e0140000 00000000  .0..............
 6320 00000000 00000000 00100000 00000000  ................
 6330 00000000 00000000 39000000 01000000  ........9.......
 6340 30000000 00000000 00000000 00000000  0...............
 6350 e0440000 00000000 26000000 00000000  .D......&.......
 6360 00000000 00000000 01000000 00000000  ................
 6370 01000000 00000000 42000000 03000070  ........B......p
 6380 00000000 00000000 00000000 00000000  ................
 6390 06450000 00000000 2e000000 00000000  .E..............
 63a0 00000000 00000000 01000000 00000000  ................
 63b0 00000000 00000000 01000000 02000000  ................
 63c0 00000000 00000000 00000000 00000000  ................
 63d0 38450000 00000000 60150000 00000000  8E......`.......
 63e0 07000000 ca000000 08000000 00000000  ................
 63f0 18000000 00000000 09000000 03000000  ................
 6400 00000000 00000000 00000000 00000000  ................
 6410 985a0000 00000000 4c070000 00000000  .Z......L.......
 6420 00000000 00000000 01000000 00000000  ................
 6430 00000000 00000000 11000000 03000000  ................
 6440 00000000 00000000 00000000 00000000  ................
 6450 e4610000 00000000 54000000 00000000  .a......T.......
 6460 00000000 00000000 01000000 00000000  ................
 6470 00000000 00000000                    ........        

Disassembly of section .data:

0000000000001000 <.data+0x1000>:
    1000:	00000413          	addi	x8,x0,0
    1004:	0000c117          	auipc	x2,0xc
    1008:	ffc10113          	addi	x2,x2,-4 # 0xd000
    100c:	30d010ef          	jal	x1,0x2b18
    1010:	030000ef          	jal	x1,0x1040
    1014:	00100513          	addi	x10,x0,1
    1018:	2f5010ef          	jal	x1,0x2b0c
    101c:	00000513          	addi	x10,x0,0
    1020:	00008067          	jalr	x0,0(x1)
    1024:	00100513          	addi	x10,x0,1
    1028:	2e5010ef          	jal	x1,0x2b0c
    102c:	00008067          	jalr	x0,0(x1)
	...
    1040:	feedc0b7          	lui	x1,0xfeedc
    1044:	ead08093          	addi	x1,x1,-339 # 0xfffffffffeedbead
    1048:	00b09093          	slli	x1,x1,0xb
    104c:	7f708093          	addi	x1,x1,2039
    1050:	00b09093          	slli	x1,x1,0xb
    1054:	36f08093          	addi	x1,x1,879
    1058:	00a09093          	slli	x1,x1,0xa
    105c:	2ad08093          	addi	x1,x1,685
    1060:	ff76e137          	lui	x2,0xff76e
    1064:	f5610113          	addi	x2,x2,-170 # 0xffffffffff76df56
    1068:	00b11113          	slli	x2,x2,0xb
    106c:	7fb10113          	addi	x2,x2,2043
    1070:	00b11113          	slli	x2,x2,0xb
    1074:	5b710113          	addi	x2,x2,1463
    1078:	00a11113          	slli	x2,x2,0xa
    107c:	35610113          	addi	x2,x2,854
    1080:	7fbb71b7          	lui	x3,0x7fbb7
    1084:	fab18193          	addi	x3,x3,-85 # 0x7fbb6fab
    1088:	00b19193          	slli	x3,x3,0xb
    108c:	3fd18193          	addi	x3,x3,1021
    1090:	00b19193          	slli	x3,x3,0xb
    1094:	6db18193          	addi	x3,x3,1755
    1098:	00a19193          	slli	x3,x3,0xa
    109c:	3ab18193          	addi	x3,x3,939
    10a0:	bfddb237          	lui	x4,0xbfddb
    10a4:	7d520213          	addi	x4,x4,2005 # 0xffffffffbfddb7d5
    10a8:	00b21213          	slli	x4,x4,0xb
    10ac:	5fe20213          	addi	x4,x4,1534 # 0x5fe
    10b0:	00b21213          	slli	x4,x4,0xb
    10b4:	76d20213          	addi	x4,x4,1901 # 0x76d
    10b8:	00a21213          	slli	x4,x4,0xa
    10bc:	3d520213          	addi	x4,x4,981 # 0x3d5
    10c0:	dfeee2b7          	lui	x5,0xdfeee
    10c4:	bea28293          	addi	x5,x5,-1046 # 0xffffffffdfeedbea
    10c8:	00b29293          	slli	x5,x5,0xb
    10cc:	6ff28293          	addi	x5,x5,1791
    10d0:	00b29293          	slli	x5,x5,0xb
    10d4:	3b628293          	addi	x5,x5,950
    10d8:	00a29293          	slli	x5,x5,0xa
    10dc:	3ea28293          	addi	x5,x5,1002
    10e0:	6ff77337          	lui	x6,0x6ff77
    10e4:	df530313          	addi	x6,x6,-523 # 0x6ff76df5
    10e8:	00b31313          	slli	x6,x6,0xb
    10ec:	37f30313          	addi	x6,x6,895
    10f0:	00b31313          	slli	x6,x6,0xb
    10f4:	5db30313          	addi	x6,x6,1499
    10f8:	00a31313          	slli	x6,x6,0xa
    10fc:	1f530313          	addi	x6,x6,501
    1100:	b7fbb3b7          	lui	x7,0xb7fbb
    1104:	6fa38393          	addi	x7,x7,1786 # 0xffffffffb7fbb6fa
    1108:	00b39393          	slli	x7,x7,0xb
    110c:	5bf38393          	addi	x7,x7,1471
    1110:	00b39393          	slli	x7,x7,0xb
    1114:	6ed38393          	addi	x7,x7,1773
    1118:	00a39393          	slli	x7,x7,0xa
    111c:	2fa38393          	addi	x7,x7,762
    1120:	5bfde437          	lui	x8,0x5bfde
    1124:	b7d40413          	addi	x8,x8,-1155 # 0x5bfddb7d
    1128:	00b41413          	slli	x8,x8,0xb
    112c:	2df40413          	addi	x8,x8,735
    1130:	00b41413          	slli	x8,x8,0xb
    1134:	77640413          	addi	x8,x8,1910
    1138:	00a41413          	slli	x8,x8,0xa
    113c:	37d40413          	addi	x8,x8,893
    1140:	adfef4b7          	lui	x9,0xadfef
    1144:	dbe48493          	addi	x9,x9,-578 # 0xffffffffadfeedbe
    1148:	00b49493          	slli	x9,x9,0xb
    114c:	56f48493          	addi	x9,x9,1391
    1150:	00b49493          	slli	x9,x9,0xb
    1154:	7bb48493          	addi	x9,x9,1979
    1158:	00a49493          	slli	x9,x9,0xa
    115c:	1be48493          	addi	x9,x9,446
    1160:	56ff7537          	lui	x10,0x56ff7
    1164:	6df50513          	addi	x10,x10,1759 # 0x56ff76df
    1168:	00b51513          	slli	x10,x10,0xb
    116c:	2b750513          	addi	x10,x10,695
    1170:	00b51513          	slli	x10,x10,0xb
    1174:	7dd50513          	addi	x10,x10,2013
    1178:	00a51513          	slli	x10,x10,0xa
    117c:	2df50513          	addi	x10,x10,735
    1180:	ab7fc5b7          	lui	x11,0xab7fc
    1184:	b6f58593          	addi	x11,x11,-1169 # 0xffffffffab7fbb6f
    1188:	00b59593          	slli	x11,x11,0xb
    118c:	55b58593          	addi	x11,x11,1371
    1190:	00b59593          	slli	x11,x11,0xb
    1194:	7ee58593          	addi	x11,x11,2030
    1198:	00a59593          	slli	x11,x11,0xa
    119c:	36f58593          	addi	x11,x11,879
    11a0:	d5bfe637          	lui	x12,0xd5bfe
    11a4:	db760613          	addi	x12,x12,-585 # 0xffffffffd5bfddb7
    11a8:	00b61613          	slli	x12,x12,0xb
    11ac:	6ad60613          	addi	x12,x12,1709
    11b0:	00b61613          	slli	x12,x12,0xb
    11b4:	7f760613          	addi	x12,x12,2039
    11b8:	00a61613          	slli	x12,x12,0xa
    11bc:	1b760613          	addi	x12,x12,439
    11c0:	eadff6b7          	lui	x13,0xeadff
    11c4:	edb68693          	addi	x13,x13,-293 # 0xffffffffeadfeedb
    11c8:	00b69693          	slli	x13,x13,0xb
    11cc:	75668693          	addi	x13,x13,1878
    11d0:	00b69693          	slli	x13,x13,0xb
    11d4:	7fb68693          	addi	x13,x13,2043
    11d8:	00a69693          	slli	x13,x13,0xa
    11dc:	2db68693          	addi	x13,x13,731
    11e0:	f56ff737          	lui	x14,0xf56ff
    11e4:	76d70713          	addi	x14,x14,1901 # 0xfffffffff56ff76d
    11e8:	00b71713          	slli	x14,x14,0xb
    11ec:	7ab70713          	addi	x14,x14,1963
    11f0:	00b71713          	slli	x14,x14,0xb
    11f4:	3fd70713          	addi	x14,x14,1021
    11f8:	00a71713          	slli	x14,x14,0xa
    11fc:	36d70713          	addi	x14,x14,877
    1200:	fab807b7          	lui	x15,0xfab80
    1204:	bb678793          	addi	x15,x15,-1098 # 0xfffffffffab7fbb6
    1208:	00b79793          	slli	x15,x15,0xb
    120c:	7d578793          	addi	x15,x15,2005
    1210:	00b79793          	slli	x15,x15,0xb
    1214:	5fe78793          	addi	x15,x15,1534
    1218:	00a79793          	slli	x15,x15,0xa
    121c:	3b678793          	addi	x15,x15,950
    1220:	7d5c0837          	lui	x16,0x7d5c0
    1224:	ddb80813          	addi	x16,x16,-549 # 0x7d5bfddb
    1228:	00b81813          	slli	x16,x16,0xb
    122c:	3ea80813          	addi	x16,x16,1002
    1230:	00b81813          	slli	x16,x16,0xb
    1234:	6ff80813          	addi	x16,x16,1791
    1238:	00a81813          	slli	x16,x16,0xa
    123c:	1db80813          	addi	x16,x16,475
    1240:	beae08b7          	lui	x17,0xbeae0
    1244:	eed88893          	addi	x17,x17,-275 # 0xffffffffbeadfeed
    1248:	00b89893          	slli	x17,x17,0xb
    124c:	5f588893          	addi	x17,x17,1525
    1250:	00b89893          	slli	x17,x17,0xb
    1254:	37f88893          	addi	x17,x17,895
    1258:	00a89893          	slli	x17,x17,0xa
    125c:	2ed88893          	addi	x17,x17,749
    1260:	df570937          	lui	x18,0xdf570
    1264:	f7690913          	addi	x18,x18,-138 # 0xffffffffdf56ff76
    1268:	00b91913          	slli	x18,x18,0xb
    126c:	6fa90913          	addi	x18,x18,1786
    1270:	00b91913          	slli	x18,x18,0xb
    1274:	5bf90913          	addi	x18,x18,1471
    1278:	00a91913          	slli	x18,x18,0xa
    127c:	37690913          	addi	x18,x18,886
    1280:	6fab89b7          	lui	x19,0x6fab8
    1284:	fbb98993          	addi	x19,x19,-69 # 0x6fab7fbb
    1288:	00b99993          	slli	x19,x19,0xb
    128c:	37d98993          	addi	x19,x19,893
    1290:	00b99993          	slli	x19,x19,0xb
    1294:	2df98993          	addi	x19,x19,735
    1298:	00a99993          	slli	x19,x19,0xa
    129c:	3bb98993          	addi	x19,x19,955
    12a0:	b7d5ca37          	lui	x20,0xb7d5c
    12a4:	fdda0a13          	addi	x20,x20,-35 # 0xffffffffb7d5bfdd
    12a8:	00ba1a13          	slli	x20,x20,0xb
    12ac:	5bea0a13          	addi	x20,x20,1470
    12b0:	00ba1a13          	slli	x20,x20,0xb
    12b4:	56fa0a13          	addi	x20,x20,1391
    12b8:	00aa1a13          	slli	x20,x20,0xa
    12bc:	3dda0a13          	addi	x20,x20,989
    12c0:	dbeaeab7          	lui	x21,0xdbeae
    12c4:	feea8a93          	addi	x21,x21,-18 # 0xffffffffdbeadfee
    12c8:	00ba9a93          	slli	x21,x21,0xb
    12cc:	6dfa8a93          	addi	x21,x21,1759
    12d0:	00ba9a93          	slli	x21,x21,0xb
    12d4:	2b7a8a93          	addi	x21,x21,695
    12d8:	00aa9a93          	slli	x21,x21,0xa
    12dc:	3eea8a93          	addi	x21,x21,1006
    12e0:	6df57b37          	lui	x22,0x6df57
    12e4:	ff7b0b13          	addi	x22,x22,-9 # 0x6df56ff7
    12e8:	00bb1b13          	slli	x22,x22,0xb
    12ec:	36fb0b13          	addi	x22,x22,879
    12f0:	00bb1b13          	slli	x22,x22,0xb
    12f4:	55bb0b13          	addi	x22,x22,1371
    12f8:	00ab1b13          	slli	x22,x22,0xa
    12fc:	3f7b0b13          	addi	x22,x22,1015
    1300:	b6fabbb7          	lui	x23,0xb6fab
    1304:	7fbb8b93          	addi	x23,x23,2043 # 0xffffffffb6fab7fb
    1308:	00bb9b93          	slli	x23,x23,0xb
    130c:	5b7b8b93          	addi	x23,x23,1463
    1310:	00bb9b93          	slli	x23,x23,0xb
    1314:	6adb8b93          	addi	x23,x23,1709
    1318:	00ab9b93          	slli	x23,x23,0xa
    131c:	3fbb8b93          	addi	x23,x23,1019
    1320:	db7d6c37          	lui	x24,0xdb7d6
    1324:	bfdc0c13          	addi	x24,x24,-1027 # 0xffffffffdb7d5bfd
    1328:	00bc1c13          	slli	x24,x24,0xb
    132c:	6dbc0c13          	addi	x24,x24,1755
    1330:	00bc1c13          	slli	x24,x24,0xb
    1334:	756c0c13          	addi	x24,x24,1878
    1338:	00ac1c13          	slli	x24,x24,0xa
    133c:	3fdc0c13          	addi	x24,x24,1021
    1340:	edbebcb7          	lui	x25,0xedbeb
    1344:	dfec8c93          	addi	x25,x25,-514 # 0xffffffffedbeadfe
    1348:	00bc9c93          	slli	x25,x25,0xb
    134c:	76dc8c93          	addi	x25,x25,1901
    1350:	00bc9c93          	slli	x25,x25,0xb
    1354:	7abc8c93          	addi	x25,x25,1963
    1358:	00ac9c93          	slli	x25,x25,0xa
    135c:	1fec8c93          	addi	x25,x25,510
    1360:	76df5d37          	lui	x26,0x76df5
    1364:	6ffd0d13          	addi	x26,x26,1791 # 0x76df56ff
    1368:	00bd1d13          	slli	x26,x26,0xb
    136c:	3b6d0d13          	addi	x26,x26,950
    1370:	00bd1d13          	slli	x26,x26,0xb
    1374:	7d5d0d13          	addi	x26,x26,2005
    1378:	00ad1d13          	slli	x26,x26,0xa
    137c:	2ffd0d13          	addi	x26,x26,767
    1380:	bb6fbdb7          	lui	x27,0xbb6fb
    1384:	b7fd8d93          	addi	x27,x27,-1153 # 0xffffffffbb6fab7f
    1388:	00bd9d93          	slli	x27,x27,0xb
    138c:	5dbd8d93          	addi	x27,x27,1499
    1390:	00bd9d93          	slli	x27,x27,0xb
    1394:	3ead8d93          	addi	x27,x27,1002
    1398:	00ad9d93          	slli	x27,x27,0xa
    139c:	37fd8d93          	addi	x27,x27,895
    13a0:	ddb7de37          	lui	x28,0xddb7d
    13a4:	5bfe0e13          	addi	x28,x28,1471 # 0xffffffffddb7d5bf
    13a8:	00be1e13          	slli	x28,x28,0xb
    13ac:	6ede0e13          	addi	x28,x28,1773
    13b0:	00be1e13          	slli	x28,x28,0xb
    13b4:	5f5e0e13          	addi	x28,x28,1525
    13b8:	00ae1e13          	slli	x28,x28,0xa
    13bc:	1bfe0e13          	addi	x28,x28,447
    13c0:	eedbfeb7          	lui	x29,0xeedbf
    13c4:	adfe8e93          	addi	x29,x29,-1313 # 0xffffffffeedbeadf
    13c8:	00be9e93          	slli	x29,x29,0xb
    13cc:	776e8e93          	addi	x29,x29,1910
    13d0:	00be9e93          	slli	x29,x29,0xb
    13d4:	6fae8e93          	addi	x29,x29,1786
    13d8:	00ae9e93          	slli	x29,x29,0xa
    13dc:	2dfe8e93          	addi	x29,x29,735
    13e0:	f76dff37          	lui	x30,0xf76df
    13e4:	56ff0f13          	addi	x30,x30,1391 # 0xfffffffff76df56f
    13e8:	00bf1f13          	slli	x30,x30,0xb
    13ec:	7bbf0f13          	addi	x30,x30,1979
    13f0:	00bf1f13          	slli	x30,x30,0xb
    13f4:	37df0f13          	addi	x30,x30,893
    13f8:	00af1f13          	slli	x30,x30,0xa
    13fc:	16ff0f13          	addi	x30,x30,367
    1400:	fbb70fb7          	lui	x31,0xfbb70
    1404:	ab7f8f93          	addi	x31,x31,-1353 # 0xfffffffffbb6fab7
    1408:	00bf9f93          	slli	x31,x31,0xb
    140c:	7ddf8f93          	addi	x31,x31,2013
    1410:	00bf9f93          	slli	x31,x31,0xb
    1414:	5bef8f93          	addi	x31,x31,1470
    1418:	00af9f93          	slli	x31,x31,0xa
    141c:	2b7f8f93          	addi	x31,x31,695
    1420:	00003417          	auipc	x8,0x3
    1424:	be840413          	addi	x8,x8,-1048 # 0x4008
    1428:	00000013          	addi	x0,x0,0
    142c:	00000013          	addi	x0,x0,0
    1430:	00000013          	addi	x0,x0,0
    1434:	00000013          	addi	x0,x0,0
    1438:	00000013          	addi	x0,x0,0
    143c:	00000013          	addi	x0,x0,0
    1440:	000008b7          	lui	x17,0x0
    1444:	fff88893          	addi	x17,x17,-1 # 0xffffffffffffffff
    1448:	00b89893          	slli	x17,x17,0xb
    144c:	25788893          	addi	x17,x17,599
    1450:	00b89893          	slli	x17,x17,0xb
    1454:	6c388893          	addi	x17,x17,1731
    1458:	00a89893          	slli	x17,x17,0xa
    145c:	0cd88893          	addi	x17,x17,205
    1460:	000008b7          	lui	x17,0x0
    1464:	fff88893          	addi	x17,x17,-1 # 0xffffffffffffffff
    1468:	00b89893          	slli	x17,x17,0xb
    146c:	25788893          	addi	x17,x17,599
    1470:	00b89893          	slli	x17,x17,0xb
    1474:	6c388893          	addi	x17,x17,1731
    1478:	00a89893          	slli	x17,x17,0xa
    147c:	0cd88893          	addi	x17,x17,205
    1480:	0118dc3b          	srlw	x24,x17,x17
    1484:	01843023          	sd	x24,0(x8)
    1488:	00025537          	lui	x10,0x25
    148c:	7d85051b          	addiw	x10,x10,2008 # 0x257d8
    1490:	01850463          	beq	x10,x24,0x1498
    1494:	b91ff06f          	jal	x0,0x1024
    1498:	00100193          	addi	x3,x0,1
    149c:	03a19193          	slli	x3,x3,0x3a
    14a0:	00200613          	addi	x12,x0,2
    14a4:	00c1d63b          	srlw	x12,x3,x12
    14a8:	00c43423          	sd	x12,8(x8)
    14ac:	00000513          	addi	x10,x0,0
    14b0:	00c50463          	beq	x10,x12,0x14b8
    14b4:	b71ff06f          	jal	x0,0x1024
    14b8:	00100393          	addi	x7,x0,1
    14bc:	03439393          	slli	x7,x7,0x34
    14c0:	fff3c393          	xori	x7,x7,-1
    14c4:	00100393          	addi	x7,x0,1
    14c8:	03439393          	slli	x7,x7,0x34
    14cc:	fff3c393          	xori	x7,x7,-1
    14d0:	0073d3bb          	srlw	x7,x7,x7
    14d4:	00743823          	sd	x7,16(x8)
    14d8:	00100513          	addi	x10,x0,1
    14dc:	00750463          	beq	x10,x7,0x14e4
    14e0:	b45ff06f          	jal	x0,0x1024
    14e4:	00100493          	addi	x9,x0,1
    14e8:	02f49493          	slli	x9,x9,0x2f
    14ec:	00000793          	addi	x15,x0,0
    14f0:	00f4db3b          	srlw	x22,x9,x15
    14f4:	01643c23          	sd	x22,24(x8)
    14f8:	00000513          	addi	x10,x0,0
    14fc:	01650463          	beq	x10,x22,0x1504
    1500:	b25ff06f          	jal	x0,0x1024
    1504:	00700593          	addi	x11,x0,7
    1508:	00700213          	addi	x4,x0,7
    150c:	0045d5bb          	srlw	x11,x11,x4
    1510:	02b43023          	sd	x11,32(x8)
    1514:	00000513          	addi	x10,x0,0
    1518:	00b50463          	beq	x10,x11,0x1520
    151c:	b09ff06f          	jal	x0,0x1024
    1520:	fff00213          	addi	x4,x0,-1
    1524:	03f21213          	slli	x4,x4,0x3f
    1528:	00f00c13          	addi	x24,x0,15
    152c:	018250bb          	srlw	x1,x4,x24
    1530:	02143423          	sd	x1,40(x8)
    1534:	00000513          	addi	x10,x0,0
    1538:	00150463          	beq	x10,x1,0x1540
    153c:	ae9ff06f          	jal	x0,0x1024
    1540:	00000113          	addi	x2,x0,0
    1544:	01200913          	addi	x18,x0,18
    1548:	0121503b          	srlw	x0,x2,x18
    154c:	02043823          	sd	x0,48(x8)
    1550:	00000513          	addi	x10,x0,0
    1554:	00050463          	beq	x10,x0,0x155c
    1558:	acdff06f          	jal	x0,0x1024
    155c:	fff00a93          	addi	x21,x0,-1
    1560:	001ada93          	srli	x21,x21,0x1
    1564:	00000013          	addi	x0,x0,0
    1568:	000ad2bb          	srlw	x5,x21,x0
    156c:	02543c23          	sd	x5,56(x8)
    1570:	fff00513          	addi	x10,x0,-1
    1574:	00550463          	beq	x10,x5,0x157c
    1578:	aadff06f          	jal	x0,0x1024
    157c:	00100793          	addi	x15,x0,1
    1580:	00200493          	addi	x9,x0,2
    1584:	0097dabb          	srlw	x21,x15,x9
    1588:	05543023          	sd	x21,64(x8)
    158c:	00000513          	addi	x10,x0,0
    1590:	01550463          	beq	x10,x21,0x1598
    1594:	a91ff06f          	jal	x0,0x1024
    1598:	00200693          	addi	x13,x0,2
    159c:	01300f13          	addi	x30,x0,19
    15a0:	01e6d33b          	srlw	x6,x13,x30
    15a4:	04643423          	sd	x6,72(x8)
    15a8:	00000513          	addi	x10,x0,0
    15ac:	00650463          	beq	x10,x6,0x15b4
    15b0:	a75ff06f          	jal	x0,0x1024
    15b4:	00400b13          	addi	x22,x0,4
    15b8:	00e00a13          	addi	x20,x0,14
    15bc:	014b5bbb          	srlw	x23,x22,x20
    15c0:	05743823          	sd	x23,80(x8)
    15c4:	00000513          	addi	x10,x0,0
    15c8:	01750463          	beq	x10,x23,0x15d0
    15cc:	a59ff06f          	jal	x0,0x1024
    15d0:	00800613          	addi	x12,x0,8
    15d4:	01200d13          	addi	x26,x0,18
    15d8:	01a65e3b          	srlw	x28,x12,x26
    15dc:	05c43c23          	sd	x28,88(x8)
    15e0:	00000513          	addi	x10,x0,0
    15e4:	01c50463          	beq	x10,x28,0x15ec
    15e8:	a3dff06f          	jal	x0,0x1024
    15ec:	01000c13          	addi	x24,x0,16
    15f0:	01200f93          	addi	x31,x0,18
    15f4:	01fc513b          	srlw	x2,x24,x31
    15f8:	06243023          	sd	x2,96(x8)
    15fc:	00000513          	addi	x10,x0,0
    1600:	00250463          	beq	x10,x2,0x1608
    1604:	a21ff06f          	jal	x0,0x1024
    1608:	02000813          	addi	x16,x0,32
    160c:	01e00c93          	addi	x25,x0,30
    1610:	01985dbb          	srlw	x27,x16,x25
    1614:	07b43423          	sd	x27,104(x8)
    1618:	00000513          	addi	x10,x0,0
    161c:	01b50463          	beq	x10,x27,0x1624
    1620:	a05ff06f          	jal	x0,0x1024
    1624:	04000f93          	addi	x31,x0,64
    1628:	00800093          	addi	x1,x0,8
    162c:	001fd7bb          	srlw	x15,x31,x1
    1630:	06f43823          	sd	x15,112(x8)
    1634:	00000513          	addi	x10,x0,0
    1638:	00f50463          	beq	x10,x15,0x1640
    163c:	9e9ff06f          	jal	x0,0x1024
    1640:	00000013          	addi	x0,x0,0
    1644:	00d00293          	addi	x5,x0,13
    1648:	00505cbb          	srlw	x25,x0,x5
    164c:	07943c23          	sd	x25,120(x8)
    1650:	00000513          	addi	x10,x0,0
    1654:	01950463          	beq	x10,x25,0x165c
    1658:	9cdff06f          	jal	x0,0x1024
    165c:	10000d93          	addi	x27,x0,256
    1660:	01e00713          	addi	x14,x0,30
    1664:	00eddf3b          	srlw	x30,x27,x14
    1668:	09e43023          	sd	x30,128(x8)
    166c:	00000513          	addi	x10,x0,0
    1670:	01e50463          	beq	x10,x30,0x1678
    1674:	9b1ff06f          	jal	x0,0x1024
    1678:	20000313          	addi	x6,x0,512
    167c:	01b00993          	addi	x19,x0,27
    1680:	0133523b          	srlw	x4,x6,x19
    1684:	08443423          	sd	x4,136(x8)
    1688:	00000393          	addi	x7,x0,0
    168c:	00438463          	beq	x7,x4,0x1694
    1690:	995ff06f          	jal	x0,0x1024
    1694:	00000013          	addi	x0,x0,0
    1698:	00000013          	addi	x0,x0,0
    169c:	00000013          	addi	x0,x0,0
    16a0:	00003217          	auipc	x4,0x3
    16a4:	9f820213          	addi	x4,x4,-1544 # 0x4098
    16a8:	00000013          	addi	x0,x0,0
    16ac:	00000013          	addi	x0,x0,0
    16b0:	00000013          	addi	x0,x0,0
    16b4:	00000013          	addi	x0,x0,0
    16b8:	00000013          	addi	x0,x0,0
    16bc:	00000013          	addi	x0,x0,0
    16c0:	40000a13          	addi	x20,x0,1024
    16c4:	00500e13          	addi	x28,x0,5
    16c8:	01ca51bb          	srlw	x3,x20,x28
    16cc:	00323023          	sd	x3,0(x4) # 0x0
    16d0:	02000393          	addi	x7,x0,32
    16d4:	00338463          	beq	x7,x3,0x16dc
    16d8:	94dff06f          	jal	x0,0x1024
    16dc:	00100913          	addi	x18,x0,1
    16e0:	00b91913          	slli	x18,x18,0xb
    16e4:	00300593          	addi	x11,x0,3
    16e8:	00b95fbb          	srlw	x31,x18,x11
    16ec:	01f23423          	sd	x31,8(x4) # 0x8
    16f0:	10000393          	addi	x7,x0,256
    16f4:	01f38463          	beq	x7,x31,0x16fc
    16f8:	92dff06f          	jal	x0,0x1024
    16fc:	00100f13          	addi	x30,x0,1
    1700:	00cf1f13          	slli	x30,x30,0xc
    1704:	00e00113          	addi	x2,x0,14
    1708:	002f593b          	srlw	x18,x30,x2
    170c:	01223823          	sd	x18,16(x4) # 0x10
    1710:	00000393          	addi	x7,x0,0
    1714:	01238463          	beq	x7,x18,0x171c
    1718:	90dff06f          	jal	x0,0x1024
    171c:	00100993          	addi	x19,x0,1
    1720:	00d99993          	slli	x19,x19,0xd
    1724:	00900a93          	addi	x21,x0,9
    1728:	0159dd3b          	srlw	x26,x19,x21
    172c:	01a23c23          	sd	x26,24(x4) # 0x18
    1730:	01000393          	addi	x7,x0,16
    1734:	01a38463          	beq	x7,x26,0x173c
    1738:	8edff06f          	jal	x0,0x1024
    173c:	00100093          	addi	x1,x0,1
    1740:	00e09093          	slli	x1,x1,0xe
    1744:	00500e93          	addi	x29,x0,5
    1748:	01d0da3b          	srlw	x20,x1,x29
    174c:	03423023          	sd	x20,32(x4) # 0x20
    1750:	20000393          	addi	x7,x0,512
    1754:	01438463          	beq	x7,x20,0x175c
    1758:	8cdff06f          	jal	x0,0x1024
    175c:	00100c93          	addi	x25,x0,1
    1760:	00fc9c93          	slli	x25,x25,0xf
    1764:	01300b13          	addi	x22,x0,19
    1768:	016cd4bb          	srlw	x9,x25,x22
    176c:	02923423          	sd	x9,40(x4) # 0x28
    1770:	00000393          	addi	x7,x0,0
    1774:	00938463          	beq	x7,x9,0x177c
    1778:	8adff06f          	jal	x0,0x1024
    177c:	00100293          	addi	x5,x0,1
    1780:	01029293          	slli	x5,x5,0x10
    1784:	00e00313          	addi	x6,x0,14
    1788:	0062d6bb          	srlw	x13,x5,x6
    178c:	02d23823          	sd	x13,48(x4) # 0x30
    1790:	00400393          	addi	x7,x0,4
    1794:	00d38463          	beq	x7,x13,0x179c
    1798:	88dff06f          	jal	x0,0x1024
    179c:	00100d13          	addi	x26,x0,1
    17a0:	011d1d13          	slli	x26,x26,0x11
    17a4:	00200193          	addi	x3,x0,2
    17a8:	003d58bb          	srlw	x17,x26,x3
    17ac:	03123c23          	sd	x17,56(x4) # 0x38
    17b0:	000083b7          	lui	x7,0x8
    17b4:	01138463          	beq	x7,x17,0x17bc
    17b8:	86dff06f          	jal	x0,0x1024
    17bc:	00100513          	addi	x10,x0,1
    17c0:	01251513          	slli	x10,x10,0x12
    17c4:	00300693          	addi	x13,x0,3
    17c8:	00d5543b          	srlw	x8,x10,x13
    17cc:	04823023          	sd	x8,64(x4) # 0x40
    17d0:	000083b7          	lui	x7,0x8
    17d4:	00838463          	beq	x7,x8,0x17dc
    17d8:	84dff06f          	jal	x0,0x1024
    17dc:	00100b93          	addi	x23,x0,1
    17e0:	013b9b93          	slli	x23,x23,0x13
    17e4:	01f00513          	addi	x10,x0,31
    17e8:	00abd83b          	srlw	x16,x23,x10
    17ec:	05023423          	sd	x16,72(x4) # 0x48
    17f0:	00000393          	addi	x7,x0,0
    17f4:	01038463          	beq	x7,x16,0x17fc
    17f8:	82dff06f          	jal	x0,0x1024
    17fc:	00100e13          	addi	x28,x0,1
    1800:	014e1e13          	slli	x28,x28,0x14
    1804:	00500413          	addi	x8,x0,5
    1808:	008e553b          	srlw	x10,x28,x8
    180c:	04a23823          	sd	x10,80(x4) # 0x50
    1810:	000083b7          	lui	x7,0x8
    1814:	00a38463          	beq	x7,x10,0x181c
    1818:	80dff06f          	jal	x0,0x1024
    181c:	00100413          	addi	x8,x0,1
    1820:	01541413          	slli	x8,x8,0x15
    1824:	01200b93          	addi	x23,x0,18
    1828:	0174573b          	srlw	x14,x8,x23
    182c:	04e23c23          	sd	x14,88(x4) # 0x58
    1830:	00800393          	addi	x7,x0,8
    1834:	00e38463          	beq	x7,x14,0x183c
    1838:	fecff06f          	jal	x0,0x1024
    183c:	00100e93          	addi	x29,x0,1
    1840:	016e9e93          	slli	x29,x29,0x16
    1844:	00300813          	addi	x16,x0,3
    1848:	010ed9bb          	srlw	x19,x29,x16
    184c:	07323023          	sd	x19,96(x4) # 0x60
    1850:	000803b7          	lui	x7,0x80
    1854:	01338463          	beq	x7,x19,0x185c
    1858:	fccff06f          	jal	x0,0x1024
    185c:	00100713          	addi	x14,x0,1
    1860:	01771713          	slli	x14,x14,0x17
    1864:	00d00d93          	addi	x27,x0,13
    1868:	01b75ebb          	srlw	x29,x14,x27
    186c:	07d23423          	sd	x29,104(x4) # 0x68
    1870:	40000393          	addi	x7,x0,1024
    1874:	01d38463          	beq	x7,x29,0x187c
    1878:	facff06f          	jal	x0,0x1024
    187c:	00100513          	addi	x10,x0,1
    1880:	01851513          	slli	x10,x10,0x18
    1884:	01e00593          	addi	x11,x0,30
    1888:	00b5563b          	srlw	x12,x10,x11
    188c:	06c23823          	sd	x12,112(x4) # 0x70
    1890:	00000393          	addi	x7,x0,0
    1894:	00c38463          	beq	x7,x12,0x189c
    1898:	f8cff06f          	jal	x0,0x1024
    189c:	00100513          	addi	x10,x0,1
    18a0:	01951513          	slli	x10,x10,0x19
    18a4:	00c00593          	addi	x11,x0,12
    18a8:	00b5563b          	srlw	x12,x10,x11
    18ac:	06c23c23          	sd	x12,120(x4) # 0x78
    18b0:	000020b7          	lui	x1,0x2
    18b4:	00c08463          	beq	x1,x12,0x18bc
    18b8:	f6cff06f          	jal	x0,0x1024
    18bc:	00100513          	addi	x10,x0,1
    18c0:	01a51513          	slli	x10,x10,0x1a
    18c4:	00b00593          	addi	x11,x0,11
    18c8:	00b5563b          	srlw	x12,x10,x11
    18cc:	08c23023          	sd	x12,128(x4) # 0x80
    18d0:	000080b7          	lui	x1,0x8
    18d4:	00c08463          	beq	x1,x12,0x18dc
    18d8:	f4cff06f          	jal	x0,0x1024
    18dc:	00100513          	addi	x10,x0,1
    18e0:	01b51513          	slli	x10,x10,0x1b
    18e4:	00600593          	addi	x11,x0,6
    18e8:	00b5563b          	srlw	x12,x10,x11
    18ec:	08c23423          	sd	x12,136(x4) # 0x88
    18f0:	002000b7          	lui	x1,0x200
    18f4:	00c08463          	beq	x1,x12,0x18fc
    18f8:	f2cff06f          	jal	x0,0x1024
    18fc:	00100513          	addi	x10,x0,1
    1900:	01c51513          	slli	x10,x10,0x1c
    1904:	00400593          	addi	x11,x0,4
    1908:	00b5563b          	srlw	x12,x10,x11
    190c:	08c23823          	sd	x12,144(x4) # 0x90
    1910:	010000b7          	lui	x1,0x1000
    1914:	00c08463          	beq	x1,x12,0x191c
    1918:	f0cff06f          	jal	x0,0x1024
    191c:	00100513          	addi	x10,x0,1
    1920:	01d51513          	slli	x10,x10,0x1d
    1924:	00300593          	addi	x11,x0,3
    1928:	00b5563b          	srlw	x12,x10,x11
    192c:	08c23c23          	sd	x12,152(x4) # 0x98
    1930:	040000b7          	lui	x1,0x4000
    1934:	00c08463          	beq	x1,x12,0x193c
    1938:	eecff06f          	jal	x0,0x1024
    193c:	00100513          	addi	x10,x0,1
    1940:	01e51513          	slli	x10,x10,0x1e
    1944:	00200593          	addi	x11,x0,2
    1948:	00b5563b          	srlw	x12,x10,x11
    194c:	0ac23023          	sd	x12,160(x4) # 0xa0
    1950:	100000b7          	lui	x1,0x10000
    1954:	00c08463          	beq	x1,x12,0x195c
    1958:	eccff06f          	jal	x0,0x1024
    195c:	00100513          	addi	x10,x0,1
    1960:	01f51513          	slli	x10,x10,0x1f
    1964:	00f00593          	addi	x11,x0,15
    1968:	00b5563b          	srlw	x12,x10,x11
    196c:	0ac23423          	sd	x12,168(x4) # 0xa8
    1970:	000100b7          	lui	x1,0x10
    1974:	00c08463          	beq	x1,x12,0x197c
    1978:	eacff06f          	jal	x0,0x1024
    197c:	00100513          	addi	x10,x0,1
    1980:	02051513          	slli	x10,x10,0x20
    1984:	00100593          	addi	x11,x0,1
    1988:	00b5563b          	srlw	x12,x10,x11
    198c:	0ac23823          	sd	x12,176(x4) # 0xb0
    1990:	00000093          	addi	x1,x0,0
    1994:	00c08463          	beq	x1,x12,0x199c
    1998:	e8cff06f          	jal	x0,0x1024
    199c:	00100513          	addi	x10,x0,1
    19a0:	02151513          	slli	x10,x10,0x21
    19a4:	01200593          	addi	x11,x0,18
    19a8:	00b5563b          	srlw	x12,x10,x11
    19ac:	0ac23c23          	sd	x12,184(x4) # 0xb8
    19b0:	00000093          	addi	x1,x0,0
    19b4:	00c08463          	beq	x1,x12,0x19bc
    19b8:	e6cff06f          	jal	x0,0x1024
    19bc:	00100513          	addi	x10,x0,1
    19c0:	02251513          	slli	x10,x10,0x22
    19c4:	00b00593          	addi	x11,x0,11
    19c8:	00b5563b          	srlw	x12,x10,x11
    19cc:	0cc23023          	sd	x12,192(x4) # 0xc0
    19d0:	00000093          	addi	x1,x0,0
    19d4:	00c08463          	beq	x1,x12,0x19dc
    19d8:	e4cff06f          	jal	x0,0x1024
    19dc:	00100513          	addi	x10,x0,1
    19e0:	02351513          	slli	x10,x10,0x23
    19e4:	00c00593          	addi	x11,x0,12
    19e8:	00b5563b          	srlw	x12,x10,x11
    19ec:	0cc23423          	sd	x12,200(x4) # 0xc8
    19f0:	00000093          	addi	x1,x0,0
    19f4:	00c08463          	beq	x1,x12,0x19fc
    19f8:	e2cff06f          	jal	x0,0x1024
    19fc:	00100513          	addi	x10,x0,1
    1a00:	02451513          	slli	x10,x10,0x24
    1a04:	00500593          	addi	x11,x0,5
    1a08:	00b5563b          	srlw	x12,x10,x11
    1a0c:	0cc23823          	sd	x12,208(x4) # 0xd0
    1a10:	00000093          	addi	x1,x0,0
    1a14:	00c08463          	beq	x1,x12,0x1a1c
    1a18:	e0cff06f          	jal	x0,0x1024
    1a1c:	00100513          	addi	x10,x0,1
    1a20:	02551513          	slli	x10,x10,0x25
    1a24:	01e00593          	addi	x11,x0,30
    1a28:	00b5563b          	srlw	x12,x10,x11
    1a2c:	0cc23c23          	sd	x12,216(x4) # 0xd8
    1a30:	00000093          	addi	x1,x0,0
    1a34:	00c08463          	beq	x1,x12,0x1a3c
    1a38:	decff06f          	jal	x0,0x1024
    1a3c:	00100513          	addi	x10,x0,1
    1a40:	02651513          	slli	x10,x10,0x26
    1a44:	01e00593          	addi	x11,x0,30
    1a48:	00b5563b          	srlw	x12,x10,x11
    1a4c:	0ec23023          	sd	x12,224(x4) # 0xe0
    1a50:	00000093          	addi	x1,x0,0
    1a54:	00c08463          	beq	x1,x12,0x1a5c
    1a58:	dccff06f          	jal	x0,0x1024
    1a5c:	00100513          	addi	x10,x0,1
    1a60:	02751513          	slli	x10,x10,0x27
    1a64:	01300593          	addi	x11,x0,19
    1a68:	00b5563b          	srlw	x12,x10,x11
    1a6c:	0ec23423          	sd	x12,232(x4) # 0xe8
    1a70:	00000093          	addi	x1,x0,0
    1a74:	00c08463          	beq	x1,x12,0x1a7c
    1a78:	dacff06f          	jal	x0,0x1024
    1a7c:	00100513          	addi	x10,x0,1
    1a80:	02851513          	slli	x10,x10,0x28
    1a84:	01200593          	addi	x11,x0,18
    1a88:	00b5563b          	srlw	x12,x10,x11
    1a8c:	0ec23823          	sd	x12,240(x4) # 0xf0
    1a90:	00000093          	addi	x1,x0,0
    1a94:	00c08463          	beq	x1,x12,0x1a9c
    1a98:	d8cff06f          	jal	x0,0x1024
    1a9c:	00100513          	addi	x10,x0,1
    1aa0:	02951513          	slli	x10,x10,0x29
    1aa4:	01300593          	addi	x11,x0,19
    1aa8:	00b5563b          	srlw	x12,x10,x11
    1aac:	0ec23c23          	sd	x12,248(x4) # 0xf8
    1ab0:	00000093          	addi	x1,x0,0
    1ab4:	00c08463          	beq	x1,x12,0x1abc
    1ab8:	d6cff06f          	jal	x0,0x1024
    1abc:	00100513          	addi	x10,x0,1
    1ac0:	02a51513          	slli	x10,x10,0x2a
    1ac4:	00400593          	addi	x11,x0,4
    1ac8:	00b5563b          	srlw	x12,x10,x11
    1acc:	10c23023          	sd	x12,256(x4) # 0x100
    1ad0:	00000093          	addi	x1,x0,0
    1ad4:	00c08463          	beq	x1,x12,0x1adc
    1ad8:	d4cff06f          	jal	x0,0x1024
    1adc:	00100513          	addi	x10,x0,1
    1ae0:	02b51513          	slli	x10,x10,0x2b
    1ae4:	00000593          	addi	x11,x0,0
    1ae8:	00b5563b          	srlw	x12,x10,x11
    1aec:	10c23423          	sd	x12,264(x4) # 0x108
    1af0:	00000093          	addi	x1,x0,0
    1af4:	00c08463          	beq	x1,x12,0x1afc
    1af8:	d2cff06f          	jal	x0,0x1024
    1afc:	00100513          	addi	x10,x0,1
    1b00:	02c51513          	slli	x10,x10,0x2c
    1b04:	00f00593          	addi	x11,x0,15
    1b08:	00b5563b          	srlw	x12,x10,x11
    1b0c:	10c23823          	sd	x12,272(x4) # 0x110
    1b10:	00000093          	addi	x1,x0,0
    1b14:	00c08463          	beq	x1,x12,0x1b1c
    1b18:	d0cff06f          	jal	x0,0x1024
    1b1c:	00100513          	addi	x10,x0,1
    1b20:	02d51513          	slli	x10,x10,0x2d
    1b24:	00600593          	addi	x11,x0,6
    1b28:	00b5563b          	srlw	x12,x10,x11
    1b2c:	10c23c23          	sd	x12,280(x4) # 0x118
    1b30:	00000093          	addi	x1,x0,0
    1b34:	00c08463          	beq	x1,x12,0x1b3c
    1b38:	cecff06f          	jal	x0,0x1024
    1b3c:	00100513          	addi	x10,x0,1
    1b40:	02e51513          	slli	x10,x10,0x2e
    1b44:	00500593          	addi	x11,x0,5
    1b48:	00b5563b          	srlw	x12,x10,x11
    1b4c:	12c23023          	sd	x12,288(x4) # 0x120
    1b50:	00000093          	addi	x1,x0,0
    1b54:	00c08463          	beq	x1,x12,0x1b5c
    1b58:	cccff06f          	jal	x0,0x1024
    1b5c:	00100513          	addi	x10,x0,1
    1b60:	03051513          	slli	x10,x10,0x30
    1b64:	00e00593          	addi	x11,x0,14
    1b68:	00b5563b          	srlw	x12,x10,x11
    1b6c:	12c23423          	sd	x12,296(x4) # 0x128
    1b70:	00000093          	addi	x1,x0,0
    1b74:	00c08463          	beq	x1,x12,0x1b7c
    1b78:	cacff06f          	jal	x0,0x1024
    1b7c:	00100513          	addi	x10,x0,1
    1b80:	03151513          	slli	x10,x10,0x31
    1b84:	00700593          	addi	x11,x0,7
    1b88:	00b5563b          	srlw	x12,x10,x11
    1b8c:	12c23823          	sd	x12,304(x4) # 0x130
    1b90:	00000093          	addi	x1,x0,0
    1b94:	00c08463          	beq	x1,x12,0x1b9c
    1b98:	c8cff06f          	jal	x0,0x1024
    1b9c:	00100513          	addi	x10,x0,1
    1ba0:	03251513          	slli	x10,x10,0x32
    1ba4:	01700593          	addi	x11,x0,23
    1ba8:	00b5563b          	srlw	x12,x10,x11
    1bac:	12c23c23          	sd	x12,312(x4) # 0x138
    1bb0:	00000093          	addi	x1,x0,0
    1bb4:	00c08463          	beq	x1,x12,0x1bbc
    1bb8:	c6cff06f          	jal	x0,0x1024
    1bbc:	00100513          	addi	x10,x0,1
    1bc0:	03351513          	slli	x10,x10,0x33
    1bc4:	00a00593          	addi	x11,x0,10
    1bc8:	00b5563b          	srlw	x12,x10,x11
    1bcc:	14c23023          	sd	x12,320(x4) # 0x140
    1bd0:	00000093          	addi	x1,x0,0
    1bd4:	00c08463          	beq	x1,x12,0x1bdc
    1bd8:	c4cff06f          	jal	x0,0x1024
    1bdc:	00100513          	addi	x10,x0,1
    1be0:	03451513          	slli	x10,x10,0x34
    1be4:	01200593          	addi	x11,x0,18
    1be8:	00b5563b          	srlw	x12,x10,x11
    1bec:	14c23423          	sd	x12,328(x4) # 0x148
    1bf0:	00000093          	addi	x1,x0,0
    1bf4:	00c08463          	beq	x1,x12,0x1bfc
    1bf8:	c2cff06f          	jal	x0,0x1024
    1bfc:	00100513          	addi	x10,x0,1
    1c00:	03551513          	slli	x10,x10,0x35
    1c04:	00100593          	addi	x11,x0,1
    1c08:	00b5563b          	srlw	x12,x10,x11
    1c0c:	14c23823          	sd	x12,336(x4) # 0x150
    1c10:	00000093          	addi	x1,x0,0
    1c14:	00c08463          	beq	x1,x12,0x1c1c
    1c18:	c0cff06f          	jal	x0,0x1024
    1c1c:	00100513          	addi	x10,x0,1
    1c20:	03651513          	slli	x10,x10,0x36
    1c24:	00000593          	addi	x11,x0,0
    1c28:	00b5563b          	srlw	x12,x10,x11
    1c2c:	14c23c23          	sd	x12,344(x4) # 0x158
    1c30:	00000093          	addi	x1,x0,0
    1c34:	00c08463          	beq	x1,x12,0x1c3c
    1c38:	becff06f          	jal	x0,0x1024
    1c3c:	00100513          	addi	x10,x0,1
    1c40:	03751513          	slli	x10,x10,0x37
    1c44:	00500593          	addi	x11,x0,5
    1c48:	00b5563b          	srlw	x12,x10,x11
    1c4c:	16c23023          	sd	x12,352(x4) # 0x160
    1c50:	00000093          	addi	x1,x0,0
    1c54:	00c08463          	beq	x1,x12,0x1c5c
    1c58:	bccff06f          	jal	x0,0x1024
    1c5c:	00100513          	addi	x10,x0,1
    1c60:	03851513          	slli	x10,x10,0x38
    1c64:	01200593          	addi	x11,x0,18
    1c68:	00b5563b          	srlw	x12,x10,x11
    1c6c:	16c23423          	sd	x12,360(x4) # 0x168
    1c70:	00000093          	addi	x1,x0,0
    1c74:	00c08463          	beq	x1,x12,0x1c7c
    1c78:	bacff06f          	jal	x0,0x1024
    1c7c:	00100513          	addi	x10,x0,1
    1c80:	03951513          	slli	x10,x10,0x39
    1c84:	00b00593          	addi	x11,x0,11
    1c88:	00b5563b          	srlw	x12,x10,x11
    1c8c:	16c23823          	sd	x12,368(x4) # 0x170
    1c90:	00000093          	addi	x1,x0,0
    1c94:	00c08463          	beq	x1,x12,0x1c9c
    1c98:	b8cff06f          	jal	x0,0x1024
    1c9c:	00100513          	addi	x10,x0,1
    1ca0:	03b51513          	slli	x10,x10,0x3b
    1ca4:	01f00593          	addi	x11,x0,31
    1ca8:	00b5563b          	srlw	x12,x10,x11
    1cac:	16c23c23          	sd	x12,376(x4) # 0x178
    1cb0:	00000093          	addi	x1,x0,0
    1cb4:	00c08463          	beq	x1,x12,0x1cbc
    1cb8:	b6cff06f          	jal	x0,0x1024
    1cbc:	00100513          	addi	x10,x0,1
    1cc0:	03c51513          	slli	x10,x10,0x3c
    1cc4:	00700593          	addi	x11,x0,7
    1cc8:	00b5563b          	srlw	x12,x10,x11
    1ccc:	18c23023          	sd	x12,384(x4) # 0x180
    1cd0:	00000093          	addi	x1,x0,0
    1cd4:	00c08463          	beq	x1,x12,0x1cdc
    1cd8:	b4cff06f          	jal	x0,0x1024
    1cdc:	00100513          	addi	x10,x0,1
    1ce0:	03d51513          	slli	x10,x10,0x3d
    1ce4:	00100593          	addi	x11,x0,1
    1ce8:	00b5563b          	srlw	x12,x10,x11
    1cec:	18c23423          	sd	x12,392(x4) # 0x188
    1cf0:	00000093          	addi	x1,x0,0
    1cf4:	00c08463          	beq	x1,x12,0x1cfc
    1cf8:	b2cff06f          	jal	x0,0x1024
    1cfc:	00100513          	addi	x10,x0,1
    1d00:	03e51513          	slli	x10,x10,0x3e
    1d04:	01000593          	addi	x11,x0,16
    1d08:	00b5563b          	srlw	x12,x10,x11
    1d0c:	18c23823          	sd	x12,400(x4) # 0x190
    1d10:	00000093          	addi	x1,x0,0
    1d14:	00c08463          	beq	x1,x12,0x1d1c
    1d18:	b0cff06f          	jal	x0,0x1024
    1d1c:	ffe00513          	addi	x10,x0,-2
    1d20:	00600593          	addi	x11,x0,6
    1d24:	00b5563b          	srlw	x12,x10,x11
    1d28:	18c23c23          	sd	x12,408(x4) # 0x198
    1d2c:	040000b7          	lui	x1,0x4000
    1d30:	fff0809b          	addiw	x1,x1,-1 # 0x3ffffff
    1d34:	00c08463          	beq	x1,x12,0x1d3c
    1d38:	aecff06f          	jal	x0,0x1024
    1d3c:	ffd00513          	addi	x10,x0,-3
    1d40:	01b00593          	addi	x11,x0,27
    1d44:	00b5563b          	srlw	x12,x10,x11
    1d48:	1ac23023          	sd	x12,416(x4) # 0x1a0
    1d4c:	01f00093          	addi	x1,x0,31
    1d50:	00c08463          	beq	x1,x12,0x1d58
    1d54:	ad0ff06f          	jal	x0,0x1024
    1d58:	ffb00513          	addi	x10,x0,-5
    1d5c:	01300593          	addi	x11,x0,19
    1d60:	00b5563b          	srlw	x12,x10,x11
    1d64:	1ac23423          	sd	x12,424(x4) # 0x1a8
    1d68:	000020b7          	lui	x1,0x2
    1d6c:	fff0809b          	addiw	x1,x1,-1 # 0x1fff
    1d70:	00c08463          	beq	x1,x12,0x1d78
    1d74:	ab0ff06f          	jal	x0,0x1024
    1d78:	ff700513          	addi	x10,x0,-9
    1d7c:	00c00593          	addi	x11,x0,12
    1d80:	00b5563b          	srlw	x12,x10,x11
    1d84:	1ac23823          	sd	x12,432(x4) # 0x1b0
    1d88:	001000b7          	lui	x1,0x100
    1d8c:	fff0809b          	addiw	x1,x1,-1 # 0xfffff
    1d90:	00c08463          	beq	x1,x12,0x1d98
    1d94:	a90ff06f          	jal	x0,0x1024
    1d98:	fef00513          	addi	x10,x0,-17
    1d9c:	00400593          	addi	x11,x0,4
    1da0:	00b5563b          	srlw	x12,x10,x11
    1da4:	1ac23c23          	sd	x12,440(x4) # 0x1b8
    1da8:	100000b7          	lui	x1,0x10000
    1dac:	ffe0809b          	addiw	x1,x1,-2 # 0xffffffe
    1db0:	00c08463          	beq	x1,x12,0x1db8
    1db4:	a70ff06f          	jal	x0,0x1024
    1db8:	fdf00513          	addi	x10,x0,-33
    1dbc:	00900593          	addi	x11,x0,9
    1dc0:	00b5563b          	srlw	x12,x10,x11
    1dc4:	1cc23023          	sd	x12,448(x4) # 0x1c0
    1dc8:	008000b7          	lui	x1,0x800
    1dcc:	fff0809b          	addiw	x1,x1,-1 # 0x7fffff
    1dd0:	00c08463          	beq	x1,x12,0x1dd8
    1dd4:	a50ff06f          	jal	x0,0x1024
    1dd8:	fbf00513          	addi	x10,x0,-65
    1ddc:	00000593          	addi	x11,x0,0
    1de0:	00b5563b          	srlw	x12,x10,x11
    1de4:	1cc23423          	sd	x12,456(x4) # 0x1c8
    1de8:	fbf00093          	addi	x1,x0,-65
    1dec:	00c08463          	beq	x1,x12,0x1df4
    1df0:	a34ff06f          	jal	x0,0x1024
    1df4:	f7f00513          	addi	x10,x0,-129
    1df8:	01500593          	addi	x11,x0,21
    1dfc:	00b5563b          	srlw	x12,x10,x11
    1e00:	1cc23823          	sd	x12,464(x4) # 0x1d0
    1e04:	7ff00093          	addi	x1,x0,2047
    1e08:	00c08463          	beq	x1,x12,0x1e10
    1e0c:	a18ff06f          	jal	x0,0x1024
    1e10:	eff00513          	addi	x10,x0,-257
    1e14:	00100593          	addi	x11,x0,1
    1e18:	00b5563b          	srlw	x12,x10,x11
    1e1c:	1cc23c23          	sd	x12,472(x4) # 0x1d8
    1e20:	800000b7          	lui	x1,0x80000
    1e24:	f7f0809b          	addiw	x1,x1,-129 # 0x7fffff7f
    1e28:	00c08463          	beq	x1,x12,0x1e30
    1e2c:	9f8ff06f          	jal	x0,0x1024
    1e30:	dff00513          	addi	x10,x0,-513
    1e34:	00900593          	addi	x11,x0,9
    1e38:	00b5563b          	srlw	x12,x10,x11
    1e3c:	1ec23023          	sd	x12,480(x4) # 0x1e0
    1e40:	008000b7          	lui	x1,0x800
    1e44:	ffe0809b          	addiw	x1,x1,-2 # 0x7ffffe
    1e48:	00c08463          	beq	x1,x12,0x1e50
    1e4c:	9d8ff06f          	jal	x0,0x1024
    1e50:	bff00513          	addi	x10,x0,-1025
    1e54:	00200593          	addi	x11,x0,2
    1e58:	00b5563b          	srlw	x12,x10,x11
    1e5c:	1ec23423          	sd	x12,488(x4) # 0x1e8
    1e60:	400000b7          	lui	x1,0x40000
    1e64:	eff0809b          	addiw	x1,x1,-257 # 0x3ffffeff
    1e68:	00c08463          	beq	x1,x12,0x1e70
    1e6c:	9b8ff06f          	jal	x0,0x1024
    1e70:	00100513          	addi	x10,x0,1
    1e74:	00b51513          	slli	x10,x10,0xb
    1e78:	fff54513          	xori	x10,x10,-1
    1e7c:	00800593          	addi	x11,x0,8
    1e80:	00b5563b          	srlw	x12,x10,x11
    1e84:	1ec23823          	sd	x12,496(x4) # 0x1f0
    1e88:	010000b7          	lui	x1,0x1000
    1e8c:	ff70809b          	addiw	x1,x1,-9 # 0xfffff7
    1e90:	00c08463          	beq	x1,x12,0x1e98
    1e94:	990ff06f          	jal	x0,0x1024
    1e98:	00100513          	addi	x10,x0,1
    1e9c:	00c51513          	slli	x10,x10,0xc
    1ea0:	fff54513          	xori	x10,x10,-1
    1ea4:	01300593          	addi	x11,x0,19
    1ea8:	00b5563b          	srlw	x12,x10,x11
    1eac:	1ec23c23          	sd	x12,504(x4) # 0x1f8
    1eb0:	000020b7          	lui	x1,0x2
    1eb4:	fff0809b          	addiw	x1,x1,-1 # 0x1fff
    1eb8:	00c08463          	beq	x1,x12,0x1ec0
    1ebc:	968ff06f          	jal	x0,0x1024
    1ec0:	00100513          	addi	x10,x0,1
    1ec4:	00d51513          	slli	x10,x10,0xd
    1ec8:	fff54513          	xori	x10,x10,-1
    1ecc:	00c00593          	addi	x11,x0,12
    1ed0:	00b5563b          	srlw	x12,x10,x11
    1ed4:	20c23023          	sd	x12,512(x4) # 0x200
    1ed8:	001000b7          	lui	x1,0x100
    1edc:	ffd0809b          	addiw	x1,x1,-3 # 0xffffd
    1ee0:	00c08463          	beq	x1,x12,0x1ee8
    1ee4:	940ff06f          	jal	x0,0x1024
    1ee8:	00100513          	addi	x10,x0,1
    1eec:	00e51513          	slli	x10,x10,0xe
    1ef0:	fff54513          	xori	x10,x10,-1
    1ef4:	00e00593          	addi	x11,x0,14
    1ef8:	00b5563b          	srlw	x12,x10,x11
    1efc:	20c23423          	sd	x12,520(x4) # 0x208
    1f00:	000400b7          	lui	x1,0x40
    1f04:	ffe0809b          	addiw	x1,x1,-2 # 0x3fffe
    1f08:	00c08463          	beq	x1,x12,0x1f10
    1f0c:	918ff06f          	jal	x0,0x1024
    1f10:	00100513          	addi	x10,x0,1
    1f14:	00f51513          	slli	x10,x10,0xf
    1f18:	fff54513          	xori	x10,x10,-1
    1f1c:	00100593          	addi	x11,x0,1
    1f20:	00b5563b          	srlw	x12,x10,x11
    1f24:	20c23823          	sd	x12,528(x4) # 0x210
    1f28:	7fffc0b7          	lui	x1,0x7fffc
    1f2c:	fff0809b          	addiw	x1,x1,-1 # 0x7fffbfff
    1f30:	00c08463          	beq	x1,x12,0x1f38
    1f34:	8f0ff06f          	jal	x0,0x1024
    1f38:	00100513          	addi	x10,x0,1
    1f3c:	01051513          	slli	x10,x10,0x10
    1f40:	fff54513          	xori	x10,x10,-1
    1f44:	00f00593          	addi	x11,x0,15
    1f48:	00b5563b          	srlw	x12,x10,x11
    1f4c:	20c23c23          	sd	x12,536(x4) # 0x218
    1f50:	000200b7          	lui	x1,0x20
    1f54:	ffd0809b          	addiw	x1,x1,-3 # 0x1fffd
    1f58:	00c08463          	beq	x1,x12,0x1f60
    1f5c:	8c8ff06f          	jal	x0,0x1024
    1f60:	00100513          	addi	x10,x0,1
    1f64:	01151513          	slli	x10,x10,0x11
    1f68:	fff54513          	xori	x10,x10,-1
    1f6c:	01200593          	addi	x11,x0,18
    1f70:	00b5563b          	srlw	x12,x10,x11
    1f74:	22c23023          	sd	x12,544(x4) # 0x220
    1f78:	000040b7          	lui	x1,0x4
    1f7c:	fff0809b          	addiw	x1,x1,-1 # 0x3fff
    1f80:	00c08463          	beq	x1,x12,0x1f88
    1f84:	8a0ff06f          	jal	x0,0x1024
    1f88:	00100513          	addi	x10,x0,1
    1f8c:	01251513          	slli	x10,x10,0x12
    1f90:	fff54513          	xori	x10,x10,-1
    1f94:	00100593          	addi	x11,x0,1
    1f98:	00b5563b          	srlw	x12,x10,x11
    1f9c:	22c23423          	sd	x12,552(x4) # 0x228
    1fa0:	7ffe00b7          	lui	x1,0x7ffe0
    1fa4:	fff0809b          	addiw	x1,x1,-1 # 0x7ffdffff
    1fa8:	00c08463          	beq	x1,x12,0x1fb0
    1fac:	878ff06f          	jal	x0,0x1024
    1fb0:	00100513          	addi	x10,x0,1
    1fb4:	01351513          	slli	x10,x10,0x13
    1fb8:	fff54513          	xori	x10,x10,-1
    1fbc:	00400593          	addi	x11,x0,4
    1fc0:	00b5563b          	srlw	x12,x10,x11
    1fc4:	22c23823          	sd	x12,560(x4) # 0x230
    1fc8:	0fff80b7          	lui	x1,0xfff8
    1fcc:	fff0809b          	addiw	x1,x1,-1 # 0xfff7fff
    1fd0:	00c08463          	beq	x1,x12,0x1fd8
    1fd4:	850ff06f          	jal	x0,0x1024
    1fd8:	00100513          	addi	x10,x0,1
    1fdc:	03751513          	slli	x10,x10,0x37
    1fe0:	fff54513          	xori	x10,x10,-1
    1fe4:	01e00593          	addi	x11,x0,30
    1fe8:	00b5563b          	srlw	x12,x10,x11
    1fec:	22c23c23          	sd	x12,568(x4) # 0x238
    1ff0:	00300093          	addi	x1,x0,3
    1ff4:	00c08463          	beq	x1,x12,0x1ffc
    1ff8:	82cff06f          	jal	x0,0x1024
    1ffc:	00100513          	addi	x10,x0,1
    2000:	03851513          	slli	x10,x10,0x38
    2004:	fff54513          	xori	x10,x10,-1
    2008:	01d00593          	addi	x11,x0,29
    200c:	00b5563b          	srlw	x12,x10,x11
    2010:	24c23023          	sd	x12,576(x4) # 0x240
    2014:	00700093          	addi	x1,x0,7
    2018:	00c08463          	beq	x1,x12,0x2020
    201c:	808ff06f          	jal	x0,0x1024
    2020:	00100513          	addi	x10,x0,1
    2024:	03951513          	slli	x10,x10,0x39
    2028:	fff54513          	xori	x10,x10,-1
    202c:	00800593          	addi	x11,x0,8
    2030:	00b5563b          	srlw	x12,x10,x11
    2034:	24c23423          	sd	x12,584(x4) # 0x248
    2038:	010000b7          	lui	x1,0x1000
    203c:	fff0809b          	addiw	x1,x1,-1 # 0xffffff
    2040:	00c08463          	beq	x1,x12,0x2048
    2044:	fe1fe06f          	jal	x0,0x1024
    2048:	00100513          	addi	x10,x0,1
    204c:	03a51513          	slli	x10,x10,0x3a
    2050:	fff54513          	xori	x10,x10,-1
    2054:	00200593          	addi	x11,x0,2
    2058:	00b5563b          	srlw	x12,x10,x11
    205c:	24c23823          	sd	x12,592(x4) # 0x250
    2060:	400000b7          	lui	x1,0x40000
    2064:	fff0809b          	addiw	x1,x1,-1 # 0x3fffffff
    2068:	00c08463          	beq	x1,x12,0x2070
    206c:	fb9fe06f          	jal	x0,0x1024
    2070:	00100513          	addi	x10,x0,1
    2074:	03b51513          	slli	x10,x10,0x3b
    2078:	fff54513          	xori	x10,x10,-1
    207c:	00000593          	addi	x11,x0,0
    2080:	00b5563b          	srlw	x12,x10,x11
    2084:	24c23c23          	sd	x12,600(x4) # 0x258
    2088:	fff00093          	addi	x1,x0,-1
    208c:	00c08463          	beq	x1,x12,0x2094
    2090:	f95fe06f          	jal	x0,0x1024
    2094:	00100513          	addi	x10,x0,1
    2098:	03c51513          	slli	x10,x10,0x3c
    209c:	fff54513          	xori	x10,x10,-1
    20a0:	00900593          	addi	x11,x0,9
    20a4:	00b5563b          	srlw	x12,x10,x11
    20a8:	26c23023          	sd	x12,608(x4) # 0x260
    20ac:	008000b7          	lui	x1,0x800
    20b0:	fff0809b          	addiw	x1,x1,-1 # 0x7fffff
    20b4:	00c08463          	beq	x1,x12,0x20bc
    20b8:	f6dfe06f          	jal	x0,0x1024
    20bc:	00100513          	addi	x10,x0,1
    20c0:	03d51513          	slli	x10,x10,0x3d
    20c4:	fff54513          	xori	x10,x10,-1
    20c8:	00f00593          	addi	x11,x0,15
    20cc:	00b5563b          	srlw	x12,x10,x11
    20d0:	26c23423          	sd	x12,616(x4) # 0x268
    20d4:	000200b7          	lui	x1,0x20
    20d8:	fff0809b          	addiw	x1,x1,-1 # 0x1ffff
    20dc:	00c08463          	beq	x1,x12,0x20e4
    20e0:	f45fe06f          	jal	x0,0x1024
    20e4:	00100513          	addi	x10,x0,1
    20e8:	03e51513          	slli	x10,x10,0x3e
    20ec:	fff54513          	xori	x10,x10,-1
    20f0:	01e00593          	addi	x11,x0,30
    20f4:	00b5563b          	srlw	x12,x10,x11
    20f8:	26c23823          	sd	x12,624(x4) # 0x270
    20fc:	00300093          	addi	x1,x0,3
    2100:	00c08463          	beq	x1,x12,0x2108
    2104:	f21fe06f          	jal	x0,0x1024
    2108:	55555537          	lui	x10,0x55555
    210c:	55550513          	addi	x10,x10,1365 # 0x55555555
    2110:	00b51513          	slli	x10,x10,0xb
    2114:	2aa50513          	addi	x10,x10,682
    2118:	00b51513          	slli	x10,x10,0xb
    211c:	55550513          	addi	x10,x10,1365
    2120:	00a51513          	slli	x10,x10,0xa
    2124:	15550513          	addi	x10,x10,341
    2128:	00a00593          	addi	x11,x0,10
    212c:	00b5563b          	srlw	x12,x10,x11
    2130:	26c23c23          	sd	x12,632(x4) # 0x278
    2134:	001550b7          	lui	x1,0x155
    2138:	5550809b          	addiw	x1,x1,1365 # 0x155555
    213c:	00c08463          	beq	x1,x12,0x2144
    2140:	ee5fe06f          	jal	x0,0x1024
    2144:	aaaab537          	lui	x10,0xaaaab
    2148:	aaa50513          	addi	x10,x10,-1366 # 0xffffffffaaaaaaaa
    214c:	00b51513          	slli	x10,x10,0xb
    2150:	55550513          	addi	x10,x10,1365
    2154:	00b51513          	slli	x10,x10,0xb
    2158:	2aa50513          	addi	x10,x10,682
    215c:	00a51513          	slli	x10,x10,0xa
    2160:	2aa50513          	addi	x10,x10,682
    2164:	01300593          	addi	x11,x0,19
    2168:	00b5563b          	srlw	x12,x10,x11
    216c:	28c23023          	sd	x12,640(x4) # 0x280
    2170:	000010b7          	lui	x1,0x1
    2174:	5550809b          	addiw	x1,x1,1365 # 0x1555
    2178:	00c08463          	beq	x1,x12,0x2180
    217c:	ea9fe06f          	jal	x0,0x1024
    2180:	00300513          	addi	x10,x0,3
    2184:	01700593          	addi	x11,x0,23
    2188:	00b5563b          	srlw	x12,x10,x11
    218c:	28c23423          	sd	x12,648(x4) # 0x288
    2190:	00000093          	addi	x1,x0,0
    2194:	00c08463          	beq	x1,x12,0x219c
    2198:	e8dfe06f          	jal	x0,0x1024
    219c:	00500513          	addi	x10,x0,5
    21a0:	01e00593          	addi	x11,x0,30
    21a4:	00b5563b          	srlw	x12,x10,x11
    21a8:	28c23823          	sd	x12,656(x4) # 0x290
    21ac:	00000093          	addi	x1,x0,0
    21b0:	00c08463          	beq	x1,x12,0x21b8
    21b4:	e71fe06f          	jal	x0,0x1024
    21b8:	33333537          	lui	x10,0x33333
    21bc:	33350513          	addi	x10,x10,819 # 0x33333333
    21c0:	00b51513          	slli	x10,x10,0xb
    21c4:	19950513          	addi	x10,x10,409
    21c8:	00b51513          	slli	x10,x10,0xb
    21cc:	4cc50513          	addi	x10,x10,1228
    21d0:	00a51513          	slli	x10,x10,0xa
    21d4:	33350513          	addi	x10,x10,819
    21d8:	01100593          	addi	x11,x0,17
    21dc:	00b5563b          	srlw	x12,x10,x11
    21e0:	28c23c23          	sd	x12,664(x4) # 0x298
    21e4:	000020b7          	lui	x1,0x2
    21e8:	9990809b          	addiw	x1,x1,-1639 # 0x1999
    21ec:	00c08463          	beq	x1,x12,0x21f4
    21f0:	e35fe06f          	jal	x0,0x1024
    21f4:	66666537          	lui	x10,0x66666
    21f8:	66650513          	addi	x10,x10,1638 # 0x66666666
    21fc:	00b51513          	slli	x10,x10,0xb
    2200:	33350513          	addi	x10,x10,819
    2204:	00b51513          	slli	x10,x10,0xb
    2208:	19950513          	addi	x10,x10,409
    220c:	00a51513          	slli	x10,x10,0xa
    2210:	26650513          	addi	x10,x10,614
    2214:	01b00593          	addi	x11,x0,27
    2218:	00b5563b          	srlw	x12,x10,x11
    221c:	2ac23023          	sd	x12,672(x4) # 0x2a0
    2220:	00c00093          	addi	x1,x0,12
    2224:	00c08463          	beq	x1,x12,0x222c
    2228:	dfdfe06f          	jal	x0,0x1024
    222c:	00000537          	lui	x10,0x0
    2230:	00050513          	addi	x10,x10,0 # 0x0
    2234:	00b51513          	slli	x10,x10,0xb
    2238:	5a850513          	addi	x10,x10,1448
    223c:	00b51513          	slli	x10,x10,0xb
    2240:	13c50513          	addi	x10,x10,316
    2244:	00a51513          	slli	x10,x10,0xa
    2248:	33350513          	addi	x10,x10,819
    224c:	00800593          	addi	x11,x0,8
    2250:	00b5563b          	srlw	x12,x10,x11
    2254:	2ac23423          	sd	x12,680(x4) # 0x2a8
    2258:	00b500b7          	lui	x1,0xb50
    225c:	4f30809b          	addiw	x1,x1,1267 # 0xb504f3
    2260:	00c08463          	beq	x1,x12,0x2268
    2264:	dc1fe06f          	jal	x0,0x1024
    2268:	55555537          	lui	x10,0x55555
    226c:	55550513          	addi	x10,x10,1365 # 0x55555555
    2270:	00b51513          	slli	x10,x10,0xb
    2274:	2aa50513          	addi	x10,x10,682
    2278:	00b51513          	slli	x10,x10,0xb
    227c:	55550513          	addi	x10,x10,1365
    2280:	00a51513          	slli	x10,x10,0xa
    2284:	15450513          	addi	x10,x10,340
    2288:	00c00593          	addi	x11,x0,12
    228c:	00b5563b          	srlw	x12,x10,x11
    2290:	2ac23823          	sd	x12,688(x4) # 0x2b0
    2294:	000550b7          	lui	x1,0x55
    2298:	5550809b          	addiw	x1,x1,1365 # 0x55555
    229c:	00c08463          	beq	x1,x12,0x22a4
    22a0:	d85fe06f          	jal	x0,0x1024
    22a4:	33333537          	lui	x10,0x33333
    22a8:	33350513          	addi	x10,x10,819 # 0x33333333
    22ac:	00b51513          	slli	x10,x10,0xb
    22b0:	19950513          	addi	x10,x10,409
    22b4:	00b51513          	slli	x10,x10,0xb
    22b8:	4cc50513          	addi	x10,x10,1228
    22bc:	00a51513          	slli	x10,x10,0xa
    22c0:	33250513          	addi	x10,x10,818
    22c4:	00300593          	addi	x11,x0,3
    22c8:	00b5563b          	srlw	x12,x10,x11
    22cc:	2ac23c23          	sd	x12,696(x4) # 0x2b8
    22d0:	066660b7          	lui	x1,0x6666
    22d4:	6660809b          	addiw	x1,x1,1638 # 0x6666666
    22d8:	00c08463          	beq	x1,x12,0x22e0
    22dc:	d49fe06f          	jal	x0,0x1024
    22e0:	66666537          	lui	x10,0x66666
    22e4:	66650513          	addi	x10,x10,1638 # 0x66666666
    22e8:	00b51513          	slli	x10,x10,0xb
    22ec:	33350513          	addi	x10,x10,819
    22f0:	00b51513          	slli	x10,x10,0xb
    22f4:	19950513          	addi	x10,x10,409
    22f8:	00a51513          	slli	x10,x10,0xa
    22fc:	26550513          	addi	x10,x10,613
    2300:	00200593          	addi	x11,x0,2
    2304:	00b5563b          	srlw	x12,x10,x11
    2308:	2cc23023          	sd	x12,704(x4) # 0x2c0
    230c:	1999a0b7          	lui	x1,0x1999a
    2310:	9990809b          	addiw	x1,x1,-1639 # 0x19999999
    2314:	00c08463          	beq	x1,x12,0x231c
    2318:	d0dfe06f          	jal	x0,0x1024
    231c:	00000537          	lui	x10,0x0
    2320:	00050513          	addi	x10,x10,0 # 0x0
    2324:	00b51513          	slli	x10,x10,0xb
    2328:	5a850513          	addi	x10,x10,1448
    232c:	00b51513          	slli	x10,x10,0xb
    2330:	13c50513          	addi	x10,x10,316
    2334:	00a51513          	slli	x10,x10,0xa
    2338:	33250513          	addi	x10,x10,818
    233c:	01f00593          	addi	x11,x0,31
    2340:	00b5563b          	srlw	x12,x10,x11
    2344:	2cc23423          	sd	x12,712(x4) # 0x2c8
    2348:	00100093          	addi	x1,x0,1
    234c:	00c08463          	beq	x1,x12,0x2354
    2350:	cd5fe06f          	jal	x0,0x1024
    2354:	55555537          	lui	x10,0x55555
    2358:	55550513          	addi	x10,x10,1365 # 0x55555555
    235c:	00b51513          	slli	x10,x10,0xb
    2360:	2aa50513          	addi	x10,x10,682
    2364:	00b51513          	slli	x10,x10,0xb
    2368:	55550513          	addi	x10,x10,1365
    236c:	00a51513          	slli	x10,x10,0xa
    2370:	15650513          	addi	x10,x10,342
    2374:	00900593          	addi	x11,x0,9
    2378:	00b5563b          	srlw	x12,x10,x11
    237c:	2cc23823          	sd	x12,720(x4) # 0x2d0
    2380:	002ab0b7          	lui	x1,0x2ab
    2384:	aaa0809b          	addiw	x1,x1,-1366 # 0x2aaaaa
    2388:	00c08463          	beq	x1,x12,0x2390
    238c:	c99fe06f          	jal	x0,0x1024
    2390:	aaaab537          	lui	x10,0xaaaab
    2394:	aaa50513          	addi	x10,x10,-1366 # 0xffffffffaaaaaaaa
    2398:	00b51513          	slli	x10,x10,0xb
    239c:	55550513          	addi	x10,x10,1365
    23a0:	00b51513          	slli	x10,x10,0xb
    23a4:	2aa50513          	addi	x10,x10,682
    23a8:	00a51513          	slli	x10,x10,0xa
    23ac:	2ab50513          	addi	x10,x10,683
    23b0:	01500593          	addi	x11,x0,21
    23b4:	00b5563b          	srlw	x12,x10,x11
    23b8:	2cc23c23          	sd	x12,728(x4) # 0x2d8
    23bc:	55500093          	addi	x1,x0,1365
    23c0:	00c08463          	beq	x1,x12,0x23c8
    23c4:	c61fe06f          	jal	x0,0x1024
    23c8:	00600513          	addi	x10,x0,6
    23cc:	00f00593          	addi	x11,x0,15
    23d0:	00b5563b          	srlw	x12,x10,x11
    23d4:	2ec23023          	sd	x12,736(x4) # 0x2e0
    23d8:	00000093          	addi	x1,x0,0
    23dc:	00c08463          	beq	x1,x12,0x23e4
    23e0:	c45fe06f          	jal	x0,0x1024
    23e4:	33333537          	lui	x10,0x33333
    23e8:	33350513          	addi	x10,x10,819 # 0x33333333
    23ec:	00b51513          	slli	x10,x10,0xb
    23f0:	19950513          	addi	x10,x10,409
    23f4:	00b51513          	slli	x10,x10,0xb
    23f8:	4cc50513          	addi	x10,x10,1228
    23fc:	00a51513          	slli	x10,x10,0xa
    2400:	33450513          	addi	x10,x10,820
    2404:	01000593          	addi	x11,x0,16
    2408:	00b5563b          	srlw	x12,x10,x11
    240c:	2ec23423          	sd	x12,744(x4) # 0x2e8
    2410:	000030b7          	lui	x1,0x3
    2414:	3330809b          	addiw	x1,x1,819 # 0x3333
    2418:	00c08463          	beq	x1,x12,0x2420
    241c:	c09fe06f          	jal	x0,0x1024
    2420:	66666537          	lui	x10,0x66666
    2424:	66650513          	addi	x10,x10,1638 # 0x66666666
    2428:	00b51513          	slli	x10,x10,0xb
    242c:	33350513          	addi	x10,x10,819
    2430:	00b51513          	slli	x10,x10,0xb
    2434:	19950513          	addi	x10,x10,409
    2438:	00a51513          	slli	x10,x10,0xa
    243c:	26750513          	addi	x10,x10,615
    2440:	01100593          	addi	x11,x0,17
    2444:	00b5563b          	srlw	x12,x10,x11
    2448:	2ec23823          	sd	x12,752(x4) # 0x2f0
    244c:	000030b7          	lui	x1,0x3
    2450:	3330809b          	addiw	x1,x1,819 # 0x3333
    2454:	00c08463          	beq	x1,x12,0x245c
    2458:	bcdfe06f          	jal	x0,0x1024
    245c:	00000537          	lui	x10,0x0
    2460:	fff50513          	addi	x10,x10,-1 # 0xffffffffffffffff
    2464:	00b51513          	slli	x10,x10,0xb
    2468:	25750513          	addi	x10,x10,599
    246c:	00b51513          	slli	x10,x10,0xb
    2470:	6c350513          	addi	x10,x10,1731
    2474:	00a51513          	slli	x10,x10,0xa
    2478:	0ce50513          	addi	x10,x10,206
    247c:	01f00593          	addi	x11,x0,31
    2480:	00b5563b          	srlw	x12,x10,x11
    2484:	2ec23c23          	sd	x12,760(x4) # 0x2f8
    2488:	00000093          	addi	x1,x0,0
    248c:	00c08463          	beq	x1,x12,0x2494
    2490:	b95fe06f          	jal	x0,0x1024
    2494:	00000537          	lui	x10,0x0
    2498:	00050513          	addi	x10,x10,0 # 0x0
    249c:	00b51513          	slli	x10,x10,0xb
    24a0:	5a850513          	addi	x10,x10,1448
    24a4:	00b51513          	slli	x10,x10,0xb
    24a8:	13c50513          	addi	x10,x10,316
    24ac:	00a51513          	slli	x10,x10,0xa
    24b0:	33450513          	addi	x10,x10,820
    24b4:	01500593          	addi	x11,x0,21
    24b8:	00b5563b          	srlw	x12,x10,x11
    24bc:	30c23023          	sd	x12,768(x4) # 0x300
    24c0:	5a800093          	addi	x1,x0,1448
    24c4:	00c08463          	beq	x1,x12,0x24cc
    24c8:	b5dfe06f          	jal	x0,0x1024
    24cc:	00100513          	addi	x10,x0,1
    24d0:	01451513          	slli	x10,x10,0x14
    24d4:	fff54513          	xori	x10,x10,-1
    24d8:	00600593          	addi	x11,x0,6
    24dc:	00b5563b          	srlw	x12,x10,x11
    24e0:	30c23423          	sd	x12,776(x4) # 0x308
    24e4:	03ffc0b7          	lui	x1,0x3ffc
    24e8:	fff0809b          	addiw	x1,x1,-1 # 0x3ffbfff
    24ec:	00c08463          	beq	x1,x12,0x24f4
    24f0:	b35fe06f          	jal	x0,0x1024
    24f4:	00100513          	addi	x10,x0,1
    24f8:	01551513          	slli	x10,x10,0x15
    24fc:	fff54513          	xori	x10,x10,-1
    2500:	01000593          	addi	x11,x0,16
    2504:	00b5563b          	srlw	x12,x10,x11
    2508:	30c23823          	sd	x12,784(x4) # 0x310
    250c:	000100b7          	lui	x1,0x10
    2510:	fdf0809b          	addiw	x1,x1,-33 # 0xffdf
    2514:	00c08463          	beq	x1,x12,0x251c
    2518:	b0dfe06f          	jal	x0,0x1024
    251c:	00100513          	addi	x10,x0,1
    2520:	01651513          	slli	x10,x10,0x16
    2524:	fff54513          	xori	x10,x10,-1
    2528:	01500593          	addi	x11,x0,21
    252c:	00b5563b          	srlw	x12,x10,x11
    2530:	30c23c23          	sd	x12,792(x4) # 0x318
    2534:	7fd00093          	addi	x1,x0,2045
    2538:	00c08463          	beq	x1,x12,0x2540
    253c:	ae9fe06f          	jal	x0,0x1024
    2540:	00100513          	addi	x10,x0,1
    2544:	01751513          	slli	x10,x10,0x17
    2548:	fff54513          	xori	x10,x10,-1
    254c:	00a00593          	addi	x11,x0,10
    2550:	00b5563b          	srlw	x12,x10,x11
    2554:	32c23023          	sd	x12,800(x4) # 0x320
    2558:	003fe0b7          	lui	x1,0x3fe
    255c:	fff0809b          	addiw	x1,x1,-1 # 0x3fdfff
    2560:	00c08463          	beq	x1,x12,0x2568
    2564:	ac1fe06f          	jal	x0,0x1024
    2568:	00100513          	addi	x10,x0,1
    256c:	01851513          	slli	x10,x10,0x18
    2570:	fff54513          	xori	x10,x10,-1
    2574:	00900593          	addi	x11,x0,9
    2578:	00b5563b          	srlw	x12,x10,x11
    257c:	32c23423          	sd	x12,808(x4) # 0x328
    2580:	007f80b7          	lui	x1,0x7f8
    2584:	fff0809b          	addiw	x1,x1,-1 # 0x7f7fff
    2588:	00c08463          	beq	x1,x12,0x2590
    258c:	a99fe06f          	jal	x0,0x1024
    2590:	00100513          	addi	x10,x0,1
    2594:	01951513          	slli	x10,x10,0x19
    2598:	fff54513          	xori	x10,x10,-1
    259c:	00600593          	addi	x11,x0,6
    25a0:	00b5563b          	srlw	x12,x10,x11
    25a4:	32c23823          	sd	x12,816(x4) # 0x330
    25a8:	03f800b7          	lui	x1,0x3f80
    25ac:	fff0809b          	addiw	x1,x1,-1 # 0x3f7ffff
    25b0:	00c08463          	beq	x1,x12,0x25b8
    25b4:	a71fe06f          	jal	x0,0x1024
    25b8:	00100513          	addi	x10,x0,1
    25bc:	01a51513          	slli	x10,x10,0x1a
    25c0:	fff54513          	xori	x10,x10,-1
    25c4:	01700593          	addi	x11,x0,23
    25c8:	00b5563b          	srlw	x12,x10,x11
    25cc:	32c23c23          	sd	x12,824(x4) # 0x338
    25d0:	1f700093          	addi	x1,x0,503
    25d4:	00c08463          	beq	x1,x12,0x25dc
    25d8:	a4dfe06f          	jal	x0,0x1024
    25dc:	00100513          	addi	x10,x0,1
    25e0:	01b51513          	slli	x10,x10,0x1b
    25e4:	fff54513          	xori	x10,x10,-1
    25e8:	00200593          	addi	x11,x0,2
    25ec:	00b5563b          	srlw	x12,x10,x11
    25f0:	34c23023          	sd	x12,832(x4) # 0x340
    25f4:	3e0000b7          	lui	x1,0x3e000
    25f8:	fff0809b          	addiw	x1,x1,-1 # 0x3dffffff
    25fc:	00c08463          	beq	x1,x12,0x2604
    2600:	a25fe06f          	jal	x0,0x1024
    2604:	00100513          	addi	x10,x0,1
    2608:	01c51513          	slli	x10,x10,0x1c
    260c:	fff54513          	xori	x10,x10,-1
    2610:	00c00593          	addi	x11,x0,12
    2614:	00b5563b          	srlw	x12,x10,x11
    2618:	34c23423          	sd	x12,840(x4) # 0x348
    261c:	000f00b7          	lui	x1,0xf0
    2620:	fff0809b          	addiw	x1,x1,-1 # 0xeffff
    2624:	00c08463          	beq	x1,x12,0x262c
    2628:	9fdfe06f          	jal	x0,0x1024
    262c:	00100513          	addi	x10,x0,1
    2630:	01d51513          	slli	x10,x10,0x1d
    2634:	fff54513          	xori	x10,x10,-1
    2638:	00900593          	addi	x11,x0,9
    263c:	00b5563b          	srlw	x12,x10,x11
    2640:	34c23823          	sd	x12,848(x4) # 0x350
    2644:	007000b7          	lui	x1,0x700
    2648:	fff0809b          	addiw	x1,x1,-1 # 0x6fffff
    264c:	00c08463          	beq	x1,x12,0x2654
    2650:	9d5fe06f          	jal	x0,0x1024
    2654:	00100513          	addi	x10,x0,1
    2658:	01e51513          	slli	x10,x10,0x1e
    265c:	fff54513          	xori	x10,x10,-1
    2660:	01f00593          	addi	x11,x0,31
    2664:	00b5563b          	srlw	x12,x10,x11
    2668:	34c23c23          	sd	x12,856(x4) # 0x358
    266c:	00100093          	addi	x1,x0,1
    2670:	00c08463          	beq	x1,x12,0x2678
    2674:	9b1fe06f          	jal	x0,0x1024
    2678:	00100513          	addi	x10,x0,1
    267c:	01f51513          	slli	x10,x10,0x1f
    2680:	fff54513          	xori	x10,x10,-1
    2684:	00800593          	addi	x11,x0,8
    2688:	00b5563b          	srlw	x12,x10,x11
    268c:	36c23023          	sd	x12,864(x4) # 0x360
    2690:	008000b7          	lui	x1,0x800
    2694:	fff0809b          	addiw	x1,x1,-1 # 0x7fffff
    2698:	00c08463          	beq	x1,x12,0x26a0
    269c:	989fe06f          	jal	x0,0x1024
    26a0:	00100513          	addi	x10,x0,1
    26a4:	02051513          	slli	x10,x10,0x20
    26a8:	fff54513          	xori	x10,x10,-1
    26ac:	00400593          	addi	x11,x0,4
    26b0:	00b5563b          	srlw	x12,x10,x11
    26b4:	36c23423          	sd	x12,872(x4) # 0x368
    26b8:	100000b7          	lui	x1,0x10000
    26bc:	fff0809b          	addiw	x1,x1,-1 # 0xfffffff
    26c0:	00c08463          	beq	x1,x12,0x26c8
    26c4:	961fe06f          	jal	x0,0x1024
    26c8:	00100513          	addi	x10,x0,1
    26cc:	02151513          	slli	x10,x10,0x21
    26d0:	fff54513          	xori	x10,x10,-1
    26d4:	01700593          	addi	x11,x0,23
    26d8:	00b5563b          	srlw	x12,x10,x11
    26dc:	36c23823          	sd	x12,880(x4) # 0x370
    26e0:	1ff00093          	addi	x1,x0,511
    26e4:	00c08463          	beq	x1,x12,0x26ec
    26e8:	93dfe06f          	jal	x0,0x1024
    26ec:	00100513          	addi	x10,x0,1
    26f0:	02251513          	slli	x10,x10,0x22
    26f4:	fff54513          	xori	x10,x10,-1
    26f8:	00d00593          	addi	x11,x0,13
    26fc:	00b5563b          	srlw	x12,x10,x11
    2700:	36c23c23          	sd	x12,888(x4) # 0x378
    2704:	000800b7          	lui	x1,0x80
    2708:	fff0809b          	addiw	x1,x1,-1 # 0x7ffff
    270c:	00c08463          	beq	x1,x12,0x2714
    2710:	915fe06f          	jal	x0,0x1024
    2714:	00100513          	addi	x10,x0,1
    2718:	02351513          	slli	x10,x10,0x23
    271c:	fff54513          	xori	x10,x10,-1
    2720:	01d00593          	addi	x11,x0,29
    2724:	00b5563b          	srlw	x12,x10,x11
    2728:	38c23023          	sd	x12,896(x4) # 0x380
    272c:	00700093          	addi	x1,x0,7
    2730:	00c08463          	beq	x1,x12,0x2738
    2734:	8f1fe06f          	jal	x0,0x1024
    2738:	00100513          	addi	x10,x0,1
    273c:	02451513          	slli	x10,x10,0x24
    2740:	fff54513          	xori	x10,x10,-1
    2744:	01500593          	addi	x11,x0,21
    2748:	00b5563b          	srlw	x12,x10,x11
    274c:	38c23423          	sd	x12,904(x4) # 0x388
    2750:	7ff00093          	addi	x1,x0,2047
    2754:	00c08463          	beq	x1,x12,0x275c
    2758:	8cdfe06f          	jal	x0,0x1024
    275c:	00100513          	addi	x10,x0,1
    2760:	02551513          	slli	x10,x10,0x25
    2764:	fff54513          	xori	x10,x10,-1
    2768:	01200593          	addi	x11,x0,18
    276c:	00b5563b          	srlw	x12,x10,x11
    2770:	38c23823          	sd	x12,912(x4) # 0x390
    2774:	000040b7          	lui	x1,0x4
    2778:	fff0809b          	addiw	x1,x1,-1 # 0x3fff
    277c:	00c08463          	beq	x1,x12,0x2784
    2780:	8a5fe06f          	jal	x0,0x1024
    2784:	00100513          	addi	x10,x0,1
    2788:	02651513          	slli	x10,x10,0x26
    278c:	fff54513          	xori	x10,x10,-1
    2790:	00e00593          	addi	x11,x0,14
    2794:	00b5563b          	srlw	x12,x10,x11
    2798:	38c23c23          	sd	x12,920(x4) # 0x398
    279c:	000400b7          	lui	x1,0x40
    27a0:	fff0809b          	addiw	x1,x1,-1 # 0x3ffff
    27a4:	00c08463          	beq	x1,x12,0x27ac
    27a8:	87dfe06f          	jal	x0,0x1024
    27ac:	00100513          	addi	x10,x0,1
    27b0:	02751513          	slli	x10,x10,0x27
    27b4:	fff54513          	xori	x10,x10,-1
    27b8:	00500593          	addi	x11,x0,5
    27bc:	00b5563b          	srlw	x12,x10,x11
    27c0:	3ac23023          	sd	x12,928(x4) # 0x3a0
    27c4:	080000b7          	lui	x1,0x8000
    27c8:	fff0809b          	addiw	x1,x1,-1 # 0x7ffffff
    27cc:	00c08463          	beq	x1,x12,0x27d4
    27d0:	855fe06f          	jal	x0,0x1024
    27d4:	00100513          	addi	x10,x0,1
    27d8:	02851513          	slli	x10,x10,0x28
    27dc:	fff54513          	xori	x10,x10,-1
    27e0:	00500593          	addi	x11,x0,5
    27e4:	00b5563b          	srlw	x12,x10,x11
    27e8:	3ac23423          	sd	x12,936(x4) # 0x3a8
    27ec:	080000b7          	lui	x1,0x8000
    27f0:	fff0809b          	addiw	x1,x1,-1 # 0x7ffffff
    27f4:	00c08463          	beq	x1,x12,0x27fc
    27f8:	82dfe06f          	jal	x0,0x1024
    27fc:	00100513          	addi	x10,x0,1
    2800:	02951513          	slli	x10,x10,0x29
    2804:	fff54513          	xori	x10,x10,-1
    2808:	01500593          	addi	x11,x0,21
    280c:	00b5563b          	srlw	x12,x10,x11
    2810:	3ac23823          	sd	x12,944(x4) # 0x3b0
    2814:	7ff00093          	addi	x1,x0,2047
    2818:	00c08463          	beq	x1,x12,0x2820
    281c:	809fe06f          	jal	x0,0x1024
    2820:	00100513          	addi	x10,x0,1
    2824:	02a51513          	slli	x10,x10,0x2a
    2828:	fff54513          	xori	x10,x10,-1
    282c:	01500593          	addi	x11,x0,21
    2830:	00b5563b          	srlw	x12,x10,x11
    2834:	3ac23c23          	sd	x12,952(x4) # 0x3b8
    2838:	7ff00093          	addi	x1,x0,2047
    283c:	00c08463          	beq	x1,x12,0x2844
    2840:	fe4fe06f          	jal	x0,0x1024
    2844:	00100513          	addi	x10,x0,1
    2848:	02b51513          	slli	x10,x10,0x2b
    284c:	fff54513          	xori	x10,x10,-1
    2850:	01000593          	addi	x11,x0,16
    2854:	00b5563b          	srlw	x12,x10,x11
    2858:	3cc23023          	sd	x12,960(x4) # 0x3c0
    285c:	000100b7          	lui	x1,0x10
    2860:	fff0809b          	addiw	x1,x1,-1 # 0xffff
    2864:	00c08463          	beq	x1,x12,0x286c
    2868:	fbcfe06f          	jal	x0,0x1024
    286c:	00100513          	addi	x10,x0,1
    2870:	02c51513          	slli	x10,x10,0x2c
    2874:	fff54513          	xori	x10,x10,-1
    2878:	00d00593          	addi	x11,x0,13
    287c:	00b5563b          	srlw	x12,x10,x11
    2880:	3cc23423          	sd	x12,968(x4) # 0x3c8
    2884:	000800b7          	lui	x1,0x80
    2888:	fff0809b          	addiw	x1,x1,-1 # 0x7ffff
    288c:	00c08463          	beq	x1,x12,0x2894
    2890:	f94fe06f          	jal	x0,0x1024
    2894:	00100513          	addi	x10,x0,1
    2898:	02d51513          	slli	x10,x10,0x2d
    289c:	fff54513          	xori	x10,x10,-1
    28a0:	00100593          	addi	x11,x0,1
    28a4:	00b5563b          	srlw	x12,x10,x11
    28a8:	3cc23823          	sd	x12,976(x4) # 0x3d0
    28ac:	800000b7          	lui	x1,0x80000
    28b0:	fff0809b          	addiw	x1,x1,-1 # 0x7fffffff
    28b4:	00c08463          	beq	x1,x12,0x28bc
    28b8:	f6cfe06f          	jal	x0,0x1024
    28bc:	00100513          	addi	x10,x0,1
    28c0:	02e51513          	slli	x10,x10,0x2e
    28c4:	fff54513          	xori	x10,x10,-1
    28c8:	00500593          	addi	x11,x0,5
    28cc:	00b5563b          	srlw	x12,x10,x11
    28d0:	3cc23c23          	sd	x12,984(x4) # 0x3d8
    28d4:	080000b7          	lui	x1,0x8000
    28d8:	fff0809b          	addiw	x1,x1,-1 # 0x7ffffff
    28dc:	00c08463          	beq	x1,x12,0x28e4
    28e0:	f44fe06f          	jal	x0,0x1024
    28e4:	00100513          	addi	x10,x0,1
    28e8:	02f51513          	slli	x10,x10,0x2f
    28ec:	fff54513          	xori	x10,x10,-1
    28f0:	00200593          	addi	x11,x0,2
    28f4:	00b5563b          	srlw	x12,x10,x11
    28f8:	3ec23023          	sd	x12,992(x4) # 0x3e0
    28fc:	400000b7          	lui	x1,0x40000
    2900:	fff0809b          	addiw	x1,x1,-1 # 0x3fffffff
    2904:	00c08463          	beq	x1,x12,0x290c
    2908:	f1cfe06f          	jal	x0,0x1024
    290c:	00100513          	addi	x10,x0,1
    2910:	03051513          	slli	x10,x10,0x30
    2914:	fff54513          	xori	x10,x10,-1
    2918:	00e00593          	addi	x11,x0,14
    291c:	00b5563b          	srlw	x12,x10,x11
    2920:	3ec23423          	sd	x12,1000(x4) # 0x3e8
    2924:	000400b7          	lui	x1,0x40
    2928:	fff0809b          	addiw	x1,x1,-1 # 0x3ffff
    292c:	00c08463          	beq	x1,x12,0x2934
    2930:	ef4fe06f          	jal	x0,0x1024
    2934:	00100513          	addi	x10,x0,1
    2938:	03151513          	slli	x10,x10,0x31
    293c:	fff54513          	xori	x10,x10,-1
    2940:	00100593          	addi	x11,x0,1
    2944:	00b5563b          	srlw	x12,x10,x11
    2948:	3ec23823          	sd	x12,1008(x4) # 0x3f0
    294c:	800000b7          	lui	x1,0x80000
    2950:	fff0809b          	addiw	x1,x1,-1 # 0x7fffffff
    2954:	00c08463          	beq	x1,x12,0x295c
    2958:	eccfe06f          	jal	x0,0x1024
    295c:	00100513          	addi	x10,x0,1
    2960:	03251513          	slli	x10,x10,0x32
    2964:	fff54513          	xori	x10,x10,-1
    2968:	01e00593          	addi	x11,x0,30
    296c:	00b5563b          	srlw	x12,x10,x11
    2970:	3ec23c23          	sd	x12,1016(x4) # 0x3f8
    2974:	00300093          	addi	x1,x0,3
    2978:	00c08463          	beq	x1,x12,0x2980
    297c:	ea8fe06f          	jal	x0,0x1024
    2980:	00100513          	addi	x10,x0,1
    2984:	03351513          	slli	x10,x10,0x33
    2988:	fff54513          	xori	x10,x10,-1
    298c:	00c00593          	addi	x11,x0,12
    2990:	00b5563b          	srlw	x12,x10,x11
    2994:	40c23023          	sd	x12,1024(x4) # 0x400
    2998:	001000b7          	lui	x1,0x100
    299c:	fff0809b          	addiw	x1,x1,-1 # 0xfffff
    29a0:	00c08463          	beq	x1,x12,0x29a8
    29a4:	e80fe06f          	jal	x0,0x1024
    29a8:	00100513          	addi	x10,x0,1
    29ac:	03551513          	slli	x10,x10,0x35
    29b0:	fff54513          	xori	x10,x10,-1
    29b4:	00e00593          	addi	x11,x0,14
    29b8:	00b5563b          	srlw	x12,x10,x11
    29bc:	40c23423          	sd	x12,1032(x4) # 0x408
    29c0:	000400b7          	lui	x1,0x40
    29c4:	fff0809b          	addiw	x1,x1,-1 # 0x3ffff
    29c8:	00c08463          	beq	x1,x12,0x29d0
    29cc:	e58fe06f          	jal	x0,0x1024
    29d0:	00100513          	addi	x10,x0,1
    29d4:	03651513          	slli	x10,x10,0x36
    29d8:	fff54513          	xori	x10,x10,-1
    29dc:	00900593          	addi	x11,x0,9
    29e0:	00b5563b          	srlw	x12,x10,x11
    29e4:	40c23823          	sd	x12,1040(x4) # 0x410
    29e8:	008000b7          	lui	x1,0x800
    29ec:	fff0809b          	addiw	x1,x1,-1 # 0x7fffff
    29f0:	00c08463          	beq	x1,x12,0x29f8
    29f4:	e30fe06f          	jal	x0,0x1024
    29f8:	00000537          	lui	x10,0x0
    29fc:	fff50513          	addi	x10,x10,-1 # 0xffffffffffffffff
    2a00:	00b51513          	slli	x10,x10,0xb
    2a04:	25750513          	addi	x10,x10,599
    2a08:	00b51513          	slli	x10,x10,0xb
    2a0c:	6c350513          	addi	x10,x10,1731
    2a10:	00a51513          	slli	x10,x10,0xa
    2a14:	0cd50513          	addi	x10,x10,205
    2a18:	00600593          	addi	x11,x0,6
    2a1c:	00b5563b          	srlw	x12,x10,x11
    2a20:	40c23c23          	sd	x12,1048(x4) # 0x418
    2a24:	012bf0b7          	lui	x1,0x12bf
    2a28:	c330809b          	addiw	x1,x1,-973 # 0x12bec33
    2a2c:	00c08463          	beq	x1,x12,0x2a34
    2a30:	df4fe06f          	jal	x0,0x1024
    2a34:	00100513          	addi	x10,x0,1
    2a38:	03451513          	slli	x10,x10,0x34
    2a3c:	fff54513          	xori	x10,x10,-1
    2a40:	00000593          	addi	x11,x0,0
    2a44:	00b5563b          	srlw	x12,x10,x11
    2a48:	42c23023          	sd	x12,1056(x4) # 0x420
    2a4c:	fff00093          	addi	x1,x0,-1
    2a50:	00c08463          	beq	x1,x12,0x2a58
    2a54:	dd0fe06f          	jal	x0,0x1024
    2a58:	00000513          	addi	x10,x0,0
    2a5c:	01200593          	addi	x11,x0,18
    2a60:	00b5563b          	srlw	x12,x10,x11
    2a64:	42c23423          	sd	x12,1064(x4) # 0x428
    2a68:	00000093          	addi	x1,x0,0
    2a6c:	00c08463          	beq	x1,x12,0x2a74
    2a70:	db4fe06f          	jal	x0,0x1024
    2a74:	fff00513          	addi	x10,x0,-1
    2a78:	00155513          	srli	x10,x10,0x1
    2a7c:	01b00593          	addi	x11,x0,27
    2a80:	00b5563b          	srlw	x12,x10,x11
    2a84:	42c23823          	sd	x12,1072(x4) # 0x430
    2a88:	01f00093          	addi	x1,x0,31
    2a8c:	00c08463          	beq	x1,x12,0x2a94
    2a90:	d94fe06f          	jal	x0,0x1024
    2a94:	08000513          	addi	x10,x0,128
    2a98:	00d00593          	addi	x11,x0,13
    2a9c:	00b5563b          	srlw	x12,x10,x11
    2aa0:	42c23c23          	sd	x12,1080(x4) # 0x438
    2aa4:	00000093          	addi	x1,x0,0
    2aa8:	00c08463          	beq	x1,x12,0x2ab0
    2aac:	d78fe06f          	jal	x0,0x1024
    2ab0:	0380006f          	jal	x0,0x2ae8
    2ab4:	1f813483          	ld	x9,504(x2)
    2ab8:	20013303          	ld	x6,512(x2)
    2abc:	00930333          	add	x6,x6,x9
    2ac0:	00000337          	lui	x6,0x0
    2ac4:	00030313          	addi	x6,x6,0 # 0x0
    2ac8:	00b31313          	slli	x6,x6,0xb
    2acc:	5d630313          	addi	x6,x6,1494
    2ad0:	00b31313          	slli	x6,x6,0xb
    2ad4:	43630313          	addi	x6,x6,1078
    2ad8:	00a31313          	slli	x6,x6,0xa
    2adc:	2d030313          	addi	x6,x6,720
    2ae0:	fe64be23          	sd	x6,-4(x9)
    2ae4:	0040006f          	jal	x0,0x2ae8
    2ae8:	00000513          	addi	x10,x0,0
    2aec:	0200006f          	jal	x0,0x2b0c
	...
    2b0c:	00050513          	addi	x10,x10,0
    2b10:	00100073          	ebreak
    2b14:	0000006f          	jal	x0,0x2b14
    2b18:	ff010113          	addi	x2,x2,-16
    2b1c:	00000517          	auipc	x10,0x0
    2b20:	01c50513          	addi	x10,x10,28 # 0x2b38
    2b24:	00113423          	sd	x1,8(x2)
    2b28:	ce8fe0ef          	jal	x1,0x1010
    2b2c:	00050513          	addi	x10,x10,0
    2b30:	00100073          	ebreak
    2b34:	0000006f          	jal	x0,0x2b34
	...
    3000:	cafe                	c.swsp	x31,84(x2)
    3002:	babe                	c.fsdsp	f15,368(x2)
    3004:	cafe                	c.swsp	x31,84(x2)
    3006:	babe                	c.fsdsp	f15,368(x2)
    3008:	cafe                	c.swsp	x31,84(x2)
    300a:	babe                	c.fsdsp	f15,368(x2)
    300c:	cafe                	c.swsp	x31,84(x2)
    300e:	babe                	c.fsdsp	f15,368(x2)
    3010:	deadbeef          	jal	x29,0xfffffffffffde5fa
    3014:	deadbeef          	jal	x29,0xfffffffffffde5fe
	...
    4000:	b281                	c.j	0x3940
    4002:	e7d4                	c.sd	x13,136(x15)
    4004:	a309                	c.j	0x4506
    4006:	6f5c                	c.ld	x15,152(x14)
    4008:	deadbeef          	jal	x29,0xfffffffffffdf5f2
    400c:	deadbeef          	jal	x29,0xfffffffffffdf5f6
    4010:	deadbeef          	jal	x29,0xfffffffffffdf5fa
    4014:	deadbeef          	jal	x29,0xfffffffffffdf5fe
    4018:	deadbeef          	jal	x29,0xfffffffffffdf602
    401c:	deadbeef          	jal	x29,0xfffffffffffdf606
    4020:	deadbeef          	jal	x29,0xfffffffffffdf60a
    4024:	deadbeef          	jal	x29,0xfffffffffffdf60e
    4028:	deadbeef          	jal	x29,0xfffffffffffdf612
    402c:	deadbeef          	jal	x29,0xfffffffffffdf616
    4030:	deadbeef          	jal	x29,0xfffffffffffdf61a
    4034:	deadbeef          	jal	x29,0xfffffffffffdf61e
    4038:	deadbeef          	jal	x29,0xfffffffffffdf622
    403c:	deadbeef          	jal	x29,0xfffffffffffdf626
    4040:	deadbeef          	jal	x29,0xfffffffffffdf62a
    4044:	deadbeef          	jal	x29,0xfffffffffffdf62e
    4048:	deadbeef          	jal	x29,0xfffffffffffdf632
    404c:	deadbeef          	jal	x29,0xfffffffffffdf636
    4050:	deadbeef          	jal	x29,0xfffffffffffdf63a
    4054:	deadbeef          	jal	x29,0xfffffffffffdf63e
    4058:	deadbeef          	jal	x29,0xfffffffffffdf642
    405c:	deadbeef          	jal	x29,0xfffffffffffdf646
    4060:	deadbeef          	jal	x29,0xfffffffffffdf64a
    4064:	deadbeef          	jal	x29,0xfffffffffffdf64e
    4068:	deadbeef          	jal	x29,0xfffffffffffdf652
    406c:	deadbeef          	jal	x29,0xfffffffffffdf656
    4070:	deadbeef          	jal	x29,0xfffffffffffdf65a
    4074:	deadbeef          	jal	x29,0xfffffffffffdf65e
    4078:	deadbeef          	jal	x29,0xfffffffffffdf662
    407c:	deadbeef          	jal	x29,0xfffffffffffdf666
    4080:	deadbeef          	jal	x29,0xfffffffffffdf66a
    4084:	deadbeef          	jal	x29,0xfffffffffffdf66e
    4088:	deadbeef          	jal	x29,0xfffffffffffdf672
    408c:	deadbeef          	jal	x29,0xfffffffffffdf676
    4090:	deadbeef          	jal	x29,0xfffffffffffdf67a
    4094:	deadbeef          	jal	x29,0xfffffffffffdf67e
    4098:	deadbeef          	jal	x29,0xfffffffffffdf682
    409c:	deadbeef          	jal	x29,0xfffffffffffdf686
    40a0:	deadbeef          	jal	x29,0xfffffffffffdf68a
    40a4:	deadbeef          	jal	x29,0xfffffffffffdf68e
    40a8:	deadbeef          	jal	x29,0xfffffffffffdf692
    40ac:	deadbeef          	jal	x29,0xfffffffffffdf696
    40b0:	deadbeef          	jal	x29,0xfffffffffffdf69a
    40b4:	deadbeef          	jal	x29,0xfffffffffffdf69e
    40b8:	deadbeef          	jal	x29,0xfffffffffffdf6a2
    40bc:	deadbeef          	jal	x29,0xfffffffffffdf6a6
    40c0:	deadbeef          	jal	x29,0xfffffffffffdf6aa
    40c4:	deadbeef          	jal	x29,0xfffffffffffdf6ae
    40c8:	deadbeef          	jal	x29,0xfffffffffffdf6b2
    40cc:	deadbeef          	jal	x29,0xfffffffffffdf6b6
    40d0:	deadbeef          	jal	x29,0xfffffffffffdf6ba
    40d4:	deadbeef          	jal	x29,0xfffffffffffdf6be
    40d8:	deadbeef          	jal	x29,0xfffffffffffdf6c2
    40dc:	deadbeef          	jal	x29,0xfffffffffffdf6c6
    40e0:	deadbeef          	jal	x29,0xfffffffffffdf6ca
    40e4:	deadbeef          	jal	x29,0xfffffffffffdf6ce
    40e8:	deadbeef          	jal	x29,0xfffffffffffdf6d2
    40ec:	deadbeef          	jal	x29,0xfffffffffffdf6d6
    40f0:	deadbeef          	jal	x29,0xfffffffffffdf6da
    40f4:	deadbeef          	jal	x29,0xfffffffffffdf6de
    40f8:	deadbeef          	jal	x29,0xfffffffffffdf6e2
    40fc:	deadbeef          	jal	x29,0xfffffffffffdf6e6
    4100:	deadbeef          	jal	x29,0xfffffffffffdf6ea
    4104:	deadbeef          	jal	x29,0xfffffffffffdf6ee
    4108:	deadbeef          	jal	x29,0xfffffffffffdf6f2
    410c:	deadbeef          	jal	x29,0xfffffffffffdf6f6
    4110:	deadbeef          	jal	x29,0xfffffffffffdf6fa
    4114:	deadbeef          	jal	x29,0xfffffffffffdf6fe
    4118:	deadbeef          	jal	x29,0xfffffffffffdf702
    411c:	deadbeef          	jal	x29,0xfffffffffffdf706
    4120:	deadbeef          	jal	x29,0xfffffffffffdf70a
    4124:	deadbeef          	jal	x29,0xfffffffffffdf70e
    4128:	deadbeef          	jal	x29,0xfffffffffffdf712
    412c:	deadbeef          	jal	x29,0xfffffffffffdf716
    4130:	deadbeef          	jal	x29,0xfffffffffffdf71a
    4134:	deadbeef          	jal	x29,0xfffffffffffdf71e
    4138:	deadbeef          	jal	x29,0xfffffffffffdf722
    413c:	deadbeef          	jal	x29,0xfffffffffffdf726
    4140:	deadbeef          	jal	x29,0xfffffffffffdf72a
    4144:	deadbeef          	jal	x29,0xfffffffffffdf72e
    4148:	deadbeef          	jal	x29,0xfffffffffffdf732
    414c:	deadbeef          	jal	x29,0xfffffffffffdf736
    4150:	deadbeef          	jal	x29,0xfffffffffffdf73a
    4154:	deadbeef          	jal	x29,0xfffffffffffdf73e
    4158:	deadbeef          	jal	x29,0xfffffffffffdf742
    415c:	deadbeef          	jal	x29,0xfffffffffffdf746
    4160:	deadbeef          	jal	x29,0xfffffffffffdf74a
    4164:	deadbeef          	jal	x29,0xfffffffffffdf74e
    4168:	deadbeef          	jal	x29,0xfffffffffffdf752
    416c:	deadbeef          	jal	x29,0xfffffffffffdf756
    4170:	deadbeef          	jal	x29,0xfffffffffffdf75a
    4174:	deadbeef          	jal	x29,0xfffffffffffdf75e
    4178:	deadbeef          	jal	x29,0xfffffffffffdf762
    417c:	deadbeef          	jal	x29,0xfffffffffffdf766
    4180:	deadbeef          	jal	x29,0xfffffffffffdf76a
    4184:	deadbeef          	jal	x29,0xfffffffffffdf76e
    4188:	deadbeef          	jal	x29,0xfffffffffffdf772
    418c:	deadbeef          	jal	x29,0xfffffffffffdf776
    4190:	deadbeef          	jal	x29,0xfffffffffffdf77a
    4194:	deadbeef          	jal	x29,0xfffffffffffdf77e
    4198:	deadbeef          	jal	x29,0xfffffffffffdf782
    419c:	deadbeef          	jal	x29,0xfffffffffffdf786
    41a0:	deadbeef          	jal	x29,0xfffffffffffdf78a
    41a4:	deadbeef          	jal	x29,0xfffffffffffdf78e
    41a8:	deadbeef          	jal	x29,0xfffffffffffdf792
    41ac:	deadbeef          	jal	x29,0xfffffffffffdf796
    41b0:	deadbeef          	jal	x29,0xfffffffffffdf79a
    41b4:	deadbeef          	jal	x29,0xfffffffffffdf79e
    41b8:	deadbeef          	jal	x29,0xfffffffffffdf7a2
    41bc:	deadbeef          	jal	x29,0xfffffffffffdf7a6
    41c0:	deadbeef          	jal	x29,0xfffffffffffdf7aa
    41c4:	deadbeef          	jal	x29,0xfffffffffffdf7ae
    41c8:	deadbeef          	jal	x29,0xfffffffffffdf7b2
    41cc:	deadbeef          	jal	x29,0xfffffffffffdf7b6
    41d0:	deadbeef          	jal	x29,0xfffffffffffdf7ba
    41d4:	deadbeef          	jal	x29,0xfffffffffffdf7be
    41d8:	deadbeef          	jal	x29,0xfffffffffffdf7c2
    41dc:	deadbeef          	jal	x29,0xfffffffffffdf7c6
    41e0:	deadbeef          	jal	x29,0xfffffffffffdf7ca
    41e4:	deadbeef          	jal	x29,0xfffffffffffdf7ce
    41e8:	deadbeef          	jal	x29,0xfffffffffffdf7d2
    41ec:	deadbeef          	jal	x29,0xfffffffffffdf7d6
    41f0:	deadbeef          	jal	x29,0xfffffffffffdf7da
    41f4:	deadbeef          	jal	x29,0xfffffffffffdf7de
    41f8:	deadbeef          	jal	x29,0xfffffffffffdf7e2
    41fc:	deadbeef          	jal	x29,0xfffffffffffdf7e6
    4200:	deadbeef          	jal	x29,0xfffffffffffdf7ea
    4204:	deadbeef          	jal	x29,0xfffffffffffdf7ee
    4208:	deadbeef          	jal	x29,0xfffffffffffdf7f2
    420c:	deadbeef          	jal	x29,0xfffffffffffdf7f6
    4210:	deadbeef          	jal	x29,0xfffffffffffdf7fa
    4214:	deadbeef          	jal	x29,0xfffffffffffdf7fe
    4218:	deadbeef          	jal	x29,0xfffffffffffdf802
    421c:	deadbeef          	jal	x29,0xfffffffffffdf806
    4220:	deadbeef          	jal	x29,0xfffffffffffdf80a
    4224:	deadbeef          	jal	x29,0xfffffffffffdf80e
    4228:	deadbeef          	jal	x29,0xfffffffffffdf812
    422c:	deadbeef          	jal	x29,0xfffffffffffdf816
    4230:	deadbeef          	jal	x29,0xfffffffffffdf81a
    4234:	deadbeef          	jal	x29,0xfffffffffffdf81e
    4238:	deadbeef          	jal	x29,0xfffffffffffdf822
    423c:	deadbeef          	jal	x29,0xfffffffffffdf826
    4240:	deadbeef          	jal	x29,0xfffffffffffdf82a
    4244:	deadbeef          	jal	x29,0xfffffffffffdf82e
    4248:	deadbeef          	jal	x29,0xfffffffffffdf832
    424c:	deadbeef          	jal	x29,0xfffffffffffdf836
    4250:	deadbeef          	jal	x29,0xfffffffffffdf83a
    4254:	deadbeef          	jal	x29,0xfffffffffffdf83e
    4258:	deadbeef          	jal	x29,0xfffffffffffdf842
    425c:	deadbeef          	jal	x29,0xfffffffffffdf846
    4260:	deadbeef          	jal	x29,0xfffffffffffdf84a
    4264:	deadbeef          	jal	x29,0xfffffffffffdf84e
    4268:	deadbeef          	jal	x29,0xfffffffffffdf852
    426c:	deadbeef          	jal	x29,0xfffffffffffdf856
    4270:	deadbeef          	jal	x29,0xfffffffffffdf85a
    4274:	deadbeef          	jal	x29,0xfffffffffffdf85e
    4278:	deadbeef          	jal	x29,0xfffffffffffdf862
    427c:	deadbeef          	jal	x29,0xfffffffffffdf866
    4280:	deadbeef          	jal	x29,0xfffffffffffdf86a
    4284:	deadbeef          	jal	x29,0xfffffffffffdf86e
    4288:	deadbeef          	jal	x29,0xfffffffffffdf872
    428c:	deadbeef          	jal	x29,0xfffffffffffdf876
    4290:	deadbeef          	jal	x29,0xfffffffffffdf87a
    4294:	deadbeef          	jal	x29,0xfffffffffffdf87e
    4298:	deadbeef          	jal	x29,0xfffffffffffdf882
    429c:	deadbeef          	jal	x29,0xfffffffffffdf886
    42a0:	deadbeef          	jal	x29,0xfffffffffffdf88a
    42a4:	deadbeef          	jal	x29,0xfffffffffffdf88e
    42a8:	deadbeef          	jal	x29,0xfffffffffffdf892
    42ac:	deadbeef          	jal	x29,0xfffffffffffdf896
    42b0:	deadbeef          	jal	x29,0xfffffffffffdf89a
    42b4:	deadbeef          	jal	x29,0xfffffffffffdf89e
    42b8:	deadbeef          	jal	x29,0xfffffffffffdf8a2
    42bc:	deadbeef          	jal	x29,0xfffffffffffdf8a6
    42c0:	deadbeef          	jal	x29,0xfffffffffffdf8aa
    42c4:	deadbeef          	jal	x29,0xfffffffffffdf8ae
    42c8:	deadbeef          	jal	x29,0xfffffffffffdf8b2
    42cc:	deadbeef          	jal	x29,0xfffffffffffdf8b6
    42d0:	deadbeef          	jal	x29,0xfffffffffffdf8ba
    42d4:	deadbeef          	jal	x29,0xfffffffffffdf8be
    42d8:	deadbeef          	jal	x29,0xfffffffffffdf8c2
    42dc:	deadbeef          	jal	x29,0xfffffffffffdf8c6
    42e0:	deadbeef          	jal	x29,0xfffffffffffdf8ca
    42e4:	deadbeef          	jal	x29,0xfffffffffffdf8ce
    42e8:	deadbeef          	jal	x29,0xfffffffffffdf8d2
    42ec:	deadbeef          	jal	x29,0xfffffffffffdf8d6
    42f0:	deadbeef          	jal	x29,0xfffffffffffdf8da
    42f4:	deadbeef          	jal	x29,0xfffffffffffdf8de
    42f8:	deadbeef          	jal	x29,0xfffffffffffdf8e2
    42fc:	deadbeef          	jal	x29,0xfffffffffffdf8e6
    4300:	deadbeef          	jal	x29,0xfffffffffffdf8ea
    4304:	deadbeef          	jal	x29,0xfffffffffffdf8ee
    4308:	deadbeef          	jal	x29,0xfffffffffffdf8f2
    430c:	deadbeef          	jal	x29,0xfffffffffffdf8f6
    4310:	deadbeef          	jal	x29,0xfffffffffffdf8fa
    4314:	deadbeef          	jal	x29,0xfffffffffffdf8fe
    4318:	deadbeef          	jal	x29,0xfffffffffffdf902
    431c:	deadbeef          	jal	x29,0xfffffffffffdf906
    4320:	deadbeef          	jal	x29,0xfffffffffffdf90a
    4324:	deadbeef          	jal	x29,0xfffffffffffdf90e
    4328:	deadbeef          	jal	x29,0xfffffffffffdf912
    432c:	deadbeef          	jal	x29,0xfffffffffffdf916
    4330:	deadbeef          	jal	x29,0xfffffffffffdf91a
    4334:	deadbeef          	jal	x29,0xfffffffffffdf91e
    4338:	deadbeef          	jal	x29,0xfffffffffffdf922
    433c:	deadbeef          	jal	x29,0xfffffffffffdf926
    4340:	deadbeef          	jal	x29,0xfffffffffffdf92a
    4344:	deadbeef          	jal	x29,0xfffffffffffdf92e
    4348:	deadbeef          	jal	x29,0xfffffffffffdf932
    434c:	deadbeef          	jal	x29,0xfffffffffffdf936
    4350:	deadbeef          	jal	x29,0xfffffffffffdf93a
    4354:	deadbeef          	jal	x29,0xfffffffffffdf93e
    4358:	deadbeef          	jal	x29,0xfffffffffffdf942
    435c:	deadbeef          	jal	x29,0xfffffffffffdf946
    4360:	deadbeef          	jal	x29,0xfffffffffffdf94a
    4364:	deadbeef          	jal	x29,0xfffffffffffdf94e
    4368:	deadbeef          	jal	x29,0xfffffffffffdf952
    436c:	deadbeef          	jal	x29,0xfffffffffffdf956
    4370:	deadbeef          	jal	x29,0xfffffffffffdf95a
    4374:	deadbeef          	jal	x29,0xfffffffffffdf95e
    4378:	deadbeef          	jal	x29,0xfffffffffffdf962
    437c:	deadbeef          	jal	x29,0xfffffffffffdf966
    4380:	deadbeef          	jal	x29,0xfffffffffffdf96a
    4384:	deadbeef          	jal	x29,0xfffffffffffdf96e
    4388:	deadbeef          	jal	x29,0xfffffffffffdf972
    438c:	deadbeef          	jal	x29,0xfffffffffffdf976
    4390:	deadbeef          	jal	x29,0xfffffffffffdf97a
    4394:	deadbeef          	jal	x29,0xfffffffffffdf97e
    4398:	deadbeef          	jal	x29,0xfffffffffffdf982
    439c:	deadbeef          	jal	x29,0xfffffffffffdf986
    43a0:	deadbeef          	jal	x29,0xfffffffffffdf98a
    43a4:	deadbeef          	jal	x29,0xfffffffffffdf98e
    43a8:	deadbeef          	jal	x29,0xfffffffffffdf992
    43ac:	deadbeef          	jal	x29,0xfffffffffffdf996
    43b0:	deadbeef          	jal	x29,0xfffffffffffdf99a
    43b4:	deadbeef          	jal	x29,0xfffffffffffdf99e
    43b8:	deadbeef          	jal	x29,0xfffffffffffdf9a2
    43bc:	deadbeef          	jal	x29,0xfffffffffffdf9a6
    43c0:	deadbeef          	jal	x29,0xfffffffffffdf9aa
    43c4:	deadbeef          	jal	x29,0xfffffffffffdf9ae
    43c8:	deadbeef          	jal	x29,0xfffffffffffdf9b2
    43cc:	deadbeef          	jal	x29,0xfffffffffffdf9b6
    43d0:	deadbeef          	jal	x29,0xfffffffffffdf9ba
    43d4:	deadbeef          	jal	x29,0xfffffffffffdf9be
    43d8:	deadbeef          	jal	x29,0xfffffffffffdf9c2
    43dc:	deadbeef          	jal	x29,0xfffffffffffdf9c6
    43e0:	deadbeef          	jal	x29,0xfffffffffffdf9ca
    43e4:	deadbeef          	jal	x29,0xfffffffffffdf9ce
    43e8:	deadbeef          	jal	x29,0xfffffffffffdf9d2
    43ec:	deadbeef          	jal	x29,0xfffffffffffdf9d6
    43f0:	deadbeef          	jal	x29,0xfffffffffffdf9da
    43f4:	deadbeef          	jal	x29,0xfffffffffffdf9de
    43f8:	deadbeef          	jal	x29,0xfffffffffffdf9e2
    43fc:	deadbeef          	jal	x29,0xfffffffffffdf9e6
    4400:	deadbeef          	jal	x29,0xfffffffffffdf9ea
    4404:	deadbeef          	jal	x29,0xfffffffffffdf9ee
    4408:	deadbeef          	jal	x29,0xfffffffffffdf9f2
    440c:	deadbeef          	jal	x29,0xfffffffffffdf9f6
    4410:	deadbeef          	jal	x29,0xfffffffffffdf9fa
    4414:	deadbeef          	jal	x29,0xfffffffffffdf9fe
    4418:	deadbeef          	jal	x29,0xfffffffffffdfa02
    441c:	deadbeef          	jal	x29,0xfffffffffffdfa06
    4420:	deadbeef          	jal	x29,0xfffffffffffdfa0a
    4424:	deadbeef          	jal	x29,0xfffffffffffdfa0e
    4428:	deadbeef          	jal	x29,0xfffffffffffdfa12
    442c:	deadbeef          	jal	x29,0xfffffffffffdfa16
    4430:	deadbeef          	jal	x29,0xfffffffffffdfa1a
    4434:	deadbeef          	jal	x29,0xfffffffffffdfa1e
    4438:	deadbeef          	jal	x29,0xfffffffffffdfa22
    443c:	deadbeef          	jal	x29,0xfffffffffffdfa26
    4440:	deadbeef          	jal	x29,0xfffffffffffdfa2a
    4444:	deadbeef          	jal	x29,0xfffffffffffdfa2e
    4448:	deadbeef          	jal	x29,0xfffffffffffdfa32
    444c:	deadbeef          	jal	x29,0xfffffffffffdfa36
    4450:	deadbeef          	jal	x29,0xfffffffffffdfa3a
    4454:	deadbeef          	jal	x29,0xfffffffffffdfa3e
    4458:	deadbeef          	jal	x29,0xfffffffffffdfa42
    445c:	deadbeef          	jal	x29,0xfffffffffffdfa46
    4460:	deadbeef          	jal	x29,0xfffffffffffdfa4a
    4464:	deadbeef          	jal	x29,0xfffffffffffdfa4e
    4468:	deadbeef          	jal	x29,0xfffffffffffdfa52
    446c:	deadbeef          	jal	x29,0xfffffffffffdfa56
    4470:	deadbeef          	jal	x29,0xfffffffffffdfa5a
    4474:	deadbeef          	jal	x29,0xfffffffffffdfa5e
    4478:	deadbeef          	jal	x29,0xfffffffffffdfa62
    447c:	deadbeef          	jal	x29,0xfffffffffffdfa66
    4480:	deadbeef          	jal	x29,0xfffffffffffdfa6a
    4484:	deadbeef          	jal	x29,0xfffffffffffdfa6e
    4488:	deadbeef          	jal	x29,0xfffffffffffdfa72
    448c:	deadbeef          	jal	x29,0xfffffffffffdfa76
    4490:	deadbeef          	jal	x29,0xfffffffffffdfa7a
    4494:	deadbeef          	jal	x29,0xfffffffffffdfa7e
    4498:	deadbeef          	jal	x29,0xfffffffffffdfa82
    449c:	deadbeef          	jal	x29,0xfffffffffffdfa86
    44a0:	deadbeef          	jal	x29,0xfffffffffffdfa8a
    44a4:	deadbeef          	jal	x29,0xfffffffffffdfa8e
    44a8:	deadbeef          	jal	x29,0xfffffffffffdfa92
    44ac:	deadbeef          	jal	x29,0xfffffffffffdfa96
    44b0:	deadbeef          	jal	x29,0xfffffffffffdfa9a
    44b4:	deadbeef          	jal	x29,0xfffffffffffdfa9e
    44b8:	deadbeef          	jal	x29,0xfffffffffffdfaa2
    44bc:	deadbeef          	jal	x29,0xfffffffffffdfaa6
    44c0:	deadbeef          	jal	x29,0xfffffffffffdfaaa
    44c4:	deadbeef          	jal	x29,0xfffffffffffdfaae
    44c8:	deadbeef          	jal	x29,0xfffffffffffdfab2
    44cc:	deadbeef          	jal	x29,0xfffffffffffdfab6
    44d0:	deadbeef          	jal	x29,0xfffffffffffdfaba
    44d4:	deadbeef          	jal	x29,0xfffffffffffdfabe
    44d8:	b281                	c.j	0x3e18
    44da:	e7d4                	c.sd	x13,136(x15)
    44dc:	a309                	c.j	0x49de
    44de:	6f5c                	c.ld	x15,152(x14)
    44e0:	3a434347          	fmsub.d	f6,f6,f4,f7,rmm
    44e4:	2820                	c.fld	f8,80(x8)
    44e6:	6255                	c.lui	x4,0x15
    44e8:	6e75                	c.lui	x28,0x1d
    44ea:	7574                	c.ld	x13,232(x10)
    44ec:	3120                	c.fld	f8,96(x10)
    44ee:	2e31                	c.addiw	x28,12 # 0x1d00c
    44f0:	2e32                	c.fldsp	f28,264(x2)
    44f2:	2d30                	c.fld	f12,88(x10)
    44f4:	3631                	c.addiw	x12,-20
    44f6:	6275                	c.lui	x4,0x1d
    44f8:	6e75                	c.lui	x28,0x1d
    44fa:	7574                	c.ld	x13,232(x10)
    44fc:	2931                	c.addiw	x18,12
    44fe:	3120                	c.fld	f8,96(x10)
    4500:	2e31                	c.addiw	x28,12 # 0x1d00c
    4502:	2e32                	c.fldsp	f28,264(x2)
    4504:	0030                	c.addi4spn	x12,x2,8
    4506:	2d41                	c.addiw	x26,16
    4508:	0000                	c.unimp
    450a:	7200                	c.ld	x8,32(x12)
    450c:	7369                	c.lui	x6,0xffffa
    450e:	01007663          	bgeu	x0,x16,0x451a
    4512:	00000023          	sb	x0,0(x0) # 0x0
    4516:	7205                	c.lui	x4,0xfffe1
    4518:	3676                	c.fldsp	f12,376(x2)
    451a:	6934                	c.ld	x13,80(x10)
    451c:	7032                	.insn	2, 0x7032
    451e:	5f30                	c.lw	x12,120(x14)
    4520:	326d                	c.addiw	x4,-5 # 0xfffffffffffe0ffb
    4522:	3070                	c.fld	f12,224(x8)
    4524:	615f 7032 5f30      	.insn	6, 0x5f307032615f
    452a:	3266                	c.fldsp	f4,120(x2)
    452c:	3070                	c.fld	f12,224(x8)
    452e:	645f 7032 0030      	.insn	6, 0x00307032645f
	...
    4554:	00010003          	lb	x0,0(x2)
    4558:	0000                	c.unimp
    455a:	8000                	.insn	2, 0x8000
	...
    456c:	00020003          	lb	x0,0(x4) # 0x0
    4570:	1b38                	c.addi4spn	x14,x2,440
    4572:	8000                	.insn	2, 0x8000
	...
    4584:	00030003          	lb	x0,0(x6) # 0xffffffffffffa000
    4588:	2000                	c.fld	f8,0(x8)
    458a:	8000                	.insn	2, 0x8000
	...
    459c:	00040003          	lb	x0,0(x8)
	...
    45b4:	00050003          	lb	x0,0(x10)
	...
    45c8:	0001                	c.addi	x0,0
    45ca:	0000                	c.unimp
    45cc:	0004                	.insn	2, 0x0004
    45ce:	fff1                	c.bnez	x15,0x45aa
	...
    45e0:	0009                	c.addi	x0,2
    45e2:	0000                	c.unimp
    45e4:	0000                	c.unimp
    45e6:	0001                	c.addi	x0,0
    45e8:	0000                	c.unimp
    45ea:	8000                	.insn	2, 0x8000
	...
    45f8:	000c                	.insn	2, 0x000c
    45fa:	0000                	c.unimp
    45fc:	0004                	.insn	2, 0x0004
    45fe:	fff1                	c.bnez	x15,0x45da
	...
    4610:	0009                	c.addi	x0,2
    4612:	0000                	c.unimp
    4614:	0000                	c.unimp
    4616:	0001                	c.addi	x0,0
    4618:	0010                	.insn	2, 0x0010
    461a:	8000                	.insn	2, 0x8000
	...
    4628:	0009                	c.addi	x0,2
    462a:	0000                	c.unimp
    462c:	0000                	c.unimp
    462e:	0001                	c.addi	x0,0
    4630:	0024                	c.addi4spn	x9,x2,8
    4632:	8000                	.insn	2, 0x8000
	...
    4640:	00000013          	addi	x0,x0,0
    4644:	0004                	.insn	2, 0x0004
    4646:	fff1                	c.bnez	x15,0x4622
	...
    4658:	001d                	c.addi	x0,7
    465a:	0000                	c.unimp
    465c:	0000                	c.unimp
    465e:	fff1                	c.bnez	x15,0x463a
    4660:	00000003          	lb	x0,0(x0) # 0x0
	...
    4670:	00000027          	.insn	4, 0x0027
    4674:	0000                	c.unimp
    4676:	fff1                	c.bnez	x15,0x4652
    4678:	0001                	c.addi	x0,0
	...
    4686:	0000                	c.unimp
    4688:	0031                	c.addi	x0,12
    468a:	0000                	c.unimp
    468c:	0000                	c.unimp
    468e:	fff1                	c.bnez	x15,0x466a
    4690:	0002                	c.slli64	x0
	...
    469e:	0000                	c.unimp
    46a0:	0009                	c.addi	x0,2
    46a2:	0000                	c.unimp
    46a4:	0000                	c.unimp
    46a6:	0001                	c.addi	x0,0
    46a8:	0040                	c.addi4spn	x8,x2,4
    46aa:	8000                	.insn	2, 0x8000
	...
    46b8:	0000003b          	addw	x0,x0,x0
    46bc:	0000                	c.unimp
    46be:	fff1                	c.bnez	x15,0x469a
    46c0:	dad0                	c.sw	x12,52(x13)
    46c2:	bad0                	c.fsd	f12,176(x13)
	...
    46d0:	0040                	c.addi4spn	x8,x2,4
    46d2:	0000                	c.unimp
    46d4:	0000                	c.unimp
    46d6:	fff1                	c.bnez	x15,0x46b2
    46d8:	0004                	.insn	2, 0x0004
	...
    46e6:	0000                	c.unimp
    46e8:	0046                	c.slli	x0,0x11
    46ea:	0000                	c.unimp
    46ec:	0000                	c.unimp
    46ee:	fff1                	c.bnez	x15,0x46ca
    46f0:	0005                	c.addi	x0,1
	...
    46fe:	0000                	c.unimp
    4700:	004c                	c.addi4spn	x11,x2,4
    4702:	0000                	c.unimp
    4704:	0000                	c.unimp
    4706:	fff1                	c.bnez	x15,0x46e2
	...
    4718:	0051                	c.addi	x0,20
    471a:	0000                	c.unimp
    471c:	0000                	c.unimp
    471e:	fff1                	c.bnez	x15,0x46fa
	...
    4730:	0056                	c.slli	x0,0x15
    4732:	0000                	c.unimp
    4734:	0000                	c.unimp
    4736:	fff1                	c.bnez	x15,0x4712
    4738:	dad0                	c.sw	x12,52(x13)
    473a:	bad0                	c.fsd	f12,176(x13)
	...
    4748:	0000005b          	.insn	4, 0x005b
    474c:	0000                	c.unimp
    474e:	fff1                	c.bnez	x15,0x472a
    4750:	0040                	c.addi4spn	x8,x2,4
	...
    475e:	0000                	c.unimp
    4760:	005f 0000 0000      	.insn	6, 0x005f
    4766:	fff1                	c.bnez	x15,0x4742
    4768:	dad0                	c.sw	x12,52(x13)
    476a:	bad0                	c.fsd	f12,176(x13)
	...
    4778:	0066                	c.slli	x0,0x19
    477a:	0000                	c.unimp
    477c:	0000                	c.unimp
    477e:	fff1                	c.bnez	x15,0x475a
    4780:	0001                	c.addi	x0,0
	...
    478e:	0000                	c.unimp
    4790:	006a                	c.slli	x0,0x1a
    4792:	0000                	c.unimp
    4794:	0000                	c.unimp
    4796:	fff1                	c.bnez	x15,0x4772
    4798:	fad0                	c.sd	x12,176(x13)
    479a:	ffff                	.insn	2, 0xffff
    479c:	ffff                	.insn	2, 0xffff
    479e:	ffff                	.insn	2, 0xffff
	...
    47a8:	0070                	c.addi4spn	x12,x2,12
    47aa:	0000                	c.unimp
    47ac:	0000                	c.unimp
    47ae:	fff1                	c.bnez	x15,0x478a
    47b0:	0001                	c.addi	x0,0
	...
    47be:	0000                	c.unimp
    47c0:	0075                	c.addi	x0,29
    47c2:	0000                	c.unimp
    47c4:	0000                	c.unimp
    47c6:	fff1                	c.bnez	x15,0x47a2
	...
    47d8:	007a                	c.slli	x0,0x1e
    47da:	0000                	c.unimp
    47dc:	0000                	c.unimp
    47de:	fff1                	c.bnez	x15,0x47ba
    47e0:	0dad                	c.addi	x27,11
    47e2:	0bad                	c.addi	x23,11
	...
    47f0:	0081                	c.addi	x1,0
    47f2:	0000                	c.unimp
    47f4:	0000                	c.unimp
    47f6:	fff1                	c.bnez	x15,0x47d2
    47f8:	fdad                	c.bnez	x11,0x4772
    47fa:	ffff                	.insn	2, 0xffff
    47fc:	ffff                	.insn	2, 0xffff
    47fe:	ffff                	.insn	2, 0xffff
	...
    4808:	0089                	c.addi	x1,2
    480a:	0000                	c.unimp
    480c:	0000                	c.unimp
    480e:	fff1                	c.bnez	x15,0x47ea
    4810:	0001                	c.addi	x0,0
	...
    481e:	0000                	c.unimp
    4820:	0000008f          	.insn	4, 0x008f
    4824:	0000                	c.unimp
    4826:	fff1                	c.bnez	x15,0x4802
    4828:	0dad                	c.addi	x27,11
    482a:	0bad                	c.addi	x23,11
	...
    4838:	0098                	c.addi4spn	x14,x2,64
    483a:	0000                	c.unimp
    483c:	0000                	c.unimp
    483e:	30080003          	lb	x0,768(x16)
    4842:	8000                	.insn	2, 0x8000
	...
    4850:	000006db          	.insn	4, 0x06db
    4854:	0000                	c.unimp
    4856:	fff1                	c.bnez	x15,0x4832
    4858:	0440                	c.addi4spn	x8,x2,516
	...
    4866:	0000                	c.unimp
    4868:	000000a7          	.insn	4, 0x00a7
    486c:	0000                	c.unimp
    486e:	0001                	c.addi	x0,0
    4870:	0440                	c.addi4spn	x8,x2,516
    4872:	8000                	.insn	2, 0x8000
	...
    4880:	00ae                	c.slli	x1,0xb
    4882:	0000                	c.unimp
    4884:	0000                	c.unimp
    4886:	0001                	c.addi	x0,0
    4888:	0498                	c.addi4spn	x14,x2,576
    488a:	8000                	.insn	2, 0x8000
	...
    4898:	00b5                	c.addi	x1,13
    489a:	0000                	c.unimp
    489c:	0000                	c.unimp
    489e:	0001                	c.addi	x0,0
    48a0:	04b8                	c.addi4spn	x14,x2,584
    48a2:	8000                	.insn	2, 0x8000
	...
    48b0:	00bc                	c.addi4spn	x15,x2,72
    48b2:	0000                	c.unimp
    48b4:	0000                	c.unimp
    48b6:	0001                	c.addi	x0,0
    48b8:	04e4                	c.addi4spn	x9,x2,588
    48ba:	8000                	.insn	2, 0x8000
	...
    48c8:	000000c3          	fmadd.s	f1,f0,f0,f0,rne
    48cc:	0000                	c.unimp
    48ce:	0001                	c.addi	x0,0
    48d0:	0504                	c.addi4spn	x9,x2,640
    48d2:	8000                	.insn	2, 0x8000
	...
    48e0:	00ca                	c.slli	x1,0x12
    48e2:	0000                	c.unimp
    48e4:	0000                	c.unimp
    48e6:	0001                	c.addi	x0,0
    48e8:	0520                	c.addi4spn	x8,x2,648
    48ea:	8000                	.insn	2, 0x8000
	...
    48f8:	00d1                	c.addi	x1,20
    48fa:	0000                	c.unimp
    48fc:	0000                	c.unimp
    48fe:	0001                	c.addi	x0,0
    4900:	0540                	c.addi4spn	x8,x2,644
    4902:	8000                	.insn	2, 0x8000
	...
    4910:	00d8                	c.addi4spn	x14,x2,68
    4912:	0000                	c.unimp
    4914:	0000                	c.unimp
    4916:	0001                	c.addi	x0,0
    4918:	055c                	c.addi4spn	x15,x2,644
    491a:	8000                	.insn	2, 0x8000
	...
    4928:	00df 0000 0000      	.insn	6, 0x00df
    492e:	0001                	c.addi	x0,0
    4930:	057c                	c.addi4spn	x15,x2,652
    4932:	8000                	.insn	2, 0x8000
	...
    4940:	00e6                	c.slli	x1,0x19
    4942:	0000                	c.unimp
    4944:	0000                	c.unimp
    4946:	0001                	c.addi	x0,0
    4948:	0598                	c.addi4spn	x14,x2,704
    494a:	8000                	.insn	2, 0x8000
	...
    4958:	00ed                	c.addi	x1,27
    495a:	0000                	c.unimp
    495c:	0000                	c.unimp
    495e:	0001                	c.addi	x0,0
    4960:	05b4                	c.addi4spn	x13,x2,712
    4962:	8000                	.insn	2, 0x8000
	...
    4970:	00f5                	c.addi	x1,29
    4972:	0000                	c.unimp
    4974:	0000                	c.unimp
    4976:	0001                	c.addi	x0,0
    4978:	05d0                	c.addi4spn	x12,x2,708
    497a:	8000                	.insn	2, 0x8000
	...
    4988:	00fd                	c.addi	x1,31
    498a:	0000                	c.unimp
    498c:	0000                	c.unimp
    498e:	0001                	c.addi	x0,0
    4990:	05ec                	c.addi4spn	x11,x2,716
    4992:	8000                	.insn	2, 0x8000
	...
    49a0:	0105                	c.addi	x2,1
    49a2:	0000                	c.unimp
    49a4:	0000                	c.unimp
    49a6:	0001                	c.addi	x0,0
    49a8:	0608                	c.addi4spn	x10,x2,768
    49aa:	8000                	.insn	2, 0x8000
	...
    49b8:	010d                	c.addi	x2,3
    49ba:	0000                	c.unimp
    49bc:	0000                	c.unimp
    49be:	0001                	c.addi	x0,0
    49c0:	0624                	c.addi4spn	x9,x2,776
    49c2:	8000                	.insn	2, 0x8000
	...
    49d0:	0115                	c.addi	x2,5
    49d2:	0000                	c.unimp
    49d4:	0000                	c.unimp
    49d6:	0001                	c.addi	x0,0
    49d8:	0640                	c.addi4spn	x8,x2,772
    49da:	8000                	.insn	2, 0x8000
	...
    49e8:	011d                	c.addi	x2,7
    49ea:	0000                	c.unimp
    49ec:	0000                	c.unimp
    49ee:	0001                	c.addi	x0,0
    49f0:	065c                	c.addi4spn	x15,x2,772
    49f2:	8000                	.insn	2, 0x8000
	...
    4a00:	0125                	c.addi	x2,9
    4a02:	0000                	c.unimp
    4a04:	0000                	c.unimp
    4a06:	0001                	c.addi	x0,0
    4a08:	0678                	c.addi4spn	x14,x2,780
    4a0a:	8000                	.insn	2, 0x8000
	...
    4a18:	012d                	c.addi	x2,11
    4a1a:	0000                	c.unimp
    4a1c:	0000                	c.unimp
    4a1e:	30980003          	lb	x0,777(x16)
    4a22:	8000                	.insn	2, 0x8000
	...
    4a30:	013c                	c.addi4spn	x15,x2,136
    4a32:	0000                	c.unimp
    4a34:	0000                	c.unimp
    4a36:	0001                	c.addi	x0,0
    4a38:	06c0                	c.addi4spn	x8,x2,836
    4a3a:	8000                	.insn	2, 0x8000
	...
    4a48:	0144                	c.addi4spn	x9,x2,132
    4a4a:	0000                	c.unimp
    4a4c:	0000                	c.unimp
    4a4e:	0001                	c.addi	x0,0
    4a50:	06dc                	c.addi4spn	x15,x2,836
    4a52:	8000                	.insn	2, 0x8000
	...
    4a60:	014c                	c.addi4spn	x11,x2,132
    4a62:	0000                	c.unimp
    4a64:	0000                	c.unimp
    4a66:	0001                	c.addi	x0,0
    4a68:	06fc                	c.addi4spn	x15,x2,844
    4a6a:	8000                	.insn	2, 0x8000
	...
    4a78:	0154                	c.addi4spn	x13,x2,132
    4a7a:	0000                	c.unimp
    4a7c:	0000                	c.unimp
    4a7e:	0001                	c.addi	x0,0
    4a80:	071c                	c.addi4spn	x15,x2,896
    4a82:	8000                	.insn	2, 0x8000
	...
    4a90:	015c                	c.addi4spn	x15,x2,132
    4a92:	0000                	c.unimp
    4a94:	0000                	c.unimp
    4a96:	0001                	c.addi	x0,0
    4a98:	073c                	c.addi4spn	x15,x2,904
    4a9a:	8000                	.insn	2, 0x8000
	...
    4aa8:	0164                	c.addi4spn	x9,x2,140
    4aaa:	0000                	c.unimp
    4aac:	0000                	c.unimp
    4aae:	0001                	c.addi	x0,0
    4ab0:	075c                	c.addi4spn	x15,x2,900
    4ab2:	8000                	.insn	2, 0x8000
	...
    4ac0:	016c                	c.addi4spn	x11,x2,140
    4ac2:	0000                	c.unimp
    4ac4:	0000                	c.unimp
    4ac6:	0001                	c.addi	x0,0
    4ac8:	077c                	c.addi4spn	x15,x2,908
    4aca:	8000                	.insn	2, 0x8000
	...
    4ad8:	0174                	c.addi4spn	x13,x2,140
    4ada:	0000                	c.unimp
    4adc:	0000                	c.unimp
    4ade:	0001                	c.addi	x0,0
    4ae0:	079c                	c.addi4spn	x15,x2,960
    4ae2:	8000                	.insn	2, 0x8000
	...
    4af0:	017c                	c.addi4spn	x15,x2,140
    4af2:	0000                	c.unimp
    4af4:	0000                	c.unimp
    4af6:	0001                	c.addi	x0,0
    4af8:	07bc                	c.addi4spn	x15,x2,968
    4afa:	8000                	.insn	2, 0x8000
	...
    4b08:	0184                	c.addi4spn	x9,x2,192
    4b0a:	0000                	c.unimp
    4b0c:	0000                	c.unimp
    4b0e:	0001                	c.addi	x0,0
    4b10:	07dc                	c.addi4spn	x15,x2,964
    4b12:	8000                	.insn	2, 0x8000
	...
    4b20:	018c                	c.addi4spn	x11,x2,192
    4b22:	0000                	c.unimp
    4b24:	0000                	c.unimp
    4b26:	0001                	c.addi	x0,0
    4b28:	07fc                	c.addi4spn	x15,x2,972
    4b2a:	8000                	.insn	2, 0x8000
	...
    4b38:	0194                	c.addi4spn	x13,x2,192
    4b3a:	0000                	c.unimp
    4b3c:	0000                	c.unimp
    4b3e:	0001                	c.addi	x0,0
    4b40:	081c                	c.addi4spn	x15,x2,16
    4b42:	8000                	.insn	2, 0x8000
	...
    4b50:	019c                	c.addi4spn	x15,x2,192
    4b52:	0000                	c.unimp
    4b54:	0000                	c.unimp
    4b56:	0001                	c.addi	x0,0
    4b58:	083c                	c.addi4spn	x15,x2,24
    4b5a:	8000                	.insn	2, 0x8000
	...
    4b68:	01a4                	c.addi4spn	x9,x2,200
    4b6a:	0000                	c.unimp
    4b6c:	0000                	c.unimp
    4b6e:	0001                	c.addi	x0,0
    4b70:	085c                	c.addi4spn	x15,x2,20
    4b72:	8000                	.insn	2, 0x8000
	...
    4b80:	01ac                	c.addi4spn	x11,x2,200
    4b82:	0000                	c.unimp
    4b84:	0000                	c.unimp
    4b86:	0001                	c.addi	x0,0
    4b88:	087c                	c.addi4spn	x15,x2,28
    4b8a:	8000                	.insn	2, 0x8000
	...
    4b98:	01b4                	c.addi4spn	x13,x2,200
    4b9a:	0000                	c.unimp
    4b9c:	0000                	c.unimp
    4b9e:	0001                	c.addi	x0,0
    4ba0:	089c                	c.addi4spn	x15,x2,80
    4ba2:	8000                	.insn	2, 0x8000
	...
    4bb0:	01bc                	c.addi4spn	x15,x2,200
    4bb2:	0000                	c.unimp
    4bb4:	0000                	c.unimp
    4bb6:	0001                	c.addi	x0,0
    4bb8:	08bc                	c.addi4spn	x15,x2,88
    4bba:	8000                	.insn	2, 0x8000
	...
    4bc8:	01c4                	c.addi4spn	x9,x2,196
    4bca:	0000                	c.unimp
    4bcc:	0000                	c.unimp
    4bce:	0001                	c.addi	x0,0
    4bd0:	08dc                	c.addi4spn	x15,x2,84
    4bd2:	8000                	.insn	2, 0x8000
	...
    4be0:	01cc                	c.addi4spn	x11,x2,196
    4be2:	0000                	c.unimp
    4be4:	0000                	c.unimp
    4be6:	0001                	c.addi	x0,0
    4be8:	08fc                	c.addi4spn	x15,x2,92
    4bea:	8000                	.insn	2, 0x8000
	...
    4bf8:	01d4                	c.addi4spn	x13,x2,196
    4bfa:	0000                	c.unimp
    4bfc:	0000                	c.unimp
    4bfe:	0001                	c.addi	x0,0
    4c00:	091c                	c.addi4spn	x15,x2,144
    4c02:	8000                	.insn	2, 0x8000
	...
    4c10:	01dc                	c.addi4spn	x15,x2,196
    4c12:	0000                	c.unimp
    4c14:	0000                	c.unimp
    4c16:	0001                	c.addi	x0,0
    4c18:	093c                	c.addi4spn	x15,x2,152
    4c1a:	8000                	.insn	2, 0x8000
	...
    4c28:	01e4                	c.addi4spn	x9,x2,204
    4c2a:	0000                	c.unimp
    4c2c:	0000                	c.unimp
    4c2e:	0001                	c.addi	x0,0
    4c30:	095c                	c.addi4spn	x15,x2,148
    4c32:	8000                	.insn	2, 0x8000
	...
    4c40:	01ec                	c.addi4spn	x11,x2,204
    4c42:	0000                	c.unimp
    4c44:	0000                	c.unimp
    4c46:	0001                	c.addi	x0,0
    4c48:	097c                	c.addi4spn	x15,x2,156
    4c4a:	8000                	.insn	2, 0x8000
	...
    4c58:	01f4                	c.addi4spn	x13,x2,204
    4c5a:	0000                	c.unimp
    4c5c:	0000                	c.unimp
    4c5e:	0001                	c.addi	x0,0
    4c60:	099c                	c.addi4spn	x15,x2,208
    4c62:	8000                	.insn	2, 0x8000
	...
    4c70:	01fc                	c.addi4spn	x15,x2,204
    4c72:	0000                	c.unimp
    4c74:	0000                	c.unimp
    4c76:	0001                	c.addi	x0,0
    4c78:	09bc                	c.addi4spn	x15,x2,216
    4c7a:	8000                	.insn	2, 0x8000
	...
    4c88:	0204                	c.addi4spn	x9,x2,256
    4c8a:	0000                	c.unimp
    4c8c:	0000                	c.unimp
    4c8e:	0001                	c.addi	x0,0
    4c90:	09dc                	c.addi4spn	x15,x2,212
    4c92:	8000                	.insn	2, 0x8000
	...
    4ca0:	020c                	c.addi4spn	x11,x2,256
    4ca2:	0000                	c.unimp
    4ca4:	0000                	c.unimp
    4ca6:	0001                	c.addi	x0,0
    4ca8:	09fc                	c.addi4spn	x15,x2,220
    4caa:	8000                	.insn	2, 0x8000
	...
    4cb8:	0214                	c.addi4spn	x13,x2,256
    4cba:	0000                	c.unimp
    4cbc:	0000                	c.unimp
    4cbe:	0001                	c.addi	x0,0
    4cc0:	0a1c                	c.addi4spn	x15,x2,272
    4cc2:	8000                	.insn	2, 0x8000
	...
    4cd0:	021c                	c.addi4spn	x15,x2,256
    4cd2:	0000                	c.unimp
    4cd4:	0000                	c.unimp
    4cd6:	0001                	c.addi	x0,0
    4cd8:	0a3c                	c.addi4spn	x15,x2,280
    4cda:	8000                	.insn	2, 0x8000
	...
    4ce8:	0224                	c.addi4spn	x9,x2,264
    4cea:	0000                	c.unimp
    4cec:	0000                	c.unimp
    4cee:	0001                	c.addi	x0,0
    4cf0:	0a5c                	c.addi4spn	x15,x2,276
    4cf2:	8000                	.insn	2, 0x8000
	...
    4d00:	022c                	c.addi4spn	x11,x2,264
    4d02:	0000                	c.unimp
    4d04:	0000                	c.unimp
    4d06:	0001                	c.addi	x0,0
    4d08:	0a7c                	c.addi4spn	x15,x2,284
    4d0a:	8000                	.insn	2, 0x8000
	...
    4d18:	0234                	c.addi4spn	x13,x2,264
    4d1a:	0000                	c.unimp
    4d1c:	0000                	c.unimp
    4d1e:	0001                	c.addi	x0,0
    4d20:	0a9c                	c.addi4spn	x15,x2,336
    4d22:	8000                	.insn	2, 0x8000
	...
    4d30:	023c                	c.addi4spn	x15,x2,264
    4d32:	0000                	c.unimp
    4d34:	0000                	c.unimp
    4d36:	0001                	c.addi	x0,0
    4d38:	0abc                	c.addi4spn	x15,x2,344
    4d3a:	8000                	.insn	2, 0x8000
	...
    4d48:	0244                	c.addi4spn	x9,x2,260
    4d4a:	0000                	c.unimp
    4d4c:	0000                	c.unimp
    4d4e:	0001                	c.addi	x0,0
    4d50:	0adc                	c.addi4spn	x15,x2,340
    4d52:	8000                	.insn	2, 0x8000
	...
    4d60:	024c                	c.addi4spn	x11,x2,260
    4d62:	0000                	c.unimp
    4d64:	0000                	c.unimp
    4d66:	0001                	c.addi	x0,0
    4d68:	0afc                	c.addi4spn	x15,x2,348
    4d6a:	8000                	.insn	2, 0x8000
	...
    4d78:	0254                	c.addi4spn	x13,x2,260
    4d7a:	0000                	c.unimp
    4d7c:	0000                	c.unimp
    4d7e:	0001                	c.addi	x0,0
    4d80:	0b1c                	c.addi4spn	x15,x2,400
    4d82:	8000                	.insn	2, 0x8000
	...
    4d90:	025c                	c.addi4spn	x15,x2,260
    4d92:	0000                	c.unimp
    4d94:	0000                	c.unimp
    4d96:	0001                	c.addi	x0,0
    4d98:	0b3c                	c.addi4spn	x15,x2,408
    4d9a:	8000                	.insn	2, 0x8000
	...
    4da8:	0264                	c.addi4spn	x9,x2,268
    4daa:	0000                	c.unimp
    4dac:	0000                	c.unimp
    4dae:	0001                	c.addi	x0,0
    4db0:	0b5c                	c.addi4spn	x15,x2,404
    4db2:	8000                	.insn	2, 0x8000
	...
    4dc0:	026c                	c.addi4spn	x11,x2,268
    4dc2:	0000                	c.unimp
    4dc4:	0000                	c.unimp
    4dc6:	0001                	c.addi	x0,0
    4dc8:	0b7c                	c.addi4spn	x15,x2,412
    4dca:	8000                	.insn	2, 0x8000
	...
    4dd8:	0274                	c.addi4spn	x13,x2,268
    4dda:	0000                	c.unimp
    4ddc:	0000                	c.unimp
    4dde:	0001                	c.addi	x0,0
    4de0:	0b9c                	c.addi4spn	x15,x2,464
    4de2:	8000                	.insn	2, 0x8000
	...
    4df0:	027c                	c.addi4spn	x15,x2,268
    4df2:	0000                	c.unimp
    4df4:	0000                	c.unimp
    4df6:	0001                	c.addi	x0,0
    4df8:	0bbc                	c.addi4spn	x15,x2,472
    4dfa:	8000                	.insn	2, 0x8000
	...
    4e08:	0284                	c.addi4spn	x9,x2,320
    4e0a:	0000                	c.unimp
    4e0c:	0000                	c.unimp
    4e0e:	0001                	c.addi	x0,0
    4e10:	0bdc                	c.addi4spn	x15,x2,468
    4e12:	8000                	.insn	2, 0x8000
	...
    4e20:	028c                	c.addi4spn	x11,x2,320
    4e22:	0000                	c.unimp
    4e24:	0000                	c.unimp
    4e26:	0001                	c.addi	x0,0
    4e28:	0bfc                	c.addi4spn	x15,x2,476
    4e2a:	8000                	.insn	2, 0x8000
	...
    4e38:	0294                	c.addi4spn	x13,x2,320
    4e3a:	0000                	c.unimp
    4e3c:	0000                	c.unimp
    4e3e:	0001                	c.addi	x0,0
    4e40:	0c1c                	c.addi4spn	x15,x2,528
    4e42:	8000                	.insn	2, 0x8000
	...
    4e50:	029c                	c.addi4spn	x15,x2,320
    4e52:	0000                	c.unimp
    4e54:	0000                	c.unimp
    4e56:	0001                	c.addi	x0,0
    4e58:	0c3c                	c.addi4spn	x15,x2,536
    4e5a:	8000                	.insn	2, 0x8000
	...
    4e68:	02a4                	c.addi4spn	x9,x2,328
    4e6a:	0000                	c.unimp
    4e6c:	0000                	c.unimp
    4e6e:	0001                	c.addi	x0,0
    4e70:	0c5c                	c.addi4spn	x15,x2,532
    4e72:	8000                	.insn	2, 0x8000
	...
    4e80:	02ac                	c.addi4spn	x11,x2,328
    4e82:	0000                	c.unimp
    4e84:	0000                	c.unimp
    4e86:	0001                	c.addi	x0,0
    4e88:	0c7c                	c.addi4spn	x15,x2,540
    4e8a:	8000                	.insn	2, 0x8000
	...
    4e98:	02b4                	c.addi4spn	x13,x2,328
    4e9a:	0000                	c.unimp
    4e9c:	0000                	c.unimp
    4e9e:	0001                	c.addi	x0,0
    4ea0:	0c9c                	c.addi4spn	x15,x2,592
    4ea2:	8000                	.insn	2, 0x8000
	...
    4eb0:	02bc                	c.addi4spn	x15,x2,328
    4eb2:	0000                	c.unimp
    4eb4:	0000                	c.unimp
    4eb6:	0001                	c.addi	x0,0
    4eb8:	0cbc                	c.addi4spn	x15,x2,600
    4eba:	8000                	.insn	2, 0x8000
	...
    4ec8:	02c4                	c.addi4spn	x9,x2,324
    4eca:	0000                	c.unimp
    4ecc:	0000                	c.unimp
    4ece:	0001                	c.addi	x0,0
    4ed0:	0cdc                	c.addi4spn	x15,x2,596
    4ed2:	8000                	.insn	2, 0x8000
	...
    4ee0:	02cc                	c.addi4spn	x11,x2,324
    4ee2:	0000                	c.unimp
    4ee4:	0000                	c.unimp
    4ee6:	0001                	c.addi	x0,0
    4ee8:	0cfc                	c.addi4spn	x15,x2,604
    4eea:	8000                	.insn	2, 0x8000
	...
    4ef8:	02d4                	c.addi4spn	x13,x2,324
    4efa:	0000                	c.unimp
    4efc:	0000                	c.unimp
    4efe:	0001                	c.addi	x0,0
    4f00:	0d1c                	c.addi4spn	x15,x2,656
    4f02:	8000                	.insn	2, 0x8000
	...
    4f10:	02dc                	c.addi4spn	x15,x2,324
    4f12:	0000                	c.unimp
    4f14:	0000                	c.unimp
    4f16:	0001                	c.addi	x0,0
    4f18:	0d3c                	c.addi4spn	x15,x2,664
    4f1a:	8000                	.insn	2, 0x8000
	...
    4f28:	02e4                	c.addi4spn	x9,x2,332
    4f2a:	0000                	c.unimp
    4f2c:	0000                	c.unimp
    4f2e:	0001                	c.addi	x0,0
    4f30:	0d58                	c.addi4spn	x14,x2,660
    4f32:	8000                	.insn	2, 0x8000
	...
    4f40:	02ec                	c.addi4spn	x11,x2,332
    4f42:	0000                	c.unimp
    4f44:	0000                	c.unimp
    4f46:	0001                	c.addi	x0,0
    4f48:	0d78                	c.addi4spn	x14,x2,668
    4f4a:	8000                	.insn	2, 0x8000
	...
    4f58:	02f4                	c.addi4spn	x13,x2,332
    4f5a:	0000                	c.unimp
    4f5c:	0000                	c.unimp
    4f5e:	0001                	c.addi	x0,0
    4f60:	0d98                	c.addi4spn	x14,x2,720
    4f62:	8000                	.insn	2, 0x8000
	...
    4f70:	02fc                	c.addi4spn	x15,x2,332
    4f72:	0000                	c.unimp
    4f74:	0000                	c.unimp
    4f76:	0001                	c.addi	x0,0
    4f78:	0db8                	c.addi4spn	x14,x2,728
    4f7a:	8000                	.insn	2, 0x8000
	...
    4f88:	0304                	c.addi4spn	x9,x2,384
    4f8a:	0000                	c.unimp
    4f8c:	0000                	c.unimp
    4f8e:	0001                	c.addi	x0,0
    4f90:	0dd8                	c.addi4spn	x14,x2,724
    4f92:	8000                	.insn	2, 0x8000
	...
    4fa0:	030c                	c.addi4spn	x11,x2,384
    4fa2:	0000                	c.unimp
    4fa4:	0000                	c.unimp
    4fa6:	0001                	c.addi	x0,0
    4fa8:	0df4                	c.addi4spn	x13,x2,732
    4faa:	8000                	.insn	2, 0x8000
	...
    4fb8:	0314                	c.addi4spn	x13,x2,384
    4fba:	0000                	c.unimp
    4fbc:	0000                	c.unimp
    4fbe:	0001                	c.addi	x0,0
    4fc0:	0e10                	c.addi4spn	x12,x2,784
    4fc2:	8000                	.insn	2, 0x8000
	...
    4fd0:	031c                	c.addi4spn	x15,x2,384
    4fd2:	0000                	c.unimp
    4fd4:	0000                	c.unimp
    4fd6:	0001                	c.addi	x0,0
    4fd8:	0e30                	c.addi4spn	x12,x2,792
    4fda:	8000                	.insn	2, 0x8000
	...
    4fe8:	0324                	c.addi4spn	x9,x2,392
    4fea:	0000                	c.unimp
    4fec:	0000                	c.unimp
    4fee:	0001                	c.addi	x0,0
    4ff0:	0e50                	c.addi4spn	x12,x2,788
    4ff2:	8000                	.insn	2, 0x8000
	...
    5000:	032c                	c.addi4spn	x11,x2,392
    5002:	0000                	c.unimp
    5004:	0000                	c.unimp
    5006:	0001                	c.addi	x0,0
    5008:	0e70                	c.addi4spn	x12,x2,796
    500a:	8000                	.insn	2, 0x8000
	...
    5018:	0334                	c.addi4spn	x13,x2,392
    501a:	0000                	c.unimp
    501c:	0000                	c.unimp
    501e:	0001                	c.addi	x0,0
    5020:	0e98                	c.addi4spn	x14,x2,848
    5022:	8000                	.insn	2, 0x8000
	...
    5030:	033c                	c.addi4spn	x15,x2,392
    5032:	0000                	c.unimp
    5034:	0000                	c.unimp
    5036:	0001                	c.addi	x0,0
    5038:	0ec0                	c.addi4spn	x8,x2,852
    503a:	8000                	.insn	2, 0x8000
	...
    5048:	0344                	c.addi4spn	x9,x2,388
    504a:	0000                	c.unimp
    504c:	0000                	c.unimp
    504e:	0001                	c.addi	x0,0
    5050:	0ee8                	c.addi4spn	x10,x2,860
    5052:	8000                	.insn	2, 0x8000
	...
    5060:	034c                	c.addi4spn	x11,x2,388
    5062:	0000                	c.unimp
    5064:	0000                	c.unimp
    5066:	0001                	c.addi	x0,0
    5068:	0f10                	c.addi4spn	x12,x2,912
    506a:	8000                	.insn	2, 0x8000
	...
    5078:	0354                	c.addi4spn	x13,x2,388
    507a:	0000                	c.unimp
    507c:	0000                	c.unimp
    507e:	0001                	c.addi	x0,0
    5080:	0f38                	c.addi4spn	x14,x2,920
    5082:	8000                	.insn	2, 0x8000
	...
    5090:	035c                	c.addi4spn	x15,x2,388
    5092:	0000                	c.unimp
    5094:	0000                	c.unimp
    5096:	0001                	c.addi	x0,0
    5098:	0f60                	c.addi4spn	x8,x2,924
    509a:	8000                	.insn	2, 0x8000
	...
    50a8:	0364                	c.addi4spn	x9,x2,396
    50aa:	0000                	c.unimp
    50ac:	0000                	c.unimp
    50ae:	0001                	c.addi	x0,0
    50b0:	0f88                	c.addi4spn	x10,x2,976
    50b2:	8000                	.insn	2, 0x8000
	...
    50c0:	036c                	c.addi4spn	x11,x2,396
    50c2:	0000                	c.unimp
    50c4:	0000                	c.unimp
    50c6:	0001                	c.addi	x0,0
    50c8:	0fb0                	c.addi4spn	x12,x2,984
    50ca:	8000                	.insn	2, 0x8000
	...
    50d8:	0374                	c.addi4spn	x13,x2,396
    50da:	0000                	c.unimp
    50dc:	0000                	c.unimp
    50de:	0001                	c.addi	x0,0
    50e0:	0fd8                	c.addi4spn	x14,x2,980
    50e2:	8000                	.insn	2, 0x8000
	...
    50f0:	037c                	c.addi4spn	x15,x2,396
    50f2:	0000                	c.unimp
    50f4:	0000                	c.unimp
    50f6:	0001                	c.addi	x0,0
    50f8:	0ffc                	c.addi4spn	x15,x2,988
    50fa:	8000                	.insn	2, 0x8000
	...
    5108:	0384                	c.addi4spn	x9,x2,448
    510a:	0000                	c.unimp
    510c:	0000                	c.unimp
    510e:	0001                	c.addi	x0,0
    5110:	1020                	c.addi4spn	x8,x2,40
    5112:	8000                	.insn	2, 0x8000
	...
    5120:	038c                	c.addi4spn	x11,x2,448
    5122:	0000                	c.unimp
    5124:	0000                	c.unimp
    5126:	0001                	c.addi	x0,0
    5128:	1048                	c.addi4spn	x10,x2,36
    512a:	8000                	.insn	2, 0x8000
	...
    5138:	0394                	c.addi4spn	x13,x2,448
    513a:	0000                	c.unimp
    513c:	0000                	c.unimp
    513e:	0001                	c.addi	x0,0
    5140:	1070                	c.addi4spn	x12,x2,44
    5142:	8000                	.insn	2, 0x8000
	...
    5150:	039c                	c.addi4spn	x15,x2,448
    5152:	0000                	c.unimp
    5154:	0000                	c.unimp
    5156:	0001                	c.addi	x0,0
    5158:	1094                	c.addi4spn	x13,x2,96
    515a:	8000                	.insn	2, 0x8000
	...
    5168:	03a4                	c.addi4spn	x9,x2,456
    516a:	0000                	c.unimp
    516c:	0000                	c.unimp
    516e:	0001                	c.addi	x0,0
    5170:	10bc                	c.addi4spn	x15,x2,104
    5172:	8000                	.insn	2, 0x8000
	...
    5180:	03ac                	c.addi4spn	x11,x2,456
    5182:	0000                	c.unimp
    5184:	0000                	c.unimp
    5186:	0001                	c.addi	x0,0
    5188:	10e4                	c.addi4spn	x9,x2,108
    518a:	8000                	.insn	2, 0x8000
	...
    5198:	03b4                	c.addi4spn	x13,x2,456
    519a:	0000                	c.unimp
    519c:	0000                	c.unimp
    519e:	0001                	c.addi	x0,0
    51a0:	1108                	c.addi4spn	x10,x2,160
    51a2:	8000                	.insn	2, 0x8000
	...
    51b0:	03bc                	c.addi4spn	x15,x2,456
    51b2:	0000                	c.unimp
    51b4:	0000                	c.unimp
    51b6:	0001                	c.addi	x0,0
    51b8:	1144                	c.addi4spn	x9,x2,164
    51ba:	8000                	.insn	2, 0x8000
	...
    51c8:	03c4                	c.addi4spn	x9,x2,452
    51ca:	0000                	c.unimp
    51cc:	0000                	c.unimp
    51ce:	0001                	c.addi	x0,0
    51d0:	1180                	c.addi4spn	x8,x2,224
    51d2:	8000                	.insn	2, 0x8000
	...
    51e0:	03cc                	c.addi4spn	x11,x2,452
    51e2:	0000                	c.unimp
    51e4:	0000                	c.unimp
    51e6:	0001                	c.addi	x0,0
    51e8:	119c                	c.addi4spn	x15,x2,224
    51ea:	8000                	.insn	2, 0x8000
	...
    51f8:	03d5                	c.addi	x7,21 # 0x80015
    51fa:	0000                	c.unimp
    51fc:	0000                	c.unimp
    51fe:	0001                	c.addi	x0,0
    5200:	11b8                	c.addi4spn	x14,x2,232
    5202:	8000                	.insn	2, 0x8000
	...
    5210:	03de                	c.slli	x7,0x17
    5212:	0000                	c.unimp
    5214:	0000                	c.unimp
    5216:	0001                	c.addi	x0,0
    5218:	11f4                	c.addi4spn	x13,x2,236
    521a:	8000                	.insn	2, 0x8000
	...
    5228:	000003e7          	jalr	x7,0(x0) # 0x0
    522c:	0000                	c.unimp
    522e:	0001                	c.addi	x0,0
    5230:	122c                	c.addi4spn	x11,x2,296
    5232:	8000                	.insn	2, 0x8000
	...
    5240:	03f0                	c.addi4spn	x12,x2,460
    5242:	0000                	c.unimp
    5244:	0000                	c.unimp
    5246:	0001                	c.addi	x0,0
    5248:	1268                	c.addi4spn	x10,x2,300
    524a:	8000                	.insn	2, 0x8000
	...
    5258:	03f9                	c.addi	x7,30
    525a:	0000                	c.unimp
    525c:	0000                	c.unimp
    525e:	0001                	c.addi	x0,0
    5260:	12a4                	c.addi4spn	x9,x2,360
    5262:	8000                	.insn	2, 0x8000
	...
    5270:	0402                	c.slli64	x8
    5272:	0000                	c.unimp
    5274:	0000                	c.unimp
    5276:	0001                	c.addi	x0,0
    5278:	12e0                	c.addi4spn	x8,x2,364
    527a:	8000                	.insn	2, 0x8000
	...
    5288:	0000040b          	.insn	4, 0x040b
    528c:	0000                	c.unimp
    528e:	0001                	c.addi	x0,0
    5290:	131c                	c.addi4spn	x15,x2,416
    5292:	8000                	.insn	2, 0x8000
	...
    52a0:	0414                	c.addi4spn	x13,x2,512
    52a2:	0000                	c.unimp
    52a4:	0000                	c.unimp
    52a6:	0001                	c.addi	x0,0
    52a8:	1354                	c.addi4spn	x13,x2,420
    52aa:	8000                	.insn	2, 0x8000
	...
    52b8:	041d                	c.addi	x8,7
    52ba:	0000                	c.unimp
    52bc:	0000                	c.unimp
    52be:	0001                	c.addi	x0,0
    52c0:	1390                	c.addi4spn	x12,x2,480
    52c2:	8000                	.insn	2, 0x8000
	...
    52d0:	0426                	c.slli	x8,0x9
    52d2:	0000                	c.unimp
    52d4:	0000                	c.unimp
    52d6:	0001                	c.addi	x0,0
    52d8:	13c8                	c.addi4spn	x10,x2,484
    52da:	8000                	.insn	2, 0x8000
	...
    52e8:	0000042f          	.insn	4, 0x042f
    52ec:	0000                	c.unimp
    52ee:	0001                	c.addi	x0,0
    52f0:	13e4                	c.addi4spn	x9,x2,492
    52f2:	8000                	.insn	2, 0x8000
	...
    5300:	0438                	c.addi4spn	x14,x2,520
    5302:	0000                	c.unimp
    5304:	0000                	c.unimp
    5306:	0001                	c.addi	x0,0
    5308:	1420                	c.addi4spn	x8,x2,552
    530a:	8000                	.insn	2, 0x8000
	...
    5318:	0441                	c.addi	x8,16
    531a:	0000                	c.unimp
    531c:	0000                	c.unimp
    531e:	0001                	c.addi	x0,0
    5320:	145c                	c.addi4spn	x15,x2,548
    5322:	8000                	.insn	2, 0x8000
	...
    5330:	044a                	c.slli	x8,0x12
    5332:	0000                	c.unimp
    5334:	0000                	c.unimp
    5336:	0001                	c.addi	x0,0
    5338:	1494                	c.addi4spn	x13,x2,608
    533a:	8000                	.insn	2, 0x8000
	...
    5348:	00000453          	fadd.s	f8,f0,f0,rne
    534c:	0000                	c.unimp
    534e:	0001                	c.addi	x0,0
    5350:	14cc                	c.addi4spn	x11,x2,612
    5352:	8000                	.insn	2, 0x8000
	...
    5360:	045c                	c.addi4spn	x15,x2,516
    5362:	0000                	c.unimp
    5364:	0000                	c.unimp
    5366:	0001                	c.addi	x0,0
    5368:	14f4                	c.addi4spn	x13,x2,620
    536a:	8000                	.insn	2, 0x8000
	...
    5378:	0465                	c.addi	x8,25
    537a:	0000                	c.unimp
    537c:	0000                	c.unimp
    537e:	0001                	c.addi	x0,0
    5380:	151c                	c.addi4spn	x15,x2,672
    5382:	8000                	.insn	2, 0x8000
	...
    5390:	046e                	c.slli	x8,0x1b
    5392:	0000                	c.unimp
    5394:	0000                	c.unimp
    5396:	0001                	c.addi	x0,0
    5398:	1540                	c.addi4spn	x8,x2,676
    539a:	8000                	.insn	2, 0x8000
	...
    53a8:	00000477          	.insn	4, 0x0477
    53ac:	0000                	c.unimp
    53ae:	0001                	c.addi	x0,0
    53b0:	1568                	c.addi4spn	x10,x2,684
    53b2:	8000                	.insn	2, 0x8000
	...
    53c0:	0480                	c.addi4spn	x8,x2,576
    53c2:	0000                	c.unimp
    53c4:	0000                	c.unimp
    53c6:	0001                	c.addi	x0,0
    53c8:	1590                	c.addi4spn	x12,x2,736
    53ca:	8000                	.insn	2, 0x8000
	...
    53d8:	0489                	c.addi	x9,2
    53da:	0000                	c.unimp
    53dc:	0000                	c.unimp
    53de:	0001                	c.addi	x0,0
    53e0:	15b8                	c.addi4spn	x14,x2,744
    53e2:	8000                	.insn	2, 0x8000
	...
    53f0:	0492                	c.slli	x9,0x4
    53f2:	0000                	c.unimp
    53f4:	0000                	c.unimp
    53f6:	0001                	c.addi	x0,0
    53f8:	15dc                	c.addi4spn	x15,x2,740
    53fa:	8000                	.insn	2, 0x8000
	...
    5408:	0000049b          	addiw	x9,x0,0
    540c:	0000                	c.unimp
    540e:	0001                	c.addi	x0,0
    5410:	1604                	c.addi4spn	x9,x2,800
    5412:	8000                	.insn	2, 0x8000
	...
    5420:	04a4                	c.addi4spn	x9,x2,584
    5422:	0000                	c.unimp
    5424:	0000                	c.unimp
    5426:	0001                	c.addi	x0,0
    5428:	162c                	c.addi4spn	x11,x2,808
    542a:	8000                	.insn	2, 0x8000
	...
    5438:	04ad                	c.addi	x9,11
    543a:	0000                	c.unimp
    543c:	0000                	c.unimp
    543e:	0001                	c.addi	x0,0
    5440:	1654                	c.addi4spn	x13,x2,804
    5442:	8000                	.insn	2, 0x8000
	...
    5450:	04b6                	c.slli	x9,0xd
    5452:	0000                	c.unimp
    5454:	0000                	c.unimp
    5456:	0001                	c.addi	x0,0
    5458:	1678                	c.addi4spn	x14,x2,812
    545a:	8000                	.insn	2, 0x8000
	...
    5468:	000004bf 00010000 	.insn	8, 0x00010000000004bf
    5470:	16a0                	c.addi4spn	x8,x2,872
    5472:	8000                	.insn	2, 0x8000
	...
    5480:	04c8                	c.addi4spn	x10,x2,580
    5482:	0000                	c.unimp
    5484:	0000                	c.unimp
    5486:	0001                	c.addi	x0,0
    5488:	16c8                	c.addi4spn	x10,x2,868
    548a:	8000                	.insn	2, 0x8000
	...
    5498:	04d1                	c.addi	x9,20
    549a:	0000                	c.unimp
    549c:	0000                	c.unimp
    549e:	0001                	c.addi	x0,0
    54a0:	16ec                	c.addi4spn	x11,x2,876
    54a2:	8000                	.insn	2, 0x8000
	...
    54b0:	04da                	c.slli	x9,0x16
    54b2:	0000                	c.unimp
    54b4:	0000                	c.unimp
    54b6:	0001                	c.addi	x0,0
    54b8:	1714                	c.addi4spn	x13,x2,928
    54ba:	8000                	.insn	2, 0x8000
	...
    54c8:	000004e3          	beq	x0,x0,0x5cd0
    54cc:	0000                	c.unimp
    54ce:	0001                	c.addi	x0,0
    54d0:	1738                	c.addi4spn	x14,x2,936
    54d2:	8000                	.insn	2, 0x8000
	...
    54e0:	04ec                	c.addi4spn	x11,x2,588
    54e2:	0000                	c.unimp
    54e4:	0000                	c.unimp
    54e6:	0001                	c.addi	x0,0
    54e8:	175c                	c.addi4spn	x15,x2,932
    54ea:	8000                	.insn	2, 0x8000
	...
    54f8:	04f5                	c.addi	x9,29
    54fa:	0000                	c.unimp
    54fc:	0000                	c.unimp
    54fe:	0001                	c.addi	x0,0
    5500:	1784                	c.addi4spn	x9,x2,992
    5502:	8000                	.insn	2, 0x8000
	...
    5510:	04fe                	c.slli	x9,0x1f
    5512:	0000                	c.unimp
    5514:	0000                	c.unimp
    5516:	0001                	c.addi	x0,0
    5518:	17ac                	c.addi4spn	x11,x2,1000
    551a:	8000                	.insn	2, 0x8000
	...
    5528:	00000507          	.insn	4, 0x0507
    552c:	0000                	c.unimp
    552e:	0001                	c.addi	x0,0
    5530:	17d4                	c.addi4spn	x13,x2,996
    5532:	8000                	.insn	2, 0x8000
	...
    5540:	0510                	c.addi4spn	x12,x2,640
    5542:	0000                	c.unimp
    5544:	0000                	c.unimp
    5546:	0001                	c.addi	x0,0
    5548:	17fc                	c.addi4spn	x15,x2,1004
    554a:	8000                	.insn	2, 0x8000
	...
    5558:	0519                	c.addi	x10,6
    555a:	0000                	c.unimp
    555c:	0000                	c.unimp
    555e:	0001                	c.addi	x0,0
    5560:	1820                	c.addi4spn	x8,x2,56
    5562:	8000                	.insn	2, 0x8000
	...
    5570:	0522                	c.slli	x10,0x8
    5572:	0000                	c.unimp
    5574:	0000                	c.unimp
    5576:	0001                	c.addi	x0,0
    5578:	1844                	c.addi4spn	x9,x2,52
    557a:	8000                	.insn	2, 0x8000
	...
    5588:	0000052b          	.insn	4, 0x052b
    558c:	0000                	c.unimp
    558e:	0001                	c.addi	x0,0
    5590:	186c                	c.addi4spn	x11,x2,60
    5592:	8000                	.insn	2, 0x8000
	...
    55a0:	0534                	c.addi4spn	x13,x2,648
    55a2:	0000                	c.unimp
    55a4:	0000                	c.unimp
    55a6:	0001                	c.addi	x0,0
    55a8:	1894                	c.addi4spn	x13,x2,112
    55aa:	8000                	.insn	2, 0x8000
	...
    55b8:	053d                	c.addi	x10,15
    55ba:	0000                	c.unimp
    55bc:	0000                	c.unimp
    55be:	0001                	c.addi	x0,0
    55c0:	18bc                	c.addi4spn	x15,x2,120
    55c2:	8000                	.insn	2, 0x8000
	...
    55d0:	0546                	c.slli	x10,0x11
    55d2:	0000                	c.unimp
    55d4:	0000                	c.unimp
    55d6:	0001                	c.addi	x0,0
    55d8:	18e4                	c.addi4spn	x9,x2,124
    55da:	8000                	.insn	2, 0x8000
	...
    55e8:	0000054f          	fnmadd.s	f10,f0,f0,f0,rne
    55ec:	0000                	c.unimp
    55ee:	0001                	c.addi	x0,0
    55f0:	190c                	c.addi4spn	x11,x2,176
    55f2:	8000                	.insn	2, 0x8000
	...
    5600:	0558                	c.addi4spn	x14,x2,644
    5602:	0000                	c.unimp
    5604:	0000                	c.unimp
    5606:	0001                	c.addi	x0,0
    5608:	1934                	c.addi4spn	x13,x2,184
    560a:	8000                	.insn	2, 0x8000
	...
    5618:	0561                	c.addi	x10,24
    561a:	0000                	c.unimp
    561c:	0000                	c.unimp
    561e:	0001                	c.addi	x0,0
    5620:	195c                	c.addi4spn	x15,x2,180
    5622:	8000                	.insn	2, 0x8000
	...
    5630:	056a                	c.slli	x10,0x1a
    5632:	0000                	c.unimp
    5634:	0000                	c.unimp
    5636:	0001                	c.addi	x0,0
    5638:	1980                	c.addi4spn	x8,x2,240
    563a:	8000                	.insn	2, 0x8000
	...
    5648:	00000573          	.insn	4, 0x0573
    564c:	0000                	c.unimp
    564e:	0001                	c.addi	x0,0
    5650:	19a8                	c.addi4spn	x10,x2,248
    5652:	8000                	.insn	2, 0x8000
	...
    5660:	057c                	c.addi4spn	x15,x2,652
    5662:	0000                	c.unimp
    5664:	0000                	c.unimp
    5666:	0001                	c.addi	x0,0
    5668:	19d0                	c.addi4spn	x12,x2,244
    566a:	8000                	.insn	2, 0x8000
	...
    5678:	0585                	c.addi	x11,1
    567a:	0000                	c.unimp
    567c:	0000                	c.unimp
    567e:	0001                	c.addi	x0,0
    5680:	19f8                	c.addi4spn	x14,x2,252
    5682:	8000                	.insn	2, 0x8000
	...
    5690:	058e                	c.slli	x11,0x3
    5692:	0000                	c.unimp
    5694:	0000                	c.unimp
    5696:	0001                	c.addi	x0,0
    5698:	1a34                	c.addi4spn	x13,x2,312
    569a:	8000                	.insn	2, 0x8000
	...
    56a8:	00000597          	auipc	x11,0x0
    56ac:	0000                	c.unimp
    56ae:	0001                	c.addi	x0,0
    56b0:	1a58                	c.addi4spn	x14,x2,308
    56b2:	8000                	.insn	2, 0x8000
	...
    56c0:	05a0                	c.addi4spn	x8,x2,712
    56c2:	0000                	c.unimp
    56c4:	0000                	c.unimp
    56c6:	0001                	c.addi	x0,0
    56c8:	1a74                	c.addi4spn	x13,x2,316
    56ca:	8000                	.insn	2, 0x8000
	...
    56d8:	05a9                	c.addi	x11,10 # 0x56b2
    56da:	0000                	c.unimp
    56dc:	0000                	c.unimp
    56de:	0001                	c.addi	x0,0
    56e0:	1a94                	c.addi4spn	x13,x2,368
    56e2:	8000                	.insn	2, 0x8000
	...
    56f0:	05b2                	c.slli	x11,0xc
    56f2:	0000                	c.unimp
    56f4:	0000                	c.unimp
    56f6:	0001                	c.addi	x0,0
    56f8:	1ae8                	c.addi4spn	x10,x2,380
    56fa:	8000                	.insn	2, 0x8000
	...
    5708:	000005bf 00010000 	.insn	8, 0x00010000000005bf
    5710:	1ab4                	c.addi4spn	x13,x2,376
    5712:	8000                	.insn	2, 0x8000
	...
    5720:	000005cb          	fnmsub.s	f11,f0,f0,f0,rne
    5724:	0000                	c.unimp
    5726:	20000003          	lb	x0,512(x0) # 0x200
    572a:	8000                	.insn	2, 0x8000
	...
    5738:	000005d7          	.insn	4, 0x05d7
    573c:	0000                	c.unimp
    573e:	20100003          	lb	x0,513(x0) # 0x201
    5742:	8000                	.insn	2, 0x8000
	...
    5750:	05e4                	c.addi4spn	x9,x2,716
    5752:	0000                	c.unimp
    5754:	0000                	c.unimp
    5756:	30000003          	lb	x0,768(x0) # 0x300
    575a:	8000                	.insn	2, 0x8000
	...
    5768:	05f5                	c.addi	x11,29
    576a:	0000                	c.unimp
    576c:	0000                	c.unimp
    576e:	30000003          	lb	x0,768(x0) # 0x300
    5772:	8000                	.insn	2, 0x8000
	...
    5780:	0606                	c.slli	x12,0x1
    5782:	0000                	c.unimp
    5784:	0000                	c.unimp
    5786:	30080003          	lb	x0,768(x16)
    578a:	8000                	.insn	2, 0x8000
	...
    5798:	0615                	c.addi	x12,5
    579a:	0000                	c.unimp
    579c:	0000                	c.unimp
    579e:	34d80003          	lb	x0,845(x16)
    57a2:	8000                	.insn	2, 0x8000
	...
    57b0:	0624                	c.addi4spn	x9,x2,776
    57b2:	0000                	c.unimp
    57b4:	0000                	c.unimp
    57b6:	34e00003          	lb	x0,846(x0) # 0x34e
    57ba:	8000                	.insn	2, 0x8000
	...
    57c8:	00000633          	add	x12,x0,x0
    57cc:	0004                	.insn	2, 0x0004
    57ce:	fff1                	c.bnez	x15,0x57aa
	...
    57e0:	0009                	c.addi	x0,2
    57e2:	0000                	c.unimp
    57e4:	0000                	c.unimp
    57e6:	0001                	c.addi	x0,0
    57e8:	1b0c                	c.addi4spn	x11,x2,432
    57ea:	8000                	.insn	2, 0x8000
	...
    57f8:	0009                	c.addi	x0,2
    57fa:	0000                	c.unimp
    57fc:	0000                	c.unimp
    57fe:	0001                	c.addi	x0,0
    5800:	1b18                	c.addi4spn	x14,x2,432
    5802:	8000                	.insn	2, 0x8000
	...
    5810:	0639                	c.addi	x12,14
    5812:	0000                	c.unimp
    5814:	0001                	c.addi	x0,0
    5816:	0002                	c.slli64	x0
    5818:	1b38                	c.addi4spn	x14,x2,440
    581a:	8000                	.insn	2, 0x8000
    581c:	0000                	c.unimp
    581e:	0000                	c.unimp
    5820:	0001                	c.addi	x0,0
    5822:	0000                	c.unimp
    5824:	0000                	c.unimp
    5826:	0000                	c.unimp
    5828:	0642                	c.slli	x12,0x10
    582a:	0000                	c.unimp
    582c:	0212                	c.slli	x4,0x4
    582e:	0001                	c.addi	x0,0
    5830:	0024                	c.addi4spn	x9,x2,8
    5832:	8000                	.insn	2, 0x8000
    5834:	0000                	c.unimp
    5836:	0000                	c.unimp
    5838:	000c                	.insn	2, 0x000c
    583a:	0000                	c.unimp
    583c:	0000                	c.unimp
    583e:	0000                	c.unimp
    5840:	0000064f          	fnmadd.s	f12,f0,f0,f0,rne
    5844:	0212                	c.slli	x4,0x4
    5846:	0001                	c.addi	x0,0
    5848:	1b18                	c.addi4spn	x14,x2,432
    584a:	8000                	.insn	2, 0x8000
    584c:	0000                	c.unimp
    584e:	0000                	c.unimp
    5850:	0020                	c.addi4spn	x8,x2,8
    5852:	0000                	c.unimp
    5854:	0000                	c.unimp
    5856:	0000                	c.unimp
    5858:	0659                	c.addi	x12,22
    585a:	0000                	c.unimp
    585c:	0010                	.insn	2, 0x0010
    585e:	c0000003          	lb	x0,-1024(x0) # 0xfffffffffffffc00
    5862:	8000                	.insn	2, 0x8000
	...
    5870:	0668                	c.addi4spn	x10,x2,780
    5872:	0000                	c.unimp
    5874:	0010                	.insn	2, 0x0010
    5876:	34e00003          	lb	x0,846(x0) # 0x34e
    587a:	8000                	.insn	2, 0x8000
	...
    5888:	0676                	c.slli	x12,0x1d
    588a:	0000                	c.unimp
    588c:	0010                	.insn	2, 0x0010
    588e:	0001                	c.addi	x0,0
    5890:	1b38                	c.addi4spn	x14,x2,440
    5892:	8000                	.insn	2, 0x8000
	...
    58a0:	067d                	c.addi	x12,31
    58a2:	0000                	c.unimp
    58a4:	0010                	.insn	2, 0x0010
    58a6:	fff1                	c.bnez	x15,0x5882
    58a8:	0000                	c.unimp
    58aa:	8000                	.insn	2, 0x8000
	...
    58b8:	0689                	c.addi	x13,2
    58ba:	0000                	c.unimp
    58bc:	0010                	.insn	2, 0x0010
    58be:	34e00003          	lb	x0,846(x0) # 0x34e
    58c2:	8000                	.insn	2, 0x8000
	...
    58d0:	0694                	c.addi4spn	x13,x2,832
    58d2:	0000                	c.unimp
    58d4:	0010                	.insn	2, 0x0010
    58d6:	34e00003          	lb	x0,846(x0) # 0x34e
    58da:	8000                	.insn	2, 0x8000
	...
    58e8:	069a                	c.slli	x13,0x6
    58ea:	0000                	c.unimp
    58ec:	0010                	.insn	2, 0x0010
    58ee:	c0000003          	lb	x0,-1024(x0) # 0xfffffffffffffc00
    58f2:	8000                	.insn	2, 0x8000
	...
    5900:	06a6                	c.slli	x13,0x9
    5902:	0000                	c.unimp
    5904:	0010                	.insn	2, 0x0010
    5906:	40000003          	lb	x0,1024(x0) # 0x400
    590a:	8000                	.insn	2, 0x8000
	...
    5918:	06b1                	c.addi	x13,12
    591a:	0000                	c.unimp
    591c:	0010                	.insn	2, 0x0010
    591e:	0001                	c.addi	x0,0
    5920:	0040                	c.addi4spn	x8,x2,4
    5922:	8000                	.insn	2, 0x8000
	...
    5930:	00000733          	add	x14,x0,x0
    5934:	0010                	.insn	2, 0x0010
    5936:	c0000003          	lb	x0,-1024(x0) # 0xfffffffffffffc00
    593a:	8000                	.insn	2, 0x8000
	...
    5948:	00000677          	.insn	4, 0x0677
    594c:	0010                	.insn	2, 0x0010
    594e:	0001                	c.addi	x0,0
    5950:	1b38                	c.addi4spn	x14,x2,440
    5952:	8000                	.insn	2, 0x8000
	...
    5960:	06c4                	c.addi4spn	x9,x2,836
    5962:	0000                	c.unimp
    5964:	0010                	.insn	2, 0x0010
    5966:	30000003          	lb	x0,768(x0) # 0x300
    596a:	8000                	.insn	2, 0x8000
	...
    5978:	0682                	c.slli64	x13
    597a:	0000                	c.unimp
    597c:	0012                	c.slli	x0,0x4
    597e:	0001                	c.addi	x0,0
    5980:	0000                	c.unimp
    5982:	8000                	.insn	2, 0x8000
	...
    5990:	06d4                	c.addi4spn	x13,x2,836
    5992:	0000                	c.unimp
    5994:	0010                	.insn	2, 0x0010
    5996:	fff1                	c.bnez	x15,0x5972
	...
    59a8:	06e2                	c.slli	x13,0x18
    59aa:	0000                	c.unimp
    59ac:	0010                	.insn	2, 0x0010
    59ae:	0001                	c.addi	x0,0
    59b0:	0040                	c.addi4spn	x8,x2,4
    59b2:	8000                	.insn	2, 0x8000
	...
    59c0:	06ee                	c.slli	x13,0x1b
    59c2:	0000                	c.unimp
    59c4:	0010                	.insn	2, 0x0010
    59c6:	0001                	c.addi	x0,0
    59c8:	1ab0                	c.addi4spn	x12,x2,376
    59ca:	8000                	.insn	2, 0x8000
	...
    59d8:	06fe                	c.slli	x13,0x1f
    59da:	0000                	c.unimp
    59dc:	0010                	.insn	2, 0x0010
    59de:	0001                	c.addi	x0,0
    59e0:	0420                	c.addi4spn	x8,x2,520
    59e2:	8000                	.insn	2, 0x8000
	...
    59f0:	0710                	c.addi4spn	x12,x2,896
    59f2:	0000                	c.unimp
    59f4:	0212                	c.slli	x4,0x4
    59f6:	0001                	c.addi	x0,0
    59f8:	0010                	.insn	2, 0x0010
    59fa:	8000                	.insn	2, 0x8000
    59fc:	0000                	c.unimp
    59fe:	0000                	c.unimp
    5a00:	0014                	.insn	2, 0x0014
    5a02:	0000                	c.unimp
    5a04:	0000                	c.unimp
    5a06:	0000                	c.unimp
    5a08:	0715                	c.addi	x14,5
    5a0a:	0000                	c.unimp
    5a0c:	0010                	.insn	2, 0x0010
    5a0e:	20000003          	lb	x0,512(x0) # 0x200
    5a12:	8000                	.insn	2, 0x8000
	...
    5a20:	00000727          	.insn	4, 0x0727
    5a24:	0010                	.insn	2, 0x0010
    5a26:	30000003          	lb	x0,768(x0) # 0x300
    5a2a:	8000                	.insn	2, 0x8000
	...
    5a38:	05d1                	c.addi	x11,20
    5a3a:	0000                	c.unimp
    5a3c:	0010                	.insn	2, 0x0010
    5a3e:	34e00003          	lb	x0,846(x0) # 0x34e
    5a42:	8000                	.insn	2, 0x8000
	...
    5a50:	00000737          	lui	x14,0x0
    5a54:	0010                	.insn	2, 0x0010
    5a56:	0001                	c.addi	x0,0
    5a58:	1ab0                	c.addi4spn	x12,x2,376
    5a5a:	8000                	.insn	2, 0x8000
	...
    5a68:	0732                	c.slli	x14,0xc
    5a6a:	0000                	c.unimp
    5a6c:	0010                	.insn	2, 0x0010
    5a6e:	c0000003          	lb	x0,-1024(x0) # 0xfffffffffffffc00
    5a72:	8000                	.insn	2, 0x8000
	...
    5a80:	00000747          	fmsub.s	f14,f0,f0,f0,rne
    5a84:	0212                	c.slli	x4,0x4
    5a86:	0001                	c.addi	x0,0
    5a88:	1b0c                	c.addi4spn	x11,x2,432
    5a8a:	8000                	.insn	2, 0x8000
    5a8c:	0000                	c.unimp
    5a8e:	0000                	c.unimp
    5a90:	000c                	.insn	2, 0x000c
    5a92:	0000                	c.unimp
    5a94:	0000                	c.unimp
    5a96:	0000                	c.unimp
    5a98:	7300                	c.ld	x8,32(x14)
    5a9a:	6174                	c.ld	x13,192(x10)
    5a9c:	7472                	c.ldsp	x8,312(x2)
    5a9e:	6f2e                	c.ldsp	x30,200(x2)
    5aa0:	2400                	c.fld	f8,8(x8)
    5aa2:	0078                	c.addi4spn	x14,x2,12
    5aa4:	616d                	c.addi16sp	x2,240
    5aa6:	6e69                	c.lui	x28,0x1a
    5aa8:	632e                	c.ldsp	x6,200(x2)
    5aaa:	7300                	c.ld	x8,32(x14)
    5aac:	6c72                	c.ldsp	x24,280(x2)
    5aae:	31302d77          	.insn	4, 0x31302d77
    5ab2:	6f2e                	c.ldsp	x30,200(x2)
    5ab4:	4d00                	c.lw	x8,24(x10)
    5ab6:	4f4d                	c.li	x30,19
    5ab8:	4544                	c.lw	x9,12(x10)
    5aba:	535f 4749 5300      	.insn	6, 0x53004749535f
    5ac0:	4f4d                	c.li	x30,19
    5ac2:	4544                	c.lw	x9,12(x10)
    5ac4:	535f 4749 5600      	.insn	6, 0x56004749535f
    5aca:	4f4d                	c.li	x30,19
    5acc:	4544                	c.lw	x9,12(x10)
    5ace:	535f 4749 6900      	.insn	6, 0x69004749535f
    5ad4:	6d6d                	c.lui	x26,0x1b
    5ad6:	0078                	c.addi4spn	x14,x2,12
    5ad8:	6465                	c.lui	x8,0x19
    5ada:	00316567          	.insn	4, 0x00316567
    5ade:	6465                	c.lui	x8,0x19
    5ae0:	00326567          	.insn	4, 0x00326567
    5ae4:	6e66                	c.ldsp	x28,88(x2)
    5ae6:	3164                	c.fld	f9,224(x10)
    5ae8:	6600                	c.ld	x8,8(x12)
    5aea:	646e                	c.ldsp	x8,216(x2)
    5aec:	0032                	c.slli	x0,0xc
    5aee:	6d69                	c.lui	x26,0x1a
    5af0:	656d                	c.lui	x10,0x1b
    5af2:	7000                	c.ld	x8,32(x8)
    5af4:	6100736f          	jal	x6,0xd104
    5af8:	7362                	c.ldsp	x6,56(x2)
    5afa:	6d69                	c.lui	x26,0x1a
    5afc:	006d                	c.addi	x0,27
    5afe:	00797263          	bgeu	x18,x7,0x5b02
    5b02:	6d69                	c.lui	x26,0x1a
    5b04:	316d                	c.addiw	x2,-5
    5b06:	0032                	c.slli	x0,0xc
    5b08:	7665                	c.lui	x12,0xffff9
    5b0a:	6e65                	c.lui	x28,0x19
    5b0c:	6300                	c.ld	x8,0(x14)
    5b0e:	7972                	c.ldsp	x18,312(x2)
    5b10:	0068                	c.addi4spn	x10,x2,12
    5b12:	6d69                	c.lui	x26,0x1a
    5b14:	786d                	c.lui	x16,0xffffb
    5b16:	69006873          	csrrsi	x16,0x690,0
    5b1a:	6d6d                	c.lui	x26,0x1b
    5b1c:	3231                	c.addiw	x4,-20 # 0xffffffffffffffec
    5b1e:	63006873          	csrrsi	x16,0x630,0
    5b22:	7972                	c.ldsp	x18,312(x2)
    5b24:	61006873          	csrrsi	x16,0x610,0
    5b28:	7362                	c.ldsp	x6,56(x2)
    5b2a:	6d69                	c.lui	x26,0x1a
    5b2c:	736d                	c.lui	x6,0xffffb
    5b2e:	0068                	c.addi4spn	x10,x2,12
    5b30:	6e676973          	csrrsi	x18,0x6e6,14
    5b34:	7461                	c.lui	x8,0xffff8
    5b36:	7275                	c.lui	x4,0xffffd
    5b38:	5f65                	c.li	x30,-7
    5b3a:	3878                	c.fld	f14,240(x8)
    5b3c:	315f 6900 736e      	.insn	6, 0x736e6900315f
    5b42:	5f74                	c.lw	x13,124(x14)
    5b44:	0030                	c.addi4spn	x12,x2,8
    5b46:	6e69                	c.lui	x28,0x1a
    5b48:	315f7473          	csrrci	x8,0x315,30
    5b4c:	6900                	c.ld	x8,16(x10)
    5b4e:	736e                	c.ldsp	x6,248(x2)
    5b50:	5f74                	c.lw	x13,124(x14)
    5b52:	0032                	c.slli	x0,0xc
    5b54:	6e69                	c.lui	x28,0x1a
    5b56:	335f7473          	csrrci	x8,mhpmevent21,30
    5b5a:	6900                	c.ld	x8,16(x10)
    5b5c:	736e                	c.ldsp	x6,248(x2)
    5b5e:	5f74                	c.lw	x13,124(x14)
    5b60:	0034                	c.addi4spn	x13,x2,8
    5b62:	6e69                	c.lui	x28,0x1a
    5b64:	355f7473          	csrrci	x8,0x355,30
    5b68:	6900                	c.ld	x8,16(x10)
    5b6a:	736e                	c.ldsp	x6,248(x2)
    5b6c:	5f74                	c.lw	x13,124(x14)
    5b6e:	0036                	c.slli	x0,0xd
    5b70:	6e69                	c.lui	x28,0x1a
    5b72:	375f7473          	csrrci	x8,0x375,30
    5b76:	6900                	c.ld	x8,16(x10)
    5b78:	736e                	c.ldsp	x6,248(x2)
    5b7a:	5f74                	c.lw	x13,124(x14)
    5b7c:	0038                	c.addi4spn	x14,x2,8
    5b7e:	6e69                	c.lui	x28,0x1a
    5b80:	395f7473          	csrrci	x8,0x395,30
    5b84:	6900                	c.ld	x8,16(x10)
    5b86:	736e                	c.ldsp	x6,248(x2)
    5b88:	5f74                	c.lw	x13,124(x14)
    5b8a:	3031                	.insn	2, 0x3031
    5b8c:	6900                	c.ld	x8,16(x10)
    5b8e:	736e                	c.ldsp	x6,248(x2)
    5b90:	5f74                	c.lw	x13,124(x14)
    5b92:	3131                	c.addiw	x2,-20
    5b94:	6900                	c.ld	x8,16(x10)
    5b96:	736e                	c.ldsp	x6,248(x2)
    5b98:	5f74                	c.lw	x13,124(x14)
    5b9a:	3231                	c.addiw	x4,-20 # 0xffffffffffffcfec
    5b9c:	6900                	c.ld	x8,16(x10)
    5b9e:	736e                	c.ldsp	x6,248(x2)
    5ba0:	5f74                	c.lw	x13,124(x14)
    5ba2:	3331                	c.addiw	x6,-20 # 0xffffffffffffafec
    5ba4:	6900                	c.ld	x8,16(x10)
    5ba6:	736e                	c.ldsp	x6,248(x2)
    5ba8:	5f74                	c.lw	x13,124(x14)
    5baa:	3431                	c.addiw	x8,-20 # 0xffffffffffff7fec
    5bac:	6900                	c.ld	x8,16(x10)
    5bae:	736e                	c.ldsp	x6,248(x2)
    5bb0:	5f74                	c.lw	x13,124(x14)
    5bb2:	3531                	c.addiw	x10,-20 # 0x1afec
    5bb4:	6900                	c.ld	x8,16(x10)
    5bb6:	736e                	c.ldsp	x6,248(x2)
    5bb8:	5f74                	c.lw	x13,124(x14)
    5bba:	3631                	c.addiw	x12,-20 # 0xffffffffffff8fec
    5bbc:	6900                	c.ld	x8,16(x10)
    5bbe:	736e                	c.ldsp	x6,248(x2)
    5bc0:	5f74                	c.lw	x13,124(x14)
    5bc2:	3731                	c.addiw	x14,-20 # 0xffffffffffffffec
    5bc4:	7300                	c.ld	x8,32(x14)
    5bc6:	6769                	c.lui	x14,0x1a
    5bc8:	616e                	c.ldsp	x2,216(x2)
    5bca:	7574                	c.ld	x13,232(x10)
    5bcc:	6572                	c.ldsp	x10,280(x2)
    5bce:	785f 5f34 0030      	.insn	6, 0x00305f34785f
    5bd4:	6e69                	c.lui	x28,0x1a
    5bd6:	315f7473          	csrrci	x8,0x315,30
    5bda:	0038                	c.addi4spn	x14,x2,8
    5bdc:	6e69                	c.lui	x28,0x1a
    5bde:	315f7473          	csrrci	x8,0x315,30
    5be2:	0039                	c.addi	x0,14
    5be4:	6e69                	c.lui	x28,0x1a
    5be6:	325f7473          	csrrci	x8,mhpmevent5,30
    5bea:	0030                	c.addi4spn	x12,x2,8
    5bec:	6e69                	c.lui	x28,0x1a
    5bee:	325f7473          	csrrci	x8,mhpmevent5,30
    5bf2:	0031                	c.addi	x0,12
    5bf4:	6e69                	c.lui	x28,0x1a
    5bf6:	325f7473          	csrrci	x8,mhpmevent5,30
    5bfa:	0032                	c.slli	x0,0xc
    5bfc:	6e69                	c.lui	x28,0x1a
    5bfe:	325f7473          	csrrci	x8,mhpmevent5,30
    5c02:	6e690033          	.insn	4, 0x6e690033
    5c06:	325f7473          	csrrci	x8,mhpmevent5,30
    5c0a:	0034                	c.addi4spn	x13,x2,8
    5c0c:	6e69                	c.lui	x28,0x1a
    5c0e:	325f7473          	csrrci	x8,mhpmevent5,30
    5c12:	0035                	c.addi	x0,13
    5c14:	6e69                	c.lui	x28,0x1a
    5c16:	325f7473          	csrrci	x8,mhpmevent5,30
    5c1a:	0036                	c.slli	x0,0xd
    5c1c:	6e69                	c.lui	x28,0x1a
    5c1e:	325f7473          	csrrci	x8,mhpmevent5,30
    5c22:	6e690037          	lui	x0,0x6e690
    5c26:	325f7473          	csrrci	x8,mhpmevent5,30
    5c2a:	0038                	c.addi4spn	x14,x2,8
    5c2c:	6e69                	c.lui	x28,0x1a
    5c2e:	325f7473          	csrrci	x8,mhpmevent5,30
    5c32:	0039                	c.addi	x0,14
    5c34:	6e69                	c.lui	x28,0x1a
    5c36:	335f7473          	csrrci	x8,mhpmevent21,30
    5c3a:	0030                	c.addi4spn	x12,x2,8
    5c3c:	6e69                	c.lui	x28,0x1a
    5c3e:	335f7473          	csrrci	x8,mhpmevent21,30
    5c42:	0031                	c.addi	x0,12
    5c44:	6e69                	c.lui	x28,0x1a
    5c46:	335f7473          	csrrci	x8,mhpmevent21,30
    5c4a:	0032                	c.slli	x0,0xc
    5c4c:	6e69                	c.lui	x28,0x1a
    5c4e:	335f7473          	csrrci	x8,mhpmevent21,30
    5c52:	6e690033          	.insn	4, 0x6e690033
    5c56:	335f7473          	csrrci	x8,mhpmevent21,30
    5c5a:	0034                	c.addi4spn	x13,x2,8
    5c5c:	6e69                	c.lui	x28,0x1a
    5c5e:	335f7473          	csrrci	x8,mhpmevent21,30
    5c62:	0035                	c.addi	x0,13
    5c64:	6e69                	c.lui	x28,0x1a
    5c66:	335f7473          	csrrci	x8,mhpmevent21,30
    5c6a:	0036                	c.slli	x0,0xd
    5c6c:	6e69                	c.lui	x28,0x1a
    5c6e:	335f7473          	csrrci	x8,mhpmevent21,30
    5c72:	6e690037          	lui	x0,0x6e690
    5c76:	335f7473          	csrrci	x8,mhpmevent21,30
    5c7a:	0038                	c.addi4spn	x14,x2,8
    5c7c:	6e69                	c.lui	x28,0x1a
    5c7e:	335f7473          	csrrci	x8,mhpmevent21,30
    5c82:	0039                	c.addi	x0,14
    5c84:	6e69                	c.lui	x28,0x1a
    5c86:	345f7473          	csrrci	x8,0x345,30
    5c8a:	0030                	c.addi4spn	x12,x2,8
    5c8c:	6e69                	c.lui	x28,0x1a
    5c8e:	345f7473          	csrrci	x8,0x345,30
    5c92:	0031                	c.addi	x0,12
    5c94:	6e69                	c.lui	x28,0x1a
    5c96:	345f7473          	csrrci	x8,0x345,30
    5c9a:	0032                	c.slli	x0,0xc
    5c9c:	6e69                	c.lui	x28,0x1a
    5c9e:	345f7473          	csrrci	x8,0x345,30
    5ca2:	6e690033          	.insn	4, 0x6e690033
    5ca6:	345f7473          	csrrci	x8,0x345,30
    5caa:	0034                	c.addi4spn	x13,x2,8
    5cac:	6e69                	c.lui	x28,0x1a
    5cae:	345f7473          	csrrci	x8,0x345,30
    5cb2:	0035                	c.addi	x0,13
    5cb4:	6e69                	c.lui	x28,0x1a
    5cb6:	345f7473          	csrrci	x8,0x345,30
    5cba:	0036                	c.slli	x0,0xd
    5cbc:	6e69                	c.lui	x28,0x1a
    5cbe:	345f7473          	csrrci	x8,0x345,30
    5cc2:	6e690037          	lui	x0,0x6e690
    5cc6:	345f7473          	csrrci	x8,0x345,30
    5cca:	0038                	c.addi4spn	x14,x2,8
    5ccc:	6e69                	c.lui	x28,0x1a
    5cce:	345f7473          	csrrci	x8,0x345,30
    5cd2:	0039                	c.addi	x0,14
    5cd4:	6e69                	c.lui	x28,0x1a
    5cd6:	355f7473          	csrrci	x8,0x355,30
    5cda:	0030                	c.addi4spn	x12,x2,8
    5cdc:	6e69                	c.lui	x28,0x1a
    5cde:	355f7473          	csrrci	x8,0x355,30
    5ce2:	0031                	c.addi	x0,12
    5ce4:	6e69                	c.lui	x28,0x1a
    5ce6:	355f7473          	csrrci	x8,0x355,30
    5cea:	0032                	c.slli	x0,0xc
    5cec:	6e69                	c.lui	x28,0x1a
    5cee:	355f7473          	csrrci	x8,0x355,30
    5cf2:	6e690033          	.insn	4, 0x6e690033
    5cf6:	355f7473          	csrrci	x8,0x355,30
    5cfa:	0034                	c.addi4spn	x13,x2,8
    5cfc:	6e69                	c.lui	x28,0x1a
    5cfe:	355f7473          	csrrci	x8,0x355,30
    5d02:	0035                	c.addi	x0,13
    5d04:	6e69                	c.lui	x28,0x1a
    5d06:	355f7473          	csrrci	x8,0x355,30
    5d0a:	0036                	c.slli	x0,0xd
    5d0c:	6e69                	c.lui	x28,0x1a
    5d0e:	355f7473          	csrrci	x8,0x355,30
    5d12:	6e690037          	lui	x0,0x6e690
    5d16:	355f7473          	csrrci	x8,0x355,30
    5d1a:	0038                	c.addi4spn	x14,x2,8
    5d1c:	6e69                	c.lui	x28,0x1a
    5d1e:	355f7473          	csrrci	x8,0x355,30
    5d22:	0039                	c.addi	x0,14
    5d24:	6e69                	c.lui	x28,0x1a
    5d26:	365f7473          	csrrci	x8,0x365,30
    5d2a:	0030                	c.addi4spn	x12,x2,8
    5d2c:	6e69                	c.lui	x28,0x1a
    5d2e:	365f7473          	csrrci	x8,0x365,30
    5d32:	0031                	c.addi	x0,12
    5d34:	6e69                	c.lui	x28,0x1a
    5d36:	365f7473          	csrrci	x8,0x365,30
    5d3a:	0032                	c.slli	x0,0xc
    5d3c:	6e69                	c.lui	x28,0x1a
    5d3e:	365f7473          	csrrci	x8,0x365,30
    5d42:	6e690033          	.insn	4, 0x6e690033
    5d46:	365f7473          	csrrci	x8,0x365,30
    5d4a:	0034                	c.addi4spn	x13,x2,8
    5d4c:	6e69                	c.lui	x28,0x1a
    5d4e:	365f7473          	csrrci	x8,0x365,30
    5d52:	0035                	c.addi	x0,13
    5d54:	6e69                	c.lui	x28,0x1a
    5d56:	365f7473          	csrrci	x8,0x365,30
    5d5a:	0036                	c.slli	x0,0xd
    5d5c:	6e69                	c.lui	x28,0x1a
    5d5e:	365f7473          	csrrci	x8,0x365,30
    5d62:	6e690037          	lui	x0,0x6e690
    5d66:	365f7473          	csrrci	x8,0x365,30
    5d6a:	0038                	c.addi4spn	x14,x2,8
    5d6c:	6e69                	c.lui	x28,0x1a
    5d6e:	365f7473          	csrrci	x8,0x365,30
    5d72:	0039                	c.addi	x0,14
    5d74:	6e69                	c.lui	x28,0x1a
    5d76:	375f7473          	csrrci	x8,0x375,30
    5d7a:	0030                	c.addi4spn	x12,x2,8
    5d7c:	6e69                	c.lui	x28,0x1a
    5d7e:	375f7473          	csrrci	x8,0x375,30
    5d82:	0031                	c.addi	x0,12
    5d84:	6e69                	c.lui	x28,0x1a
    5d86:	375f7473          	csrrci	x8,0x375,30
    5d8a:	0032                	c.slli	x0,0xc
    5d8c:	6e69                	c.lui	x28,0x1a
    5d8e:	375f7473          	csrrci	x8,0x375,30
    5d92:	6e690033          	.insn	4, 0x6e690033
    5d96:	375f7473          	csrrci	x8,0x375,30
    5d9a:	0034                	c.addi4spn	x13,x2,8
    5d9c:	6e69                	c.lui	x28,0x1a
    5d9e:	375f7473          	csrrci	x8,0x375,30
    5da2:	0035                	c.addi	x0,13
    5da4:	6e69                	c.lui	x28,0x1a
    5da6:	375f7473          	csrrci	x8,0x375,30
    5daa:	0036                	c.slli	x0,0xd
    5dac:	6e69                	c.lui	x28,0x1a
    5dae:	375f7473          	csrrci	x8,0x375,30
    5db2:	6e690037          	lui	x0,0x6e690
    5db6:	375f7473          	csrrci	x8,0x375,30
    5dba:	0038                	c.addi4spn	x14,x2,8
    5dbc:	6e69                	c.lui	x28,0x1a
    5dbe:	375f7473          	csrrci	x8,0x375,30
    5dc2:	0039                	c.addi	x0,14
    5dc4:	6e69                	c.lui	x28,0x1a
    5dc6:	385f7473          	csrrci	x8,0x385,30
    5dca:	0030                	c.addi4spn	x12,x2,8
    5dcc:	6e69                	c.lui	x28,0x1a
    5dce:	385f7473          	csrrci	x8,0x385,30
    5dd2:	0031                	c.addi	x0,12
    5dd4:	6e69                	c.lui	x28,0x1a
    5dd6:	385f7473          	csrrci	x8,0x385,30
    5dda:	0032                	c.slli	x0,0xc
    5ddc:	6e69                	c.lui	x28,0x1a
    5dde:	385f7473          	csrrci	x8,0x385,30
    5de2:	6e690033          	.insn	4, 0x6e690033
    5de6:	385f7473          	csrrci	x8,0x385,30
    5dea:	0034                	c.addi4spn	x13,x2,8
    5dec:	6e69                	c.lui	x28,0x1a
    5dee:	385f7473          	csrrci	x8,0x385,30
    5df2:	0035                	c.addi	x0,13
    5df4:	6e69                	c.lui	x28,0x1a
    5df6:	385f7473          	csrrci	x8,0x385,30
    5dfa:	0036                	c.slli	x0,0xd
    5dfc:	6e69                	c.lui	x28,0x1a
    5dfe:	385f7473          	csrrci	x8,0x385,30
    5e02:	6e690037          	lui	x0,0x6e690
    5e06:	385f7473          	csrrci	x8,0x385,30
    5e0a:	0038                	c.addi4spn	x14,x2,8
    5e0c:	6e69                	c.lui	x28,0x1a
    5e0e:	385f7473          	csrrci	x8,0x385,30
    5e12:	0039                	c.addi	x0,14
    5e14:	6e69                	c.lui	x28,0x1a
    5e16:	395f7473          	csrrci	x8,0x395,30
    5e1a:	0030                	c.addi4spn	x12,x2,8
    5e1c:	6e69                	c.lui	x28,0x1a
    5e1e:	395f7473          	csrrci	x8,0x395,30
    5e22:	0031                	c.addi	x0,12
    5e24:	6e69                	c.lui	x28,0x1a
    5e26:	395f7473          	csrrci	x8,0x395,30
    5e2a:	0032                	c.slli	x0,0xc
    5e2c:	6e69                	c.lui	x28,0x1a
    5e2e:	395f7473          	csrrci	x8,0x395,30
    5e32:	6e690033          	.insn	4, 0x6e690033
    5e36:	395f7473          	csrrci	x8,0x395,30
    5e3a:	0034                	c.addi4spn	x13,x2,8
    5e3c:	6e69                	c.lui	x28,0x1a
    5e3e:	395f7473          	csrrci	x8,0x395,30
    5e42:	0035                	c.addi	x0,13
    5e44:	6e69                	c.lui	x28,0x1a
    5e46:	395f7473          	csrrci	x8,0x395,30
    5e4a:	0036                	c.slli	x0,0xd
    5e4c:	6e69                	c.lui	x28,0x1a
    5e4e:	395f7473          	csrrci	x8,0x395,30
    5e52:	6e690037          	lui	x0,0x6e690
    5e56:	395f7473          	csrrci	x8,0x395,30
    5e5a:	0038                	c.addi4spn	x14,x2,8
    5e5c:	6e69                	c.lui	x28,0x1a
    5e5e:	395f7473          	csrrci	x8,0x395,30
    5e62:	0039                	c.addi	x0,14
    5e64:	6e69                	c.lui	x28,0x1a
    5e66:	315f7473          	csrrci	x8,0x315,30
    5e6a:	3030                	c.fld	f12,96(x8)
    5e6c:	6900                	c.ld	x8,16(x10)
    5e6e:	736e                	c.ldsp	x6,248(x2)
    5e70:	5f74                	c.lw	x13,124(x14)
    5e72:	3031                	.insn	2, 0x3031
    5e74:	0031                	c.addi	x0,12
    5e76:	6e69                	c.lui	x28,0x1a
    5e78:	315f7473          	csrrci	x8,0x315,30
    5e7c:	3230                	c.fld	f12,96(x12)
    5e7e:	6900                	c.ld	x8,16(x10)
    5e80:	736e                	c.ldsp	x6,248(x2)
    5e82:	5f74                	c.lw	x13,124(x14)
    5e84:	3031                	.insn	2, 0x3031
    5e86:	6e690033          	.insn	4, 0x6e690033
    5e8a:	315f7473          	csrrci	x8,0x315,30
    5e8e:	3430                	c.fld	f12,104(x8)
    5e90:	6900                	c.ld	x8,16(x10)
    5e92:	736e                	c.ldsp	x6,248(x2)
    5e94:	5f74                	c.lw	x13,124(x14)
    5e96:	3031                	.insn	2, 0x3031
    5e98:	0035                	c.addi	x0,13
    5e9a:	6e69                	c.lui	x28,0x1a
    5e9c:	315f7473          	csrrci	x8,0x315,30
    5ea0:	3630                	c.fld	f12,104(x12)
    5ea2:	6900                	c.ld	x8,16(x10)
    5ea4:	736e                	c.ldsp	x6,248(x2)
    5ea6:	5f74                	c.lw	x13,124(x14)
    5ea8:	3031                	.insn	2, 0x3031
    5eaa:	6e690037          	lui	x0,0x6e690
    5eae:	315f7473          	csrrci	x8,0x315,30
    5eb2:	3830                	c.fld	f12,112(x8)
    5eb4:	6900                	c.ld	x8,16(x10)
    5eb6:	736e                	c.ldsp	x6,248(x2)
    5eb8:	5f74                	c.lw	x13,124(x14)
    5eba:	3031                	.insn	2, 0x3031
    5ebc:	0039                	c.addi	x0,14
    5ebe:	6e69                	c.lui	x28,0x1a
    5ec0:	315f7473          	csrrci	x8,0x315,30
    5ec4:	3031                	.insn	2, 0x3031
    5ec6:	6900                	c.ld	x8,16(x10)
    5ec8:	736e                	c.ldsp	x6,248(x2)
    5eca:	5f74                	c.lw	x13,124(x14)
    5ecc:	3131                	c.addiw	x2,-20
    5ece:	0031                	c.addi	x0,12
    5ed0:	6e69                	c.lui	x28,0x1a
    5ed2:	315f7473          	csrrci	x8,0x315,30
    5ed6:	3231                	c.addiw	x4,-20 # 0xffffffffffffffec
    5ed8:	6900                	c.ld	x8,16(x10)
    5eda:	736e                	c.ldsp	x6,248(x2)
    5edc:	5f74                	c.lw	x13,124(x14)
    5ede:	3131                	c.addiw	x2,-20
    5ee0:	6e690033          	.insn	4, 0x6e690033
    5ee4:	315f7473          	csrrci	x8,0x315,30
    5ee8:	3431                	c.addiw	x8,-20
    5eea:	6900                	c.ld	x8,16(x10)
    5eec:	736e                	c.ldsp	x6,248(x2)
    5eee:	5f74                	c.lw	x13,124(x14)
    5ef0:	3131                	c.addiw	x2,-20
    5ef2:	0035                	c.addi	x0,13
    5ef4:	6e69                	c.lui	x28,0x1a
    5ef6:	315f7473          	csrrci	x8,0x315,30
    5efa:	3631                	c.addiw	x12,-20
    5efc:	6900                	c.ld	x8,16(x10)
    5efe:	736e                	c.ldsp	x6,248(x2)
    5f00:	5f74                	c.lw	x13,124(x14)
    5f02:	3131                	c.addiw	x2,-20
    5f04:	6e690037          	lui	x0,0x6e690
    5f08:	315f7473          	csrrci	x8,0x315,30
    5f0c:	3831                	c.addiw	x16,-20 # 0xffffffffffffafec
    5f0e:	6900                	c.ld	x8,16(x10)
    5f10:	736e                	c.ldsp	x6,248(x2)
    5f12:	5f74                	c.lw	x13,124(x14)
    5f14:	3131                	c.addiw	x2,-20
    5f16:	0039                	c.addi	x0,14
    5f18:	6e69                	c.lui	x28,0x1a
    5f1a:	315f7473          	csrrci	x8,0x315,30
    5f1e:	3032                	c.fldsp	f0,296(x2)
    5f20:	6900                	c.ld	x8,16(x10)
    5f22:	736e                	c.ldsp	x6,248(x2)
    5f24:	5f74                	c.lw	x13,124(x14)
    5f26:	3231                	c.addiw	x4,-20 # 0xffffffffffffffec
    5f28:	0031                	c.addi	x0,12
    5f2a:	6e69                	c.lui	x28,0x1a
    5f2c:	315f7473          	csrrci	x8,0x315,30
    5f30:	3232                	c.fldsp	f4,296(x2)
    5f32:	6900                	c.ld	x8,16(x10)
    5f34:	736e                	c.ldsp	x6,248(x2)
    5f36:	5f74                	c.lw	x13,124(x14)
    5f38:	3231                	c.addiw	x4,-20 # 0xffffffffffffffec
    5f3a:	6e690033          	.insn	4, 0x6e690033
    5f3e:	315f7473          	csrrci	x8,0x315,30
    5f42:	3432                	c.fldsp	f8,296(x2)
    5f44:	6900                	c.ld	x8,16(x10)
    5f46:	736e                	c.ldsp	x6,248(x2)
    5f48:	5f74                	c.lw	x13,124(x14)
    5f4a:	3231                	c.addiw	x4,-20 # 0xffffffffffffffec
    5f4c:	0035                	c.addi	x0,13
    5f4e:	6e69                	c.lui	x28,0x1a
    5f50:	315f7473          	csrrci	x8,0x315,30
    5f54:	3632                	c.fldsp	f12,296(x2)
    5f56:	6900                	c.ld	x8,16(x10)
    5f58:	736e                	c.ldsp	x6,248(x2)
    5f5a:	5f74                	c.lw	x13,124(x14)
    5f5c:	3231                	c.addiw	x4,-20 # 0xffffffffffffffec
    5f5e:	6e690037          	lui	x0,0x6e690
    5f62:	315f7473          	csrrci	x8,0x315,30
    5f66:	3832                	c.fldsp	f16,296(x2)
    5f68:	6900                	c.ld	x8,16(x10)
    5f6a:	736e                	c.ldsp	x6,248(x2)
    5f6c:	5f74                	c.lw	x13,124(x14)
    5f6e:	3231                	c.addiw	x4,-20 # 0xffffffffffffffec
    5f70:	0039                	c.addi	x0,14
    5f72:	6e69                	c.lui	x28,0x1a
    5f74:	315f7473          	csrrci	x8,0x315,30
    5f78:	69003033          	.insn	4, 0x69003033
    5f7c:	736e                	c.ldsp	x6,248(x2)
    5f7e:	5f74                	c.lw	x13,124(x14)
    5f80:	3331                	c.addiw	x6,-20
    5f82:	0031                	c.addi	x0,12
    5f84:	6e69                	c.lui	x28,0x1a
    5f86:	315f7473          	csrrci	x8,0x315,30
    5f8a:	69003233          	.insn	4, 0x69003233
    5f8e:	736e                	c.ldsp	x6,248(x2)
    5f90:	5f74                	c.lw	x13,124(x14)
    5f92:	3331                	c.addiw	x6,-20
    5f94:	6e690033          	.insn	4, 0x6e690033
    5f98:	315f7473          	csrrci	x8,0x315,30
    5f9c:	69003433          	.insn	4, 0x69003433
    5fa0:	736e                	c.ldsp	x6,248(x2)
    5fa2:	5f74                	c.lw	x13,124(x14)
    5fa4:	3331                	c.addiw	x6,-20
    5fa6:	0035                	c.addi	x0,13
    5fa8:	6e69                	c.lui	x28,0x1a
    5faa:	315f7473          	csrrci	x8,0x315,30
    5fae:	69003633          	.insn	4, 0x69003633
    5fb2:	736e                	c.ldsp	x6,248(x2)
    5fb4:	5f74                	c.lw	x13,124(x14)
    5fb6:	3331                	c.addiw	x6,-20
    5fb8:	6e690037          	lui	x0,0x6e690
    5fbc:	315f7473          	csrrci	x8,0x315,30
    5fc0:	69003833          	.insn	4, 0x69003833
    5fc4:	736e                	c.ldsp	x6,248(x2)
    5fc6:	5f74                	c.lw	x13,124(x14)
    5fc8:	3331                	c.addiw	x6,-20
    5fca:	0039                	c.addi	x0,14
    5fcc:	6e69                	c.lui	x28,0x1a
    5fce:	315f7473          	csrrci	x8,0x315,30
    5fd2:	3034                	c.fld	f13,96(x8)
    5fd4:	6900                	c.ld	x8,16(x10)
    5fd6:	736e                	c.ldsp	x6,248(x2)
    5fd8:	5f74                	c.lw	x13,124(x14)
    5fda:	3431                	c.addiw	x8,-20
    5fdc:	0031                	c.addi	x0,12
    5fde:	6e69                	c.lui	x28,0x1a
    5fe0:	315f7473          	csrrci	x8,0x315,30
    5fe4:	3234                	c.fld	f13,96(x12)
    5fe6:	6900                	c.ld	x8,16(x10)
    5fe8:	736e                	c.ldsp	x6,248(x2)
    5fea:	5f74                	c.lw	x13,124(x14)
    5fec:	3431                	c.addiw	x8,-20
    5fee:	6e690033          	.insn	4, 0x6e690033
    5ff2:	315f7473          	csrrci	x8,0x315,30
    5ff6:	3434                	c.fld	f13,104(x8)
    5ff8:	6900                	c.ld	x8,16(x10)
    5ffa:	736e                	c.ldsp	x6,248(x2)
    5ffc:	5f74                	c.lw	x13,124(x14)
    5ffe:	3431                	c.addiw	x8,-20
    6000:	0035                	c.addi	x0,13
    6002:	6e69                	c.lui	x28,0x1a
    6004:	315f7473          	csrrci	x8,0x315,30
    6008:	3634                	c.fld	f13,104(x12)
    600a:	6900                	c.ld	x8,16(x10)
    600c:	736e                	c.ldsp	x6,248(x2)
    600e:	5f74                	c.lw	x13,124(x14)
    6010:	3431                	c.addiw	x8,-20
    6012:	6e690037          	lui	x0,0x6e690
    6016:	315f7473          	csrrci	x8,0x315,30
    601a:	3834                	c.fld	f13,112(x8)
    601c:	6900                	c.ld	x8,16(x10)
    601e:	736e                	c.ldsp	x6,248(x2)
    6020:	5f74                	c.lw	x13,124(x14)
    6022:	3431                	c.addiw	x8,-20
    6024:	0039                	c.addi	x0,14
    6026:	6e69                	c.lui	x28,0x1a
    6028:	315f7473          	csrrci	x8,0x315,30
    602c:	3035                	.insn	2, 0x3035
    602e:	6900                	c.ld	x8,16(x10)
    6030:	736e                	c.ldsp	x6,248(x2)
    6032:	5f74                	c.lw	x13,124(x14)
    6034:	3531                	c.addiw	x10,-20
    6036:	0031                	c.addi	x0,12
    6038:	6e69                	c.lui	x28,0x1a
    603a:	315f7473          	csrrci	x8,0x315,30
    603e:	3235                	c.addiw	x4,-19 # 0xffffffffffffffed
    6040:	6900                	c.ld	x8,16(x10)
    6042:	736e                	c.ldsp	x6,248(x2)
    6044:	5f74                	c.lw	x13,124(x14)
    6046:	3531                	c.addiw	x10,-20
    6048:	78650033          	.insn	4, 0x78650033
    604c:	7469                	c.lui	x8,0xffffa
    604e:	635f 656c 6e61      	.insn	6, 0x6e61656c635f
    6054:	7075                	c.lui	x0,0xffffd
    6056:	6100                	c.ld	x8,0(x10)
    6058:	6f62                	c.ldsp	x30,24(x2)
    605a:	7472                	c.ldsp	x8,312(x2)
    605c:	745f 7365 7374      	.insn	6, 0x73747365745f
    6062:	7200                	c.ld	x8,32(x12)
    6064:	7476                	c.ldsp	x8,376(x2)
    6066:	7365                	c.lui	x6,0xffff9
    6068:	5f74                	c.lw	x13,124(x14)
    606a:	6164                	c.ld	x9,192(x10)
    606c:	6174                	c.ld	x13,192(x10)
    606e:	6d00                	c.ld	x8,24(x10)
    6070:	7274                	c.ld	x13,224(x12)
    6072:	7061                	c.lui	x0,0xffff8
    6074:	735f 6769 7470      	.insn	6, 0x74706769735f
    607a:	0072                	c.slli	x0,0x1c
    607c:	7672                	c.ldsp	x12,312(x2)
    607e:	6574                	c.ld	x13,200(x10)
    6080:	735f7473          	csrrci	x8,mhpmevent21h,30
    6084:	6769                	c.lui	x14,0x1a
    6086:	625f 6765 6e69      	.insn	6, 0x6e696765625f
    608c:	7300                	c.ld	x8,32(x14)
    608e:	6769                	c.lui	x14,0x1a
    6090:	625f 6765 6e69      	.insn	6, 0x6e696765625f
    6096:	635f 6e61 7261      	.insn	6, 0x72616e61635f
    609c:	0079                	c.addi	x0,30
    609e:	6e676973          	csrrsi	x18,0x6e6,14
    60a2:	7461                	c.lui	x8,0xffff8
    60a4:	7275                	c.lui	x4,0xffffd
    60a6:	5f65                	c.li	x30,-7
    60a8:	3878                	c.fld	f14,240(x8)
    60aa:	305f 7300 6769      	.insn	6, 0x67697300305f
    60b0:	655f 646e 635f      	.insn	6, 0x635f646e655f
    60b6:	6e61                	c.lui	x28,0x18
    60b8:	7261                	c.lui	x4,0xffff8
    60ba:	0079                	c.addi	x0,30
    60bc:	7672                	c.ldsp	x12,312(x2)
    60be:	6574                	c.ld	x13,200(x10)
    60c0:	735f7473          	csrrci	x8,mhpmevent21h,30
    60c4:	6769                	c.lui	x14,0x1a
    60c6:	655f 646e 7400      	.insn	6, 0x7400646e655f
    60cc:	6d72                	c.ldsp	x26,280(x2)
    60ce:	632e                	c.ldsp	x6,200(x2)
    60d0:	6d00                	c.ld	x8,24(x10)
    60d2:	6961                	c.lui	x18,0x18
    60d4:	616e                	c.ldsp	x2,216(x2)
    60d6:	6772                	c.ldsp	x14,280(x2)
    60d8:	76720073          	.insn	4, 0x76720073
    60dc:	6574                	c.ld	x13,200(x10)
    60de:	655f7473          	csrrci	x8,hviph,30
    60e2:	7272                	c.ldsp	x4,312(x2)
    60e4:	5f00726f          	jal	x4,0xd6d4
    60e8:	7274                	c.ld	x13,224(x12)
    60ea:	5f6d                	c.li	x30,-5
    60ec:	6e69                	c.lui	x28,0x1a
    60ee:	7469                	c.lui	x8,0xffffa
    60f0:	5f00                	c.lw	x8,56(x14)
    60f2:	63617473          	csrrci	x8,0x636,2
    60f6:	6f705f6b          	.insn	4, 0x6f705f6b
    60fa:	6e69                	c.lui	x28,0x1a
    60fc:	6574                	c.ld	x13,200(x10)
    60fe:	0072                	c.slli	x0,0x1c
    6100:	6e65                	c.lui	x28,0x19
    6102:	5f64                	c.lw	x9,124(x14)
    6104:	6e676973          	csrrsi	x18,0x6e6,14
    6108:	7461                	c.lui	x8,0xffff8
    610a:	7275                	c.lui	x4,0xffffd
    610c:	0065                	c.addi	x0,25
    610e:	655f 6574 7478      	.insn	6, 0x74786574655f
    6114:	5f00                	c.lw	x8,56(x14)
    6116:	6d70                	c.ld	x12,216(x10)
    6118:	6d65                	c.lui	x26,0x19
    611a:	735f 6174 7472      	.insn	6, 0x74726174735f
    6120:	5f00                	c.lw	x8,56(x14)
    6122:	7362                	c.ldsp	x6,56(x2)
    6124:	74735f73          	csrrwi	x30,mseccfg,6
    6128:	7261                	c.lui	x4,0xffff8
    612a:	0074                	c.addi4spn	x13,x2,12
    612c:	6465                	c.lui	x8,0x19
    612e:	7461                	c.lui	x8,0xffff8
    6130:	0061                	c.addi	x0,24
    6132:	685f 6165 5f70      	.insn	6, 0x5f706165685f
    6138:	72617473          	csrrci	x8,mhpmevent6h,2
    613c:	0074                	c.addi4spn	x13,x2,12
    613e:	735f 6174 6b63      	.insn	6, 0x6b636174735f
    6144:	745f 706f 7200      	.insn	6, 0x7200706f745f
    614a:	7476                	c.ldsp	x8,376(x2)
    614c:	7365                	c.lui	x6,0xffff9
    614e:	5f74                	c.lw	x13,124(x14)
    6150:	6e65                	c.lui	x28,0x19
    6152:	7274                	c.ld	x13,224(x12)
    6154:	5f79                	c.li	x30,-2
    6156:	6f70                	c.ld	x12,216(x14)
    6158:	6e69                	c.lui	x28,0x1a
    615a:	0074                	c.addi4spn	x13,x2,12
    615c:	6562                	c.ldsp	x10,24(x2)
    615e:	5f6e6967          	.insn	4, 0x5f6e6967
    6162:	6e676973          	csrrsi	x18,0x6e6,14
    6166:	7461                	c.lui	x8,0xffff8
    6168:	7275                	c.lui	x4,0xffffd
    616a:	0065                	c.addi	x0,25
    616c:	655f 746e 7972      	.insn	6, 0x7972746e655f
    6172:	6f5f 6666 6573      	.insn	6, 0x657366666f5f
    6178:	0074                	c.addi4spn	x13,x2,12
    617a:	7672                	c.ldsp	x12,312(x2)
    617c:	6574                	c.ld	x13,200(x10)
    617e:	695f7473          	csrrci	x8,0x695,30
    6182:	696e                	c.ldsp	x18,216(x2)
    6184:	0074                	c.addi4spn	x13,x2,12
    6186:	7672                	c.ldsp	x12,312(x2)
    6188:	6574                	c.ld	x13,200(x10)
    618a:	635f7473          	csrrci	x8,0x635,30
    618e:	5f65646f          	jal	x8,0x5c784
    6192:	6e65                	c.lui	x28,0x19
    6194:	0064                	c.addi4spn	x9,x2,12
    6196:	7672                	c.ldsp	x12,312(x2)
    6198:	6574                	c.ld	x13,200(x10)
    619a:	635f7473          	csrrci	x8,0x635,30
    619e:	5f65646f          	jal	x8,0x5c794
    61a2:	6562                	c.ldsp	x10,24(x2)
    61a4:	006e6967          	.insn	4, 0x006e6967
    61a8:	616d                	c.addi16sp	x2,240
    61aa:	6e69                	c.lui	x28,0x1a
    61ac:	7200                	c.ld	x8,32(x12)
    61ae:	7476                	c.ldsp	x8,376(x2)
    61b0:	7365                	c.lui	x6,0xffff9
    61b2:	5f74                	c.lw	x13,124(x14)
    61b4:	6164                	c.ld	x9,192(x10)
    61b6:	6174                	c.ld	x13,192(x10)
    61b8:	625f 6765 6e69      	.insn	6, 0x6e696765625f
    61be:	7200                	c.ld	x8,32(x12)
    61c0:	7476                	c.ldsp	x8,376(x2)
    61c2:	7365                	c.lui	x6,0xffff9
    61c4:	5f74                	c.lw	x13,124(x14)
    61c6:	6164                	c.ld	x9,192(x10)
    61c8:	6174                	c.ld	x13,192(x10)
    61ca:	655f 646e 6300      	.insn	6, 0x6300646e655f
    61d0:	656c                	c.ld	x11,200(x10)
    61d2:	6e61                	c.lui	x28,0x18
    61d4:	7075                	c.lui	x0,0xffffd
    61d6:	655f 6970 6f6c      	.insn	6, 0x6f6c6970655f
    61dc:	68007367          	.insn	4, 0x68007367
    61e0:	6c61                	c.lui	x24,0x18
    61e2:	0074                	c.addi4spn	x13,x2,12
    61e4:	2e00                	c.fld	f8,24(x12)
    61e6:	746d7973          	csrrci	x18,0x746,26
    61ea:	6261                	c.lui	x4,0x18
    61ec:	2e00                	c.fld	f8,24(x12)
    61ee:	74727473          	csrrci	x8,mseccfg,4
    61f2:	6261                	c.lui	x4,0x18
    61f4:	2e00                	c.fld	f8,24(x12)
    61f6:	74736873          	csrrsi	x16,mseccfg,6
    61fa:	7472                	c.ldsp	x8,312(x2)
    61fc:	6261                	c.lui	x4,0x18
    61fe:	2e00                	c.fld	f8,24(x12)
    6200:	6574                	c.ld	x13,200(x10)
    6202:	7478                	c.ld	x14,232(x8)
    6204:	2e00                	c.fld	f8,24(x12)
    6206:	646f7273          	csrrci	x4,hviprio1,30
    620a:	7461                	c.lui	x8,0xffff8
    620c:	2e61                	c.addiw	x28,24 # 0x18018
    620e:	616d                	c.addi16sp	x2,240
    6210:	6e69                	c.lui	x28,0x1a
    6212:	7261                	c.lui	x4,0xffff8
    6214:	2e007367          	.insn	4, 0x2e007367
    6218:	6164                	c.ld	x9,192(x10)
    621a:	6174                	c.ld	x13,192(x10)
    621c:	2e00                	c.fld	f8,24(x12)
    621e:	6d6d6f63          	bltu	x26,x22,0x68fc
    6222:	6e65                	c.lui	x28,0x19
    6224:	0074                	c.addi4spn	x13,x2,12
    6226:	722e                	c.ldsp	x4,232(x2)
    6228:	7369                	c.lui	x6,0xffffa
    622a:	612e7663          	bgeu	x28,x18,0x6836
    622e:	7474                	c.ld	x13,232(x8)
    6230:	6972                	c.ldsp	x18,280(x2)
    6232:	7562                	c.ldsp	x10,56(x2)
    6234:	6574                	c.ld	x13,200(x10)
    6236:	00000073          	ecall
	...
    6276:	0000                	c.unimp
    6278:	0000001b          	addiw	x0,x0,0
    627c:	0001                	c.addi	x0,0
    627e:	0000                	c.unimp
    6280:	0006                	c.slli	x0,0x1
	...
    628a:	8000                	.insn	2, 0x8000
    628c:	0000                	c.unimp
    628e:	0000                	c.unimp
    6290:	1000                	c.addi4spn	x8,x2,32
    6292:	0000                	c.unimp
    6294:	0000                	c.unimp
    6296:	0000                	c.unimp
    6298:	1b38                	c.addi4spn	x14,x2,440
	...
    62a6:	0000                	c.unimp
    62a8:	0020                	c.addi4spn	x8,x2,8
	...
    62b6:	0000                	c.unimp
    62b8:	0021                	c.addi	x0,8
    62ba:	0000                	c.unimp
    62bc:	0001                	c.addi	x0,0
    62be:	0000                	c.unimp
    62c0:	0002                	c.slli64	x0
    62c2:	0000                	c.unimp
    62c4:	0000                	c.unimp
    62c6:	0000                	c.unimp
    62c8:	1b38                	c.addi4spn	x14,x2,440
    62ca:	8000                	.insn	2, 0x8000
    62cc:	0000                	c.unimp
    62ce:	0000                	c.unimp
    62d0:	2b38                	c.fld	f14,80(x14)
    62d2:	0000                	c.unimp
    62d4:	0000                	c.unimp
    62d6:	0000                	c.unimp
    62d8:	0001                	c.addi	x0,0
	...
    62e6:	0000                	c.unimp
    62e8:	0008                	.insn	2, 0x0008
	...
    62f6:	0000                	c.unimp
    62f8:	00000033          	add	x0,x0,x0
    62fc:	0001                	c.addi	x0,0
    62fe:	0000                	c.unimp
    6300:	00000003          	lb	x0,0(x0) # 0x0
    6304:	0000                	c.unimp
    6306:	0000                	c.unimp
    6308:	2000                	c.fld	f8,0(x8)
    630a:	8000                	.insn	2, 0x8000
    630c:	0000                	c.unimp
    630e:	0000                	c.unimp
    6310:	3000                	c.fld	f8,32(x8)
    6312:	0000                	c.unimp
    6314:	0000                	c.unimp
    6316:	0000                	c.unimp
    6318:	14e0                	c.addi4spn	x8,x2,620
	...
    6326:	0000                	c.unimp
    6328:	1000                	c.addi4spn	x8,x2,32
	...
    6336:	0000                	c.unimp
    6338:	0039                	c.addi	x0,14
    633a:	0000                	c.unimp
    633c:	0001                	c.addi	x0,0
    633e:	0000                	c.unimp
    6340:	0030                	c.addi4spn	x12,x2,8
	...
    634e:	0000                	c.unimp
    6350:	44e0                	c.lw	x8,76(x9)
    6352:	0000                	c.unimp
    6354:	0000                	c.unimp
    6356:	0000                	c.unimp
    6358:	0026                	c.slli	x0,0x9
	...
    6366:	0000                	c.unimp
    6368:	0001                	c.addi	x0,0
    636a:	0000                	c.unimp
    636c:	0000                	c.unimp
    636e:	0000                	c.unimp
    6370:	0001                	c.addi	x0,0
    6372:	0000                	c.unimp
    6374:	0000                	c.unimp
    6376:	0000                	c.unimp
    6378:	0042                	c.slli	x0,0x10
    637a:	0000                	c.unimp
    637c:	70000003          	lb	x0,1792(x0) # 0x700
	...
    6390:	4506                	c.lwsp	x10,64(x2)
    6392:	0000                	c.unimp
    6394:	0000                	c.unimp
    6396:	0000                	c.unimp
    6398:	002e                	c.slli	x0,0xb
	...
    63a6:	0000                	c.unimp
    63a8:	0001                	c.addi	x0,0
	...
    63b6:	0000                	c.unimp
    63b8:	0001                	c.addi	x0,0
    63ba:	0000                	c.unimp
    63bc:	0002                	c.slli64	x0
	...
    63ce:	0000                	c.unimp
    63d0:	4538                	c.lw	x14,72(x10)
    63d2:	0000                	c.unimp
    63d4:	0000                	c.unimp
    63d6:	0000                	c.unimp
    63d8:	1560                	c.addi4spn	x8,x2,684
    63da:	0000                	c.unimp
    63dc:	0000                	c.unimp
    63de:	0000                	c.unimp
    63e0:	00000007          	.insn	4, 0x0007
    63e4:	00ca                	c.slli	x1,0x12
    63e6:	0000                	c.unimp
    63e8:	0008                	.insn	2, 0x0008
    63ea:	0000                	c.unimp
    63ec:	0000                	c.unimp
    63ee:	0000                	c.unimp
    63f0:	0018                	.insn	2, 0x0018
    63f2:	0000                	c.unimp
    63f4:	0000                	c.unimp
    63f6:	0000                	c.unimp
    63f8:	0009                	c.addi	x0,2
    63fa:	0000                	c.unimp
    63fc:	00000003          	lb	x0,0(x0) # 0x0
	...
    6410:	5a98                	c.lw	x14,48(x13)
    6412:	0000                	c.unimp
    6414:	0000                	c.unimp
    6416:	0000                	c.unimp
    6418:	074c                	c.addi4spn	x11,x2,900
	...
    6426:	0000                	c.unimp
    6428:	0001                	c.addi	x0,0
	...
    6436:	0000                	c.unimp
    6438:	0011                	c.addi	x0,4
    643a:	0000                	c.unimp
    643c:	00000003          	lb	x0,0(x0) # 0x0
	...
    6450:	61e4                	c.ld	x9,192(x11)
    6452:	0000                	c.unimp
    6454:	0000                	c.unimp
    6456:	0000                	c.unimp
    6458:	0054                	c.addi4spn	x13,x2,4
	...
    6466:	0000                	c.unimp
    6468:	0001                	c.addi	x0,0
	...
