
bin/riscv-arch-test/sw-align-riscv64-nemu.bin:     file format binary

Contents of section .data:
 80000000 13040000 17c10000 1301c1ff ef10405f  ..............@_
 80000010 ef000003 13051000 ef10c05d 13050000  ...........]....
 80000020 67800000 00000000 00000000 00000000  g...............
 80000030 00000000 00000000 00000000 00000000  ................
 80000040 b7c0edfe 9380d0ea 9390b000 9380707f  ..............p.
 80000050 9390b000 9380f036 9390a000 9380d02a  .......6.......*
 80000060 37e176ff 130161f5 1311b100 1301b17f  7.v...a.........
 80000070 1311b100 1301715b 1311a100 13016135  ......q[......a5
 80000080 b771bb7f 9381b1fa 9391b100 9381d13f  .q.............?
 80000090 9391b100 9381b16d 9391a100 9381b13a  .......m.......:
 800000a0 37b2ddbf 1302527d 1312b200 1302e25f  7.....R}......._
 800000b0 1312b200 1302d276 1312a200 1302523d  .......v......R=
 800000c0 b7e2eedf 9382a2be 9392b200 9382f26f  ...............o
 800000d0 9392b200 9382623b 9392a200 9382a23e  ......b;.......>
 800000e0 3773f76f 130353df 1313b300 1303f337  7s.o..S........7
 800000f0 1313b300 1303b35d 1313a300 1303531f  .......]......S.
 80000100 b7b3fbb7 9383a36f 9393b300 9383f35b  .......o.......[
 80000110 9393b300 9383d36e 9393a300 9383a32f  .......n......./
 80000120 37e4fd5b 1304d4b7 1314b400 1304f42d  7..[...........-
 80000130 1314b400 13046477 1314a400 1304d437  ......dw.......7
 80000140 b7f4fead 9384e4db 9394b400 9384f456  ...............V
 80000150 9394b400 9384b47b 9394a400 9384e41b  .......{........
 80000160 3775ff56 1305f56d 1315b500 1305752b  7u.V...m......u+
 80000170 1315b500 1305d57d 1315a500 1305f52d  .......}.......-
 80000180 b7c57fab 9385f5b6 9395b500 9385b555  ...............U
 80000190 9395b500 9385e57e 9395a500 9385f536  .......~.......6
 800001a0 37e6bfd5 130676db 1316b600 1306d66a  7.....v........j
 800001b0 1316b600 1306767f 1316a600 1306761b  ......v.......v.
 800001c0 b7f6dfea 9386b6ed 9396b600 93866675  ..............fu
 800001d0 9396b600 9386b67f 9396a600 9386b62d  ...............-
 800001e0 37f76ff5 1307d776 1317b700 1307b77a  7.o....v.......z
 800001f0 1317b700 1307d73f 1317a700 1307d736  .......?.......6
 80000200 b707b8fa 938767bb 9397b700 9387577d  ......g.......W}
 80000210 9397b700 9387e75f 9397a700 9387673b  ......._......g;
 80000220 37085c7d 1308b8dd 1318b800 1308a83e  7.\}...........>
 80000230 1318b800 1308f86f 1318a800 1308b81d  .......o........
 80000240 b708aebe 9388d8ee 9398b800 9388585f  ..............X_
 80000250 9398b800 9388f837 9398a800 9388d82e  .......7........
 80000260 370957df 130969f7 1319b900 1309a96f  7.W...i........o
 80000270 1319b900 1309f95b 1319a900 13096937  .......[......i7
 80000280 b789ab6f 9389b9fb 9399b900 9389d937  ...o...........7
 80000290 9399b900 9389f92d 9399a900 9389b93b  .......-.......;
 800002a0 37cad5b7 130adafd 131aba00 130aea5b  7..............[
 800002b0 131aba00 130afa56 131aaa00 130ada3d  .......V.......=
 800002c0 b7eaeadb 938aeafe 939aba00 938afa6d  ...............m
 800002d0 939aba00 938a7a2b 939aaa00 938aea3e  ......z+.......>
 800002e0 377bf56d 130b7bff 131bbb00 130bfb36  7{.m..{........6
 800002f0 131bbb00 130bbb55 131bab00 130b7b3f  .......U......{?
 80000300 b7bbfab6 938bbb7f 939bbb00 938b7b5b  ..............{[
 80000310 939bbb00 938bdb6a 939bab00 938bbb3f  .......j.......?
 80000320 376c7ddb 130cdcbf 131cbc00 130cbc6d  7l}............m
 80000330 131cbc00 130c6c75 131cac00 130cdc3f  ......lu.......?
 80000340 b7bcbeed 938cecdf 939cbc00 938cdc76  ...............v
 80000350 939cbc00 938cbc7a 939cac00 938cec1f  .......z........
 80000360 375ddf76 130dfd6f 131dbd00 130d6d3b  7].v...o......m;
 80000370 131dbd00 130d5d7d 131dad00 130dfd2f  ......]}......./
 80000380 b7bd6fbb 938dfdb7 939dbd00 938dbd5d  ..o............]
 80000390 939dbd00 938dad3e 939dad00 938dfd37  .......>.......7
 800003a0 37deb7dd 130efe5b 131ebe00 130ede6e  7......[.......n
 800003b0 131ebe00 130e5e5f 131eae00 130efe1b  ......^_........
 800003c0 b7fedbee 938efead 939ebe00 938e6e77  ..............nw
 800003d0 939ebe00 938eae6f 939eae00 938efe2d  .......o.......-
 800003e0 37ff6df7 130fff56 131fbf00 130fbf7b  7.m....V.......{
 800003f0 131fbf00 130fdf37 131faf00 130fff16  .......7........
 80000400 b70fb7fb 938f7fab 939fbf00 938fdf7d  ...............}
 80000410 939fbf00 938fef5b 939faf00 938f7f2b  .......[.......+
 80000420 97320000 938282be 13000000 13000000  .2..............
 80000430 13000000 13000000 13000000 13000000  ................
 80000440 130df0ff 131dfd03 93850200 130680ff  ................
 80000450 b385c540 23aca5ff 13000000 13000000  ...@#...........
 80000460 93080000 93838200 13060020 b383c340  ........... ...@
 80000470 23a01321 13000000 13000000 1303f0ff  #..!............
 80000480 13531300 13810201 130680ff 3301c140  .S..........3..@
 80000490 232c61fe 13000000 13000000 93041000  #,a.............
 800004a0 93878201 13065055 b387c740 a3aa9754  ......PU...@...T
 800004b0 13000000 13000000 1307f0fd 93880202  ................
 800004c0 1306a0ff b388c840 23ade8fe 13000000  .......@#.......
 800004d0 13000000 930d1000 939d9d03 938e8202  ................
 800004e0 130670ff b38ece40 a3abbeff 13000000  ..p....@........
 800004f0 13000000 930c2000 938f0203 13060000  ...... .........
 80000500 b38fcf40 23a09f01 13000000 13000000  ...@#...........
 80000510 93094000 138d8203 1306f07f 330dcd40  ..@.........3..@
 80000520 a32f3d7f 13000000 13000000 930e8000  ./=.............
 80000530 138c0204 1306f0fe 330ccc40 a327dcff  ........3..@.'..
 80000540 13000000 13000000 93000001 938a8204  ................
 80000550 1306f0df b38aca40 a3af1ade 13000000  .......@........
 80000560 13000000 13020002 938b0205 13060000  ................
 80000570 b38bcb40 23a04b00 13000000 13000000  ...@#.K.........
 80000580 13010004 138e8205 13060080 330ece40  ............3..@
 80000590 23202e80 13000000 13000000 13080008  # ..............
 800005a0 93810206 13066000 b381c140 23a30101  ......`....@#...
 800005b0 13000000 13000000 930a0010 13878206  ................
 800005c0 1306f0ef 3307c740 a32f57ef 13000000  ....3..@./W.....
 800005d0 13000000 13050020 13880207 13060080  ....... ........
 800005e0 3308c840 2320a880 13000000 13000000  3..@# ..........
 800005f0 930f0040 93868207 13060000 b386c640  ...@...........@
 80000600 23a0f601 13000000 13000000 13041000  #...............
 80000610 1314b400 13850208 1306f0ff 3305c540  ............3..@
 80000620 a32f85fe 13000000 13000000 130e1000  ./..............
 80000630 131ece00 138f8208 13065055 330fcf40  ..........PU3..@
 80000640 a32acf55 13000000 13000000 130a1000  .*.U............
 80000650 131ada00 93840209 13060008 b384c440  ...............@
 80000660 23a04409 13000000 13000000 930b1000  #.D.............
 80000670 939beb00 13898209 93040080 33099940  ............3..@
 80000680 23207981 13000000 13000000 13000000  # y.............
 80000690 13000000 13000000 13000000 13000000  ................
 800006a0 17310000 130181a0 13000000 13000000  .1..............
 800006b0 13000000 13000000 13000000 13000000  ................
 800006c0 93011000 9391f100 13020100 93045000  ..............P.
 800006d0 33029240 a3223200 13000000 13000000  3..@."2.........
 800006e0 13061000 13160601 13048100 9304d0ff  ................
 800006f0 33049440 a32ec4fe 13000000 13000000  3..@............
 80000700 93021000 93921201 930c0101 93046000  ..............`.
 80000710 b38c9c40 23a35c00 13000000 13000000  ...@#.\.........
 80000720 93031000 93932301 930d8101 9304a0ff  ......#.........
 80000730 b38d9d40 23ad7dfe 13000000 13000000  ...@#.}.........
 80000740 13000000 130b0102 93044000 330b9b40  ..........@.3..@
 80000750 23220b00 13000000 13000000 93071000  #"..............
 80000760 93974701 93008102 9304c0ff b3809040  ..G............@
 80000770 23aef0fe 13000000 13000000 130b1000  #...............
 80000780 131b5b01 93020103 93044000 b3829240  ..[.......@....@
 80000790 23a26201 13000000 13000000 130c1000  #.b.............
 800007a0 131c6c01 13038103 93044000 33039340  ..l.......@.3..@
 800007b0 23228301 13000000 13000000 93051000  #"..............
 800007c0 93957501 13060104 9304f0bf 33069640  ..u.........3..@
 800007d0 a32fb6be 13000000 13000000 130f1000  ./..............
 800007e0 131f8f01 130a8104 93049000 330a9a40  ............3..@
 800007f0 a324ea01 13000000 13000000 13091000  .$..............
 80000800 13199901 93090105 93040002 b3899940  ...............@
 80000810 23a02903 13000000 13000000 93061000  #.).............
 80000820 9396a601 93038105 93046000 b3839340  ..........`....@
 80000830 23a3d300 13000000 13000000 93051000  #...............
 80000840 9395b501 13050106 9304f07f 33059540  ............3..@
 80000850 a32fb57e 13000000 13000000 93051000  ./.~............
 80000860 9395c501 13058106 93040001 33059540  ............3..@
 80000870 2328b500 13000000 13000000 93051000  #(..............
 80000880 9395d501 13050107 93042000 33059540  .......... .3..@
 80000890 2321b500 13000000 13000000 93051000  #!..............
 800008a0 9395e501 13058107 93040080 33059540  ............3..@
 800008b0 2320b580 13000000 13000000 93051000  # ..............
 800008c0 9395f501 13050108 93040002 33059540  ............3..@
 800008d0 2320b502 13000000 13000000 93051000  # ..............
 800008e0 93950502 13058108 930400c0 33059540  ............3..@
 800008f0 2320b5c0 13000000 13000000 93051000  # ..............
 80000900 93951502 13050109 9304f0fd 33059540  ............3..@
 80000910 a32fb5fc 13000000 13000000 93051000  ./..............
 80000920 93952502 13058109 93043000 33059540  ..%.......0.3..@
 80000930 a321b500 13000000 13000000 93051000  .!..............
 80000940 93953502 1305010a 9304e0ff 33059540  ..5.........3..@
 80000950 232fb5fe 13000000 13000000 93051000  #/..............
 80000960 93954502 1305810a 9304f0fb 33059540  ..E.........3..@
 80000970 a32fb5fa 13000000 13000000 93051000  ./..............
 80000980 93955502 1305010b 930460ff 33059540  ..U.......`.3..@
 80000990 232bb5fe 13000000 13000000 93051000  #+..............
 800009a0 93956502 1305810b 93048000 33059540  ..e.........3..@
 800009b0 2324b500 13000000 13000000 93051000  #$..............
 800009c0 93957502 1305010c 9304f0ef 33059540  ..u.........3..@
 800009d0 a32fb5ee 13000000 13000000 93051000  ./..............
 800009e0 93958502 1305810c 930480ff 33059540  ............3..@
 800009f0 232cb5fe 13000000 13000000 93051000  #,..............
 80000a00 93959502 1305010d 9304f0fe 33059540  ............3..@
 80000a10 a327b5fe 13000000 13000000 93051000  .'..............
 80000a20 9395a502 1305810d 93046000 33059540  ..........`.3..@
 80000a30 2323b500 13000000 13000000 93051000  ##..............
 80000a40 9395b502 1305010e 9304c0ff 33059540  ............3..@
 80000a50 232eb5fe 13000000 13000000 93051000  #...............
 80000a60 9395c502 1305810e 9304f0fb 33059540  ............3..@
 80000a70 a32fb5fa 13000000 13000000 93051000  ./..............
 80000a80 9395d502 1305010f 9304f0bf 33059540  ............3..@
 80000a90 a32fb5be 13000000 13000000 93051000  ./..............
 80000aa0 9395e502 1305810f 9304f0bf 33059540  ............3..@
 80000ab0 a32fb5be 13000000 13000000 93051000  ./..............
 80000ac0 9395f502 13050110 930400c0 33059540  ............3..@
 80000ad0 2320b5c0 13000000 13000000 93051000  # ..............
 80000ae0 93950503 13058110 93040010 33059540  ............3..@
 80000af0 2320b510 13000000 13000000 93051000  # ..............
 80000b00 93951503 13050111 9304f0ef 33059540  ............3..@
 80000b10 a32fb5ee 13000000 13000000 93051000  ./..............
 80000b20 93952503 13058111 930480ff 33059540  ..%.........3..@
 80000b30 232cb5fe 13000000 13000000 93051000  #,..............
 80000b40 93953503 13050112 93042000 33059540  ..5....... .3..@
 80000b50 2321b500 13000000 13000000 93051000  #!..............
 80000b60 93954503 13058112 93048000 33059540  ..E.........3..@
 80000b70 2324b500 13000000 13000000 93051000  #$..............
 80000b80 93955503 13050113 93040001 33059540  ..U.........3..@
 80000b90 2328b500 13000000 13000000 93051000  #(..............
 80000ba0 93956503 13058113 93044000 33059540  ..e.......@.3..@
 80000bb0 2322b500 13000000 13000000 93051000  #"..............
 80000bc0 93957503 13050114 93045000 33059540  ..u.......P.3..@
 80000bd0 a322b500 13000000 13000000 93051000  ."..............
 80000be0 93958503 13058114 93040000 33059540  ............3..@
 80000bf0 2320b500 13000000 13000000 93051000  # ..............
 80000c00 9395a503 13050115 9304c0ff 33059540  ............3..@
 80000c10 232eb5fe 13000000 13000000 93051000  #...............
 80000c20 9395b503 13058115 9304f0bf 33059540  ............3..@
 80000c30 a32fb5be 13000000 13000000 93051000  ./..............
 80000c40 9395c503 13050116 9304d0ff 33059540  ............3..@
 80000c50 a32eb5fe 13000000 13000000 93051000  ................
 80000c60 9395d503 13058116 9304f0df 33059540  ............3..@
 80000c70 a32fb5de 13000000 13000000 93051000  ./..............
 80000c80 9395e503 13050117 93040002 33059540  ............3..@
 80000c90 2320b502 13000000 13000000 9305e0ff  # ..............
 80000ca0 13058117 930470ff 33059540 a32bb5fe  ......p.3..@.+..
 80000cb0 13000000 13000000 93051000 93956503  ..............e.
 80000cc0 93c5f5ff 13050118 930490ff 33059540  ............3..@
 80000cd0 a32cb5fe 13000000 13000000 93051000  .,..............
 80000ce0 93957503 93c5f5ff 13058118 9304f07f  ..u.............
 80000cf0 33059540 a32fb57e 13000000 13000000  3..@./.~........
 80000d00 93051000 93958503 93c5f5ff 13050119  ................
 80000d10 93045000 33059540 a322b500 13000000  ..P.3..@."......
 80000d20 13000000 93051000 93959503 93c5f5ff  ................
 80000d30 13058119 93040008 33059540 2320b508  ........3..@# ..
 80000d40 13000000 13000000 93051000 9395a503  ................
 80000d50 93c5f5ff 1305011a 93045055 33059540  ..........PU3..@
 80000d60 a32ab554 13000000 13000000 93051000  .*.T............
 80000d70 9395b503 93c5f5ff 1305811a 93040040  ...............@
 80000d80 33059540 2320b540 13000000 13000000  3..@# .@........
 80000d90 93051000 9395c503 93c5f5ff 1305011b  ................
 80000da0 9304f0fe 33059540 a327b5fe 13000000  ....3..@.'......
 80000db0 13000000 93051000 9395d503 93c5f5ff  ................
 80000dc0 1305811b 9304f0f7 33059540 a32fb5f6  ........3..@./..
 80000dd0 13000000 13000000 93051000 9395e503  ................
 80000de0 93c5f5ff 1305011c 9304c0ff 33059540  ............3..@
 80000df0 232eb5fe 13000000 13000000 b7555555  #............UUU
 80000e00 93855555 9395b500 9385a52a 9395b500  ..UU.......*....
 80000e10 93855555 9395a500 93855515 1305811c  ..UU......U.....
 80000e20 9304f0f7 33059540 a32fb5f6 13000000  ....3..@./......
 80000e30 13000000 b7b5aaaa 9385a5aa 9395b500  ................
 80000e40 93855555 9395b500 9385a52a 9395a500  ..UU.......*....
 80000e50 9385a52a 1305011d 93045055 33059540  ...*......PU3..@
 80000e60 a32ab554 13000000 13000000 9305d0ff  .*.T............
 80000e70 1305811d 93045055 33059540 a32ab554  ......PU3..@.*.T
 80000e80 13000000 13000000 9305b0ff 1305011e  ................
 80000e90 93045000 33059540 a322b500 13000000  ..P.3..@."......
 80000ea0 13000000 930570ff 1305811e 9304f0df  ......p.........
 80000eb0 33059540 a32fb5de 13000000 13000000  3..@./..........
 80000ec0 9305f0fe 1305011f 9304a0aa 33059540  ............3..@
 80000ed0 2325b5aa 13000000 13000000 9305f0fb  #%..............
 80000ee0 1305811f 93045000 33059540 a322b500  ......P.3..@."..
 80000ef0 13000000 13000000 9305f0f7 13050120  ............... 
 80000f00 9304e0ff 33059540 232fb5fe 13000000  ....3..@#/......
 80000f10 13000000 9305f0ef 13058120 9304a0aa  ........... ....
 80000f20 33059540 2325b5aa 13000000 13000000  3..@#%..........
 80000f30 9305f0df 13050121 93044000 33059540  .......!..@.3..@
 80000f40 2322b500 13000000 13000000 9305f0bf  #"..............
 80000f50 13058121 930460ff 33059540 232bb5fe  ...!..`.3..@#+..
 80000f60 13000000 13000000 93051000 9395b500  ................
 80000f70 93c5f5ff 13050122 93042000 33059540  .......".. .3..@
 80000f80 2321b500 13000000 13000000 93051000  #!..............
 80000f90 9395c500 93c5f5ff 13058122 9304a0aa  ..........."....
 80000fa0 33059540 2325b5aa 13000000 13000000  3..@#%..........
 80000fb0 93051000 9395d500 93c5f5ff 13050123  ...............#
 80000fc0 93040004 33059540 2320b504 13000000  ....3..@# ......
 80000fd0 13000000 93051000 9395e500 93c5f5ff  ................
 80000fe0 13058123 930490ff 33059540 a32cb5fe  ...#....3..@.,..
 80000ff0 13000000 13000000 93051000 9395f500  ................
 80001000 93c5f5ff 13050124 9304f0fb 33059540  .......$....3..@
 80001010 a32fb5fa 13000000 13000000 93051000  ./..............
 80001020 93950501 93c5f5ff 13058124 930400c0  ...........$....
 80001030 33059540 2320b5c0 13000000 13000000  3..@# ..........
 80001040 93051000 93951501 93c5f5ff 13050125  ...............%
 80001050 93045000 33059540 a322b500 13000000  ..P.3..@."......
 80001060 13000000 93051000 93952501 93c5f5ff  ..........%.....
 80001070 13058125 93041000 33059540 a320b500  ...%....3..@. ..
 80001080 13000000 13000000 93051000 93953501  ..............5.
 80001090 93c5f5ff 13050126 9304a0aa 33059540  .......&....3..@
 800010a0 2325b5aa 13000000 13000000 93051000  #%..............
 800010b0 93954501 93c5f5ff 13058126 93040020  ..E........&... 
 800010c0 33059540 2320b520 13000000 13000000  3..@# . ........
 800010d0 93051000 93955501 93c5f5ff 13050127  ......U........'
 800010e0 9304d0ff 33059540 a32eb5fe 13000000  ....3..@........
 800010f0 13000000 93051000 93956501 93c5f5ff  ..........e.....
 80001100 13058127 93044000 33059540 2322b500  ...'..@.3..@#"..
 80001110 13000000 13000000 93051000 93957501  ..............u.
 80001120 93c5f5ff 13050128 9304c0ff 33059540  .......(....3..@
 80001130 232eb5fe 13000000 13000000 93051000  #...............
 80001140 93958501 93c5f5ff 13058128 93047000  ...........(..p.
 80001150 33059540 a323b500 13000000 13000000  3..@.#..........
 80001160 93051000 93959501 93c5f5ff 13050129  ...............)
 80001170 9304d0ff 33059540 a32eb5fe 13000000  ....3..@........
 80001180 13000000 93051000 9395a501 93c5f5ff  ................
 80001190 13058129 9304b0ff 33059540 a32db5fe  ...)....3..@.-..
 800011a0 13000000 13000000 93051000 9395b501  ................
 800011b0 93c5f5ff 1305012a 9304f0df 33059540  .......*....3..@
 800011c0 a32fb5de 13000000 13000000 93051000  ./..............
 800011d0 9395c501 93c5f5ff 1305812a 9304f0fb  ...........*....
 800011e0 33059540 a32fb5fa 13000000 13000000  3..@./..........
 800011f0 93051000 9395d501 93c5f5ff 1305012b  ...............+
 80001200 9304a0aa 33059540 2325b5aa 13000000  ....3..@#%......
 80001210 13000000 93051000 9395e501 93c5f5ff  ................
 80001220 1305812b 93040020 33059540 2320b520  ...+... 3..@# . 
 80001230 13000000 13000000 93051000 9395f501  ................
 80001240 93c5f5ff 1305012c 9304f03f 33059540  .......,...?3..@
 80001250 a32fb53e 13000000 13000000 93051000  ./.>............
 80001260 93950502 93c5f5ff 1305812c 9304f0df  ...........,....
 80001270 33059540 a32fb5de 13000000 13000000  3..@./..........
 80001280 93051000 93951502 93c5f5ff 1305012d  ...............-
 80001290 9304f07f 33059540 a32fb57e 13000000  ....3..@./.~....
 800012a0 13000000 93051000 93952502 93c5f5ff  ..........%.....
 800012b0 1305812d 93048000 33059540 2324b500  ...-....3..@#$..
 800012c0 13000000 13000000 93051000 93953502  ..............5.
 800012d0 93c5f5ff 1305012e 930490ff 33059540  ............3..@
 800012e0 a32cb5fe 13000000 13000000 93051000  .,..............
 800012f0 93954502 93c5f5ff 1305812e 93040001  ..E.............
 80001300 33059540 2328b500 13000000 13000000  3..@#(..........
 80001310 93051000 93955502 93c5f5ff 1305012f  ......U......../
 80001320 93040010 33059540 2320b510 13000000  ....3..@# ......
 80001330 13000000 93051000 93956502 93c5f5ff  ..........e.....
 80001340 1305812f 9304b0ff 33059540 a32db5fe  .../....3..@.-..
 80001350 13000000 13000000 93051000 93957502  ..............u.
 80001360 93c5f5ff 13050130 93040040 33059540  .......0...@3..@
 80001370 2320b540 13000000 13000000 93051000  # .@............
 80001380 93958502 93c5f5ff 13058130 9304c0ff  ...........0....
 80001390 33059540 232eb5fe 13000000 13000000  3..@#...........
 800013a0 93051000 93959502 93c5f5ff 13050131  ...............1
 800013b0 93042000 33059540 2321b500 13000000  .. .3..@#!......
 800013c0 13000000 93051000 9395a502 93c5f5ff  ................
 800013d0 13058131 93040008 33059540 2320b508  ...1....3..@# ..
 800013e0 13000000 13000000 93051000 9395b502  ................
 800013f0 93c5f5ff 13050132 930400c0 33059540  .......2....3..@
 80001400 2320b5c0 13000000 13000000 93051000  # ..............
 80001410 9395c502 93c5f5ff 13058132 93041000  ...........2....
 80001420 33059540 a320b500 13000000 13000000  3..@. ..........
 80001430 93051000 9395d502 93c5f5ff 13050133  ...............3
 80001440 9304f0ff 33059540 a32fb5fe 13000000  ....3..@./......
 80001450 13000000 93051000 9395e502 93c5f5ff  ................
 80001460 13058133 9304d0ff 33059540 a32eb5fe  ...3....3..@....
 80001470 13000000 13000000 93051000 9395f502  ................
 80001480 93c5f5ff 13050134 93049000 33059540  .......4....3..@
 80001490 a324b500 13000000 13000000 93051000  .$..............
 800014a0 93950503 93c5f5ff 13058134 9304d0ff  ...........4....
 800014b0 33059540 a32eb5fe 13000000 13000000  3..@............
 800014c0 93051000 93951503 93c5f5ff 13050135  ...............5
 800014d0 93040001 33059540 2328b500 13000000  ....3..@#(......
 800014e0 13000000 93051000 93952503 93c5f5ff  ..........%.....
 800014f0 13058135 93043000 33059540 a321b500  ...5..0.3..@.!..
 80001500 13000000 13000000 93051000 93953503  ..............5.
 80001510 93c5f5ff 13050136 93047000 33059540  .......6..p.3..@
 80001520 a323b500 13000000 13000000 93051000  .#..............
 80001530 93954503 93c5f5ff 13058136 9304f0f7  ..E........6....
 80001540 33059540 a32fb5f6 13000000 13000000  3..@./..........
 80001550 93051000 93955503 93c5f5ff 13050137  ......U........7
 80001560 93042000 33059540 2321b500 13000000  .. .3..@#!......
 80001570 13000000 93051000 93953501 13058137  ..........5....7
 80001580 93044000 33059540 2322b500 13000000  ..@.3..@#"......
 80001590 13000000 6f008003 8334811f 03330120  ....o....4...3. 
 800015a0 33039300 37030000 13030300 1313b300  3...7...........
 800015b0 1303635d 1313b300 13036343 1313a300  ..c]......cC....
 800015c0 1303032d 23be64fe 6f004000 13050000  ...-#.d.o.@.....
 800015d0 6f004002 00000000 00000000 00000000  o.@.............
 800015e0 00000000 00000000 00000000 00000000  ................
 800015f0 00000000 13050500 73001000 6f000000  ........s...o...
 80001600 130101ff 17050000 1305c501 23341100  ............#4..
 80001610 efe01fa0 13050500 73001000 6f000000  ........s...o...
 80001620 00000000 00000000 00000000 00000000  ................
 80001630 00000000 00000000 00000000 00000000  ................
 80001640 00000000 00000000 00000000 00000000  ................
 80001650 00000000 00000000 00000000 00000000  ................
 80001660 00000000 00000000 00000000 00000000  ................
 80001670 00000000 00000000 00000000 00000000  ................
 80001680 00000000 00000000 00000000 00000000  ................
 80001690 00000000 00000000 00000000 00000000  ................
 800016a0 00000000 00000000 00000000 00000000  ................
 800016b0 00000000 00000000 00000000 00000000  ................
 800016c0 00000000 00000000 00000000 00000000  ................
 800016d0 00000000 00000000 00000000 00000000  ................
 800016e0 00000000 00000000 00000000 00000000  ................
 800016f0 00000000 00000000 00000000 00000000  ................
 80001700 00000000 00000000 00000000 00000000  ................
 80001710 00000000 00000000 00000000 00000000  ................
 80001720 00000000 00000000 00000000 00000000  ................
 80001730 00000000 00000000 00000000 00000000  ................
 80001740 00000000 00000000 00000000 00000000  ................
 80001750 00000000 00000000 00000000 00000000  ................
 80001760 00000000 00000000 00000000 00000000  ................
 80001770 00000000 00000000 00000000 00000000  ................
 80001780 00000000 00000000 00000000 00000000  ................
 80001790 00000000 00000000 00000000 00000000  ................
 800017a0 00000000 00000000 00000000 00000000  ................
 800017b0 00000000 00000000 00000000 00000000  ................
 800017c0 00000000 00000000 00000000 00000000  ................
 800017d0 00000000 00000000 00000000 00000000  ................
 800017e0 00000000 00000000 00000000 00000000  ................
 800017f0 00000000 00000000 00000000 00000000  ................
 80001800 00000000 00000000 00000000 00000000  ................
 80001810 00000000 00000000 00000000 00000000  ................
 80001820 00000000 00000000 00000000 00000000  ................
 80001830 00000000 00000000 00000000 00000000  ................
 80001840 00000000 00000000 00000000 00000000  ................
 80001850 00000000 00000000 00000000 00000000  ................
 80001860 00000000 00000000 00000000 00000000  ................
 80001870 00000000 00000000 00000000 00000000  ................
 80001880 00000000 00000000 00000000 00000000  ................
 80001890 00000000 00000000 00000000 00000000  ................
 800018a0 00000000 00000000 00000000 00000000  ................
 800018b0 00000000 00000000 00000000 00000000  ................
 800018c0 00000000 00000000 00000000 00000000  ................
 800018d0 00000000 00000000 00000000 00000000  ................
 800018e0 00000000 00000000 00000000 00000000  ................
 800018f0 00000000 00000000 00000000 00000000  ................
 80001900 00000000 00000000 00000000 00000000  ................
 80001910 00000000 00000000 00000000 00000000  ................
 80001920 00000000 00000000 00000000 00000000  ................
 80001930 00000000 00000000 00000000 00000000  ................
 80001940 00000000 00000000 00000000 00000000  ................
 80001950 00000000 00000000 00000000 00000000  ................
 80001960 00000000 00000000 00000000 00000000  ................
 80001970 00000000 00000000 00000000 00000000  ................
 80001980 00000000 00000000 00000000 00000000  ................
 80001990 00000000 00000000 00000000 00000000  ................
 800019a0 00000000 00000000 00000000 00000000  ................
 800019b0 00000000 00000000 00000000 00000000  ................
 800019c0 00000000 00000000 00000000 00000000  ................
 800019d0 00000000 00000000 00000000 00000000  ................
 800019e0 00000000 00000000 00000000 00000000  ................
 800019f0 00000000 00000000 00000000 00000000  ................
 80001a00 00000000 00000000 00000000 00000000  ................
 80001a10 00000000 00000000 00000000 00000000  ................
 80001a20 00000000 00000000 00000000 00000000  ................
 80001a30 00000000 00000000 00000000 00000000  ................
 80001a40 00000000 00000000 00000000 00000000  ................
 80001a50 00000000 00000000 00000000 00000000  ................
 80001a60 00000000 00000000 00000000 00000000  ................
 80001a70 00000000 00000000 00000000 00000000  ................
 80001a80 00000000 00000000 00000000 00000000  ................
 80001a90 00000000 00000000 00000000 00000000  ................
 80001aa0 00000000 00000000 00000000 00000000  ................
 80001ab0 00000000 00000000 00000000 00000000  ................
 80001ac0 00000000 00000000 00000000 00000000  ................
 80001ad0 00000000 00000000 00000000 00000000  ................
 80001ae0 00000000 00000000 00000000 00000000  ................
 80001af0 00000000 00000000 00000000 00000000  ................
 80001b00 00000000 00000000 00000000 00000000  ................
 80001b10 00000000 00000000 00000000 00000000  ................
 80001b20 00000000 00000000 00000000 00000000  ................
 80001b30 00000000 00000000 00000000 00000000  ................
 80001b40 00000000 00000000 00000000 00000000  ................
 80001b50 00000000 00000000 00000000 00000000  ................
 80001b60 00000000 00000000 00000000 00000000  ................
 80001b70 00000000 00000000 00000000 00000000  ................
 80001b80 00000000 00000000 00000000 00000000  ................
 80001b90 00000000 00000000 00000000 00000000  ................
 80001ba0 00000000 00000000 00000000 00000000  ................
 80001bb0 00000000 00000000 00000000 00000000  ................
 80001bc0 00000000 00000000 00000000 00000000  ................
 80001bd0 00000000 00000000 00000000 00000000  ................
 80001be0 00000000 00000000 00000000 00000000  ................
 80001bf0 00000000 00000000 00000000 00000000  ................
 80001c00 00000000 00000000 00000000 00000000  ................
 80001c10 00000000 00000000 00000000 00000000  ................
 80001c20 00000000 00000000 00000000 00000000  ................
 80001c30 00000000 00000000 00000000 00000000  ................
 80001c40 00000000 00000000 00000000 00000000  ................
 80001c50 00000000 00000000 00000000 00000000  ................
 80001c60 00000000 00000000 00000000 00000000  ................
 80001c70 00000000 00000000 00000000 00000000  ................
 80001c80 00000000 00000000 00000000 00000000  ................
 80001c90 00000000 00000000 00000000 00000000  ................
 80001ca0 00000000 00000000 00000000 00000000  ................
 80001cb0 00000000 00000000 00000000 00000000  ................
 80001cc0 00000000 00000000 00000000 00000000  ................
 80001cd0 00000000 00000000 00000000 00000000  ................
 80001ce0 00000000 00000000 00000000 00000000  ................
 80001cf0 00000000 00000000 00000000 00000000  ................
 80001d00 00000000 00000000 00000000 00000000  ................
 80001d10 00000000 00000000 00000000 00000000  ................
 80001d20 00000000 00000000 00000000 00000000  ................
 80001d30 00000000 00000000 00000000 00000000  ................
 80001d40 00000000 00000000 00000000 00000000  ................
 80001d50 00000000 00000000 00000000 00000000  ................
 80001d60 00000000 00000000 00000000 00000000  ................
 80001d70 00000000 00000000 00000000 00000000  ................
 80001d80 00000000 00000000 00000000 00000000  ................
 80001d90 00000000 00000000 00000000 00000000  ................
 80001da0 00000000 00000000 00000000 00000000  ................
 80001db0 00000000 00000000 00000000 00000000  ................
 80001dc0 00000000 00000000 00000000 00000000  ................
 80001dd0 00000000 00000000 00000000 00000000  ................
 80001de0 00000000 00000000 00000000 00000000  ................
 80001df0 00000000 00000000 00000000 00000000  ................
 80001e00 00000000 00000000 00000000 00000000  ................
 80001e10 00000000 00000000 00000000 00000000  ................
 80001e20 00000000 00000000 00000000 00000000  ................
 80001e30 00000000 00000000 00000000 00000000  ................
 80001e40 00000000 00000000 00000000 00000000  ................
 80001e50 00000000 00000000 00000000 00000000  ................
 80001e60 00000000 00000000 00000000 00000000  ................
 80001e70 00000000 00000000 00000000 00000000  ................
 80001e80 00000000 00000000 00000000 00000000  ................
 80001e90 00000000 00000000 00000000 00000000  ................
 80001ea0 00000000 00000000 00000000 00000000  ................
 80001eb0 00000000 00000000 00000000 00000000  ................
 80001ec0 00000000 00000000 00000000 00000000  ................
 80001ed0 00000000 00000000 00000000 00000000  ................
 80001ee0 00000000 00000000 00000000 00000000  ................
 80001ef0 00000000 00000000 00000000 00000000  ................
 80001f00 00000000 00000000 00000000 00000000  ................
 80001f10 00000000 00000000 00000000 00000000  ................
 80001f20 00000000 00000000 00000000 00000000  ................
 80001f30 00000000 00000000 00000000 00000000  ................
 80001f40 00000000 00000000 00000000 00000000  ................
 80001f50 00000000 00000000 00000000 00000000  ................
 80001f60 00000000 00000000 00000000 00000000  ................
 80001f70 00000000 00000000 00000000 00000000  ................
 80001f80 00000000 00000000 00000000 00000000  ................
 80001f90 00000000 00000000 00000000 00000000  ................
 80001fa0 00000000 00000000 00000000 00000000  ................
 80001fb0 00000000 00000000 00000000 00000000  ................
 80001fc0 00000000 00000000 00000000 00000000  ................
 80001fd0 00000000 00000000 00000000 00000000  ................
 80001fe0 00000000 00000000 00000000 00000000  ................
 80001ff0 00000000 00000000 00000000 00000000  ................
 80002000 fecabeba fecabeba fecabeba fecabeba  ................
 80002010 efbeadde efbeadde 00000000 00000000  ................
 80002020 00000000 00000000 00000000 00000000  ................
 80002030 00000000 00000000 00000000 00000000  ................
 80002040 00000000 00000000 00000000 00000000  ................
 80002050 00000000 00000000 00000000 00000000  ................
 80002060 00000000 00000000 00000000 00000000  ................
 80002070 00000000 00000000 00000000 00000000  ................
 80002080 00000000 00000000 00000000 00000000  ................
 80002090 00000000 00000000 00000000 00000000  ................
 800020a0 00000000 00000000 00000000 00000000  ................
 800020b0 00000000 00000000 00000000 00000000  ................
 800020c0 00000000 00000000 00000000 00000000  ................
 800020d0 00000000 00000000 00000000 00000000  ................
 800020e0 00000000 00000000 00000000 00000000  ................
 800020f0 00000000 00000000 00000000 00000000  ................
 80002100 00000000 00000000 00000000 00000000  ................
 80002110 00000000 00000000 00000000 00000000  ................
 80002120 00000000 00000000 00000000 00000000  ................
 80002130 00000000 00000000 00000000 00000000  ................
 80002140 00000000 00000000 00000000 00000000  ................
 80002150 00000000 00000000 00000000 00000000  ................
 80002160 00000000 00000000 00000000 00000000  ................
 80002170 00000000 00000000 00000000 00000000  ................
 80002180 00000000 00000000 00000000 00000000  ................
 80002190 00000000 00000000 00000000 00000000  ................
 800021a0 00000000 00000000 00000000 00000000  ................
 800021b0 00000000 00000000 00000000 00000000  ................
 800021c0 00000000 00000000 00000000 00000000  ................
 800021d0 00000000 00000000 00000000 00000000  ................
 800021e0 00000000 00000000 00000000 00000000  ................
 800021f0 00000000 00000000 00000000 00000000  ................
 80002200 00000000 00000000 00000000 00000000  ................
 80002210 00000000 00000000 00000000 00000000  ................
 80002220 00000000 00000000 00000000 00000000  ................
 80002230 00000000 00000000 00000000 00000000  ................
 80002240 00000000 00000000 00000000 00000000  ................
 80002250 00000000 00000000 00000000 00000000  ................
 80002260 00000000 00000000 00000000 00000000  ................
 80002270 00000000 00000000 00000000 00000000  ................
 80002280 00000000 00000000 00000000 00000000  ................
 80002290 00000000 00000000 00000000 00000000  ................
 800022a0 00000000 00000000 00000000 00000000  ................
 800022b0 00000000 00000000 00000000 00000000  ................
 800022c0 00000000 00000000 00000000 00000000  ................
 800022d0 00000000 00000000 00000000 00000000  ................
 800022e0 00000000 00000000 00000000 00000000  ................
 800022f0 00000000 00000000 00000000 00000000  ................
 80002300 00000000 00000000 00000000 00000000  ................
 80002310 00000000 00000000 00000000 00000000  ................
 80002320 00000000 00000000 00000000 00000000  ................
 80002330 00000000 00000000 00000000 00000000  ................
 80002340 00000000 00000000 00000000 00000000  ................
 80002350 00000000 00000000 00000000 00000000  ................
 80002360 00000000 00000000 00000000 00000000  ................
 80002370 00000000 00000000 00000000 00000000  ................
 80002380 00000000 00000000 00000000 00000000  ................
 80002390 00000000 00000000 00000000 00000000  ................
 800023a0 00000000 00000000 00000000 00000000  ................
 800023b0 00000000 00000000 00000000 00000000  ................
 800023c0 00000000 00000000 00000000 00000000  ................
 800023d0 00000000 00000000 00000000 00000000  ................
 800023e0 00000000 00000000 00000000 00000000  ................
 800023f0 00000000 00000000 00000000 00000000  ................
 80002400 00000000 00000000 00000000 00000000  ................
 80002410 00000000 00000000 00000000 00000000  ................
 80002420 00000000 00000000 00000000 00000000  ................
 80002430 00000000 00000000 00000000 00000000  ................
 80002440 00000000 00000000 00000000 00000000  ................
 80002450 00000000 00000000 00000000 00000000  ................
 80002460 00000000 00000000 00000000 00000000  ................
 80002470 00000000 00000000 00000000 00000000  ................
 80002480 00000000 00000000 00000000 00000000  ................
 80002490 00000000 00000000 00000000 00000000  ................
 800024a0 00000000 00000000 00000000 00000000  ................
 800024b0 00000000 00000000 00000000 00000000  ................
 800024c0 00000000 00000000 00000000 00000000  ................
 800024d0 00000000 00000000 00000000 00000000  ................
 800024e0 00000000 00000000 00000000 00000000  ................
 800024f0 00000000 00000000 00000000 00000000  ................
 80002500 00000000 00000000 00000000 00000000  ................
 80002510 00000000 00000000 00000000 00000000  ................
 80002520 00000000 00000000 00000000 00000000  ................
 80002530 00000000 00000000 00000000 00000000  ................
 80002540 00000000 00000000 00000000 00000000  ................
 80002550 00000000 00000000 00000000 00000000  ................
 80002560 00000000 00000000 00000000 00000000  ................
 80002570 00000000 00000000 00000000 00000000  ................
 80002580 00000000 00000000 00000000 00000000  ................
 80002590 00000000 00000000 00000000 00000000  ................
 800025a0 00000000 00000000 00000000 00000000  ................
 800025b0 00000000 00000000 00000000 00000000  ................
 800025c0 00000000 00000000 00000000 00000000  ................
 800025d0 00000000 00000000 00000000 00000000  ................
 800025e0 00000000 00000000 00000000 00000000  ................
 800025f0 00000000 00000000 00000000 00000000  ................
 80002600 00000000 00000000 00000000 00000000  ................
 80002610 00000000 00000000 00000000 00000000  ................
 80002620 00000000 00000000 00000000 00000000  ................
 80002630 00000000 00000000 00000000 00000000  ................
 80002640 00000000 00000000 00000000 00000000  ................
 80002650 00000000 00000000 00000000 00000000  ................
 80002660 00000000 00000000 00000000 00000000  ................
 80002670 00000000 00000000 00000000 00000000  ................
 80002680 00000000 00000000 00000000 00000000  ................
 80002690 00000000 00000000 00000000 00000000  ................
 800026a0 00000000 00000000 00000000 00000000  ................
 800026b0 00000000 00000000 00000000 00000000  ................
 800026c0 00000000 00000000 00000000 00000000  ................
 800026d0 00000000 00000000 00000000 00000000  ................
 800026e0 00000000 00000000 00000000 00000000  ................
 800026f0 00000000 00000000 00000000 00000000  ................
 80002700 00000000 00000000 00000000 00000000  ................
 80002710 00000000 00000000 00000000 00000000  ................
 80002720 00000000 00000000 00000000 00000000  ................
 80002730 00000000 00000000 00000000 00000000  ................
 80002740 00000000 00000000 00000000 00000000  ................
 80002750 00000000 00000000 00000000 00000000  ................
 80002760 00000000 00000000 00000000 00000000  ................
 80002770 00000000 00000000 00000000 00000000  ................
 80002780 00000000 00000000 00000000 00000000  ................
 80002790 00000000 00000000 00000000 00000000  ................
 800027a0 00000000 00000000 00000000 00000000  ................
 800027b0 00000000 00000000 00000000 00000000  ................
 800027c0 00000000 00000000 00000000 00000000  ................
 800027d0 00000000 00000000 00000000 00000000  ................
 800027e0 00000000 00000000 00000000 00000000  ................
 800027f0 00000000 00000000 00000000 00000000  ................
 80002800 00000000 00000000 00000000 00000000  ................
 80002810 00000000 00000000 00000000 00000000  ................
 80002820 00000000 00000000 00000000 00000000  ................
 80002830 00000000 00000000 00000000 00000000  ................
 80002840 00000000 00000000 00000000 00000000  ................
 80002850 00000000 00000000 00000000 00000000  ................
 80002860 00000000 00000000 00000000 00000000  ................
 80002870 00000000 00000000 00000000 00000000  ................
 80002880 00000000 00000000 00000000 00000000  ................
 80002890 00000000 00000000 00000000 00000000  ................
 800028a0 00000000 00000000 00000000 00000000  ................
 800028b0 00000000 00000000 00000000 00000000  ................
 800028c0 00000000 00000000 00000000 00000000  ................
 800028d0 00000000 00000000 00000000 00000000  ................
 800028e0 00000000 00000000 00000000 00000000  ................
 800028f0 00000000 00000000 00000000 00000000  ................
 80002900 00000000 00000000 00000000 00000000  ................
 80002910 00000000 00000000 00000000 00000000  ................
 80002920 00000000 00000000 00000000 00000000  ................
 80002930 00000000 00000000 00000000 00000000  ................
 80002940 00000000 00000000 00000000 00000000  ................
 80002950 00000000 00000000 00000000 00000000  ................
 80002960 00000000 00000000 00000000 00000000  ................
 80002970 00000000 00000000 00000000 00000000  ................
 80002980 00000000 00000000 00000000 00000000  ................
 80002990 00000000 00000000 00000000 00000000  ................
 800029a0 00000000 00000000 00000000 00000000  ................
 800029b0 00000000 00000000 00000000 00000000  ................
 800029c0 00000000 00000000 00000000 00000000  ................
 800029d0 00000000 00000000 00000000 00000000  ................
 800029e0 00000000 00000000 00000000 00000000  ................
 800029f0 00000000 00000000 00000000 00000000  ................
 80002a00 00000000 00000000 00000000 00000000  ................
 80002a10 00000000 00000000 00000000 00000000  ................
 80002a20 00000000 00000000 00000000 00000000  ................
 80002a30 00000000 00000000 00000000 00000000  ................
 80002a40 00000000 00000000 00000000 00000000  ................
 80002a50 00000000 00000000 00000000 00000000  ................
 80002a60 00000000 00000000 00000000 00000000  ................
 80002a70 00000000 00000000 00000000 00000000  ................
 80002a80 00000000 00000000 00000000 00000000  ................
 80002a90 00000000 00000000 00000000 00000000  ................
 80002aa0 00000000 00000000 00000000 00000000  ................
 80002ab0 00000000 00000000 00000000 00000000  ................
 80002ac0 00000000 00000000 00000000 00000000  ................
 80002ad0 00000000 00000000 00000000 00000000  ................
 80002ae0 00000000 00000000 00000000 00000000  ................
 80002af0 00000000 00000000 00000000 00000000  ................
 80002b00 00000000 00000000 00000000 00000000  ................
 80002b10 00000000 00000000 00000000 00000000  ................
 80002b20 00000000 00000000 00000000 00000000  ................
 80002b30 00000000 00000000 00000000 00000000  ................
 80002b40 00000000 00000000 00000000 00000000  ................
 80002b50 00000000 00000000 00000000 00000000  ................
 80002b60 00000000 00000000 00000000 00000000  ................
 80002b70 00000000 00000000 00000000 00000000  ................
 80002b80 00000000 00000000 00000000 00000000  ................
 80002b90 00000000 00000000 00000000 00000000  ................
 80002ba0 00000000 00000000 00000000 00000000  ................
 80002bb0 00000000 00000000 00000000 00000000  ................
 80002bc0 00000000 00000000 00000000 00000000  ................
 80002bd0 00000000 00000000 00000000 00000000  ................
 80002be0 00000000 00000000 00000000 00000000  ................
 80002bf0 00000000 00000000 00000000 00000000  ................
 80002c00 00000000 00000000 00000000 00000000  ................
 80002c10 00000000 00000000 00000000 00000000  ................
 80002c20 00000000 00000000 00000000 00000000  ................
 80002c30 00000000 00000000 00000000 00000000  ................
 80002c40 00000000 00000000 00000000 00000000  ................
 80002c50 00000000 00000000 00000000 00000000  ................
 80002c60 00000000 00000000 00000000 00000000  ................
 80002c70 00000000 00000000 00000000 00000000  ................
 80002c80 00000000 00000000 00000000 00000000  ................
 80002c90 00000000 00000000 00000000 00000000  ................
 80002ca0 00000000 00000000 00000000 00000000  ................
 80002cb0 00000000 00000000 00000000 00000000  ................
 80002cc0 00000000 00000000 00000000 00000000  ................
 80002cd0 00000000 00000000 00000000 00000000  ................
 80002ce0 00000000 00000000 00000000 00000000  ................
 80002cf0 00000000 00000000 00000000 00000000  ................
 80002d00 00000000 00000000 00000000 00000000  ................
 80002d10 00000000 00000000 00000000 00000000  ................
 80002d20 00000000 00000000 00000000 00000000  ................
 80002d30 00000000 00000000 00000000 00000000  ................
 80002d40 00000000 00000000 00000000 00000000  ................
 80002d50 00000000 00000000 00000000 00000000  ................
 80002d60 00000000 00000000 00000000 00000000  ................
 80002d70 00000000 00000000 00000000 00000000  ................
 80002d80 00000000 00000000 00000000 00000000  ................
 80002d90 00000000 00000000 00000000 00000000  ................
 80002da0 00000000 00000000 00000000 00000000  ................
 80002db0 00000000 00000000 00000000 00000000  ................
 80002dc0 00000000 00000000 00000000 00000000  ................
 80002dd0 00000000 00000000 00000000 00000000  ................
 80002de0 00000000 00000000 00000000 00000000  ................
 80002df0 00000000 00000000 00000000 00000000  ................
 80002e00 00000000 00000000 00000000 00000000  ................
 80002e10 00000000 00000000 00000000 00000000  ................
 80002e20 00000000 00000000 00000000 00000000  ................
 80002e30 00000000 00000000 00000000 00000000  ................
 80002e40 00000000 00000000 00000000 00000000  ................
 80002e50 00000000 00000000 00000000 00000000  ................
 80002e60 00000000 00000000 00000000 00000000  ................
 80002e70 00000000 00000000 00000000 00000000  ................
 80002e80 00000000 00000000 00000000 00000000  ................
 80002e90 00000000 00000000 00000000 00000000  ................
 80002ea0 00000000 00000000 00000000 00000000  ................
 80002eb0 00000000 00000000 00000000 00000000  ................
 80002ec0 00000000 00000000 00000000 00000000  ................
 80002ed0 00000000 00000000 00000000 00000000  ................
 80002ee0 00000000 00000000 00000000 00000000  ................
 80002ef0 00000000 00000000 00000000 00000000  ................
 80002f00 00000000 00000000 00000000 00000000  ................
 80002f10 00000000 00000000 00000000 00000000  ................
 80002f20 00000000 00000000 00000000 00000000  ................
 80002f30 00000000 00000000 00000000 00000000  ................
 80002f40 00000000 00000000 00000000 00000000  ................
 80002f50 00000000 00000000 00000000 00000000  ................
 80002f60 00000000 00000000 00000000 00000000  ................
 80002f70 00000000 00000000 00000000 00000000  ................
 80002f80 00000000 00000000 00000000 00000000  ................
 80002f90 00000000 00000000 00000000 00000000  ................
 80002fa0 00000000 00000000 00000000 00000000  ................
 80002fb0 00000000 00000000 00000000 00000000  ................
 80002fc0 00000000 00000000 00000000 00000000  ................
 80002fd0 00000000 00000000 00000000 00000000  ................
 80002fe0 00000000 00000000 00000000 00000000  ................
 80002ff0 00000000 00000000 00000000 00000000  ................
 80003000 81b2d4e7 09a35c6f efbeadde efbeadde  ......\o........
 80003010 efbeadde efbeadde efbeadde efbeadde  ................
 80003020 efbeadde efbeadde efbeadde efbeadde  ................
 80003030 efbeadde efbeadde efbeadde efbeadde  ................
 80003040 efbeadde efbeadde efbeadde efbeadde  ................
 80003050 efbeadde efbeadde efbeadde efbeadde  ................
 80003060 efbeadde efbeadde efbeadde efbeadde  ................
 80003070 efbeadde efbeadde efbeadde efbeadde  ................
 80003080 efbeadde efbeadde efbeadde efbeadde  ................
 80003090 efbeadde efbeadde efbeadde efbeadde  ................
 800030a0 efbeadde efbeadde efbeadde efbeadde  ................
 800030b0 efbeadde efbeadde efbeadde efbeadde  ................
 800030c0 efbeadde efbeadde efbeadde efbeadde  ................
 800030d0 efbeadde efbeadde efbeadde efbeadde  ................
 800030e0 efbeadde efbeadde efbeadde efbeadde  ................
 800030f0 efbeadde efbeadde efbeadde efbeadde  ................
 80003100 efbeadde efbeadde efbeadde efbeadde  ................
 80003110 efbeadde efbeadde efbeadde efbeadde  ................
 80003120 efbeadde efbeadde efbeadde efbeadde  ................
 80003130 efbeadde efbeadde efbeadde efbeadde  ................
 80003140 efbeadde efbeadde efbeadde efbeadde  ................
 80003150 efbeadde efbeadde efbeadde efbeadde  ................
 80003160 efbeadde efbeadde efbeadde efbeadde  ................
 80003170 efbeadde efbeadde efbeadde efbeadde  ................
 80003180 efbeadde efbeadde efbeadde efbeadde  ................
 80003190 efbeadde efbeadde efbeadde efbeadde  ................
 800031a0 efbeadde efbeadde efbeadde efbeadde  ................
 800031b0 efbeadde efbeadde efbeadde efbeadde  ................
 800031c0 efbeadde efbeadde efbeadde efbeadde  ................
 800031d0 efbeadde efbeadde efbeadde efbeadde  ................
 800031e0 efbeadde efbeadde efbeadde efbeadde  ................
 800031f0 efbeadde efbeadde efbeadde efbeadde  ................
 80003200 efbeadde efbeadde efbeadde efbeadde  ................
 80003210 efbeadde efbeadde efbeadde efbeadde  ................
 80003220 efbeadde efbeadde efbeadde efbeadde  ................
 80003230 efbeadde efbeadde efbeadde efbeadde  ................
 80003240 efbeadde efbeadde efbeadde efbeadde  ................
 80003250 efbeadde efbeadde efbeadde efbeadde  ................
 80003260 efbeadde efbeadde efbeadde efbeadde  ................
 80003270 efbeadde efbeadde efbeadde efbeadde  ................
 80003280 efbeadde efbeadde efbeadde efbeadde  ................
 80003290 efbeadde efbeadde efbeadde efbeadde  ................
 800032a0 efbeadde efbeadde efbeadde efbeadde  ................
 800032b0 efbeadde efbeadde efbeadde efbeadde  ................
 800032c0 efbeadde efbeadde efbeadde efbeadde  ................
 800032d0 efbeadde efbeadde efbeadde efbeadde  ................
 800032e0 efbeadde efbeadde efbeadde efbeadde  ................
 800032f0 efbeadde efbeadde efbeadde efbeadde  ................
 80003300 efbeadde efbeadde efbeadde efbeadde  ................
 80003310 efbeadde efbeadde efbeadde efbeadde  ................
 80003320 efbeadde efbeadde efbeadde efbeadde  ................
 80003330 efbeadde efbeadde efbeadde efbeadde  ................
 80003340 efbeadde efbeadde efbeadde efbeadde  ................
 80003350 efbeadde efbeadde efbeadde efbeadde  ................
 80003360 efbeadde efbeadde efbeadde efbeadde  ................
 80003370 efbeadde efbeadde efbeadde efbeadde  ................
 80003380 efbeadde efbeadde efbeadde efbeadde  ................
 80003390 efbeadde efbeadde efbeadde efbeadde  ................
 800033a0 efbeadde efbeadde efbeadde efbeadde  ................
 800033b0 efbeadde efbeadde efbeadde efbeadde  ................
 800033c0 efbeadde efbeadde efbeadde efbeadde  ................
 800033d0 efbeadde efbeadde efbeadde efbeadde  ................
 800033e0 efbeadde efbeadde efbeadde efbeadde  ................
 800033f0 efbeadde efbeadde efbeadde efbeadde  ................
 80003400 efbeadde efbeadde efbeadde efbeadde  ................
 80003410 efbeadde efbeadde efbeadde efbeadde  ................
 80003420 efbeadde efbeadde 81b2d4e7 09a35c6f  ..............\o

Disassembly of section .data:

0000000080000000 <.data>:
    80000000:	00000413          	addi	x8,x0,0
    80000004:	0000c117          	auipc	x2,0xc
    80000008:	ffc10113          	addi	x2,x2,-4 # 0x8000c000
    8000000c:	5f4010ef          	jal	x1,0x80001600
    80000010:	030000ef          	jal	x1,0x80000040
    80000014:	00100513          	addi	x10,x0,1
    80000018:	5dc010ef          	jal	x1,0x800015f4
    8000001c:	00000513          	addi	x10,x0,0
    80000020:	00008067          	jalr	x0,0(x1)
	...
    80000040:	feedc0b7          	lui	x1,0xfeedc
    80000044:	ead08093          	addi	x1,x1,-339 # 0xfffffffffeedbead
    80000048:	00b09093          	slli	x1,x1,0xb
    8000004c:	7f708093          	addi	x1,x1,2039
    80000050:	00b09093          	slli	x1,x1,0xb
    80000054:	36f08093          	addi	x1,x1,879
    80000058:	00a09093          	slli	x1,x1,0xa
    8000005c:	2ad08093          	addi	x1,x1,685
    80000060:	ff76e137          	lui	x2,0xff76e
    80000064:	f5610113          	addi	x2,x2,-170 # 0xffffffffff76df56
    80000068:	00b11113          	slli	x2,x2,0xb
    8000006c:	7fb10113          	addi	x2,x2,2043
    80000070:	00b11113          	slli	x2,x2,0xb
    80000074:	5b710113          	addi	x2,x2,1463
    80000078:	00a11113          	slli	x2,x2,0xa
    8000007c:	35610113          	addi	x2,x2,854
    80000080:	7fbb71b7          	lui	x3,0x7fbb7
    80000084:	fab18193          	addi	x3,x3,-85 # 0x7fbb6fab
    80000088:	00b19193          	slli	x3,x3,0xb
    8000008c:	3fd18193          	addi	x3,x3,1021
    80000090:	00b19193          	slli	x3,x3,0xb
    80000094:	6db18193          	addi	x3,x3,1755
    80000098:	00a19193          	slli	x3,x3,0xa
    8000009c:	3ab18193          	addi	x3,x3,939
    800000a0:	bfddb237          	lui	x4,0xbfddb
    800000a4:	7d520213          	addi	x4,x4,2005 # 0xffffffffbfddb7d5
    800000a8:	00b21213          	slli	x4,x4,0xb
    800000ac:	5fe20213          	addi	x4,x4,1534 # 0x5fe
    800000b0:	00b21213          	slli	x4,x4,0xb
    800000b4:	76d20213          	addi	x4,x4,1901 # 0x76d
    800000b8:	00a21213          	slli	x4,x4,0xa
    800000bc:	3d520213          	addi	x4,x4,981 # 0x3d5
    800000c0:	dfeee2b7          	lui	x5,0xdfeee
    800000c4:	bea28293          	addi	x5,x5,-1046 # 0xffffffffdfeedbea
    800000c8:	00b29293          	slli	x5,x5,0xb
    800000cc:	6ff28293          	addi	x5,x5,1791
    800000d0:	00b29293          	slli	x5,x5,0xb
    800000d4:	3b628293          	addi	x5,x5,950
    800000d8:	00a29293          	slli	x5,x5,0xa
    800000dc:	3ea28293          	addi	x5,x5,1002
    800000e0:	6ff77337          	lui	x6,0x6ff77
    800000e4:	df530313          	addi	x6,x6,-523 # 0x6ff76df5
    800000e8:	00b31313          	slli	x6,x6,0xb
    800000ec:	37f30313          	addi	x6,x6,895
    800000f0:	00b31313          	slli	x6,x6,0xb
    800000f4:	5db30313          	addi	x6,x6,1499
    800000f8:	00a31313          	slli	x6,x6,0xa
    800000fc:	1f530313          	addi	x6,x6,501
    80000100:	b7fbb3b7          	lui	x7,0xb7fbb
    80000104:	6fa38393          	addi	x7,x7,1786 # 0xffffffffb7fbb6fa
    80000108:	00b39393          	slli	x7,x7,0xb
    8000010c:	5bf38393          	addi	x7,x7,1471
    80000110:	00b39393          	slli	x7,x7,0xb
    80000114:	6ed38393          	addi	x7,x7,1773
    80000118:	00a39393          	slli	x7,x7,0xa
    8000011c:	2fa38393          	addi	x7,x7,762
    80000120:	5bfde437          	lui	x8,0x5bfde
    80000124:	b7d40413          	addi	x8,x8,-1155 # 0x5bfddb7d
    80000128:	00b41413          	slli	x8,x8,0xb
    8000012c:	2df40413          	addi	x8,x8,735
    80000130:	00b41413          	slli	x8,x8,0xb
    80000134:	77640413          	addi	x8,x8,1910
    80000138:	00a41413          	slli	x8,x8,0xa
    8000013c:	37d40413          	addi	x8,x8,893
    80000140:	adfef4b7          	lui	x9,0xadfef
    80000144:	dbe48493          	addi	x9,x9,-578 # 0xffffffffadfeedbe
    80000148:	00b49493          	slli	x9,x9,0xb
    8000014c:	56f48493          	addi	x9,x9,1391
    80000150:	00b49493          	slli	x9,x9,0xb
    80000154:	7bb48493          	addi	x9,x9,1979
    80000158:	00a49493          	slli	x9,x9,0xa
    8000015c:	1be48493          	addi	x9,x9,446
    80000160:	56ff7537          	lui	x10,0x56ff7
    80000164:	6df50513          	addi	x10,x10,1759 # 0x56ff76df
    80000168:	00b51513          	slli	x10,x10,0xb
    8000016c:	2b750513          	addi	x10,x10,695
    80000170:	00b51513          	slli	x10,x10,0xb
    80000174:	7dd50513          	addi	x10,x10,2013
    80000178:	00a51513          	slli	x10,x10,0xa
    8000017c:	2df50513          	addi	x10,x10,735
    80000180:	ab7fc5b7          	lui	x11,0xab7fc
    80000184:	b6f58593          	addi	x11,x11,-1169 # 0xffffffffab7fbb6f
    80000188:	00b59593          	slli	x11,x11,0xb
    8000018c:	55b58593          	addi	x11,x11,1371
    80000190:	00b59593          	slli	x11,x11,0xb
    80000194:	7ee58593          	addi	x11,x11,2030
    80000198:	00a59593          	slli	x11,x11,0xa
    8000019c:	36f58593          	addi	x11,x11,879
    800001a0:	d5bfe637          	lui	x12,0xd5bfe
    800001a4:	db760613          	addi	x12,x12,-585 # 0xffffffffd5bfddb7
    800001a8:	00b61613          	slli	x12,x12,0xb
    800001ac:	6ad60613          	addi	x12,x12,1709
    800001b0:	00b61613          	slli	x12,x12,0xb
    800001b4:	7f760613          	addi	x12,x12,2039
    800001b8:	00a61613          	slli	x12,x12,0xa
    800001bc:	1b760613          	addi	x12,x12,439
    800001c0:	eadff6b7          	lui	x13,0xeadff
    800001c4:	edb68693          	addi	x13,x13,-293 # 0xffffffffeadfeedb
    800001c8:	00b69693          	slli	x13,x13,0xb
    800001cc:	75668693          	addi	x13,x13,1878
    800001d0:	00b69693          	slli	x13,x13,0xb
    800001d4:	7fb68693          	addi	x13,x13,2043
    800001d8:	00a69693          	slli	x13,x13,0xa
    800001dc:	2db68693          	addi	x13,x13,731
    800001e0:	f56ff737          	lui	x14,0xf56ff
    800001e4:	76d70713          	addi	x14,x14,1901 # 0xfffffffff56ff76d
    800001e8:	00b71713          	slli	x14,x14,0xb
    800001ec:	7ab70713          	addi	x14,x14,1963
    800001f0:	00b71713          	slli	x14,x14,0xb
    800001f4:	3fd70713          	addi	x14,x14,1021
    800001f8:	00a71713          	slli	x14,x14,0xa
    800001fc:	36d70713          	addi	x14,x14,877
    80000200:	fab807b7          	lui	x15,0xfab80
    80000204:	bb678793          	addi	x15,x15,-1098 # 0xfffffffffab7fbb6
    80000208:	00b79793          	slli	x15,x15,0xb
    8000020c:	7d578793          	addi	x15,x15,2005
    80000210:	00b79793          	slli	x15,x15,0xb
    80000214:	5fe78793          	addi	x15,x15,1534
    80000218:	00a79793          	slli	x15,x15,0xa
    8000021c:	3b678793          	addi	x15,x15,950
    80000220:	7d5c0837          	lui	x16,0x7d5c0
    80000224:	ddb80813          	addi	x16,x16,-549 # 0x7d5bfddb
    80000228:	00b81813          	slli	x16,x16,0xb
    8000022c:	3ea80813          	addi	x16,x16,1002
    80000230:	00b81813          	slli	x16,x16,0xb
    80000234:	6ff80813          	addi	x16,x16,1791
    80000238:	00a81813          	slli	x16,x16,0xa
    8000023c:	1db80813          	addi	x16,x16,475
    80000240:	beae08b7          	lui	x17,0xbeae0
    80000244:	eed88893          	addi	x17,x17,-275 # 0xffffffffbeadfeed
    80000248:	00b89893          	slli	x17,x17,0xb
    8000024c:	5f588893          	addi	x17,x17,1525
    80000250:	00b89893          	slli	x17,x17,0xb
    80000254:	37f88893          	addi	x17,x17,895
    80000258:	00a89893          	slli	x17,x17,0xa
    8000025c:	2ed88893          	addi	x17,x17,749
    80000260:	df570937          	lui	x18,0xdf570
    80000264:	f7690913          	addi	x18,x18,-138 # 0xffffffffdf56ff76
    80000268:	00b91913          	slli	x18,x18,0xb
    8000026c:	6fa90913          	addi	x18,x18,1786
    80000270:	00b91913          	slli	x18,x18,0xb
    80000274:	5bf90913          	addi	x18,x18,1471
    80000278:	00a91913          	slli	x18,x18,0xa
    8000027c:	37690913          	addi	x18,x18,886
    80000280:	6fab89b7          	lui	x19,0x6fab8
    80000284:	fbb98993          	addi	x19,x19,-69 # 0x6fab7fbb
    80000288:	00b99993          	slli	x19,x19,0xb
    8000028c:	37d98993          	addi	x19,x19,893
    80000290:	00b99993          	slli	x19,x19,0xb
    80000294:	2df98993          	addi	x19,x19,735
    80000298:	00a99993          	slli	x19,x19,0xa
    8000029c:	3bb98993          	addi	x19,x19,955
    800002a0:	b7d5ca37          	lui	x20,0xb7d5c
    800002a4:	fdda0a13          	addi	x20,x20,-35 # 0xffffffffb7d5bfdd
    800002a8:	00ba1a13          	slli	x20,x20,0xb
    800002ac:	5bea0a13          	addi	x20,x20,1470
    800002b0:	00ba1a13          	slli	x20,x20,0xb
    800002b4:	56fa0a13          	addi	x20,x20,1391
    800002b8:	00aa1a13          	slli	x20,x20,0xa
    800002bc:	3dda0a13          	addi	x20,x20,989
    800002c0:	dbeaeab7          	lui	x21,0xdbeae
    800002c4:	feea8a93          	addi	x21,x21,-18 # 0xffffffffdbeadfee
    800002c8:	00ba9a93          	slli	x21,x21,0xb
    800002cc:	6dfa8a93          	addi	x21,x21,1759
    800002d0:	00ba9a93          	slli	x21,x21,0xb
    800002d4:	2b7a8a93          	addi	x21,x21,695
    800002d8:	00aa9a93          	slli	x21,x21,0xa
    800002dc:	3eea8a93          	addi	x21,x21,1006
    800002e0:	6df57b37          	lui	x22,0x6df57
    800002e4:	ff7b0b13          	addi	x22,x22,-9 # 0x6df56ff7
    800002e8:	00bb1b13          	slli	x22,x22,0xb
    800002ec:	36fb0b13          	addi	x22,x22,879
    800002f0:	00bb1b13          	slli	x22,x22,0xb
    800002f4:	55bb0b13          	addi	x22,x22,1371
    800002f8:	00ab1b13          	slli	x22,x22,0xa
    800002fc:	3f7b0b13          	addi	x22,x22,1015
    80000300:	b6fabbb7          	lui	x23,0xb6fab
    80000304:	7fbb8b93          	addi	x23,x23,2043 # 0xffffffffb6fab7fb
    80000308:	00bb9b93          	slli	x23,x23,0xb
    8000030c:	5b7b8b93          	addi	x23,x23,1463
    80000310:	00bb9b93          	slli	x23,x23,0xb
    80000314:	6adb8b93          	addi	x23,x23,1709
    80000318:	00ab9b93          	slli	x23,x23,0xa
    8000031c:	3fbb8b93          	addi	x23,x23,1019
    80000320:	db7d6c37          	lui	x24,0xdb7d6
    80000324:	bfdc0c13          	addi	x24,x24,-1027 # 0xffffffffdb7d5bfd
    80000328:	00bc1c13          	slli	x24,x24,0xb
    8000032c:	6dbc0c13          	addi	x24,x24,1755
    80000330:	00bc1c13          	slli	x24,x24,0xb
    80000334:	756c0c13          	addi	x24,x24,1878
    80000338:	00ac1c13          	slli	x24,x24,0xa
    8000033c:	3fdc0c13          	addi	x24,x24,1021
    80000340:	edbebcb7          	lui	x25,0xedbeb
    80000344:	dfec8c93          	addi	x25,x25,-514 # 0xffffffffedbeadfe
    80000348:	00bc9c93          	slli	x25,x25,0xb
    8000034c:	76dc8c93          	addi	x25,x25,1901
    80000350:	00bc9c93          	slli	x25,x25,0xb
    80000354:	7abc8c93          	addi	x25,x25,1963
    80000358:	00ac9c93          	slli	x25,x25,0xa
    8000035c:	1fec8c93          	addi	x25,x25,510
    80000360:	76df5d37          	lui	x26,0x76df5
    80000364:	6ffd0d13          	addi	x26,x26,1791 # 0x76df56ff
    80000368:	00bd1d13          	slli	x26,x26,0xb
    8000036c:	3b6d0d13          	addi	x26,x26,950
    80000370:	00bd1d13          	slli	x26,x26,0xb
    80000374:	7d5d0d13          	addi	x26,x26,2005
    80000378:	00ad1d13          	slli	x26,x26,0xa
    8000037c:	2ffd0d13          	addi	x26,x26,767
    80000380:	bb6fbdb7          	lui	x27,0xbb6fb
    80000384:	b7fd8d93          	addi	x27,x27,-1153 # 0xffffffffbb6fab7f
    80000388:	00bd9d93          	slli	x27,x27,0xb
    8000038c:	5dbd8d93          	addi	x27,x27,1499
    80000390:	00bd9d93          	slli	x27,x27,0xb
    80000394:	3ead8d93          	addi	x27,x27,1002
    80000398:	00ad9d93          	slli	x27,x27,0xa
    8000039c:	37fd8d93          	addi	x27,x27,895
    800003a0:	ddb7de37          	lui	x28,0xddb7d
    800003a4:	5bfe0e13          	addi	x28,x28,1471 # 0xffffffffddb7d5bf
    800003a8:	00be1e13          	slli	x28,x28,0xb
    800003ac:	6ede0e13          	addi	x28,x28,1773
    800003b0:	00be1e13          	slli	x28,x28,0xb
    800003b4:	5f5e0e13          	addi	x28,x28,1525
    800003b8:	00ae1e13          	slli	x28,x28,0xa
    800003bc:	1bfe0e13          	addi	x28,x28,447
    800003c0:	eedbfeb7          	lui	x29,0xeedbf
    800003c4:	adfe8e93          	addi	x29,x29,-1313 # 0xffffffffeedbeadf
    800003c8:	00be9e93          	slli	x29,x29,0xb
    800003cc:	776e8e93          	addi	x29,x29,1910
    800003d0:	00be9e93          	slli	x29,x29,0xb
    800003d4:	6fae8e93          	addi	x29,x29,1786
    800003d8:	00ae9e93          	slli	x29,x29,0xa
    800003dc:	2dfe8e93          	addi	x29,x29,735
    800003e0:	f76dff37          	lui	x30,0xf76df
    800003e4:	56ff0f13          	addi	x30,x30,1391 # 0xfffffffff76df56f
    800003e8:	00bf1f13          	slli	x30,x30,0xb
    800003ec:	7bbf0f13          	addi	x30,x30,1979
    800003f0:	00bf1f13          	slli	x30,x30,0xb
    800003f4:	37df0f13          	addi	x30,x30,893
    800003f8:	00af1f13          	slli	x30,x30,0xa
    800003fc:	16ff0f13          	addi	x30,x30,367
    80000400:	fbb70fb7          	lui	x31,0xfbb70
    80000404:	ab7f8f93          	addi	x31,x31,-1353 # 0xfffffffffbb6fab7
    80000408:	00bf9f93          	slli	x31,x31,0xb
    8000040c:	7ddf8f93          	addi	x31,x31,2013
    80000410:	00bf9f93          	slli	x31,x31,0xb
    80000414:	5bef8f93          	addi	x31,x31,1470
    80000418:	00af9f93          	slli	x31,x31,0xa
    8000041c:	2b7f8f93          	addi	x31,x31,695
    80000420:	00003297          	auipc	x5,0x3
    80000424:	be828293          	addi	x5,x5,-1048 # 0x80003008
    80000428:	00000013          	addi	x0,x0,0
    8000042c:	00000013          	addi	x0,x0,0
    80000430:	00000013          	addi	x0,x0,0
    80000434:	00000013          	addi	x0,x0,0
    80000438:	00000013          	addi	x0,x0,0
    8000043c:	00000013          	addi	x0,x0,0
    80000440:	fff00d13          	addi	x26,x0,-1
    80000444:	03fd1d13          	slli	x26,x26,0x3f
    80000448:	00028593          	addi	x11,x5,0
    8000044c:	ff800613          	addi	x12,x0,-8
    80000450:	40c585b3          	sub	x11,x11,x12
    80000454:	ffa5ac23          	sw	x26,-8(x11)
    80000458:	00000013          	addi	x0,x0,0
    8000045c:	00000013          	addi	x0,x0,0
    80000460:	00000893          	addi	x17,x0,0
    80000464:	00828393          	addi	x7,x5,8
    80000468:	20000613          	addi	x12,x0,512
    8000046c:	40c383b3          	sub	x7,x7,x12
    80000470:	2113a023          	sw	x17,512(x7)
    80000474:	00000013          	addi	x0,x0,0
    80000478:	00000013          	addi	x0,x0,0
    8000047c:	fff00313          	addi	x6,x0,-1
    80000480:	00135313          	srli	x6,x6,0x1
    80000484:	01028113          	addi	x2,x5,16
    80000488:	ff800613          	addi	x12,x0,-8
    8000048c:	40c10133          	sub	x2,x2,x12
    80000490:	fe612c23          	sw	x6,-8(x2)
    80000494:	00000013          	addi	x0,x0,0
    80000498:	00000013          	addi	x0,x0,0
    8000049c:	00100493          	addi	x9,x0,1
    800004a0:	01828793          	addi	x15,x5,24
    800004a4:	55500613          	addi	x12,x0,1365
    800004a8:	40c787b3          	sub	x15,x15,x12
    800004ac:	5497aaa3          	sw	x9,1365(x15)
    800004b0:	00000013          	addi	x0,x0,0
    800004b4:	00000013          	addi	x0,x0,0
    800004b8:	fdf00713          	addi	x14,x0,-33
    800004bc:	02028893          	addi	x17,x5,32
    800004c0:	ffa00613          	addi	x12,x0,-6
    800004c4:	40c888b3          	sub	x17,x17,x12
    800004c8:	fee8ad23          	sw	x14,-6(x17)
    800004cc:	00000013          	addi	x0,x0,0
    800004d0:	00000013          	addi	x0,x0,0
    800004d4:	00100d93          	addi	x27,x0,1
    800004d8:	039d9d93          	slli	x27,x27,0x39
    800004dc:	02828e93          	addi	x29,x5,40
    800004e0:	ff700613          	addi	x12,x0,-9
    800004e4:	40ce8eb3          	sub	x29,x29,x12
    800004e8:	ffbeaba3          	sw	x27,-9(x29)
    800004ec:	00000013          	addi	x0,x0,0
    800004f0:	00000013          	addi	x0,x0,0
    800004f4:	00200c93          	addi	x25,x0,2
    800004f8:	03028f93          	addi	x31,x5,48
    800004fc:	00000613          	addi	x12,x0,0
    80000500:	40cf8fb3          	sub	x31,x31,x12
    80000504:	019fa023          	sw	x25,0(x31)
    80000508:	00000013          	addi	x0,x0,0
    8000050c:	00000013          	addi	x0,x0,0
    80000510:	00400993          	addi	x19,x0,4
    80000514:	03828d13          	addi	x26,x5,56
    80000518:	7ff00613          	addi	x12,x0,2047
    8000051c:	40cd0d33          	sub	x26,x26,x12
    80000520:	7f3d2fa3          	sw	x19,2047(x26)
    80000524:	00000013          	addi	x0,x0,0
    80000528:	00000013          	addi	x0,x0,0
    8000052c:	00800e93          	addi	x29,x0,8
    80000530:	04028c13          	addi	x24,x5,64
    80000534:	fef00613          	addi	x12,x0,-17
    80000538:	40cc0c33          	sub	x24,x24,x12
    8000053c:	ffdc27a3          	sw	x29,-17(x24)
    80000540:	00000013          	addi	x0,x0,0
    80000544:	00000013          	addi	x0,x0,0
    80000548:	01000093          	addi	x1,x0,16
    8000054c:	04828a93          	addi	x21,x5,72
    80000550:	dff00613          	addi	x12,x0,-513
    80000554:	40ca8ab3          	sub	x21,x21,x12
    80000558:	de1aafa3          	sw	x1,-513(x21)
    8000055c:	00000013          	addi	x0,x0,0
    80000560:	00000013          	addi	x0,x0,0
    80000564:	02000213          	addi	x4,x0,32
    80000568:	05028b93          	addi	x23,x5,80
    8000056c:	00000613          	addi	x12,x0,0
    80000570:	40cb8bb3          	sub	x23,x23,x12
    80000574:	004ba023          	sw	x4,0(x23)
    80000578:	00000013          	addi	x0,x0,0
    8000057c:	00000013          	addi	x0,x0,0
    80000580:	04000113          	addi	x2,x0,64
    80000584:	05828e13          	addi	x28,x5,88
    80000588:	80000613          	addi	x12,x0,-2048
    8000058c:	40ce0e33          	sub	x28,x28,x12
    80000590:	802e2023          	sw	x2,-2048(x28)
    80000594:	00000013          	addi	x0,x0,0
    80000598:	00000013          	addi	x0,x0,0
    8000059c:	08000813          	addi	x16,x0,128
    800005a0:	06028193          	addi	x3,x5,96
    800005a4:	00600613          	addi	x12,x0,6
    800005a8:	40c181b3          	sub	x3,x3,x12
    800005ac:	0101a323          	sw	x16,6(x3)
    800005b0:	00000013          	addi	x0,x0,0
    800005b4:	00000013          	addi	x0,x0,0
    800005b8:	10000a93          	addi	x21,x0,256
    800005bc:	06828713          	addi	x14,x5,104
    800005c0:	eff00613          	addi	x12,x0,-257
    800005c4:	40c70733          	sub	x14,x14,x12
    800005c8:	ef572fa3          	sw	x21,-257(x14)
    800005cc:	00000013          	addi	x0,x0,0
    800005d0:	00000013          	addi	x0,x0,0
    800005d4:	20000513          	addi	x10,x0,512
    800005d8:	07028813          	addi	x16,x5,112
    800005dc:	80000613          	addi	x12,x0,-2048
    800005e0:	40c80833          	sub	x16,x16,x12
    800005e4:	80a82023          	sw	x10,-2048(x16)
    800005e8:	00000013          	addi	x0,x0,0
    800005ec:	00000013          	addi	x0,x0,0
    800005f0:	40000f93          	addi	x31,x0,1024
    800005f4:	07828693          	addi	x13,x5,120
    800005f8:	00000613          	addi	x12,x0,0
    800005fc:	40c686b3          	sub	x13,x13,x12
    80000600:	01f6a023          	sw	x31,0(x13)
    80000604:	00000013          	addi	x0,x0,0
    80000608:	00000013          	addi	x0,x0,0
    8000060c:	00100413          	addi	x8,x0,1
    80000610:	00b41413          	slli	x8,x8,0xb
    80000614:	08028513          	addi	x10,x5,128
    80000618:	fff00613          	addi	x12,x0,-1
    8000061c:	40c50533          	sub	x10,x10,x12
    80000620:	fe852fa3          	sw	x8,-1(x10)
    80000624:	00000013          	addi	x0,x0,0
    80000628:	00000013          	addi	x0,x0,0
    8000062c:	00100e13          	addi	x28,x0,1
    80000630:	00ce1e13          	slli	x28,x28,0xc
    80000634:	08828f13          	addi	x30,x5,136
    80000638:	55500613          	addi	x12,x0,1365
    8000063c:	40cf0f33          	sub	x30,x30,x12
    80000640:	55cf2aa3          	sw	x28,1365(x30)
    80000644:	00000013          	addi	x0,x0,0
    80000648:	00000013          	addi	x0,x0,0
    8000064c:	00100a13          	addi	x20,x0,1
    80000650:	00da1a13          	slli	x20,x20,0xd
    80000654:	09028493          	addi	x9,x5,144
    80000658:	08000613          	addi	x12,x0,128
    8000065c:	40c484b3          	sub	x9,x9,x12
    80000660:	0944a023          	sw	x20,128(x9)
    80000664:	00000013          	addi	x0,x0,0
    80000668:	00000013          	addi	x0,x0,0
    8000066c:	00100b93          	addi	x23,x0,1
    80000670:	00eb9b93          	slli	x23,x23,0xe
    80000674:	09828913          	addi	x18,x5,152
    80000678:	80000493          	addi	x9,x0,-2048
    8000067c:	40990933          	sub	x18,x18,x9
    80000680:	81792023          	sw	x23,-2048(x18)
    80000684:	00000013          	addi	x0,x0,0
    80000688:	00000013          	addi	x0,x0,0
    8000068c:	00000013          	addi	x0,x0,0
    80000690:	00000013          	addi	x0,x0,0
    80000694:	00000013          	addi	x0,x0,0
    80000698:	00000013          	addi	x0,x0,0
    8000069c:	00000013          	addi	x0,x0,0
    800006a0:	00003117          	auipc	x2,0x3
    800006a4:	a0810113          	addi	x2,x2,-1528 # 0x800030a8
    800006a8:	00000013          	addi	x0,x0,0
    800006ac:	00000013          	addi	x0,x0,0
    800006b0:	00000013          	addi	x0,x0,0
    800006b4:	00000013          	addi	x0,x0,0
    800006b8:	00000013          	addi	x0,x0,0
    800006bc:	00000013          	addi	x0,x0,0
    800006c0:	00100193          	addi	x3,x0,1
    800006c4:	00f19193          	slli	x3,x3,0xf
    800006c8:	00010213          	addi	x4,x2,0
    800006cc:	00500493          	addi	x9,x0,5
    800006d0:	40920233          	sub	x4,x4,x9
    800006d4:	003222a3          	sw	x3,5(x4) # 0x5
    800006d8:	00000013          	addi	x0,x0,0
    800006dc:	00000013          	addi	x0,x0,0
    800006e0:	00100613          	addi	x12,x0,1
    800006e4:	01061613          	slli	x12,x12,0x10
    800006e8:	00810413          	addi	x8,x2,8
    800006ec:	ffd00493          	addi	x9,x0,-3
    800006f0:	40940433          	sub	x8,x8,x9
    800006f4:	fec42ea3          	sw	x12,-3(x8)
    800006f8:	00000013          	addi	x0,x0,0
    800006fc:	00000013          	addi	x0,x0,0
    80000700:	00100293          	addi	x5,x0,1
    80000704:	01129293          	slli	x5,x5,0x11
    80000708:	01010c93          	addi	x25,x2,16
    8000070c:	00600493          	addi	x9,x0,6
    80000710:	409c8cb3          	sub	x25,x25,x9
    80000714:	005ca323          	sw	x5,6(x25)
    80000718:	00000013          	addi	x0,x0,0
    8000071c:	00000013          	addi	x0,x0,0
    80000720:	00100393          	addi	x7,x0,1
    80000724:	01239393          	slli	x7,x7,0x12
    80000728:	01810d93          	addi	x27,x2,24
    8000072c:	ffa00493          	addi	x9,x0,-6
    80000730:	409d8db3          	sub	x27,x27,x9
    80000734:	fe7dad23          	sw	x7,-6(x27)
    80000738:	00000013          	addi	x0,x0,0
    8000073c:	00000013          	addi	x0,x0,0
    80000740:	00000013          	addi	x0,x0,0
    80000744:	02010b13          	addi	x22,x2,32
    80000748:	00400493          	addi	x9,x0,4
    8000074c:	409b0b33          	sub	x22,x22,x9
    80000750:	000b2223          	sw	x0,4(x22)
    80000754:	00000013          	addi	x0,x0,0
    80000758:	00000013          	addi	x0,x0,0
    8000075c:	00100793          	addi	x15,x0,1
    80000760:	01479793          	slli	x15,x15,0x14
    80000764:	02810093          	addi	x1,x2,40
    80000768:	ffc00493          	addi	x9,x0,-4
    8000076c:	409080b3          	sub	x1,x1,x9
    80000770:	fef0ae23          	sw	x15,-4(x1)
    80000774:	00000013          	addi	x0,x0,0
    80000778:	00000013          	addi	x0,x0,0
    8000077c:	00100b13          	addi	x22,x0,1
    80000780:	015b1b13          	slli	x22,x22,0x15
    80000784:	03010293          	addi	x5,x2,48
    80000788:	00400493          	addi	x9,x0,4
    8000078c:	409282b3          	sub	x5,x5,x9
    80000790:	0162a223          	sw	x22,4(x5)
    80000794:	00000013          	addi	x0,x0,0
    80000798:	00000013          	addi	x0,x0,0
    8000079c:	00100c13          	addi	x24,x0,1
    800007a0:	016c1c13          	slli	x24,x24,0x16
    800007a4:	03810313          	addi	x6,x2,56
    800007a8:	00400493          	addi	x9,x0,4
    800007ac:	40930333          	sub	x6,x6,x9
    800007b0:	01832223          	sw	x24,4(x6)
    800007b4:	00000013          	addi	x0,x0,0
    800007b8:	00000013          	addi	x0,x0,0
    800007bc:	00100593          	addi	x11,x0,1
    800007c0:	01759593          	slli	x11,x11,0x17
    800007c4:	04010613          	addi	x12,x2,64
    800007c8:	bff00493          	addi	x9,x0,-1025
    800007cc:	40960633          	sub	x12,x12,x9
    800007d0:	beb62fa3          	sw	x11,-1025(x12)
    800007d4:	00000013          	addi	x0,x0,0
    800007d8:	00000013          	addi	x0,x0,0
    800007dc:	00100f13          	addi	x30,x0,1
    800007e0:	018f1f13          	slli	x30,x30,0x18
    800007e4:	04810a13          	addi	x20,x2,72
    800007e8:	00900493          	addi	x9,x0,9
    800007ec:	409a0a33          	sub	x20,x20,x9
    800007f0:	01ea24a3          	sw	x30,9(x20)
    800007f4:	00000013          	addi	x0,x0,0
    800007f8:	00000013          	addi	x0,x0,0
    800007fc:	00100913          	addi	x18,x0,1
    80000800:	01991913          	slli	x18,x18,0x19
    80000804:	05010993          	addi	x19,x2,80
    80000808:	02000493          	addi	x9,x0,32
    8000080c:	409989b3          	sub	x19,x19,x9
    80000810:	0329a023          	sw	x18,32(x19)
    80000814:	00000013          	addi	x0,x0,0
    80000818:	00000013          	addi	x0,x0,0
    8000081c:	00100693          	addi	x13,x0,1
    80000820:	01a69693          	slli	x13,x13,0x1a
    80000824:	05810393          	addi	x7,x2,88
    80000828:	00600493          	addi	x9,x0,6
    8000082c:	409383b3          	sub	x7,x7,x9
    80000830:	00d3a323          	sw	x13,6(x7)
    80000834:	00000013          	addi	x0,x0,0
    80000838:	00000013          	addi	x0,x0,0
    8000083c:	00100593          	addi	x11,x0,1
    80000840:	01b59593          	slli	x11,x11,0x1b
    80000844:	06010513          	addi	x10,x2,96
    80000848:	7ff00493          	addi	x9,x0,2047
    8000084c:	40950533          	sub	x10,x10,x9
    80000850:	7eb52fa3          	sw	x11,2047(x10)
    80000854:	00000013          	addi	x0,x0,0
    80000858:	00000013          	addi	x0,x0,0
    8000085c:	00100593          	addi	x11,x0,1
    80000860:	01c59593          	slli	x11,x11,0x1c
    80000864:	06810513          	addi	x10,x2,104
    80000868:	01000493          	addi	x9,x0,16
    8000086c:	40950533          	sub	x10,x10,x9
    80000870:	00b52823          	sw	x11,16(x10)
    80000874:	00000013          	addi	x0,x0,0
    80000878:	00000013          	addi	x0,x0,0
    8000087c:	00100593          	addi	x11,x0,1
    80000880:	01d59593          	slli	x11,x11,0x1d
    80000884:	07010513          	addi	x10,x2,112
    80000888:	00200493          	addi	x9,x0,2
    8000088c:	40950533          	sub	x10,x10,x9
    80000890:	00b52123          	sw	x11,2(x10)
    80000894:	00000013          	addi	x0,x0,0
    80000898:	00000013          	addi	x0,x0,0
    8000089c:	00100593          	addi	x11,x0,1
    800008a0:	01e59593          	slli	x11,x11,0x1e
    800008a4:	07810513          	addi	x10,x2,120
    800008a8:	80000493          	addi	x9,x0,-2048
    800008ac:	40950533          	sub	x10,x10,x9
    800008b0:	80b52023          	sw	x11,-2048(x10)
    800008b4:	00000013          	addi	x0,x0,0
    800008b8:	00000013          	addi	x0,x0,0
    800008bc:	00100593          	addi	x11,x0,1
    800008c0:	01f59593          	slli	x11,x11,0x1f
    800008c4:	08010513          	addi	x10,x2,128
    800008c8:	02000493          	addi	x9,x0,32
    800008cc:	40950533          	sub	x10,x10,x9
    800008d0:	02b52023          	sw	x11,32(x10)
    800008d4:	00000013          	addi	x0,x0,0
    800008d8:	00000013          	addi	x0,x0,0
    800008dc:	00100593          	addi	x11,x0,1
    800008e0:	02059593          	slli	x11,x11,0x20
    800008e4:	08810513          	addi	x10,x2,136
    800008e8:	c0000493          	addi	x9,x0,-1024
    800008ec:	40950533          	sub	x10,x10,x9
    800008f0:	c0b52023          	sw	x11,-1024(x10)
    800008f4:	00000013          	addi	x0,x0,0
    800008f8:	00000013          	addi	x0,x0,0
    800008fc:	00100593          	addi	x11,x0,1
    80000900:	02159593          	slli	x11,x11,0x21
    80000904:	09010513          	addi	x10,x2,144
    80000908:	fdf00493          	addi	x9,x0,-33
    8000090c:	40950533          	sub	x10,x10,x9
    80000910:	fcb52fa3          	sw	x11,-33(x10)
    80000914:	00000013          	addi	x0,x0,0
    80000918:	00000013          	addi	x0,x0,0
    8000091c:	00100593          	addi	x11,x0,1
    80000920:	02259593          	slli	x11,x11,0x22
    80000924:	09810513          	addi	x10,x2,152
    80000928:	00300493          	addi	x9,x0,3
    8000092c:	40950533          	sub	x10,x10,x9
    80000930:	00b521a3          	sw	x11,3(x10)
    80000934:	00000013          	addi	x0,x0,0
    80000938:	00000013          	addi	x0,x0,0
    8000093c:	00100593          	addi	x11,x0,1
    80000940:	02359593          	slli	x11,x11,0x23
    80000944:	0a010513          	addi	x10,x2,160
    80000948:	ffe00493          	addi	x9,x0,-2
    8000094c:	40950533          	sub	x10,x10,x9
    80000950:	feb52f23          	sw	x11,-2(x10)
    80000954:	00000013          	addi	x0,x0,0
    80000958:	00000013          	addi	x0,x0,0
    8000095c:	00100593          	addi	x11,x0,1
    80000960:	02459593          	slli	x11,x11,0x24
    80000964:	0a810513          	addi	x10,x2,168
    80000968:	fbf00493          	addi	x9,x0,-65
    8000096c:	40950533          	sub	x10,x10,x9
    80000970:	fab52fa3          	sw	x11,-65(x10)
    80000974:	00000013          	addi	x0,x0,0
    80000978:	00000013          	addi	x0,x0,0
    8000097c:	00100593          	addi	x11,x0,1
    80000980:	02559593          	slli	x11,x11,0x25
    80000984:	0b010513          	addi	x10,x2,176
    80000988:	ff600493          	addi	x9,x0,-10
    8000098c:	40950533          	sub	x10,x10,x9
    80000990:	feb52b23          	sw	x11,-10(x10)
    80000994:	00000013          	addi	x0,x0,0
    80000998:	00000013          	addi	x0,x0,0
    8000099c:	00100593          	addi	x11,x0,1
    800009a0:	02659593          	slli	x11,x11,0x26
    800009a4:	0b810513          	addi	x10,x2,184
    800009a8:	00800493          	addi	x9,x0,8
    800009ac:	40950533          	sub	x10,x10,x9
    800009b0:	00b52423          	sw	x11,8(x10)
    800009b4:	00000013          	addi	x0,x0,0
    800009b8:	00000013          	addi	x0,x0,0
    800009bc:	00100593          	addi	x11,x0,1
    800009c0:	02759593          	slli	x11,x11,0x27
    800009c4:	0c010513          	addi	x10,x2,192
    800009c8:	eff00493          	addi	x9,x0,-257
    800009cc:	40950533          	sub	x10,x10,x9
    800009d0:	eeb52fa3          	sw	x11,-257(x10)
    800009d4:	00000013          	addi	x0,x0,0
    800009d8:	00000013          	addi	x0,x0,0
    800009dc:	00100593          	addi	x11,x0,1
    800009e0:	02859593          	slli	x11,x11,0x28
    800009e4:	0c810513          	addi	x10,x2,200
    800009e8:	ff800493          	addi	x9,x0,-8
    800009ec:	40950533          	sub	x10,x10,x9
    800009f0:	feb52c23          	sw	x11,-8(x10)
    800009f4:	00000013          	addi	x0,x0,0
    800009f8:	00000013          	addi	x0,x0,0
    800009fc:	00100593          	addi	x11,x0,1
    80000a00:	02959593          	slli	x11,x11,0x29
    80000a04:	0d010513          	addi	x10,x2,208
    80000a08:	fef00493          	addi	x9,x0,-17
    80000a0c:	40950533          	sub	x10,x10,x9
    80000a10:	feb527a3          	sw	x11,-17(x10)
    80000a14:	00000013          	addi	x0,x0,0
    80000a18:	00000013          	addi	x0,x0,0
    80000a1c:	00100593          	addi	x11,x0,1
    80000a20:	02a59593          	slli	x11,x11,0x2a
    80000a24:	0d810513          	addi	x10,x2,216
    80000a28:	00600493          	addi	x9,x0,6
    80000a2c:	40950533          	sub	x10,x10,x9
    80000a30:	00b52323          	sw	x11,6(x10)
    80000a34:	00000013          	addi	x0,x0,0
    80000a38:	00000013          	addi	x0,x0,0
    80000a3c:	00100593          	addi	x11,x0,1
    80000a40:	02b59593          	slli	x11,x11,0x2b
    80000a44:	0e010513          	addi	x10,x2,224
    80000a48:	ffc00493          	addi	x9,x0,-4
    80000a4c:	40950533          	sub	x10,x10,x9
    80000a50:	feb52e23          	sw	x11,-4(x10)
    80000a54:	00000013          	addi	x0,x0,0
    80000a58:	00000013          	addi	x0,x0,0
    80000a5c:	00100593          	addi	x11,x0,1
    80000a60:	02c59593          	slli	x11,x11,0x2c
    80000a64:	0e810513          	addi	x10,x2,232
    80000a68:	fbf00493          	addi	x9,x0,-65
    80000a6c:	40950533          	sub	x10,x10,x9
    80000a70:	fab52fa3          	sw	x11,-65(x10)
    80000a74:	00000013          	addi	x0,x0,0
    80000a78:	00000013          	addi	x0,x0,0
    80000a7c:	00100593          	addi	x11,x0,1
    80000a80:	02d59593          	slli	x11,x11,0x2d
    80000a84:	0f010513          	addi	x10,x2,240
    80000a88:	bff00493          	addi	x9,x0,-1025
    80000a8c:	40950533          	sub	x10,x10,x9
    80000a90:	beb52fa3          	sw	x11,-1025(x10)
    80000a94:	00000013          	addi	x0,x0,0
    80000a98:	00000013          	addi	x0,x0,0
    80000a9c:	00100593          	addi	x11,x0,1
    80000aa0:	02e59593          	slli	x11,x11,0x2e
    80000aa4:	0f810513          	addi	x10,x2,248
    80000aa8:	bff00493          	addi	x9,x0,-1025
    80000aac:	40950533          	sub	x10,x10,x9
    80000ab0:	beb52fa3          	sw	x11,-1025(x10)
    80000ab4:	00000013          	addi	x0,x0,0
    80000ab8:	00000013          	addi	x0,x0,0
    80000abc:	00100593          	addi	x11,x0,1
    80000ac0:	02f59593          	slli	x11,x11,0x2f
    80000ac4:	10010513          	addi	x10,x2,256
    80000ac8:	c0000493          	addi	x9,x0,-1024
    80000acc:	40950533          	sub	x10,x10,x9
    80000ad0:	c0b52023          	sw	x11,-1024(x10)
    80000ad4:	00000013          	addi	x0,x0,0
    80000ad8:	00000013          	addi	x0,x0,0
    80000adc:	00100593          	addi	x11,x0,1
    80000ae0:	03059593          	slli	x11,x11,0x30
    80000ae4:	10810513          	addi	x10,x2,264
    80000ae8:	10000493          	addi	x9,x0,256
    80000aec:	40950533          	sub	x10,x10,x9
    80000af0:	10b52023          	sw	x11,256(x10)
    80000af4:	00000013          	addi	x0,x0,0
    80000af8:	00000013          	addi	x0,x0,0
    80000afc:	00100593          	addi	x11,x0,1
    80000b00:	03159593          	slli	x11,x11,0x31
    80000b04:	11010513          	addi	x10,x2,272
    80000b08:	eff00493          	addi	x9,x0,-257
    80000b0c:	40950533          	sub	x10,x10,x9
    80000b10:	eeb52fa3          	sw	x11,-257(x10)
    80000b14:	00000013          	addi	x0,x0,0
    80000b18:	00000013          	addi	x0,x0,0
    80000b1c:	00100593          	addi	x11,x0,1
    80000b20:	03259593          	slli	x11,x11,0x32
    80000b24:	11810513          	addi	x10,x2,280
    80000b28:	ff800493          	addi	x9,x0,-8
    80000b2c:	40950533          	sub	x10,x10,x9
    80000b30:	feb52c23          	sw	x11,-8(x10)
    80000b34:	00000013          	addi	x0,x0,0
    80000b38:	00000013          	addi	x0,x0,0
    80000b3c:	00100593          	addi	x11,x0,1
    80000b40:	03359593          	slli	x11,x11,0x33
    80000b44:	12010513          	addi	x10,x2,288
    80000b48:	00200493          	addi	x9,x0,2
    80000b4c:	40950533          	sub	x10,x10,x9
    80000b50:	00b52123          	sw	x11,2(x10)
    80000b54:	00000013          	addi	x0,x0,0
    80000b58:	00000013          	addi	x0,x0,0
    80000b5c:	00100593          	addi	x11,x0,1
    80000b60:	03459593          	slli	x11,x11,0x34
    80000b64:	12810513          	addi	x10,x2,296
    80000b68:	00800493          	addi	x9,x0,8
    80000b6c:	40950533          	sub	x10,x10,x9
    80000b70:	00b52423          	sw	x11,8(x10)
    80000b74:	00000013          	addi	x0,x0,0
    80000b78:	00000013          	addi	x0,x0,0
    80000b7c:	00100593          	addi	x11,x0,1
    80000b80:	03559593          	slli	x11,x11,0x35
    80000b84:	13010513          	addi	x10,x2,304
    80000b88:	01000493          	addi	x9,x0,16
    80000b8c:	40950533          	sub	x10,x10,x9
    80000b90:	00b52823          	sw	x11,16(x10)
    80000b94:	00000013          	addi	x0,x0,0
    80000b98:	00000013          	addi	x0,x0,0
    80000b9c:	00100593          	addi	x11,x0,1
    80000ba0:	03659593          	slli	x11,x11,0x36
    80000ba4:	13810513          	addi	x10,x2,312
    80000ba8:	00400493          	addi	x9,x0,4
    80000bac:	40950533          	sub	x10,x10,x9
    80000bb0:	00b52223          	sw	x11,4(x10)
    80000bb4:	00000013          	addi	x0,x0,0
    80000bb8:	00000013          	addi	x0,x0,0
    80000bbc:	00100593          	addi	x11,x0,1
    80000bc0:	03759593          	slli	x11,x11,0x37
    80000bc4:	14010513          	addi	x10,x2,320
    80000bc8:	00500493          	addi	x9,x0,5
    80000bcc:	40950533          	sub	x10,x10,x9
    80000bd0:	00b522a3          	sw	x11,5(x10)
    80000bd4:	00000013          	addi	x0,x0,0
    80000bd8:	00000013          	addi	x0,x0,0
    80000bdc:	00100593          	addi	x11,x0,1
    80000be0:	03859593          	slli	x11,x11,0x38
    80000be4:	14810513          	addi	x10,x2,328
    80000be8:	00000493          	addi	x9,x0,0
    80000bec:	40950533          	sub	x10,x10,x9
    80000bf0:	00b52023          	sw	x11,0(x10)
    80000bf4:	00000013          	addi	x0,x0,0
    80000bf8:	00000013          	addi	x0,x0,0
    80000bfc:	00100593          	addi	x11,x0,1
    80000c00:	03a59593          	slli	x11,x11,0x3a
    80000c04:	15010513          	addi	x10,x2,336
    80000c08:	ffc00493          	addi	x9,x0,-4
    80000c0c:	40950533          	sub	x10,x10,x9
    80000c10:	feb52e23          	sw	x11,-4(x10)
    80000c14:	00000013          	addi	x0,x0,0
    80000c18:	00000013          	addi	x0,x0,0
    80000c1c:	00100593          	addi	x11,x0,1
    80000c20:	03b59593          	slli	x11,x11,0x3b
    80000c24:	15810513          	addi	x10,x2,344
    80000c28:	bff00493          	addi	x9,x0,-1025
    80000c2c:	40950533          	sub	x10,x10,x9
    80000c30:	beb52fa3          	sw	x11,-1025(x10)
    80000c34:	00000013          	addi	x0,x0,0
    80000c38:	00000013          	addi	x0,x0,0
    80000c3c:	00100593          	addi	x11,x0,1
    80000c40:	03c59593          	slli	x11,x11,0x3c
    80000c44:	16010513          	addi	x10,x2,352
    80000c48:	ffd00493          	addi	x9,x0,-3
    80000c4c:	40950533          	sub	x10,x10,x9
    80000c50:	feb52ea3          	sw	x11,-3(x10)
    80000c54:	00000013          	addi	x0,x0,0
    80000c58:	00000013          	addi	x0,x0,0
    80000c5c:	00100593          	addi	x11,x0,1
    80000c60:	03d59593          	slli	x11,x11,0x3d
    80000c64:	16810513          	addi	x10,x2,360
    80000c68:	dff00493          	addi	x9,x0,-513
    80000c6c:	40950533          	sub	x10,x10,x9
    80000c70:	deb52fa3          	sw	x11,-513(x10)
    80000c74:	00000013          	addi	x0,x0,0
    80000c78:	00000013          	addi	x0,x0,0
    80000c7c:	00100593          	addi	x11,x0,1
    80000c80:	03e59593          	slli	x11,x11,0x3e
    80000c84:	17010513          	addi	x10,x2,368
    80000c88:	02000493          	addi	x9,x0,32
    80000c8c:	40950533          	sub	x10,x10,x9
    80000c90:	02b52023          	sw	x11,32(x10)
    80000c94:	00000013          	addi	x0,x0,0
    80000c98:	00000013          	addi	x0,x0,0
    80000c9c:	ffe00593          	addi	x11,x0,-2
    80000ca0:	17810513          	addi	x10,x2,376
    80000ca4:	ff700493          	addi	x9,x0,-9
    80000ca8:	40950533          	sub	x10,x10,x9
    80000cac:	feb52ba3          	sw	x11,-9(x10)
    80000cb0:	00000013          	addi	x0,x0,0
    80000cb4:	00000013          	addi	x0,x0,0
    80000cb8:	00100593          	addi	x11,x0,1
    80000cbc:	03659593          	slli	x11,x11,0x36
    80000cc0:	fff5c593          	xori	x11,x11,-1
    80000cc4:	18010513          	addi	x10,x2,384
    80000cc8:	ff900493          	addi	x9,x0,-7
    80000ccc:	40950533          	sub	x10,x10,x9
    80000cd0:	feb52ca3          	sw	x11,-7(x10)
    80000cd4:	00000013          	addi	x0,x0,0
    80000cd8:	00000013          	addi	x0,x0,0
    80000cdc:	00100593          	addi	x11,x0,1
    80000ce0:	03759593          	slli	x11,x11,0x37
    80000ce4:	fff5c593          	xori	x11,x11,-1
    80000ce8:	18810513          	addi	x10,x2,392
    80000cec:	7ff00493          	addi	x9,x0,2047
    80000cf0:	40950533          	sub	x10,x10,x9
    80000cf4:	7eb52fa3          	sw	x11,2047(x10)
    80000cf8:	00000013          	addi	x0,x0,0
    80000cfc:	00000013          	addi	x0,x0,0
    80000d00:	00100593          	addi	x11,x0,1
    80000d04:	03859593          	slli	x11,x11,0x38
    80000d08:	fff5c593          	xori	x11,x11,-1
    80000d0c:	19010513          	addi	x10,x2,400
    80000d10:	00500493          	addi	x9,x0,5
    80000d14:	40950533          	sub	x10,x10,x9
    80000d18:	00b522a3          	sw	x11,5(x10)
    80000d1c:	00000013          	addi	x0,x0,0
    80000d20:	00000013          	addi	x0,x0,0
    80000d24:	00100593          	addi	x11,x0,1
    80000d28:	03959593          	slli	x11,x11,0x39
    80000d2c:	fff5c593          	xori	x11,x11,-1
    80000d30:	19810513          	addi	x10,x2,408
    80000d34:	08000493          	addi	x9,x0,128
    80000d38:	40950533          	sub	x10,x10,x9
    80000d3c:	08b52023          	sw	x11,128(x10)
    80000d40:	00000013          	addi	x0,x0,0
    80000d44:	00000013          	addi	x0,x0,0
    80000d48:	00100593          	addi	x11,x0,1
    80000d4c:	03a59593          	slli	x11,x11,0x3a
    80000d50:	fff5c593          	xori	x11,x11,-1
    80000d54:	1a010513          	addi	x10,x2,416
    80000d58:	55500493          	addi	x9,x0,1365
    80000d5c:	40950533          	sub	x10,x10,x9
    80000d60:	54b52aa3          	sw	x11,1365(x10)
    80000d64:	00000013          	addi	x0,x0,0
    80000d68:	00000013          	addi	x0,x0,0
    80000d6c:	00100593          	addi	x11,x0,1
    80000d70:	03b59593          	slli	x11,x11,0x3b
    80000d74:	fff5c593          	xori	x11,x11,-1
    80000d78:	1a810513          	addi	x10,x2,424
    80000d7c:	40000493          	addi	x9,x0,1024
    80000d80:	40950533          	sub	x10,x10,x9
    80000d84:	40b52023          	sw	x11,1024(x10)
    80000d88:	00000013          	addi	x0,x0,0
    80000d8c:	00000013          	addi	x0,x0,0
    80000d90:	00100593          	addi	x11,x0,1
    80000d94:	03c59593          	slli	x11,x11,0x3c
    80000d98:	fff5c593          	xori	x11,x11,-1
    80000d9c:	1b010513          	addi	x10,x2,432
    80000da0:	fef00493          	addi	x9,x0,-17
    80000da4:	40950533          	sub	x10,x10,x9
    80000da8:	feb527a3          	sw	x11,-17(x10)
    80000dac:	00000013          	addi	x0,x0,0
    80000db0:	00000013          	addi	x0,x0,0
    80000db4:	00100593          	addi	x11,x0,1
    80000db8:	03d59593          	slli	x11,x11,0x3d
    80000dbc:	fff5c593          	xori	x11,x11,-1
    80000dc0:	1b810513          	addi	x10,x2,440
    80000dc4:	f7f00493          	addi	x9,x0,-129
    80000dc8:	40950533          	sub	x10,x10,x9
    80000dcc:	f6b52fa3          	sw	x11,-129(x10)
    80000dd0:	00000013          	addi	x0,x0,0
    80000dd4:	00000013          	addi	x0,x0,0
    80000dd8:	00100593          	addi	x11,x0,1
    80000ddc:	03e59593          	slli	x11,x11,0x3e
    80000de0:	fff5c593          	xori	x11,x11,-1
    80000de4:	1c010513          	addi	x10,x2,448
    80000de8:	ffc00493          	addi	x9,x0,-4
    80000dec:	40950533          	sub	x10,x10,x9
    80000df0:	feb52e23          	sw	x11,-4(x10)
    80000df4:	00000013          	addi	x0,x0,0
    80000df8:	00000013          	addi	x0,x0,0
    80000dfc:	555555b7          	lui	x11,0x55555
    80000e00:	55558593          	addi	x11,x11,1365 # 0x55555555
    80000e04:	00b59593          	slli	x11,x11,0xb
    80000e08:	2aa58593          	addi	x11,x11,682
    80000e0c:	00b59593          	slli	x11,x11,0xb
    80000e10:	55558593          	addi	x11,x11,1365
    80000e14:	00a59593          	slli	x11,x11,0xa
    80000e18:	15558593          	addi	x11,x11,341
    80000e1c:	1c810513          	addi	x10,x2,456
    80000e20:	f7f00493          	addi	x9,x0,-129
    80000e24:	40950533          	sub	x10,x10,x9
    80000e28:	f6b52fa3          	sw	x11,-129(x10)
    80000e2c:	00000013          	addi	x0,x0,0
    80000e30:	00000013          	addi	x0,x0,0
    80000e34:	aaaab5b7          	lui	x11,0xaaaab
    80000e38:	aaa58593          	addi	x11,x11,-1366 # 0xffffffffaaaaaaaa
    80000e3c:	00b59593          	slli	x11,x11,0xb
    80000e40:	55558593          	addi	x11,x11,1365
    80000e44:	00b59593          	slli	x11,x11,0xb
    80000e48:	2aa58593          	addi	x11,x11,682
    80000e4c:	00a59593          	slli	x11,x11,0xa
    80000e50:	2aa58593          	addi	x11,x11,682
    80000e54:	1d010513          	addi	x10,x2,464
    80000e58:	55500493          	addi	x9,x0,1365
    80000e5c:	40950533          	sub	x10,x10,x9
    80000e60:	54b52aa3          	sw	x11,1365(x10)
    80000e64:	00000013          	addi	x0,x0,0
    80000e68:	00000013          	addi	x0,x0,0
    80000e6c:	ffd00593          	addi	x11,x0,-3
    80000e70:	1d810513          	addi	x10,x2,472
    80000e74:	55500493          	addi	x9,x0,1365
    80000e78:	40950533          	sub	x10,x10,x9
    80000e7c:	54b52aa3          	sw	x11,1365(x10)
    80000e80:	00000013          	addi	x0,x0,0
    80000e84:	00000013          	addi	x0,x0,0
    80000e88:	ffb00593          	addi	x11,x0,-5
    80000e8c:	1e010513          	addi	x10,x2,480
    80000e90:	00500493          	addi	x9,x0,5
    80000e94:	40950533          	sub	x10,x10,x9
    80000e98:	00b522a3          	sw	x11,5(x10)
    80000e9c:	00000013          	addi	x0,x0,0
    80000ea0:	00000013          	addi	x0,x0,0
    80000ea4:	ff700593          	addi	x11,x0,-9
    80000ea8:	1e810513          	addi	x10,x2,488
    80000eac:	dff00493          	addi	x9,x0,-513
    80000eb0:	40950533          	sub	x10,x10,x9
    80000eb4:	deb52fa3          	sw	x11,-513(x10)
    80000eb8:	00000013          	addi	x0,x0,0
    80000ebc:	00000013          	addi	x0,x0,0
    80000ec0:	fef00593          	addi	x11,x0,-17
    80000ec4:	1f010513          	addi	x10,x2,496
    80000ec8:	aaa00493          	addi	x9,x0,-1366
    80000ecc:	40950533          	sub	x10,x10,x9
    80000ed0:	aab52523          	sw	x11,-1366(x10)
    80000ed4:	00000013          	addi	x0,x0,0
    80000ed8:	00000013          	addi	x0,x0,0
    80000edc:	fbf00593          	addi	x11,x0,-65
    80000ee0:	1f810513          	addi	x10,x2,504
    80000ee4:	00500493          	addi	x9,x0,5
    80000ee8:	40950533          	sub	x10,x10,x9
    80000eec:	00b522a3          	sw	x11,5(x10)
    80000ef0:	00000013          	addi	x0,x0,0
    80000ef4:	00000013          	addi	x0,x0,0
    80000ef8:	f7f00593          	addi	x11,x0,-129
    80000efc:	20010513          	addi	x10,x2,512
    80000f00:	ffe00493          	addi	x9,x0,-2
    80000f04:	40950533          	sub	x10,x10,x9
    80000f08:	feb52f23          	sw	x11,-2(x10)
    80000f0c:	00000013          	addi	x0,x0,0
    80000f10:	00000013          	addi	x0,x0,0
    80000f14:	eff00593          	addi	x11,x0,-257
    80000f18:	20810513          	addi	x10,x2,520
    80000f1c:	aaa00493          	addi	x9,x0,-1366
    80000f20:	40950533          	sub	x10,x10,x9
    80000f24:	aab52523          	sw	x11,-1366(x10)
    80000f28:	00000013          	addi	x0,x0,0
    80000f2c:	00000013          	addi	x0,x0,0
    80000f30:	dff00593          	addi	x11,x0,-513
    80000f34:	21010513          	addi	x10,x2,528
    80000f38:	00400493          	addi	x9,x0,4
    80000f3c:	40950533          	sub	x10,x10,x9
    80000f40:	00b52223          	sw	x11,4(x10)
    80000f44:	00000013          	addi	x0,x0,0
    80000f48:	00000013          	addi	x0,x0,0
    80000f4c:	bff00593          	addi	x11,x0,-1025
    80000f50:	21810513          	addi	x10,x2,536
    80000f54:	ff600493          	addi	x9,x0,-10
    80000f58:	40950533          	sub	x10,x10,x9
    80000f5c:	feb52b23          	sw	x11,-10(x10)
    80000f60:	00000013          	addi	x0,x0,0
    80000f64:	00000013          	addi	x0,x0,0
    80000f68:	00100593          	addi	x11,x0,1
    80000f6c:	00b59593          	slli	x11,x11,0xb
    80000f70:	fff5c593          	xori	x11,x11,-1
    80000f74:	22010513          	addi	x10,x2,544
    80000f78:	00200493          	addi	x9,x0,2
    80000f7c:	40950533          	sub	x10,x10,x9
    80000f80:	00b52123          	sw	x11,2(x10)
    80000f84:	00000013          	addi	x0,x0,0
    80000f88:	00000013          	addi	x0,x0,0
    80000f8c:	00100593          	addi	x11,x0,1
    80000f90:	00c59593          	slli	x11,x11,0xc
    80000f94:	fff5c593          	xori	x11,x11,-1
    80000f98:	22810513          	addi	x10,x2,552
    80000f9c:	aaa00493          	addi	x9,x0,-1366
    80000fa0:	40950533          	sub	x10,x10,x9
    80000fa4:	aab52523          	sw	x11,-1366(x10)
    80000fa8:	00000013          	addi	x0,x0,0
    80000fac:	00000013          	addi	x0,x0,0
    80000fb0:	00100593          	addi	x11,x0,1
    80000fb4:	00d59593          	slli	x11,x11,0xd
    80000fb8:	fff5c593          	xori	x11,x11,-1
    80000fbc:	23010513          	addi	x10,x2,560
    80000fc0:	04000493          	addi	x9,x0,64
    80000fc4:	40950533          	sub	x10,x10,x9
    80000fc8:	04b52023          	sw	x11,64(x10)
    80000fcc:	00000013          	addi	x0,x0,0
    80000fd0:	00000013          	addi	x0,x0,0
    80000fd4:	00100593          	addi	x11,x0,1
    80000fd8:	00e59593          	slli	x11,x11,0xe
    80000fdc:	fff5c593          	xori	x11,x11,-1
    80000fe0:	23810513          	addi	x10,x2,568
    80000fe4:	ff900493          	addi	x9,x0,-7
    80000fe8:	40950533          	sub	x10,x10,x9
    80000fec:	feb52ca3          	sw	x11,-7(x10)
    80000ff0:	00000013          	addi	x0,x0,0
    80000ff4:	00000013          	addi	x0,x0,0
    80000ff8:	00100593          	addi	x11,x0,1
    80000ffc:	00f59593          	slli	x11,x11,0xf
    80001000:	fff5c593          	xori	x11,x11,-1
    80001004:	24010513          	addi	x10,x2,576
    80001008:	fbf00493          	addi	x9,x0,-65
    8000100c:	40950533          	sub	x10,x10,x9
    80001010:	fab52fa3          	sw	x11,-65(x10)
    80001014:	00000013          	addi	x0,x0,0
    80001018:	00000013          	addi	x0,x0,0
    8000101c:	00100593          	addi	x11,x0,1
    80001020:	01059593          	slli	x11,x11,0x10
    80001024:	fff5c593          	xori	x11,x11,-1
    80001028:	24810513          	addi	x10,x2,584
    8000102c:	c0000493          	addi	x9,x0,-1024
    80001030:	40950533          	sub	x10,x10,x9
    80001034:	c0b52023          	sw	x11,-1024(x10)
    80001038:	00000013          	addi	x0,x0,0
    8000103c:	00000013          	addi	x0,x0,0
    80001040:	00100593          	addi	x11,x0,1
    80001044:	01159593          	slli	x11,x11,0x11
    80001048:	fff5c593          	xori	x11,x11,-1
    8000104c:	25010513          	addi	x10,x2,592
    80001050:	00500493          	addi	x9,x0,5
    80001054:	40950533          	sub	x10,x10,x9
    80001058:	00b522a3          	sw	x11,5(x10)
    8000105c:	00000013          	addi	x0,x0,0
    80001060:	00000013          	addi	x0,x0,0
    80001064:	00100593          	addi	x11,x0,1
    80001068:	01259593          	slli	x11,x11,0x12
    8000106c:	fff5c593          	xori	x11,x11,-1
    80001070:	25810513          	addi	x10,x2,600
    80001074:	00100493          	addi	x9,x0,1
    80001078:	40950533          	sub	x10,x10,x9
    8000107c:	00b520a3          	sw	x11,1(x10)
    80001080:	00000013          	addi	x0,x0,0
    80001084:	00000013          	addi	x0,x0,0
    80001088:	00100593          	addi	x11,x0,1
    8000108c:	01359593          	slli	x11,x11,0x13
    80001090:	fff5c593          	xori	x11,x11,-1
    80001094:	26010513          	addi	x10,x2,608
    80001098:	aaa00493          	addi	x9,x0,-1366
    8000109c:	40950533          	sub	x10,x10,x9
    800010a0:	aab52523          	sw	x11,-1366(x10)
    800010a4:	00000013          	addi	x0,x0,0
    800010a8:	00000013          	addi	x0,x0,0
    800010ac:	00100593          	addi	x11,x0,1
    800010b0:	01459593          	slli	x11,x11,0x14
    800010b4:	fff5c593          	xori	x11,x11,-1
    800010b8:	26810513          	addi	x10,x2,616
    800010bc:	20000493          	addi	x9,x0,512
    800010c0:	40950533          	sub	x10,x10,x9
    800010c4:	20b52023          	sw	x11,512(x10)
    800010c8:	00000013          	addi	x0,x0,0
    800010cc:	00000013          	addi	x0,x0,0
    800010d0:	00100593          	addi	x11,x0,1
    800010d4:	01559593          	slli	x11,x11,0x15
    800010d8:	fff5c593          	xori	x11,x11,-1
    800010dc:	27010513          	addi	x10,x2,624
    800010e0:	ffd00493          	addi	x9,x0,-3
    800010e4:	40950533          	sub	x10,x10,x9
    800010e8:	feb52ea3          	sw	x11,-3(x10)
    800010ec:	00000013          	addi	x0,x0,0
    800010f0:	00000013          	addi	x0,x0,0
    800010f4:	00100593          	addi	x11,x0,1
    800010f8:	01659593          	slli	x11,x11,0x16
    800010fc:	fff5c593          	xori	x11,x11,-1
    80001100:	27810513          	addi	x10,x2,632
    80001104:	00400493          	addi	x9,x0,4
    80001108:	40950533          	sub	x10,x10,x9
    8000110c:	00b52223          	sw	x11,4(x10)
    80001110:	00000013          	addi	x0,x0,0
    80001114:	00000013          	addi	x0,x0,0
    80001118:	00100593          	addi	x11,x0,1
    8000111c:	01759593          	slli	x11,x11,0x17
    80001120:	fff5c593          	xori	x11,x11,-1
    80001124:	28010513          	addi	x10,x2,640
    80001128:	ffc00493          	addi	x9,x0,-4
    8000112c:	40950533          	sub	x10,x10,x9
    80001130:	feb52e23          	sw	x11,-4(x10)
    80001134:	00000013          	addi	x0,x0,0
    80001138:	00000013          	addi	x0,x0,0
    8000113c:	00100593          	addi	x11,x0,1
    80001140:	01859593          	slli	x11,x11,0x18
    80001144:	fff5c593          	xori	x11,x11,-1
    80001148:	28810513          	addi	x10,x2,648
    8000114c:	00700493          	addi	x9,x0,7
    80001150:	40950533          	sub	x10,x10,x9
    80001154:	00b523a3          	sw	x11,7(x10)
    80001158:	00000013          	addi	x0,x0,0
    8000115c:	00000013          	addi	x0,x0,0
    80001160:	00100593          	addi	x11,x0,1
    80001164:	01959593          	slli	x11,x11,0x19
    80001168:	fff5c593          	xori	x11,x11,-1
    8000116c:	29010513          	addi	x10,x2,656
    80001170:	ffd00493          	addi	x9,x0,-3
    80001174:	40950533          	sub	x10,x10,x9
    80001178:	feb52ea3          	sw	x11,-3(x10)
    8000117c:	00000013          	addi	x0,x0,0
    80001180:	00000013          	addi	x0,x0,0
    80001184:	00100593          	addi	x11,x0,1
    80001188:	01a59593          	slli	x11,x11,0x1a
    8000118c:	fff5c593          	xori	x11,x11,-1
    80001190:	29810513          	addi	x10,x2,664
    80001194:	ffb00493          	addi	x9,x0,-5
    80001198:	40950533          	sub	x10,x10,x9
    8000119c:	feb52da3          	sw	x11,-5(x10)
    800011a0:	00000013          	addi	x0,x0,0
    800011a4:	00000013          	addi	x0,x0,0
    800011a8:	00100593          	addi	x11,x0,1
    800011ac:	01b59593          	slli	x11,x11,0x1b
    800011b0:	fff5c593          	xori	x11,x11,-1
    800011b4:	2a010513          	addi	x10,x2,672
    800011b8:	dff00493          	addi	x9,x0,-513
    800011bc:	40950533          	sub	x10,x10,x9
    800011c0:	deb52fa3          	sw	x11,-513(x10)
    800011c4:	00000013          	addi	x0,x0,0
    800011c8:	00000013          	addi	x0,x0,0
    800011cc:	00100593          	addi	x11,x0,1
    800011d0:	01c59593          	slli	x11,x11,0x1c
    800011d4:	fff5c593          	xori	x11,x11,-1
    800011d8:	2a810513          	addi	x10,x2,680
    800011dc:	fbf00493          	addi	x9,x0,-65
    800011e0:	40950533          	sub	x10,x10,x9
    800011e4:	fab52fa3          	sw	x11,-65(x10)
    800011e8:	00000013          	addi	x0,x0,0
    800011ec:	00000013          	addi	x0,x0,0
    800011f0:	00100593          	addi	x11,x0,1
    800011f4:	01d59593          	slli	x11,x11,0x1d
    800011f8:	fff5c593          	xori	x11,x11,-1
    800011fc:	2b010513          	addi	x10,x2,688
    80001200:	aaa00493          	addi	x9,x0,-1366
    80001204:	40950533          	sub	x10,x10,x9
    80001208:	aab52523          	sw	x11,-1366(x10)
    8000120c:	00000013          	addi	x0,x0,0
    80001210:	00000013          	addi	x0,x0,0
    80001214:	00100593          	addi	x11,x0,1
    80001218:	01e59593          	slli	x11,x11,0x1e
    8000121c:	fff5c593          	xori	x11,x11,-1
    80001220:	2b810513          	addi	x10,x2,696
    80001224:	20000493          	addi	x9,x0,512
    80001228:	40950533          	sub	x10,x10,x9
    8000122c:	20b52023          	sw	x11,512(x10)
    80001230:	00000013          	addi	x0,x0,0
    80001234:	00000013          	addi	x0,x0,0
    80001238:	00100593          	addi	x11,x0,1
    8000123c:	01f59593          	slli	x11,x11,0x1f
    80001240:	fff5c593          	xori	x11,x11,-1
    80001244:	2c010513          	addi	x10,x2,704
    80001248:	3ff00493          	addi	x9,x0,1023
    8000124c:	40950533          	sub	x10,x10,x9
    80001250:	3eb52fa3          	sw	x11,1023(x10)
    80001254:	00000013          	addi	x0,x0,0
    80001258:	00000013          	addi	x0,x0,0
    8000125c:	00100593          	addi	x11,x0,1
    80001260:	02059593          	slli	x11,x11,0x20
    80001264:	fff5c593          	xori	x11,x11,-1
    80001268:	2c810513          	addi	x10,x2,712
    8000126c:	dff00493          	addi	x9,x0,-513
    80001270:	40950533          	sub	x10,x10,x9
    80001274:	deb52fa3          	sw	x11,-513(x10)
    80001278:	00000013          	addi	x0,x0,0
    8000127c:	00000013          	addi	x0,x0,0
    80001280:	00100593          	addi	x11,x0,1
    80001284:	02159593          	slli	x11,x11,0x21
    80001288:	fff5c593          	xori	x11,x11,-1
    8000128c:	2d010513          	addi	x10,x2,720
    80001290:	7ff00493          	addi	x9,x0,2047
    80001294:	40950533          	sub	x10,x10,x9
    80001298:	7eb52fa3          	sw	x11,2047(x10)
    8000129c:	00000013          	addi	x0,x0,0
    800012a0:	00000013          	addi	x0,x0,0
    800012a4:	00100593          	addi	x11,x0,1
    800012a8:	02259593          	slli	x11,x11,0x22
    800012ac:	fff5c593          	xori	x11,x11,-1
    800012b0:	2d810513          	addi	x10,x2,728
    800012b4:	00800493          	addi	x9,x0,8
    800012b8:	40950533          	sub	x10,x10,x9
    800012bc:	00b52423          	sw	x11,8(x10)
    800012c0:	00000013          	addi	x0,x0,0
    800012c4:	00000013          	addi	x0,x0,0
    800012c8:	00100593          	addi	x11,x0,1
    800012cc:	02359593          	slli	x11,x11,0x23
    800012d0:	fff5c593          	xori	x11,x11,-1
    800012d4:	2e010513          	addi	x10,x2,736
    800012d8:	ff900493          	addi	x9,x0,-7
    800012dc:	40950533          	sub	x10,x10,x9
    800012e0:	feb52ca3          	sw	x11,-7(x10)
    800012e4:	00000013          	addi	x0,x0,0
    800012e8:	00000013          	addi	x0,x0,0
    800012ec:	00100593          	addi	x11,x0,1
    800012f0:	02459593          	slli	x11,x11,0x24
    800012f4:	fff5c593          	xori	x11,x11,-1
    800012f8:	2e810513          	addi	x10,x2,744
    800012fc:	01000493          	addi	x9,x0,16
    80001300:	40950533          	sub	x10,x10,x9
    80001304:	00b52823          	sw	x11,16(x10)
    80001308:	00000013          	addi	x0,x0,0
    8000130c:	00000013          	addi	x0,x0,0
    80001310:	00100593          	addi	x11,x0,1
    80001314:	02559593          	slli	x11,x11,0x25
    80001318:	fff5c593          	xori	x11,x11,-1
    8000131c:	2f010513          	addi	x10,x2,752
    80001320:	10000493          	addi	x9,x0,256
    80001324:	40950533          	sub	x10,x10,x9
    80001328:	10b52023          	sw	x11,256(x10)
    8000132c:	00000013          	addi	x0,x0,0
    80001330:	00000013          	addi	x0,x0,0
    80001334:	00100593          	addi	x11,x0,1
    80001338:	02659593          	slli	x11,x11,0x26
    8000133c:	fff5c593          	xori	x11,x11,-1
    80001340:	2f810513          	addi	x10,x2,760
    80001344:	ffb00493          	addi	x9,x0,-5
    80001348:	40950533          	sub	x10,x10,x9
    8000134c:	feb52da3          	sw	x11,-5(x10)
    80001350:	00000013          	addi	x0,x0,0
    80001354:	00000013          	addi	x0,x0,0
    80001358:	00100593          	addi	x11,x0,1
    8000135c:	02759593          	slli	x11,x11,0x27
    80001360:	fff5c593          	xori	x11,x11,-1
    80001364:	30010513          	addi	x10,x2,768
    80001368:	40000493          	addi	x9,x0,1024
    8000136c:	40950533          	sub	x10,x10,x9
    80001370:	40b52023          	sw	x11,1024(x10)
    80001374:	00000013          	addi	x0,x0,0
    80001378:	00000013          	addi	x0,x0,0
    8000137c:	00100593          	addi	x11,x0,1
    80001380:	02859593          	slli	x11,x11,0x28
    80001384:	fff5c593          	xori	x11,x11,-1
    80001388:	30810513          	addi	x10,x2,776
    8000138c:	ffc00493          	addi	x9,x0,-4
    80001390:	40950533          	sub	x10,x10,x9
    80001394:	feb52e23          	sw	x11,-4(x10)
    80001398:	00000013          	addi	x0,x0,0
    8000139c:	00000013          	addi	x0,x0,0
    800013a0:	00100593          	addi	x11,x0,1
    800013a4:	02959593          	slli	x11,x11,0x29
    800013a8:	fff5c593          	xori	x11,x11,-1
    800013ac:	31010513          	addi	x10,x2,784
    800013b0:	00200493          	addi	x9,x0,2
    800013b4:	40950533          	sub	x10,x10,x9
    800013b8:	00b52123          	sw	x11,2(x10)
    800013bc:	00000013          	addi	x0,x0,0
    800013c0:	00000013          	addi	x0,x0,0
    800013c4:	00100593          	addi	x11,x0,1
    800013c8:	02a59593          	slli	x11,x11,0x2a
    800013cc:	fff5c593          	xori	x11,x11,-1
    800013d0:	31810513          	addi	x10,x2,792
    800013d4:	08000493          	addi	x9,x0,128
    800013d8:	40950533          	sub	x10,x10,x9
    800013dc:	08b52023          	sw	x11,128(x10)
    800013e0:	00000013          	addi	x0,x0,0
    800013e4:	00000013          	addi	x0,x0,0
    800013e8:	00100593          	addi	x11,x0,1
    800013ec:	02b59593          	slli	x11,x11,0x2b
    800013f0:	fff5c593          	xori	x11,x11,-1
    800013f4:	32010513          	addi	x10,x2,800
    800013f8:	c0000493          	addi	x9,x0,-1024
    800013fc:	40950533          	sub	x10,x10,x9
    80001400:	c0b52023          	sw	x11,-1024(x10)
    80001404:	00000013          	addi	x0,x0,0
    80001408:	00000013          	addi	x0,x0,0
    8000140c:	00100593          	addi	x11,x0,1
    80001410:	02c59593          	slli	x11,x11,0x2c
    80001414:	fff5c593          	xori	x11,x11,-1
    80001418:	32810513          	addi	x10,x2,808
    8000141c:	00100493          	addi	x9,x0,1
    80001420:	40950533          	sub	x10,x10,x9
    80001424:	00b520a3          	sw	x11,1(x10)
    80001428:	00000013          	addi	x0,x0,0
    8000142c:	00000013          	addi	x0,x0,0
    80001430:	00100593          	addi	x11,x0,1
    80001434:	02d59593          	slli	x11,x11,0x2d
    80001438:	fff5c593          	xori	x11,x11,-1
    8000143c:	33010513          	addi	x10,x2,816
    80001440:	fff00493          	addi	x9,x0,-1
    80001444:	40950533          	sub	x10,x10,x9
    80001448:	feb52fa3          	sw	x11,-1(x10)
    8000144c:	00000013          	addi	x0,x0,0
    80001450:	00000013          	addi	x0,x0,0
    80001454:	00100593          	addi	x11,x0,1
    80001458:	02e59593          	slli	x11,x11,0x2e
    8000145c:	fff5c593          	xori	x11,x11,-1
    80001460:	33810513          	addi	x10,x2,824
    80001464:	ffd00493          	addi	x9,x0,-3
    80001468:	40950533          	sub	x10,x10,x9
    8000146c:	feb52ea3          	sw	x11,-3(x10)
    80001470:	00000013          	addi	x0,x0,0
    80001474:	00000013          	addi	x0,x0,0
    80001478:	00100593          	addi	x11,x0,1
    8000147c:	02f59593          	slli	x11,x11,0x2f
    80001480:	fff5c593          	xori	x11,x11,-1
    80001484:	34010513          	addi	x10,x2,832
    80001488:	00900493          	addi	x9,x0,9
    8000148c:	40950533          	sub	x10,x10,x9
    80001490:	00b524a3          	sw	x11,9(x10)
    80001494:	00000013          	addi	x0,x0,0
    80001498:	00000013          	addi	x0,x0,0
    8000149c:	00100593          	addi	x11,x0,1
    800014a0:	03059593          	slli	x11,x11,0x30
    800014a4:	fff5c593          	xori	x11,x11,-1
    800014a8:	34810513          	addi	x10,x2,840
    800014ac:	ffd00493          	addi	x9,x0,-3
    800014b0:	40950533          	sub	x10,x10,x9
    800014b4:	feb52ea3          	sw	x11,-3(x10)
    800014b8:	00000013          	addi	x0,x0,0
    800014bc:	00000013          	addi	x0,x0,0
    800014c0:	00100593          	addi	x11,x0,1
    800014c4:	03159593          	slli	x11,x11,0x31
    800014c8:	fff5c593          	xori	x11,x11,-1
    800014cc:	35010513          	addi	x10,x2,848
    800014d0:	01000493          	addi	x9,x0,16
    800014d4:	40950533          	sub	x10,x10,x9
    800014d8:	00b52823          	sw	x11,16(x10)
    800014dc:	00000013          	addi	x0,x0,0
    800014e0:	00000013          	addi	x0,x0,0
    800014e4:	00100593          	addi	x11,x0,1
    800014e8:	03259593          	slli	x11,x11,0x32
    800014ec:	fff5c593          	xori	x11,x11,-1
    800014f0:	35810513          	addi	x10,x2,856
    800014f4:	00300493          	addi	x9,x0,3
    800014f8:	40950533          	sub	x10,x10,x9
    800014fc:	00b521a3          	sw	x11,3(x10)
    80001500:	00000013          	addi	x0,x0,0
    80001504:	00000013          	addi	x0,x0,0
    80001508:	00100593          	addi	x11,x0,1
    8000150c:	03359593          	slli	x11,x11,0x33
    80001510:	fff5c593          	xori	x11,x11,-1
    80001514:	36010513          	addi	x10,x2,864
    80001518:	00700493          	addi	x9,x0,7
    8000151c:	40950533          	sub	x10,x10,x9
    80001520:	00b523a3          	sw	x11,7(x10)
    80001524:	00000013          	addi	x0,x0,0
    80001528:	00000013          	addi	x0,x0,0
    8000152c:	00100593          	addi	x11,x0,1
    80001530:	03459593          	slli	x11,x11,0x34
    80001534:	fff5c593          	xori	x11,x11,-1
    80001538:	36810513          	addi	x10,x2,872
    8000153c:	f7f00493          	addi	x9,x0,-129
    80001540:	40950533          	sub	x10,x10,x9
    80001544:	f6b52fa3          	sw	x11,-129(x10)
    80001548:	00000013          	addi	x0,x0,0
    8000154c:	00000013          	addi	x0,x0,0
    80001550:	00100593          	addi	x11,x0,1
    80001554:	03559593          	slli	x11,x11,0x35
    80001558:	fff5c593          	xori	x11,x11,-1
    8000155c:	37010513          	addi	x10,x2,880
    80001560:	00200493          	addi	x9,x0,2
    80001564:	40950533          	sub	x10,x10,x9
    80001568:	00b52123          	sw	x11,2(x10)
    8000156c:	00000013          	addi	x0,x0,0
    80001570:	00000013          	addi	x0,x0,0
    80001574:	00100593          	addi	x11,x0,1
    80001578:	01359593          	slli	x11,x11,0x13
    8000157c:	37810513          	addi	x10,x2,888
    80001580:	00400493          	addi	x9,x0,4
    80001584:	40950533          	sub	x10,x10,x9
    80001588:	00b52223          	sw	x11,4(x10)
    8000158c:	00000013          	addi	x0,x0,0
    80001590:	00000013          	addi	x0,x0,0
    80001594:	0380006f          	jal	x0,0x800015cc
    80001598:	1f813483          	ld	x9,504(x2)
    8000159c:	20013303          	ld	x6,512(x2)
    800015a0:	00930333          	add	x6,x6,x9
    800015a4:	00000337          	lui	x6,0x0
    800015a8:	00030313          	addi	x6,x6,0 # 0x0
    800015ac:	00b31313          	slli	x6,x6,0xb
    800015b0:	5d630313          	addi	x6,x6,1494
    800015b4:	00b31313          	slli	x6,x6,0xb
    800015b8:	43630313          	addi	x6,x6,1078
    800015bc:	00a31313          	slli	x6,x6,0xa
    800015c0:	2d030313          	addi	x6,x6,720
    800015c4:	fe64be23          	sd	x6,-4(x9)
    800015c8:	0040006f          	jal	x0,0x800015cc
    800015cc:	00000513          	addi	x10,x0,0
    800015d0:	0240006f          	jal	x0,0x800015f4
	...
    800015f4:	00050513          	addi	x10,x10,0
    800015f8:	00100073          	ebreak
    800015fc:	0000006f          	jal	x0,0x800015fc
    80001600:	ff010113          	addi	x2,x2,-16
    80001604:	00000517          	auipc	x10,0x0
    80001608:	01c50513          	addi	x10,x10,28 # 0x80001620
    8000160c:	00113423          	sd	x1,8(x2)
    80001610:	a01fe0ef          	jal	x1,0x80000010
    80001614:	00050513          	addi	x10,x10,0
    80001618:	00100073          	ebreak
    8000161c:	0000006f          	jal	x0,0x8000161c
	...
    80002000:	cafe                	c.swsp	x31,84(x2)
    80002002:	babe                	c.fsdsp	f15,368(x2)
    80002004:	cafe                	c.swsp	x31,84(x2)
    80002006:	babe                	c.fsdsp	f15,368(x2)
    80002008:	cafe                	c.swsp	x31,84(x2)
    8000200a:	babe                	c.fsdsp	f15,368(x2)
    8000200c:	cafe                	c.swsp	x31,84(x2)
    8000200e:	babe                	c.fsdsp	f15,368(x2)
    80002010:	deadbeef          	jal	x29,0x7ffdd5fa
    80002014:	deadbeef          	jal	x29,0x7ffdd5fe
	...
    80003000:	b281                	c.j	0x80002940
    80003002:	e7d4                	c.sd	x13,136(x15)
    80003004:	a309                	c.j	0x80003506
    80003006:	6f5c                	c.ld	x15,152(x14)
    80003008:	deadbeef          	jal	x29,0x7ffde5f2
    8000300c:	deadbeef          	jal	x29,0x7ffde5f6
    80003010:	deadbeef          	jal	x29,0x7ffde5fa
    80003014:	deadbeef          	jal	x29,0x7ffde5fe
    80003018:	deadbeef          	jal	x29,0x7ffde602
    8000301c:	deadbeef          	jal	x29,0x7ffde606
    80003020:	deadbeef          	jal	x29,0x7ffde60a
    80003024:	deadbeef          	jal	x29,0x7ffde60e
    80003028:	deadbeef          	jal	x29,0x7ffde612
    8000302c:	deadbeef          	jal	x29,0x7ffde616
    80003030:	deadbeef          	jal	x29,0x7ffde61a
    80003034:	deadbeef          	jal	x29,0x7ffde61e
    80003038:	deadbeef          	jal	x29,0x7ffde622
    8000303c:	deadbeef          	jal	x29,0x7ffde626
    80003040:	deadbeef          	jal	x29,0x7ffde62a
    80003044:	deadbeef          	jal	x29,0x7ffde62e
    80003048:	deadbeef          	jal	x29,0x7ffde632
    8000304c:	deadbeef          	jal	x29,0x7ffde636
    80003050:	deadbeef          	jal	x29,0x7ffde63a
    80003054:	deadbeef          	jal	x29,0x7ffde63e
    80003058:	deadbeef          	jal	x29,0x7ffde642
    8000305c:	deadbeef          	jal	x29,0x7ffde646
    80003060:	deadbeef          	jal	x29,0x7ffde64a
    80003064:	deadbeef          	jal	x29,0x7ffde64e
    80003068:	deadbeef          	jal	x29,0x7ffde652
    8000306c:	deadbeef          	jal	x29,0x7ffde656
    80003070:	deadbeef          	jal	x29,0x7ffde65a
    80003074:	deadbeef          	jal	x29,0x7ffde65e
    80003078:	deadbeef          	jal	x29,0x7ffde662
    8000307c:	deadbeef          	jal	x29,0x7ffde666
    80003080:	deadbeef          	jal	x29,0x7ffde66a
    80003084:	deadbeef          	jal	x29,0x7ffde66e
    80003088:	deadbeef          	jal	x29,0x7ffde672
    8000308c:	deadbeef          	jal	x29,0x7ffde676
    80003090:	deadbeef          	jal	x29,0x7ffde67a
    80003094:	deadbeef          	jal	x29,0x7ffde67e
    80003098:	deadbeef          	jal	x29,0x7ffde682
    8000309c:	deadbeef          	jal	x29,0x7ffde686
    800030a0:	deadbeef          	jal	x29,0x7ffde68a
    800030a4:	deadbeef          	jal	x29,0x7ffde68e
    800030a8:	deadbeef          	jal	x29,0x7ffde692
    800030ac:	deadbeef          	jal	x29,0x7ffde696
    800030b0:	deadbeef          	jal	x29,0x7ffde69a
    800030b4:	deadbeef          	jal	x29,0x7ffde69e
    800030b8:	deadbeef          	jal	x29,0x7ffde6a2
    800030bc:	deadbeef          	jal	x29,0x7ffde6a6
    800030c0:	deadbeef          	jal	x29,0x7ffde6aa
    800030c4:	deadbeef          	jal	x29,0x7ffde6ae
    800030c8:	deadbeef          	jal	x29,0x7ffde6b2
    800030cc:	deadbeef          	jal	x29,0x7ffde6b6
    800030d0:	deadbeef          	jal	x29,0x7ffde6ba
    800030d4:	deadbeef          	jal	x29,0x7ffde6be
    800030d8:	deadbeef          	jal	x29,0x7ffde6c2
    800030dc:	deadbeef          	jal	x29,0x7ffde6c6
    800030e0:	deadbeef          	jal	x29,0x7ffde6ca
    800030e4:	deadbeef          	jal	x29,0x7ffde6ce
    800030e8:	deadbeef          	jal	x29,0x7ffde6d2
    800030ec:	deadbeef          	jal	x29,0x7ffde6d6
    800030f0:	deadbeef          	jal	x29,0x7ffde6da
    800030f4:	deadbeef          	jal	x29,0x7ffde6de
    800030f8:	deadbeef          	jal	x29,0x7ffde6e2
    800030fc:	deadbeef          	jal	x29,0x7ffde6e6
    80003100:	deadbeef          	jal	x29,0x7ffde6ea
    80003104:	deadbeef          	jal	x29,0x7ffde6ee
    80003108:	deadbeef          	jal	x29,0x7ffde6f2
    8000310c:	deadbeef          	jal	x29,0x7ffde6f6
    80003110:	deadbeef          	jal	x29,0x7ffde6fa
    80003114:	deadbeef          	jal	x29,0x7ffde6fe
    80003118:	deadbeef          	jal	x29,0x7ffde702
    8000311c:	deadbeef          	jal	x29,0x7ffde706
    80003120:	deadbeef          	jal	x29,0x7ffde70a
    80003124:	deadbeef          	jal	x29,0x7ffde70e
    80003128:	deadbeef          	jal	x29,0x7ffde712
    8000312c:	deadbeef          	jal	x29,0x7ffde716
    80003130:	deadbeef          	jal	x29,0x7ffde71a
    80003134:	deadbeef          	jal	x29,0x7ffde71e
    80003138:	deadbeef          	jal	x29,0x7ffde722
    8000313c:	deadbeef          	jal	x29,0x7ffde726
    80003140:	deadbeef          	jal	x29,0x7ffde72a
    80003144:	deadbeef          	jal	x29,0x7ffde72e
    80003148:	deadbeef          	jal	x29,0x7ffde732
    8000314c:	deadbeef          	jal	x29,0x7ffde736
    80003150:	deadbeef          	jal	x29,0x7ffde73a
    80003154:	deadbeef          	jal	x29,0x7ffde73e
    80003158:	deadbeef          	jal	x29,0x7ffde742
    8000315c:	deadbeef          	jal	x29,0x7ffde746
    80003160:	deadbeef          	jal	x29,0x7ffde74a
    80003164:	deadbeef          	jal	x29,0x7ffde74e
    80003168:	deadbeef          	jal	x29,0x7ffde752
    8000316c:	deadbeef          	jal	x29,0x7ffde756
    80003170:	deadbeef          	jal	x29,0x7ffde75a
    80003174:	deadbeef          	jal	x29,0x7ffde75e
    80003178:	deadbeef          	jal	x29,0x7ffde762
    8000317c:	deadbeef          	jal	x29,0x7ffde766
    80003180:	deadbeef          	jal	x29,0x7ffde76a
    80003184:	deadbeef          	jal	x29,0x7ffde76e
    80003188:	deadbeef          	jal	x29,0x7ffde772
    8000318c:	deadbeef          	jal	x29,0x7ffde776
    80003190:	deadbeef          	jal	x29,0x7ffde77a
    80003194:	deadbeef          	jal	x29,0x7ffde77e
    80003198:	deadbeef          	jal	x29,0x7ffde782
    8000319c:	deadbeef          	jal	x29,0x7ffde786
    800031a0:	deadbeef          	jal	x29,0x7ffde78a
    800031a4:	deadbeef          	jal	x29,0x7ffde78e
    800031a8:	deadbeef          	jal	x29,0x7ffde792
    800031ac:	deadbeef          	jal	x29,0x7ffde796
    800031b0:	deadbeef          	jal	x29,0x7ffde79a
    800031b4:	deadbeef          	jal	x29,0x7ffde79e
    800031b8:	deadbeef          	jal	x29,0x7ffde7a2
    800031bc:	deadbeef          	jal	x29,0x7ffde7a6
    800031c0:	deadbeef          	jal	x29,0x7ffde7aa
    800031c4:	deadbeef          	jal	x29,0x7ffde7ae
    800031c8:	deadbeef          	jal	x29,0x7ffde7b2
    800031cc:	deadbeef          	jal	x29,0x7ffde7b6
    800031d0:	deadbeef          	jal	x29,0x7ffde7ba
    800031d4:	deadbeef          	jal	x29,0x7ffde7be
    800031d8:	deadbeef          	jal	x29,0x7ffde7c2
    800031dc:	deadbeef          	jal	x29,0x7ffde7c6
    800031e0:	deadbeef          	jal	x29,0x7ffde7ca
    800031e4:	deadbeef          	jal	x29,0x7ffde7ce
    800031e8:	deadbeef          	jal	x29,0x7ffde7d2
    800031ec:	deadbeef          	jal	x29,0x7ffde7d6
    800031f0:	deadbeef          	jal	x29,0x7ffde7da
    800031f4:	deadbeef          	jal	x29,0x7ffde7de
    800031f8:	deadbeef          	jal	x29,0x7ffde7e2
    800031fc:	deadbeef          	jal	x29,0x7ffde7e6
    80003200:	deadbeef          	jal	x29,0x7ffde7ea
    80003204:	deadbeef          	jal	x29,0x7ffde7ee
    80003208:	deadbeef          	jal	x29,0x7ffde7f2
    8000320c:	deadbeef          	jal	x29,0x7ffde7f6
    80003210:	deadbeef          	jal	x29,0x7ffde7fa
    80003214:	deadbeef          	jal	x29,0x7ffde7fe
    80003218:	deadbeef          	jal	x29,0x7ffde802
    8000321c:	deadbeef          	jal	x29,0x7ffde806
    80003220:	deadbeef          	jal	x29,0x7ffde80a
    80003224:	deadbeef          	jal	x29,0x7ffde80e
    80003228:	deadbeef          	jal	x29,0x7ffde812
    8000322c:	deadbeef          	jal	x29,0x7ffde816
    80003230:	deadbeef          	jal	x29,0x7ffde81a
    80003234:	deadbeef          	jal	x29,0x7ffde81e
    80003238:	deadbeef          	jal	x29,0x7ffde822
    8000323c:	deadbeef          	jal	x29,0x7ffde826
    80003240:	deadbeef          	jal	x29,0x7ffde82a
    80003244:	deadbeef          	jal	x29,0x7ffde82e
    80003248:	deadbeef          	jal	x29,0x7ffde832
    8000324c:	deadbeef          	jal	x29,0x7ffde836
    80003250:	deadbeef          	jal	x29,0x7ffde83a
    80003254:	deadbeef          	jal	x29,0x7ffde83e
    80003258:	deadbeef          	jal	x29,0x7ffde842
    8000325c:	deadbeef          	jal	x29,0x7ffde846
    80003260:	deadbeef          	jal	x29,0x7ffde84a
    80003264:	deadbeef          	jal	x29,0x7ffde84e
    80003268:	deadbeef          	jal	x29,0x7ffde852
    8000326c:	deadbeef          	jal	x29,0x7ffde856
    80003270:	deadbeef          	jal	x29,0x7ffde85a
    80003274:	deadbeef          	jal	x29,0x7ffde85e
    80003278:	deadbeef          	jal	x29,0x7ffde862
    8000327c:	deadbeef          	jal	x29,0x7ffde866
    80003280:	deadbeef          	jal	x29,0x7ffde86a
    80003284:	deadbeef          	jal	x29,0x7ffde86e
    80003288:	deadbeef          	jal	x29,0x7ffde872
    8000328c:	deadbeef          	jal	x29,0x7ffde876
    80003290:	deadbeef          	jal	x29,0x7ffde87a
    80003294:	deadbeef          	jal	x29,0x7ffde87e
    80003298:	deadbeef          	jal	x29,0x7ffde882
    8000329c:	deadbeef          	jal	x29,0x7ffde886
    800032a0:	deadbeef          	jal	x29,0x7ffde88a
    800032a4:	deadbeef          	jal	x29,0x7ffde88e
    800032a8:	deadbeef          	jal	x29,0x7ffde892
    800032ac:	deadbeef          	jal	x29,0x7ffde896
    800032b0:	deadbeef          	jal	x29,0x7ffde89a
    800032b4:	deadbeef          	jal	x29,0x7ffde89e
    800032b8:	deadbeef          	jal	x29,0x7ffde8a2
    800032bc:	deadbeef          	jal	x29,0x7ffde8a6
    800032c0:	deadbeef          	jal	x29,0x7ffde8aa
    800032c4:	deadbeef          	jal	x29,0x7ffde8ae
    800032c8:	deadbeef          	jal	x29,0x7ffde8b2
    800032cc:	deadbeef          	jal	x29,0x7ffde8b6
    800032d0:	deadbeef          	jal	x29,0x7ffde8ba
    800032d4:	deadbeef          	jal	x29,0x7ffde8be
    800032d8:	deadbeef          	jal	x29,0x7ffde8c2
    800032dc:	deadbeef          	jal	x29,0x7ffde8c6
    800032e0:	deadbeef          	jal	x29,0x7ffde8ca
    800032e4:	deadbeef          	jal	x29,0x7ffde8ce
    800032e8:	deadbeef          	jal	x29,0x7ffde8d2
    800032ec:	deadbeef          	jal	x29,0x7ffde8d6
    800032f0:	deadbeef          	jal	x29,0x7ffde8da
    800032f4:	deadbeef          	jal	x29,0x7ffde8de
    800032f8:	deadbeef          	jal	x29,0x7ffde8e2
    800032fc:	deadbeef          	jal	x29,0x7ffde8e6
    80003300:	deadbeef          	jal	x29,0x7ffde8ea
    80003304:	deadbeef          	jal	x29,0x7ffde8ee
    80003308:	deadbeef          	jal	x29,0x7ffde8f2
    8000330c:	deadbeef          	jal	x29,0x7ffde8f6
    80003310:	deadbeef          	jal	x29,0x7ffde8fa
    80003314:	deadbeef          	jal	x29,0x7ffde8fe
    80003318:	deadbeef          	jal	x29,0x7ffde902
    8000331c:	deadbeef          	jal	x29,0x7ffde906
    80003320:	deadbeef          	jal	x29,0x7ffde90a
    80003324:	deadbeef          	jal	x29,0x7ffde90e
    80003328:	deadbeef          	jal	x29,0x7ffde912
    8000332c:	deadbeef          	jal	x29,0x7ffde916
    80003330:	deadbeef          	jal	x29,0x7ffde91a
    80003334:	deadbeef          	jal	x29,0x7ffde91e
    80003338:	deadbeef          	jal	x29,0x7ffde922
    8000333c:	deadbeef          	jal	x29,0x7ffde926
    80003340:	deadbeef          	jal	x29,0x7ffde92a
    80003344:	deadbeef          	jal	x29,0x7ffde92e
    80003348:	deadbeef          	jal	x29,0x7ffde932
    8000334c:	deadbeef          	jal	x29,0x7ffde936
    80003350:	deadbeef          	jal	x29,0x7ffde93a
    80003354:	deadbeef          	jal	x29,0x7ffde93e
    80003358:	deadbeef          	jal	x29,0x7ffde942
    8000335c:	deadbeef          	jal	x29,0x7ffde946
    80003360:	deadbeef          	jal	x29,0x7ffde94a
    80003364:	deadbeef          	jal	x29,0x7ffde94e
    80003368:	deadbeef          	jal	x29,0x7ffde952
    8000336c:	deadbeef          	jal	x29,0x7ffde956
    80003370:	deadbeef          	jal	x29,0x7ffde95a
    80003374:	deadbeef          	jal	x29,0x7ffde95e
    80003378:	deadbeef          	jal	x29,0x7ffde962
    8000337c:	deadbeef          	jal	x29,0x7ffde966
    80003380:	deadbeef          	jal	x29,0x7ffde96a
    80003384:	deadbeef          	jal	x29,0x7ffde96e
    80003388:	deadbeef          	jal	x29,0x7ffde972
    8000338c:	deadbeef          	jal	x29,0x7ffde976
    80003390:	deadbeef          	jal	x29,0x7ffde97a
    80003394:	deadbeef          	jal	x29,0x7ffde97e
    80003398:	deadbeef          	jal	x29,0x7ffde982
    8000339c:	deadbeef          	jal	x29,0x7ffde986
    800033a0:	deadbeef          	jal	x29,0x7ffde98a
    800033a4:	deadbeef          	jal	x29,0x7ffde98e
    800033a8:	deadbeef          	jal	x29,0x7ffde992
    800033ac:	deadbeef          	jal	x29,0x7ffde996
    800033b0:	deadbeef          	jal	x29,0x7ffde99a
    800033b4:	deadbeef          	jal	x29,0x7ffde99e
    800033b8:	deadbeef          	jal	x29,0x7ffde9a2
    800033bc:	deadbeef          	jal	x29,0x7ffde9a6
    800033c0:	deadbeef          	jal	x29,0x7ffde9aa
    800033c4:	deadbeef          	jal	x29,0x7ffde9ae
    800033c8:	deadbeef          	jal	x29,0x7ffde9b2
    800033cc:	deadbeef          	jal	x29,0x7ffde9b6
    800033d0:	deadbeef          	jal	x29,0x7ffde9ba
    800033d4:	deadbeef          	jal	x29,0x7ffde9be
    800033d8:	deadbeef          	jal	x29,0x7ffde9c2
    800033dc:	deadbeef          	jal	x29,0x7ffde9c6
    800033e0:	deadbeef          	jal	x29,0x7ffde9ca
    800033e4:	deadbeef          	jal	x29,0x7ffde9ce
    800033e8:	deadbeef          	jal	x29,0x7ffde9d2
    800033ec:	deadbeef          	jal	x29,0x7ffde9d6
    800033f0:	deadbeef          	jal	x29,0x7ffde9da
    800033f4:	deadbeef          	jal	x29,0x7ffde9de
    800033f8:	deadbeef          	jal	x29,0x7ffde9e2
    800033fc:	deadbeef          	jal	x29,0x7ffde9e6
    80003400:	deadbeef          	jal	x29,0x7ffde9ea
    80003404:	deadbeef          	jal	x29,0x7ffde9ee
    80003408:	deadbeef          	jal	x29,0x7ffde9f2
    8000340c:	deadbeef          	jal	x29,0x7ffde9f6
    80003410:	deadbeef          	jal	x29,0x7ffde9fa
    80003414:	deadbeef          	jal	x29,0x7ffde9fe
    80003418:	deadbeef          	jal	x29,0x7ffdea02
    8000341c:	deadbeef          	jal	x29,0x7ffdea06
    80003420:	deadbeef          	jal	x29,0x7ffdea0a
    80003424:	deadbeef          	jal	x29,0x7ffdea0e
    80003428:	b281                	c.j	0x80002d68
    8000342a:	e7d4                	c.sd	x13,136(x15)
    8000342c:	a309                	c.j	0x8000392e
    8000342e:	6f5c                	c.ld	x15,152(x14)
